ARM GAS  C:\Users\haske\AppData\Local\Temp\ccLw7Foe.s 			page 1


   1              		.syntax unified
   2              		.cpu cortex-m0plus
   3              		.fpu softvfp
   4              		.eabi_attribute 20, 1
   5              		.eabi_attribute 21, 1
   6              		.eabi_attribute 23, 3
   7              		.eabi_attribute 24, 1
   8              		.eabi_attribute 25, 1
   9              		.eabi_attribute 26, 1
  10              		.eabi_attribute 30, 1
  11              		.eabi_attribute 34, 0
  12              		.eabi_attribute 18, 4
  13              		.thumb
  14              		.syntax unified
  15              		.file	"lv_disp.c"
  16              		.text
  17              	.Ltext0:
  18              		.cfi_sections	.debug_frame
  19              		.section	.text.is_out_anim,"ax",%progbits
  20              		.align	2
  21              		.code	16
  22              		.thumb_func
  23              		.type	is_out_anim, %function
  24              	is_out_anim:
  25              	.LFB188:
  26              		.file 1 "..\\..\\..\\arduinoLCD\\test\\Pain Drain\\libraries\\lvgl\\src\\core\\lv_disp.c"
   1:..\..\..\arduinoLCD\test\Pain Drain\libraries\lvgl\src\core/lv_disp.c **** /**
   2:..\..\..\arduinoLCD\test\Pain Drain\libraries\lvgl\src\core/lv_disp.c ****  * @file lv_disp.c
   3:..\..\..\arduinoLCD\test\Pain Drain\libraries\lvgl\src\core/lv_disp.c ****  *
   4:..\..\..\arduinoLCD\test\Pain Drain\libraries\lvgl\src\core/lv_disp.c ****  */
   5:..\..\..\arduinoLCD\test\Pain Drain\libraries\lvgl\src\core/lv_disp.c **** 
   6:..\..\..\arduinoLCD\test\Pain Drain\libraries\lvgl\src\core/lv_disp.c **** /*********************
   7:..\..\..\arduinoLCD\test\Pain Drain\libraries\lvgl\src\core/lv_disp.c ****  *      INCLUDES
   8:..\..\..\arduinoLCD\test\Pain Drain\libraries\lvgl\src\core/lv_disp.c ****  *********************/
   9:..\..\..\arduinoLCD\test\Pain Drain\libraries\lvgl\src\core/lv_disp.c **** #include "lv_disp.h"
  10:..\..\..\arduinoLCD\test\Pain Drain\libraries\lvgl\src\core/lv_disp.c **** #include "../misc/lv_math.h"
  11:..\..\..\arduinoLCD\test\Pain Drain\libraries\lvgl\src\core/lv_disp.c **** #include "../core/lv_refr.h"
  12:..\..\..\arduinoLCD\test\Pain Drain\libraries\lvgl\src\core/lv_disp.c **** 
  13:..\..\..\arduinoLCD\test\Pain Drain\libraries\lvgl\src\core/lv_disp.c **** /*********************
  14:..\..\..\arduinoLCD\test\Pain Drain\libraries\lvgl\src\core/lv_disp.c ****  *      DEFINES
  15:..\..\..\arduinoLCD\test\Pain Drain\libraries\lvgl\src\core/lv_disp.c ****  *********************/
  16:..\..\..\arduinoLCD\test\Pain Drain\libraries\lvgl\src\core/lv_disp.c **** 
  17:..\..\..\arduinoLCD\test\Pain Drain\libraries\lvgl\src\core/lv_disp.c **** /**********************
  18:..\..\..\arduinoLCD\test\Pain Drain\libraries\lvgl\src\core/lv_disp.c ****  *      TYPEDEFS
  19:..\..\..\arduinoLCD\test\Pain Drain\libraries\lvgl\src\core/lv_disp.c ****  **********************/
  20:..\..\..\arduinoLCD\test\Pain Drain\libraries\lvgl\src\core/lv_disp.c **** 
  21:..\..\..\arduinoLCD\test\Pain Drain\libraries\lvgl\src\core/lv_disp.c **** /**********************
  22:..\..\..\arduinoLCD\test\Pain Drain\libraries\lvgl\src\core/lv_disp.c ****  *  STATIC PROTOTYPES
  23:..\..\..\arduinoLCD\test\Pain Drain\libraries\lvgl\src\core/lv_disp.c ****  **********************/
  24:..\..\..\arduinoLCD\test\Pain Drain\libraries\lvgl\src\core/lv_disp.c **** static void scr_load_internal(lv_obj_t * scr);
  25:..\..\..\arduinoLCD\test\Pain Drain\libraries\lvgl\src\core/lv_disp.c **** static void scr_load_anim_start(lv_anim_t * a);
  26:..\..\..\arduinoLCD\test\Pain Drain\libraries\lvgl\src\core/lv_disp.c **** static void opa_scale_anim(void * obj, int32_t v);
  27:..\..\..\arduinoLCD\test\Pain Drain\libraries\lvgl\src\core/lv_disp.c **** static void set_x_anim(void * obj, int32_t v);
  28:..\..\..\arduinoLCD\test\Pain Drain\libraries\lvgl\src\core/lv_disp.c **** static void set_y_anim(void * obj, int32_t v);
  29:..\..\..\arduinoLCD\test\Pain Drain\libraries\lvgl\src\core/lv_disp.c **** static void scr_anim_ready(lv_anim_t * a);
  30:..\..\..\arduinoLCD\test\Pain Drain\libraries\lvgl\src\core/lv_disp.c **** static bool is_out_anim(lv_scr_load_anim_t a);
  31:..\..\..\arduinoLCD\test\Pain Drain\libraries\lvgl\src\core/lv_disp.c **** 
ARM GAS  C:\Users\haske\AppData\Local\Temp\ccLw7Foe.s 			page 2


  32:..\..\..\arduinoLCD\test\Pain Drain\libraries\lvgl\src\core/lv_disp.c **** /**********************
  33:..\..\..\arduinoLCD\test\Pain Drain\libraries\lvgl\src\core/lv_disp.c ****  *  STATIC VARIABLES
  34:..\..\..\arduinoLCD\test\Pain Drain\libraries\lvgl\src\core/lv_disp.c ****  **********************/
  35:..\..\..\arduinoLCD\test\Pain Drain\libraries\lvgl\src\core/lv_disp.c **** 
  36:..\..\..\arduinoLCD\test\Pain Drain\libraries\lvgl\src\core/lv_disp.c **** /**********************
  37:..\..\..\arduinoLCD\test\Pain Drain\libraries\lvgl\src\core/lv_disp.c ****  *      MACROS
  38:..\..\..\arduinoLCD\test\Pain Drain\libraries\lvgl\src\core/lv_disp.c ****  **********************/
  39:..\..\..\arduinoLCD\test\Pain Drain\libraries\lvgl\src\core/lv_disp.c **** 
  40:..\..\..\arduinoLCD\test\Pain Drain\libraries\lvgl\src\core/lv_disp.c **** /**********************
  41:..\..\..\arduinoLCD\test\Pain Drain\libraries\lvgl\src\core/lv_disp.c ****  *   GLOBAL FUNCTIONS
  42:..\..\..\arduinoLCD\test\Pain Drain\libraries\lvgl\src\core/lv_disp.c ****  **********************/
  43:..\..\..\arduinoLCD\test\Pain Drain\libraries\lvgl\src\core/lv_disp.c **** 
  44:..\..\..\arduinoLCD\test\Pain Drain\libraries\lvgl\src\core/lv_disp.c **** /**
  45:..\..\..\arduinoLCD\test\Pain Drain\libraries\lvgl\src\core/lv_disp.c ****  * Return with a pointer to the active screen
  46:..\..\..\arduinoLCD\test\Pain Drain\libraries\lvgl\src\core/lv_disp.c ****  * @param disp pointer to display which active screen should be get. (NULL to use the default
  47:..\..\..\arduinoLCD\test\Pain Drain\libraries\lvgl\src\core/lv_disp.c ****  * screen)
  48:..\..\..\arduinoLCD\test\Pain Drain\libraries\lvgl\src\core/lv_disp.c ****  * @return pointer to the active screen object (loaded by 'lv_scr_load()')
  49:..\..\..\arduinoLCD\test\Pain Drain\libraries\lvgl\src\core/lv_disp.c ****  */
  50:..\..\..\arduinoLCD\test\Pain Drain\libraries\lvgl\src\core/lv_disp.c **** lv_obj_t * lv_disp_get_scr_act(lv_disp_t * disp)
  51:..\..\..\arduinoLCD\test\Pain Drain\libraries\lvgl\src\core/lv_disp.c **** {
  52:..\..\..\arduinoLCD\test\Pain Drain\libraries\lvgl\src\core/lv_disp.c ****     if(!disp) disp = lv_disp_get_default();
  53:..\..\..\arduinoLCD\test\Pain Drain\libraries\lvgl\src\core/lv_disp.c ****     if(!disp) {
  54:..\..\..\arduinoLCD\test\Pain Drain\libraries\lvgl\src\core/lv_disp.c ****         LV_LOG_WARN("no display registered to get its active screen");
  55:..\..\..\arduinoLCD\test\Pain Drain\libraries\lvgl\src\core/lv_disp.c ****         return NULL;
  56:..\..\..\arduinoLCD\test\Pain Drain\libraries\lvgl\src\core/lv_disp.c ****     }
  57:..\..\..\arduinoLCD\test\Pain Drain\libraries\lvgl\src\core/lv_disp.c **** 
  58:..\..\..\arduinoLCD\test\Pain Drain\libraries\lvgl\src\core/lv_disp.c ****     return disp->act_scr;
  59:..\..\..\arduinoLCD\test\Pain Drain\libraries\lvgl\src\core/lv_disp.c **** }
  60:..\..\..\arduinoLCD\test\Pain Drain\libraries\lvgl\src\core/lv_disp.c **** 
  61:..\..\..\arduinoLCD\test\Pain Drain\libraries\lvgl\src\core/lv_disp.c **** /**
  62:..\..\..\arduinoLCD\test\Pain Drain\libraries\lvgl\src\core/lv_disp.c ****  * Return with a pointer to the previous screen. Only used during screen transitions.
  63:..\..\..\arduinoLCD\test\Pain Drain\libraries\lvgl\src\core/lv_disp.c ****  * @param disp pointer to display which previous screen should be get. (NULL to use the default
  64:..\..\..\arduinoLCD\test\Pain Drain\libraries\lvgl\src\core/lv_disp.c ****  * screen)
  65:..\..\..\arduinoLCD\test\Pain Drain\libraries\lvgl\src\core/lv_disp.c ****  * @return pointer to the previous screen object or NULL if not used now
  66:..\..\..\arduinoLCD\test\Pain Drain\libraries\lvgl\src\core/lv_disp.c ****  */
  67:..\..\..\arduinoLCD\test\Pain Drain\libraries\lvgl\src\core/lv_disp.c **** lv_obj_t * lv_disp_get_scr_prev(lv_disp_t * disp)
  68:..\..\..\arduinoLCD\test\Pain Drain\libraries\lvgl\src\core/lv_disp.c **** {
  69:..\..\..\arduinoLCD\test\Pain Drain\libraries\lvgl\src\core/lv_disp.c ****     if(!disp) disp = lv_disp_get_default();
  70:..\..\..\arduinoLCD\test\Pain Drain\libraries\lvgl\src\core/lv_disp.c ****     if(!disp) {
  71:..\..\..\arduinoLCD\test\Pain Drain\libraries\lvgl\src\core/lv_disp.c ****         LV_LOG_WARN("no display registered to get its previous screen");
  72:..\..\..\arduinoLCD\test\Pain Drain\libraries\lvgl\src\core/lv_disp.c ****         return NULL;
  73:..\..\..\arduinoLCD\test\Pain Drain\libraries\lvgl\src\core/lv_disp.c ****     }
  74:..\..\..\arduinoLCD\test\Pain Drain\libraries\lvgl\src\core/lv_disp.c **** 
  75:..\..\..\arduinoLCD\test\Pain Drain\libraries\lvgl\src\core/lv_disp.c ****     return disp->prev_scr;
  76:..\..\..\arduinoLCD\test\Pain Drain\libraries\lvgl\src\core/lv_disp.c **** }
  77:..\..\..\arduinoLCD\test\Pain Drain\libraries\lvgl\src\core/lv_disp.c **** 
  78:..\..\..\arduinoLCD\test\Pain Drain\libraries\lvgl\src\core/lv_disp.c **** /**
  79:..\..\..\arduinoLCD\test\Pain Drain\libraries\lvgl\src\core/lv_disp.c ****  * Make a screen active
  80:..\..\..\arduinoLCD\test\Pain Drain\libraries\lvgl\src\core/lv_disp.c ****  * @param scr pointer to a screen
  81:..\..\..\arduinoLCD\test\Pain Drain\libraries\lvgl\src\core/lv_disp.c ****  */
  82:..\..\..\arduinoLCD\test\Pain Drain\libraries\lvgl\src\core/lv_disp.c **** void lv_disp_load_scr(lv_obj_t * scr)
  83:..\..\..\arduinoLCD\test\Pain Drain\libraries\lvgl\src\core/lv_disp.c **** {
  84:..\..\..\arduinoLCD\test\Pain Drain\libraries\lvgl\src\core/lv_disp.c ****     lv_scr_load_anim(scr, LV_SCR_LOAD_ANIM_NONE, 0, 0, false);
  85:..\..\..\arduinoLCD\test\Pain Drain\libraries\lvgl\src\core/lv_disp.c **** }
  86:..\..\..\arduinoLCD\test\Pain Drain\libraries\lvgl\src\core/lv_disp.c **** 
  87:..\..\..\arduinoLCD\test\Pain Drain\libraries\lvgl\src\core/lv_disp.c **** /**
  88:..\..\..\arduinoLCD\test\Pain Drain\libraries\lvgl\src\core/lv_disp.c ****  * Return with the top layer. (Same on every screen and it is above the normal screen layer)
ARM GAS  C:\Users\haske\AppData\Local\Temp\ccLw7Foe.s 			page 3


  89:..\..\..\arduinoLCD\test\Pain Drain\libraries\lvgl\src\core/lv_disp.c ****  * @param disp pointer to display which top layer should be get. (NULL to use the default screen)
  90:..\..\..\arduinoLCD\test\Pain Drain\libraries\lvgl\src\core/lv_disp.c ****  * @return pointer to the top layer object (transparent screen sized lv_obj)
  91:..\..\..\arduinoLCD\test\Pain Drain\libraries\lvgl\src\core/lv_disp.c ****  */
  92:..\..\..\arduinoLCD\test\Pain Drain\libraries\lvgl\src\core/lv_disp.c **** lv_obj_t * lv_disp_get_layer_top(lv_disp_t * disp)
  93:..\..\..\arduinoLCD\test\Pain Drain\libraries\lvgl\src\core/lv_disp.c **** {
  94:..\..\..\arduinoLCD\test\Pain Drain\libraries\lvgl\src\core/lv_disp.c ****     if(!disp) disp = lv_disp_get_default();
  95:..\..\..\arduinoLCD\test\Pain Drain\libraries\lvgl\src\core/lv_disp.c ****     if(!disp) {
  96:..\..\..\arduinoLCD\test\Pain Drain\libraries\lvgl\src\core/lv_disp.c ****         LV_LOG_WARN("lv_layer_top: no display registered to get its top layer");
  97:..\..\..\arduinoLCD\test\Pain Drain\libraries\lvgl\src\core/lv_disp.c ****         return NULL;
  98:..\..\..\arduinoLCD\test\Pain Drain\libraries\lvgl\src\core/lv_disp.c ****     }
  99:..\..\..\arduinoLCD\test\Pain Drain\libraries\lvgl\src\core/lv_disp.c **** 
 100:..\..\..\arduinoLCD\test\Pain Drain\libraries\lvgl\src\core/lv_disp.c ****     return disp->top_layer;
 101:..\..\..\arduinoLCD\test\Pain Drain\libraries\lvgl\src\core/lv_disp.c **** }
 102:..\..\..\arduinoLCD\test\Pain Drain\libraries\lvgl\src\core/lv_disp.c **** 
 103:..\..\..\arduinoLCD\test\Pain Drain\libraries\lvgl\src\core/lv_disp.c **** /**
 104:..\..\..\arduinoLCD\test\Pain Drain\libraries\lvgl\src\core/lv_disp.c ****  * Return with the sys. layer. (Same on every screen and it is above the normal screen and the top
 105:..\..\..\arduinoLCD\test\Pain Drain\libraries\lvgl\src\core/lv_disp.c ****  * layer)
 106:..\..\..\arduinoLCD\test\Pain Drain\libraries\lvgl\src\core/lv_disp.c ****  * @param disp pointer to display which sys. layer should be retrieved. (NULL to use the default sc
 107:..\..\..\arduinoLCD\test\Pain Drain\libraries\lvgl\src\core/lv_disp.c ****  * @return pointer to the sys layer object (transparent screen sized lv_obj)
 108:..\..\..\arduinoLCD\test\Pain Drain\libraries\lvgl\src\core/lv_disp.c ****  */
 109:..\..\..\arduinoLCD\test\Pain Drain\libraries\lvgl\src\core/lv_disp.c **** lv_obj_t * lv_disp_get_layer_sys(lv_disp_t * disp)
 110:..\..\..\arduinoLCD\test\Pain Drain\libraries\lvgl\src\core/lv_disp.c **** {
 111:..\..\..\arduinoLCD\test\Pain Drain\libraries\lvgl\src\core/lv_disp.c ****     if(!disp) disp = lv_disp_get_default();
 112:..\..\..\arduinoLCD\test\Pain Drain\libraries\lvgl\src\core/lv_disp.c ****     if(!disp) {
 113:..\..\..\arduinoLCD\test\Pain Drain\libraries\lvgl\src\core/lv_disp.c ****         LV_LOG_WARN("lv_layer_sys: no display registered to get its sys. layer");
 114:..\..\..\arduinoLCD\test\Pain Drain\libraries\lvgl\src\core/lv_disp.c ****         return NULL;
 115:..\..\..\arduinoLCD\test\Pain Drain\libraries\lvgl\src\core/lv_disp.c ****     }
 116:..\..\..\arduinoLCD\test\Pain Drain\libraries\lvgl\src\core/lv_disp.c **** 
 117:..\..\..\arduinoLCD\test\Pain Drain\libraries\lvgl\src\core/lv_disp.c ****     return disp->sys_layer;
 118:..\..\..\arduinoLCD\test\Pain Drain\libraries\lvgl\src\core/lv_disp.c **** }
 119:..\..\..\arduinoLCD\test\Pain Drain\libraries\lvgl\src\core/lv_disp.c **** 
 120:..\..\..\arduinoLCD\test\Pain Drain\libraries\lvgl\src\core/lv_disp.c **** /**
 121:..\..\..\arduinoLCD\test\Pain Drain\libraries\lvgl\src\core/lv_disp.c ****  * Set the theme of a display
 122:..\..\..\arduinoLCD\test\Pain Drain\libraries\lvgl\src\core/lv_disp.c ****  * @param disp pointer to a display
 123:..\..\..\arduinoLCD\test\Pain Drain\libraries\lvgl\src\core/lv_disp.c ****  */
 124:..\..\..\arduinoLCD\test\Pain Drain\libraries\lvgl\src\core/lv_disp.c **** void lv_disp_set_theme(lv_disp_t * disp, lv_theme_t * th)
 125:..\..\..\arduinoLCD\test\Pain Drain\libraries\lvgl\src\core/lv_disp.c **** {
 126:..\..\..\arduinoLCD\test\Pain Drain\libraries\lvgl\src\core/lv_disp.c ****     if(!disp) disp = lv_disp_get_default();
 127:..\..\..\arduinoLCD\test\Pain Drain\libraries\lvgl\src\core/lv_disp.c ****     if(!disp) {
 128:..\..\..\arduinoLCD\test\Pain Drain\libraries\lvgl\src\core/lv_disp.c ****         LV_LOG_WARN("no display registered");
 129:..\..\..\arduinoLCD\test\Pain Drain\libraries\lvgl\src\core/lv_disp.c ****         return;
 130:..\..\..\arduinoLCD\test\Pain Drain\libraries\lvgl\src\core/lv_disp.c ****     }
 131:..\..\..\arduinoLCD\test\Pain Drain\libraries\lvgl\src\core/lv_disp.c **** 
 132:..\..\..\arduinoLCD\test\Pain Drain\libraries\lvgl\src\core/lv_disp.c ****     disp->theme = th;
 133:..\..\..\arduinoLCD\test\Pain Drain\libraries\lvgl\src\core/lv_disp.c **** 
 134:..\..\..\arduinoLCD\test\Pain Drain\libraries\lvgl\src\core/lv_disp.c ****     if(disp->screen_cnt == 3 &&
 135:..\..\..\arduinoLCD\test\Pain Drain\libraries\lvgl\src\core/lv_disp.c ****        lv_obj_get_child_cnt(disp->screens[0]) == 0 &&
 136:..\..\..\arduinoLCD\test\Pain Drain\libraries\lvgl\src\core/lv_disp.c ****        lv_obj_get_child_cnt(disp->screens[1]) == 0 &&
 137:..\..\..\arduinoLCD\test\Pain Drain\libraries\lvgl\src\core/lv_disp.c ****        lv_obj_get_child_cnt(disp->screens[2]) == 0) {
 138:..\..\..\arduinoLCD\test\Pain Drain\libraries\lvgl\src\core/lv_disp.c ****         lv_theme_apply(disp->screens[0]);
 139:..\..\..\arduinoLCD\test\Pain Drain\libraries\lvgl\src\core/lv_disp.c ****     }
 140:..\..\..\arduinoLCD\test\Pain Drain\libraries\lvgl\src\core/lv_disp.c **** }
 141:..\..\..\arduinoLCD\test\Pain Drain\libraries\lvgl\src\core/lv_disp.c **** /**
 142:..\..\..\arduinoLCD\test\Pain Drain\libraries\lvgl\src\core/lv_disp.c ****  * Get the theme of a display
 143:..\..\..\arduinoLCD\test\Pain Drain\libraries\lvgl\src\core/lv_disp.c ****  * @param disp pointer to a display
 144:..\..\..\arduinoLCD\test\Pain Drain\libraries\lvgl\src\core/lv_disp.c ****  * @return the display's theme (can be NULL)
 145:..\..\..\arduinoLCD\test\Pain Drain\libraries\lvgl\src\core/lv_disp.c ****  */
ARM GAS  C:\Users\haske\AppData\Local\Temp\ccLw7Foe.s 			page 4


 146:..\..\..\arduinoLCD\test\Pain Drain\libraries\lvgl\src\core/lv_disp.c **** lv_theme_t * lv_disp_get_theme(lv_disp_t * disp)
 147:..\..\..\arduinoLCD\test\Pain Drain\libraries\lvgl\src\core/lv_disp.c **** {
 148:..\..\..\arduinoLCD\test\Pain Drain\libraries\lvgl\src\core/lv_disp.c ****     if(disp == NULL) disp = lv_disp_get_default();
 149:..\..\..\arduinoLCD\test\Pain Drain\libraries\lvgl\src\core/lv_disp.c ****     return disp->theme;
 150:..\..\..\arduinoLCD\test\Pain Drain\libraries\lvgl\src\core/lv_disp.c **** }
 151:..\..\..\arduinoLCD\test\Pain Drain\libraries\lvgl\src\core/lv_disp.c **** 
 152:..\..\..\arduinoLCD\test\Pain Drain\libraries\lvgl\src\core/lv_disp.c **** /**
 153:..\..\..\arduinoLCD\test\Pain Drain\libraries\lvgl\src\core/lv_disp.c ****  * Set the background color of a display
 154:..\..\..\arduinoLCD\test\Pain Drain\libraries\lvgl\src\core/lv_disp.c ****  * @param disp pointer to a display
 155:..\..\..\arduinoLCD\test\Pain Drain\libraries\lvgl\src\core/lv_disp.c ****  * @param color color of the background
 156:..\..\..\arduinoLCD\test\Pain Drain\libraries\lvgl\src\core/lv_disp.c ****  */
 157:..\..\..\arduinoLCD\test\Pain Drain\libraries\lvgl\src\core/lv_disp.c **** void lv_disp_set_bg_color(lv_disp_t * disp, lv_color_t color)
 158:..\..\..\arduinoLCD\test\Pain Drain\libraries\lvgl\src\core/lv_disp.c **** {
 159:..\..\..\arduinoLCD\test\Pain Drain\libraries\lvgl\src\core/lv_disp.c ****     if(!disp) disp = lv_disp_get_default();
 160:..\..\..\arduinoLCD\test\Pain Drain\libraries\lvgl\src\core/lv_disp.c ****     if(!disp) {
 161:..\..\..\arduinoLCD\test\Pain Drain\libraries\lvgl\src\core/lv_disp.c ****         LV_LOG_WARN("no display registered");
 162:..\..\..\arduinoLCD\test\Pain Drain\libraries\lvgl\src\core/lv_disp.c ****         return;
 163:..\..\..\arduinoLCD\test\Pain Drain\libraries\lvgl\src\core/lv_disp.c ****     }
 164:..\..\..\arduinoLCD\test\Pain Drain\libraries\lvgl\src\core/lv_disp.c **** 
 165:..\..\..\arduinoLCD\test\Pain Drain\libraries\lvgl\src\core/lv_disp.c ****     disp->bg_color = color;
 166:..\..\..\arduinoLCD\test\Pain Drain\libraries\lvgl\src\core/lv_disp.c **** 
 167:..\..\..\arduinoLCD\test\Pain Drain\libraries\lvgl\src\core/lv_disp.c ****     lv_area_t a;
 168:..\..\..\arduinoLCD\test\Pain Drain\libraries\lvgl\src\core/lv_disp.c ****     lv_area_set(&a, 0, 0, lv_disp_get_hor_res(disp) - 1, lv_disp_get_ver_res(disp) - 1);
 169:..\..\..\arduinoLCD\test\Pain Drain\libraries\lvgl\src\core/lv_disp.c ****     _lv_inv_area(disp, &a);
 170:..\..\..\arduinoLCD\test\Pain Drain\libraries\lvgl\src\core/lv_disp.c **** 
 171:..\..\..\arduinoLCD\test\Pain Drain\libraries\lvgl\src\core/lv_disp.c **** }
 172:..\..\..\arduinoLCD\test\Pain Drain\libraries\lvgl\src\core/lv_disp.c **** 
 173:..\..\..\arduinoLCD\test\Pain Drain\libraries\lvgl\src\core/lv_disp.c **** /**
 174:..\..\..\arduinoLCD\test\Pain Drain\libraries\lvgl\src\core/lv_disp.c ****  * Set the background image of a display
 175:..\..\..\arduinoLCD\test\Pain Drain\libraries\lvgl\src\core/lv_disp.c ****  * @param disp pointer to a display
 176:..\..\..\arduinoLCD\test\Pain Drain\libraries\lvgl\src\core/lv_disp.c ****  * @param img_src path to file or pointer to an `lv_img_dsc_t` variable
 177:..\..\..\arduinoLCD\test\Pain Drain\libraries\lvgl\src\core/lv_disp.c ****  */
 178:..\..\..\arduinoLCD\test\Pain Drain\libraries\lvgl\src\core/lv_disp.c **** void lv_disp_set_bg_image(lv_disp_t * disp, const void  * img_src)
 179:..\..\..\arduinoLCD\test\Pain Drain\libraries\lvgl\src\core/lv_disp.c **** {
 180:..\..\..\arduinoLCD\test\Pain Drain\libraries\lvgl\src\core/lv_disp.c ****     if(!disp) disp = lv_disp_get_default();
 181:..\..\..\arduinoLCD\test\Pain Drain\libraries\lvgl\src\core/lv_disp.c ****     if(!disp) {
 182:..\..\..\arduinoLCD\test\Pain Drain\libraries\lvgl\src\core/lv_disp.c ****         LV_LOG_WARN("no display registered");
 183:..\..\..\arduinoLCD\test\Pain Drain\libraries\lvgl\src\core/lv_disp.c ****         return;
 184:..\..\..\arduinoLCD\test\Pain Drain\libraries\lvgl\src\core/lv_disp.c ****     }
 185:..\..\..\arduinoLCD\test\Pain Drain\libraries\lvgl\src\core/lv_disp.c **** 
 186:..\..\..\arduinoLCD\test\Pain Drain\libraries\lvgl\src\core/lv_disp.c ****     disp->bg_img = img_src;
 187:..\..\..\arduinoLCD\test\Pain Drain\libraries\lvgl\src\core/lv_disp.c **** 
 188:..\..\..\arduinoLCD\test\Pain Drain\libraries\lvgl\src\core/lv_disp.c ****     lv_area_t a;
 189:..\..\..\arduinoLCD\test\Pain Drain\libraries\lvgl\src\core/lv_disp.c ****     lv_area_set(&a, 0, 0, lv_disp_get_hor_res(disp) - 1, lv_disp_get_ver_res(disp) - 1);
 190:..\..\..\arduinoLCD\test\Pain Drain\libraries\lvgl\src\core/lv_disp.c ****     _lv_inv_area(disp, &a);
 191:..\..\..\arduinoLCD\test\Pain Drain\libraries\lvgl\src\core/lv_disp.c **** }
 192:..\..\..\arduinoLCD\test\Pain Drain\libraries\lvgl\src\core/lv_disp.c **** 
 193:..\..\..\arduinoLCD\test\Pain Drain\libraries\lvgl\src\core/lv_disp.c **** /**
 194:..\..\..\arduinoLCD\test\Pain Drain\libraries\lvgl\src\core/lv_disp.c ****  * Set opacity of the background
 195:..\..\..\arduinoLCD\test\Pain Drain\libraries\lvgl\src\core/lv_disp.c ****  * @param disp pointer to a display
 196:..\..\..\arduinoLCD\test\Pain Drain\libraries\lvgl\src\core/lv_disp.c ****  * @param opa opacity (0..255)
 197:..\..\..\arduinoLCD\test\Pain Drain\libraries\lvgl\src\core/lv_disp.c ****  */
 198:..\..\..\arduinoLCD\test\Pain Drain\libraries\lvgl\src\core/lv_disp.c **** void lv_disp_set_bg_opa(lv_disp_t * disp, lv_opa_t opa)
 199:..\..\..\arduinoLCD\test\Pain Drain\libraries\lvgl\src\core/lv_disp.c **** {
 200:..\..\..\arduinoLCD\test\Pain Drain\libraries\lvgl\src\core/lv_disp.c ****     if(!disp) disp = lv_disp_get_default();
 201:..\..\..\arduinoLCD\test\Pain Drain\libraries\lvgl\src\core/lv_disp.c ****     if(!disp) {
 202:..\..\..\arduinoLCD\test\Pain Drain\libraries\lvgl\src\core/lv_disp.c ****         LV_LOG_WARN("no display registered");
ARM GAS  C:\Users\haske\AppData\Local\Temp\ccLw7Foe.s 			page 5


 203:..\..\..\arduinoLCD\test\Pain Drain\libraries\lvgl\src\core/lv_disp.c ****         return;
 204:..\..\..\arduinoLCD\test\Pain Drain\libraries\lvgl\src\core/lv_disp.c ****     }
 205:..\..\..\arduinoLCD\test\Pain Drain\libraries\lvgl\src\core/lv_disp.c **** 
 206:..\..\..\arduinoLCD\test\Pain Drain\libraries\lvgl\src\core/lv_disp.c ****     disp->bg_opa = opa;
 207:..\..\..\arduinoLCD\test\Pain Drain\libraries\lvgl\src\core/lv_disp.c **** 
 208:..\..\..\arduinoLCD\test\Pain Drain\libraries\lvgl\src\core/lv_disp.c ****     lv_area_t a;
 209:..\..\..\arduinoLCD\test\Pain Drain\libraries\lvgl\src\core/lv_disp.c ****     lv_area_set(&a, 0, 0, lv_disp_get_hor_res(disp) - 1, lv_disp_get_ver_res(disp) - 1);
 210:..\..\..\arduinoLCD\test\Pain Drain\libraries\lvgl\src\core/lv_disp.c ****     _lv_inv_area(disp, &a);
 211:..\..\..\arduinoLCD\test\Pain Drain\libraries\lvgl\src\core/lv_disp.c **** }
 212:..\..\..\arduinoLCD\test\Pain Drain\libraries\lvgl\src\core/lv_disp.c **** 
 213:..\..\..\arduinoLCD\test\Pain Drain\libraries\lvgl\src\core/lv_disp.c **** /**
 214:..\..\..\arduinoLCD\test\Pain Drain\libraries\lvgl\src\core/lv_disp.c ****  * Switch screen with animation
 215:..\..\..\arduinoLCD\test\Pain Drain\libraries\lvgl\src\core/lv_disp.c ****  * @param scr pointer to the new screen to load
 216:..\..\..\arduinoLCD\test\Pain Drain\libraries\lvgl\src\core/lv_disp.c ****  * @param anim_type type of the animation from `lv_scr_load_anim_t`, e.g. `LV_SCR_LOAD_ANIM_MOVE_LE
 217:..\..\..\arduinoLCD\test\Pain Drain\libraries\lvgl\src\core/lv_disp.c ****  * @param time time of the animation
 218:..\..\..\arduinoLCD\test\Pain Drain\libraries\lvgl\src\core/lv_disp.c ****  * @param delay delay before the transition
 219:..\..\..\arduinoLCD\test\Pain Drain\libraries\lvgl\src\core/lv_disp.c ****  * @param auto_del true: automatically delete the old screen
 220:..\..\..\arduinoLCD\test\Pain Drain\libraries\lvgl\src\core/lv_disp.c ****  */
 221:..\..\..\arduinoLCD\test\Pain Drain\libraries\lvgl\src\core/lv_disp.c **** void lv_scr_load_anim(lv_obj_t * new_scr, lv_scr_load_anim_t anim_type, uint32_t time, uint32_t del
 222:..\..\..\arduinoLCD\test\Pain Drain\libraries\lvgl\src\core/lv_disp.c **** {
 223:..\..\..\arduinoLCD\test\Pain Drain\libraries\lvgl\src\core/lv_disp.c **** 
 224:..\..\..\arduinoLCD\test\Pain Drain\libraries\lvgl\src\core/lv_disp.c ****     lv_disp_t * d = lv_obj_get_disp(new_scr);
 225:..\..\..\arduinoLCD\test\Pain Drain\libraries\lvgl\src\core/lv_disp.c ****     lv_obj_t * act_scr = lv_scr_act();
 226:..\..\..\arduinoLCD\test\Pain Drain\libraries\lvgl\src\core/lv_disp.c **** 
 227:..\..\..\arduinoLCD\test\Pain Drain\libraries\lvgl\src\core/lv_disp.c ****     /*If an other screen load animation is in progress
 228:..\..\..\arduinoLCD\test\Pain Drain\libraries\lvgl\src\core/lv_disp.c ****      *make target screen loaded immediately. */
 229:..\..\..\arduinoLCD\test\Pain Drain\libraries\lvgl\src\core/lv_disp.c ****     if(d->scr_to_load && act_scr != d->scr_to_load) {
 230:..\..\..\arduinoLCD\test\Pain Drain\libraries\lvgl\src\core/lv_disp.c ****         scr_load_internal(d->scr_to_load);
 231:..\..\..\arduinoLCD\test\Pain Drain\libraries\lvgl\src\core/lv_disp.c ****         lv_anim_del(d->scr_to_load, NULL);
 232:..\..\..\arduinoLCD\test\Pain Drain\libraries\lvgl\src\core/lv_disp.c ****         lv_obj_set_pos(d->scr_to_load, 0, 0);
 233:..\..\..\arduinoLCD\test\Pain Drain\libraries\lvgl\src\core/lv_disp.c ****         lv_obj_remove_local_style_prop(d->scr_to_load, LV_STYLE_OPA, 0);
 234:..\..\..\arduinoLCD\test\Pain Drain\libraries\lvgl\src\core/lv_disp.c **** 
 235:..\..\..\arduinoLCD\test\Pain Drain\libraries\lvgl\src\core/lv_disp.c ****         if(d->del_prev) {
 236:..\..\..\arduinoLCD\test\Pain Drain\libraries\lvgl\src\core/lv_disp.c ****             lv_obj_del(act_scr);
 237:..\..\..\arduinoLCD\test\Pain Drain\libraries\lvgl\src\core/lv_disp.c ****         }
 238:..\..\..\arduinoLCD\test\Pain Drain\libraries\lvgl\src\core/lv_disp.c ****         act_scr = d->scr_to_load;
 239:..\..\..\arduinoLCD\test\Pain Drain\libraries\lvgl\src\core/lv_disp.c ****     }
 240:..\..\..\arduinoLCD\test\Pain Drain\libraries\lvgl\src\core/lv_disp.c **** 
 241:..\..\..\arduinoLCD\test\Pain Drain\libraries\lvgl\src\core/lv_disp.c ****     d->scr_to_load = new_scr;
 242:..\..\..\arduinoLCD\test\Pain Drain\libraries\lvgl\src\core/lv_disp.c **** 
 243:..\..\..\arduinoLCD\test\Pain Drain\libraries\lvgl\src\core/lv_disp.c ****     if(d->prev_scr && d->del_prev) {
 244:..\..\..\arduinoLCD\test\Pain Drain\libraries\lvgl\src\core/lv_disp.c ****         lv_obj_del(d->prev_scr);
 245:..\..\..\arduinoLCD\test\Pain Drain\libraries\lvgl\src\core/lv_disp.c ****         d->prev_scr = NULL;
 246:..\..\..\arduinoLCD\test\Pain Drain\libraries\lvgl\src\core/lv_disp.c ****     }
 247:..\..\..\arduinoLCD\test\Pain Drain\libraries\lvgl\src\core/lv_disp.c **** 
 248:..\..\..\arduinoLCD\test\Pain Drain\libraries\lvgl\src\core/lv_disp.c ****     d->draw_prev_over_act = is_out_anim(anim_type);
 249:..\..\..\arduinoLCD\test\Pain Drain\libraries\lvgl\src\core/lv_disp.c ****     d->del_prev = auto_del;
 250:..\..\..\arduinoLCD\test\Pain Drain\libraries\lvgl\src\core/lv_disp.c **** 
 251:..\..\..\arduinoLCD\test\Pain Drain\libraries\lvgl\src\core/lv_disp.c ****     /*Be sure there is no other animation on the screens*/
 252:..\..\..\arduinoLCD\test\Pain Drain\libraries\lvgl\src\core/lv_disp.c ****     lv_anim_del(new_scr, NULL);
 253:..\..\..\arduinoLCD\test\Pain Drain\libraries\lvgl\src\core/lv_disp.c ****     lv_anim_del(lv_scr_act(), NULL);
 254:..\..\..\arduinoLCD\test\Pain Drain\libraries\lvgl\src\core/lv_disp.c **** 
 255:..\..\..\arduinoLCD\test\Pain Drain\libraries\lvgl\src\core/lv_disp.c ****     /*Be sure both screens are in a normal position*/
 256:..\..\..\arduinoLCD\test\Pain Drain\libraries\lvgl\src\core/lv_disp.c ****     lv_obj_set_pos(new_scr, 0, 0);
 257:..\..\..\arduinoLCD\test\Pain Drain\libraries\lvgl\src\core/lv_disp.c ****     lv_obj_set_pos(lv_scr_act(), 0, 0);
 258:..\..\..\arduinoLCD\test\Pain Drain\libraries\lvgl\src\core/lv_disp.c ****     lv_obj_remove_local_style_prop(new_scr, LV_STYLE_OPA, 0);
 259:..\..\..\arduinoLCD\test\Pain Drain\libraries\lvgl\src\core/lv_disp.c ****     lv_obj_remove_local_style_prop(lv_scr_act(), LV_STYLE_OPA, 0);
ARM GAS  C:\Users\haske\AppData\Local\Temp\ccLw7Foe.s 			page 6


 260:..\..\..\arduinoLCD\test\Pain Drain\libraries\lvgl\src\core/lv_disp.c **** 
 261:..\..\..\arduinoLCD\test\Pain Drain\libraries\lvgl\src\core/lv_disp.c **** 
 262:..\..\..\arduinoLCD\test\Pain Drain\libraries\lvgl\src\core/lv_disp.c ****     /*Shortcut for immediate load*/
 263:..\..\..\arduinoLCD\test\Pain Drain\libraries\lvgl\src\core/lv_disp.c ****     if(time == 0 && delay == 0) {
 264:..\..\..\arduinoLCD\test\Pain Drain\libraries\lvgl\src\core/lv_disp.c ****         scr_load_internal(new_scr);
 265:..\..\..\arduinoLCD\test\Pain Drain\libraries\lvgl\src\core/lv_disp.c ****         return;
 266:..\..\..\arduinoLCD\test\Pain Drain\libraries\lvgl\src\core/lv_disp.c ****     }
 267:..\..\..\arduinoLCD\test\Pain Drain\libraries\lvgl\src\core/lv_disp.c **** 
 268:..\..\..\arduinoLCD\test\Pain Drain\libraries\lvgl\src\core/lv_disp.c ****     lv_anim_t a_new;
 269:..\..\..\arduinoLCD\test\Pain Drain\libraries\lvgl\src\core/lv_disp.c ****     lv_anim_init(&a_new);
 270:..\..\..\arduinoLCD\test\Pain Drain\libraries\lvgl\src\core/lv_disp.c ****     lv_anim_set_var(&a_new, new_scr);
 271:..\..\..\arduinoLCD\test\Pain Drain\libraries\lvgl\src\core/lv_disp.c ****     lv_anim_set_start_cb(&a_new, scr_load_anim_start);
 272:..\..\..\arduinoLCD\test\Pain Drain\libraries\lvgl\src\core/lv_disp.c ****     lv_anim_set_ready_cb(&a_new, scr_anim_ready);
 273:..\..\..\arduinoLCD\test\Pain Drain\libraries\lvgl\src\core/lv_disp.c ****     lv_anim_set_time(&a_new, time);
 274:..\..\..\arduinoLCD\test\Pain Drain\libraries\lvgl\src\core/lv_disp.c ****     lv_anim_set_delay(&a_new, delay);
 275:..\..\..\arduinoLCD\test\Pain Drain\libraries\lvgl\src\core/lv_disp.c **** 
 276:..\..\..\arduinoLCD\test\Pain Drain\libraries\lvgl\src\core/lv_disp.c ****     lv_anim_t a_old;
 277:..\..\..\arduinoLCD\test\Pain Drain\libraries\lvgl\src\core/lv_disp.c ****     lv_anim_init(&a_old);
 278:..\..\..\arduinoLCD\test\Pain Drain\libraries\lvgl\src\core/lv_disp.c ****     lv_anim_set_var(&a_old, d->act_scr);
 279:..\..\..\arduinoLCD\test\Pain Drain\libraries\lvgl\src\core/lv_disp.c ****     lv_anim_set_time(&a_old, time);
 280:..\..\..\arduinoLCD\test\Pain Drain\libraries\lvgl\src\core/lv_disp.c ****     lv_anim_set_delay(&a_old, delay);
 281:..\..\..\arduinoLCD\test\Pain Drain\libraries\lvgl\src\core/lv_disp.c **** 
 282:..\..\..\arduinoLCD\test\Pain Drain\libraries\lvgl\src\core/lv_disp.c ****     switch(anim_type) {
 283:..\..\..\arduinoLCD\test\Pain Drain\libraries\lvgl\src\core/lv_disp.c ****         case LV_SCR_LOAD_ANIM_NONE:
 284:..\..\..\arduinoLCD\test\Pain Drain\libraries\lvgl\src\core/lv_disp.c ****             /*Create a dummy animation to apply the delay*/
 285:..\..\..\arduinoLCD\test\Pain Drain\libraries\lvgl\src\core/lv_disp.c ****             lv_anim_set_exec_cb(&a_new, set_x_anim);
 286:..\..\..\arduinoLCD\test\Pain Drain\libraries\lvgl\src\core/lv_disp.c ****             lv_anim_set_values(&a_new, 0, 0);
 287:..\..\..\arduinoLCD\test\Pain Drain\libraries\lvgl\src\core/lv_disp.c ****             break;
 288:..\..\..\arduinoLCD\test\Pain Drain\libraries\lvgl\src\core/lv_disp.c ****         case LV_SCR_LOAD_ANIM_OVER_LEFT:
 289:..\..\..\arduinoLCD\test\Pain Drain\libraries\lvgl\src\core/lv_disp.c ****             lv_anim_set_exec_cb(&a_new, set_x_anim);
 290:..\..\..\arduinoLCD\test\Pain Drain\libraries\lvgl\src\core/lv_disp.c ****             lv_anim_set_values(&a_new, lv_disp_get_hor_res(d), 0);
 291:..\..\..\arduinoLCD\test\Pain Drain\libraries\lvgl\src\core/lv_disp.c ****             break;
 292:..\..\..\arduinoLCD\test\Pain Drain\libraries\lvgl\src\core/lv_disp.c ****         case LV_SCR_LOAD_ANIM_OVER_RIGHT:
 293:..\..\..\arduinoLCD\test\Pain Drain\libraries\lvgl\src\core/lv_disp.c ****             lv_anim_set_exec_cb(&a_new, set_x_anim);
 294:..\..\..\arduinoLCD\test\Pain Drain\libraries\lvgl\src\core/lv_disp.c ****             lv_anim_set_values(&a_new, -lv_disp_get_hor_res(d), 0);
 295:..\..\..\arduinoLCD\test\Pain Drain\libraries\lvgl\src\core/lv_disp.c ****             break;
 296:..\..\..\arduinoLCD\test\Pain Drain\libraries\lvgl\src\core/lv_disp.c ****         case LV_SCR_LOAD_ANIM_OVER_TOP:
 297:..\..\..\arduinoLCD\test\Pain Drain\libraries\lvgl\src\core/lv_disp.c ****             lv_anim_set_exec_cb(&a_new, set_y_anim);
 298:..\..\..\arduinoLCD\test\Pain Drain\libraries\lvgl\src\core/lv_disp.c ****             lv_anim_set_values(&a_new, lv_disp_get_ver_res(d), 0);
 299:..\..\..\arduinoLCD\test\Pain Drain\libraries\lvgl\src\core/lv_disp.c ****             break;
 300:..\..\..\arduinoLCD\test\Pain Drain\libraries\lvgl\src\core/lv_disp.c ****         case LV_SCR_LOAD_ANIM_OVER_BOTTOM:
 301:..\..\..\arduinoLCD\test\Pain Drain\libraries\lvgl\src\core/lv_disp.c ****             lv_anim_set_exec_cb(&a_new, set_y_anim);
 302:..\..\..\arduinoLCD\test\Pain Drain\libraries\lvgl\src\core/lv_disp.c ****             lv_anim_set_values(&a_new, -lv_disp_get_ver_res(d), 0);
 303:..\..\..\arduinoLCD\test\Pain Drain\libraries\lvgl\src\core/lv_disp.c ****             break;
 304:..\..\..\arduinoLCD\test\Pain Drain\libraries\lvgl\src\core/lv_disp.c ****         case LV_SCR_LOAD_ANIM_MOVE_LEFT:
 305:..\..\..\arduinoLCD\test\Pain Drain\libraries\lvgl\src\core/lv_disp.c ****             lv_anim_set_exec_cb(&a_new, set_x_anim);
 306:..\..\..\arduinoLCD\test\Pain Drain\libraries\lvgl\src\core/lv_disp.c ****             lv_anim_set_values(&a_new, lv_disp_get_hor_res(d), 0);
 307:..\..\..\arduinoLCD\test\Pain Drain\libraries\lvgl\src\core/lv_disp.c **** 
 308:..\..\..\arduinoLCD\test\Pain Drain\libraries\lvgl\src\core/lv_disp.c ****             lv_anim_set_exec_cb(&a_old, set_x_anim);
 309:..\..\..\arduinoLCD\test\Pain Drain\libraries\lvgl\src\core/lv_disp.c ****             lv_anim_set_values(&a_old, 0, -lv_disp_get_hor_res(d));
 310:..\..\..\arduinoLCD\test\Pain Drain\libraries\lvgl\src\core/lv_disp.c ****             break;
 311:..\..\..\arduinoLCD\test\Pain Drain\libraries\lvgl\src\core/lv_disp.c ****         case LV_SCR_LOAD_ANIM_MOVE_RIGHT:
 312:..\..\..\arduinoLCD\test\Pain Drain\libraries\lvgl\src\core/lv_disp.c ****             lv_anim_set_exec_cb(&a_new, set_x_anim);
 313:..\..\..\arduinoLCD\test\Pain Drain\libraries\lvgl\src\core/lv_disp.c ****             lv_anim_set_values(&a_new, -lv_disp_get_hor_res(d), 0);
 314:..\..\..\arduinoLCD\test\Pain Drain\libraries\lvgl\src\core/lv_disp.c **** 
 315:..\..\..\arduinoLCD\test\Pain Drain\libraries\lvgl\src\core/lv_disp.c ****             lv_anim_set_exec_cb(&a_old, set_x_anim);
 316:..\..\..\arduinoLCD\test\Pain Drain\libraries\lvgl\src\core/lv_disp.c ****             lv_anim_set_values(&a_old, 0, lv_disp_get_hor_res(d));
ARM GAS  C:\Users\haske\AppData\Local\Temp\ccLw7Foe.s 			page 7


 317:..\..\..\arduinoLCD\test\Pain Drain\libraries\lvgl\src\core/lv_disp.c ****             break;
 318:..\..\..\arduinoLCD\test\Pain Drain\libraries\lvgl\src\core/lv_disp.c ****         case LV_SCR_LOAD_ANIM_MOVE_TOP:
 319:..\..\..\arduinoLCD\test\Pain Drain\libraries\lvgl\src\core/lv_disp.c ****             lv_anim_set_exec_cb(&a_new, set_y_anim);
 320:..\..\..\arduinoLCD\test\Pain Drain\libraries\lvgl\src\core/lv_disp.c ****             lv_anim_set_values(&a_new, lv_disp_get_ver_res(d), 0);
 321:..\..\..\arduinoLCD\test\Pain Drain\libraries\lvgl\src\core/lv_disp.c **** 
 322:..\..\..\arduinoLCD\test\Pain Drain\libraries\lvgl\src\core/lv_disp.c ****             lv_anim_set_exec_cb(&a_old, set_y_anim);
 323:..\..\..\arduinoLCD\test\Pain Drain\libraries\lvgl\src\core/lv_disp.c ****             lv_anim_set_values(&a_old, 0, -lv_disp_get_ver_res(d));
 324:..\..\..\arduinoLCD\test\Pain Drain\libraries\lvgl\src\core/lv_disp.c ****             break;
 325:..\..\..\arduinoLCD\test\Pain Drain\libraries\lvgl\src\core/lv_disp.c ****         case LV_SCR_LOAD_ANIM_MOVE_BOTTOM:
 326:..\..\..\arduinoLCD\test\Pain Drain\libraries\lvgl\src\core/lv_disp.c ****             lv_anim_set_exec_cb(&a_new, set_y_anim);
 327:..\..\..\arduinoLCD\test\Pain Drain\libraries\lvgl\src\core/lv_disp.c ****             lv_anim_set_values(&a_new, -lv_disp_get_ver_res(d), 0);
 328:..\..\..\arduinoLCD\test\Pain Drain\libraries\lvgl\src\core/lv_disp.c **** 
 329:..\..\..\arduinoLCD\test\Pain Drain\libraries\lvgl\src\core/lv_disp.c ****             lv_anim_set_exec_cb(&a_old, set_y_anim);
 330:..\..\..\arduinoLCD\test\Pain Drain\libraries\lvgl\src\core/lv_disp.c ****             lv_anim_set_values(&a_old, 0, lv_disp_get_ver_res(d));
 331:..\..\..\arduinoLCD\test\Pain Drain\libraries\lvgl\src\core/lv_disp.c ****             break;
 332:..\..\..\arduinoLCD\test\Pain Drain\libraries\lvgl\src\core/lv_disp.c ****         case LV_SCR_LOAD_ANIM_FADE_IN:
 333:..\..\..\arduinoLCD\test\Pain Drain\libraries\lvgl\src\core/lv_disp.c ****             lv_anim_set_exec_cb(&a_new, opa_scale_anim);
 334:..\..\..\arduinoLCD\test\Pain Drain\libraries\lvgl\src\core/lv_disp.c ****             lv_anim_set_values(&a_new, LV_OPA_TRANSP, LV_OPA_COVER);
 335:..\..\..\arduinoLCD\test\Pain Drain\libraries\lvgl\src\core/lv_disp.c ****             break;
 336:..\..\..\arduinoLCD\test\Pain Drain\libraries\lvgl\src\core/lv_disp.c ****         case LV_SCR_LOAD_ANIM_FADE_OUT:
 337:..\..\..\arduinoLCD\test\Pain Drain\libraries\lvgl\src\core/lv_disp.c ****             lv_anim_set_exec_cb(&a_old, opa_scale_anim);
 338:..\..\..\arduinoLCD\test\Pain Drain\libraries\lvgl\src\core/lv_disp.c ****             lv_anim_set_values(&a_old, LV_OPA_COVER, LV_OPA_TRANSP);
 339:..\..\..\arduinoLCD\test\Pain Drain\libraries\lvgl\src\core/lv_disp.c ****             break;
 340:..\..\..\arduinoLCD\test\Pain Drain\libraries\lvgl\src\core/lv_disp.c ****         case LV_SCR_LOAD_ANIM_OUT_LEFT:
 341:..\..\..\arduinoLCD\test\Pain Drain\libraries\lvgl\src\core/lv_disp.c ****             lv_anim_set_exec_cb(&a_old, set_x_anim);
 342:..\..\..\arduinoLCD\test\Pain Drain\libraries\lvgl\src\core/lv_disp.c ****             lv_anim_set_values(&a_old, 0, -lv_disp_get_hor_res(d));
 343:..\..\..\arduinoLCD\test\Pain Drain\libraries\lvgl\src\core/lv_disp.c ****             break;
 344:..\..\..\arduinoLCD\test\Pain Drain\libraries\lvgl\src\core/lv_disp.c ****         case LV_SCR_LOAD_ANIM_OUT_RIGHT:
 345:..\..\..\arduinoLCD\test\Pain Drain\libraries\lvgl\src\core/lv_disp.c ****             lv_anim_set_exec_cb(&a_old, set_x_anim);
 346:..\..\..\arduinoLCD\test\Pain Drain\libraries\lvgl\src\core/lv_disp.c ****             lv_anim_set_values(&a_old, 0, lv_disp_get_hor_res(d));
 347:..\..\..\arduinoLCD\test\Pain Drain\libraries\lvgl\src\core/lv_disp.c ****             break;
 348:..\..\..\arduinoLCD\test\Pain Drain\libraries\lvgl\src\core/lv_disp.c ****         case LV_SCR_LOAD_ANIM_OUT_TOP:
 349:..\..\..\arduinoLCD\test\Pain Drain\libraries\lvgl\src\core/lv_disp.c ****             lv_anim_set_exec_cb(&a_old, set_y_anim);
 350:..\..\..\arduinoLCD\test\Pain Drain\libraries\lvgl\src\core/lv_disp.c ****             lv_anim_set_values(&a_old, 0, -lv_disp_get_ver_res(d));
 351:..\..\..\arduinoLCD\test\Pain Drain\libraries\lvgl\src\core/lv_disp.c ****             break;
 352:..\..\..\arduinoLCD\test\Pain Drain\libraries\lvgl\src\core/lv_disp.c ****         case LV_SCR_LOAD_ANIM_OUT_BOTTOM:
 353:..\..\..\arduinoLCD\test\Pain Drain\libraries\lvgl\src\core/lv_disp.c ****             lv_anim_set_exec_cb(&a_old, set_y_anim);
 354:..\..\..\arduinoLCD\test\Pain Drain\libraries\lvgl\src\core/lv_disp.c ****             lv_anim_set_values(&a_old, 0, lv_disp_get_ver_res(d));
 355:..\..\..\arduinoLCD\test\Pain Drain\libraries\lvgl\src\core/lv_disp.c ****             break;
 356:..\..\..\arduinoLCD\test\Pain Drain\libraries\lvgl\src\core/lv_disp.c ****     }
 357:..\..\..\arduinoLCD\test\Pain Drain\libraries\lvgl\src\core/lv_disp.c **** 
 358:..\..\..\arduinoLCD\test\Pain Drain\libraries\lvgl\src\core/lv_disp.c ****     lv_event_send(act_scr, LV_EVENT_SCREEN_UNLOAD_START, NULL);
 359:..\..\..\arduinoLCD\test\Pain Drain\libraries\lvgl\src\core/lv_disp.c **** 
 360:..\..\..\arduinoLCD\test\Pain Drain\libraries\lvgl\src\core/lv_disp.c ****     lv_anim_start(&a_new);
 361:..\..\..\arduinoLCD\test\Pain Drain\libraries\lvgl\src\core/lv_disp.c ****     lv_anim_start(&a_old);
 362:..\..\..\arduinoLCD\test\Pain Drain\libraries\lvgl\src\core/lv_disp.c **** }
 363:..\..\..\arduinoLCD\test\Pain Drain\libraries\lvgl\src\core/lv_disp.c **** 
 364:..\..\..\arduinoLCD\test\Pain Drain\libraries\lvgl\src\core/lv_disp.c **** /**
 365:..\..\..\arduinoLCD\test\Pain Drain\libraries\lvgl\src\core/lv_disp.c ****  * Get elapsed time since last user activity on a display (e.g. click)
 366:..\..\..\arduinoLCD\test\Pain Drain\libraries\lvgl\src\core/lv_disp.c ****  * @param disp pointer to a display (NULL to get the overall smallest inactivity)
 367:..\..\..\arduinoLCD\test\Pain Drain\libraries\lvgl\src\core/lv_disp.c ****  * @return elapsed ticks (milliseconds) since the last activity
 368:..\..\..\arduinoLCD\test\Pain Drain\libraries\lvgl\src\core/lv_disp.c ****  */
 369:..\..\..\arduinoLCD\test\Pain Drain\libraries\lvgl\src\core/lv_disp.c **** uint32_t lv_disp_get_inactive_time(const lv_disp_t * disp)
 370:..\..\..\arduinoLCD\test\Pain Drain\libraries\lvgl\src\core/lv_disp.c **** {
 371:..\..\..\arduinoLCD\test\Pain Drain\libraries\lvgl\src\core/lv_disp.c ****     if(disp) return lv_tick_elaps(disp->last_activity_time);
 372:..\..\..\arduinoLCD\test\Pain Drain\libraries\lvgl\src\core/lv_disp.c **** 
 373:..\..\..\arduinoLCD\test\Pain Drain\libraries\lvgl\src\core/lv_disp.c ****     lv_disp_t * d;
ARM GAS  C:\Users\haske\AppData\Local\Temp\ccLw7Foe.s 			page 8


 374:..\..\..\arduinoLCD\test\Pain Drain\libraries\lvgl\src\core/lv_disp.c ****     uint32_t t = UINT32_MAX;
 375:..\..\..\arduinoLCD\test\Pain Drain\libraries\lvgl\src\core/lv_disp.c ****     d          = lv_disp_get_next(NULL);
 376:..\..\..\arduinoLCD\test\Pain Drain\libraries\lvgl\src\core/lv_disp.c ****     while(d) {
 377:..\..\..\arduinoLCD\test\Pain Drain\libraries\lvgl\src\core/lv_disp.c ****         uint32_t elaps = lv_tick_elaps(d->last_activity_time);
 378:..\..\..\arduinoLCD\test\Pain Drain\libraries\lvgl\src\core/lv_disp.c ****         t = LV_MIN(t, elaps);
 379:..\..\..\arduinoLCD\test\Pain Drain\libraries\lvgl\src\core/lv_disp.c ****         d = lv_disp_get_next(d);
 380:..\..\..\arduinoLCD\test\Pain Drain\libraries\lvgl\src\core/lv_disp.c ****     }
 381:..\..\..\arduinoLCD\test\Pain Drain\libraries\lvgl\src\core/lv_disp.c **** 
 382:..\..\..\arduinoLCD\test\Pain Drain\libraries\lvgl\src\core/lv_disp.c ****     return t;
 383:..\..\..\arduinoLCD\test\Pain Drain\libraries\lvgl\src\core/lv_disp.c **** }
 384:..\..\..\arduinoLCD\test\Pain Drain\libraries\lvgl\src\core/lv_disp.c **** 
 385:..\..\..\arduinoLCD\test\Pain Drain\libraries\lvgl\src\core/lv_disp.c **** /**
 386:..\..\..\arduinoLCD\test\Pain Drain\libraries\lvgl\src\core/lv_disp.c ****  * Manually trigger an activity on a display
 387:..\..\..\arduinoLCD\test\Pain Drain\libraries\lvgl\src\core/lv_disp.c ****  * @param disp pointer to a display (NULL to use the default display)
 388:..\..\..\arduinoLCD\test\Pain Drain\libraries\lvgl\src\core/lv_disp.c ****  */
 389:..\..\..\arduinoLCD\test\Pain Drain\libraries\lvgl\src\core/lv_disp.c **** void lv_disp_trig_activity(lv_disp_t * disp)
 390:..\..\..\arduinoLCD\test\Pain Drain\libraries\lvgl\src\core/lv_disp.c **** {
 391:..\..\..\arduinoLCD\test\Pain Drain\libraries\lvgl\src\core/lv_disp.c ****     if(!disp) disp = lv_disp_get_default();
 392:..\..\..\arduinoLCD\test\Pain Drain\libraries\lvgl\src\core/lv_disp.c ****     if(!disp) {
 393:..\..\..\arduinoLCD\test\Pain Drain\libraries\lvgl\src\core/lv_disp.c ****         LV_LOG_WARN("lv_disp_trig_activity: no display registered");
 394:..\..\..\arduinoLCD\test\Pain Drain\libraries\lvgl\src\core/lv_disp.c ****         return;
 395:..\..\..\arduinoLCD\test\Pain Drain\libraries\lvgl\src\core/lv_disp.c ****     }
 396:..\..\..\arduinoLCD\test\Pain Drain\libraries\lvgl\src\core/lv_disp.c **** 
 397:..\..\..\arduinoLCD\test\Pain Drain\libraries\lvgl\src\core/lv_disp.c ****     disp->last_activity_time = lv_tick_get();
 398:..\..\..\arduinoLCD\test\Pain Drain\libraries\lvgl\src\core/lv_disp.c **** }
 399:..\..\..\arduinoLCD\test\Pain Drain\libraries\lvgl\src\core/lv_disp.c **** 
 400:..\..\..\arduinoLCD\test\Pain Drain\libraries\lvgl\src\core/lv_disp.c **** /**
 401:..\..\..\arduinoLCD\test\Pain Drain\libraries\lvgl\src\core/lv_disp.c ****  * Clean any CPU cache that is related to the display.
 402:..\..\..\arduinoLCD\test\Pain Drain\libraries\lvgl\src\core/lv_disp.c ****  * @param disp pointer to a display (NULL to use the default display)
 403:..\..\..\arduinoLCD\test\Pain Drain\libraries\lvgl\src\core/lv_disp.c ****  */
 404:..\..\..\arduinoLCD\test\Pain Drain\libraries\lvgl\src\core/lv_disp.c **** void lv_disp_clean_dcache(lv_disp_t * disp)
 405:..\..\..\arduinoLCD\test\Pain Drain\libraries\lvgl\src\core/lv_disp.c **** {
 406:..\..\..\arduinoLCD\test\Pain Drain\libraries\lvgl\src\core/lv_disp.c ****     if(!disp) disp = lv_disp_get_default();
 407:..\..\..\arduinoLCD\test\Pain Drain\libraries\lvgl\src\core/lv_disp.c ****     if(!disp) {
 408:..\..\..\arduinoLCD\test\Pain Drain\libraries\lvgl\src\core/lv_disp.c ****         LV_LOG_WARN("lv_disp_clean_dcache: no display registered");
 409:..\..\..\arduinoLCD\test\Pain Drain\libraries\lvgl\src\core/lv_disp.c ****         return;
 410:..\..\..\arduinoLCD\test\Pain Drain\libraries\lvgl\src\core/lv_disp.c ****     }
 411:..\..\..\arduinoLCD\test\Pain Drain\libraries\lvgl\src\core/lv_disp.c **** 
 412:..\..\..\arduinoLCD\test\Pain Drain\libraries\lvgl\src\core/lv_disp.c ****     if(disp->driver->clean_dcache_cb)
 413:..\..\..\arduinoLCD\test\Pain Drain\libraries\lvgl\src\core/lv_disp.c ****         disp->driver->clean_dcache_cb(disp->driver);
 414:..\..\..\arduinoLCD\test\Pain Drain\libraries\lvgl\src\core/lv_disp.c **** }
 415:..\..\..\arduinoLCD\test\Pain Drain\libraries\lvgl\src\core/lv_disp.c **** 
 416:..\..\..\arduinoLCD\test\Pain Drain\libraries\lvgl\src\core/lv_disp.c **** /**
 417:..\..\..\arduinoLCD\test\Pain Drain\libraries\lvgl\src\core/lv_disp.c ****  * Temporarily enable and disable the invalidation of the display.
 418:..\..\..\arduinoLCD\test\Pain Drain\libraries\lvgl\src\core/lv_disp.c ****  * @param disp pointer to a display (NULL to use the default display)
 419:..\..\..\arduinoLCD\test\Pain Drain\libraries\lvgl\src\core/lv_disp.c ****  * @param en true: enable invalidation; false: invalidation
 420:..\..\..\arduinoLCD\test\Pain Drain\libraries\lvgl\src\core/lv_disp.c ****  */
 421:..\..\..\arduinoLCD\test\Pain Drain\libraries\lvgl\src\core/lv_disp.c **** void lv_disp_enable_invalidation(lv_disp_t * disp, bool en)
 422:..\..\..\arduinoLCD\test\Pain Drain\libraries\lvgl\src\core/lv_disp.c **** {
 423:..\..\..\arduinoLCD\test\Pain Drain\libraries\lvgl\src\core/lv_disp.c ****     if(!disp) disp = lv_disp_get_default();
 424:..\..\..\arduinoLCD\test\Pain Drain\libraries\lvgl\src\core/lv_disp.c ****     if(!disp) {
 425:..\..\..\arduinoLCD\test\Pain Drain\libraries\lvgl\src\core/lv_disp.c ****         LV_LOG_WARN("no display registered");
 426:..\..\..\arduinoLCD\test\Pain Drain\libraries\lvgl\src\core/lv_disp.c ****         return;
 427:..\..\..\arduinoLCD\test\Pain Drain\libraries\lvgl\src\core/lv_disp.c ****     }
 428:..\..\..\arduinoLCD\test\Pain Drain\libraries\lvgl\src\core/lv_disp.c **** 
 429:..\..\..\arduinoLCD\test\Pain Drain\libraries\lvgl\src\core/lv_disp.c ****     disp->inv_en_cnt += en ? 1 : -1;
 430:..\..\..\arduinoLCD\test\Pain Drain\libraries\lvgl\src\core/lv_disp.c **** }
ARM GAS  C:\Users\haske\AppData\Local\Temp\ccLw7Foe.s 			page 9


 431:..\..\..\arduinoLCD\test\Pain Drain\libraries\lvgl\src\core/lv_disp.c **** 
 432:..\..\..\arduinoLCD\test\Pain Drain\libraries\lvgl\src\core/lv_disp.c **** /**
 433:..\..\..\arduinoLCD\test\Pain Drain\libraries\lvgl\src\core/lv_disp.c ****  * Get display invalidation is enabled.
 434:..\..\..\arduinoLCD\test\Pain Drain\libraries\lvgl\src\core/lv_disp.c ****  * @param disp pointer to a display (NULL to use the default display)
 435:..\..\..\arduinoLCD\test\Pain Drain\libraries\lvgl\src\core/lv_disp.c ****  * @return return true if invalidation is enabled
 436:..\..\..\arduinoLCD\test\Pain Drain\libraries\lvgl\src\core/lv_disp.c ****  */
 437:..\..\..\arduinoLCD\test\Pain Drain\libraries\lvgl\src\core/lv_disp.c **** bool lv_disp_is_invalidation_enabled(lv_disp_t * disp)
 438:..\..\..\arduinoLCD\test\Pain Drain\libraries\lvgl\src\core/lv_disp.c **** {
 439:..\..\..\arduinoLCD\test\Pain Drain\libraries\lvgl\src\core/lv_disp.c ****     if(!disp) disp = lv_disp_get_default();
 440:..\..\..\arduinoLCD\test\Pain Drain\libraries\lvgl\src\core/lv_disp.c ****     if(!disp) {
 441:..\..\..\arduinoLCD\test\Pain Drain\libraries\lvgl\src\core/lv_disp.c ****         LV_LOG_WARN("no display registered");
 442:..\..\..\arduinoLCD\test\Pain Drain\libraries\lvgl\src\core/lv_disp.c ****         return false;
 443:..\..\..\arduinoLCD\test\Pain Drain\libraries\lvgl\src\core/lv_disp.c ****     }
 444:..\..\..\arduinoLCD\test\Pain Drain\libraries\lvgl\src\core/lv_disp.c **** 
 445:..\..\..\arduinoLCD\test\Pain Drain\libraries\lvgl\src\core/lv_disp.c ****     return (disp->inv_en_cnt > 0);
 446:..\..\..\arduinoLCD\test\Pain Drain\libraries\lvgl\src\core/lv_disp.c **** }
 447:..\..\..\arduinoLCD\test\Pain Drain\libraries\lvgl\src\core/lv_disp.c **** 
 448:..\..\..\arduinoLCD\test\Pain Drain\libraries\lvgl\src\core/lv_disp.c **** /**
 449:..\..\..\arduinoLCD\test\Pain Drain\libraries\lvgl\src\core/lv_disp.c ****  * Get a pointer to the screen refresher timer to
 450:..\..\..\arduinoLCD\test\Pain Drain\libraries\lvgl\src\core/lv_disp.c ****  * modify its parameters with `lv_timer_...` functions.
 451:..\..\..\arduinoLCD\test\Pain Drain\libraries\lvgl\src\core/lv_disp.c ****  * @param disp pointer to a display
 452:..\..\..\arduinoLCD\test\Pain Drain\libraries\lvgl\src\core/lv_disp.c ****  * @return pointer to the display refresher timer. (NULL on error)
 453:..\..\..\arduinoLCD\test\Pain Drain\libraries\lvgl\src\core/lv_disp.c ****  */
 454:..\..\..\arduinoLCD\test\Pain Drain\libraries\lvgl\src\core/lv_disp.c **** lv_timer_t * _lv_disp_get_refr_timer(lv_disp_t * disp)
 455:..\..\..\arduinoLCD\test\Pain Drain\libraries\lvgl\src\core/lv_disp.c **** {
 456:..\..\..\arduinoLCD\test\Pain Drain\libraries\lvgl\src\core/lv_disp.c ****     if(!disp) disp = lv_disp_get_default();
 457:..\..\..\arduinoLCD\test\Pain Drain\libraries\lvgl\src\core/lv_disp.c ****     if(!disp) {
 458:..\..\..\arduinoLCD\test\Pain Drain\libraries\lvgl\src\core/lv_disp.c ****         LV_LOG_WARN("lv_disp_get_refr_timer: no display registered");
 459:..\..\..\arduinoLCD\test\Pain Drain\libraries\lvgl\src\core/lv_disp.c ****         return NULL;
 460:..\..\..\arduinoLCD\test\Pain Drain\libraries\lvgl\src\core/lv_disp.c ****     }
 461:..\..\..\arduinoLCD\test\Pain Drain\libraries\lvgl\src\core/lv_disp.c **** 
 462:..\..\..\arduinoLCD\test\Pain Drain\libraries\lvgl\src\core/lv_disp.c ****     return disp->refr_timer;
 463:..\..\..\arduinoLCD\test\Pain Drain\libraries\lvgl\src\core/lv_disp.c **** }
 464:..\..\..\arduinoLCD\test\Pain Drain\libraries\lvgl\src\core/lv_disp.c **** 
 465:..\..\..\arduinoLCD\test\Pain Drain\libraries\lvgl\src\core/lv_disp.c **** /**********************
 466:..\..\..\arduinoLCD\test\Pain Drain\libraries\lvgl\src\core/lv_disp.c ****  *   STATIC FUNCTIONS
 467:..\..\..\arduinoLCD\test\Pain Drain\libraries\lvgl\src\core/lv_disp.c ****  **********************/
 468:..\..\..\arduinoLCD\test\Pain Drain\libraries\lvgl\src\core/lv_disp.c **** 
 469:..\..\..\arduinoLCD\test\Pain Drain\libraries\lvgl\src\core/lv_disp.c **** static void scr_load_internal(lv_obj_t * scr)
 470:..\..\..\arduinoLCD\test\Pain Drain\libraries\lvgl\src\core/lv_disp.c **** {
 471:..\..\..\arduinoLCD\test\Pain Drain\libraries\lvgl\src\core/lv_disp.c ****     lv_disp_t * d = lv_obj_get_disp(scr);
 472:..\..\..\arduinoLCD\test\Pain Drain\libraries\lvgl\src\core/lv_disp.c ****     if(!d) return;  /*Shouldn't happen, just to be sure*/
 473:..\..\..\arduinoLCD\test\Pain Drain\libraries\lvgl\src\core/lv_disp.c **** 
 474:..\..\..\arduinoLCD\test\Pain Drain\libraries\lvgl\src\core/lv_disp.c ****     lv_obj_t * old_scr = d->act_scr;
 475:..\..\..\arduinoLCD\test\Pain Drain\libraries\lvgl\src\core/lv_disp.c **** 
 476:..\..\..\arduinoLCD\test\Pain Drain\libraries\lvgl\src\core/lv_disp.c ****     if(d->act_scr) lv_event_send(old_scr, LV_EVENT_SCREEN_UNLOAD_START, NULL);
 477:..\..\..\arduinoLCD\test\Pain Drain\libraries\lvgl\src\core/lv_disp.c ****     if(d->act_scr) lv_event_send(scr, LV_EVENT_SCREEN_LOAD_START, NULL);
 478:..\..\..\arduinoLCD\test\Pain Drain\libraries\lvgl\src\core/lv_disp.c **** 
 479:..\..\..\arduinoLCD\test\Pain Drain\libraries\lvgl\src\core/lv_disp.c ****     d->act_scr = scr;
 480:..\..\..\arduinoLCD\test\Pain Drain\libraries\lvgl\src\core/lv_disp.c **** 
 481:..\..\..\arduinoLCD\test\Pain Drain\libraries\lvgl\src\core/lv_disp.c ****     if(d->act_scr) lv_event_send(scr, LV_EVENT_SCREEN_LOADED, NULL);
 482:..\..\..\arduinoLCD\test\Pain Drain\libraries\lvgl\src\core/lv_disp.c ****     if(d->act_scr) lv_event_send(old_scr, LV_EVENT_SCREEN_UNLOADED, NULL);
 483:..\..\..\arduinoLCD\test\Pain Drain\libraries\lvgl\src\core/lv_disp.c **** 
 484:..\..\..\arduinoLCD\test\Pain Drain\libraries\lvgl\src\core/lv_disp.c ****     lv_obj_invalidate(scr);
 485:..\..\..\arduinoLCD\test\Pain Drain\libraries\lvgl\src\core/lv_disp.c **** }
 486:..\..\..\arduinoLCD\test\Pain Drain\libraries\lvgl\src\core/lv_disp.c **** 
 487:..\..\..\arduinoLCD\test\Pain Drain\libraries\lvgl\src\core/lv_disp.c **** static void scr_load_anim_start(lv_anim_t * a)
ARM GAS  C:\Users\haske\AppData\Local\Temp\ccLw7Foe.s 			page 10


 488:..\..\..\arduinoLCD\test\Pain Drain\libraries\lvgl\src\core/lv_disp.c **** {
 489:..\..\..\arduinoLCD\test\Pain Drain\libraries\lvgl\src\core/lv_disp.c ****     lv_disp_t * d = lv_obj_get_disp(a->var);
 490:..\..\..\arduinoLCD\test\Pain Drain\libraries\lvgl\src\core/lv_disp.c **** 
 491:..\..\..\arduinoLCD\test\Pain Drain\libraries\lvgl\src\core/lv_disp.c ****     d->prev_scr = lv_scr_act();
 492:..\..\..\arduinoLCD\test\Pain Drain\libraries\lvgl\src\core/lv_disp.c ****     d->act_scr = a->var;
 493:..\..\..\arduinoLCD\test\Pain Drain\libraries\lvgl\src\core/lv_disp.c **** 
 494:..\..\..\arduinoLCD\test\Pain Drain\libraries\lvgl\src\core/lv_disp.c ****     lv_event_send(d->act_scr, LV_EVENT_SCREEN_LOAD_START, NULL);
 495:..\..\..\arduinoLCD\test\Pain Drain\libraries\lvgl\src\core/lv_disp.c **** }
 496:..\..\..\arduinoLCD\test\Pain Drain\libraries\lvgl\src\core/lv_disp.c **** 
 497:..\..\..\arduinoLCD\test\Pain Drain\libraries\lvgl\src\core/lv_disp.c **** static void opa_scale_anim(void * obj, int32_t v)
 498:..\..\..\arduinoLCD\test\Pain Drain\libraries\lvgl\src\core/lv_disp.c **** {
 499:..\..\..\arduinoLCD\test\Pain Drain\libraries\lvgl\src\core/lv_disp.c ****     lv_obj_set_style_opa(obj, v, 0);
 500:..\..\..\arduinoLCD\test\Pain Drain\libraries\lvgl\src\core/lv_disp.c **** }
 501:..\..\..\arduinoLCD\test\Pain Drain\libraries\lvgl\src\core/lv_disp.c **** 
 502:..\..\..\arduinoLCD\test\Pain Drain\libraries\lvgl\src\core/lv_disp.c **** static void set_x_anim(void * obj, int32_t v)
 503:..\..\..\arduinoLCD\test\Pain Drain\libraries\lvgl\src\core/lv_disp.c **** {
 504:..\..\..\arduinoLCD\test\Pain Drain\libraries\lvgl\src\core/lv_disp.c ****     lv_obj_set_x(obj, v);
 505:..\..\..\arduinoLCD\test\Pain Drain\libraries\lvgl\src\core/lv_disp.c **** }
 506:..\..\..\arduinoLCD\test\Pain Drain\libraries\lvgl\src\core/lv_disp.c **** 
 507:..\..\..\arduinoLCD\test\Pain Drain\libraries\lvgl\src\core/lv_disp.c **** static void set_y_anim(void * obj, int32_t v)
 508:..\..\..\arduinoLCD\test\Pain Drain\libraries\lvgl\src\core/lv_disp.c **** {
 509:..\..\..\arduinoLCD\test\Pain Drain\libraries\lvgl\src\core/lv_disp.c ****     lv_obj_set_y(obj, v);
 510:..\..\..\arduinoLCD\test\Pain Drain\libraries\lvgl\src\core/lv_disp.c **** }
 511:..\..\..\arduinoLCD\test\Pain Drain\libraries\lvgl\src\core/lv_disp.c **** 
 512:..\..\..\arduinoLCD\test\Pain Drain\libraries\lvgl\src\core/lv_disp.c **** static void scr_anim_ready(lv_anim_t * a)
 513:..\..\..\arduinoLCD\test\Pain Drain\libraries\lvgl\src\core/lv_disp.c **** {
 514:..\..\..\arduinoLCD\test\Pain Drain\libraries\lvgl\src\core/lv_disp.c ****     lv_disp_t * d = lv_obj_get_disp(a->var);
 515:..\..\..\arduinoLCD\test\Pain Drain\libraries\lvgl\src\core/lv_disp.c **** 
 516:..\..\..\arduinoLCD\test\Pain Drain\libraries\lvgl\src\core/lv_disp.c ****     lv_event_send(d->act_scr, LV_EVENT_SCREEN_LOADED, NULL);
 517:..\..\..\arduinoLCD\test\Pain Drain\libraries\lvgl\src\core/lv_disp.c ****     lv_event_send(d->prev_scr, LV_EVENT_SCREEN_UNLOADED, NULL);
 518:..\..\..\arduinoLCD\test\Pain Drain\libraries\lvgl\src\core/lv_disp.c **** 
 519:..\..\..\arduinoLCD\test\Pain Drain\libraries\lvgl\src\core/lv_disp.c ****     if(d->prev_scr && d->del_prev) lv_obj_del(d->prev_scr);
 520:..\..\..\arduinoLCD\test\Pain Drain\libraries\lvgl\src\core/lv_disp.c ****     d->prev_scr = NULL;
 521:..\..\..\arduinoLCD\test\Pain Drain\libraries\lvgl\src\core/lv_disp.c ****     d->draw_prev_over_act = false;
 522:..\..\..\arduinoLCD\test\Pain Drain\libraries\lvgl\src\core/lv_disp.c ****     d->scr_to_load = NULL;
 523:..\..\..\arduinoLCD\test\Pain Drain\libraries\lvgl\src\core/lv_disp.c ****     lv_obj_remove_local_style_prop(a->var, LV_STYLE_OPA, 0);
 524:..\..\..\arduinoLCD\test\Pain Drain\libraries\lvgl\src\core/lv_disp.c ****     lv_obj_invalidate(d->act_scr);
 525:..\..\..\arduinoLCD\test\Pain Drain\libraries\lvgl\src\core/lv_disp.c **** }
 526:..\..\..\arduinoLCD\test\Pain Drain\libraries\lvgl\src\core/lv_disp.c **** 
 527:..\..\..\arduinoLCD\test\Pain Drain\libraries\lvgl\src\core/lv_disp.c **** static bool is_out_anim(lv_scr_load_anim_t anim_type)
 528:..\..\..\arduinoLCD\test\Pain Drain\libraries\lvgl\src\core/lv_disp.c **** {
  27              		.loc 1 528 0
  28              		.cfi_startproc
  29              		@ args = 0, pretend = 0, frame = 0
  30              		@ frame_needed = 0, uses_anonymous_args = 0
  31              		@ link register save eliminated.
  32              	.LVL0:
 529:..\..\..\arduinoLCD\test\Pain Drain\libraries\lvgl\src\core/lv_disp.c ****     return anim_type == LV_SCR_LOAD_ANIM_FADE_OUT  ||
 530:..\..\..\arduinoLCD\test\Pain Drain\libraries\lvgl\src\core/lv_disp.c ****            anim_type == LV_SCR_LOAD_ANIM_OUT_LEFT  ||
 531:..\..\..\arduinoLCD\test\Pain Drain\libraries\lvgl\src\core/lv_disp.c ****            anim_type == LV_SCR_LOAD_ANIM_OUT_RIGHT ||
 532:..\..\..\arduinoLCD\test\Pain Drain\libraries\lvgl\src\core/lv_disp.c ****            anim_type == LV_SCR_LOAD_ANIM_OUT_TOP   ||
  33              		.loc 1 532 0
  34 0000 0A38     		subs	r0, r0, #10
  35              	.LVL1:
  36 0002 C3B2     		uxtb	r3, r0
 529:..\..\..\arduinoLCD\test\Pain Drain\libraries\lvgl\src\core/lv_disp.c ****     return anim_type == LV_SCR_LOAD_ANIM_FADE_OUT  ||
  37              		.loc 1 529 0
ARM GAS  C:\Users\haske\AppData\Local\Temp\ccLw7Foe.s 			page 11


  38 0004 0020     		movs	r0, #0
  39 0006 0422     		movs	r2, #4
  40 0008 9A42     		cmp	r2, r3
  41 000a 4041     		adcs	r0, r0, r0
  42 000c C0B2     		uxtb	r0, r0
 533:..\..\..\arduinoLCD\test\Pain Drain\libraries\lvgl\src\core/lv_disp.c ****            anim_type == LV_SCR_LOAD_ANIM_OUT_BOTTOM;
 534:..\..\..\arduinoLCD\test\Pain Drain\libraries\lvgl\src\core/lv_disp.c **** }
  43              		.loc 1 534 0
  44              		@ sp needed
  45 000e 7047     		bx	lr
  46              		.cfi_endproc
  47              	.LFE188:
  48              		.size	is_out_anim, .-is_out_anim
  49              		.section	.text.opa_scale_anim,"ax",%progbits
  50              		.align	2
  51              		.code	16
  52              		.thumb_func
  53              		.type	opa_scale_anim, %function
  54              	opa_scale_anim:
  55              	.LFB184:
 498:..\..\..\arduinoLCD\test\Pain Drain\libraries\lvgl\src\core/lv_disp.c ****     lv_obj_set_style_opa(obj, v, 0);
  56              		.loc 1 498 0
  57              		.cfi_startproc
  58              		@ args = 0, pretend = 0, frame = 0
  59              		@ frame_needed = 0, uses_anonymous_args = 0
  60              	.LVL2:
  61 0000 10B5     		push	{r4, lr}
  62              		.cfi_def_cfa_offset 8
  63              		.cfi_offset 4, -8
  64              		.cfi_offset 14, -4
 499:..\..\..\arduinoLCD\test\Pain Drain\libraries\lvgl\src\core/lv_disp.c **** }
  65              		.loc 1 499 0
  66 0002 C9B2     		uxtb	r1, r1
  67              	.LVL3:
  68 0004 0022     		movs	r2, #0
  69 0006 FFF7FEFF 		bl	lv_obj_set_style_opa
  70              	.LVL4:
 500:..\..\..\arduinoLCD\test\Pain Drain\libraries\lvgl\src\core/lv_disp.c **** 
  71              		.loc 1 500 0
  72              		@ sp needed
  73 000a 10BD     		pop	{r4, pc}
  74              		.cfi_endproc
  75              	.LFE184:
  76              		.size	opa_scale_anim, .-opa_scale_anim
  77              		.section	.text.set_y_anim,"ax",%progbits
  78              		.align	2
  79              		.code	16
  80              		.thumb_func
  81              		.type	set_y_anim, %function
  82              	set_y_anim:
  83              	.LFB186:
 508:..\..\..\arduinoLCD\test\Pain Drain\libraries\lvgl\src\core/lv_disp.c ****     lv_obj_set_y(obj, v);
  84              		.loc 1 508 0
  85              		.cfi_startproc
  86              		@ args = 0, pretend = 0, frame = 0
  87              		@ frame_needed = 0, uses_anonymous_args = 0
  88              	.LVL5:
ARM GAS  C:\Users\haske\AppData\Local\Temp\ccLw7Foe.s 			page 12


  89 0000 10B5     		push	{r4, lr}
  90              		.cfi_def_cfa_offset 8
  91              		.cfi_offset 4, -8
  92              		.cfi_offset 14, -4
 509:..\..\..\arduinoLCD\test\Pain Drain\libraries\lvgl\src\core/lv_disp.c **** }
  93              		.loc 1 509 0
  94 0002 09B2     		sxth	r1, r1
  95              	.LVL6:
  96 0004 FFF7FEFF 		bl	lv_obj_set_y
  97              	.LVL7:
 510:..\..\..\arduinoLCD\test\Pain Drain\libraries\lvgl\src\core/lv_disp.c **** 
  98              		.loc 1 510 0
  99              		@ sp needed
 100 0008 10BD     		pop	{r4, pc}
 101              		.cfi_endproc
 102              	.LFE186:
 103              		.size	set_y_anim, .-set_y_anim
 104 000a C046     		.section	.text.set_x_anim,"ax",%progbits
 105              		.align	2
 106              		.code	16
 107              		.thumb_func
 108              		.type	set_x_anim, %function
 109              	set_x_anim:
 110              	.LFB185:
 503:..\..\..\arduinoLCD\test\Pain Drain\libraries\lvgl\src\core/lv_disp.c ****     lv_obj_set_x(obj, v);
 111              		.loc 1 503 0
 112              		.cfi_startproc
 113              		@ args = 0, pretend = 0, frame = 0
 114              		@ frame_needed = 0, uses_anonymous_args = 0
 115              	.LVL8:
 116 0000 10B5     		push	{r4, lr}
 117              		.cfi_def_cfa_offset 8
 118              		.cfi_offset 4, -8
 119              		.cfi_offset 14, -4
 504:..\..\..\arduinoLCD\test\Pain Drain\libraries\lvgl\src\core/lv_disp.c **** }
 120              		.loc 1 504 0
 121 0002 09B2     		sxth	r1, r1
 122              	.LVL9:
 123 0004 FFF7FEFF 		bl	lv_obj_set_x
 124              	.LVL10:
 505:..\..\..\arduinoLCD\test\Pain Drain\libraries\lvgl\src\core/lv_disp.c **** 
 125              		.loc 1 505 0
 126              		@ sp needed
 127 0008 10BD     		pop	{r4, pc}
 128              		.cfi_endproc
 129              	.LFE185:
 130              		.size	set_x_anim, .-set_x_anim
 131 000a C046     		.section	.text.scr_anim_ready,"ax",%progbits
 132              		.align	2
 133              		.code	16
 134              		.thumb_func
 135              		.type	scr_anim_ready, %function
 136              	scr_anim_ready:
 137              	.LFB187:
 513:..\..\..\arduinoLCD\test\Pain Drain\libraries\lvgl\src\core/lv_disp.c ****     lv_disp_t * d = lv_obj_get_disp(a->var);
 138              		.loc 1 513 0
 139              		.cfi_startproc
ARM GAS  C:\Users\haske\AppData\Local\Temp\ccLw7Foe.s 			page 13


 140              		@ args = 0, pretend = 0, frame = 0
 141              		@ frame_needed = 0, uses_anonymous_args = 0
 142              	.LVL11:
 143 0000 70B5     		push	{r4, r5, r6, lr}
 144              		.cfi_def_cfa_offset 16
 145              		.cfi_offset 4, -16
 146              		.cfi_offset 5, -12
 147              		.cfi_offset 6, -8
 148              		.cfi_offset 14, -4
 149 0002 0500     		movs	r5, r0
 514:..\..\..\arduinoLCD\test\Pain Drain\libraries\lvgl\src\core/lv_disp.c **** 
 150              		.loc 1 514 0
 151 0004 0068     		ldr	r0, [r0]
 152              	.LVL12:
 153 0006 FFF7FEFF 		bl	lv_obj_get_disp
 154              	.LVL13:
 155 000a 0400     		movs	r4, r0
 156              	.LVL14:
 516:..\..\..\arduinoLCD\test\Pain Drain\libraries\lvgl\src\core/lv_disp.c ****     lv_event_send(d->prev_scr, LV_EVENT_SCREEN_UNLOADED, NULL);
 157              		.loc 1 516 0
 158 000c 0022     		movs	r2, #0
 159 000e 2721     		movs	r1, #39
 160 0010 0069     		ldr	r0, [r0, #16]
 161              	.LVL15:
 162 0012 FFF7FEFF 		bl	lv_event_send
 163              	.LVL16:
 517:..\..\..\arduinoLCD\test\Pain Drain\libraries\lvgl\src\core/lv_disp.c **** 
 164              		.loc 1 517 0
 165 0016 0022     		movs	r2, #0
 166 0018 2821     		movs	r1, #40
 167 001a 6069     		ldr	r0, [r4, #20]
 168 001c FFF7FEFF 		bl	lv_event_send
 169              	.LVL17:
 519:..\..\..\arduinoLCD\test\Pain Drain\libraries\lvgl\src\core/lv_disp.c ****     d->prev_scr = NULL;
 170              		.loc 1 519 0
 171 0020 6069     		ldr	r0, [r4, #20]
 172 0022 0028     		cmp	r0, #0
 173 0024 05D0     		beq	.L6
 519:..\..\..\arduinoLCD\test\Pain Drain\libraries\lvgl\src\core/lv_disp.c ****     d->prev_scr = NULL;
 174              		.loc 1 519 0 is_stmt 0 discriminator 1
 175 0026 2823     		movs	r3, #40
 176 0028 E35C     		ldrb	r3, [r4, r3]
 177 002a 9B07     		lsls	r3, r3, #30
 178 002c 01D5     		bpl	.L6
 519:..\..\..\arduinoLCD\test\Pain Drain\libraries\lvgl\src\core/lv_disp.c ****     d->prev_scr = NULL;
 179              		.loc 1 519 0 discriminator 2
 180 002e FFF7FEFF 		bl	lv_obj_del
 181              	.LVL18:
 182              	.L6:
 520:..\..\..\arduinoLCD\test\Pain Drain\libraries\lvgl\src\core/lv_disp.c ****     d->draw_prev_over_act = false;
 183              		.loc 1 520 0 is_stmt 1
 184 0032 0022     		movs	r2, #0
 185 0034 6261     		str	r2, [r4, #20]
 521:..\..\..\arduinoLCD\test\Pain Drain\libraries\lvgl\src\core/lv_disp.c ****     d->scr_to_load = NULL;
 186              		.loc 1 521 0
 187 0036 2821     		movs	r1, #40
 188 0038 635C     		ldrb	r3, [r4, r1]
ARM GAS  C:\Users\haske\AppData\Local\Temp\ccLw7Foe.s 			page 14


 189 003a 0120     		movs	r0, #1
 190 003c 8343     		bics	r3, r0
 191 003e 6354     		strb	r3, [r4, r1]
 522:..\..\..\arduinoLCD\test\Pain Drain\libraries\lvgl\src\core/lv_disp.c ****     lv_obj_remove_local_style_prop(a->var, LV_STYLE_OPA, 0);
 192              		.loc 1 522 0
 193 0040 A261     		str	r2, [r4, #24]
 523:..\..\..\arduinoLCD\test\Pain Drain\libraries\lvgl\src\core/lv_disp.c ****     lv_obj_invalidate(d->act_scr);
 194              		.loc 1 523 0
 195 0042 2868     		ldr	r0, [r5]
 196 0044 3831     		adds	r1, r1, #56
 197 0046 FFF7FEFF 		bl	lv_obj_remove_local_style_prop
 198              	.LVL19:
 524:..\..\..\arduinoLCD\test\Pain Drain\libraries\lvgl\src\core/lv_disp.c **** }
 199              		.loc 1 524 0
 200 004a 2069     		ldr	r0, [r4, #16]
 201 004c FFF7FEFF 		bl	lv_obj_invalidate
 202              	.LVL20:
 525:..\..\..\arduinoLCD\test\Pain Drain\libraries\lvgl\src\core/lv_disp.c **** 
 203              		.loc 1 525 0
 204              		@ sp needed
 205              	.LVL21:
 206              	.LVL22:
 207 0050 70BD     		pop	{r4, r5, r6, pc}
 208              		.cfi_endproc
 209              	.LFE187:
 210              		.size	scr_anim_ready, .-scr_anim_ready
 211 0052 C046     		.section	.text.scr_load_internal,"ax",%progbits
 212              		.align	2
 213              		.code	16
 214              		.thumb_func
 215              		.type	scr_load_internal, %function
 216              	scr_load_internal:
 217              	.LFB182:
 470:..\..\..\arduinoLCD\test\Pain Drain\libraries\lvgl\src\core/lv_disp.c ****     lv_disp_t * d = lv_obj_get_disp(scr);
 218              		.loc 1 470 0
 219              		.cfi_startproc
 220              		@ args = 0, pretend = 0, frame = 0
 221              		@ frame_needed = 0, uses_anonymous_args = 0
 222              	.LVL23:
 223 0000 70B5     		push	{r4, r5, r6, lr}
 224              		.cfi_def_cfa_offset 16
 225              		.cfi_offset 4, -16
 226              		.cfi_offset 5, -12
 227              		.cfi_offset 6, -8
 228              		.cfi_offset 14, -4
 229 0002 0400     		movs	r4, r0
 471:..\..\..\arduinoLCD\test\Pain Drain\libraries\lvgl\src\core/lv_disp.c ****     if(!d) return;  /*Shouldn't happen, just to be sure*/
 230              		.loc 1 471 0
 231 0004 FFF7FEFF 		bl	lv_obj_get_disp
 232              	.LVL24:
 233 0008 051E     		subs	r5, r0, #0
 234              	.LVL25:
 472:..\..\..\arduinoLCD\test\Pain Drain\libraries\lvgl\src\core/lv_disp.c **** 
 235              		.loc 1 472 0
 236 000a 22D0     		beq	.L7
 474:..\..\..\arduinoLCD\test\Pain Drain\libraries\lvgl\src\core/lv_disp.c **** 
 237              		.loc 1 474 0
ARM GAS  C:\Users\haske\AppData\Local\Temp\ccLw7Foe.s 			page 15


 238 000c 0669     		ldr	r6, [r0, #16]
 239              	.LVL26:
 476:..\..\..\arduinoLCD\test\Pain Drain\libraries\lvgl\src\core/lv_disp.c ****     if(d->act_scr) lv_event_send(scr, LV_EVENT_SCREEN_LOAD_START, NULL);
 240              		.loc 1 476 0
 241 000e 002E     		cmp	r6, #0
 242 0010 04D0     		beq	.L9
 476:..\..\..\arduinoLCD\test\Pain Drain\libraries\lvgl\src\core/lv_disp.c ****     if(d->act_scr) lv_event_send(scr, LV_EVENT_SCREEN_LOAD_START, NULL);
 243              		.loc 1 476 0 is_stmt 0 discriminator 1
 244 0012 0022     		movs	r2, #0
 245 0014 2521     		movs	r1, #37
 246 0016 3000     		movs	r0, r6
 247              	.LVL27:
 248 0018 FFF7FEFF 		bl	lv_event_send
 249              	.LVL28:
 250              	.L9:
 477:..\..\..\arduinoLCD\test\Pain Drain\libraries\lvgl\src\core/lv_disp.c **** 
 251              		.loc 1 477 0 is_stmt 1
 252 001c 2B69     		ldr	r3, [r5, #16]
 253 001e 002B     		cmp	r3, #0
 254 0020 04D0     		beq	.L10
 477:..\..\..\arduinoLCD\test\Pain Drain\libraries\lvgl\src\core/lv_disp.c **** 
 255              		.loc 1 477 0 is_stmt 0 discriminator 1
 256 0022 0022     		movs	r2, #0
 257 0024 2621     		movs	r1, #38
 258 0026 2000     		movs	r0, r4
 259 0028 FFF7FEFF 		bl	lv_event_send
 260              	.LVL29:
 261              	.L10:
 479:..\..\..\arduinoLCD\test\Pain Drain\libraries\lvgl\src\core/lv_disp.c **** 
 262              		.loc 1 479 0 is_stmt 1
 263 002c 2C61     		str	r4, [r5, #16]
 481:..\..\..\arduinoLCD\test\Pain Drain\libraries\lvgl\src\core/lv_disp.c ****     if(d->act_scr) lv_event_send(old_scr, LV_EVENT_SCREEN_UNLOADED, NULL);
 264              		.loc 1 481 0
 265 002e 002C     		cmp	r4, #0
 266 0030 04D0     		beq	.L11
 481:..\..\..\arduinoLCD\test\Pain Drain\libraries\lvgl\src\core/lv_disp.c ****     if(d->act_scr) lv_event_send(old_scr, LV_EVENT_SCREEN_UNLOADED, NULL);
 267              		.loc 1 481 0 is_stmt 0 discriminator 1
 268 0032 0022     		movs	r2, #0
 269 0034 2721     		movs	r1, #39
 270 0036 2000     		movs	r0, r4
 271 0038 FFF7FEFF 		bl	lv_event_send
 272              	.LVL30:
 273              	.L11:
 482:..\..\..\arduinoLCD\test\Pain Drain\libraries\lvgl\src\core/lv_disp.c **** 
 274              		.loc 1 482 0 is_stmt 1
 275 003c 2B69     		ldr	r3, [r5, #16]
 276 003e 002B     		cmp	r3, #0
 277 0040 04D0     		beq	.L12
 482:..\..\..\arduinoLCD\test\Pain Drain\libraries\lvgl\src\core/lv_disp.c **** 
 278              		.loc 1 482 0 is_stmt 0 discriminator 1
 279 0042 0022     		movs	r2, #0
 280 0044 2821     		movs	r1, #40
 281 0046 3000     		movs	r0, r6
 282 0048 FFF7FEFF 		bl	lv_event_send
 283              	.LVL31:
 284              	.L12:
 484:..\..\..\arduinoLCD\test\Pain Drain\libraries\lvgl\src\core/lv_disp.c **** }
ARM GAS  C:\Users\haske\AppData\Local\Temp\ccLw7Foe.s 			page 16


 285              		.loc 1 484 0 is_stmt 1
 286 004c 2000     		movs	r0, r4
 287 004e FFF7FEFF 		bl	lv_obj_invalidate
 288              	.LVL32:
 289              	.L7:
 485:..\..\..\arduinoLCD\test\Pain Drain\libraries\lvgl\src\core/lv_disp.c **** 
 290              		.loc 1 485 0
 291              		@ sp needed
 292              	.LVL33:
 293              	.LVL34:
 294 0052 70BD     		pop	{r4, r5, r6, pc}
 295              		.cfi_endproc
 296              	.LFE182:
 297              		.size	scr_load_internal, .-scr_load_internal
 298              		.section	.text.lv_disp_get_scr_act,"ax",%progbits
 299              		.align	2
 300              		.global	lv_disp_get_scr_act
 301              		.code	16
 302              		.thumb_func
 303              		.type	lv_disp_get_scr_act, %function
 304              	lv_disp_get_scr_act:
 305              	.LFB165:
  51:..\..\..\arduinoLCD\test\Pain Drain\libraries\lvgl\src\core/lv_disp.c ****     if(!disp) disp = lv_disp_get_default();
 306              		.loc 1 51 0
 307              		.cfi_startproc
 308              		@ args = 0, pretend = 0, frame = 0
 309              		@ frame_needed = 0, uses_anonymous_args = 0
 310              	.LVL35:
 311 0000 10B5     		push	{r4, lr}
 312              		.cfi_def_cfa_offset 8
 313              		.cfi_offset 4, -8
 314              		.cfi_offset 14, -4
  52:..\..\..\arduinoLCD\test\Pain Drain\libraries\lvgl\src\core/lv_disp.c ****     if(!disp) {
 315              		.loc 1 52 0
 316 0002 0028     		cmp	r0, #0
 317 0004 01D1     		bne	.L14
  52:..\..\..\arduinoLCD\test\Pain Drain\libraries\lvgl\src\core/lv_disp.c ****     if(!disp) {
 318              		.loc 1 52 0 is_stmt 0 discriminator 1
 319 0006 FFF7FEFF 		bl	lv_disp_get_default
 320              	.LVL36:
 321              	.L14:
  53:..\..\..\arduinoLCD\test\Pain Drain\libraries\lvgl\src\core/lv_disp.c ****         LV_LOG_WARN("no display registered to get its active screen");
 322              		.loc 1 53 0 is_stmt 1
 323 000a 0028     		cmp	r0, #0
 324 000c 01D0     		beq	.L16
  58:..\..\..\arduinoLCD\test\Pain Drain\libraries\lvgl\src\core/lv_disp.c **** }
 325              		.loc 1 58 0
 326 000e 0069     		ldr	r0, [r0, #16]
 327              	.LVL37:
 328 0010 00E0     		b	.L15
 329              	.LVL38:
 330              	.L16:
  55:..\..\..\arduinoLCD\test\Pain Drain\libraries\lvgl\src\core/lv_disp.c ****     }
 331              		.loc 1 55 0
 332 0012 0020     		movs	r0, #0
 333              	.LVL39:
 334              	.L15:
ARM GAS  C:\Users\haske\AppData\Local\Temp\ccLw7Foe.s 			page 17


  59:..\..\..\arduinoLCD\test\Pain Drain\libraries\lvgl\src\core/lv_disp.c **** 
 335              		.loc 1 59 0
 336              		@ sp needed
 337 0014 10BD     		pop	{r4, pc}
 338              		.cfi_endproc
 339              	.LFE165:
 340              		.size	lv_disp_get_scr_act, .-lv_disp_get_scr_act
 341 0016 C046     		.section	.text.scr_load_anim_start,"ax",%progbits
 342              		.align	2
 343              		.code	16
 344              		.thumb_func
 345              		.type	scr_load_anim_start, %function
 346              	scr_load_anim_start:
 347              	.LFB183:
 488:..\..\..\arduinoLCD\test\Pain Drain\libraries\lvgl\src\core/lv_disp.c ****     lv_disp_t * d = lv_obj_get_disp(a->var);
 348              		.loc 1 488 0
 349              		.cfi_startproc
 350              		@ args = 0, pretend = 0, frame = 0
 351              		@ frame_needed = 0, uses_anonymous_args = 0
 352              	.LVL40:
 353 0000 70B5     		push	{r4, r5, r6, lr}
 354              		.cfi_def_cfa_offset 16
 355              		.cfi_offset 4, -16
 356              		.cfi_offset 5, -12
 357              		.cfi_offset 6, -8
 358              		.cfi_offset 14, -4
 359 0002 0500     		movs	r5, r0
 489:..\..\..\arduinoLCD\test\Pain Drain\libraries\lvgl\src\core/lv_disp.c **** 
 360              		.loc 1 489 0
 361 0004 0068     		ldr	r0, [r0]
 362              	.LVL41:
 363 0006 FFF7FEFF 		bl	lv_obj_get_disp
 364              	.LVL42:
 365 000a 0400     		movs	r4, r0
 366              	.LVL43:
 367              	.LBB104:
 368              	.LBB105:
 369              		.file 2 "..\\..\\..\\arduinoLCD\\test\\Pain Drain\\libraries\\lvgl\\src\\core\\lv_disp.h"
   1:..\..\..\arduinoLCD\test\Pain Drain\libraries\lvgl\src\core/lv_disp.h **** /**
   2:..\..\..\arduinoLCD\test\Pain Drain\libraries\lvgl\src\core/lv_disp.h ****  * @file lv_disp.h
   3:..\..\..\arduinoLCD\test\Pain Drain\libraries\lvgl\src\core/lv_disp.h ****  *
   4:..\..\..\arduinoLCD\test\Pain Drain\libraries\lvgl\src\core/lv_disp.h ****  */
   5:..\..\..\arduinoLCD\test\Pain Drain\libraries\lvgl\src\core/lv_disp.h **** 
   6:..\..\..\arduinoLCD\test\Pain Drain\libraries\lvgl\src\core/lv_disp.h **** #ifndef LV_DISP_H
   7:..\..\..\arduinoLCD\test\Pain Drain\libraries\lvgl\src\core/lv_disp.h **** #define LV_DISP_H
   8:..\..\..\arduinoLCD\test\Pain Drain\libraries\lvgl\src\core/lv_disp.h **** 
   9:..\..\..\arduinoLCD\test\Pain Drain\libraries\lvgl\src\core/lv_disp.h **** #ifdef __cplusplus
  10:..\..\..\arduinoLCD\test\Pain Drain\libraries\lvgl\src\core/lv_disp.h **** extern "C" {
  11:..\..\..\arduinoLCD\test\Pain Drain\libraries\lvgl\src\core/lv_disp.h **** #endif
  12:..\..\..\arduinoLCD\test\Pain Drain\libraries\lvgl\src\core/lv_disp.h **** 
  13:..\..\..\arduinoLCD\test\Pain Drain\libraries\lvgl\src\core/lv_disp.h **** /*********************
  14:..\..\..\arduinoLCD\test\Pain Drain\libraries\lvgl\src\core/lv_disp.h ****  *      INCLUDES
  15:..\..\..\arduinoLCD\test\Pain Drain\libraries\lvgl\src\core/lv_disp.h ****  *********************/
  16:..\..\..\arduinoLCD\test\Pain Drain\libraries\lvgl\src\core/lv_disp.h **** #include "../hal/lv_hal.h"
  17:..\..\..\arduinoLCD\test\Pain Drain\libraries\lvgl\src\core/lv_disp.h **** #include "lv_obj.h"
  18:..\..\..\arduinoLCD\test\Pain Drain\libraries\lvgl\src\core/lv_disp.h **** #include "lv_theme.h"
  19:..\..\..\arduinoLCD\test\Pain Drain\libraries\lvgl\src\core/lv_disp.h **** 
ARM GAS  C:\Users\haske\AppData\Local\Temp\ccLw7Foe.s 			page 18


  20:..\..\..\arduinoLCD\test\Pain Drain\libraries\lvgl\src\core/lv_disp.h **** /*********************
  21:..\..\..\arduinoLCD\test\Pain Drain\libraries\lvgl\src\core/lv_disp.h ****  *      DEFINES
  22:..\..\..\arduinoLCD\test\Pain Drain\libraries\lvgl\src\core/lv_disp.h ****  *********************/
  23:..\..\..\arduinoLCD\test\Pain Drain\libraries\lvgl\src\core/lv_disp.h **** 
  24:..\..\..\arduinoLCD\test\Pain Drain\libraries\lvgl\src\core/lv_disp.h **** /**********************
  25:..\..\..\arduinoLCD\test\Pain Drain\libraries\lvgl\src\core/lv_disp.h ****  *      TYPEDEFS
  26:..\..\..\arduinoLCD\test\Pain Drain\libraries\lvgl\src\core/lv_disp.h ****  **********************/
  27:..\..\..\arduinoLCD\test\Pain Drain\libraries\lvgl\src\core/lv_disp.h **** 
  28:..\..\..\arduinoLCD\test\Pain Drain\libraries\lvgl\src\core/lv_disp.h **** typedef enum {
  29:..\..\..\arduinoLCD\test\Pain Drain\libraries\lvgl\src\core/lv_disp.h ****     LV_SCR_LOAD_ANIM_NONE,
  30:..\..\..\arduinoLCD\test\Pain Drain\libraries\lvgl\src\core/lv_disp.h ****     LV_SCR_LOAD_ANIM_OVER_LEFT,
  31:..\..\..\arduinoLCD\test\Pain Drain\libraries\lvgl\src\core/lv_disp.h ****     LV_SCR_LOAD_ANIM_OVER_RIGHT,
  32:..\..\..\arduinoLCD\test\Pain Drain\libraries\lvgl\src\core/lv_disp.h ****     LV_SCR_LOAD_ANIM_OVER_TOP,
  33:..\..\..\arduinoLCD\test\Pain Drain\libraries\lvgl\src\core/lv_disp.h ****     LV_SCR_LOAD_ANIM_OVER_BOTTOM,
  34:..\..\..\arduinoLCD\test\Pain Drain\libraries\lvgl\src\core/lv_disp.h ****     LV_SCR_LOAD_ANIM_MOVE_LEFT,
  35:..\..\..\arduinoLCD\test\Pain Drain\libraries\lvgl\src\core/lv_disp.h ****     LV_SCR_LOAD_ANIM_MOVE_RIGHT,
  36:..\..\..\arduinoLCD\test\Pain Drain\libraries\lvgl\src\core/lv_disp.h ****     LV_SCR_LOAD_ANIM_MOVE_TOP,
  37:..\..\..\arduinoLCD\test\Pain Drain\libraries\lvgl\src\core/lv_disp.h ****     LV_SCR_LOAD_ANIM_MOVE_BOTTOM,
  38:..\..\..\arduinoLCD\test\Pain Drain\libraries\lvgl\src\core/lv_disp.h ****     LV_SCR_LOAD_ANIM_FADE_IN,
  39:..\..\..\arduinoLCD\test\Pain Drain\libraries\lvgl\src\core/lv_disp.h ****     LV_SCR_LOAD_ANIM_FADE_ON = LV_SCR_LOAD_ANIM_FADE_IN, /*For backward compatibility*/
  40:..\..\..\arduinoLCD\test\Pain Drain\libraries\lvgl\src\core/lv_disp.h ****     LV_SCR_LOAD_ANIM_FADE_OUT,
  41:..\..\..\arduinoLCD\test\Pain Drain\libraries\lvgl\src\core/lv_disp.h ****     LV_SCR_LOAD_ANIM_OUT_LEFT,
  42:..\..\..\arduinoLCD\test\Pain Drain\libraries\lvgl\src\core/lv_disp.h ****     LV_SCR_LOAD_ANIM_OUT_RIGHT,
  43:..\..\..\arduinoLCD\test\Pain Drain\libraries\lvgl\src\core/lv_disp.h ****     LV_SCR_LOAD_ANIM_OUT_TOP,
  44:..\..\..\arduinoLCD\test\Pain Drain\libraries\lvgl\src\core/lv_disp.h ****     LV_SCR_LOAD_ANIM_OUT_BOTTOM,
  45:..\..\..\arduinoLCD\test\Pain Drain\libraries\lvgl\src\core/lv_disp.h **** } lv_scr_load_anim_t;
  46:..\..\..\arduinoLCD\test\Pain Drain\libraries\lvgl\src\core/lv_disp.h **** 
  47:..\..\..\arduinoLCD\test\Pain Drain\libraries\lvgl\src\core/lv_disp.h **** /**********************
  48:..\..\..\arduinoLCD\test\Pain Drain\libraries\lvgl\src\core/lv_disp.h ****  * GLOBAL PROTOTYPES
  49:..\..\..\arduinoLCD\test\Pain Drain\libraries\lvgl\src\core/lv_disp.h ****  **********************/
  50:..\..\..\arduinoLCD\test\Pain Drain\libraries\lvgl\src\core/lv_disp.h **** 
  51:..\..\..\arduinoLCD\test\Pain Drain\libraries\lvgl\src\core/lv_disp.h **** /**
  52:..\..\..\arduinoLCD\test\Pain Drain\libraries\lvgl\src\core/lv_disp.h ****  * Return with a pointer to the active screen
  53:..\..\..\arduinoLCD\test\Pain Drain\libraries\lvgl\src\core/lv_disp.h ****  * @param disp pointer to display which active screen should be get. (NULL to use the default
  54:..\..\..\arduinoLCD\test\Pain Drain\libraries\lvgl\src\core/lv_disp.h ****  * screen)
  55:..\..\..\arduinoLCD\test\Pain Drain\libraries\lvgl\src\core/lv_disp.h ****  * @return pointer to the active screen object (loaded by 'lv_scr_load()')
  56:..\..\..\arduinoLCD\test\Pain Drain\libraries\lvgl\src\core/lv_disp.h ****  */
  57:..\..\..\arduinoLCD\test\Pain Drain\libraries\lvgl\src\core/lv_disp.h **** lv_obj_t * lv_disp_get_scr_act(lv_disp_t * disp);
  58:..\..\..\arduinoLCD\test\Pain Drain\libraries\lvgl\src\core/lv_disp.h **** 
  59:..\..\..\arduinoLCD\test\Pain Drain\libraries\lvgl\src\core/lv_disp.h **** /**
  60:..\..\..\arduinoLCD\test\Pain Drain\libraries\lvgl\src\core/lv_disp.h ****  * Return with a pointer to the previous screen. Only used during screen transitions.
  61:..\..\..\arduinoLCD\test\Pain Drain\libraries\lvgl\src\core/lv_disp.h ****  * @param disp pointer to display which previous screen should be get. (NULL to use the default
  62:..\..\..\arduinoLCD\test\Pain Drain\libraries\lvgl\src\core/lv_disp.h ****  * screen)
  63:..\..\..\arduinoLCD\test\Pain Drain\libraries\lvgl\src\core/lv_disp.h ****  * @return pointer to the previous screen object or NULL if not used now
  64:..\..\..\arduinoLCD\test\Pain Drain\libraries\lvgl\src\core/lv_disp.h ****  */
  65:..\..\..\arduinoLCD\test\Pain Drain\libraries\lvgl\src\core/lv_disp.h **** lv_obj_t * lv_disp_get_scr_prev(lv_disp_t * disp);
  66:..\..\..\arduinoLCD\test\Pain Drain\libraries\lvgl\src\core/lv_disp.h **** 
  67:..\..\..\arduinoLCD\test\Pain Drain\libraries\lvgl\src\core/lv_disp.h **** /**
  68:..\..\..\arduinoLCD\test\Pain Drain\libraries\lvgl\src\core/lv_disp.h ****  * Make a screen active
  69:..\..\..\arduinoLCD\test\Pain Drain\libraries\lvgl\src\core/lv_disp.h ****  * @param scr pointer to a screen
  70:..\..\..\arduinoLCD\test\Pain Drain\libraries\lvgl\src\core/lv_disp.h ****  */
  71:..\..\..\arduinoLCD\test\Pain Drain\libraries\lvgl\src\core/lv_disp.h **** void lv_disp_load_scr(lv_obj_t * scr);
  72:..\..\..\arduinoLCD\test\Pain Drain\libraries\lvgl\src\core/lv_disp.h **** 
  73:..\..\..\arduinoLCD\test\Pain Drain\libraries\lvgl\src\core/lv_disp.h **** /**
  74:..\..\..\arduinoLCD\test\Pain Drain\libraries\lvgl\src\core/lv_disp.h ****  * Return with the top layer. (Same on every screen and it is above the normal screen layer)
  75:..\..\..\arduinoLCD\test\Pain Drain\libraries\lvgl\src\core/lv_disp.h ****  * @param disp pointer to display which top layer should be get. (NULL to use the default screen)
  76:..\..\..\arduinoLCD\test\Pain Drain\libraries\lvgl\src\core/lv_disp.h ****  * @return pointer to the top layer object (transparent screen sized lv_obj)
ARM GAS  C:\Users\haske\AppData\Local\Temp\ccLw7Foe.s 			page 19


  77:..\..\..\arduinoLCD\test\Pain Drain\libraries\lvgl\src\core/lv_disp.h ****  */
  78:..\..\..\arduinoLCD\test\Pain Drain\libraries\lvgl\src\core/lv_disp.h **** lv_obj_t * lv_disp_get_layer_top(lv_disp_t * disp);
  79:..\..\..\arduinoLCD\test\Pain Drain\libraries\lvgl\src\core/lv_disp.h **** 
  80:..\..\..\arduinoLCD\test\Pain Drain\libraries\lvgl\src\core/lv_disp.h **** /**
  81:..\..\..\arduinoLCD\test\Pain Drain\libraries\lvgl\src\core/lv_disp.h ****  * Return with the sys. layer. (Same on every screen and it is above the normal screen and the top
  82:..\..\..\arduinoLCD\test\Pain Drain\libraries\lvgl\src\core/lv_disp.h ****  * layer)
  83:..\..\..\arduinoLCD\test\Pain Drain\libraries\lvgl\src\core/lv_disp.h ****  * @param disp pointer to display which sys. layer should be retrieved. (NULL to use the default sc
  84:..\..\..\arduinoLCD\test\Pain Drain\libraries\lvgl\src\core/lv_disp.h ****  * @return pointer to the sys layer object (transparent screen sized lv_obj)
  85:..\..\..\arduinoLCD\test\Pain Drain\libraries\lvgl\src\core/lv_disp.h ****  */
  86:..\..\..\arduinoLCD\test\Pain Drain\libraries\lvgl\src\core/lv_disp.h **** lv_obj_t * lv_disp_get_layer_sys(lv_disp_t * disp);
  87:..\..\..\arduinoLCD\test\Pain Drain\libraries\lvgl\src\core/lv_disp.h **** 
  88:..\..\..\arduinoLCD\test\Pain Drain\libraries\lvgl\src\core/lv_disp.h **** /**
  89:..\..\..\arduinoLCD\test\Pain Drain\libraries\lvgl\src\core/lv_disp.h ****  * Set the theme of a display
  90:..\..\..\arduinoLCD\test\Pain Drain\libraries\lvgl\src\core/lv_disp.h ****  * @param disp pointer to a display
  91:..\..\..\arduinoLCD\test\Pain Drain\libraries\lvgl\src\core/lv_disp.h ****  */
  92:..\..\..\arduinoLCD\test\Pain Drain\libraries\lvgl\src\core/lv_disp.h **** void lv_disp_set_theme(lv_disp_t * disp, lv_theme_t * th);
  93:..\..\..\arduinoLCD\test\Pain Drain\libraries\lvgl\src\core/lv_disp.h **** 
  94:..\..\..\arduinoLCD\test\Pain Drain\libraries\lvgl\src\core/lv_disp.h **** /**
  95:..\..\..\arduinoLCD\test\Pain Drain\libraries\lvgl\src\core/lv_disp.h ****  * Get the theme of a display
  96:..\..\..\arduinoLCD\test\Pain Drain\libraries\lvgl\src\core/lv_disp.h ****  * @param disp pointer to a display
  97:..\..\..\arduinoLCD\test\Pain Drain\libraries\lvgl\src\core/lv_disp.h ****  * @return the display's theme (can be NULL)
  98:..\..\..\arduinoLCD\test\Pain Drain\libraries\lvgl\src\core/lv_disp.h ****  */
  99:..\..\..\arduinoLCD\test\Pain Drain\libraries\lvgl\src\core/lv_disp.h **** lv_theme_t * lv_disp_get_theme(lv_disp_t * disp);
 100:..\..\..\arduinoLCD\test\Pain Drain\libraries\lvgl\src\core/lv_disp.h **** 
 101:..\..\..\arduinoLCD\test\Pain Drain\libraries\lvgl\src\core/lv_disp.h **** /**
 102:..\..\..\arduinoLCD\test\Pain Drain\libraries\lvgl\src\core/lv_disp.h ****  * Set the background color of a display
 103:..\..\..\arduinoLCD\test\Pain Drain\libraries\lvgl\src\core/lv_disp.h ****  * @param disp pointer to a display
 104:..\..\..\arduinoLCD\test\Pain Drain\libraries\lvgl\src\core/lv_disp.h ****  * @param color color of the background
 105:..\..\..\arduinoLCD\test\Pain Drain\libraries\lvgl\src\core/lv_disp.h ****  */
 106:..\..\..\arduinoLCD\test\Pain Drain\libraries\lvgl\src\core/lv_disp.h **** void lv_disp_set_bg_color(lv_disp_t * disp, lv_color_t color);
 107:..\..\..\arduinoLCD\test\Pain Drain\libraries\lvgl\src\core/lv_disp.h **** 
 108:..\..\..\arduinoLCD\test\Pain Drain\libraries\lvgl\src\core/lv_disp.h **** /**
 109:..\..\..\arduinoLCD\test\Pain Drain\libraries\lvgl\src\core/lv_disp.h ****  * Set the background image of a display
 110:..\..\..\arduinoLCD\test\Pain Drain\libraries\lvgl\src\core/lv_disp.h ****  * @param disp pointer to a display
 111:..\..\..\arduinoLCD\test\Pain Drain\libraries\lvgl\src\core/lv_disp.h ****  * @param img_src path to file or pointer to an `lv_img_dsc_t` variable
 112:..\..\..\arduinoLCD\test\Pain Drain\libraries\lvgl\src\core/lv_disp.h ****  */
 113:..\..\..\arduinoLCD\test\Pain Drain\libraries\lvgl\src\core/lv_disp.h **** void lv_disp_set_bg_image(lv_disp_t * disp, const void  * img_src);
 114:..\..\..\arduinoLCD\test\Pain Drain\libraries\lvgl\src\core/lv_disp.h **** 
 115:..\..\..\arduinoLCD\test\Pain Drain\libraries\lvgl\src\core/lv_disp.h **** /**
 116:..\..\..\arduinoLCD\test\Pain Drain\libraries\lvgl\src\core/lv_disp.h ****  * Set opacity of the background
 117:..\..\..\arduinoLCD\test\Pain Drain\libraries\lvgl\src\core/lv_disp.h ****  * @param disp pointer to a display
 118:..\..\..\arduinoLCD\test\Pain Drain\libraries\lvgl\src\core/lv_disp.h ****  * @param opa opacity (0..255)
 119:..\..\..\arduinoLCD\test\Pain Drain\libraries\lvgl\src\core/lv_disp.h ****  */
 120:..\..\..\arduinoLCD\test\Pain Drain\libraries\lvgl\src\core/lv_disp.h **** void lv_disp_set_bg_opa(lv_disp_t * disp, lv_opa_t opa);
 121:..\..\..\arduinoLCD\test\Pain Drain\libraries\lvgl\src\core/lv_disp.h **** 
 122:..\..\..\arduinoLCD\test\Pain Drain\libraries\lvgl\src\core/lv_disp.h **** /**
 123:..\..\..\arduinoLCD\test\Pain Drain\libraries\lvgl\src\core/lv_disp.h ****  * Switch screen with animation
 124:..\..\..\arduinoLCD\test\Pain Drain\libraries\lvgl\src\core/lv_disp.h ****  * @param scr pointer to the new screen to load
 125:..\..\..\arduinoLCD\test\Pain Drain\libraries\lvgl\src\core/lv_disp.h ****  * @param anim_type type of the animation from `lv_scr_load_anim_t`, e.g. `LV_SCR_LOAD_ANIM_MOVE_LE
 126:..\..\..\arduinoLCD\test\Pain Drain\libraries\lvgl\src\core/lv_disp.h ****  * @param time time of the animation
 127:..\..\..\arduinoLCD\test\Pain Drain\libraries\lvgl\src\core/lv_disp.h ****  * @param delay delay before the transition
 128:..\..\..\arduinoLCD\test\Pain Drain\libraries\lvgl\src\core/lv_disp.h ****  * @param auto_del true: automatically delete the old screen
 129:..\..\..\arduinoLCD\test\Pain Drain\libraries\lvgl\src\core/lv_disp.h ****  */
 130:..\..\..\arduinoLCD\test\Pain Drain\libraries\lvgl\src\core/lv_disp.h **** void lv_scr_load_anim(lv_obj_t * scr, lv_scr_load_anim_t anim_type, uint32_t time, uint32_t delay, 
 131:..\..\..\arduinoLCD\test\Pain Drain\libraries\lvgl\src\core/lv_disp.h **** 
 132:..\..\..\arduinoLCD\test\Pain Drain\libraries\lvgl\src\core/lv_disp.h **** /**
 133:..\..\..\arduinoLCD\test\Pain Drain\libraries\lvgl\src\core/lv_disp.h ****  * Get elapsed time since last user activity on a display (e.g. click)
ARM GAS  C:\Users\haske\AppData\Local\Temp\ccLw7Foe.s 			page 20


 134:..\..\..\arduinoLCD\test\Pain Drain\libraries\lvgl\src\core/lv_disp.h ****  * @param disp pointer to a display (NULL to get the overall smallest inactivity)
 135:..\..\..\arduinoLCD\test\Pain Drain\libraries\lvgl\src\core/lv_disp.h ****  * @return elapsed ticks (milliseconds) since the last activity
 136:..\..\..\arduinoLCD\test\Pain Drain\libraries\lvgl\src\core/lv_disp.h ****  */
 137:..\..\..\arduinoLCD\test\Pain Drain\libraries\lvgl\src\core/lv_disp.h **** uint32_t lv_disp_get_inactive_time(const lv_disp_t * disp);
 138:..\..\..\arduinoLCD\test\Pain Drain\libraries\lvgl\src\core/lv_disp.h **** 
 139:..\..\..\arduinoLCD\test\Pain Drain\libraries\lvgl\src\core/lv_disp.h **** /**
 140:..\..\..\arduinoLCD\test\Pain Drain\libraries\lvgl\src\core/lv_disp.h ****  * Manually trigger an activity on a display
 141:..\..\..\arduinoLCD\test\Pain Drain\libraries\lvgl\src\core/lv_disp.h ****  * @param disp pointer to a display (NULL to use the default display)
 142:..\..\..\arduinoLCD\test\Pain Drain\libraries\lvgl\src\core/lv_disp.h ****  */
 143:..\..\..\arduinoLCD\test\Pain Drain\libraries\lvgl\src\core/lv_disp.h **** void lv_disp_trig_activity(lv_disp_t * disp);
 144:..\..\..\arduinoLCD\test\Pain Drain\libraries\lvgl\src\core/lv_disp.h **** 
 145:..\..\..\arduinoLCD\test\Pain Drain\libraries\lvgl\src\core/lv_disp.h **** /**
 146:..\..\..\arduinoLCD\test\Pain Drain\libraries\lvgl\src\core/lv_disp.h ****  * Clean any CPU cache that is related to the display.
 147:..\..\..\arduinoLCD\test\Pain Drain\libraries\lvgl\src\core/lv_disp.h ****  * @param disp pointer to a display (NULL to use the default display)
 148:..\..\..\arduinoLCD\test\Pain Drain\libraries\lvgl\src\core/lv_disp.h ****  */
 149:..\..\..\arduinoLCD\test\Pain Drain\libraries\lvgl\src\core/lv_disp.h **** void lv_disp_clean_dcache(lv_disp_t * disp);
 150:..\..\..\arduinoLCD\test\Pain Drain\libraries\lvgl\src\core/lv_disp.h **** 
 151:..\..\..\arduinoLCD\test\Pain Drain\libraries\lvgl\src\core/lv_disp.h **** /**
 152:..\..\..\arduinoLCD\test\Pain Drain\libraries\lvgl\src\core/lv_disp.h ****  * Temporarily enable and disable the invalidation of the display.
 153:..\..\..\arduinoLCD\test\Pain Drain\libraries\lvgl\src\core/lv_disp.h ****  * @param disp pointer to a display (NULL to use the default display)
 154:..\..\..\arduinoLCD\test\Pain Drain\libraries\lvgl\src\core/lv_disp.h ****  * @param en true: enable invalidation; false: invalidation
 155:..\..\..\arduinoLCD\test\Pain Drain\libraries\lvgl\src\core/lv_disp.h ****  */
 156:..\..\..\arduinoLCD\test\Pain Drain\libraries\lvgl\src\core/lv_disp.h **** void lv_disp_enable_invalidation(lv_disp_t * disp, bool en);
 157:..\..\..\arduinoLCD\test\Pain Drain\libraries\lvgl\src\core/lv_disp.h **** 
 158:..\..\..\arduinoLCD\test\Pain Drain\libraries\lvgl\src\core/lv_disp.h **** /**
 159:..\..\..\arduinoLCD\test\Pain Drain\libraries\lvgl\src\core/lv_disp.h ****  * Get display invalidation is enabled.
 160:..\..\..\arduinoLCD\test\Pain Drain\libraries\lvgl\src\core/lv_disp.h ****  * @param disp pointer to a display (NULL to use the default display)
 161:..\..\..\arduinoLCD\test\Pain Drain\libraries\lvgl\src\core/lv_disp.h ****  * @return return true if invalidation is enabled
 162:..\..\..\arduinoLCD\test\Pain Drain\libraries\lvgl\src\core/lv_disp.h ****  */
 163:..\..\..\arduinoLCD\test\Pain Drain\libraries\lvgl\src\core/lv_disp.h **** bool lv_disp_is_invalidation_enabled(lv_disp_t * disp);
 164:..\..\..\arduinoLCD\test\Pain Drain\libraries\lvgl\src\core/lv_disp.h **** 
 165:..\..\..\arduinoLCD\test\Pain Drain\libraries\lvgl\src\core/lv_disp.h **** /**
 166:..\..\..\arduinoLCD\test\Pain Drain\libraries\lvgl\src\core/lv_disp.h ****  * Get a pointer to the screen refresher timer to
 167:..\..\..\arduinoLCD\test\Pain Drain\libraries\lvgl\src\core/lv_disp.h ****  * modify its parameters with `lv_timer_...` functions.
 168:..\..\..\arduinoLCD\test\Pain Drain\libraries\lvgl\src\core/lv_disp.h ****  * @param disp pointer to a display
 169:..\..\..\arduinoLCD\test\Pain Drain\libraries\lvgl\src\core/lv_disp.h ****  * @return pointer to the display refresher timer. (NULL on error)
 170:..\..\..\arduinoLCD\test\Pain Drain\libraries\lvgl\src\core/lv_disp.h ****  */
 171:..\..\..\arduinoLCD\test\Pain Drain\libraries\lvgl\src\core/lv_disp.h **** lv_timer_t * _lv_disp_get_refr_timer(lv_disp_t * disp);
 172:..\..\..\arduinoLCD\test\Pain Drain\libraries\lvgl\src\core/lv_disp.h **** 
 173:..\..\..\arduinoLCD\test\Pain Drain\libraries\lvgl\src\core/lv_disp.h **** /*------------------------------------------------
 174:..\..\..\arduinoLCD\test\Pain Drain\libraries\lvgl\src\core/lv_disp.h ****  * To improve backward compatibility
 175:..\..\..\arduinoLCD\test\Pain Drain\libraries\lvgl\src\core/lv_disp.h ****  * Recommended only if you have one display
 176:..\..\..\arduinoLCD\test\Pain Drain\libraries\lvgl\src\core/lv_disp.h ****  *------------------------------------------------*/
 177:..\..\..\arduinoLCD\test\Pain Drain\libraries\lvgl\src\core/lv_disp.h **** 
 178:..\..\..\arduinoLCD\test\Pain Drain\libraries\lvgl\src\core/lv_disp.h **** /**
 179:..\..\..\arduinoLCD\test\Pain Drain\libraries\lvgl\src\core/lv_disp.h ****  * Get the active screen of the default display
 180:..\..\..\arduinoLCD\test\Pain Drain\libraries\lvgl\src\core/lv_disp.h ****  * @return pointer to the active screen
 181:..\..\..\arduinoLCD\test\Pain Drain\libraries\lvgl\src\core/lv_disp.h ****  */
 182:..\..\..\arduinoLCD\test\Pain Drain\libraries\lvgl\src\core/lv_disp.h **** static inline lv_obj_t * lv_scr_act(void)
 183:..\..\..\arduinoLCD\test\Pain Drain\libraries\lvgl\src\core/lv_disp.h **** {
 184:..\..\..\arduinoLCD\test\Pain Drain\libraries\lvgl\src\core/lv_disp.h ****     return lv_disp_get_scr_act(lv_disp_get_default());
 370              		.loc 2 184 0
 371 000c FFF7FEFF 		bl	lv_disp_get_default
 372              	.LVL44:
 373 0010 FFF7FEFF 		bl	lv_disp_get_scr_act
 374              	.LVL45:
 375              	.LBE105:
ARM GAS  C:\Users\haske\AppData\Local\Temp\ccLw7Foe.s 			page 21


 376              	.LBE104:
 491:..\..\..\arduinoLCD\test\Pain Drain\libraries\lvgl\src\core/lv_disp.c ****     d->act_scr = a->var;
 377              		.loc 1 491 0
 378 0014 6061     		str	r0, [r4, #20]
 492:..\..\..\arduinoLCD\test\Pain Drain\libraries\lvgl\src\core/lv_disp.c **** 
 379              		.loc 1 492 0
 380 0016 2868     		ldr	r0, [r5]
 381 0018 2061     		str	r0, [r4, #16]
 494:..\..\..\arduinoLCD\test\Pain Drain\libraries\lvgl\src\core/lv_disp.c **** }
 382              		.loc 1 494 0
 383 001a 0022     		movs	r2, #0
 384 001c 2621     		movs	r1, #38
 385 001e FFF7FEFF 		bl	lv_event_send
 386              	.LVL46:
 495:..\..\..\arduinoLCD\test\Pain Drain\libraries\lvgl\src\core/lv_disp.c **** 
 387              		.loc 1 495 0
 388              		@ sp needed
 389              	.LVL47:
 390              	.LVL48:
 391 0022 70BD     		pop	{r4, r5, r6, pc}
 392              		.cfi_endproc
 393              	.LFE183:
 394              		.size	scr_load_anim_start, .-scr_load_anim_start
 395              		.section	.text.lv_disp_get_scr_prev,"ax",%progbits
 396              		.align	2
 397              		.global	lv_disp_get_scr_prev
 398              		.code	16
 399              		.thumb_func
 400              		.type	lv_disp_get_scr_prev, %function
 401              	lv_disp_get_scr_prev:
 402              	.LFB166:
  68:..\..\..\arduinoLCD\test\Pain Drain\libraries\lvgl\src\core/lv_disp.c ****     if(!disp) disp = lv_disp_get_default();
 403              		.loc 1 68 0
 404              		.cfi_startproc
 405              		@ args = 0, pretend = 0, frame = 0
 406              		@ frame_needed = 0, uses_anonymous_args = 0
 407              	.LVL49:
 408 0000 10B5     		push	{r4, lr}
 409              		.cfi_def_cfa_offset 8
 410              		.cfi_offset 4, -8
 411              		.cfi_offset 14, -4
  69:..\..\..\arduinoLCD\test\Pain Drain\libraries\lvgl\src\core/lv_disp.c ****     if(!disp) {
 412              		.loc 1 69 0
 413 0002 0028     		cmp	r0, #0
 414 0004 01D1     		bne	.L19
  69:..\..\..\arduinoLCD\test\Pain Drain\libraries\lvgl\src\core/lv_disp.c ****     if(!disp) {
 415              		.loc 1 69 0 is_stmt 0 discriminator 1
 416 0006 FFF7FEFF 		bl	lv_disp_get_default
 417              	.LVL50:
 418              	.L19:
  70:..\..\..\arduinoLCD\test\Pain Drain\libraries\lvgl\src\core/lv_disp.c ****         LV_LOG_WARN("no display registered to get its previous screen");
 419              		.loc 1 70 0 is_stmt 1
 420 000a 0028     		cmp	r0, #0
 421 000c 01D0     		beq	.L21
  75:..\..\..\arduinoLCD\test\Pain Drain\libraries\lvgl\src\core/lv_disp.c **** }
 422              		.loc 1 75 0
 423 000e 4069     		ldr	r0, [r0, #20]
ARM GAS  C:\Users\haske\AppData\Local\Temp\ccLw7Foe.s 			page 22


 424              	.LVL51:
 425 0010 00E0     		b	.L20
 426              	.LVL52:
 427              	.L21:
  72:..\..\..\arduinoLCD\test\Pain Drain\libraries\lvgl\src\core/lv_disp.c ****     }
 428              		.loc 1 72 0
 429 0012 0020     		movs	r0, #0
 430              	.LVL53:
 431              	.L20:
  76:..\..\..\arduinoLCD\test\Pain Drain\libraries\lvgl\src\core/lv_disp.c **** 
 432              		.loc 1 76 0
 433              		@ sp needed
 434 0014 10BD     		pop	{r4, pc}
 435              		.cfi_endproc
 436              	.LFE166:
 437              		.size	lv_disp_get_scr_prev, .-lv_disp_get_scr_prev
 438 0016 C046     		.section	.text.lv_disp_get_layer_top,"ax",%progbits
 439              		.align	2
 440              		.global	lv_disp_get_layer_top
 441              		.code	16
 442              		.thumb_func
 443              		.type	lv_disp_get_layer_top, %function
 444              	lv_disp_get_layer_top:
 445              	.LFB168:
  93:..\..\..\arduinoLCD\test\Pain Drain\libraries\lvgl\src\core/lv_disp.c ****     if(!disp) disp = lv_disp_get_default();
 446              		.loc 1 93 0
 447              		.cfi_startproc
 448              		@ args = 0, pretend = 0, frame = 0
 449              		@ frame_needed = 0, uses_anonymous_args = 0
 450              	.LVL54:
 451 0000 10B5     		push	{r4, lr}
 452              		.cfi_def_cfa_offset 8
 453              		.cfi_offset 4, -8
 454              		.cfi_offset 14, -4
  94:..\..\..\arduinoLCD\test\Pain Drain\libraries\lvgl\src\core/lv_disp.c ****     if(!disp) {
 455              		.loc 1 94 0
 456 0002 0028     		cmp	r0, #0
 457 0004 01D1     		bne	.L23
  94:..\..\..\arduinoLCD\test\Pain Drain\libraries\lvgl\src\core/lv_disp.c ****     if(!disp) {
 458              		.loc 1 94 0 is_stmt 0 discriminator 1
 459 0006 FFF7FEFF 		bl	lv_disp_get_default
 460              	.LVL55:
 461              	.L23:
  95:..\..\..\arduinoLCD\test\Pain Drain\libraries\lvgl\src\core/lv_disp.c ****         LV_LOG_WARN("lv_layer_top: no display registered to get its top layer");
 462              		.loc 1 95 0 is_stmt 1
 463 000a 0028     		cmp	r0, #0
 464 000c 01D0     		beq	.L25
 100:..\..\..\arduinoLCD\test\Pain Drain\libraries\lvgl\src\core/lv_disp.c **** }
 465              		.loc 1 100 0
 466 000e C069     		ldr	r0, [r0, #28]
 467              	.LVL56:
 468 0010 00E0     		b	.L24
 469              	.LVL57:
 470              	.L25:
  97:..\..\..\arduinoLCD\test\Pain Drain\libraries\lvgl\src\core/lv_disp.c ****     }
 471              		.loc 1 97 0
 472 0012 0020     		movs	r0, #0
ARM GAS  C:\Users\haske\AppData\Local\Temp\ccLw7Foe.s 			page 23


 473              	.LVL58:
 474              	.L24:
 101:..\..\..\arduinoLCD\test\Pain Drain\libraries\lvgl\src\core/lv_disp.c **** 
 475              		.loc 1 101 0
 476              		@ sp needed
 477 0014 10BD     		pop	{r4, pc}
 478              		.cfi_endproc
 479              	.LFE168:
 480              		.size	lv_disp_get_layer_top, .-lv_disp_get_layer_top
 481 0016 C046     		.section	.text.lv_disp_get_layer_sys,"ax",%progbits
 482              		.align	2
 483              		.global	lv_disp_get_layer_sys
 484              		.code	16
 485              		.thumb_func
 486              		.type	lv_disp_get_layer_sys, %function
 487              	lv_disp_get_layer_sys:
 488              	.LFB169:
 110:..\..\..\arduinoLCD\test\Pain Drain\libraries\lvgl\src\core/lv_disp.c ****     if(!disp) disp = lv_disp_get_default();
 489              		.loc 1 110 0
 490              		.cfi_startproc
 491              		@ args = 0, pretend = 0, frame = 0
 492              		@ frame_needed = 0, uses_anonymous_args = 0
 493              	.LVL59:
 494 0000 10B5     		push	{r4, lr}
 495              		.cfi_def_cfa_offset 8
 496              		.cfi_offset 4, -8
 497              		.cfi_offset 14, -4
 111:..\..\..\arduinoLCD\test\Pain Drain\libraries\lvgl\src\core/lv_disp.c ****     if(!disp) {
 498              		.loc 1 111 0
 499 0002 0028     		cmp	r0, #0
 500 0004 01D1     		bne	.L27
 111:..\..\..\arduinoLCD\test\Pain Drain\libraries\lvgl\src\core/lv_disp.c ****     if(!disp) {
 501              		.loc 1 111 0 is_stmt 0 discriminator 1
 502 0006 FFF7FEFF 		bl	lv_disp_get_default
 503              	.LVL60:
 504              	.L27:
 112:..\..\..\arduinoLCD\test\Pain Drain\libraries\lvgl\src\core/lv_disp.c ****         LV_LOG_WARN("lv_layer_sys: no display registered to get its sys. layer");
 505              		.loc 1 112 0 is_stmt 1
 506 000a 0028     		cmp	r0, #0
 507 000c 01D0     		beq	.L29
 117:..\..\..\arduinoLCD\test\Pain Drain\libraries\lvgl\src\core/lv_disp.c **** }
 508              		.loc 1 117 0
 509 000e 006A     		ldr	r0, [r0, #32]
 510              	.LVL61:
 511 0010 00E0     		b	.L28
 512              	.LVL62:
 513              	.L29:
 114:..\..\..\arduinoLCD\test\Pain Drain\libraries\lvgl\src\core/lv_disp.c ****     }
 514              		.loc 1 114 0
 515 0012 0020     		movs	r0, #0
 516              	.LVL63:
 517              	.L28:
 118:..\..\..\arduinoLCD\test\Pain Drain\libraries\lvgl\src\core/lv_disp.c **** 
 518              		.loc 1 118 0
 519              		@ sp needed
 520 0014 10BD     		pop	{r4, pc}
 521              		.cfi_endproc
ARM GAS  C:\Users\haske\AppData\Local\Temp\ccLw7Foe.s 			page 24


 522              	.LFE169:
 523              		.size	lv_disp_get_layer_sys, .-lv_disp_get_layer_sys
 524 0016 C046     		.section	.text.lv_disp_set_theme,"ax",%progbits
 525              		.align	2
 526              		.global	lv_disp_set_theme
 527              		.code	16
 528              		.thumb_func
 529              		.type	lv_disp_set_theme, %function
 530              	lv_disp_set_theme:
 531              	.LFB170:
 125:..\..\..\arduinoLCD\test\Pain Drain\libraries\lvgl\src\core/lv_disp.c ****     if(!disp) disp = lv_disp_get_default();
 532              		.loc 1 125 0
 533              		.cfi_startproc
 534              		@ args = 0, pretend = 0, frame = 0
 535              		@ frame_needed = 0, uses_anonymous_args = 0
 536              	.LVL64:
 537 0000 70B5     		push	{r4, r5, r6, lr}
 538              		.cfi_def_cfa_offset 16
 539              		.cfi_offset 4, -16
 540              		.cfi_offset 5, -12
 541              		.cfi_offset 6, -8
 542              		.cfi_offset 14, -4
 543 0002 0400     		movs	r4, r0
 544 0004 0D00     		movs	r5, r1
 126:..\..\..\arduinoLCD\test\Pain Drain\libraries\lvgl\src\core/lv_disp.c ****     if(!disp) {
 545              		.loc 1 126 0
 546 0006 0028     		cmp	r0, #0
 547 0008 02D1     		bne	.L31
 126:..\..\..\arduinoLCD\test\Pain Drain\libraries\lvgl\src\core/lv_disp.c ****     if(!disp) {
 548              		.loc 1 126 0 is_stmt 0 discriminator 1
 549 000a FFF7FEFF 		bl	lv_disp_get_default
 550              	.LVL65:
 551 000e 0400     		movs	r4, r0
 552              	.LVL66:
 553              	.L31:
 127:..\..\..\arduinoLCD\test\Pain Drain\libraries\lvgl\src\core/lv_disp.c ****         LV_LOG_WARN("no display registered");
 554              		.loc 1 127 0 is_stmt 1
 555 0010 002C     		cmp	r4, #0
 556 0012 19D0     		beq	.L30
 132:..\..\..\arduinoLCD\test\Pain Drain\libraries\lvgl\src\core/lv_disp.c **** 
 557              		.loc 1 132 0
 558 0014 A560     		str	r5, [r4, #8]
 134:..\..\..\arduinoLCD\test\Pain Drain\libraries\lvgl\src\core/lv_disp.c ****        lv_obj_get_child_cnt(disp->screens[0]) == 0 &&
 559              		.loc 1 134 0
 560 0016 636A     		ldr	r3, [r4, #36]
 561 0018 032B     		cmp	r3, #3
 562 001a 15D1     		bne	.L30
 135:..\..\..\arduinoLCD\test\Pain Drain\libraries\lvgl\src\core/lv_disp.c ****        lv_obj_get_child_cnt(disp->screens[1]) == 0 &&
 563              		.loc 1 135 0 discriminator 1
 564 001c E368     		ldr	r3, [r4, #12]
 565 001e 1868     		ldr	r0, [r3]
 566              	.LVL67:
 567 0020 FFF7FEFF 		bl	lv_obj_get_child_cnt
 568              	.LVL68:
 134:..\..\..\arduinoLCD\test\Pain Drain\libraries\lvgl\src\core/lv_disp.c ****        lv_obj_get_child_cnt(disp->screens[0]) == 0 &&
 569              		.loc 1 134 0 discriminator 1
 570 0024 0028     		cmp	r0, #0
ARM GAS  C:\Users\haske\AppData\Local\Temp\ccLw7Foe.s 			page 25


 571 0026 0FD1     		bne	.L30
 136:..\..\..\arduinoLCD\test\Pain Drain\libraries\lvgl\src\core/lv_disp.c ****        lv_obj_get_child_cnt(disp->screens[2]) == 0) {
 572              		.loc 1 136 0
 573 0028 E368     		ldr	r3, [r4, #12]
 574 002a 5868     		ldr	r0, [r3, #4]
 575 002c FFF7FEFF 		bl	lv_obj_get_child_cnt
 576              	.LVL69:
 135:..\..\..\arduinoLCD\test\Pain Drain\libraries\lvgl\src\core/lv_disp.c ****        lv_obj_get_child_cnt(disp->screens[1]) == 0 &&
 577              		.loc 1 135 0
 578 0030 0028     		cmp	r0, #0
 579 0032 09D1     		bne	.L30
 137:..\..\..\arduinoLCD\test\Pain Drain\libraries\lvgl\src\core/lv_disp.c ****         lv_theme_apply(disp->screens[0]);
 580              		.loc 1 137 0
 581 0034 E368     		ldr	r3, [r4, #12]
 582 0036 9868     		ldr	r0, [r3, #8]
 583 0038 FFF7FEFF 		bl	lv_obj_get_child_cnt
 584              	.LVL70:
 136:..\..\..\arduinoLCD\test\Pain Drain\libraries\lvgl\src\core/lv_disp.c ****        lv_obj_get_child_cnt(disp->screens[2]) == 0) {
 585              		.loc 1 136 0
 586 003c 0028     		cmp	r0, #0
 587 003e 03D1     		bne	.L30
 138:..\..\..\arduinoLCD\test\Pain Drain\libraries\lvgl\src\core/lv_disp.c ****     }
 588              		.loc 1 138 0
 589 0040 E368     		ldr	r3, [r4, #12]
 590 0042 1868     		ldr	r0, [r3]
 591 0044 FFF7FEFF 		bl	lv_theme_apply
 592              	.LVL71:
 593              	.L30:
 140:..\..\..\arduinoLCD\test\Pain Drain\libraries\lvgl\src\core/lv_disp.c **** /**
 594              		.loc 1 140 0
 595              		@ sp needed
 596              	.LVL72:
 597              	.LVL73:
 598 0048 70BD     		pop	{r4, r5, r6, pc}
 599              		.cfi_endproc
 600              	.LFE170:
 601              		.size	lv_disp_set_theme, .-lv_disp_set_theme
 602 004a C046     		.section	.text.lv_disp_get_theme,"ax",%progbits
 603              		.align	2
 604              		.global	lv_disp_get_theme
 605              		.code	16
 606              		.thumb_func
 607              		.type	lv_disp_get_theme, %function
 608              	lv_disp_get_theme:
 609              	.LFB171:
 147:..\..\..\arduinoLCD\test\Pain Drain\libraries\lvgl\src\core/lv_disp.c ****     if(disp == NULL) disp = lv_disp_get_default();
 610              		.loc 1 147 0
 611              		.cfi_startproc
 612              		@ args = 0, pretend = 0, frame = 0
 613              		@ frame_needed = 0, uses_anonymous_args = 0
 614              	.LVL74:
 615 0000 10B5     		push	{r4, lr}
 616              		.cfi_def_cfa_offset 8
 617              		.cfi_offset 4, -8
 618              		.cfi_offset 14, -4
 148:..\..\..\arduinoLCD\test\Pain Drain\libraries\lvgl\src\core/lv_disp.c ****     return disp->theme;
 619              		.loc 1 148 0
ARM GAS  C:\Users\haske\AppData\Local\Temp\ccLw7Foe.s 			page 26


 620 0002 0028     		cmp	r0, #0
 621 0004 01D1     		bne	.L34
 148:..\..\..\arduinoLCD\test\Pain Drain\libraries\lvgl\src\core/lv_disp.c ****     return disp->theme;
 622              		.loc 1 148 0 is_stmt 0 discriminator 1
 623 0006 FFF7FEFF 		bl	lv_disp_get_default
 624              	.LVL75:
 625              	.L34:
 149:..\..\..\arduinoLCD\test\Pain Drain\libraries\lvgl\src\core/lv_disp.c **** }
 626              		.loc 1 149 0 is_stmt 1
 627 000a 8068     		ldr	r0, [r0, #8]
 628              	.LVL76:
 150:..\..\..\arduinoLCD\test\Pain Drain\libraries\lvgl\src\core/lv_disp.c **** 
 629              		.loc 1 150 0
 630              		@ sp needed
 631 000c 10BD     		pop	{r4, pc}
 632              		.cfi_endproc
 633              	.LFE171:
 634              		.size	lv_disp_get_theme, .-lv_disp_get_theme
 635 000e C046     		.section	.text.lv_disp_set_bg_color,"ax",%progbits
 636              		.align	2
 637              		.global	lv_disp_set_bg_color
 638              		.code	16
 639              		.thumb_func
 640              		.type	lv_disp_set_bg_color, %function
 641              	lv_disp_set_bg_color:
 642              	.LFB172:
 158:..\..\..\arduinoLCD\test\Pain Drain\libraries\lvgl\src\core/lv_disp.c ****     if(!disp) disp = lv_disp_get_default();
 643              		.loc 1 158 0
 644              		.cfi_startproc
 645              		@ args = 0, pretend = 0, frame = 8
 646              		@ frame_needed = 0, uses_anonymous_args = 0
 647              	.LVL77:
 648 0000 30B5     		push	{r4, r5, lr}
 649              		.cfi_def_cfa_offset 12
 650              		.cfi_offset 4, -12
 651              		.cfi_offset 5, -8
 652              		.cfi_offset 14, -4
 653 0002 85B0     		sub	sp, sp, #20
 654              		.cfi_def_cfa_offset 32
 655 0004 0400     		movs	r4, r0
 656 0006 0D1C     		adds	r5, r1, #0
 159:..\..\..\arduinoLCD\test\Pain Drain\libraries\lvgl\src\core/lv_disp.c ****     if(!disp) {
 657              		.loc 1 159 0
 658 0008 0028     		cmp	r0, #0
 659 000a 02D1     		bne	.L36
 159:..\..\..\arduinoLCD\test\Pain Drain\libraries\lvgl\src\core/lv_disp.c ****     if(!disp) {
 660              		.loc 1 159 0 is_stmt 0 discriminator 1
 661 000c FFF7FEFF 		bl	lv_disp_get_default
 662              	.LVL78:
 663 0010 0400     		movs	r4, r0
 664              	.LVL79:
 665              	.L36:
 160:..\..\..\arduinoLCD\test\Pain Drain\libraries\lvgl\src\core/lv_disp.c ****         LV_LOG_WARN("no display registered");
 666              		.loc 1 160 0 is_stmt 1
 667 0012 002C     		cmp	r4, #0
 668 0014 15D0     		beq	.L35
 165:..\..\..\arduinoLCD\test\Pain Drain\libraries\lvgl\src\core/lv_disp.c **** 
ARM GAS  C:\Users\haske\AppData\Local\Temp\ccLw7Foe.s 			page 27


 669              		.loc 1 165 0
 670 0016 6585     		strh	r5, [r4, #42]
 168:..\..\..\arduinoLCD\test\Pain Drain\libraries\lvgl\src\core/lv_disp.c ****     _lv_inv_area(disp, &a);
 671              		.loc 1 168 0
 672 0018 2000     		movs	r0, r4
 673 001a FFF7FEFF 		bl	lv_disp_get_hor_res
 674              	.LVL80:
 675 001e 0500     		movs	r5, r0
 676              	.LVL81:
 677 0020 2000     		movs	r0, r4
 678 0022 FFF7FEFF 		bl	lv_disp_get_ver_res
 679              	.LVL82:
 680 0026 013D     		subs	r5, r5, #1
 681 0028 2BB2     		sxth	r3, r5
 682 002a 0138     		subs	r0, r0, #1
 683 002c 00B2     		sxth	r0, r0
 684 002e 0090     		str	r0, [sp]
 685 0030 0022     		movs	r2, #0
 686 0032 0021     		movs	r1, #0
 687 0034 02A8     		add	r0, sp, #8
 688 0036 FFF7FEFF 		bl	lv_area_set
 689              	.LVL83:
 169:..\..\..\arduinoLCD\test\Pain Drain\libraries\lvgl\src\core/lv_disp.c **** 
 690              		.loc 1 169 0
 691 003a 02A9     		add	r1, sp, #8
 692 003c 2000     		movs	r0, r4
 693 003e FFF7FEFF 		bl	_lv_inv_area
 694              	.LVL84:
 695              	.L35:
 171:..\..\..\arduinoLCD\test\Pain Drain\libraries\lvgl\src\core/lv_disp.c **** 
 696              		.loc 1 171 0
 697 0042 05B0     		add	sp, sp, #20
 698              		@ sp needed
 699              	.LVL85:
 700 0044 30BD     		pop	{r4, r5, pc}
 701              		.cfi_endproc
 702              	.LFE172:
 703              		.size	lv_disp_set_bg_color, .-lv_disp_set_bg_color
 704 0046 C046     		.section	.text.lv_disp_set_bg_image,"ax",%progbits
 705              		.align	2
 706              		.global	lv_disp_set_bg_image
 707              		.code	16
 708              		.thumb_func
 709              		.type	lv_disp_set_bg_image, %function
 710              	lv_disp_set_bg_image:
 711              	.LFB173:
 179:..\..\..\arduinoLCD\test\Pain Drain\libraries\lvgl\src\core/lv_disp.c ****     if(!disp) disp = lv_disp_get_default();
 712              		.loc 1 179 0
 713              		.cfi_startproc
 714              		@ args = 0, pretend = 0, frame = 8
 715              		@ frame_needed = 0, uses_anonymous_args = 0
 716              	.LVL86:
 717 0000 30B5     		push	{r4, r5, lr}
 718              		.cfi_def_cfa_offset 12
 719              		.cfi_offset 4, -12
 720              		.cfi_offset 5, -8
 721              		.cfi_offset 14, -4
ARM GAS  C:\Users\haske\AppData\Local\Temp\ccLw7Foe.s 			page 28


 722 0002 85B0     		sub	sp, sp, #20
 723              		.cfi_def_cfa_offset 32
 724 0004 0400     		movs	r4, r0
 725 0006 0D00     		movs	r5, r1
 180:..\..\..\arduinoLCD\test\Pain Drain\libraries\lvgl\src\core/lv_disp.c ****     if(!disp) {
 726              		.loc 1 180 0
 727 0008 0028     		cmp	r0, #0
 728 000a 02D1     		bne	.L40
 180:..\..\..\arduinoLCD\test\Pain Drain\libraries\lvgl\src\core/lv_disp.c ****     if(!disp) {
 729              		.loc 1 180 0 is_stmt 0 discriminator 1
 730 000c FFF7FEFF 		bl	lv_disp_get_default
 731              	.LVL87:
 732 0010 0400     		movs	r4, r0
 733              	.LVL88:
 734              	.L40:
 181:..\..\..\arduinoLCD\test\Pain Drain\libraries\lvgl\src\core/lv_disp.c ****         LV_LOG_WARN("no display registered");
 735              		.loc 1 181 0 is_stmt 1
 736 0012 002C     		cmp	r4, #0
 737 0014 15D0     		beq	.L39
 186:..\..\..\arduinoLCD\test\Pain Drain\libraries\lvgl\src\core/lv_disp.c **** 
 738              		.loc 1 186 0
 739 0016 E562     		str	r5, [r4, #44]
 189:..\..\..\arduinoLCD\test\Pain Drain\libraries\lvgl\src\core/lv_disp.c ****     _lv_inv_area(disp, &a);
 740              		.loc 1 189 0
 741 0018 2000     		movs	r0, r4
 742 001a FFF7FEFF 		bl	lv_disp_get_hor_res
 743              	.LVL89:
 744 001e 0500     		movs	r5, r0
 745              	.LVL90:
 746 0020 2000     		movs	r0, r4
 747 0022 FFF7FEFF 		bl	lv_disp_get_ver_res
 748              	.LVL91:
 749 0026 013D     		subs	r5, r5, #1
 750 0028 2BB2     		sxth	r3, r5
 751 002a 0138     		subs	r0, r0, #1
 752 002c 00B2     		sxth	r0, r0
 753 002e 0090     		str	r0, [sp]
 754 0030 0022     		movs	r2, #0
 755 0032 0021     		movs	r1, #0
 756 0034 02A8     		add	r0, sp, #8
 757 0036 FFF7FEFF 		bl	lv_area_set
 758              	.LVL92:
 190:..\..\..\arduinoLCD\test\Pain Drain\libraries\lvgl\src\core/lv_disp.c **** }
 759              		.loc 1 190 0
 760 003a 02A9     		add	r1, sp, #8
 761 003c 2000     		movs	r0, r4
 762 003e FFF7FEFF 		bl	_lv_inv_area
 763              	.LVL93:
 764              	.L39:
 191:..\..\..\arduinoLCD\test\Pain Drain\libraries\lvgl\src\core/lv_disp.c **** 
 765              		.loc 1 191 0
 766 0042 05B0     		add	sp, sp, #20
 767              		@ sp needed
 768              	.LVL94:
 769 0044 30BD     		pop	{r4, r5, pc}
 770              		.cfi_endproc
 771              	.LFE173:
ARM GAS  C:\Users\haske\AppData\Local\Temp\ccLw7Foe.s 			page 29


 772              		.size	lv_disp_set_bg_image, .-lv_disp_set_bg_image
 773 0046 C046     		.section	.text.lv_disp_set_bg_opa,"ax",%progbits
 774              		.align	2
 775              		.global	lv_disp_set_bg_opa
 776              		.code	16
 777              		.thumb_func
 778              		.type	lv_disp_set_bg_opa, %function
 779              	lv_disp_set_bg_opa:
 780              	.LFB174:
 199:..\..\..\arduinoLCD\test\Pain Drain\libraries\lvgl\src\core/lv_disp.c ****     if(!disp) disp = lv_disp_get_default();
 781              		.loc 1 199 0
 782              		.cfi_startproc
 783              		@ args = 0, pretend = 0, frame = 8
 784              		@ frame_needed = 0, uses_anonymous_args = 0
 785              	.LVL95:
 786 0000 30B5     		push	{r4, r5, lr}
 787              		.cfi_def_cfa_offset 12
 788              		.cfi_offset 4, -12
 789              		.cfi_offset 5, -8
 790              		.cfi_offset 14, -4
 791 0002 85B0     		sub	sp, sp, #20
 792              		.cfi_def_cfa_offset 32
 793 0004 0400     		movs	r4, r0
 794 0006 0D00     		movs	r5, r1
 200:..\..\..\arduinoLCD\test\Pain Drain\libraries\lvgl\src\core/lv_disp.c ****     if(!disp) {
 795              		.loc 1 200 0
 796 0008 0028     		cmp	r0, #0
 797 000a 02D1     		bne	.L44
 200:..\..\..\arduinoLCD\test\Pain Drain\libraries\lvgl\src\core/lv_disp.c ****     if(!disp) {
 798              		.loc 1 200 0 is_stmt 0 discriminator 1
 799 000c FFF7FEFF 		bl	lv_disp_get_default
 800              	.LVL96:
 801 0010 0400     		movs	r4, r0
 802              	.LVL97:
 803              	.L44:
 201:..\..\..\arduinoLCD\test\Pain Drain\libraries\lvgl\src\core/lv_disp.c ****         LV_LOG_WARN("no display registered");
 804              		.loc 1 201 0 is_stmt 1
 805 0012 002C     		cmp	r4, #0
 806 0014 16D0     		beq	.L43
 206:..\..\..\arduinoLCD\test\Pain Drain\libraries\lvgl\src\core/lv_disp.c **** 
 807              		.loc 1 206 0
 808 0016 2923     		movs	r3, #41
 809 0018 E554     		strb	r5, [r4, r3]
 209:..\..\..\arduinoLCD\test\Pain Drain\libraries\lvgl\src\core/lv_disp.c ****     _lv_inv_area(disp, &a);
 810              		.loc 1 209 0
 811 001a 2000     		movs	r0, r4
 812 001c FFF7FEFF 		bl	lv_disp_get_hor_res
 813              	.LVL98:
 814 0020 0500     		movs	r5, r0
 815 0022 2000     		movs	r0, r4
 816 0024 FFF7FEFF 		bl	lv_disp_get_ver_res
 817              	.LVL99:
 818 0028 013D     		subs	r5, r5, #1
 819 002a 2BB2     		sxth	r3, r5
 820 002c 0138     		subs	r0, r0, #1
 821 002e 00B2     		sxth	r0, r0
 822 0030 0090     		str	r0, [sp]
ARM GAS  C:\Users\haske\AppData\Local\Temp\ccLw7Foe.s 			page 30


 823 0032 0022     		movs	r2, #0
 824 0034 0021     		movs	r1, #0
 825 0036 02A8     		add	r0, sp, #8
 826 0038 FFF7FEFF 		bl	lv_area_set
 827              	.LVL100:
 210:..\..\..\arduinoLCD\test\Pain Drain\libraries\lvgl\src\core/lv_disp.c **** }
 828              		.loc 1 210 0
 829 003c 02A9     		add	r1, sp, #8
 830 003e 2000     		movs	r0, r4
 831 0040 FFF7FEFF 		bl	_lv_inv_area
 832              	.LVL101:
 833              	.L43:
 211:..\..\..\arduinoLCD\test\Pain Drain\libraries\lvgl\src\core/lv_disp.c **** 
 834              		.loc 1 211 0
 835 0044 05B0     		add	sp, sp, #20
 836              		@ sp needed
 837              	.LVL102:
 838 0046 30BD     		pop	{r4, r5, pc}
 839              		.cfi_endproc
 840              	.LFE174:
 841              		.size	lv_disp_set_bg_opa, .-lv_disp_set_bg_opa
 842              		.section	.text.lv_scr_load_anim,"ax",%progbits
 843              		.align	2
 844              		.global	lv_scr_load_anim
 845              		.code	16
 846              		.thumb_func
 847              		.type	lv_scr_load_anim, %function
 848              	lv_scr_load_anim:
 849              	.LFB175:
 222:..\..\..\arduinoLCD\test\Pain Drain\libraries\lvgl\src\core/lv_disp.c **** 
 850              		.loc 1 222 0
 851              		.cfi_startproc
 852              		@ args = 4, pretend = 0, frame = 144
 853              		@ frame_needed = 0, uses_anonymous_args = 0
 854              	.LVL103:
 855 0000 F0B5     		push	{r4, r5, r6, r7, lr}
 856              		.cfi_def_cfa_offset 20
 857              		.cfi_offset 4, -20
 858              		.cfi_offset 5, -16
 859              		.cfi_offset 6, -12
 860              		.cfi_offset 7, -8
 861              		.cfi_offset 14, -4
 862 0002 5746     		mov	r7, r10
 863 0004 4E46     		mov	r6, r9
 864 0006 4546     		mov	r5, r8
 865 0008 E0B4     		push	{r5, r6, r7}
 866              		.cfi_def_cfa_offset 32
 867              		.cfi_offset 8, -32
 868              		.cfi_offset 9, -28
 869              		.cfi_offset 10, -24
 870 000a A4B0     		sub	sp, sp, #144
 871              		.cfi_def_cfa_offset 176
 872 000c 0600     		movs	r6, r0
 873 000e 0191     		str	r1, [sp, #4]
 874 0010 1700     		movs	r7, r2
 875 0012 9846     		mov	r8, r3
 876 0014 2CAB     		add	r3, sp, #176
ARM GAS  C:\Users\haske\AppData\Local\Temp\ccLw7Foe.s 			page 31


 877              	.LVL104:
 878 0016 1D78     		ldrb	r5, [r3]
 224:..\..\..\arduinoLCD\test\Pain Drain\libraries\lvgl\src\core/lv_disp.c ****     lv_obj_t * act_scr = lv_scr_act();
 879              		.loc 1 224 0
 880 0018 FFF7FEFF 		bl	lv_obj_get_disp
 881              	.LVL105:
 882 001c 0400     		movs	r4, r0
 883              	.LVL106:
 884              	.LBB106:
 885              	.LBB107:
 886              		.loc 2 184 0
 887 001e FFF7FEFF 		bl	lv_disp_get_default
 888              	.LVL107:
 889 0022 FFF7FEFF 		bl	lv_disp_get_scr_act
 890              	.LVL108:
 891 0026 8146     		mov	r9, r0
 892              	.LBE107:
 893              	.LBE106:
 229:..\..\..\arduinoLCD\test\Pain Drain\libraries\lvgl\src\core/lv_disp.c ****         scr_load_internal(d->scr_to_load);
 894              		.loc 1 229 0
 895 0028 A069     		ldr	r0, [r4, #24]
 896 002a 0028     		cmp	r0, #0
 897 002c 1AD0     		beq	.L48
 229:..\..\..\arduinoLCD\test\Pain Drain\libraries\lvgl\src\core/lv_disp.c ****         scr_load_internal(d->scr_to_load);
 898              		.loc 1 229 0 is_stmt 0 discriminator 1
 899 002e 4845     		cmp	r0, r9
 900 0030 18D0     		beq	.L48
 230:..\..\..\arduinoLCD\test\Pain Drain\libraries\lvgl\src\core/lv_disp.c ****         lv_anim_del(d->scr_to_load, NULL);
 901              		.loc 1 230 0 is_stmt 1
 902 0032 FFF7FEFF 		bl	scr_load_internal
 903              	.LVL109:
 231:..\..\..\arduinoLCD\test\Pain Drain\libraries\lvgl\src\core/lv_disp.c ****         lv_obj_set_pos(d->scr_to_load, 0, 0);
 904              		.loc 1 231 0
 905 0036 0021     		movs	r1, #0
 906 0038 A069     		ldr	r0, [r4, #24]
 907 003a FFF7FEFF 		bl	lv_anim_del
 908              	.LVL110:
 232:..\..\..\arduinoLCD\test\Pain Drain\libraries\lvgl\src\core/lv_disp.c ****         lv_obj_remove_local_style_prop(d->scr_to_load, LV_STYLE_OPA, 0);
 909              		.loc 1 232 0
 910 003e 0022     		movs	r2, #0
 911 0040 0021     		movs	r1, #0
 912 0042 A069     		ldr	r0, [r4, #24]
 913 0044 FFF7FEFF 		bl	lv_obj_set_pos
 914              	.LVL111:
 233:..\..\..\arduinoLCD\test\Pain Drain\libraries\lvgl\src\core/lv_disp.c **** 
 915              		.loc 1 233 0
 916 0048 0022     		movs	r2, #0
 917 004a 6021     		movs	r1, #96
 918 004c A069     		ldr	r0, [r4, #24]
 919 004e FFF7FEFF 		bl	lv_obj_remove_local_style_prop
 920              	.LVL112:
 235:..\..\..\arduinoLCD\test\Pain Drain\libraries\lvgl\src\core/lv_disp.c ****             lv_obj_del(act_scr);
 921              		.loc 1 235 0
 922 0052 2823     		movs	r3, #40
 923 0054 E35C     		ldrb	r3, [r4, r3]
 924 0056 9B07     		lsls	r3, r3, #30
 925 0058 02D5     		bpl	.L49
ARM GAS  C:\Users\haske\AppData\Local\Temp\ccLw7Foe.s 			page 32


 236:..\..\..\arduinoLCD\test\Pain Drain\libraries\lvgl\src\core/lv_disp.c ****         }
 926              		.loc 1 236 0
 927 005a 4846     		mov	r0, r9
 928 005c FFF7FEFF 		bl	lv_obj_del
 929              	.LVL113:
 930              	.L49:
 238:..\..\..\arduinoLCD\test\Pain Drain\libraries\lvgl\src\core/lv_disp.c ****     }
 931              		.loc 1 238 0
 932 0060 A369     		ldr	r3, [r4, #24]
 933 0062 9946     		mov	r9, r3
 934              	.LVL114:
 935              	.L48:
 241:..\..\..\arduinoLCD\test\Pain Drain\libraries\lvgl\src\core/lv_disp.c **** 
 936              		.loc 1 241 0
 937 0064 A661     		str	r6, [r4, #24]
 243:..\..\..\arduinoLCD\test\Pain Drain\libraries\lvgl\src\core/lv_disp.c ****         lv_obj_del(d->prev_scr);
 938              		.loc 1 243 0
 939 0066 6069     		ldr	r0, [r4, #20]
 940 0068 0028     		cmp	r0, #0
 941 006a 07D0     		beq	.L50
 243:..\..\..\arduinoLCD\test\Pain Drain\libraries\lvgl\src\core/lv_disp.c ****         lv_obj_del(d->prev_scr);
 942              		.loc 1 243 0 is_stmt 0 discriminator 1
 943 006c 2823     		movs	r3, #40
 944 006e E35C     		ldrb	r3, [r4, r3]
 945 0070 9B07     		lsls	r3, r3, #30
 946 0072 03D5     		bpl	.L50
 244:..\..\..\arduinoLCD\test\Pain Drain\libraries\lvgl\src\core/lv_disp.c ****         d->prev_scr = NULL;
 947              		.loc 1 244 0 is_stmt 1
 948 0074 FFF7FEFF 		bl	lv_obj_del
 949              	.LVL115:
 245:..\..\..\arduinoLCD\test\Pain Drain\libraries\lvgl\src\core/lv_disp.c ****     }
 950              		.loc 1 245 0
 951 0078 0023     		movs	r3, #0
 952 007a 6361     		str	r3, [r4, #20]
 953              	.L50:
 248:..\..\..\arduinoLCD\test\Pain Drain\libraries\lvgl\src\core/lv_disp.c ****     d->del_prev = auto_del;
 954              		.loc 1 248 0
 955 007c 0198     		ldr	r0, [sp, #4]
 956 007e FFF7FEFF 		bl	is_out_anim
 957              	.LVL116:
 958 0082 2822     		movs	r2, #40
 959 0084 0123     		movs	r3, #1
 960 0086 1840     		ands	r0, r3
 961 0088 A15C     		ldrb	r1, [r4, r2]
 962 008a 9943     		bics	r1, r3
 249:..\..\..\arduinoLCD\test\Pain Drain\libraries\lvgl\src\core/lv_disp.c **** 
 963              		.loc 1 249 0
 964 008c 1D40     		ands	r5, r3
 965 008e 6B00     		lsls	r3, r5, #1
 966 0090 0143     		orrs	r1, r0
 967 0092 0D00     		movs	r5, r1
 968 0094 0221     		movs	r1, #2
 969 0096 8D43     		bics	r5, r1
 970 0098 1D43     		orrs	r5, r3
 971 009a A554     		strb	r5, [r4, r2]
 252:..\..\..\arduinoLCD\test\Pain Drain\libraries\lvgl\src\core/lv_disp.c ****     lv_anim_del(lv_scr_act(), NULL);
 972              		.loc 1 252 0
ARM GAS  C:\Users\haske\AppData\Local\Temp\ccLw7Foe.s 			page 33


 973 009c 0021     		movs	r1, #0
 974 009e 3000     		movs	r0, r6
 975 00a0 FFF7FEFF 		bl	lv_anim_del
 976              	.LVL117:
 977              	.LBB108:
 978              	.LBB109:
 979              		.loc 2 184 0
 980 00a4 FFF7FEFF 		bl	lv_disp_get_default
 981              	.LVL118:
 982 00a8 FFF7FEFF 		bl	lv_disp_get_scr_act
 983              	.LVL119:
 984              	.LBE109:
 985              	.LBE108:
 253:..\..\..\arduinoLCD\test\Pain Drain\libraries\lvgl\src\core/lv_disp.c **** 
 986              		.loc 1 253 0
 987 00ac 0021     		movs	r1, #0
 988 00ae FFF7FEFF 		bl	lv_anim_del
 989              	.LVL120:
 256:..\..\..\arduinoLCD\test\Pain Drain\libraries\lvgl\src\core/lv_disp.c ****     lv_obj_set_pos(lv_scr_act(), 0, 0);
 990              		.loc 1 256 0
 991 00b2 0022     		movs	r2, #0
 992 00b4 0021     		movs	r1, #0
 993 00b6 3000     		movs	r0, r6
 994 00b8 FFF7FEFF 		bl	lv_obj_set_pos
 995              	.LVL121:
 996              	.LBB110:
 997              	.LBB111:
 998              		.loc 2 184 0
 999 00bc FFF7FEFF 		bl	lv_disp_get_default
 1000              	.LVL122:
 1001 00c0 FFF7FEFF 		bl	lv_disp_get_scr_act
 1002              	.LVL123:
 1003              	.LBE111:
 1004              	.LBE110:
 257:..\..\..\arduinoLCD\test\Pain Drain\libraries\lvgl\src\core/lv_disp.c ****     lv_obj_remove_local_style_prop(new_scr, LV_STYLE_OPA, 0);
 1005              		.loc 1 257 0
 1006 00c4 0022     		movs	r2, #0
 1007 00c6 0021     		movs	r1, #0
 1008 00c8 FFF7FEFF 		bl	lv_obj_set_pos
 1009              	.LVL124:
 258:..\..\..\arduinoLCD\test\Pain Drain\libraries\lvgl\src\core/lv_disp.c ****     lv_obj_remove_local_style_prop(lv_scr_act(), LV_STYLE_OPA, 0);
 1010              		.loc 1 258 0
 1011 00cc 0022     		movs	r2, #0
 1012 00ce 6021     		movs	r1, #96
 1013 00d0 3000     		movs	r0, r6
 1014 00d2 FFF7FEFF 		bl	lv_obj_remove_local_style_prop
 1015              	.LVL125:
 1016              	.LBB112:
 1017              	.LBB113:
 1018              		.loc 2 184 0
 1019 00d6 FFF7FEFF 		bl	lv_disp_get_default
 1020              	.LVL126:
 1021 00da FFF7FEFF 		bl	lv_disp_get_scr_act
 1022              	.LVL127:
 1023              	.LBE113:
 1024              	.LBE112:
 259:..\..\..\arduinoLCD\test\Pain Drain\libraries\lvgl\src\core/lv_disp.c **** 
ARM GAS  C:\Users\haske\AppData\Local\Temp\ccLw7Foe.s 			page 34


 1025              		.loc 1 259 0
 1026 00de 0022     		movs	r2, #0
 1027 00e0 6021     		movs	r1, #96
 1028 00e2 FFF7FEFF 		bl	lv_obj_remove_local_style_prop
 1029              	.LVL128:
 263:..\..\..\arduinoLCD\test\Pain Drain\libraries\lvgl\src\core/lv_disp.c ****         scr_load_internal(new_scr);
 1030              		.loc 1 263 0
 1031 00e6 4346     		mov	r3, r8
 1032 00e8 3B43     		orrs	r3, r7
 1033 00ea 03D1     		bne	.L51
 264:..\..\..\arduinoLCD\test\Pain Drain\libraries\lvgl\src\core/lv_disp.c ****         return;
 1034              		.loc 1 264 0
 1035 00ec 3000     		movs	r0, r6
 1036 00ee FFF7FEFF 		bl	scr_load_internal
 1037              	.LVL129:
 1038 00f2 D7E0     		b	.L47
 1039              	.L51:
 269:..\..\..\arduinoLCD\test\Pain Drain\libraries\lvgl\src\core/lv_disp.c ****     lv_anim_set_var(&a_new, new_scr);
 1040              		.loc 1 269 0
 1041 00f4 13A8     		add	r0, sp, #76
 1042 00f6 FFF7FEFF 		bl	lv_anim_init
 1043              	.LVL130:
 1044              	.LBB114:
 1045              	.LBB115:
 1046              		.file 3 "c:\\projects\\paindrain\\arduinolcd\\test\\pain drain\\libraries\\lvgl\\src\\misc\\lv_ani
   1:c:\projects\paindrain\arduinolcd\test\pain drain\libraries\lvgl\src\misc\lv_anim.h **** /**
   2:c:\projects\paindrain\arduinolcd\test\pain drain\libraries\lvgl\src\misc\lv_anim.h ****  * @file lv_anim.h
   3:c:\projects\paindrain\arduinolcd\test\pain drain\libraries\lvgl\src\misc\lv_anim.h ****  *
   4:c:\projects\paindrain\arduinolcd\test\pain drain\libraries\lvgl\src\misc\lv_anim.h ****  */
   5:c:\projects\paindrain\arduinolcd\test\pain drain\libraries\lvgl\src\misc\lv_anim.h **** 
   6:c:\projects\paindrain\arduinolcd\test\pain drain\libraries\lvgl\src\misc\lv_anim.h **** #ifndef LV_ANIM_H
   7:c:\projects\paindrain\arduinolcd\test\pain drain\libraries\lvgl\src\misc\lv_anim.h **** #define LV_ANIM_H
   8:c:\projects\paindrain\arduinolcd\test\pain drain\libraries\lvgl\src\misc\lv_anim.h **** 
   9:c:\projects\paindrain\arduinolcd\test\pain drain\libraries\lvgl\src\misc\lv_anim.h **** #ifdef __cplusplus
  10:c:\projects\paindrain\arduinolcd\test\pain drain\libraries\lvgl\src\misc\lv_anim.h **** extern "C" {
  11:c:\projects\paindrain\arduinolcd\test\pain drain\libraries\lvgl\src\misc\lv_anim.h **** #endif
  12:c:\projects\paindrain\arduinolcd\test\pain drain\libraries\lvgl\src\misc\lv_anim.h **** 
  13:c:\projects\paindrain\arduinolcd\test\pain drain\libraries\lvgl\src\misc\lv_anim.h **** /*********************
  14:c:\projects\paindrain\arduinolcd\test\pain drain\libraries\lvgl\src\misc\lv_anim.h ****  *      INCLUDES
  15:c:\projects\paindrain\arduinolcd\test\pain drain\libraries\lvgl\src\misc\lv_anim.h ****  *********************/
  16:c:\projects\paindrain\arduinolcd\test\pain drain\libraries\lvgl\src\misc\lv_anim.h **** #include "../lv_conf_internal.h"
  17:c:\projects\paindrain\arduinolcd\test\pain drain\libraries\lvgl\src\misc\lv_anim.h **** 
  18:c:\projects\paindrain\arduinolcd\test\pain drain\libraries\lvgl\src\misc\lv_anim.h **** #include <stdint.h>
  19:c:\projects\paindrain\arduinolcd\test\pain drain\libraries\lvgl\src\misc\lv_anim.h **** #include <stdbool.h>
  20:c:\projects\paindrain\arduinolcd\test\pain drain\libraries\lvgl\src\misc\lv_anim.h **** #include <stddef.h>
  21:c:\projects\paindrain\arduinolcd\test\pain drain\libraries\lvgl\src\misc\lv_anim.h **** 
  22:c:\projects\paindrain\arduinolcd\test\pain drain\libraries\lvgl\src\misc\lv_anim.h **** /*********************
  23:c:\projects\paindrain\arduinolcd\test\pain drain\libraries\lvgl\src\misc\lv_anim.h ****  *      DEFINES
  24:c:\projects\paindrain\arduinolcd\test\pain drain\libraries\lvgl\src\misc\lv_anim.h ****  *********************/
  25:c:\projects\paindrain\arduinolcd\test\pain drain\libraries\lvgl\src\misc\lv_anim.h **** 
  26:c:\projects\paindrain\arduinolcd\test\pain drain\libraries\lvgl\src\misc\lv_anim.h **** #define LV_ANIM_REPEAT_INFINITE      0xFFFF
  27:c:\projects\paindrain\arduinolcd\test\pain drain\libraries\lvgl\src\misc\lv_anim.h **** #define LV_ANIM_PLAYTIME_INFINITE    0xFFFFFFFF
  28:c:\projects\paindrain\arduinolcd\test\pain drain\libraries\lvgl\src\misc\lv_anim.h **** 
  29:c:\projects\paindrain\arduinolcd\test\pain drain\libraries\lvgl\src\misc\lv_anim.h **** LV_EXPORT_CONST_INT(LV_ANIM_REPEAT_INFINITE);
  30:c:\projects\paindrain\arduinolcd\test\pain drain\libraries\lvgl\src\misc\lv_anim.h **** LV_EXPORT_CONST_INT(LV_ANIM_PLAYTIME_INFINITE);
  31:c:\projects\paindrain\arduinolcd\test\pain drain\libraries\lvgl\src\misc\lv_anim.h **** 
  32:c:\projects\paindrain\arduinolcd\test\pain drain\libraries\lvgl\src\misc\lv_anim.h **** /**********************
ARM GAS  C:\Users\haske\AppData\Local\Temp\ccLw7Foe.s 			page 35


  33:c:\projects\paindrain\arduinolcd\test\pain drain\libraries\lvgl\src\misc\lv_anim.h ****  *      TYPEDEFS
  34:c:\projects\paindrain\arduinolcd\test\pain drain\libraries\lvgl\src\misc\lv_anim.h ****  **********************/
  35:c:\projects\paindrain\arduinolcd\test\pain drain\libraries\lvgl\src\misc\lv_anim.h **** 
  36:c:\projects\paindrain\arduinolcd\test\pain drain\libraries\lvgl\src\misc\lv_anim.h **** /** Can be used to indicate if animations are enabled or disabled in a case*/
  37:c:\projects\paindrain\arduinolcd\test\pain drain\libraries\lvgl\src\misc\lv_anim.h **** typedef enum {
  38:c:\projects\paindrain\arduinolcd\test\pain drain\libraries\lvgl\src\misc\lv_anim.h ****     LV_ANIM_OFF,
  39:c:\projects\paindrain\arduinolcd\test\pain drain\libraries\lvgl\src\misc\lv_anim.h ****     LV_ANIM_ON,
  40:c:\projects\paindrain\arduinolcd\test\pain drain\libraries\lvgl\src\misc\lv_anim.h **** } lv_anim_enable_t;
  41:c:\projects\paindrain\arduinolcd\test\pain drain\libraries\lvgl\src\misc\lv_anim.h **** 
  42:c:\projects\paindrain\arduinolcd\test\pain drain\libraries\lvgl\src\misc\lv_anim.h **** struct _lv_anim_t;
  43:c:\projects\paindrain\arduinolcd\test\pain drain\libraries\lvgl\src\misc\lv_anim.h **** struct _lv_timer_t;
  44:c:\projects\paindrain\arduinolcd\test\pain drain\libraries\lvgl\src\misc\lv_anim.h **** 
  45:c:\projects\paindrain\arduinolcd\test\pain drain\libraries\lvgl\src\misc\lv_anim.h **** /** Get the current value during an animation*/
  46:c:\projects\paindrain\arduinolcd\test\pain drain\libraries\lvgl\src\misc\lv_anim.h **** typedef int32_t (*lv_anim_path_cb_t)(const struct _lv_anim_t *);
  47:c:\projects\paindrain\arduinolcd\test\pain drain\libraries\lvgl\src\misc\lv_anim.h **** 
  48:c:\projects\paindrain\arduinolcd\test\pain drain\libraries\lvgl\src\misc\lv_anim.h **** /** Generic prototype of "animator" functions.
  49:c:\projects\paindrain\arduinolcd\test\pain drain\libraries\lvgl\src\misc\lv_anim.h ****  * First parameter is the variable to animate.
  50:c:\projects\paindrain\arduinolcd\test\pain drain\libraries\lvgl\src\misc\lv_anim.h ****  * Second parameter is the value to set.
  51:c:\projects\paindrain\arduinolcd\test\pain drain\libraries\lvgl\src\misc\lv_anim.h ****  * Compatible with `lv_xxx_set_yyy(obj, value)` functions
  52:c:\projects\paindrain\arduinolcd\test\pain drain\libraries\lvgl\src\misc\lv_anim.h ****  * The `x` in `_xcb_t` means it's not a fully generic prototype because
  53:c:\projects\paindrain\arduinolcd\test\pain drain\libraries\lvgl\src\misc\lv_anim.h ****  * it doesn't receive `lv_anim_t *` as its first argument*/
  54:c:\projects\paindrain\arduinolcd\test\pain drain\libraries\lvgl\src\misc\lv_anim.h **** typedef void (*lv_anim_exec_xcb_t)(void *, int32_t);
  55:c:\projects\paindrain\arduinolcd\test\pain drain\libraries\lvgl\src\misc\lv_anim.h **** 
  56:c:\projects\paindrain\arduinolcd\test\pain drain\libraries\lvgl\src\misc\lv_anim.h **** /** Same as `lv_anim_exec_xcb_t` but receives `lv_anim_t *` as the first parameter.
  57:c:\projects\paindrain\arduinolcd\test\pain drain\libraries\lvgl\src\misc\lv_anim.h ****  * It's more consistent but less convenient. Might be used by binding generator functions.*/
  58:c:\projects\paindrain\arduinolcd\test\pain drain\libraries\lvgl\src\misc\lv_anim.h **** typedef void (*lv_anim_custom_exec_cb_t)(struct _lv_anim_t *, int32_t);
  59:c:\projects\paindrain\arduinolcd\test\pain drain\libraries\lvgl\src\misc\lv_anim.h **** 
  60:c:\projects\paindrain\arduinolcd\test\pain drain\libraries\lvgl\src\misc\lv_anim.h **** /** Callback to call when the animation is ready*/
  61:c:\projects\paindrain\arduinolcd\test\pain drain\libraries\lvgl\src\misc\lv_anim.h **** typedef void (*lv_anim_ready_cb_t)(struct _lv_anim_t *);
  62:c:\projects\paindrain\arduinolcd\test\pain drain\libraries\lvgl\src\misc\lv_anim.h **** 
  63:c:\projects\paindrain\arduinolcd\test\pain drain\libraries\lvgl\src\misc\lv_anim.h **** /** Callback to call when the animation really stars (considering `delay`)*/
  64:c:\projects\paindrain\arduinolcd\test\pain drain\libraries\lvgl\src\misc\lv_anim.h **** typedef void (*lv_anim_start_cb_t)(struct _lv_anim_t *);
  65:c:\projects\paindrain\arduinolcd\test\pain drain\libraries\lvgl\src\misc\lv_anim.h **** 
  66:c:\projects\paindrain\arduinolcd\test\pain drain\libraries\lvgl\src\misc\lv_anim.h **** /** Callback used when the animation values are relative to get the current value*/
  67:c:\projects\paindrain\arduinolcd\test\pain drain\libraries\lvgl\src\misc\lv_anim.h **** typedef int32_t (*lv_anim_get_value_cb_t)(struct _lv_anim_t *);
  68:c:\projects\paindrain\arduinolcd\test\pain drain\libraries\lvgl\src\misc\lv_anim.h **** 
  69:c:\projects\paindrain\arduinolcd\test\pain drain\libraries\lvgl\src\misc\lv_anim.h **** /** Callback used when the animation is deleted*/
  70:c:\projects\paindrain\arduinolcd\test\pain drain\libraries\lvgl\src\misc\lv_anim.h **** typedef void (*lv_anim_deleted_cb_t)(struct _lv_anim_t *);
  71:c:\projects\paindrain\arduinolcd\test\pain drain\libraries\lvgl\src\misc\lv_anim.h **** 
  72:c:\projects\paindrain\arduinolcd\test\pain drain\libraries\lvgl\src\misc\lv_anim.h **** /** Describes an animation*/
  73:c:\projects\paindrain\arduinolcd\test\pain drain\libraries\lvgl\src\misc\lv_anim.h **** typedef struct _lv_anim_t {
  74:c:\projects\paindrain\arduinolcd\test\pain drain\libraries\lvgl\src\misc\lv_anim.h ****     void * var;                          /**<Variable to animate*/
  75:c:\projects\paindrain\arduinolcd\test\pain drain\libraries\lvgl\src\misc\lv_anim.h ****     lv_anim_exec_xcb_t exec_cb;          /**< Function to execute to animate*/
  76:c:\projects\paindrain\arduinolcd\test\pain drain\libraries\lvgl\src\misc\lv_anim.h ****     lv_anim_start_cb_t start_cb;         /**< Call it when the animation is starts (considering `de
  77:c:\projects\paindrain\arduinolcd\test\pain drain\libraries\lvgl\src\misc\lv_anim.h ****     lv_anim_ready_cb_t ready_cb;         /**< Call it when the animation is ready*/
  78:c:\projects\paindrain\arduinolcd\test\pain drain\libraries\lvgl\src\misc\lv_anim.h ****     lv_anim_deleted_cb_t deleted_cb;     /**< Call it when the animation is deleted*/
  79:c:\projects\paindrain\arduinolcd\test\pain drain\libraries\lvgl\src\misc\lv_anim.h ****     lv_anim_get_value_cb_t get_value_cb; /**< Get the current value in relative mode*/
  80:c:\projects\paindrain\arduinolcd\test\pain drain\libraries\lvgl\src\misc\lv_anim.h **** #if LV_USE_USER_DATA
  81:c:\projects\paindrain\arduinolcd\test\pain drain\libraries\lvgl\src\misc\lv_anim.h ****     void * user_data; /**< Custom user data*/
  82:c:\projects\paindrain\arduinolcd\test\pain drain\libraries\lvgl\src\misc\lv_anim.h **** #endif
  83:c:\projects\paindrain\arduinolcd\test\pain drain\libraries\lvgl\src\misc\lv_anim.h ****     lv_anim_path_cb_t path_cb;         /**< Describe the path (curve) of animations*/
  84:c:\projects\paindrain\arduinolcd\test\pain drain\libraries\lvgl\src\misc\lv_anim.h ****     int32_t start_value;               /**< Start value*/
  85:c:\projects\paindrain\arduinolcd\test\pain drain\libraries\lvgl\src\misc\lv_anim.h ****     int32_t current_value;             /**< Current value*/
  86:c:\projects\paindrain\arduinolcd\test\pain drain\libraries\lvgl\src\misc\lv_anim.h ****     int32_t end_value;                 /**< End value*/
  87:c:\projects\paindrain\arduinolcd\test\pain drain\libraries\lvgl\src\misc\lv_anim.h ****     int32_t time;                /**< Animation time in ms*/
  88:c:\projects\paindrain\arduinolcd\test\pain drain\libraries\lvgl\src\misc\lv_anim.h ****     int32_t act_time;            /**< Current time in animation. Set to negative to make delay.*/
  89:c:\projects\paindrain\arduinolcd\test\pain drain\libraries\lvgl\src\misc\lv_anim.h ****     uint32_t playback_delay;     /**< Wait before play back*/
ARM GAS  C:\Users\haske\AppData\Local\Temp\ccLw7Foe.s 			page 36


  90:c:\projects\paindrain\arduinolcd\test\pain drain\libraries\lvgl\src\misc\lv_anim.h ****     uint32_t playback_time;      /**< Duration of playback animation*/
  91:c:\projects\paindrain\arduinolcd\test\pain drain\libraries\lvgl\src\misc\lv_anim.h ****     uint32_t repeat_delay;       /**< Wait before repeat*/
  92:c:\projects\paindrain\arduinolcd\test\pain drain\libraries\lvgl\src\misc\lv_anim.h ****     uint16_t repeat_cnt;         /**< Repeat count for the animation*/
  93:c:\projects\paindrain\arduinolcd\test\pain drain\libraries\lvgl\src\misc\lv_anim.h ****     uint8_t early_apply  : 1;    /**< 1: Apply start value immediately even is there is `delay`*/
  94:c:\projects\paindrain\arduinolcd\test\pain drain\libraries\lvgl\src\misc\lv_anim.h **** 
  95:c:\projects\paindrain\arduinolcd\test\pain drain\libraries\lvgl\src\misc\lv_anim.h ****     /*Animation system use these - user shouldn't set*/
  96:c:\projects\paindrain\arduinolcd\test\pain drain\libraries\lvgl\src\misc\lv_anim.h ****     uint8_t playback_now : 1; /**< Play back is in progress*/
  97:c:\projects\paindrain\arduinolcd\test\pain drain\libraries\lvgl\src\misc\lv_anim.h ****     uint8_t run_round : 1;    /**< Indicates the animation has run in this round*/
  98:c:\projects\paindrain\arduinolcd\test\pain drain\libraries\lvgl\src\misc\lv_anim.h ****     uint8_t start_cb_called : 1;    /**< Indicates that the `start_cb` was already called*/
  99:c:\projects\paindrain\arduinolcd\test\pain drain\libraries\lvgl\src\misc\lv_anim.h **** } lv_anim_t;
 100:c:\projects\paindrain\arduinolcd\test\pain drain\libraries\lvgl\src\misc\lv_anim.h **** 
 101:c:\projects\paindrain\arduinolcd\test\pain drain\libraries\lvgl\src\misc\lv_anim.h **** /**********************
 102:c:\projects\paindrain\arduinolcd\test\pain drain\libraries\lvgl\src\misc\lv_anim.h ****  * GLOBAL PROTOTYPES
 103:c:\projects\paindrain\arduinolcd\test\pain drain\libraries\lvgl\src\misc\lv_anim.h ****  **********************/
 104:c:\projects\paindrain\arduinolcd\test\pain drain\libraries\lvgl\src\misc\lv_anim.h **** 
 105:c:\projects\paindrain\arduinolcd\test\pain drain\libraries\lvgl\src\misc\lv_anim.h **** /**
 106:c:\projects\paindrain\arduinolcd\test\pain drain\libraries\lvgl\src\misc\lv_anim.h ****  * Init. the animation module
 107:c:\projects\paindrain\arduinolcd\test\pain drain\libraries\lvgl\src\misc\lv_anim.h ****  */
 108:c:\projects\paindrain\arduinolcd\test\pain drain\libraries\lvgl\src\misc\lv_anim.h **** void _lv_anim_core_init(void);
 109:c:\projects\paindrain\arduinolcd\test\pain drain\libraries\lvgl\src\misc\lv_anim.h **** 
 110:c:\projects\paindrain\arduinolcd\test\pain drain\libraries\lvgl\src\misc\lv_anim.h **** /**
 111:c:\projects\paindrain\arduinolcd\test\pain drain\libraries\lvgl\src\misc\lv_anim.h ****  * Initialize an animation variable.
 112:c:\projects\paindrain\arduinolcd\test\pain drain\libraries\lvgl\src\misc\lv_anim.h ****  * E.g.:
 113:c:\projects\paindrain\arduinolcd\test\pain drain\libraries\lvgl\src\misc\lv_anim.h ****  * lv_anim_t a;
 114:c:\projects\paindrain\arduinolcd\test\pain drain\libraries\lvgl\src\misc\lv_anim.h ****  * lv_anim_init(&a);
 115:c:\projects\paindrain\arduinolcd\test\pain drain\libraries\lvgl\src\misc\lv_anim.h ****  * lv_anim_set_...(&a);
 116:c:\projects\paindrain\arduinolcd\test\pain drain\libraries\lvgl\src\misc\lv_anim.h ****  * lv_anim_start(&a);
 117:c:\projects\paindrain\arduinolcd\test\pain drain\libraries\lvgl\src\misc\lv_anim.h ****  * @param a     pointer to an `lv_anim_t` variable to initialize
 118:c:\projects\paindrain\arduinolcd\test\pain drain\libraries\lvgl\src\misc\lv_anim.h ****  */
 119:c:\projects\paindrain\arduinolcd\test\pain drain\libraries\lvgl\src\misc\lv_anim.h **** void lv_anim_init(lv_anim_t * a);
 120:c:\projects\paindrain\arduinolcd\test\pain drain\libraries\lvgl\src\misc\lv_anim.h **** 
 121:c:\projects\paindrain\arduinolcd\test\pain drain\libraries\lvgl\src\misc\lv_anim.h **** /**
 122:c:\projects\paindrain\arduinolcd\test\pain drain\libraries\lvgl\src\misc\lv_anim.h ****  * Set a variable to animate
 123:c:\projects\paindrain\arduinolcd\test\pain drain\libraries\lvgl\src\misc\lv_anim.h ****  * @param a     pointer to an initialized `lv_anim_t` variable
 124:c:\projects\paindrain\arduinolcd\test\pain drain\libraries\lvgl\src\misc\lv_anim.h ****  * @param var   pointer to a variable to animate
 125:c:\projects\paindrain\arduinolcd\test\pain drain\libraries\lvgl\src\misc\lv_anim.h ****  */
 126:c:\projects\paindrain\arduinolcd\test\pain drain\libraries\lvgl\src\misc\lv_anim.h **** static inline void lv_anim_set_var(lv_anim_t * a, void * var)
 127:c:\projects\paindrain\arduinolcd\test\pain drain\libraries\lvgl\src\misc\lv_anim.h **** {
 128:c:\projects\paindrain\arduinolcd\test\pain drain\libraries\lvgl\src\misc\lv_anim.h ****     a->var = var;
 1047              		.loc 3 128 0
 1048 00fa 1396     		str	r6, [sp, #76]
 1049              	.LVL131:
 1050              	.LBE115:
 1051              	.LBE114:
 1052              	.LBB116:
 1053              	.LBB117:
 129:c:\projects\paindrain\arduinolcd\test\pain drain\libraries\lvgl\src\misc\lv_anim.h **** }
 130:c:\projects\paindrain\arduinolcd\test\pain drain\libraries\lvgl\src\misc\lv_anim.h **** 
 131:c:\projects\paindrain\arduinolcd\test\pain drain\libraries\lvgl\src\misc\lv_anim.h **** /**
 132:c:\projects\paindrain\arduinolcd\test\pain drain\libraries\lvgl\src\misc\lv_anim.h ****  * Set a function to animate `var`
 133:c:\projects\paindrain\arduinolcd\test\pain drain\libraries\lvgl\src\misc\lv_anim.h ****  * @param a         pointer to an initialized `lv_anim_t` variable
 134:c:\projects\paindrain\arduinolcd\test\pain drain\libraries\lvgl\src\misc\lv_anim.h ****  * @param exec_cb   a function to execute during animation
 135:c:\projects\paindrain\arduinolcd\test\pain drain\libraries\lvgl\src\misc\lv_anim.h ****  *                  LVGL's built-in functions can be used.
 136:c:\projects\paindrain\arduinolcd\test\pain drain\libraries\lvgl\src\misc\lv_anim.h ****  *                  E.g. lv_obj_set_x
 137:c:\projects\paindrain\arduinolcd\test\pain drain\libraries\lvgl\src\misc\lv_anim.h ****  */
 138:c:\projects\paindrain\arduinolcd\test\pain drain\libraries\lvgl\src\misc\lv_anim.h **** static inline void lv_anim_set_exec_cb(lv_anim_t * a, lv_anim_exec_xcb_t exec_cb)
 139:c:\projects\paindrain\arduinolcd\test\pain drain\libraries\lvgl\src\misc\lv_anim.h **** {
ARM GAS  C:\Users\haske\AppData\Local\Temp\ccLw7Foe.s 			page 37


 140:c:\projects\paindrain\arduinolcd\test\pain drain\libraries\lvgl\src\misc\lv_anim.h ****     a->exec_cb = exec_cb;
 141:c:\projects\paindrain\arduinolcd\test\pain drain\libraries\lvgl\src\misc\lv_anim.h **** }
 142:c:\projects\paindrain\arduinolcd\test\pain drain\libraries\lvgl\src\misc\lv_anim.h **** 
 143:c:\projects\paindrain\arduinolcd\test\pain drain\libraries\lvgl\src\misc\lv_anim.h **** /**
 144:c:\projects\paindrain\arduinolcd\test\pain drain\libraries\lvgl\src\misc\lv_anim.h ****  * Set the duration of an animation
 145:c:\projects\paindrain\arduinolcd\test\pain drain\libraries\lvgl\src\misc\lv_anim.h ****  * @param a         pointer to an initialized `lv_anim_t` variable
 146:c:\projects\paindrain\arduinolcd\test\pain drain\libraries\lvgl\src\misc\lv_anim.h ****  * @param duration  duration of the animation in milliseconds
 147:c:\projects\paindrain\arduinolcd\test\pain drain\libraries\lvgl\src\misc\lv_anim.h ****  */
 148:c:\projects\paindrain\arduinolcd\test\pain drain\libraries\lvgl\src\misc\lv_anim.h **** static inline void lv_anim_set_time(lv_anim_t * a, uint32_t duration)
 149:c:\projects\paindrain\arduinolcd\test\pain drain\libraries\lvgl\src\misc\lv_anim.h **** {
 150:c:\projects\paindrain\arduinolcd\test\pain drain\libraries\lvgl\src\misc\lv_anim.h ****     a->time = duration;
 151:c:\projects\paindrain\arduinolcd\test\pain drain\libraries\lvgl\src\misc\lv_anim.h **** }
 152:c:\projects\paindrain\arduinolcd\test\pain drain\libraries\lvgl\src\misc\lv_anim.h **** 
 153:c:\projects\paindrain\arduinolcd\test\pain drain\libraries\lvgl\src\misc\lv_anim.h **** /**
 154:c:\projects\paindrain\arduinolcd\test\pain drain\libraries\lvgl\src\misc\lv_anim.h ****  * Set a delay before starting the animation
 155:c:\projects\paindrain\arduinolcd\test\pain drain\libraries\lvgl\src\misc\lv_anim.h ****  * @param a         pointer to an initialized `lv_anim_t` variable
 156:c:\projects\paindrain\arduinolcd\test\pain drain\libraries\lvgl\src\misc\lv_anim.h ****  * @param delay     delay before the animation in milliseconds
 157:c:\projects\paindrain\arduinolcd\test\pain drain\libraries\lvgl\src\misc\lv_anim.h ****  */
 158:c:\projects\paindrain\arduinolcd\test\pain drain\libraries\lvgl\src\misc\lv_anim.h **** static inline void lv_anim_set_delay(lv_anim_t * a, uint32_t delay)
 159:c:\projects\paindrain\arduinolcd\test\pain drain\libraries\lvgl\src\misc\lv_anim.h **** {
 160:c:\projects\paindrain\arduinolcd\test\pain drain\libraries\lvgl\src\misc\lv_anim.h ****     a->act_time = -(int32_t)(delay);
 161:c:\projects\paindrain\arduinolcd\test\pain drain\libraries\lvgl\src\misc\lv_anim.h **** }
 162:c:\projects\paindrain\arduinolcd\test\pain drain\libraries\lvgl\src\misc\lv_anim.h **** 
 163:c:\projects\paindrain\arduinolcd\test\pain drain\libraries\lvgl\src\misc\lv_anim.h **** /**
 164:c:\projects\paindrain\arduinolcd\test\pain drain\libraries\lvgl\src\misc\lv_anim.h ****  * Set the start and end values of an animation
 165:c:\projects\paindrain\arduinolcd\test\pain drain\libraries\lvgl\src\misc\lv_anim.h ****  * @param a         pointer to an initialized `lv_anim_t` variable
 166:c:\projects\paindrain\arduinolcd\test\pain drain\libraries\lvgl\src\misc\lv_anim.h ****  * @param start     the start value
 167:c:\projects\paindrain\arduinolcd\test\pain drain\libraries\lvgl\src\misc\lv_anim.h ****  * @param end       the end value
 168:c:\projects\paindrain\arduinolcd\test\pain drain\libraries\lvgl\src\misc\lv_anim.h ****  */
 169:c:\projects\paindrain\arduinolcd\test\pain drain\libraries\lvgl\src\misc\lv_anim.h **** static inline void lv_anim_set_values(lv_anim_t * a, int32_t start, int32_t end)
 170:c:\projects\paindrain\arduinolcd\test\pain drain\libraries\lvgl\src\misc\lv_anim.h **** {
 171:c:\projects\paindrain\arduinolcd\test\pain drain\libraries\lvgl\src\misc\lv_anim.h ****     a->start_value = start;
 172:c:\projects\paindrain\arduinolcd\test\pain drain\libraries\lvgl\src\misc\lv_anim.h ****     a->current_value = start;
 173:c:\projects\paindrain\arduinolcd\test\pain drain\libraries\lvgl\src\misc\lv_anim.h ****     a->end_value = end;
 174:c:\projects\paindrain\arduinolcd\test\pain drain\libraries\lvgl\src\misc\lv_anim.h **** }
 175:c:\projects\paindrain\arduinolcd\test\pain drain\libraries\lvgl\src\misc\lv_anim.h **** 
 176:c:\projects\paindrain\arduinolcd\test\pain drain\libraries\lvgl\src\misc\lv_anim.h **** /**
 177:c:\projects\paindrain\arduinolcd\test\pain drain\libraries\lvgl\src\misc\lv_anim.h ****  * Similar to `lv_anim_set_exec_cb` but `lv_anim_custom_exec_cb_t` receives
 178:c:\projects\paindrain\arduinolcd\test\pain drain\libraries\lvgl\src\misc\lv_anim.h ****  * `lv_anim_t * ` as its first parameter instead of `void *`.
 179:c:\projects\paindrain\arduinolcd\test\pain drain\libraries\lvgl\src\misc\lv_anim.h ****  * This function might be used when LVGL is bound to other languages because
 180:c:\projects\paindrain\arduinolcd\test\pain drain\libraries\lvgl\src\misc\lv_anim.h ****  * it's more consistent to have `lv_anim_t *` as first parameter.
 181:c:\projects\paindrain\arduinolcd\test\pain drain\libraries\lvgl\src\misc\lv_anim.h ****  * The variable to animate can be stored in the animation's `user_data`
 182:c:\projects\paindrain\arduinolcd\test\pain drain\libraries\lvgl\src\misc\lv_anim.h ****  * @param a         pointer to an initialized `lv_anim_t` variable
 183:c:\projects\paindrain\arduinolcd\test\pain drain\libraries\lvgl\src\misc\lv_anim.h ****  * @param exec_cb   a function to execute.
 184:c:\projects\paindrain\arduinolcd\test\pain drain\libraries\lvgl\src\misc\lv_anim.h ****  */
 185:c:\projects\paindrain\arduinolcd\test\pain drain\libraries\lvgl\src\misc\lv_anim.h **** static inline void lv_anim_set_custom_exec_cb(lv_anim_t * a, lv_anim_custom_exec_cb_t exec_cb)
 186:c:\projects\paindrain\arduinolcd\test\pain drain\libraries\lvgl\src\misc\lv_anim.h **** {
 187:c:\projects\paindrain\arduinolcd\test\pain drain\libraries\lvgl\src\misc\lv_anim.h ****     a->var     = a;
 188:c:\projects\paindrain\arduinolcd\test\pain drain\libraries\lvgl\src\misc\lv_anim.h ****     a->exec_cb = (lv_anim_exec_xcb_t)exec_cb;
 189:c:\projects\paindrain\arduinolcd\test\pain drain\libraries\lvgl\src\misc\lv_anim.h **** }
 190:c:\projects\paindrain\arduinolcd\test\pain drain\libraries\lvgl\src\misc\lv_anim.h **** 
 191:c:\projects\paindrain\arduinolcd\test\pain drain\libraries\lvgl\src\misc\lv_anim.h **** /**
 192:c:\projects\paindrain\arduinolcd\test\pain drain\libraries\lvgl\src\misc\lv_anim.h ****  * Set the path (curve) of the animation.
 193:c:\projects\paindrain\arduinolcd\test\pain drain\libraries\lvgl\src\misc\lv_anim.h ****  * @param a         pointer to an initialized `lv_anim_t` variable
 194:c:\projects\paindrain\arduinolcd\test\pain drain\libraries\lvgl\src\misc\lv_anim.h ****  * @param path_cb a function to set the current value of the animation.
 195:c:\projects\paindrain\arduinolcd\test\pain drain\libraries\lvgl\src\misc\lv_anim.h ****  */
 196:c:\projects\paindrain\arduinolcd\test\pain drain\libraries\lvgl\src\misc\lv_anim.h **** static inline void lv_anim_set_path_cb(lv_anim_t * a, lv_anim_path_cb_t path_cb)
ARM GAS  C:\Users\haske\AppData\Local\Temp\ccLw7Foe.s 			page 38


 197:c:\projects\paindrain\arduinolcd\test\pain drain\libraries\lvgl\src\misc\lv_anim.h **** {
 198:c:\projects\paindrain\arduinolcd\test\pain drain\libraries\lvgl\src\misc\lv_anim.h ****     a->path_cb = path_cb;
 199:c:\projects\paindrain\arduinolcd\test\pain drain\libraries\lvgl\src\misc\lv_anim.h **** }
 200:c:\projects\paindrain\arduinolcd\test\pain drain\libraries\lvgl\src\misc\lv_anim.h **** 
 201:c:\projects\paindrain\arduinolcd\test\pain drain\libraries\lvgl\src\misc\lv_anim.h **** /**
 202:c:\projects\paindrain\arduinolcd\test\pain drain\libraries\lvgl\src\misc\lv_anim.h ****  * Set a function call when the animation really starts (considering `delay`)
 203:c:\projects\paindrain\arduinolcd\test\pain drain\libraries\lvgl\src\misc\lv_anim.h ****  * @param a         pointer to an initialized `lv_anim_t` variable
 204:c:\projects\paindrain\arduinolcd\test\pain drain\libraries\lvgl\src\misc\lv_anim.h ****  * @param start_cb  a function call when the animation starts
 205:c:\projects\paindrain\arduinolcd\test\pain drain\libraries\lvgl\src\misc\lv_anim.h ****  */
 206:c:\projects\paindrain\arduinolcd\test\pain drain\libraries\lvgl\src\misc\lv_anim.h **** static inline void lv_anim_set_start_cb(lv_anim_t * a, lv_anim_start_cb_t start_cb)
 207:c:\projects\paindrain\arduinolcd\test\pain drain\libraries\lvgl\src\misc\lv_anim.h **** {
 208:c:\projects\paindrain\arduinolcd\test\pain drain\libraries\lvgl\src\misc\lv_anim.h ****     a->start_cb = start_cb;
 1054              		.loc 3 208 0
 1055 00fc 6C4B     		ldr	r3, .L70
 1056 00fe 1593     		str	r3, [sp, #84]
 1057              	.LVL132:
 1058              	.LBE117:
 1059              	.LBE116:
 1060              	.LBB118:
 1061              	.LBB119:
 209:c:\projects\paindrain\arduinolcd\test\pain drain\libraries\lvgl\src\misc\lv_anim.h **** }
 210:c:\projects\paindrain\arduinolcd\test\pain drain\libraries\lvgl\src\misc\lv_anim.h **** 
 211:c:\projects\paindrain\arduinolcd\test\pain drain\libraries\lvgl\src\misc\lv_anim.h **** /**
 212:c:\projects\paindrain\arduinolcd\test\pain drain\libraries\lvgl\src\misc\lv_anim.h ****  * Set a function to use the current value of the variable and make start and end value
 213:c:\projects\paindrain\arduinolcd\test\pain drain\libraries\lvgl\src\misc\lv_anim.h ****  * relative to the returned current value.
 214:c:\projects\paindrain\arduinolcd\test\pain drain\libraries\lvgl\src\misc\lv_anim.h ****  * @param a             pointer to an initialized `lv_anim_t` variable
 215:c:\projects\paindrain\arduinolcd\test\pain drain\libraries\lvgl\src\misc\lv_anim.h ****  * @param get_value_cb  a function call when the animation starts
 216:c:\projects\paindrain\arduinolcd\test\pain drain\libraries\lvgl\src\misc\lv_anim.h ****  */
 217:c:\projects\paindrain\arduinolcd\test\pain drain\libraries\lvgl\src\misc\lv_anim.h **** static inline void lv_anim_set_get_value_cb(lv_anim_t * a, lv_anim_get_value_cb_t get_value_cb)
 218:c:\projects\paindrain\arduinolcd\test\pain drain\libraries\lvgl\src\misc\lv_anim.h **** {
 219:c:\projects\paindrain\arduinolcd\test\pain drain\libraries\lvgl\src\misc\lv_anim.h ****     a->get_value_cb = get_value_cb;
 220:c:\projects\paindrain\arduinolcd\test\pain drain\libraries\lvgl\src\misc\lv_anim.h **** }
 221:c:\projects\paindrain\arduinolcd\test\pain drain\libraries\lvgl\src\misc\lv_anim.h **** 
 222:c:\projects\paindrain\arduinolcd\test\pain drain\libraries\lvgl\src\misc\lv_anim.h **** /**
 223:c:\projects\paindrain\arduinolcd\test\pain drain\libraries\lvgl\src\misc\lv_anim.h ****  * Set a function call when the animation is ready
 224:c:\projects\paindrain\arduinolcd\test\pain drain\libraries\lvgl\src\misc\lv_anim.h ****  * @param a         pointer to an initialized `lv_anim_t` variable
 225:c:\projects\paindrain\arduinolcd\test\pain drain\libraries\lvgl\src\misc\lv_anim.h ****  * @param ready_cb  a function call when the animation is ready
 226:c:\projects\paindrain\arduinolcd\test\pain drain\libraries\lvgl\src\misc\lv_anim.h ****  */
 227:c:\projects\paindrain\arduinolcd\test\pain drain\libraries\lvgl\src\misc\lv_anim.h **** static inline void lv_anim_set_ready_cb(lv_anim_t * a, lv_anim_ready_cb_t ready_cb)
 228:c:\projects\paindrain\arduinolcd\test\pain drain\libraries\lvgl\src\misc\lv_anim.h **** {
 229:c:\projects\paindrain\arduinolcd\test\pain drain\libraries\lvgl\src\misc\lv_anim.h ****     a->ready_cb = ready_cb;
 1062              		.loc 3 229 0
 1063 0100 6C4B     		ldr	r3, .L70+4
 1064 0102 1693     		str	r3, [sp, #88]
 1065              	.LVL133:
 1066              	.LBE119:
 1067              	.LBE118:
 1068              	.LBB120:
 1069              	.LBB121:
 150:c:\projects\paindrain\arduinolcd\test\pain drain\libraries\lvgl\src\misc\lv_anim.h **** }
 1070              		.loc 3 150 0
 1071 0104 1E97     		str	r7, [sp, #120]
 1072              	.LVL134:
 1073              	.LBE121:
 1074              	.LBE120:
 1075              	.LBB122:
 1076              	.LBB123:
ARM GAS  C:\Users\haske\AppData\Local\Temp\ccLw7Foe.s 			page 39


 160:c:\projects\paindrain\arduinolcd\test\pain drain\libraries\lvgl\src\misc\lv_anim.h **** }
 1077              		.loc 3 160 0
 1078 0106 4346     		mov	r3, r8
 1079 0108 5D42     		rsbs	r5, r3, #0
 1080 010a 1F95     		str	r5, [sp, #124]
 1081              	.LVL135:
 1082              	.LBE123:
 1083              	.LBE122:
 277:..\..\..\arduinoLCD\test\Pain Drain\libraries\lvgl\src\core/lv_disp.c ****     lv_anim_set_var(&a_old, d->act_scr);
 1084              		.loc 1 277 0
 1085 010c 02A8     		add	r0, sp, #8
 1086 010e FFF7FEFF 		bl	lv_anim_init
 1087              	.LVL136:
 1088              	.LBB124:
 1089              	.LBB125:
 128:c:\projects\paindrain\arduinolcd\test\pain drain\libraries\lvgl\src\misc\lv_anim.h **** }
 1090              		.loc 3 128 0
 1091 0112 2369     		ldr	r3, [r4, #16]
 1092 0114 0293     		str	r3, [sp, #8]
 1093              	.LVL137:
 1094              	.LBE125:
 1095              	.LBE124:
 1096              	.LBB126:
 1097              	.LBB127:
 150:c:\projects\paindrain\arduinolcd\test\pain drain\libraries\lvgl\src\misc\lv_anim.h **** }
 1098              		.loc 3 150 0
 1099 0116 0D97     		str	r7, [sp, #52]
 1100              	.LVL138:
 1101              	.LBE127:
 1102              	.LBE126:
 1103              	.LBB128:
 1104              	.LBB129:
 160:c:\projects\paindrain\arduinolcd\test\pain drain\libraries\lvgl\src\misc\lv_anim.h **** }
 1105              		.loc 3 160 0
 1106 0118 0E95     		str	r5, [sp, #56]
 1107              	.LVL139:
 1108              	.LBE129:
 1109              	.LBE128:
 282:..\..\..\arduinoLCD\test\Pain Drain\libraries\lvgl\src\core/lv_disp.c ****         case LV_SCR_LOAD_ANIM_NONE:
 1110              		.loc 1 282 0
 1111 011a 019B     		ldr	r3, [sp, #4]
 1112 011c 0E2B     		cmp	r3, #14
 1113 011e 00D9     		bls	.LCB1022
 1114 0120 B5E0     		b	.L53	@long jump
 1115              	.LCB1022:
 1116 0122 9F00     		lsls	r7, r3, #2
 1117              	.LVL140:
 1118 0124 644B     		ldr	r3, .L70+8
 1119 0126 DB59     		ldr	r3, [r3, r7]
 1120 0128 9F46     		mov	pc, r3
 1121              		.section	.rodata
 1122              		.align	2
 1123              	.L55:
 1124 0000 2A010000 		.word	.L54
 1125 0004 38010000 		.word	.L56
 1126 0008 4C010000 		.word	.L57
 1127 000c 62010000 		.word	.L58
ARM GAS  C:\Users\haske\AppData\Local\Temp\ccLw7Foe.s 			page 40


 1128 0010 76010000 		.word	.L59
 1129 0014 8C010000 		.word	.L60
 1130 0018 B0010000 		.word	.L61
 1131 001c D4010000 		.word	.L62
 1132 0020 F8010000 		.word	.L63
 1133 0024 1C020000 		.word	.L64
 1134 0028 2C020000 		.word	.L65
 1135 002c 3C020000 		.word	.L66
 1136 0030 52020000 		.word	.L67
 1137 0034 66020000 		.word	.L68
 1138 0038 7C020000 		.word	.L69
 1139              		.section	.text.lv_scr_load_anim
 1140              	.L54:
 1141              	.LVL141:
 1142              	.LBB130:
 1143              	.LBB131:
 140:c:\projects\paindrain\arduinolcd\test\pain drain\libraries\lvgl\src\misc\lv_anim.h **** }
 1144              		.loc 3 140 0
 1145 012a 644B     		ldr	r3, .L70+12
 1146 012c 1493     		str	r3, [sp, #80]
 1147              	.LVL142:
 1148              	.LBE131:
 1149              	.LBE130:
 1150              	.LBB132:
 1151              	.LBB133:
 171:c:\projects\paindrain\arduinolcd\test\pain drain\libraries\lvgl\src\misc\lv_anim.h ****     a->current_value = start;
 1152              		.loc 3 171 0
 1153 012e 0023     		movs	r3, #0
 1154 0130 1B93     		str	r3, [sp, #108]
 172:c:\projects\paindrain\arduinolcd\test\pain drain\libraries\lvgl\src\misc\lv_anim.h ****     a->end_value = end;
 1155              		.loc 3 172 0
 1156 0132 1C93     		str	r3, [sp, #112]
 173:c:\projects\paindrain\arduinolcd\test\pain drain\libraries\lvgl\src\misc\lv_anim.h **** }
 1157              		.loc 3 173 0
 1158 0134 1D93     		str	r3, [sp, #116]
 1159 0136 AAE0     		b	.L53
 1160              	.LVL143:
 1161              	.L56:
 1162              	.LBE133:
 1163              	.LBE132:
 1164              	.LBB134:
 1165              	.LBB135:
 140:c:\projects\paindrain\arduinolcd\test\pain drain\libraries\lvgl\src\misc\lv_anim.h **** }
 1166              		.loc 3 140 0
 1167 0138 604B     		ldr	r3, .L70+12
 1168 013a 1493     		str	r3, [sp, #80]
 1169              	.LVL144:
 1170              	.LBE135:
 1171              	.LBE134:
 290:..\..\..\arduinoLCD\test\Pain Drain\libraries\lvgl\src\core/lv_disp.c ****             break;
 1172              		.loc 1 290 0
 1173 013c 2000     		movs	r0, r4
 1174 013e FFF7FEFF 		bl	lv_disp_get_hor_res
 1175              	.LVL145:
 1176              	.LBB136:
 1177              	.LBB137:
 171:c:\projects\paindrain\arduinolcd\test\pain drain\libraries\lvgl\src\misc\lv_anim.h ****     a->current_value = start;
ARM GAS  C:\Users\haske\AppData\Local\Temp\ccLw7Foe.s 			page 41


 1178              		.loc 3 171 0
 1179 0142 1B90     		str	r0, [sp, #108]
 172:c:\projects\paindrain\arduinolcd\test\pain drain\libraries\lvgl\src\misc\lv_anim.h ****     a->end_value = end;
 1180              		.loc 3 172 0
 1181 0144 1C90     		str	r0, [sp, #112]
 173:c:\projects\paindrain\arduinolcd\test\pain drain\libraries\lvgl\src\misc\lv_anim.h **** }
 1182              		.loc 3 173 0
 1183 0146 0023     		movs	r3, #0
 1184 0148 1D93     		str	r3, [sp, #116]
 1185 014a A0E0     		b	.L53
 1186              	.LVL146:
 1187              	.L57:
 1188              	.LBE137:
 1189              	.LBE136:
 1190              	.LBB138:
 1191              	.LBB139:
 140:c:\projects\paindrain\arduinolcd\test\pain drain\libraries\lvgl\src\misc\lv_anim.h **** }
 1192              		.loc 3 140 0
 1193 014c 5B4B     		ldr	r3, .L70+12
 1194 014e 1493     		str	r3, [sp, #80]
 1195              	.LVL147:
 1196              	.LBE139:
 1197              	.LBE138:
 294:..\..\..\arduinoLCD\test\Pain Drain\libraries\lvgl\src\core/lv_disp.c ****             break;
 1198              		.loc 1 294 0
 1199 0150 2000     		movs	r0, r4
 1200 0152 FFF7FEFF 		bl	lv_disp_get_hor_res
 1201              	.LVL148:
 1202 0156 4042     		rsbs	r0, r0, #0
 1203              	.LVL149:
 1204              	.LBB140:
 1205              	.LBB141:
 171:c:\projects\paindrain\arduinolcd\test\pain drain\libraries\lvgl\src\misc\lv_anim.h ****     a->current_value = start;
 1206              		.loc 3 171 0
 1207 0158 1B90     		str	r0, [sp, #108]
 172:c:\projects\paindrain\arduinolcd\test\pain drain\libraries\lvgl\src\misc\lv_anim.h ****     a->end_value = end;
 1208              		.loc 3 172 0
 1209 015a 1C90     		str	r0, [sp, #112]
 173:c:\projects\paindrain\arduinolcd\test\pain drain\libraries\lvgl\src\misc\lv_anim.h **** }
 1210              		.loc 3 173 0
 1211 015c 0023     		movs	r3, #0
 1212 015e 1D93     		str	r3, [sp, #116]
 1213 0160 95E0     		b	.L53
 1214              	.LVL150:
 1215              	.L58:
 1216              	.LBE141:
 1217              	.LBE140:
 1218              	.LBB142:
 1219              	.LBB143:
 140:c:\projects\paindrain\arduinolcd\test\pain drain\libraries\lvgl\src\misc\lv_anim.h **** }
 1220              		.loc 3 140 0
 1221 0162 574B     		ldr	r3, .L70+16
 1222 0164 1493     		str	r3, [sp, #80]
 1223              	.LVL151:
 1224              	.LBE143:
 1225              	.LBE142:
 298:..\..\..\arduinoLCD\test\Pain Drain\libraries\lvgl\src\core/lv_disp.c ****             break;
ARM GAS  C:\Users\haske\AppData\Local\Temp\ccLw7Foe.s 			page 42


 1226              		.loc 1 298 0
 1227 0166 2000     		movs	r0, r4
 1228 0168 FFF7FEFF 		bl	lv_disp_get_ver_res
 1229              	.LVL152:
 1230              	.LBB144:
 1231              	.LBB145:
 171:c:\projects\paindrain\arduinolcd\test\pain drain\libraries\lvgl\src\misc\lv_anim.h ****     a->current_value = start;
 1232              		.loc 3 171 0
 1233 016c 1B90     		str	r0, [sp, #108]
 172:c:\projects\paindrain\arduinolcd\test\pain drain\libraries\lvgl\src\misc\lv_anim.h ****     a->end_value = end;
 1234              		.loc 3 172 0
 1235 016e 1C90     		str	r0, [sp, #112]
 173:c:\projects\paindrain\arduinolcd\test\pain drain\libraries\lvgl\src\misc\lv_anim.h **** }
 1236              		.loc 3 173 0
 1237 0170 0023     		movs	r3, #0
 1238 0172 1D93     		str	r3, [sp, #116]
 1239 0174 8BE0     		b	.L53
 1240              	.LVL153:
 1241              	.L59:
 1242              	.LBE145:
 1243              	.LBE144:
 1244              	.LBB146:
 1245              	.LBB147:
 140:c:\projects\paindrain\arduinolcd\test\pain drain\libraries\lvgl\src\misc\lv_anim.h **** }
 1246              		.loc 3 140 0
 1247 0176 524B     		ldr	r3, .L70+16
 1248 0178 1493     		str	r3, [sp, #80]
 1249              	.LVL154:
 1250              	.LBE147:
 1251              	.LBE146:
 302:..\..\..\arduinoLCD\test\Pain Drain\libraries\lvgl\src\core/lv_disp.c ****             break;
 1252              		.loc 1 302 0
 1253 017a 2000     		movs	r0, r4
 1254 017c FFF7FEFF 		bl	lv_disp_get_ver_res
 1255              	.LVL155:
 1256 0180 4042     		rsbs	r0, r0, #0
 1257              	.LVL156:
 1258              	.LBB148:
 1259              	.LBB149:
 171:c:\projects\paindrain\arduinolcd\test\pain drain\libraries\lvgl\src\misc\lv_anim.h ****     a->current_value = start;
 1260              		.loc 3 171 0
 1261 0182 1B90     		str	r0, [sp, #108]
 172:c:\projects\paindrain\arduinolcd\test\pain drain\libraries\lvgl\src\misc\lv_anim.h ****     a->end_value = end;
 1262              		.loc 3 172 0
 1263 0184 1C90     		str	r0, [sp, #112]
 173:c:\projects\paindrain\arduinolcd\test\pain drain\libraries\lvgl\src\misc\lv_anim.h **** }
 1264              		.loc 3 173 0
 1265 0186 0023     		movs	r3, #0
 1266 0188 1D93     		str	r3, [sp, #116]
 1267 018a 80E0     		b	.L53
 1268              	.LVL157:
 1269              	.L60:
 1270              	.LBE149:
 1271              	.LBE148:
 1272              	.LBB150:
 1273              	.LBB151:
 140:c:\projects\paindrain\arduinolcd\test\pain drain\libraries\lvgl\src\misc\lv_anim.h **** }
ARM GAS  C:\Users\haske\AppData\Local\Temp\ccLw7Foe.s 			page 43


 1274              		.loc 3 140 0
 1275 018c 4B4E     		ldr	r6, .L70+12
 1276              	.LVL158:
 1277 018e 1496     		str	r6, [sp, #80]
 1278              	.LVL159:
 1279              	.LBE151:
 1280              	.LBE150:
 306:..\..\..\arduinoLCD\test\Pain Drain\libraries\lvgl\src\core/lv_disp.c **** 
 1281              		.loc 1 306 0
 1282 0190 2000     		movs	r0, r4
 1283 0192 FFF7FEFF 		bl	lv_disp_get_hor_res
 1284              	.LVL160:
 1285              	.LBB152:
 1286              	.LBB153:
 171:c:\projects\paindrain\arduinolcd\test\pain drain\libraries\lvgl\src\misc\lv_anim.h ****     a->current_value = start;
 1287              		.loc 3 171 0
 1288 0196 1B90     		str	r0, [sp, #108]
 172:c:\projects\paindrain\arduinolcd\test\pain drain\libraries\lvgl\src\misc\lv_anim.h ****     a->end_value = end;
 1289              		.loc 3 172 0
 1290 0198 1C90     		str	r0, [sp, #112]
 173:c:\projects\paindrain\arduinolcd\test\pain drain\libraries\lvgl\src\misc\lv_anim.h **** }
 1291              		.loc 3 173 0
 1292 019a 0025     		movs	r5, #0
 1293 019c 1D95     		str	r5, [sp, #116]
 1294              	.LVL161:
 1295              	.LBE153:
 1296              	.LBE152:
 1297              	.LBB154:
 1298              	.LBB155:
 140:c:\projects\paindrain\arduinolcd\test\pain drain\libraries\lvgl\src\misc\lv_anim.h **** }
 1299              		.loc 3 140 0
 1300 019e 0396     		str	r6, [sp, #12]
 1301              	.LVL162:
 1302              	.LBE155:
 1303              	.LBE154:
 309:..\..\..\arduinoLCD\test\Pain Drain\libraries\lvgl\src\core/lv_disp.c ****             break;
 1304              		.loc 1 309 0
 1305 01a0 2000     		movs	r0, r4
 1306 01a2 FFF7FEFF 		bl	lv_disp_get_hor_res
 1307              	.LVL163:
 1308 01a6 4042     		rsbs	r0, r0, #0
 1309              	.LVL164:
 1310              	.LBB156:
 1311              	.LBB157:
 171:c:\projects\paindrain\arduinolcd\test\pain drain\libraries\lvgl\src\misc\lv_anim.h ****     a->current_value = start;
 1312              		.loc 3 171 0
 1313 01a8 0A95     		str	r5, [sp, #40]
 172:c:\projects\paindrain\arduinolcd\test\pain drain\libraries\lvgl\src\misc\lv_anim.h ****     a->end_value = end;
 1314              		.loc 3 172 0
 1315 01aa 0B95     		str	r5, [sp, #44]
 173:c:\projects\paindrain\arduinolcd\test\pain drain\libraries\lvgl\src\misc\lv_anim.h **** }
 1316              		.loc 3 173 0
 1317 01ac 0C90     		str	r0, [sp, #48]
 1318 01ae 6EE0     		b	.L53
 1319              	.LVL165:
 1320              	.L61:
 1321              	.LBE157:
ARM GAS  C:\Users\haske\AppData\Local\Temp\ccLw7Foe.s 			page 44


 1322              	.LBE156:
 1323              	.LBB158:
 1324              	.LBB159:
 140:c:\projects\paindrain\arduinolcd\test\pain drain\libraries\lvgl\src\misc\lv_anim.h **** }
 1325              		.loc 3 140 0
 1326 01b0 424E     		ldr	r6, .L70+12
 1327              	.LVL166:
 1328 01b2 1496     		str	r6, [sp, #80]
 1329              	.LVL167:
 1330              	.LBE159:
 1331              	.LBE158:
 313:..\..\..\arduinoLCD\test\Pain Drain\libraries\lvgl\src\core/lv_disp.c **** 
 1332              		.loc 1 313 0
 1333 01b4 2000     		movs	r0, r4
 1334 01b6 FFF7FEFF 		bl	lv_disp_get_hor_res
 1335              	.LVL168:
 1336 01ba 4042     		rsbs	r0, r0, #0
 1337              	.LVL169:
 1338              	.LBB160:
 1339              	.LBB161:
 171:c:\projects\paindrain\arduinolcd\test\pain drain\libraries\lvgl\src\misc\lv_anim.h ****     a->current_value = start;
 1340              		.loc 3 171 0
 1341 01bc 1B90     		str	r0, [sp, #108]
 172:c:\projects\paindrain\arduinolcd\test\pain drain\libraries\lvgl\src\misc\lv_anim.h ****     a->end_value = end;
 1342              		.loc 3 172 0
 1343 01be 1C90     		str	r0, [sp, #112]
 173:c:\projects\paindrain\arduinolcd\test\pain drain\libraries\lvgl\src\misc\lv_anim.h **** }
 1344              		.loc 3 173 0
 1345 01c0 0025     		movs	r5, #0
 1346 01c2 1D95     		str	r5, [sp, #116]
 1347              	.LVL170:
 1348              	.LBE161:
 1349              	.LBE160:
 1350              	.LBB162:
 1351              	.LBB163:
 140:c:\projects\paindrain\arduinolcd\test\pain drain\libraries\lvgl\src\misc\lv_anim.h **** }
 1352              		.loc 3 140 0
 1353 01c4 0396     		str	r6, [sp, #12]
 1354              	.LVL171:
 1355              	.LBE163:
 1356              	.LBE162:
 316:..\..\..\arduinoLCD\test\Pain Drain\libraries\lvgl\src\core/lv_disp.c ****             break;
 1357              		.loc 1 316 0
 1358 01c6 2000     		movs	r0, r4
 1359 01c8 FFF7FEFF 		bl	lv_disp_get_hor_res
 1360              	.LVL172:
 1361              	.LBB164:
 1362              	.LBB165:
 171:c:\projects\paindrain\arduinolcd\test\pain drain\libraries\lvgl\src\misc\lv_anim.h ****     a->current_value = start;
 1363              		.loc 3 171 0
 1364 01cc 0A95     		str	r5, [sp, #40]
 172:c:\projects\paindrain\arduinolcd\test\pain drain\libraries\lvgl\src\misc\lv_anim.h ****     a->end_value = end;
 1365              		.loc 3 172 0
 1366 01ce 0B95     		str	r5, [sp, #44]
 173:c:\projects\paindrain\arduinolcd\test\pain drain\libraries\lvgl\src\misc\lv_anim.h **** }
 1367              		.loc 3 173 0
 1368 01d0 0C90     		str	r0, [sp, #48]
ARM GAS  C:\Users\haske\AppData\Local\Temp\ccLw7Foe.s 			page 45


 1369 01d2 5CE0     		b	.L53
 1370              	.LVL173:
 1371              	.L62:
 1372              	.LBE165:
 1373              	.LBE164:
 1374              	.LBB166:
 1375              	.LBB167:
 140:c:\projects\paindrain\arduinolcd\test\pain drain\libraries\lvgl\src\misc\lv_anim.h **** }
 1376              		.loc 3 140 0
 1377 01d4 3A4E     		ldr	r6, .L70+16
 1378              	.LVL174:
 1379 01d6 1496     		str	r6, [sp, #80]
 1380              	.LVL175:
 1381              	.LBE167:
 1382              	.LBE166:
 320:..\..\..\arduinoLCD\test\Pain Drain\libraries\lvgl\src\core/lv_disp.c **** 
 1383              		.loc 1 320 0
 1384 01d8 2000     		movs	r0, r4
 1385 01da FFF7FEFF 		bl	lv_disp_get_ver_res
 1386              	.LVL176:
 1387              	.LBB168:
 1388              	.LBB169:
 171:c:\projects\paindrain\arduinolcd\test\pain drain\libraries\lvgl\src\misc\lv_anim.h ****     a->current_value = start;
 1389              		.loc 3 171 0
 1390 01de 1B90     		str	r0, [sp, #108]
 172:c:\projects\paindrain\arduinolcd\test\pain drain\libraries\lvgl\src\misc\lv_anim.h ****     a->end_value = end;
 1391              		.loc 3 172 0
 1392 01e0 1C90     		str	r0, [sp, #112]
 173:c:\projects\paindrain\arduinolcd\test\pain drain\libraries\lvgl\src\misc\lv_anim.h **** }
 1393              		.loc 3 173 0
 1394 01e2 0025     		movs	r5, #0
 1395 01e4 1D95     		str	r5, [sp, #116]
 1396              	.LVL177:
 1397              	.LBE169:
 1398              	.LBE168:
 1399              	.LBB170:
 1400              	.LBB171:
 140:c:\projects\paindrain\arduinolcd\test\pain drain\libraries\lvgl\src\misc\lv_anim.h **** }
 1401              		.loc 3 140 0
 1402 01e6 0396     		str	r6, [sp, #12]
 1403              	.LVL178:
 1404              	.LBE171:
 1405              	.LBE170:
 323:..\..\..\arduinoLCD\test\Pain Drain\libraries\lvgl\src\core/lv_disp.c ****             break;
 1406              		.loc 1 323 0
 1407 01e8 2000     		movs	r0, r4
 1408 01ea FFF7FEFF 		bl	lv_disp_get_ver_res
 1409              	.LVL179:
 1410 01ee 4042     		rsbs	r0, r0, #0
 1411              	.LVL180:
 1412              	.LBB172:
 1413              	.LBB173:
 171:c:\projects\paindrain\arduinolcd\test\pain drain\libraries\lvgl\src\misc\lv_anim.h ****     a->current_value = start;
 1414              		.loc 3 171 0
 1415 01f0 0A95     		str	r5, [sp, #40]
 172:c:\projects\paindrain\arduinolcd\test\pain drain\libraries\lvgl\src\misc\lv_anim.h ****     a->end_value = end;
 1416              		.loc 3 172 0
ARM GAS  C:\Users\haske\AppData\Local\Temp\ccLw7Foe.s 			page 46


 1417 01f2 0B95     		str	r5, [sp, #44]
 173:c:\projects\paindrain\arduinolcd\test\pain drain\libraries\lvgl\src\misc\lv_anim.h **** }
 1418              		.loc 3 173 0
 1419 01f4 0C90     		str	r0, [sp, #48]
 1420 01f6 4AE0     		b	.L53
 1421              	.LVL181:
 1422              	.L63:
 1423              	.LBE173:
 1424              	.LBE172:
 1425              	.LBB174:
 1426              	.LBB175:
 140:c:\projects\paindrain\arduinolcd\test\pain drain\libraries\lvgl\src\misc\lv_anim.h **** }
 1427              		.loc 3 140 0
 1428 01f8 314E     		ldr	r6, .L70+16
 1429              	.LVL182:
 1430 01fa 1496     		str	r6, [sp, #80]
 1431              	.LVL183:
 1432              	.LBE175:
 1433              	.LBE174:
 327:..\..\..\arduinoLCD\test\Pain Drain\libraries\lvgl\src\core/lv_disp.c **** 
 1434              		.loc 1 327 0
 1435 01fc 2000     		movs	r0, r4
 1436 01fe FFF7FEFF 		bl	lv_disp_get_ver_res
 1437              	.LVL184:
 1438 0202 4042     		rsbs	r0, r0, #0
 1439              	.LVL185:
 1440              	.LBB176:
 1441              	.LBB177:
 171:c:\projects\paindrain\arduinolcd\test\pain drain\libraries\lvgl\src\misc\lv_anim.h ****     a->current_value = start;
 1442              		.loc 3 171 0
 1443 0204 1B90     		str	r0, [sp, #108]
 172:c:\projects\paindrain\arduinolcd\test\pain drain\libraries\lvgl\src\misc\lv_anim.h ****     a->end_value = end;
 1444              		.loc 3 172 0
 1445 0206 1C90     		str	r0, [sp, #112]
 173:c:\projects\paindrain\arduinolcd\test\pain drain\libraries\lvgl\src\misc\lv_anim.h **** }
 1446              		.loc 3 173 0
 1447 0208 0025     		movs	r5, #0
 1448 020a 1D95     		str	r5, [sp, #116]
 1449              	.LVL186:
 1450              	.LBE177:
 1451              	.LBE176:
 1452              	.LBB178:
 1453              	.LBB179:
 140:c:\projects\paindrain\arduinolcd\test\pain drain\libraries\lvgl\src\misc\lv_anim.h **** }
 1454              		.loc 3 140 0
 1455 020c 0396     		str	r6, [sp, #12]
 1456              	.LVL187:
 1457              	.LBE179:
 1458              	.LBE178:
 330:..\..\..\arduinoLCD\test\Pain Drain\libraries\lvgl\src\core/lv_disp.c ****             break;
 1459              		.loc 1 330 0
 1460 020e 2000     		movs	r0, r4
 1461 0210 FFF7FEFF 		bl	lv_disp_get_ver_res
 1462              	.LVL188:
 1463              	.LBB180:
 1464              	.LBB181:
 171:c:\projects\paindrain\arduinolcd\test\pain drain\libraries\lvgl\src\misc\lv_anim.h ****     a->current_value = start;
ARM GAS  C:\Users\haske\AppData\Local\Temp\ccLw7Foe.s 			page 47


 1465              		.loc 3 171 0
 1466 0214 0A95     		str	r5, [sp, #40]
 172:c:\projects\paindrain\arduinolcd\test\pain drain\libraries\lvgl\src\misc\lv_anim.h ****     a->end_value = end;
 1467              		.loc 3 172 0
 1468 0216 0B95     		str	r5, [sp, #44]
 173:c:\projects\paindrain\arduinolcd\test\pain drain\libraries\lvgl\src\misc\lv_anim.h **** }
 1469              		.loc 3 173 0
 1470 0218 0C90     		str	r0, [sp, #48]
 1471 021a 38E0     		b	.L53
 1472              	.LVL189:
 1473              	.L64:
 1474              	.LBE181:
 1475              	.LBE180:
 1476              	.LBB182:
 1477              	.LBB183:
 140:c:\projects\paindrain\arduinolcd\test\pain drain\libraries\lvgl\src\misc\lv_anim.h **** }
 1478              		.loc 3 140 0
 1479 021c 294B     		ldr	r3, .L70+20
 1480 021e 1493     		str	r3, [sp, #80]
 1481              	.LVL190:
 1482              	.LBE183:
 1483              	.LBE182:
 1484              	.LBB184:
 1485              	.LBB185:
 171:c:\projects\paindrain\arduinolcd\test\pain drain\libraries\lvgl\src\misc\lv_anim.h ****     a->current_value = start;
 1486              		.loc 3 171 0
 1487 0220 0023     		movs	r3, #0
 1488 0222 1B93     		str	r3, [sp, #108]
 172:c:\projects\paindrain\arduinolcd\test\pain drain\libraries\lvgl\src\misc\lv_anim.h ****     a->end_value = end;
 1489              		.loc 3 172 0
 1490 0224 1C93     		str	r3, [sp, #112]
 173:c:\projects\paindrain\arduinolcd\test\pain drain\libraries\lvgl\src\misc\lv_anim.h **** }
 1491              		.loc 3 173 0
 1492 0226 FF33     		adds	r3, r3, #255
 1493 0228 1D93     		str	r3, [sp, #116]
 1494 022a 30E0     		b	.L53
 1495              	.LVL191:
 1496              	.L65:
 1497              	.LBE185:
 1498              	.LBE184:
 1499              	.LBB186:
 1500              	.LBB187:
 140:c:\projects\paindrain\arduinolcd\test\pain drain\libraries\lvgl\src\misc\lv_anim.h **** }
 1501              		.loc 3 140 0
 1502 022c 254B     		ldr	r3, .L70+20
 1503 022e 0393     		str	r3, [sp, #12]
 1504              	.LVL192:
 1505              	.LBE187:
 1506              	.LBE186:
 1507              	.LBB188:
 1508              	.LBB189:
 171:c:\projects\paindrain\arduinolcd\test\pain drain\libraries\lvgl\src\misc\lv_anim.h ****     a->current_value = start;
 1509              		.loc 3 171 0
 1510 0230 FF23     		movs	r3, #255
 1511 0232 0A93     		str	r3, [sp, #40]
 172:c:\projects\paindrain\arduinolcd\test\pain drain\libraries\lvgl\src\misc\lv_anim.h ****     a->end_value = end;
 1512              		.loc 3 172 0
ARM GAS  C:\Users\haske\AppData\Local\Temp\ccLw7Foe.s 			page 48


 1513 0234 0B93     		str	r3, [sp, #44]
 173:c:\projects\paindrain\arduinolcd\test\pain drain\libraries\lvgl\src\misc\lv_anim.h **** }
 1514              		.loc 3 173 0
 1515 0236 0023     		movs	r3, #0
 1516 0238 0C93     		str	r3, [sp, #48]
 1517 023a 28E0     		b	.L53
 1518              	.LVL193:
 1519              	.L66:
 1520              	.LBE189:
 1521              	.LBE188:
 1522              	.LBB190:
 1523              	.LBB191:
 140:c:\projects\paindrain\arduinolcd\test\pain drain\libraries\lvgl\src\misc\lv_anim.h **** }
 1524              		.loc 3 140 0
 1525 023c 1F4B     		ldr	r3, .L70+12
 1526 023e 0393     		str	r3, [sp, #12]
 1527              	.LVL194:
 1528              	.LBE191:
 1529              	.LBE190:
 342:..\..\..\arduinoLCD\test\Pain Drain\libraries\lvgl\src\core/lv_disp.c ****             break;
 1530              		.loc 1 342 0
 1531 0240 2000     		movs	r0, r4
 1532 0242 FFF7FEFF 		bl	lv_disp_get_hor_res
 1533              	.LVL195:
 1534 0246 4042     		rsbs	r0, r0, #0
 1535              	.LVL196:
 1536              	.LBB192:
 1537              	.LBB193:
 171:c:\projects\paindrain\arduinolcd\test\pain drain\libraries\lvgl\src\misc\lv_anim.h ****     a->current_value = start;
 1538              		.loc 3 171 0
 1539 0248 0023     		movs	r3, #0
 1540 024a 0A93     		str	r3, [sp, #40]
 172:c:\projects\paindrain\arduinolcd\test\pain drain\libraries\lvgl\src\misc\lv_anim.h ****     a->end_value = end;
 1541              		.loc 3 172 0
 1542 024c 0B93     		str	r3, [sp, #44]
 173:c:\projects\paindrain\arduinolcd\test\pain drain\libraries\lvgl\src\misc\lv_anim.h **** }
 1543              		.loc 3 173 0
 1544 024e 0C90     		str	r0, [sp, #48]
 1545 0250 1DE0     		b	.L53
 1546              	.LVL197:
 1547              	.L67:
 1548              	.LBE193:
 1549              	.LBE192:
 1550              	.LBB194:
 1551              	.LBB195:
 140:c:\projects\paindrain\arduinolcd\test\pain drain\libraries\lvgl\src\misc\lv_anim.h **** }
 1552              		.loc 3 140 0
 1553 0252 1A4B     		ldr	r3, .L70+12
 1554 0254 0393     		str	r3, [sp, #12]
 1555              	.LVL198:
 1556              	.LBE195:
 1557              	.LBE194:
 346:..\..\..\arduinoLCD\test\Pain Drain\libraries\lvgl\src\core/lv_disp.c ****             break;
 1558              		.loc 1 346 0
 1559 0256 2000     		movs	r0, r4
 1560 0258 FFF7FEFF 		bl	lv_disp_get_hor_res
 1561              	.LVL199:
ARM GAS  C:\Users\haske\AppData\Local\Temp\ccLw7Foe.s 			page 49


 1562              	.LBB196:
 1563              	.LBB197:
 171:c:\projects\paindrain\arduinolcd\test\pain drain\libraries\lvgl\src\misc\lv_anim.h ****     a->current_value = start;
 1564              		.loc 3 171 0
 1565 025c 0023     		movs	r3, #0
 1566 025e 0A93     		str	r3, [sp, #40]
 172:c:\projects\paindrain\arduinolcd\test\pain drain\libraries\lvgl\src\misc\lv_anim.h ****     a->end_value = end;
 1567              		.loc 3 172 0
 1568 0260 0B93     		str	r3, [sp, #44]
 173:c:\projects\paindrain\arduinolcd\test\pain drain\libraries\lvgl\src\misc\lv_anim.h **** }
 1569              		.loc 3 173 0
 1570 0262 0C90     		str	r0, [sp, #48]
 1571 0264 13E0     		b	.L53
 1572              	.LVL200:
 1573              	.L68:
 1574              	.LBE197:
 1575              	.LBE196:
 1576              	.LBB198:
 1577              	.LBB199:
 140:c:\projects\paindrain\arduinolcd\test\pain drain\libraries\lvgl\src\misc\lv_anim.h **** }
 1578              		.loc 3 140 0
 1579 0266 164B     		ldr	r3, .L70+16
 1580 0268 0393     		str	r3, [sp, #12]
 1581              	.LVL201:
 1582              	.LBE199:
 1583              	.LBE198:
 350:..\..\..\arduinoLCD\test\Pain Drain\libraries\lvgl\src\core/lv_disp.c ****             break;
 1584              		.loc 1 350 0
 1585 026a 2000     		movs	r0, r4
 1586 026c FFF7FEFF 		bl	lv_disp_get_ver_res
 1587              	.LVL202:
 1588 0270 4042     		rsbs	r0, r0, #0
 1589              	.LVL203:
 1590              	.LBB200:
 1591              	.LBB201:
 171:c:\projects\paindrain\arduinolcd\test\pain drain\libraries\lvgl\src\misc\lv_anim.h ****     a->current_value = start;
 1592              		.loc 3 171 0
 1593 0272 0023     		movs	r3, #0
 1594 0274 0A93     		str	r3, [sp, #40]
 172:c:\projects\paindrain\arduinolcd\test\pain drain\libraries\lvgl\src\misc\lv_anim.h ****     a->end_value = end;
 1595              		.loc 3 172 0
 1596 0276 0B93     		str	r3, [sp, #44]
 173:c:\projects\paindrain\arduinolcd\test\pain drain\libraries\lvgl\src\misc\lv_anim.h **** }
 1597              		.loc 3 173 0
 1598 0278 0C90     		str	r0, [sp, #48]
 1599 027a 08E0     		b	.L53
 1600              	.LVL204:
 1601              	.L69:
 1602              	.LBE201:
 1603              	.LBE200:
 1604              	.LBB202:
 1605              	.LBB203:
 140:c:\projects\paindrain\arduinolcd\test\pain drain\libraries\lvgl\src\misc\lv_anim.h **** }
 1606              		.loc 3 140 0
 1607 027c 104B     		ldr	r3, .L70+16
 1608 027e 0393     		str	r3, [sp, #12]
 1609              	.LVL205:
ARM GAS  C:\Users\haske\AppData\Local\Temp\ccLw7Foe.s 			page 50


 1610              	.LBE203:
 1611              	.LBE202:
 354:..\..\..\arduinoLCD\test\Pain Drain\libraries\lvgl\src\core/lv_disp.c ****             break;
 1612              		.loc 1 354 0
 1613 0280 2000     		movs	r0, r4
 1614 0282 FFF7FEFF 		bl	lv_disp_get_ver_res
 1615              	.LVL206:
 1616              	.LBB204:
 1617              	.LBB205:
 171:c:\projects\paindrain\arduinolcd\test\pain drain\libraries\lvgl\src\misc\lv_anim.h ****     a->current_value = start;
 1618              		.loc 3 171 0
 1619 0286 0023     		movs	r3, #0
 1620 0288 0A93     		str	r3, [sp, #40]
 172:c:\projects\paindrain\arduinolcd\test\pain drain\libraries\lvgl\src\misc\lv_anim.h ****     a->end_value = end;
 1621              		.loc 3 172 0
 1622 028a 0B93     		str	r3, [sp, #44]
 173:c:\projects\paindrain\arduinolcd\test\pain drain\libraries\lvgl\src\misc\lv_anim.h **** }
 1623              		.loc 3 173 0
 1624 028c 0C90     		str	r0, [sp, #48]
 1625              	.LVL207:
 1626              	.L53:
 1627              	.LBE205:
 1628              	.LBE204:
 358:..\..\..\arduinoLCD\test\Pain Drain\libraries\lvgl\src\core/lv_disp.c **** 
 1629              		.loc 1 358 0
 1630 028e 0022     		movs	r2, #0
 1631 0290 2521     		movs	r1, #37
 1632 0292 4846     		mov	r0, r9
 1633 0294 FFF7FEFF 		bl	lv_event_send
 1634              	.LVL208:
 360:..\..\..\arduinoLCD\test\Pain Drain\libraries\lvgl\src\core/lv_disp.c ****     lv_anim_start(&a_old);
 1635              		.loc 1 360 0
 1636 0298 13A8     		add	r0, sp, #76
 1637 029a FFF7FEFF 		bl	lv_anim_start
 1638              	.LVL209:
 361:..\..\..\arduinoLCD\test\Pain Drain\libraries\lvgl\src\core/lv_disp.c **** }
 1639              		.loc 1 361 0
 1640 029e 02A8     		add	r0, sp, #8
 1641 02a0 FFF7FEFF 		bl	lv_anim_start
 1642              	.LVL210:
 1643              	.L47:
 362:..\..\..\arduinoLCD\test\Pain Drain\libraries\lvgl\src\core/lv_disp.c **** 
 1644              		.loc 1 362 0
 1645 02a4 24B0     		add	sp, sp, #144
 1646              		@ sp needed
 1647              	.LVL211:
 1648              	.LVL212:
 1649              	.LVL213:
 1650 02a6 1CBC     		pop	{r2, r3, r4}
 1651 02a8 9046     		mov	r8, r2
 1652 02aa 9946     		mov	r9, r3
 1653 02ac A246     		mov	r10, r4
 1654 02ae F0BD     		pop	{r4, r5, r6, r7, pc}
 1655              	.L71:
 1656              		.align	2
 1657              	.L70:
 1658 02b0 00000000 		.word	scr_load_anim_start
ARM GAS  C:\Users\haske\AppData\Local\Temp\ccLw7Foe.s 			page 51


 1659 02b4 00000000 		.word	scr_anim_ready
 1660 02b8 00000000 		.word	.L55
 1661 02bc 00000000 		.word	set_x_anim
 1662 02c0 00000000 		.word	set_y_anim
 1663 02c4 00000000 		.word	opa_scale_anim
 1664              		.cfi_endproc
 1665              	.LFE175:
 1666              		.size	lv_scr_load_anim, .-lv_scr_load_anim
 1667              		.section	.text.lv_disp_load_scr,"ax",%progbits
 1668              		.align	2
 1669              		.global	lv_disp_load_scr
 1670              		.code	16
 1671              		.thumb_func
 1672              		.type	lv_disp_load_scr, %function
 1673              	lv_disp_load_scr:
 1674              	.LFB167:
  83:..\..\..\arduinoLCD\test\Pain Drain\libraries\lvgl\src\core/lv_disp.c ****     lv_scr_load_anim(scr, LV_SCR_LOAD_ANIM_NONE, 0, 0, false);
 1675              		.loc 1 83 0
 1676              		.cfi_startproc
 1677              		@ args = 0, pretend = 0, frame = 0
 1678              		@ frame_needed = 0, uses_anonymous_args = 0
 1679              	.LVL214:
 1680 0000 00B5     		push	{lr}
 1681              		.cfi_def_cfa_offset 4
 1682              		.cfi_offset 14, -4
 1683 0002 83B0     		sub	sp, sp, #12
 1684              		.cfi_def_cfa_offset 16
  84:..\..\..\arduinoLCD\test\Pain Drain\libraries\lvgl\src\core/lv_disp.c **** }
 1685              		.loc 1 84 0
 1686 0004 0023     		movs	r3, #0
 1687 0006 0093     		str	r3, [sp]
 1688 0008 0022     		movs	r2, #0
 1689 000a 0021     		movs	r1, #0
 1690 000c FFF7FEFF 		bl	lv_scr_load_anim
 1691              	.LVL215:
  85:..\..\..\arduinoLCD\test\Pain Drain\libraries\lvgl\src\core/lv_disp.c **** 
 1692              		.loc 1 85 0
 1693 0010 03B0     		add	sp, sp, #12
 1694              		@ sp needed
 1695 0012 00BD     		pop	{pc}
 1696              		.cfi_endproc
 1697              	.LFE167:
 1698              		.size	lv_disp_load_scr, .-lv_disp_load_scr
 1699              		.section	.text.lv_disp_get_inactive_time,"ax",%progbits
 1700              		.align	2
 1701              		.global	lv_disp_get_inactive_time
 1702              		.code	16
 1703              		.thumb_func
 1704              		.type	lv_disp_get_inactive_time, %function
 1705              	lv_disp_get_inactive_time:
 1706              	.LFB176:
 370:..\..\..\arduinoLCD\test\Pain Drain\libraries\lvgl\src\core/lv_disp.c ****     if(disp) return lv_tick_elaps(disp->last_activity_time);
 1707              		.loc 1 370 0
 1708              		.cfi_startproc
 1709              		@ args = 0, pretend = 0, frame = 0
 1710              		@ frame_needed = 0, uses_anonymous_args = 0
 1711              	.LVL216:
ARM GAS  C:\Users\haske\AppData\Local\Temp\ccLw7Foe.s 			page 52


 1712 0000 70B5     		push	{r4, r5, r6, lr}
 1713              		.cfi_def_cfa_offset 16
 1714              		.cfi_offset 4, -16
 1715              		.cfi_offset 5, -12
 1716              		.cfi_offset 6, -8
 1717              		.cfi_offset 14, -4
 371:..\..\..\arduinoLCD\test\Pain Drain\libraries\lvgl\src\core/lv_disp.c **** 
 1718              		.loc 1 371 0
 1719 0002 0028     		cmp	r0, #0
 1720 0004 05D0     		beq	.L74
 371:..\..\..\arduinoLCD\test\Pain Drain\libraries\lvgl\src\core/lv_disp.c **** 
 1721              		.loc 1 371 0 is_stmt 0 discriminator 1
 1722 0006 AC23     		movs	r3, #172
 1723 0008 5B00     		lsls	r3, r3, #1
 1724 000a C058     		ldr	r0, [r0, r3]
 1725              	.LVL217:
 1726 000c FFF7FEFF 		bl	lv_tick_elaps
 1727              	.LVL218:
 1728 0010 15E0     		b	.L75
 1729              	.LVL219:
 1730              	.L74:
 375:..\..\..\arduinoLCD\test\Pain Drain\libraries\lvgl\src\core/lv_disp.c ****     while(d) {
 1731              		.loc 1 375 0 is_stmt 1
 1732 0012 0020     		movs	r0, #0
 1733              	.LVL220:
 1734 0014 FFF7FEFF 		bl	lv_disp_get_next
 1735              	.LVL221:
 1736 0018 0400     		movs	r4, r0
 1737              	.LVL222:
 374:..\..\..\arduinoLCD\test\Pain Drain\libraries\lvgl\src\core/lv_disp.c ****     d          = lv_disp_get_next(NULL);
 1738              		.loc 1 374 0
 1739 001a 0125     		movs	r5, #1
 1740 001c 6D42     		rsbs	r5, r5, #0
 376:..\..\..\arduinoLCD\test\Pain Drain\libraries\lvgl\src\core/lv_disp.c ****         uint32_t elaps = lv_tick_elaps(d->last_activity_time);
 1741              		.loc 1 376 0
 1742 001e 0BE0     		b	.L76
 1743              	.LVL223:
 1744              	.L78:
 1745              	.LBB206:
 377:..\..\..\arduinoLCD\test\Pain Drain\libraries\lvgl\src\core/lv_disp.c ****         t = LV_MIN(t, elaps);
 1746              		.loc 1 377 0
 1747 0020 AC23     		movs	r3, #172
 1748 0022 5B00     		lsls	r3, r3, #1
 1749 0024 E058     		ldr	r0, [r4, r3]
 1750              	.LVL224:
 1751 0026 FFF7FEFF 		bl	lv_tick_elaps
 1752              	.LVL225:
 378:..\..\..\arduinoLCD\test\Pain Drain\libraries\lvgl\src\core/lv_disp.c ****         d = lv_disp_get_next(d);
 1753              		.loc 1 378 0
 1754 002a 8542     		cmp	r5, r0
 1755 002c 00D9     		bls	.L77
 1756 002e 0500     		movs	r5, r0
 1757              	.LVL226:
 1758              	.L77:
 379:..\..\..\arduinoLCD\test\Pain Drain\libraries\lvgl\src\core/lv_disp.c ****     }
 1759              		.loc 1 379 0
 1760 0030 2000     		movs	r0, r4
ARM GAS  C:\Users\haske\AppData\Local\Temp\ccLw7Foe.s 			page 53


 1761              	.LVL227:
 1762 0032 FFF7FEFF 		bl	lv_disp_get_next
 1763              	.LVL228:
 1764 0036 0400     		movs	r4, r0
 1765              	.LVL229:
 1766              	.L76:
 1767              	.LBE206:
 376:..\..\..\arduinoLCD\test\Pain Drain\libraries\lvgl\src\core/lv_disp.c ****         uint32_t elaps = lv_tick_elaps(d->last_activity_time);
 1768              		.loc 1 376 0
 1769 0038 002C     		cmp	r4, #0
 1770 003a F1D1     		bne	.L78
 382:..\..\..\arduinoLCD\test\Pain Drain\libraries\lvgl\src\core/lv_disp.c **** }
 1771              		.loc 1 382 0
 1772 003c 2800     		movs	r0, r5
 1773              	.LVL230:
 1774              	.L75:
 383:..\..\..\arduinoLCD\test\Pain Drain\libraries\lvgl\src\core/lv_disp.c **** 
 1775              		.loc 1 383 0
 1776              		@ sp needed
 1777 003e 70BD     		pop	{r4, r5, r6, pc}
 1778              		.cfi_endproc
 1779              	.LFE176:
 1780              		.size	lv_disp_get_inactive_time, .-lv_disp_get_inactive_time
 1781              		.section	.text.lv_disp_trig_activity,"ax",%progbits
 1782              		.align	2
 1783              		.global	lv_disp_trig_activity
 1784              		.code	16
 1785              		.thumb_func
 1786              		.type	lv_disp_trig_activity, %function
 1787              	lv_disp_trig_activity:
 1788              	.LFB177:
 390:..\..\..\arduinoLCD\test\Pain Drain\libraries\lvgl\src\core/lv_disp.c ****     if(!disp) disp = lv_disp_get_default();
 1789              		.loc 1 390 0
 1790              		.cfi_startproc
 1791              		@ args = 0, pretend = 0, frame = 0
 1792              		@ frame_needed = 0, uses_anonymous_args = 0
 1793              	.LVL231:
 1794 0000 10B5     		push	{r4, lr}
 1795              		.cfi_def_cfa_offset 8
 1796              		.cfi_offset 4, -8
 1797              		.cfi_offset 14, -4
 1798 0002 041E     		subs	r4, r0, #0
 391:..\..\..\arduinoLCD\test\Pain Drain\libraries\lvgl\src\core/lv_disp.c ****     if(!disp) {
 1799              		.loc 1 391 0
 1800 0004 02D1     		bne	.L80
 391:..\..\..\arduinoLCD\test\Pain Drain\libraries\lvgl\src\core/lv_disp.c ****     if(!disp) {
 1801              		.loc 1 391 0 is_stmt 0 discriminator 1
 1802 0006 FFF7FEFF 		bl	lv_disp_get_default
 1803              	.LVL232:
 1804 000a 0400     		movs	r4, r0
 1805              	.LVL233:
 1806              	.L80:
 392:..\..\..\arduinoLCD\test\Pain Drain\libraries\lvgl\src\core/lv_disp.c ****         LV_LOG_WARN("lv_disp_trig_activity: no display registered");
 1807              		.loc 1 392 0 is_stmt 1
 1808 000c 002C     		cmp	r4, #0
 1809 000e 04D0     		beq	.L79
 397:..\..\..\arduinoLCD\test\Pain Drain\libraries\lvgl\src\core/lv_disp.c **** }
ARM GAS  C:\Users\haske\AppData\Local\Temp\ccLw7Foe.s 			page 54


 1810              		.loc 1 397 0
 1811 0010 FFF7FEFF 		bl	lv_tick_get
 1812              	.LVL234:
 1813 0014 AC23     		movs	r3, #172
 1814 0016 5B00     		lsls	r3, r3, #1
 1815 0018 E050     		str	r0, [r4, r3]
 1816              	.L79:
 398:..\..\..\arduinoLCD\test\Pain Drain\libraries\lvgl\src\core/lv_disp.c **** 
 1817              		.loc 1 398 0
 1818              		@ sp needed
 1819              	.LVL235:
 1820 001a 10BD     		pop	{r4, pc}
 1821              		.cfi_endproc
 1822              	.LFE177:
 1823              		.size	lv_disp_trig_activity, .-lv_disp_trig_activity
 1824              		.section	.text.lv_disp_clean_dcache,"ax",%progbits
 1825              		.align	2
 1826              		.global	lv_disp_clean_dcache
 1827              		.code	16
 1828              		.thumb_func
 1829              		.type	lv_disp_clean_dcache, %function
 1830              	lv_disp_clean_dcache:
 1831              	.LFB178:
 405:..\..\..\arduinoLCD\test\Pain Drain\libraries\lvgl\src\core/lv_disp.c ****     if(!disp) disp = lv_disp_get_default();
 1832              		.loc 1 405 0
 1833              		.cfi_startproc
 1834              		@ args = 0, pretend = 0, frame = 0
 1835              		@ frame_needed = 0, uses_anonymous_args = 0
 1836              	.LVL236:
 1837 0000 10B5     		push	{r4, lr}
 1838              		.cfi_def_cfa_offset 8
 1839              		.cfi_offset 4, -8
 1840              		.cfi_offset 14, -4
 406:..\..\..\arduinoLCD\test\Pain Drain\libraries\lvgl\src\core/lv_disp.c ****     if(!disp) {
 1841              		.loc 1 406 0
 1842 0002 0028     		cmp	r0, #0
 1843 0004 01D1     		bne	.L83
 406:..\..\..\arduinoLCD\test\Pain Drain\libraries\lvgl\src\core/lv_disp.c ****     if(!disp) {
 1844              		.loc 1 406 0 is_stmt 0 discriminator 1
 1845 0006 FFF7FEFF 		bl	lv_disp_get_default
 1846              	.LVL237:
 1847              	.L83:
 407:..\..\..\arduinoLCD\test\Pain Drain\libraries\lvgl\src\core/lv_disp.c ****         LV_LOG_WARN("lv_disp_clean_dcache: no display registered");
 1848              		.loc 1 407 0 is_stmt 1
 1849 000a 0028     		cmp	r0, #0
 1850 000c 04D0     		beq	.L82
 412:..\..\..\arduinoLCD\test\Pain Drain\libraries\lvgl\src\core/lv_disp.c ****         disp->driver->clean_dcache_cb(disp->driver);
 1851              		.loc 1 412 0
 1852 000e 0068     		ldr	r0, [r0]
 1853              	.LVL238:
 1854 0010 C36A     		ldr	r3, [r0, #44]
 1855 0012 002B     		cmp	r3, #0
 1856 0014 00D0     		beq	.L82
 413:..\..\..\arduinoLCD\test\Pain Drain\libraries\lvgl\src\core/lv_disp.c **** }
 1857              		.loc 1 413 0
 1858 0016 9847     		blx	r3
 1859              	.LVL239:
ARM GAS  C:\Users\haske\AppData\Local\Temp\ccLw7Foe.s 			page 55


 1860              	.L82:
 414:..\..\..\arduinoLCD\test\Pain Drain\libraries\lvgl\src\core/lv_disp.c **** 
 1861              		.loc 1 414 0
 1862              		@ sp needed
 1863 0018 10BD     		pop	{r4, pc}
 1864              		.cfi_endproc
 1865              	.LFE178:
 1866              		.size	lv_disp_clean_dcache, .-lv_disp_clean_dcache
 1867 001a C046     		.section	.text.lv_disp_enable_invalidation,"ax",%progbits
 1868              		.align	2
 1869              		.global	lv_disp_enable_invalidation
 1870              		.code	16
 1871              		.thumb_func
 1872              		.type	lv_disp_enable_invalidation, %function
 1873              	lv_disp_enable_invalidation:
 1874              	.LFB179:
 422:..\..\..\arduinoLCD\test\Pain Drain\libraries\lvgl\src\core/lv_disp.c ****     if(!disp) disp = lv_disp_get_default();
 1875              		.loc 1 422 0
 1876              		.cfi_startproc
 1877              		@ args = 0, pretend = 0, frame = 0
 1878              		@ frame_needed = 0, uses_anonymous_args = 0
 1879              	.LVL240:
 1880 0000 10B5     		push	{r4, lr}
 1881              		.cfi_def_cfa_offset 8
 1882              		.cfi_offset 4, -8
 1883              		.cfi_offset 14, -4
 1884 0002 0C00     		movs	r4, r1
 423:..\..\..\arduinoLCD\test\Pain Drain\libraries\lvgl\src\core/lv_disp.c ****     if(!disp) {
 1885              		.loc 1 423 0
 1886 0004 0028     		cmp	r0, #0
 1887 0006 01D1     		bne	.L86
 423:..\..\..\arduinoLCD\test\Pain Drain\libraries\lvgl\src\core/lv_disp.c ****     if(!disp) {
 1888              		.loc 1 423 0 is_stmt 0 discriminator 1
 1889 0008 FFF7FEFF 		bl	lv_disp_get_default
 1890              	.LVL241:
 1891              	.L86:
 424:..\..\..\arduinoLCD\test\Pain Drain\libraries\lvgl\src\core/lv_disp.c ****         LV_LOG_WARN("no display registered");
 1892              		.loc 1 424 0 is_stmt 1
 1893 000c 0028     		cmp	r0, #0
 1894 000e 0CD0     		beq	.L85
 429:..\..\..\arduinoLCD\test\Pain Drain\libraries\lvgl\src\core/lv_disp.c **** }
 1895              		.loc 1 429 0
 1896 0010 AA23     		movs	r3, #170
 1897 0012 5B00     		lsls	r3, r3, #1
 1898 0014 C358     		ldr	r3, [r0, r3]
 1899 0016 002C     		cmp	r4, #0
 1900 0018 01D0     		beq	.L89
 1901 001a 0122     		movs	r2, #1
 1902 001c 01E0     		b	.L88
 1903              	.L89:
 1904 001e 0122     		movs	r2, #1
 1905 0020 5242     		rsbs	r2, r2, #0
 1906              	.L88:
 429:..\..\..\arduinoLCD\test\Pain Drain\libraries\lvgl\src\core/lv_disp.c **** }
 1907              		.loc 1 429 0 is_stmt 0 discriminator 4
 1908 0022 D318     		adds	r3, r2, r3
 1909 0024 AA22     		movs	r2, #170
ARM GAS  C:\Users\haske\AppData\Local\Temp\ccLw7Foe.s 			page 56


 1910 0026 5200     		lsls	r2, r2, #1
 1911 0028 8350     		str	r3, [r0, r2]
 1912              	.L85:
 430:..\..\..\arduinoLCD\test\Pain Drain\libraries\lvgl\src\core/lv_disp.c **** 
 1913              		.loc 1 430 0 is_stmt 1
 1914              		@ sp needed
 1915 002a 10BD     		pop	{r4, pc}
 1916              		.cfi_endproc
 1917              	.LFE179:
 1918              		.size	lv_disp_enable_invalidation, .-lv_disp_enable_invalidation
 1919              		.section	.text.lv_disp_is_invalidation_enabled,"ax",%progbits
 1920              		.align	2
 1921              		.global	lv_disp_is_invalidation_enabled
 1922              		.code	16
 1923              		.thumb_func
 1924              		.type	lv_disp_is_invalidation_enabled, %function
 1925              	lv_disp_is_invalidation_enabled:
 1926              	.LFB180:
 438:..\..\..\arduinoLCD\test\Pain Drain\libraries\lvgl\src\core/lv_disp.c ****     if(!disp) disp = lv_disp_get_default();
 1927              		.loc 1 438 0
 1928              		.cfi_startproc
 1929              		@ args = 0, pretend = 0, frame = 0
 1930              		@ frame_needed = 0, uses_anonymous_args = 0
 1931              	.LVL242:
 1932 0000 10B5     		push	{r4, lr}
 1933              		.cfi_def_cfa_offset 8
 1934              		.cfi_offset 4, -8
 1935              		.cfi_offset 14, -4
 439:..\..\..\arduinoLCD\test\Pain Drain\libraries\lvgl\src\core/lv_disp.c ****     if(!disp) {
 1936              		.loc 1 439 0
 1937 0002 0028     		cmp	r0, #0
 1938 0004 01D1     		bne	.L91
 439:..\..\..\arduinoLCD\test\Pain Drain\libraries\lvgl\src\core/lv_disp.c ****     if(!disp) {
 1939              		.loc 1 439 0 is_stmt 0 discriminator 1
 1940 0006 FFF7FEFF 		bl	lv_disp_get_default
 1941              	.LVL243:
 1942              	.L91:
 440:..\..\..\arduinoLCD\test\Pain Drain\libraries\lvgl\src\core/lv_disp.c ****         LV_LOG_WARN("no display registered");
 1943              		.loc 1 440 0 is_stmt 1
 1944 000a 0028     		cmp	r0, #0
 1945 000c 06D0     		beq	.L93
 445:..\..\..\arduinoLCD\test\Pain Drain\libraries\lvgl\src\core/lv_disp.c **** }
 1946              		.loc 1 445 0
 1947 000e AA23     		movs	r3, #170
 1948 0010 5B00     		lsls	r3, r3, #1
 1949 0012 C058     		ldr	r0, [r0, r3]
 1950              	.LVL244:
 1951 0014 C317     		asrs	r3, r0, #31
 1952 0016 181A     		subs	r0, r3, r0
 1953 0018 C00F     		lsrs	r0, r0, #31
 1954 001a 00E0     		b	.L92
 1955              	.LVL245:
 1956              	.L93:
 442:..\..\..\arduinoLCD\test\Pain Drain\libraries\lvgl\src\core/lv_disp.c ****     }
 1957              		.loc 1 442 0
 1958 001c 0020     		movs	r0, #0
 1959              	.LVL246:
ARM GAS  C:\Users\haske\AppData\Local\Temp\ccLw7Foe.s 			page 57


 1960              	.L92:
 446:..\..\..\arduinoLCD\test\Pain Drain\libraries\lvgl\src\core/lv_disp.c **** 
 1961              		.loc 1 446 0
 1962              		@ sp needed
 1963 001e 10BD     		pop	{r4, pc}
 1964              		.cfi_endproc
 1965              	.LFE180:
 1966              		.size	lv_disp_is_invalidation_enabled, .-lv_disp_is_invalidation_enabled
 1967              		.section	.text._lv_disp_get_refr_timer,"ax",%progbits
 1968              		.align	2
 1969              		.global	_lv_disp_get_refr_timer
 1970              		.code	16
 1971              		.thumb_func
 1972              		.type	_lv_disp_get_refr_timer, %function
 1973              	_lv_disp_get_refr_timer:
 1974              	.LFB181:
 455:..\..\..\arduinoLCD\test\Pain Drain\libraries\lvgl\src\core/lv_disp.c ****     if(!disp) disp = lv_disp_get_default();
 1975              		.loc 1 455 0
 1976              		.cfi_startproc
 1977              		@ args = 0, pretend = 0, frame = 0
 1978              		@ frame_needed = 0, uses_anonymous_args = 0
 1979              	.LVL247:
 1980 0000 10B5     		push	{r4, lr}
 1981              		.cfi_def_cfa_offset 8
 1982              		.cfi_offset 4, -8
 1983              		.cfi_offset 14, -4
 456:..\..\..\arduinoLCD\test\Pain Drain\libraries\lvgl\src\core/lv_disp.c ****     if(!disp) {
 1984              		.loc 1 456 0
 1985 0002 0028     		cmp	r0, #0
 1986 0004 01D1     		bne	.L95
 456:..\..\..\arduinoLCD\test\Pain Drain\libraries\lvgl\src\core/lv_disp.c ****     if(!disp) {
 1987              		.loc 1 456 0 is_stmt 0 discriminator 1
 1988 0006 FFF7FEFF 		bl	lv_disp_get_default
 1989              	.LVL248:
 1990              	.L95:
 457:..\..\..\arduinoLCD\test\Pain Drain\libraries\lvgl\src\core/lv_disp.c ****         LV_LOG_WARN("lv_disp_get_refr_timer: no display registered");
 1991              		.loc 1 457 0 is_stmt 1
 1992 000a 0028     		cmp	r0, #0
 1993 000c 01D0     		beq	.L97
 462:..\..\..\arduinoLCD\test\Pain Drain\libraries\lvgl\src\core/lv_disp.c **** }
 1994              		.loc 1 462 0
 1995 000e 4068     		ldr	r0, [r0, #4]
 1996              	.LVL249:
 1997 0010 00E0     		b	.L96
 1998              	.LVL250:
 1999              	.L97:
 459:..\..\..\arduinoLCD\test\Pain Drain\libraries\lvgl\src\core/lv_disp.c ****     }
 2000              		.loc 1 459 0
 2001 0012 0020     		movs	r0, #0
 2002              	.LVL251:
 2003              	.L96:
 463:..\..\..\arduinoLCD\test\Pain Drain\libraries\lvgl\src\core/lv_disp.c **** 
 2004              		.loc 1 463 0
 2005              		@ sp needed
 2006 0014 10BD     		pop	{r4, pc}
 2007              		.cfi_endproc
 2008              	.LFE181:
ARM GAS  C:\Users\haske\AppData\Local\Temp\ccLw7Foe.s 			page 58


 2009              		.size	_lv_disp_get_refr_timer, .-_lv_disp_get_refr_timer
 2010 0016 C046     		.text
 2011              	.Letext0:
 2012              		.file 4 "c:\\program files (x86)\\cypress\\psoc creator\\4.4\\psoc creator\\import\\gnu\\arm\\5.4.
 2013              		.file 5 "c:\\program files (x86)\\cypress\\psoc creator\\4.4\\psoc creator\\import\\gnu\\arm\\5.4.
 2014              		.file 6 "c:\\program files (x86)\\cypress\\psoc creator\\4.4\\psoc creator\\import\\gnu\\arm\\5.4.
 2015              		.file 7 "c:\\projects\\paindrain\\arduinolcd\\test\\pain drain\\libraries\\lvgl\\src\\misc\\lv_are
 2016              		.file 8 "c:\\projects\\paindrain\\arduinolcd\\test\\pain drain\\libraries\\lvgl\\src\\font\\lv_fon
 2017              		.file 9 "c:\\projects\\paindrain\\arduinolcd\\test\\pain drain\\libraries\\lvgl\\src\\misc\\lv_typ
 2018              		.file 10 "c:\\projects\\paindrain\\arduinolcd\\test\\pain drain\\libraries\\lvgl\\src\\misc\\lv_co
 2019              		.file 11 "c:\\projects\\paindrain\\arduinolcd\\test\\pain drain\\libraries\\lvgl\\src\\misc\\lv_tx
 2020              		.file 12 "c:\\projects\\paindrain\\arduinolcd\\test\\pain drain\\libraries\\lvgl\\src\\misc\\lv_bi
 2021              		.file 13 "c:\\projects\\paindrain\\arduinolcd\\test\\pain drain\\libraries\\lvgl\\src\\misc\\lv_st
 2022              		.file 14 "c:\\projects\\paindrain\\arduinolcd\\test\\pain drain\\libraries\\lvgl\\src\\draw\\lv_im
 2023              		.file 15 "..\\..\\..\\arduinoLCD\\test\\Pain Drain\\libraries\\lvgl\\src\\core\\lv_obj.h"
 2024              		.file 16 "c:\\projects\\paindrain\\arduinolcd\\test\\pain drain\\libraries\\lvgl\\src\\draw\\lv_dr
 2025              		.file 17 "c:\\projects\\paindrain\\arduinolcd\\test\\pain drain\\libraries\\lvgl\\src\\draw\\lv_dr
 2026              		.file 18 "c:\\projects\\paindrain\\arduinolcd\\test\\pain drain\\libraries\\lvgl\\src\\draw\\lv_dr
 2027              		.file 19 "c:\\projects\\paindrain\\arduinolcd\\test\\pain drain\\libraries\\lvgl\\src\\draw\\lv_dr
 2028              		.file 20 "c:\\projects\\paindrain\\arduinolcd\\test\\pain drain\\libraries\\lvgl\\src\\draw\\lv_dr
 2029              		.file 21 "c:\\projects\\paindrain\\arduinolcd\\test\\pain drain\\libraries\\lvgl\\src\\draw\\lv_dr
 2030              		.file 22 "c:\\projects\\paindrain\\arduinolcd\\test\\pain drain\\libraries\\lvgl\\src\\draw\\lv_dr
 2031              		.file 23 "c:\\projects\\paindrain\\arduinolcd\\test\\pain drain\\libraries\\lvgl\\src\\misc\\lv_ll
 2032              		.file 24 "c:\\projects\\paindrain\\arduinolcd\\test\\pain drain\\libraries\\lvgl\\src\\misc\\lv_ti
 2033              		.file 25 "..\\..\\..\\arduinoLCD\\test\\Pain Drain\\libraries\\lvgl\\src\\core\\../hal/lv_hal_disp
 2034              		.file 26 "..\\..\\..\\arduinoLCD\\test\\Pain Drain\\libraries\\lvgl\\src\\core\\lv_theme.h"
 2035              		.file 27 "..\\..\\..\\arduinoLCD\\test\\Pain Drain\\libraries\\lvgl\\src\\core\\lv_group.h"
 2036              		.file 28 "..\\..\\..\\arduinoLCD\\test\\Pain Drain\\libraries\\lvgl\\src\\core\\lv_obj_scroll.h"
 2037              		.file 29 "..\\..\\..\\arduinoLCD\\test\\Pain Drain\\libraries\\lvgl\\src\\core\\lv_obj_style.h"
 2038              		.file 30 "..\\..\\..\\arduinoLCD\\test\\Pain Drain\\libraries\\lvgl\\src\\core\\lv_obj_class.h"
 2039              		.file 31 "..\\..\\..\\arduinoLCD\\test\\Pain Drain\\libraries\\lvgl\\src\\core\\lv_event.h"
 2040              		.file 32 "..\\..\\..\\arduinoLCD\\test\\Pain Drain\\libraries\\lvgl\\src\\core\\lv_obj_style_gen.h
 2041              		.file 33 "c:\\projects\\paindrain\\arduinolcd\\test\\pain drain\\libraries\\lvgl\\src\\core\\lv_ob
 2042              		.file 34 "..\\..\\..\\arduinoLCD\\test\\Pain Drain\\libraries\\lvgl\\src\\core\\lv_obj_tree.h"
 2043              		.file 35 "..\\..\\..\\arduinoLCD\\test\\Pain Drain\\libraries\\lvgl\\src\\core\\../core/lv_refr.h"
 2044              		.file 36 "c:\\projects\\paindrain\\arduinolcd\\test\\pain drain\\libraries\\lvgl\\src\\hal\\lv_hal
 2045              		.section	.debug_info,"",%progbits
 2046              	.Ldebug_info0:
 2047 0000 A3330000 		.4byte	0x33a3
 2048 0004 0400     		.2byte	0x4
 2049 0006 00000000 		.4byte	.Ldebug_abbrev0
 2050 000a 04       		.byte	0x4
 2051 000b 01       		.uleb128 0x1
 2052 000c 87090000 		.4byte	.LASF583
 2053 0010 0C       		.byte	0xc
 2054 0011 3D1F0000 		.4byte	.LASF584
 2055 0015 A31D0000 		.4byte	.LASF585
 2056 0019 00000000 		.4byte	.Ldebug_ranges0+0
 2057 001d 00000000 		.4byte	0
 2058 0021 00000000 		.4byte	.Ldebug_line0
 2059 0025 02       		.uleb128 0x2
 2060 0026 C9170000 		.4byte	.LASF0
 2061 002a 04       		.byte	0x4
 2062 002b 1B       		.byte	0x1b
 2063 002c 30000000 		.4byte	0x30
 2064 0030 03       		.uleb128 0x3
 2065 0031 01       		.byte	0x1
ARM GAS  C:\Users\haske\AppData\Local\Temp\ccLw7Foe.s 			page 59


 2066 0032 06       		.byte	0x6
 2067 0033 0A070000 		.4byte	.LASF2
 2068 0037 02       		.uleb128 0x2
 2069 0038 53040000 		.4byte	.LASF1
 2070 003c 04       		.byte	0x4
 2071 003d 1D       		.byte	0x1d
 2072 003e 42000000 		.4byte	0x42
 2073 0042 03       		.uleb128 0x3
 2074 0043 01       		.byte	0x1
 2075 0044 08       		.byte	0x8
 2076 0045 C7070000 		.4byte	.LASF3
 2077 0049 02       		.uleb128 0x2
 2078 004a 771A0000 		.4byte	.LASF4
 2079 004e 04       		.byte	0x4
 2080 004f 29       		.byte	0x29
 2081 0050 54000000 		.4byte	0x54
 2082 0054 03       		.uleb128 0x3
 2083 0055 02       		.byte	0x2
 2084 0056 05       		.byte	0x5
 2085 0057 471C0000 		.4byte	.LASF5
 2086 005b 02       		.uleb128 0x2
 2087 005c 450B0000 		.4byte	.LASF6
 2088 0060 04       		.byte	0x4
 2089 0061 2B       		.byte	0x2b
 2090 0062 66000000 		.4byte	0x66
 2091 0066 03       		.uleb128 0x3
 2092 0067 02       		.byte	0x2
 2093 0068 07       		.byte	0x7
 2094 0069 2B200000 		.4byte	.LASF7
 2095 006d 02       		.uleb128 0x2
 2096 006e EB200000 		.4byte	.LASF8
 2097 0072 04       		.byte	0x4
 2098 0073 3F       		.byte	0x3f
 2099 0074 78000000 		.4byte	0x78
 2100 0078 03       		.uleb128 0x3
 2101 0079 04       		.byte	0x4
 2102 007a 05       		.byte	0x5
 2103 007b 53050000 		.4byte	.LASF9
 2104 007f 02       		.uleb128 0x2
 2105 0080 86120000 		.4byte	.LASF10
 2106 0084 04       		.byte	0x4
 2107 0085 41       		.byte	0x41
 2108 0086 8A000000 		.4byte	0x8a
 2109 008a 03       		.uleb128 0x3
 2110 008b 04       		.byte	0x4
 2111 008c 07       		.byte	0x7
 2112 008d D30F0000 		.4byte	.LASF11
 2113 0091 03       		.uleb128 0x3
 2114 0092 08       		.byte	0x8
 2115 0093 05       		.byte	0x5
 2116 0094 C6120000 		.4byte	.LASF12
 2117 0098 03       		.uleb128 0x3
 2118 0099 08       		.byte	0x8
 2119 009a 07       		.byte	0x7
 2120 009b 2E180000 		.4byte	.LASF13
 2121 009f 04       		.uleb128 0x4
 2122 00a0 04       		.byte	0x4
ARM GAS  C:\Users\haske\AppData\Local\Temp\ccLw7Foe.s 			page 60


 2123 00a1 05       		.byte	0x5
 2124 00a2 696E7400 		.ascii	"int\000"
 2125 00a6 03       		.uleb128 0x3
 2126 00a7 04       		.byte	0x4
 2127 00a8 07       		.byte	0x7
 2128 00a9 4A140000 		.4byte	.LASF14
 2129 00ad 02       		.uleb128 0x2
 2130 00ae 09000000 		.4byte	.LASF15
 2131 00b2 05       		.byte	0x5
 2132 00b3 14       		.byte	0x14
 2133 00b4 25000000 		.4byte	0x25
 2134 00b8 02       		.uleb128 0x2
 2135 00b9 16070000 		.4byte	.LASF16
 2136 00bd 05       		.byte	0x5
 2137 00be 18       		.byte	0x18
 2138 00bf 37000000 		.4byte	0x37
 2139 00c3 02       		.uleb128 0x2
 2140 00c4 D71C0000 		.4byte	.LASF17
 2141 00c8 05       		.byte	0x5
 2142 00c9 20       		.byte	0x20
 2143 00ca 49000000 		.4byte	0x49
 2144 00ce 02       		.uleb128 0x2
 2145 00cf D0180000 		.4byte	.LASF18
 2146 00d3 05       		.byte	0x5
 2147 00d4 24       		.byte	0x24
 2148 00d5 5B000000 		.4byte	0x5b
 2149 00d9 02       		.uleb128 0x2
 2150 00da 0B010000 		.4byte	.LASF19
 2151 00de 05       		.byte	0x5
 2152 00df 2C       		.byte	0x2c
 2153 00e0 6D000000 		.4byte	0x6d
 2154 00e4 02       		.uleb128 0x2
 2155 00e5 56200000 		.4byte	.LASF20
 2156 00e9 05       		.byte	0x5
 2157 00ea 30       		.byte	0x30
 2158 00eb 7F000000 		.4byte	0x7f
 2159 00ef 02       		.uleb128 0x2
 2160 00f0 4E000000 		.4byte	.LASF21
 2161 00f4 06       		.byte	0x6
 2162 00f5 D8       		.byte	0xd8
 2163 00f6 A6000000 		.4byte	0xa6
 2164 00fa 03       		.uleb128 0x3
 2165 00fb 08       		.byte	0x8
 2166 00fc 04       		.byte	0x4
 2167 00fd BC160000 		.4byte	.LASF22
 2168 0101 02       		.uleb128 0x2
 2169 0102 4B200000 		.4byte	.LASF23
 2170 0106 07       		.byte	0x7
 2171 0107 1B       		.byte	0x1b
 2172 0108 C3000000 		.4byte	0xc3
 2173 010c 05       		.uleb128 0x5
 2174 010d 04       		.byte	0x4
 2175 010e 07       		.byte	0x7
 2176 010f 25       		.byte	0x25
 2177 0110 29010000 		.4byte	0x129
 2178 0114 06       		.uleb128 0x6
 2179 0115 7800     		.ascii	"x\000"
ARM GAS  C:\Users\haske\AppData\Local\Temp\ccLw7Foe.s 			page 61


 2180 0117 07       		.byte	0x7
 2181 0118 26       		.byte	0x26
 2182 0119 01010000 		.4byte	0x101
 2183 011d 00       		.byte	0
 2184 011e 06       		.uleb128 0x6
 2185 011f 7900     		.ascii	"y\000"
 2186 0121 07       		.byte	0x7
 2187 0122 27       		.byte	0x27
 2188 0123 01010000 		.4byte	0x101
 2189 0127 02       		.byte	0x2
 2190 0128 00       		.byte	0
 2191 0129 02       		.uleb128 0x2
 2192 012a 72010000 		.4byte	.LASF24
 2193 012e 07       		.byte	0x7
 2194 012f 28       		.byte	0x28
 2195 0130 0C010000 		.4byte	0x10c
 2196 0134 05       		.uleb128 0x5
 2197 0135 08       		.byte	0x8
 2198 0136 07       		.byte	0x7
 2199 0137 2B       		.byte	0x2b
 2200 0138 69010000 		.4byte	0x169
 2201 013c 06       		.uleb128 0x6
 2202 013d 783100   		.ascii	"x1\000"
 2203 0140 07       		.byte	0x7
 2204 0141 2C       		.byte	0x2c
 2205 0142 01010000 		.4byte	0x101
 2206 0146 00       		.byte	0
 2207 0147 06       		.uleb128 0x6
 2208 0148 793100   		.ascii	"y1\000"
 2209 014b 07       		.byte	0x7
 2210 014c 2D       		.byte	0x2d
 2211 014d 01010000 		.4byte	0x101
 2212 0151 02       		.byte	0x2
 2213 0152 06       		.uleb128 0x6
 2214 0153 783200   		.ascii	"x2\000"
 2215 0156 07       		.byte	0x7
 2216 0157 2E       		.byte	0x2e
 2217 0158 01010000 		.4byte	0x101
 2218 015c 04       		.byte	0x4
 2219 015d 06       		.uleb128 0x6
 2220 015e 793200   		.ascii	"y2\000"
 2221 0161 07       		.byte	0x7
 2222 0162 2F       		.byte	0x2f
 2223 0163 01010000 		.4byte	0x101
 2224 0167 06       		.byte	0x6
 2225 0168 00       		.byte	0
 2226 0169 02       		.uleb128 0x2
 2227 016a 9B0D0000 		.4byte	.LASF25
 2228 016e 07       		.byte	0x7
 2229 016f 30       		.byte	0x30
 2230 0170 34010000 		.4byte	0x134
 2231 0174 02       		.uleb128 0x2
 2232 0175 3B0C0000 		.4byte	.LASF26
 2233 0179 07       		.byte	0x7
 2234 017a 59       		.byte	0x59
 2235 017b B8000000 		.4byte	0xb8
 2236 017f 05       		.uleb128 0x5
ARM GAS  C:\Users\haske\AppData\Local\Temp\ccLw7Foe.s 			page 62


 2237 0180 10       		.byte	0x10
 2238 0181 08       		.byte	0x8
 2239 0182 29       		.byte	0x29
 2240 0183 EE010000 		.4byte	0x1ee
 2241 0187 07       		.uleb128 0x7
 2242 0188 97100000 		.4byte	.LASF27
 2243 018c 08       		.byte	0x8
 2244 018d 2B       		.byte	0x2b
 2245 018e 76020000 		.4byte	0x276
 2246 0192 00       		.byte	0
 2247 0193 07       		.uleb128 0x7
 2248 0194 55000000 		.4byte	.LASF28
 2249 0198 08       		.byte	0x8
 2250 0199 2C       		.byte	0x2c
 2251 019a CE000000 		.4byte	0xce
 2252 019e 04       		.byte	0x4
 2253 019f 07       		.uleb128 0x7
 2254 01a0 411C0000 		.4byte	.LASF29
 2255 01a4 08       		.byte	0x8
 2256 01a5 2D       		.byte	0x2d
 2257 01a6 CE000000 		.4byte	0xce
 2258 01aa 06       		.byte	0x6
 2259 01ab 07       		.uleb128 0x7
 2260 01ac 0C1C0000 		.4byte	.LASF30
 2261 01b0 08       		.byte	0x8
 2262 01b1 2E       		.byte	0x2e
 2263 01b2 CE000000 		.4byte	0xce
 2264 01b6 08       		.byte	0x8
 2265 01b7 07       		.uleb128 0x7
 2266 01b8 E7080000 		.4byte	.LASF31
 2267 01bc 08       		.byte	0x8
 2268 01bd 2F       		.byte	0x2f
 2269 01be C3000000 		.4byte	0xc3
 2270 01c2 0A       		.byte	0xa
 2271 01c3 07       		.uleb128 0x7
 2272 01c4 ED080000 		.4byte	.LASF32
 2273 01c8 08       		.byte	0x8
 2274 01c9 30       		.byte	0x30
 2275 01ca C3000000 		.4byte	0xc3
 2276 01ce 0C       		.byte	0xc
 2277 01cf 08       		.uleb128 0x8
 2278 01d0 62707000 		.ascii	"bpp\000"
 2279 01d4 08       		.byte	0x8
 2280 01d5 31       		.byte	0x31
 2281 01d6 B8000000 		.4byte	0xb8
 2282 01da 01       		.byte	0x1
 2283 01db 04       		.byte	0x4
 2284 01dc 04       		.byte	0x4
 2285 01dd 0E       		.byte	0xe
 2286 01de 09       		.uleb128 0x9
 2287 01df 29220000 		.4byte	.LASF33
 2288 01e3 08       		.byte	0x8
 2289 01e4 32       		.byte	0x32
 2290 01e5 B8000000 		.4byte	0xb8
 2291 01e9 01       		.byte	0x1
 2292 01ea 01       		.byte	0x1
 2293 01eb 03       		.byte	0x3
ARM GAS  C:\Users\haske\AppData\Local\Temp\ccLw7Foe.s 			page 63


 2294 01ec 0E       		.byte	0xe
 2295 01ed 00       		.byte	0
 2296 01ee 0A       		.uleb128 0xa
 2297 01ef 73120000 		.4byte	.LASF69
 2298 01f3 1C       		.byte	0x1c
 2299 01f4 08       		.byte	0x8
 2300 01f5 40       		.byte	0x40
 2301 01f6 76020000 		.4byte	0x276
 2302 01fa 07       		.uleb128 0x7
 2303 01fb DD200000 		.4byte	.LASF34
 2304 01ff 08       		.byte	0x8
 2305 0200 42       		.byte	0x42
 2306 0201 B7020000 		.4byte	0x2b7
 2307 0205 00       		.byte	0
 2308 0206 07       		.uleb128 0x7
 2309 0207 67070000 		.4byte	.LASF35
 2310 020b 08       		.byte	0x8
 2311 020c 45       		.byte	0x45
 2312 020d DC020000 		.4byte	0x2dc
 2313 0211 04       		.byte	0x4
 2314 0212 07       		.uleb128 0x7
 2315 0213 A1010000 		.4byte	.LASF36
 2316 0217 08       		.byte	0x8
 2317 0218 48       		.byte	0x48
 2318 0219 01010000 		.4byte	0x101
 2319 021d 08       		.byte	0x8
 2320 021e 07       		.uleb128 0x7
 2321 021f 511C0000 		.4byte	.LASF37
 2322 0223 08       		.byte	0x8
 2323 0224 49       		.byte	0x49
 2324 0225 01010000 		.4byte	0x101
 2325 0229 0A       		.byte	0xa
 2326 022a 09       		.uleb128 0x9
 2327 022b F5160000 		.4byte	.LASF38
 2328 022f 08       		.byte	0x8
 2329 0230 4A       		.byte	0x4a
 2330 0231 B8000000 		.4byte	0xb8
 2331 0235 01       		.byte	0x1
 2332 0236 02       		.byte	0x2
 2333 0237 06       		.byte	0x6
 2334 0238 0C       		.byte	0xc
 2335 0239 07       		.uleb128 0x7
 2336 023a 880A0000 		.4byte	.LASF39
 2337 023e 08       		.byte	0x8
 2338 023f 4C       		.byte	0x4c
 2339 0240 AD000000 		.4byte	0xad
 2340 0244 0D       		.byte	0xd
 2341 0245 07       		.uleb128 0x7
 2342 0246 85130000 		.4byte	.LASF40
 2343 024a 08       		.byte	0x8
 2344 024b 4D       		.byte	0x4d
 2345 024c AD000000 		.4byte	0xad
 2346 0250 0E       		.byte	0xe
 2347 0251 06       		.uleb128 0x6
 2348 0252 64736300 		.ascii	"dsc\000"
 2349 0256 08       		.byte	0x8
 2350 0257 4F       		.byte	0x4f
ARM GAS  C:\Users\haske\AppData\Local\Temp\ccLw7Foe.s 			page 64


 2351 0258 E2020000 		.4byte	0x2e2
 2352 025c 10       		.byte	0x10
 2353 025d 07       		.uleb128 0x7
 2354 025e 2A0D0000 		.4byte	.LASF41
 2355 0262 08       		.byte	0x8
 2356 0263 50       		.byte	0x50
 2357 0264 76020000 		.4byte	0x276
 2358 0268 14       		.byte	0x14
 2359 0269 07       		.uleb128 0x7
 2360 026a 7F200000 		.4byte	.LASF42
 2361 026e 08       		.byte	0x8
 2362 026f 52       		.byte	0x52
 2363 0270 E9020000 		.4byte	0x2e9
 2364 0274 18       		.byte	0x18
 2365 0275 00       		.byte	0
 2366 0276 0B       		.uleb128 0xb
 2367 0277 04       		.byte	0x4
 2368 0278 7C020000 		.4byte	0x27c
 2369 027c 0C       		.uleb128 0xc
 2370 027d EE010000 		.4byte	0x1ee
 2371 0281 02       		.uleb128 0x2
 2372 0282 8C150000 		.4byte	.LASF43
 2373 0286 08       		.byte	0x8
 2374 0287 33       		.byte	0x33
 2375 0288 7F010000 		.4byte	0x17f
 2376 028c 0D       		.uleb128 0xd
 2377 028d AA020000 		.4byte	0x2aa
 2378 0291 AA020000 		.4byte	0x2aa
 2379 0295 0E       		.uleb128 0xe
 2380 0296 76020000 		.4byte	0x276
 2381 029a 0E       		.uleb128 0xe
 2382 029b B1020000 		.4byte	0x2b1
 2383 029f 0E       		.uleb128 0xe
 2384 02a0 E4000000 		.4byte	0xe4
 2385 02a4 0E       		.uleb128 0xe
 2386 02a5 E4000000 		.4byte	0xe4
 2387 02a9 00       		.byte	0
 2388 02aa 03       		.uleb128 0x3
 2389 02ab 01       		.byte	0x1
 2390 02ac 02       		.byte	0x2
 2391 02ad 2E090000 		.4byte	.LASF44
 2392 02b1 0B       		.uleb128 0xb
 2393 02b2 04       		.byte	0x4
 2394 02b3 81020000 		.4byte	0x281
 2395 02b7 0B       		.uleb128 0xb
 2396 02b8 04       		.byte	0x4
 2397 02b9 8C020000 		.4byte	0x28c
 2398 02bd 0D       		.uleb128 0xd
 2399 02be D1020000 		.4byte	0x2d1
 2400 02c2 D1020000 		.4byte	0x2d1
 2401 02c6 0E       		.uleb128 0xe
 2402 02c7 76020000 		.4byte	0x276
 2403 02cb 0E       		.uleb128 0xe
 2404 02cc E4000000 		.4byte	0xe4
 2405 02d0 00       		.byte	0
 2406 02d1 0B       		.uleb128 0xb
 2407 02d2 04       		.byte	0x4
ARM GAS  C:\Users\haske\AppData\Local\Temp\ccLw7Foe.s 			page 65


 2408 02d3 D7020000 		.4byte	0x2d7
 2409 02d7 0C       		.uleb128 0xc
 2410 02d8 B8000000 		.4byte	0xb8
 2411 02dc 0B       		.uleb128 0xb
 2412 02dd 04       		.byte	0x4
 2413 02de BD020000 		.4byte	0x2bd
 2414 02e2 0B       		.uleb128 0xb
 2415 02e3 04       		.byte	0x4
 2416 02e4 E8020000 		.4byte	0x2e8
 2417 02e8 0F       		.uleb128 0xf
 2418 02e9 10       		.uleb128 0x10
 2419 02ea 04       		.byte	0x4
 2420 02eb 02       		.uleb128 0x2
 2421 02ec E21F0000 		.4byte	.LASF45
 2422 02f0 08       		.byte	0x8
 2423 02f1 54       		.byte	0x54
 2424 02f2 EE010000 		.4byte	0x1ee
 2425 02f6 02       		.uleb128 0x2
 2426 02f7 86160000 		.4byte	.LASF46
 2427 02fb 09       		.byte	0x9
 2428 02fc 2F       		.byte	0x2f
 2429 02fd B8000000 		.4byte	0xb8
 2430 0301 03       		.uleb128 0x3
 2431 0302 04       		.byte	0x4
 2432 0303 07       		.byte	0x7
 2433 0304 5B000000 		.4byte	.LASF47
 2434 0308 03       		.uleb128 0x3
 2435 0309 01       		.byte	0x1
 2436 030a 08       		.byte	0x8
 2437 030b 5E0A0000 		.4byte	.LASF48
 2438 030f 11       		.uleb128 0x11
 2439 0310 01       		.byte	0x1
 2440 0311 42000000 		.4byte	0x42
 2441 0315 0A       		.byte	0xa
 2442 0316 29       		.byte	0x29
 2443 0317 6A030000 		.4byte	0x36a
 2444 031b 12       		.uleb128 0x12
 2445 031c C9130000 		.4byte	.LASF49
 2446 0320 00       		.byte	0
 2447 0321 12       		.uleb128 0x12
 2448 0322 E5100000 		.4byte	.LASF50
 2449 0326 00       		.byte	0
 2450 0327 12       		.uleb128 0x12
 2451 0328 C2190000 		.4byte	.LASF51
 2452 032c 19       		.byte	0x19
 2453 032d 12       		.uleb128 0x12
 2454 032e 111B0000 		.4byte	.LASF52
 2455 0332 33       		.byte	0x33
 2456 0333 12       		.uleb128 0x12
 2457 0334 C41B0000 		.4byte	.LASF53
 2458 0338 4C       		.byte	0x4c
 2459 0339 12       		.uleb128 0x12
 2460 033a CD1C0000 		.4byte	.LASF54
 2461 033e 66       		.byte	0x66
 2462 033f 12       		.uleb128 0x12
 2463 0340 991D0000 		.4byte	.LASF55
 2464 0344 7F       		.byte	0x7f
ARM GAS  C:\Users\haske\AppData\Local\Temp\ccLw7Foe.s 			page 66


 2465 0345 12       		.uleb128 0x12
 2466 0346 E31E0000 		.4byte	.LASF56
 2467 034a 99       		.byte	0x99
 2468 034b 12       		.uleb128 0x12
 2469 034c 21200000 		.4byte	.LASF57
 2470 0350 B2       		.byte	0xb2
 2471 0351 12       		.uleb128 0x12
 2472 0352 47210000 		.4byte	.LASF58
 2473 0356 CC       		.byte	0xcc
 2474 0357 12       		.uleb128 0x12
 2475 0358 4D220000 		.4byte	.LASF59
 2476 035c E5       		.byte	0xe5
 2477 035d 12       		.uleb128 0x12
 2478 035e 3B160000 		.4byte	.LASF60
 2479 0362 FF       		.byte	0xff
 2480 0363 12       		.uleb128 0x12
 2481 0364 FB160000 		.4byte	.LASF61
 2482 0368 FF       		.byte	0xff
 2483 0369 00       		.byte	0
 2484 036a 05       		.uleb128 0x5
 2485 036b 02       		.byte	0x2
 2486 036c 0A       		.byte	0xa
 2487 036d D1       		.byte	0xd1
 2488 036e A0030000 		.4byte	0x3a0
 2489 0372 09       		.uleb128 0x9
 2490 0373 8B070000 		.4byte	.LASF62
 2491 0377 0A       		.byte	0xa
 2492 0378 D3       		.byte	0xd3
 2493 0379 CE000000 		.4byte	0xce
 2494 037d 02       		.byte	0x2
 2495 037e 05       		.byte	0x5
 2496 037f 0B       		.byte	0xb
 2497 0380 00       		.byte	0
 2498 0381 09       		.uleb128 0x9
 2499 0382 DC1F0000 		.4byte	.LASF63
 2500 0386 0A       		.byte	0xa
 2501 0387 D4       		.byte	0xd4
 2502 0388 CE000000 		.4byte	0xce
 2503 038c 02       		.byte	0x2
 2504 038d 06       		.byte	0x6
 2505 038e 05       		.byte	0x5
 2506 038f 00       		.byte	0
 2507 0390 08       		.uleb128 0x8
 2508 0391 72656400 		.ascii	"red\000"
 2509 0395 0A       		.byte	0xa
 2510 0396 D5       		.byte	0xd5
 2511 0397 CE000000 		.4byte	0xce
 2512 039b 02       		.byte	0x2
 2513 039c 05       		.byte	0x5
 2514 039d 00       		.byte	0
 2515 039e 00       		.byte	0
 2516 039f 00       		.byte	0
 2517 03a0 13       		.uleb128 0x13
 2518 03a1 02       		.byte	0x2
 2519 03a2 0A       		.byte	0xa
 2520 03a3 D0       		.byte	0xd0
 2521 03a4 BE030000 		.4byte	0x3be
ARM GAS  C:\Users\haske\AppData\Local\Temp\ccLw7Foe.s 			page 67


 2522 03a8 14       		.uleb128 0x14
 2523 03a9 636800   		.ascii	"ch\000"
 2524 03ac 0A       		.byte	0xa
 2525 03ad DC       		.byte	0xdc
 2526 03ae 6A030000 		.4byte	0x36a
 2527 03b2 15       		.uleb128 0x15
 2528 03b3 E71A0000 		.4byte	.LASF64
 2529 03b7 0A       		.byte	0xa
 2530 03b8 DD       		.byte	0xdd
 2531 03b9 CE000000 		.4byte	0xce
 2532 03bd 00       		.byte	0
 2533 03be 02       		.uleb128 0x2
 2534 03bf 341C0000 		.4byte	.LASF65
 2535 03c3 0A       		.byte	0xa
 2536 03c4 DE       		.byte	0xde
 2537 03c5 A0030000 		.4byte	0x3a0
 2538 03c9 02       		.uleb128 0x2
 2539 03ca F1180000 		.4byte	.LASF66
 2540 03ce 0A       		.byte	0xa
 2541 03cf EB       		.byte	0xeb
 2542 03d0 BE030000 		.4byte	0x3be
 2543 03d4 02       		.uleb128 0x2
 2544 03d5 E9000000 		.4byte	.LASF67
 2545 03d9 0A       		.byte	0xa
 2546 03da F5       		.byte	0xf5
 2547 03db B8000000 		.4byte	0xb8
 2548 03df 02       		.uleb128 0x2
 2549 03e0 57140000 		.4byte	.LASF68
 2550 03e4 03       		.byte	0x3
 2551 03e5 2E       		.byte	0x2e
 2552 03e6 EA030000 		.4byte	0x3ea
 2553 03ea 0B       		.uleb128 0xb
 2554 03eb 04       		.byte	0x4
 2555 03ec F0030000 		.4byte	0x3f0
 2556 03f0 0D       		.uleb128 0xd
 2557 03f1 D9000000 		.4byte	0xd9
 2558 03f5 FF030000 		.4byte	0x3ff
 2559 03f9 0E       		.uleb128 0xe
 2560 03fa FF030000 		.4byte	0x3ff
 2561 03fe 00       		.byte	0
 2562 03ff 0B       		.uleb128 0xb
 2563 0400 04       		.byte	0x4
 2564 0401 1A050000 		.4byte	0x51a
 2565 0405 0A       		.uleb128 0xa
 2566 0406 D5210000 		.4byte	.LASF70
 2567 040a 44       		.byte	0x44
 2568 040b 03       		.byte	0x3
 2569 040c 49       		.byte	0x49
 2570 040d 1A050000 		.4byte	0x51a
 2571 0411 06       		.uleb128 0x6
 2572 0412 76617200 		.ascii	"var\000"
 2573 0416 03       		.byte	0x3
 2574 0417 4A       		.byte	0x4a
 2575 0418 E9020000 		.4byte	0x2e9
 2576 041c 00       		.byte	0
 2577 041d 07       		.uleb128 0x7
 2578 041e BA190000 		.4byte	.LASF71
ARM GAS  C:\Users\haske\AppData\Local\Temp\ccLw7Foe.s 			page 68


 2579 0422 03       		.byte	0x3
 2580 0423 4B       		.byte	0x4b
 2581 0424 1F050000 		.4byte	0x51f
 2582 0428 04       		.byte	0x4
 2583 0429 07       		.uleb128 0x7
 2584 042a 78070000 		.4byte	.LASF72
 2585 042e 03       		.byte	0x3
 2586 042f 4C       		.byte	0x4c
 2587 0430 62050000 		.4byte	0x562
 2588 0434 08       		.byte	0x8
 2589 0435 07       		.uleb128 0x7
 2590 0436 B40C0000 		.4byte	.LASF73
 2591 043a 03       		.byte	0x3
 2592 043b 4D       		.byte	0x4d
 2593 043c 46050000 		.4byte	0x546
 2594 0440 0C       		.byte	0xc
 2595 0441 07       		.uleb128 0x7
 2596 0442 FE200000 		.4byte	.LASF74
 2597 0446 03       		.byte	0x3
 2598 0447 4E       		.byte	0x4e
 2599 0448 8D050000 		.4byte	0x58d
 2600 044c 10       		.byte	0x10
 2601 044d 07       		.uleb128 0x7
 2602 044e 79160000 		.4byte	.LASF75
 2603 0452 03       		.byte	0x3
 2604 0453 4F       		.byte	0x4f
 2605 0454 6D050000 		.4byte	0x56d
 2606 0458 14       		.byte	0x14
 2607 0459 07       		.uleb128 0x7
 2608 045a 7F200000 		.4byte	.LASF42
 2609 045e 03       		.byte	0x3
 2610 045f 51       		.byte	0x51
 2611 0460 E9020000 		.4byte	0x2e9
 2612 0464 18       		.byte	0x18
 2613 0465 07       		.uleb128 0x7
 2614 0466 AD010000 		.4byte	.LASF76
 2615 046a 03       		.byte	0x3
 2616 046b 53       		.byte	0x53
 2617 046c DF030000 		.4byte	0x3df
 2618 0470 1C       		.byte	0x1c
 2619 0471 07       		.uleb128 0x7
 2620 0472 AC070000 		.4byte	.LASF77
 2621 0476 03       		.byte	0x3
 2622 0477 54       		.byte	0x54
 2623 0478 D9000000 		.4byte	0xd9
 2624 047c 20       		.byte	0x20
 2625 047d 07       		.uleb128 0x7
 2626 047e 3C140000 		.4byte	.LASF78
 2627 0482 03       		.byte	0x3
 2628 0483 55       		.byte	0x55
 2629 0484 D9000000 		.4byte	0xd9
 2630 0488 24       		.byte	0x24
 2631 0489 07       		.uleb128 0x7
 2632 048a D9180000 		.4byte	.LASF79
 2633 048e 03       		.byte	0x3
 2634 048f 56       		.byte	0x56
 2635 0490 D9000000 		.4byte	0xd9
ARM GAS  C:\Users\haske\AppData\Local\Temp\ccLw7Foe.s 			page 69


 2636 0494 28       		.byte	0x28
 2637 0495 07       		.uleb128 0x7
 2638 0496 211B0000 		.4byte	.LASF80
 2639 049a 03       		.byte	0x3
 2640 049b 57       		.byte	0x57
 2641 049c D9000000 		.4byte	0xd9
 2642 04a0 2C       		.byte	0x2c
 2643 04a1 07       		.uleb128 0x7
 2644 04a2 061E0000 		.4byte	.LASF81
 2645 04a6 03       		.byte	0x3
 2646 04a7 58       		.byte	0x58
 2647 04a8 D9000000 		.4byte	0xd9
 2648 04ac 30       		.byte	0x30
 2649 04ad 07       		.uleb128 0x7
 2650 04ae E90E0000 		.4byte	.LASF82
 2651 04b2 03       		.byte	0x3
 2652 04b3 59       		.byte	0x59
 2653 04b4 E4000000 		.4byte	0xe4
 2654 04b8 34       		.byte	0x34
 2655 04b9 07       		.uleb128 0x7
 2656 04ba EE190000 		.4byte	.LASF83
 2657 04be 03       		.byte	0x3
 2658 04bf 5A       		.byte	0x5a
 2659 04c0 E4000000 		.4byte	0xe4
 2660 04c4 38       		.byte	0x38
 2661 04c5 07       		.uleb128 0x7
 2662 04c6 46160000 		.4byte	.LASF84
 2663 04ca 03       		.byte	0x3
 2664 04cb 5B       		.byte	0x5b
 2665 04cc E4000000 		.4byte	0xe4
 2666 04d0 3C       		.byte	0x3c
 2667 04d1 07       		.uleb128 0x7
 2668 04d2 18170000 		.4byte	.LASF85
 2669 04d6 03       		.byte	0x3
 2670 04d7 5C       		.byte	0x5c
 2671 04d8 CE000000 		.4byte	0xce
 2672 04dc 40       		.byte	0x40
 2673 04dd 09       		.uleb128 0x9
 2674 04de 9B060000 		.4byte	.LASF86
 2675 04e2 03       		.byte	0x3
 2676 04e3 5D       		.byte	0x5d
 2677 04e4 B8000000 		.4byte	0xb8
 2678 04e8 01       		.byte	0x1
 2679 04e9 01       		.byte	0x1
 2680 04ea 07       		.byte	0x7
 2681 04eb 42       		.byte	0x42
 2682 04ec 09       		.uleb128 0x9
 2683 04ed 9D200000 		.4byte	.LASF87
 2684 04f1 03       		.byte	0x3
 2685 04f2 60       		.byte	0x60
 2686 04f3 B8000000 		.4byte	0xb8
 2687 04f7 01       		.byte	0x1
 2688 04f8 01       		.byte	0x1
 2689 04f9 06       		.byte	0x6
 2690 04fa 42       		.byte	0x42
 2691 04fb 09       		.uleb128 0x9
 2692 04fc AB040000 		.4byte	.LASF88
ARM GAS  C:\Users\haske\AppData\Local\Temp\ccLw7Foe.s 			page 70


 2693 0500 03       		.byte	0x3
 2694 0501 61       		.byte	0x61
 2695 0502 B8000000 		.4byte	0xb8
 2696 0506 01       		.byte	0x1
 2697 0507 01       		.byte	0x1
 2698 0508 05       		.byte	0x5
 2699 0509 42       		.byte	0x42
 2700 050a 09       		.uleb128 0x9
 2701 050b 2E110000 		.4byte	.LASF89
 2702 050f 03       		.byte	0x3
 2703 0510 62       		.byte	0x62
 2704 0511 B8000000 		.4byte	0xb8
 2705 0515 01       		.byte	0x1
 2706 0516 01       		.byte	0x1
 2707 0517 04       		.byte	0x4
 2708 0518 42       		.byte	0x42
 2709 0519 00       		.byte	0
 2710 051a 0C       		.uleb128 0xc
 2711 051b 05040000 		.4byte	0x405
 2712 051f 02       		.uleb128 0x2
 2713 0520 750A0000 		.4byte	.LASF90
 2714 0524 03       		.byte	0x3
 2715 0525 36       		.byte	0x36
 2716 0526 2A050000 		.4byte	0x52a
 2717 052a 0B       		.uleb128 0xb
 2718 052b 04       		.byte	0x4
 2719 052c 30050000 		.4byte	0x530
 2720 0530 16       		.uleb128 0x16
 2721 0531 40050000 		.4byte	0x540
 2722 0535 0E       		.uleb128 0xe
 2723 0536 E9020000 		.4byte	0x2e9
 2724 053a 0E       		.uleb128 0xe
 2725 053b D9000000 		.4byte	0xd9
 2726 053f 00       		.byte	0
 2727 0540 0B       		.uleb128 0xb
 2728 0541 04       		.byte	0x4
 2729 0542 05040000 		.4byte	0x405
 2730 0546 02       		.uleb128 0x2
 2731 0547 A40E0000 		.4byte	.LASF91
 2732 054b 03       		.byte	0x3
 2733 054c 3D       		.byte	0x3d
 2734 054d 51050000 		.4byte	0x551
 2735 0551 0B       		.uleb128 0xb
 2736 0552 04       		.byte	0x4
 2737 0553 57050000 		.4byte	0x557
 2738 0557 16       		.uleb128 0x16
 2739 0558 62050000 		.4byte	0x562
 2740 055c 0E       		.uleb128 0xe
 2741 055d 40050000 		.4byte	0x540
 2742 0561 00       		.byte	0
 2743 0562 02       		.uleb128 0x2
 2744 0563 121C0000 		.4byte	.LASF92
 2745 0567 03       		.byte	0x3
 2746 0568 40       		.byte	0x40
 2747 0569 51050000 		.4byte	0x551
 2748 056d 02       		.uleb128 0x2
 2749 056e CC010000 		.4byte	.LASF93
ARM GAS  C:\Users\haske\AppData\Local\Temp\ccLw7Foe.s 			page 71


 2750 0572 03       		.byte	0x3
 2751 0573 43       		.byte	0x43
 2752 0574 78050000 		.4byte	0x578
 2753 0578 0B       		.uleb128 0xb
 2754 0579 04       		.byte	0x4
 2755 057a 7E050000 		.4byte	0x57e
 2756 057e 0D       		.uleb128 0xd
 2757 057f D9000000 		.4byte	0xd9
 2758 0583 8D050000 		.4byte	0x58d
 2759 0587 0E       		.uleb128 0xe
 2760 0588 40050000 		.4byte	0x540
 2761 058c 00       		.byte	0
 2762 058d 02       		.uleb128 0x2
 2763 058e 69140000 		.4byte	.LASF94
 2764 0592 03       		.byte	0x3
 2765 0593 46       		.byte	0x46
 2766 0594 51050000 		.4byte	0x551
 2767 0598 02       		.uleb128 0x2
 2768 0599 C90F0000 		.4byte	.LASF95
 2769 059d 03       		.byte	0x3
 2770 059e 63       		.byte	0x63
 2771 059f 05040000 		.4byte	0x405
 2772 05a3 02       		.uleb128 0x2
 2773 05a4 95190000 		.4byte	.LASF96
 2774 05a8 0B       		.byte	0xb
 2775 05a9 30       		.byte	0x30
 2776 05aa B8000000 		.4byte	0xb8
 2777 05ae 02       		.uleb128 0x2
 2778 05af 75130000 		.4byte	.LASF97
 2779 05b3 0B       		.byte	0xb
 2780 05b4 42       		.byte	0x42
 2781 05b5 B8000000 		.4byte	0xb8
 2782 05b9 02       		.uleb128 0x2
 2783 05ba F3080000 		.4byte	.LASF98
 2784 05be 0C       		.byte	0xc
 2785 05bf 2A       		.byte	0x2a
 2786 05c0 B8000000 		.4byte	0xb8
 2787 05c4 02       		.uleb128 0x2
 2788 05c5 770F0000 		.4byte	.LASF99
 2789 05c9 0D       		.byte	0xd
 2790 05ca 5E       		.byte	0x5e
 2791 05cb B8000000 		.4byte	0xb8
 2792 05cf 02       		.uleb128 0x2
 2793 05d0 AA120000 		.4byte	.LASF100
 2794 05d4 0D       		.byte	0xd
 2795 05d5 6A       		.byte	0x6a
 2796 05d6 B8000000 		.4byte	0xb8
 2797 05da 02       		.uleb128 0x2
 2798 05db 7E1B0000 		.4byte	.LASF101
 2799 05df 0D       		.byte	0xd
 2800 05e0 79       		.byte	0x79
 2801 05e1 B8000000 		.4byte	0xb8
 2802 05e5 02       		.uleb128 0x2
 2803 05e6 09210000 		.4byte	.LASF102
 2804 05ea 0D       		.byte	0xd
 2805 05eb 84       		.byte	0x84
 2806 05ec B8000000 		.4byte	0xb8
ARM GAS  C:\Users\haske\AppData\Local\Temp\ccLw7Foe.s 			page 72


 2807 05f0 02       		.uleb128 0x2
 2808 05f1 CE160000 		.4byte	.LASF103
 2809 05f5 0D       		.byte	0xd
 2810 05f6 90       		.byte	0x90
 2811 05f7 B8000000 		.4byte	0xb8
 2812 05fb 05       		.uleb128 0x5
 2813 05fc 04       		.byte	0x4
 2814 05fd 0D       		.byte	0xd
 2815 05fe 95       		.byte	0x95
 2816 05ff 1C060000 		.4byte	0x61c
 2817 0603 07       		.uleb128 0x7
 2818 0604 1B1B0000 		.4byte	.LASF104
 2819 0608 0D       		.byte	0xd
 2820 0609 96       		.byte	0x96
 2821 060a C9030000 		.4byte	0x3c9
 2822 060e 00       		.byte	0
 2823 060f 07       		.uleb128 0x7
 2824 0610 8F1B0000 		.4byte	.LASF105
 2825 0614 0D       		.byte	0xd
 2826 0615 97       		.byte	0x97
 2827 0616 B8000000 		.4byte	0xb8
 2828 061a 02       		.byte	0x2
 2829 061b 00       		.byte	0
 2830 061c 02       		.uleb128 0x2
 2831 061d AF1E0000 		.4byte	.LASF106
 2832 0621 0D       		.byte	0xd
 2833 0622 98       		.byte	0x98
 2834 0623 FB050000 		.4byte	0x5fb
 2835 0627 05       		.uleb128 0x5
 2836 0628 0A       		.byte	0xa
 2837 0629 0D       		.byte	0xd
 2838 062a 9B       		.byte	0x9b
 2839 062b 66060000 		.4byte	0x666
 2840 062f 07       		.uleb128 0x7
 2841 0630 341B0000 		.4byte	.LASF107
 2842 0634 0D       		.byte	0xd
 2843 0635 9C       		.byte	0x9c
 2844 0636 66060000 		.4byte	0x666
 2845 063a 00       		.byte	0
 2846 063b 07       		.uleb128 0x7
 2847 063c 250B0000 		.4byte	.LASF108
 2848 0640 0D       		.byte	0xd
 2849 0641 9D       		.byte	0x9d
 2850 0642 B8000000 		.4byte	0xb8
 2851 0646 08       		.byte	0x8
 2852 0647 08       		.uleb128 0x8
 2853 0648 64697200 		.ascii	"dir\000"
 2854 064c 0D       		.byte	0xd
 2855 064d 9E       		.byte	0x9e
 2856 064e E5050000 		.4byte	0x5e5
 2857 0652 01       		.byte	0x1
 2858 0653 03       		.byte	0x3
 2859 0654 05       		.byte	0x5
 2860 0655 09       		.byte	0x9
 2861 0656 09       		.uleb128 0x9
 2862 0657 1A200000 		.4byte	.LASF109
 2863 065b 0D       		.byte	0xd
ARM GAS  C:\Users\haske\AppData\Local\Temp\ccLw7Foe.s 			page 73


 2864 065c A0       		.byte	0xa0
 2865 065d F0050000 		.4byte	0x5f0
 2866 0661 01       		.byte	0x1
 2867 0662 03       		.byte	0x3
 2868 0663 02       		.byte	0x2
 2869 0664 09       		.byte	0x9
 2870 0665 00       		.byte	0
 2871 0666 17       		.uleb128 0x17
 2872 0667 1C060000 		.4byte	0x61c
 2873 066b 76060000 		.4byte	0x676
 2874 066f 18       		.uleb128 0x18
 2875 0670 01030000 		.4byte	0x301
 2876 0674 01       		.byte	0x1
 2877 0675 00       		.byte	0
 2878 0676 02       		.uleb128 0x2
 2879 0677 E5210000 		.4byte	.LASF110
 2880 067b 0D       		.byte	0xd
 2881 067c A2       		.byte	0xa2
 2882 067d 27060000 		.4byte	0x627
 2883 0681 13       		.uleb128 0x13
 2884 0682 04       		.byte	0x4
 2885 0683 0D       		.byte	0xd
 2886 0684 A7       		.byte	0xa7
 2887 0685 AB060000 		.4byte	0x6ab
 2888 0689 14       		.uleb128 0x14
 2889 068a 6E756D00 		.ascii	"num\000"
 2890 068e 0D       		.byte	0xd
 2891 068f A8       		.byte	0xa8
 2892 0690 D9000000 		.4byte	0xd9
 2893 0694 14       		.uleb128 0x14
 2894 0695 70747200 		.ascii	"ptr\000"
 2895 0699 0D       		.byte	0xd
 2896 069a A9       		.byte	0xa9
 2897 069b E2020000 		.4byte	0x2e2
 2898 069f 15       		.uleb128 0x15
 2899 06a0 1B1B0000 		.4byte	.LASF104
 2900 06a4 0D       		.byte	0xd
 2901 06a5 AA       		.byte	0xaa
 2902 06a6 C9030000 		.4byte	0x3c9
 2903 06aa 00       		.byte	0
 2904 06ab 02       		.uleb128 0x2
 2905 06ac 94140000 		.4byte	.LASF111
 2906 06b0 0D       		.byte	0xd
 2907 06b1 AB       		.byte	0xab
 2908 06b2 81060000 		.4byte	0x681
 2909 06b6 11       		.uleb128 0x11
 2910 06b7 02       		.byte	0x2
 2911 06b8 66000000 		.4byte	0x66
 2912 06bc 0D       		.byte	0xd
 2913 06bd B2       		.byte	0xb2
 2914 06be DB080000 		.4byte	0x8db
 2915 06c2 12       		.uleb128 0x12
 2916 06c3 1F0E0000 		.4byte	.LASF112
 2917 06c7 00       		.byte	0
 2918 06c8 12       		.uleb128 0x12
 2919 06c9 36190000 		.4byte	.LASF113
 2920 06cd 01       		.byte	0x1
ARM GAS  C:\Users\haske\AppData\Local\Temp\ccLw7Foe.s 			page 74


 2921 06ce 12       		.uleb128 0x12
 2922 06cf 6C190000 		.4byte	.LASF114
 2923 06d3 02       		.byte	0x2
 2924 06d4 12       		.uleb128 0x12
 2925 06d5 98040000 		.4byte	.LASF115
 2926 06d9 03       		.byte	0x3
 2927 06da 12       		.uleb128 0x12
 2928 06db 6C020000 		.4byte	.LASF116
 2929 06df 04       		.byte	0x4
 2930 06e0 12       		.uleb128 0x12
 2931 06e1 1A1E0000 		.4byte	.LASF117
 2932 06e5 05       		.byte	0x5
 2933 06e6 12       		.uleb128 0x12
 2934 06e7 B01B0000 		.4byte	.LASF118
 2935 06eb 06       		.byte	0x6
 2936 06ec 12       		.uleb128 0x12
 2937 06ed 1D120000 		.4byte	.LASF119
 2938 06f1 07       		.byte	0x7
 2939 06f2 12       		.uleb128 0x12
 2940 06f3 C21E0000 		.4byte	.LASF120
 2941 06f7 08       		.byte	0x8
 2942 06f8 12       		.uleb128 0x12
 2943 06f9 B8070000 		.4byte	.LASF121
 2944 06fd 09       		.byte	0x9
 2945 06fe 12       		.uleb128 0x12
 2946 06ff 7C150000 		.4byte	.LASF122
 2947 0703 0A       		.byte	0xa
 2948 0704 12       		.uleb128 0x12
 2949 0705 71040000 		.4byte	.LASF123
 2950 0709 0B       		.byte	0xb
 2951 070a 12       		.uleb128 0x12
 2952 070b 501D0000 		.4byte	.LASF124
 2953 070f 10       		.byte	0x10
 2954 0710 12       		.uleb128 0x12
 2955 0711 F80E0000 		.4byte	.LASF125
 2956 0715 11       		.byte	0x11
 2957 0716 12       		.uleb128 0x12
 2958 0717 6B110000 		.4byte	.LASF126
 2959 071b 12       		.byte	0x12
 2960 071c 12       		.uleb128 0x12
 2961 071d 11050000 		.4byte	.LASF127
 2962 0721 13       		.byte	0x13
 2963 0722 12       		.uleb128 0x12
 2964 0723 EE100000 		.4byte	.LASF128
 2965 0727 14       		.byte	0x14
 2966 0728 12       		.uleb128 0x12
 2967 0729 DE030000 		.4byte	.LASF129
 2968 072d 15       		.byte	0x15
 2969 072e 12       		.uleb128 0x12
 2970 072f F40A0000 		.4byte	.LASF130
 2971 0733 16       		.byte	0x16
 2972 0734 12       		.uleb128 0x12
 2973 0735 FF150000 		.4byte	.LASF131
 2974 0739 17       		.byte	0x17
 2975 073a 12       		.uleb128 0x12
 2976 073b DB0B0000 		.4byte	.LASF132
 2977 073f 20       		.byte	0x20
ARM GAS  C:\Users\haske\AppData\Local\Temp\ccLw7Foe.s 			page 75


 2978 0740 12       		.uleb128 0x12
 2979 0741 1F0F0000 		.4byte	.LASF133
 2980 0745 21       		.byte	0x21
 2981 0746 12       		.uleb128 0x12
 2982 0747 EC1B0000 		.4byte	.LASF134
 2983 074b 22       		.byte	0x22
 2984 074c 12       		.uleb128 0x12
 2985 074d 52070000 		.4byte	.LASF135
 2986 0751 23       		.byte	0x23
 2987 0752 12       		.uleb128 0x12
 2988 0753 D5020000 		.4byte	.LASF136
 2989 0757 24       		.byte	0x24
 2990 0758 12       		.uleb128 0x12
 2991 0759 4F180000 		.4byte	.LASF137
 2992 075d 25       		.byte	0x25
 2993 075e 12       		.uleb128 0x12
 2994 075f 06220000 		.4byte	.LASF138
 2995 0763 26       		.byte	0x26
 2996 0764 12       		.uleb128 0x12
 2997 0765 2F040000 		.4byte	.LASF139
 2998 0769 27       		.byte	0x27
 2999 076a 12       		.uleb128 0x12
 3000 076b CC190000 		.4byte	.LASF140
 3001 076f 28       		.byte	0x28
 3002 0770 12       		.uleb128 0x12
 3003 0771 711D0000 		.4byte	.LASF141
 3004 0775 29       		.byte	0x29
 3005 0776 12       		.uleb128 0x12
 3006 0777 BD040000 		.4byte	.LASF142
 3007 077b 2A       		.byte	0x2a
 3008 077c 12       		.uleb128 0x12
 3009 077d 9D050000 		.4byte	.LASF143
 3010 0781 2B       		.byte	0x2b
 3011 0782 12       		.uleb128 0x12
 3012 0783 0F060000 		.4byte	.LASF144
 3013 0787 2C       		.byte	0x2c
 3014 0788 12       		.uleb128 0x12
 3015 0789 81170000 		.4byte	.LASF145
 3016 078d 30       		.byte	0x30
 3017 078e 12       		.uleb128 0x12
 3018 078f 46060000 		.4byte	.LASF146
 3019 0793 31       		.byte	0x31
 3020 0794 12       		.uleb128 0x12
 3021 0795 8B030000 		.4byte	.LASF147
 3022 0799 32       		.byte	0x32
 3023 079a 12       		.uleb128 0x12
 3024 079b 84180000 		.4byte	.LASF148
 3025 079f 33       		.byte	0x33
 3026 07a0 12       		.uleb128 0x12
 3027 07a1 881E0000 		.4byte	.LASF149
 3028 07a5 34       		.byte	0x34
 3029 07a6 12       		.uleb128 0x12
 3030 07a7 B00D0000 		.4byte	.LASF150
 3031 07ab 35       		.byte	0x35
 3032 07ac 12       		.uleb128 0x12
 3033 07ad 68200000 		.4byte	.LASF151
 3034 07b1 36       		.byte	0x36
ARM GAS  C:\Users\haske\AppData\Local\Temp\ccLw7Foe.s 			page 76


 3035 07b2 12       		.uleb128 0x12
 3036 07b3 100B0000 		.4byte	.LASF152
 3037 07b7 37       		.byte	0x37
 3038 07b8 12       		.uleb128 0x12
 3039 07b9 38220000 		.4byte	.LASF153
 3040 07bd 38       		.byte	0x38
 3041 07be 12       		.uleb128 0x12
 3042 07bf D7150000 		.4byte	.LASF154
 3043 07c3 40       		.byte	0x40
 3044 07c4 12       		.uleb128 0x12
 3045 07c5 A4190000 		.4byte	.LASF155
 3046 07c9 41       		.byte	0x41
 3047 07ca 12       		.uleb128 0x12
 3048 07cb 8B110000 		.4byte	.LASF156
 3049 07cf 42       		.byte	0x42
 3050 07d0 12       		.uleb128 0x12
 3051 07d1 BA200000 		.4byte	.LASF157
 3052 07d5 43       		.byte	0x43
 3053 07d6 12       		.uleb128 0x12
 3054 07d7 CB060000 		.4byte	.LASF158
 3055 07db 44       		.byte	0x44
 3056 07dc 12       		.uleb128 0x12
 3057 07dd D5040000 		.4byte	.LASF159
 3058 07e1 45       		.byte	0x45
 3059 07e2 12       		.uleb128 0x12
 3060 07e3 910F0000 		.4byte	.LASF160
 3061 07e7 46       		.byte	0x46
 3062 07e8 12       		.uleb128 0x12
 3063 07e9 99080000 		.4byte	.LASF161
 3064 07ed 47       		.byte	0x47
 3065 07ee 12       		.uleb128 0x12
 3066 07ef ED0B0000 		.4byte	.LASF162
 3067 07f3 48       		.byte	0x48
 3068 07f4 12       		.uleb128 0x12
 3069 07f5 851D0000 		.4byte	.LASF163
 3070 07f9 49       		.byte	0x49
 3071 07fa 12       		.uleb128 0x12
 3072 07fb 9B0C0000 		.4byte	.LASF164
 3073 07ff 4A       		.byte	0x4a
 3074 0800 12       		.uleb128 0x12
 3075 0801 9D000000 		.4byte	.LASF165
 3076 0805 4B       		.byte	0x4b
 3077 0806 12       		.uleb128 0x12
 3078 0807 CD1E0000 		.4byte	.LASF166
 3079 080b 4C       		.byte	0x4c
 3080 080c 12       		.uleb128 0x12
 3081 080d D1100000 		.4byte	.LASF167
 3082 0811 4D       		.byte	0x4d
 3083 0812 12       		.uleb128 0x12
 3084 0813 2F0F0000 		.4byte	.LASF168
 3085 0817 4E       		.byte	0x4e
 3086 0818 12       		.uleb128 0x12
 3087 0819 D4080000 		.4byte	.LASF169
 3088 081d 50       		.byte	0x50
 3089 081e 12       		.uleb128 0x12
 3090 081f D7130000 		.4byte	.LASF170
 3091 0823 51       		.byte	0x51
ARM GAS  C:\Users\haske\AppData\Local\Temp\ccLw7Foe.s 			page 77


 3092 0824 12       		.uleb128 0x12
 3093 0825 BA1C0000 		.4byte	.LASF171
 3094 0829 52       		.byte	0x52
 3095 082a 12       		.uleb128 0x12
 3096 082b F2000000 		.4byte	.LASF172
 3097 082f 53       		.byte	0x53
 3098 0830 12       		.uleb128 0x12
 3099 0831 171A0000 		.4byte	.LASF173
 3100 0835 54       		.byte	0x54
 3101 0836 12       		.uleb128 0x12
 3102 0837 10140000 		.4byte	.LASF174
 3103 083b 55       		.byte	0x55
 3104 083c 12       		.uleb128 0x12
 3105 083d FF0F0000 		.4byte	.LASF175
 3106 0841 56       		.byte	0x56
 3107 0842 12       		.uleb128 0x12
 3108 0843 8E1A0000 		.4byte	.LASF176
 3109 0847 57       		.byte	0x57
 3110 0848 12       		.uleb128 0x12
 3111 0849 7A220000 		.4byte	.LASF177
 3112 084d 58       		.byte	0x58
 3113 084e 12       		.uleb128 0x12
 3114 084f 310E0000 		.4byte	.LASF178
 3115 0853 59       		.byte	0x59
 3116 0854 12       		.uleb128 0x12
 3117 0855 99130000 		.4byte	.LASF179
 3118 0859 5A       		.byte	0x5a
 3119 085a 12       		.uleb128 0x12
 3120 085b 43120000 		.4byte	.LASF180
 3121 085f 5B       		.byte	0x5b
 3122 0860 12       		.uleb128 0x12
 3123 0861 10000000 		.4byte	.LASF181
 3124 0865 60       		.byte	0x60
 3125 0866 12       		.uleb128 0x12
 3126 0867 5B130000 		.4byte	.LASF182
 3127 086b 61       		.byte	0x61
 3128 086c 12       		.uleb128 0x12
 3129 086d 9A160000 		.4byte	.LASF183
 3130 0871 62       		.byte	0x62
 3131 0872 12       		.uleb128 0x12
 3132 0873 04120000 		.4byte	.LASF184
 3133 0877 63       		.byte	0x63
 3134 0878 12       		.uleb128 0x12
 3135 0879 D60E0000 		.4byte	.LASF185
 3136 087d 64       		.byte	0x64
 3137 087e 12       		.uleb128 0x12
 3138 087f 870D0000 		.4byte	.LASF186
 3139 0883 65       		.byte	0x65
 3140 0884 12       		.uleb128 0x12
 3141 0885 5C050000 		.4byte	.LASF187
 3142 0889 66       		.byte	0x66
 3143 088a 12       		.uleb128 0x12
 3144 088b 270C0000 		.4byte	.LASF188
 3145 088f 67       		.byte	0x67
 3146 0890 12       		.uleb128 0x12
 3147 0891 DB0C0000 		.4byte	.LASF189
 3148 0895 68       		.byte	0x68
ARM GAS  C:\Users\haske\AppData\Local\Temp\ccLw7Foe.s 			page 78


 3149 0896 12       		.uleb128 0x12
 3150 0897 F7040000 		.4byte	.LASF190
 3151 089b 69       		.byte	0x69
 3152 089c 12       		.uleb128 0x12
 3153 089d 5D090000 		.4byte	.LASF191
 3154 08a1 6A       		.byte	0x6a
 3155 08a2 12       		.uleb128 0x12
 3156 08a3 72090000 		.4byte	.LASF192
 3157 08a7 6B       		.byte	0x6b
 3158 08a8 12       		.uleb128 0x12
 3159 08a9 A20F0000 		.4byte	.LASF193
 3160 08ad 6C       		.byte	0x6c
 3161 08ae 12       		.uleb128 0x12
 3162 08af 2A130000 		.4byte	.LASF194
 3163 08b3 6D       		.byte	0x6d
 3164 08b4 12       		.uleb128 0x12
 3165 08b5 44080000 		.4byte	.LASF195
 3166 08b9 6E       		.byte	0x6e
 3167 08ba 12       		.uleb128 0x12
 3168 08bb 5F080000 		.4byte	.LASF196
 3169 08bf 6F       		.byte	0x6f
 3170 08c0 12       		.uleb128 0x12
 3171 08c1 16030000 		.4byte	.LASF197
 3172 08c5 6F       		.byte	0x6f
 3173 08c6 12       		.uleb128 0x12
 3174 08c7 331D0000 		.4byte	.LASF198
 3175 08cb 70       		.byte	0x70
 3176 08cc 19       		.uleb128 0x19
 3177 08cd D51A0000 		.4byte	.LASF199
 3178 08d1 FFFF     		.2byte	0xffff
 3179 08d3 19       		.uleb128 0x19
 3180 08d4 AD140000 		.4byte	.LASF200
 3181 08d8 FFFF     		.2byte	0xffff
 3182 08da 00       		.byte	0
 3183 08db 1A       		.uleb128 0x1a
 3184 08dc 070D0000 		.4byte	.LASF201
 3185 08e0 0D       		.byte	0xd
 3186 08e1 1C01     		.2byte	0x11c
 3187 08e3 B6060000 		.4byte	0x6b6
 3188 08e7 1B       		.uleb128 0x1b
 3189 08e8 08       		.byte	0x8
 3190 08e9 0D       		.byte	0xd
 3191 08ea 3601     		.2byte	0x136
 3192 08ec 0B090000 		.4byte	0x90b
 3193 08f0 1C       		.uleb128 0x1c
 3194 08f1 5B0C0000 		.4byte	.LASF202
 3195 08f5 0D       		.byte	0xd
 3196 08f6 3701     		.2byte	0x137
 3197 08f8 DB080000 		.4byte	0x8db
 3198 08fc 00       		.byte	0
 3199 08fd 1C       		.uleb128 0x1c
 3200 08fe 290A0000 		.4byte	.LASF203
 3201 0902 0D       		.byte	0xd
 3202 0903 3801     		.2byte	0x138
 3203 0905 AB060000 		.4byte	0x6ab
 3204 0909 04       		.byte	0x4
 3205 090a 00       		.byte	0
ARM GAS  C:\Users\haske\AppData\Local\Temp\ccLw7Foe.s 			page 79


 3206 090b 1A       		.uleb128 0x1a
 3207 090c 590E0000 		.4byte	.LASF204
 3208 0910 0D       		.byte	0xd
 3209 0911 3901     		.2byte	0x139
 3210 0913 E7080000 		.4byte	0x8e7
 3211 0917 1D       		.uleb128 0x1d
 3212 0918 04       		.byte	0x4
 3213 0919 0D       		.byte	0xd
 3214 091a 4601     		.2byte	0x146
 3215 091c 45090000 		.4byte	0x945
 3216 0920 1E       		.uleb128 0x1e
 3217 0921 2C1A0000 		.4byte	.LASF205
 3218 0925 0D       		.byte	0xd
 3219 0926 4701     		.2byte	0x147
 3220 0928 AB060000 		.4byte	0x6ab
 3221 092c 1E       		.uleb128 0x1e
 3222 092d 330D0000 		.4byte	.LASF206
 3223 0931 0D       		.byte	0xd
 3224 0932 4801     		.2byte	0x148
 3225 0934 45090000 		.4byte	0x945
 3226 0938 1E       		.uleb128 0x1e
 3227 0939 600C0000 		.4byte	.LASF207
 3228 093d 0D       		.byte	0xd
 3229 093e 4901     		.2byte	0x149
 3230 0940 4B090000 		.4byte	0x94b
 3231 0944 00       		.byte	0
 3232 0945 0B       		.uleb128 0xb
 3233 0946 04       		.byte	0x4
 3234 0947 B8000000 		.4byte	0xb8
 3235 094b 0B       		.uleb128 0xb
 3236 094c 04       		.byte	0x4
 3237 094d 51090000 		.4byte	0x951
 3238 0951 0C       		.uleb128 0xc
 3239 0952 0B090000 		.4byte	0x90b
 3240 0956 1B       		.uleb128 0x1b
 3241 0957 08       		.byte	0x8
 3242 0958 0D       		.byte	0xd
 3243 0959 3E01     		.2byte	0x13e
 3244 095b 94090000 		.4byte	0x994
 3245 095f 1F       		.uleb128 0x1f
 3246 0960 765F7000 		.ascii	"v_p\000"
 3247 0964 0D       		.byte	0xd
 3248 0965 4A01     		.2byte	0x14a
 3249 0967 17090000 		.4byte	0x917
 3250 096b 00       		.byte	0
 3251 096c 1C       		.uleb128 0x1c
 3252 096d DC1D0000 		.4byte	.LASF208
 3253 0971 0D       		.byte	0xd
 3254 0972 4C01     		.2byte	0x14c
 3255 0974 CE000000 		.4byte	0xce
 3256 0978 04       		.byte	0x4
 3257 0979 1C       		.uleb128 0x1c
 3258 097a 43010000 		.4byte	.LASF209
 3259 097e 0D       		.byte	0xd
 3260 097f 4D01     		.2byte	0x14d
 3261 0981 B8000000 		.4byte	0xb8
 3262 0985 06       		.byte	0x6
ARM GAS  C:\Users\haske\AppData\Local\Temp\ccLw7Foe.s 			page 80


 3263 0986 1C       		.uleb128 0x1c
 3264 0987 00000000 		.4byte	.LASF210
 3265 098b 0D       		.byte	0xd
 3266 098c 4E01     		.2byte	0x14e
 3267 098e B8000000 		.4byte	0xb8
 3268 0992 07       		.byte	0x7
 3269 0993 00       		.byte	0
 3270 0994 1A       		.uleb128 0x1a
 3271 0995 410F0000 		.4byte	.LASF211
 3272 0999 0D       		.byte	0xd
 3273 099a 4F01     		.2byte	0x14f
 3274 099c 56090000 		.4byte	0x956
 3275 09a0 02       		.uleb128 0x2
 3276 09a1 F30F0000 		.4byte	.LASF212
 3277 09a5 0E       		.byte	0xe
 3278 09a6 69       		.byte	0x69
 3279 09a7 B8000000 		.4byte	0xb8
 3280 09ab 0B       		.uleb128 0xb
 3281 09ac 04       		.byte	0x4
 3282 09ad B1090000 		.4byte	0x9b1
 3283 09b1 0A       		.uleb128 0xa
 3284 09b2 941B0000 		.4byte	.LASF213
 3285 09b6 24       		.byte	0x24
 3286 09b7 0F       		.byte	0xf
 3287 09b8 AE       		.byte	0xae
 3288 09b9 780A0000 		.4byte	0xa78
 3289 09bd 07       		.uleb128 0x7
 3290 09be 34140000 		.4byte	.LASF214
 3291 09c2 0F       		.byte	0xf
 3292 09c3 AF       		.byte	0xaf
 3293 09c4 8B1C0000 		.4byte	0x1c8b
 3294 09c8 00       		.byte	0
 3295 09c9 07       		.uleb128 0x7
 3296 09ca 860E0000 		.4byte	.LASF215
 3297 09ce 0F       		.byte	0xf
 3298 09cf B0       		.byte	0xb0
 3299 09d0 AB090000 		.4byte	0x9ab
 3300 09d4 04       		.byte	0x4
 3301 09d5 07       		.uleb128 0x7
 3302 09d6 060B0000 		.4byte	.LASF216
 3303 09da 0F       		.byte	0xf
 3304 09db B1       		.byte	0xb1
 3305 09dc 961C0000 		.4byte	0x1c96
 3306 09e0 08       		.byte	0x8
 3307 09e1 07       		.uleb128 0x7
 3308 09e2 700F0000 		.4byte	.LASF217
 3309 09e6 0F       		.byte	0xf
 3310 09e7 B2       		.byte	0xb2
 3311 09e8 9C1C0000 		.4byte	0x1c9c
 3312 09ec 0C       		.byte	0xc
 3313 09ed 07       		.uleb128 0x7
 3314 09ee 7F200000 		.4byte	.LASF42
 3315 09f2 0F       		.byte	0xf
 3316 09f3 B4       		.byte	0xb4
 3317 09f4 E9020000 		.4byte	0x2e9
 3318 09f8 10       		.byte	0x10
 3319 09f9 07       		.uleb128 0x7
ARM GAS  C:\Users\haske\AppData\Local\Temp\ccLw7Foe.s 			page 81


 3320 09fa FE1C0000 		.4byte	.LASF218
 3321 09fe 0F       		.byte	0xf
 3322 09ff B6       		.byte	0xb6
 3323 0a00 69010000 		.4byte	0x169
 3324 0a04 14       		.byte	0x14
 3325 0a05 07       		.uleb128 0x7
 3326 0a06 2F0A0000 		.4byte	.LASF219
 3327 0a0a 0F       		.byte	0xf
 3328 0a0b B7       		.byte	0xb7
 3329 0a0c 72180000 		.4byte	0x1872
 3330 0a10 1C       		.byte	0x1c
 3331 0a11 07       		.uleb128 0x7
 3332 0a12 66020000 		.4byte	.LASF220
 3333 0a16 0F       		.byte	0xf
 3334 0a17 B8       		.byte	0xb8
 3335 0a18 67180000 		.4byte	0x1867
 3336 0a1c 20       		.byte	0x20
 3337 0a1d 09       		.uleb128 0x9
 3338 0a1e FF060000 		.4byte	.LASF221
 3339 0a22 0F       		.byte	0xf
 3340 0a23 B9       		.byte	0xb9
 3341 0a24 CE000000 		.4byte	0xce
 3342 0a28 02       		.byte	0x2
 3343 0a29 01       		.byte	0x1
 3344 0a2a 0F       		.byte	0xf
 3345 0a2b 22       		.byte	0x22
 3346 0a2c 09       		.uleb128 0x9
 3347 0a2d 89040000 		.4byte	.LASF222
 3348 0a31 0F       		.byte	0xf
 3349 0a32 BA       		.byte	0xba
 3350 0a33 CE000000 		.4byte	0xce
 3351 0a37 02       		.byte	0x2
 3352 0a38 01       		.byte	0x1
 3353 0a39 0E       		.byte	0xe
 3354 0a3a 22       		.byte	0x22
 3355 0a3b 09       		.uleb128 0x9
 3356 0a3c F7130000 		.4byte	.LASF223
 3357 0a40 0F       		.byte	0xf
 3358 0a41 BB       		.byte	0xbb
 3359 0a42 CE000000 		.4byte	0xce
 3360 0a46 02       		.byte	0x2
 3361 0a47 01       		.byte	0x1
 3362 0a48 0D       		.byte	0xd
 3363 0a49 22       		.byte	0x22
 3364 0a4a 09       		.uleb128 0x9
 3365 0a4b F5060000 		.4byte	.LASF224
 3366 0a4f 0F       		.byte	0xf
 3367 0a50 BC       		.byte	0xbc
 3368 0a51 CE000000 		.4byte	0xce
 3369 0a55 02       		.byte	0x2
 3370 0a56 06       		.byte	0x6
 3371 0a57 07       		.byte	0x7
 3372 0a58 22       		.byte	0x22
 3373 0a59 09       		.uleb128 0x9
 3374 0a5a 17090000 		.4byte	.LASF225
 3375 0a5e 0F       		.byte	0xf
 3376 0a5f BD       		.byte	0xbd
ARM GAS  C:\Users\haske\AppData\Local\Temp\ccLw7Foe.s 			page 82


 3377 0a60 CE000000 		.4byte	0xce
 3378 0a64 02       		.byte	0x2
 3379 0a65 01       		.byte	0x1
 3380 0a66 06       		.byte	0x6
 3381 0a67 22       		.byte	0x22
 3382 0a68 09       		.uleb128 0x9
 3383 0a69 5D040000 		.4byte	.LASF226
 3384 0a6d 0F       		.byte	0xf
 3385 0a6e BE       		.byte	0xbe
 3386 0a6f CE000000 		.4byte	0xce
 3387 0a73 02       		.byte	0x2
 3388 0a74 01       		.byte	0x1
 3389 0a75 05       		.byte	0x5
 3390 0a76 22       		.byte	0x22
 3391 0a77 00       		.byte	0
 3392 0a78 0B       		.uleb128 0xb
 3393 0a79 04       		.byte	0x4
 3394 0a7a C9030000 		.4byte	0x3c9
 3395 0a7e 05       		.uleb128 0x5
 3396 0a7f 38       		.byte	0x38
 3397 0a80 10       		.byte	0x10
 3398 0a81 20       		.byte	0x20
 3399 0a82 C50B0000 		.4byte	0xbc5
 3400 0a86 07       		.uleb128 0x7
 3401 0a87 91010000 		.4byte	.LASF227
 3402 0a8b 10       		.byte	0x10
 3403 0a8c 21       		.byte	0x21
 3404 0a8d 01010000 		.4byte	0x101
 3405 0a91 00       		.byte	0
 3406 0a92 07       		.uleb128 0x7
 3407 0a93 66040000 		.4byte	.LASF228
 3408 0a97 10       		.byte	0x10
 3409 0a98 22       		.byte	0x22
 3410 0a99 C4050000 		.4byte	0x5c4
 3411 0a9d 02       		.byte	0x2
 3412 0a9e 07       		.uleb128 0x7
 3413 0a9f B9050000 		.4byte	.LASF229
 3414 0aa3 10       		.byte	0x10
 3415 0aa4 25       		.byte	0x25
 3416 0aa5 D4030000 		.4byte	0x3d4
 3417 0aa9 03       		.byte	0x3
 3418 0aaa 07       		.uleb128 0x7
 3419 0aab 98010000 		.4byte	.LASF230
 3420 0aaf 10       		.byte	0x10
 3421 0ab0 26       		.byte	0x26
 3422 0ab1 C9030000 		.4byte	0x3c9
 3423 0ab5 04       		.byte	0x4
 3424 0ab6 07       		.uleb128 0x7
 3425 0ab7 621E0000 		.4byte	.LASF231
 3426 0abb 10       		.byte	0x10
 3427 0abc 27       		.byte	0x27
 3428 0abd 76060000 		.4byte	0x676
 3429 0ac1 06       		.byte	0x6
 3430 0ac2 07       		.uleb128 0x7
 3431 0ac3 80030000 		.4byte	.LASF232
 3432 0ac7 10       		.byte	0x10
 3433 0ac8 2A       		.byte	0x2a
ARM GAS  C:\Users\haske\AppData\Local\Temp\ccLw7Foe.s 			page 83


 3434 0ac9 E2020000 		.4byte	0x2e2
 3435 0acd 10       		.byte	0x10
 3436 0ace 07       		.uleb128 0x7
 3437 0acf B5210000 		.4byte	.LASF233
 3438 0ad3 10       		.byte	0x10
 3439 0ad4 2B       		.byte	0x2b
 3440 0ad5 E2020000 		.4byte	0x2e2
 3441 0ad9 14       		.byte	0x14
 3442 0ada 07       		.uleb128 0x7
 3443 0adb 251C0000 		.4byte	.LASF234
 3444 0adf 10       		.byte	0x10
 3445 0ae0 2C       		.byte	0x2c
 3446 0ae1 C9030000 		.4byte	0x3c9
 3447 0ae5 18       		.byte	0x18
 3448 0ae6 07       		.uleb128 0x7
 3449 0ae7 90070000 		.4byte	.LASF235
 3450 0aeb 10       		.byte	0x10
 3451 0aec 2D       		.byte	0x2d
 3452 0aed D4030000 		.4byte	0x3d4
 3453 0af1 1A       		.byte	0x1a
 3454 0af2 07       		.uleb128 0x7
 3455 0af3 23170000 		.4byte	.LASF236
 3456 0af7 10       		.byte	0x10
 3457 0af8 2E       		.byte	0x2e
 3458 0af9 D4030000 		.4byte	0x3d4
 3459 0afd 1B       		.byte	0x1b
 3460 0afe 07       		.uleb128 0x7
 3461 0aff 45070000 		.4byte	.LASF237
 3462 0b03 10       		.byte	0x10
 3463 0b04 2F       		.byte	0x2f
 3464 0b05 B8000000 		.4byte	0xb8
 3465 0b09 1C       		.byte	0x1c
 3466 0b0a 07       		.uleb128 0x7
 3467 0b0b 060C0000 		.4byte	.LASF238
 3468 0b0f 10       		.byte	0x10
 3469 0b10 32       		.byte	0x32
 3470 0b11 C9030000 		.4byte	0x3c9
 3471 0b15 1E       		.byte	0x1e
 3472 0b16 07       		.uleb128 0x7
 3473 0b17 5F190000 		.4byte	.LASF239
 3474 0b1b 10       		.byte	0x10
 3475 0b1c 33       		.byte	0x33
 3476 0b1d 01010000 		.4byte	0x101
 3477 0b21 20       		.byte	0x20
 3478 0b22 07       		.uleb128 0x7
 3479 0b23 0F1E0000 		.4byte	.LASF240
 3480 0b27 10       		.byte	0x10
 3481 0b28 34       		.byte	0x34
 3482 0b29 D4030000 		.4byte	0x3d4
 3483 0b2d 22       		.byte	0x22
 3484 0b2e 09       		.uleb128 0x9
 3485 0b2f 7C0C0000 		.4byte	.LASF241
 3486 0b33 10       		.byte	0x10
 3487 0b34 35       		.byte	0x35
 3488 0b35 B8000000 		.4byte	0xb8
 3489 0b39 01       		.byte	0x1
 3490 0b3a 01       		.byte	0x1
ARM GAS  C:\Users\haske\AppData\Local\Temp\ccLw7Foe.s 			page 84


 3491 0b3b 07       		.byte	0x7
 3492 0b3c 23       		.byte	0x23
 3493 0b3d 09       		.uleb128 0x9
 3494 0b3e 47040000 		.4byte	.LASF242
 3495 0b42 10       		.byte	0x10
 3496 0b43 36       		.byte	0x36
 3497 0b44 DA050000 		.4byte	0x5da
 3498 0b48 01       		.byte	0x1
 3499 0b49 05       		.byte	0x5
 3500 0b4a 02       		.byte	0x2
 3501 0b4b 23       		.byte	0x23
 3502 0b4c 07       		.uleb128 0x7
 3503 0b4d BD060000 		.4byte	.LASF243
 3504 0b51 10       		.byte	0x10
 3505 0b52 39       		.byte	0x39
 3506 0b53 C9030000 		.4byte	0x3c9
 3507 0b57 24       		.byte	0x24
 3508 0b58 07       		.uleb128 0x7
 3509 0b59 C9150000 		.4byte	.LASF244
 3510 0b5d 10       		.byte	0x10
 3511 0b5e 3A       		.byte	0x3a
 3512 0b5f 01010000 		.4byte	0x101
 3513 0b63 26       		.byte	0x26
 3514 0b64 07       		.uleb128 0x7
 3515 0b65 C10B0000 		.4byte	.LASF245
 3516 0b69 10       		.byte	0x10
 3517 0b6a 3B       		.byte	0x3b
 3518 0b6b 01010000 		.4byte	0x101
 3519 0b6f 28       		.byte	0x28
 3520 0b70 07       		.uleb128 0x7
 3521 0b71 1A150000 		.4byte	.LASF246
 3522 0b75 10       		.byte	0x10
 3523 0b76 3C       		.byte	0x3c
 3524 0b77 D4030000 		.4byte	0x3d4
 3525 0b7b 2A       		.byte	0x2a
 3526 0b7c 07       		.uleb128 0x7
 3527 0b7d D4120000 		.4byte	.LASF247
 3528 0b81 10       		.byte	0x10
 3529 0b82 3F       		.byte	0x3f
 3530 0b83 C9030000 		.4byte	0x3c9
 3531 0b87 2C       		.byte	0x2c
 3532 0b88 07       		.uleb128 0x7
 3533 0b89 CF1F0000 		.4byte	.LASF248
 3534 0b8d 10       		.byte	0x10
 3535 0b8e 40       		.byte	0x40
 3536 0b8f 01010000 		.4byte	0x101
 3537 0b93 2E       		.byte	0x2e
 3538 0b94 07       		.uleb128 0x7
 3539 0b95 CE0C0000 		.4byte	.LASF249
 3540 0b99 10       		.byte	0x10
 3541 0b9a 41       		.byte	0x41
 3542 0b9b 01010000 		.4byte	0x101
 3543 0b9f 30       		.byte	0x30
 3544 0ba0 07       		.uleb128 0x7
 3545 0ba1 C8210000 		.4byte	.LASF250
 3546 0ba5 10       		.byte	0x10
 3547 0ba6 42       		.byte	0x42
ARM GAS  C:\Users\haske\AppData\Local\Temp\ccLw7Foe.s 			page 85


 3548 0ba7 01010000 		.4byte	0x101
 3549 0bab 32       		.byte	0x32
 3550 0bac 07       		.uleb128 0x7
 3551 0bad C80E0000 		.4byte	.LASF251
 3552 0bb1 10       		.byte	0x10
 3553 0bb2 43       		.byte	0x43
 3554 0bb3 01010000 		.4byte	0x101
 3555 0bb7 34       		.byte	0x34
 3556 0bb8 07       		.uleb128 0x7
 3557 0bb9 AF1C0000 		.4byte	.LASF252
 3558 0bbd 10       		.byte	0x10
 3559 0bbe 44       		.byte	0x44
 3560 0bbf D4030000 		.4byte	0x3d4
 3561 0bc3 36       		.byte	0x36
 3562 0bc4 00       		.byte	0
 3563 0bc5 02       		.uleb128 0x2
 3564 0bc6 BD180000 		.4byte	.LASF253
 3565 0bca 10       		.byte	0x10
 3566 0bcb 45       		.byte	0x45
 3567 0bcc 7E0A0000 		.4byte	0xa7e
 3568 0bd0 05       		.uleb128 0x5
 3569 0bd1 20       		.byte	0x20
 3570 0bd2 11       		.byte	0x11
 3571 0bd3 1E       		.byte	0x1e
 3572 0bd4 9F0C0000 		.4byte	0xc9f
 3573 0bd8 07       		.uleb128 0x7
 3574 0bd9 9E1B0000 		.4byte	.LASF254
 3575 0bdd 11       		.byte	0x11
 3576 0bde 1F       		.byte	0x1f
 3577 0bdf 9F0C0000 		.4byte	0xc9f
 3578 0be3 00       		.byte	0
 3579 0be4 07       		.uleb128 0x7
 3580 0be5 201F0000 		.4byte	.LASF255
 3581 0be9 11       		.byte	0x11
 3582 0bea 20       		.byte	0x20
 3583 0beb E4000000 		.4byte	0xe4
 3584 0bef 04       		.byte	0x4
 3585 0bf0 07       		.uleb128 0x7
 3586 0bf1 A5140000 		.4byte	.LASF256
 3587 0bf5 11       		.byte	0x11
 3588 0bf6 21       		.byte	0x21
 3589 0bf7 E4000000 		.4byte	0xe4
 3590 0bfb 08       		.byte	0x8
 3591 0bfc 07       		.uleb128 0x7
 3592 0bfd 1B1B0000 		.4byte	.LASF104
 3593 0c01 11       		.byte	0x11
 3594 0c02 22       		.byte	0x22
 3595 0c03 C9030000 		.4byte	0x3c9
 3596 0c07 0C       		.byte	0xc
 3597 0c08 07       		.uleb128 0x7
 3598 0c09 AB210000 		.4byte	.LASF257
 3599 0c0d 11       		.byte	0x11
 3600 0c0e 23       		.byte	0x23
 3601 0c0f C9030000 		.4byte	0x3c9
 3602 0c13 0E       		.byte	0xe
 3603 0c14 07       		.uleb128 0x7
 3604 0c15 EA050000 		.4byte	.LASF258
ARM GAS  C:\Users\haske\AppData\Local\Temp\ccLw7Foe.s 			page 86


 3605 0c19 11       		.byte	0x11
 3606 0c1a 24       		.byte	0x24
 3607 0c1b C9030000 		.4byte	0x3c9
 3608 0c1f 10       		.byte	0x10
 3609 0c20 07       		.uleb128 0x7
 3610 0c21 3A1B0000 		.4byte	.LASF259
 3611 0c25 11       		.byte	0x11
 3612 0c26 25       		.byte	0x25
 3613 0c27 01010000 		.4byte	0x101
 3614 0c2b 12       		.byte	0x12
 3615 0c2c 07       		.uleb128 0x7
 3616 0c2d A31B0000 		.4byte	.LASF260
 3617 0c31 11       		.byte	0x11
 3618 0c32 26       		.byte	0x26
 3619 0c33 01010000 		.4byte	0x101
 3620 0c37 14       		.byte	0x14
 3621 0c38 07       		.uleb128 0x7
 3622 0c39 E7080000 		.4byte	.LASF31
 3623 0c3d 11       		.byte	0x11
 3624 0c3e 27       		.byte	0x27
 3625 0c3f 01010000 		.4byte	0x101
 3626 0c43 16       		.byte	0x16
 3627 0c44 07       		.uleb128 0x7
 3628 0c45 ED080000 		.4byte	.LASF32
 3629 0c49 11       		.byte	0x11
 3630 0c4a 28       		.byte	0x28
 3631 0c4b 01010000 		.4byte	0x101
 3632 0c4f 18       		.byte	0x18
 3633 0c50 06       		.uleb128 0x6
 3634 0c51 6F706100 		.ascii	"opa\000"
 3635 0c55 11       		.byte	0x11
 3636 0c56 29       		.byte	0x29
 3637 0c57 D4030000 		.4byte	0x3d4
 3638 0c5b 1A       		.byte	0x1a
 3639 0c5c 07       		.uleb128 0x7
 3640 0c5d B5010000 		.4byte	.LASF261
 3641 0c61 11       		.byte	0x11
 3642 0c62 2A       		.byte	0x2a
 3643 0c63 B9050000 		.4byte	0x5b9
 3644 0c67 1B       		.byte	0x1b
 3645 0c68 07       		.uleb128 0x7
 3646 0c69 C3130000 		.4byte	.LASF262
 3647 0c6d 11       		.byte	0x11
 3648 0c6e 2B       		.byte	0x2b
 3649 0c6f AE050000 		.4byte	0x5ae
 3650 0c73 1C       		.byte	0x1c
 3651 0c74 07       		.uleb128 0x7
 3652 0c75 DE140000 		.4byte	.LASF263
 3653 0c79 11       		.byte	0x11
 3654 0c7a 2C       		.byte	0x2c
 3655 0c7b A3050000 		.4byte	0x5a3
 3656 0c7f 1D       		.byte	0x1d
 3657 0c80 09       		.uleb128 0x9
 3658 0c81 571A0000 		.4byte	.LASF264
 3659 0c85 11       		.byte	0x11
 3660 0c86 2D       		.byte	0x2d
 3661 0c87 CF050000 		.4byte	0x5cf
ARM GAS  C:\Users\haske\AppData\Local\Temp\ccLw7Foe.s 			page 87


 3662 0c8b 01       		.byte	0x1
 3663 0c8c 03       		.byte	0x3
 3664 0c8d 05       		.byte	0x5
 3665 0c8e 1E       		.byte	0x1e
 3666 0c8f 09       		.uleb128 0x9
 3667 0c90 66040000 		.4byte	.LASF228
 3668 0c94 11       		.byte	0x11
 3669 0c95 2E       		.byte	0x2e
 3670 0c96 C4050000 		.4byte	0x5c4
 3671 0c9a 01       		.byte	0x1
 3672 0c9b 03       		.byte	0x3
 3673 0c9c 02       		.byte	0x2
 3674 0c9d 1E       		.byte	0x1e
 3675 0c9e 00       		.byte	0
 3676 0c9f 0B       		.uleb128 0xb
 3677 0ca0 04       		.byte	0x4
 3678 0ca1 A50C0000 		.4byte	0xca5
 3679 0ca5 0C       		.uleb128 0xc
 3680 0ca6 EB020000 		.4byte	0x2eb
 3681 0caa 02       		.uleb128 0x2
 3682 0cab CB050000 		.4byte	.LASF265
 3683 0caf 11       		.byte	0x11
 3684 0cb0 2F       		.byte	0x2f
 3685 0cb1 D00B0000 		.4byte	0xbd0
 3686 0cb5 05       		.uleb128 0x5
 3687 0cb6 18       		.byte	0x18
 3688 0cb7 12       		.byte	0x12
 3689 0cb8 20       		.byte	0x20
 3690 0cb9 300D0000 		.4byte	0xd30
 3691 0cbd 07       		.uleb128 0x7
 3692 0cbe 65110000 		.4byte	.LASF266
 3693 0cc2 12       		.byte	0x12
 3694 0cc3 22       		.byte	0x22
 3695 0cc4 C3000000 		.4byte	0xc3
 3696 0cc8 00       		.byte	0
 3697 0cc9 07       		.uleb128 0x7
 3698 0cca 99020000 		.4byte	.LASF267
 3699 0cce 12       		.byte	0x12
 3700 0ccf 23       		.byte	0x23
 3701 0cd0 CE000000 		.4byte	0xce
 3702 0cd4 02       		.byte	0x2
 3703 0cd5 07       		.uleb128 0x7
 3704 0cd6 111A0000 		.4byte	.LASF268
 3705 0cda 12       		.byte	0x12
 3706 0cdb 24       		.byte	0x24
 3707 0cdc 29010000 		.4byte	0x129
 3708 0ce0 04       		.byte	0x4
 3709 0ce1 07       		.uleb128 0x7
 3710 0ce2 3E110000 		.4byte	.LASF269
 3711 0ce6 12       		.byte	0x12
 3712 0ce7 26       		.byte	0x26
 3713 0ce8 C9030000 		.4byte	0x3c9
 3714 0cec 08       		.byte	0x8
 3715 0ced 07       		.uleb128 0x7
 3716 0cee 70150000 		.4byte	.LASF270
 3717 0cf2 12       		.byte	0x12
 3718 0cf3 27       		.byte	0x27
ARM GAS  C:\Users\haske\AppData\Local\Temp\ccLw7Foe.s 			page 88


 3719 0cf4 D4030000 		.4byte	0x3d4
 3720 0cf8 0A       		.byte	0xa
 3721 0cf9 06       		.uleb128 0x6
 3722 0cfa 6F706100 		.ascii	"opa\000"
 3723 0cfe 12       		.byte	0x12
 3724 0cff 29       		.byte	0x29
 3725 0d00 D4030000 		.4byte	0x3d4
 3726 0d04 0B       		.byte	0xb
 3727 0d05 09       		.uleb128 0x9
 3728 0d06 66040000 		.4byte	.LASF228
 3729 0d0a 12       		.byte	0x12
 3730 0d0b 2A       		.byte	0x2a
 3731 0d0c C4050000 		.4byte	0x5c4
 3732 0d10 01       		.byte	0x1
 3733 0d11 04       		.byte	0x4
 3734 0d12 04       		.byte	0x4
 3735 0d13 0C       		.byte	0xc
 3736 0d14 07       		.uleb128 0x7
 3737 0d15 5D150000 		.4byte	.LASF271
 3738 0d19 12       		.byte	0x12
 3739 0d1a 2C       		.byte	0x2c
 3740 0d1b D9000000 		.4byte	0xd9
 3741 0d1f 10       		.byte	0x10
 3742 0d20 09       		.uleb128 0x9
 3743 0d21 26160000 		.4byte	.LASF272
 3744 0d25 12       		.byte	0x12
 3745 0d26 2D       		.byte	0x2d
 3746 0d27 B8000000 		.4byte	0xb8
 3747 0d2b 01       		.byte	0x1
 3748 0d2c 01       		.byte	0x1
 3749 0d2d 07       		.byte	0x7
 3750 0d2e 14       		.byte	0x14
 3751 0d2f 00       		.byte	0
 3752 0d30 02       		.uleb128 0x2
 3753 0d31 630A0000 		.4byte	.LASF273
 3754 0d35 12       		.byte	0x12
 3755 0d36 2E       		.byte	0x2e
 3756 0d37 B50C0000 		.4byte	0xcb5
 3757 0d3b 05       		.uleb128 0x5
 3758 0d3c 0A       		.byte	0xa
 3759 0d3d 13       		.byte	0x13
 3760 0d3e 1C       		.byte	0x1c
 3761 0d3f BC0D0000 		.4byte	0xdbc
 3762 0d43 07       		.uleb128 0x7
 3763 0d44 1B1B0000 		.4byte	.LASF104
 3764 0d48 13       		.byte	0x13
 3765 0d49 1D       		.byte	0x1d
 3766 0d4a C9030000 		.4byte	0x3c9
 3767 0d4e 00       		.byte	0
 3768 0d4f 07       		.uleb128 0x7
 3769 0d50 E9120000 		.4byte	.LASF274
 3770 0d54 13       		.byte	0x13
 3771 0d55 1E       		.byte	0x1e
 3772 0d56 01010000 		.4byte	0x101
 3773 0d5a 02       		.byte	0x2
 3774 0d5b 07       		.uleb128 0x7
 3775 0d5c 61100000 		.4byte	.LASF275
ARM GAS  C:\Users\haske\AppData\Local\Temp\ccLw7Foe.s 			page 89


 3776 0d60 13       		.byte	0x13
 3777 0d61 1F       		.byte	0x1f
 3778 0d62 01010000 		.4byte	0x101
 3779 0d66 04       		.byte	0x4
 3780 0d67 07       		.uleb128 0x7
 3781 0d68 BB0A0000 		.4byte	.LASF276
 3782 0d6c 13       		.byte	0x13
 3783 0d6d 20       		.byte	0x20
 3784 0d6e 01010000 		.4byte	0x101
 3785 0d72 06       		.byte	0x6
 3786 0d73 06       		.uleb128 0x6
 3787 0d74 6F706100 		.ascii	"opa\000"
 3788 0d78 13       		.byte	0x13
 3789 0d79 21       		.byte	0x21
 3790 0d7a D4030000 		.4byte	0x3d4
 3791 0d7e 08       		.byte	0x8
 3792 0d7f 09       		.uleb128 0x9
 3793 0d80 66040000 		.4byte	.LASF228
 3794 0d84 13       		.byte	0x13
 3795 0d85 22       		.byte	0x22
 3796 0d86 C4050000 		.4byte	0x5c4
 3797 0d8a 01       		.byte	0x1
 3798 0d8b 02       		.byte	0x2
 3799 0d8c 06       		.byte	0x6
 3800 0d8d 09       		.byte	0x9
 3801 0d8e 09       		.uleb128 0x9
 3802 0d8f 170D0000 		.4byte	.LASF277
 3803 0d93 13       		.byte	0x13
 3804 0d94 23       		.byte	0x23
 3805 0d95 B8000000 		.4byte	0xb8
 3806 0d99 01       		.byte	0x1
 3807 0d9a 01       		.byte	0x1
 3808 0d9b 05       		.byte	0x5
 3809 0d9c 09       		.byte	0x9
 3810 0d9d 09       		.uleb128 0x9
 3811 0d9e 9A0E0000 		.4byte	.LASF278
 3812 0da2 13       		.byte	0x13
 3813 0da3 24       		.byte	0x24
 3814 0da4 B8000000 		.4byte	0xb8
 3815 0da8 01       		.byte	0x1
 3816 0da9 01       		.byte	0x1
 3817 0daa 04       		.byte	0x4
 3818 0dab 09       		.byte	0x9
 3819 0dac 09       		.uleb128 0x9
 3820 0dad 03010000 		.4byte	.LASF279
 3821 0db1 13       		.byte	0x13
 3822 0db2 25       		.byte	0x25
 3823 0db3 B8000000 		.4byte	0xb8
 3824 0db7 01       		.byte	0x1
 3825 0db8 01       		.byte	0x1
 3826 0db9 03       		.byte	0x3
 3827 0dba 09       		.byte	0x9
 3828 0dbb 00       		.byte	0
 3829 0dbc 02       		.uleb128 0x2
 3830 0dbd 31080000 		.4byte	.LASF280
 3831 0dc1 13       		.byte	0x13
 3832 0dc2 26       		.byte	0x26
ARM GAS  C:\Users\haske\AppData\Local\Temp\ccLw7Foe.s 			page 90


 3833 0dc3 3B0D0000 		.4byte	0xd3b
 3834 0dc7 05       		.uleb128 0x5
 3835 0dc8 10       		.byte	0x10
 3836 0dc9 14       		.byte	0x14
 3837 0dca 1C       		.byte	0x1c
 3838 0dcb 360E0000 		.4byte	0xe36
 3839 0dcf 07       		.uleb128 0x7
 3840 0dd0 1B1B0000 		.4byte	.LASF104
 3841 0dd4 14       		.byte	0x14
 3842 0dd5 1D       		.byte	0x1d
 3843 0dd6 C9030000 		.4byte	0x3c9
 3844 0dda 00       		.byte	0
 3845 0ddb 07       		.uleb128 0x7
 3846 0ddc E9120000 		.4byte	.LASF274
 3847 0de0 14       		.byte	0x14
 3848 0de1 1E       		.byte	0x1e
 3849 0de2 01010000 		.4byte	0x101
 3850 0de6 02       		.byte	0x2
 3851 0de7 07       		.uleb128 0x7
 3852 0de8 11100000 		.4byte	.LASF281
 3853 0dec 14       		.byte	0x14
 3854 0ded 1F       		.byte	0x1f
 3855 0dee CE000000 		.4byte	0xce
 3856 0df2 04       		.byte	0x4
 3857 0df3 07       		.uleb128 0x7
 3858 0df4 81070000 		.4byte	.LASF282
 3859 0df8 14       		.byte	0x14
 3860 0df9 20       		.byte	0x20
 3861 0dfa CE000000 		.4byte	0xce
 3862 0dfe 06       		.byte	0x6
 3863 0dff 07       		.uleb128 0x7
 3864 0e00 B70E0000 		.4byte	.LASF283
 3865 0e04 14       		.byte	0x14
 3866 0e05 21       		.byte	0x21
 3867 0e06 E2020000 		.4byte	0x2e2
 3868 0e0a 08       		.byte	0x8
 3869 0e0b 06       		.uleb128 0x6
 3870 0e0c 6F706100 		.ascii	"opa\000"
 3871 0e10 14       		.byte	0x14
 3872 0e11 22       		.byte	0x22
 3873 0e12 D4030000 		.4byte	0x3d4
 3874 0e16 0C       		.byte	0xc
 3875 0e17 09       		.uleb128 0x9
 3876 0e18 66040000 		.4byte	.LASF228
 3877 0e1c 14       		.byte	0x14
 3878 0e1d 23       		.byte	0x23
 3879 0e1e C4050000 		.4byte	0x5c4
 3880 0e22 01       		.byte	0x1
 3881 0e23 02       		.byte	0x2
 3882 0e24 06       		.byte	0x6
 3883 0e25 0D       		.byte	0xd
 3884 0e26 09       		.uleb128 0x9
 3885 0e27 0E030000 		.4byte	.LASF284
 3886 0e2b 14       		.byte	0x14
 3887 0e2c 24       		.byte	0x24
 3888 0e2d B8000000 		.4byte	0xb8
 3889 0e31 01       		.byte	0x1
ARM GAS  C:\Users\haske\AppData\Local\Temp\ccLw7Foe.s 			page 91


 3890 0e32 01       		.byte	0x1
 3891 0e33 05       		.byte	0x5
 3892 0e34 0D       		.byte	0xd
 3893 0e35 00       		.byte	0
 3894 0e36 02       		.uleb128 0x2
 3895 0e37 DA1B0000 		.4byte	.LASF285
 3896 0e3b 14       		.byte	0x14
 3897 0e3c 25       		.byte	0x25
 3898 0e3d C70D0000 		.4byte	0xdc7
 3899 0e41 0B       		.uleb128 0xb
 3900 0e42 04       		.byte	0x4
 3901 0e43 D4030000 		.4byte	0x3d4
 3902 0e47 11       		.uleb128 0x11
 3903 0e48 01       		.byte	0x1
 3904 0e49 42000000 		.4byte	0x42
 3905 0e4d 15       		.byte	0x15
 3906 0e4e 1C       		.byte	0x1c
 3907 0e4f 660E0000 		.4byte	0xe66
 3908 0e53 12       		.uleb128 0x12
 3909 0e54 43130000 		.4byte	.LASF286
 3910 0e58 00       		.byte	0
 3911 0e59 12       		.uleb128 0x12
 3912 0e5a 0D020000 		.4byte	.LASF287
 3913 0e5e 01       		.byte	0x1
 3914 0e5f 12       		.uleb128 0x12
 3915 0e60 36170000 		.4byte	.LASF288
 3916 0e64 02       		.byte	0x2
 3917 0e65 00       		.byte	0
 3918 0e66 02       		.uleb128 0x2
 3919 0e67 350A0000 		.4byte	.LASF289
 3920 0e6b 15       		.byte	0x15
 3921 0e6c 20       		.byte	0x20
 3922 0e6d 470E0000 		.4byte	0xe47
 3923 0e71 05       		.uleb128 0x5
 3924 0e72 10       		.byte	0x10
 3925 0e73 16       		.byte	0x16
 3926 0e74 33       		.byte	0x33
 3927 0e75 AA0E0000 		.4byte	0xeaa
 3928 0e79 07       		.uleb128 0x7
 3929 0e7a 8A140000 		.4byte	.LASF290
 3930 0e7e 16       		.byte	0x16
 3931 0e7f 34       		.byte	0x34
 3932 0e80 AA0E0000 		.4byte	0xeaa
 3933 0e84 00       		.byte	0
 3934 0e85 07       		.uleb128 0x7
 3935 0e86 25110000 		.4byte	.LASF291
 3936 0e8a 16       		.byte	0x16
 3937 0e8b 35       		.byte	0x35
 3938 0e8c B50E0000 		.4byte	0xeb5
 3939 0e90 04       		.byte	0x4
 3940 0e91 06       		.uleb128 0x6
 3941 0e92 62756600 		.ascii	"buf\000"
 3942 0e96 16       		.byte	0x16
 3943 0e97 36       		.byte	0x36
 3944 0e98 E9020000 		.4byte	0x2e9
 3945 0e9c 08       		.byte	0x8
 3946 0e9d 07       		.uleb128 0x7
ARM GAS  C:\Users\haske\AppData\Local\Temp\ccLw7Foe.s 			page 92


 3947 0e9e EA1C0000 		.4byte	.LASF292
 3948 0ea2 16       		.byte	0x16
 3949 0ea3 37       		.byte	0x37
 3950 0ea4 AA020000 		.4byte	0x2aa
 3951 0ea8 0C       		.byte	0xc
 3952 0ea9 00       		.byte	0
 3953 0eaa 0B       		.uleb128 0xb
 3954 0eab 04       		.byte	0x4
 3955 0eac B00E0000 		.4byte	0xeb0
 3956 0eb0 0C       		.uleb128 0xc
 3957 0eb1 69010000 		.4byte	0x169
 3958 0eb5 0B       		.uleb128 0xb
 3959 0eb6 04       		.byte	0x4
 3960 0eb7 69010000 		.4byte	0x169
 3961 0ebb 0A       		.uleb128 0xa
 3962 0ebc 05150000 		.4byte	.LASF293
 3963 0ec0 28       		.byte	0x28
 3964 0ec1 16       		.byte	0x16
 3965 0ec2 2D       		.byte	0x2d
 3966 0ec3 100F0000 		.4byte	0xf10
 3967 0ec7 07       		.uleb128 0x7
 3968 0ec8 C2140000 		.4byte	.LASF294
 3969 0ecc 16       		.byte	0x16
 3970 0ecd 2E       		.byte	0x2e
 3971 0ece 69010000 		.4byte	0x169
 3972 0ed2 00       		.byte	0
 3973 0ed3 07       		.uleb128 0x7
 3974 0ed4 AE080000 		.4byte	.LASF295
 3975 0ed8 16       		.byte	0x16
 3976 0ed9 2F       		.byte	0x2f
 3977 0eda 69010000 		.4byte	0x169
 3978 0ede 08       		.byte	0x8
 3979 0edf 07       		.uleb128 0x7
 3980 0ee0 36150000 		.4byte	.LASF296
 3981 0ee4 16       		.byte	0x16
 3982 0ee5 30       		.byte	0x30
 3983 0ee6 01010000 		.4byte	0x101
 3984 0eea 10       		.byte	0x10
 3985 0eeb 07       		.uleb128 0x7
 3986 0eec 18180000 		.4byte	.LASF297
 3987 0ef0 16       		.byte	0x16
 3988 0ef1 31       		.byte	0x31
 3989 0ef2 01010000 		.4byte	0x101
 3990 0ef6 12       		.byte	0x12
 3991 0ef7 06       		.uleb128 0x6
 3992 0ef8 62756600 		.ascii	"buf\000"
 3993 0efc 16       		.byte	0x16
 3994 0efd 32       		.byte	0x32
 3995 0efe E9020000 		.4byte	0x2e9
 3996 0f02 14       		.byte	0x14
 3997 0f03 07       		.uleb128 0x7
 3998 0f04 54090000 		.4byte	.LASF298
 3999 0f08 16       		.byte	0x16
 4000 0f09 38       		.byte	0x38
 4001 0f0a 710E0000 		.4byte	0xe71
 4002 0f0e 18       		.byte	0x18
 4003 0f0f 00       		.byte	0
ARM GAS  C:\Users\haske\AppData\Local\Temp\ccLw7Foe.s 			page 93


 4004 0f10 02       		.uleb128 0x2
 4005 0f11 FD1A0000 		.4byte	.LASF299
 4006 0f15 16       		.byte	0x16
 4007 0f16 39       		.byte	0x39
 4008 0f17 BB0E0000 		.4byte	0xebb
 4009 0f1b 0A       		.uleb128 0xa
 4010 0f1c 3B030000 		.4byte	.LASF300
 4011 0f20 54       		.byte	0x54
 4012 0f21 16       		.byte	0x16
 4013 0f22 3B       		.byte	0x3b
 4014 0f23 24100000 		.4byte	0x1024
 4015 0f27 06       		.uleb128 0x6
 4016 0f28 62756600 		.ascii	"buf\000"
 4017 0f2c 16       		.byte	0x16
 4018 0f2d 3F       		.byte	0x3f
 4019 0f2e E9020000 		.4byte	0x2e9
 4020 0f32 00       		.byte	0
 4021 0f33 07       		.uleb128 0x7
 4022 0f34 25110000 		.4byte	.LASF291
 4023 0f38 16       		.byte	0x16
 4024 0f39 44       		.byte	0x44
 4025 0f3a B50E0000 		.4byte	0xeb5
 4026 0f3e 04       		.byte	0x4
 4027 0f3f 07       		.uleb128 0x7
 4028 0f40 8A140000 		.4byte	.LASF290
 4029 0f44 16       		.byte	0x16
 4030 0f45 49       		.byte	0x49
 4031 0f46 AA0E0000 		.4byte	0xeaa
 4032 0f4a 08       		.byte	0x8
 4033 0f4b 07       		.uleb128 0x7
 4034 0f4c F6020000 		.4byte	.LASF301
 4035 0f50 16       		.byte	0x16
 4036 0f51 4B       		.byte	0x4b
 4037 0f52 35100000 		.4byte	0x1035
 4038 0f56 0C       		.byte	0xc
 4039 0f57 07       		.uleb128 0x7
 4040 0f58 A7020000 		.4byte	.LASF302
 4041 0f5c 16       		.byte	0x16
 4042 0f5d 4D       		.byte	0x4d
 4043 0f5e 5B100000 		.4byte	0x105b
 4044 0f62 10       		.byte	0x10
 4045 0f63 07       		.uleb128 0x7
 4046 0f64 C8100000 		.4byte	.LASF303
 4047 0f68 16       		.byte	0x16
 4048 0f69 4F       		.byte	0x4f
 4049 0f6a 9B100000 		.4byte	0x109b
 4050 0f6e 14       		.byte	0x14
 4051 0f6f 07       		.uleb128 0x7
 4052 0f70 E5110000 		.4byte	.LASF304
 4053 0f74 16       		.byte	0x16
 4054 0f75 52       		.byte	0x52
 4055 0f76 CB100000 		.4byte	0x10cb
 4056 0f7a 18       		.byte	0x18
 4057 0f7b 07       		.uleb128 0x7
 4058 0f7c A61E0000 		.4byte	.LASF305
 4059 0f80 16       		.byte	0x16
 4060 0f81 55       		.byte	0x55
ARM GAS  C:\Users\haske\AppData\Local\Temp\ccLw7Foe.s 			page 94


 4061 0f82 EF100000 		.4byte	0x10ef
 4062 0f86 1C       		.byte	0x1c
 4063 0f87 07       		.uleb128 0x7
 4064 0f88 11190000 		.4byte	.LASF306
 4065 0f8c 16       		.byte	0x16
 4066 0f8d 58       		.byte	0x58
 4067 0f8e 1A110000 		.4byte	0x111a
 4068 0f92 20       		.byte	0x20
 4069 0f93 07       		.uleb128 0x7
 4070 0f94 1E070000 		.4byte	.LASF307
 4071 0f98 16       		.byte	0x16
 4072 0f99 5C       		.byte	0x5c
 4073 0f9a 45110000 		.4byte	0x1145
 4074 0f9e 24       		.byte	0x24
 4075 0f9f 07       		.uleb128 0x7
 4076 0fa0 ED1E0000 		.4byte	.LASF308
 4077 0fa4 16       		.byte	0x16
 4078 0fa5 60       		.byte	0x60
 4079 0fa6 65110000 		.4byte	0x1165
 4080 0faa 28       		.byte	0x28
 4081 0fab 07       		.uleb128 0x7
 4082 0fac C40A0000 		.4byte	.LASF309
 4083 0fb0 16       		.byte	0x16
 4084 0fb1 71       		.byte	0x71
 4085 0fb2 A3110000 		.4byte	0x11a3
 4086 0fb6 2C       		.byte	0x2c
 4087 0fb7 07       		.uleb128 0x7
 4088 0fb8 E1000000 		.4byte	.LASF310
 4089 0fbc 16       		.byte	0x16
 4090 0fbd 78       		.byte	0x78
 4091 0fbe 5B100000 		.4byte	0x105b
 4092 0fc2 30       		.byte	0x30
 4093 0fc3 07       		.uleb128 0x7
 4094 0fc4 08170000 		.4byte	.LASF311
 4095 0fc8 16       		.byte	0x16
 4096 0fc9 7D       		.byte	0x7d
 4097 0fca 35100000 		.4byte	0x1035
 4098 0fce 34       		.byte	0x34
 4099 0fcf 07       		.uleb128 0x7
 4100 0fd0 B1060000 		.4byte	.LASF312
 4101 0fd4 16       		.byte	0x16
 4102 0fd5 8D       		.byte	0x8d
 4103 0fd6 D2110000 		.4byte	0x11d2
 4104 0fda 38       		.byte	0x38
 4105 0fdb 07       		.uleb128 0x7
 4106 0fdc A50D0000 		.4byte	.LASF313
 4107 0fe0 16       		.byte	0x16
 4108 0fe1 99       		.byte	0x99
 4109 0fe2 F7110000 		.4byte	0x11f7
 4110 0fe6 3C       		.byte	0x3c
 4111 0fe7 07       		.uleb128 0x7
 4112 0fe8 811A0000 		.4byte	.LASF314
 4113 0fec 16       		.byte	0x16
 4114 0fed A3       		.byte	0xa3
 4115 0fee 12120000 		.4byte	0x1212
 4116 0ff2 40       		.byte	0x40
 4117 0ff3 07       		.uleb128 0x7
ARM GAS  C:\Users\haske\AppData\Local\Temp\ccLw7Foe.s 			page 95


 4118 0ff4 451B0000 		.4byte	.LASF315
 4119 0ff8 16       		.byte	0x16
 4120 0ff9 AC       		.byte	0xac
 4121 0ffa 2D120000 		.4byte	0x122d
 4122 0ffe 44       		.byte	0x44
 4123 0fff 07       		.uleb128 0x7
 4124 1000 3D100000 		.4byte	.LASF316
 4125 1004 16       		.byte	0x16
 4126 1005 B5       		.byte	0xb5
 4127 1006 49120000 		.4byte	0x1249
 4128 100a 48       		.byte	0x48
 4129 100b 07       		.uleb128 0x7
 4130 100c 9B0A0000 		.4byte	.LASF317
 4131 1010 16       		.byte	0x16
 4132 1011 BA       		.byte	0xba
 4133 1012 EF000000 		.4byte	0xef
 4134 1016 4C       		.byte	0x4c
 4135 1017 07       		.uleb128 0x7
 4136 1018 7F200000 		.4byte	.LASF42
 4137 101c 16       		.byte	0x16
 4138 101d BD       		.byte	0xbd
 4139 101e E9020000 		.4byte	0x2e9
 4140 1022 50       		.byte	0x50
 4141 1023 00       		.byte	0
 4142 1024 16       		.uleb128 0x16
 4143 1025 2F100000 		.4byte	0x102f
 4144 1029 0E       		.uleb128 0xe
 4145 102a 2F100000 		.4byte	0x102f
 4146 102e 00       		.byte	0
 4147 102f 0B       		.uleb128 0xb
 4148 1030 04       		.byte	0x4
 4149 1031 1B0F0000 		.4byte	0xf1b
 4150 1035 0B       		.uleb128 0xb
 4151 1036 04       		.byte	0x4
 4152 1037 24100000 		.4byte	0x1024
 4153 103b 16       		.uleb128 0x16
 4154 103c 50100000 		.4byte	0x1050
 4155 1040 0E       		.uleb128 0xe
 4156 1041 2F100000 		.4byte	0x102f
 4157 1045 0E       		.uleb128 0xe
 4158 1046 50100000 		.4byte	0x1050
 4159 104a 0E       		.uleb128 0xe
 4160 104b AA0E0000 		.4byte	0xeaa
 4161 104f 00       		.byte	0
 4162 1050 0B       		.uleb128 0xb
 4163 1051 04       		.byte	0x4
 4164 1052 56100000 		.4byte	0x1056
 4165 1056 0C       		.uleb128 0xc
 4166 1057 C50B0000 		.4byte	0xbc5
 4167 105b 0B       		.uleb128 0xb
 4168 105c 04       		.byte	0x4
 4169 105d 3B100000 		.4byte	0x103b
 4170 1061 16       		.uleb128 0x16
 4171 1062 85100000 		.4byte	0x1085
 4172 1066 0E       		.uleb128 0xe
 4173 1067 2F100000 		.4byte	0x102f
 4174 106b 0E       		.uleb128 0xe
ARM GAS  C:\Users\haske\AppData\Local\Temp\ccLw7Foe.s 			page 96


 4175 106c 85100000 		.4byte	0x1085
 4176 1070 0E       		.uleb128 0xe
 4177 1071 90100000 		.4byte	0x1090
 4178 1075 0E       		.uleb128 0xe
 4179 1076 CE000000 		.4byte	0xce
 4180 107a 0E       		.uleb128 0xe
 4181 107b CE000000 		.4byte	0xce
 4182 107f 0E       		.uleb128 0xe
 4183 1080 CE000000 		.4byte	0xce
 4184 1084 00       		.byte	0
 4185 1085 0B       		.uleb128 0xb
 4186 1086 04       		.byte	0x4
 4187 1087 8B100000 		.4byte	0x108b
 4188 108b 0C       		.uleb128 0xc
 4189 108c 360E0000 		.4byte	0xe36
 4190 1090 0B       		.uleb128 0xb
 4191 1091 04       		.byte	0x4
 4192 1092 96100000 		.4byte	0x1096
 4193 1096 0C       		.uleb128 0xc
 4194 1097 29010000 		.4byte	0x129
 4195 109b 0B       		.uleb128 0xb
 4196 109c 04       		.byte	0x4
 4197 109d 61100000 		.4byte	0x1061
 4198 10a1 16       		.uleb128 0x16
 4199 10a2 C0100000 		.4byte	0x10c0
 4200 10a6 0E       		.uleb128 0xe
 4201 10a7 2F100000 		.4byte	0x102f
 4202 10ab 0E       		.uleb128 0xe
 4203 10ac C0100000 		.4byte	0x10c0
 4204 10b0 0E       		.uleb128 0xe
 4205 10b1 AA0E0000 		.4byte	0xeaa
 4206 10b5 0E       		.uleb128 0xe
 4207 10b6 D1020000 		.4byte	0x2d1
 4208 10ba 0E       		.uleb128 0xe
 4209 10bb A0090000 		.4byte	0x9a0
 4210 10bf 00       		.byte	0
 4211 10c0 0B       		.uleb128 0xb
 4212 10c1 04       		.byte	0x4
 4213 10c2 C6100000 		.4byte	0x10c6
 4214 10c6 0C       		.uleb128 0xc
 4215 10c7 300D0000 		.4byte	0xd30
 4216 10cb 0B       		.uleb128 0xb
 4217 10cc 04       		.byte	0x4
 4218 10cd A1100000 		.4byte	0x10a1
 4219 10d1 0D       		.uleb128 0xd
 4220 10d2 F6020000 		.4byte	0x2f6
 4221 10d6 EF100000 		.4byte	0x10ef
 4222 10da 0E       		.uleb128 0xe
 4223 10db 2F100000 		.4byte	0x102f
 4224 10df 0E       		.uleb128 0xe
 4225 10e0 C0100000 		.4byte	0x10c0
 4226 10e4 0E       		.uleb128 0xe
 4227 10e5 AA0E0000 		.4byte	0xeaa
 4228 10e9 0E       		.uleb128 0xe
 4229 10ea E2020000 		.4byte	0x2e2
 4230 10ee 00       		.byte	0
 4231 10ef 0B       		.uleb128 0xb
ARM GAS  C:\Users\haske\AppData\Local\Temp\ccLw7Foe.s 			page 97


 4232 10f0 04       		.byte	0x4
 4233 10f1 D1100000 		.4byte	0x10d1
 4234 10f5 16       		.uleb128 0x16
 4235 10f6 0F110000 		.4byte	0x110f
 4236 10fa 0E       		.uleb128 0xe
 4237 10fb 2F100000 		.4byte	0x102f
 4238 10ff 0E       		.uleb128 0xe
 4239 1100 0F110000 		.4byte	0x110f
 4240 1104 0E       		.uleb128 0xe
 4241 1105 90100000 		.4byte	0x1090
 4242 1109 0E       		.uleb128 0xe
 4243 110a E4000000 		.4byte	0xe4
 4244 110e 00       		.byte	0
 4245 110f 0B       		.uleb128 0xb
 4246 1110 04       		.byte	0x4
 4247 1111 15110000 		.4byte	0x1115
 4248 1115 0C       		.uleb128 0xc
 4249 1116 AA0C0000 		.4byte	0xcaa
 4250 111a 0B       		.uleb128 0xb
 4251 111b 04       		.byte	0x4
 4252 111c F5100000 		.4byte	0x10f5
 4253 1120 16       		.uleb128 0x16
 4254 1121 3A110000 		.4byte	0x113a
 4255 1125 0E       		.uleb128 0xe
 4256 1126 2F100000 		.4byte	0x102f
 4257 112a 0E       		.uleb128 0xe
 4258 112b 3A110000 		.4byte	0x113a
 4259 112f 0E       		.uleb128 0xe
 4260 1130 90100000 		.4byte	0x1090
 4261 1134 0E       		.uleb128 0xe
 4262 1135 90100000 		.4byte	0x1090
 4263 1139 00       		.byte	0
 4264 113a 0B       		.uleb128 0xb
 4265 113b 04       		.byte	0x4
 4266 113c 40110000 		.4byte	0x1140
 4267 1140 0C       		.uleb128 0xc
 4268 1141 BC0D0000 		.4byte	0xdbc
 4269 1145 0B       		.uleb128 0xb
 4270 1146 04       		.byte	0x4
 4271 1147 20110000 		.4byte	0x1120
 4272 114b 16       		.uleb128 0x16
 4273 114c 65110000 		.4byte	0x1165
 4274 1150 0E       		.uleb128 0xe
 4275 1151 2F100000 		.4byte	0x102f
 4276 1155 0E       		.uleb128 0xe
 4277 1156 50100000 		.4byte	0x1050
 4278 115a 0E       		.uleb128 0xe
 4279 115b 90100000 		.4byte	0x1090
 4280 115f 0E       		.uleb128 0xe
 4281 1160 CE000000 		.4byte	0xce
 4282 1164 00       		.byte	0
 4283 1165 0B       		.uleb128 0xb
 4284 1166 04       		.byte	0x4
 4285 1167 4B110000 		.4byte	0x114b
 4286 116b 16       		.uleb128 0x16
 4287 116c A3110000 		.4byte	0x11a3
 4288 1170 0E       		.uleb128 0xe
ARM GAS  C:\Users\haske\AppData\Local\Temp\ccLw7Foe.s 			page 98


 4289 1171 2F100000 		.4byte	0x102f
 4290 1175 0E       		.uleb128 0xe
 4291 1176 AA0E0000 		.4byte	0xeaa
 4292 117a 0E       		.uleb128 0xe
 4293 117b E2020000 		.4byte	0x2e2
 4294 117f 0E       		.uleb128 0xe
 4295 1180 01010000 		.4byte	0x101
 4296 1184 0E       		.uleb128 0xe
 4297 1185 01010000 		.4byte	0x101
 4298 1189 0E       		.uleb128 0xe
 4299 118a 01010000 		.4byte	0x101
 4300 118e 0E       		.uleb128 0xe
 4301 118f C0100000 		.4byte	0x10c0
 4302 1193 0E       		.uleb128 0xe
 4303 1194 A0090000 		.4byte	0x9a0
 4304 1198 0E       		.uleb128 0xe
 4305 1199 780A0000 		.4byte	0xa78
 4306 119d 0E       		.uleb128 0xe
 4307 119e 410E0000 		.4byte	0xe41
 4308 11a2 00       		.byte	0
 4309 11a3 0B       		.uleb128 0xb
 4310 11a4 04       		.byte	0x4
 4311 11a5 6B110000 		.4byte	0x116b
 4312 11a9 16       		.uleb128 0x16
 4313 11aa D2110000 		.4byte	0x11d2
 4314 11ae 0E       		.uleb128 0xe
 4315 11af 2F100000 		.4byte	0x102f
 4316 11b3 0E       		.uleb128 0xe
 4317 11b4 E9020000 		.4byte	0x2e9
 4318 11b8 0E       		.uleb128 0xe
 4319 11b9 01010000 		.4byte	0x101
 4320 11bd 0E       		.uleb128 0xe
 4321 11be AA0E0000 		.4byte	0xeaa
 4322 11c2 0E       		.uleb128 0xe
 4323 11c3 E9020000 		.4byte	0x2e9
 4324 11c7 0E       		.uleb128 0xe
 4325 11c8 01010000 		.4byte	0x101
 4326 11cc 0E       		.uleb128 0xe
 4327 11cd AA0E0000 		.4byte	0xeaa
 4328 11d1 00       		.byte	0
 4329 11d2 0B       		.uleb128 0xb
 4330 11d3 04       		.byte	0x4
 4331 11d4 A9110000 		.4byte	0x11a9
 4332 11d8 0D       		.uleb128 0xd
 4333 11d9 F1110000 		.4byte	0x11f1
 4334 11dd F1110000 		.4byte	0x11f1
 4335 11e1 0E       		.uleb128 0xe
 4336 11e2 2F100000 		.4byte	0x102f
 4337 11e6 0E       		.uleb128 0xe
 4338 11e7 F1110000 		.4byte	0x11f1
 4339 11eb 0E       		.uleb128 0xe
 4340 11ec 660E0000 		.4byte	0xe66
 4341 11f0 00       		.byte	0
 4342 11f1 0B       		.uleb128 0xb
 4343 11f2 04       		.byte	0x4
 4344 11f3 BB0E0000 		.4byte	0xebb
 4345 11f7 0B       		.uleb128 0xb
ARM GAS  C:\Users\haske\AppData\Local\Temp\ccLw7Foe.s 			page 99


 4346 11f8 04       		.byte	0x4
 4347 11f9 D8110000 		.4byte	0x11d8
 4348 11fd 16       		.uleb128 0x16
 4349 11fe 12120000 		.4byte	0x1212
 4350 1202 0E       		.uleb128 0xe
 4351 1203 2F100000 		.4byte	0x102f
 4352 1207 0E       		.uleb128 0xe
 4353 1208 F1110000 		.4byte	0x11f1
 4354 120c 0E       		.uleb128 0xe
 4355 120d 660E0000 		.4byte	0xe66
 4356 1211 00       		.byte	0
 4357 1212 0B       		.uleb128 0xb
 4358 1213 04       		.byte	0x4
 4359 1214 FD110000 		.4byte	0x11fd
 4360 1218 16       		.uleb128 0x16
 4361 1219 2D120000 		.4byte	0x122d
 4362 121d 0E       		.uleb128 0xe
 4363 121e 2F100000 		.4byte	0x102f
 4364 1222 0E       		.uleb128 0xe
 4365 1223 F1110000 		.4byte	0x11f1
 4366 1227 0E       		.uleb128 0xe
 4367 1228 C0100000 		.4byte	0x10c0
 4368 122c 00       		.byte	0
 4369 122d 0B       		.uleb128 0xb
 4370 122e 04       		.byte	0x4
 4371 122f 18120000 		.4byte	0x1218
 4372 1233 16       		.uleb128 0x16
 4373 1234 43120000 		.4byte	0x1243
 4374 1238 0E       		.uleb128 0xe
 4375 1239 2F100000 		.4byte	0x102f
 4376 123d 0E       		.uleb128 0xe
 4377 123e 43120000 		.4byte	0x1243
 4378 1242 00       		.byte	0
 4379 1243 0B       		.uleb128 0xb
 4380 1244 04       		.byte	0x4
 4381 1245 100F0000 		.4byte	0xf10
 4382 1249 0B       		.uleb128 0xb
 4383 124a 04       		.byte	0x4
 4384 124b 33120000 		.4byte	0x1233
 4385 124f 02       		.uleb128 0x2
 4386 1250 CD0B0000 		.4byte	.LASF318
 4387 1254 16       		.byte	0x16
 4388 1255 C0       		.byte	0xc0
 4389 1256 1B0F0000 		.4byte	0xf1b
 4390 125a 02       		.uleb128 0x2
 4391 125b 2E000000 		.4byte	.LASF319
 4392 125f 17       		.byte	0x17
 4393 1260 1D       		.byte	0x1d
 4394 1261 B8000000 		.4byte	0xb8
 4395 1265 05       		.uleb128 0x5
 4396 1266 0C       		.byte	0xc
 4397 1267 17       		.byte	0x17
 4398 1268 20       		.byte	0x20
 4399 1269 92120000 		.4byte	0x1292
 4400 126d 07       		.uleb128 0x7
 4401 126e F3210000 		.4byte	.LASF320
 4402 1272 17       		.byte	0x17
ARM GAS  C:\Users\haske\AppData\Local\Temp\ccLw7Foe.s 			page 100


 4403 1273 21       		.byte	0x21
 4404 1274 E4000000 		.4byte	0xe4
 4405 1278 00       		.byte	0
 4406 1279 07       		.uleb128 0x7
 4407 127a 41060000 		.4byte	.LASF321
 4408 127e 17       		.byte	0x17
 4409 127f 22       		.byte	0x22
 4410 1280 92120000 		.4byte	0x1292
 4411 1284 04       		.byte	0x4
 4412 1285 07       		.uleb128 0x7
 4413 1286 B4000000 		.4byte	.LASF322
 4414 128a 17       		.byte	0x17
 4415 128b 23       		.byte	0x23
 4416 128c 92120000 		.4byte	0x1292
 4417 1290 08       		.byte	0x8
 4418 1291 00       		.byte	0
 4419 1292 0B       		.uleb128 0xb
 4420 1293 04       		.byte	0x4
 4421 1294 5A120000 		.4byte	0x125a
 4422 1298 02       		.uleb128 0x2
 4423 1299 611C0000 		.4byte	.LASF323
 4424 129d 17       		.byte	0x17
 4425 129e 24       		.byte	0x24
 4426 129f 65120000 		.4byte	0x1265
 4427 12a3 02       		.uleb128 0x2
 4428 12a4 F6110000 		.4byte	.LASF324
 4429 12a8 18       		.byte	0x18
 4430 12a9 27       		.byte	0x27
 4431 12aa AE120000 		.4byte	0x12ae
 4432 12ae 0B       		.uleb128 0xb
 4433 12af 04       		.byte	0x4
 4434 12b0 B4120000 		.4byte	0x12b4
 4435 12b4 16       		.uleb128 0x16
 4436 12b5 BF120000 		.4byte	0x12bf
 4437 12b9 0E       		.uleb128 0xe
 4438 12ba BF120000 		.4byte	0x12bf
 4439 12be 00       		.byte	0
 4440 12bf 0B       		.uleb128 0xb
 4441 12c0 04       		.byte	0x4
 4442 12c1 C5120000 		.4byte	0x12c5
 4443 12c5 0A       		.uleb128 0xa
 4444 12c6 B1020000 		.4byte	.LASF325
 4445 12ca 18       		.byte	0x18
 4446 12cb 18       		.byte	0x18
 4447 12cc 2C       		.byte	0x2c
 4448 12cd 1D130000 		.4byte	0x131d
 4449 12d1 07       		.uleb128 0x7
 4450 12d2 3C1A0000 		.4byte	.LASF326
 4451 12d6 18       		.byte	0x18
 4452 12d7 2D       		.byte	0x2d
 4453 12d8 E4000000 		.4byte	0xe4
 4454 12dc 00       		.byte	0
 4455 12dd 07       		.uleb128 0x7
 4456 12de E3180000 		.4byte	.LASF327
 4457 12e2 18       		.byte	0x18
 4458 12e3 2E       		.byte	0x2e
 4459 12e4 E4000000 		.4byte	0xe4
ARM GAS  C:\Users\haske\AppData\Local\Temp\ccLw7Foe.s 			page 101


 4460 12e8 04       		.byte	0x4
 4461 12e9 07       		.uleb128 0x7
 4462 12ea 57170000 		.4byte	.LASF328
 4463 12ee 18       		.byte	0x18
 4464 12ef 2F       		.byte	0x2f
 4465 12f0 A3120000 		.4byte	0x12a3
 4466 12f4 08       		.byte	0x8
 4467 12f5 07       		.uleb128 0x7
 4468 12f6 7F200000 		.4byte	.LASF42
 4469 12fa 18       		.byte	0x18
 4470 12fb 30       		.byte	0x30
 4471 12fc E9020000 		.4byte	0x2e9
 4472 1300 0C       		.byte	0xc
 4473 1301 07       		.uleb128 0x7
 4474 1302 8C020000 		.4byte	.LASF329
 4475 1306 18       		.byte	0x18
 4476 1307 31       		.byte	0x31
 4477 1308 D9000000 		.4byte	0xd9
 4478 130c 10       		.byte	0x10
 4479 130d 09       		.uleb128 0x9
 4480 130e 83140000 		.4byte	.LASF330
 4481 1312 18       		.byte	0x18
 4482 1313 32       		.byte	0x32
 4483 1314 E4000000 		.4byte	0xe4
 4484 1318 04       		.byte	0x4
 4485 1319 01       		.byte	0x1
 4486 131a 1F       		.byte	0x1f
 4487 131b 14       		.byte	0x14
 4488 131c 00       		.byte	0
 4489 131d 02       		.uleb128 0x2
 4490 131e F40C0000 		.4byte	.LASF331
 4491 1322 18       		.byte	0x18
 4492 1323 33       		.byte	0x33
 4493 1324 C5120000 		.4byte	0x12c5
 4494 1328 0A       		.uleb128 0xa
 4495 1329 FF100000 		.4byte	.LASF332
 4496 132d 1C       		.byte	0x1c
 4497 132e 19       		.byte	0x19
 4498 132f 32       		.byte	0x32
 4499 1330 9B130000 		.4byte	0x139b
 4500 1334 07       		.uleb128 0x7
 4501 1335 20130000 		.4byte	.LASF333
 4502 1339 19       		.byte	0x19
 4503 133a 33       		.byte	0x33
 4504 133b E9020000 		.4byte	0x2e9
 4505 133f 00       		.byte	0
 4506 1340 07       		.uleb128 0x7
 4507 1341 25130000 		.4byte	.LASF334
 4508 1345 19       		.byte	0x19
 4509 1346 34       		.byte	0x34
 4510 1347 E9020000 		.4byte	0x2e9
 4511 134b 04       		.byte	0x4
 4512 134c 07       		.uleb128 0x7
 4513 134d B4160000 		.4byte	.LASF335
 4514 1351 19       		.byte	0x19
 4515 1352 37       		.byte	0x37
 4516 1353 E9020000 		.4byte	0x2e9
ARM GAS  C:\Users\haske\AppData\Local\Temp\ccLw7Foe.s 			page 102


 4517 1357 08       		.byte	0x8
 4518 1358 07       		.uleb128 0x7
 4519 1359 13180000 		.4byte	.LASF336
 4520 135d 19       		.byte	0x19
 4521 135e 38       		.byte	0x38
 4522 135f E4000000 		.4byte	0xe4
 4523 1363 0C       		.byte	0xc
 4524 1364 07       		.uleb128 0x7
 4525 1365 920C0000 		.4byte	.LASF337
 4526 1369 19       		.byte	0x19
 4527 136a 3A       		.byte	0x3a
 4528 136b 9B130000 		.4byte	0x139b
 4529 136f 10       		.byte	0x10
 4530 1370 07       		.uleb128 0x7
 4531 1371 20090000 		.4byte	.LASF338
 4532 1375 19       		.byte	0x19
 4533 1376 3C       		.byte	0x3c
 4534 1377 9B130000 		.4byte	0x139b
 4535 137b 14       		.byte	0x14
 4536 137c 09       		.uleb128 0x9
 4537 137d A7060000 		.4byte	.LASF339
 4538 1381 19       		.byte	0x19
 4539 1382 3D       		.byte	0x3d
 4540 1383 A0130000 		.4byte	0x13a0
 4541 1387 04       		.byte	0x4
 4542 1388 01       		.byte	0x1
 4543 1389 1F       		.byte	0x1f
 4544 138a 18       		.byte	0x18
 4545 138b 09       		.uleb128 0x9
 4546 138c 6C100000 		.4byte	.LASF340
 4547 1390 19       		.byte	0x19
 4548 1391 3E       		.byte	0x3e
 4549 1392 A0130000 		.4byte	0x13a0
 4550 1396 04       		.byte	0x4
 4551 1397 01       		.byte	0x1
 4552 1398 1E       		.byte	0x1e
 4553 1399 18       		.byte	0x18
 4554 139a 00       		.byte	0
 4555 139b 20       		.uleb128 0x20
 4556 139c 9F000000 		.4byte	0x9f
 4557 13a0 20       		.uleb128 0x20
 4558 13a1 E4000000 		.4byte	0xe4
 4559 13a5 02       		.uleb128 0x2
 4560 13a6 3B000000 		.4byte	.LASF341
 4561 13aa 19       		.byte	0x19
 4562 13ab 3F       		.byte	0x3f
 4563 13ac 28130000 		.4byte	0x1328
 4564 13b0 0A       		.uleb128 0xa
 4565 13b1 38210000 		.4byte	.LASF342
 4566 13b5 50       		.byte	0x50
 4567 13b6 19       		.byte	0x19
 4568 13b7 4D       		.byte	0x4d
 4569 13b8 2E150000 		.4byte	0x152e
 4570 13bc 07       		.uleb128 0x7
 4571 13bd 28070000 		.4byte	.LASF343
 4572 13c1 19       		.byte	0x19
 4573 13c2 4F       		.byte	0x4f
ARM GAS  C:\Users\haske\AppData\Local\Temp\ccLw7Foe.s 			page 103


 4574 13c3 01010000 		.4byte	0x101
 4575 13c7 00       		.byte	0
 4576 13c8 07       		.uleb128 0x7
 4577 13c9 81040000 		.4byte	.LASF344
 4578 13cd 19       		.byte	0x19
 4579 13ce 50       		.byte	0x50
 4580 13cf 01010000 		.4byte	0x101
 4581 13d3 02       		.byte	0x2
 4582 13d4 07       		.uleb128 0x7
 4583 13d5 E9170000 		.4byte	.LASF345
 4584 13d9 19       		.byte	0x19
 4585 13da 53       		.byte	0x53
 4586 13db 01010000 		.4byte	0x101
 4587 13df 04       		.byte	0x4
 4588 13e0 07       		.uleb128 0x7
 4589 13e1 43090000 		.4byte	.LASF346
 4590 13e5 19       		.byte	0x19
 4591 13e6 55       		.byte	0x55
 4592 13e7 01010000 		.4byte	0x101
 4593 13eb 06       		.byte	0x6
 4594 13ec 07       		.uleb128 0x7
 4595 13ed 85100000 		.4byte	.LASF347
 4596 13f1 19       		.byte	0x19
 4597 13f2 57       		.byte	0x57
 4598 13f3 01010000 		.4byte	0x101
 4599 13f7 08       		.byte	0x8
 4600 13f8 07       		.uleb128 0x7
 4601 13f9 8E100000 		.4byte	.LASF348
 4602 13fd 19       		.byte	0x19
 4603 13fe 58       		.byte	0x58
 4604 13ff 01010000 		.4byte	0x101
 4605 1403 0A       		.byte	0xa
 4606 1404 07       		.uleb128 0x7
 4607 1405 331A0000 		.4byte	.LASF349
 4608 1409 19       		.byte	0x19
 4609 140a 5C       		.byte	0x5c
 4610 140b 2E150000 		.4byte	0x152e
 4611 140f 0C       		.byte	0xc
 4612 1410 09       		.uleb128 0x9
 4613 1411 D30A0000 		.4byte	.LASF350
 4614 1415 19       		.byte	0x19
 4615 1416 5E       		.byte	0x5e
 4616 1417 E4000000 		.4byte	0xe4
 4617 141b 04       		.byte	0x4
 4618 141c 01       		.byte	0x1
 4619 141d 1F       		.byte	0x1f
 4620 141e 10       		.byte	0x10
 4621 141f 09       		.uleb128 0x9
 4622 1420 8D0E0000 		.4byte	.LASF351
 4623 1424 19       		.byte	0x19
 4624 1425 5F       		.byte	0x5f
 4625 1426 E4000000 		.4byte	0xe4
 4626 142a 04       		.byte	0x4
 4627 142b 01       		.byte	0x1
 4628 142c 1E       		.byte	0x1e
 4629 142d 10       		.byte	0x10
 4630 142e 09       		.uleb128 0x9
ARM GAS  C:\Users\haske\AppData\Local\Temp\ccLw7Foe.s 			page 104


 4631 142f 580D0000 		.4byte	.LASF352
 4632 1433 19       		.byte	0x19
 4633 1434 60       		.byte	0x60
 4634 1435 E4000000 		.4byte	0xe4
 4635 1439 04       		.byte	0x4
 4636 143a 01       		.byte	0x1
 4637 143b 1D       		.byte	0x1d
 4638 143c 10       		.byte	0x10
 4639 143d 09       		.uleb128 0x9
 4640 143e 310B0000 		.4byte	.LASF353
 4641 1442 19       		.byte	0x19
 4642 1443 61       		.byte	0x61
 4643 1444 E4000000 		.4byte	0xe4
 4644 1448 04       		.byte	0x4
 4645 1449 01       		.byte	0x1
 4646 144a 1C       		.byte	0x1c
 4647 144b 10       		.byte	0x10
 4648 144c 09       		.uleb128 0x9
 4649 144d 70050000 		.4byte	.LASF354
 4650 1451 19       		.byte	0x19
 4651 1452 62       		.byte	0x62
 4652 1453 E4000000 		.4byte	0xe4
 4653 1457 04       		.byte	0x4
 4654 1458 02       		.byte	0x2
 4655 1459 1A       		.byte	0x1a
 4656 145a 10       		.byte	0x10
 4657 145b 09       		.uleb128 0x9
 4658 145c EA1C0000 		.4byte	.LASF292
 4659 1460 19       		.byte	0x19
 4660 1461 63       		.byte	0x63
 4661 1462 E4000000 		.4byte	0xe4
 4662 1466 04       		.byte	0x4
 4663 1467 01       		.byte	0x1
 4664 1468 19       		.byte	0x19
 4665 1469 10       		.byte	0x10
 4666 146a 08       		.uleb128 0x8
 4667 146b 64706900 		.ascii	"dpi\000"
 4668 146f 19       		.byte	0x19
 4669 1470 66       		.byte	0x66
 4670 1471 E4000000 		.4byte	0xe4
 4671 1475 04       		.byte	0x4
 4672 1476 0A       		.byte	0xa
 4673 1477 0F       		.byte	0xf
 4674 1478 10       		.byte	0x10
 4675 1479 07       		.uleb128 0x7
 4676 147a 5F200000 		.4byte	.LASF355
 4677 147e 19       		.byte	0x19
 4678 147f 6A       		.byte	0x6a
 4679 1480 4F150000 		.4byte	0x154f
 4680 1484 14       		.byte	0x14
 4681 1485 07       		.uleb128 0x7
 4682 1486 4C1A0000 		.4byte	.LASF356
 4683 148a 19       		.byte	0x19
 4684 148b 6E       		.byte	0x6e
 4685 148c 65150000 		.4byte	0x1565
 4686 1490 18       		.byte	0x18
 4687 1491 07       		.uleb128 0x7
ARM GAS  C:\Users\haske\AppData\Local\Temp\ccLw7Foe.s 			page 105


 4688 1492 FC1D0000 		.4byte	.LASF357
 4689 1496 19       		.byte	0x19
 4690 1497 73       		.byte	0x73
 4691 1498 94150000 		.4byte	0x1594
 4692 149c 1C       		.byte	0x1c
 4693 149d 07       		.uleb128 0x7
 4694 149e 160F0000 		.4byte	.LASF358
 4695 14a2 19       		.byte	0x19
 4696 14a3 76       		.byte	0x76
 4697 14a4 AF150000 		.4byte	0x15af
 4698 14a8 20       		.byte	0x20
 4699 14a9 07       		.uleb128 0x7
 4700 14aa EC130000 		.4byte	.LASF359
 4701 14ae 19       		.byte	0x19
 4702 14af 7B       		.byte	0x7b
 4703 14b0 CA150000 		.4byte	0x15ca
 4704 14b4 24       		.byte	0x24
 4705 14b5 07       		.uleb128 0x7
 4706 14b6 7E120000 		.4byte	.LASF360
 4707 14ba 19       		.byte	0x19
 4708 14bb 80       		.byte	0x80
 4709 14bc DB150000 		.4byte	0x15db
 4710 14c0 28       		.byte	0x28
 4711 14c1 07       		.uleb128 0x7
 4712 14c2 8C210000 		.4byte	.LASF361
 4713 14c6 19       		.byte	0x19
 4714 14c7 83       		.byte	0x83
 4715 14c8 DB150000 		.4byte	0x15db
 4716 14cc 2C       		.byte	0x2c
 4717 14cd 07       		.uleb128 0x7
 4718 14ce A7170000 		.4byte	.LASF362
 4719 14d2 19       		.byte	0x19
 4720 14d3 86       		.byte	0x86
 4721 14d4 DB150000 		.4byte	0x15db
 4722 14d8 30       		.byte	0x30
 4723 14d9 07       		.uleb128 0x7
 4724 14da 97170000 		.4byte	.LASF363
 4725 14de 19       		.byte	0x19
 4726 14df 89       		.byte	0x89
 4727 14e0 DB150000 		.4byte	0x15db
 4728 14e4 34       		.byte	0x34
 4729 14e5 07       		.uleb128 0x7
 4730 14e6 1D000000 		.4byte	.LASF364
 4731 14ea 19       		.byte	0x19
 4732 14eb 8D       		.byte	0x8d
 4733 14ec C9030000 		.4byte	0x3c9
 4734 14f0 38       		.byte	0x38
 4735 14f1 07       		.uleb128 0x7
 4736 14f2 9D1E0000 		.4byte	.LASF365
 4737 14f6 19       		.byte	0x19
 4738 14f7 8F       		.byte	0x8f
 4739 14f8 E1150000 		.4byte	0x15e1
 4740 14fc 3C       		.byte	0x3c
 4741 14fd 07       		.uleb128 0x7
 4742 14fe 7D110000 		.4byte	.LASF366
 4743 1502 19       		.byte	0x19
 4744 1503 90       		.byte	0x90
ARM GAS  C:\Users\haske\AppData\Local\Temp\ccLw7Foe.s 			page 106


 4745 1504 F7150000 		.4byte	0x15f7
 4746 1508 40       		.byte	0x40
 4747 1509 07       		.uleb128 0x7
 4748 150a 8D050000 		.4byte	.LASF367
 4749 150e 19       		.byte	0x19
 4750 150f 91       		.byte	0x91
 4751 1510 F7150000 		.4byte	0x15f7
 4752 1514 44       		.byte	0x44
 4753 1515 07       		.uleb128 0x7
 4754 1516 BE010000 		.4byte	.LASF368
 4755 151a 19       		.byte	0x19
 4756 151b 92       		.byte	0x92
 4757 151c EF000000 		.4byte	0xef
 4758 1520 48       		.byte	0x48
 4759 1521 07       		.uleb128 0x7
 4760 1522 7F200000 		.4byte	.LASF42
 4761 1526 19       		.byte	0x19
 4762 1527 95       		.byte	0x95
 4763 1528 E9020000 		.4byte	0x2e9
 4764 152c 4C       		.byte	0x4c
 4765 152d 00       		.byte	0
 4766 152e 0B       		.uleb128 0xb
 4767 152f 04       		.byte	0x4
 4768 1530 A5130000 		.4byte	0x13a5
 4769 1534 16       		.uleb128 0x16
 4770 1535 49150000 		.4byte	0x1549
 4771 1539 0E       		.uleb128 0xe
 4772 153a 49150000 		.4byte	0x1549
 4773 153e 0E       		.uleb128 0xe
 4774 153f AA0E0000 		.4byte	0xeaa
 4775 1543 0E       		.uleb128 0xe
 4776 1544 780A0000 		.4byte	0xa78
 4777 1548 00       		.byte	0
 4778 1549 0B       		.uleb128 0xb
 4779 154a 04       		.byte	0x4
 4780 154b B0130000 		.4byte	0x13b0
 4781 154f 0B       		.uleb128 0xb
 4782 1550 04       		.byte	0x4
 4783 1551 34150000 		.4byte	0x1534
 4784 1555 16       		.uleb128 0x16
 4785 1556 65150000 		.4byte	0x1565
 4786 155a 0E       		.uleb128 0xe
 4787 155b 49150000 		.4byte	0x1549
 4788 155f 0E       		.uleb128 0xe
 4789 1560 B50E0000 		.4byte	0xeb5
 4790 1564 00       		.byte	0
 4791 1565 0B       		.uleb128 0xb
 4792 1566 04       		.byte	0x4
 4793 1567 55150000 		.4byte	0x1555
 4794 156b 16       		.uleb128 0x16
 4795 156c 94150000 		.4byte	0x1594
 4796 1570 0E       		.uleb128 0xe
 4797 1571 49150000 		.4byte	0x1549
 4798 1575 0E       		.uleb128 0xe
 4799 1576 45090000 		.4byte	0x945
 4800 157a 0E       		.uleb128 0xe
 4801 157b 01010000 		.4byte	0x101
ARM GAS  C:\Users\haske\AppData\Local\Temp\ccLw7Foe.s 			page 107


 4802 157f 0E       		.uleb128 0xe
 4803 1580 01010000 		.4byte	0x101
 4804 1584 0E       		.uleb128 0xe
 4805 1585 01010000 		.4byte	0x101
 4806 1589 0E       		.uleb128 0xe
 4807 158a C9030000 		.4byte	0x3c9
 4808 158e 0E       		.uleb128 0xe
 4809 158f D4030000 		.4byte	0x3d4
 4810 1593 00       		.byte	0
 4811 1594 0B       		.uleb128 0xb
 4812 1595 04       		.byte	0x4
 4813 1596 6B150000 		.4byte	0x156b
 4814 159a 16       		.uleb128 0x16
 4815 159b AF150000 		.4byte	0x15af
 4816 159f 0E       		.uleb128 0xe
 4817 15a0 49150000 		.4byte	0x1549
 4818 15a4 0E       		.uleb128 0xe
 4819 15a5 45090000 		.4byte	0x945
 4820 15a9 0E       		.uleb128 0xe
 4821 15aa E4000000 		.4byte	0xe4
 4822 15ae 00       		.byte	0
 4823 15af 0B       		.uleb128 0xb
 4824 15b0 04       		.byte	0x4
 4825 15b1 9A150000 		.4byte	0x159a
 4826 15b5 16       		.uleb128 0x16
 4827 15b6 CA150000 		.4byte	0x15ca
 4828 15ba 0E       		.uleb128 0xe
 4829 15bb 49150000 		.4byte	0x1549
 4830 15bf 0E       		.uleb128 0xe
 4831 15c0 E4000000 		.4byte	0xe4
 4832 15c4 0E       		.uleb128 0xe
 4833 15c5 E4000000 		.4byte	0xe4
 4834 15c9 00       		.byte	0
 4835 15ca 0B       		.uleb128 0xb
 4836 15cb 04       		.byte	0x4
 4837 15cc B5150000 		.4byte	0x15b5
 4838 15d0 16       		.uleb128 0x16
 4839 15d1 DB150000 		.4byte	0x15db
 4840 15d5 0E       		.uleb128 0xe
 4841 15d6 49150000 		.4byte	0x1549
 4842 15da 00       		.byte	0
 4843 15db 0B       		.uleb128 0xb
 4844 15dc 04       		.byte	0x4
 4845 15dd D0150000 		.4byte	0x15d0
 4846 15e1 0B       		.uleb128 0xb
 4847 15e2 04       		.byte	0x4
 4848 15e3 4F120000 		.4byte	0x124f
 4849 15e7 16       		.uleb128 0x16
 4850 15e8 F7150000 		.4byte	0x15f7
 4851 15ec 0E       		.uleb128 0xe
 4852 15ed 49150000 		.4byte	0x1549
 4853 15f1 0E       		.uleb128 0xe
 4854 15f2 E1150000 		.4byte	0x15e1
 4855 15f6 00       		.byte	0
 4856 15f7 0B       		.uleb128 0xb
 4857 15f8 04       		.byte	0x4
 4858 15f9 E7150000 		.4byte	0x15e7
ARM GAS  C:\Users\haske\AppData\Local\Temp\ccLw7Foe.s 			page 108


 4859 15fd 21       		.uleb128 0x21
 4860 15fe E3140000 		.4byte	.LASF369
 4861 1602 5C01     		.2byte	0x15c
 4862 1604 19       		.byte	0x19
 4863 1605 9E       		.byte	0x9e
 4864 1606 14170000 		.4byte	0x1714
 4865 160a 07       		.uleb128 0x7
 4866 160b 3E0B0000 		.4byte	.LASF370
 4867 160f 19       		.byte	0x19
 4868 1610 A0       		.byte	0xa0
 4869 1611 49150000 		.4byte	0x1549
 4870 1615 00       		.byte	0
 4871 1616 07       		.uleb128 0x7
 4872 1617 C0050000 		.4byte	.LASF371
 4873 161b 19       		.byte	0x19
 4874 161c A3       		.byte	0xa3
 4875 161d 14170000 		.4byte	0x1714
 4876 1621 04       		.byte	0x4
 4877 1622 07       		.uleb128 0x7
 4878 1623 7F100000 		.4byte	.LASF372
 4879 1627 19       		.byte	0x19
 4880 1628 A6       		.byte	0xa6
 4881 1629 9F170000 		.4byte	0x179f
 4882 162d 08       		.byte	0x8
 4883 162e 07       		.uleb128 0x7
 4884 162f B5040000 		.4byte	.LASF373
 4885 1633 19       		.byte	0x19
 4886 1634 A9       		.byte	0xa9
 4887 1635 A5170000 		.4byte	0x17a5
 4888 1639 0C       		.byte	0xc
 4889 163a 07       		.uleb128 0x7
 4890 163b CE000000 		.4byte	.LASF374
 4891 163f 19       		.byte	0x19
 4892 1640 AA       		.byte	0xaa
 4893 1641 AB090000 		.4byte	0x9ab
 4894 1645 10       		.byte	0x10
 4895 1646 07       		.uleb128 0x7
 4896 1647 031C0000 		.4byte	.LASF375
 4897 164b 19       		.byte	0x19
 4898 164c AB       		.byte	0xab
 4899 164d AB090000 		.4byte	0x9ab
 4900 1651 14       		.byte	0x14
 4901 1652 07       		.uleb128 0x7
 4902 1653 25060000 		.4byte	.LASF376
 4903 1657 19       		.byte	0x19
 4904 1658 AC       		.byte	0xac
 4905 1659 AB090000 		.4byte	0x9ab
 4906 165d 18       		.byte	0x18
 4907 165e 07       		.uleb128 0x7
 4908 165f D5070000 		.4byte	.LASF377
 4909 1663 19       		.byte	0x19
 4910 1664 AD       		.byte	0xad
 4911 1665 AB090000 		.4byte	0x9ab
 4912 1669 1C       		.byte	0x1c
 4913 166a 07       		.uleb128 0x7
 4914 166b 45180000 		.4byte	.LASF378
 4915 166f 19       		.byte	0x19
ARM GAS  C:\Users\haske\AppData\Local\Temp\ccLw7Foe.s 			page 109


 4916 1670 AE       		.byte	0xae
 4917 1671 AB090000 		.4byte	0x9ab
 4918 1675 20       		.byte	0x20
 4919 1676 07       		.uleb128 0x7
 4920 1677 D6000000 		.4byte	.LASF379
 4921 167b 19       		.byte	0x19
 4922 167c AF       		.byte	0xaf
 4923 167d E4000000 		.4byte	0xe4
 4924 1681 24       		.byte	0x24
 4925 1682 09       		.uleb128 0x9
 4926 1683 2A100000 		.4byte	.LASF380
 4927 1687 19       		.byte	0x19
 4928 1688 B0       		.byte	0xb0
 4929 1689 B8000000 		.4byte	0xb8
 4930 168d 01       		.byte	0x1
 4931 168e 01       		.byte	0x1
 4932 168f 07       		.byte	0x7
 4933 1690 28       		.byte	0x28
 4934 1691 09       		.uleb128 0x9
 4935 1692 611D0000 		.4byte	.LASF381
 4936 1696 19       		.byte	0x19
 4937 1697 B2       		.byte	0xb2
 4938 1698 B8000000 		.4byte	0xb8
 4939 169c 01       		.byte	0x1
 4940 169d 01       		.byte	0x1
 4941 169e 06       		.byte	0x6
 4942 169f 28       		.byte	0x28
 4943 16a0 09       		.uleb128 0x9
 4944 16a1 01090000 		.4byte	.LASF382
 4945 16a5 19       		.byte	0x19
 4946 16a6 B4       		.byte	0xb4
 4947 16a7 B8000000 		.4byte	0xb8
 4948 16ab 01       		.byte	0x1
 4949 16ac 01       		.byte	0x1
 4950 16ad 05       		.byte	0x5
 4951 16ae 28       		.byte	0x28
 4952 16af 07       		.uleb128 0x7
 4953 16b0 B9050000 		.4byte	.LASF229
 4954 16b4 19       		.byte	0x19
 4955 16b5 B6       		.byte	0xb6
 4956 16b6 D4030000 		.4byte	0x3d4
 4957 16ba 29       		.byte	0x29
 4958 16bb 07       		.uleb128 0x7
 4959 16bc 98010000 		.4byte	.LASF230
 4960 16c0 19       		.byte	0x19
 4961 16c1 B7       		.byte	0xb7
 4962 16c2 C9030000 		.4byte	0x3c9
 4963 16c6 2A       		.byte	0x2a
 4964 16c7 07       		.uleb128 0x7
 4965 16c8 6A1D0000 		.4byte	.LASF383
 4966 16cc 19       		.byte	0x19
 4967 16cd B8       		.byte	0xb8
 4968 16ce E2020000 		.4byte	0x2e2
 4969 16d2 2C       		.byte	0x2c
 4970 16d3 07       		.uleb128 0x7
 4971 16d4 26150000 		.4byte	.LASF384
 4972 16d8 19       		.byte	0x19
ARM GAS  C:\Users\haske\AppData\Local\Temp\ccLw7Foe.s 			page 110


 4973 16d9 BB       		.byte	0xbb
 4974 16da AB170000 		.4byte	0x17ab
 4975 16de 30       		.byte	0x30
 4976 16df 22       		.uleb128 0x22
 4977 16e0 FF050000 		.4byte	.LASF385
 4978 16e4 19       		.byte	0x19
 4979 16e5 BC       		.byte	0xbc
 4980 16e6 BB170000 		.4byte	0x17bb
 4981 16ea 3001     		.2byte	0x130
 4982 16ec 22       		.uleb128 0x22
 4983 16ed 5B1C0000 		.4byte	.LASF386
 4984 16f1 19       		.byte	0x19
 4985 16f2 BD       		.byte	0xbd
 4986 16f3 CE000000 		.4byte	0xce
 4987 16f7 5001     		.2byte	0x150
 4988 16f9 22       		.uleb128 0x22
 4989 16fa DF1C0000 		.4byte	.LASF387
 4990 16fe 19       		.byte	0x19
 4991 16ff BE       		.byte	0xbe
 4992 1700 D9000000 		.4byte	0xd9
 4993 1704 5401     		.2byte	0x154
 4994 1706 22       		.uleb128 0x22
 4995 1707 40050000 		.4byte	.LASF388
 4996 170b 19       		.byte	0x19
 4997 170c C1       		.byte	0xc1
 4998 170d E4000000 		.4byte	0xe4
 4999 1711 5801     		.2byte	0x158
 5000 1713 00       		.byte	0
 5001 1714 0B       		.uleb128 0xb
 5002 1715 04       		.byte	0x4
 5003 1716 1D130000 		.4byte	0x131d
 5004 171a 0A       		.uleb128 0xa
 5005 171b CE1B0000 		.4byte	.LASF389
 5006 171f 24       		.byte	0x24
 5007 1720 1A       		.byte	0x1a
 5008 1721 1F       		.byte	0x1f
 5009 1722 9F170000 		.4byte	0x179f
 5010 1726 07       		.uleb128 0x7
 5011 1727 951F0000 		.4byte	.LASF390
 5012 172b 1A       		.byte	0x1a
 5013 172c 20       		.byte	0x20
 5014 172d AD1C0000 		.4byte	0x1cad
 5015 1731 00       		.byte	0
 5016 1732 07       		.uleb128 0x7
 5017 1733 860E0000 		.4byte	.LASF215
 5018 1737 1A       		.byte	0x1a
 5019 1738 21       		.byte	0x21
 5020 1739 9F170000 		.4byte	0x179f
 5021 173d 04       		.byte	0x4
 5022 173e 07       		.uleb128 0x7
 5023 173f 7F200000 		.4byte	.LASF42
 5024 1743 1A       		.byte	0x1a
 5025 1744 22       		.byte	0x22
 5026 1745 E9020000 		.4byte	0x2e9
 5027 1749 08       		.byte	0x8
 5028 174a 07       		.uleb128 0x7
 5029 174b 7E140000 		.4byte	.LASF391
ARM GAS  C:\Users\haske\AppData\Local\Temp\ccLw7Foe.s 			page 111


 5030 174f 1A       		.byte	0x1a
 5031 1750 23       		.byte	0x23
 5032 1751 D6170000 		.4byte	0x17d6
 5033 1755 0C       		.byte	0xc
 5034 1756 07       		.uleb128 0x7
 5035 1757 64010000 		.4byte	.LASF392
 5036 175b 1A       		.byte	0x1a
 5037 175c 24       		.byte	0x24
 5038 175d C9030000 		.4byte	0x3c9
 5039 1761 10       		.byte	0x10
 5040 1762 07       		.uleb128 0x7
 5041 1763 7C020000 		.4byte	.LASF393
 5042 1767 1A       		.byte	0x1a
 5043 1768 25       		.byte	0x25
 5044 1769 C9030000 		.4byte	0x3c9
 5045 176d 12       		.byte	0x12
 5046 176e 07       		.uleb128 0x7
 5047 176f C70D0000 		.4byte	.LASF394
 5048 1773 1A       		.byte	0x1a
 5049 1774 26       		.byte	0x26
 5050 1775 9F0C0000 		.4byte	0xc9f
 5051 1779 14       		.byte	0x14
 5052 177a 07       		.uleb128 0x7
 5053 177b D1200000 		.4byte	.LASF395
 5054 177f 1A       		.byte	0x1a
 5055 1780 27       		.byte	0x27
 5056 1781 9F0C0000 		.4byte	0xc9f
 5057 1785 18       		.byte	0x18
 5058 1786 07       		.uleb128 0x7
 5059 1787 8F160000 		.4byte	.LASF396
 5060 178b 1A       		.byte	0x1a
 5061 178c 28       		.byte	0x28
 5062 178d 9F0C0000 		.4byte	0xc9f
 5063 1791 1C       		.byte	0x1c
 5064 1792 07       		.uleb128 0x7
 5065 1793 2F0A0000 		.4byte	.LASF219
 5066 1797 1A       		.byte	0x1a
 5067 1798 29       		.byte	0x29
 5068 1799 E4000000 		.4byte	0xe4
 5069 179d 20       		.byte	0x20
 5070 179e 00       		.byte	0
 5071 179f 0B       		.uleb128 0xb
 5072 17a0 04       		.byte	0x4
 5073 17a1 1A170000 		.4byte	0x171a
 5074 17a5 0B       		.uleb128 0xb
 5075 17a6 04       		.byte	0x4
 5076 17a7 AB090000 		.4byte	0x9ab
 5077 17ab 17       		.uleb128 0x17
 5078 17ac 69010000 		.4byte	0x169
 5079 17b0 BB170000 		.4byte	0x17bb
 5080 17b4 18       		.uleb128 0x18
 5081 17b5 01030000 		.4byte	0x301
 5082 17b9 1F       		.byte	0x1f
 5083 17ba 00       		.byte	0
 5084 17bb 17       		.uleb128 0x17
 5085 17bc B8000000 		.4byte	0xb8
 5086 17c0 CB170000 		.4byte	0x17cb
ARM GAS  C:\Users\haske\AppData\Local\Temp\ccLw7Foe.s 			page 112


 5087 17c4 18       		.uleb128 0x18
 5088 17c5 01030000 		.4byte	0x301
 5089 17c9 1F       		.byte	0x1f
 5090 17ca 00       		.byte	0
 5091 17cb 02       		.uleb128 0x2
 5092 17cc 64000000 		.4byte	.LASF397
 5093 17d0 19       		.byte	0x19
 5094 17d1 C2       		.byte	0xc2
 5095 17d2 FD150000 		.4byte	0x15fd
 5096 17d6 0B       		.uleb128 0xb
 5097 17d7 04       		.byte	0x4
 5098 17d8 FD150000 		.4byte	0x15fd
 5099 17dc 0A       		.uleb128 0xa
 5100 17dd FA210000 		.4byte	.LASF398
 5101 17e1 20       		.byte	0x20
 5102 17e2 1B       		.byte	0x1b
 5103 17e3 3B       		.byte	0x3b
 5104 17e4 61180000 		.4byte	0x1861
 5105 17e8 07       		.uleb128 0x7
 5106 17e9 C1100000 		.4byte	.LASF399
 5107 17ed 1B       		.byte	0x1b
 5108 17ee 3C       		.byte	0x3c
 5109 17ef 98120000 		.4byte	0x1298
 5110 17f3 00       		.byte	0
 5111 17f4 07       		.uleb128 0x7
 5112 17f5 70220000 		.4byte	.LASF400
 5113 17f9 1B       		.byte	0x1b
 5114 17fa 3D       		.byte	0x3d
 5115 17fb A5170000 		.4byte	0x17a5
 5116 17ff 0C       		.byte	0xc
 5117 1800 07       		.uleb128 0x7
 5118 1801 70160000 		.4byte	.LASF401
 5119 1805 1B       		.byte	0x1b
 5120 1806 3F       		.byte	0x3f
 5121 1807 701B0000 		.4byte	0x1b70
 5122 180b 10       		.byte	0x10
 5123 180c 07       		.uleb128 0x7
 5124 180d F7050000 		.4byte	.LASF402
 5125 1811 1B       		.byte	0x1b
 5126 1812 40       		.byte	0x40
 5127 1813 8C1B0000 		.4byte	0x1b8c
 5128 1817 14       		.byte	0x14
 5129 1818 07       		.uleb128 0x7
 5130 1819 7F200000 		.4byte	.LASF42
 5131 181d 1B       		.byte	0x1b
 5132 181e 45       		.byte	0x45
 5133 181f E9020000 		.4byte	0x2e9
 5134 1823 18       		.byte	0x18
 5135 1824 09       		.uleb128 0x9
 5136 1825 5D010000 		.4byte	.LASF403
 5137 1829 1B       		.byte	0x1b
 5138 182a 48       		.byte	0x48
 5139 182b B8000000 		.4byte	0xb8
 5140 182f 01       		.byte	0x1
 5141 1830 01       		.byte	0x1
 5142 1831 07       		.byte	0x7
 5143 1832 1C       		.byte	0x1c
ARM GAS  C:\Users\haske\AppData\Local\Temp\ccLw7Foe.s 			page 113


 5144 1833 09       		.uleb128 0x9
 5145 1834 E1170000 		.4byte	.LASF404
 5146 1838 1B       		.byte	0x1b
 5147 1839 49       		.byte	0x49
 5148 183a B8000000 		.4byte	0xb8
 5149 183e 01       		.byte	0x1
 5150 183f 01       		.byte	0x1
 5151 1840 06       		.byte	0x6
 5152 1841 1C       		.byte	0x1c
 5153 1842 09       		.uleb128 0x9
 5154 1843 29210000 		.4byte	.LASF405
 5155 1847 1B       		.byte	0x1b
 5156 1848 4A       		.byte	0x4a
 5157 1849 B8000000 		.4byte	0xb8
 5158 184d 01       		.byte	0x1
 5159 184e 01       		.byte	0x1
 5160 184f 05       		.byte	0x5
 5161 1850 1C       		.byte	0x1c
 5162 1851 09       		.uleb128 0x9
 5163 1852 EC180000 		.4byte	.LASF406
 5164 1856 1B       		.byte	0x1b
 5165 1857 4C       		.byte	0x4c
 5166 1858 B8000000 		.4byte	0xb8
 5167 185c 01       		.byte	0x1
 5168 185d 01       		.byte	0x1
 5169 185e 04       		.byte	0x4
 5170 185f 1C       		.byte	0x1c
 5171 1860 00       		.byte	0
 5172 1861 0B       		.uleb128 0xb
 5173 1862 04       		.byte	0x4
 5174 1863 DC170000 		.4byte	0x17dc
 5175 1867 02       		.uleb128 0x2
 5176 1868 DF050000 		.4byte	.LASF407
 5177 186c 0F       		.byte	0xf
 5178 186d 3C       		.byte	0x3c
 5179 186e CE000000 		.4byte	0xce
 5180 1872 02       		.uleb128 0x2
 5181 1873 9E1F0000 		.4byte	.LASF408
 5182 1877 0F       		.byte	0xf
 5183 1878 7D       		.byte	0x7d
 5184 1879 E4000000 		.4byte	0xe4
 5185 187d 02       		.uleb128 0x2
 5186 187e 13010000 		.4byte	.LASF409
 5187 1882 1C       		.byte	0x1c
 5188 1883 26       		.byte	0x26
 5189 1884 B8000000 		.4byte	0xb8
 5190 1888 02       		.uleb128 0x2
 5191 1889 DF160000 		.4byte	.LASF410
 5192 188d 1C       		.byte	0x1c
 5193 188e 30       		.byte	0x30
 5194 188f B8000000 		.4byte	0xb8
 5195 1893 05       		.uleb128 0x5
 5196 1894 08       		.byte	0x8
 5197 1895 1D       		.byte	0x1d
 5198 1896 27       		.byte	0x27
 5199 1897 D5180000 		.4byte	0x18d5
 5200 189b 07       		.uleb128 0x7
ARM GAS  C:\Users\haske\AppData\Local\Temp\ccLw7Foe.s 			page 114


 5201 189c C8160000 		.4byte	.LASF411
 5202 18a0 1D       		.byte	0x1d
 5203 18a1 28       		.byte	0x28
 5204 18a2 D5180000 		.4byte	0x18d5
 5205 18a6 00       		.byte	0
 5206 18a7 09       		.uleb128 0x9
 5207 18a8 F5200000 		.4byte	.LASF412
 5208 18ac 1D       		.byte	0x1d
 5209 18ad 29       		.byte	0x29
 5210 18ae E4000000 		.4byte	0xe4
 5211 18b2 04       		.byte	0x4
 5212 18b3 18       		.byte	0x18
 5213 18b4 08       		.byte	0x8
 5214 18b5 04       		.byte	0x4
 5215 18b6 09       		.uleb128 0x9
 5216 18b7 9E020000 		.4byte	.LASF413
 5217 18bb 1D       		.byte	0x1d
 5218 18bc 2A       		.byte	0x2a
 5219 18bd E4000000 		.4byte	0xe4
 5220 18c1 04       		.byte	0x4
 5221 18c2 01       		.byte	0x1
 5222 18c3 07       		.byte	0x7
 5223 18c4 04       		.byte	0x4
 5224 18c5 09       		.uleb128 0x9
 5225 18c6 BF0E0000 		.4byte	.LASF414
 5226 18ca 1D       		.byte	0x1d
 5227 18cb 2B       		.byte	0x2b
 5228 18cc E4000000 		.4byte	0xe4
 5229 18d0 04       		.byte	0x4
 5230 18d1 01       		.byte	0x1
 5231 18d2 06       		.byte	0x6
 5232 18d3 04       		.byte	0x4
 5233 18d4 00       		.byte	0
 5234 18d5 0B       		.uleb128 0xb
 5235 18d6 04       		.byte	0x4
 5236 18d7 94090000 		.4byte	0x994
 5237 18db 02       		.uleb128 0x2
 5238 18dc 6C0C0000 		.4byte	.LASF415
 5239 18e0 1D       		.byte	0x1d
 5240 18e1 2C       		.byte	0x2c
 5241 18e2 93180000 		.4byte	0x1893
 5242 18e6 0A       		.uleb128 0xa
 5243 18e7 AD180000 		.4byte	.LASF416
 5244 18eb 1C       		.byte	0x1c
 5245 18ec 1E       		.byte	0x1e
 5246 18ed 31       		.byte	0x31
 5247 18ee 74190000 		.4byte	0x1974
 5248 18f2 07       		.uleb128 0x7
 5249 18f3 30160000 		.4byte	.LASF417
 5250 18f7 1E       		.byte	0x1e
 5251 18f8 32       		.byte	0x32
 5252 18f9 74190000 		.4byte	0x1974
 5253 18fd 00       		.byte	0
 5254 18fe 07       		.uleb128 0x7
 5255 18ff FF020000 		.4byte	.LASF418
 5256 1903 1E       		.byte	0x1e
 5257 1904 33       		.byte	0x33
ARM GAS  C:\Users\haske\AppData\Local\Temp\ccLw7Foe.s 			page 115


 5258 1905 171A0000 		.4byte	0x1a17
 5259 1909 04       		.byte	0x4
 5260 190a 07       		.uleb128 0x7
 5261 190b 701B0000 		.4byte	.LASF419
 5262 190f 1E       		.byte	0x1e
 5263 1910 34       		.byte	0x34
 5264 1911 171A0000 		.4byte	0x1a17
 5265 1915 08       		.byte	0x8
 5266 1916 07       		.uleb128 0x7
 5267 1917 7F200000 		.4byte	.LASF42
 5268 191b 1E       		.byte	0x1e
 5269 191c 36       		.byte	0x36
 5270 191d E9020000 		.4byte	0x2e9
 5271 1921 0C       		.byte	0xc
 5272 1922 07       		.uleb128 0x7
 5273 1923 91120000 		.4byte	.LASF420
 5274 1927 1E       		.byte	0x1e
 5275 1928 38       		.byte	0x38
 5276 1929 2D1A0000 		.4byte	0x1a2d
 5277 192d 10       		.byte	0x10
 5278 192e 07       		.uleb128 0x7
 5279 192f 0C0F0000 		.4byte	.LASF421
 5280 1933 1E       		.byte	0x1e
 5281 1934 3A       		.byte	0x3a
 5282 1935 01010000 		.4byte	0x101
 5283 1939 14       		.byte	0x14
 5284 193a 07       		.uleb128 0x7
 5285 193b 51210000 		.4byte	.LASF422
 5286 193f 1E       		.byte	0x1e
 5287 1940 3B       		.byte	0x3b
 5288 1941 01010000 		.4byte	0x101
 5289 1945 16       		.byte	0x16
 5290 1946 09       		.uleb128 0x9
 5291 1947 76100000 		.4byte	.LASF423
 5292 194b 1E       		.byte	0x1e
 5293 194c 3C       		.byte	0x3c
 5294 194d E4000000 		.4byte	0xe4
 5295 1951 04       		.byte	0x4
 5296 1952 02       		.byte	0x2
 5297 1953 1E       		.byte	0x1e
 5298 1954 18       		.byte	0x18
 5299 1955 09       		.uleb128 0x9
 5300 1956 83050000 		.4byte	.LASF424
 5301 195a 1E       		.byte	0x1e
 5302 195b 3D       		.byte	0x3d
 5303 195c E4000000 		.4byte	0xe4
 5304 1960 04       		.byte	0x4
 5305 1961 02       		.byte	0x2
 5306 1962 1C       		.byte	0x1c
 5307 1963 18       		.byte	0x18
 5308 1964 09       		.uleb128 0x9
 5309 1965 57110000 		.4byte	.LASF425
 5310 1969 1E       		.byte	0x1e
 5311 196a 3E       		.byte	0x3e
 5312 196b E4000000 		.4byte	0xe4
 5313 196f 04       		.byte	0x4
 5314 1970 10       		.byte	0x10
ARM GAS  C:\Users\haske\AppData\Local\Temp\ccLw7Foe.s 			page 116


 5315 1971 0C       		.byte	0xc
 5316 1972 18       		.byte	0x18
 5317 1973 00       		.byte	0
 5318 1974 0B       		.uleb128 0xb
 5319 1975 04       		.byte	0x4
 5320 1976 7A190000 		.4byte	0x197a
 5321 197a 0C       		.uleb128 0xc
 5322 197b E6180000 		.4byte	0x18e6
 5323 197f 0B       		.uleb128 0xb
 5324 1980 04       		.byte	0x4
 5325 1981 85190000 		.4byte	0x1985
 5326 1985 0A       		.uleb128 0xa
 5327 1986 BA120000 		.4byte	.LASF426
 5328 198a 1C       		.byte	0x1c
 5329 198b 1F       		.byte	0x1f
 5330 198c 5E       		.byte	0x5e
 5331 198d 071A0000 		.4byte	0x1a07
 5332 1991 07       		.uleb128 0x7
 5333 1992 23100000 		.4byte	.LASF427
 5334 1996 1F       		.byte	0x1f
 5335 1997 5F       		.byte	0x5f
 5336 1998 AB090000 		.4byte	0x9ab
 5337 199c 00       		.byte	0
 5338 199d 07       		.uleb128 0x7
 5339 199e 4A030000 		.4byte	.LASF428
 5340 19a2 1F       		.byte	0x1f
 5341 19a3 60       		.byte	0x60
 5342 19a4 AB090000 		.4byte	0x9ab
 5343 19a8 04       		.byte	0x4
 5344 19a9 07       		.uleb128 0x7
 5345 19aa F0160000 		.4byte	.LASF429
 5346 19ae 1F       		.byte	0x1f
 5347 19af 61       		.byte	0x61
 5348 19b0 651B0000 		.4byte	0x1b65
 5349 19b4 08       		.byte	0x8
 5350 19b5 07       		.uleb128 0x7
 5351 19b6 7F200000 		.4byte	.LASF42
 5352 19ba 1F       		.byte	0x1f
 5353 19bb 62       		.byte	0x62
 5354 19bc E9020000 		.4byte	0x2e9
 5355 19c0 0C       		.byte	0xc
 5356 19c1 07       		.uleb128 0x7
 5357 19c2 1D100000 		.4byte	.LASF430
 5358 19c6 1F       		.byte	0x1f
 5359 19c7 63       		.byte	0x63
 5360 19c8 E9020000 		.4byte	0x2e9
 5361 19cc 10       		.byte	0x10
 5362 19cd 07       		.uleb128 0x7
 5363 19ce E0210000 		.4byte	.LASF431
 5364 19d2 1F       		.byte	0x1f
 5365 19d3 64       		.byte	0x64
 5366 19d4 7F190000 		.4byte	0x197f
 5367 19d8 14       		.byte	0x14
 5368 19d9 09       		.uleb128 0x9
 5369 19da E1120000 		.4byte	.LASF432
 5370 19de 1F       		.byte	0x1f
 5371 19df 65       		.byte	0x65
ARM GAS  C:\Users\haske\AppData\Local\Temp\ccLw7Foe.s 			page 117


 5372 19e0 B8000000 		.4byte	0xb8
 5373 19e4 01       		.byte	0x1
 5374 19e5 01       		.byte	0x1
 5375 19e6 07       		.byte	0x7
 5376 19e7 18       		.byte	0x18
 5377 19e8 09       		.uleb128 0x9
 5378 19e9 190A0000 		.4byte	.LASF433
 5379 19ed 1F       		.byte	0x1f
 5380 19ee 66       		.byte	0x66
 5381 19ef B8000000 		.4byte	0xb8
 5382 19f3 01       		.byte	0x1
 5383 19f4 01       		.byte	0x1
 5384 19f5 06       		.byte	0x6
 5385 19f6 18       		.byte	0x18
 5386 19f7 09       		.uleb128 0x9
 5387 19f8 BB150000 		.4byte	.LASF434
 5388 19fc 1F       		.byte	0x1f
 5389 19fd 67       		.byte	0x67
 5390 19fe B8000000 		.4byte	0xb8
 5391 1a02 01       		.byte	0x1
 5392 1a03 01       		.byte	0x1
 5393 1a04 05       		.byte	0x5
 5394 1a05 18       		.byte	0x18
 5395 1a06 00       		.byte	0
 5396 1a07 16       		.uleb128 0x16
 5397 1a08 171A0000 		.4byte	0x1a17
 5398 1a0c 0E       		.uleb128 0xe
 5399 1a0d 74190000 		.4byte	0x1974
 5400 1a11 0E       		.uleb128 0xe
 5401 1a12 AB090000 		.4byte	0x9ab
 5402 1a16 00       		.byte	0
 5403 1a17 0B       		.uleb128 0xb
 5404 1a18 04       		.byte	0x4
 5405 1a19 071A0000 		.4byte	0x1a07
 5406 1a1d 16       		.uleb128 0x16
 5407 1a1e 2D1A0000 		.4byte	0x1a2d
 5408 1a22 0E       		.uleb128 0xe
 5409 1a23 74190000 		.4byte	0x1974
 5410 1a27 0E       		.uleb128 0xe
 5411 1a28 7F190000 		.4byte	0x197f
 5412 1a2c 00       		.byte	0
 5413 1a2d 0B       		.uleb128 0xb
 5414 1a2e 04       		.byte	0x4
 5415 1a2f 1D1A0000 		.4byte	0x1a1d
 5416 1a33 02       		.uleb128 0x2
 5417 1a34 4A0E0000 		.4byte	.LASF435
 5418 1a38 1E       		.byte	0x1e
 5419 1a39 3F       		.byte	0x3f
 5420 1a3a E6180000 		.4byte	0x18e6
 5421 1a3e 11       		.uleb128 0x11
 5422 1a3f 01       		.byte	0x1
 5423 1a40 42000000 		.4byte	0x42
 5424 1a44 1F       		.byte	0x1f
 5425 1a45 20       		.byte	0x20
 5426 1a46 651B0000 		.4byte	0x1b65
 5427 1a4a 12       		.uleb128 0x12
 5428 1a4b 33050000 		.4byte	.LASF436
ARM GAS  C:\Users\haske\AppData\Local\Temp\ccLw7Foe.s 			page 118


 5429 1a4f 00       		.byte	0
 5430 1a50 12       		.uleb128 0x12
 5431 1a51 60170000 		.4byte	.LASF437
 5432 1a55 01       		.byte	0x1
 5433 1a56 12       		.uleb128 0x12
 5434 1a57 ED150000 		.4byte	.LASF438
 5435 1a5b 02       		.byte	0x2
 5436 1a5c 12       		.uleb128 0x12
 5437 1a5d 89200000 		.4byte	.LASF439
 5438 1a61 03       		.byte	0x3
 5439 1a62 12       		.uleb128 0x12
 5440 1a63 18040000 		.4byte	.LASF440
 5441 1a67 04       		.byte	0x4
 5442 1a68 12       		.uleb128 0x12
 5443 1a69 6A030000 		.4byte	.LASF441
 5444 1a6d 05       		.byte	0x5
 5445 1a6e 12       		.uleb128 0x12
 5446 1a6f 53160000 		.4byte	.LASF442
 5447 1a73 06       		.byte	0x6
 5448 1a74 12       		.uleb128 0x12
 5449 1a75 0E0E0000 		.4byte	.LASF443
 5450 1a79 07       		.byte	0x7
 5451 1a7a 12       		.uleb128 0x12
 5452 1a7b 17220000 		.4byte	.LASF444
 5453 1a7f 08       		.byte	0x8
 5454 1a80 12       		.uleb128 0x12
 5455 1a81 AD130000 		.4byte	.LASF445
 5456 1a85 09       		.byte	0x9
 5457 1a86 12       		.uleb128 0x12
 5458 1a87 7D010000 		.4byte	.LASF446
 5459 1a8b 0A       		.byte	0xa
 5460 1a8c 12       		.uleb128 0x12
 5461 1a8d EF120000 		.4byte	.LASF447
 5462 1a91 0B       		.byte	0xb
 5463 1a92 12       		.uleb128 0x12
 5464 1a93 59030000 		.4byte	.LASF448
 5465 1a97 0C       		.byte	0xc
 5466 1a98 12       		.uleb128 0x12
 5467 1a99 3E200000 		.4byte	.LASF449
 5468 1a9d 0D       		.byte	0xd
 5469 1a9e 12       		.uleb128 0x12
 5470 1a9f 9B070000 		.4byte	.LASF450
 5471 1aa3 0E       		.byte	0xe
 5472 1aa4 12       		.uleb128 0x12
 5473 1aa5 2E1E0000 		.4byte	.LASF451
 5474 1aa9 0F       		.byte	0xf
 5475 1aaa 12       		.uleb128 0x12
 5476 1aab BA0F0000 		.4byte	.LASF452
 5477 1aaf 10       		.byte	0x10
 5478 1ab0 12       		.uleb128 0x12
 5479 1ab1 990B0000 		.4byte	.LASF453
 5480 1ab5 11       		.byte	0x11
 5481 1ab6 12       		.uleb128 0x12
 5482 1ab7 DF0A0000 		.4byte	.LASF454
 5483 1abb 12       		.byte	0x12
 5484 1abc 12       		.uleb128 0x12
 5485 1abd C9110000 		.4byte	.LASF455
ARM GAS  C:\Users\haske\AppData\Local\Temp\ccLw7Foe.s 			page 119


 5486 1ac1 13       		.byte	0x13
 5487 1ac2 12       		.uleb128 0x12
 5488 1ac3 6E000000 		.4byte	.LASF456
 5489 1ac7 14       		.byte	0x14
 5490 1ac8 12       		.uleb128 0x12
 5491 1ac9 03080000 		.4byte	.LASF457
 5492 1acd 15       		.byte	0x15
 5493 1ace 12       		.uleb128 0x12
 5494 1acf 6F0E0000 		.4byte	.LASF458
 5495 1ad3 16       		.byte	0x16
 5496 1ad4 12       		.uleb128 0x12
 5497 1ad5 1D190000 		.4byte	.LASF459
 5498 1ad9 17       		.byte	0x17
 5499 1ada 12       		.uleb128 0x12
 5500 1adb 2A1F0000 		.4byte	.LASF460
 5501 1adf 18       		.byte	0x18
 5502 1ae0 12       		.uleb128 0x12
 5503 1ae1 7F1C0000 		.4byte	.LASF461
 5504 1ae5 19       		.byte	0x19
 5505 1ae6 12       		.uleb128 0x12
 5506 1ae7 961C0000 		.4byte	.LASF462
 5507 1aeb 1A       		.byte	0x1a
 5508 1aec 12       		.uleb128 0x12
 5509 1aed 84060000 		.4byte	.LASF463
 5510 1af1 1B       		.byte	0x1b
 5511 1af2 12       		.uleb128 0x12
 5512 1af3 EE140000 		.4byte	.LASF464
 5513 1af7 1C       		.byte	0x1c
 5514 1af8 12       		.uleb128 0x12
 5515 1af9 4D010000 		.4byte	.LASF465
 5516 1afd 1D       		.byte	0x1d
 5517 1afe 12       		.uleb128 0x12
 5518 1aff 46110000 		.4byte	.LASF466
 5519 1b03 1E       		.byte	0x1e
 5520 1b04 12       		.uleb128 0x12
 5521 1b05 111F0000 		.4byte	.LASF467
 5522 1b09 1F       		.byte	0x1f
 5523 1b0a 12       		.uleb128 0x12
 5524 1b0b 71170000 		.4byte	.LASF468
 5525 1b0f 20       		.byte	0x20
 5526 1b10 12       		.uleb128 0x12
 5527 1b11 24140000 		.4byte	.LASF469
 5528 1b15 21       		.byte	0x21
 5529 1b16 12       		.uleb128 0x12
 5530 1b17 4F020000 		.4byte	.LASF470
 5531 1b1b 22       		.byte	0x22
 5532 1b1c 12       		.uleb128 0x12
 5533 1b1d A7030000 		.4byte	.LASF471
 5534 1b21 23       		.byte	0x23
 5535 1b22 12       		.uleb128 0x12
 5536 1b23 A1110000 		.4byte	.LASF472
 5537 1b27 24       		.byte	0x24
 5538 1b28 12       		.uleb128 0x12
 5539 1b29 5C210000 		.4byte	.LASF473
 5540 1b2d 25       		.byte	0x25
 5541 1b2e 12       		.uleb128 0x12
 5542 1b2f A0150000 		.4byte	.LASF474
ARM GAS  C:\Users\haske\AppData\Local\Temp\ccLw7Foe.s 			page 120


 5543 1b33 26       		.byte	0x26
 5544 1b34 12       		.uleb128 0x12
 5545 1b35 440C0000 		.4byte	.LASF475
 5546 1b39 27       		.byte	0x27
 5547 1b3a 12       		.uleb128 0x12
 5548 1b3b B61A0000 		.4byte	.LASF476
 5549 1b3f 28       		.byte	0x28
 5550 1b40 12       		.uleb128 0x12
 5551 1b41 AC1F0000 		.4byte	.LASF477
 5552 1b45 29       		.byte	0x29
 5553 1b46 12       		.uleb128 0x12
 5554 1b47 FA1E0000 		.4byte	.LASF478
 5555 1b4b 2A       		.byte	0x2a
 5556 1b4c 12       		.uleb128 0x12
 5557 1b4d F71F0000 		.4byte	.LASF479
 5558 1b51 2B       		.byte	0x2b
 5559 1b52 12       		.uleb128 0x12
 5560 1b53 EC070000 		.4byte	.LASF480
 5561 1b57 2C       		.byte	0x2c
 5562 1b58 12       		.uleb128 0x12
 5563 1b59 D2170000 		.4byte	.LASF481
 5564 1b5d 2D       		.byte	0x2d
 5565 1b5e 12       		.uleb128 0x12
 5566 1b5f 49150000 		.4byte	.LASF482
 5567 1b63 80       		.byte	0x80
 5568 1b64 00       		.byte	0
 5569 1b65 02       		.uleb128 0x2
 5570 1b66 9A120000 		.4byte	.LASF483
 5571 1b6a 1F       		.byte	0x1f
 5572 1b6b 5C       		.byte	0x5c
 5573 1b6c 3E1A0000 		.4byte	0x1a3e
 5574 1b70 02       		.uleb128 0x2
 5575 1b71 99180000 		.4byte	.LASF484
 5576 1b75 1B       		.byte	0x1b
 5577 1b76 34       		.byte	0x34
 5578 1b77 7B1B0000 		.4byte	0x1b7b
 5579 1b7b 0B       		.uleb128 0xb
 5580 1b7c 04       		.byte	0x4
 5581 1b7d 811B0000 		.4byte	0x1b81
 5582 1b81 16       		.uleb128 0x16
 5583 1b82 8C1B0000 		.4byte	0x1b8c
 5584 1b86 0E       		.uleb128 0xe
 5585 1b87 61180000 		.4byte	0x1861
 5586 1b8b 00       		.byte	0
 5587 1b8c 02       		.uleb128 0x2
 5588 1b8d D20D0000 		.4byte	.LASF485
 5589 1b91 1B       		.byte	0x1b
 5590 1b92 35       		.byte	0x35
 5591 1b93 971B0000 		.4byte	0x1b97
 5592 1b97 0B       		.uleb128 0xb
 5593 1b98 04       		.byte	0x4
 5594 1b99 9D1B0000 		.4byte	0x1b9d
 5595 1b9d 16       		.uleb128 0x16
 5596 1b9e AD1B0000 		.4byte	0x1bad
 5597 1ba2 0E       		.uleb128 0xe
 5598 1ba3 61180000 		.4byte	0x1861
 5599 1ba7 0E       		.uleb128 0xe
ARM GAS  C:\Users\haske\AppData\Local\Temp\ccLw7Foe.s 			page 121


 5600 1ba8 AA020000 		.4byte	0x2aa
 5601 1bac 00       		.byte	0
 5602 1bad 02       		.uleb128 0x2
 5603 1bae 7A080000 		.4byte	.LASF486
 5604 1bb2 1B       		.byte	0x1b
 5605 1bb3 4E       		.byte	0x4e
 5606 1bb4 DC170000 		.4byte	0x17dc
 5607 1bb8 05       		.uleb128 0x5
 5608 1bb9 1C       		.byte	0x1c
 5609 1bba 0F       		.byte	0xf
 5610 1bbb 9B       		.byte	0x9b
 5611 1bbc 6F1C0000 		.4byte	0x1c6f
 5612 1bc0 07       		.uleb128 0x7
 5613 1bc1 0F040000 		.4byte	.LASF487
 5614 1bc5 0F       		.byte	0xf
 5615 1bc6 9C       		.byte	0x9c
 5616 1bc7 A5170000 		.4byte	0x17a5
 5617 1bcb 00       		.byte	0
 5618 1bcc 07       		.uleb128 0x7
 5619 1bcd 870F0000 		.4byte	.LASF488
 5620 1bd1 0F       		.byte	0xf
 5621 1bd2 9D       		.byte	0x9d
 5622 1bd3 E4000000 		.4byte	0xe4
 5623 1bd7 04       		.byte	0x4
 5624 1bd8 07       		.uleb128 0x7
 5625 1bd9 FF0C0000 		.4byte	.LASF489
 5626 1bdd 0F       		.byte	0xf
 5627 1bde 9E       		.byte	0x9e
 5628 1bdf 6F1C0000 		.4byte	0x1c6f
 5629 1be3 08       		.byte	0x8
 5630 1be4 07       		.uleb128 0x7
 5631 1be5 880C0000 		.4byte	.LASF490
 5632 1be9 0F       		.byte	0xf
 5633 1bea A0       		.byte	0xa0
 5634 1beb 7A1C0000 		.4byte	0x1c7a
 5635 1bef 0C       		.byte	0xc
 5636 1bf0 07       		.uleb128 0x7
 5637 1bf1 230D0000 		.4byte	.LASF491
 5638 1bf5 0F       		.byte	0xf
 5639 1bf6 A1       		.byte	0xa1
 5640 1bf7 29010000 		.4byte	0x129
 5641 1bfb 10       		.byte	0x10
 5642 1bfc 07       		.uleb128 0x7
 5643 1bfd 101D0000 		.4byte	.LASF492
 5644 1c01 0F       		.byte	0xf
 5645 1c02 A3       		.byte	0xa3
 5646 1c03 01010000 		.4byte	0x101
 5647 1c07 14       		.byte	0x14
 5648 1c08 07       		.uleb128 0x7
 5649 1c09 02140000 		.4byte	.LASF493
 5650 1c0d 0F       		.byte	0xf
 5651 1c0e A4       		.byte	0xa4
 5652 1c0f 01010000 		.4byte	0x101
 5653 1c13 16       		.byte	0x16
 5654 1c14 09       		.uleb128 0x9
 5655 1c15 34090000 		.4byte	.LASF494
 5656 1c19 0F       		.byte	0xf
ARM GAS  C:\Users\haske\AppData\Local\Temp\ccLw7Foe.s 			page 122


 5657 1c1a A6       		.byte	0xa6
 5658 1c1b 7D180000 		.4byte	0x187d
 5659 1c1f 01       		.byte	0x1
 5660 1c20 02       		.byte	0x2
 5661 1c21 06       		.byte	0x6
 5662 1c22 18       		.byte	0x18
 5663 1c23 09       		.uleb128 0x9
 5664 1c24 E3010000 		.4byte	.LASF495
 5665 1c28 0F       		.byte	0xf
 5666 1c29 A7       		.byte	0xa7
 5667 1c2a 88180000 		.4byte	0x1888
 5668 1c2e 01       		.byte	0x1
 5669 1c2f 02       		.byte	0x2
 5670 1c30 04       		.byte	0x4
 5671 1c31 18       		.byte	0x18
 5672 1c32 09       		.uleb128 0x9
 5673 1c33 E50F0000 		.4byte	.LASF496
 5674 1c37 0F       		.byte	0xf
 5675 1c38 A8       		.byte	0xa8
 5676 1c39 88180000 		.4byte	0x1888
 5677 1c3d 01       		.byte	0x1
 5678 1c3e 02       		.byte	0x2
 5679 1c3f 02       		.byte	0x2
 5680 1c40 18       		.byte	0x18
 5681 1c41 09       		.uleb128 0x9
 5682 1c42 78050000 		.4byte	.LASF497
 5683 1c46 0F       		.byte	0xf
 5684 1c47 A9       		.byte	0xa9
 5685 1c48 74010000 		.4byte	0x174
 5686 1c4c 01       		.byte	0x1
 5687 1c4d 04       		.byte	0x4
 5688 1c4e 04       		.byte	0x4
 5689 1c4f 19       		.byte	0x19
 5690 1c50 09       		.uleb128 0x9
 5691 1c51 95220000 		.4byte	.LASF498
 5692 1c55 0F       		.byte	0xf
 5693 1c56 AA       		.byte	0xaa
 5694 1c57 B8000000 		.4byte	0xb8
 5695 1c5b 01       		.byte	0x1
 5696 1c5c 06       		.byte	0x6
 5697 1c5d 02       		.byte	0x2
 5698 1c5e 1A       		.byte	0x1a
 5699 1c5f 09       		.uleb128 0x9
 5700 1c60 7C0D0000 		.4byte	.LASF499
 5701 1c64 0F       		.byte	0xf
 5702 1c65 AB       		.byte	0xab
 5703 1c66 B8000000 		.4byte	0xb8
 5704 1c6a 01       		.byte	0x1
 5705 1c6b 02       		.byte	0x2
 5706 1c6c 00       		.byte	0
 5707 1c6d 1A       		.byte	0x1a
 5708 1c6e 00       		.byte	0
 5709 1c6f 0B       		.uleb128 0xb
 5710 1c70 04       		.byte	0x4
 5711 1c71 AD1B0000 		.4byte	0x1bad
 5712 1c75 23       		.uleb128 0x23
 5713 1c76 AA200000 		.4byte	.LASF586
ARM GAS  C:\Users\haske\AppData\Local\Temp\ccLw7Foe.s 			page 123


 5714 1c7a 0B       		.uleb128 0xb
 5715 1c7b 04       		.byte	0x4
 5716 1c7c 751C0000 		.4byte	0x1c75
 5717 1c80 02       		.uleb128 0x2
 5718 1c81 85080000 		.4byte	.LASF500
 5719 1c85 0F       		.byte	0xf
 5720 1c86 AC       		.byte	0xac
 5721 1c87 B81B0000 		.4byte	0x1bb8
 5722 1c8b 0B       		.uleb128 0xb
 5723 1c8c 04       		.byte	0x4
 5724 1c8d 911C0000 		.4byte	0x1c91
 5725 1c91 0C       		.uleb128 0xc
 5726 1c92 331A0000 		.4byte	0x1a33
 5727 1c96 0B       		.uleb128 0xb
 5728 1c97 04       		.byte	0x4
 5729 1c98 801C0000 		.4byte	0x1c80
 5730 1c9c 0B       		.uleb128 0xb
 5731 1c9d 04       		.byte	0x4
 5732 1c9e DB180000 		.4byte	0x18db
 5733 1ca2 02       		.uleb128 0x2
 5734 1ca3 6A1E0000 		.4byte	.LASF501
 5735 1ca7 0F       		.byte	0xf
 5736 1ca8 BF       		.byte	0xbf
 5737 1ca9 B1090000 		.4byte	0x9b1
 5738 1cad 02       		.uleb128 0x2
 5739 1cae 440D0000 		.4byte	.LASF502
 5740 1cb2 1A       		.byte	0x1a
 5741 1cb3 1D       		.byte	0x1d
 5742 1cb4 B81C0000 		.4byte	0x1cb8
 5743 1cb8 0B       		.uleb128 0xb
 5744 1cb9 04       		.byte	0x4
 5745 1cba BE1C0000 		.4byte	0x1cbe
 5746 1cbe 16       		.uleb128 0x16
 5747 1cbf CE1C0000 		.4byte	0x1cce
 5748 1cc3 0E       		.uleb128 0xe
 5749 1cc4 9F170000 		.4byte	0x179f
 5750 1cc8 0E       		.uleb128 0xe
 5751 1cc9 CE1C0000 		.4byte	0x1cce
 5752 1ccd 00       		.byte	0
 5753 1cce 0B       		.uleb128 0xb
 5754 1ccf 04       		.byte	0x4
 5755 1cd0 A21C0000 		.4byte	0x1ca2
 5756 1cd4 02       		.uleb128 0x2
 5757 1cd5 0F200000 		.4byte	.LASF503
 5758 1cd9 1A       		.byte	0x1a
 5759 1cda 2A       		.byte	0x2a
 5760 1cdb 1A170000 		.4byte	0x171a
 5761 1cdf 11       		.uleb128 0x11
 5762 1ce0 01       		.byte	0x1
 5763 1ce1 42000000 		.4byte	0x42
 5764 1ce5 02       		.byte	0x2
 5765 1ce6 1C       		.byte	0x1c
 5766 1ce7 4C1D0000 		.4byte	0x1d4c
 5767 1ceb 12       		.uleb128 0x12
 5768 1cec AB0B0000 		.4byte	.LASF504
 5769 1cf0 00       		.byte	0
 5770 1cf1 12       		.uleb128 0x12
ARM GAS  C:\Users\haske\AppData\Local\Temp\ccLw7Foe.s 			page 124


 5771 1cf2 28120000 		.4byte	.LASF505
 5772 1cf6 01       		.byte	0x1
 5773 1cf7 12       		.uleb128 0x12
 5774 1cf8 A5100000 		.4byte	.LASF506
 5775 1cfc 02       		.byte	0x2
 5776 1cfd 12       		.uleb128 0x12
 5777 1cfe E21D0000 		.4byte	.LASF507
 5778 1d02 03       		.byte	0x3
 5779 1d03 12       		.uleb128 0x12
 5780 1d04 B7080000 		.4byte	.LASF508
 5781 1d08 04       		.byte	0x4
 5782 1d09 12       		.uleb128 0x12
 5783 1d0a 16080000 		.4byte	.LASF509
 5784 1d0e 05       		.byte	0x5
 5785 1d0f 12       		.uleb128 0x12
 5786 1d10 F1010000 		.4byte	.LASF510
 5787 1d14 06       		.byte	0x6
 5788 1d15 12       		.uleb128 0x12
 5789 1d16 620D0000 		.4byte	.LASF511
 5790 1d1a 07       		.byte	0x7
 5791 1d1b 12       		.uleb128 0x12
 5792 1d1c F2030000 		.4byte	.LASF512
 5793 1d20 08       		.byte	0x8
 5794 1d21 12       		.uleb128 0x12
 5795 1d22 5A060000 		.4byte	.LASF513
 5796 1d26 09       		.byte	0x9
 5797 1d27 12       		.uleb128 0x12
 5798 1d28 57220000 		.4byte	.LASF514
 5799 1d2c 09       		.byte	0x9
 5800 1d2d 12       		.uleb128 0x12
 5801 1d2e 45190000 		.4byte	.LASF515
 5802 1d32 0A       		.byte	0xa
 5803 1d33 12       		.uleb128 0x12
 5804 1d34 5D1A0000 		.4byte	.LASF516
 5805 1d38 0B       		.byte	0xb
 5806 1d39 12       		.uleb128 0x12
 5807 1d3a 500B0000 		.4byte	.LASF517
 5808 1d3e 0C       		.byte	0xc
 5809 1d3f 12       		.uleb128 0x12
 5810 1d40 FA170000 		.4byte	.LASF518
 5811 1d44 0D       		.byte	0xd
 5812 1d45 12       		.uleb128 0x12
 5813 1d46 57120000 		.4byte	.LASF519
 5814 1d4a 0E       		.byte	0xe
 5815 1d4b 00       		.byte	0
 5816 1d4c 02       		.uleb128 0x2
 5817 1d4d 4B0A0000 		.4byte	.LASF520
 5818 1d51 02       		.byte	0x2
 5819 1d52 2D       		.byte	0x2d
 5820 1d53 DF1C0000 		.4byte	0x1cdf
 5821 1d57 24       		.uleb128 0x24
 5822 1d58 051D0000 		.4byte	.LASF587
 5823 1d5c 02       		.byte	0x2
 5824 1d5d B6       		.byte	0xb6
 5825 1d5e CE1C0000 		.4byte	0x1cce
 5826 1d62 03       		.byte	0x3
 5827 1d63 25       		.uleb128 0x25
ARM GAS  C:\Users\haske\AppData\Local\Temp\ccLw7Foe.s 			page 125


 5828 1d64 CC140000 		.4byte	.LASF522
 5829 1d68 03       		.byte	0x3
 5830 1d69 9E       		.byte	0x9e
 5831 1d6a 03       		.byte	0x3
 5832 1d6b 841D0000 		.4byte	0x1d84
 5833 1d6f 26       		.uleb128 0x26
 5834 1d70 6100     		.ascii	"a\000"
 5835 1d72 03       		.byte	0x3
 5836 1d73 9E       		.byte	0x9e
 5837 1d74 841D0000 		.4byte	0x1d84
 5838 1d78 27       		.uleb128 0x27
 5839 1d79 A1030000 		.4byte	.LASF521
 5840 1d7d 03       		.byte	0x3
 5841 1d7e 9E       		.byte	0x9e
 5842 1d7f E4000000 		.4byte	0xe4
 5843 1d83 00       		.byte	0
 5844 1d84 0B       		.uleb128 0xb
 5845 1d85 04       		.byte	0x4
 5846 1d86 98050000 		.4byte	0x598
 5847 1d8a 25       		.uleb128 0x25
 5848 1d8b B8110000 		.4byte	.LASF523
 5849 1d8f 03       		.byte	0x3
 5850 1d90 94       		.byte	0x94
 5851 1d91 03       		.byte	0x3
 5852 1d92 AB1D0000 		.4byte	0x1dab
 5853 1d96 26       		.uleb128 0x26
 5854 1d97 6100     		.ascii	"a\000"
 5855 1d99 03       		.byte	0x3
 5856 1d9a 94       		.byte	0x94
 5857 1d9b 841D0000 		.4byte	0x1d84
 5858 1d9f 27       		.uleb128 0x27
 5859 1da0 3C070000 		.4byte	.LASF524
 5860 1da4 03       		.byte	0x3
 5861 1da5 94       		.byte	0x94
 5862 1da6 E4000000 		.4byte	0xe4
 5863 1daa 00       		.byte	0
 5864 1dab 25       		.uleb128 0x25
 5865 1dac 3F020000 		.4byte	.LASF525
 5866 1db0 03       		.byte	0x3
 5867 1db1 7E       		.byte	0x7e
 5868 1db2 03       		.byte	0x3
 5869 1db3 CC1D0000 		.4byte	0x1dcc
 5870 1db7 26       		.uleb128 0x26
 5871 1db8 6100     		.ascii	"a\000"
 5872 1dba 03       		.byte	0x3
 5873 1dbb 7E       		.byte	0x7e
 5874 1dbc 841D0000 		.4byte	0x1d84
 5875 1dc0 26       		.uleb128 0x26
 5876 1dc1 76617200 		.ascii	"var\000"
 5877 1dc5 03       		.byte	0x3
 5878 1dc6 7E       		.byte	0x7e
 5879 1dc7 E9020000 		.4byte	0x2e9
 5880 1dcb 00       		.byte	0
 5881 1dcc 25       		.uleb128 0x25
 5882 1dcd B9000000 		.4byte	.LASF526
 5883 1dd1 03       		.byte	0x3
 5884 1dd2 E3       		.byte	0xe3
ARM GAS  C:\Users\haske\AppData\Local\Temp\ccLw7Foe.s 			page 126


 5885 1dd3 03       		.byte	0x3
 5886 1dd4 ED1D0000 		.4byte	0x1ded
 5887 1dd8 26       		.uleb128 0x26
 5888 1dd9 6100     		.ascii	"a\000"
 5889 1ddb 03       		.byte	0x3
 5890 1ddc E3       		.byte	0xe3
 5891 1ddd 841D0000 		.4byte	0x1d84
 5892 1de1 27       		.uleb128 0x27
 5893 1de2 B40C0000 		.4byte	.LASF73
 5894 1de6 03       		.byte	0x3
 5895 1de7 E3       		.byte	0xe3
 5896 1de8 46050000 		.4byte	0x546
 5897 1dec 00       		.byte	0
 5898 1ded 25       		.uleb128 0x25
 5899 1dee 4C0F0000 		.4byte	.LASF527
 5900 1df2 03       		.byte	0x3
 5901 1df3 CE       		.byte	0xce
 5902 1df4 03       		.byte	0x3
 5903 1df5 0E1E0000 		.4byte	0x1e0e
 5904 1df9 26       		.uleb128 0x26
 5905 1dfa 6100     		.ascii	"a\000"
 5906 1dfc 03       		.byte	0x3
 5907 1dfd CE       		.byte	0xce
 5908 1dfe 841D0000 		.4byte	0x1d84
 5909 1e02 27       		.uleb128 0x27
 5910 1e03 78070000 		.4byte	.LASF72
 5911 1e07 03       		.byte	0x3
 5912 1e08 CE       		.byte	0xce
 5913 1e09 62050000 		.4byte	0x562
 5914 1e0d 00       		.byte	0
 5915 1e0e 25       		.uleb128 0x25
 5916 1e0f 511B0000 		.4byte	.LASF528
 5917 1e13 03       		.byte	0x3
 5918 1e14 A9       		.byte	0xa9
 5919 1e15 03       		.byte	0x3
 5920 1e16 3A1E0000 		.4byte	0x1e3a
 5921 1e1a 26       		.uleb128 0x26
 5922 1e1b 6100     		.ascii	"a\000"
 5923 1e1d 03       		.byte	0x3
 5924 1e1e A9       		.byte	0xa9
 5925 1e1f 841D0000 		.4byte	0x1d84
 5926 1e23 27       		.uleb128 0x27
 5927 1e24 F81C0000 		.4byte	.LASF529
 5928 1e28 03       		.byte	0x3
 5929 1e29 A9       		.byte	0xa9
 5930 1e2a D9000000 		.4byte	0xd9
 5931 1e2e 26       		.uleb128 0x26
 5932 1e2f 656E6400 		.ascii	"end\000"
 5933 1e33 03       		.byte	0x3
 5934 1e34 A9       		.byte	0xa9
 5935 1e35 D9000000 		.4byte	0xd9
 5936 1e39 00       		.byte	0
 5937 1e3a 25       		.uleb128 0x25
 5938 1e3b 411E0000 		.4byte	.LASF530
 5939 1e3f 03       		.byte	0x3
 5940 1e40 8A       		.byte	0x8a
 5941 1e41 03       		.byte	0x3
ARM GAS  C:\Users\haske\AppData\Local\Temp\ccLw7Foe.s 			page 127


 5942 1e42 5B1E0000 		.4byte	0x1e5b
 5943 1e46 26       		.uleb128 0x26
 5944 1e47 6100     		.ascii	"a\000"
 5945 1e49 03       		.byte	0x3
 5946 1e4a 8A       		.byte	0x8a
 5947 1e4b 841D0000 		.4byte	0x1d84
 5948 1e4f 27       		.uleb128 0x27
 5949 1e50 BA190000 		.4byte	.LASF71
 5950 1e54 03       		.byte	0x3
 5951 1e55 8A       		.byte	0x8a
 5952 1e56 1F050000 		.4byte	0x51f
 5953 1e5a 00       		.byte	0
 5954 1e5b 28       		.uleb128 0x28
 5955 1e5c 641B0000 		.4byte	.LASF588
 5956 1e60 01       		.byte	0x1
 5957 1e61 0F02     		.2byte	0x20f
 5958 1e63 AA020000 		.4byte	0x2aa
 5959 1e67 00000000 		.4byte	.LFB188
 5960 1e6b 10000000 		.4byte	.LFE188-.LFB188
 5961 1e6f 01       		.uleb128 0x1
 5962 1e70 9C       		.byte	0x9c
 5963 1e71 861E0000 		.4byte	0x1e86
 5964 1e75 29       		.uleb128 0x29
 5965 1e76 66150000 		.4byte	.LASF531
 5966 1e7a 01       		.byte	0x1
 5967 1e7b 0F02     		.2byte	0x20f
 5968 1e7d 4C1D0000 		.4byte	0x1d4c
 5969 1e81 00000000 		.4byte	.LLST0
 5970 1e85 00       		.byte	0
 5971 1e86 2A       		.uleb128 0x2a
 5972 1e87 24050000 		.4byte	.LASF532
 5973 1e8b 01       		.byte	0x1
 5974 1e8c F101     		.2byte	0x1f1
 5975 1e8e 00000000 		.4byte	.LFB184
 5976 1e92 0C000000 		.4byte	.LFE184-.LFB184
 5977 1e96 01       		.uleb128 0x1
 5978 1e97 9C       		.byte	0x9c
 5979 1e98 D81E0000 		.4byte	0x1ed8
 5980 1e9c 2B       		.uleb128 0x2b
 5981 1e9d 6F626A00 		.ascii	"obj\000"
 5982 1ea1 01       		.byte	0x1
 5983 1ea2 F101     		.2byte	0x1f1
 5984 1ea4 E9020000 		.4byte	0x2e9
 5985 1ea8 21000000 		.4byte	.LLST1
 5986 1eac 2B       		.uleb128 0x2b
 5987 1ead 7600     		.ascii	"v\000"
 5988 1eaf 01       		.byte	0x1
 5989 1eb0 F101     		.2byte	0x1f1
 5990 1eb2 D9000000 		.4byte	0xd9
 5991 1eb6 42000000 		.4byte	.LLST2
 5992 1eba 2C       		.uleb128 0x2c
 5993 1ebb 0A000000 		.4byte	.LVL4
 5994 1ebf AC320000 		.4byte	0x32ac
 5995 1ec3 2D       		.uleb128 0x2d
 5996 1ec4 01       		.uleb128 0x1
 5997 1ec5 50       		.byte	0x50
 5998 1ec6 03       		.uleb128 0x3
ARM GAS  C:\Users\haske\AppData\Local\Temp\ccLw7Foe.s 			page 128


 5999 1ec7 F3       		.byte	0xf3
 6000 1ec8 01       		.uleb128 0x1
 6001 1ec9 50       		.byte	0x50
 6002 1eca 2D       		.uleb128 0x2d
 6003 1ecb 01       		.uleb128 0x1
 6004 1ecc 51       		.byte	0x51
 6005 1ecd 03       		.uleb128 0x3
 6006 1ece F3       		.byte	0xf3
 6007 1ecf 01       		.uleb128 0x1
 6008 1ed0 51       		.byte	0x51
 6009 1ed1 2D       		.uleb128 0x2d
 6010 1ed2 01       		.uleb128 0x1
 6011 1ed3 52       		.byte	0x52
 6012 1ed4 01       		.uleb128 0x1
 6013 1ed5 30       		.byte	0x30
 6014 1ed6 00       		.byte	0
 6015 1ed7 00       		.byte	0
 6016 1ed8 2A       		.uleb128 0x2a
 6017 1ed9 EB020000 		.4byte	.LASF533
 6018 1edd 01       		.byte	0x1
 6019 1ede FB01     		.2byte	0x1fb
 6020 1ee0 00000000 		.4byte	.LFB186
 6021 1ee4 0A000000 		.4byte	.LFE186-.LFB186
 6022 1ee8 01       		.uleb128 0x1
 6023 1ee9 9C       		.byte	0x9c
 6024 1eea 251F0000 		.4byte	0x1f25
 6025 1eee 2B       		.uleb128 0x2b
 6026 1eef 6F626A00 		.ascii	"obj\000"
 6027 1ef3 01       		.byte	0x1
 6028 1ef4 FB01     		.2byte	0x1fb
 6029 1ef6 E9020000 		.4byte	0x2e9
 6030 1efa 63000000 		.4byte	.LLST3
 6031 1efe 2B       		.uleb128 0x2b
 6032 1eff 7600     		.ascii	"v\000"
 6033 1f01 01       		.byte	0x1
 6034 1f02 FB01     		.2byte	0x1fb
 6035 1f04 D9000000 		.4byte	0xd9
 6036 1f08 84000000 		.4byte	.LLST4
 6037 1f0c 2C       		.uleb128 0x2c
 6038 1f0d 08000000 		.4byte	.LVL7
 6039 1f11 B8320000 		.4byte	0x32b8
 6040 1f15 2D       		.uleb128 0x2d
 6041 1f16 01       		.uleb128 0x1
 6042 1f17 50       		.byte	0x50
 6043 1f18 03       		.uleb128 0x3
 6044 1f19 F3       		.byte	0xf3
 6045 1f1a 01       		.uleb128 0x1
 6046 1f1b 50       		.byte	0x50
 6047 1f1c 2D       		.uleb128 0x2d
 6048 1f1d 01       		.uleb128 0x1
 6049 1f1e 51       		.byte	0x51
 6050 1f1f 03       		.uleb128 0x3
 6051 1f20 F3       		.byte	0xf3
 6052 1f21 01       		.uleb128 0x1
 6053 1f22 51       		.byte	0x51
 6054 1f23 00       		.byte	0
 6055 1f24 00       		.byte	0
ARM GAS  C:\Users\haske\AppData\Local\Temp\ccLw7Foe.s 			page 129


 6056 1f25 2A       		.uleb128 0x2a
 6057 1f26 12120000 		.4byte	.LASF534
 6058 1f2a 01       		.byte	0x1
 6059 1f2b F601     		.2byte	0x1f6
 6060 1f2d 00000000 		.4byte	.LFB185
 6061 1f31 0A000000 		.4byte	.LFE185-.LFB185
 6062 1f35 01       		.uleb128 0x1
 6063 1f36 9C       		.byte	0x9c
 6064 1f37 721F0000 		.4byte	0x1f72
 6065 1f3b 2B       		.uleb128 0x2b
 6066 1f3c 6F626A00 		.ascii	"obj\000"
 6067 1f40 01       		.byte	0x1
 6068 1f41 F601     		.2byte	0x1f6
 6069 1f43 E9020000 		.4byte	0x2e9
 6070 1f47 A5000000 		.4byte	.LLST5
 6071 1f4b 2B       		.uleb128 0x2b
 6072 1f4c 7600     		.ascii	"v\000"
 6073 1f4e 01       		.byte	0x1
 6074 1f4f F601     		.2byte	0x1f6
 6075 1f51 D9000000 		.4byte	0xd9
 6076 1f55 C6000000 		.4byte	.LLST6
 6077 1f59 2C       		.uleb128 0x2c
 6078 1f5a 08000000 		.4byte	.LVL10
 6079 1f5e C3320000 		.4byte	0x32c3
 6080 1f62 2D       		.uleb128 0x2d
 6081 1f63 01       		.uleb128 0x1
 6082 1f64 50       		.byte	0x50
 6083 1f65 03       		.uleb128 0x3
 6084 1f66 F3       		.byte	0xf3
 6085 1f67 01       		.uleb128 0x1
 6086 1f68 50       		.byte	0x50
 6087 1f69 2D       		.uleb128 0x2d
 6088 1f6a 01       		.uleb128 0x1
 6089 1f6b 51       		.byte	0x51
 6090 1f6c 03       		.uleb128 0x3
 6091 1f6d F3       		.byte	0xf3
 6092 1f6e 01       		.uleb128 0x1
 6093 1f6f 51       		.byte	0x51
 6094 1f70 00       		.byte	0
 6095 1f71 00       		.byte	0
 6096 1f72 2A       		.uleb128 0x2a
 6097 1f73 9C210000 		.4byte	.LASF535
 6098 1f77 01       		.byte	0x1
 6099 1f78 0002     		.2byte	0x200
 6100 1f7a 00000000 		.4byte	.LFB187
 6101 1f7e 52000000 		.4byte	.LFE187-.LFB187
 6102 1f82 01       		.uleb128 0x1
 6103 1f83 9C       		.byte	0x9c
 6104 1f84 0B200000 		.4byte	0x200b
 6105 1f88 2B       		.uleb128 0x2b
 6106 1f89 6100     		.ascii	"a\000"
 6107 1f8b 01       		.byte	0x1
 6108 1f8c 0002     		.2byte	0x200
 6109 1f8e 841D0000 		.4byte	0x1d84
 6110 1f92 E7000000 		.4byte	.LLST7
 6111 1f96 2E       		.uleb128 0x2e
 6112 1f97 6400     		.ascii	"d\000"
ARM GAS  C:\Users\haske\AppData\Local\Temp\ccLw7Foe.s 			page 130


 6113 1f99 01       		.byte	0x1
 6114 1f9a 0202     		.2byte	0x202
 6115 1f9c 0B200000 		.4byte	0x200b
 6116 1fa0 13010000 		.4byte	.LLST8
 6117 1fa4 2F       		.uleb128 0x2f
 6118 1fa5 0A000000 		.4byte	.LVL13
 6119 1fa9 CE320000 		.4byte	0x32ce
 6120 1fad 30       		.uleb128 0x30
 6121 1fae 16000000 		.4byte	.LVL16
 6122 1fb2 D9320000 		.4byte	0x32d9
 6123 1fb6 C61F0000 		.4byte	0x1fc6
 6124 1fba 2D       		.uleb128 0x2d
 6125 1fbb 01       		.uleb128 0x1
 6126 1fbc 51       		.byte	0x51
 6127 1fbd 02       		.uleb128 0x2
 6128 1fbe 08       		.byte	0x8
 6129 1fbf 27       		.byte	0x27
 6130 1fc0 2D       		.uleb128 0x2d
 6131 1fc1 01       		.uleb128 0x1
 6132 1fc2 52       		.byte	0x52
 6133 1fc3 01       		.uleb128 0x1
 6134 1fc4 30       		.byte	0x30
 6135 1fc5 00       		.byte	0
 6136 1fc6 30       		.uleb128 0x30
 6137 1fc7 20000000 		.4byte	.LVL17
 6138 1fcb D9320000 		.4byte	0x32d9
 6139 1fcf DF1F0000 		.4byte	0x1fdf
 6140 1fd3 2D       		.uleb128 0x2d
 6141 1fd4 01       		.uleb128 0x1
 6142 1fd5 51       		.byte	0x51
 6143 1fd6 02       		.uleb128 0x2
 6144 1fd7 08       		.byte	0x8
 6145 1fd8 28       		.byte	0x28
 6146 1fd9 2D       		.uleb128 0x2d
 6147 1fda 01       		.uleb128 0x1
 6148 1fdb 52       		.byte	0x52
 6149 1fdc 01       		.uleb128 0x1
 6150 1fdd 30       		.byte	0x30
 6151 1fde 00       		.byte	0
 6152 1fdf 2F       		.uleb128 0x2f
 6153 1fe0 32000000 		.4byte	.LVL18
 6154 1fe4 E4320000 		.4byte	0x32e4
 6155 1fe8 30       		.uleb128 0x30
 6156 1fe9 4A000000 		.4byte	.LVL19
 6157 1fed EF320000 		.4byte	0x32ef
 6158 1ff1 01200000 		.4byte	0x2001
 6159 1ff5 2D       		.uleb128 0x2d
 6160 1ff6 01       		.uleb128 0x1
 6161 1ff7 51       		.byte	0x51
 6162 1ff8 02       		.uleb128 0x2
 6163 1ff9 08       		.byte	0x8
 6164 1ffa 60       		.byte	0x60
 6165 1ffb 2D       		.uleb128 0x2d
 6166 1ffc 01       		.uleb128 0x1
 6167 1ffd 52       		.byte	0x52
 6168 1ffe 01       		.uleb128 0x1
 6169 1fff 30       		.byte	0x30
ARM GAS  C:\Users\haske\AppData\Local\Temp\ccLw7Foe.s 			page 131


 6170 2000 00       		.byte	0
 6171 2001 2F       		.uleb128 0x2f
 6172 2002 50000000 		.4byte	.LVL20
 6173 2006 FA320000 		.4byte	0x32fa
 6174 200a 00       		.byte	0
 6175 200b 0B       		.uleb128 0xb
 6176 200c 04       		.byte	0x4
 6177 200d CB170000 		.4byte	0x17cb
 6178 2011 2A       		.uleb128 0x2a
 6179 2012 14160000 		.4byte	.LASF536
 6180 2016 01       		.byte	0x1
 6181 2017 D501     		.2byte	0x1d5
 6182 2019 00000000 		.4byte	.LFB182
 6183 201d 54000000 		.4byte	.LFE182-.LFB182
 6184 2021 01       		.uleb128 0x1
 6185 2022 9C       		.byte	0x9c
 6186 2023 F6200000 		.4byte	0x20f6
 6187 2027 2B       		.uleb128 0x2b
 6188 2028 73637200 		.ascii	"scr\000"
 6189 202c 01       		.byte	0x1
 6190 202d D501     		.2byte	0x1d5
 6191 202f CE1C0000 		.4byte	0x1cce
 6192 2033 31010000 		.4byte	.LLST9
 6193 2037 2E       		.uleb128 0x2e
 6194 2038 6400     		.ascii	"d\000"
 6195 203a 01       		.byte	0x1
 6196 203b D701     		.2byte	0x1d7
 6197 203d 0B200000 		.4byte	0x200b
 6198 2041 5D010000 		.4byte	.LLST10
 6199 2045 31       		.uleb128 0x31
 6200 2046 F90D0000 		.4byte	.LASF537
 6201 204a 01       		.byte	0x1
 6202 204b DA01     		.2byte	0x1da
 6203 204d CE1C0000 		.4byte	0x1cce
 6204 2051 7B010000 		.4byte	.LLST11
 6205 2055 30       		.uleb128 0x30
 6206 2056 08000000 		.4byte	.LVL24
 6207 205a CE320000 		.4byte	0x32ce
 6208 205e 69200000 		.4byte	0x2069
 6209 2062 2D       		.uleb128 0x2d
 6210 2063 01       		.uleb128 0x1
 6211 2064 50       		.byte	0x50
 6212 2065 02       		.uleb128 0x2
 6213 2066 74       		.byte	0x74
 6214 2067 00       		.sleb128 0
 6215 2068 00       		.byte	0
 6216 2069 30       		.uleb128 0x30
 6217 206a 1C000000 		.4byte	.LVL28
 6218 206e D9320000 		.4byte	0x32d9
 6219 2072 88200000 		.4byte	0x2088
 6220 2076 2D       		.uleb128 0x2d
 6221 2077 01       		.uleb128 0x1
 6222 2078 50       		.byte	0x50
 6223 2079 02       		.uleb128 0x2
 6224 207a 76       		.byte	0x76
 6225 207b 00       		.sleb128 0
 6226 207c 2D       		.uleb128 0x2d
ARM GAS  C:\Users\haske\AppData\Local\Temp\ccLw7Foe.s 			page 132


 6227 207d 01       		.uleb128 0x1
 6228 207e 51       		.byte	0x51
 6229 207f 02       		.uleb128 0x2
 6230 2080 08       		.byte	0x8
 6231 2081 25       		.byte	0x25
 6232 2082 2D       		.uleb128 0x2d
 6233 2083 01       		.uleb128 0x1
 6234 2084 52       		.byte	0x52
 6235 2085 01       		.uleb128 0x1
 6236 2086 30       		.byte	0x30
 6237 2087 00       		.byte	0
 6238 2088 30       		.uleb128 0x30
 6239 2089 2C000000 		.4byte	.LVL29
 6240 208d D9320000 		.4byte	0x32d9
 6241 2091 A7200000 		.4byte	0x20a7
 6242 2095 2D       		.uleb128 0x2d
 6243 2096 01       		.uleb128 0x1
 6244 2097 50       		.byte	0x50
 6245 2098 02       		.uleb128 0x2
 6246 2099 74       		.byte	0x74
 6247 209a 00       		.sleb128 0
 6248 209b 2D       		.uleb128 0x2d
 6249 209c 01       		.uleb128 0x1
 6250 209d 51       		.byte	0x51
 6251 209e 02       		.uleb128 0x2
 6252 209f 08       		.byte	0x8
 6253 20a0 26       		.byte	0x26
 6254 20a1 2D       		.uleb128 0x2d
 6255 20a2 01       		.uleb128 0x1
 6256 20a3 52       		.byte	0x52
 6257 20a4 01       		.uleb128 0x1
 6258 20a5 30       		.byte	0x30
 6259 20a6 00       		.byte	0
 6260 20a7 30       		.uleb128 0x30
 6261 20a8 3C000000 		.4byte	.LVL30
 6262 20ac D9320000 		.4byte	0x32d9
 6263 20b0 C6200000 		.4byte	0x20c6
 6264 20b4 2D       		.uleb128 0x2d
 6265 20b5 01       		.uleb128 0x1
 6266 20b6 50       		.byte	0x50
 6267 20b7 02       		.uleb128 0x2
 6268 20b8 74       		.byte	0x74
 6269 20b9 00       		.sleb128 0
 6270 20ba 2D       		.uleb128 0x2d
 6271 20bb 01       		.uleb128 0x1
 6272 20bc 51       		.byte	0x51
 6273 20bd 02       		.uleb128 0x2
 6274 20be 08       		.byte	0x8
 6275 20bf 27       		.byte	0x27
 6276 20c0 2D       		.uleb128 0x2d
 6277 20c1 01       		.uleb128 0x1
 6278 20c2 52       		.byte	0x52
 6279 20c3 01       		.uleb128 0x1
 6280 20c4 30       		.byte	0x30
 6281 20c5 00       		.byte	0
 6282 20c6 30       		.uleb128 0x30
 6283 20c7 4C000000 		.4byte	.LVL31
ARM GAS  C:\Users\haske\AppData\Local\Temp\ccLw7Foe.s 			page 133


 6284 20cb D9320000 		.4byte	0x32d9
 6285 20cf E5200000 		.4byte	0x20e5
 6286 20d3 2D       		.uleb128 0x2d
 6287 20d4 01       		.uleb128 0x1
 6288 20d5 50       		.byte	0x50
 6289 20d6 02       		.uleb128 0x2
 6290 20d7 76       		.byte	0x76
 6291 20d8 00       		.sleb128 0
 6292 20d9 2D       		.uleb128 0x2d
 6293 20da 01       		.uleb128 0x1
 6294 20db 51       		.byte	0x51
 6295 20dc 02       		.uleb128 0x2
 6296 20dd 08       		.byte	0x8
 6297 20de 28       		.byte	0x28
 6298 20df 2D       		.uleb128 0x2d
 6299 20e0 01       		.uleb128 0x1
 6300 20e1 52       		.byte	0x52
 6301 20e2 01       		.uleb128 0x1
 6302 20e3 30       		.byte	0x30
 6303 20e4 00       		.byte	0
 6304 20e5 2C       		.uleb128 0x2c
 6305 20e6 52000000 		.4byte	.LVL32
 6306 20ea FA320000 		.4byte	0x32fa
 6307 20ee 2D       		.uleb128 0x2d
 6308 20ef 01       		.uleb128 0x1
 6309 20f0 50       		.byte	0x50
 6310 20f1 02       		.uleb128 0x2
 6311 20f2 74       		.byte	0x74
 6312 20f3 00       		.sleb128 0
 6313 20f4 00       		.byte	0
 6314 20f5 00       		.byte	0
 6315 20f6 32       		.uleb128 0x32
 6316 20f7 B5170000 		.4byte	.LASF539
 6317 20fb 01       		.byte	0x1
 6318 20fc 32       		.byte	0x32
 6319 20fd CE1C0000 		.4byte	0x1cce
 6320 2101 00000000 		.4byte	.LFB165
 6321 2105 16000000 		.4byte	.LFE165-.LFB165
 6322 2109 01       		.uleb128 0x1
 6323 210a 9C       		.byte	0x9c
 6324 210b 28210000 		.4byte	0x2128
 6325 210f 33       		.uleb128 0x33
 6326 2110 7E140000 		.4byte	.LASF391
 6327 2114 01       		.byte	0x1
 6328 2115 32       		.byte	0x32
 6329 2116 0B200000 		.4byte	0x200b
 6330 211a 8E010000 		.4byte	.LLST12
 6331 211e 2F       		.uleb128 0x2f
 6332 211f 0A000000 		.4byte	.LVL36
 6333 2123 06330000 		.4byte	0x3306
 6334 2127 00       		.byte	0
 6335 2128 2A       		.uleb128 0x2a
 6336 2129 E1060000 		.4byte	.LASF538
 6337 212d 01       		.byte	0x1
 6338 212e E701     		.2byte	0x1e7
 6339 2130 00000000 		.4byte	.LFB183
 6340 2134 24000000 		.4byte	.LFE183-.LFB183
ARM GAS  C:\Users\haske\AppData\Local\Temp\ccLw7Foe.s 			page 134


 6341 2138 01       		.uleb128 0x1
 6342 2139 9C       		.byte	0x9c
 6343 213a A0210000 		.4byte	0x21a0
 6344 213e 2B       		.uleb128 0x2b
 6345 213f 6100     		.ascii	"a\000"
 6346 2141 01       		.byte	0x1
 6347 2142 E701     		.2byte	0x1e7
 6348 2144 841D0000 		.4byte	0x1d84
 6349 2148 C5010000 		.4byte	.LLST13
 6350 214c 2E       		.uleb128 0x2e
 6351 214d 6400     		.ascii	"d\000"
 6352 214f 01       		.byte	0x1
 6353 2150 E901     		.2byte	0x1e9
 6354 2152 0B200000 		.4byte	0x200b
 6355 2156 F1010000 		.4byte	.LLST14
 6356 215a 34       		.uleb128 0x34
 6357 215b 571D0000 		.4byte	0x1d57
 6358 215f 0C000000 		.4byte	.LBB104
 6359 2163 08000000 		.4byte	.LBE104-.LBB104
 6360 2167 01       		.byte	0x1
 6361 2168 EB01     		.2byte	0x1eb
 6362 216a 81210000 		.4byte	0x2181
 6363 216e 2F       		.uleb128 0x2f
 6364 216f 10000000 		.4byte	.LVL44
 6365 2173 06330000 		.4byte	0x3306
 6366 2177 2F       		.uleb128 0x2f
 6367 2178 14000000 		.4byte	.LVL45
 6368 217c F6200000 		.4byte	0x20f6
 6369 2180 00       		.byte	0
 6370 2181 2F       		.uleb128 0x2f
 6371 2182 0A000000 		.4byte	.LVL42
 6372 2186 CE320000 		.4byte	0x32ce
 6373 218a 2C       		.uleb128 0x2c
 6374 218b 22000000 		.4byte	.LVL46
 6375 218f D9320000 		.4byte	0x32d9
 6376 2193 2D       		.uleb128 0x2d
 6377 2194 01       		.uleb128 0x1
 6378 2195 51       		.byte	0x51
 6379 2196 02       		.uleb128 0x2
 6380 2197 08       		.byte	0x8
 6381 2198 26       		.byte	0x26
 6382 2199 2D       		.uleb128 0x2d
 6383 219a 01       		.uleb128 0x1
 6384 219b 52       		.byte	0x52
 6385 219c 01       		.uleb128 0x1
 6386 219d 30       		.byte	0x30
 6387 219e 00       		.byte	0
 6388 219f 00       		.byte	0
 6389 21a0 32       		.uleb128 0x32
 6390 21a1 731E0000 		.4byte	.LASF540
 6391 21a5 01       		.byte	0x1
 6392 21a6 43       		.byte	0x43
 6393 21a7 CE1C0000 		.4byte	0x1cce
 6394 21ab 00000000 		.4byte	.LFB166
 6395 21af 16000000 		.4byte	.LFE166-.LFB166
 6396 21b3 01       		.uleb128 0x1
 6397 21b4 9C       		.byte	0x9c
ARM GAS  C:\Users\haske\AppData\Local\Temp\ccLw7Foe.s 			page 135


 6398 21b5 D2210000 		.4byte	0x21d2
 6399 21b9 33       		.uleb128 0x33
 6400 21ba 7E140000 		.4byte	.LASF391
 6401 21be 01       		.byte	0x1
 6402 21bf 43       		.byte	0x43
 6403 21c0 0B200000 		.4byte	0x200b
 6404 21c4 0F020000 		.4byte	.LLST15
 6405 21c8 2F       		.uleb128 0x2f
 6406 21c9 0A000000 		.4byte	.LVL50
 6407 21cd 06330000 		.4byte	0x3306
 6408 21d1 00       		.byte	0
 6409 21d2 32       		.uleb128 0x32
 6410 21d3 7F190000 		.4byte	.LASF541
 6411 21d7 01       		.byte	0x1
 6412 21d8 5C       		.byte	0x5c
 6413 21d9 CE1C0000 		.4byte	0x1cce
 6414 21dd 00000000 		.4byte	.LFB168
 6415 21e1 16000000 		.4byte	.LFE168-.LFB168
 6416 21e5 01       		.uleb128 0x1
 6417 21e6 9C       		.byte	0x9c
 6418 21e7 04220000 		.4byte	0x2204
 6419 21eb 33       		.uleb128 0x33
 6420 21ec 7E140000 		.4byte	.LASF391
 6421 21f0 01       		.byte	0x1
 6422 21f1 5C       		.byte	0x5c
 6423 21f2 0B200000 		.4byte	0x200b
 6424 21f6 46020000 		.4byte	.LLST16
 6425 21fa 2F       		.uleb128 0x2f
 6426 21fb 0A000000 		.4byte	.LVL55
 6427 21ff 06330000 		.4byte	0x3306
 6428 2203 00       		.byte	0
 6429 2204 32       		.uleb128 0x32
 6430 2205 87000000 		.4byte	.LASF542
 6431 2209 01       		.byte	0x1
 6432 220a 6D       		.byte	0x6d
 6433 220b CE1C0000 		.4byte	0x1cce
 6434 220f 00000000 		.4byte	.LFB169
 6435 2213 16000000 		.4byte	.LFE169-.LFB169
 6436 2217 01       		.uleb128 0x1
 6437 2218 9C       		.byte	0x9c
 6438 2219 36220000 		.4byte	0x2236
 6439 221d 33       		.uleb128 0x33
 6440 221e 7E140000 		.4byte	.LASF391
 6441 2222 01       		.byte	0x1
 6442 2223 6D       		.byte	0x6d
 6443 2224 0B200000 		.4byte	0x200b
 6444 2228 7D020000 		.4byte	.LLST17
 6445 222c 2F       		.uleb128 0x2f
 6446 222d 0A000000 		.4byte	.LVL60
 6447 2231 06330000 		.4byte	0x3306
 6448 2235 00       		.byte	0
 6449 2236 35       		.uleb128 0x35
 6450 2237 17210000 		.4byte	.LASF544
 6451 223b 01       		.byte	0x1
 6452 223c 7C       		.byte	0x7c
 6453 223d 00000000 		.4byte	.LFB170
 6454 2241 4A000000 		.4byte	.LFE170-.LFB170
ARM GAS  C:\Users\haske\AppData\Local\Temp\ccLw7Foe.s 			page 136


 6455 2245 01       		.uleb128 0x1
 6456 2246 9C       		.byte	0x9c
 6457 2247 96220000 		.4byte	0x2296
 6458 224b 33       		.uleb128 0x33
 6459 224c 7E140000 		.4byte	.LASF391
 6460 2250 01       		.byte	0x1
 6461 2251 7C       		.byte	0x7c
 6462 2252 0B200000 		.4byte	0x200b
 6463 2256 B4020000 		.4byte	.LLST18
 6464 225a 36       		.uleb128 0x36
 6465 225b 746800   		.ascii	"th\000"
 6466 225e 01       		.byte	0x1
 6467 225f 7C       		.byte	0x7c
 6468 2260 96220000 		.4byte	0x2296
 6469 2264 E8020000 		.4byte	.LLST19
 6470 2268 2F       		.uleb128 0x2f
 6471 2269 0E000000 		.4byte	.LVL65
 6472 226d 06330000 		.4byte	0x3306
 6473 2271 2F       		.uleb128 0x2f
 6474 2272 24000000 		.4byte	.LVL68
 6475 2276 12330000 		.4byte	0x3312
 6476 227a 2F       		.uleb128 0x2f
 6477 227b 30000000 		.4byte	.LVL69
 6478 227f 12330000 		.4byte	0x3312
 6479 2283 2F       		.uleb128 0x2f
 6480 2284 3C000000 		.4byte	.LVL70
 6481 2288 12330000 		.4byte	0x3312
 6482 228c 2F       		.uleb128 0x2f
 6483 228d 48000000 		.4byte	.LVL71
 6484 2291 1D330000 		.4byte	0x331d
 6485 2295 00       		.byte	0
 6486 2296 0B       		.uleb128 0xb
 6487 2297 04       		.byte	0x4
 6488 2298 D41C0000 		.4byte	0x1cd4
 6489 229c 32       		.uleb128 0x32
 6490 229d 13110000 		.4byte	.LASF543
 6491 22a1 01       		.byte	0x1
 6492 22a2 92       		.byte	0x92
 6493 22a3 96220000 		.4byte	0x2296
 6494 22a7 00000000 		.4byte	.LFB171
 6495 22ab 0E000000 		.4byte	.LFE171-.LFB171
 6496 22af 01       		.uleb128 0x1
 6497 22b0 9C       		.byte	0x9c
 6498 22b1 CE220000 		.4byte	0x22ce
 6499 22b5 33       		.uleb128 0x33
 6500 22b6 7E140000 		.4byte	.LASF391
 6501 22ba 01       		.byte	0x1
 6502 22bb 92       		.byte	0x92
 6503 22bc 0B200000 		.4byte	0x200b
 6504 22c0 14030000 		.4byte	.LLST20
 6505 22c4 2F       		.uleb128 0x2f
 6506 22c5 0A000000 		.4byte	.LVL75
 6507 22c9 06330000 		.4byte	0x3306
 6508 22cd 00       		.byte	0
 6509 22ce 35       		.uleb128 0x35
 6510 22cf 0B130000 		.4byte	.LASF545
 6511 22d3 01       		.byte	0x1
ARM GAS  C:\Users\haske\AppData\Local\Temp\ccLw7Foe.s 			page 137


 6512 22d4 9D       		.byte	0x9d
 6513 22d5 00000000 		.4byte	.LFB172
 6514 22d9 46000000 		.4byte	.LFE172-.LFB172
 6515 22dd 01       		.uleb128 0x1
 6516 22de 9C       		.byte	0x9c
 6517 22df 79230000 		.4byte	0x2379
 6518 22e3 33       		.uleb128 0x33
 6519 22e4 7E140000 		.4byte	.LASF391
 6520 22e8 01       		.byte	0x1
 6521 22e9 9D       		.byte	0x9d
 6522 22ea 0B200000 		.4byte	0x200b
 6523 22ee 40030000 		.4byte	.LLST21
 6524 22f2 33       		.uleb128 0x33
 6525 22f3 1B1B0000 		.4byte	.LASF104
 6526 22f7 01       		.byte	0x1
 6527 22f8 9D       		.byte	0x9d
 6528 22f9 C9030000 		.4byte	0x3c9
 6529 22fd 74030000 		.4byte	.LLST22
 6530 2301 37       		.uleb128 0x37
 6531 2302 6100     		.ascii	"a\000"
 6532 2304 01       		.byte	0x1
 6533 2305 A7       		.byte	0xa7
 6534 2306 69010000 		.4byte	0x169
 6535 230a 02       		.uleb128 0x2
 6536 230b 91       		.byte	0x91
 6537 230c 68       		.sleb128 -24
 6538 230d 2F       		.uleb128 0x2f
 6539 230e 10000000 		.4byte	.LVL78
 6540 2312 06330000 		.4byte	0x3306
 6541 2316 30       		.uleb128 0x30
 6542 2317 1E000000 		.4byte	.LVL80
 6543 231b 28330000 		.4byte	0x3328
 6544 231f 2A230000 		.4byte	0x232a
 6545 2323 2D       		.uleb128 0x2d
 6546 2324 01       		.uleb128 0x1
 6547 2325 50       		.byte	0x50
 6548 2326 02       		.uleb128 0x2
 6549 2327 74       		.byte	0x74
 6550 2328 00       		.sleb128 0
 6551 2329 00       		.byte	0
 6552 232a 30       		.uleb128 0x30
 6553 232b 26000000 		.4byte	.LVL82
 6554 232f 34330000 		.4byte	0x3334
 6555 2333 3E230000 		.4byte	0x233e
 6556 2337 2D       		.uleb128 0x2d
 6557 2338 01       		.uleb128 0x1
 6558 2339 50       		.byte	0x50
 6559 233a 02       		.uleb128 0x2
 6560 233b 74       		.byte	0x74
 6561 233c 00       		.sleb128 0
 6562 233d 00       		.byte	0
 6563 233e 30       		.uleb128 0x30
 6564 233f 3A000000 		.4byte	.LVL83
 6565 2343 40330000 		.4byte	0x3340
 6566 2347 62230000 		.4byte	0x2362
 6567 234b 2D       		.uleb128 0x2d
 6568 234c 01       		.uleb128 0x1
ARM GAS  C:\Users\haske\AppData\Local\Temp\ccLw7Foe.s 			page 138


 6569 234d 50       		.byte	0x50
 6570 234e 02       		.uleb128 0x2
 6571 234f 91       		.byte	0x91
 6572 2350 68       		.sleb128 -24
 6573 2351 2D       		.uleb128 0x2d
 6574 2352 01       		.uleb128 0x1
 6575 2353 51       		.byte	0x51
 6576 2354 01       		.uleb128 0x1
 6577 2355 30       		.byte	0x30
 6578 2356 2D       		.uleb128 0x2d
 6579 2357 01       		.uleb128 0x1
 6580 2358 52       		.byte	0x52
 6581 2359 01       		.uleb128 0x1
 6582 235a 30       		.byte	0x30
 6583 235b 2D       		.uleb128 0x2d
 6584 235c 01       		.uleb128 0x1
 6585 235d 53       		.byte	0x53
 6586 235e 02       		.uleb128 0x2
 6587 235f 75       		.byte	0x75
 6588 2360 00       		.sleb128 0
 6589 2361 00       		.byte	0
 6590 2362 2C       		.uleb128 0x2c
 6591 2363 42000000 		.4byte	.LVL84
 6592 2367 4B330000 		.4byte	0x334b
 6593 236b 2D       		.uleb128 0x2d
 6594 236c 01       		.uleb128 0x1
 6595 236d 50       		.byte	0x50
 6596 236e 02       		.uleb128 0x2
 6597 236f 74       		.byte	0x74
 6598 2370 00       		.sleb128 0
 6599 2371 2D       		.uleb128 0x2d
 6600 2372 01       		.uleb128 0x1
 6601 2373 51       		.byte	0x51
 6602 2374 02       		.uleb128 0x2
 6603 2375 91       		.byte	0x91
 6604 2376 68       		.sleb128 -24
 6605 2377 00       		.byte	0
 6606 2378 00       		.byte	0
 6607 2379 35       		.uleb128 0x35
 6608 237a FC190000 		.4byte	.LASF546
 6609 237e 01       		.byte	0x1
 6610 237f B2       		.byte	0xb2
 6611 2380 00000000 		.4byte	.LFB173
 6612 2384 46000000 		.4byte	.LFE173-.LFB173
 6613 2388 01       		.uleb128 0x1
 6614 2389 9C       		.byte	0x9c
 6615 238a 24240000 		.4byte	0x2424
 6616 238e 33       		.uleb128 0x33
 6617 238f 7E140000 		.4byte	.LASF391
 6618 2393 01       		.byte	0x1
 6619 2394 B2       		.byte	0xb2
 6620 2395 0B200000 		.4byte	0x200b
 6621 2399 A8030000 		.4byte	.LLST23
 6622 239d 33       		.uleb128 0x33
 6623 239e B70E0000 		.4byte	.LASF283
 6624 23a2 01       		.byte	0x1
 6625 23a3 B2       		.byte	0xb2
ARM GAS  C:\Users\haske\AppData\Local\Temp\ccLw7Foe.s 			page 139


 6626 23a4 E2020000 		.4byte	0x2e2
 6627 23a8 DC030000 		.4byte	.LLST24
 6628 23ac 37       		.uleb128 0x37
 6629 23ad 6100     		.ascii	"a\000"
 6630 23af 01       		.byte	0x1
 6631 23b0 BC       		.byte	0xbc
 6632 23b1 69010000 		.4byte	0x169
 6633 23b5 02       		.uleb128 0x2
 6634 23b6 91       		.byte	0x91
 6635 23b7 68       		.sleb128 -24
 6636 23b8 2F       		.uleb128 0x2f
 6637 23b9 10000000 		.4byte	.LVL87
 6638 23bd 06330000 		.4byte	0x3306
 6639 23c1 30       		.uleb128 0x30
 6640 23c2 1E000000 		.4byte	.LVL89
 6641 23c6 28330000 		.4byte	0x3328
 6642 23ca D5230000 		.4byte	0x23d5
 6643 23ce 2D       		.uleb128 0x2d
 6644 23cf 01       		.uleb128 0x1
 6645 23d0 50       		.byte	0x50
 6646 23d1 02       		.uleb128 0x2
 6647 23d2 74       		.byte	0x74
 6648 23d3 00       		.sleb128 0
 6649 23d4 00       		.byte	0
 6650 23d5 30       		.uleb128 0x30
 6651 23d6 26000000 		.4byte	.LVL91
 6652 23da 34330000 		.4byte	0x3334
 6653 23de E9230000 		.4byte	0x23e9
 6654 23e2 2D       		.uleb128 0x2d
 6655 23e3 01       		.uleb128 0x1
 6656 23e4 50       		.byte	0x50
 6657 23e5 02       		.uleb128 0x2
 6658 23e6 74       		.byte	0x74
 6659 23e7 00       		.sleb128 0
 6660 23e8 00       		.byte	0
 6661 23e9 30       		.uleb128 0x30
 6662 23ea 3A000000 		.4byte	.LVL92
 6663 23ee 40330000 		.4byte	0x3340
 6664 23f2 0D240000 		.4byte	0x240d
 6665 23f6 2D       		.uleb128 0x2d
 6666 23f7 01       		.uleb128 0x1
 6667 23f8 50       		.byte	0x50
 6668 23f9 02       		.uleb128 0x2
 6669 23fa 91       		.byte	0x91
 6670 23fb 68       		.sleb128 -24
 6671 23fc 2D       		.uleb128 0x2d
 6672 23fd 01       		.uleb128 0x1
 6673 23fe 51       		.byte	0x51
 6674 23ff 01       		.uleb128 0x1
 6675 2400 30       		.byte	0x30
 6676 2401 2D       		.uleb128 0x2d
 6677 2402 01       		.uleb128 0x1
 6678 2403 52       		.byte	0x52
 6679 2404 01       		.uleb128 0x1
 6680 2405 30       		.byte	0x30
 6681 2406 2D       		.uleb128 0x2d
 6682 2407 01       		.uleb128 0x1
ARM GAS  C:\Users\haske\AppData\Local\Temp\ccLw7Foe.s 			page 140


 6683 2408 53       		.byte	0x53
 6684 2409 02       		.uleb128 0x2
 6685 240a 75       		.byte	0x75
 6686 240b 00       		.sleb128 0
 6687 240c 00       		.byte	0
 6688 240d 2C       		.uleb128 0x2c
 6689 240e 42000000 		.4byte	.LVL93
 6690 2412 4B330000 		.4byte	0x334b
 6691 2416 2D       		.uleb128 0x2d
 6692 2417 01       		.uleb128 0x1
 6693 2418 50       		.byte	0x50
 6694 2419 02       		.uleb128 0x2
 6695 241a 74       		.byte	0x74
 6696 241b 00       		.sleb128 0
 6697 241c 2D       		.uleb128 0x2d
 6698 241d 01       		.uleb128 0x1
 6699 241e 51       		.byte	0x51
 6700 241f 02       		.uleb128 0x2
 6701 2420 91       		.byte	0x91
 6702 2421 68       		.sleb128 -24
 6703 2422 00       		.byte	0
 6704 2423 00       		.byte	0
 6705 2424 35       		.uleb128 0x35
 6706 2425 79210000 		.4byte	.LASF547
 6707 2429 01       		.byte	0x1
 6708 242a C6       		.byte	0xc6
 6709 242b 00000000 		.4byte	.LFB174
 6710 242f 48000000 		.4byte	.LFE174-.LFB174
 6711 2433 01       		.uleb128 0x1
 6712 2434 9C       		.byte	0x9c
 6713 2435 CF240000 		.4byte	0x24cf
 6714 2439 33       		.uleb128 0x33
 6715 243a 7E140000 		.4byte	.LASF391
 6716 243e 01       		.byte	0x1
 6717 243f C6       		.byte	0xc6
 6718 2440 0B200000 		.4byte	0x200b
 6719 2444 08040000 		.4byte	.LLST25
 6720 2448 36       		.uleb128 0x36
 6721 2449 6F706100 		.ascii	"opa\000"
 6722 244d 01       		.byte	0x1
 6723 244e C6       		.byte	0xc6
 6724 244f D4030000 		.4byte	0x3d4
 6725 2453 3C040000 		.4byte	.LLST26
 6726 2457 37       		.uleb128 0x37
 6727 2458 6100     		.ascii	"a\000"
 6728 245a 01       		.byte	0x1
 6729 245b D0       		.byte	0xd0
 6730 245c 69010000 		.4byte	0x169
 6731 2460 02       		.uleb128 0x2
 6732 2461 91       		.byte	0x91
 6733 2462 68       		.sleb128 -24
 6734 2463 2F       		.uleb128 0x2f
 6735 2464 10000000 		.4byte	.LVL96
 6736 2468 06330000 		.4byte	0x3306
 6737 246c 30       		.uleb128 0x30
 6738 246d 20000000 		.4byte	.LVL98
 6739 2471 28330000 		.4byte	0x3328
ARM GAS  C:\Users\haske\AppData\Local\Temp\ccLw7Foe.s 			page 141


 6740 2475 80240000 		.4byte	0x2480
 6741 2479 2D       		.uleb128 0x2d
 6742 247a 01       		.uleb128 0x1
 6743 247b 50       		.byte	0x50
 6744 247c 02       		.uleb128 0x2
 6745 247d 74       		.byte	0x74
 6746 247e 00       		.sleb128 0
 6747 247f 00       		.byte	0
 6748 2480 30       		.uleb128 0x30
 6749 2481 28000000 		.4byte	.LVL99
 6750 2485 34330000 		.4byte	0x3334
 6751 2489 94240000 		.4byte	0x2494
 6752 248d 2D       		.uleb128 0x2d
 6753 248e 01       		.uleb128 0x1
 6754 248f 50       		.byte	0x50
 6755 2490 02       		.uleb128 0x2
 6756 2491 74       		.byte	0x74
 6757 2492 00       		.sleb128 0
 6758 2493 00       		.byte	0
 6759 2494 30       		.uleb128 0x30
 6760 2495 3C000000 		.4byte	.LVL100
 6761 2499 40330000 		.4byte	0x3340
 6762 249d B8240000 		.4byte	0x24b8
 6763 24a1 2D       		.uleb128 0x2d
 6764 24a2 01       		.uleb128 0x1
 6765 24a3 50       		.byte	0x50
 6766 24a4 02       		.uleb128 0x2
 6767 24a5 91       		.byte	0x91
 6768 24a6 68       		.sleb128 -24
 6769 24a7 2D       		.uleb128 0x2d
 6770 24a8 01       		.uleb128 0x1
 6771 24a9 51       		.byte	0x51
 6772 24aa 01       		.uleb128 0x1
 6773 24ab 30       		.byte	0x30
 6774 24ac 2D       		.uleb128 0x2d
 6775 24ad 01       		.uleb128 0x1
 6776 24ae 52       		.byte	0x52
 6777 24af 01       		.uleb128 0x1
 6778 24b0 30       		.byte	0x30
 6779 24b1 2D       		.uleb128 0x2d
 6780 24b2 01       		.uleb128 0x1
 6781 24b3 53       		.byte	0x53
 6782 24b4 02       		.uleb128 0x2
 6783 24b5 75       		.byte	0x75
 6784 24b6 00       		.sleb128 0
 6785 24b7 00       		.byte	0
 6786 24b8 2C       		.uleb128 0x2c
 6787 24b9 44000000 		.4byte	.LVL101
 6788 24bd 4B330000 		.4byte	0x334b
 6789 24c1 2D       		.uleb128 0x2d
 6790 24c2 01       		.uleb128 0x1
 6791 24c3 50       		.byte	0x50
 6792 24c4 02       		.uleb128 0x2
 6793 24c5 74       		.byte	0x74
 6794 24c6 00       		.sleb128 0
 6795 24c7 2D       		.uleb128 0x2d
 6796 24c8 01       		.uleb128 0x1
ARM GAS  C:\Users\haske\AppData\Local\Temp\ccLw7Foe.s 			page 142


 6797 24c9 51       		.byte	0x51
 6798 24ca 02       		.uleb128 0x2
 6799 24cb 91       		.byte	0x91
 6800 24cc 68       		.sleb128 -24
 6801 24cd 00       		.byte	0
 6802 24ce 00       		.byte	0
 6803 24cf 35       		.uleb128 0x35
 6804 24d0 EC1A0000 		.4byte	.LASF548
 6805 24d4 01       		.byte	0x1
 6806 24d5 DD       		.byte	0xdd
 6807 24d6 00000000 		.4byte	.LFB175
 6808 24da C8020000 		.4byte	.LFE175-.LFB175
 6809 24de 01       		.uleb128 0x1
 6810 24df 9C       		.byte	0x9c
 6811 24e0 A5300000 		.4byte	0x30a5
 6812 24e4 33       		.uleb128 0x33
 6813 24e5 33030000 		.4byte	.LASF549
 6814 24e9 01       		.byte	0x1
 6815 24ea DD       		.byte	0xdd
 6816 24eb CE1C0000 		.4byte	0x1cce
 6817 24ef 5D040000 		.4byte	.LLST27
 6818 24f3 33       		.uleb128 0x33
 6819 24f4 66150000 		.4byte	.LASF531
 6820 24f8 01       		.byte	0x1
 6821 24f9 DD       		.byte	0xdd
 6822 24fa 4C1D0000 		.4byte	0x1d4c
 6823 24fe ED040000 		.4byte	.LLST28
 6824 2502 33       		.uleb128 0x33
 6825 2503 211B0000 		.4byte	.LASF80
 6826 2507 01       		.byte	0x1
 6827 2508 DD       		.byte	0xdd
 6828 2509 E4000000 		.4byte	0xe4
 6829 250d 0E050000 		.4byte	.LLST29
 6830 2511 33       		.uleb128 0x33
 6831 2512 A1030000 		.4byte	.LASF521
 6832 2516 01       		.byte	0x1
 6833 2517 DD       		.byte	0xdd
 6834 2518 E4000000 		.4byte	0xe4
 6835 251c 70060000 		.4byte	.LLST30
 6836 2520 33       		.uleb128 0x33
 6837 2521 431A0000 		.4byte	.LASF550
 6838 2525 01       		.byte	0x1
 6839 2526 DD       		.byte	0xdd
 6840 2527 AA020000 		.4byte	0x2aa
 6841 252b 9C060000 		.4byte	.LLST31
 6842 252f 38       		.uleb128 0x38
 6843 2530 6400     		.ascii	"d\000"
 6844 2532 01       		.byte	0x1
 6845 2533 E0       		.byte	0xe0
 6846 2534 0B200000 		.4byte	0x200b
 6847 2538 C8060000 		.4byte	.LLST32
 6848 253c 39       		.uleb128 0x39
 6849 253d CE000000 		.4byte	.LASF374
 6850 2541 01       		.byte	0x1
 6851 2542 E1       		.byte	0xe1
 6852 2543 CE1C0000 		.4byte	0x1cce
 6853 2547 E6060000 		.4byte	.LLST33
ARM GAS  C:\Users\haske\AppData\Local\Temp\ccLw7Foe.s 			page 143


 6854 254b 3A       		.uleb128 0x3a
 6855 254c 2A020000 		.4byte	.LASF551
 6856 2550 01       		.byte	0x1
 6857 2551 0C01     		.2byte	0x10c
 6858 2553 98050000 		.4byte	0x598
 6859 2557 03       		.uleb128 0x3
 6860 2558 91       		.byte	0x91
 6861 2559 9C7F     		.sleb128 -100
 6862 255b 3A       		.uleb128 0x3a
 6863 255c 30150000 		.4byte	.LASF552
 6864 2560 01       		.byte	0x1
 6865 2561 1401     		.2byte	0x114
 6866 2563 98050000 		.4byte	0x598
 6867 2567 03       		.uleb128 0x3
 6868 2568 91       		.byte	0x91
 6869 2569 D87E     		.sleb128 -168
 6870 256b 3B       		.uleb128 0x3b
 6871 256c 571D0000 		.4byte	0x1d57
 6872 2570 1E000000 		.4byte	.LBB106
 6873 2574 0A000000 		.4byte	.LBE106-.LBB106
 6874 2578 01       		.byte	0x1
 6875 2579 E1       		.byte	0xe1
 6876 257a 91250000 		.4byte	0x2591
 6877 257e 2F       		.uleb128 0x2f
 6878 257f 22000000 		.4byte	.LVL107
 6879 2583 06330000 		.4byte	0x3306
 6880 2587 2F       		.uleb128 0x2f
 6881 2588 26000000 		.4byte	.LVL108
 6882 258c F6200000 		.4byte	0x20f6
 6883 2590 00       		.byte	0
 6884 2591 3B       		.uleb128 0x3b
 6885 2592 571D0000 		.4byte	0x1d57
 6886 2596 A4000000 		.4byte	.LBB108
 6887 259a 08000000 		.4byte	.LBE108-.LBB108
 6888 259e 01       		.byte	0x1
 6889 259f FD       		.byte	0xfd
 6890 25a0 B7250000 		.4byte	0x25b7
 6891 25a4 2F       		.uleb128 0x2f
 6892 25a5 A8000000 		.4byte	.LVL118
 6893 25a9 06330000 		.4byte	0x3306
 6894 25ad 2F       		.uleb128 0x2f
 6895 25ae AC000000 		.4byte	.LVL119
 6896 25b2 F6200000 		.4byte	0x20f6
 6897 25b6 00       		.byte	0
 6898 25b7 34       		.uleb128 0x34
 6899 25b8 571D0000 		.4byte	0x1d57
 6900 25bc BC000000 		.4byte	.LBB110
 6901 25c0 08000000 		.4byte	.LBE110-.LBB110
 6902 25c4 01       		.byte	0x1
 6903 25c5 0101     		.2byte	0x101
 6904 25c7 DE250000 		.4byte	0x25de
 6905 25cb 2F       		.uleb128 0x2f
 6906 25cc C0000000 		.4byte	.LVL122
 6907 25d0 06330000 		.4byte	0x3306
 6908 25d4 2F       		.uleb128 0x2f
 6909 25d5 C4000000 		.4byte	.LVL123
 6910 25d9 F6200000 		.4byte	0x20f6
ARM GAS  C:\Users\haske\AppData\Local\Temp\ccLw7Foe.s 			page 144


 6911 25dd 00       		.byte	0
 6912 25de 34       		.uleb128 0x34
 6913 25df 571D0000 		.4byte	0x1d57
 6914 25e3 D6000000 		.4byte	.LBB112
 6915 25e7 08000000 		.4byte	.LBE112-.LBB112
 6916 25eb 01       		.byte	0x1
 6917 25ec 0301     		.2byte	0x103
 6918 25ee 05260000 		.4byte	0x2605
 6919 25f2 2F       		.uleb128 0x2f
 6920 25f3 DA000000 		.4byte	.LVL126
 6921 25f7 06330000 		.4byte	0x3306
 6922 25fb 2F       		.uleb128 0x2f
 6923 25fc DE000000 		.4byte	.LVL127
 6924 2600 F6200000 		.4byte	0x20f6
 6925 2604 00       		.byte	0
 6926 2605 34       		.uleb128 0x34
 6927 2606 AB1D0000 		.4byte	0x1dab
 6928 260a FA000000 		.4byte	.LBB114
 6929 260e 02000000 		.4byte	.LBE114-.LBB114
 6930 2612 01       		.byte	0x1
 6931 2613 0E01     		.2byte	0x10e
 6932 2615 2C260000 		.4byte	0x262c
 6933 2619 3C       		.uleb128 0x3c
 6934 261a C01D0000 		.4byte	0x1dc0
 6935 261e F9060000 		.4byte	.LLST34
 6936 2622 3C       		.uleb128 0x3c
 6937 2623 B71D0000 		.4byte	0x1db7
 6938 2627 0C070000 		.4byte	.LLST35
 6939 262b 00       		.byte	0
 6940 262c 34       		.uleb128 0x34
 6941 262d ED1D0000 		.4byte	0x1ded
 6942 2631 FC000000 		.4byte	.LBB116
 6943 2635 04000000 		.4byte	.LBE116-.LBB116
 6944 2639 01       		.byte	0x1
 6945 263a 0F01     		.2byte	0x10f
 6946 263c 53260000 		.4byte	0x2653
 6947 2640 3C       		.uleb128 0x3c
 6948 2641 021E0000 		.4byte	0x1e02
 6949 2645 22070000 		.4byte	.LLST36
 6950 2649 3C       		.uleb128 0x3c
 6951 264a F91D0000 		.4byte	0x1df9
 6952 264e 3A070000 		.4byte	.LLST37
 6953 2652 00       		.byte	0
 6954 2653 34       		.uleb128 0x34
 6955 2654 CC1D0000 		.4byte	0x1dcc
 6956 2658 00010000 		.4byte	.LBB118
 6957 265c 04000000 		.4byte	.LBE118-.LBB118
 6958 2660 01       		.byte	0x1
 6959 2661 1001     		.2byte	0x110
 6960 2663 7A260000 		.4byte	0x267a
 6961 2667 3C       		.uleb128 0x3c
 6962 2668 E11D0000 		.4byte	0x1de1
 6963 266c 50070000 		.4byte	.LLST38
 6964 2670 3C       		.uleb128 0x3c
 6965 2671 D81D0000 		.4byte	0x1dd8
 6966 2675 68070000 		.4byte	.LLST39
 6967 2679 00       		.byte	0
ARM GAS  C:\Users\haske\AppData\Local\Temp\ccLw7Foe.s 			page 145


 6968 267a 34       		.uleb128 0x34
 6969 267b 8A1D0000 		.4byte	0x1d8a
 6970 267f 04010000 		.4byte	.LBB120
 6971 2683 02000000 		.4byte	.LBE120-.LBB120
 6972 2687 01       		.byte	0x1
 6973 2688 1101     		.2byte	0x111
 6974 268a A1260000 		.4byte	0x26a1
 6975 268e 3C       		.uleb128 0x3c
 6976 268f 9F1D0000 		.4byte	0x1d9f
 6977 2693 7E070000 		.4byte	.LLST40
 6978 2697 3C       		.uleb128 0x3c
 6979 2698 961D0000 		.4byte	0x1d96
 6980 269c 91070000 		.4byte	.LLST41
 6981 26a0 00       		.byte	0
 6982 26a1 34       		.uleb128 0x34
 6983 26a2 631D0000 		.4byte	0x1d63
 6984 26a6 06010000 		.4byte	.LBB122
 6985 26aa 06000000 		.4byte	.LBE122-.LBB122
 6986 26ae 01       		.byte	0x1
 6987 26af 1201     		.2byte	0x112
 6988 26b1 C8260000 		.4byte	0x26c8
 6989 26b5 3C       		.uleb128 0x3c
 6990 26b6 781D0000 		.4byte	0x1d78
 6991 26ba A7070000 		.4byte	.LLST42
 6992 26be 3C       		.uleb128 0x3c
 6993 26bf 6F1D0000 		.4byte	0x1d6f
 6994 26c3 BA070000 		.4byte	.LLST43
 6995 26c7 00       		.byte	0
 6996 26c8 34       		.uleb128 0x34
 6997 26c9 AB1D0000 		.4byte	0x1dab
 6998 26cd 12010000 		.4byte	.LBB124
 6999 26d1 04000000 		.4byte	.LBE124-.LBB124
 7000 26d5 01       		.byte	0x1
 7001 26d6 1601     		.2byte	0x116
 7002 26d8 EF260000 		.4byte	0x26ef
 7003 26dc 3C       		.uleb128 0x3c
 7004 26dd C01D0000 		.4byte	0x1dc0
 7005 26e1 D0070000 		.4byte	.LLST44
 7006 26e5 3C       		.uleb128 0x3c
 7007 26e6 B71D0000 		.4byte	0x1db7
 7008 26ea E4070000 		.4byte	.LLST45
 7009 26ee 00       		.byte	0
 7010 26ef 34       		.uleb128 0x34
 7011 26f0 8A1D0000 		.4byte	0x1d8a
 7012 26f4 16010000 		.4byte	.LBB126
 7013 26f8 02000000 		.4byte	.LBE126-.LBB126
 7014 26fc 01       		.byte	0x1
 7015 26fd 1701     		.2byte	0x117
 7016 26ff 16270000 		.4byte	0x2716
 7017 2703 3C       		.uleb128 0x3c
 7018 2704 9F1D0000 		.4byte	0x1d9f
 7019 2708 FA070000 		.4byte	.LLST46
 7020 270c 3C       		.uleb128 0x3c
 7021 270d 961D0000 		.4byte	0x1d96
 7022 2711 0D080000 		.4byte	.LLST47
 7023 2715 00       		.byte	0
 7024 2716 34       		.uleb128 0x34
ARM GAS  C:\Users\haske\AppData\Local\Temp\ccLw7Foe.s 			page 146


 7025 2717 631D0000 		.4byte	0x1d63
 7026 271b 18010000 		.4byte	.LBB128
 7027 271f 02000000 		.4byte	.LBE128-.LBB128
 7028 2723 01       		.byte	0x1
 7029 2724 1801     		.2byte	0x118
 7030 2726 3D270000 		.4byte	0x273d
 7031 272a 3C       		.uleb128 0x3c
 7032 272b 781D0000 		.4byte	0x1d78
 7033 272f 23080000 		.4byte	.LLST48
 7034 2733 3C       		.uleb128 0x3c
 7035 2734 6F1D0000 		.4byte	0x1d6f
 7036 2738 36080000 		.4byte	.LLST49
 7037 273c 00       		.byte	0
 7038 273d 34       		.uleb128 0x34
 7039 273e 3A1E0000 		.4byte	0x1e3a
 7040 2742 2A010000 		.4byte	.LBB130
 7041 2746 04000000 		.4byte	.LBE130-.LBB130
 7042 274a 01       		.byte	0x1
 7043 274b 1D01     		.2byte	0x11d
 7044 274d 64270000 		.4byte	0x2764
 7045 2751 3C       		.uleb128 0x3c
 7046 2752 4F1E0000 		.4byte	0x1e4f
 7047 2756 4C080000 		.4byte	.LLST50
 7048 275a 3C       		.uleb128 0x3c
 7049 275b 461E0000 		.4byte	0x1e46
 7050 275f 64080000 		.4byte	.LLST51
 7051 2763 00       		.byte	0
 7052 2764 34       		.uleb128 0x34
 7053 2765 0E1E0000 		.4byte	0x1e0e
 7054 2769 2E010000 		.4byte	.LBB132
 7055 276d 0A000000 		.4byte	.LBE132-.LBB132
 7056 2771 01       		.byte	0x1
 7057 2772 1E01     		.2byte	0x11e
 7058 2774 94270000 		.4byte	0x2794
 7059 2778 3C       		.uleb128 0x3c
 7060 2779 2E1E0000 		.4byte	0x1e2e
 7061 277d 7A080000 		.4byte	.LLST52
 7062 2781 3C       		.uleb128 0x3c
 7063 2782 231E0000 		.4byte	0x1e23
 7064 2786 7A080000 		.4byte	.LLST52
 7065 278a 3C       		.uleb128 0x3c
 7066 278b 1A1E0000 		.4byte	0x1e1a
 7067 278f 8E080000 		.4byte	.LLST54
 7068 2793 00       		.byte	0
 7069 2794 34       		.uleb128 0x34
 7070 2795 3A1E0000 		.4byte	0x1e3a
 7071 2799 38010000 		.4byte	.LBB134
 7072 279d 04000000 		.4byte	.LBE134-.LBB134
 7073 27a1 01       		.byte	0x1
 7074 27a2 2101     		.2byte	0x121
 7075 27a4 BB270000 		.4byte	0x27bb
 7076 27a8 3C       		.uleb128 0x3c
 7077 27a9 4F1E0000 		.4byte	0x1e4f
 7078 27ad A4080000 		.4byte	.LLST55
 7079 27b1 3C       		.uleb128 0x3c
 7080 27b2 461E0000 		.4byte	0x1e46
 7081 27b6 BC080000 		.4byte	.LLST56
ARM GAS  C:\Users\haske\AppData\Local\Temp\ccLw7Foe.s 			page 147


 7082 27ba 00       		.byte	0
 7083 27bb 34       		.uleb128 0x34
 7084 27bc 0E1E0000 		.4byte	0x1e0e
 7085 27c0 42010000 		.4byte	.LBB136
 7086 27c4 0A000000 		.4byte	.LBE136-.LBB136
 7087 27c8 01       		.byte	0x1
 7088 27c9 2201     		.2byte	0x122
 7089 27cb EB270000 		.4byte	0x27eb
 7090 27cf 3C       		.uleb128 0x3c
 7091 27d0 2E1E0000 		.4byte	0x1e2e
 7092 27d4 D2080000 		.4byte	.LLST57
 7093 27d8 3C       		.uleb128 0x3c
 7094 27d9 231E0000 		.4byte	0x1e23
 7095 27dd E6080000 		.4byte	.LLST58
 7096 27e1 3C       		.uleb128 0x3c
 7097 27e2 1A1E0000 		.4byte	0x1e1a
 7098 27e6 F9080000 		.4byte	.LLST59
 7099 27ea 00       		.byte	0
 7100 27eb 34       		.uleb128 0x34
 7101 27ec 3A1E0000 		.4byte	0x1e3a
 7102 27f0 4C010000 		.4byte	.LBB138
 7103 27f4 04000000 		.4byte	.LBE138-.LBB138
 7104 27f8 01       		.byte	0x1
 7105 27f9 2501     		.2byte	0x125
 7106 27fb 12280000 		.4byte	0x2812
 7107 27ff 3C       		.uleb128 0x3c
 7108 2800 4F1E0000 		.4byte	0x1e4f
 7109 2804 0F090000 		.4byte	.LLST60
 7110 2808 3C       		.uleb128 0x3c
 7111 2809 461E0000 		.4byte	0x1e46
 7112 280d 27090000 		.4byte	.LLST61
 7113 2811 00       		.byte	0
 7114 2812 34       		.uleb128 0x34
 7115 2813 0E1E0000 		.4byte	0x1e0e
 7116 2817 58010000 		.4byte	.LBB140
 7117 281b 0A000000 		.4byte	.LBE140-.LBB140
 7118 281f 01       		.byte	0x1
 7119 2820 2601     		.2byte	0x126
 7120 2822 42280000 		.4byte	0x2842
 7121 2826 3C       		.uleb128 0x3c
 7122 2827 2E1E0000 		.4byte	0x1e2e
 7123 282b 3D090000 		.4byte	.LLST62
 7124 282f 3C       		.uleb128 0x3c
 7125 2830 231E0000 		.4byte	0x1e23
 7126 2834 51090000 		.4byte	.LLST63
 7127 2838 3C       		.uleb128 0x3c
 7128 2839 1A1E0000 		.4byte	0x1e1a
 7129 283d 64090000 		.4byte	.LLST64
 7130 2841 00       		.byte	0
 7131 2842 34       		.uleb128 0x34
 7132 2843 3A1E0000 		.4byte	0x1e3a
 7133 2847 62010000 		.4byte	.LBB142
 7134 284b 04000000 		.4byte	.LBE142-.LBB142
 7135 284f 01       		.byte	0x1
 7136 2850 2901     		.2byte	0x129
 7137 2852 69280000 		.4byte	0x2869
 7138 2856 3C       		.uleb128 0x3c
ARM GAS  C:\Users\haske\AppData\Local\Temp\ccLw7Foe.s 			page 148


 7139 2857 4F1E0000 		.4byte	0x1e4f
 7140 285b 7A090000 		.4byte	.LLST65
 7141 285f 3C       		.uleb128 0x3c
 7142 2860 461E0000 		.4byte	0x1e46
 7143 2864 92090000 		.4byte	.LLST66
 7144 2868 00       		.byte	0
 7145 2869 34       		.uleb128 0x34
 7146 286a 0E1E0000 		.4byte	0x1e0e
 7147 286e 6C010000 		.4byte	.LBB144
 7148 2872 0A000000 		.4byte	.LBE144-.LBB144
 7149 2876 01       		.byte	0x1
 7150 2877 2A01     		.2byte	0x12a
 7151 2879 99280000 		.4byte	0x2899
 7152 287d 3C       		.uleb128 0x3c
 7153 287e 2E1E0000 		.4byte	0x1e2e
 7154 2882 A8090000 		.4byte	.LLST67
 7155 2886 3C       		.uleb128 0x3c
 7156 2887 231E0000 		.4byte	0x1e23
 7157 288b BC090000 		.4byte	.LLST68
 7158 288f 3C       		.uleb128 0x3c
 7159 2890 1A1E0000 		.4byte	0x1e1a
 7160 2894 CF090000 		.4byte	.LLST69
 7161 2898 00       		.byte	0
 7162 2899 34       		.uleb128 0x34
 7163 289a 3A1E0000 		.4byte	0x1e3a
 7164 289e 76010000 		.4byte	.LBB146
 7165 28a2 04000000 		.4byte	.LBE146-.LBB146
 7166 28a6 01       		.byte	0x1
 7167 28a7 2D01     		.2byte	0x12d
 7168 28a9 C0280000 		.4byte	0x28c0
 7169 28ad 3C       		.uleb128 0x3c
 7170 28ae 4F1E0000 		.4byte	0x1e4f
 7171 28b2 E5090000 		.4byte	.LLST70
 7172 28b6 3C       		.uleb128 0x3c
 7173 28b7 461E0000 		.4byte	0x1e46
 7174 28bb FD090000 		.4byte	.LLST71
 7175 28bf 00       		.byte	0
 7176 28c0 34       		.uleb128 0x34
 7177 28c1 0E1E0000 		.4byte	0x1e0e
 7178 28c5 82010000 		.4byte	.LBB148
 7179 28c9 0A000000 		.4byte	.LBE148-.LBB148
 7180 28cd 01       		.byte	0x1
 7181 28ce 2E01     		.2byte	0x12e
 7182 28d0 F0280000 		.4byte	0x28f0
 7183 28d4 3C       		.uleb128 0x3c
 7184 28d5 2E1E0000 		.4byte	0x1e2e
 7185 28d9 130A0000 		.4byte	.LLST72
 7186 28dd 3C       		.uleb128 0x3c
 7187 28de 231E0000 		.4byte	0x1e23
 7188 28e2 270A0000 		.4byte	.LLST73
 7189 28e6 3C       		.uleb128 0x3c
 7190 28e7 1A1E0000 		.4byte	0x1e1a
 7191 28eb 3A0A0000 		.4byte	.LLST74
 7192 28ef 00       		.byte	0
 7193 28f0 34       		.uleb128 0x34
 7194 28f1 3A1E0000 		.4byte	0x1e3a
 7195 28f5 8C010000 		.4byte	.LBB150
ARM GAS  C:\Users\haske\AppData\Local\Temp\ccLw7Foe.s 			page 149


 7196 28f9 04000000 		.4byte	.LBE150-.LBB150
 7197 28fd 01       		.byte	0x1
 7198 28fe 3101     		.2byte	0x131
 7199 2900 17290000 		.4byte	0x2917
 7200 2904 3C       		.uleb128 0x3c
 7201 2905 4F1E0000 		.4byte	0x1e4f
 7202 2909 500A0000 		.4byte	.LLST75
 7203 290d 3C       		.uleb128 0x3c
 7204 290e 461E0000 		.4byte	0x1e46
 7205 2912 680A0000 		.4byte	.LLST76
 7206 2916 00       		.byte	0
 7207 2917 34       		.uleb128 0x34
 7208 2918 0E1E0000 		.4byte	0x1e0e
 7209 291c 96010000 		.4byte	.LBB152
 7210 2920 08000000 		.4byte	.LBE152-.LBB152
 7211 2924 01       		.byte	0x1
 7212 2925 3201     		.2byte	0x132
 7213 2927 47290000 		.4byte	0x2947
 7214 292b 3C       		.uleb128 0x3c
 7215 292c 2E1E0000 		.4byte	0x1e2e
 7216 2930 7E0A0000 		.4byte	.LLST77
 7217 2934 3C       		.uleb128 0x3c
 7218 2935 231E0000 		.4byte	0x1e23
 7219 2939 920A0000 		.4byte	.LLST78
 7220 293d 3C       		.uleb128 0x3c
 7221 293e 1A1E0000 		.4byte	0x1e1a
 7222 2942 A50A0000 		.4byte	.LLST79
 7223 2946 00       		.byte	0
 7224 2947 34       		.uleb128 0x34
 7225 2948 3A1E0000 		.4byte	0x1e3a
 7226 294c 9E010000 		.4byte	.LBB154
 7227 2950 02000000 		.4byte	.LBE154-.LBB154
 7228 2954 01       		.byte	0x1
 7229 2955 3401     		.2byte	0x134
 7230 2957 6E290000 		.4byte	0x296e
 7231 295b 3C       		.uleb128 0x3c
 7232 295c 4F1E0000 		.4byte	0x1e4f
 7233 2960 BB0A0000 		.4byte	.LLST80
 7234 2964 3C       		.uleb128 0x3c
 7235 2965 461E0000 		.4byte	0x1e46
 7236 2969 D30A0000 		.4byte	.LLST81
 7237 296d 00       		.byte	0
 7238 296e 34       		.uleb128 0x34
 7239 296f 0E1E0000 		.4byte	0x1e0e
 7240 2973 A8010000 		.4byte	.LBB156
 7241 2977 08000000 		.4byte	.LBE156-.LBB156
 7242 297b 01       		.byte	0x1
 7243 297c 3501     		.2byte	0x135
 7244 297e 9E290000 		.4byte	0x299e
 7245 2982 3C       		.uleb128 0x3c
 7246 2983 2E1E0000 		.4byte	0x1e2e
 7247 2987 E90A0000 		.4byte	.LLST82
 7248 298b 3C       		.uleb128 0x3c
 7249 298c 231E0000 		.4byte	0x1e23
 7250 2990 FC0A0000 		.4byte	.LLST83
 7251 2994 3C       		.uleb128 0x3c
 7252 2995 1A1E0000 		.4byte	0x1e1a
ARM GAS  C:\Users\haske\AppData\Local\Temp\ccLw7Foe.s 			page 150


 7253 2999 100B0000 		.4byte	.LLST84
 7254 299d 00       		.byte	0
 7255 299e 34       		.uleb128 0x34
 7256 299f 3A1E0000 		.4byte	0x1e3a
 7257 29a3 B0010000 		.4byte	.LBB158
 7258 29a7 04000000 		.4byte	.LBE158-.LBB158
 7259 29ab 01       		.byte	0x1
 7260 29ac 3801     		.2byte	0x138
 7261 29ae C5290000 		.4byte	0x29c5
 7262 29b2 3C       		.uleb128 0x3c
 7263 29b3 4F1E0000 		.4byte	0x1e4f
 7264 29b7 260B0000 		.4byte	.LLST85
 7265 29bb 3C       		.uleb128 0x3c
 7266 29bc 461E0000 		.4byte	0x1e46
 7267 29c0 3E0B0000 		.4byte	.LLST86
 7268 29c4 00       		.byte	0
 7269 29c5 34       		.uleb128 0x34
 7270 29c6 0E1E0000 		.4byte	0x1e0e
 7271 29ca BC010000 		.4byte	.LBB160
 7272 29ce 08000000 		.4byte	.LBE160-.LBB160
 7273 29d2 01       		.byte	0x1
 7274 29d3 3901     		.2byte	0x139
 7275 29d5 F5290000 		.4byte	0x29f5
 7276 29d9 3C       		.uleb128 0x3c
 7277 29da 2E1E0000 		.4byte	0x1e2e
 7278 29de 540B0000 		.4byte	.LLST87
 7279 29e2 3C       		.uleb128 0x3c
 7280 29e3 231E0000 		.4byte	0x1e23
 7281 29e7 680B0000 		.4byte	.LLST88
 7282 29eb 3C       		.uleb128 0x3c
 7283 29ec 1A1E0000 		.4byte	0x1e1a
 7284 29f0 7B0B0000 		.4byte	.LLST89
 7285 29f4 00       		.byte	0
 7286 29f5 34       		.uleb128 0x34
 7287 29f6 3A1E0000 		.4byte	0x1e3a
 7288 29fa C4010000 		.4byte	.LBB162
 7289 29fe 02000000 		.4byte	.LBE162-.LBB162
 7290 2a02 01       		.byte	0x1
 7291 2a03 3B01     		.2byte	0x13b
 7292 2a05 1C2A0000 		.4byte	0x2a1c
 7293 2a09 3C       		.uleb128 0x3c
 7294 2a0a 4F1E0000 		.4byte	0x1e4f
 7295 2a0e 910B0000 		.4byte	.LLST90
 7296 2a12 3C       		.uleb128 0x3c
 7297 2a13 461E0000 		.4byte	0x1e46
 7298 2a17 A90B0000 		.4byte	.LLST91
 7299 2a1b 00       		.byte	0
 7300 2a1c 34       		.uleb128 0x34
 7301 2a1d 0E1E0000 		.4byte	0x1e0e
 7302 2a21 CC010000 		.4byte	.LBB164
 7303 2a25 08000000 		.4byte	.LBE164-.LBB164
 7304 2a29 01       		.byte	0x1
 7305 2a2a 3C01     		.2byte	0x13c
 7306 2a2c 4C2A0000 		.4byte	0x2a4c
 7307 2a30 3C       		.uleb128 0x3c
 7308 2a31 2E1E0000 		.4byte	0x1e2e
 7309 2a35 BF0B0000 		.4byte	.LLST92
ARM GAS  C:\Users\haske\AppData\Local\Temp\ccLw7Foe.s 			page 151


 7310 2a39 3C       		.uleb128 0x3c
 7311 2a3a 231E0000 		.4byte	0x1e23
 7312 2a3e D20B0000 		.4byte	.LLST93
 7313 2a42 3C       		.uleb128 0x3c
 7314 2a43 1A1E0000 		.4byte	0x1e1a
 7315 2a47 E60B0000 		.4byte	.LLST94
 7316 2a4b 00       		.byte	0
 7317 2a4c 34       		.uleb128 0x34
 7318 2a4d 3A1E0000 		.4byte	0x1e3a
 7319 2a51 D4010000 		.4byte	.LBB166
 7320 2a55 04000000 		.4byte	.LBE166-.LBB166
 7321 2a59 01       		.byte	0x1
 7322 2a5a 3F01     		.2byte	0x13f
 7323 2a5c 732A0000 		.4byte	0x2a73
 7324 2a60 3C       		.uleb128 0x3c
 7325 2a61 4F1E0000 		.4byte	0x1e4f
 7326 2a65 FC0B0000 		.4byte	.LLST95
 7327 2a69 3C       		.uleb128 0x3c
 7328 2a6a 461E0000 		.4byte	0x1e46
 7329 2a6e 140C0000 		.4byte	.LLST96
 7330 2a72 00       		.byte	0
 7331 2a73 34       		.uleb128 0x34
 7332 2a74 0E1E0000 		.4byte	0x1e0e
 7333 2a78 DE010000 		.4byte	.LBB168
 7334 2a7c 08000000 		.4byte	.LBE168-.LBB168
 7335 2a80 01       		.byte	0x1
 7336 2a81 4001     		.2byte	0x140
 7337 2a83 A32A0000 		.4byte	0x2aa3
 7338 2a87 3C       		.uleb128 0x3c
 7339 2a88 2E1E0000 		.4byte	0x1e2e
 7340 2a8c 2A0C0000 		.4byte	.LLST97
 7341 2a90 3C       		.uleb128 0x3c
 7342 2a91 231E0000 		.4byte	0x1e23
 7343 2a95 3E0C0000 		.4byte	.LLST98
 7344 2a99 3C       		.uleb128 0x3c
 7345 2a9a 1A1E0000 		.4byte	0x1e1a
 7346 2a9e 510C0000 		.4byte	.LLST99
 7347 2aa2 00       		.byte	0
 7348 2aa3 34       		.uleb128 0x34
 7349 2aa4 3A1E0000 		.4byte	0x1e3a
 7350 2aa8 E6010000 		.4byte	.LBB170
 7351 2aac 02000000 		.4byte	.LBE170-.LBB170
 7352 2ab0 01       		.byte	0x1
 7353 2ab1 4201     		.2byte	0x142
 7354 2ab3 CA2A0000 		.4byte	0x2aca
 7355 2ab7 3C       		.uleb128 0x3c
 7356 2ab8 4F1E0000 		.4byte	0x1e4f
 7357 2abc 670C0000 		.4byte	.LLST100
 7358 2ac0 3C       		.uleb128 0x3c
 7359 2ac1 461E0000 		.4byte	0x1e46
 7360 2ac5 7F0C0000 		.4byte	.LLST101
 7361 2ac9 00       		.byte	0
 7362 2aca 34       		.uleb128 0x34
 7363 2acb 0E1E0000 		.4byte	0x1e0e
 7364 2acf F0010000 		.4byte	.LBB172
 7365 2ad3 08000000 		.4byte	.LBE172-.LBB172
 7366 2ad7 01       		.byte	0x1
ARM GAS  C:\Users\haske\AppData\Local\Temp\ccLw7Foe.s 			page 152


 7367 2ad8 4301     		.2byte	0x143
 7368 2ada FA2A0000 		.4byte	0x2afa
 7369 2ade 3C       		.uleb128 0x3c
 7370 2adf 2E1E0000 		.4byte	0x1e2e
 7371 2ae3 950C0000 		.4byte	.LLST102
 7372 2ae7 3C       		.uleb128 0x3c
 7373 2ae8 231E0000 		.4byte	0x1e23
 7374 2aec A80C0000 		.4byte	.LLST103
 7375 2af0 3C       		.uleb128 0x3c
 7376 2af1 1A1E0000 		.4byte	0x1e1a
 7377 2af5 BC0C0000 		.4byte	.LLST104
 7378 2af9 00       		.byte	0
 7379 2afa 34       		.uleb128 0x34
 7380 2afb 3A1E0000 		.4byte	0x1e3a
 7381 2aff F8010000 		.4byte	.LBB174
 7382 2b03 04000000 		.4byte	.LBE174-.LBB174
 7383 2b07 01       		.byte	0x1
 7384 2b08 4601     		.2byte	0x146
 7385 2b0a 212B0000 		.4byte	0x2b21
 7386 2b0e 3C       		.uleb128 0x3c
 7387 2b0f 4F1E0000 		.4byte	0x1e4f
 7388 2b13 D20C0000 		.4byte	.LLST105
 7389 2b17 3C       		.uleb128 0x3c
 7390 2b18 461E0000 		.4byte	0x1e46
 7391 2b1c EA0C0000 		.4byte	.LLST106
 7392 2b20 00       		.byte	0
 7393 2b21 34       		.uleb128 0x34
 7394 2b22 0E1E0000 		.4byte	0x1e0e
 7395 2b26 04020000 		.4byte	.LBB176
 7396 2b2a 08000000 		.4byte	.LBE176-.LBB176
 7397 2b2e 01       		.byte	0x1
 7398 2b2f 4701     		.2byte	0x147
 7399 2b31 512B0000 		.4byte	0x2b51
 7400 2b35 3C       		.uleb128 0x3c
 7401 2b36 2E1E0000 		.4byte	0x1e2e
 7402 2b3a 000D0000 		.4byte	.LLST107
 7403 2b3e 3C       		.uleb128 0x3c
 7404 2b3f 231E0000 		.4byte	0x1e23
 7405 2b43 140D0000 		.4byte	.LLST108
 7406 2b47 3C       		.uleb128 0x3c
 7407 2b48 1A1E0000 		.4byte	0x1e1a
 7408 2b4c 270D0000 		.4byte	.LLST109
 7409 2b50 00       		.byte	0
 7410 2b51 34       		.uleb128 0x34
 7411 2b52 3A1E0000 		.4byte	0x1e3a
 7412 2b56 0C020000 		.4byte	.LBB178
 7413 2b5a 02000000 		.4byte	.LBE178-.LBB178
 7414 2b5e 01       		.byte	0x1
 7415 2b5f 4901     		.2byte	0x149
 7416 2b61 782B0000 		.4byte	0x2b78
 7417 2b65 3C       		.uleb128 0x3c
 7418 2b66 4F1E0000 		.4byte	0x1e4f
 7419 2b6a 3D0D0000 		.4byte	.LLST110
 7420 2b6e 3C       		.uleb128 0x3c
 7421 2b6f 461E0000 		.4byte	0x1e46
 7422 2b73 550D0000 		.4byte	.LLST111
 7423 2b77 00       		.byte	0
ARM GAS  C:\Users\haske\AppData\Local\Temp\ccLw7Foe.s 			page 153


 7424 2b78 34       		.uleb128 0x34
 7425 2b79 0E1E0000 		.4byte	0x1e0e
 7426 2b7d 14020000 		.4byte	.LBB180
 7427 2b81 08000000 		.4byte	.LBE180-.LBB180
 7428 2b85 01       		.byte	0x1
 7429 2b86 4A01     		.2byte	0x14a
 7430 2b88 A82B0000 		.4byte	0x2ba8
 7431 2b8c 3C       		.uleb128 0x3c
 7432 2b8d 2E1E0000 		.4byte	0x1e2e
 7433 2b91 6B0D0000 		.4byte	.LLST112
 7434 2b95 3C       		.uleb128 0x3c
 7435 2b96 231E0000 		.4byte	0x1e23
 7436 2b9a 7E0D0000 		.4byte	.LLST113
 7437 2b9e 3C       		.uleb128 0x3c
 7438 2b9f 1A1E0000 		.4byte	0x1e1a
 7439 2ba3 920D0000 		.4byte	.LLST114
 7440 2ba7 00       		.byte	0
 7441 2ba8 34       		.uleb128 0x34
 7442 2ba9 3A1E0000 		.4byte	0x1e3a
 7443 2bad 1C020000 		.4byte	.LBB182
 7444 2bb1 04000000 		.4byte	.LBE182-.LBB182
 7445 2bb5 01       		.byte	0x1
 7446 2bb6 4D01     		.2byte	0x14d
 7447 2bb8 CF2B0000 		.4byte	0x2bcf
 7448 2bbc 3C       		.uleb128 0x3c
 7449 2bbd 4F1E0000 		.4byte	0x1e4f
 7450 2bc1 A80D0000 		.4byte	.LLST115
 7451 2bc5 3C       		.uleb128 0x3c
 7452 2bc6 461E0000 		.4byte	0x1e46
 7453 2bca C00D0000 		.4byte	.LLST116
 7454 2bce 00       		.byte	0
 7455 2bcf 34       		.uleb128 0x34
 7456 2bd0 0E1E0000 		.4byte	0x1e0e
 7457 2bd4 20020000 		.4byte	.LBB184
 7458 2bd8 0C000000 		.4byte	.LBE184-.LBB184
 7459 2bdc 01       		.byte	0x1
 7460 2bdd 4E01     		.2byte	0x14e
 7461 2bdf FF2B0000 		.4byte	0x2bff
 7462 2be3 3C       		.uleb128 0x3c
 7463 2be4 2E1E0000 		.4byte	0x1e2e
 7464 2be8 D60D0000 		.4byte	.LLST117
 7465 2bec 3C       		.uleb128 0x3c
 7466 2bed 231E0000 		.4byte	0x1e23
 7467 2bf1 EB0D0000 		.4byte	.LLST118
 7468 2bf5 3C       		.uleb128 0x3c
 7469 2bf6 1A1E0000 		.4byte	0x1e1a
 7470 2bfa FF0D0000 		.4byte	.LLST119
 7471 2bfe 00       		.byte	0
 7472 2bff 34       		.uleb128 0x34
 7473 2c00 3A1E0000 		.4byte	0x1e3a
 7474 2c04 2C020000 		.4byte	.LBB186
 7475 2c08 04000000 		.4byte	.LBE186-.LBB186
 7476 2c0c 01       		.byte	0x1
 7477 2c0d 5101     		.2byte	0x151
 7478 2c0f 262C0000 		.4byte	0x2c26
 7479 2c13 3C       		.uleb128 0x3c
 7480 2c14 4F1E0000 		.4byte	0x1e4f
ARM GAS  C:\Users\haske\AppData\Local\Temp\ccLw7Foe.s 			page 154


 7481 2c18 150E0000 		.4byte	.LLST120
 7482 2c1c 3C       		.uleb128 0x3c
 7483 2c1d 461E0000 		.4byte	0x1e46
 7484 2c21 2D0E0000 		.4byte	.LLST121
 7485 2c25 00       		.byte	0
 7486 2c26 34       		.uleb128 0x34
 7487 2c27 0E1E0000 		.4byte	0x1e0e
 7488 2c2b 30020000 		.4byte	.LBB188
 7489 2c2f 0C000000 		.4byte	.LBE188-.LBB188
 7490 2c33 01       		.byte	0x1
 7491 2c34 5201     		.2byte	0x152
 7492 2c36 562C0000 		.4byte	0x2c56
 7493 2c3a 3C       		.uleb128 0x3c
 7494 2c3b 2E1E0000 		.4byte	0x1e2e
 7495 2c3f 430E0000 		.4byte	.LLST122
 7496 2c43 3C       		.uleb128 0x3c
 7497 2c44 231E0000 		.4byte	0x1e23
 7498 2c48 570E0000 		.4byte	.LLST123
 7499 2c4c 3C       		.uleb128 0x3c
 7500 2c4d 1A1E0000 		.4byte	0x1e1a
 7501 2c51 6C0E0000 		.4byte	.LLST124
 7502 2c55 00       		.byte	0
 7503 2c56 34       		.uleb128 0x34
 7504 2c57 3A1E0000 		.4byte	0x1e3a
 7505 2c5b 3C020000 		.4byte	.LBB190
 7506 2c5f 04000000 		.4byte	.LBE190-.LBB190
 7507 2c63 01       		.byte	0x1
 7508 2c64 5501     		.2byte	0x155
 7509 2c66 7D2C0000 		.4byte	0x2c7d
 7510 2c6a 3C       		.uleb128 0x3c
 7511 2c6b 4F1E0000 		.4byte	0x1e4f
 7512 2c6f 820E0000 		.4byte	.LLST125
 7513 2c73 3C       		.uleb128 0x3c
 7514 2c74 461E0000 		.4byte	0x1e46
 7515 2c78 9A0E0000 		.4byte	.LLST126
 7516 2c7c 00       		.byte	0
 7517 2c7d 34       		.uleb128 0x34
 7518 2c7e 0E1E0000 		.4byte	0x1e0e
 7519 2c82 48020000 		.4byte	.LBB192
 7520 2c86 0A000000 		.4byte	.LBE192-.LBB192
 7521 2c8a 01       		.byte	0x1
 7522 2c8b 5601     		.2byte	0x156
 7523 2c8d AD2C0000 		.4byte	0x2cad
 7524 2c91 3C       		.uleb128 0x3c
 7525 2c92 2E1E0000 		.4byte	0x1e2e
 7526 2c96 B00E0000 		.4byte	.LLST127
 7527 2c9a 3C       		.uleb128 0x3c
 7528 2c9b 231E0000 		.4byte	0x1e23
 7529 2c9f C30E0000 		.4byte	.LLST128
 7530 2ca3 3C       		.uleb128 0x3c
 7531 2ca4 1A1E0000 		.4byte	0x1e1a
 7532 2ca8 D70E0000 		.4byte	.LLST129
 7533 2cac 00       		.byte	0
 7534 2cad 34       		.uleb128 0x34
 7535 2cae 3A1E0000 		.4byte	0x1e3a
 7536 2cb2 52020000 		.4byte	.LBB194
 7537 2cb6 04000000 		.4byte	.LBE194-.LBB194
ARM GAS  C:\Users\haske\AppData\Local\Temp\ccLw7Foe.s 			page 155


 7538 2cba 01       		.byte	0x1
 7539 2cbb 5901     		.2byte	0x159
 7540 2cbd D42C0000 		.4byte	0x2cd4
 7541 2cc1 3C       		.uleb128 0x3c
 7542 2cc2 4F1E0000 		.4byte	0x1e4f
 7543 2cc6 ED0E0000 		.4byte	.LLST130
 7544 2cca 3C       		.uleb128 0x3c
 7545 2ccb 461E0000 		.4byte	0x1e46
 7546 2ccf 050F0000 		.4byte	.LLST131
 7547 2cd3 00       		.byte	0
 7548 2cd4 34       		.uleb128 0x34
 7549 2cd5 0E1E0000 		.4byte	0x1e0e
 7550 2cd9 5C020000 		.4byte	.LBB196
 7551 2cdd 0A000000 		.4byte	.LBE196-.LBB196
 7552 2ce1 01       		.byte	0x1
 7553 2ce2 5A01     		.2byte	0x15a
 7554 2ce4 042D0000 		.4byte	0x2d04
 7555 2ce8 3C       		.uleb128 0x3c
 7556 2ce9 2E1E0000 		.4byte	0x1e2e
 7557 2ced 1B0F0000 		.4byte	.LLST132
 7558 2cf1 3C       		.uleb128 0x3c
 7559 2cf2 231E0000 		.4byte	0x1e23
 7560 2cf6 2E0F0000 		.4byte	.LLST133
 7561 2cfa 3C       		.uleb128 0x3c
 7562 2cfb 1A1E0000 		.4byte	0x1e1a
 7563 2cff 420F0000 		.4byte	.LLST134
 7564 2d03 00       		.byte	0
 7565 2d04 34       		.uleb128 0x34
 7566 2d05 3A1E0000 		.4byte	0x1e3a
 7567 2d09 66020000 		.4byte	.LBB198
 7568 2d0d 04000000 		.4byte	.LBE198-.LBB198
 7569 2d11 01       		.byte	0x1
 7570 2d12 5D01     		.2byte	0x15d
 7571 2d14 2B2D0000 		.4byte	0x2d2b
 7572 2d18 3C       		.uleb128 0x3c
 7573 2d19 4F1E0000 		.4byte	0x1e4f
 7574 2d1d 580F0000 		.4byte	.LLST135
 7575 2d21 3C       		.uleb128 0x3c
 7576 2d22 461E0000 		.4byte	0x1e46
 7577 2d26 700F0000 		.4byte	.LLST136
 7578 2d2a 00       		.byte	0
 7579 2d2b 34       		.uleb128 0x34
 7580 2d2c 0E1E0000 		.4byte	0x1e0e
 7581 2d30 72020000 		.4byte	.LBB200
 7582 2d34 0A000000 		.4byte	.LBE200-.LBB200
 7583 2d38 01       		.byte	0x1
 7584 2d39 5E01     		.2byte	0x15e
 7585 2d3b 5B2D0000 		.4byte	0x2d5b
 7586 2d3f 3C       		.uleb128 0x3c
 7587 2d40 2E1E0000 		.4byte	0x1e2e
 7588 2d44 860F0000 		.4byte	.LLST137
 7589 2d48 3C       		.uleb128 0x3c
 7590 2d49 231E0000 		.4byte	0x1e23
 7591 2d4d 990F0000 		.4byte	.LLST138
 7592 2d51 3C       		.uleb128 0x3c
 7593 2d52 1A1E0000 		.4byte	0x1e1a
 7594 2d56 AD0F0000 		.4byte	.LLST139
ARM GAS  C:\Users\haske\AppData\Local\Temp\ccLw7Foe.s 			page 156


 7595 2d5a 00       		.byte	0
 7596 2d5b 34       		.uleb128 0x34
 7597 2d5c 3A1E0000 		.4byte	0x1e3a
 7598 2d60 7C020000 		.4byte	.LBB202
 7599 2d64 04000000 		.4byte	.LBE202-.LBB202
 7600 2d68 01       		.byte	0x1
 7601 2d69 6101     		.2byte	0x161
 7602 2d6b 822D0000 		.4byte	0x2d82
 7603 2d6f 3C       		.uleb128 0x3c
 7604 2d70 4F1E0000 		.4byte	0x1e4f
 7605 2d74 C30F0000 		.4byte	.LLST140
 7606 2d78 3C       		.uleb128 0x3c
 7607 2d79 461E0000 		.4byte	0x1e46
 7608 2d7d DB0F0000 		.4byte	.LLST141
 7609 2d81 00       		.byte	0
 7610 2d82 34       		.uleb128 0x34
 7611 2d83 0E1E0000 		.4byte	0x1e0e
 7612 2d87 86020000 		.4byte	.LBB204
 7613 2d8b 08000000 		.4byte	.LBE204-.LBB204
 7614 2d8f 01       		.byte	0x1
 7615 2d90 6201     		.2byte	0x162
 7616 2d92 B22D0000 		.4byte	0x2db2
 7617 2d96 3C       		.uleb128 0x3c
 7618 2d97 2E1E0000 		.4byte	0x1e2e
 7619 2d9b F10F0000 		.4byte	.LLST142
 7620 2d9f 3C       		.uleb128 0x3c
 7621 2da0 231E0000 		.4byte	0x1e23
 7622 2da4 04100000 		.4byte	.LLST143
 7623 2da8 3C       		.uleb128 0x3c
 7624 2da9 1A1E0000 		.4byte	0x1e1a
 7625 2dad 18100000 		.4byte	.LLST144
 7626 2db1 00       		.byte	0
 7627 2db2 30       		.uleb128 0x30
 7628 2db3 1C000000 		.4byte	.LVL105
 7629 2db7 CE320000 		.4byte	0x32ce
 7630 2dbb C62D0000 		.4byte	0x2dc6
 7631 2dbf 2D       		.uleb128 0x2d
 7632 2dc0 01       		.uleb128 0x1
 7633 2dc1 50       		.byte	0x50
 7634 2dc2 02       		.uleb128 0x2
 7635 2dc3 76       		.byte	0x76
 7636 2dc4 00       		.sleb128 0
 7637 2dc5 00       		.byte	0
 7638 2dc6 2F       		.uleb128 0x2f
 7639 2dc7 36000000 		.4byte	.LVL109
 7640 2dcb 11200000 		.4byte	0x2011
 7641 2dcf 30       		.uleb128 0x30
 7642 2dd0 3E000000 		.4byte	.LVL110
 7643 2dd4 56330000 		.4byte	0x3356
 7644 2dd8 E22D0000 		.4byte	0x2de2
 7645 2ddc 2D       		.uleb128 0x2d
 7646 2ddd 01       		.uleb128 0x1
 7647 2dde 51       		.byte	0x51
 7648 2ddf 01       		.uleb128 0x1
 7649 2de0 30       		.byte	0x30
 7650 2de1 00       		.byte	0
 7651 2de2 30       		.uleb128 0x30
ARM GAS  C:\Users\haske\AppData\Local\Temp\ccLw7Foe.s 			page 157


 7652 2de3 48000000 		.4byte	.LVL111
 7653 2de7 62330000 		.4byte	0x3362
 7654 2deb FA2D0000 		.4byte	0x2dfa
 7655 2def 2D       		.uleb128 0x2d
 7656 2df0 01       		.uleb128 0x1
 7657 2df1 51       		.byte	0x51
 7658 2df2 01       		.uleb128 0x1
 7659 2df3 30       		.byte	0x30
 7660 2df4 2D       		.uleb128 0x2d
 7661 2df5 01       		.uleb128 0x1
 7662 2df6 52       		.byte	0x52
 7663 2df7 01       		.uleb128 0x1
 7664 2df8 30       		.byte	0x30
 7665 2df9 00       		.byte	0
 7666 2dfa 30       		.uleb128 0x30
 7667 2dfb 52000000 		.4byte	.LVL112
 7668 2dff EF320000 		.4byte	0x32ef
 7669 2e03 132E0000 		.4byte	0x2e13
 7670 2e07 2D       		.uleb128 0x2d
 7671 2e08 01       		.uleb128 0x1
 7672 2e09 51       		.byte	0x51
 7673 2e0a 02       		.uleb128 0x2
 7674 2e0b 08       		.byte	0x8
 7675 2e0c 60       		.byte	0x60
 7676 2e0d 2D       		.uleb128 0x2d
 7677 2e0e 01       		.uleb128 0x1
 7678 2e0f 52       		.byte	0x52
 7679 2e10 01       		.uleb128 0x1
 7680 2e11 30       		.byte	0x30
 7681 2e12 00       		.byte	0
 7682 2e13 30       		.uleb128 0x30
 7683 2e14 60000000 		.4byte	.LVL113
 7684 2e18 E4320000 		.4byte	0x32e4
 7685 2e1c 272E0000 		.4byte	0x2e27
 7686 2e20 2D       		.uleb128 0x2d
 7687 2e21 01       		.uleb128 0x1
 7688 2e22 50       		.byte	0x50
 7689 2e23 02       		.uleb128 0x2
 7690 2e24 79       		.byte	0x79
 7691 2e25 00       		.sleb128 0
 7692 2e26 00       		.byte	0
 7693 2e27 2F       		.uleb128 0x2f
 7694 2e28 78000000 		.4byte	.LVL115
 7695 2e2c E4320000 		.4byte	0x32e4
 7696 2e30 30       		.uleb128 0x30
 7697 2e31 82000000 		.4byte	.LVL116
 7698 2e35 5B1E0000 		.4byte	0x1e5b
 7699 2e39 472E0000 		.4byte	0x2e47
 7700 2e3d 2D       		.uleb128 0x2d
 7701 2e3e 01       		.uleb128 0x1
 7702 2e3f 50       		.byte	0x50
 7703 2e40 05       		.uleb128 0x5
 7704 2e41 91       		.byte	0x91
 7705 2e42 D47E     		.sleb128 -172
 7706 2e44 94       		.byte	0x94
 7707 2e45 01       		.byte	0x1
 7708 2e46 00       		.byte	0
ARM GAS  C:\Users\haske\AppData\Local\Temp\ccLw7Foe.s 			page 158


 7709 2e47 30       		.uleb128 0x30
 7710 2e48 A4000000 		.4byte	.LVL117
 7711 2e4c 56330000 		.4byte	0x3356
 7712 2e50 602E0000 		.4byte	0x2e60
 7713 2e54 2D       		.uleb128 0x2d
 7714 2e55 01       		.uleb128 0x1
 7715 2e56 50       		.byte	0x50
 7716 2e57 02       		.uleb128 0x2
 7717 2e58 76       		.byte	0x76
 7718 2e59 00       		.sleb128 0
 7719 2e5a 2D       		.uleb128 0x2d
 7720 2e5b 01       		.uleb128 0x1
 7721 2e5c 51       		.byte	0x51
 7722 2e5d 01       		.uleb128 0x1
 7723 2e5e 30       		.byte	0x30
 7724 2e5f 00       		.byte	0
 7725 2e60 30       		.uleb128 0x30
 7726 2e61 B2000000 		.4byte	.LVL120
 7727 2e65 56330000 		.4byte	0x3356
 7728 2e69 732E0000 		.4byte	0x2e73
 7729 2e6d 2D       		.uleb128 0x2d
 7730 2e6e 01       		.uleb128 0x1
 7731 2e6f 51       		.byte	0x51
 7732 2e70 01       		.uleb128 0x1
 7733 2e71 30       		.byte	0x30
 7734 2e72 00       		.byte	0
 7735 2e73 30       		.uleb128 0x30
 7736 2e74 BC000000 		.4byte	.LVL121
 7737 2e78 62330000 		.4byte	0x3362
 7738 2e7c 912E0000 		.4byte	0x2e91
 7739 2e80 2D       		.uleb128 0x2d
 7740 2e81 01       		.uleb128 0x1
 7741 2e82 50       		.byte	0x50
 7742 2e83 02       		.uleb128 0x2
 7743 2e84 76       		.byte	0x76
 7744 2e85 00       		.sleb128 0
 7745 2e86 2D       		.uleb128 0x2d
 7746 2e87 01       		.uleb128 0x1
 7747 2e88 51       		.byte	0x51
 7748 2e89 01       		.uleb128 0x1
 7749 2e8a 30       		.byte	0x30
 7750 2e8b 2D       		.uleb128 0x2d
 7751 2e8c 01       		.uleb128 0x1
 7752 2e8d 52       		.byte	0x52
 7753 2e8e 01       		.uleb128 0x1
 7754 2e8f 30       		.byte	0x30
 7755 2e90 00       		.byte	0
 7756 2e91 30       		.uleb128 0x30
 7757 2e92 CC000000 		.4byte	.LVL124
 7758 2e96 62330000 		.4byte	0x3362
 7759 2e9a A92E0000 		.4byte	0x2ea9
 7760 2e9e 2D       		.uleb128 0x2d
 7761 2e9f 01       		.uleb128 0x1
 7762 2ea0 51       		.byte	0x51
 7763 2ea1 01       		.uleb128 0x1
 7764 2ea2 30       		.byte	0x30
 7765 2ea3 2D       		.uleb128 0x2d
ARM GAS  C:\Users\haske\AppData\Local\Temp\ccLw7Foe.s 			page 159


 7766 2ea4 01       		.uleb128 0x1
 7767 2ea5 52       		.byte	0x52
 7768 2ea6 01       		.uleb128 0x1
 7769 2ea7 30       		.byte	0x30
 7770 2ea8 00       		.byte	0
 7771 2ea9 30       		.uleb128 0x30
 7772 2eaa D6000000 		.4byte	.LVL125
 7773 2eae EF320000 		.4byte	0x32ef
 7774 2eb2 C82E0000 		.4byte	0x2ec8
 7775 2eb6 2D       		.uleb128 0x2d
 7776 2eb7 01       		.uleb128 0x1
 7777 2eb8 50       		.byte	0x50
 7778 2eb9 02       		.uleb128 0x2
 7779 2eba 76       		.byte	0x76
 7780 2ebb 00       		.sleb128 0
 7781 2ebc 2D       		.uleb128 0x2d
 7782 2ebd 01       		.uleb128 0x1
 7783 2ebe 51       		.byte	0x51
 7784 2ebf 02       		.uleb128 0x2
 7785 2ec0 08       		.byte	0x8
 7786 2ec1 60       		.byte	0x60
 7787 2ec2 2D       		.uleb128 0x2d
 7788 2ec3 01       		.uleb128 0x1
 7789 2ec4 52       		.byte	0x52
 7790 2ec5 01       		.uleb128 0x1
 7791 2ec6 30       		.byte	0x30
 7792 2ec7 00       		.byte	0
 7793 2ec8 30       		.uleb128 0x30
 7794 2ec9 E6000000 		.4byte	.LVL128
 7795 2ecd EF320000 		.4byte	0x32ef
 7796 2ed1 E12E0000 		.4byte	0x2ee1
 7797 2ed5 2D       		.uleb128 0x2d
 7798 2ed6 01       		.uleb128 0x1
 7799 2ed7 51       		.byte	0x51
 7800 2ed8 02       		.uleb128 0x2
 7801 2ed9 08       		.byte	0x8
 7802 2eda 60       		.byte	0x60
 7803 2edb 2D       		.uleb128 0x2d
 7804 2edc 01       		.uleb128 0x1
 7805 2edd 52       		.byte	0x52
 7806 2ede 01       		.uleb128 0x1
 7807 2edf 30       		.byte	0x30
 7808 2ee0 00       		.byte	0
 7809 2ee1 30       		.uleb128 0x30
 7810 2ee2 F2000000 		.4byte	.LVL129
 7811 2ee6 11200000 		.4byte	0x2011
 7812 2eea F52E0000 		.4byte	0x2ef5
 7813 2eee 2D       		.uleb128 0x2d
 7814 2eef 01       		.uleb128 0x1
 7815 2ef0 50       		.byte	0x50
 7816 2ef1 02       		.uleb128 0x2
 7817 2ef2 76       		.byte	0x76
 7818 2ef3 00       		.sleb128 0
 7819 2ef4 00       		.byte	0
 7820 2ef5 30       		.uleb128 0x30
 7821 2ef6 FA000000 		.4byte	.LVL130
 7822 2efa 6D330000 		.4byte	0x336d
ARM GAS  C:\Users\haske\AppData\Local\Temp\ccLw7Foe.s 			page 160


 7823 2efe 0A2F0000 		.4byte	0x2f0a
 7824 2f02 2D       		.uleb128 0x2d
 7825 2f03 01       		.uleb128 0x1
 7826 2f04 50       		.byte	0x50
 7827 2f05 03       		.uleb128 0x3
 7828 2f06 91       		.byte	0x91
 7829 2f07 9C7F     		.sleb128 -100
 7830 2f09 00       		.byte	0
 7831 2f0a 30       		.uleb128 0x30
 7832 2f0b 12010000 		.4byte	.LVL136
 7833 2f0f 6D330000 		.4byte	0x336d
 7834 2f13 1F2F0000 		.4byte	0x2f1f
 7835 2f17 2D       		.uleb128 0x2d
 7836 2f18 01       		.uleb128 0x1
 7837 2f19 50       		.byte	0x50
 7838 2f1a 03       		.uleb128 0x3
 7839 2f1b 91       		.byte	0x91
 7840 2f1c D87E     		.sleb128 -168
 7841 2f1e 00       		.byte	0
 7842 2f1f 30       		.uleb128 0x30
 7843 2f20 42010000 		.4byte	.LVL145
 7844 2f24 28330000 		.4byte	0x3328
 7845 2f28 332F0000 		.4byte	0x2f33
 7846 2f2c 2D       		.uleb128 0x2d
 7847 2f2d 01       		.uleb128 0x1
 7848 2f2e 50       		.byte	0x50
 7849 2f2f 02       		.uleb128 0x2
 7850 2f30 74       		.byte	0x74
 7851 2f31 00       		.sleb128 0
 7852 2f32 00       		.byte	0
 7853 2f33 30       		.uleb128 0x30
 7854 2f34 56010000 		.4byte	.LVL148
 7855 2f38 28330000 		.4byte	0x3328
 7856 2f3c 472F0000 		.4byte	0x2f47
 7857 2f40 2D       		.uleb128 0x2d
 7858 2f41 01       		.uleb128 0x1
 7859 2f42 50       		.byte	0x50
 7860 2f43 02       		.uleb128 0x2
 7861 2f44 74       		.byte	0x74
 7862 2f45 00       		.sleb128 0
 7863 2f46 00       		.byte	0
 7864 2f47 30       		.uleb128 0x30
 7865 2f48 6C010000 		.4byte	.LVL152
 7866 2f4c 34330000 		.4byte	0x3334
 7867 2f50 5B2F0000 		.4byte	0x2f5b
 7868 2f54 2D       		.uleb128 0x2d
 7869 2f55 01       		.uleb128 0x1
 7870 2f56 50       		.byte	0x50
 7871 2f57 02       		.uleb128 0x2
 7872 2f58 74       		.byte	0x74
 7873 2f59 00       		.sleb128 0
 7874 2f5a 00       		.byte	0
 7875 2f5b 30       		.uleb128 0x30
 7876 2f5c 80010000 		.4byte	.LVL155
 7877 2f60 34330000 		.4byte	0x3334
 7878 2f64 6F2F0000 		.4byte	0x2f6f
 7879 2f68 2D       		.uleb128 0x2d
ARM GAS  C:\Users\haske\AppData\Local\Temp\ccLw7Foe.s 			page 161


 7880 2f69 01       		.uleb128 0x1
 7881 2f6a 50       		.byte	0x50
 7882 2f6b 02       		.uleb128 0x2
 7883 2f6c 74       		.byte	0x74
 7884 2f6d 00       		.sleb128 0
 7885 2f6e 00       		.byte	0
 7886 2f6f 30       		.uleb128 0x30
 7887 2f70 96010000 		.4byte	.LVL160
 7888 2f74 28330000 		.4byte	0x3328
 7889 2f78 832F0000 		.4byte	0x2f83
 7890 2f7c 2D       		.uleb128 0x2d
 7891 2f7d 01       		.uleb128 0x1
 7892 2f7e 50       		.byte	0x50
 7893 2f7f 02       		.uleb128 0x2
 7894 2f80 74       		.byte	0x74
 7895 2f81 00       		.sleb128 0
 7896 2f82 00       		.byte	0
 7897 2f83 30       		.uleb128 0x30
 7898 2f84 A6010000 		.4byte	.LVL163
 7899 2f88 28330000 		.4byte	0x3328
 7900 2f8c 972F0000 		.4byte	0x2f97
 7901 2f90 2D       		.uleb128 0x2d
 7902 2f91 01       		.uleb128 0x1
 7903 2f92 50       		.byte	0x50
 7904 2f93 02       		.uleb128 0x2
 7905 2f94 74       		.byte	0x74
 7906 2f95 00       		.sleb128 0
 7907 2f96 00       		.byte	0
 7908 2f97 30       		.uleb128 0x30
 7909 2f98 BA010000 		.4byte	.LVL168
 7910 2f9c 28330000 		.4byte	0x3328
 7911 2fa0 AB2F0000 		.4byte	0x2fab
 7912 2fa4 2D       		.uleb128 0x2d
 7913 2fa5 01       		.uleb128 0x1
 7914 2fa6 50       		.byte	0x50
 7915 2fa7 02       		.uleb128 0x2
 7916 2fa8 74       		.byte	0x74
 7917 2fa9 00       		.sleb128 0
 7918 2faa 00       		.byte	0
 7919 2fab 30       		.uleb128 0x30
 7920 2fac CC010000 		.4byte	.LVL172
 7921 2fb0 28330000 		.4byte	0x3328
 7922 2fb4 BF2F0000 		.4byte	0x2fbf
 7923 2fb8 2D       		.uleb128 0x2d
 7924 2fb9 01       		.uleb128 0x1
 7925 2fba 50       		.byte	0x50
 7926 2fbb 02       		.uleb128 0x2
 7927 2fbc 74       		.byte	0x74
 7928 2fbd 00       		.sleb128 0
 7929 2fbe 00       		.byte	0
 7930 2fbf 30       		.uleb128 0x30
 7931 2fc0 DE010000 		.4byte	.LVL176
 7932 2fc4 34330000 		.4byte	0x3334
 7933 2fc8 D32F0000 		.4byte	0x2fd3
 7934 2fcc 2D       		.uleb128 0x2d
 7935 2fcd 01       		.uleb128 0x1
 7936 2fce 50       		.byte	0x50
ARM GAS  C:\Users\haske\AppData\Local\Temp\ccLw7Foe.s 			page 162


 7937 2fcf 02       		.uleb128 0x2
 7938 2fd0 74       		.byte	0x74
 7939 2fd1 00       		.sleb128 0
 7940 2fd2 00       		.byte	0
 7941 2fd3 30       		.uleb128 0x30
 7942 2fd4 EE010000 		.4byte	.LVL179
 7943 2fd8 34330000 		.4byte	0x3334
 7944 2fdc E72F0000 		.4byte	0x2fe7
 7945 2fe0 2D       		.uleb128 0x2d
 7946 2fe1 01       		.uleb128 0x1
 7947 2fe2 50       		.byte	0x50
 7948 2fe3 02       		.uleb128 0x2
 7949 2fe4 74       		.byte	0x74
 7950 2fe5 00       		.sleb128 0
 7951 2fe6 00       		.byte	0
 7952 2fe7 30       		.uleb128 0x30
 7953 2fe8 02020000 		.4byte	.LVL184
 7954 2fec 34330000 		.4byte	0x3334
 7955 2ff0 FB2F0000 		.4byte	0x2ffb
 7956 2ff4 2D       		.uleb128 0x2d
 7957 2ff5 01       		.uleb128 0x1
 7958 2ff6 50       		.byte	0x50
 7959 2ff7 02       		.uleb128 0x2
 7960 2ff8 74       		.byte	0x74
 7961 2ff9 00       		.sleb128 0
 7962 2ffa 00       		.byte	0
 7963 2ffb 30       		.uleb128 0x30
 7964 2ffc 14020000 		.4byte	.LVL188
 7965 3000 34330000 		.4byte	0x3334
 7966 3004 0F300000 		.4byte	0x300f
 7967 3008 2D       		.uleb128 0x2d
 7968 3009 01       		.uleb128 0x1
 7969 300a 50       		.byte	0x50
 7970 300b 02       		.uleb128 0x2
 7971 300c 74       		.byte	0x74
 7972 300d 00       		.sleb128 0
 7973 300e 00       		.byte	0
 7974 300f 30       		.uleb128 0x30
 7975 3010 46020000 		.4byte	.LVL195
 7976 3014 28330000 		.4byte	0x3328
 7977 3018 23300000 		.4byte	0x3023
 7978 301c 2D       		.uleb128 0x2d
 7979 301d 01       		.uleb128 0x1
 7980 301e 50       		.byte	0x50
 7981 301f 02       		.uleb128 0x2
 7982 3020 74       		.byte	0x74
 7983 3021 00       		.sleb128 0
 7984 3022 00       		.byte	0
 7985 3023 30       		.uleb128 0x30
 7986 3024 5C020000 		.4byte	.LVL199
 7987 3028 28330000 		.4byte	0x3328
 7988 302c 37300000 		.4byte	0x3037
 7989 3030 2D       		.uleb128 0x2d
 7990 3031 01       		.uleb128 0x1
 7991 3032 50       		.byte	0x50
 7992 3033 02       		.uleb128 0x2
 7993 3034 74       		.byte	0x74
ARM GAS  C:\Users\haske\AppData\Local\Temp\ccLw7Foe.s 			page 163


 7994 3035 00       		.sleb128 0
 7995 3036 00       		.byte	0
 7996 3037 30       		.uleb128 0x30
 7997 3038 70020000 		.4byte	.LVL202
 7998 303c 34330000 		.4byte	0x3334
 7999 3040 4B300000 		.4byte	0x304b
 8000 3044 2D       		.uleb128 0x2d
 8001 3045 01       		.uleb128 0x1
 8002 3046 50       		.byte	0x50
 8003 3047 02       		.uleb128 0x2
 8004 3048 74       		.byte	0x74
 8005 3049 00       		.sleb128 0
 8006 304a 00       		.byte	0
 8007 304b 30       		.uleb128 0x30
 8008 304c 86020000 		.4byte	.LVL206
 8009 3050 34330000 		.4byte	0x3334
 8010 3054 5F300000 		.4byte	0x305f
 8011 3058 2D       		.uleb128 0x2d
 8012 3059 01       		.uleb128 0x1
 8013 305a 50       		.byte	0x50
 8014 305b 02       		.uleb128 0x2
 8015 305c 74       		.byte	0x74
 8016 305d 00       		.sleb128 0
 8017 305e 00       		.byte	0
 8018 305f 30       		.uleb128 0x30
 8019 3060 98020000 		.4byte	.LVL208
 8020 3064 D9320000 		.4byte	0x32d9
 8021 3068 7E300000 		.4byte	0x307e
 8022 306c 2D       		.uleb128 0x2d
 8023 306d 01       		.uleb128 0x1
 8024 306e 50       		.byte	0x50
 8025 306f 02       		.uleb128 0x2
 8026 3070 79       		.byte	0x79
 8027 3071 00       		.sleb128 0
 8028 3072 2D       		.uleb128 0x2d
 8029 3073 01       		.uleb128 0x1
 8030 3074 51       		.byte	0x51
 8031 3075 02       		.uleb128 0x2
 8032 3076 08       		.byte	0x8
 8033 3077 25       		.byte	0x25
 8034 3078 2D       		.uleb128 0x2d
 8035 3079 01       		.uleb128 0x1
 8036 307a 52       		.byte	0x52
 8037 307b 01       		.uleb128 0x1
 8038 307c 30       		.byte	0x30
 8039 307d 00       		.byte	0
 8040 307e 30       		.uleb128 0x30
 8041 307f 9E020000 		.4byte	.LVL209
 8042 3083 78330000 		.4byte	0x3378
 8043 3087 93300000 		.4byte	0x3093
 8044 308b 2D       		.uleb128 0x2d
 8045 308c 01       		.uleb128 0x1
 8046 308d 50       		.byte	0x50
 8047 308e 03       		.uleb128 0x3
 8048 308f 91       		.byte	0x91
 8049 3090 9C7F     		.sleb128 -100
 8050 3092 00       		.byte	0
ARM GAS  C:\Users\haske\AppData\Local\Temp\ccLw7Foe.s 			page 164


 8051 3093 2C       		.uleb128 0x2c
 8052 3094 A4020000 		.4byte	.LVL210
 8053 3098 78330000 		.4byte	0x3378
 8054 309c 2D       		.uleb128 0x2d
 8055 309d 01       		.uleb128 0x1
 8056 309e 50       		.byte	0x50
 8057 309f 03       		.uleb128 0x3
 8058 30a0 91       		.byte	0x91
 8059 30a1 D87E     		.sleb128 -168
 8060 30a3 00       		.byte	0
 8061 30a4 00       		.byte	0
 8062 30a5 35       		.uleb128 0x35
 8063 30a6 BD0C0000 		.4byte	.LASF553
 8064 30aa 01       		.byte	0x1
 8065 30ab 52       		.byte	0x52
 8066 30ac 00000000 		.4byte	.LFB167
 8067 30b0 14000000 		.4byte	.LFE167-.LFB167
 8068 30b4 01       		.uleb128 0x1
 8069 30b5 9C       		.byte	0x9c
 8070 30b6 F0300000 		.4byte	0x30f0
 8071 30ba 36       		.uleb128 0x36
 8072 30bb 73637200 		.ascii	"scr\000"
 8073 30bf 01       		.byte	0x1
 8074 30c0 52       		.byte	0x52
 8075 30c1 CE1C0000 		.4byte	0x1cce
 8076 30c5 2E100000 		.4byte	.LLST145
 8077 30c9 2C       		.uleb128 0x2c
 8078 30ca 10000000 		.4byte	.LVL215
 8079 30ce CF240000 		.4byte	0x24cf
 8080 30d2 2D       		.uleb128 0x2d
 8081 30d3 01       		.uleb128 0x1
 8082 30d4 50       		.byte	0x50
 8083 30d5 03       		.uleb128 0x3
 8084 30d6 F3       		.byte	0xf3
 8085 30d7 01       		.uleb128 0x1
 8086 30d8 50       		.byte	0x50
 8087 30d9 2D       		.uleb128 0x2d
 8088 30da 01       		.uleb128 0x1
 8089 30db 51       		.byte	0x51
 8090 30dc 01       		.uleb128 0x1
 8091 30dd 30       		.byte	0x30
 8092 30de 2D       		.uleb128 0x2d
 8093 30df 01       		.uleb128 0x1
 8094 30e0 52       		.byte	0x52
 8095 30e1 01       		.uleb128 0x1
 8096 30e2 30       		.byte	0x30
 8097 30e3 2D       		.uleb128 0x2d
 8098 30e4 01       		.uleb128 0x1
 8099 30e5 53       		.byte	0x53
 8100 30e6 01       		.uleb128 0x1
 8101 30e7 30       		.byte	0x30
 8102 30e8 2D       		.uleb128 0x2d
 8103 30e9 02       		.uleb128 0x2
 8104 30ea 7D       		.byte	0x7d
 8105 30eb 00       		.sleb128 0
 8106 30ec 01       		.uleb128 0x1
 8107 30ed 30       		.byte	0x30
ARM GAS  C:\Users\haske\AppData\Local\Temp\ccLw7Foe.s 			page 165


 8108 30ee 00       		.byte	0
 8109 30ef 00       		.byte	0
 8110 30f0 3D       		.uleb128 0x3d
 8111 30f1 7F0B0000 		.4byte	.LASF554
 8112 30f5 01       		.byte	0x1
 8113 30f6 7101     		.2byte	0x171
 8114 30f8 E4000000 		.4byte	0xe4
 8115 30fc 00000000 		.4byte	.LFB176
 8116 3100 40000000 		.4byte	.LFE176-.LFB176
 8117 3104 01       		.uleb128 0x1
 8118 3105 9C       		.byte	0x9c
 8119 3106 86310000 		.4byte	0x3186
 8120 310a 29       		.uleb128 0x29
 8121 310b 7E140000 		.4byte	.LASF391
 8122 310f 01       		.byte	0x1
 8123 3110 7101     		.2byte	0x171
 8124 3112 86310000 		.4byte	0x3186
 8125 3116 4F100000 		.4byte	.LLST146
 8126 311a 2E       		.uleb128 0x2e
 8127 311b 6400     		.ascii	"d\000"
 8128 311d 01       		.byte	0x1
 8129 311e 7501     		.2byte	0x175
 8130 3120 0B200000 		.4byte	0x200b
 8131 3124 89100000 		.4byte	.LLST147
 8132 3128 2E       		.uleb128 0x2e
 8133 3129 7400     		.ascii	"t\000"
 8134 312b 01       		.byte	0x1
 8135 312c 7601     		.2byte	0x176
 8136 312e E4000000 		.4byte	0xe4
 8137 3132 B2100000 		.4byte	.LLST148
 8138 3136 3E       		.uleb128 0x3e
 8139 3137 20000000 		.4byte	.LBB206
 8140 313b 18000000 		.4byte	.LBE206-.LBB206
 8141 313f 6D310000 		.4byte	0x316d
 8142 3143 31       		.uleb128 0x31
 8143 3144 CF1A0000 		.4byte	.LASF555
 8144 3148 01       		.byte	0x1
 8145 3149 7901     		.2byte	0x179
 8146 314b E4000000 		.4byte	0xe4
 8147 314f D2100000 		.4byte	.LLST149
 8148 3153 2F       		.uleb128 0x2f
 8149 3154 2A000000 		.4byte	.LVL225
 8150 3158 84330000 		.4byte	0x3384
 8151 315c 2C       		.uleb128 0x2c
 8152 315d 36000000 		.4byte	.LVL228
 8153 3161 8F330000 		.4byte	0x338f
 8154 3165 2D       		.uleb128 0x2d
 8155 3166 01       		.uleb128 0x1
 8156 3167 50       		.byte	0x50
 8157 3168 02       		.uleb128 0x2
 8158 3169 74       		.byte	0x74
 8159 316a 00       		.sleb128 0
 8160 316b 00       		.byte	0
 8161 316c 00       		.byte	0
 8162 316d 2F       		.uleb128 0x2f
 8163 316e 10000000 		.4byte	.LVL218
 8164 3172 84330000 		.4byte	0x3384
ARM GAS  C:\Users\haske\AppData\Local\Temp\ccLw7Foe.s 			page 166


 8165 3176 2C       		.uleb128 0x2c
 8166 3177 18000000 		.4byte	.LVL221
 8167 317b 8F330000 		.4byte	0x338f
 8168 317f 2D       		.uleb128 0x2d
 8169 3180 01       		.uleb128 0x1
 8170 3181 50       		.byte	0x50
 8171 3182 01       		.uleb128 0x1
 8172 3183 30       		.byte	0x30
 8173 3184 00       		.byte	0
 8174 3185 00       		.byte	0
 8175 3186 0B       		.uleb128 0xb
 8176 3187 04       		.byte	0x4
 8177 3188 8C310000 		.4byte	0x318c
 8178 318c 0C       		.uleb128 0xc
 8179 318d CB170000 		.4byte	0x17cb
 8180 3191 3F       		.uleb128 0x3f
 8181 3192 4B100000 		.4byte	.LASF556
 8182 3196 01       		.byte	0x1
 8183 3197 8501     		.2byte	0x185
 8184 3199 00000000 		.4byte	.LFB177
 8185 319d 1C000000 		.4byte	.LFE177-.LFB177
 8186 31a1 01       		.uleb128 0x1
 8187 31a2 9C       		.byte	0x9c
 8188 31a3 CA310000 		.4byte	0x31ca
 8189 31a7 29       		.uleb128 0x29
 8190 31a8 7E140000 		.4byte	.LASF391
 8191 31ac 01       		.byte	0x1
 8192 31ad 8501     		.2byte	0x185
 8193 31af 0B200000 		.4byte	0x200b
 8194 31b3 E5100000 		.4byte	.LLST150
 8195 31b7 2F       		.uleb128 0x2f
 8196 31b8 0A000000 		.4byte	.LVL232
 8197 31bc 06330000 		.4byte	0x3306
 8198 31c0 2F       		.uleb128 0x2f
 8199 31c1 14000000 		.4byte	.LVL234
 8200 31c5 9B330000 		.4byte	0x339b
 8201 31c9 00       		.byte	0
 8202 31ca 40       		.uleb128 0x40
 8203 31cb FC180000 		.4byte	.LASF557
 8204 31cf 01       		.byte	0x1
 8205 31d0 9401     		.2byte	0x194
 8206 31d2 00000000 		.4byte	.LFB178
 8207 31d6 1A000000 		.4byte	.LFE178-.LFB178
 8208 31da 01       		.uleb128 0x1
 8209 31db 9C       		.byte	0x9c
 8210 31dc FA310000 		.4byte	0x31fa
 8211 31e0 29       		.uleb128 0x29
 8212 31e1 7E140000 		.4byte	.LASF391
 8213 31e5 01       		.byte	0x1
 8214 31e6 9401     		.2byte	0x194
 8215 31e8 0B200000 		.4byte	0x200b
 8216 31ec 19110000 		.4byte	.LLST151
 8217 31f0 2F       		.uleb128 0x2f
 8218 31f1 0A000000 		.4byte	.LVL237
 8219 31f5 06330000 		.4byte	0x3306
 8220 31f9 00       		.byte	0
 8221 31fa 3F       		.uleb128 0x3f
ARM GAS  C:\Users\haske\AppData\Local\Temp\ccLw7Foe.s 			page 167


 8222 31fb 27010000 		.4byte	.LASF558
 8223 31ff 01       		.byte	0x1
 8224 3200 A501     		.2byte	0x1a5
 8225 3202 00000000 		.4byte	.LFB179
 8226 3206 2C000000 		.4byte	.LFE179-.LFB179
 8227 320a 01       		.uleb128 0x1
 8228 320b 9C       		.byte	0x9c
 8229 320c 39320000 		.4byte	0x3239
 8230 3210 29       		.uleb128 0x29
 8231 3211 7E140000 		.4byte	.LASF391
 8232 3215 01       		.byte	0x1
 8233 3216 A501     		.2byte	0x1a5
 8234 3218 0B200000 		.4byte	0x200b
 8235 321c 45110000 		.4byte	.LLST152
 8236 3220 2B       		.uleb128 0x2b
 8237 3221 656E00   		.ascii	"en\000"
 8238 3224 01       		.byte	0x1
 8239 3225 A501     		.2byte	0x1a5
 8240 3227 AA020000 		.4byte	0x2aa
 8241 322b 71110000 		.4byte	.LLST153
 8242 322f 2F       		.uleb128 0x2f
 8243 3230 0C000000 		.4byte	.LVL241
 8244 3234 06330000 		.4byte	0x3306
 8245 3238 00       		.byte	0
 8246 3239 3D       		.uleb128 0x3d
 8247 323a BE030000 		.4byte	.LASF559
 8248 323e 01       		.byte	0x1
 8249 323f B501     		.2byte	0x1b5
 8250 3241 AA020000 		.4byte	0x2aa
 8251 3245 00000000 		.4byte	.LFB180
 8252 3249 20000000 		.4byte	.LFE180-.LFB180
 8253 324d 01       		.uleb128 0x1
 8254 324e 9C       		.byte	0x9c
 8255 324f 6D320000 		.4byte	0x326d
 8256 3253 29       		.uleb128 0x29
 8257 3254 7E140000 		.4byte	.LASF391
 8258 3258 01       		.byte	0x1
 8259 3259 B501     		.2byte	0x1b5
 8260 325b 0B200000 		.4byte	0x200b
 8261 325f 92110000 		.4byte	.LLST154
 8262 3263 2F       		.uleb128 0x2f
 8263 3264 0A000000 		.4byte	.LVL243
 8264 3268 06330000 		.4byte	0x3306
 8265 326c 00       		.byte	0
 8266 326d 3D       		.uleb128 0x3d
 8267 326e BD020000 		.4byte	.LASF560
 8268 3272 01       		.byte	0x1
 8269 3273 C601     		.2byte	0x1c6
 8270 3275 14170000 		.4byte	0x1714
 8271 3279 00000000 		.4byte	.LFB181
 8272 327d 16000000 		.4byte	.LFE181-.LFB181
 8273 3281 01       		.uleb128 0x1
 8274 3282 9C       		.byte	0x9c
 8275 3283 A1320000 		.4byte	0x32a1
 8276 3287 29       		.uleb128 0x29
 8277 3288 7E140000 		.4byte	.LASF391
 8278 328c 01       		.byte	0x1
ARM GAS  C:\Users\haske\AppData\Local\Temp\ccLw7Foe.s 			page 168


 8279 328d C601     		.2byte	0x1c6
 8280 328f 0B200000 		.4byte	0x200b
 8281 3293 C9110000 		.4byte	.LLST155
 8282 3297 2F       		.uleb128 0x2f
 8283 3298 0A000000 		.4byte	.LVL248
 8284 329c 06330000 		.4byte	0x3306
 8285 32a0 00       		.byte	0
 8286 32a1 41       		.uleb128 0x41
 8287 32a2 691C0000 		.4byte	.LASF589
 8288 32a6 08       		.byte	0x8
 8289 32a7 94       		.byte	0x94
 8290 32a8 A50C0000 		.4byte	0xca5
 8291 32ac 42       		.uleb128 0x42
 8292 32ad 1E1D0000 		.4byte	.LASF561
 8293 32b1 1E1D0000 		.4byte	.LASF561
 8294 32b5 20       		.byte	0x20
 8295 32b6 7F02     		.2byte	0x27f
 8296 32b8 43       		.uleb128 0x43
 8297 32b9 010E0000 		.4byte	.LASF562
 8298 32bd 010E0000 		.4byte	.LASF562
 8299 32c1 21       		.byte	0x21
 8300 32c2 45       		.byte	0x45
 8301 32c3 43       		.uleb128 0x43
 8302 32c4 C21F0000 		.4byte	.LASF563
 8303 32c8 C21F0000 		.4byte	.LASF563
 8304 32cc 21       		.byte	0x21
 8305 32cd 3A       		.byte	0x3a
 8306 32ce 43       		.uleb128 0x43
 8307 32cf 31060000 		.4byte	.LASF564
 8308 32d3 31060000 		.4byte	.LASF564
 8309 32d7 22       		.byte	0x22
 8310 32d8 76       		.byte	0x76
 8311 32d9 43       		.uleb128 0x43
 8312 32da E9040000 		.4byte	.LASF565
 8313 32de E9040000 		.4byte	.LASF565
 8314 32e2 1F       		.byte	0x1f
 8315 32e3 92       		.byte	0x92
 8316 32e4 43       		.uleb128 0x43
 8317 32e5 EC1F0000 		.4byte	.LASF566
 8318 32e9 EC1F0000 		.4byte	.LASF566
 8319 32ed 22       		.byte	0x22
 8320 32ee 31       		.byte	0x31
 8321 32ef 43       		.uleb128 0x43
 8322 32f0 65180000 		.4byte	.LASF567
 8323 32f4 65180000 		.4byte	.LASF567
 8324 32f8 1D       		.byte	0x1d
 8325 32f9 9C       		.byte	0x9c
 8326 32fa 42       		.uleb128 0x42
 8327 32fb 831F0000 		.4byte	.LASF568
 8328 32ff 831F0000 		.4byte	.LASF568
 8329 3303 21       		.byte	0x21
 8330 3304 7D01     		.2byte	0x17d
 8331 3306 42       		.uleb128 0x42
 8332 3307 E50D0000 		.4byte	.LASF569
 8333 330b E50D0000 		.4byte	.LASF569
 8334 330f 19       		.byte	0x19
 8335 3310 0001     		.2byte	0x100
ARM GAS  C:\Users\haske\AppData\Local\Temp\ccLw7Foe.s 			page 169


 8336 3312 43       		.uleb128 0x43
 8337 3313 A11A0000 		.4byte	.LASF570
 8338 3317 A11A0000 		.4byte	.LASF570
 8339 331b 22       		.byte	0x22
 8340 331c 91       		.byte	0x91
 8341 331d 43       		.uleb128 0x43
 8342 331e 30020000 		.4byte	.LASF571
 8343 3322 30020000 		.4byte	.LASF571
 8344 3326 1A       		.byte	0x1a
 8345 3327 3B       		.byte	0x3b
 8346 3328 42       		.uleb128 0x42
 8347 3329 130C0000 		.4byte	.LASF572
 8348 332d 130C0000 		.4byte	.LASF572
 8349 3331 19       		.byte	0x19
 8350 3332 0701     		.2byte	0x107
 8351 3334 42       		.uleb128 0x42
 8352 3335 6B0B0000 		.4byte	.LASF573
 8353 3339 6B0B0000 		.4byte	.LASF573
 8354 333d 19       		.byte	0x19
 8355 333e 0E01     		.2byte	0x10e
 8356 3340 43       		.uleb128 0x43
 8357 3341 FF120000 		.4byte	.LASF574
 8358 3345 FF120000 		.4byte	.LASF574
 8359 3349 07       		.byte	0x7
 8360 334a 67       		.byte	0x67
 8361 334b 43       		.uleb128 0x43
 8362 334c DF070000 		.4byte	.LASF575
 8363 3350 DF070000 		.4byte	.LASF575
 8364 3354 23       		.byte	0x23
 8365 3355 48       		.byte	0x48
 8366 3356 42       		.uleb128 0x42
 8367 3357 30070000 		.4byte	.LASF576
 8368 335b 30070000 		.4byte	.LASF576
 8369 335f 03       		.byte	0x3
 8370 3360 5C01     		.2byte	0x15c
 8371 3362 43       		.uleb128 0x43
 8372 3363 610F0000 		.4byte	.LASF577
 8373 3367 610F0000 		.4byte	.LASF577
 8374 336b 21       		.byte	0x21
 8375 336c 2F       		.byte	0x2f
 8376 336d 43       		.uleb128 0x43
 8377 336e 551E0000 		.4byte	.LASF578
 8378 3372 551E0000 		.4byte	.LASF578
 8379 3376 03       		.byte	0x3
 8380 3377 77       		.byte	0x77
 8381 3378 42       		.uleb128 0x42
 8382 3379 261B0000 		.4byte	.LASF579
 8383 337d 261B0000 		.4byte	.LASF579
 8384 3381 03       		.byte	0x3
 8385 3382 3601     		.2byte	0x136
 8386 3384 43       		.uleb128 0x43
 8387 3385 E0190000 		.4byte	.LASF580
 8388 3389 E0190000 		.4byte	.LASF580
 8389 338d 24       		.byte	0x24
 8390 338e 3B       		.byte	0x3b
 8391 338f 42       		.uleb128 0x42
 8392 3390 73060000 		.4byte	.LASF581
ARM GAS  C:\Users\haske\AppData\Local\Temp\ccLw7Foe.s 			page 170


 8393 3394 73060000 		.4byte	.LASF581
 8394 3398 19       		.byte	0x19
 8395 3399 6001     		.2byte	0x160
 8396 339b 43       		.uleb128 0x43
 8397 339c AF0A0000 		.4byte	.LASF582
 8398 33a0 AF0A0000 		.4byte	.LASF582
 8399 33a4 24       		.byte	0x24
 8400 33a5 34       		.byte	0x34
 8401 33a6 00       		.byte	0
 8402              		.section	.debug_abbrev,"",%progbits
 8403              	.Ldebug_abbrev0:
 8404 0000 01       		.uleb128 0x1
 8405 0001 11       		.uleb128 0x11
 8406 0002 01       		.byte	0x1
 8407 0003 25       		.uleb128 0x25
 8408 0004 0E       		.uleb128 0xe
 8409 0005 13       		.uleb128 0x13
 8410 0006 0B       		.uleb128 0xb
 8411 0007 03       		.uleb128 0x3
 8412 0008 0E       		.uleb128 0xe
 8413 0009 1B       		.uleb128 0x1b
 8414 000a 0E       		.uleb128 0xe
 8415 000b 55       		.uleb128 0x55
 8416 000c 17       		.uleb128 0x17
 8417 000d 11       		.uleb128 0x11
 8418 000e 01       		.uleb128 0x1
 8419 000f 10       		.uleb128 0x10
 8420 0010 17       		.uleb128 0x17
 8421 0011 00       		.byte	0
 8422 0012 00       		.byte	0
 8423 0013 02       		.uleb128 0x2
 8424 0014 16       		.uleb128 0x16
 8425 0015 00       		.byte	0
 8426 0016 03       		.uleb128 0x3
 8427 0017 0E       		.uleb128 0xe
 8428 0018 3A       		.uleb128 0x3a
 8429 0019 0B       		.uleb128 0xb
 8430 001a 3B       		.uleb128 0x3b
 8431 001b 0B       		.uleb128 0xb
 8432 001c 49       		.uleb128 0x49
 8433 001d 13       		.uleb128 0x13
 8434 001e 00       		.byte	0
 8435 001f 00       		.byte	0
 8436 0020 03       		.uleb128 0x3
 8437 0021 24       		.uleb128 0x24
 8438 0022 00       		.byte	0
 8439 0023 0B       		.uleb128 0xb
 8440 0024 0B       		.uleb128 0xb
 8441 0025 3E       		.uleb128 0x3e
 8442 0026 0B       		.uleb128 0xb
 8443 0027 03       		.uleb128 0x3
 8444 0028 0E       		.uleb128 0xe
 8445 0029 00       		.byte	0
 8446 002a 00       		.byte	0
 8447 002b 04       		.uleb128 0x4
 8448 002c 24       		.uleb128 0x24
 8449 002d 00       		.byte	0
ARM GAS  C:\Users\haske\AppData\Local\Temp\ccLw7Foe.s 			page 171


 8450 002e 0B       		.uleb128 0xb
 8451 002f 0B       		.uleb128 0xb
 8452 0030 3E       		.uleb128 0x3e
 8453 0031 0B       		.uleb128 0xb
 8454 0032 03       		.uleb128 0x3
 8455 0033 08       		.uleb128 0x8
 8456 0034 00       		.byte	0
 8457 0035 00       		.byte	0
 8458 0036 05       		.uleb128 0x5
 8459 0037 13       		.uleb128 0x13
 8460 0038 01       		.byte	0x1
 8461 0039 0B       		.uleb128 0xb
 8462 003a 0B       		.uleb128 0xb
 8463 003b 3A       		.uleb128 0x3a
 8464 003c 0B       		.uleb128 0xb
 8465 003d 3B       		.uleb128 0x3b
 8466 003e 0B       		.uleb128 0xb
 8467 003f 01       		.uleb128 0x1
 8468 0040 13       		.uleb128 0x13
 8469 0041 00       		.byte	0
 8470 0042 00       		.byte	0
 8471 0043 06       		.uleb128 0x6
 8472 0044 0D       		.uleb128 0xd
 8473 0045 00       		.byte	0
 8474 0046 03       		.uleb128 0x3
 8475 0047 08       		.uleb128 0x8
 8476 0048 3A       		.uleb128 0x3a
 8477 0049 0B       		.uleb128 0xb
 8478 004a 3B       		.uleb128 0x3b
 8479 004b 0B       		.uleb128 0xb
 8480 004c 49       		.uleb128 0x49
 8481 004d 13       		.uleb128 0x13
 8482 004e 38       		.uleb128 0x38
 8483 004f 0B       		.uleb128 0xb
 8484 0050 00       		.byte	0
 8485 0051 00       		.byte	0
 8486 0052 07       		.uleb128 0x7
 8487 0053 0D       		.uleb128 0xd
 8488 0054 00       		.byte	0
 8489 0055 03       		.uleb128 0x3
 8490 0056 0E       		.uleb128 0xe
 8491 0057 3A       		.uleb128 0x3a
 8492 0058 0B       		.uleb128 0xb
 8493 0059 3B       		.uleb128 0x3b
 8494 005a 0B       		.uleb128 0xb
 8495 005b 49       		.uleb128 0x49
 8496 005c 13       		.uleb128 0x13
 8497 005d 38       		.uleb128 0x38
 8498 005e 0B       		.uleb128 0xb
 8499 005f 00       		.byte	0
 8500 0060 00       		.byte	0
 8501 0061 08       		.uleb128 0x8
 8502 0062 0D       		.uleb128 0xd
 8503 0063 00       		.byte	0
 8504 0064 03       		.uleb128 0x3
 8505 0065 08       		.uleb128 0x8
 8506 0066 3A       		.uleb128 0x3a
ARM GAS  C:\Users\haske\AppData\Local\Temp\ccLw7Foe.s 			page 172


 8507 0067 0B       		.uleb128 0xb
 8508 0068 3B       		.uleb128 0x3b
 8509 0069 0B       		.uleb128 0xb
 8510 006a 49       		.uleb128 0x49
 8511 006b 13       		.uleb128 0x13
 8512 006c 0B       		.uleb128 0xb
 8513 006d 0B       		.uleb128 0xb
 8514 006e 0D       		.uleb128 0xd
 8515 006f 0B       		.uleb128 0xb
 8516 0070 0C       		.uleb128 0xc
 8517 0071 0B       		.uleb128 0xb
 8518 0072 38       		.uleb128 0x38
 8519 0073 0B       		.uleb128 0xb
 8520 0074 00       		.byte	0
 8521 0075 00       		.byte	0
 8522 0076 09       		.uleb128 0x9
 8523 0077 0D       		.uleb128 0xd
 8524 0078 00       		.byte	0
 8525 0079 03       		.uleb128 0x3
 8526 007a 0E       		.uleb128 0xe
 8527 007b 3A       		.uleb128 0x3a
 8528 007c 0B       		.uleb128 0xb
 8529 007d 3B       		.uleb128 0x3b
 8530 007e 0B       		.uleb128 0xb
 8531 007f 49       		.uleb128 0x49
 8532 0080 13       		.uleb128 0x13
 8533 0081 0B       		.uleb128 0xb
 8534 0082 0B       		.uleb128 0xb
 8535 0083 0D       		.uleb128 0xd
 8536 0084 0B       		.uleb128 0xb
 8537 0085 0C       		.uleb128 0xc
 8538 0086 0B       		.uleb128 0xb
 8539 0087 38       		.uleb128 0x38
 8540 0088 0B       		.uleb128 0xb
 8541 0089 00       		.byte	0
 8542 008a 00       		.byte	0
 8543 008b 0A       		.uleb128 0xa
 8544 008c 13       		.uleb128 0x13
 8545 008d 01       		.byte	0x1
 8546 008e 03       		.uleb128 0x3
 8547 008f 0E       		.uleb128 0xe
 8548 0090 0B       		.uleb128 0xb
 8549 0091 0B       		.uleb128 0xb
 8550 0092 3A       		.uleb128 0x3a
 8551 0093 0B       		.uleb128 0xb
 8552 0094 3B       		.uleb128 0x3b
 8553 0095 0B       		.uleb128 0xb
 8554 0096 01       		.uleb128 0x1
 8555 0097 13       		.uleb128 0x13
 8556 0098 00       		.byte	0
 8557 0099 00       		.byte	0
 8558 009a 0B       		.uleb128 0xb
 8559 009b 0F       		.uleb128 0xf
 8560 009c 00       		.byte	0
 8561 009d 0B       		.uleb128 0xb
 8562 009e 0B       		.uleb128 0xb
 8563 009f 49       		.uleb128 0x49
ARM GAS  C:\Users\haske\AppData\Local\Temp\ccLw7Foe.s 			page 173


 8564 00a0 13       		.uleb128 0x13
 8565 00a1 00       		.byte	0
 8566 00a2 00       		.byte	0
 8567 00a3 0C       		.uleb128 0xc
 8568 00a4 26       		.uleb128 0x26
 8569 00a5 00       		.byte	0
 8570 00a6 49       		.uleb128 0x49
 8571 00a7 13       		.uleb128 0x13
 8572 00a8 00       		.byte	0
 8573 00a9 00       		.byte	0
 8574 00aa 0D       		.uleb128 0xd
 8575 00ab 15       		.uleb128 0x15
 8576 00ac 01       		.byte	0x1
 8577 00ad 27       		.uleb128 0x27
 8578 00ae 19       		.uleb128 0x19
 8579 00af 49       		.uleb128 0x49
 8580 00b0 13       		.uleb128 0x13
 8581 00b1 01       		.uleb128 0x1
 8582 00b2 13       		.uleb128 0x13
 8583 00b3 00       		.byte	0
 8584 00b4 00       		.byte	0
 8585 00b5 0E       		.uleb128 0xe
 8586 00b6 05       		.uleb128 0x5
 8587 00b7 00       		.byte	0
 8588 00b8 49       		.uleb128 0x49
 8589 00b9 13       		.uleb128 0x13
 8590 00ba 00       		.byte	0
 8591 00bb 00       		.byte	0
 8592 00bc 0F       		.uleb128 0xf
 8593 00bd 26       		.uleb128 0x26
 8594 00be 00       		.byte	0
 8595 00bf 00       		.byte	0
 8596 00c0 00       		.byte	0
 8597 00c1 10       		.uleb128 0x10
 8598 00c2 0F       		.uleb128 0xf
 8599 00c3 00       		.byte	0
 8600 00c4 0B       		.uleb128 0xb
 8601 00c5 0B       		.uleb128 0xb
 8602 00c6 00       		.byte	0
 8603 00c7 00       		.byte	0
 8604 00c8 11       		.uleb128 0x11
 8605 00c9 04       		.uleb128 0x4
 8606 00ca 01       		.byte	0x1
 8607 00cb 0B       		.uleb128 0xb
 8608 00cc 0B       		.uleb128 0xb
 8609 00cd 49       		.uleb128 0x49
 8610 00ce 13       		.uleb128 0x13
 8611 00cf 3A       		.uleb128 0x3a
 8612 00d0 0B       		.uleb128 0xb
 8613 00d1 3B       		.uleb128 0x3b
 8614 00d2 0B       		.uleb128 0xb
 8615 00d3 01       		.uleb128 0x1
 8616 00d4 13       		.uleb128 0x13
 8617 00d5 00       		.byte	0
 8618 00d6 00       		.byte	0
 8619 00d7 12       		.uleb128 0x12
 8620 00d8 28       		.uleb128 0x28
ARM GAS  C:\Users\haske\AppData\Local\Temp\ccLw7Foe.s 			page 174


 8621 00d9 00       		.byte	0
 8622 00da 03       		.uleb128 0x3
 8623 00db 0E       		.uleb128 0xe
 8624 00dc 1C       		.uleb128 0x1c
 8625 00dd 0B       		.uleb128 0xb
 8626 00de 00       		.byte	0
 8627 00df 00       		.byte	0
 8628 00e0 13       		.uleb128 0x13
 8629 00e1 17       		.uleb128 0x17
 8630 00e2 01       		.byte	0x1
 8631 00e3 0B       		.uleb128 0xb
 8632 00e4 0B       		.uleb128 0xb
 8633 00e5 3A       		.uleb128 0x3a
 8634 00e6 0B       		.uleb128 0xb
 8635 00e7 3B       		.uleb128 0x3b
 8636 00e8 0B       		.uleb128 0xb
 8637 00e9 01       		.uleb128 0x1
 8638 00ea 13       		.uleb128 0x13
 8639 00eb 00       		.byte	0
 8640 00ec 00       		.byte	0
 8641 00ed 14       		.uleb128 0x14
 8642 00ee 0D       		.uleb128 0xd
 8643 00ef 00       		.byte	0
 8644 00f0 03       		.uleb128 0x3
 8645 00f1 08       		.uleb128 0x8
 8646 00f2 3A       		.uleb128 0x3a
 8647 00f3 0B       		.uleb128 0xb
 8648 00f4 3B       		.uleb128 0x3b
 8649 00f5 0B       		.uleb128 0xb
 8650 00f6 49       		.uleb128 0x49
 8651 00f7 13       		.uleb128 0x13
 8652 00f8 00       		.byte	0
 8653 00f9 00       		.byte	0
 8654 00fa 15       		.uleb128 0x15
 8655 00fb 0D       		.uleb128 0xd
 8656 00fc 00       		.byte	0
 8657 00fd 03       		.uleb128 0x3
 8658 00fe 0E       		.uleb128 0xe
 8659 00ff 3A       		.uleb128 0x3a
 8660 0100 0B       		.uleb128 0xb
 8661 0101 3B       		.uleb128 0x3b
 8662 0102 0B       		.uleb128 0xb
 8663 0103 49       		.uleb128 0x49
 8664 0104 13       		.uleb128 0x13
 8665 0105 00       		.byte	0
 8666 0106 00       		.byte	0
 8667 0107 16       		.uleb128 0x16
 8668 0108 15       		.uleb128 0x15
 8669 0109 01       		.byte	0x1
 8670 010a 27       		.uleb128 0x27
 8671 010b 19       		.uleb128 0x19
 8672 010c 01       		.uleb128 0x1
 8673 010d 13       		.uleb128 0x13
 8674 010e 00       		.byte	0
 8675 010f 00       		.byte	0
 8676 0110 17       		.uleb128 0x17
 8677 0111 01       		.uleb128 0x1
ARM GAS  C:\Users\haske\AppData\Local\Temp\ccLw7Foe.s 			page 175


 8678 0112 01       		.byte	0x1
 8679 0113 49       		.uleb128 0x49
 8680 0114 13       		.uleb128 0x13
 8681 0115 01       		.uleb128 0x1
 8682 0116 13       		.uleb128 0x13
 8683 0117 00       		.byte	0
 8684 0118 00       		.byte	0
 8685 0119 18       		.uleb128 0x18
 8686 011a 21       		.uleb128 0x21
 8687 011b 00       		.byte	0
 8688 011c 49       		.uleb128 0x49
 8689 011d 13       		.uleb128 0x13
 8690 011e 2F       		.uleb128 0x2f
 8691 011f 0B       		.uleb128 0xb
 8692 0120 00       		.byte	0
 8693 0121 00       		.byte	0
 8694 0122 19       		.uleb128 0x19
 8695 0123 28       		.uleb128 0x28
 8696 0124 00       		.byte	0
 8697 0125 03       		.uleb128 0x3
 8698 0126 0E       		.uleb128 0xe
 8699 0127 1C       		.uleb128 0x1c
 8700 0128 05       		.uleb128 0x5
 8701 0129 00       		.byte	0
 8702 012a 00       		.byte	0
 8703 012b 1A       		.uleb128 0x1a
 8704 012c 16       		.uleb128 0x16
 8705 012d 00       		.byte	0
 8706 012e 03       		.uleb128 0x3
 8707 012f 0E       		.uleb128 0xe
 8708 0130 3A       		.uleb128 0x3a
 8709 0131 0B       		.uleb128 0xb
 8710 0132 3B       		.uleb128 0x3b
 8711 0133 05       		.uleb128 0x5
 8712 0134 49       		.uleb128 0x49
 8713 0135 13       		.uleb128 0x13
 8714 0136 00       		.byte	0
 8715 0137 00       		.byte	0
 8716 0138 1B       		.uleb128 0x1b
 8717 0139 13       		.uleb128 0x13
 8718 013a 01       		.byte	0x1
 8719 013b 0B       		.uleb128 0xb
 8720 013c 0B       		.uleb128 0xb
 8721 013d 3A       		.uleb128 0x3a
 8722 013e 0B       		.uleb128 0xb
 8723 013f 3B       		.uleb128 0x3b
 8724 0140 05       		.uleb128 0x5
 8725 0141 01       		.uleb128 0x1
 8726 0142 13       		.uleb128 0x13
 8727 0143 00       		.byte	0
 8728 0144 00       		.byte	0
 8729 0145 1C       		.uleb128 0x1c
 8730 0146 0D       		.uleb128 0xd
 8731 0147 00       		.byte	0
 8732 0148 03       		.uleb128 0x3
 8733 0149 0E       		.uleb128 0xe
 8734 014a 3A       		.uleb128 0x3a
ARM GAS  C:\Users\haske\AppData\Local\Temp\ccLw7Foe.s 			page 176


 8735 014b 0B       		.uleb128 0xb
 8736 014c 3B       		.uleb128 0x3b
 8737 014d 05       		.uleb128 0x5
 8738 014e 49       		.uleb128 0x49
 8739 014f 13       		.uleb128 0x13
 8740 0150 38       		.uleb128 0x38
 8741 0151 0B       		.uleb128 0xb
 8742 0152 00       		.byte	0
 8743 0153 00       		.byte	0
 8744 0154 1D       		.uleb128 0x1d
 8745 0155 17       		.uleb128 0x17
 8746 0156 01       		.byte	0x1
 8747 0157 0B       		.uleb128 0xb
 8748 0158 0B       		.uleb128 0xb
 8749 0159 3A       		.uleb128 0x3a
 8750 015a 0B       		.uleb128 0xb
 8751 015b 3B       		.uleb128 0x3b
 8752 015c 05       		.uleb128 0x5
 8753 015d 01       		.uleb128 0x1
 8754 015e 13       		.uleb128 0x13
 8755 015f 00       		.byte	0
 8756 0160 00       		.byte	0
 8757 0161 1E       		.uleb128 0x1e
 8758 0162 0D       		.uleb128 0xd
 8759 0163 00       		.byte	0
 8760 0164 03       		.uleb128 0x3
 8761 0165 0E       		.uleb128 0xe
 8762 0166 3A       		.uleb128 0x3a
 8763 0167 0B       		.uleb128 0xb
 8764 0168 3B       		.uleb128 0x3b
 8765 0169 05       		.uleb128 0x5
 8766 016a 49       		.uleb128 0x49
 8767 016b 13       		.uleb128 0x13
 8768 016c 00       		.byte	0
 8769 016d 00       		.byte	0
 8770 016e 1F       		.uleb128 0x1f
 8771 016f 0D       		.uleb128 0xd
 8772 0170 00       		.byte	0
 8773 0171 03       		.uleb128 0x3
 8774 0172 08       		.uleb128 0x8
 8775 0173 3A       		.uleb128 0x3a
 8776 0174 0B       		.uleb128 0xb
 8777 0175 3B       		.uleb128 0x3b
 8778 0176 05       		.uleb128 0x5
 8779 0177 49       		.uleb128 0x49
 8780 0178 13       		.uleb128 0x13
 8781 0179 38       		.uleb128 0x38
 8782 017a 0B       		.uleb128 0xb
 8783 017b 00       		.byte	0
 8784 017c 00       		.byte	0
 8785 017d 20       		.uleb128 0x20
 8786 017e 35       		.uleb128 0x35
 8787 017f 00       		.byte	0
 8788 0180 49       		.uleb128 0x49
 8789 0181 13       		.uleb128 0x13
 8790 0182 00       		.byte	0
 8791 0183 00       		.byte	0
ARM GAS  C:\Users\haske\AppData\Local\Temp\ccLw7Foe.s 			page 177


 8792 0184 21       		.uleb128 0x21
 8793 0185 13       		.uleb128 0x13
 8794 0186 01       		.byte	0x1
 8795 0187 03       		.uleb128 0x3
 8796 0188 0E       		.uleb128 0xe
 8797 0189 0B       		.uleb128 0xb
 8798 018a 05       		.uleb128 0x5
 8799 018b 3A       		.uleb128 0x3a
 8800 018c 0B       		.uleb128 0xb
 8801 018d 3B       		.uleb128 0x3b
 8802 018e 0B       		.uleb128 0xb
 8803 018f 01       		.uleb128 0x1
 8804 0190 13       		.uleb128 0x13
 8805 0191 00       		.byte	0
 8806 0192 00       		.byte	0
 8807 0193 22       		.uleb128 0x22
 8808 0194 0D       		.uleb128 0xd
 8809 0195 00       		.byte	0
 8810 0196 03       		.uleb128 0x3
 8811 0197 0E       		.uleb128 0xe
 8812 0198 3A       		.uleb128 0x3a
 8813 0199 0B       		.uleb128 0xb
 8814 019a 3B       		.uleb128 0x3b
 8815 019b 0B       		.uleb128 0xb
 8816 019c 49       		.uleb128 0x49
 8817 019d 13       		.uleb128 0x13
 8818 019e 38       		.uleb128 0x38
 8819 019f 05       		.uleb128 0x5
 8820 01a0 00       		.byte	0
 8821 01a1 00       		.byte	0
 8822 01a2 23       		.uleb128 0x23
 8823 01a3 13       		.uleb128 0x13
 8824 01a4 00       		.byte	0
 8825 01a5 03       		.uleb128 0x3
 8826 01a6 0E       		.uleb128 0xe
 8827 01a7 3C       		.uleb128 0x3c
 8828 01a8 19       		.uleb128 0x19
 8829 01a9 00       		.byte	0
 8830 01aa 00       		.byte	0
 8831 01ab 24       		.uleb128 0x24
 8832 01ac 2E       		.uleb128 0x2e
 8833 01ad 00       		.byte	0
 8834 01ae 03       		.uleb128 0x3
 8835 01af 0E       		.uleb128 0xe
 8836 01b0 3A       		.uleb128 0x3a
 8837 01b1 0B       		.uleb128 0xb
 8838 01b2 3B       		.uleb128 0x3b
 8839 01b3 0B       		.uleb128 0xb
 8840 01b4 27       		.uleb128 0x27
 8841 01b5 19       		.uleb128 0x19
 8842 01b6 49       		.uleb128 0x49
 8843 01b7 13       		.uleb128 0x13
 8844 01b8 20       		.uleb128 0x20
 8845 01b9 0B       		.uleb128 0xb
 8846 01ba 00       		.byte	0
 8847 01bb 00       		.byte	0
 8848 01bc 25       		.uleb128 0x25
ARM GAS  C:\Users\haske\AppData\Local\Temp\ccLw7Foe.s 			page 178


 8849 01bd 2E       		.uleb128 0x2e
 8850 01be 01       		.byte	0x1
 8851 01bf 03       		.uleb128 0x3
 8852 01c0 0E       		.uleb128 0xe
 8853 01c1 3A       		.uleb128 0x3a
 8854 01c2 0B       		.uleb128 0xb
 8855 01c3 3B       		.uleb128 0x3b
 8856 01c4 0B       		.uleb128 0xb
 8857 01c5 27       		.uleb128 0x27
 8858 01c6 19       		.uleb128 0x19
 8859 01c7 20       		.uleb128 0x20
 8860 01c8 0B       		.uleb128 0xb
 8861 01c9 01       		.uleb128 0x1
 8862 01ca 13       		.uleb128 0x13
 8863 01cb 00       		.byte	0
 8864 01cc 00       		.byte	0
 8865 01cd 26       		.uleb128 0x26
 8866 01ce 05       		.uleb128 0x5
 8867 01cf 00       		.byte	0
 8868 01d0 03       		.uleb128 0x3
 8869 01d1 08       		.uleb128 0x8
 8870 01d2 3A       		.uleb128 0x3a
 8871 01d3 0B       		.uleb128 0xb
 8872 01d4 3B       		.uleb128 0x3b
 8873 01d5 0B       		.uleb128 0xb
 8874 01d6 49       		.uleb128 0x49
 8875 01d7 13       		.uleb128 0x13
 8876 01d8 00       		.byte	0
 8877 01d9 00       		.byte	0
 8878 01da 27       		.uleb128 0x27
 8879 01db 05       		.uleb128 0x5
 8880 01dc 00       		.byte	0
 8881 01dd 03       		.uleb128 0x3
 8882 01de 0E       		.uleb128 0xe
 8883 01df 3A       		.uleb128 0x3a
 8884 01e0 0B       		.uleb128 0xb
 8885 01e1 3B       		.uleb128 0x3b
 8886 01e2 0B       		.uleb128 0xb
 8887 01e3 49       		.uleb128 0x49
 8888 01e4 13       		.uleb128 0x13
 8889 01e5 00       		.byte	0
 8890 01e6 00       		.byte	0
 8891 01e7 28       		.uleb128 0x28
 8892 01e8 2E       		.uleb128 0x2e
 8893 01e9 01       		.byte	0x1
 8894 01ea 03       		.uleb128 0x3
 8895 01eb 0E       		.uleb128 0xe
 8896 01ec 3A       		.uleb128 0x3a
 8897 01ed 0B       		.uleb128 0xb
 8898 01ee 3B       		.uleb128 0x3b
 8899 01ef 05       		.uleb128 0x5
 8900 01f0 27       		.uleb128 0x27
 8901 01f1 19       		.uleb128 0x19
 8902 01f2 49       		.uleb128 0x49
 8903 01f3 13       		.uleb128 0x13
 8904 01f4 11       		.uleb128 0x11
 8905 01f5 01       		.uleb128 0x1
ARM GAS  C:\Users\haske\AppData\Local\Temp\ccLw7Foe.s 			page 179


 8906 01f6 12       		.uleb128 0x12
 8907 01f7 06       		.uleb128 0x6
 8908 01f8 40       		.uleb128 0x40
 8909 01f9 18       		.uleb128 0x18
 8910 01fa 9742     		.uleb128 0x2117
 8911 01fc 19       		.uleb128 0x19
 8912 01fd 01       		.uleb128 0x1
 8913 01fe 13       		.uleb128 0x13
 8914 01ff 00       		.byte	0
 8915 0200 00       		.byte	0
 8916 0201 29       		.uleb128 0x29
 8917 0202 05       		.uleb128 0x5
 8918 0203 00       		.byte	0
 8919 0204 03       		.uleb128 0x3
 8920 0205 0E       		.uleb128 0xe
 8921 0206 3A       		.uleb128 0x3a
 8922 0207 0B       		.uleb128 0xb
 8923 0208 3B       		.uleb128 0x3b
 8924 0209 05       		.uleb128 0x5
 8925 020a 49       		.uleb128 0x49
 8926 020b 13       		.uleb128 0x13
 8927 020c 02       		.uleb128 0x2
 8928 020d 17       		.uleb128 0x17
 8929 020e 00       		.byte	0
 8930 020f 00       		.byte	0
 8931 0210 2A       		.uleb128 0x2a
 8932 0211 2E       		.uleb128 0x2e
 8933 0212 01       		.byte	0x1
 8934 0213 03       		.uleb128 0x3
 8935 0214 0E       		.uleb128 0xe
 8936 0215 3A       		.uleb128 0x3a
 8937 0216 0B       		.uleb128 0xb
 8938 0217 3B       		.uleb128 0x3b
 8939 0218 05       		.uleb128 0x5
 8940 0219 27       		.uleb128 0x27
 8941 021a 19       		.uleb128 0x19
 8942 021b 11       		.uleb128 0x11
 8943 021c 01       		.uleb128 0x1
 8944 021d 12       		.uleb128 0x12
 8945 021e 06       		.uleb128 0x6
 8946 021f 40       		.uleb128 0x40
 8947 0220 18       		.uleb128 0x18
 8948 0221 9742     		.uleb128 0x2117
 8949 0223 19       		.uleb128 0x19
 8950 0224 01       		.uleb128 0x1
 8951 0225 13       		.uleb128 0x13
 8952 0226 00       		.byte	0
 8953 0227 00       		.byte	0
 8954 0228 2B       		.uleb128 0x2b
 8955 0229 05       		.uleb128 0x5
 8956 022a 00       		.byte	0
 8957 022b 03       		.uleb128 0x3
 8958 022c 08       		.uleb128 0x8
 8959 022d 3A       		.uleb128 0x3a
 8960 022e 0B       		.uleb128 0xb
 8961 022f 3B       		.uleb128 0x3b
 8962 0230 05       		.uleb128 0x5
ARM GAS  C:\Users\haske\AppData\Local\Temp\ccLw7Foe.s 			page 180


 8963 0231 49       		.uleb128 0x49
 8964 0232 13       		.uleb128 0x13
 8965 0233 02       		.uleb128 0x2
 8966 0234 17       		.uleb128 0x17
 8967 0235 00       		.byte	0
 8968 0236 00       		.byte	0
 8969 0237 2C       		.uleb128 0x2c
 8970 0238 898201   		.uleb128 0x4109
 8971 023b 01       		.byte	0x1
 8972 023c 11       		.uleb128 0x11
 8973 023d 01       		.uleb128 0x1
 8974 023e 31       		.uleb128 0x31
 8975 023f 13       		.uleb128 0x13
 8976 0240 00       		.byte	0
 8977 0241 00       		.byte	0
 8978 0242 2D       		.uleb128 0x2d
 8979 0243 8A8201   		.uleb128 0x410a
 8980 0246 00       		.byte	0
 8981 0247 02       		.uleb128 0x2
 8982 0248 18       		.uleb128 0x18
 8983 0249 9142     		.uleb128 0x2111
 8984 024b 18       		.uleb128 0x18
 8985 024c 00       		.byte	0
 8986 024d 00       		.byte	0
 8987 024e 2E       		.uleb128 0x2e
 8988 024f 34       		.uleb128 0x34
 8989 0250 00       		.byte	0
 8990 0251 03       		.uleb128 0x3
 8991 0252 08       		.uleb128 0x8
 8992 0253 3A       		.uleb128 0x3a
 8993 0254 0B       		.uleb128 0xb
 8994 0255 3B       		.uleb128 0x3b
 8995 0256 05       		.uleb128 0x5
 8996 0257 49       		.uleb128 0x49
 8997 0258 13       		.uleb128 0x13
 8998 0259 02       		.uleb128 0x2
 8999 025a 17       		.uleb128 0x17
 9000 025b 00       		.byte	0
 9001 025c 00       		.byte	0
 9002 025d 2F       		.uleb128 0x2f
 9003 025e 898201   		.uleb128 0x4109
 9004 0261 00       		.byte	0
 9005 0262 11       		.uleb128 0x11
 9006 0263 01       		.uleb128 0x1
 9007 0264 31       		.uleb128 0x31
 9008 0265 13       		.uleb128 0x13
 9009 0266 00       		.byte	0
 9010 0267 00       		.byte	0
 9011 0268 30       		.uleb128 0x30
 9012 0269 898201   		.uleb128 0x4109
 9013 026c 01       		.byte	0x1
 9014 026d 11       		.uleb128 0x11
 9015 026e 01       		.uleb128 0x1
 9016 026f 31       		.uleb128 0x31
 9017 0270 13       		.uleb128 0x13
 9018 0271 01       		.uleb128 0x1
 9019 0272 13       		.uleb128 0x13
ARM GAS  C:\Users\haske\AppData\Local\Temp\ccLw7Foe.s 			page 181


 9020 0273 00       		.byte	0
 9021 0274 00       		.byte	0
 9022 0275 31       		.uleb128 0x31
 9023 0276 34       		.uleb128 0x34
 9024 0277 00       		.byte	0
 9025 0278 03       		.uleb128 0x3
 9026 0279 0E       		.uleb128 0xe
 9027 027a 3A       		.uleb128 0x3a
 9028 027b 0B       		.uleb128 0xb
 9029 027c 3B       		.uleb128 0x3b
 9030 027d 05       		.uleb128 0x5
 9031 027e 49       		.uleb128 0x49
 9032 027f 13       		.uleb128 0x13
 9033 0280 02       		.uleb128 0x2
 9034 0281 17       		.uleb128 0x17
 9035 0282 00       		.byte	0
 9036 0283 00       		.byte	0
 9037 0284 32       		.uleb128 0x32
 9038 0285 2E       		.uleb128 0x2e
 9039 0286 01       		.byte	0x1
 9040 0287 3F       		.uleb128 0x3f
 9041 0288 19       		.uleb128 0x19
 9042 0289 03       		.uleb128 0x3
 9043 028a 0E       		.uleb128 0xe
 9044 028b 3A       		.uleb128 0x3a
 9045 028c 0B       		.uleb128 0xb
 9046 028d 3B       		.uleb128 0x3b
 9047 028e 0B       		.uleb128 0xb
 9048 028f 27       		.uleb128 0x27
 9049 0290 19       		.uleb128 0x19
 9050 0291 49       		.uleb128 0x49
 9051 0292 13       		.uleb128 0x13
 9052 0293 11       		.uleb128 0x11
 9053 0294 01       		.uleb128 0x1
 9054 0295 12       		.uleb128 0x12
 9055 0296 06       		.uleb128 0x6
 9056 0297 40       		.uleb128 0x40
 9057 0298 18       		.uleb128 0x18
 9058 0299 9742     		.uleb128 0x2117
 9059 029b 19       		.uleb128 0x19
 9060 029c 01       		.uleb128 0x1
 9061 029d 13       		.uleb128 0x13
 9062 029e 00       		.byte	0
 9063 029f 00       		.byte	0
 9064 02a0 33       		.uleb128 0x33
 9065 02a1 05       		.uleb128 0x5
 9066 02a2 00       		.byte	0
 9067 02a3 03       		.uleb128 0x3
 9068 02a4 0E       		.uleb128 0xe
 9069 02a5 3A       		.uleb128 0x3a
 9070 02a6 0B       		.uleb128 0xb
 9071 02a7 3B       		.uleb128 0x3b
 9072 02a8 0B       		.uleb128 0xb
 9073 02a9 49       		.uleb128 0x49
 9074 02aa 13       		.uleb128 0x13
 9075 02ab 02       		.uleb128 0x2
 9076 02ac 17       		.uleb128 0x17
ARM GAS  C:\Users\haske\AppData\Local\Temp\ccLw7Foe.s 			page 182


 9077 02ad 00       		.byte	0
 9078 02ae 00       		.byte	0
 9079 02af 34       		.uleb128 0x34
 9080 02b0 1D       		.uleb128 0x1d
 9081 02b1 01       		.byte	0x1
 9082 02b2 31       		.uleb128 0x31
 9083 02b3 13       		.uleb128 0x13
 9084 02b4 11       		.uleb128 0x11
 9085 02b5 01       		.uleb128 0x1
 9086 02b6 12       		.uleb128 0x12
 9087 02b7 06       		.uleb128 0x6
 9088 02b8 58       		.uleb128 0x58
 9089 02b9 0B       		.uleb128 0xb
 9090 02ba 59       		.uleb128 0x59
 9091 02bb 05       		.uleb128 0x5
 9092 02bc 01       		.uleb128 0x1
 9093 02bd 13       		.uleb128 0x13
 9094 02be 00       		.byte	0
 9095 02bf 00       		.byte	0
 9096 02c0 35       		.uleb128 0x35
 9097 02c1 2E       		.uleb128 0x2e
 9098 02c2 01       		.byte	0x1
 9099 02c3 3F       		.uleb128 0x3f
 9100 02c4 19       		.uleb128 0x19
 9101 02c5 03       		.uleb128 0x3
 9102 02c6 0E       		.uleb128 0xe
 9103 02c7 3A       		.uleb128 0x3a
 9104 02c8 0B       		.uleb128 0xb
 9105 02c9 3B       		.uleb128 0x3b
 9106 02ca 0B       		.uleb128 0xb
 9107 02cb 27       		.uleb128 0x27
 9108 02cc 19       		.uleb128 0x19
 9109 02cd 11       		.uleb128 0x11
 9110 02ce 01       		.uleb128 0x1
 9111 02cf 12       		.uleb128 0x12
 9112 02d0 06       		.uleb128 0x6
 9113 02d1 40       		.uleb128 0x40
 9114 02d2 18       		.uleb128 0x18
 9115 02d3 9742     		.uleb128 0x2117
 9116 02d5 19       		.uleb128 0x19
 9117 02d6 01       		.uleb128 0x1
 9118 02d7 13       		.uleb128 0x13
 9119 02d8 00       		.byte	0
 9120 02d9 00       		.byte	0
 9121 02da 36       		.uleb128 0x36
 9122 02db 05       		.uleb128 0x5
 9123 02dc 00       		.byte	0
 9124 02dd 03       		.uleb128 0x3
 9125 02de 08       		.uleb128 0x8
 9126 02df 3A       		.uleb128 0x3a
 9127 02e0 0B       		.uleb128 0xb
 9128 02e1 3B       		.uleb128 0x3b
 9129 02e2 0B       		.uleb128 0xb
 9130 02e3 49       		.uleb128 0x49
 9131 02e4 13       		.uleb128 0x13
 9132 02e5 02       		.uleb128 0x2
 9133 02e6 17       		.uleb128 0x17
ARM GAS  C:\Users\haske\AppData\Local\Temp\ccLw7Foe.s 			page 183


 9134 02e7 00       		.byte	0
 9135 02e8 00       		.byte	0
 9136 02e9 37       		.uleb128 0x37
 9137 02ea 34       		.uleb128 0x34
 9138 02eb 00       		.byte	0
 9139 02ec 03       		.uleb128 0x3
 9140 02ed 08       		.uleb128 0x8
 9141 02ee 3A       		.uleb128 0x3a
 9142 02ef 0B       		.uleb128 0xb
 9143 02f0 3B       		.uleb128 0x3b
 9144 02f1 0B       		.uleb128 0xb
 9145 02f2 49       		.uleb128 0x49
 9146 02f3 13       		.uleb128 0x13
 9147 02f4 02       		.uleb128 0x2
 9148 02f5 18       		.uleb128 0x18
 9149 02f6 00       		.byte	0
 9150 02f7 00       		.byte	0
 9151 02f8 38       		.uleb128 0x38
 9152 02f9 34       		.uleb128 0x34
 9153 02fa 00       		.byte	0
 9154 02fb 03       		.uleb128 0x3
 9155 02fc 08       		.uleb128 0x8
 9156 02fd 3A       		.uleb128 0x3a
 9157 02fe 0B       		.uleb128 0xb
 9158 02ff 3B       		.uleb128 0x3b
 9159 0300 0B       		.uleb128 0xb
 9160 0301 49       		.uleb128 0x49
 9161 0302 13       		.uleb128 0x13
 9162 0303 02       		.uleb128 0x2
 9163 0304 17       		.uleb128 0x17
 9164 0305 00       		.byte	0
 9165 0306 00       		.byte	0
 9166 0307 39       		.uleb128 0x39
 9167 0308 34       		.uleb128 0x34
 9168 0309 00       		.byte	0
 9169 030a 03       		.uleb128 0x3
 9170 030b 0E       		.uleb128 0xe
 9171 030c 3A       		.uleb128 0x3a
 9172 030d 0B       		.uleb128 0xb
 9173 030e 3B       		.uleb128 0x3b
 9174 030f 0B       		.uleb128 0xb
 9175 0310 49       		.uleb128 0x49
 9176 0311 13       		.uleb128 0x13
 9177 0312 02       		.uleb128 0x2
 9178 0313 17       		.uleb128 0x17
 9179 0314 00       		.byte	0
 9180 0315 00       		.byte	0
 9181 0316 3A       		.uleb128 0x3a
 9182 0317 34       		.uleb128 0x34
 9183 0318 00       		.byte	0
 9184 0319 03       		.uleb128 0x3
 9185 031a 0E       		.uleb128 0xe
 9186 031b 3A       		.uleb128 0x3a
 9187 031c 0B       		.uleb128 0xb
 9188 031d 3B       		.uleb128 0x3b
 9189 031e 05       		.uleb128 0x5
 9190 031f 49       		.uleb128 0x49
ARM GAS  C:\Users\haske\AppData\Local\Temp\ccLw7Foe.s 			page 184


 9191 0320 13       		.uleb128 0x13
 9192 0321 02       		.uleb128 0x2
 9193 0322 18       		.uleb128 0x18
 9194 0323 00       		.byte	0
 9195 0324 00       		.byte	0
 9196 0325 3B       		.uleb128 0x3b
 9197 0326 1D       		.uleb128 0x1d
 9198 0327 01       		.byte	0x1
 9199 0328 31       		.uleb128 0x31
 9200 0329 13       		.uleb128 0x13
 9201 032a 11       		.uleb128 0x11
 9202 032b 01       		.uleb128 0x1
 9203 032c 12       		.uleb128 0x12
 9204 032d 06       		.uleb128 0x6
 9205 032e 58       		.uleb128 0x58
 9206 032f 0B       		.uleb128 0xb
 9207 0330 59       		.uleb128 0x59
 9208 0331 0B       		.uleb128 0xb
 9209 0332 01       		.uleb128 0x1
 9210 0333 13       		.uleb128 0x13
 9211 0334 00       		.byte	0
 9212 0335 00       		.byte	0
 9213 0336 3C       		.uleb128 0x3c
 9214 0337 05       		.uleb128 0x5
 9215 0338 00       		.byte	0
 9216 0339 31       		.uleb128 0x31
 9217 033a 13       		.uleb128 0x13
 9218 033b 02       		.uleb128 0x2
 9219 033c 17       		.uleb128 0x17
 9220 033d 00       		.byte	0
 9221 033e 00       		.byte	0
 9222 033f 3D       		.uleb128 0x3d
 9223 0340 2E       		.uleb128 0x2e
 9224 0341 01       		.byte	0x1
 9225 0342 3F       		.uleb128 0x3f
 9226 0343 19       		.uleb128 0x19
 9227 0344 03       		.uleb128 0x3
 9228 0345 0E       		.uleb128 0xe
 9229 0346 3A       		.uleb128 0x3a
 9230 0347 0B       		.uleb128 0xb
 9231 0348 3B       		.uleb128 0x3b
 9232 0349 05       		.uleb128 0x5
 9233 034a 27       		.uleb128 0x27
 9234 034b 19       		.uleb128 0x19
 9235 034c 49       		.uleb128 0x49
 9236 034d 13       		.uleb128 0x13
 9237 034e 11       		.uleb128 0x11
 9238 034f 01       		.uleb128 0x1
 9239 0350 12       		.uleb128 0x12
 9240 0351 06       		.uleb128 0x6
 9241 0352 40       		.uleb128 0x40
 9242 0353 18       		.uleb128 0x18
 9243 0354 9742     		.uleb128 0x2117
 9244 0356 19       		.uleb128 0x19
 9245 0357 01       		.uleb128 0x1
 9246 0358 13       		.uleb128 0x13
 9247 0359 00       		.byte	0
ARM GAS  C:\Users\haske\AppData\Local\Temp\ccLw7Foe.s 			page 185


 9248 035a 00       		.byte	0
 9249 035b 3E       		.uleb128 0x3e
 9250 035c 0B       		.uleb128 0xb
 9251 035d 01       		.byte	0x1
 9252 035e 11       		.uleb128 0x11
 9253 035f 01       		.uleb128 0x1
 9254 0360 12       		.uleb128 0x12
 9255 0361 06       		.uleb128 0x6
 9256 0362 01       		.uleb128 0x1
 9257 0363 13       		.uleb128 0x13
 9258 0364 00       		.byte	0
 9259 0365 00       		.byte	0
 9260 0366 3F       		.uleb128 0x3f
 9261 0367 2E       		.uleb128 0x2e
 9262 0368 01       		.byte	0x1
 9263 0369 3F       		.uleb128 0x3f
 9264 036a 19       		.uleb128 0x19
 9265 036b 03       		.uleb128 0x3
 9266 036c 0E       		.uleb128 0xe
 9267 036d 3A       		.uleb128 0x3a
 9268 036e 0B       		.uleb128 0xb
 9269 036f 3B       		.uleb128 0x3b
 9270 0370 05       		.uleb128 0x5
 9271 0371 27       		.uleb128 0x27
 9272 0372 19       		.uleb128 0x19
 9273 0373 11       		.uleb128 0x11
 9274 0374 01       		.uleb128 0x1
 9275 0375 12       		.uleb128 0x12
 9276 0376 06       		.uleb128 0x6
 9277 0377 40       		.uleb128 0x40
 9278 0378 18       		.uleb128 0x18
 9279 0379 9742     		.uleb128 0x2117
 9280 037b 19       		.uleb128 0x19
 9281 037c 01       		.uleb128 0x1
 9282 037d 13       		.uleb128 0x13
 9283 037e 00       		.byte	0
 9284 037f 00       		.byte	0
 9285 0380 40       		.uleb128 0x40
 9286 0381 2E       		.uleb128 0x2e
 9287 0382 01       		.byte	0x1
 9288 0383 3F       		.uleb128 0x3f
 9289 0384 19       		.uleb128 0x19
 9290 0385 03       		.uleb128 0x3
 9291 0386 0E       		.uleb128 0xe
 9292 0387 3A       		.uleb128 0x3a
 9293 0388 0B       		.uleb128 0xb
 9294 0389 3B       		.uleb128 0x3b
 9295 038a 05       		.uleb128 0x5
 9296 038b 27       		.uleb128 0x27
 9297 038c 19       		.uleb128 0x19
 9298 038d 11       		.uleb128 0x11
 9299 038e 01       		.uleb128 0x1
 9300 038f 12       		.uleb128 0x12
 9301 0390 06       		.uleb128 0x6
 9302 0391 40       		.uleb128 0x40
 9303 0392 18       		.uleb128 0x18
 9304 0393 9642     		.uleb128 0x2116
ARM GAS  C:\Users\haske\AppData\Local\Temp\ccLw7Foe.s 			page 186


 9305 0395 19       		.uleb128 0x19
 9306 0396 01       		.uleb128 0x1
 9307 0397 13       		.uleb128 0x13
 9308 0398 00       		.byte	0
 9309 0399 00       		.byte	0
 9310 039a 41       		.uleb128 0x41
 9311 039b 34       		.uleb128 0x34
 9312 039c 00       		.byte	0
 9313 039d 03       		.uleb128 0x3
 9314 039e 0E       		.uleb128 0xe
 9315 039f 3A       		.uleb128 0x3a
 9316 03a0 0B       		.uleb128 0xb
 9317 03a1 3B       		.uleb128 0x3b
 9318 03a2 0B       		.uleb128 0xb
 9319 03a3 49       		.uleb128 0x49
 9320 03a4 13       		.uleb128 0x13
 9321 03a5 3F       		.uleb128 0x3f
 9322 03a6 19       		.uleb128 0x19
 9323 03a7 3C       		.uleb128 0x3c
 9324 03a8 19       		.uleb128 0x19
 9325 03a9 00       		.byte	0
 9326 03aa 00       		.byte	0
 9327 03ab 42       		.uleb128 0x42
 9328 03ac 2E       		.uleb128 0x2e
 9329 03ad 00       		.byte	0
 9330 03ae 3F       		.uleb128 0x3f
 9331 03af 19       		.uleb128 0x19
 9332 03b0 3C       		.uleb128 0x3c
 9333 03b1 19       		.uleb128 0x19
 9334 03b2 6E       		.uleb128 0x6e
 9335 03b3 0E       		.uleb128 0xe
 9336 03b4 03       		.uleb128 0x3
 9337 03b5 0E       		.uleb128 0xe
 9338 03b6 3A       		.uleb128 0x3a
 9339 03b7 0B       		.uleb128 0xb
 9340 03b8 3B       		.uleb128 0x3b
 9341 03b9 05       		.uleb128 0x5
 9342 03ba 00       		.byte	0
 9343 03bb 00       		.byte	0
 9344 03bc 43       		.uleb128 0x43
 9345 03bd 2E       		.uleb128 0x2e
 9346 03be 00       		.byte	0
 9347 03bf 3F       		.uleb128 0x3f
 9348 03c0 19       		.uleb128 0x19
 9349 03c1 3C       		.uleb128 0x3c
 9350 03c2 19       		.uleb128 0x19
 9351 03c3 6E       		.uleb128 0x6e
 9352 03c4 0E       		.uleb128 0xe
 9353 03c5 03       		.uleb128 0x3
 9354 03c6 0E       		.uleb128 0xe
 9355 03c7 3A       		.uleb128 0x3a
 9356 03c8 0B       		.uleb128 0xb
 9357 03c9 3B       		.uleb128 0x3b
 9358 03ca 0B       		.uleb128 0xb
 9359 03cb 00       		.byte	0
 9360 03cc 00       		.byte	0
 9361 03cd 00       		.byte	0
ARM GAS  C:\Users\haske\AppData\Local\Temp\ccLw7Foe.s 			page 187


 9362              		.section	.debug_loc,"",%progbits
 9363              	.Ldebug_loc0:
 9364              	.LLST0:
 9365 0000 00000000 		.4byte	.LVL0
 9366 0004 02000000 		.4byte	.LVL1
 9367 0008 0100     		.2byte	0x1
 9368 000a 50       		.byte	0x50
 9369 000b 02000000 		.4byte	.LVL1
 9370 000f 10000000 		.4byte	.LFE188
 9371 0013 0400     		.2byte	0x4
 9372 0015 F3       		.byte	0xf3
 9373 0016 01       		.uleb128 0x1
 9374 0017 50       		.byte	0x50
 9375 0018 9F       		.byte	0x9f
 9376 0019 00000000 		.4byte	0
 9377 001d 00000000 		.4byte	0
 9378              	.LLST1:
 9379 0021 00000000 		.4byte	.LVL2
 9380 0025 09000000 		.4byte	.LVL4-1
 9381 0029 0100     		.2byte	0x1
 9382 002b 50       		.byte	0x50
 9383 002c 09000000 		.4byte	.LVL4-1
 9384 0030 0C000000 		.4byte	.LFE184
 9385 0034 0400     		.2byte	0x4
 9386 0036 F3       		.byte	0xf3
 9387 0037 01       		.uleb128 0x1
 9388 0038 50       		.byte	0x50
 9389 0039 9F       		.byte	0x9f
 9390 003a 00000000 		.4byte	0
 9391 003e 00000000 		.4byte	0
 9392              	.LLST2:
 9393 0042 00000000 		.4byte	.LVL2
 9394 0046 04000000 		.4byte	.LVL3
 9395 004a 0100     		.2byte	0x1
 9396 004c 51       		.byte	0x51
 9397 004d 04000000 		.4byte	.LVL3
 9398 0051 0C000000 		.4byte	.LFE184
 9399 0055 0400     		.2byte	0x4
 9400 0057 F3       		.byte	0xf3
 9401 0058 01       		.uleb128 0x1
 9402 0059 51       		.byte	0x51
 9403 005a 9F       		.byte	0x9f
 9404 005b 00000000 		.4byte	0
 9405 005f 00000000 		.4byte	0
 9406              	.LLST3:
 9407 0063 00000000 		.4byte	.LVL5
 9408 0067 07000000 		.4byte	.LVL7-1
 9409 006b 0100     		.2byte	0x1
 9410 006d 50       		.byte	0x50
 9411 006e 07000000 		.4byte	.LVL7-1
 9412 0072 0A000000 		.4byte	.LFE186
 9413 0076 0400     		.2byte	0x4
 9414 0078 F3       		.byte	0xf3
 9415 0079 01       		.uleb128 0x1
 9416 007a 50       		.byte	0x50
 9417 007b 9F       		.byte	0x9f
 9418 007c 00000000 		.4byte	0
ARM GAS  C:\Users\haske\AppData\Local\Temp\ccLw7Foe.s 			page 188


 9419 0080 00000000 		.4byte	0
 9420              	.LLST4:
 9421 0084 00000000 		.4byte	.LVL5
 9422 0088 04000000 		.4byte	.LVL6
 9423 008c 0100     		.2byte	0x1
 9424 008e 51       		.byte	0x51
 9425 008f 04000000 		.4byte	.LVL6
 9426 0093 0A000000 		.4byte	.LFE186
 9427 0097 0400     		.2byte	0x4
 9428 0099 F3       		.byte	0xf3
 9429 009a 01       		.uleb128 0x1
 9430 009b 51       		.byte	0x51
 9431 009c 9F       		.byte	0x9f
 9432 009d 00000000 		.4byte	0
 9433 00a1 00000000 		.4byte	0
 9434              	.LLST5:
 9435 00a5 00000000 		.4byte	.LVL8
 9436 00a9 07000000 		.4byte	.LVL10-1
 9437 00ad 0100     		.2byte	0x1
 9438 00af 50       		.byte	0x50
 9439 00b0 07000000 		.4byte	.LVL10-1
 9440 00b4 0A000000 		.4byte	.LFE185
 9441 00b8 0400     		.2byte	0x4
 9442 00ba F3       		.byte	0xf3
 9443 00bb 01       		.uleb128 0x1
 9444 00bc 50       		.byte	0x50
 9445 00bd 9F       		.byte	0x9f
 9446 00be 00000000 		.4byte	0
 9447 00c2 00000000 		.4byte	0
 9448              	.LLST6:
 9449 00c6 00000000 		.4byte	.LVL8
 9450 00ca 04000000 		.4byte	.LVL9
 9451 00ce 0100     		.2byte	0x1
 9452 00d0 51       		.byte	0x51
 9453 00d1 04000000 		.4byte	.LVL9
 9454 00d5 0A000000 		.4byte	.LFE185
 9455 00d9 0400     		.2byte	0x4
 9456 00db F3       		.byte	0xf3
 9457 00dc 01       		.uleb128 0x1
 9458 00dd 51       		.byte	0x51
 9459 00de 9F       		.byte	0x9f
 9460 00df 00000000 		.4byte	0
 9461 00e3 00000000 		.4byte	0
 9462              	.LLST7:
 9463 00e7 00000000 		.4byte	.LVL11
 9464 00eb 06000000 		.4byte	.LVL12
 9465 00ef 0100     		.2byte	0x1
 9466 00f1 50       		.byte	0x50
 9467 00f2 06000000 		.4byte	.LVL12
 9468 00f6 50000000 		.4byte	.LVL22
 9469 00fa 0100     		.2byte	0x1
 9470 00fc 55       		.byte	0x55
 9471 00fd 50000000 		.4byte	.LVL22
 9472 0101 52000000 		.4byte	.LFE187
 9473 0105 0400     		.2byte	0x4
 9474 0107 F3       		.byte	0xf3
 9475 0108 01       		.uleb128 0x1
ARM GAS  C:\Users\haske\AppData\Local\Temp\ccLw7Foe.s 			page 189


 9476 0109 50       		.byte	0x50
 9477 010a 9F       		.byte	0x9f
 9478 010b 00000000 		.4byte	0
 9479 010f 00000000 		.4byte	0
 9480              	.LLST8:
 9481 0113 0C000000 		.4byte	.LVL14
 9482 0117 12000000 		.4byte	.LVL15
 9483 011b 0100     		.2byte	0x1
 9484 011d 50       		.byte	0x50
 9485 011e 12000000 		.4byte	.LVL15
 9486 0122 50000000 		.4byte	.LVL21
 9487 0126 0100     		.2byte	0x1
 9488 0128 54       		.byte	0x54
 9489 0129 00000000 		.4byte	0
 9490 012d 00000000 		.4byte	0
 9491              	.LLST9:
 9492 0131 00000000 		.4byte	.LVL23
 9493 0135 07000000 		.4byte	.LVL24-1
 9494 0139 0100     		.2byte	0x1
 9495 013b 50       		.byte	0x50
 9496 013c 07000000 		.4byte	.LVL24-1
 9497 0140 52000000 		.4byte	.LVL33
 9498 0144 0100     		.2byte	0x1
 9499 0146 54       		.byte	0x54
 9500 0147 52000000 		.4byte	.LVL33
 9501 014b 54000000 		.4byte	.LFE182
 9502 014f 0400     		.2byte	0x4
 9503 0151 F3       		.byte	0xf3
 9504 0152 01       		.uleb128 0x1
 9505 0153 50       		.byte	0x50
 9506 0154 9F       		.byte	0x9f
 9507 0155 00000000 		.4byte	0
 9508 0159 00000000 		.4byte	0
 9509              	.LLST10:
 9510 015d 0A000000 		.4byte	.LVL25
 9511 0161 18000000 		.4byte	.LVL27
 9512 0165 0100     		.2byte	0x1
 9513 0167 50       		.byte	0x50
 9514 0168 18000000 		.4byte	.LVL27
 9515 016c 52000000 		.4byte	.LVL34
 9516 0170 0100     		.2byte	0x1
 9517 0172 55       		.byte	0x55
 9518 0173 00000000 		.4byte	0
 9519 0177 00000000 		.4byte	0
 9520              	.LLST11:
 9521 017b 0E000000 		.4byte	.LVL26
 9522 017f 52000000 		.4byte	.LVL32
 9523 0183 0100     		.2byte	0x1
 9524 0185 56       		.byte	0x56
 9525 0186 00000000 		.4byte	0
 9526 018a 00000000 		.4byte	0
 9527              	.LLST12:
 9528 018e 00000000 		.4byte	.LVL35
 9529 0192 09000000 		.4byte	.LVL36-1
 9530 0196 0100     		.2byte	0x1
 9531 0198 50       		.byte	0x50
 9532 0199 09000000 		.4byte	.LVL36-1
ARM GAS  C:\Users\haske\AppData\Local\Temp\ccLw7Foe.s 			page 190


 9533 019d 0A000000 		.4byte	.LVL36
 9534 01a1 0400     		.2byte	0x4
 9535 01a3 F3       		.byte	0xf3
 9536 01a4 01       		.uleb128 0x1
 9537 01a5 50       		.byte	0x50
 9538 01a6 9F       		.byte	0x9f
 9539 01a7 0A000000 		.4byte	.LVL36
 9540 01ab 10000000 		.4byte	.LVL37
 9541 01af 0100     		.2byte	0x1
 9542 01b1 50       		.byte	0x50
 9543 01b2 12000000 		.4byte	.LVL38
 9544 01b6 14000000 		.4byte	.LVL39
 9545 01ba 0100     		.2byte	0x1
 9546 01bc 50       		.byte	0x50
 9547 01bd 00000000 		.4byte	0
 9548 01c1 00000000 		.4byte	0
 9549              	.LLST13:
 9550 01c5 00000000 		.4byte	.LVL40
 9551 01c9 06000000 		.4byte	.LVL41
 9552 01cd 0100     		.2byte	0x1
 9553 01cf 50       		.byte	0x50
 9554 01d0 06000000 		.4byte	.LVL41
 9555 01d4 22000000 		.4byte	.LVL48
 9556 01d8 0100     		.2byte	0x1
 9557 01da 55       		.byte	0x55
 9558 01db 22000000 		.4byte	.LVL48
 9559 01df 24000000 		.4byte	.LFE183
 9560 01e3 0400     		.2byte	0x4
 9561 01e5 F3       		.byte	0xf3
 9562 01e6 01       		.uleb128 0x1
 9563 01e7 50       		.byte	0x50
 9564 01e8 9F       		.byte	0x9f
 9565 01e9 00000000 		.4byte	0
 9566 01ed 00000000 		.4byte	0
 9567              	.LLST14:
 9568 01f1 0C000000 		.4byte	.LVL43
 9569 01f5 0F000000 		.4byte	.LVL44-1
 9570 01f9 0100     		.2byte	0x1
 9571 01fb 50       		.byte	0x50
 9572 01fc 0F000000 		.4byte	.LVL44-1
 9573 0200 22000000 		.4byte	.LVL47
 9574 0204 0100     		.2byte	0x1
 9575 0206 54       		.byte	0x54
 9576 0207 00000000 		.4byte	0
 9577 020b 00000000 		.4byte	0
 9578              	.LLST15:
 9579 020f 00000000 		.4byte	.LVL49
 9580 0213 09000000 		.4byte	.LVL50-1
 9581 0217 0100     		.2byte	0x1
 9582 0219 50       		.byte	0x50
 9583 021a 09000000 		.4byte	.LVL50-1
 9584 021e 0A000000 		.4byte	.LVL50
 9585 0222 0400     		.2byte	0x4
 9586 0224 F3       		.byte	0xf3
 9587 0225 01       		.uleb128 0x1
 9588 0226 50       		.byte	0x50
 9589 0227 9F       		.byte	0x9f
ARM GAS  C:\Users\haske\AppData\Local\Temp\ccLw7Foe.s 			page 191


 9590 0228 0A000000 		.4byte	.LVL50
 9591 022c 10000000 		.4byte	.LVL51
 9592 0230 0100     		.2byte	0x1
 9593 0232 50       		.byte	0x50
 9594 0233 12000000 		.4byte	.LVL52
 9595 0237 14000000 		.4byte	.LVL53
 9596 023b 0100     		.2byte	0x1
 9597 023d 50       		.byte	0x50
 9598 023e 00000000 		.4byte	0
 9599 0242 00000000 		.4byte	0
 9600              	.LLST16:
 9601 0246 00000000 		.4byte	.LVL54
 9602 024a 09000000 		.4byte	.LVL55-1
 9603 024e 0100     		.2byte	0x1
 9604 0250 50       		.byte	0x50
 9605 0251 09000000 		.4byte	.LVL55-1
 9606 0255 0A000000 		.4byte	.LVL55
 9607 0259 0400     		.2byte	0x4
 9608 025b F3       		.byte	0xf3
 9609 025c 01       		.uleb128 0x1
 9610 025d 50       		.byte	0x50
 9611 025e 9F       		.byte	0x9f
 9612 025f 0A000000 		.4byte	.LVL55
 9613 0263 10000000 		.4byte	.LVL56
 9614 0267 0100     		.2byte	0x1
 9615 0269 50       		.byte	0x50
 9616 026a 12000000 		.4byte	.LVL57
 9617 026e 14000000 		.4byte	.LVL58
 9618 0272 0100     		.2byte	0x1
 9619 0274 50       		.byte	0x50
 9620 0275 00000000 		.4byte	0
 9621 0279 00000000 		.4byte	0
 9622              	.LLST17:
 9623 027d 00000000 		.4byte	.LVL59
 9624 0281 09000000 		.4byte	.LVL60-1
 9625 0285 0100     		.2byte	0x1
 9626 0287 50       		.byte	0x50
 9627 0288 09000000 		.4byte	.LVL60-1
 9628 028c 0A000000 		.4byte	.LVL60
 9629 0290 0400     		.2byte	0x4
 9630 0292 F3       		.byte	0xf3
 9631 0293 01       		.uleb128 0x1
 9632 0294 50       		.byte	0x50
 9633 0295 9F       		.byte	0x9f
 9634 0296 0A000000 		.4byte	.LVL60
 9635 029a 10000000 		.4byte	.LVL61
 9636 029e 0100     		.2byte	0x1
 9637 02a0 50       		.byte	0x50
 9638 02a1 12000000 		.4byte	.LVL62
 9639 02a5 14000000 		.4byte	.LVL63
 9640 02a9 0100     		.2byte	0x1
 9641 02ab 50       		.byte	0x50
 9642 02ac 00000000 		.4byte	0
 9643 02b0 00000000 		.4byte	0
 9644              	.LLST18:
 9645 02b4 00000000 		.4byte	.LVL64
 9646 02b8 0D000000 		.4byte	.LVL65-1
ARM GAS  C:\Users\haske\AppData\Local\Temp\ccLw7Foe.s 			page 192


 9647 02bc 0100     		.2byte	0x1
 9648 02be 50       		.byte	0x50
 9649 02bf 0D000000 		.4byte	.LVL65-1
 9650 02c3 10000000 		.4byte	.LVL66
 9651 02c7 0100     		.2byte	0x1
 9652 02c9 54       		.byte	0x54
 9653 02ca 10000000 		.4byte	.LVL66
 9654 02ce 20000000 		.4byte	.LVL67
 9655 02d2 0100     		.2byte	0x1
 9656 02d4 50       		.byte	0x50
 9657 02d5 20000000 		.4byte	.LVL67
 9658 02d9 48000000 		.4byte	.LVL72
 9659 02dd 0100     		.2byte	0x1
 9660 02df 54       		.byte	0x54
 9661 02e0 00000000 		.4byte	0
 9662 02e4 00000000 		.4byte	0
 9663              	.LLST19:
 9664 02e8 00000000 		.4byte	.LVL64
 9665 02ec 0D000000 		.4byte	.LVL65-1
 9666 02f0 0100     		.2byte	0x1
 9667 02f2 51       		.byte	0x51
 9668 02f3 0D000000 		.4byte	.LVL65-1
 9669 02f7 48000000 		.4byte	.LVL73
 9670 02fb 0100     		.2byte	0x1
 9671 02fd 55       		.byte	0x55
 9672 02fe 48000000 		.4byte	.LVL73
 9673 0302 4A000000 		.4byte	.LFE170
 9674 0306 0400     		.2byte	0x4
 9675 0308 F3       		.byte	0xf3
 9676 0309 01       		.uleb128 0x1
 9677 030a 51       		.byte	0x51
 9678 030b 9F       		.byte	0x9f
 9679 030c 00000000 		.4byte	0
 9680 0310 00000000 		.4byte	0
 9681              	.LLST20:
 9682 0314 00000000 		.4byte	.LVL74
 9683 0318 09000000 		.4byte	.LVL75-1
 9684 031c 0100     		.2byte	0x1
 9685 031e 50       		.byte	0x50
 9686 031f 09000000 		.4byte	.LVL75-1
 9687 0323 0A000000 		.4byte	.LVL75
 9688 0327 0400     		.2byte	0x4
 9689 0329 F3       		.byte	0xf3
 9690 032a 01       		.uleb128 0x1
 9691 032b 50       		.byte	0x50
 9692 032c 9F       		.byte	0x9f
 9693 032d 0A000000 		.4byte	.LVL75
 9694 0331 0C000000 		.4byte	.LVL76
 9695 0335 0100     		.2byte	0x1
 9696 0337 50       		.byte	0x50
 9697 0338 00000000 		.4byte	0
 9698 033c 00000000 		.4byte	0
 9699              	.LLST21:
 9700 0340 00000000 		.4byte	.LVL77
 9701 0344 0F000000 		.4byte	.LVL78-1
 9702 0348 0100     		.2byte	0x1
 9703 034a 50       		.byte	0x50
ARM GAS  C:\Users\haske\AppData\Local\Temp\ccLw7Foe.s 			page 193


 9704 034b 0F000000 		.4byte	.LVL78-1
 9705 034f 12000000 		.4byte	.LVL79
 9706 0353 0100     		.2byte	0x1
 9707 0355 54       		.byte	0x54
 9708 0356 12000000 		.4byte	.LVL79
 9709 035a 1D000000 		.4byte	.LVL80-1
 9710 035e 0100     		.2byte	0x1
 9711 0360 50       		.byte	0x50
 9712 0361 1D000000 		.4byte	.LVL80-1
 9713 0365 44000000 		.4byte	.LVL85
 9714 0369 0100     		.2byte	0x1
 9715 036b 54       		.byte	0x54
 9716 036c 00000000 		.4byte	0
 9717 0370 00000000 		.4byte	0
 9718              	.LLST22:
 9719 0374 00000000 		.4byte	.LVL77
 9720 0378 0F000000 		.4byte	.LVL78-1
 9721 037c 0100     		.2byte	0x1
 9722 037e 51       		.byte	0x51
 9723 037f 12000000 		.4byte	.LVL79
 9724 0383 1D000000 		.4byte	.LVL80-1
 9725 0387 0100     		.2byte	0x1
 9726 0389 51       		.byte	0x51
 9727 038a 1D000000 		.4byte	.LVL80-1
 9728 038e 20000000 		.4byte	.LVL81
 9729 0392 0100     		.2byte	0x1
 9730 0394 55       		.byte	0x55
 9731 0395 42000000 		.4byte	.LVL84
 9732 0399 46000000 		.4byte	.LFE172
 9733 039d 0100     		.2byte	0x1
 9734 039f 51       		.byte	0x51
 9735 03a0 00000000 		.4byte	0
 9736 03a4 00000000 		.4byte	0
 9737              	.LLST23:
 9738 03a8 00000000 		.4byte	.LVL86
 9739 03ac 0F000000 		.4byte	.LVL87-1
 9740 03b0 0100     		.2byte	0x1
 9741 03b2 50       		.byte	0x50
 9742 03b3 0F000000 		.4byte	.LVL87-1
 9743 03b7 12000000 		.4byte	.LVL88
 9744 03bb 0100     		.2byte	0x1
 9745 03bd 54       		.byte	0x54
 9746 03be 12000000 		.4byte	.LVL88
 9747 03c2 1D000000 		.4byte	.LVL89-1
 9748 03c6 0100     		.2byte	0x1
 9749 03c8 50       		.byte	0x50
 9750 03c9 1D000000 		.4byte	.LVL89-1
 9751 03cd 44000000 		.4byte	.LVL94
 9752 03d1 0100     		.2byte	0x1
 9753 03d3 54       		.byte	0x54
 9754 03d4 00000000 		.4byte	0
 9755 03d8 00000000 		.4byte	0
 9756              	.LLST24:
 9757 03dc 00000000 		.4byte	.LVL86
 9758 03e0 0F000000 		.4byte	.LVL87-1
 9759 03e4 0100     		.2byte	0x1
 9760 03e6 51       		.byte	0x51
ARM GAS  C:\Users\haske\AppData\Local\Temp\ccLw7Foe.s 			page 194


 9761 03e7 0F000000 		.4byte	.LVL87-1
 9762 03eb 20000000 		.4byte	.LVL90
 9763 03ef 0100     		.2byte	0x1
 9764 03f1 55       		.byte	0x55
 9765 03f2 20000000 		.4byte	.LVL90
 9766 03f6 46000000 		.4byte	.LFE173
 9767 03fa 0400     		.2byte	0x4
 9768 03fc F3       		.byte	0xf3
 9769 03fd 01       		.uleb128 0x1
 9770 03fe 51       		.byte	0x51
 9771 03ff 9F       		.byte	0x9f
 9772 0400 00000000 		.4byte	0
 9773 0404 00000000 		.4byte	0
 9774              	.LLST25:
 9775 0408 00000000 		.4byte	.LVL95
 9776 040c 0F000000 		.4byte	.LVL96-1
 9777 0410 0100     		.2byte	0x1
 9778 0412 50       		.byte	0x50
 9779 0413 0F000000 		.4byte	.LVL96-1
 9780 0417 12000000 		.4byte	.LVL97
 9781 041b 0100     		.2byte	0x1
 9782 041d 54       		.byte	0x54
 9783 041e 12000000 		.4byte	.LVL97
 9784 0422 1F000000 		.4byte	.LVL98-1
 9785 0426 0100     		.2byte	0x1
 9786 0428 50       		.byte	0x50
 9787 0429 1F000000 		.4byte	.LVL98-1
 9788 042d 46000000 		.4byte	.LVL102
 9789 0431 0100     		.2byte	0x1
 9790 0433 54       		.byte	0x54
 9791 0434 00000000 		.4byte	0
 9792 0438 00000000 		.4byte	0
 9793              	.LLST26:
 9794 043c 00000000 		.4byte	.LVL95
 9795 0440 0F000000 		.4byte	.LVL96-1
 9796 0444 0100     		.2byte	0x1
 9797 0446 51       		.byte	0x51
 9798 0447 0F000000 		.4byte	.LVL96-1
 9799 044b 48000000 		.4byte	.LFE174
 9800 044f 0400     		.2byte	0x4
 9801 0451 F3       		.byte	0xf3
 9802 0452 01       		.uleb128 0x1
 9803 0453 51       		.byte	0x51
 9804 0454 9F       		.byte	0x9f
 9805 0455 00000000 		.4byte	0
 9806 0459 00000000 		.4byte	0
 9807              	.LLST27:
 9808 045d 00000000 		.4byte	.LVL103
 9809 0461 1B000000 		.4byte	.LVL105-1
 9810 0465 0100     		.2byte	0x1
 9811 0467 50       		.byte	0x50
 9812 0468 1B000000 		.4byte	.LVL105-1
 9813 046c 8E010000 		.4byte	.LVL158
 9814 0470 0100     		.2byte	0x1
 9815 0472 56       		.byte	0x56
 9816 0473 8E010000 		.4byte	.LVL158
 9817 0477 B0010000 		.4byte	.LVL165
ARM GAS  C:\Users\haske\AppData\Local\Temp\ccLw7Foe.s 			page 195


 9818 047b 0400     		.2byte	0x4
 9819 047d F3       		.byte	0xf3
 9820 047e 01       		.uleb128 0x1
 9821 047f 50       		.byte	0x50
 9822 0480 9F       		.byte	0x9f
 9823 0481 B0010000 		.4byte	.LVL165
 9824 0485 B2010000 		.4byte	.LVL166
 9825 0489 0100     		.2byte	0x1
 9826 048b 56       		.byte	0x56
 9827 048c B2010000 		.4byte	.LVL166
 9828 0490 D4010000 		.4byte	.LVL173
 9829 0494 0400     		.2byte	0x4
 9830 0496 F3       		.byte	0xf3
 9831 0497 01       		.uleb128 0x1
 9832 0498 50       		.byte	0x50
 9833 0499 9F       		.byte	0x9f
 9834 049a D4010000 		.4byte	.LVL173
 9835 049e D6010000 		.4byte	.LVL174
 9836 04a2 0100     		.2byte	0x1
 9837 04a4 56       		.byte	0x56
 9838 04a5 D6010000 		.4byte	.LVL174
 9839 04a9 F8010000 		.4byte	.LVL181
 9840 04ad 0400     		.2byte	0x4
 9841 04af F3       		.byte	0xf3
 9842 04b0 01       		.uleb128 0x1
 9843 04b1 50       		.byte	0x50
 9844 04b2 9F       		.byte	0x9f
 9845 04b3 F8010000 		.4byte	.LVL181
 9846 04b7 FA010000 		.4byte	.LVL182
 9847 04bb 0100     		.2byte	0x1
 9848 04bd 56       		.byte	0x56
 9849 04be FA010000 		.4byte	.LVL182
 9850 04c2 1C020000 		.4byte	.LVL189
 9851 04c6 0400     		.2byte	0x4
 9852 04c8 F3       		.byte	0xf3
 9853 04c9 01       		.uleb128 0x1
 9854 04ca 50       		.byte	0x50
 9855 04cb 9F       		.byte	0x9f
 9856 04cc 1C020000 		.4byte	.LVL189
 9857 04d0 8E020000 		.4byte	.LVL207
 9858 04d4 0100     		.2byte	0x1
 9859 04d6 56       		.byte	0x56
 9860 04d7 8E020000 		.4byte	.LVL207
 9861 04db C8020000 		.4byte	.LFE175
 9862 04df 0400     		.2byte	0x4
 9863 04e1 F3       		.byte	0xf3
 9864 04e2 01       		.uleb128 0x1
 9865 04e3 50       		.byte	0x50
 9866 04e4 9F       		.byte	0x9f
 9867 04e5 00000000 		.4byte	0
 9868 04e9 00000000 		.4byte	0
 9869              	.LLST28:
 9870 04ed 00000000 		.4byte	.LVL103
 9871 04f1 1B000000 		.4byte	.LVL105-1
 9872 04f5 0100     		.2byte	0x1
 9873 04f7 51       		.byte	0x51
 9874 04f8 1B000000 		.4byte	.LVL105-1
ARM GAS  C:\Users\haske\AppData\Local\Temp\ccLw7Foe.s 			page 196


 9875 04fc C8020000 		.4byte	.LFE175
 9876 0500 0400     		.2byte	0x4
 9877 0502 F3       		.byte	0xf3
 9878 0503 01       		.uleb128 0x1
 9879 0504 51       		.byte	0x51
 9880 0505 9F       		.byte	0x9f
 9881 0506 00000000 		.4byte	0
 9882 050a 00000000 		.4byte	0
 9883              	.LLST29:
 9884 050e 00000000 		.4byte	.LVL103
 9885 0512 1B000000 		.4byte	.LVL105-1
 9886 0516 0100     		.2byte	0x1
 9887 0518 52       		.byte	0x52
 9888 0519 1B000000 		.4byte	.LVL105-1
 9889 051d 24010000 		.4byte	.LVL140
 9890 0521 0100     		.2byte	0x1
 9891 0523 57       		.byte	0x57
 9892 0524 24010000 		.4byte	.LVL140
 9893 0528 41010000 		.4byte	.LVL145-1
 9894 052c 0300     		.2byte	0x3
 9895 052e 91       		.byte	0x91
 9896 052f 847F     		.sleb128 -124
 9897 0531 41010000 		.4byte	.LVL145-1
 9898 0535 4C010000 		.4byte	.LVL146
 9899 0539 0400     		.2byte	0x4
 9900 053b F3       		.byte	0xf3
 9901 053c 01       		.uleb128 0x1
 9902 053d 52       		.byte	0x52
 9903 053e 9F       		.byte	0x9f
 9904 053f 4C010000 		.4byte	.LVL146
 9905 0543 55010000 		.4byte	.LVL148-1
 9906 0547 0300     		.2byte	0x3
 9907 0549 91       		.byte	0x91
 9908 054a 847F     		.sleb128 -124
 9909 054c 55010000 		.4byte	.LVL148-1
 9910 0550 62010000 		.4byte	.LVL150
 9911 0554 0400     		.2byte	0x4
 9912 0556 F3       		.byte	0xf3
 9913 0557 01       		.uleb128 0x1
 9914 0558 52       		.byte	0x52
 9915 0559 9F       		.byte	0x9f
 9916 055a 62010000 		.4byte	.LVL150
 9917 055e 6B010000 		.4byte	.LVL152-1
 9918 0562 0300     		.2byte	0x3
 9919 0564 91       		.byte	0x91
 9920 0565 847F     		.sleb128 -124
 9921 0567 6B010000 		.4byte	.LVL152-1
 9922 056b 76010000 		.4byte	.LVL153
 9923 056f 0400     		.2byte	0x4
 9924 0571 F3       		.byte	0xf3
 9925 0572 01       		.uleb128 0x1
 9926 0573 52       		.byte	0x52
 9927 0574 9F       		.byte	0x9f
 9928 0575 76010000 		.4byte	.LVL153
 9929 0579 7F010000 		.4byte	.LVL155-1
 9930 057d 0300     		.2byte	0x3
 9931 057f 91       		.byte	0x91
ARM GAS  C:\Users\haske\AppData\Local\Temp\ccLw7Foe.s 			page 197


 9932 0580 847F     		.sleb128 -124
 9933 0582 7F010000 		.4byte	.LVL155-1
 9934 0586 8C010000 		.4byte	.LVL157
 9935 058a 0400     		.2byte	0x4
 9936 058c F3       		.byte	0xf3
 9937 058d 01       		.uleb128 0x1
 9938 058e 52       		.byte	0x52
 9939 058f 9F       		.byte	0x9f
 9940 0590 8C010000 		.4byte	.LVL157
 9941 0594 95010000 		.4byte	.LVL160-1
 9942 0598 0300     		.2byte	0x3
 9943 059a 91       		.byte	0x91
 9944 059b 847F     		.sleb128 -124
 9945 059d 95010000 		.4byte	.LVL160-1
 9946 05a1 B0010000 		.4byte	.LVL165
 9947 05a5 0400     		.2byte	0x4
 9948 05a7 F3       		.byte	0xf3
 9949 05a8 01       		.uleb128 0x1
 9950 05a9 52       		.byte	0x52
 9951 05aa 9F       		.byte	0x9f
 9952 05ab B0010000 		.4byte	.LVL165
 9953 05af B9010000 		.4byte	.LVL168-1
 9954 05b3 0300     		.2byte	0x3
 9955 05b5 91       		.byte	0x91
 9956 05b6 847F     		.sleb128 -124
 9957 05b8 B9010000 		.4byte	.LVL168-1
 9958 05bc D4010000 		.4byte	.LVL173
 9959 05c0 0400     		.2byte	0x4
 9960 05c2 F3       		.byte	0xf3
 9961 05c3 01       		.uleb128 0x1
 9962 05c4 52       		.byte	0x52
 9963 05c5 9F       		.byte	0x9f
 9964 05c6 D4010000 		.4byte	.LVL173
 9965 05ca DD010000 		.4byte	.LVL176-1
 9966 05ce 0300     		.2byte	0x3
 9967 05d0 91       		.byte	0x91
 9968 05d1 847F     		.sleb128 -124
 9969 05d3 DD010000 		.4byte	.LVL176-1
 9970 05d7 F8010000 		.4byte	.LVL181
 9971 05db 0400     		.2byte	0x4
 9972 05dd F3       		.byte	0xf3
 9973 05de 01       		.uleb128 0x1
 9974 05df 52       		.byte	0x52
 9975 05e0 9F       		.byte	0x9f
 9976 05e1 F8010000 		.4byte	.LVL181
 9977 05e5 01020000 		.4byte	.LVL184-1
 9978 05e9 0300     		.2byte	0x3
 9979 05eb 91       		.byte	0x91
 9980 05ec 847F     		.sleb128 -124
 9981 05ee 01020000 		.4byte	.LVL184-1
 9982 05f2 1C020000 		.4byte	.LVL189
 9983 05f6 0400     		.2byte	0x4
 9984 05f8 F3       		.byte	0xf3
 9985 05f9 01       		.uleb128 0x1
 9986 05fa 52       		.byte	0x52
 9987 05fb 9F       		.byte	0x9f
 9988 05fc 1C020000 		.4byte	.LVL189
ARM GAS  C:\Users\haske\AppData\Local\Temp\ccLw7Foe.s 			page 198


 9989 0600 45020000 		.4byte	.LVL195-1
 9990 0604 0300     		.2byte	0x3
 9991 0606 91       		.byte	0x91
 9992 0607 847F     		.sleb128 -124
 9993 0609 45020000 		.4byte	.LVL195-1
 9994 060d 52020000 		.4byte	.LVL197
 9995 0611 0400     		.2byte	0x4
 9996 0613 F3       		.byte	0xf3
 9997 0614 01       		.uleb128 0x1
 9998 0615 52       		.byte	0x52
 9999 0616 9F       		.byte	0x9f
 10000 0617 52020000 		.4byte	.LVL197
 10001 061b 5B020000 		.4byte	.LVL199-1
 10002 061f 0300     		.2byte	0x3
 10003 0621 91       		.byte	0x91
 10004 0622 847F     		.sleb128 -124
 10005 0624 5B020000 		.4byte	.LVL199-1
 10006 0628 66020000 		.4byte	.LVL200
 10007 062c 0400     		.2byte	0x4
 10008 062e F3       		.byte	0xf3
 10009 062f 01       		.uleb128 0x1
 10010 0630 52       		.byte	0x52
 10011 0631 9F       		.byte	0x9f
 10012 0632 66020000 		.4byte	.LVL200
 10013 0636 6F020000 		.4byte	.LVL202-1
 10014 063a 0300     		.2byte	0x3
 10015 063c 91       		.byte	0x91
 10016 063d 847F     		.sleb128 -124
 10017 063f 6F020000 		.4byte	.LVL202-1
 10018 0643 7C020000 		.4byte	.LVL204
 10019 0647 0400     		.2byte	0x4
 10020 0649 F3       		.byte	0xf3
 10021 064a 01       		.uleb128 0x1
 10022 064b 52       		.byte	0x52
 10023 064c 9F       		.byte	0x9f
 10024 064d 7C020000 		.4byte	.LVL204
 10025 0651 85020000 		.4byte	.LVL206-1
 10026 0655 0300     		.2byte	0x3
 10027 0657 91       		.byte	0x91
 10028 0658 847F     		.sleb128 -124
 10029 065a 85020000 		.4byte	.LVL206-1
 10030 065e C8020000 		.4byte	.LFE175
 10031 0662 0400     		.2byte	0x4
 10032 0664 F3       		.byte	0xf3
 10033 0665 01       		.uleb128 0x1
 10034 0666 52       		.byte	0x52
 10035 0667 9F       		.byte	0x9f
 10036 0668 00000000 		.4byte	0
 10037 066c 00000000 		.4byte	0
 10038              	.LLST30:
 10039 0670 00000000 		.4byte	.LVL103
 10040 0674 16000000 		.4byte	.LVL104
 10041 0678 0100     		.2byte	0x1
 10042 067a 53       		.byte	0x53
 10043 067b 16000000 		.4byte	.LVL104
 10044 067f A6020000 		.4byte	.LVL212
 10045 0683 0100     		.2byte	0x1
ARM GAS  C:\Users\haske\AppData\Local\Temp\ccLw7Foe.s 			page 199


 10046 0685 58       		.byte	0x58
 10047 0686 A6020000 		.4byte	.LVL212
 10048 068a C8020000 		.4byte	.LFE175
 10049 068e 0400     		.2byte	0x4
 10050 0690 F3       		.byte	0xf3
 10051 0691 01       		.uleb128 0x1
 10052 0692 53       		.byte	0x53
 10053 0693 9F       		.byte	0x9f
 10054 0694 00000000 		.4byte	0
 10055 0698 00000000 		.4byte	0
 10056              	.LLST31:
 10057 069c 00000000 		.4byte	.LVL103
 10058 06a0 16000000 		.4byte	.LVL104
 10059 06a4 0200     		.2byte	0x2
 10060 06a6 91       		.byte	0x91
 10061 06a7 00       		.sleb128 0
 10062 06a8 16000000 		.4byte	.LVL104
 10063 06ac 1B000000 		.4byte	.LVL105-1
 10064 06b0 0200     		.2byte	0x2
 10065 06b2 73       		.byte	0x73
 10066 06b3 00       		.sleb128 0
 10067 06b4 1B000000 		.4byte	.LVL105-1
 10068 06b8 C8020000 		.4byte	.LFE175
 10069 06bc 0200     		.2byte	0x2
 10070 06be 91       		.byte	0x91
 10071 06bf 00       		.sleb128 0
 10072 06c0 00000000 		.4byte	0
 10073 06c4 00000000 		.4byte	0
 10074              	.LLST32:
 10075 06c8 1E000000 		.4byte	.LVL106
 10076 06cc 21000000 		.4byte	.LVL107-1
 10077 06d0 0100     		.2byte	0x1
 10078 06d2 50       		.byte	0x50
 10079 06d3 21000000 		.4byte	.LVL107-1
 10080 06d7 A6020000 		.4byte	.LVL211
 10081 06db 0100     		.2byte	0x1
 10082 06dd 54       		.byte	0x54
 10083 06de 00000000 		.4byte	0
 10084 06e2 00000000 		.4byte	0
 10085              	.LLST33:
 10086 06e6 64000000 		.4byte	.LVL114
 10087 06ea A6020000 		.4byte	.LVL213
 10088 06ee 0100     		.2byte	0x1
 10089 06f0 59       		.byte	0x59
 10090 06f1 00000000 		.4byte	0
 10091 06f5 00000000 		.4byte	0
 10092              	.LLST34:
 10093 06f9 FA000000 		.4byte	.LVL130
 10094 06fd FC000000 		.4byte	.LVL131
 10095 0701 0100     		.2byte	0x1
 10096 0703 56       		.byte	0x56
 10097 0704 00000000 		.4byte	0
 10098 0708 00000000 		.4byte	0
 10099              	.LLST35:
 10100 070c FA000000 		.4byte	.LVL130
 10101 0710 FC000000 		.4byte	.LVL131
 10102 0714 0400     		.2byte	0x4
ARM GAS  C:\Users\haske\AppData\Local\Temp\ccLw7Foe.s 			page 200


 10103 0716 91       		.byte	0x91
 10104 0717 9C7F     		.sleb128 -100
 10105 0719 9F       		.byte	0x9f
 10106 071a 00000000 		.4byte	0
 10107 071e 00000000 		.4byte	0
 10108              	.LLST36:
 10109 0722 FC000000 		.4byte	.LVL131
 10110 0726 00010000 		.4byte	.LVL132
 10111 072a 0600     		.2byte	0x6
 10112 072c 03       		.byte	0x3
 10113 072d 00000000 		.4byte	scr_load_anim_start
 10114 0731 9F       		.byte	0x9f
 10115 0732 00000000 		.4byte	0
 10116 0736 00000000 		.4byte	0
 10117              	.LLST37:
 10118 073a FC000000 		.4byte	.LVL131
 10119 073e 00010000 		.4byte	.LVL132
 10120 0742 0400     		.2byte	0x4
 10121 0744 91       		.byte	0x91
 10122 0745 9C7F     		.sleb128 -100
 10123 0747 9F       		.byte	0x9f
 10124 0748 00000000 		.4byte	0
 10125 074c 00000000 		.4byte	0
 10126              	.LLST38:
 10127 0750 00010000 		.4byte	.LVL132
 10128 0754 04010000 		.4byte	.LVL133
 10129 0758 0600     		.2byte	0x6
 10130 075a 03       		.byte	0x3
 10131 075b 00000000 		.4byte	scr_anim_ready
 10132 075f 9F       		.byte	0x9f
 10133 0760 00000000 		.4byte	0
 10134 0764 00000000 		.4byte	0
 10135              	.LLST39:
 10136 0768 00010000 		.4byte	.LVL132
 10137 076c 04010000 		.4byte	.LVL133
 10138 0770 0400     		.2byte	0x4
 10139 0772 91       		.byte	0x91
 10140 0773 9C7F     		.sleb128 -100
 10141 0775 9F       		.byte	0x9f
 10142 0776 00000000 		.4byte	0
 10143 077a 00000000 		.4byte	0
 10144              	.LLST40:
 10145 077e 04010000 		.4byte	.LVL133
 10146 0782 06010000 		.4byte	.LVL134
 10147 0786 0100     		.2byte	0x1
 10148 0788 57       		.byte	0x57
 10149 0789 00000000 		.4byte	0
 10150 078d 00000000 		.4byte	0
 10151              	.LLST41:
 10152 0791 04010000 		.4byte	.LVL133
 10153 0795 06010000 		.4byte	.LVL134
 10154 0799 0400     		.2byte	0x4
 10155 079b 91       		.byte	0x91
 10156 079c 9C7F     		.sleb128 -100
 10157 079e 9F       		.byte	0x9f
 10158 079f 00000000 		.4byte	0
 10159 07a3 00000000 		.4byte	0
ARM GAS  C:\Users\haske\AppData\Local\Temp\ccLw7Foe.s 			page 201


 10160              	.LLST42:
 10161 07a7 06010000 		.4byte	.LVL134
 10162 07ab 0C010000 		.4byte	.LVL135
 10163 07af 0100     		.2byte	0x1
 10164 07b1 58       		.byte	0x58
 10165 07b2 00000000 		.4byte	0
 10166 07b6 00000000 		.4byte	0
 10167              	.LLST43:
 10168 07ba 06010000 		.4byte	.LVL134
 10169 07be 0C010000 		.4byte	.LVL135
 10170 07c2 0400     		.2byte	0x4
 10171 07c4 91       		.byte	0x91
 10172 07c5 9C7F     		.sleb128 -100
 10173 07c7 9F       		.byte	0x9f
 10174 07c8 00000000 		.4byte	0
 10175 07cc 00000000 		.4byte	0
 10176              	.LLST44:
 10177 07d0 12010000 		.4byte	.LVL136
 10178 07d4 16010000 		.4byte	.LVL137
 10179 07d8 0200     		.2byte	0x2
 10180 07da 74       		.byte	0x74
 10181 07db 10       		.sleb128 16
 10182 07dc 00000000 		.4byte	0
 10183 07e0 00000000 		.4byte	0
 10184              	.LLST45:
 10185 07e4 12010000 		.4byte	.LVL136
 10186 07e8 16010000 		.4byte	.LVL137
 10187 07ec 0400     		.2byte	0x4
 10188 07ee 91       		.byte	0x91
 10189 07ef D87E     		.sleb128 -168
 10190 07f1 9F       		.byte	0x9f
 10191 07f2 00000000 		.4byte	0
 10192 07f6 00000000 		.4byte	0
 10193              	.LLST46:
 10194 07fa 16010000 		.4byte	.LVL137
 10195 07fe 18010000 		.4byte	.LVL138
 10196 0802 0100     		.2byte	0x1
 10197 0804 57       		.byte	0x57
 10198 0805 00000000 		.4byte	0
 10199 0809 00000000 		.4byte	0
 10200              	.LLST47:
 10201 080d 16010000 		.4byte	.LVL137
 10202 0811 18010000 		.4byte	.LVL138
 10203 0815 0400     		.2byte	0x4
 10204 0817 91       		.byte	0x91
 10205 0818 D87E     		.sleb128 -168
 10206 081a 9F       		.byte	0x9f
 10207 081b 00000000 		.4byte	0
 10208 081f 00000000 		.4byte	0
 10209              	.LLST48:
 10210 0823 18010000 		.4byte	.LVL138
 10211 0827 1A010000 		.4byte	.LVL139
 10212 082b 0100     		.2byte	0x1
 10213 082d 58       		.byte	0x58
 10214 082e 00000000 		.4byte	0
 10215 0832 00000000 		.4byte	0
 10216              	.LLST49:
ARM GAS  C:\Users\haske\AppData\Local\Temp\ccLw7Foe.s 			page 202


 10217 0836 18010000 		.4byte	.LVL138
 10218 083a 1A010000 		.4byte	.LVL139
 10219 083e 0400     		.2byte	0x4
 10220 0840 91       		.byte	0x91
 10221 0841 D87E     		.sleb128 -168
 10222 0843 9F       		.byte	0x9f
 10223 0844 00000000 		.4byte	0
 10224 0848 00000000 		.4byte	0
 10225              	.LLST50:
 10226 084c 2A010000 		.4byte	.LVL141
 10227 0850 2E010000 		.4byte	.LVL142
 10228 0854 0600     		.2byte	0x6
 10229 0856 03       		.byte	0x3
 10230 0857 00000000 		.4byte	set_x_anim
 10231 085b 9F       		.byte	0x9f
 10232 085c 00000000 		.4byte	0
 10233 0860 00000000 		.4byte	0
 10234              	.LLST51:
 10235 0864 2A010000 		.4byte	.LVL141
 10236 0868 2E010000 		.4byte	.LVL142
 10237 086c 0400     		.2byte	0x4
 10238 086e 91       		.byte	0x91
 10239 086f 9C7F     		.sleb128 -100
 10240 0871 9F       		.byte	0x9f
 10241 0872 00000000 		.4byte	0
 10242 0876 00000000 		.4byte	0
 10243              	.LLST52:
 10244 087a 2E010000 		.4byte	.LVL142
 10245 087e 38010000 		.4byte	.LVL143
 10246 0882 0200     		.2byte	0x2
 10247 0884 30       		.byte	0x30
 10248 0885 9F       		.byte	0x9f
 10249 0886 00000000 		.4byte	0
 10250 088a 00000000 		.4byte	0
 10251              	.LLST54:
 10252 088e 2E010000 		.4byte	.LVL142
 10253 0892 38010000 		.4byte	.LVL143
 10254 0896 0400     		.2byte	0x4
 10255 0898 91       		.byte	0x91
 10256 0899 9C7F     		.sleb128 -100
 10257 089b 9F       		.byte	0x9f
 10258 089c 00000000 		.4byte	0
 10259 08a0 00000000 		.4byte	0
 10260              	.LLST55:
 10261 08a4 38010000 		.4byte	.LVL143
 10262 08a8 3C010000 		.4byte	.LVL144
 10263 08ac 0600     		.2byte	0x6
 10264 08ae 03       		.byte	0x3
 10265 08af 00000000 		.4byte	set_x_anim
 10266 08b3 9F       		.byte	0x9f
 10267 08b4 00000000 		.4byte	0
 10268 08b8 00000000 		.4byte	0
 10269              	.LLST56:
 10270 08bc 38010000 		.4byte	.LVL143
 10271 08c0 3C010000 		.4byte	.LVL144
 10272 08c4 0400     		.2byte	0x4
 10273 08c6 91       		.byte	0x91
ARM GAS  C:\Users\haske\AppData\Local\Temp\ccLw7Foe.s 			page 203


 10274 08c7 9C7F     		.sleb128 -100
 10275 08c9 9F       		.byte	0x9f
 10276 08ca 00000000 		.4byte	0
 10277 08ce 00000000 		.4byte	0
 10278              	.LLST57:
 10279 08d2 42010000 		.4byte	.LVL145
 10280 08d6 4C010000 		.4byte	.LVL146
 10281 08da 0200     		.2byte	0x2
 10282 08dc 30       		.byte	0x30
 10283 08dd 9F       		.byte	0x9f
 10284 08de 00000000 		.4byte	0
 10285 08e2 00000000 		.4byte	0
 10286              	.LLST58:
 10287 08e6 42010000 		.4byte	.LVL145
 10288 08ea 4C010000 		.4byte	.LVL146
 10289 08ee 0100     		.2byte	0x1
 10290 08f0 50       		.byte	0x50
 10291 08f1 00000000 		.4byte	0
 10292 08f5 00000000 		.4byte	0
 10293              	.LLST59:
 10294 08f9 42010000 		.4byte	.LVL145
 10295 08fd 4C010000 		.4byte	.LVL146
 10296 0901 0400     		.2byte	0x4
 10297 0903 91       		.byte	0x91
 10298 0904 9C7F     		.sleb128 -100
 10299 0906 9F       		.byte	0x9f
 10300 0907 00000000 		.4byte	0
 10301 090b 00000000 		.4byte	0
 10302              	.LLST60:
 10303 090f 4C010000 		.4byte	.LVL146
 10304 0913 50010000 		.4byte	.LVL147
 10305 0917 0600     		.2byte	0x6
 10306 0919 03       		.byte	0x3
 10307 091a 00000000 		.4byte	set_x_anim
 10308 091e 9F       		.byte	0x9f
 10309 091f 00000000 		.4byte	0
 10310 0923 00000000 		.4byte	0
 10311              	.LLST61:
 10312 0927 4C010000 		.4byte	.LVL146
 10313 092b 50010000 		.4byte	.LVL147
 10314 092f 0400     		.2byte	0x4
 10315 0931 91       		.byte	0x91
 10316 0932 9C7F     		.sleb128 -100
 10317 0934 9F       		.byte	0x9f
 10318 0935 00000000 		.4byte	0
 10319 0939 00000000 		.4byte	0
 10320              	.LLST62:
 10321 093d 58010000 		.4byte	.LVL149
 10322 0941 62010000 		.4byte	.LVL150
 10323 0945 0200     		.2byte	0x2
 10324 0947 30       		.byte	0x30
 10325 0948 9F       		.byte	0x9f
 10326 0949 00000000 		.4byte	0
 10327 094d 00000000 		.4byte	0
 10328              	.LLST63:
 10329 0951 58010000 		.4byte	.LVL149
 10330 0955 62010000 		.4byte	.LVL150
ARM GAS  C:\Users\haske\AppData\Local\Temp\ccLw7Foe.s 			page 204


 10331 0959 0100     		.2byte	0x1
 10332 095b 50       		.byte	0x50
 10333 095c 00000000 		.4byte	0
 10334 0960 00000000 		.4byte	0
 10335              	.LLST64:
 10336 0964 58010000 		.4byte	.LVL149
 10337 0968 62010000 		.4byte	.LVL150
 10338 096c 0400     		.2byte	0x4
 10339 096e 91       		.byte	0x91
 10340 096f 9C7F     		.sleb128 -100
 10341 0971 9F       		.byte	0x9f
 10342 0972 00000000 		.4byte	0
 10343 0976 00000000 		.4byte	0
 10344              	.LLST65:
 10345 097a 62010000 		.4byte	.LVL150
 10346 097e 66010000 		.4byte	.LVL151
 10347 0982 0600     		.2byte	0x6
 10348 0984 03       		.byte	0x3
 10349 0985 00000000 		.4byte	set_y_anim
 10350 0989 9F       		.byte	0x9f
 10351 098a 00000000 		.4byte	0
 10352 098e 00000000 		.4byte	0
 10353              	.LLST66:
 10354 0992 62010000 		.4byte	.LVL150
 10355 0996 66010000 		.4byte	.LVL151
 10356 099a 0400     		.2byte	0x4
 10357 099c 91       		.byte	0x91
 10358 099d 9C7F     		.sleb128 -100
 10359 099f 9F       		.byte	0x9f
 10360 09a0 00000000 		.4byte	0
 10361 09a4 00000000 		.4byte	0
 10362              	.LLST67:
 10363 09a8 6C010000 		.4byte	.LVL152
 10364 09ac 76010000 		.4byte	.LVL153
 10365 09b0 0200     		.2byte	0x2
 10366 09b2 30       		.byte	0x30
 10367 09b3 9F       		.byte	0x9f
 10368 09b4 00000000 		.4byte	0
 10369 09b8 00000000 		.4byte	0
 10370              	.LLST68:
 10371 09bc 6C010000 		.4byte	.LVL152
 10372 09c0 76010000 		.4byte	.LVL153
 10373 09c4 0100     		.2byte	0x1
 10374 09c6 50       		.byte	0x50
 10375 09c7 00000000 		.4byte	0
 10376 09cb 00000000 		.4byte	0
 10377              	.LLST69:
 10378 09cf 6C010000 		.4byte	.LVL152
 10379 09d3 76010000 		.4byte	.LVL153
 10380 09d7 0400     		.2byte	0x4
 10381 09d9 91       		.byte	0x91
 10382 09da 9C7F     		.sleb128 -100
 10383 09dc 9F       		.byte	0x9f
 10384 09dd 00000000 		.4byte	0
 10385 09e1 00000000 		.4byte	0
 10386              	.LLST70:
 10387 09e5 76010000 		.4byte	.LVL153
ARM GAS  C:\Users\haske\AppData\Local\Temp\ccLw7Foe.s 			page 205


 10388 09e9 7A010000 		.4byte	.LVL154
 10389 09ed 0600     		.2byte	0x6
 10390 09ef 03       		.byte	0x3
 10391 09f0 00000000 		.4byte	set_y_anim
 10392 09f4 9F       		.byte	0x9f
 10393 09f5 00000000 		.4byte	0
 10394 09f9 00000000 		.4byte	0
 10395              	.LLST71:
 10396 09fd 76010000 		.4byte	.LVL153
 10397 0a01 7A010000 		.4byte	.LVL154
 10398 0a05 0400     		.2byte	0x4
 10399 0a07 91       		.byte	0x91
 10400 0a08 9C7F     		.sleb128 -100
 10401 0a0a 9F       		.byte	0x9f
 10402 0a0b 00000000 		.4byte	0
 10403 0a0f 00000000 		.4byte	0
 10404              	.LLST72:
 10405 0a13 82010000 		.4byte	.LVL156
 10406 0a17 8C010000 		.4byte	.LVL157
 10407 0a1b 0200     		.2byte	0x2
 10408 0a1d 30       		.byte	0x30
 10409 0a1e 9F       		.byte	0x9f
 10410 0a1f 00000000 		.4byte	0
 10411 0a23 00000000 		.4byte	0
 10412              	.LLST73:
 10413 0a27 82010000 		.4byte	.LVL156
 10414 0a2b 8C010000 		.4byte	.LVL157
 10415 0a2f 0100     		.2byte	0x1
 10416 0a31 50       		.byte	0x50
 10417 0a32 00000000 		.4byte	0
 10418 0a36 00000000 		.4byte	0
 10419              	.LLST74:
 10420 0a3a 82010000 		.4byte	.LVL156
 10421 0a3e 8C010000 		.4byte	.LVL157
 10422 0a42 0400     		.2byte	0x4
 10423 0a44 91       		.byte	0x91
 10424 0a45 9C7F     		.sleb128 -100
 10425 0a47 9F       		.byte	0x9f
 10426 0a48 00000000 		.4byte	0
 10427 0a4c 00000000 		.4byte	0
 10428              	.LLST75:
 10429 0a50 8C010000 		.4byte	.LVL157
 10430 0a54 90010000 		.4byte	.LVL159
 10431 0a58 0600     		.2byte	0x6
 10432 0a5a 03       		.byte	0x3
 10433 0a5b 00000000 		.4byte	set_x_anim
 10434 0a5f 9F       		.byte	0x9f
 10435 0a60 00000000 		.4byte	0
 10436 0a64 00000000 		.4byte	0
 10437              	.LLST76:
 10438 0a68 8C010000 		.4byte	.LVL157
 10439 0a6c 90010000 		.4byte	.LVL159
 10440 0a70 0400     		.2byte	0x4
 10441 0a72 91       		.byte	0x91
 10442 0a73 9C7F     		.sleb128 -100
 10443 0a75 9F       		.byte	0x9f
 10444 0a76 00000000 		.4byte	0
ARM GAS  C:\Users\haske\AppData\Local\Temp\ccLw7Foe.s 			page 206


 10445 0a7a 00000000 		.4byte	0
 10446              	.LLST77:
 10447 0a7e 96010000 		.4byte	.LVL160
 10448 0a82 9E010000 		.4byte	.LVL161
 10449 0a86 0200     		.2byte	0x2
 10450 0a88 30       		.byte	0x30
 10451 0a89 9F       		.byte	0x9f
 10452 0a8a 00000000 		.4byte	0
 10453 0a8e 00000000 		.4byte	0
 10454              	.LLST78:
 10455 0a92 96010000 		.4byte	.LVL160
 10456 0a96 9E010000 		.4byte	.LVL161
 10457 0a9a 0100     		.2byte	0x1
 10458 0a9c 50       		.byte	0x50
 10459 0a9d 00000000 		.4byte	0
 10460 0aa1 00000000 		.4byte	0
 10461              	.LLST79:
 10462 0aa5 96010000 		.4byte	.LVL160
 10463 0aa9 9E010000 		.4byte	.LVL161
 10464 0aad 0400     		.2byte	0x4
 10465 0aaf 91       		.byte	0x91
 10466 0ab0 9C7F     		.sleb128 -100
 10467 0ab2 9F       		.byte	0x9f
 10468 0ab3 00000000 		.4byte	0
 10469 0ab7 00000000 		.4byte	0
 10470              	.LLST80:
 10471 0abb 9E010000 		.4byte	.LVL161
 10472 0abf A0010000 		.4byte	.LVL162
 10473 0ac3 0600     		.2byte	0x6
 10474 0ac5 03       		.byte	0x3
 10475 0ac6 00000000 		.4byte	set_x_anim
 10476 0aca 9F       		.byte	0x9f
 10477 0acb 00000000 		.4byte	0
 10478 0acf 00000000 		.4byte	0
 10479              	.LLST81:
 10480 0ad3 9E010000 		.4byte	.LVL161
 10481 0ad7 A0010000 		.4byte	.LVL162
 10482 0adb 0400     		.2byte	0x4
 10483 0add 91       		.byte	0x91
 10484 0ade D87E     		.sleb128 -168
 10485 0ae0 9F       		.byte	0x9f
 10486 0ae1 00000000 		.4byte	0
 10487 0ae5 00000000 		.4byte	0
 10488              	.LLST82:
 10489 0ae9 A8010000 		.4byte	.LVL164
 10490 0aed B0010000 		.4byte	.LVL165
 10491 0af1 0100     		.2byte	0x1
 10492 0af3 50       		.byte	0x50
 10493 0af4 00000000 		.4byte	0
 10494 0af8 00000000 		.4byte	0
 10495              	.LLST83:
 10496 0afc A8010000 		.4byte	.LVL164
 10497 0b00 B0010000 		.4byte	.LVL165
 10498 0b04 0200     		.2byte	0x2
 10499 0b06 30       		.byte	0x30
 10500 0b07 9F       		.byte	0x9f
 10501 0b08 00000000 		.4byte	0
ARM GAS  C:\Users\haske\AppData\Local\Temp\ccLw7Foe.s 			page 207


 10502 0b0c 00000000 		.4byte	0
 10503              	.LLST84:
 10504 0b10 A8010000 		.4byte	.LVL164
 10505 0b14 B0010000 		.4byte	.LVL165
 10506 0b18 0400     		.2byte	0x4
 10507 0b1a 91       		.byte	0x91
 10508 0b1b D87E     		.sleb128 -168
 10509 0b1d 9F       		.byte	0x9f
 10510 0b1e 00000000 		.4byte	0
 10511 0b22 00000000 		.4byte	0
 10512              	.LLST85:
 10513 0b26 B0010000 		.4byte	.LVL165
 10514 0b2a B4010000 		.4byte	.LVL167
 10515 0b2e 0600     		.2byte	0x6
 10516 0b30 03       		.byte	0x3
 10517 0b31 00000000 		.4byte	set_x_anim
 10518 0b35 9F       		.byte	0x9f
 10519 0b36 00000000 		.4byte	0
 10520 0b3a 00000000 		.4byte	0
 10521              	.LLST86:
 10522 0b3e B0010000 		.4byte	.LVL165
 10523 0b42 B4010000 		.4byte	.LVL167
 10524 0b46 0400     		.2byte	0x4
 10525 0b48 91       		.byte	0x91
 10526 0b49 9C7F     		.sleb128 -100
 10527 0b4b 9F       		.byte	0x9f
 10528 0b4c 00000000 		.4byte	0
 10529 0b50 00000000 		.4byte	0
 10530              	.LLST87:
 10531 0b54 BC010000 		.4byte	.LVL169
 10532 0b58 C4010000 		.4byte	.LVL170
 10533 0b5c 0200     		.2byte	0x2
 10534 0b5e 30       		.byte	0x30
 10535 0b5f 9F       		.byte	0x9f
 10536 0b60 00000000 		.4byte	0
 10537 0b64 00000000 		.4byte	0
 10538              	.LLST88:
 10539 0b68 BC010000 		.4byte	.LVL169
 10540 0b6c C4010000 		.4byte	.LVL170
 10541 0b70 0100     		.2byte	0x1
 10542 0b72 50       		.byte	0x50
 10543 0b73 00000000 		.4byte	0
 10544 0b77 00000000 		.4byte	0
 10545              	.LLST89:
 10546 0b7b BC010000 		.4byte	.LVL169
 10547 0b7f C4010000 		.4byte	.LVL170
 10548 0b83 0400     		.2byte	0x4
 10549 0b85 91       		.byte	0x91
 10550 0b86 9C7F     		.sleb128 -100
 10551 0b88 9F       		.byte	0x9f
 10552 0b89 00000000 		.4byte	0
 10553 0b8d 00000000 		.4byte	0
 10554              	.LLST90:
 10555 0b91 C4010000 		.4byte	.LVL170
 10556 0b95 C6010000 		.4byte	.LVL171
 10557 0b99 0600     		.2byte	0x6
 10558 0b9b 03       		.byte	0x3
ARM GAS  C:\Users\haske\AppData\Local\Temp\ccLw7Foe.s 			page 208


 10559 0b9c 00000000 		.4byte	set_x_anim
 10560 0ba0 9F       		.byte	0x9f
 10561 0ba1 00000000 		.4byte	0
 10562 0ba5 00000000 		.4byte	0
 10563              	.LLST91:
 10564 0ba9 C4010000 		.4byte	.LVL170
 10565 0bad C6010000 		.4byte	.LVL171
 10566 0bb1 0400     		.2byte	0x4
 10567 0bb3 91       		.byte	0x91
 10568 0bb4 D87E     		.sleb128 -168
 10569 0bb6 9F       		.byte	0x9f
 10570 0bb7 00000000 		.4byte	0
 10571 0bbb 00000000 		.4byte	0
 10572              	.LLST92:
 10573 0bbf CC010000 		.4byte	.LVL172
 10574 0bc3 D4010000 		.4byte	.LVL173
 10575 0bc7 0100     		.2byte	0x1
 10576 0bc9 50       		.byte	0x50
 10577 0bca 00000000 		.4byte	0
 10578 0bce 00000000 		.4byte	0
 10579              	.LLST93:
 10580 0bd2 CC010000 		.4byte	.LVL172
 10581 0bd6 D4010000 		.4byte	.LVL173
 10582 0bda 0200     		.2byte	0x2
 10583 0bdc 30       		.byte	0x30
 10584 0bdd 9F       		.byte	0x9f
 10585 0bde 00000000 		.4byte	0
 10586 0be2 00000000 		.4byte	0
 10587              	.LLST94:
 10588 0be6 CC010000 		.4byte	.LVL172
 10589 0bea D4010000 		.4byte	.LVL173
 10590 0bee 0400     		.2byte	0x4
 10591 0bf0 91       		.byte	0x91
 10592 0bf1 D87E     		.sleb128 -168
 10593 0bf3 9F       		.byte	0x9f
 10594 0bf4 00000000 		.4byte	0
 10595 0bf8 00000000 		.4byte	0
 10596              	.LLST95:
 10597 0bfc D4010000 		.4byte	.LVL173
 10598 0c00 D8010000 		.4byte	.LVL175
 10599 0c04 0600     		.2byte	0x6
 10600 0c06 03       		.byte	0x3
 10601 0c07 00000000 		.4byte	set_y_anim
 10602 0c0b 9F       		.byte	0x9f
 10603 0c0c 00000000 		.4byte	0
 10604 0c10 00000000 		.4byte	0
 10605              	.LLST96:
 10606 0c14 D4010000 		.4byte	.LVL173
 10607 0c18 D8010000 		.4byte	.LVL175
 10608 0c1c 0400     		.2byte	0x4
 10609 0c1e 91       		.byte	0x91
 10610 0c1f 9C7F     		.sleb128 -100
 10611 0c21 9F       		.byte	0x9f
 10612 0c22 00000000 		.4byte	0
 10613 0c26 00000000 		.4byte	0
 10614              	.LLST97:
 10615 0c2a DE010000 		.4byte	.LVL176
ARM GAS  C:\Users\haske\AppData\Local\Temp\ccLw7Foe.s 			page 209


 10616 0c2e E6010000 		.4byte	.LVL177
 10617 0c32 0200     		.2byte	0x2
 10618 0c34 30       		.byte	0x30
 10619 0c35 9F       		.byte	0x9f
 10620 0c36 00000000 		.4byte	0
 10621 0c3a 00000000 		.4byte	0
 10622              	.LLST98:
 10623 0c3e DE010000 		.4byte	.LVL176
 10624 0c42 E6010000 		.4byte	.LVL177
 10625 0c46 0100     		.2byte	0x1
 10626 0c48 50       		.byte	0x50
 10627 0c49 00000000 		.4byte	0
 10628 0c4d 00000000 		.4byte	0
 10629              	.LLST99:
 10630 0c51 DE010000 		.4byte	.LVL176
 10631 0c55 E6010000 		.4byte	.LVL177
 10632 0c59 0400     		.2byte	0x4
 10633 0c5b 91       		.byte	0x91
 10634 0c5c 9C7F     		.sleb128 -100
 10635 0c5e 9F       		.byte	0x9f
 10636 0c5f 00000000 		.4byte	0
 10637 0c63 00000000 		.4byte	0
 10638              	.LLST100:
 10639 0c67 E6010000 		.4byte	.LVL177
 10640 0c6b E8010000 		.4byte	.LVL178
 10641 0c6f 0600     		.2byte	0x6
 10642 0c71 03       		.byte	0x3
 10643 0c72 00000000 		.4byte	set_y_anim
 10644 0c76 9F       		.byte	0x9f
 10645 0c77 00000000 		.4byte	0
 10646 0c7b 00000000 		.4byte	0
 10647              	.LLST101:
 10648 0c7f E6010000 		.4byte	.LVL177
 10649 0c83 E8010000 		.4byte	.LVL178
 10650 0c87 0400     		.2byte	0x4
 10651 0c89 91       		.byte	0x91
 10652 0c8a D87E     		.sleb128 -168
 10653 0c8c 9F       		.byte	0x9f
 10654 0c8d 00000000 		.4byte	0
 10655 0c91 00000000 		.4byte	0
 10656              	.LLST102:
 10657 0c95 F0010000 		.4byte	.LVL180
 10658 0c99 F8010000 		.4byte	.LVL181
 10659 0c9d 0100     		.2byte	0x1
 10660 0c9f 50       		.byte	0x50
 10661 0ca0 00000000 		.4byte	0
 10662 0ca4 00000000 		.4byte	0
 10663              	.LLST103:
 10664 0ca8 F0010000 		.4byte	.LVL180
 10665 0cac F8010000 		.4byte	.LVL181
 10666 0cb0 0200     		.2byte	0x2
 10667 0cb2 30       		.byte	0x30
 10668 0cb3 9F       		.byte	0x9f
 10669 0cb4 00000000 		.4byte	0
 10670 0cb8 00000000 		.4byte	0
 10671              	.LLST104:
 10672 0cbc F0010000 		.4byte	.LVL180
ARM GAS  C:\Users\haske\AppData\Local\Temp\ccLw7Foe.s 			page 210


 10673 0cc0 F8010000 		.4byte	.LVL181
 10674 0cc4 0400     		.2byte	0x4
 10675 0cc6 91       		.byte	0x91
 10676 0cc7 D87E     		.sleb128 -168
 10677 0cc9 9F       		.byte	0x9f
 10678 0cca 00000000 		.4byte	0
 10679 0cce 00000000 		.4byte	0
 10680              	.LLST105:
 10681 0cd2 F8010000 		.4byte	.LVL181
 10682 0cd6 FC010000 		.4byte	.LVL183
 10683 0cda 0600     		.2byte	0x6
 10684 0cdc 03       		.byte	0x3
 10685 0cdd 00000000 		.4byte	set_y_anim
 10686 0ce1 9F       		.byte	0x9f
 10687 0ce2 00000000 		.4byte	0
 10688 0ce6 00000000 		.4byte	0
 10689              	.LLST106:
 10690 0cea F8010000 		.4byte	.LVL181
 10691 0cee FC010000 		.4byte	.LVL183
 10692 0cf2 0400     		.2byte	0x4
 10693 0cf4 91       		.byte	0x91
 10694 0cf5 9C7F     		.sleb128 -100
 10695 0cf7 9F       		.byte	0x9f
 10696 0cf8 00000000 		.4byte	0
 10697 0cfc 00000000 		.4byte	0
 10698              	.LLST107:
 10699 0d00 04020000 		.4byte	.LVL185
 10700 0d04 0C020000 		.4byte	.LVL186
 10701 0d08 0200     		.2byte	0x2
 10702 0d0a 30       		.byte	0x30
 10703 0d0b 9F       		.byte	0x9f
 10704 0d0c 00000000 		.4byte	0
 10705 0d10 00000000 		.4byte	0
 10706              	.LLST108:
 10707 0d14 04020000 		.4byte	.LVL185
 10708 0d18 0C020000 		.4byte	.LVL186
 10709 0d1c 0100     		.2byte	0x1
 10710 0d1e 50       		.byte	0x50
 10711 0d1f 00000000 		.4byte	0
 10712 0d23 00000000 		.4byte	0
 10713              	.LLST109:
 10714 0d27 04020000 		.4byte	.LVL185
 10715 0d2b 0C020000 		.4byte	.LVL186
 10716 0d2f 0400     		.2byte	0x4
 10717 0d31 91       		.byte	0x91
 10718 0d32 9C7F     		.sleb128 -100
 10719 0d34 9F       		.byte	0x9f
 10720 0d35 00000000 		.4byte	0
 10721 0d39 00000000 		.4byte	0
 10722              	.LLST110:
 10723 0d3d 0C020000 		.4byte	.LVL186
 10724 0d41 0E020000 		.4byte	.LVL187
 10725 0d45 0600     		.2byte	0x6
 10726 0d47 03       		.byte	0x3
 10727 0d48 00000000 		.4byte	set_y_anim
 10728 0d4c 9F       		.byte	0x9f
 10729 0d4d 00000000 		.4byte	0
ARM GAS  C:\Users\haske\AppData\Local\Temp\ccLw7Foe.s 			page 211


 10730 0d51 00000000 		.4byte	0
 10731              	.LLST111:
 10732 0d55 0C020000 		.4byte	.LVL186
 10733 0d59 0E020000 		.4byte	.LVL187
 10734 0d5d 0400     		.2byte	0x4
 10735 0d5f 91       		.byte	0x91
 10736 0d60 D87E     		.sleb128 -168
 10737 0d62 9F       		.byte	0x9f
 10738 0d63 00000000 		.4byte	0
 10739 0d67 00000000 		.4byte	0
 10740              	.LLST112:
 10741 0d6b 14020000 		.4byte	.LVL188
 10742 0d6f 1C020000 		.4byte	.LVL189
 10743 0d73 0100     		.2byte	0x1
 10744 0d75 50       		.byte	0x50
 10745 0d76 00000000 		.4byte	0
 10746 0d7a 00000000 		.4byte	0
 10747              	.LLST113:
 10748 0d7e 14020000 		.4byte	.LVL188
 10749 0d82 1C020000 		.4byte	.LVL189
 10750 0d86 0200     		.2byte	0x2
 10751 0d88 30       		.byte	0x30
 10752 0d89 9F       		.byte	0x9f
 10753 0d8a 00000000 		.4byte	0
 10754 0d8e 00000000 		.4byte	0
 10755              	.LLST114:
 10756 0d92 14020000 		.4byte	.LVL188
 10757 0d96 1C020000 		.4byte	.LVL189
 10758 0d9a 0400     		.2byte	0x4
 10759 0d9c 91       		.byte	0x91
 10760 0d9d D87E     		.sleb128 -168
 10761 0d9f 9F       		.byte	0x9f
 10762 0da0 00000000 		.4byte	0
 10763 0da4 00000000 		.4byte	0
 10764              	.LLST115:
 10765 0da8 1C020000 		.4byte	.LVL189
 10766 0dac 20020000 		.4byte	.LVL190
 10767 0db0 0600     		.2byte	0x6
 10768 0db2 03       		.byte	0x3
 10769 0db3 00000000 		.4byte	opa_scale_anim
 10770 0db7 9F       		.byte	0x9f
 10771 0db8 00000000 		.4byte	0
 10772 0dbc 00000000 		.4byte	0
 10773              	.LLST116:
 10774 0dc0 1C020000 		.4byte	.LVL189
 10775 0dc4 20020000 		.4byte	.LVL190
 10776 0dc8 0400     		.2byte	0x4
 10777 0dca 91       		.byte	0x91
 10778 0dcb 9C7F     		.sleb128 -100
 10779 0dcd 9F       		.byte	0x9f
 10780 0dce 00000000 		.4byte	0
 10781 0dd2 00000000 		.4byte	0
 10782              	.LLST117:
 10783 0dd6 20020000 		.4byte	.LVL190
 10784 0dda 2C020000 		.4byte	.LVL191
 10785 0dde 0300     		.2byte	0x3
 10786 0de0 08       		.byte	0x8
ARM GAS  C:\Users\haske\AppData\Local\Temp\ccLw7Foe.s 			page 212


 10787 0de1 FF       		.byte	0xff
 10788 0de2 9F       		.byte	0x9f
 10789 0de3 00000000 		.4byte	0
 10790 0de7 00000000 		.4byte	0
 10791              	.LLST118:
 10792 0deb 20020000 		.4byte	.LVL190
 10793 0def 2C020000 		.4byte	.LVL191
 10794 0df3 0200     		.2byte	0x2
 10795 0df5 30       		.byte	0x30
 10796 0df6 9F       		.byte	0x9f
 10797 0df7 00000000 		.4byte	0
 10798 0dfb 00000000 		.4byte	0
 10799              	.LLST119:
 10800 0dff 20020000 		.4byte	.LVL190
 10801 0e03 2C020000 		.4byte	.LVL191
 10802 0e07 0400     		.2byte	0x4
 10803 0e09 91       		.byte	0x91
 10804 0e0a 9C7F     		.sleb128 -100
 10805 0e0c 9F       		.byte	0x9f
 10806 0e0d 00000000 		.4byte	0
 10807 0e11 00000000 		.4byte	0
 10808              	.LLST120:
 10809 0e15 2C020000 		.4byte	.LVL191
 10810 0e19 30020000 		.4byte	.LVL192
 10811 0e1d 0600     		.2byte	0x6
 10812 0e1f 03       		.byte	0x3
 10813 0e20 00000000 		.4byte	opa_scale_anim
 10814 0e24 9F       		.byte	0x9f
 10815 0e25 00000000 		.4byte	0
 10816 0e29 00000000 		.4byte	0
 10817              	.LLST121:
 10818 0e2d 2C020000 		.4byte	.LVL191
 10819 0e31 30020000 		.4byte	.LVL192
 10820 0e35 0400     		.2byte	0x4
 10821 0e37 91       		.byte	0x91
 10822 0e38 D87E     		.sleb128 -168
 10823 0e3a 9F       		.byte	0x9f
 10824 0e3b 00000000 		.4byte	0
 10825 0e3f 00000000 		.4byte	0
 10826              	.LLST122:
 10827 0e43 30020000 		.4byte	.LVL192
 10828 0e47 3C020000 		.4byte	.LVL193
 10829 0e4b 0200     		.2byte	0x2
 10830 0e4d 30       		.byte	0x30
 10831 0e4e 9F       		.byte	0x9f
 10832 0e4f 00000000 		.4byte	0
 10833 0e53 00000000 		.4byte	0
 10834              	.LLST123:
 10835 0e57 30020000 		.4byte	.LVL192
 10836 0e5b 3C020000 		.4byte	.LVL193
 10837 0e5f 0300     		.2byte	0x3
 10838 0e61 08       		.byte	0x8
 10839 0e62 FF       		.byte	0xff
 10840 0e63 9F       		.byte	0x9f
 10841 0e64 00000000 		.4byte	0
 10842 0e68 00000000 		.4byte	0
 10843              	.LLST124:
ARM GAS  C:\Users\haske\AppData\Local\Temp\ccLw7Foe.s 			page 213


 10844 0e6c 30020000 		.4byte	.LVL192
 10845 0e70 3C020000 		.4byte	.LVL193
 10846 0e74 0400     		.2byte	0x4
 10847 0e76 91       		.byte	0x91
 10848 0e77 D87E     		.sleb128 -168
 10849 0e79 9F       		.byte	0x9f
 10850 0e7a 00000000 		.4byte	0
 10851 0e7e 00000000 		.4byte	0
 10852              	.LLST125:
 10853 0e82 3C020000 		.4byte	.LVL193
 10854 0e86 40020000 		.4byte	.LVL194
 10855 0e8a 0600     		.2byte	0x6
 10856 0e8c 03       		.byte	0x3
 10857 0e8d 00000000 		.4byte	set_x_anim
 10858 0e91 9F       		.byte	0x9f
 10859 0e92 00000000 		.4byte	0
 10860 0e96 00000000 		.4byte	0
 10861              	.LLST126:
 10862 0e9a 3C020000 		.4byte	.LVL193
 10863 0e9e 40020000 		.4byte	.LVL194
 10864 0ea2 0400     		.2byte	0x4
 10865 0ea4 91       		.byte	0x91
 10866 0ea5 D87E     		.sleb128 -168
 10867 0ea7 9F       		.byte	0x9f
 10868 0ea8 00000000 		.4byte	0
 10869 0eac 00000000 		.4byte	0
 10870              	.LLST127:
 10871 0eb0 48020000 		.4byte	.LVL196
 10872 0eb4 52020000 		.4byte	.LVL197
 10873 0eb8 0100     		.2byte	0x1
 10874 0eba 50       		.byte	0x50
 10875 0ebb 00000000 		.4byte	0
 10876 0ebf 00000000 		.4byte	0
 10877              	.LLST128:
 10878 0ec3 48020000 		.4byte	.LVL196
 10879 0ec7 52020000 		.4byte	.LVL197
 10880 0ecb 0200     		.2byte	0x2
 10881 0ecd 30       		.byte	0x30
 10882 0ece 9F       		.byte	0x9f
 10883 0ecf 00000000 		.4byte	0
 10884 0ed3 00000000 		.4byte	0
 10885              	.LLST129:
 10886 0ed7 48020000 		.4byte	.LVL196
 10887 0edb 52020000 		.4byte	.LVL197
 10888 0edf 0400     		.2byte	0x4
 10889 0ee1 91       		.byte	0x91
 10890 0ee2 D87E     		.sleb128 -168
 10891 0ee4 9F       		.byte	0x9f
 10892 0ee5 00000000 		.4byte	0
 10893 0ee9 00000000 		.4byte	0
 10894              	.LLST130:
 10895 0eed 52020000 		.4byte	.LVL197
 10896 0ef1 56020000 		.4byte	.LVL198
 10897 0ef5 0600     		.2byte	0x6
 10898 0ef7 03       		.byte	0x3
 10899 0ef8 00000000 		.4byte	set_x_anim
 10900 0efc 9F       		.byte	0x9f
ARM GAS  C:\Users\haske\AppData\Local\Temp\ccLw7Foe.s 			page 214


 10901 0efd 00000000 		.4byte	0
 10902 0f01 00000000 		.4byte	0
 10903              	.LLST131:
 10904 0f05 52020000 		.4byte	.LVL197
 10905 0f09 56020000 		.4byte	.LVL198
 10906 0f0d 0400     		.2byte	0x4
 10907 0f0f 91       		.byte	0x91
 10908 0f10 D87E     		.sleb128 -168
 10909 0f12 9F       		.byte	0x9f
 10910 0f13 00000000 		.4byte	0
 10911 0f17 00000000 		.4byte	0
 10912              	.LLST132:
 10913 0f1b 5C020000 		.4byte	.LVL199
 10914 0f1f 66020000 		.4byte	.LVL200
 10915 0f23 0100     		.2byte	0x1
 10916 0f25 50       		.byte	0x50
 10917 0f26 00000000 		.4byte	0
 10918 0f2a 00000000 		.4byte	0
 10919              	.LLST133:
 10920 0f2e 5C020000 		.4byte	.LVL199
 10921 0f32 66020000 		.4byte	.LVL200
 10922 0f36 0200     		.2byte	0x2
 10923 0f38 30       		.byte	0x30
 10924 0f39 9F       		.byte	0x9f
 10925 0f3a 00000000 		.4byte	0
 10926 0f3e 00000000 		.4byte	0
 10927              	.LLST134:
 10928 0f42 5C020000 		.4byte	.LVL199
 10929 0f46 66020000 		.4byte	.LVL200
 10930 0f4a 0400     		.2byte	0x4
 10931 0f4c 91       		.byte	0x91
 10932 0f4d D87E     		.sleb128 -168
 10933 0f4f 9F       		.byte	0x9f
 10934 0f50 00000000 		.4byte	0
 10935 0f54 00000000 		.4byte	0
 10936              	.LLST135:
 10937 0f58 66020000 		.4byte	.LVL200
 10938 0f5c 6A020000 		.4byte	.LVL201
 10939 0f60 0600     		.2byte	0x6
 10940 0f62 03       		.byte	0x3
 10941 0f63 00000000 		.4byte	set_y_anim
 10942 0f67 9F       		.byte	0x9f
 10943 0f68 00000000 		.4byte	0
 10944 0f6c 00000000 		.4byte	0
 10945              	.LLST136:
 10946 0f70 66020000 		.4byte	.LVL200
 10947 0f74 6A020000 		.4byte	.LVL201
 10948 0f78 0400     		.2byte	0x4
 10949 0f7a 91       		.byte	0x91
 10950 0f7b D87E     		.sleb128 -168
 10951 0f7d 9F       		.byte	0x9f
 10952 0f7e 00000000 		.4byte	0
 10953 0f82 00000000 		.4byte	0
 10954              	.LLST137:
 10955 0f86 72020000 		.4byte	.LVL203
 10956 0f8a 7C020000 		.4byte	.LVL204
 10957 0f8e 0100     		.2byte	0x1
ARM GAS  C:\Users\haske\AppData\Local\Temp\ccLw7Foe.s 			page 215


 10958 0f90 50       		.byte	0x50
 10959 0f91 00000000 		.4byte	0
 10960 0f95 00000000 		.4byte	0
 10961              	.LLST138:
 10962 0f99 72020000 		.4byte	.LVL203
 10963 0f9d 7C020000 		.4byte	.LVL204
 10964 0fa1 0200     		.2byte	0x2
 10965 0fa3 30       		.byte	0x30
 10966 0fa4 9F       		.byte	0x9f
 10967 0fa5 00000000 		.4byte	0
 10968 0fa9 00000000 		.4byte	0
 10969              	.LLST139:
 10970 0fad 72020000 		.4byte	.LVL203
 10971 0fb1 7C020000 		.4byte	.LVL204
 10972 0fb5 0400     		.2byte	0x4
 10973 0fb7 91       		.byte	0x91
 10974 0fb8 D87E     		.sleb128 -168
 10975 0fba 9F       		.byte	0x9f
 10976 0fbb 00000000 		.4byte	0
 10977 0fbf 00000000 		.4byte	0
 10978              	.LLST140:
 10979 0fc3 7C020000 		.4byte	.LVL204
 10980 0fc7 80020000 		.4byte	.LVL205
 10981 0fcb 0600     		.2byte	0x6
 10982 0fcd 03       		.byte	0x3
 10983 0fce 00000000 		.4byte	set_y_anim
 10984 0fd2 9F       		.byte	0x9f
 10985 0fd3 00000000 		.4byte	0
 10986 0fd7 00000000 		.4byte	0
 10987              	.LLST141:
 10988 0fdb 7C020000 		.4byte	.LVL204
 10989 0fdf 80020000 		.4byte	.LVL205
 10990 0fe3 0400     		.2byte	0x4
 10991 0fe5 91       		.byte	0x91
 10992 0fe6 D87E     		.sleb128 -168
 10993 0fe8 9F       		.byte	0x9f
 10994 0fe9 00000000 		.4byte	0
 10995 0fed 00000000 		.4byte	0
 10996              	.LLST142:
 10997 0ff1 86020000 		.4byte	.LVL206
 10998 0ff5 8E020000 		.4byte	.LVL207
 10999 0ff9 0100     		.2byte	0x1
 11000 0ffb 50       		.byte	0x50
 11001 0ffc 00000000 		.4byte	0
 11002 1000 00000000 		.4byte	0
 11003              	.LLST143:
 11004 1004 86020000 		.4byte	.LVL206
 11005 1008 8E020000 		.4byte	.LVL207
 11006 100c 0200     		.2byte	0x2
 11007 100e 30       		.byte	0x30
 11008 100f 9F       		.byte	0x9f
 11009 1010 00000000 		.4byte	0
 11010 1014 00000000 		.4byte	0
 11011              	.LLST144:
 11012 1018 86020000 		.4byte	.LVL206
 11013 101c 8E020000 		.4byte	.LVL207
 11014 1020 0400     		.2byte	0x4
ARM GAS  C:\Users\haske\AppData\Local\Temp\ccLw7Foe.s 			page 216


 11015 1022 91       		.byte	0x91
 11016 1023 D87E     		.sleb128 -168
 11017 1025 9F       		.byte	0x9f
 11018 1026 00000000 		.4byte	0
 11019 102a 00000000 		.4byte	0
 11020              	.LLST145:
 11021 102e 00000000 		.4byte	.LVL214
 11022 1032 0F000000 		.4byte	.LVL215-1
 11023 1036 0100     		.2byte	0x1
 11024 1038 50       		.byte	0x50
 11025 1039 0F000000 		.4byte	.LVL215-1
 11026 103d 14000000 		.4byte	.LFE167
 11027 1041 0400     		.2byte	0x4
 11028 1043 F3       		.byte	0xf3
 11029 1044 01       		.uleb128 0x1
 11030 1045 50       		.byte	0x50
 11031 1046 9F       		.byte	0x9f
 11032 1047 00000000 		.4byte	0
 11033 104b 00000000 		.4byte	0
 11034              	.LLST146:
 11035 104f 00000000 		.4byte	.LVL216
 11036 1053 0C000000 		.4byte	.LVL217
 11037 1057 0100     		.2byte	0x1
 11038 1059 50       		.byte	0x50
 11039 105a 0C000000 		.4byte	.LVL217
 11040 105e 12000000 		.4byte	.LVL219
 11041 1062 0400     		.2byte	0x4
 11042 1064 F3       		.byte	0xf3
 11043 1065 01       		.uleb128 0x1
 11044 1066 50       		.byte	0x50
 11045 1067 9F       		.byte	0x9f
 11046 1068 12000000 		.4byte	.LVL219
 11047 106c 14000000 		.4byte	.LVL220
 11048 1070 0100     		.2byte	0x1
 11049 1072 50       		.byte	0x50
 11050 1073 14000000 		.4byte	.LVL220
 11051 1077 40000000 		.4byte	.LFE176
 11052 107b 0400     		.2byte	0x4
 11053 107d F3       		.byte	0xf3
 11054 107e 01       		.uleb128 0x1
 11055 107f 50       		.byte	0x50
 11056 1080 9F       		.byte	0x9f
 11057 1081 00000000 		.4byte	0
 11058 1085 00000000 		.4byte	0
 11059              	.LLST147:
 11060 1089 1A000000 		.4byte	.LVL222
 11061 108d 26000000 		.4byte	.LVL224
 11062 1091 0100     		.2byte	0x1
 11063 1093 50       		.byte	0x50
 11064 1094 26000000 		.4byte	.LVL224
 11065 1098 38000000 		.4byte	.LVL229
 11066 109c 0100     		.2byte	0x1
 11067 109e 54       		.byte	0x54
 11068 109f 38000000 		.4byte	.LVL229
 11069 10a3 3E000000 		.4byte	.LVL230
 11070 10a7 0100     		.2byte	0x1
 11071 10a9 50       		.byte	0x50
ARM GAS  C:\Users\haske\AppData\Local\Temp\ccLw7Foe.s 			page 217


 11072 10aa 00000000 		.4byte	0
 11073 10ae 00000000 		.4byte	0
 11074              	.LLST148:
 11075 10b2 12000000 		.4byte	.LVL219
 11076 10b6 20000000 		.4byte	.LVL223
 11077 10ba 0300     		.2byte	0x3
 11078 10bc 09       		.byte	0x9
 11079 10bd FF       		.byte	0xff
 11080 10be 9F       		.byte	0x9f
 11081 10bf 20000000 		.4byte	.LVL223
 11082 10c3 3E000000 		.4byte	.LVL230
 11083 10c7 0100     		.2byte	0x1
 11084 10c9 55       		.byte	0x55
 11085 10ca 00000000 		.4byte	0
 11086 10ce 00000000 		.4byte	0
 11087              	.LLST149:
 11088 10d2 2A000000 		.4byte	.LVL225
 11089 10d6 32000000 		.4byte	.LVL227
 11090 10da 0100     		.2byte	0x1
 11091 10dc 50       		.byte	0x50
 11092 10dd 00000000 		.4byte	0
 11093 10e1 00000000 		.4byte	0
 11094              	.LLST150:
 11095 10e5 00000000 		.4byte	.LVL231
 11096 10e9 09000000 		.4byte	.LVL232-1
 11097 10ed 0100     		.2byte	0x1
 11098 10ef 50       		.byte	0x50
 11099 10f0 09000000 		.4byte	.LVL232-1
 11100 10f4 0C000000 		.4byte	.LVL233
 11101 10f8 0100     		.2byte	0x1
 11102 10fa 54       		.byte	0x54
 11103 10fb 0C000000 		.4byte	.LVL233
 11104 10ff 13000000 		.4byte	.LVL234-1
 11105 1103 0100     		.2byte	0x1
 11106 1105 50       		.byte	0x50
 11107 1106 13000000 		.4byte	.LVL234-1
 11108 110a 1A000000 		.4byte	.LVL235
 11109 110e 0100     		.2byte	0x1
 11110 1110 54       		.byte	0x54
 11111 1111 00000000 		.4byte	0
 11112 1115 00000000 		.4byte	0
 11113              	.LLST151:
 11114 1119 00000000 		.4byte	.LVL236
 11115 111d 09000000 		.4byte	.LVL237-1
 11116 1121 0100     		.2byte	0x1
 11117 1123 50       		.byte	0x50
 11118 1124 09000000 		.4byte	.LVL237-1
 11119 1128 0A000000 		.4byte	.LVL237
 11120 112c 0400     		.2byte	0x4
 11121 112e F3       		.byte	0xf3
 11122 112f 01       		.uleb128 0x1
 11123 1130 50       		.byte	0x50
 11124 1131 9F       		.byte	0x9f
 11125 1132 0A000000 		.4byte	.LVL237
 11126 1136 10000000 		.4byte	.LVL238
 11127 113a 0100     		.2byte	0x1
 11128 113c 50       		.byte	0x50
ARM GAS  C:\Users\haske\AppData\Local\Temp\ccLw7Foe.s 			page 218


 11129 113d 00000000 		.4byte	0
 11130 1141 00000000 		.4byte	0
 11131              	.LLST152:
 11132 1145 00000000 		.4byte	.LVL240
 11133 1149 0B000000 		.4byte	.LVL241-1
 11134 114d 0100     		.2byte	0x1
 11135 114f 50       		.byte	0x50
 11136 1150 0B000000 		.4byte	.LVL241-1
 11137 1154 0C000000 		.4byte	.LVL241
 11138 1158 0400     		.2byte	0x4
 11139 115a F3       		.byte	0xf3
 11140 115b 01       		.uleb128 0x1
 11141 115c 50       		.byte	0x50
 11142 115d 9F       		.byte	0x9f
 11143 115e 0C000000 		.4byte	.LVL241
 11144 1162 2C000000 		.4byte	.LFE179
 11145 1166 0100     		.2byte	0x1
 11146 1168 50       		.byte	0x50
 11147 1169 00000000 		.4byte	0
 11148 116d 00000000 		.4byte	0
 11149              	.LLST153:
 11150 1171 00000000 		.4byte	.LVL240
 11151 1175 0B000000 		.4byte	.LVL241-1
 11152 1179 0100     		.2byte	0x1
 11153 117b 51       		.byte	0x51
 11154 117c 0B000000 		.4byte	.LVL241-1
 11155 1180 2C000000 		.4byte	.LFE179
 11156 1184 0400     		.2byte	0x4
 11157 1186 F3       		.byte	0xf3
 11158 1187 01       		.uleb128 0x1
 11159 1188 51       		.byte	0x51
 11160 1189 9F       		.byte	0x9f
 11161 118a 00000000 		.4byte	0
 11162 118e 00000000 		.4byte	0
 11163              	.LLST154:
 11164 1192 00000000 		.4byte	.LVL242
 11165 1196 09000000 		.4byte	.LVL243-1
 11166 119a 0100     		.2byte	0x1
 11167 119c 50       		.byte	0x50
 11168 119d 09000000 		.4byte	.LVL243-1
 11169 11a1 0A000000 		.4byte	.LVL243
 11170 11a5 0400     		.2byte	0x4
 11171 11a7 F3       		.byte	0xf3
 11172 11a8 01       		.uleb128 0x1
 11173 11a9 50       		.byte	0x50
 11174 11aa 9F       		.byte	0x9f
 11175 11ab 0A000000 		.4byte	.LVL243
 11176 11af 14000000 		.4byte	.LVL244
 11177 11b3 0100     		.2byte	0x1
 11178 11b5 50       		.byte	0x50
 11179 11b6 1C000000 		.4byte	.LVL245
 11180 11ba 1E000000 		.4byte	.LVL246
 11181 11be 0100     		.2byte	0x1
 11182 11c0 50       		.byte	0x50
 11183 11c1 00000000 		.4byte	0
 11184 11c5 00000000 		.4byte	0
 11185              	.LLST155:
ARM GAS  C:\Users\haske\AppData\Local\Temp\ccLw7Foe.s 			page 219


 11186 11c9 00000000 		.4byte	.LVL247
 11187 11cd 09000000 		.4byte	.LVL248-1
 11188 11d1 0100     		.2byte	0x1
 11189 11d3 50       		.byte	0x50
 11190 11d4 09000000 		.4byte	.LVL248-1
 11191 11d8 0A000000 		.4byte	.LVL248
 11192 11dc 0400     		.2byte	0x4
 11193 11de F3       		.byte	0xf3
 11194 11df 01       		.uleb128 0x1
 11195 11e0 50       		.byte	0x50
 11196 11e1 9F       		.byte	0x9f
 11197 11e2 0A000000 		.4byte	.LVL248
 11198 11e6 10000000 		.4byte	.LVL249
 11199 11ea 0100     		.2byte	0x1
 11200 11ec 50       		.byte	0x50
 11201 11ed 12000000 		.4byte	.LVL250
 11202 11f1 14000000 		.4byte	.LVL251
 11203 11f5 0100     		.2byte	0x1
 11204 11f7 50       		.byte	0x50
 11205 11f8 00000000 		.4byte	0
 11206 11fc 00000000 		.4byte	0
 11207              		.section	.debug_aranges,"",%progbits
 11208 0000 D4000000 		.4byte	0xd4
 11209 0004 0200     		.2byte	0x2
 11210 0006 00000000 		.4byte	.Ldebug_info0
 11211 000a 04       		.byte	0x4
 11212 000b 00       		.byte	0
 11213 000c 0000     		.2byte	0
 11214 000e 0000     		.2byte	0
 11215 0010 00000000 		.4byte	.LFB188
 11216 0014 10000000 		.4byte	.LFE188-.LFB188
 11217 0018 00000000 		.4byte	.LFB184
 11218 001c 0C000000 		.4byte	.LFE184-.LFB184
 11219 0020 00000000 		.4byte	.LFB186
 11220 0024 0A000000 		.4byte	.LFE186-.LFB186
 11221 0028 00000000 		.4byte	.LFB185
 11222 002c 0A000000 		.4byte	.LFE185-.LFB185
 11223 0030 00000000 		.4byte	.LFB187
 11224 0034 52000000 		.4byte	.LFE187-.LFB187
 11225 0038 00000000 		.4byte	.LFB182
 11226 003c 54000000 		.4byte	.LFE182-.LFB182
 11227 0040 00000000 		.4byte	.LFB165
 11228 0044 16000000 		.4byte	.LFE165-.LFB165
 11229 0048 00000000 		.4byte	.LFB183
 11230 004c 24000000 		.4byte	.LFE183-.LFB183
 11231 0050 00000000 		.4byte	.LFB166
 11232 0054 16000000 		.4byte	.LFE166-.LFB166
 11233 0058 00000000 		.4byte	.LFB168
 11234 005c 16000000 		.4byte	.LFE168-.LFB168
 11235 0060 00000000 		.4byte	.LFB169
 11236 0064 16000000 		.4byte	.LFE169-.LFB169
 11237 0068 00000000 		.4byte	.LFB170
 11238 006c 4A000000 		.4byte	.LFE170-.LFB170
 11239 0070 00000000 		.4byte	.LFB171
 11240 0074 0E000000 		.4byte	.LFE171-.LFB171
 11241 0078 00000000 		.4byte	.LFB172
 11242 007c 46000000 		.4byte	.LFE172-.LFB172
ARM GAS  C:\Users\haske\AppData\Local\Temp\ccLw7Foe.s 			page 220


 11243 0080 00000000 		.4byte	.LFB173
 11244 0084 46000000 		.4byte	.LFE173-.LFB173
 11245 0088 00000000 		.4byte	.LFB174
 11246 008c 48000000 		.4byte	.LFE174-.LFB174
 11247 0090 00000000 		.4byte	.LFB175
 11248 0094 C8020000 		.4byte	.LFE175-.LFB175
 11249 0098 00000000 		.4byte	.LFB167
 11250 009c 14000000 		.4byte	.LFE167-.LFB167
 11251 00a0 00000000 		.4byte	.LFB176
 11252 00a4 40000000 		.4byte	.LFE176-.LFB176
 11253 00a8 00000000 		.4byte	.LFB177
 11254 00ac 1C000000 		.4byte	.LFE177-.LFB177
 11255 00b0 00000000 		.4byte	.LFB178
 11256 00b4 1A000000 		.4byte	.LFE178-.LFB178
 11257 00b8 00000000 		.4byte	.LFB179
 11258 00bc 2C000000 		.4byte	.LFE179-.LFB179
 11259 00c0 00000000 		.4byte	.LFB180
 11260 00c4 20000000 		.4byte	.LFE180-.LFB180
 11261 00c8 00000000 		.4byte	.LFB181
 11262 00cc 16000000 		.4byte	.LFE181-.LFB181
 11263 00d0 00000000 		.4byte	0
 11264 00d4 00000000 		.4byte	0
 11265              		.section	.debug_ranges,"",%progbits
 11266              	.Ldebug_ranges0:
 11267 0000 00000000 		.4byte	.LFB188
 11268 0004 10000000 		.4byte	.LFE188
 11269 0008 00000000 		.4byte	.LFB184
 11270 000c 0C000000 		.4byte	.LFE184
 11271 0010 00000000 		.4byte	.LFB186
 11272 0014 0A000000 		.4byte	.LFE186
 11273 0018 00000000 		.4byte	.LFB185
 11274 001c 0A000000 		.4byte	.LFE185
 11275 0020 00000000 		.4byte	.LFB187
 11276 0024 52000000 		.4byte	.LFE187
 11277 0028 00000000 		.4byte	.LFB182
 11278 002c 54000000 		.4byte	.LFE182
 11279 0030 00000000 		.4byte	.LFB165
 11280 0034 16000000 		.4byte	.LFE165
 11281 0038 00000000 		.4byte	.LFB183
 11282 003c 24000000 		.4byte	.LFE183
 11283 0040 00000000 		.4byte	.LFB166
 11284 0044 16000000 		.4byte	.LFE166
 11285 0048 00000000 		.4byte	.LFB168
 11286 004c 16000000 		.4byte	.LFE168
 11287 0050 00000000 		.4byte	.LFB169
 11288 0054 16000000 		.4byte	.LFE169
 11289 0058 00000000 		.4byte	.LFB170
 11290 005c 4A000000 		.4byte	.LFE170
 11291 0060 00000000 		.4byte	.LFB171
 11292 0064 0E000000 		.4byte	.LFE171
 11293 0068 00000000 		.4byte	.LFB172
 11294 006c 46000000 		.4byte	.LFE172
 11295 0070 00000000 		.4byte	.LFB173
 11296 0074 46000000 		.4byte	.LFE173
 11297 0078 00000000 		.4byte	.LFB174
 11298 007c 48000000 		.4byte	.LFE174
 11299 0080 00000000 		.4byte	.LFB175
ARM GAS  C:\Users\haske\AppData\Local\Temp\ccLw7Foe.s 			page 221


 11300 0084 C8020000 		.4byte	.LFE175
 11301 0088 00000000 		.4byte	.LFB167
 11302 008c 14000000 		.4byte	.LFE167
 11303 0090 00000000 		.4byte	.LFB176
 11304 0094 40000000 		.4byte	.LFE176
 11305 0098 00000000 		.4byte	.LFB177
 11306 009c 1C000000 		.4byte	.LFE177
 11307 00a0 00000000 		.4byte	.LFB178
 11308 00a4 1A000000 		.4byte	.LFE178
 11309 00a8 00000000 		.4byte	.LFB179
 11310 00ac 2C000000 		.4byte	.LFE179
 11311 00b0 00000000 		.4byte	.LFB180
 11312 00b4 20000000 		.4byte	.LFE180
 11313 00b8 00000000 		.4byte	.LFB181
 11314 00bc 16000000 		.4byte	.LFE181
 11315 00c0 00000000 		.4byte	0
 11316 00c4 00000000 		.4byte	0
 11317              		.section	.debug_line,"",%progbits
 11318              	.Ldebug_line0:
 11319 0000 170A0000 		.section	.debug_str,"MS",%progbits,1
 11319      0200BA05 
 11319      00000201 
 11319      FB0E0D00 
 11319      01010101 
 11320              	.LASF210:
 11321 0000 70726F70 		.ascii	"prop_cnt\000"
 11321      5F636E74 
 11321      00
 11322              	.LASF15:
 11323 0009 696E7438 		.ascii	"int8_t\000"
 11323      5F7400
 11324              	.LASF181:
 11325 0010 4C565F53 		.ascii	"LV_STYLE_OPA\000"
 11325      54594C45 
 11325      5F4F5041 
 11325      00
 11326              	.LASF364:
 11327 001d 636F6C6F 		.ascii	"color_chroma_key\000"
 11327      725F6368 
 11327      726F6D61 
 11327      5F6B6579 
 11327      00
 11328              	.LASF319:
 11329 002e 6C765F6C 		.ascii	"lv_ll_node_t\000"
 11329      6C5F6E6F 
 11329      64655F74 
 11329      00
 11330              	.LASF341:
 11331 003b 6C765F64 		.ascii	"lv_disp_draw_buf_t\000"
 11331      6973705F 
 11331      64726177 
 11331      5F627566 
 11331      5F7400
 11332              	.LASF21:
 11333 004e 73697A65 		.ascii	"size_t\000"
 11333      5F7400
 11334              	.LASF28:
ARM GAS  C:\Users\haske\AppData\Local\Temp\ccLw7Foe.s 			page 222


 11335 0055 6164765F 		.ascii	"adv_w\000"
 11335      7700
 11336              	.LASF47:
 11337 005b 73697A65 		.ascii	"sizetype\000"
 11337      74797065 
 11337      00
 11338              	.LASF397:
 11339 0064 6C765F64 		.ascii	"lv_disp_t\000"
 11339      6973705F 
 11339      7400
 11340              	.LASF456:
 11341 006e 4C565F45 		.ascii	"LV_EVENT_DRAW_MAIN_BEGIN\000"
 11341      56454E54 
 11341      5F445241 
 11341      575F4D41 
 11341      494E5F42 
 11342              	.LASF542:
 11343 0087 6C765F64 		.ascii	"lv_disp_get_layer_sys\000"
 11343      6973705F 
 11343      6765745F 
 11343      6C617965 
 11343      725F7379 
 11344              	.LASF165:
 11345 009d 4C565F53 		.ascii	"LV_STYLE_LINE_DASH_GAP\000"
 11345      54594C45 
 11345      5F4C494E 
 11345      455F4441 
 11345      53485F47 
 11346              	.LASF322:
 11347 00b4 7461696C 		.ascii	"tail\000"
 11347      00
 11348              	.LASF526:
 11349 00b9 6C765F61 		.ascii	"lv_anim_set_ready_cb\000"
 11349      6E696D5F 
 11349      7365745F 
 11349      72656164 
 11349      795F6362 
 11350              	.LASF374:
 11351 00ce 6163745F 		.ascii	"act_scr\000"
 11351      73637200 
 11352              	.LASF379:
 11353 00d6 73637265 		.ascii	"screen_cnt\000"
 11353      656E5F63 
 11353      6E7400
 11354              	.LASF310:
 11355 00e1 64726177 		.ascii	"draw_bg\000"
 11355      5F626700 
 11356              	.LASF67:
 11357 00e9 6C765F6F 		.ascii	"lv_opa_t\000"
 11357      70615F74 
 11357      00
 11358              	.LASF172:
 11359 00f2 4C565F53 		.ascii	"LV_STYLE_ARC_OPA\000"
 11359      54594C45 
 11359      5F415243 
 11359      5F4F5041 
 11359      00
ARM GAS  C:\Users\haske\AppData\Local\Temp\ccLw7Foe.s 			page 223


 11360              	.LASF279:
 11361 0103 7261775F 		.ascii	"raw_end\000"
 11361      656E6400 
 11362              	.LASF19:
 11363 010b 696E7433 		.ascii	"int32_t\000"
 11363      325F7400 
 11364              	.LASF409:
 11365 0113 6C765F73 		.ascii	"lv_scrollbar_mode_t\000"
 11365      63726F6C 
 11365      6C626172 
 11365      5F6D6F64 
 11365      655F7400 
 11366              	.LASF558:
 11367 0127 6C765F64 		.ascii	"lv_disp_enable_invalidation\000"
 11367      6973705F 
 11367      656E6162 
 11367      6C655F69 
 11367      6E76616C 
 11368              	.LASF209:
 11369 0143 6861735F 		.ascii	"has_group\000"
 11369      67726F75 
 11369      7000
 11370              	.LASF465:
 11371 014d 4C565F45 		.ascii	"LV_EVENT_INSERT\000"
 11371      56454E54 
 11371      5F494E53 
 11371      45525400 
 11372              	.LASF403:
 11373 015d 66726F7A 		.ascii	"frozen\000"
 11373      656E00
 11374              	.LASF392:
 11375 0164 636F6C6F 		.ascii	"color_primary\000"
 11375      725F7072 
 11375      696D6172 
 11375      7900
 11376              	.LASF24:
 11377 0172 6C765F70 		.ascii	"lv_point_t\000"
 11377      6F696E74 
 11377      5F7400
 11378              	.LASF446:
 11379 017d 4C565F45 		.ascii	"LV_EVENT_SCROLL_END\000"
 11379      56454E54 
 11379      5F534352 
 11379      4F4C4C5F 
 11379      454E4400 
 11380              	.LASF227:
 11381 0191 72616469 		.ascii	"radius\000"
 11381      757300
 11382              	.LASF230:
 11383 0198 62675F63 		.ascii	"bg_color\000"
 11383      6F6C6F72 
 11383      00
 11384              	.LASF36:
 11385 01a1 6C696E65 		.ascii	"line_height\000"
 11385      5F686569 
 11385      67687400 
 11386              	.LASF76:
ARM GAS  C:\Users\haske\AppData\Local\Temp\ccLw7Foe.s 			page 224


 11387 01ad 70617468 		.ascii	"path_cb\000"
 11387      5F636200 
 11388              	.LASF261:
 11389 01b5 62696469 		.ascii	"bidi_dir\000"
 11389      5F646972 
 11389      00
 11390              	.LASF368:
 11391 01be 64726177 		.ascii	"draw_ctx_size\000"
 11391      5F637478 
 11391      5F73697A 
 11391      6500
 11392              	.LASF93:
 11393 01cc 6C765F61 		.ascii	"lv_anim_get_value_cb_t\000"
 11393      6E696D5F 
 11393      6765745F 
 11393      76616C75 
 11393      655F6362 
 11394              	.LASF495:
 11395 01e3 7363726F 		.ascii	"scroll_snap_x\000"
 11395      6C6C5F73 
 11395      6E61705F 
 11395      7800
 11396              	.LASF510:
 11397 01f1 4C565F53 		.ascii	"LV_SCR_LOAD_ANIM_MOVE_RIGHT\000"
 11397      43525F4C 
 11397      4F41445F 
 11397      414E494D 
 11397      5F4D4F56 
 11398              	.LASF287:
 11399 020d 4C565F44 		.ascii	"LV_DRAW_LAYER_FLAG_HAS_ALPHA\000"
 11399      5241575F 
 11399      4C415945 
 11399      525F464C 
 11399      41475F48 
 11400              	.LASF551:
 11401 022a 615F6E65 		.ascii	"a_new\000"
 11401      7700
 11402              	.LASF571:
 11403 0230 6C765F74 		.ascii	"lv_theme_apply\000"
 11403      68656D65 
 11403      5F617070 
 11403      6C7900
 11404              	.LASF525:
 11405 023f 6C765F61 		.ascii	"lv_anim_set_var\000"
 11405      6E696D5F 
 11405      7365745F 
 11405      76617200 
 11406              	.LASF470:
 11407 024f 4C565F45 		.ascii	"LV_EVENT_CHILD_CHANGED\000"
 11407      56454E54 
 11407      5F434849 
 11407      4C445F43 
 11407      48414E47 
 11408              	.LASF220:
 11409 0266 73746174 		.ascii	"state\000"
 11409      6500
 11410              	.LASF116:
ARM GAS  C:\Users\haske\AppData\Local\Temp\ccLw7Foe.s 			page 225


 11411 026c 4C565F53 		.ascii	"LV_STYLE_HEIGHT\000"
 11411      54594C45 
 11411      5F484549 
 11411      47485400 
 11412              	.LASF393:
 11413 027c 636F6C6F 		.ascii	"color_secondary\000"
 11413      725F7365 
 11413      636F6E64 
 11413      61727900 
 11414              	.LASF329:
 11415 028c 72657065 		.ascii	"repeat_count\000"
 11415      61745F63 
 11415      6F756E74 
 11415      00
 11416              	.LASF267:
 11417 0299 7A6F6F6D 		.ascii	"zoom\000"
 11417      00
 11418              	.LASF413:
 11419 029e 69735F6C 		.ascii	"is_local\000"
 11419      6F63616C 
 11419      00
 11420              	.LASF302:
 11421 02a7 64726177 		.ascii	"draw_rect\000"
 11421      5F726563 
 11421      7400
 11422              	.LASF325:
 11423 02b1 5F6C765F 		.ascii	"_lv_timer_t\000"
 11423      74696D65 
 11423      725F7400 
 11424              	.LASF560:
 11425 02bd 5F6C765F 		.ascii	"_lv_disp_get_refr_timer\000"
 11425      64697370 
 11425      5F676574 
 11425      5F726566 
 11425      725F7469 
 11426              	.LASF136:
 11427 02d5 4C565F53 		.ascii	"LV_STYLE_BG_MAIN_STOP\000"
 11427      54594C45 
 11427      5F42475F 
 11427      4D41494E 
 11427      5F53544F 
 11428              	.LASF533:
 11429 02eb 7365745F 		.ascii	"set_y_anim\000"
 11429      795F616E 
 11429      696D00
 11430              	.LASF301:
 11431 02f6 696E6974 		.ascii	"init_buf\000"
 11431      5F627566 
 11431      00
 11432              	.LASF418:
 11433 02ff 636F6E73 		.ascii	"constructor_cb\000"
 11433      74727563 
 11433      746F725F 
 11433      636200
 11434              	.LASF284:
 11435 030e 726F756E 		.ascii	"rounded\000"
 11435      64656400 
ARM GAS  C:\Users\haske\AppData\Local\Temp\ccLw7Foe.s 			page 226


 11436              	.LASF197:
 11437 0316 5F4C565F 		.ascii	"_LV_STYLE_LAST_BUILT_IN_PROP\000"
 11437      5354594C 
 11437      455F4C41 
 11437      53545F42 
 11437      55494C54 
 11438              	.LASF549:
 11439 0333 6E65775F 		.ascii	"new_scr\000"
 11439      73637200 
 11440              	.LASF300:
 11441 033b 5F6C765F 		.ascii	"_lv_draw_ctx_t\000"
 11441      64726177 
 11441      5F637478 
 11441      5F7400
 11442              	.LASF428:
 11443 034a 63757272 		.ascii	"current_target\000"
 11443      656E745F 
 11443      74617267 
 11443      657400
 11444              	.LASF448:
 11445 0359 4C565F45 		.ascii	"LV_EVENT_GESTURE\000"
 11445      56454E54 
 11445      5F474553 
 11445      54555245 
 11445      00
 11446              	.LASF441:
 11447 036a 4C565F45 		.ascii	"LV_EVENT_LONG_PRESSED\000"
 11447      56454E54 
 11447      5F4C4F4E 
 11447      475F5052 
 11447      45535345 
 11448              	.LASF232:
 11449 0380 62675F69 		.ascii	"bg_img_src\000"
 11449      6D675F73 
 11449      726300
 11450              	.LASF147:
 11451 038b 4C565F53 		.ascii	"LV_STYLE_BORDER_WIDTH\000"
 11451      54594C45 
 11451      5F424F52 
 11451      4445525F 
 11451      57494454 
 11452              	.LASF521:
 11453 03a1 64656C61 		.ascii	"delay\000"
 11453      7900
 11454              	.LASF471:
 11455 03a7 4C565F45 		.ascii	"LV_EVENT_CHILD_CREATED\000"
 11455      56454E54 
 11455      5F434849 
 11455      4C445F43 
 11455      52454154 
 11456              	.LASF559:
 11457 03be 6C765F64 		.ascii	"lv_disp_is_invalidation_enabled\000"
 11457      6973705F 
 11457      69735F69 
 11457      6E76616C 
 11457      69646174 
 11458              	.LASF129:
ARM GAS  C:\Users\haske\AppData\Local\Temp\ccLw7Foe.s 			page 227


 11459 03de 4C565F53 		.ascii	"LV_STYLE_PAD_COLUMN\000"
 11459      54594C45 
 11459      5F504144 
 11459      5F434F4C 
 11459      554D4E00 
 11460              	.LASF512:
 11461 03f2 4C565F53 		.ascii	"LV_SCR_LOAD_ANIM_MOVE_BOTTOM\000"
 11461      43525F4C 
 11461      4F41445F 
 11461      414E494D 
 11461      5F4D4F56 
 11462              	.LASF487:
 11463 040f 6368696C 		.ascii	"children\000"
 11463      6472656E 
 11463      00
 11464              	.LASF440:
 11465 0418 4C565F45 		.ascii	"LV_EVENT_SHORT_CLICKED\000"
 11465      56454E54 
 11465      5F53484F 
 11465      52545F43 
 11465      4C49434B 
 11466              	.LASF139:
 11467 042f 4C565F53 		.ascii	"LV_STYLE_BG_DITHER_MODE\000"
 11467      54594C45 
 11467      5F42475F 
 11467      44495448 
 11467      45525F4D 
 11468              	.LASF242:
 11469 0447 626F7264 		.ascii	"border_side\000"
 11469      65725F73 
 11469      69646500 
 11470              	.LASF1:
 11471 0453 5F5F7569 		.ascii	"__uint8_t\000"
 11471      6E74385F 
 11471      7400
 11472              	.LASF226:
 11473 045d 775F6C61 		.ascii	"w_layout\000"
 11473      796F7574 
 11473      00
 11474              	.LASF228:
 11475 0466 626C656E 		.ascii	"blend_mode\000"
 11475      645F6D6F 
 11475      646500
 11476              	.LASF123:
 11477 0471 4C565F53 		.ascii	"LV_STYLE_RADIUS\000"
 11477      54594C45 
 11477      5F524144 
 11477      49555300 
 11478              	.LASF344:
 11479 0481 7665725F 		.ascii	"ver_res\000"
 11479      72657300 
 11480              	.LASF222:
 11481 0489 7363725F 		.ascii	"scr_layout_inv\000"
 11481      6C61796F 
 11481      75745F69 
 11481      6E7600
 11482              	.LASF115:
ARM GAS  C:\Users\haske\AppData\Local\Temp\ccLw7Foe.s 			page 228


 11483 0498 4C565F53 		.ascii	"LV_STYLE_MAX_WIDTH\000"
 11483      54594C45 
 11483      5F4D4158 
 11483      5F574944 
 11483      544800
 11484              	.LASF88:
 11485 04ab 72756E5F 		.ascii	"run_round\000"
 11485      726F756E 
 11485      6400
 11486              	.LASF373:
 11487 04b5 73637265 		.ascii	"screens\000"
 11487      656E7300 
 11488              	.LASF142:
 11489 04bd 4C565F53 		.ascii	"LV_STYLE_BG_IMG_RECOLOR\000"
 11489      54594C45 
 11489      5F42475F 
 11489      494D475F 
 11489      5245434F 
 11490              	.LASF159:
 11491 04d5 4C565F53 		.ascii	"LV_STYLE_SHADOW_OPA\000"
 11491      54594C45 
 11491      5F534841 
 11491      444F575F 
 11491      4F504100 
 11492              	.LASF565:
 11493 04e9 6C765F65 		.ascii	"lv_event_send\000"
 11493      76656E74 
 11493      5F73656E 
 11493      6400
 11494              	.LASF190:
 11495 04f7 4C565F53 		.ascii	"LV_STYLE_TRANSFORM_HEIGHT\000"
 11495      54594C45 
 11495      5F545241 
 11495      4E53464F 
 11495      524D5F48 
 11496              	.LASF127:
 11497 0511 4C565F53 		.ascii	"LV_STYLE_PAD_RIGHT\000"
 11497      54594C45 
 11497      5F504144 
 11497      5F524947 
 11497      485400
 11498              	.LASF532:
 11499 0524 6F70615F 		.ascii	"opa_scale_anim\000"
 11499      7363616C 
 11499      655F616E 
 11499      696D00
 11500              	.LASF436:
 11501 0533 4C565F45 		.ascii	"LV_EVENT_ALL\000"
 11501      56454E54 
 11501      5F414C4C 
 11501      00
 11502              	.LASF388:
 11503 0540 6C617374 		.ascii	"last_activity_time\000"
 11503      5F616374 
 11503      69766974 
 11503      795F7469 
 11503      6D6500
ARM GAS  C:\Users\haske\AppData\Local\Temp\ccLw7Foe.s 			page 229


 11504              	.LASF9:
 11505 0553 6C6F6E67 		.ascii	"long int\000"
 11505      20696E74 
 11505      00
 11506              	.LASF187:
 11507 055c 4C565F53 		.ascii	"LV_STYLE_TRANSITION\000"
 11507      54594C45 
 11507      5F545241 
 11507      4E534954 
 11507      494F4E00 
 11508              	.LASF354:
 11509 0570 726F7461 		.ascii	"rotated\000"
 11509      74656400 
 11510              	.LASF497:
 11511 0578 7363726F 		.ascii	"scroll_dir\000"
 11511      6C6C5F64 
 11511      697200
 11512              	.LASF424:
 11513 0583 67726F75 		.ascii	"group_def\000"
 11513      705F6465 
 11513      6600
 11514              	.LASF367:
 11515 058d 64726177 		.ascii	"draw_ctx_deinit\000"
 11515      5F637478 
 11515      5F646569 
 11515      6E697400 
 11516              	.LASF143:
 11517 059d 4C565F53 		.ascii	"LV_STYLE_BG_IMG_RECOLOR_OPA\000"
 11517      54594C45 
 11517      5F42475F 
 11517      494D475F 
 11517      5245434F 
 11518              	.LASF229:
 11519 05b9 62675F6F 		.ascii	"bg_opa\000"
 11519      706100
 11520              	.LASF371:
 11521 05c0 72656672 		.ascii	"refr_timer\000"
 11521      5F74696D 
 11521      657200
 11522              	.LASF265:
 11523 05cb 6C765F64 		.ascii	"lv_draw_label_dsc_t\000"
 11523      7261775F 
 11523      6C616265 
 11523      6C5F6473 
 11523      635F7400 
 11524              	.LASF407:
 11525 05df 6C765F73 		.ascii	"lv_state_t\000"
 11525      74617465 
 11525      5F7400
 11526              	.LASF258:
 11527 05ea 73656C5F 		.ascii	"sel_bg_color\000"
 11527      62675F63 
 11527      6F6C6F72 
 11527      00
 11528              	.LASF402:
 11529 05f7 65646765 		.ascii	"edge_cb\000"
 11529      5F636200 
ARM GAS  C:\Users\haske\AppData\Local\Temp\ccLw7Foe.s 			page 230


 11530              	.LASF385:
 11531 05ff 696E765F 		.ascii	"inv_area_joined\000"
 11531      61726561 
 11531      5F6A6F69 
 11531      6E656400 
 11532              	.LASF144:
 11533 060f 4C565F53 		.ascii	"LV_STYLE_BG_IMG_TILED\000"
 11533      54594C45 
 11533      5F42475F 
 11533      494D475F 
 11533      54494C45 
 11534              	.LASF376:
 11535 0625 7363725F 		.ascii	"scr_to_load\000"
 11535      746F5F6C 
 11535      6F616400 
 11536              	.LASF564:
 11537 0631 6C765F6F 		.ascii	"lv_obj_get_disp\000"
 11537      626A5F67 
 11537      65745F64 
 11537      69737000 
 11538              	.LASF321:
 11539 0641 68656164 		.ascii	"head\000"
 11539      00
 11540              	.LASF146:
 11541 0646 4C565F53 		.ascii	"LV_STYLE_BORDER_OPA\000"
 11541      54594C45 
 11541      5F424F52 
 11541      4445525F 
 11541      4F504100 
 11542              	.LASF513:
 11543 065a 4C565F53 		.ascii	"LV_SCR_LOAD_ANIM_FADE_IN\000"
 11543      43525F4C 
 11543      4F41445F 
 11543      414E494D 
 11543      5F464144 
 11544              	.LASF581:
 11545 0673 6C765F64 		.ascii	"lv_disp_get_next\000"
 11545      6973705F 
 11545      6765745F 
 11545      6E657874 
 11545      00
 11546              	.LASF463:
 11547 0684 4C565F45 		.ascii	"LV_EVENT_DRAW_PART_END\000"
 11547      56454E54 
 11547      5F445241 
 11547      575F5041 
 11547      52545F45 
 11548              	.LASF86:
 11549 069b 6561726C 		.ascii	"early_apply\000"
 11549      795F6170 
 11549      706C7900 
 11550              	.LASF339:
 11551 06a7 6C617374 		.ascii	"last_area\000"
 11551      5F617265 
 11551      6100
 11552              	.LASF312:
 11553 06b1 62756666 		.ascii	"buffer_copy\000"
ARM GAS  C:\Users\haske\AppData\Local\Temp\ccLw7Foe.s 			page 231


 11553      65725F63 
 11553      6F707900 
 11554              	.LASF243:
 11555 06bd 6F75746C 		.ascii	"outline_color\000"
 11555      696E655F 
 11555      636F6C6F 
 11555      7200
 11556              	.LASF158:
 11557 06cb 4C565F53 		.ascii	"LV_STYLE_SHADOW_COLOR\000"
 11557      54594C45 
 11557      5F534841 
 11557      444F575F 
 11557      434F4C4F 
 11558              	.LASF538:
 11559 06e1 7363725F 		.ascii	"scr_load_anim_start\000"
 11559      6C6F6164 
 11559      5F616E69 
 11559      6D5F7374 
 11559      61727400 
 11560              	.LASF224:
 11561 06f5 7374796C 		.ascii	"style_cnt\000"
 11561      655F636E 
 11561      7400
 11562              	.LASF221:
 11563 06ff 6C61796F 		.ascii	"layout_inv\000"
 11563      75745F69 
 11563      6E7600
 11564              	.LASF2:
 11565 070a 7369676E 		.ascii	"signed char\000"
 11565      65642063 
 11565      68617200 
 11566              	.LASF16:
 11567 0716 75696E74 		.ascii	"uint8_t\000"
 11567      385F7400 
 11568              	.LASF307:
 11569 071e 64726177 		.ascii	"draw_line\000"
 11569      5F6C696E 
 11569      6500
 11570              	.LASF343:
 11571 0728 686F725F 		.ascii	"hor_res\000"
 11571      72657300 
 11572              	.LASF576:
 11573 0730 6C765F61 		.ascii	"lv_anim_del\000"
 11573      6E696D5F 
 11573      64656C00 
 11574              	.LASF524:
 11575 073c 64757261 		.ascii	"duration\000"
 11575      74696F6E 
 11575      00
 11576              	.LASF237:
 11577 0745 62675F69 		.ascii	"bg_img_tiled\000"
 11577      6D675F74 
 11577      696C6564 
 11577      00
 11578              	.LASF135:
 11579 0752 4C565F53 		.ascii	"LV_STYLE_BG_GRAD_DIR\000"
 11579      54594C45 
ARM GAS  C:\Users\haske\AppData\Local\Temp\ccLw7Foe.s 			page 232


 11579      5F42475F 
 11579      47524144 
 11579      5F444952 
 11580              	.LASF35:
 11581 0767 6765745F 		.ascii	"get_glyph_bitmap\000"
 11581      676C7970 
 11581      685F6269 
 11581      746D6170 
 11581      00
 11582              	.LASF72:
 11583 0778 73746172 		.ascii	"start_cb\000"
 11583      745F6362 
 11583      00
 11584              	.LASF282:
 11585 0781 656E645F 		.ascii	"end_angle\000"
 11585      616E676C 
 11585      6500
 11586              	.LASF62:
 11587 078b 626C7565 		.ascii	"blue\000"
 11587      00
 11588              	.LASF235:
 11589 0790 62675F69 		.ascii	"bg_img_opa\000"
 11589      6D675F6F 
 11589      706100
 11590              	.LASF450:
 11591 079b 4C565F45 		.ascii	"LV_EVENT_FOCUSED\000"
 11591      56454E54 
 11591      5F464F43 
 11591      55534544 
 11591      00
 11592              	.LASF77:
 11593 07ac 73746172 		.ascii	"start_value\000"
 11593      745F7661 
 11593      6C756500 
 11594              	.LASF121:
 11595 07b8 4C565F53 		.ascii	"LV_STYLE_ALIGN\000"
 11595      54594C45 
 11595      5F414C49 
 11595      474E00
 11596              	.LASF3:
 11597 07c7 756E7369 		.ascii	"unsigned char\000"
 11597      676E6564 
 11597      20636861 
 11597      7200
 11598              	.LASF377:
 11599 07d5 746F705F 		.ascii	"top_layer\000"
 11599      6C617965 
 11599      7200
 11600              	.LASF575:
 11601 07df 5F6C765F 		.ascii	"_lv_inv_area\000"
 11601      696E765F 
 11601      61726561 
 11601      00
 11602              	.LASF480:
 11603 07ec 4C565F45 		.ascii	"LV_EVENT_GET_SELF_SIZE\000"
 11603      56454E54 
 11603      5F474554 
ARM GAS  C:\Users\haske\AppData\Local\Temp\ccLw7Foe.s 			page 233


 11603      5F53454C 
 11603      465F5349 
 11604              	.LASF457:
 11605 0803 4C565F45 		.ascii	"LV_EVENT_DRAW_MAIN\000"
 11605      56454E54 
 11605      5F445241 
 11605      575F4D41 
 11605      494E00
 11606              	.LASF509:
 11607 0816 4C565F53 		.ascii	"LV_SCR_LOAD_ANIM_MOVE_LEFT\000"
 11607      43525F4C 
 11607      4F41445F 
 11607      414E494D 
 11607      5F4D4F56 
 11608              	.LASF280:
 11609 0831 6C765F64 		.ascii	"lv_draw_line_dsc_t\000"
 11609      7261775F 
 11609      6C696E65 
 11609      5F647363 
 11609      5F7400
 11610              	.LASF195:
 11611 0844 4C565F53 		.ascii	"LV_STYLE_TRANSFORM_PIVOT_X\000"
 11611      54594C45 
 11611      5F545241 
 11611      4E53464F 
 11611      524D5F50 
 11612              	.LASF196:
 11613 085f 4C565F53 		.ascii	"LV_STYLE_TRANSFORM_PIVOT_Y\000"
 11613      54594C45 
 11613      5F545241 
 11613      4E53464F 
 11613      524D5F50 
 11614              	.LASF486:
 11615 087a 6C765F67 		.ascii	"lv_group_t\000"
 11615      726F7570 
 11615      5F7400
 11616              	.LASF500:
 11617 0885 5F6C765F 		.ascii	"_lv_obj_spec_attr_t\000"
 11617      6F626A5F 
 11617      73706563 
 11617      5F617474 
 11617      725F7400 
 11618              	.LASF161:
 11619 0899 4C565F53 		.ascii	"LV_STYLE_IMG_RECOLOR\000"
 11619      54594C45 
 11619      5F494D47 
 11619      5F524543 
 11619      4F4C4F52 
 11620              	.LASF295:
 11621 08ae 61726561 		.ascii	"area_act\000"
 11621      5F616374 
 11621      00
 11622              	.LASF508:
 11623 08b7 4C565F53 		.ascii	"LV_SCR_LOAD_ANIM_OVER_BOTTOM\000"
 11623      43525F4C 
 11623      4F41445F 
 11623      414E494D 
ARM GAS  C:\Users\haske\AppData\Local\Temp\ccLw7Foe.s 			page 234


 11623      5F4F5645 
 11624              	.LASF169:
 11625 08d4 4C565F53 		.ascii	"LV_STYLE_ARC_WIDTH\000"
 11625      54594C45 
 11625      5F415243 
 11625      5F574944 
 11625      544800
 11626              	.LASF31:
 11627 08e7 6F66735F 		.ascii	"ofs_x\000"
 11627      7800
 11628              	.LASF32:
 11629 08ed 6F66735F 		.ascii	"ofs_y\000"
 11629      7900
 11630              	.LASF98:
 11631 08f3 6C765F62 		.ascii	"lv_base_dir_t\000"
 11631      6173655F 
 11631      6469725F 
 11631      7400
 11632              	.LASF382:
 11633 0901 72656E64 		.ascii	"rendering_in_progress\000"
 11633      6572696E 
 11633      675F696E 
 11633      5F70726F 
 11633      67726573 
 11634              	.LASF225:
 11635 0917 685F6C61 		.ascii	"h_layout\000"
 11635      796F7574 
 11635      00
 11636              	.LASF338:
 11637 0920 666C7573 		.ascii	"flushing_last\000"
 11637      68696E67 
 11637      5F6C6173 
 11637      7400
 11638              	.LASF44:
 11639 092e 5F426F6F 		.ascii	"_Bool\000"
 11639      6C00
 11640              	.LASF494:
 11641 0934 7363726F 		.ascii	"scrollbar_mode\000"
 11641      6C6C6261 
 11641      725F6D6F 
 11641      646500
 11642              	.LASF346:
 11643 0943 70687973 		.ascii	"physical_ver_res\000"
 11643      6963616C 
 11643      5F766572 
 11643      5F726573 
 11643      00
 11644              	.LASF298:
 11645 0954 6F726967 		.ascii	"original\000"
 11645      696E616C 
 11645      00
 11646              	.LASF191:
 11647 095d 4C565F53 		.ascii	"LV_STYLE_TRANSLATE_X\000"
 11647      54594C45 
 11647      5F545241 
 11647      4E534C41 
 11647      54455F58 
ARM GAS  C:\Users\haske\AppData\Local\Temp\ccLw7Foe.s 			page 235


 11648              	.LASF192:
 11649 0972 4C565F53 		.ascii	"LV_STYLE_TRANSLATE_Y\000"
 11649      54594C45 
 11649      5F545241 
 11649      4E534C41 
 11649      54455F59 
 11650              	.LASF583:
 11651 0987 474E5520 		.ascii	"GNU C11 5.4.1 20160609 (release) [ARM/embedded-5-br"
 11651      43313120 
 11651      352E342E 
 11651      31203230 
 11651      31363036 
 11652 09ba 616E6368 		.ascii	"anch revision 237715] -mcpu=cortex-m0plus -mthumb -"
 11652      20726576 
 11652      6973696F 
 11652      6E203233 
 11652      37373135 
 11653 09ed 67202D4F 		.ascii	"g -Og -ffunction-sections -ffat-lto-objects\000"
 11653      67202D66 
 11653      66756E63 
 11653      74696F6E 
 11653      2D736563 
 11654              	.LASF433:
 11655 0a19 73746F70 		.ascii	"stop_processing\000"
 11655      5F70726F 
 11655      63657373 
 11655      696E6700 
 11656              	.LASF203:
 11657 0a29 76616C75 		.ascii	"value\000"
 11657      6500
 11658              	.LASF219:
 11659 0a2f 666C6167 		.ascii	"flags\000"
 11659      7300
 11660              	.LASF289:
 11661 0a35 6C765F64 		.ascii	"lv_draw_layer_flags_t\000"
 11661      7261775F 
 11661      6C617965 
 11661      725F666C 
 11661      6167735F 
 11662              	.LASF520:
 11663 0a4b 6C765F73 		.ascii	"lv_scr_load_anim_t\000"
 11663      63725F6C 
 11663      6F61645F 
 11663      616E696D 
 11663      5F7400
 11664              	.LASF48:
 11665 0a5e 63686172 		.ascii	"char\000"
 11665      00
 11666              	.LASF273:
 11667 0a63 6C765F64 		.ascii	"lv_draw_img_dsc_t\000"
 11667      7261775F 
 11667      696D675F 
 11667      6473635F 
 11667      7400
 11668              	.LASF90:
 11669 0a75 6C765F61 		.ascii	"lv_anim_exec_xcb_t\000"
 11669      6E696D5F 
ARM GAS  C:\Users\haske\AppData\Local\Temp\ccLw7Foe.s 			page 236


 11669      65786563 
 11669      5F786362 
 11669      5F7400
 11670              	.LASF39:
 11671 0a88 756E6465 		.ascii	"underline_position\000"
 11671      726C696E 
 11671      655F706F 
 11671      73697469 
 11671      6F6E00
 11672              	.LASF317:
 11673 0a9b 6C617965 		.ascii	"layer_instance_size\000"
 11673      725F696E 
 11673      7374616E 
 11673      63655F73 
 11673      697A6500 
 11674              	.LASF582:
 11675 0aaf 6C765F74 		.ascii	"lv_tick_get\000"
 11675      69636B5F 
 11675      67657400 
 11676              	.LASF276:
 11677 0abb 64617368 		.ascii	"dash_gap\000"
 11677      5F676170 
 11677      00
 11678              	.LASF309:
 11679 0ac4 64726177 		.ascii	"draw_transform\000"
 11679      5F747261 
 11679      6E73666F 
 11679      726D00
 11680              	.LASF350:
 11681 0ad3 64697265 		.ascii	"direct_mode\000"
 11681      63745F6D 
 11681      6F646500 
 11682              	.LASF454:
 11683 0adf 4C565F45 		.ascii	"LV_EVENT_COVER_CHECK\000"
 11683      56454E54 
 11683      5F434F56 
 11683      45525F43 
 11683      4845434B 
 11684              	.LASF130:
 11685 0af4 4C565F53 		.ascii	"LV_STYLE_BASE_DIR\000"
 11685      54594C45 
 11685      5F424153 
 11685      455F4449 
 11685      5200
 11686              	.LASF216:
 11687 0b06 73706563 		.ascii	"spec_attr\000"
 11687      5F617474 
 11687      7200
 11688              	.LASF152:
 11689 0b10 4C565F53 		.ascii	"LV_STYLE_OUTLINE_OPA\000"
 11689      54594C45 
 11689      5F4F5554 
 11689      4C494E45 
 11689      5F4F5041 
 11690              	.LASF108:
 11691 0b25 73746F70 		.ascii	"stops_count\000"
 11691      735F636F 
ARM GAS  C:\Users\haske\AppData\Local\Temp\ccLw7Foe.s 			page 237


 11691      756E7400 
 11692              	.LASF353:
 11693 0b31 616E7469 		.ascii	"antialiasing\000"
 11693      616C6961 
 11693      73696E67 
 11693      00
 11694              	.LASF370:
 11695 0b3e 64726976 		.ascii	"driver\000"
 11695      657200
 11696              	.LASF6:
 11697 0b45 5F5F7569 		.ascii	"__uint16_t\000"
 11697      6E743136 
 11697      5F7400
 11698              	.LASF517:
 11699 0b50 4C565F53 		.ascii	"LV_SCR_LOAD_ANIM_OUT_RIGHT\000"
 11699      43525F4C 
 11699      4F41445F 
 11699      414E494D 
 11699      5F4F5554 
 11700              	.LASF573:
 11701 0b6b 6C765F64 		.ascii	"lv_disp_get_ver_res\000"
 11701      6973705F 
 11701      6765745F 
 11701      7665725F 
 11701      72657300 
 11702              	.LASF554:
 11703 0b7f 6C765F64 		.ascii	"lv_disp_get_inactive_time\000"
 11703      6973705F 
 11703      6765745F 
 11703      696E6163 
 11703      74697665 
 11704              	.LASF453:
 11705 0b99 4C565F45 		.ascii	"LV_EVENT_HIT_TEST\000"
 11705      56454E54 
 11705      5F484954 
 11705      5F544553 
 11705      5400
 11706              	.LASF504:
 11707 0bab 4C565F53 		.ascii	"LV_SCR_LOAD_ANIM_NONE\000"
 11707      43525F4C 
 11707      4F41445F 
 11707      414E494D 
 11707      5F4E4F4E 
 11708              	.LASF245:
 11709 0bc1 6F75746C 		.ascii	"outline_pad\000"
 11709      696E655F 
 11709      70616400 
 11710              	.LASF318:
 11711 0bcd 6C765F64 		.ascii	"lv_draw_ctx_t\000"
 11711      7261775F 
 11711      6374785F 
 11711      7400
 11712              	.LASF132:
 11713 0bdb 4C565F53 		.ascii	"LV_STYLE_BG_COLOR\000"
 11713      54594C45 
 11713      5F42475F 
 11713      434F4C4F 
ARM GAS  C:\Users\haske\AppData\Local\Temp\ccLw7Foe.s 			page 238


 11713      5200
 11714              	.LASF162:
 11715 0bed 4C565F53 		.ascii	"LV_STYLE_IMG_RECOLOR_OPA\000"
 11715      54594C45 
 11715      5F494D47 
 11715      5F524543 
 11715      4F4C4F52 
 11716              	.LASF238:
 11717 0c06 626F7264 		.ascii	"border_color\000"
 11717      65725F63 
 11717      6F6C6F72 
 11717      00
 11718              	.LASF572:
 11719 0c13 6C765F64 		.ascii	"lv_disp_get_hor_res\000"
 11719      6973705F 
 11719      6765745F 
 11719      686F725F 
 11719      72657300 
 11720              	.LASF188:
 11721 0c27 4C565F53 		.ascii	"LV_STYLE_BLEND_MODE\000"
 11721      54594C45 
 11721      5F424C45 
 11721      4E445F4D 
 11721      4F444500 
 11722              	.LASF26:
 11723 0c3b 6C765F64 		.ascii	"lv_dir_t\000"
 11723      69725F74 
 11723      00
 11724              	.LASF475:
 11725 0c44 4C565F45 		.ascii	"LV_EVENT_SCREEN_LOADED\000"
 11725      56454E54 
 11725      5F534352 
 11725      45454E5F 
 11725      4C4F4144 
 11726              	.LASF202:
 11727 0c5b 70726F70 		.ascii	"prop\000"
 11727      00
 11728              	.LASF207:
 11729 0c60 636F6E73 		.ascii	"const_props\000"
 11729      745F7072 
 11729      6F707300 
 11730              	.LASF415:
 11731 0c6c 5F6C765F 		.ascii	"_lv_obj_style_t\000"
 11731      6F626A5F 
 11731      7374796C 
 11731      655F7400 
 11732              	.LASF241:
 11733 0c7c 626F7264 		.ascii	"border_post\000"
 11733      65725F70 
 11733      6F737400 
 11734              	.LASF490:
 11735 0c88 6576656E 		.ascii	"event_dsc\000"
 11735      745F6473 
 11735      6300
 11736              	.LASF337:
 11737 0c92 666C7573 		.ascii	"flushing\000"
 11737      68696E67 
ARM GAS  C:\Users\haske\AppData\Local\Temp\ccLw7Foe.s 			page 239


 11737      00
 11738              	.LASF164:
 11739 0c9b 4C565F53 		.ascii	"LV_STYLE_LINE_DASH_WIDTH\000"
 11739      54594C45 
 11739      5F4C494E 
 11739      455F4441 
 11739      53485F57 
 11740              	.LASF73:
 11741 0cb4 72656164 		.ascii	"ready_cb\000"
 11741      795F6362 
 11741      00
 11742              	.LASF553:
 11743 0cbd 6C765F64 		.ascii	"lv_disp_load_scr\000"
 11743      6973705F 
 11743      6C6F6164 
 11743      5F736372 
 11743      00
 11744              	.LASF249:
 11745 0cce 73686164 		.ascii	"shadow_ofs_x\000"
 11745      6F775F6F 
 11745      66735F78 
 11745      00
 11746              	.LASF189:
 11747 0cdb 4C565F53 		.ascii	"LV_STYLE_TRANSFORM_WIDTH\000"
 11747      54594C45 
 11747      5F545241 
 11747      4E53464F 
 11747      524D5F57 
 11748              	.LASF331:
 11749 0cf4 6C765F74 		.ascii	"lv_timer_t\000"
 11749      696D6572 
 11749      5F7400
 11750              	.LASF489:
 11751 0cff 67726F75 		.ascii	"group_p\000"
 11751      705F7000 
 11752              	.LASF201:
 11753 0d07 6C765F73 		.ascii	"lv_style_prop_t\000"
 11753      74796C65 
 11753      5F70726F 
 11753      705F7400 
 11754              	.LASF277:
 11755 0d17 726F756E 		.ascii	"round_start\000"
 11755      645F7374 
 11755      61727400 
 11756              	.LASF491:
 11757 0d23 7363726F 		.ascii	"scroll\000"
 11757      6C6C00
 11758              	.LASF41:
 11759 0d2a 66616C6C 		.ascii	"fallback\000"
 11759      6261636B 
 11759      00
 11760              	.LASF206:
 11761 0d33 76616C75 		.ascii	"values_and_props\000"
 11761      65735F61 
 11761      6E645F70 
 11761      726F7073 
 11761      00
ARM GAS  C:\Users\haske\AppData\Local\Temp\ccLw7Foe.s 			page 240


 11762              	.LASF502:
 11763 0d44 6C765F74 		.ascii	"lv_theme_apply_cb_t\000"
 11763      68656D65 
 11763      5F617070 
 11763      6C795F63 
 11763      625F7400 
 11764              	.LASF352:
 11765 0d58 73775F72 		.ascii	"sw_rotate\000"
 11765      6F746174 
 11765      6500
 11766              	.LASF511:
 11767 0d62 4C565F53 		.ascii	"LV_SCR_LOAD_ANIM_MOVE_TOP\000"
 11767      43525F4C 
 11767      4F41445F 
 11767      414E494D 
 11767      5F4D4F56 
 11768              	.LASF499:
 11769 0d7c 6C617965 		.ascii	"layer_type\000"
 11769      725F7479 
 11769      706500
 11770              	.LASF186:
 11771 0d87 4C565F53 		.ascii	"LV_STYLE_ANIM_SPEED\000"
 11771      54594C45 
 11771      5F414E49 
 11771      4D5F5350 
 11771      45454400 
 11772              	.LASF25:
 11773 0d9b 6C765F61 		.ascii	"lv_area_t\000"
 11773      7265615F 
 11773      7400
 11774              	.LASF313:
 11775 0da5 6C617965 		.ascii	"layer_init\000"
 11775      725F696E 
 11775      697400
 11776              	.LASF150:
 11777 0db0 4C565F53 		.ascii	"LV_STYLE_OUTLINE_WIDTH\000"
 11777      54594C45 
 11777      5F4F5554 
 11777      4C494E45 
 11777      5F574944 
 11778              	.LASF394:
 11779 0dc7 666F6E74 		.ascii	"font_small\000"
 11779      5F736D61 
 11779      6C6C00
 11780              	.LASF485:
 11781 0dd2 6C765F67 		.ascii	"lv_group_edge_cb_t\000"
 11781      726F7570 
 11781      5F656467 
 11781      655F6362 
 11781      5F7400
 11782              	.LASF569:
 11783 0de5 6C765F64 		.ascii	"lv_disp_get_default\000"
 11783      6973705F 
 11783      6765745F 
 11783      64656661 
 11783      756C7400 
 11784              	.LASF537:
ARM GAS  C:\Users\haske\AppData\Local\Temp\ccLw7Foe.s 			page 241


 11785 0df9 6F6C645F 		.ascii	"old_scr\000"
 11785      73637200 
 11786              	.LASF562:
 11787 0e01 6C765F6F 		.ascii	"lv_obj_set_y\000"
 11787      626A5F73 
 11787      65745F79 
 11787      00
 11788              	.LASF443:
 11789 0e0e 4C565F45 		.ascii	"LV_EVENT_CLICKED\000"
 11789      56454E54 
 11789      5F434C49 
 11789      434B4544 
 11789      00
 11790              	.LASF112:
 11791 0e1f 4C565F53 		.ascii	"LV_STYLE_PROP_INV\000"
 11791      54594C45 
 11791      5F50524F 
 11791      505F494E 
 11791      5600
 11792              	.LASF178:
 11793 0e31 4C565F53 		.ascii	"LV_STYLE_TEXT_LINE_SPACE\000"
 11793      54594C45 
 11793      5F544558 
 11793      545F4C49 
 11793      4E455F53 
 11794              	.LASF435:
 11795 0e4a 6C765F6F 		.ascii	"lv_obj_class_t\000"
 11795      626A5F63 
 11795      6C617373 
 11795      5F7400
 11796              	.LASF204:
 11797 0e59 6C765F73 		.ascii	"lv_style_const_prop_t\000"
 11797      74796C65 
 11797      5F636F6E 
 11797      73745F70 
 11797      726F705F 
 11798              	.LASF458:
 11799 0e6f 4C565F45 		.ascii	"LV_EVENT_DRAW_MAIN_END\000"
 11799      56454E54 
 11799      5F445241 
 11799      575F4D41 
 11799      494E5F45 
 11800              	.LASF215:
 11801 0e86 70617265 		.ascii	"parent\000"
 11801      6E7400
 11802              	.LASF351:
 11803 0e8d 66756C6C 		.ascii	"full_refresh\000"
 11803      5F726566 
 11803      72657368 
 11803      00
 11804              	.LASF278:
 11805 0e9a 726F756E 		.ascii	"round_end\000"
 11805      645F656E 
 11805      6400
 11806              	.LASF91:
 11807 0ea4 6C765F61 		.ascii	"lv_anim_ready_cb_t\000"
 11807      6E696D5F 
ARM GAS  C:\Users\haske\AppData\Local\Temp\ccLw7Foe.s 			page 242


 11807      72656164 
 11807      795F6362 
 11807      5F7400
 11808              	.LASF283:
 11809 0eb7 696D675F 		.ascii	"img_src\000"
 11809      73726300 
 11810              	.LASF414:
 11811 0ebf 69735F74 		.ascii	"is_trans\000"
 11811      72616E73 
 11811      00
 11812              	.LASF251:
 11813 0ec8 73686164 		.ascii	"shadow_spread\000"
 11813      6F775F73 
 11813      70726561 
 11813      6400
 11814              	.LASF185:
 11815 0ed6 4C565F53 		.ascii	"LV_STYLE_ANIM_TIME\000"
 11815      54594C45 
 11815      5F414E49 
 11815      4D5F5449 
 11815      4D4500
 11816              	.LASF82:
 11817 0ee9 706C6179 		.ascii	"playback_delay\000"
 11817      6261636B 
 11817      5F64656C 
 11817      617900
 11818              	.LASF125:
 11819 0ef8 4C565F53 		.ascii	"LV_STYLE_PAD_BOTTOM\000"
 11819      54594C45 
 11819      5F504144 
 11819      5F424F54 
 11819      544F4D00 
 11820              	.LASF421:
 11821 0f0c 77696474 		.ascii	"width_def\000"
 11821      685F6465 
 11821      6600
 11822              	.LASF358:
 11823 0f16 636C6561 		.ascii	"clear_cb\000"
 11823      725F6362 
 11823      00
 11824              	.LASF133:
 11825 0f1f 4C565F53 		.ascii	"LV_STYLE_BG_OPA\000"
 11825      54594C45 
 11825      5F42475F 
 11825      4F504100 
 11826              	.LASF168:
 11827 0f2f 4C565F53 		.ascii	"LV_STYLE_LINE_OPA\000"
 11827      54594C45 
 11827      5F4C494E 
 11827      455F4F50 
 11827      4100
 11828              	.LASF211:
 11829 0f41 6C765F73 		.ascii	"lv_style_t\000"
 11829      74796C65 
 11829      5F7400
 11830              	.LASF527:
 11831 0f4c 6C765F61 		.ascii	"lv_anim_set_start_cb\000"
ARM GAS  C:\Users\haske\AppData\Local\Temp\ccLw7Foe.s 			page 243


 11831      6E696D5F 
 11831      7365745F 
 11831      73746172 
 11831      745F6362 
 11832              	.LASF577:
 11833 0f61 6C765F6F 		.ascii	"lv_obj_set_pos\000"
 11833      626A5F73 
 11833      65745F70 
 11833      6F7300
 11834              	.LASF217:
 11835 0f70 7374796C 		.ascii	"styles\000"
 11835      657300
 11836              	.LASF99:
 11837 0f77 6C765F62 		.ascii	"lv_blend_mode_t\000"
 11837      6C656E64 
 11837      5F6D6F64 
 11837      655F7400 
 11838              	.LASF488:
 11839 0f87 6368696C 		.ascii	"child_cnt\000"
 11839      645F636E 
 11839      7400
 11840              	.LASF160:
 11841 0f91 4C565F53 		.ascii	"LV_STYLE_IMG_OPA\000"
 11841      54594C45 
 11841      5F494D47 
 11841      5F4F5041 
 11841      00
 11842              	.LASF193:
 11843 0fa2 4C565F53 		.ascii	"LV_STYLE_TRANSFORM_ZOOM\000"
 11843      54594C45 
 11843      5F545241 
 11843      4E53464F 
 11843      524D5F5A 
 11844              	.LASF452:
 11845 0fba 4C565F45 		.ascii	"LV_EVENT_LEAVE\000"
 11845      56454E54 
 11845      5F4C4541 
 11845      564500
 11846              	.LASF95:
 11847 0fc9 6C765F61 		.ascii	"lv_anim_t\000"
 11847      6E696D5F 
 11847      7400
 11848              	.LASF11:
 11849 0fd3 6C6F6E67 		.ascii	"long unsigned int\000"
 11849      20756E73 
 11849      69676E65 
 11849      6420696E 
 11849      7400
 11850              	.LASF496:
 11851 0fe5 7363726F 		.ascii	"scroll_snap_y\000"
 11851      6C6C5F73 
 11851      6E61705F 
 11851      7900
 11852              	.LASF212:
 11853 0ff3 6C765F69 		.ascii	"lv_img_cf_t\000"
 11853      6D675F63 
 11853      665F7400 
ARM GAS  C:\Users\haske\AppData\Local\Temp\ccLw7Foe.s 			page 244


 11854              	.LASF175:
 11855 0fff 4C565F53 		.ascii	"LV_STYLE_TEXT_OPA\000"
 11855      54594C45 
 11855      5F544558 
 11855      545F4F50 
 11855      4100
 11856              	.LASF281:
 11857 1011 73746172 		.ascii	"start_angle\000"
 11857      745F616E 
 11857      676C6500 
 11858              	.LASF430:
 11859 101d 70617261 		.ascii	"param\000"
 11859      6D00
 11860              	.LASF427:
 11861 1023 74617267 		.ascii	"target\000"
 11861      657400
 11862              	.LASF380:
 11863 102a 64726177 		.ascii	"draw_prev_over_act\000"
 11863      5F707265 
 11863      765F6F76 
 11863      65725F61 
 11863      637400
 11864              	.LASF316:
 11865 103d 6C617965 		.ascii	"layer_destroy\000"
 11865      725F6465 
 11865      7374726F 
 11865      7900
 11866              	.LASF556:
 11867 104b 6C765F64 		.ascii	"lv_disp_trig_activity\000"
 11867      6973705F 
 11867      74726967 
 11867      5F616374 
 11867      69766974 
 11868              	.LASF275:
 11869 1061 64617368 		.ascii	"dash_width\000"
 11869      5F776964 
 11869      746800
 11870              	.LASF340:
 11871 106c 6C617374 		.ascii	"last_part\000"
 11871      5F706172 
 11871      7400
 11872              	.LASF423:
 11873 1076 65646974 		.ascii	"editable\000"
 11873      61626C65 
 11873      00
 11874              	.LASF372:
 11875 107f 7468656D 		.ascii	"theme\000"
 11875      6500
 11876              	.LASF347:
 11877 1085 6F666673 		.ascii	"offset_x\000"
 11877      65745F78 
 11877      00
 11878              	.LASF348:
 11879 108e 6F666673 		.ascii	"offset_y\000"
 11879      65745F79 
 11879      00
 11880              	.LASF27:
ARM GAS  C:\Users\haske\AppData\Local\Temp\ccLw7Foe.s 			page 245


 11881 1097 7265736F 		.ascii	"resolved_font\000"
 11881      6C766564 
 11881      5F666F6E 
 11881      7400
 11882              	.LASF506:
 11883 10a5 4C565F53 		.ascii	"LV_SCR_LOAD_ANIM_OVER_RIGHT\000"
 11883      43525F4C 
 11883      4F41445F 
 11883      414E494D 
 11883      5F4F5645 
 11884              	.LASF399:
 11885 10c1 6F626A5F 		.ascii	"obj_ll\000"
 11885      6C6C00
 11886              	.LASF303:
 11887 10c8 64726177 		.ascii	"draw_arc\000"
 11887      5F617263 
 11887      00
 11888              	.LASF167:
 11889 10d1 4C565F53 		.ascii	"LV_STYLE_LINE_COLOR\000"
 11889      54594C45 
 11889      5F4C494E 
 11889      455F434F 
 11889      4C4F5200 
 11890              	.LASF50:
 11891 10e5 4C565F4F 		.ascii	"LV_OPA_0\000"
 11891      50415F30 
 11891      00
 11892              	.LASF128:
 11893 10ee 4C565F53 		.ascii	"LV_STYLE_PAD_ROW\000"
 11893      54594C45 
 11893      5F504144 
 11893      5F524F57 
 11893      00
 11894              	.LASF332:
 11895 10ff 5F6C765F 		.ascii	"_lv_disp_draw_buf_t\000"
 11895      64697370 
 11895      5F647261 
 11895      775F6275 
 11895      665F7400 
 11896              	.LASF543:
 11897 1113 6C765F64 		.ascii	"lv_disp_get_theme\000"
 11897      6973705F 
 11897      6765745F 
 11897      7468656D 
 11897      6500
 11898              	.LASF291:
 11899 1125 6275665F 		.ascii	"buf_area\000"
 11899      61726561 
 11899      00
 11900              	.LASF89:
 11901 112e 73746172 		.ascii	"start_cb_called\000"
 11901      745F6362 
 11901      5F63616C 
 11901      6C656400 
 11902              	.LASF269:
 11903 113e 7265636F 		.ascii	"recolor\000"
 11903      6C6F7200 
ARM GAS  C:\Users\haske\AppData\Local\Temp\ccLw7Foe.s 			page 246


 11904              	.LASF466:
 11905 1146 4C565F45 		.ascii	"LV_EVENT_REFRESH\000"
 11905      56454E54 
 11905      5F524546 
 11905      52455348 
 11905      00
 11906              	.LASF425:
 11907 1157 696E7374 		.ascii	"instance_size\000"
 11907      616E6365 
 11907      5F73697A 
 11907      6500
 11908              	.LASF266:
 11909 1165 616E676C 		.ascii	"angle\000"
 11909      6500
 11910              	.LASF126:
 11911 116b 4C565F53 		.ascii	"LV_STYLE_PAD_LEFT\000"
 11911      54594C45 
 11911      5F504144 
 11911      5F4C4546 
 11911      5400
 11912              	.LASF366:
 11913 117d 64726177 		.ascii	"draw_ctx_init\000"
 11913      5F637478 
 11913      5F696E69 
 11913      7400
 11914              	.LASF156:
 11915 118b 4C565F53 		.ascii	"LV_STYLE_SHADOW_OFS_Y\000"
 11915      54594C45 
 11915      5F534841 
 11915      444F575F 
 11915      4F46535F 
 11916              	.LASF472:
 11917 11a1 4C565F45 		.ascii	"LV_EVENT_CHILD_DELETED\000"
 11917      56454E54 
 11917      5F434849 
 11917      4C445F44 
 11917      454C4554 
 11918              	.LASF523:
 11919 11b8 6C765F61 		.ascii	"lv_anim_set_time\000"
 11919      6E696D5F 
 11919      7365745F 
 11919      74696D65 
 11919      00
 11920              	.LASF455:
 11921 11c9 4C565F45 		.ascii	"LV_EVENT_REFR_EXT_DRAW_SIZE\000"
 11921      56454E54 
 11921      5F524546 
 11921      525F4558 
 11921      545F4452 
 11922              	.LASF304:
 11923 11e5 64726177 		.ascii	"draw_img_decoded\000"
 11923      5F696D67 
 11923      5F646563 
 11923      6F646564 
 11923      00
 11924              	.LASF324:
 11925 11f6 6C765F74 		.ascii	"lv_timer_cb_t\000"
ARM GAS  C:\Users\haske\AppData\Local\Temp\ccLw7Foe.s 			page 247


 11925      696D6572 
 11925      5F63625F 
 11925      7400
 11926              	.LASF184:
 11927 1204 4C565F53 		.ascii	"LV_STYLE_ANIM\000"
 11927      54594C45 
 11927      5F414E49 
 11927      4D00
 11928              	.LASF534:
 11929 1212 7365745F 		.ascii	"set_x_anim\000"
 11929      785F616E 
 11929      696D00
 11930              	.LASF119:
 11931 121d 4C565F53 		.ascii	"LV_STYLE_X\000"
 11931      54594C45 
 11931      5F5800
 11932              	.LASF505:
 11933 1228 4C565F53 		.ascii	"LV_SCR_LOAD_ANIM_OVER_LEFT\000"
 11933      43525F4C 
 11933      4F41445F 
 11933      414E494D 
 11933      5F4F5645 
 11934              	.LASF180:
 11935 1243 4C565F53 		.ascii	"LV_STYLE_TEXT_ALIGN\000"
 11935      54594C45 
 11935      5F544558 
 11935      545F414C 
 11935      49474E00 
 11936              	.LASF519:
 11937 1257 4C565F53 		.ascii	"LV_SCR_LOAD_ANIM_OUT_BOTTOM\000"
 11937      43525F4C 
 11937      4F41445F 
 11937      414E494D 
 11937      5F4F5554 
 11938              	.LASF69:
 11939 1273 5F6C765F 		.ascii	"_lv_font_t\000"
 11939      666F6E74 
 11939      5F7400
 11940              	.LASF360:
 11941 127e 77616974 		.ascii	"wait_cb\000"
 11941      5F636200 
 11942              	.LASF10:
 11943 1286 5F5F7569 		.ascii	"__uint32_t\000"
 11943      6E743332 
 11943      5F7400
 11944              	.LASF420:
 11945 1291 6576656E 		.ascii	"event_cb\000"
 11945      745F6362 
 11945      00
 11946              	.LASF483:
 11947 129a 6C765F65 		.ascii	"lv_event_code_t\000"
 11947      76656E74 
 11947      5F636F64 
 11947      655F7400 
 11948              	.LASF100:
 11949 12aa 6C765F74 		.ascii	"lv_text_decor_t\000"
 11949      6578745F 
ARM GAS  C:\Users\haske\AppData\Local\Temp\ccLw7Foe.s 			page 248


 11949      6465636F 
 11949      725F7400 
 11950              	.LASF426:
 11951 12ba 5F6C765F 		.ascii	"_lv_event_t\000"
 11951      6576656E 
 11951      745F7400 
 11952              	.LASF12:
 11953 12c6 6C6F6E67 		.ascii	"long long int\000"
 11953      206C6F6E 
 11953      6720696E 
 11953      7400
 11954              	.LASF247:
 11955 12d4 73686164 		.ascii	"shadow_color\000"
 11955      6F775F63 
 11955      6F6C6F72 
 11955      00
 11956              	.LASF432:
 11957 12e1 64656C65 		.ascii	"deleted\000"
 11957      74656400 
 11958              	.LASF274:
 11959 12e9 77696474 		.ascii	"width\000"
 11959      6800
 11960              	.LASF447:
 11961 12ef 4C565F45 		.ascii	"LV_EVENT_SCROLL\000"
 11961      56454E54 
 11961      5F534352 
 11961      4F4C4C00 
 11962              	.LASF574:
 11963 12ff 6C765F61 		.ascii	"lv_area_set\000"
 11963      7265615F 
 11963      73657400 
 11964              	.LASF545:
 11965 130b 6C765F64 		.ascii	"lv_disp_set_bg_color\000"
 11965      6973705F 
 11965      7365745F 
 11965      62675F63 
 11965      6F6C6F72 
 11966              	.LASF333:
 11967 1320 62756631 		.ascii	"buf1\000"
 11967      00
 11968              	.LASF334:
 11969 1325 62756632 		.ascii	"buf2\000"
 11969      00
 11970              	.LASF194:
 11971 132a 4C565F53 		.ascii	"LV_STYLE_TRANSFORM_ANGLE\000"
 11971      54594C45 
 11971      5F545241 
 11971      4E53464F 
 11971      524D5F41 
 11972              	.LASF286:
 11973 1343 4C565F44 		.ascii	"LV_DRAW_LAYER_FLAG_NONE\000"
 11973      5241575F 
 11973      4C415945 
 11973      525F464C 
 11973      41475F4E 
 11974              	.LASF182:
 11975 135b 4C565F53 		.ascii	"LV_STYLE_COLOR_FILTER_DSC\000"
ARM GAS  C:\Users\haske\AppData\Local\Temp\ccLw7Foe.s 			page 249


 11975      54594C45 
 11975      5F434F4C 
 11975      4F525F46 
 11975      494C5445 
 11976              	.LASF97:
 11977 1375 6C765F74 		.ascii	"lv_text_align_t\000"
 11977      6578745F 
 11977      616C6967 
 11977      6E5F7400 
 11978              	.LASF40:
 11979 1385 756E6465 		.ascii	"underline_thickness\000"
 11979      726C696E 
 11979      655F7468 
 11979      69636B6E 
 11979      65737300 
 11980              	.LASF179:
 11981 1399 4C565F53 		.ascii	"LV_STYLE_TEXT_DECOR\000"
 11981      54594C45 
 11981      5F544558 
 11981      545F4445 
 11981      434F5200 
 11982              	.LASF445:
 11983 13ad 4C565F45 		.ascii	"LV_EVENT_SCROLL_BEGIN\000"
 11983      56454E54 
 11983      5F534352 
 11983      4F4C4C5F 
 11983      42454749 
 11984              	.LASF262:
 11985 13c3 616C6967 		.ascii	"align\000"
 11985      6E00
 11986              	.LASF49:
 11987 13c9 4C565F4F 		.ascii	"LV_OPA_TRANSP\000"
 11987      50415F54 
 11987      52414E53 
 11987      5000
 11988              	.LASF170:
 11989 13d7 4C565F53 		.ascii	"LV_STYLE_ARC_ROUNDED\000"
 11989      54594C45 
 11989      5F415243 
 11989      5F524F55 
 11989      4E444544 
 11990              	.LASF359:
 11991 13ec 6D6F6E69 		.ascii	"monitor_cb\000"
 11991      746F725F 
 11991      636200
 11992              	.LASF223:
 11993 13f7 736B6970 		.ascii	"skip_trans\000"
 11993      5F747261 
 11993      6E7300
 11994              	.LASF493:
 11995 1402 6578745F 		.ascii	"ext_draw_size\000"
 11995      64726177 
 11995      5F73697A 
 11995      6500
 11996              	.LASF174:
 11997 1410 4C565F53 		.ascii	"LV_STYLE_TEXT_COLOR\000"
 11997      54594C45 
ARM GAS  C:\Users\haske\AppData\Local\Temp\ccLw7Foe.s 			page 250


 11997      5F544558 
 11997      545F434F 
 11997      4C4F5200 
 11998              	.LASF469:
 11999 1424 4C565F45 		.ascii	"LV_EVENT_DELETE\000"
 11999      56454E54 
 11999      5F44454C 
 11999      45544500 
 12000              	.LASF214:
 12001 1434 636C6173 		.ascii	"class_p\000"
 12001      735F7000 
 12002              	.LASF78:
 12003 143c 63757272 		.ascii	"current_value\000"
 12003      656E745F 
 12003      76616C75 
 12003      6500
 12004              	.LASF14:
 12005 144a 756E7369 		.ascii	"unsigned int\000"
 12005      676E6564 
 12005      20696E74 
 12005      00
 12006              	.LASF68:
 12007 1457 6C765F61 		.ascii	"lv_anim_path_cb_t\000"
 12007      6E696D5F 
 12007      70617468 
 12007      5F63625F 
 12007      7400
 12008              	.LASF94:
 12009 1469 6C765F61 		.ascii	"lv_anim_deleted_cb_t\000"
 12009      6E696D5F 
 12009      64656C65 
 12009      7465645F 
 12009      63625F74 
 12010              	.LASF391:
 12011 147e 64697370 		.ascii	"disp\000"
 12011      00
 12012              	.LASF330:
 12013 1483 70617573 		.ascii	"paused\000"
 12013      656400
 12014              	.LASF290:
 12015 148a 636C6970 		.ascii	"clip_area\000"
 12015      5F617265 
 12015      6100
 12016              	.LASF111:
 12017 1494 6C765F73 		.ascii	"lv_style_value_t\000"
 12017      74796C65 
 12017      5F76616C 
 12017      75655F74 
 12017      00
 12018              	.LASF256:
 12019 14a5 73656C5F 		.ascii	"sel_end\000"
 12019      656E6400 
 12020              	.LASF200:
 12021 14ad 5F4C565F 		.ascii	"_LV_STYLE_PROP_CONST\000"
 12021      5354594C 
 12021      455F5052 
 12021      4F505F43 
ARM GAS  C:\Users\haske\AppData\Local\Temp\ccLw7Foe.s 			page 251


 12021      4F4E5354 
 12022              	.LASF294:
 12023 14c2 61726561 		.ascii	"area_full\000"
 12023      5F66756C 
 12023      6C00
 12024              	.LASF522:
 12025 14cc 6C765F61 		.ascii	"lv_anim_set_delay\000"
 12025      6E696D5F 
 12025      7365745F 
 12025      64656C61 
 12025      7900
 12026              	.LASF263:
 12027 14de 666C6167 		.ascii	"flag\000"
 12027      00
 12028              	.LASF369:
 12029 14e3 5F6C765F 		.ascii	"_lv_disp_t\000"
 12029      64697370 
 12029      5F7400
 12030              	.LASF464:
 12031 14ee 4C565F45 		.ascii	"LV_EVENT_VALUE_CHANGED\000"
 12031      56454E54 
 12031      5F56414C 
 12031      55455F43 
 12031      48414E47 
 12032              	.LASF293:
 12033 1505 5F6C765F 		.ascii	"_lv_draw_layer_ctx_t\000"
 12033      64726177 
 12033      5F6C6179 
 12033      65725F63 
 12033      74785F74 
 12034              	.LASF246:
 12035 151a 6F75746C 		.ascii	"outline_opa\000"
 12035      696E655F 
 12035      6F706100 
 12036              	.LASF384:
 12037 1526 696E765F 		.ascii	"inv_areas\000"
 12037      61726561 
 12037      7300
 12038              	.LASF552:
 12039 1530 615F6F6C 		.ascii	"a_old\000"
 12039      6400
 12040              	.LASF296:
 12041 1536 6D61785F 		.ascii	"max_row_with_alpha\000"
 12041      726F775F 
 12041      77697468 
 12041      5F616C70 
 12041      686100
 12042              	.LASF482:
 12043 1549 4C565F45 		.ascii	"LV_EVENT_PREPROCESS\000"
 12043      56454E54 
 12043      5F505245 
 12043      50524F43 
 12043      45535300 
 12044              	.LASF271:
 12045 155d 6672616D 		.ascii	"frame_id\000"
 12045      655F6964 
 12045      00
ARM GAS  C:\Users\haske\AppData\Local\Temp\ccLw7Foe.s 			page 252


 12046              	.LASF531:
 12047 1566 616E696D 		.ascii	"anim_type\000"
 12047      5F747970 
 12047      6500
 12048              	.LASF270:
 12049 1570 7265636F 		.ascii	"recolor_opa\000"
 12049      6C6F725F 
 12049      6F706100 
 12050              	.LASF122:
 12051 157c 4C565F53 		.ascii	"LV_STYLE_LAYOUT\000"
 12051      54594C45 
 12051      5F4C4159 
 12051      4F555400 
 12052              	.LASF43:
 12053 158c 6C765F66 		.ascii	"lv_font_glyph_dsc_t\000"
 12053      6F6E745F 
 12053      676C7970 
 12053      685F6473 
 12053      635F7400 
 12054              	.LASF474:
 12055 15a0 4C565F45 		.ascii	"LV_EVENT_SCREEN_LOAD_START\000"
 12055      56454E54 
 12055      5F534352 
 12055      45454E5F 
 12055      4C4F4144 
 12056              	.LASF434:
 12057 15bb 73746F70 		.ascii	"stop_bubbling\000"
 12057      5F627562 
 12057      626C696E 
 12057      6700
 12058              	.LASF244:
 12059 15c9 6F75746C 		.ascii	"outline_width\000"
 12059      696E655F 
 12059      77696474 
 12059      6800
 12060              	.LASF154:
 12061 15d7 4C565F53 		.ascii	"LV_STYLE_SHADOW_WIDTH\000"
 12061      54594C45 
 12061      5F534841 
 12061      444F575F 
 12061      57494454 
 12062              	.LASF438:
 12063 15ed 4C565F45 		.ascii	"LV_EVENT_PRESSING\000"
 12063      56454E54 
 12063      5F505245 
 12063      5353494E 
 12063      4700
 12064              	.LASF131:
 12065 15ff 4C565F53 		.ascii	"LV_STYLE_CLIP_CORNER\000"
 12065      54594C45 
 12065      5F434C49 
 12065      505F434F 
 12065      524E4552 
 12066              	.LASF536:
 12067 1614 7363725F 		.ascii	"scr_load_internal\000"
 12067      6C6F6164 
 12067      5F696E74 
ARM GAS  C:\Users\haske\AppData\Local\Temp\ccLw7Foe.s 			page 253


 12067      65726E61 
 12067      6C00
 12068              	.LASF272:
 12069 1626 616E7469 		.ascii	"antialias\000"
 12069      616C6961 
 12069      7300
 12070              	.LASF417:
 12071 1630 62617365 		.ascii	"base_class\000"
 12071      5F636C61 
 12071      737300
 12072              	.LASF60:
 12073 163b 4C565F4F 		.ascii	"LV_OPA_100\000"
 12073      50415F31 
 12073      303000
 12074              	.LASF84:
 12075 1646 72657065 		.ascii	"repeat_delay\000"
 12075      61745F64 
 12075      656C6179 
 12075      00
 12076              	.LASF442:
 12077 1653 4C565F45 		.ascii	"LV_EVENT_LONG_PRESSED_REPEAT\000"
 12077      56454E54 
 12077      5F4C4F4E 
 12077      475F5052 
 12077      45535345 
 12078              	.LASF401:
 12079 1670 666F6375 		.ascii	"focus_cb\000"
 12079      735F6362 
 12079      00
 12080              	.LASF75:
 12081 1679 6765745F 		.ascii	"get_value_cb\000"
 12081      76616C75 
 12081      655F6362 
 12081      00
 12082              	.LASF46:
 12083 1686 6C765F72 		.ascii	"lv_res_t\000"
 12083      65735F74 
 12083      00
 12084              	.LASF396:
 12085 168f 666F6E74 		.ascii	"font_large\000"
 12085      5F6C6172 
 12085      676500
 12086              	.LASF183:
 12087 169a 4C565F53 		.ascii	"LV_STYLE_COLOR_FILTER_OPA\000"
 12087      54594C45 
 12087      5F434F4C 
 12087      4F525F46 
 12087      494C5445 
 12088              	.LASF335:
 12089 16b4 6275665F 		.ascii	"buf_act\000"
 12089      61637400 
 12090              	.LASF22:
 12091 16bc 6C6F6E67 		.ascii	"long double\000"
 12091      20646F75 
 12091      626C6500 
 12092              	.LASF411:
 12093 16c8 7374796C 		.ascii	"style\000"
ARM GAS  C:\Users\haske\AppData\Local\Temp\ccLw7Foe.s 			page 254


 12093      6500
 12094              	.LASF103:
 12095 16ce 6C765F64 		.ascii	"lv_dither_mode_t\000"
 12095      69746865 
 12095      725F6D6F 
 12095      64655F74 
 12095      00
 12096              	.LASF410:
 12097 16df 6C765F73 		.ascii	"lv_scroll_snap_t\000"
 12097      63726F6C 
 12097      6C5F736E 
 12097      61705F74 
 12097      00
 12098              	.LASF429:
 12099 16f0 636F6465 		.ascii	"code\000"
 12099      00
 12100              	.LASF38:
 12101 16f5 73756270 		.ascii	"subpx\000"
 12101      7800
 12102              	.LASF61:
 12103 16fb 4C565F4F 		.ascii	"LV_OPA_COVER\000"
 12103      50415F43 
 12103      4F564552 
 12103      00
 12104              	.LASF311:
 12105 1708 77616974 		.ascii	"wait_for_finish\000"
 12105      5F666F72 
 12105      5F66696E 
 12105      69736800 
 12106              	.LASF85:
 12107 1718 72657065 		.ascii	"repeat_cnt\000"
 12107      61745F63 
 12107      6E7400
 12108              	.LASF236:
 12109 1723 62675F69 		.ascii	"bg_img_recolor_opa\000"
 12109      6D675F72 
 12109      65636F6C 
 12109      6F725F6F 
 12109      706100
 12110              	.LASF288:
 12111 1736 4C565F44 		.ascii	"LV_DRAW_LAYER_FLAG_CAN_SUBDIVIDE\000"
 12111      5241575F 
 12111      4C415945 
 12111      525F464C 
 12111      41475F43 
 12112              	.LASF328:
 12113 1757 74696D65 		.ascii	"timer_cb\000"
 12113      725F6362 
 12113      00
 12114              	.LASF437:
 12115 1760 4C565F45 		.ascii	"LV_EVENT_PRESSED\000"
 12115      56454E54 
 12115      5F505245 
 12115      53534544 
 12115      00
 12116              	.LASF468:
 12117 1771 4C565F45 		.ascii	"LV_EVENT_CANCEL\000"
ARM GAS  C:\Users\haske\AppData\Local\Temp\ccLw7Foe.s 			page 255


 12117      56454E54 
 12117      5F43414E 
 12117      43454C00 
 12118              	.LASF145:
 12119 1781 4C565F53 		.ascii	"LV_STYLE_BORDER_COLOR\000"
 12119      54594C45 
 12119      5F424F52 
 12119      4445525F 
 12119      434F4C4F 
 12120              	.LASF363:
 12121 1797 72656E64 		.ascii	"render_start_cb\000"
 12121      65725F73 
 12121      74617274 
 12121      5F636200 
 12122              	.LASF362:
 12123 17a7 6472765F 		.ascii	"drv_update_cb\000"
 12123      75706461 
 12123      74655F63 
 12123      6200
 12124              	.LASF539:
 12125 17b5 6C765F64 		.ascii	"lv_disp_get_scr_act\000"
 12125      6973705F 
 12125      6765745F 
 12125      7363725F 
 12125      61637400 
 12126              	.LASF0:
 12127 17c9 5F5F696E 		.ascii	"__int8_t\000"
 12127      74385F74 
 12127      00
 12128              	.LASF481:
 12129 17d2 5F4C565F 		.ascii	"_LV_EVENT_LAST\000"
 12129      4556454E 
 12129      545F4C41 
 12129      535400
 12130              	.LASF404:
 12131 17e1 65646974 		.ascii	"editing\000"
 12131      696E6700 
 12132              	.LASF345:
 12133 17e9 70687973 		.ascii	"physical_hor_res\000"
 12133      6963616C 
 12133      5F686F72 
 12133      5F726573 
 12133      00
 12134              	.LASF518:
 12135 17fa 4C565F53 		.ascii	"LV_SCR_LOAD_ANIM_OUT_TOP\000"
 12135      43525F4C 
 12135      4F41445F 
 12135      414E494D 
 12135      5F4F5554 
 12136              	.LASF336:
 12137 1813 73697A65 		.ascii	"size\000"
 12137      00
 12138              	.LASF297:
 12139 1818 6D61785F 		.ascii	"max_row_with_no_alpha\000"
 12139      726F775F 
 12139      77697468 
 12139      5F6E6F5F 
ARM GAS  C:\Users\haske\AppData\Local\Temp\ccLw7Foe.s 			page 256


 12139      616C7068 
 12140              	.LASF13:
 12141 182e 6C6F6E67 		.ascii	"long long unsigned int\000"
 12141      206C6F6E 
 12141      6720756E 
 12141      7369676E 
 12141      65642069 
 12142              	.LASF378:
 12143 1845 7379735F 		.ascii	"sys_layer\000"
 12143      6C617965 
 12143      7200
 12144              	.LASF137:
 12145 184f 4C565F53 		.ascii	"LV_STYLE_BG_GRAD_STOP\000"
 12145      54594C45 
 12145      5F42475F 
 12145      47524144 
 12145      5F53544F 
 12146              	.LASF567:
 12147 1865 6C765F6F 		.ascii	"lv_obj_remove_local_style_prop\000"
 12147      626A5F72 
 12147      656D6F76 
 12147      655F6C6F 
 12147      63616C5F 
 12148              	.LASF148:
 12149 1884 4C565F53 		.ascii	"LV_STYLE_BORDER_SIDE\000"
 12149      54594C45 
 12149      5F424F52 
 12149      4445525F 
 12149      53494445 
 12150              	.LASF484:
 12151 1899 6C765F67 		.ascii	"lv_group_focus_cb_t\000"
 12151      726F7570 
 12151      5F666F63 
 12151      75735F63 
 12151      625F7400 
 12152              	.LASF416:
 12153 18ad 5F6C765F 		.ascii	"_lv_obj_class_t\000"
 12153      6F626A5F 
 12153      636C6173 
 12153      735F7400 
 12154              	.LASF253:
 12155 18bd 6C765F64 		.ascii	"lv_draw_rect_dsc_t\000"
 12155      7261775F 
 12155      72656374 
 12155      5F647363 
 12155      5F7400
 12156              	.LASF18:
 12157 18d0 75696E74 		.ascii	"uint16_t\000"
 12157      31365F74 
 12157      00
 12158              	.LASF79:
 12159 18d9 656E645F 		.ascii	"end_value\000"
 12159      76616C75 
 12159      6500
 12160              	.LASF327:
 12161 18e3 6C617374 		.ascii	"last_run\000"
 12161      5F72756E 
ARM GAS  C:\Users\haske\AppData\Local\Temp\ccLw7Foe.s 			page 257


 12161      00
 12162              	.LASF406:
 12163 18ec 77726170 		.ascii	"wrap\000"
 12163      00
 12164              	.LASF66:
 12165 18f1 6C765F63 		.ascii	"lv_color_t\000"
 12165      6F6C6F72 
 12165      5F7400
 12166              	.LASF557:
 12167 18fc 6C765F64 		.ascii	"lv_disp_clean_dcache\000"
 12167      6973705F 
 12167      636C6561 
 12167      6E5F6463 
 12167      61636865 
 12168              	.LASF306:
 12169 1911 64726177 		.ascii	"draw_letter\000"
 12169      5F6C6574 
 12169      74657200 
 12170              	.LASF459:
 12171 191d 4C565F45 		.ascii	"LV_EVENT_DRAW_POST_BEGIN\000"
 12171      56454E54 
 12171      5F445241 
 12171      575F504F 
 12171      53545F42 
 12172              	.LASF113:
 12173 1936 4C565F53 		.ascii	"LV_STYLE_WIDTH\000"
 12173      54594C45 
 12173      5F574944 
 12173      544800
 12174              	.LASF515:
 12175 1945 4C565F53 		.ascii	"LV_SCR_LOAD_ANIM_FADE_OUT\000"
 12175      43525F4C 
 12175      4F41445F 
 12175      414E494D 
 12175      5F464144 
 12176              	.LASF239:
 12177 195f 626F7264 		.ascii	"border_width\000"
 12177      65725F77 
 12177      69647468 
 12177      00
 12178              	.LASF114:
 12179 196c 4C565F53 		.ascii	"LV_STYLE_MIN_WIDTH\000"
 12179      54594C45 
 12179      5F4D494E 
 12179      5F574944 
 12179      544800
 12180              	.LASF541:
 12181 197f 6C765F64 		.ascii	"lv_disp_get_layer_top\000"
 12181      6973705F 
 12181      6765745F 
 12181      6C617965 
 12181      725F746F 
 12182              	.LASF96:
 12183 1995 6C765F74 		.ascii	"lv_text_flag_t\000"
 12183      6578745F 
 12183      666C6167 
 12183      5F7400
ARM GAS  C:\Users\haske\AppData\Local\Temp\ccLw7Foe.s 			page 258


 12184              	.LASF155:
 12185 19a4 4C565F53 		.ascii	"LV_STYLE_SHADOW_OFS_X\000"
 12185      54594C45 
 12185      5F534841 
 12185      444F575F 
 12185      4F46535F 
 12186              	.LASF71:
 12187 19ba 65786563 		.ascii	"exec_cb\000"
 12187      5F636200 
 12188              	.LASF51:
 12189 19c2 4C565F4F 		.ascii	"LV_OPA_10\000"
 12189      50415F31 
 12189      3000
 12190              	.LASF140:
 12191 19cc 4C565F53 		.ascii	"LV_STYLE_BG_IMG_SRC\000"
 12191      54594C45 
 12191      5F42475F 
 12191      494D475F 
 12191      53524300 
 12192              	.LASF580:
 12193 19e0 6C765F74 		.ascii	"lv_tick_elaps\000"
 12193      69636B5F 
 12193      656C6170 
 12193      7300
 12194              	.LASF83:
 12195 19ee 706C6179 		.ascii	"playback_time\000"
 12195      6261636B 
 12195      5F74696D 
 12195      6500
 12196              	.LASF546:
 12197 19fc 6C765F64 		.ascii	"lv_disp_set_bg_image\000"
 12197      6973705F 
 12197      7365745F 
 12197      62675F69 
 12197      6D616765 
 12198              	.LASF268:
 12199 1a11 7069766F 		.ascii	"pivot\000"
 12199      7400
 12200              	.LASF173:
 12201 1a17 4C565F53 		.ascii	"LV_STYLE_ARC_IMG_SRC\000"
 12201      54594C45 
 12201      5F415243 
 12201      5F494D47 
 12201      5F535243 
 12202              	.LASF205:
 12203 1a2c 76616C75 		.ascii	"value1\000"
 12203      653100
 12204              	.LASF349:
 12205 1a33 64726177 		.ascii	"draw_buf\000"
 12205      5F627566 
 12205      00
 12206              	.LASF326:
 12207 1a3c 70657269 		.ascii	"period\000"
 12207      6F6400
 12208              	.LASF550:
 12209 1a43 6175746F 		.ascii	"auto_del\000"
 12209      5F64656C 
ARM GAS  C:\Users\haske\AppData\Local\Temp\ccLw7Foe.s 			page 259


 12209      00
 12210              	.LASF356:
 12211 1a4c 726F756E 		.ascii	"rounder_cb\000"
 12211      6465725F 
 12211      636200
 12212              	.LASF264:
 12213 1a57 6465636F 		.ascii	"decor\000"
 12213      7200
 12214              	.LASF516:
 12215 1a5d 4C565F53 		.ascii	"LV_SCR_LOAD_ANIM_OUT_LEFT\000"
 12215      43525F4C 
 12215      4F41445F 
 12215      414E494D 
 12215      5F4F5554 
 12216              	.LASF4:
 12217 1a77 5F5F696E 		.ascii	"__int16_t\000"
 12217      7431365F 
 12217      7400
 12218              	.LASF314:
 12219 1a81 6C617965 		.ascii	"layer_adjust\000"
 12219      725F6164 
 12219      6A757374 
 12219      00
 12220              	.LASF176:
 12221 1a8e 4C565F53 		.ascii	"LV_STYLE_TEXT_FONT\000"
 12221      54594C45 
 12221      5F544558 
 12221      545F464F 
 12221      4E5400
 12222              	.LASF570:
 12223 1aa1 6C765F6F 		.ascii	"lv_obj_get_child_cnt\000"
 12223      626A5F67 
 12223      65745F63 
 12223      68696C64 
 12223      5F636E74 
 12224              	.LASF476:
 12225 1ab6 4C565F45 		.ascii	"LV_EVENT_SCREEN_UNLOADED\000"
 12225      56454E54 
 12225      5F534352 
 12225      45454E5F 
 12225      554E4C4F 
 12226              	.LASF555:
 12227 1acf 656C6170 		.ascii	"elaps\000"
 12227      7300
 12228              	.LASF199:
 12229 1ad5 4C565F53 		.ascii	"LV_STYLE_PROP_ANY\000"
 12229      54594C45 
 12229      5F50524F 
 12229      505F414E 
 12229      5900
 12230              	.LASF64:
 12231 1ae7 66756C6C 		.ascii	"full\000"
 12231      00
 12232              	.LASF548:
 12233 1aec 6C765F73 		.ascii	"lv_scr_load_anim\000"
 12233      63725F6C 
 12233      6F61645F 
ARM GAS  C:\Users\haske\AppData\Local\Temp\ccLw7Foe.s 			page 260


 12233      616E696D 
 12233      00
 12234              	.LASF299:
 12235 1afd 6C765F64 		.ascii	"lv_draw_layer_ctx_t\000"
 12235      7261775F 
 12235      6C617965 
 12235      725F6374 
 12235      785F7400 
 12236              	.LASF52:
 12237 1b11 4C565F4F 		.ascii	"LV_OPA_20\000"
 12237      50415F32 
 12237      3000
 12238              	.LASF104:
 12239 1b1b 636F6C6F 		.ascii	"color\000"
 12239      7200
 12240              	.LASF80:
 12241 1b21 74696D65 		.ascii	"time\000"
 12241      00
 12242              	.LASF579:
 12243 1b26 6C765F61 		.ascii	"lv_anim_start\000"
 12243      6E696D5F 
 12243      73746172 
 12243      7400
 12244              	.LASF107:
 12245 1b34 73746F70 		.ascii	"stops\000"
 12245      7300
 12246              	.LASF259:
 12247 1b3a 6C696E65 		.ascii	"line_space\000"
 12247      5F737061 
 12247      636500
 12248              	.LASF315:
 12249 1b45 6C617965 		.ascii	"layer_blend\000"
 12249      725F626C 
 12249      656E6400 
 12250              	.LASF528:
 12251 1b51 6C765F61 		.ascii	"lv_anim_set_values\000"
 12251      6E696D5F 
 12251      7365745F 
 12251      76616C75 
 12251      657300
 12252              	.LASF588:
 12253 1b64 69735F6F 		.ascii	"is_out_anim\000"
 12253      75745F61 
 12253      6E696D00 
 12254              	.LASF419:
 12255 1b70 64657374 		.ascii	"destructor_cb\000"
 12255      72756374 
 12255      6F725F63 
 12255      6200
 12256              	.LASF101:
 12257 1b7e 6C765F62 		.ascii	"lv_border_side_t\000"
 12257      6F726465 
 12257      725F7369 
 12257      64655F74 
 12257      00
 12258              	.LASF105:
 12259 1b8f 66726163 		.ascii	"frac\000"
ARM GAS  C:\Users\haske\AppData\Local\Temp\ccLw7Foe.s 			page 261


 12259      00
 12260              	.LASF213:
 12261 1b94 5F6C765F 		.ascii	"_lv_obj_t\000"
 12261      6F626A5F 
 12261      7400
 12262              	.LASF254:
 12263 1b9e 666F6E74 		.ascii	"font\000"
 12263      00
 12264              	.LASF260:
 12265 1ba3 6C657474 		.ascii	"letter_space\000"
 12265      65725F73 
 12265      70616365 
 12265      00
 12266              	.LASF118:
 12267 1bb0 4C565F53 		.ascii	"LV_STYLE_MAX_HEIGHT\000"
 12267      54594C45 
 12267      5F4D4158 
 12267      5F484549 
 12267      47485400 
 12268              	.LASF53:
 12269 1bc4 4C565F4F 		.ascii	"LV_OPA_30\000"
 12269      50415F33 
 12269      3000
 12270              	.LASF389:
 12271 1bce 5F6C765F 		.ascii	"_lv_theme_t\000"
 12271      7468656D 
 12271      655F7400 
 12272              	.LASF285:
 12273 1bda 6C765F64 		.ascii	"lv_draw_arc_dsc_t\000"
 12273      7261775F 
 12273      6172635F 
 12273      6473635F 
 12273      7400
 12274              	.LASF134:
 12275 1bec 4C565F53 		.ascii	"LV_STYLE_BG_GRAD_COLOR\000"
 12275      54594C45 
 12275      5F42475F 
 12275      47524144 
 12275      5F434F4C 
 12276              	.LASF375:
 12277 1c03 70726576 		.ascii	"prev_scr\000"
 12277      5F736372 
 12277      00
 12278              	.LASF30:
 12279 1c0c 626F785F 		.ascii	"box_h\000"
 12279      6800
 12280              	.LASF92:
 12281 1c12 6C765F61 		.ascii	"lv_anim_start_cb_t\000"
 12281      6E696D5F 
 12281      73746172 
 12281      745F6362 
 12281      5F7400
 12282              	.LASF234:
 12283 1c25 62675F69 		.ascii	"bg_img_recolor\000"
 12283      6D675F72 
 12283      65636F6C 
 12283      6F7200
ARM GAS  C:\Users\haske\AppData\Local\Temp\ccLw7Foe.s 			page 262


 12284              	.LASF65:
 12285 1c34 6C765F63 		.ascii	"lv_color16_t\000"
 12285      6F6C6F72 
 12285      31365F74 
 12285      00
 12286              	.LASF29:
 12287 1c41 626F785F 		.ascii	"box_w\000"
 12287      7700
 12288              	.LASF5:
 12289 1c47 73686F72 		.ascii	"short int\000"
 12289      7420696E 
 12289      7400
 12290              	.LASF37:
 12291 1c51 62617365 		.ascii	"base_line\000"
 12291      5F6C696E 
 12291      6500
 12292              	.LASF386:
 12293 1c5b 696E765F 		.ascii	"inv_p\000"
 12293      7000
 12294              	.LASF323:
 12295 1c61 6C765F6C 		.ascii	"lv_ll_t\000"
 12295      6C5F7400 
 12296              	.LASF589:
 12297 1c69 6C765F66 		.ascii	"lv_font_montserrat_14\000"
 12297      6F6E745F 
 12297      6D6F6E74 
 12297      73657272 
 12297      61745F31 
 12298              	.LASF461:
 12299 1c7f 4C565F45 		.ascii	"LV_EVENT_DRAW_POST_END\000"
 12299      56454E54 
 12299      5F445241 
 12299      575F504F 
 12299      53545F45 
 12300              	.LASF462:
 12301 1c96 4C565F45 		.ascii	"LV_EVENT_DRAW_PART_BEGIN\000"
 12301      56454E54 
 12301      5F445241 
 12301      575F5041 
 12301      52545F42 
 12302              	.LASF252:
 12303 1caf 73686164 		.ascii	"shadow_opa\000"
 12303      6F775F6F 
 12303      706100
 12304              	.LASF171:
 12305 1cba 4C565F53 		.ascii	"LV_STYLE_ARC_COLOR\000"
 12305      54594C45 
 12305      5F415243 
 12305      5F434F4C 
 12305      4F5200
 12306              	.LASF54:
 12307 1ccd 4C565F4F 		.ascii	"LV_OPA_40\000"
 12307      50415F34 
 12307      3000
 12308              	.LASF17:
 12309 1cd7 696E7431 		.ascii	"int16_t\000"
 12309      365F7400 
ARM GAS  C:\Users\haske\AppData\Local\Temp\ccLw7Foe.s 			page 263


 12310              	.LASF387:
 12311 1cdf 696E765F 		.ascii	"inv_en_cnt\000"
 12311      656E5F63 
 12311      6E7400
 12312              	.LASF292:
 12313 1cea 73637265 		.ascii	"screen_transp\000"
 12313      656E5F74 
 12313      72616E73 
 12313      7000
 12314              	.LASF529:
 12315 1cf8 73746172 		.ascii	"start\000"
 12315      7400
 12316              	.LASF218:
 12317 1cfe 636F6F72 		.ascii	"coords\000"
 12317      647300
 12318              	.LASF587:
 12319 1d05 6C765F73 		.ascii	"lv_scr_act\000"
 12319      63725F61 
 12319      637400
 12320              	.LASF492:
 12321 1d10 6578745F 		.ascii	"ext_click_pad\000"
 12321      636C6963 
 12321      6B5F7061 
 12321      6400
 12322              	.LASF561:
 12323 1d1e 6C765F6F 		.ascii	"lv_obj_set_style_opa\000"
 12323      626A5F73 
 12323      65745F73 
 12323      74796C65 
 12323      5F6F7061 
 12324              	.LASF198:
 12325 1d33 5F4C565F 		.ascii	"_LV_STYLE_NUM_BUILT_IN_PROPS\000"
 12325      5354594C 
 12325      455F4E55 
 12325      4D5F4255 
 12325      494C545F 
 12326              	.LASF124:
 12327 1d50 4C565F53 		.ascii	"LV_STYLE_PAD_TOP\000"
 12327      54594C45 
 12327      5F504144 
 12327      5F544F50 
 12327      00
 12328              	.LASF381:
 12329 1d61 64656C5F 		.ascii	"del_prev\000"
 12329      70726576 
 12329      00
 12330              	.LASF383:
 12331 1d6a 62675F69 		.ascii	"bg_img\000"
 12331      6D6700
 12332              	.LASF141:
 12333 1d71 4C565F53 		.ascii	"LV_STYLE_BG_IMG_OPA\000"
 12333      54594C45 
 12333      5F42475F 
 12333      494D475F 
 12333      4F504100 
 12334              	.LASF163:
 12335 1d85 4C565F53 		.ascii	"LV_STYLE_LINE_WIDTH\000"
ARM GAS  C:\Users\haske\AppData\Local\Temp\ccLw7Foe.s 			page 264


 12335      54594C45 
 12335      5F4C494E 
 12335      455F5749 
 12335      44544800 
 12336              	.LASF55:
 12337 1d99 4C565F4F 		.ascii	"LV_OPA_50\000"
 12337      50415F35 
 12337      3000
 12338              	.LASF585:
 12339 1da3 433A5C50 		.ascii	"C:\\Projects\\PainDrain\\firmware\\PainDrain\\PainD"
 12339      726F6A65 
 12339      6374735C 
 12339      5061696E 
 12339      44726169 
 12340 1dd1 7261696E 		.ascii	"rain.cydsn\000"
 12340      2E637964 
 12340      736E00
 12341              	.LASF208:
 12342 1ddc 70726F70 		.ascii	"prop1\000"
 12342      3100
 12343              	.LASF507:
 12344 1de2 4C565F53 		.ascii	"LV_SCR_LOAD_ANIM_OVER_TOP\000"
 12344      43525F4C 
 12344      4F41445F 
 12344      414E494D 
 12344      5F4F5645 
 12345              	.LASF357:
 12346 1dfc 7365745F 		.ascii	"set_px_cb\000"
 12346      70785F63 
 12346      6200
 12347              	.LASF81:
 12348 1e06 6163745F 		.ascii	"act_time\000"
 12348      74696D65 
 12348      00
 12349              	.LASF240:
 12350 1e0f 626F7264 		.ascii	"border_opa\000"
 12350      65725F6F 
 12350      706100
 12351              	.LASF117:
 12352 1e1a 4C565F53 		.ascii	"LV_STYLE_MIN_HEIGHT\000"
 12352      54594C45 
 12352      5F4D494E 
 12352      5F484549 
 12352      47485400 
 12353              	.LASF451:
 12354 1e2e 4C565F45 		.ascii	"LV_EVENT_DEFOCUSED\000"
 12354      56454E54 
 12354      5F444546 
 12354      4F435553 
 12354      454400
 12355              	.LASF530:
 12356 1e41 6C765F61 		.ascii	"lv_anim_set_exec_cb\000"
 12356      6E696D5F 
 12356      7365745F 
 12356      65786563 
 12356      5F636200 
 12357              	.LASF578:
ARM GAS  C:\Users\haske\AppData\Local\Temp\ccLw7Foe.s 			page 265


 12358 1e55 6C765F61 		.ascii	"lv_anim_init\000"
 12358      6E696D5F 
 12358      696E6974 
 12358      00
 12359              	.LASF231:
 12360 1e62 62675F67 		.ascii	"bg_grad\000"
 12360      72616400 
 12361              	.LASF501:
 12362 1e6a 6C765F6F 		.ascii	"lv_obj_t\000"
 12362      626A5F74 
 12362      00
 12363              	.LASF540:
 12364 1e73 6C765F64 		.ascii	"lv_disp_get_scr_prev\000"
 12364      6973705F 
 12364      6765745F 
 12364      7363725F 
 12364      70726576 
 12365              	.LASF149:
 12366 1e88 4C565F53 		.ascii	"LV_STYLE_BORDER_POST\000"
 12366      54594C45 
 12366      5F424F52 
 12366      4445525F 
 12366      504F5354 
 12367              	.LASF365:
 12368 1e9d 64726177 		.ascii	"draw_ctx\000"
 12368      5F637478 
 12368      00
 12369              	.LASF305:
 12370 1ea6 64726177 		.ascii	"draw_img\000"
 12370      5F696D67 
 12370      00
 12371              	.LASF106:
 12372 1eaf 6C765F67 		.ascii	"lv_gradient_stop_t\000"
 12372      72616469 
 12372      656E745F 
 12372      73746F70 
 12372      5F7400
 12373              	.LASF120:
 12374 1ec2 4C565F53 		.ascii	"LV_STYLE_Y\000"
 12374      54594C45 
 12374      5F5900
 12375              	.LASF166:
 12376 1ecd 4C565F53 		.ascii	"LV_STYLE_LINE_ROUNDED\000"
 12376      54594C45 
 12376      5F4C494E 
 12376      455F524F 
 12376      554E4445 
 12377              	.LASF56:
 12378 1ee3 4C565F4F 		.ascii	"LV_OPA_60\000"
 12378      50415F36 
 12378      3000
 12379              	.LASF308:
 12380 1eed 64726177 		.ascii	"draw_polygon\000"
 12380      5F706F6C 
 12380      79676F6E 
 12380      00
 12381              	.LASF478:
ARM GAS  C:\Users\haske\AppData\Local\Temp\ccLw7Foe.s 			page 266


 12382 1efa 4C565F45 		.ascii	"LV_EVENT_STYLE_CHANGED\000"
 12382      56454E54 
 12382      5F535459 
 12382      4C455F43 
 12382      48414E47 
 12383              	.LASF467:
 12384 1f11 4C565F45 		.ascii	"LV_EVENT_READY\000"
 12384      56454E54 
 12384      5F524541 
 12384      445900
 12385              	.LASF255:
 12386 1f20 73656C5F 		.ascii	"sel_start\000"
 12386      73746172 
 12386      7400
 12387              	.LASF460:
 12388 1f2a 4C565F45 		.ascii	"LV_EVENT_DRAW_POST\000"
 12388      56454E54 
 12388      5F445241 
 12388      575F504F 
 12388      535400
 12389              	.LASF584:
 12390 1f3d 2E2E5C2E 		.ascii	"..\\..\\..\\arduinoLCD\\test\\Pain Drain\\libraries"
 12390      2E5C2E2E 
 12390      5C617264 
 12390      75696E6F 
 12390      4C43445C 
 12391 1f6a 5C6C7667 		.ascii	"\\lvgl\\src\\core\\lv_disp.c\000"
 12391      6C5C7372 
 12391      635C636F 
 12391      72655C6C 
 12391      765F6469 
 12392              	.LASF568:
 12393 1f83 6C765F6F 		.ascii	"lv_obj_invalidate\000"
 12393      626A5F69 
 12393      6E76616C 
 12393      69646174 
 12393      6500
 12394              	.LASF390:
 12395 1f95 6170706C 		.ascii	"apply_cb\000"
 12395      795F6362 
 12395      00
 12396              	.LASF408:
 12397 1f9e 6C765F6F 		.ascii	"lv_obj_flag_t\000"
 12397      626A5F66 
 12397      6C61675F 
 12397      7400
 12398              	.LASF477:
 12399 1fac 4C565F45 		.ascii	"LV_EVENT_SIZE_CHANGED\000"
 12399      56454E54 
 12399      5F53495A 
 12399      455F4348 
 12399      414E4745 
 12400              	.LASF563:
 12401 1fc2 6C765F6F 		.ascii	"lv_obj_set_x\000"
 12401      626A5F73 
 12401      65745F78 
 12401      00
ARM GAS  C:\Users\haske\AppData\Local\Temp\ccLw7Foe.s 			page 267


 12402              	.LASF248:
 12403 1fcf 73686164 		.ascii	"shadow_width\000"
 12403      6F775F77 
 12403      69647468 
 12403      00
 12404              	.LASF63:
 12405 1fdc 67726565 		.ascii	"green\000"
 12405      6E00
 12406              	.LASF45:
 12407 1fe2 6C765F66 		.ascii	"lv_font_t\000"
 12407      6F6E745F 
 12407      7400
 12408              	.LASF566:
 12409 1fec 6C765F6F 		.ascii	"lv_obj_del\000"
 12409      626A5F64 
 12409      656C00
 12410              	.LASF479:
 12411 1ff7 4C565F45 		.ascii	"LV_EVENT_LAYOUT_CHANGED\000"
 12411      56454E54 
 12411      5F4C4159 
 12411      4F55545F 
 12411      4348414E 
 12412              	.LASF503:
 12413 200f 6C765F74 		.ascii	"lv_theme_t\000"
 12413      68656D65 
 12413      5F7400
 12414              	.LASF109:
 12415 201a 64697468 		.ascii	"dither\000"
 12415      657200
 12416              	.LASF57:
 12417 2021 4C565F4F 		.ascii	"LV_OPA_70\000"
 12417      50415F37 
 12417      3000
 12418              	.LASF7:
 12419 202b 73686F72 		.ascii	"short unsigned int\000"
 12419      7420756E 
 12419      7369676E 
 12419      65642069 
 12419      6E7400
 12420              	.LASF449:
 12421 203e 4C565F45 		.ascii	"LV_EVENT_KEY\000"
 12421      56454E54 
 12421      5F4B4559 
 12421      00
 12422              	.LASF23:
 12423 204b 6C765F63 		.ascii	"lv_coord_t\000"
 12423      6F6F7264 
 12423      5F7400
 12424              	.LASF20:
 12425 2056 75696E74 		.ascii	"uint32_t\000"
 12425      33325F74 
 12425      00
 12426              	.LASF355:
 12427 205f 666C7573 		.ascii	"flush_cb\000"
 12427      685F6362 
 12427      00
 12428              	.LASF151:
ARM GAS  C:\Users\haske\AppData\Local\Temp\ccLw7Foe.s 			page 268


 12429 2068 4C565F53 		.ascii	"LV_STYLE_OUTLINE_COLOR\000"
 12429      54594C45 
 12429      5F4F5554 
 12429      4C494E45 
 12429      5F434F4C 
 12430              	.LASF42:
 12431 207f 75736572 		.ascii	"user_data\000"
 12431      5F646174 
 12431      6100
 12432              	.LASF439:
 12433 2089 4C565F45 		.ascii	"LV_EVENT_PRESS_LOST\000"
 12433      56454E54 
 12433      5F505245 
 12433      53535F4C 
 12433      4F535400 
 12434              	.LASF87:
 12435 209d 706C6179 		.ascii	"playback_now\000"
 12435      6261636B 
 12435      5F6E6F77 
 12435      00
 12436              	.LASF586:
 12437 20aa 5F6C765F 		.ascii	"_lv_event_dsc_t\000"
 12437      6576656E 
 12437      745F6473 
 12437      635F7400 
 12438              	.LASF157:
 12439 20ba 4C565F53 		.ascii	"LV_STYLE_SHADOW_SPREAD\000"
 12439      54594C45 
 12439      5F534841 
 12439      444F575F 
 12439      53505245 
 12440              	.LASF395:
 12441 20d1 666F6E74 		.ascii	"font_normal\000"
 12441      5F6E6F72 
 12441      6D616C00 
 12442              	.LASF34:
 12443 20dd 6765745F 		.ascii	"get_glyph_dsc\000"
 12443      676C7970 
 12443      685F6473 
 12443      6300
 12444              	.LASF8:
 12445 20eb 5F5F696E 		.ascii	"__int32_t\000"
 12445      7433325F 
 12445      7400
 12446              	.LASF412:
 12447 20f5 73656C65 		.ascii	"selector\000"
 12447      63746F72 
 12447      00
 12448              	.LASF74:
 12449 20fe 64656C65 		.ascii	"deleted_cb\000"
 12449      7465645F 
 12449      636200
 12450              	.LASF102:
 12451 2109 6C765F67 		.ascii	"lv_grad_dir_t\000"
 12451      7261645F 
 12451      6469725F 
 12451      7400
ARM GAS  C:\Users\haske\AppData\Local\Temp\ccLw7Foe.s 			page 269


 12452              	.LASF544:
 12453 2117 6C765F64 		.ascii	"lv_disp_set_theme\000"
 12453      6973705F 
 12453      7365745F 
 12453      7468656D 
 12453      6500
 12454              	.LASF405:
 12455 2129 7265666F 		.ascii	"refocus_policy\000"
 12455      6375735F 
 12455      706F6C69 
 12455      637900
 12456              	.LASF342:
 12457 2138 5F6C765F 		.ascii	"_lv_disp_drv_t\000"
 12457      64697370 
 12457      5F647276 
 12457      5F7400
 12458              	.LASF58:
 12459 2147 4C565F4F 		.ascii	"LV_OPA_80\000"
 12459      50415F38 
 12459      3000
 12460              	.LASF422:
 12461 2151 68656967 		.ascii	"height_def\000"
 12461      68745F64 
 12461      656600
 12462              	.LASF473:
 12463 215c 4C565F45 		.ascii	"LV_EVENT_SCREEN_UNLOAD_START\000"
 12463      56454E54 
 12463      5F534352 
 12463      45454E5F 
 12463      554E4C4F 
 12464              	.LASF547:
 12465 2179 6C765F64 		.ascii	"lv_disp_set_bg_opa\000"
 12465      6973705F 
 12465      7365745F 
 12465      62675F6F 
 12465      706100
 12466              	.LASF361:
 12467 218c 636C6561 		.ascii	"clean_dcache_cb\000"
 12467      6E5F6463 
 12467      61636865 
 12467      5F636200 
 12468              	.LASF535:
 12469 219c 7363725F 		.ascii	"scr_anim_ready\000"
 12469      616E696D 
 12469      5F726561 
 12469      647900
 12470              	.LASF257:
 12471 21ab 73656C5F 		.ascii	"sel_color\000"
 12471      636F6C6F 
 12471      7200
 12472              	.LASF233:
 12473 21b5 62675F69 		.ascii	"bg_img_symbol_font\000"
 12473      6D675F73 
 12473      796D626F 
 12473      6C5F666F 
 12473      6E7400
 12474              	.LASF250:
ARM GAS  C:\Users\haske\AppData\Local\Temp\ccLw7Foe.s 			page 270


 12475 21c8 73686164 		.ascii	"shadow_ofs_y\000"
 12475      6F775F6F 
 12475      66735F79 
 12475      00
 12476              	.LASF70:
 12477 21d5 5F6C765F 		.ascii	"_lv_anim_t\000"
 12477      616E696D 
 12477      5F7400
 12478              	.LASF431:
 12479 21e0 70726576 		.ascii	"prev\000"
 12479      00
 12480              	.LASF110:
 12481 21e5 6C765F67 		.ascii	"lv_grad_dsc_t\000"
 12481      7261645F 
 12481      6473635F 
 12481      7400
 12482              	.LASF320:
 12483 21f3 6E5F7369 		.ascii	"n_size\000"
 12483      7A6500
 12484              	.LASF398:
 12485 21fa 5F6C765F 		.ascii	"_lv_group_t\000"
 12485      67726F75 
 12485      705F7400 
 12486              	.LASF138:
 12487 2206 4C565F53 		.ascii	"LV_STYLE_BG_GRAD\000"
 12487      54594C45 
 12487      5F42475F 
 12487      47524144 
 12487      00
 12488              	.LASF444:
 12489 2217 4C565F45 		.ascii	"LV_EVENT_RELEASED\000"
 12489      56454E54 
 12489      5F52454C 
 12489      45415345 
 12489      4400
 12490              	.LASF33:
 12491 2229 69735F70 		.ascii	"is_placeholder\000"
 12491      6C616365 
 12491      686F6C64 
 12491      657200
 12492              	.LASF153:
 12493 2238 4C565F53 		.ascii	"LV_STYLE_OUTLINE_PAD\000"
 12493      54594C45 
 12493      5F4F5554 
 12493      4C494E45 
 12493      5F504144 
 12494              	.LASF59:
 12495 224d 4C565F4F 		.ascii	"LV_OPA_90\000"
 12495      50415F39 
 12495      3000
 12496              	.LASF514:
 12497 2257 4C565F53 		.ascii	"LV_SCR_LOAD_ANIM_FADE_ON\000"
 12497      43525F4C 
 12497      4F41445F 
 12497      414E494D 
 12497      5F464144 
 12498              	.LASF400:
ARM GAS  C:\Users\haske\AppData\Local\Temp\ccLw7Foe.s 			page 271


 12499 2270 6F626A5F 		.ascii	"obj_focus\000"
 12499      666F6375 
 12499      7300
 12500              	.LASF177:
 12501 227a 4C565F53 		.ascii	"LV_STYLE_TEXT_LETTER_SPACE\000"
 12501      54594C45 
 12501      5F544558 
 12501      545F4C45 
 12501      54544552 
 12502              	.LASF498:
 12503 2295 6576656E 		.ascii	"event_dsc_cnt\000"
 12503      745F6473 
 12503      635F636E 
 12503      7400
 12504              		.ident	"GCC: (GNU Tools for ARM Embedded Processors) 5.4.1 20160609 (release) [ARM/embedded-5-bran
