ARM GAS  C:\Users\haske\AppData\Local\Temp\ccydbpJh.s 			page 1


   1              		.syntax unified
   2              		.cpu cortex-m0plus
   3              		.fpu softvfp
   4              		.eabi_attribute 20, 1
   5              		.eabi_attribute 21, 1
   6              		.eabi_attribute 23, 3
   7              		.eabi_attribute 24, 1
   8              		.eabi_attribute 25, 1
   9              		.eabi_attribute 26, 1
  10              		.eabi_attribute 30, 1
  11              		.eabi_attribute 34, 0
  12              		.eabi_attribute 18, 4
  13              		.thumb
  14              		.syntax unified
  15              		.file	"lv_draw_sw_blend.c"
  16              		.text
  17              	.Ltext0:
  18              		.cfi_sections	.debug_frame
  19              		.section	.text.fill_blended,"ax",%progbits
  20              		.align	2
  21              		.code	16
  22              		.thumb_func
  23              		.type	fill_blended, %function
  24              	fill_blended:
  25              	.LFB163:
  26              		.file 1 "..\\..\\..\\arduinoLCD\\test\\Pain Drain\\libraries\\lvgl\\src\\draw\\sw\\lv_draw_sw_blen
   1:..\..\..\arduinoLCD\test\Pain Drain\libraries\lvgl\src\draw\sw/lv_draw_sw_blend.c **** /**
   2:..\..\..\arduinoLCD\test\Pain Drain\libraries\lvgl\src\draw\sw/lv_draw_sw_blend.c ****  * @file lv_draw_sw_blend.c
   3:..\..\..\arduinoLCD\test\Pain Drain\libraries\lvgl\src\draw\sw/lv_draw_sw_blend.c ****  *
   4:..\..\..\arduinoLCD\test\Pain Drain\libraries\lvgl\src\draw\sw/lv_draw_sw_blend.c ****  */
   5:..\..\..\arduinoLCD\test\Pain Drain\libraries\lvgl\src\draw\sw/lv_draw_sw_blend.c **** 
   6:..\..\..\arduinoLCD\test\Pain Drain\libraries\lvgl\src\draw\sw/lv_draw_sw_blend.c **** /*********************
   7:..\..\..\arduinoLCD\test\Pain Drain\libraries\lvgl\src\draw\sw/lv_draw_sw_blend.c ****  *      INCLUDES
   8:..\..\..\arduinoLCD\test\Pain Drain\libraries\lvgl\src\draw\sw/lv_draw_sw_blend.c ****  *********************/
   9:..\..\..\arduinoLCD\test\Pain Drain\libraries\lvgl\src\draw\sw/lv_draw_sw_blend.c **** #include "lv_draw_sw.h"
  10:..\..\..\arduinoLCD\test\Pain Drain\libraries\lvgl\src\draw\sw/lv_draw_sw_blend.c **** #include "../../misc/lv_math.h"
  11:..\..\..\arduinoLCD\test\Pain Drain\libraries\lvgl\src\draw\sw/lv_draw_sw_blend.c **** #include "../../hal/lv_hal_disp.h"
  12:..\..\..\arduinoLCD\test\Pain Drain\libraries\lvgl\src\draw\sw/lv_draw_sw_blend.c **** #include "../../core/lv_refr.h"
  13:..\..\..\arduinoLCD\test\Pain Drain\libraries\lvgl\src\draw\sw/lv_draw_sw_blend.c **** 
  14:..\..\..\arduinoLCD\test\Pain Drain\libraries\lvgl\src\draw\sw/lv_draw_sw_blend.c **** /*********************
  15:..\..\..\arduinoLCD\test\Pain Drain\libraries\lvgl\src\draw\sw/lv_draw_sw_blend.c ****  *      DEFINES
  16:..\..\..\arduinoLCD\test\Pain Drain\libraries\lvgl\src\draw\sw/lv_draw_sw_blend.c ****  *********************/
  17:..\..\..\arduinoLCD\test\Pain Drain\libraries\lvgl\src\draw\sw/lv_draw_sw_blend.c **** 
  18:..\..\..\arduinoLCD\test\Pain Drain\libraries\lvgl\src\draw\sw/lv_draw_sw_blend.c **** /**********************
  19:..\..\..\arduinoLCD\test\Pain Drain\libraries\lvgl\src\draw\sw/lv_draw_sw_blend.c ****  *      TYPEDEFS
  20:..\..\..\arduinoLCD\test\Pain Drain\libraries\lvgl\src\draw\sw/lv_draw_sw_blend.c ****  **********************/
  21:..\..\..\arduinoLCD\test\Pain Drain\libraries\lvgl\src\draw\sw/lv_draw_sw_blend.c **** 
  22:..\..\..\arduinoLCD\test\Pain Drain\libraries\lvgl\src\draw\sw/lv_draw_sw_blend.c **** /**********************
  23:..\..\..\arduinoLCD\test\Pain Drain\libraries\lvgl\src\draw\sw/lv_draw_sw_blend.c ****  *  STATIC PROTOTYPES
  24:..\..\..\arduinoLCD\test\Pain Drain\libraries\lvgl\src\draw\sw/lv_draw_sw_blend.c ****  **********************/
  25:..\..\..\arduinoLCD\test\Pain Drain\libraries\lvgl\src\draw\sw/lv_draw_sw_blend.c **** 
  26:..\..\..\arduinoLCD\test\Pain Drain\libraries\lvgl\src\draw\sw/lv_draw_sw_blend.c **** static void fill_set_px(lv_color_t * dest_buf, const lv_area_t * blend_area, lv_coord_t dest_stride
  27:..\..\..\arduinoLCD\test\Pain Drain\libraries\lvgl\src\draw\sw/lv_draw_sw_blend.c ****                         lv_color_t color, lv_opa_t opa, const lv_opa_t * mask, lv_coord_t mask_stid
  28:..\..\..\arduinoLCD\test\Pain Drain\libraries\lvgl\src\draw\sw/lv_draw_sw_blend.c **** 
  29:..\..\..\arduinoLCD\test\Pain Drain\libraries\lvgl\src\draw\sw/lv_draw_sw_blend.c **** LV_ATTRIBUTE_FAST_MEM static void fill_normal(lv_color_t * dest_buf, const lv_area_t * dest_area,
  30:..\..\..\arduinoLCD\test\Pain Drain\libraries\lvgl\src\draw\sw/lv_draw_sw_blend.c ****                                               lv_coord_t dest_stride, lv_color_t color, lv_opa_t op
  31:..\..\..\arduinoLCD\test\Pain Drain\libraries\lvgl\src\draw\sw/lv_draw_sw_blend.c **** 
ARM GAS  C:\Users\haske\AppData\Local\Temp\ccydbpJh.s 			page 2


  32:..\..\..\arduinoLCD\test\Pain Drain\libraries\lvgl\src\draw\sw/lv_draw_sw_blend.c **** 
  33:..\..\..\arduinoLCD\test\Pain Drain\libraries\lvgl\src\draw\sw/lv_draw_sw_blend.c **** #if LV_COLOR_SCREEN_TRANSP
  34:..\..\..\arduinoLCD\test\Pain Drain\libraries\lvgl\src\draw\sw/lv_draw_sw_blend.c **** LV_ATTRIBUTE_FAST_MEM static void fill_argb(lv_color_t * dest_buf, const lv_area_t * dest_area,
  35:..\..\..\arduinoLCD\test\Pain Drain\libraries\lvgl\src\draw\sw/lv_draw_sw_blend.c ****                                             lv_coord_t dest_stride, lv_color_t color, lv_opa_t opa,
  36:..\..\..\arduinoLCD\test\Pain Drain\libraries\lvgl\src\draw\sw/lv_draw_sw_blend.c **** #endif /*LV_COLOR_SCREEN_TRANSP*/
  37:..\..\..\arduinoLCD\test\Pain Drain\libraries\lvgl\src\draw\sw/lv_draw_sw_blend.c **** 
  38:..\..\..\arduinoLCD\test\Pain Drain\libraries\lvgl\src\draw\sw/lv_draw_sw_blend.c **** #if LV_DRAW_COMPLEX
  39:..\..\..\arduinoLCD\test\Pain Drain\libraries\lvgl\src\draw\sw/lv_draw_sw_blend.c **** static void fill_blended(lv_color_t * dest_buf, const lv_area_t * dest_area, lv_coord_t dest_stride
  40:..\..\..\arduinoLCD\test\Pain Drain\libraries\lvgl\src\draw\sw/lv_draw_sw_blend.c ****                          lv_opa_t opa, const lv_opa_t * mask, lv_coord_t mask_stride, lv_blend_mode
  41:..\..\..\arduinoLCD\test\Pain Drain\libraries\lvgl\src\draw\sw/lv_draw_sw_blend.c **** #endif  /*LV_DRAW_COMPLEX*/
  42:..\..\..\arduinoLCD\test\Pain Drain\libraries\lvgl\src\draw\sw/lv_draw_sw_blend.c **** 
  43:..\..\..\arduinoLCD\test\Pain Drain\libraries\lvgl\src\draw\sw/lv_draw_sw_blend.c **** static void map_set_px(lv_color_t * dest_buf, const lv_area_t * dest_area, lv_coord_t dest_stride,
  44:..\..\..\arduinoLCD\test\Pain Drain\libraries\lvgl\src\draw\sw/lv_draw_sw_blend.c ****                        const lv_color_t * src_buf, lv_coord_t src_stride, lv_opa_t opa, const lv_op
  45:..\..\..\arduinoLCD\test\Pain Drain\libraries\lvgl\src\draw\sw/lv_draw_sw_blend.c **** 
  46:..\..\..\arduinoLCD\test\Pain Drain\libraries\lvgl\src\draw\sw/lv_draw_sw_blend.c **** LV_ATTRIBUTE_FAST_MEM static void map_normal(lv_color_t * dest_buf, const lv_area_t * dest_area, lv
  47:..\..\..\arduinoLCD\test\Pain Drain\libraries\lvgl\src\draw\sw/lv_draw_sw_blend.c ****                                              const lv_color_t * src_buf, lv_coord_t src_stride, lv_
  48:..\..\..\arduinoLCD\test\Pain Drain\libraries\lvgl\src\draw\sw/lv_draw_sw_blend.c **** 
  49:..\..\..\arduinoLCD\test\Pain Drain\libraries\lvgl\src\draw\sw/lv_draw_sw_blend.c **** #if LV_COLOR_SCREEN_TRANSP
  50:..\..\..\arduinoLCD\test\Pain Drain\libraries\lvgl\src\draw\sw/lv_draw_sw_blend.c **** LV_ATTRIBUTE_FAST_MEM static void map_argb(lv_color_t * dest_buf, const lv_area_t * dest_area, lv_c
  51:..\..\..\arduinoLCD\test\Pain Drain\libraries\lvgl\src\draw\sw/lv_draw_sw_blend.c ****                                            const lv_color_t * src_buf, lv_coord_t src_stride, lv_op
  52:..\..\..\arduinoLCD\test\Pain Drain\libraries\lvgl\src\draw\sw/lv_draw_sw_blend.c ****                                            const lv_opa_t * mask, lv_coord_t mask_stride, lv_blend_
  53:..\..\..\arduinoLCD\test\Pain Drain\libraries\lvgl\src\draw\sw/lv_draw_sw_blend.c **** 
  54:..\..\..\arduinoLCD\test\Pain Drain\libraries\lvgl\src\draw\sw/lv_draw_sw_blend.c **** #endif /*LV_COLOR_SCREEN_TRANSP*/
  55:..\..\..\arduinoLCD\test\Pain Drain\libraries\lvgl\src\draw\sw/lv_draw_sw_blend.c **** 
  56:..\..\..\arduinoLCD\test\Pain Drain\libraries\lvgl\src\draw\sw/lv_draw_sw_blend.c **** #if LV_DRAW_COMPLEX
  57:..\..\..\arduinoLCD\test\Pain Drain\libraries\lvgl\src\draw\sw/lv_draw_sw_blend.c **** static void map_blended(lv_color_t * dest_buf, const lv_area_t * dest_area, lv_coord_t dest_stride,
  58:..\..\..\arduinoLCD\test\Pain Drain\libraries\lvgl\src\draw\sw/lv_draw_sw_blend.c ****                         const lv_color_t * src_buf, lv_coord_t src_stride, lv_opa_t opa,
  59:..\..\..\arduinoLCD\test\Pain Drain\libraries\lvgl\src\draw\sw/lv_draw_sw_blend.c ****                         const lv_opa_t * mask, lv_coord_t mask_stride, lv_blend_mode_t blend_mode);
  60:..\..\..\arduinoLCD\test\Pain Drain\libraries\lvgl\src\draw\sw/lv_draw_sw_blend.c **** 
  61:..\..\..\arduinoLCD\test\Pain Drain\libraries\lvgl\src\draw\sw/lv_draw_sw_blend.c **** static inline lv_color_t color_blend_true_color_additive(lv_color_t fg, lv_color_t bg, lv_opa_t opa
  62:..\..\..\arduinoLCD\test\Pain Drain\libraries\lvgl\src\draw\sw/lv_draw_sw_blend.c **** static inline lv_color_t color_blend_true_color_subtractive(lv_color_t fg, lv_color_t bg, lv_opa_t 
  63:..\..\..\arduinoLCD\test\Pain Drain\libraries\lvgl\src\draw\sw/lv_draw_sw_blend.c **** static inline lv_color_t color_blend_true_color_multiply(lv_color_t fg, lv_color_t bg, lv_opa_t opa
  64:..\..\..\arduinoLCD\test\Pain Drain\libraries\lvgl\src\draw\sw/lv_draw_sw_blend.c **** #endif /*LV_DRAW_COMPLEX*/
  65:..\..\..\arduinoLCD\test\Pain Drain\libraries\lvgl\src\draw\sw/lv_draw_sw_blend.c **** 
  66:..\..\..\arduinoLCD\test\Pain Drain\libraries\lvgl\src\draw\sw/lv_draw_sw_blend.c **** /**********************
  67:..\..\..\arduinoLCD\test\Pain Drain\libraries\lvgl\src\draw\sw/lv_draw_sw_blend.c ****  *  STATIC VARIABLES
  68:..\..\..\arduinoLCD\test\Pain Drain\libraries\lvgl\src\draw\sw/lv_draw_sw_blend.c ****  **********************/
  69:..\..\..\arduinoLCD\test\Pain Drain\libraries\lvgl\src\draw\sw/lv_draw_sw_blend.c **** 
  70:..\..\..\arduinoLCD\test\Pain Drain\libraries\lvgl\src\draw\sw/lv_draw_sw_blend.c **** /**********************
  71:..\..\..\arduinoLCD\test\Pain Drain\libraries\lvgl\src\draw\sw/lv_draw_sw_blend.c ****  *      MACROS
  72:..\..\..\arduinoLCD\test\Pain Drain\libraries\lvgl\src\draw\sw/lv_draw_sw_blend.c ****  **********************/
  73:..\..\..\arduinoLCD\test\Pain Drain\libraries\lvgl\src\draw\sw/lv_draw_sw_blend.c **** #define FILL_NORMAL_MASK_PX(color)                                                          \
  74:..\..\..\arduinoLCD\test\Pain Drain\libraries\lvgl\src\draw\sw/lv_draw_sw_blend.c ****     if(*mask == LV_OPA_COVER) *dest_buf = color;                                 \
  75:..\..\..\arduinoLCD\test\Pain Drain\libraries\lvgl\src\draw\sw/lv_draw_sw_blend.c ****     else *dest_buf = lv_color_mix(color, *dest_buf, *mask);            \
  76:..\..\..\arduinoLCD\test\Pain Drain\libraries\lvgl\src\draw\sw/lv_draw_sw_blend.c ****     mask++;                                                         \
  77:..\..\..\arduinoLCD\test\Pain Drain\libraries\lvgl\src\draw\sw/lv_draw_sw_blend.c ****     dest_buf++;
  78:..\..\..\arduinoLCD\test\Pain Drain\libraries\lvgl\src\draw\sw/lv_draw_sw_blend.c **** 
  79:..\..\..\arduinoLCD\test\Pain Drain\libraries\lvgl\src\draw\sw/lv_draw_sw_blend.c **** #define MAP_NORMAL_MASK_PX(x)                                                          \
  80:..\..\..\arduinoLCD\test\Pain Drain\libraries\lvgl\src\draw\sw/lv_draw_sw_blend.c ****     if(*mask_tmp_x) {          \
  81:..\..\..\arduinoLCD\test\Pain Drain\libraries\lvgl\src\draw\sw/lv_draw_sw_blend.c ****         if(*mask_tmp_x == LV_OPA_COVER) dest_buf[x] = src_buf[x];                                 \
  82:..\..\..\arduinoLCD\test\Pain Drain\libraries\lvgl\src\draw\sw/lv_draw_sw_blend.c ****         else dest_buf[x] = lv_color_mix(src_buf[x], dest_buf[x], *mask_tmp_x);            \
  83:..\..\..\arduinoLCD\test\Pain Drain\libraries\lvgl\src\draw\sw/lv_draw_sw_blend.c ****     }                                                                                              
  84:..\..\..\arduinoLCD\test\Pain Drain\libraries\lvgl\src\draw\sw/lv_draw_sw_blend.c ****     mask_tmp_x++;
  85:..\..\..\arduinoLCD\test\Pain Drain\libraries\lvgl\src\draw\sw/lv_draw_sw_blend.c **** 
  86:..\..\..\arduinoLCD\test\Pain Drain\libraries\lvgl\src\draw\sw/lv_draw_sw_blend.c **** 
  87:..\..\..\arduinoLCD\test\Pain Drain\libraries\lvgl\src\draw\sw/lv_draw_sw_blend.c **** /**********************
  88:..\..\..\arduinoLCD\test\Pain Drain\libraries\lvgl\src\draw\sw/lv_draw_sw_blend.c ****  *   GLOBAL FUNCTIONS
ARM GAS  C:\Users\haske\AppData\Local\Temp\ccydbpJh.s 			page 3


  89:..\..\..\arduinoLCD\test\Pain Drain\libraries\lvgl\src\draw\sw/lv_draw_sw_blend.c ****  **********************/
  90:..\..\..\arduinoLCD\test\Pain Drain\libraries\lvgl\src\draw\sw/lv_draw_sw_blend.c **** 
  91:..\..\..\arduinoLCD\test\Pain Drain\libraries\lvgl\src\draw\sw/lv_draw_sw_blend.c **** void lv_draw_sw_blend(lv_draw_ctx_t * draw_ctx, const lv_draw_sw_blend_dsc_t * dsc)
  92:..\..\..\arduinoLCD\test\Pain Drain\libraries\lvgl\src\draw\sw/lv_draw_sw_blend.c **** {
  93:..\..\..\arduinoLCD\test\Pain Drain\libraries\lvgl\src\draw\sw/lv_draw_sw_blend.c ****     /*Do not draw transparent things*/
  94:..\..\..\arduinoLCD\test\Pain Drain\libraries\lvgl\src\draw\sw/lv_draw_sw_blend.c ****     if(dsc->opa <= LV_OPA_MIN) return;
  95:..\..\..\arduinoLCD\test\Pain Drain\libraries\lvgl\src\draw\sw/lv_draw_sw_blend.c **** 
  96:..\..\..\arduinoLCD\test\Pain Drain\libraries\lvgl\src\draw\sw/lv_draw_sw_blend.c ****     lv_area_t blend_area;
  97:..\..\..\arduinoLCD\test\Pain Drain\libraries\lvgl\src\draw\sw/lv_draw_sw_blend.c ****     if(!_lv_area_intersect(&blend_area, dsc->blend_area, draw_ctx->clip_area)) return;
  98:..\..\..\arduinoLCD\test\Pain Drain\libraries\lvgl\src\draw\sw/lv_draw_sw_blend.c **** 
  99:..\..\..\arduinoLCD\test\Pain Drain\libraries\lvgl\src\draw\sw/lv_draw_sw_blend.c ****     if(draw_ctx->wait_for_finish) draw_ctx->wait_for_finish(draw_ctx);
 100:..\..\..\arduinoLCD\test\Pain Drain\libraries\lvgl\src\draw\sw/lv_draw_sw_blend.c **** 
 101:..\..\..\arduinoLCD\test\Pain Drain\libraries\lvgl\src\draw\sw/lv_draw_sw_blend.c ****     ((lv_draw_sw_ctx_t *)draw_ctx)->blend(draw_ctx, dsc);
 102:..\..\..\arduinoLCD\test\Pain Drain\libraries\lvgl\src\draw\sw/lv_draw_sw_blend.c **** }
 103:..\..\..\arduinoLCD\test\Pain Drain\libraries\lvgl\src\draw\sw/lv_draw_sw_blend.c **** 
 104:..\..\..\arduinoLCD\test\Pain Drain\libraries\lvgl\src\draw\sw/lv_draw_sw_blend.c **** LV_ATTRIBUTE_FAST_MEM void lv_draw_sw_blend_basic(lv_draw_ctx_t * draw_ctx, const lv_draw_sw_blend_
 105:..\..\..\arduinoLCD\test\Pain Drain\libraries\lvgl\src\draw\sw/lv_draw_sw_blend.c **** {
 106:..\..\..\arduinoLCD\test\Pain Drain\libraries\lvgl\src\draw\sw/lv_draw_sw_blend.c ****     lv_opa_t * mask;
 107:..\..\..\arduinoLCD\test\Pain Drain\libraries\lvgl\src\draw\sw/lv_draw_sw_blend.c ****     if(dsc->mask_buf == NULL) mask = NULL;
 108:..\..\..\arduinoLCD\test\Pain Drain\libraries\lvgl\src\draw\sw/lv_draw_sw_blend.c ****     if(dsc->mask_buf && dsc->mask_res == LV_DRAW_MASK_RES_TRANSP) return;
 109:..\..\..\arduinoLCD\test\Pain Drain\libraries\lvgl\src\draw\sw/lv_draw_sw_blend.c ****     else if(dsc->mask_res == LV_DRAW_MASK_RES_FULL_COVER) mask = NULL;
 110:..\..\..\arduinoLCD\test\Pain Drain\libraries\lvgl\src\draw\sw/lv_draw_sw_blend.c ****     else mask = dsc->mask_buf;
 111:..\..\..\arduinoLCD\test\Pain Drain\libraries\lvgl\src\draw\sw/lv_draw_sw_blend.c **** 
 112:..\..\..\arduinoLCD\test\Pain Drain\libraries\lvgl\src\draw\sw/lv_draw_sw_blend.c ****     lv_coord_t dest_stride = lv_area_get_width(draw_ctx->buf_area);
 113:..\..\..\arduinoLCD\test\Pain Drain\libraries\lvgl\src\draw\sw/lv_draw_sw_blend.c **** 
 114:..\..\..\arduinoLCD\test\Pain Drain\libraries\lvgl\src\draw\sw/lv_draw_sw_blend.c ****     lv_area_t blend_area;
 115:..\..\..\arduinoLCD\test\Pain Drain\libraries\lvgl\src\draw\sw/lv_draw_sw_blend.c ****     if(!_lv_area_intersect(&blend_area, dsc->blend_area, draw_ctx->clip_area)) return;
 116:..\..\..\arduinoLCD\test\Pain Drain\libraries\lvgl\src\draw\sw/lv_draw_sw_blend.c **** 
 117:..\..\..\arduinoLCD\test\Pain Drain\libraries\lvgl\src\draw\sw/lv_draw_sw_blend.c ****     lv_disp_t * disp = _lv_refr_get_disp_refreshing();
 118:..\..\..\arduinoLCD\test\Pain Drain\libraries\lvgl\src\draw\sw/lv_draw_sw_blend.c ****     lv_color_t * dest_buf = draw_ctx->buf;
 119:..\..\..\arduinoLCD\test\Pain Drain\libraries\lvgl\src\draw\sw/lv_draw_sw_blend.c ****     if(disp->driver->set_px_cb == NULL) {
 120:..\..\..\arduinoLCD\test\Pain Drain\libraries\lvgl\src\draw\sw/lv_draw_sw_blend.c ****         if(disp->driver->screen_transp == 0) {
 121:..\..\..\arduinoLCD\test\Pain Drain\libraries\lvgl\src\draw\sw/lv_draw_sw_blend.c ****             dest_buf += dest_stride * (blend_area.y1 - draw_ctx->buf_area->y1) + (blend_area.x1 - d
 122:..\..\..\arduinoLCD\test\Pain Drain\libraries\lvgl\src\draw\sw/lv_draw_sw_blend.c ****         }
 123:..\..\..\arduinoLCD\test\Pain Drain\libraries\lvgl\src\draw\sw/lv_draw_sw_blend.c ****         else {
 124:..\..\..\arduinoLCD\test\Pain Drain\libraries\lvgl\src\draw\sw/lv_draw_sw_blend.c ****             /*With LV_COLOR_DEPTH 16 it means ARGB8565 (3 bytes format)*/
 125:..\..\..\arduinoLCD\test\Pain Drain\libraries\lvgl\src\draw\sw/lv_draw_sw_blend.c ****             uint8_t * dest_buf8 = (uint8_t *) dest_buf;
 126:..\..\..\arduinoLCD\test\Pain Drain\libraries\lvgl\src\draw\sw/lv_draw_sw_blend.c ****             dest_buf8 += dest_stride * (blend_area.y1 - draw_ctx->buf_area->y1) * LV_IMG_PX_SIZE_AL
 127:..\..\..\arduinoLCD\test\Pain Drain\libraries\lvgl\src\draw\sw/lv_draw_sw_blend.c ****             dest_buf8 += (blend_area.x1 - draw_ctx->buf_area->x1) * LV_IMG_PX_SIZE_ALPHA_BYTE;
 128:..\..\..\arduinoLCD\test\Pain Drain\libraries\lvgl\src\draw\sw/lv_draw_sw_blend.c ****             dest_buf = (lv_color_t *)dest_buf8;
 129:..\..\..\arduinoLCD\test\Pain Drain\libraries\lvgl\src\draw\sw/lv_draw_sw_blend.c ****         }
 130:..\..\..\arduinoLCD\test\Pain Drain\libraries\lvgl\src\draw\sw/lv_draw_sw_blend.c ****     }
 131:..\..\..\arduinoLCD\test\Pain Drain\libraries\lvgl\src\draw\sw/lv_draw_sw_blend.c **** 
 132:..\..\..\arduinoLCD\test\Pain Drain\libraries\lvgl\src\draw\sw/lv_draw_sw_blend.c ****     const lv_color_t * src_buf = dsc->src_buf;
 133:..\..\..\arduinoLCD\test\Pain Drain\libraries\lvgl\src\draw\sw/lv_draw_sw_blend.c ****     lv_coord_t src_stride;
 134:..\..\..\arduinoLCD\test\Pain Drain\libraries\lvgl\src\draw\sw/lv_draw_sw_blend.c ****     if(src_buf) {
 135:..\..\..\arduinoLCD\test\Pain Drain\libraries\lvgl\src\draw\sw/lv_draw_sw_blend.c ****         src_stride = lv_area_get_width(dsc->blend_area);
 136:..\..\..\arduinoLCD\test\Pain Drain\libraries\lvgl\src\draw\sw/lv_draw_sw_blend.c ****         src_buf += src_stride * (blend_area.y1 - dsc->blend_area->y1) + (blend_area.x1 - dsc->blend
 137:..\..\..\arduinoLCD\test\Pain Drain\libraries\lvgl\src\draw\sw/lv_draw_sw_blend.c ****     }
 138:..\..\..\arduinoLCD\test\Pain Drain\libraries\lvgl\src\draw\sw/lv_draw_sw_blend.c ****     else {
 139:..\..\..\arduinoLCD\test\Pain Drain\libraries\lvgl\src\draw\sw/lv_draw_sw_blend.c ****         src_stride = 0;
 140:..\..\..\arduinoLCD\test\Pain Drain\libraries\lvgl\src\draw\sw/lv_draw_sw_blend.c ****     }
 141:..\..\..\arduinoLCD\test\Pain Drain\libraries\lvgl\src\draw\sw/lv_draw_sw_blend.c **** 
 142:..\..\..\arduinoLCD\test\Pain Drain\libraries\lvgl\src\draw\sw/lv_draw_sw_blend.c ****     lv_coord_t mask_stride;
 143:..\..\..\arduinoLCD\test\Pain Drain\libraries\lvgl\src\draw\sw/lv_draw_sw_blend.c ****     if(mask) {
 144:..\..\..\arduinoLCD\test\Pain Drain\libraries\lvgl\src\draw\sw/lv_draw_sw_blend.c ****         /*Round the values in the mask if anti-aliasing is disabled*/
 145:..\..\..\arduinoLCD\test\Pain Drain\libraries\lvgl\src\draw\sw/lv_draw_sw_blend.c ****         if(disp->driver->antialiasing == 0) {
ARM GAS  C:\Users\haske\AppData\Local\Temp\ccydbpJh.s 			page 4


 146:..\..\..\arduinoLCD\test\Pain Drain\libraries\lvgl\src\draw\sw/lv_draw_sw_blend.c ****             int32_t mask_size = lv_area_get_size(dsc->mask_area);
 147:..\..\..\arduinoLCD\test\Pain Drain\libraries\lvgl\src\draw\sw/lv_draw_sw_blend.c ****             int32_t i;
 148:..\..\..\arduinoLCD\test\Pain Drain\libraries\lvgl\src\draw\sw/lv_draw_sw_blend.c ****             for(i = 0; i < mask_size; i++) {
 149:..\..\..\arduinoLCD\test\Pain Drain\libraries\lvgl\src\draw\sw/lv_draw_sw_blend.c ****                 mask[i] = mask[i] > 128 ? LV_OPA_COVER : LV_OPA_TRANSP;
 150:..\..\..\arduinoLCD\test\Pain Drain\libraries\lvgl\src\draw\sw/lv_draw_sw_blend.c ****             }
 151:..\..\..\arduinoLCD\test\Pain Drain\libraries\lvgl\src\draw\sw/lv_draw_sw_blend.c ****         }
 152:..\..\..\arduinoLCD\test\Pain Drain\libraries\lvgl\src\draw\sw/lv_draw_sw_blend.c **** 
 153:..\..\..\arduinoLCD\test\Pain Drain\libraries\lvgl\src\draw\sw/lv_draw_sw_blend.c ****         mask_stride = lv_area_get_width(dsc->mask_area);
 154:..\..\..\arduinoLCD\test\Pain Drain\libraries\lvgl\src\draw\sw/lv_draw_sw_blend.c ****         mask += mask_stride * (blend_area.y1 - dsc->mask_area->y1) + (blend_area.x1 - dsc->mask_are
 155:..\..\..\arduinoLCD\test\Pain Drain\libraries\lvgl\src\draw\sw/lv_draw_sw_blend.c **** 
 156:..\..\..\arduinoLCD\test\Pain Drain\libraries\lvgl\src\draw\sw/lv_draw_sw_blend.c ****     }
 157:..\..\..\arduinoLCD\test\Pain Drain\libraries\lvgl\src\draw\sw/lv_draw_sw_blend.c ****     else {
 158:..\..\..\arduinoLCD\test\Pain Drain\libraries\lvgl\src\draw\sw/lv_draw_sw_blend.c ****         mask_stride = 0;
 159:..\..\..\arduinoLCD\test\Pain Drain\libraries\lvgl\src\draw\sw/lv_draw_sw_blend.c ****     }
 160:..\..\..\arduinoLCD\test\Pain Drain\libraries\lvgl\src\draw\sw/lv_draw_sw_blend.c **** 
 161:..\..\..\arduinoLCD\test\Pain Drain\libraries\lvgl\src\draw\sw/lv_draw_sw_blend.c ****     lv_area_move(&blend_area, -draw_ctx->buf_area->x1, -draw_ctx->buf_area->y1);
 162:..\..\..\arduinoLCD\test\Pain Drain\libraries\lvgl\src\draw\sw/lv_draw_sw_blend.c **** 
 163:..\..\..\arduinoLCD\test\Pain Drain\libraries\lvgl\src\draw\sw/lv_draw_sw_blend.c **** 
 164:..\..\..\arduinoLCD\test\Pain Drain\libraries\lvgl\src\draw\sw/lv_draw_sw_blend.c ****     if(disp->driver->set_px_cb) {
 165:..\..\..\arduinoLCD\test\Pain Drain\libraries\lvgl\src\draw\sw/lv_draw_sw_blend.c ****         if(dsc->src_buf == NULL) {
 166:..\..\..\arduinoLCD\test\Pain Drain\libraries\lvgl\src\draw\sw/lv_draw_sw_blend.c ****             fill_set_px(dest_buf, &blend_area, dest_stride, dsc->color, dsc->opa, mask, mask_stride
 167:..\..\..\arduinoLCD\test\Pain Drain\libraries\lvgl\src\draw\sw/lv_draw_sw_blend.c ****         }
 168:..\..\..\arduinoLCD\test\Pain Drain\libraries\lvgl\src\draw\sw/lv_draw_sw_blend.c ****         else {
 169:..\..\..\arduinoLCD\test\Pain Drain\libraries\lvgl\src\draw\sw/lv_draw_sw_blend.c ****             map_set_px(dest_buf, &blend_area, dest_stride, src_buf, src_stride, dsc->opa, mask, mas
 170:..\..\..\arduinoLCD\test\Pain Drain\libraries\lvgl\src\draw\sw/lv_draw_sw_blend.c ****         }
 171:..\..\..\arduinoLCD\test\Pain Drain\libraries\lvgl\src\draw\sw/lv_draw_sw_blend.c ****     }
 172:..\..\..\arduinoLCD\test\Pain Drain\libraries\lvgl\src\draw\sw/lv_draw_sw_blend.c **** #if LV_COLOR_SCREEN_TRANSP
 173:..\..\..\arduinoLCD\test\Pain Drain\libraries\lvgl\src\draw\sw/lv_draw_sw_blend.c ****     else if(disp->driver->screen_transp) {
 174:..\..\..\arduinoLCD\test\Pain Drain\libraries\lvgl\src\draw\sw/lv_draw_sw_blend.c ****         if(dsc->src_buf == NULL) {
 175:..\..\..\arduinoLCD\test\Pain Drain\libraries\lvgl\src\draw\sw/lv_draw_sw_blend.c ****             fill_argb(dest_buf, &blend_area, dest_stride, dsc->color, dsc->opa, mask, mask_stride);
 176:..\..\..\arduinoLCD\test\Pain Drain\libraries\lvgl\src\draw\sw/lv_draw_sw_blend.c ****         }
 177:..\..\..\arduinoLCD\test\Pain Drain\libraries\lvgl\src\draw\sw/lv_draw_sw_blend.c ****         else {
 178:..\..\..\arduinoLCD\test\Pain Drain\libraries\lvgl\src\draw\sw/lv_draw_sw_blend.c ****             map_argb(dest_buf, &blend_area, dest_stride, src_buf, src_stride, dsc->opa, mask, mask_
 179:..\..\..\arduinoLCD\test\Pain Drain\libraries\lvgl\src\draw\sw/lv_draw_sw_blend.c ****         }
 180:..\..\..\arduinoLCD\test\Pain Drain\libraries\lvgl\src\draw\sw/lv_draw_sw_blend.c ****     }
 181:..\..\..\arduinoLCD\test\Pain Drain\libraries\lvgl\src\draw\sw/lv_draw_sw_blend.c **** #endif
 182:..\..\..\arduinoLCD\test\Pain Drain\libraries\lvgl\src\draw\sw/lv_draw_sw_blend.c ****     else if(dsc->blend_mode == LV_BLEND_MODE_NORMAL) {
 183:..\..\..\arduinoLCD\test\Pain Drain\libraries\lvgl\src\draw\sw/lv_draw_sw_blend.c ****         if(dsc->src_buf == NULL) {
 184:..\..\..\arduinoLCD\test\Pain Drain\libraries\lvgl\src\draw\sw/lv_draw_sw_blend.c ****             fill_normal(dest_buf, &blend_area, dest_stride, dsc->color, dsc->opa, mask, mask_stride
 185:..\..\..\arduinoLCD\test\Pain Drain\libraries\lvgl\src\draw\sw/lv_draw_sw_blend.c ****         }
 186:..\..\..\arduinoLCD\test\Pain Drain\libraries\lvgl\src\draw\sw/lv_draw_sw_blend.c ****         else {
 187:..\..\..\arduinoLCD\test\Pain Drain\libraries\lvgl\src\draw\sw/lv_draw_sw_blend.c ****             map_normal(dest_buf, &blend_area, dest_stride, src_buf, src_stride, dsc->opa, mask, mas
 188:..\..\..\arduinoLCD\test\Pain Drain\libraries\lvgl\src\draw\sw/lv_draw_sw_blend.c ****         }
 189:..\..\..\arduinoLCD\test\Pain Drain\libraries\lvgl\src\draw\sw/lv_draw_sw_blend.c ****     }
 190:..\..\..\arduinoLCD\test\Pain Drain\libraries\lvgl\src\draw\sw/lv_draw_sw_blend.c ****     else {
 191:..\..\..\arduinoLCD\test\Pain Drain\libraries\lvgl\src\draw\sw/lv_draw_sw_blend.c **** #if LV_DRAW_COMPLEX
 192:..\..\..\arduinoLCD\test\Pain Drain\libraries\lvgl\src\draw\sw/lv_draw_sw_blend.c ****         if(dsc->src_buf == NULL) {
 193:..\..\..\arduinoLCD\test\Pain Drain\libraries\lvgl\src\draw\sw/lv_draw_sw_blend.c ****             fill_blended(dest_buf, &blend_area, dest_stride, dsc->color, dsc->opa, mask, mask_strid
 194:..\..\..\arduinoLCD\test\Pain Drain\libraries\lvgl\src\draw\sw/lv_draw_sw_blend.c ****         }
 195:..\..\..\arduinoLCD\test\Pain Drain\libraries\lvgl\src\draw\sw/lv_draw_sw_blend.c ****         else {
 196:..\..\..\arduinoLCD\test\Pain Drain\libraries\lvgl\src\draw\sw/lv_draw_sw_blend.c ****             map_blended(dest_buf, &blend_area, dest_stride, src_buf, src_stride, dsc->opa, mask, ma
 197:..\..\..\arduinoLCD\test\Pain Drain\libraries\lvgl\src\draw\sw/lv_draw_sw_blend.c ****         }
 198:..\..\..\arduinoLCD\test\Pain Drain\libraries\lvgl\src\draw\sw/lv_draw_sw_blend.c **** #endif
 199:..\..\..\arduinoLCD\test\Pain Drain\libraries\lvgl\src\draw\sw/lv_draw_sw_blend.c ****     }
 200:..\..\..\arduinoLCD\test\Pain Drain\libraries\lvgl\src\draw\sw/lv_draw_sw_blend.c **** }
 201:..\..\..\arduinoLCD\test\Pain Drain\libraries\lvgl\src\draw\sw/lv_draw_sw_blend.c **** 
 202:..\..\..\arduinoLCD\test\Pain Drain\libraries\lvgl\src\draw\sw/lv_draw_sw_blend.c **** 
ARM GAS  C:\Users\haske\AppData\Local\Temp\ccydbpJh.s 			page 5


 203:..\..\..\arduinoLCD\test\Pain Drain\libraries\lvgl\src\draw\sw/lv_draw_sw_blend.c **** /**********************
 204:..\..\..\arduinoLCD\test\Pain Drain\libraries\lvgl\src\draw\sw/lv_draw_sw_blend.c ****  *   STATIC FUNCTIONS
 205:..\..\..\arduinoLCD\test\Pain Drain\libraries\lvgl\src\draw\sw/lv_draw_sw_blend.c ****  **********************/
 206:..\..\..\arduinoLCD\test\Pain Drain\libraries\lvgl\src\draw\sw/lv_draw_sw_blend.c **** 
 207:..\..\..\arduinoLCD\test\Pain Drain\libraries\lvgl\src\draw\sw/lv_draw_sw_blend.c **** static void fill_set_px(lv_color_t * dest_buf, const lv_area_t * blend_area, lv_coord_t dest_stride
 208:..\..\..\arduinoLCD\test\Pain Drain\libraries\lvgl\src\draw\sw/lv_draw_sw_blend.c ****                         lv_color_t color, lv_opa_t opa, const lv_opa_t * mask, lv_coord_t mask_stid
 209:..\..\..\arduinoLCD\test\Pain Drain\libraries\lvgl\src\draw\sw/lv_draw_sw_blend.c **** {
 210:..\..\..\arduinoLCD\test\Pain Drain\libraries\lvgl\src\draw\sw/lv_draw_sw_blend.c ****     lv_disp_t * disp = _lv_refr_get_disp_refreshing();
 211:..\..\..\arduinoLCD\test\Pain Drain\libraries\lvgl\src\draw\sw/lv_draw_sw_blend.c **** 
 212:..\..\..\arduinoLCD\test\Pain Drain\libraries\lvgl\src\draw\sw/lv_draw_sw_blend.c ****     int32_t x;
 213:..\..\..\arduinoLCD\test\Pain Drain\libraries\lvgl\src\draw\sw/lv_draw_sw_blend.c ****     int32_t y;
 214:..\..\..\arduinoLCD\test\Pain Drain\libraries\lvgl\src\draw\sw/lv_draw_sw_blend.c **** 
 215:..\..\..\arduinoLCD\test\Pain Drain\libraries\lvgl\src\draw\sw/lv_draw_sw_blend.c ****     if(mask == NULL) {
 216:..\..\..\arduinoLCD\test\Pain Drain\libraries\lvgl\src\draw\sw/lv_draw_sw_blend.c ****         for(y = blend_area->y1; y <= blend_area->y2; y++) {
 217:..\..\..\arduinoLCD\test\Pain Drain\libraries\lvgl\src\draw\sw/lv_draw_sw_blend.c ****             for(x = blend_area->x1; x <= blend_area->x2; x++) {
 218:..\..\..\arduinoLCD\test\Pain Drain\libraries\lvgl\src\draw\sw/lv_draw_sw_blend.c ****                 disp->driver->set_px_cb(disp->driver, (void *)dest_buf, dest_stride, x, y, color, o
 219:..\..\..\arduinoLCD\test\Pain Drain\libraries\lvgl\src\draw\sw/lv_draw_sw_blend.c ****             }
 220:..\..\..\arduinoLCD\test\Pain Drain\libraries\lvgl\src\draw\sw/lv_draw_sw_blend.c ****         }
 221:..\..\..\arduinoLCD\test\Pain Drain\libraries\lvgl\src\draw\sw/lv_draw_sw_blend.c ****     }
 222:..\..\..\arduinoLCD\test\Pain Drain\libraries\lvgl\src\draw\sw/lv_draw_sw_blend.c ****     else {
 223:..\..\..\arduinoLCD\test\Pain Drain\libraries\lvgl\src\draw\sw/lv_draw_sw_blend.c ****         int32_t w = lv_area_get_width(blend_area);
 224:..\..\..\arduinoLCD\test\Pain Drain\libraries\lvgl\src\draw\sw/lv_draw_sw_blend.c ****         int32_t h = lv_area_get_height(blend_area);
 225:..\..\..\arduinoLCD\test\Pain Drain\libraries\lvgl\src\draw\sw/lv_draw_sw_blend.c **** 
 226:..\..\..\arduinoLCD\test\Pain Drain\libraries\lvgl\src\draw\sw/lv_draw_sw_blend.c ****         for(y = 0; y < h; y++) {
 227:..\..\..\arduinoLCD\test\Pain Drain\libraries\lvgl\src\draw\sw/lv_draw_sw_blend.c ****             for(x = 0; x < w; x++) {
 228:..\..\..\arduinoLCD\test\Pain Drain\libraries\lvgl\src\draw\sw/lv_draw_sw_blend.c ****                 if(mask[x]) {
 229:..\..\..\arduinoLCD\test\Pain Drain\libraries\lvgl\src\draw\sw/lv_draw_sw_blend.c **** 
 230:..\..\..\arduinoLCD\test\Pain Drain\libraries\lvgl\src\draw\sw/lv_draw_sw_blend.c **** 
 231:..\..\..\arduinoLCD\test\Pain Drain\libraries\lvgl\src\draw\sw/lv_draw_sw_blend.c ****                     disp->driver->set_px_cb(disp->driver, (void *)dest_buf, dest_stride, blend_area
 232:..\..\..\arduinoLCD\test\Pain Drain\libraries\lvgl\src\draw\sw/lv_draw_sw_blend.c ****                                             (uint32_t)((uint32_t)opa * mask[x]) >> 8);
 233:..\..\..\arduinoLCD\test\Pain Drain\libraries\lvgl\src\draw\sw/lv_draw_sw_blend.c ****                 }
 234:..\..\..\arduinoLCD\test\Pain Drain\libraries\lvgl\src\draw\sw/lv_draw_sw_blend.c ****             }
 235:..\..\..\arduinoLCD\test\Pain Drain\libraries\lvgl\src\draw\sw/lv_draw_sw_blend.c ****             mask += mask_stide;
 236:..\..\..\arduinoLCD\test\Pain Drain\libraries\lvgl\src\draw\sw/lv_draw_sw_blend.c ****         }
 237:..\..\..\arduinoLCD\test\Pain Drain\libraries\lvgl\src\draw\sw/lv_draw_sw_blend.c ****     }
 238:..\..\..\arduinoLCD\test\Pain Drain\libraries\lvgl\src\draw\sw/lv_draw_sw_blend.c **** }
 239:..\..\..\arduinoLCD\test\Pain Drain\libraries\lvgl\src\draw\sw/lv_draw_sw_blend.c **** 
 240:..\..\..\arduinoLCD\test\Pain Drain\libraries\lvgl\src\draw\sw/lv_draw_sw_blend.c **** LV_ATTRIBUTE_FAST_MEM static void fill_normal(lv_color_t * dest_buf, const lv_area_t * dest_area,
 241:..\..\..\arduinoLCD\test\Pain Drain\libraries\lvgl\src\draw\sw/lv_draw_sw_blend.c ****                                               lv_coord_t dest_stride, lv_color_t color, lv_opa_t op
 242:..\..\..\arduinoLCD\test\Pain Drain\libraries\lvgl\src\draw\sw/lv_draw_sw_blend.c **** {
 243:..\..\..\arduinoLCD\test\Pain Drain\libraries\lvgl\src\draw\sw/lv_draw_sw_blend.c ****     int32_t w = lv_area_get_width(dest_area);
 244:..\..\..\arduinoLCD\test\Pain Drain\libraries\lvgl\src\draw\sw/lv_draw_sw_blend.c ****     int32_t h = lv_area_get_height(dest_area);
 245:..\..\..\arduinoLCD\test\Pain Drain\libraries\lvgl\src\draw\sw/lv_draw_sw_blend.c **** 
 246:..\..\..\arduinoLCD\test\Pain Drain\libraries\lvgl\src\draw\sw/lv_draw_sw_blend.c ****     int32_t x;
 247:..\..\..\arduinoLCD\test\Pain Drain\libraries\lvgl\src\draw\sw/lv_draw_sw_blend.c ****     int32_t y;
 248:..\..\..\arduinoLCD\test\Pain Drain\libraries\lvgl\src\draw\sw/lv_draw_sw_blend.c **** 
 249:..\..\..\arduinoLCD\test\Pain Drain\libraries\lvgl\src\draw\sw/lv_draw_sw_blend.c ****     /*No mask*/
 250:..\..\..\arduinoLCD\test\Pain Drain\libraries\lvgl\src\draw\sw/lv_draw_sw_blend.c ****     if(mask == NULL) {
 251:..\..\..\arduinoLCD\test\Pain Drain\libraries\lvgl\src\draw\sw/lv_draw_sw_blend.c ****         if(opa >= LV_OPA_MAX) {
 252:..\..\..\arduinoLCD\test\Pain Drain\libraries\lvgl\src\draw\sw/lv_draw_sw_blend.c ****             for(y = 0; y < h; y++) {
 253:..\..\..\arduinoLCD\test\Pain Drain\libraries\lvgl\src\draw\sw/lv_draw_sw_blend.c ****                 lv_color_fill(dest_buf, color, w);
 254:..\..\..\arduinoLCD\test\Pain Drain\libraries\lvgl\src\draw\sw/lv_draw_sw_blend.c ****                 dest_buf += dest_stride;
 255:..\..\..\arduinoLCD\test\Pain Drain\libraries\lvgl\src\draw\sw/lv_draw_sw_blend.c ****             }
 256:..\..\..\arduinoLCD\test\Pain Drain\libraries\lvgl\src\draw\sw/lv_draw_sw_blend.c ****         }
 257:..\..\..\arduinoLCD\test\Pain Drain\libraries\lvgl\src\draw\sw/lv_draw_sw_blend.c ****         /*Has opacity*/
 258:..\..\..\arduinoLCD\test\Pain Drain\libraries\lvgl\src\draw\sw/lv_draw_sw_blend.c ****         else {
 259:..\..\..\arduinoLCD\test\Pain Drain\libraries\lvgl\src\draw\sw/lv_draw_sw_blend.c ****             lv_color_t last_dest_color = lv_color_black();
ARM GAS  C:\Users\haske\AppData\Local\Temp\ccydbpJh.s 			page 6


 260:..\..\..\arduinoLCD\test\Pain Drain\libraries\lvgl\src\draw\sw/lv_draw_sw_blend.c ****             lv_color_t last_res_color = lv_color_mix(color, last_dest_color, opa);
 261:..\..\..\arduinoLCD\test\Pain Drain\libraries\lvgl\src\draw\sw/lv_draw_sw_blend.c **** 
 262:..\..\..\arduinoLCD\test\Pain Drain\libraries\lvgl\src\draw\sw/lv_draw_sw_blend.c **** #if LV_COLOR_MIX_ROUND_OFS == 0 && LV_COLOR_DEPTH == 16
 263:..\..\..\arduinoLCD\test\Pain Drain\libraries\lvgl\src\draw\sw/lv_draw_sw_blend.c ****             /*lv_color_mix work with an optimized algorithm with 16 bit color depth.
 264:..\..\..\arduinoLCD\test\Pain Drain\libraries\lvgl\src\draw\sw/lv_draw_sw_blend.c ****              *However, it introduces some rounded error on opa.
 265:..\..\..\arduinoLCD\test\Pain Drain\libraries\lvgl\src\draw\sw/lv_draw_sw_blend.c ****              *Introduce the same error here too to make lv_color_premult produces the same result *
 266:..\..\..\arduinoLCD\test\Pain Drain\libraries\lvgl\src\draw\sw/lv_draw_sw_blend.c ****             opa = (uint32_t)((uint32_t)opa + 4) >> 3;
 267:..\..\..\arduinoLCD\test\Pain Drain\libraries\lvgl\src\draw\sw/lv_draw_sw_blend.c ****             opa = opa << 3;
 268:..\..\..\arduinoLCD\test\Pain Drain\libraries\lvgl\src\draw\sw/lv_draw_sw_blend.c **** #endif
 269:..\..\..\arduinoLCD\test\Pain Drain\libraries\lvgl\src\draw\sw/lv_draw_sw_blend.c **** 
 270:..\..\..\arduinoLCD\test\Pain Drain\libraries\lvgl\src\draw\sw/lv_draw_sw_blend.c ****             uint16_t color_premult[3];
 271:..\..\..\arduinoLCD\test\Pain Drain\libraries\lvgl\src\draw\sw/lv_draw_sw_blend.c ****             lv_color_premult(color, opa, color_premult);
 272:..\..\..\arduinoLCD\test\Pain Drain\libraries\lvgl\src\draw\sw/lv_draw_sw_blend.c ****             lv_opa_t opa_inv = 255 - opa;
 273:..\..\..\arduinoLCD\test\Pain Drain\libraries\lvgl\src\draw\sw/lv_draw_sw_blend.c **** 
 274:..\..\..\arduinoLCD\test\Pain Drain\libraries\lvgl\src\draw\sw/lv_draw_sw_blend.c ****             for(y = 0; y < h; y++) {
 275:..\..\..\arduinoLCD\test\Pain Drain\libraries\lvgl\src\draw\sw/lv_draw_sw_blend.c ****                 for(x = 0; x < w; x++) {
 276:..\..\..\arduinoLCD\test\Pain Drain\libraries\lvgl\src\draw\sw/lv_draw_sw_blend.c ****                     if(last_dest_color.full != dest_buf[x].full) {
 277:..\..\..\arduinoLCD\test\Pain Drain\libraries\lvgl\src\draw\sw/lv_draw_sw_blend.c ****                         last_dest_color = dest_buf[x];
 278:..\..\..\arduinoLCD\test\Pain Drain\libraries\lvgl\src\draw\sw/lv_draw_sw_blend.c ****                         last_res_color = lv_color_mix_premult(color_premult, dest_buf[x], opa_inv);
 279:..\..\..\arduinoLCD\test\Pain Drain\libraries\lvgl\src\draw\sw/lv_draw_sw_blend.c ****                     }
 280:..\..\..\arduinoLCD\test\Pain Drain\libraries\lvgl\src\draw\sw/lv_draw_sw_blend.c ****                     dest_buf[x] = last_res_color;
 281:..\..\..\arduinoLCD\test\Pain Drain\libraries\lvgl\src\draw\sw/lv_draw_sw_blend.c ****                 }
 282:..\..\..\arduinoLCD\test\Pain Drain\libraries\lvgl\src\draw\sw/lv_draw_sw_blend.c ****                 dest_buf += dest_stride;
 283:..\..\..\arduinoLCD\test\Pain Drain\libraries\lvgl\src\draw\sw/lv_draw_sw_blend.c ****             }
 284:..\..\..\arduinoLCD\test\Pain Drain\libraries\lvgl\src\draw\sw/lv_draw_sw_blend.c ****         }
 285:..\..\..\arduinoLCD\test\Pain Drain\libraries\lvgl\src\draw\sw/lv_draw_sw_blend.c ****     }
 286:..\..\..\arduinoLCD\test\Pain Drain\libraries\lvgl\src\draw\sw/lv_draw_sw_blend.c ****     /*Masked*/
 287:..\..\..\arduinoLCD\test\Pain Drain\libraries\lvgl\src\draw\sw/lv_draw_sw_blend.c ****     else {
 288:..\..\..\arduinoLCD\test\Pain Drain\libraries\lvgl\src\draw\sw/lv_draw_sw_blend.c **** #if LV_COLOR_DEPTH == 16
 289:..\..\..\arduinoLCD\test\Pain Drain\libraries\lvgl\src\draw\sw/lv_draw_sw_blend.c ****         uint32_t c32 = color.full + ((uint32_t)color.full << 16);
 290:..\..\..\arduinoLCD\test\Pain Drain\libraries\lvgl\src\draw\sw/lv_draw_sw_blend.c **** #endif
 291:..\..\..\arduinoLCD\test\Pain Drain\libraries\lvgl\src\draw\sw/lv_draw_sw_blend.c ****         /*Only the mask matters*/
 292:..\..\..\arduinoLCD\test\Pain Drain\libraries\lvgl\src\draw\sw/lv_draw_sw_blend.c ****         if(opa >= LV_OPA_MAX) {
 293:..\..\..\arduinoLCD\test\Pain Drain\libraries\lvgl\src\draw\sw/lv_draw_sw_blend.c ****             int32_t x_end4 = w - 4;
 294:..\..\..\arduinoLCD\test\Pain Drain\libraries\lvgl\src\draw\sw/lv_draw_sw_blend.c ****             for(y = 0; y < h; y++) {
 295:..\..\..\arduinoLCD\test\Pain Drain\libraries\lvgl\src\draw\sw/lv_draw_sw_blend.c ****                 for(x = 0; x < w && ((lv_uintptr_t)(mask) & 0x3); x++) {
 296:..\..\..\arduinoLCD\test\Pain Drain\libraries\lvgl\src\draw\sw/lv_draw_sw_blend.c ****                     FILL_NORMAL_MASK_PX(color)
 297:..\..\..\arduinoLCD\test\Pain Drain\libraries\lvgl\src\draw\sw/lv_draw_sw_blend.c ****                 }
 298:..\..\..\arduinoLCD\test\Pain Drain\libraries\lvgl\src\draw\sw/lv_draw_sw_blend.c **** 
 299:..\..\..\arduinoLCD\test\Pain Drain\libraries\lvgl\src\draw\sw/lv_draw_sw_blend.c ****                 for(; x <= x_end4; x += 4) {
 300:..\..\..\arduinoLCD\test\Pain Drain\libraries\lvgl\src\draw\sw/lv_draw_sw_blend.c ****                     uint32_t mask32 = *((uint32_t *)mask);
 301:..\..\..\arduinoLCD\test\Pain Drain\libraries\lvgl\src\draw\sw/lv_draw_sw_blend.c ****                     if(mask32 == 0xFFFFFFFF) {
 302:..\..\..\arduinoLCD\test\Pain Drain\libraries\lvgl\src\draw\sw/lv_draw_sw_blend.c **** #if LV_COLOR_DEPTH == 16
 303:..\..\..\arduinoLCD\test\Pain Drain\libraries\lvgl\src\draw\sw/lv_draw_sw_blend.c ****                         if((lv_uintptr_t)dest_buf & 0x3) {
 304:..\..\..\arduinoLCD\test\Pain Drain\libraries\lvgl\src\draw\sw/lv_draw_sw_blend.c ****                             *(dest_buf + 0) = color;
 305:..\..\..\arduinoLCD\test\Pain Drain\libraries\lvgl\src\draw\sw/lv_draw_sw_blend.c ****                             uint32_t * d = (uint32_t *)(dest_buf + 1);
 306:..\..\..\arduinoLCD\test\Pain Drain\libraries\lvgl\src\draw\sw/lv_draw_sw_blend.c ****                             *d = c32;
 307:..\..\..\arduinoLCD\test\Pain Drain\libraries\lvgl\src\draw\sw/lv_draw_sw_blend.c ****                             *(dest_buf + 3) = color;
 308:..\..\..\arduinoLCD\test\Pain Drain\libraries\lvgl\src\draw\sw/lv_draw_sw_blend.c ****                         }
 309:..\..\..\arduinoLCD\test\Pain Drain\libraries\lvgl\src\draw\sw/lv_draw_sw_blend.c ****                         else {
 310:..\..\..\arduinoLCD\test\Pain Drain\libraries\lvgl\src\draw\sw/lv_draw_sw_blend.c ****                             uint32_t * d = (uint32_t *)dest_buf;
 311:..\..\..\arduinoLCD\test\Pain Drain\libraries\lvgl\src\draw\sw/lv_draw_sw_blend.c ****                             *d = c32;
 312:..\..\..\arduinoLCD\test\Pain Drain\libraries\lvgl\src\draw\sw/lv_draw_sw_blend.c ****                             *(d + 1) = c32;
 313:..\..\..\arduinoLCD\test\Pain Drain\libraries\lvgl\src\draw\sw/lv_draw_sw_blend.c ****                         }
 314:..\..\..\arduinoLCD\test\Pain Drain\libraries\lvgl\src\draw\sw/lv_draw_sw_blend.c **** #else
 315:..\..\..\arduinoLCD\test\Pain Drain\libraries\lvgl\src\draw\sw/lv_draw_sw_blend.c ****                         dest_buf[0] = color;
 316:..\..\..\arduinoLCD\test\Pain Drain\libraries\lvgl\src\draw\sw/lv_draw_sw_blend.c ****                         dest_buf[1] = color;
ARM GAS  C:\Users\haske\AppData\Local\Temp\ccydbpJh.s 			page 7


 317:..\..\..\arduinoLCD\test\Pain Drain\libraries\lvgl\src\draw\sw/lv_draw_sw_blend.c ****                         dest_buf[2] = color;
 318:..\..\..\arduinoLCD\test\Pain Drain\libraries\lvgl\src\draw\sw/lv_draw_sw_blend.c ****                         dest_buf[3] = color;
 319:..\..\..\arduinoLCD\test\Pain Drain\libraries\lvgl\src\draw\sw/lv_draw_sw_blend.c **** #endif
 320:..\..\..\arduinoLCD\test\Pain Drain\libraries\lvgl\src\draw\sw/lv_draw_sw_blend.c ****                         dest_buf += 4;
 321:..\..\..\arduinoLCD\test\Pain Drain\libraries\lvgl\src\draw\sw/lv_draw_sw_blend.c ****                         mask += 4;
 322:..\..\..\arduinoLCD\test\Pain Drain\libraries\lvgl\src\draw\sw/lv_draw_sw_blend.c ****                     }
 323:..\..\..\arduinoLCD\test\Pain Drain\libraries\lvgl\src\draw\sw/lv_draw_sw_blend.c ****                     else if(mask32) {
 324:..\..\..\arduinoLCD\test\Pain Drain\libraries\lvgl\src\draw\sw/lv_draw_sw_blend.c ****                         FILL_NORMAL_MASK_PX(color)
 325:..\..\..\arduinoLCD\test\Pain Drain\libraries\lvgl\src\draw\sw/lv_draw_sw_blend.c ****                         FILL_NORMAL_MASK_PX(color)
 326:..\..\..\arduinoLCD\test\Pain Drain\libraries\lvgl\src\draw\sw/lv_draw_sw_blend.c ****                         FILL_NORMAL_MASK_PX(color)
 327:..\..\..\arduinoLCD\test\Pain Drain\libraries\lvgl\src\draw\sw/lv_draw_sw_blend.c ****                         FILL_NORMAL_MASK_PX(color)
 328:..\..\..\arduinoLCD\test\Pain Drain\libraries\lvgl\src\draw\sw/lv_draw_sw_blend.c ****                     }
 329:..\..\..\arduinoLCD\test\Pain Drain\libraries\lvgl\src\draw\sw/lv_draw_sw_blend.c ****                     else {
 330:..\..\..\arduinoLCD\test\Pain Drain\libraries\lvgl\src\draw\sw/lv_draw_sw_blend.c ****                         mask += 4;
 331:..\..\..\arduinoLCD\test\Pain Drain\libraries\lvgl\src\draw\sw/lv_draw_sw_blend.c ****                         dest_buf += 4;
 332:..\..\..\arduinoLCD\test\Pain Drain\libraries\lvgl\src\draw\sw/lv_draw_sw_blend.c ****                     }
 333:..\..\..\arduinoLCD\test\Pain Drain\libraries\lvgl\src\draw\sw/lv_draw_sw_blend.c ****                 }
 334:..\..\..\arduinoLCD\test\Pain Drain\libraries\lvgl\src\draw\sw/lv_draw_sw_blend.c **** 
 335:..\..\..\arduinoLCD\test\Pain Drain\libraries\lvgl\src\draw\sw/lv_draw_sw_blend.c ****                 for(; x < w ; x++) {
 336:..\..\..\arduinoLCD\test\Pain Drain\libraries\lvgl\src\draw\sw/lv_draw_sw_blend.c ****                     FILL_NORMAL_MASK_PX(color)
 337:..\..\..\arduinoLCD\test\Pain Drain\libraries\lvgl\src\draw\sw/lv_draw_sw_blend.c ****                 }
 338:..\..\..\arduinoLCD\test\Pain Drain\libraries\lvgl\src\draw\sw/lv_draw_sw_blend.c ****                 dest_buf += (dest_stride - w);
 339:..\..\..\arduinoLCD\test\Pain Drain\libraries\lvgl\src\draw\sw/lv_draw_sw_blend.c ****                 mask += (mask_stride - w);
 340:..\..\..\arduinoLCD\test\Pain Drain\libraries\lvgl\src\draw\sw/lv_draw_sw_blend.c ****             }
 341:..\..\..\arduinoLCD\test\Pain Drain\libraries\lvgl\src\draw\sw/lv_draw_sw_blend.c ****         }
 342:..\..\..\arduinoLCD\test\Pain Drain\libraries\lvgl\src\draw\sw/lv_draw_sw_blend.c ****         /*With opacity*/
 343:..\..\..\arduinoLCD\test\Pain Drain\libraries\lvgl\src\draw\sw/lv_draw_sw_blend.c ****         else {
 344:..\..\..\arduinoLCD\test\Pain Drain\libraries\lvgl\src\draw\sw/lv_draw_sw_blend.c ****             /*Buffer the result color to avoid recalculating the same color*/
 345:..\..\..\arduinoLCD\test\Pain Drain\libraries\lvgl\src\draw\sw/lv_draw_sw_blend.c ****             lv_color_t last_dest_color;
 346:..\..\..\arduinoLCD\test\Pain Drain\libraries\lvgl\src\draw\sw/lv_draw_sw_blend.c ****             lv_color_t last_res_color;
 347:..\..\..\arduinoLCD\test\Pain Drain\libraries\lvgl\src\draw\sw/lv_draw_sw_blend.c ****             lv_opa_t last_mask = LV_OPA_TRANSP;
 348:..\..\..\arduinoLCD\test\Pain Drain\libraries\lvgl\src\draw\sw/lv_draw_sw_blend.c ****             last_dest_color.full = dest_buf[0].full;
 349:..\..\..\arduinoLCD\test\Pain Drain\libraries\lvgl\src\draw\sw/lv_draw_sw_blend.c ****             last_res_color.full = dest_buf[0].full;
 350:..\..\..\arduinoLCD\test\Pain Drain\libraries\lvgl\src\draw\sw/lv_draw_sw_blend.c ****             lv_opa_t opa_tmp = LV_OPA_TRANSP;
 351:..\..\..\arduinoLCD\test\Pain Drain\libraries\lvgl\src\draw\sw/lv_draw_sw_blend.c **** 
 352:..\..\..\arduinoLCD\test\Pain Drain\libraries\lvgl\src\draw\sw/lv_draw_sw_blend.c ****             for(y = 0; y < h; y++) {
 353:..\..\..\arduinoLCD\test\Pain Drain\libraries\lvgl\src\draw\sw/lv_draw_sw_blend.c ****                 for(x = 0; x < w; x++) {
 354:..\..\..\arduinoLCD\test\Pain Drain\libraries\lvgl\src\draw\sw/lv_draw_sw_blend.c ****                     if(*mask) {
 355:..\..\..\arduinoLCD\test\Pain Drain\libraries\lvgl\src\draw\sw/lv_draw_sw_blend.c ****                         if(*mask != last_mask) opa_tmp = *mask == LV_OPA_COVER ? opa :
 356:..\..\..\arduinoLCD\test\Pain Drain\libraries\lvgl\src\draw\sw/lv_draw_sw_blend.c ****                                                              (uint32_t)((uint32_t)(*mask) * opa) >>
 357:..\..\..\arduinoLCD\test\Pain Drain\libraries\lvgl\src\draw\sw/lv_draw_sw_blend.c ****                         if(*mask != last_mask || last_dest_color.full != dest_buf[x].full) {
 358:..\..\..\arduinoLCD\test\Pain Drain\libraries\lvgl\src\draw\sw/lv_draw_sw_blend.c ****                             if(opa_tmp == LV_OPA_COVER) last_res_color = color;
 359:..\..\..\arduinoLCD\test\Pain Drain\libraries\lvgl\src\draw\sw/lv_draw_sw_blend.c ****                             else last_res_color = lv_color_mix(color, dest_buf[x], opa_tmp);
 360:..\..\..\arduinoLCD\test\Pain Drain\libraries\lvgl\src\draw\sw/lv_draw_sw_blend.c ****                             last_mask = *mask;
 361:..\..\..\arduinoLCD\test\Pain Drain\libraries\lvgl\src\draw\sw/lv_draw_sw_blend.c ****                             last_dest_color.full = dest_buf[x].full;
 362:..\..\..\arduinoLCD\test\Pain Drain\libraries\lvgl\src\draw\sw/lv_draw_sw_blend.c ****                         }
 363:..\..\..\arduinoLCD\test\Pain Drain\libraries\lvgl\src\draw\sw/lv_draw_sw_blend.c ****                         dest_buf[x] = last_res_color;
 364:..\..\..\arduinoLCD\test\Pain Drain\libraries\lvgl\src\draw\sw/lv_draw_sw_blend.c ****                     }
 365:..\..\..\arduinoLCD\test\Pain Drain\libraries\lvgl\src\draw\sw/lv_draw_sw_blend.c ****                     mask++;
 366:..\..\..\arduinoLCD\test\Pain Drain\libraries\lvgl\src\draw\sw/lv_draw_sw_blend.c ****                 }
 367:..\..\..\arduinoLCD\test\Pain Drain\libraries\lvgl\src\draw\sw/lv_draw_sw_blend.c ****                 dest_buf += dest_stride;
 368:..\..\..\arduinoLCD\test\Pain Drain\libraries\lvgl\src\draw\sw/lv_draw_sw_blend.c ****                 mask += (mask_stride - w);
 369:..\..\..\arduinoLCD\test\Pain Drain\libraries\lvgl\src\draw\sw/lv_draw_sw_blend.c ****             }
 370:..\..\..\arduinoLCD\test\Pain Drain\libraries\lvgl\src\draw\sw/lv_draw_sw_blend.c ****         }
 371:..\..\..\arduinoLCD\test\Pain Drain\libraries\lvgl\src\draw\sw/lv_draw_sw_blend.c ****     }
 372:..\..\..\arduinoLCD\test\Pain Drain\libraries\lvgl\src\draw\sw/lv_draw_sw_blend.c **** }
 373:..\..\..\arduinoLCD\test\Pain Drain\libraries\lvgl\src\draw\sw/lv_draw_sw_blend.c **** 
ARM GAS  C:\Users\haske\AppData\Local\Temp\ccydbpJh.s 			page 8


 374:..\..\..\arduinoLCD\test\Pain Drain\libraries\lvgl\src\draw\sw/lv_draw_sw_blend.c **** #if LV_COLOR_SCREEN_TRANSP
 375:..\..\..\arduinoLCD\test\Pain Drain\libraries\lvgl\src\draw\sw/lv_draw_sw_blend.c **** static inline void set_px_argb(uint8_t * buf, lv_color_t color, lv_opa_t opa)
 376:..\..\..\arduinoLCD\test\Pain Drain\libraries\lvgl\src\draw\sw/lv_draw_sw_blend.c **** {
 377:..\..\..\arduinoLCD\test\Pain Drain\libraries\lvgl\src\draw\sw/lv_draw_sw_blend.c ****     lv_color_t bg_color;
 378:..\..\..\arduinoLCD\test\Pain Drain\libraries\lvgl\src\draw\sw/lv_draw_sw_blend.c ****     lv_color_t res_color;
 379:..\..\..\arduinoLCD\test\Pain Drain\libraries\lvgl\src\draw\sw/lv_draw_sw_blend.c ****     lv_opa_t bg_opa = buf[LV_IMG_PX_SIZE_ALPHA_BYTE - 1];
 380:..\..\..\arduinoLCD\test\Pain Drain\libraries\lvgl\src\draw\sw/lv_draw_sw_blend.c **** #if LV_COLOR_DEPTH == 8
 381:..\..\..\arduinoLCD\test\Pain Drain\libraries\lvgl\src\draw\sw/lv_draw_sw_blend.c ****     bg_color.full = buf[0];
 382:..\..\..\arduinoLCD\test\Pain Drain\libraries\lvgl\src\draw\sw/lv_draw_sw_blend.c ****     lv_color_mix_with_alpha(bg_color, bg_opa, color, opa, &res_color, &buf[1]);
 383:..\..\..\arduinoLCD\test\Pain Drain\libraries\lvgl\src\draw\sw/lv_draw_sw_blend.c ****     if(buf[1] <= LV_OPA_MIN) return;
 384:..\..\..\arduinoLCD\test\Pain Drain\libraries\lvgl\src\draw\sw/lv_draw_sw_blend.c ****     buf[0] = res_color.full;
 385:..\..\..\arduinoLCD\test\Pain Drain\libraries\lvgl\src\draw\sw/lv_draw_sw_blend.c **** #elif LV_COLOR_DEPTH == 16
 386:..\..\..\arduinoLCD\test\Pain Drain\libraries\lvgl\src\draw\sw/lv_draw_sw_blend.c ****     bg_color.full = buf[0] + (buf[1] << 8);
 387:..\..\..\arduinoLCD\test\Pain Drain\libraries\lvgl\src\draw\sw/lv_draw_sw_blend.c ****     lv_color_mix_with_alpha(bg_color, bg_opa, color, opa, &res_color, &buf[2]);
 388:..\..\..\arduinoLCD\test\Pain Drain\libraries\lvgl\src\draw\sw/lv_draw_sw_blend.c ****     if(buf[2] <= LV_OPA_MIN) return;
 389:..\..\..\arduinoLCD\test\Pain Drain\libraries\lvgl\src\draw\sw/lv_draw_sw_blend.c ****     buf[0] = res_color.full & 0xff;
 390:..\..\..\arduinoLCD\test\Pain Drain\libraries\lvgl\src\draw\sw/lv_draw_sw_blend.c ****     buf[1] = res_color.full >> 8;
 391:..\..\..\arduinoLCD\test\Pain Drain\libraries\lvgl\src\draw\sw/lv_draw_sw_blend.c **** #elif LV_COLOR_DEPTH == 32
 392:..\..\..\arduinoLCD\test\Pain Drain\libraries\lvgl\src\draw\sw/lv_draw_sw_blend.c ****     bg_color = *((lv_color_t *)buf);
 393:..\..\..\arduinoLCD\test\Pain Drain\libraries\lvgl\src\draw\sw/lv_draw_sw_blend.c ****     lv_color_mix_with_alpha(bg_color, bg_opa, color, opa, &res_color, &buf[3]);
 394:..\..\..\arduinoLCD\test\Pain Drain\libraries\lvgl\src\draw\sw/lv_draw_sw_blend.c ****     if(buf[3] <= LV_OPA_MIN) return;
 395:..\..\..\arduinoLCD\test\Pain Drain\libraries\lvgl\src\draw\sw/lv_draw_sw_blend.c ****     buf[0] = res_color.ch.blue;
 396:..\..\..\arduinoLCD\test\Pain Drain\libraries\lvgl\src\draw\sw/lv_draw_sw_blend.c ****     buf[1] = res_color.ch.green;
 397:..\..\..\arduinoLCD\test\Pain Drain\libraries\lvgl\src\draw\sw/lv_draw_sw_blend.c ****     buf[2] = res_color.ch.red;
 398:..\..\..\arduinoLCD\test\Pain Drain\libraries\lvgl\src\draw\sw/lv_draw_sw_blend.c **** #endif
 399:..\..\..\arduinoLCD\test\Pain Drain\libraries\lvgl\src\draw\sw/lv_draw_sw_blend.c **** }
 400:..\..\..\arduinoLCD\test\Pain Drain\libraries\lvgl\src\draw\sw/lv_draw_sw_blend.c **** 
 401:..\..\..\arduinoLCD\test\Pain Drain\libraries\lvgl\src\draw\sw/lv_draw_sw_blend.c **** static inline void set_px_argb_blend(uint8_t * buf, lv_color_t color, lv_opa_t opa, lv_color_t (*bl
 402:..\..\..\arduinoLCD\test\Pain Drain\libraries\lvgl\src\draw\sw/lv_draw_sw_blend.c ****                                                                                                    
 403:..\..\..\arduinoLCD\test\Pain Drain\libraries\lvgl\src\draw\sw/lv_draw_sw_blend.c **** {
 404:..\..\..\arduinoLCD\test\Pain Drain\libraries\lvgl\src\draw\sw/lv_draw_sw_blend.c ****     static lv_color_t last_dest_color;
 405:..\..\..\arduinoLCD\test\Pain Drain\libraries\lvgl\src\draw\sw/lv_draw_sw_blend.c ****     static lv_color_t last_src_color;
 406:..\..\..\arduinoLCD\test\Pain Drain\libraries\lvgl\src\draw\sw/lv_draw_sw_blend.c ****     static lv_color_t last_res_color;
 407:..\..\..\arduinoLCD\test\Pain Drain\libraries\lvgl\src\draw\sw/lv_draw_sw_blend.c ****     static uint32_t last_opa = 0xffff; /*Set to an invalid value for first*/
 408:..\..\..\arduinoLCD\test\Pain Drain\libraries\lvgl\src\draw\sw/lv_draw_sw_blend.c **** 
 409:..\..\..\arduinoLCD\test\Pain Drain\libraries\lvgl\src\draw\sw/lv_draw_sw_blend.c ****     lv_color_t bg_color;
 410:..\..\..\arduinoLCD\test\Pain Drain\libraries\lvgl\src\draw\sw/lv_draw_sw_blend.c **** 
 411:..\..\..\arduinoLCD\test\Pain Drain\libraries\lvgl\src\draw\sw/lv_draw_sw_blend.c ****     /*Get the BG color*/
 412:..\..\..\arduinoLCD\test\Pain Drain\libraries\lvgl\src\draw\sw/lv_draw_sw_blend.c **** #if LV_COLOR_DEPTH == 8
 413:..\..\..\arduinoLCD\test\Pain Drain\libraries\lvgl\src\draw\sw/lv_draw_sw_blend.c ****     if(buf[1] <= LV_OPA_MIN) return;
 414:..\..\..\arduinoLCD\test\Pain Drain\libraries\lvgl\src\draw\sw/lv_draw_sw_blend.c ****     bg_color.full = buf[0];
 415:..\..\..\arduinoLCD\test\Pain Drain\libraries\lvgl\src\draw\sw/lv_draw_sw_blend.c **** #elif LV_COLOR_DEPTH == 16
 416:..\..\..\arduinoLCD\test\Pain Drain\libraries\lvgl\src\draw\sw/lv_draw_sw_blend.c ****     if(buf[2] <= LV_OPA_MIN) return;
 417:..\..\..\arduinoLCD\test\Pain Drain\libraries\lvgl\src\draw\sw/lv_draw_sw_blend.c ****     bg_color.full = buf[0] + (buf[1] << 8);
 418:..\..\..\arduinoLCD\test\Pain Drain\libraries\lvgl\src\draw\sw/lv_draw_sw_blend.c **** #elif LV_COLOR_DEPTH == 32
 419:..\..\..\arduinoLCD\test\Pain Drain\libraries\lvgl\src\draw\sw/lv_draw_sw_blend.c ****     if(buf[3] <= LV_OPA_MIN) return;
 420:..\..\..\arduinoLCD\test\Pain Drain\libraries\lvgl\src\draw\sw/lv_draw_sw_blend.c ****     bg_color = *((lv_color_t *)buf);
 421:..\..\..\arduinoLCD\test\Pain Drain\libraries\lvgl\src\draw\sw/lv_draw_sw_blend.c **** #endif
 422:..\..\..\arduinoLCD\test\Pain Drain\libraries\lvgl\src\draw\sw/lv_draw_sw_blend.c **** 
 423:..\..\..\arduinoLCD\test\Pain Drain\libraries\lvgl\src\draw\sw/lv_draw_sw_blend.c ****     /*Get the result color*/
 424:..\..\..\arduinoLCD\test\Pain Drain\libraries\lvgl\src\draw\sw/lv_draw_sw_blend.c ****     if(last_dest_color.full != bg_color.full || last_src_color.full != color.full || last_opa != op
 425:..\..\..\arduinoLCD\test\Pain Drain\libraries\lvgl\src\draw\sw/lv_draw_sw_blend.c ****         last_dest_color = bg_color;
 426:..\..\..\arduinoLCD\test\Pain Drain\libraries\lvgl\src\draw\sw/lv_draw_sw_blend.c ****         last_src_color = color;
 427:..\..\..\arduinoLCD\test\Pain Drain\libraries\lvgl\src\draw\sw/lv_draw_sw_blend.c ****         last_opa = opa;
 428:..\..\..\arduinoLCD\test\Pain Drain\libraries\lvgl\src\draw\sw/lv_draw_sw_blend.c ****         last_res_color = blend_fp(last_src_color, last_dest_color, last_opa);
 429:..\..\..\arduinoLCD\test\Pain Drain\libraries\lvgl\src\draw\sw/lv_draw_sw_blend.c ****     }
 430:..\..\..\arduinoLCD\test\Pain Drain\libraries\lvgl\src\draw\sw/lv_draw_sw_blend.c **** 
ARM GAS  C:\Users\haske\AppData\Local\Temp\ccydbpJh.s 			page 9


 431:..\..\..\arduinoLCD\test\Pain Drain\libraries\lvgl\src\draw\sw/lv_draw_sw_blend.c ****     /*Set the result color*/
 432:..\..\..\arduinoLCD\test\Pain Drain\libraries\lvgl\src\draw\sw/lv_draw_sw_blend.c **** #if LV_COLOR_DEPTH == 8
 433:..\..\..\arduinoLCD\test\Pain Drain\libraries\lvgl\src\draw\sw/lv_draw_sw_blend.c ****     buf[0] = res_color.full;
 434:..\..\..\arduinoLCD\test\Pain Drain\libraries\lvgl\src\draw\sw/lv_draw_sw_blend.c **** #elif LV_COLOR_DEPTH == 16
 435:..\..\..\arduinoLCD\test\Pain Drain\libraries\lvgl\src\draw\sw/lv_draw_sw_blend.c ****     buf[0] = last_res_color.full & 0xff;
 436:..\..\..\arduinoLCD\test\Pain Drain\libraries\lvgl\src\draw\sw/lv_draw_sw_blend.c ****     buf[1] = last_res_color.full >> 8;
 437:..\..\..\arduinoLCD\test\Pain Drain\libraries\lvgl\src\draw\sw/lv_draw_sw_blend.c **** #elif LV_COLOR_DEPTH == 32
 438:..\..\..\arduinoLCD\test\Pain Drain\libraries\lvgl\src\draw\sw/lv_draw_sw_blend.c ****     buf[0] = last_res_color.ch.blue;
 439:..\..\..\arduinoLCD\test\Pain Drain\libraries\lvgl\src\draw\sw/lv_draw_sw_blend.c ****     buf[1] = last_res_color.ch.green;
 440:..\..\..\arduinoLCD\test\Pain Drain\libraries\lvgl\src\draw\sw/lv_draw_sw_blend.c ****     buf[2] = last_res_color.ch.red;
 441:..\..\..\arduinoLCD\test\Pain Drain\libraries\lvgl\src\draw\sw/lv_draw_sw_blend.c **** #endif
 442:..\..\..\arduinoLCD\test\Pain Drain\libraries\lvgl\src\draw\sw/lv_draw_sw_blend.c **** 
 443:..\..\..\arduinoLCD\test\Pain Drain\libraries\lvgl\src\draw\sw/lv_draw_sw_blend.c **** }
 444:..\..\..\arduinoLCD\test\Pain Drain\libraries\lvgl\src\draw\sw/lv_draw_sw_blend.c **** 
 445:..\..\..\arduinoLCD\test\Pain Drain\libraries\lvgl\src\draw\sw/lv_draw_sw_blend.c **** LV_ATTRIBUTE_FAST_MEM static void fill_argb(lv_color_t * dest_buf, const lv_area_t * dest_area,
 446:..\..\..\arduinoLCD\test\Pain Drain\libraries\lvgl\src\draw\sw/lv_draw_sw_blend.c ****                                             lv_coord_t dest_stride, lv_color_t color, lv_opa_t opa,
 447:..\..\..\arduinoLCD\test\Pain Drain\libraries\lvgl\src\draw\sw/lv_draw_sw_blend.c **** {
 448:..\..\..\arduinoLCD\test\Pain Drain\libraries\lvgl\src\draw\sw/lv_draw_sw_blend.c ****     uint8_t * dest_buf8 = (uint8_t *) dest_buf;
 449:..\..\..\arduinoLCD\test\Pain Drain\libraries\lvgl\src\draw\sw/lv_draw_sw_blend.c ****     int32_t w = lv_area_get_width(dest_area);
 450:..\..\..\arduinoLCD\test\Pain Drain\libraries\lvgl\src\draw\sw/lv_draw_sw_blend.c ****     int32_t h = lv_area_get_height(dest_area);
 451:..\..\..\arduinoLCD\test\Pain Drain\libraries\lvgl\src\draw\sw/lv_draw_sw_blend.c **** 
 452:..\..\..\arduinoLCD\test\Pain Drain\libraries\lvgl\src\draw\sw/lv_draw_sw_blend.c ****     int32_t x;
 453:..\..\..\arduinoLCD\test\Pain Drain\libraries\lvgl\src\draw\sw/lv_draw_sw_blend.c ****     int32_t y;
 454:..\..\..\arduinoLCD\test\Pain Drain\libraries\lvgl\src\draw\sw/lv_draw_sw_blend.c **** 
 455:..\..\..\arduinoLCD\test\Pain Drain\libraries\lvgl\src\draw\sw/lv_draw_sw_blend.c ****     uint8_t ctmp[LV_IMG_PX_SIZE_ALPHA_BYTE];
 456:..\..\..\arduinoLCD\test\Pain Drain\libraries\lvgl\src\draw\sw/lv_draw_sw_blend.c ****     lv_memcpy(ctmp, &color, sizeof(lv_color_t));
 457:..\..\..\arduinoLCD\test\Pain Drain\libraries\lvgl\src\draw\sw/lv_draw_sw_blend.c ****     ctmp[LV_IMG_PX_SIZE_ALPHA_BYTE - 1] = opa;
 458:..\..\..\arduinoLCD\test\Pain Drain\libraries\lvgl\src\draw\sw/lv_draw_sw_blend.c **** 
 459:..\..\..\arduinoLCD\test\Pain Drain\libraries\lvgl\src\draw\sw/lv_draw_sw_blend.c ****     /*No mask*/
 460:..\..\..\arduinoLCD\test\Pain Drain\libraries\lvgl\src\draw\sw/lv_draw_sw_blend.c ****     if(mask == NULL) {
 461:..\..\..\arduinoLCD\test\Pain Drain\libraries\lvgl\src\draw\sw/lv_draw_sw_blend.c ****         if(opa >= LV_OPA_MAX) {
 462:..\..\..\arduinoLCD\test\Pain Drain\libraries\lvgl\src\draw\sw/lv_draw_sw_blend.c ****             for(x = 0; x < w; x++) {
 463:..\..\..\arduinoLCD\test\Pain Drain\libraries\lvgl\src\draw\sw/lv_draw_sw_blend.c ****                 lv_memcpy(dest_buf8, ctmp, LV_IMG_PX_SIZE_ALPHA_BYTE);
 464:..\..\..\arduinoLCD\test\Pain Drain\libraries\lvgl\src\draw\sw/lv_draw_sw_blend.c ****                 dest_buf8 += LV_IMG_PX_SIZE_ALPHA_BYTE;
 465:..\..\..\arduinoLCD\test\Pain Drain\libraries\lvgl\src\draw\sw/lv_draw_sw_blend.c ****             }
 466:..\..\..\arduinoLCD\test\Pain Drain\libraries\lvgl\src\draw\sw/lv_draw_sw_blend.c **** 
 467:..\..\..\arduinoLCD\test\Pain Drain\libraries\lvgl\src\draw\sw/lv_draw_sw_blend.c ****             dest_buf8 += (dest_stride - w) * LV_IMG_PX_SIZE_ALPHA_BYTE;
 468:..\..\..\arduinoLCD\test\Pain Drain\libraries\lvgl\src\draw\sw/lv_draw_sw_blend.c **** 
 469:..\..\..\arduinoLCD\test\Pain Drain\libraries\lvgl\src\draw\sw/lv_draw_sw_blend.c ****             for(y = 1; y < h; y++) {
 470:..\..\..\arduinoLCD\test\Pain Drain\libraries\lvgl\src\draw\sw/lv_draw_sw_blend.c ****                 lv_memcpy(dest_buf8, (uint8_t *) dest_buf, w * LV_IMG_PX_SIZE_ALPHA_BYTE);
 471:..\..\..\arduinoLCD\test\Pain Drain\libraries\lvgl\src\draw\sw/lv_draw_sw_blend.c ****                 dest_buf8 += dest_stride * LV_IMG_PX_SIZE_ALPHA_BYTE;
 472:..\..\..\arduinoLCD\test\Pain Drain\libraries\lvgl\src\draw\sw/lv_draw_sw_blend.c ****             }
 473:..\..\..\arduinoLCD\test\Pain Drain\libraries\lvgl\src\draw\sw/lv_draw_sw_blend.c ****         }
 474:..\..\..\arduinoLCD\test\Pain Drain\libraries\lvgl\src\draw\sw/lv_draw_sw_blend.c ****         /*Has opacity*/
 475:..\..\..\arduinoLCD\test\Pain Drain\libraries\lvgl\src\draw\sw/lv_draw_sw_blend.c ****         else {
 476:..\..\..\arduinoLCD\test\Pain Drain\libraries\lvgl\src\draw\sw/lv_draw_sw_blend.c ****             uint8_t * dest_buf8_row = dest_buf8;
 477:..\..\..\arduinoLCD\test\Pain Drain\libraries\lvgl\src\draw\sw/lv_draw_sw_blend.c ****             for(y = 0; y < h; y++) {
 478:..\..\..\arduinoLCD\test\Pain Drain\libraries\lvgl\src\draw\sw/lv_draw_sw_blend.c ****                 for(x = 0; x < w; x++) {
 479:..\..\..\arduinoLCD\test\Pain Drain\libraries\lvgl\src\draw\sw/lv_draw_sw_blend.c ****                     set_px_argb(dest_buf8, color, opa);
 480:..\..\..\arduinoLCD\test\Pain Drain\libraries\lvgl\src\draw\sw/lv_draw_sw_blend.c ****                     dest_buf8 += LV_IMG_PX_SIZE_ALPHA_BYTE;
 481:..\..\..\arduinoLCD\test\Pain Drain\libraries\lvgl\src\draw\sw/lv_draw_sw_blend.c ****                 }
 482:..\..\..\arduinoLCD\test\Pain Drain\libraries\lvgl\src\draw\sw/lv_draw_sw_blend.c ****                 dest_buf8_row += dest_stride * LV_IMG_PX_SIZE_ALPHA_BYTE;
 483:..\..\..\arduinoLCD\test\Pain Drain\libraries\lvgl\src\draw\sw/lv_draw_sw_blend.c ****                 dest_buf8 = dest_buf8_row;
 484:..\..\..\arduinoLCD\test\Pain Drain\libraries\lvgl\src\draw\sw/lv_draw_sw_blend.c ****             }
 485:..\..\..\arduinoLCD\test\Pain Drain\libraries\lvgl\src\draw\sw/lv_draw_sw_blend.c ****         }
 486:..\..\..\arduinoLCD\test\Pain Drain\libraries\lvgl\src\draw\sw/lv_draw_sw_blend.c ****     }
 487:..\..\..\arduinoLCD\test\Pain Drain\libraries\lvgl\src\draw\sw/lv_draw_sw_blend.c ****     /*Masked*/
ARM GAS  C:\Users\haske\AppData\Local\Temp\ccydbpJh.s 			page 10


 488:..\..\..\arduinoLCD\test\Pain Drain\libraries\lvgl\src\draw\sw/lv_draw_sw_blend.c ****     else {
 489:..\..\..\arduinoLCD\test\Pain Drain\libraries\lvgl\src\draw\sw/lv_draw_sw_blend.c ****         /*Only the mask matters*/
 490:..\..\..\arduinoLCD\test\Pain Drain\libraries\lvgl\src\draw\sw/lv_draw_sw_blend.c ****         if(opa >= LV_OPA_MAX) {
 491:..\..\..\arduinoLCD\test\Pain Drain\libraries\lvgl\src\draw\sw/lv_draw_sw_blend.c ****             uint8_t * dest_buf8_row = dest_buf8;
 492:..\..\..\arduinoLCD\test\Pain Drain\libraries\lvgl\src\draw\sw/lv_draw_sw_blend.c ****             for(y = 0; y < h; y++) {
 493:..\..\..\arduinoLCD\test\Pain Drain\libraries\lvgl\src\draw\sw/lv_draw_sw_blend.c ****                 for(x = 0; x < w; x++) {
 494:..\..\..\arduinoLCD\test\Pain Drain\libraries\lvgl\src\draw\sw/lv_draw_sw_blend.c ****                     set_px_argb(dest_buf8, color,  *mask);
 495:..\..\..\arduinoLCD\test\Pain Drain\libraries\lvgl\src\draw\sw/lv_draw_sw_blend.c ****                     mask++;
 496:..\..\..\arduinoLCD\test\Pain Drain\libraries\lvgl\src\draw\sw/lv_draw_sw_blend.c ****                     dest_buf8 += LV_IMG_PX_SIZE_ALPHA_BYTE;
 497:..\..\..\arduinoLCD\test\Pain Drain\libraries\lvgl\src\draw\sw/lv_draw_sw_blend.c ****                 }
 498:..\..\..\arduinoLCD\test\Pain Drain\libraries\lvgl\src\draw\sw/lv_draw_sw_blend.c ****                 dest_buf8_row += dest_stride * LV_IMG_PX_SIZE_ALPHA_BYTE;
 499:..\..\..\arduinoLCD\test\Pain Drain\libraries\lvgl\src\draw\sw/lv_draw_sw_blend.c ****                 dest_buf8 = dest_buf8_row;
 500:..\..\..\arduinoLCD\test\Pain Drain\libraries\lvgl\src\draw\sw/lv_draw_sw_blend.c ****             }
 501:..\..\..\arduinoLCD\test\Pain Drain\libraries\lvgl\src\draw\sw/lv_draw_sw_blend.c ****         }
 502:..\..\..\arduinoLCD\test\Pain Drain\libraries\lvgl\src\draw\sw/lv_draw_sw_blend.c ****         /*With opacity*/
 503:..\..\..\arduinoLCD\test\Pain Drain\libraries\lvgl\src\draw\sw/lv_draw_sw_blend.c ****         else {
 504:..\..\..\arduinoLCD\test\Pain Drain\libraries\lvgl\src\draw\sw/lv_draw_sw_blend.c ****             /*Buffer the result color to avoid recalculating the same color*/
 505:..\..\..\arduinoLCD\test\Pain Drain\libraries\lvgl\src\draw\sw/lv_draw_sw_blend.c ****             lv_opa_t last_mask = LV_OPA_TRANSP;
 506:..\..\..\arduinoLCD\test\Pain Drain\libraries\lvgl\src\draw\sw/lv_draw_sw_blend.c ****             lv_opa_t opa_tmp = LV_OPA_TRANSP;
 507:..\..\..\arduinoLCD\test\Pain Drain\libraries\lvgl\src\draw\sw/lv_draw_sw_blend.c **** 
 508:..\..\..\arduinoLCD\test\Pain Drain\libraries\lvgl\src\draw\sw/lv_draw_sw_blend.c ****             uint8_t * dest_buf8_row = dest_buf8;
 509:..\..\..\arduinoLCD\test\Pain Drain\libraries\lvgl\src\draw\sw/lv_draw_sw_blend.c ****             for(y = 0; y < h; y++) {
 510:..\..\..\arduinoLCD\test\Pain Drain\libraries\lvgl\src\draw\sw/lv_draw_sw_blend.c ****                 for(x = 0; x < w; x++) {
 511:..\..\..\arduinoLCD\test\Pain Drain\libraries\lvgl\src\draw\sw/lv_draw_sw_blend.c ****                     if(*mask) {
 512:..\..\..\arduinoLCD\test\Pain Drain\libraries\lvgl\src\draw\sw/lv_draw_sw_blend.c ****                         if(*mask != last_mask) opa_tmp = *mask == LV_OPA_COVER ? opa :
 513:..\..\..\arduinoLCD\test\Pain Drain\libraries\lvgl\src\draw\sw/lv_draw_sw_blend.c ****                                                              (uint32_t)((uint32_t)(*mask) * opa) >>
 514:..\..\..\arduinoLCD\test\Pain Drain\libraries\lvgl\src\draw\sw/lv_draw_sw_blend.c **** 
 515:..\..\..\arduinoLCD\test\Pain Drain\libraries\lvgl\src\draw\sw/lv_draw_sw_blend.c ****                         set_px_argb(dest_buf8, color,  opa_tmp);
 516:..\..\..\arduinoLCD\test\Pain Drain\libraries\lvgl\src\draw\sw/lv_draw_sw_blend.c ****                     }
 517:..\..\..\arduinoLCD\test\Pain Drain\libraries\lvgl\src\draw\sw/lv_draw_sw_blend.c ****                     dest_buf8 += LV_IMG_PX_SIZE_ALPHA_BYTE;
 518:..\..\..\arduinoLCD\test\Pain Drain\libraries\lvgl\src\draw\sw/lv_draw_sw_blend.c ****                     mask++;
 519:..\..\..\arduinoLCD\test\Pain Drain\libraries\lvgl\src\draw\sw/lv_draw_sw_blend.c ****                 }
 520:..\..\..\arduinoLCD\test\Pain Drain\libraries\lvgl\src\draw\sw/lv_draw_sw_blend.c ****                 dest_buf8_row += dest_stride * LV_IMG_PX_SIZE_ALPHA_BYTE;
 521:..\..\..\arduinoLCD\test\Pain Drain\libraries\lvgl\src\draw\sw/lv_draw_sw_blend.c ****                 dest_buf8 = dest_buf8_row;
 522:..\..\..\arduinoLCD\test\Pain Drain\libraries\lvgl\src\draw\sw/lv_draw_sw_blend.c ****                 mask += (mask_stride - w);
 523:..\..\..\arduinoLCD\test\Pain Drain\libraries\lvgl\src\draw\sw/lv_draw_sw_blend.c ****             }
 524:..\..\..\arduinoLCD\test\Pain Drain\libraries\lvgl\src\draw\sw/lv_draw_sw_blend.c ****         }
 525:..\..\..\arduinoLCD\test\Pain Drain\libraries\lvgl\src\draw\sw/lv_draw_sw_blend.c ****     }
 526:..\..\..\arduinoLCD\test\Pain Drain\libraries\lvgl\src\draw\sw/lv_draw_sw_blend.c **** }
 527:..\..\..\arduinoLCD\test\Pain Drain\libraries\lvgl\src\draw\sw/lv_draw_sw_blend.c **** #endif
 528:..\..\..\arduinoLCD\test\Pain Drain\libraries\lvgl\src\draw\sw/lv_draw_sw_blend.c **** 
 529:..\..\..\arduinoLCD\test\Pain Drain\libraries\lvgl\src\draw\sw/lv_draw_sw_blend.c **** #if LV_DRAW_COMPLEX
 530:..\..\..\arduinoLCD\test\Pain Drain\libraries\lvgl\src\draw\sw/lv_draw_sw_blend.c **** static void fill_blended(lv_color_t * dest_buf, const lv_area_t * dest_area,
 531:..\..\..\arduinoLCD\test\Pain Drain\libraries\lvgl\src\draw\sw/lv_draw_sw_blend.c ****                          lv_coord_t dest_stride, lv_color_t color, lv_opa_t opa, const lv_opa_t * m
 532:..\..\..\arduinoLCD\test\Pain Drain\libraries\lvgl\src\draw\sw/lv_draw_sw_blend.c ****                          lv_blend_mode_t blend_mode)
 533:..\..\..\arduinoLCD\test\Pain Drain\libraries\lvgl\src\draw\sw/lv_draw_sw_blend.c **** {
  27              		.loc 1 533 0
  28              		.cfi_startproc
  29              		@ args = 16, pretend = 0, frame = 32
  30              		@ frame_needed = 0, uses_anonymous_args = 0
  31              	.LVL0:
  32 0000 F0B5     		push	{r4, r5, r6, r7, lr}
  33              		.cfi_def_cfa_offset 20
  34              		.cfi_offset 4, -20
  35              		.cfi_offset 5, -16
  36              		.cfi_offset 6, -12
  37              		.cfi_offset 7, -8
ARM GAS  C:\Users\haske\AppData\Local\Temp\ccydbpJh.s 			page 11


  38              		.cfi_offset 14, -4
  39 0002 5F46     		mov	r7, fp
  40 0004 5646     		mov	r6, r10
  41 0006 4D46     		mov	r5, r9
  42 0008 4446     		mov	r4, r8
  43 000a F0B4     		push	{r4, r5, r6, r7}
  44              		.cfi_def_cfa_offset 36
  45              		.cfi_offset 8, -36
  46              		.cfi_offset 9, -32
  47              		.cfi_offset 10, -28
  48              		.cfi_offset 11, -24
  49 000c 89B0     		sub	sp, sp, #36
  50              		.cfi_def_cfa_offset 72
  51 000e 8046     		mov	r8, r0
  52 0010 0692     		str	r2, [sp, #24]
  53 0012 6A46     		mov	r2, sp
  54              	.LVL1:
  55 0014 D380     		strh	r3, [r2, #6]
  56 0016 12AB     		add	r3, sp, #72
  57              	.LVL2:
  58 0018 1B78     		ldrb	r3, [r3]
  59              	.LVL3:
  60 001a 0293     		str	r3, [sp, #8]
  61 001c 139B     		ldr	r3, [sp, #76]
  62 001e 9A46     		mov	r10, r3
  63 0020 14AB     		add	r3, sp, #80
  64              	.LVL4:
  65 0022 0022     		movs	r2, #0
  66 0024 9B5E     		ldrsh	r3, [r3, r2]
  67              	.LVL5:
  68 0026 0793     		str	r3, [sp, #28]
  69 0028 15AB     		add	r3, sp, #84
  70              	.LVL6:
  71 002a 1A78     		ldrb	r2, [r3]
  72              	.LVL7:
  73              	.LBB98:
  74              	.LBB99:
  75              		.file 2 "c:\\projects\\paindrain\\arduinolcd\\test\\pain drain\\libraries\\lvgl\\src\\misc\\lv_are
   1:c:\projects\paindrain\arduinolcd\test\pain drain\libraries\lvgl\src\misc\lv_area.h **** /**
   2:c:\projects\paindrain\arduinolcd\test\pain drain\libraries\lvgl\src\misc\lv_area.h ****  * @file lv_area.h
   3:c:\projects\paindrain\arduinolcd\test\pain drain\libraries\lvgl\src\misc\lv_area.h ****  *
   4:c:\projects\paindrain\arduinolcd\test\pain drain\libraries\lvgl\src\misc\lv_area.h ****  */
   5:c:\projects\paindrain\arduinolcd\test\pain drain\libraries\lvgl\src\misc\lv_area.h **** 
   6:c:\projects\paindrain\arduinolcd\test\pain drain\libraries\lvgl\src\misc\lv_area.h **** #ifndef LV_AREA_H
   7:c:\projects\paindrain\arduinolcd\test\pain drain\libraries\lvgl\src\misc\lv_area.h **** #define LV_AREA_H
   8:c:\projects\paindrain\arduinolcd\test\pain drain\libraries\lvgl\src\misc\lv_area.h **** 
   9:c:\projects\paindrain\arduinolcd\test\pain drain\libraries\lvgl\src\misc\lv_area.h **** #ifdef __cplusplus
  10:c:\projects\paindrain\arduinolcd\test\pain drain\libraries\lvgl\src\misc\lv_area.h **** extern "C" {
  11:c:\projects\paindrain\arduinolcd\test\pain drain\libraries\lvgl\src\misc\lv_area.h **** #endif
  12:c:\projects\paindrain\arduinolcd\test\pain drain\libraries\lvgl\src\misc\lv_area.h **** 
  13:c:\projects\paindrain\arduinolcd\test\pain drain\libraries\lvgl\src\misc\lv_area.h **** /*********************
  14:c:\projects\paindrain\arduinolcd\test\pain drain\libraries\lvgl\src\misc\lv_area.h ****  *      INCLUDES
  15:c:\projects\paindrain\arduinolcd\test\pain drain\libraries\lvgl\src\misc\lv_area.h ****  *********************/
  16:c:\projects\paindrain\arduinolcd\test\pain drain\libraries\lvgl\src\misc\lv_area.h **** #include "../lv_conf_internal.h"
  17:c:\projects\paindrain\arduinolcd\test\pain drain\libraries\lvgl\src\misc\lv_area.h **** #include <stdbool.h>
  18:c:\projects\paindrain\arduinolcd\test\pain drain\libraries\lvgl\src\misc\lv_area.h **** #include <stdint.h>
  19:c:\projects\paindrain\arduinolcd\test\pain drain\libraries\lvgl\src\misc\lv_area.h **** 
ARM GAS  C:\Users\haske\AppData\Local\Temp\ccydbpJh.s 			page 12


  20:c:\projects\paindrain\arduinolcd\test\pain drain\libraries\lvgl\src\misc\lv_area.h **** /*********************
  21:c:\projects\paindrain\arduinolcd\test\pain drain\libraries\lvgl\src\misc\lv_area.h ****  *      DEFINES
  22:c:\projects\paindrain\arduinolcd\test\pain drain\libraries\lvgl\src\misc\lv_area.h ****  *********************/
  23:c:\projects\paindrain\arduinolcd\test\pain drain\libraries\lvgl\src\misc\lv_area.h **** 
  24:c:\projects\paindrain\arduinolcd\test\pain drain\libraries\lvgl\src\misc\lv_area.h **** #if LV_USE_LARGE_COORD
  25:c:\projects\paindrain\arduinolcd\test\pain drain\libraries\lvgl\src\misc\lv_area.h **** typedef int32_t lv_coord_t;
  26:c:\projects\paindrain\arduinolcd\test\pain drain\libraries\lvgl\src\misc\lv_area.h **** #else
  27:c:\projects\paindrain\arduinolcd\test\pain drain\libraries\lvgl\src\misc\lv_area.h **** typedef int16_t lv_coord_t;
  28:c:\projects\paindrain\arduinolcd\test\pain drain\libraries\lvgl\src\misc\lv_area.h **** #endif
  29:c:\projects\paindrain\arduinolcd\test\pain drain\libraries\lvgl\src\misc\lv_area.h **** 
  30:c:\projects\paindrain\arduinolcd\test\pain drain\libraries\lvgl\src\misc\lv_area.h **** /**********************
  31:c:\projects\paindrain\arduinolcd\test\pain drain\libraries\lvgl\src\misc\lv_area.h ****  *      TYPEDEFS
  32:c:\projects\paindrain\arduinolcd\test\pain drain\libraries\lvgl\src\misc\lv_area.h ****  **********************/
  33:c:\projects\paindrain\arduinolcd\test\pain drain\libraries\lvgl\src\misc\lv_area.h **** 
  34:c:\projects\paindrain\arduinolcd\test\pain drain\libraries\lvgl\src\misc\lv_area.h **** /**
  35:c:\projects\paindrain\arduinolcd\test\pain drain\libraries\lvgl\src\misc\lv_area.h ****  * Represents a point on the screen.
  36:c:\projects\paindrain\arduinolcd\test\pain drain\libraries\lvgl\src\misc\lv_area.h ****  */
  37:c:\projects\paindrain\arduinolcd\test\pain drain\libraries\lvgl\src\misc\lv_area.h **** typedef struct {
  38:c:\projects\paindrain\arduinolcd\test\pain drain\libraries\lvgl\src\misc\lv_area.h ****     lv_coord_t x;
  39:c:\projects\paindrain\arduinolcd\test\pain drain\libraries\lvgl\src\misc\lv_area.h ****     lv_coord_t y;
  40:c:\projects\paindrain\arduinolcd\test\pain drain\libraries\lvgl\src\misc\lv_area.h **** } lv_point_t;
  41:c:\projects\paindrain\arduinolcd\test\pain drain\libraries\lvgl\src\misc\lv_area.h **** 
  42:c:\projects\paindrain\arduinolcd\test\pain drain\libraries\lvgl\src\misc\lv_area.h **** /** Represents an area of the screen.*/
  43:c:\projects\paindrain\arduinolcd\test\pain drain\libraries\lvgl\src\misc\lv_area.h **** typedef struct {
  44:c:\projects\paindrain\arduinolcd\test\pain drain\libraries\lvgl\src\misc\lv_area.h ****     lv_coord_t x1;
  45:c:\projects\paindrain\arduinolcd\test\pain drain\libraries\lvgl\src\misc\lv_area.h ****     lv_coord_t y1;
  46:c:\projects\paindrain\arduinolcd\test\pain drain\libraries\lvgl\src\misc\lv_area.h ****     lv_coord_t x2;
  47:c:\projects\paindrain\arduinolcd\test\pain drain\libraries\lvgl\src\misc\lv_area.h ****     lv_coord_t y2;
  48:c:\projects\paindrain\arduinolcd\test\pain drain\libraries\lvgl\src\misc\lv_area.h **** } lv_area_t;
  49:c:\projects\paindrain\arduinolcd\test\pain drain\libraries\lvgl\src\misc\lv_area.h **** 
  50:c:\projects\paindrain\arduinolcd\test\pain drain\libraries\lvgl\src\misc\lv_area.h **** /** Alignments*/
  51:c:\projects\paindrain\arduinolcd\test\pain drain\libraries\lvgl\src\misc\lv_area.h **** enum {
  52:c:\projects\paindrain\arduinolcd\test\pain drain\libraries\lvgl\src\misc\lv_area.h ****     LV_ALIGN_DEFAULT = 0,
  53:c:\projects\paindrain\arduinolcd\test\pain drain\libraries\lvgl\src\misc\lv_area.h ****     LV_ALIGN_TOP_LEFT,
  54:c:\projects\paindrain\arduinolcd\test\pain drain\libraries\lvgl\src\misc\lv_area.h ****     LV_ALIGN_TOP_MID,
  55:c:\projects\paindrain\arduinolcd\test\pain drain\libraries\lvgl\src\misc\lv_area.h ****     LV_ALIGN_TOP_RIGHT,
  56:c:\projects\paindrain\arduinolcd\test\pain drain\libraries\lvgl\src\misc\lv_area.h ****     LV_ALIGN_BOTTOM_LEFT,
  57:c:\projects\paindrain\arduinolcd\test\pain drain\libraries\lvgl\src\misc\lv_area.h ****     LV_ALIGN_BOTTOM_MID,
  58:c:\projects\paindrain\arduinolcd\test\pain drain\libraries\lvgl\src\misc\lv_area.h ****     LV_ALIGN_BOTTOM_RIGHT,
  59:c:\projects\paindrain\arduinolcd\test\pain drain\libraries\lvgl\src\misc\lv_area.h ****     LV_ALIGN_LEFT_MID,
  60:c:\projects\paindrain\arduinolcd\test\pain drain\libraries\lvgl\src\misc\lv_area.h ****     LV_ALIGN_RIGHT_MID,
  61:c:\projects\paindrain\arduinolcd\test\pain drain\libraries\lvgl\src\misc\lv_area.h ****     LV_ALIGN_CENTER,
  62:c:\projects\paindrain\arduinolcd\test\pain drain\libraries\lvgl\src\misc\lv_area.h **** 
  63:c:\projects\paindrain\arduinolcd\test\pain drain\libraries\lvgl\src\misc\lv_area.h ****     LV_ALIGN_OUT_TOP_LEFT,
  64:c:\projects\paindrain\arduinolcd\test\pain drain\libraries\lvgl\src\misc\lv_area.h ****     LV_ALIGN_OUT_TOP_MID,
  65:c:\projects\paindrain\arduinolcd\test\pain drain\libraries\lvgl\src\misc\lv_area.h ****     LV_ALIGN_OUT_TOP_RIGHT,
  66:c:\projects\paindrain\arduinolcd\test\pain drain\libraries\lvgl\src\misc\lv_area.h ****     LV_ALIGN_OUT_BOTTOM_LEFT,
  67:c:\projects\paindrain\arduinolcd\test\pain drain\libraries\lvgl\src\misc\lv_area.h ****     LV_ALIGN_OUT_BOTTOM_MID,
  68:c:\projects\paindrain\arduinolcd\test\pain drain\libraries\lvgl\src\misc\lv_area.h ****     LV_ALIGN_OUT_BOTTOM_RIGHT,
  69:c:\projects\paindrain\arduinolcd\test\pain drain\libraries\lvgl\src\misc\lv_area.h ****     LV_ALIGN_OUT_LEFT_TOP,
  70:c:\projects\paindrain\arduinolcd\test\pain drain\libraries\lvgl\src\misc\lv_area.h ****     LV_ALIGN_OUT_LEFT_MID,
  71:c:\projects\paindrain\arduinolcd\test\pain drain\libraries\lvgl\src\misc\lv_area.h ****     LV_ALIGN_OUT_LEFT_BOTTOM,
  72:c:\projects\paindrain\arduinolcd\test\pain drain\libraries\lvgl\src\misc\lv_area.h ****     LV_ALIGN_OUT_RIGHT_TOP,
  73:c:\projects\paindrain\arduinolcd\test\pain drain\libraries\lvgl\src\misc\lv_area.h ****     LV_ALIGN_OUT_RIGHT_MID,
  74:c:\projects\paindrain\arduinolcd\test\pain drain\libraries\lvgl\src\misc\lv_area.h ****     LV_ALIGN_OUT_RIGHT_BOTTOM,
  75:c:\projects\paindrain\arduinolcd\test\pain drain\libraries\lvgl\src\misc\lv_area.h **** };
  76:c:\projects\paindrain\arduinolcd\test\pain drain\libraries\lvgl\src\misc\lv_area.h **** typedef uint8_t lv_align_t;
ARM GAS  C:\Users\haske\AppData\Local\Temp\ccydbpJh.s 			page 13


  77:c:\projects\paindrain\arduinolcd\test\pain drain\libraries\lvgl\src\misc\lv_area.h **** 
  78:c:\projects\paindrain\arduinolcd\test\pain drain\libraries\lvgl\src\misc\lv_area.h **** enum {
  79:c:\projects\paindrain\arduinolcd\test\pain drain\libraries\lvgl\src\misc\lv_area.h ****     LV_DIR_NONE     = 0x00,
  80:c:\projects\paindrain\arduinolcd\test\pain drain\libraries\lvgl\src\misc\lv_area.h ****     LV_DIR_LEFT     = (1 << 0),
  81:c:\projects\paindrain\arduinolcd\test\pain drain\libraries\lvgl\src\misc\lv_area.h ****     LV_DIR_RIGHT    = (1 << 1),
  82:c:\projects\paindrain\arduinolcd\test\pain drain\libraries\lvgl\src\misc\lv_area.h ****     LV_DIR_TOP      = (1 << 2),
  83:c:\projects\paindrain\arduinolcd\test\pain drain\libraries\lvgl\src\misc\lv_area.h ****     LV_DIR_BOTTOM   = (1 << 3),
  84:c:\projects\paindrain\arduinolcd\test\pain drain\libraries\lvgl\src\misc\lv_area.h ****     LV_DIR_HOR      = LV_DIR_LEFT | LV_DIR_RIGHT,
  85:c:\projects\paindrain\arduinolcd\test\pain drain\libraries\lvgl\src\misc\lv_area.h ****     LV_DIR_VER      = LV_DIR_TOP | LV_DIR_BOTTOM,
  86:c:\projects\paindrain\arduinolcd\test\pain drain\libraries\lvgl\src\misc\lv_area.h ****     LV_DIR_ALL      = LV_DIR_HOR | LV_DIR_VER,
  87:c:\projects\paindrain\arduinolcd\test\pain drain\libraries\lvgl\src\misc\lv_area.h **** };
  88:c:\projects\paindrain\arduinolcd\test\pain drain\libraries\lvgl\src\misc\lv_area.h **** 
  89:c:\projects\paindrain\arduinolcd\test\pain drain\libraries\lvgl\src\misc\lv_area.h **** typedef uint8_t lv_dir_t;
  90:c:\projects\paindrain\arduinolcd\test\pain drain\libraries\lvgl\src\misc\lv_area.h **** 
  91:c:\projects\paindrain\arduinolcd\test\pain drain\libraries\lvgl\src\misc\lv_area.h **** /**********************
  92:c:\projects\paindrain\arduinolcd\test\pain drain\libraries\lvgl\src\misc\lv_area.h ****  * GLOBAL PROTOTYPES
  93:c:\projects\paindrain\arduinolcd\test\pain drain\libraries\lvgl\src\misc\lv_area.h ****  **********************/
  94:c:\projects\paindrain\arduinolcd\test\pain drain\libraries\lvgl\src\misc\lv_area.h **** 
  95:c:\projects\paindrain\arduinolcd\test\pain drain\libraries\lvgl\src\misc\lv_area.h **** /**
  96:c:\projects\paindrain\arduinolcd\test\pain drain\libraries\lvgl\src\misc\lv_area.h ****  * Initialize an area
  97:c:\projects\paindrain\arduinolcd\test\pain drain\libraries\lvgl\src\misc\lv_area.h ****  * @param area_p pointer to an area
  98:c:\projects\paindrain\arduinolcd\test\pain drain\libraries\lvgl\src\misc\lv_area.h ****  * @param x1 left coordinate of the area
  99:c:\projects\paindrain\arduinolcd\test\pain drain\libraries\lvgl\src\misc\lv_area.h ****  * @param y1 top coordinate of the area
 100:c:\projects\paindrain\arduinolcd\test\pain drain\libraries\lvgl\src\misc\lv_area.h ****  * @param x2 right coordinate of the area
 101:c:\projects\paindrain\arduinolcd\test\pain drain\libraries\lvgl\src\misc\lv_area.h ****  * @param y2 bottom coordinate of the area
 102:c:\projects\paindrain\arduinolcd\test\pain drain\libraries\lvgl\src\misc\lv_area.h ****  */
 103:c:\projects\paindrain\arduinolcd\test\pain drain\libraries\lvgl\src\misc\lv_area.h **** void lv_area_set(lv_area_t * area_p, lv_coord_t x1, lv_coord_t y1, lv_coord_t x2, lv_coord_t y2);
 104:c:\projects\paindrain\arduinolcd\test\pain drain\libraries\lvgl\src\misc\lv_area.h **** 
 105:c:\projects\paindrain\arduinolcd\test\pain drain\libraries\lvgl\src\misc\lv_area.h **** /**
 106:c:\projects\paindrain\arduinolcd\test\pain drain\libraries\lvgl\src\misc\lv_area.h ****  * Copy an area
 107:c:\projects\paindrain\arduinolcd\test\pain drain\libraries\lvgl\src\misc\lv_area.h ****  * @param dest pointer to the destination area
 108:c:\projects\paindrain\arduinolcd\test\pain drain\libraries\lvgl\src\misc\lv_area.h ****  * @param src pointer to the source area
 109:c:\projects\paindrain\arduinolcd\test\pain drain\libraries\lvgl\src\misc\lv_area.h ****  */
 110:c:\projects\paindrain\arduinolcd\test\pain drain\libraries\lvgl\src\misc\lv_area.h **** inline static void lv_area_copy(lv_area_t * dest, const lv_area_t * src)
 111:c:\projects\paindrain\arduinolcd\test\pain drain\libraries\lvgl\src\misc\lv_area.h **** {
 112:c:\projects\paindrain\arduinolcd\test\pain drain\libraries\lvgl\src\misc\lv_area.h ****     dest->x1 = src->x1;
 113:c:\projects\paindrain\arduinolcd\test\pain drain\libraries\lvgl\src\misc\lv_area.h ****     dest->y1 = src->y1;
 114:c:\projects\paindrain\arduinolcd\test\pain drain\libraries\lvgl\src\misc\lv_area.h ****     dest->x2 = src->x2;
 115:c:\projects\paindrain\arduinolcd\test\pain drain\libraries\lvgl\src\misc\lv_area.h ****     dest->y2 = src->y2;
 116:c:\projects\paindrain\arduinolcd\test\pain drain\libraries\lvgl\src\misc\lv_area.h **** }
 117:c:\projects\paindrain\arduinolcd\test\pain drain\libraries\lvgl\src\misc\lv_area.h **** 
 118:c:\projects\paindrain\arduinolcd\test\pain drain\libraries\lvgl\src\misc\lv_area.h **** /**
 119:c:\projects\paindrain\arduinolcd\test\pain drain\libraries\lvgl\src\misc\lv_area.h ****  * Get the width of an area
 120:c:\projects\paindrain\arduinolcd\test\pain drain\libraries\lvgl\src\misc\lv_area.h ****  * @param area_p pointer to an area
 121:c:\projects\paindrain\arduinolcd\test\pain drain\libraries\lvgl\src\misc\lv_area.h ****  * @return the width of the area (if x1 == x2 -> width = 1)
 122:c:\projects\paindrain\arduinolcd\test\pain drain\libraries\lvgl\src\misc\lv_area.h ****  */
 123:c:\projects\paindrain\arduinolcd\test\pain drain\libraries\lvgl\src\misc\lv_area.h **** static inline lv_coord_t lv_area_get_width(const lv_area_t * area_p)
 124:c:\projects\paindrain\arduinolcd\test\pain drain\libraries\lvgl\src\misc\lv_area.h **** {
 125:c:\projects\paindrain\arduinolcd\test\pain drain\libraries\lvgl\src\misc\lv_area.h ****     return (lv_coord_t)(area_p->x2 - area_p->x1 + 1);
  76              		.loc 2 125 0
  77 002c 0420     		movs	r0, #4
  78 002e 0B5E     		ldrsh	r3, [r1, r0]
  79              	.LVL8:
  80 0030 0024     		movs	r4, #0
  81 0032 085F     		ldrsh	r0, [r1, r4]
  82 0034 1B1A     		subs	r3, r3, r0
  83 0036 0133     		adds	r3, r3, #1
ARM GAS  C:\Users\haske\AppData\Local\Temp\ccydbpJh.s 			page 14


  84              	.LVL9:
  85              	.LBE99:
  86              	.LBE98:
 534:..\..\..\arduinoLCD\test\Pain Drain\libraries\lvgl\src\draw\sw/lv_draw_sw_blend.c **** 
 535:..\..\..\arduinoLCD\test\Pain Drain\libraries\lvgl\src\draw\sw/lv_draw_sw_blend.c ****     int32_t w = lv_area_get_width(dest_area);
  87              		.loc 1 535 0
  88 0038 1BB2     		sxth	r3, r3
  89 003a 9946     		mov	r9, r3
  90              	.LVL10:
  91              	.LBB100:
  92              	.LBB101:
 126:c:\projects\paindrain\arduinolcd\test\pain drain\libraries\lvgl\src\misc\lv_area.h **** }
 127:c:\projects\paindrain\arduinolcd\test\pain drain\libraries\lvgl\src\misc\lv_area.h **** 
 128:c:\projects\paindrain\arduinolcd\test\pain drain\libraries\lvgl\src\misc\lv_area.h **** /**
 129:c:\projects\paindrain\arduinolcd\test\pain drain\libraries\lvgl\src\misc\lv_area.h ****  * Get the height of an area
 130:c:\projects\paindrain\arduinolcd\test\pain drain\libraries\lvgl\src\misc\lv_area.h ****  * @param area_p pointer to an area
 131:c:\projects\paindrain\arduinolcd\test\pain drain\libraries\lvgl\src\misc\lv_area.h ****  * @return the height of the area (if y1 == y2 -> height = 1)
 132:c:\projects\paindrain\arduinolcd\test\pain drain\libraries\lvgl\src\misc\lv_area.h ****  */
 133:c:\projects\paindrain\arduinolcd\test\pain drain\libraries\lvgl\src\misc\lv_area.h **** static inline lv_coord_t lv_area_get_height(const lv_area_t * area_p)
 134:c:\projects\paindrain\arduinolcd\test\pain drain\libraries\lvgl\src\misc\lv_area.h **** {
 135:c:\projects\paindrain\arduinolcd\test\pain drain\libraries\lvgl\src\misc\lv_area.h ****     return (lv_coord_t)(area_p->y2 - area_p->y1 + 1);
  93              		.loc 2 135 0
  94 003c 0620     		movs	r0, #6
  95 003e 0B5E     		ldrsh	r3, [r1, r0]
  96              	.LVL11:
  97 0040 0220     		movs	r0, #2
  98 0042 095E     		ldrsh	r1, [r1, r0]
  99              	.LVL12:
 100 0044 5B1A     		subs	r3, r3, r1
 101 0046 0133     		adds	r3, r3, #1
 102              	.LVL13:
 103              	.LBE101:
 104              	.LBE100:
 536:..\..\..\arduinoLCD\test\Pain Drain\libraries\lvgl\src\draw\sw/lv_draw_sw_blend.c ****     int32_t h = lv_area_get_height(dest_area);
 105              		.loc 1 536 0
 106 0048 1BB2     		sxth	r3, r3
 107 004a 0593     		str	r3, [sp, #20]
 108              	.LVL14:
 537:..\..\..\arduinoLCD\test\Pain Drain\libraries\lvgl\src\draw\sw/lv_draw_sw_blend.c **** 
 538:..\..\..\arduinoLCD\test\Pain Drain\libraries\lvgl\src\draw\sw/lv_draw_sw_blend.c ****     int32_t x;
 539:..\..\..\arduinoLCD\test\Pain Drain\libraries\lvgl\src\draw\sw/lv_draw_sw_blend.c ****     int32_t y;
 540:..\..\..\arduinoLCD\test\Pain Drain\libraries\lvgl\src\draw\sw/lv_draw_sw_blend.c **** 
 541:..\..\..\arduinoLCD\test\Pain Drain\libraries\lvgl\src\draw\sw/lv_draw_sw_blend.c ****     lv_color_t (*blend_fp)(lv_color_t, lv_color_t, lv_opa_t);
 542:..\..\..\arduinoLCD\test\Pain Drain\libraries\lvgl\src\draw\sw/lv_draw_sw_blend.c ****     switch(blend_mode) {
 109              		.loc 1 542 0
 110 004c 022A     		cmp	r2, #2
 111 004e 0AD0     		beq	.L19
 112 0050 032A     		cmp	r2, #3
 113 0052 05D0     		beq	.L4
 114 0054 012A     		cmp	r2, #1
 115 0056 00D0     		beq	.LCB96
 116 0058 8BE0     		b	.L1	@long jump
 117              	.LCB96:
 543:..\..\..\arduinoLCD\test\Pain Drain\libraries\lvgl\src\draw\sw/lv_draw_sw_blend.c ****         case LV_BLEND_MODE_ADDITIVE:
 544:..\..\..\arduinoLCD\test\Pain Drain\libraries\lvgl\src\draw\sw/lv_draw_sw_blend.c ****             blend_fp = color_blend_true_color_additive;
 118              		.loc 1 544 0
 119 005a 494B     		ldr	r3, .L24
ARM GAS  C:\Users\haske\AppData\Local\Temp\ccydbpJh.s 			page 15


 120              	.LVL15:
 121 005c 9B46     		mov	fp, r3
 122 005e 04E0     		b	.L3
 123              	.LVL16:
 124              	.L4:
 545:..\..\..\arduinoLCD\test\Pain Drain\libraries\lvgl\src\draw\sw/lv_draw_sw_blend.c ****             break;
 546:..\..\..\arduinoLCD\test\Pain Drain\libraries\lvgl\src\draw\sw/lv_draw_sw_blend.c ****         case LV_BLEND_MODE_SUBTRACTIVE:
 547:..\..\..\arduinoLCD\test\Pain Drain\libraries\lvgl\src\draw\sw/lv_draw_sw_blend.c ****             blend_fp = color_blend_true_color_subtractive;
 548:..\..\..\arduinoLCD\test\Pain Drain\libraries\lvgl\src\draw\sw/lv_draw_sw_blend.c ****             break;
 549:..\..\..\arduinoLCD\test\Pain Drain\libraries\lvgl\src\draw\sw/lv_draw_sw_blend.c ****         case LV_BLEND_MODE_MULTIPLY:
 550:..\..\..\arduinoLCD\test\Pain Drain\libraries\lvgl\src\draw\sw/lv_draw_sw_blend.c ****             blend_fp = color_blend_true_color_multiply;
 125              		.loc 1 550 0
 126 0060 484B     		ldr	r3, .L24+4
 127              	.LVL17:
 128 0062 9B46     		mov	fp, r3
 551:..\..\..\arduinoLCD\test\Pain Drain\libraries\lvgl\src\draw\sw/lv_draw_sw_blend.c ****             break;
 129              		.loc 1 551 0
 130 0064 01E0     		b	.L3
 131              	.LVL18:
 132              	.L19:
 547:..\..\..\arduinoLCD\test\Pain Drain\libraries\lvgl\src\draw\sw/lv_draw_sw_blend.c ****             break;
 133              		.loc 1 547 0
 134 0066 484B     		ldr	r3, .L24+8
 135              	.LVL19:
 136 0068 9B46     		mov	fp, r3
 137              	.L3:
 138              	.LVL20:
 552:..\..\..\arduinoLCD\test\Pain Drain\libraries\lvgl\src\draw\sw/lv_draw_sw_blend.c ****         default:
 553:..\..\..\arduinoLCD\test\Pain Drain\libraries\lvgl\src\draw\sw/lv_draw_sw_blend.c ****             LV_LOG_WARN("fill_blended: unsupported blend mode");
 554:..\..\..\arduinoLCD\test\Pain Drain\libraries\lvgl\src\draw\sw/lv_draw_sw_blend.c ****             return;
 555:..\..\..\arduinoLCD\test\Pain Drain\libraries\lvgl\src\draw\sw/lv_draw_sw_blend.c ****     }
 556:..\..\..\arduinoLCD\test\Pain Drain\libraries\lvgl\src\draw\sw/lv_draw_sw_blend.c **** 
 557:..\..\..\arduinoLCD\test\Pain Drain\libraries\lvgl\src\draw\sw/lv_draw_sw_blend.c ****     /*Simple fill (maybe with opacity), no masking*/
 558:..\..\..\arduinoLCD\test\Pain Drain\libraries\lvgl\src\draw\sw/lv_draw_sw_blend.c ****     if(mask == NULL) {
 139              		.loc 1 558 0
 140 006a 5346     		mov	r3, r10
 141 006c 002B     		cmp	r3, #0
 142 006e 2BD1     		bne	.L6
 143              	.LBB102:
 559:..\..\..\arduinoLCD\test\Pain Drain\libraries\lvgl\src\draw\sw/lv_draw_sw_blend.c ****         lv_color_t last_dest_color = dest_buf[0];
 144              		.loc 1 559 0
 145 0070 4346     		mov	r3, r8
 146 0072 1988     		ldrh	r1, [r3]
 147 0074 0C1C     		adds	r4, r1, #0
 148              	.LVL21:
 560:..\..\..\arduinoLCD\test\Pain Drain\libraries\lvgl\src\draw\sw/lv_draw_sw_blend.c ****         lv_color_t last_res_color = blend_fp(color, dest_buf[0], opa);
 149              		.loc 1 560 0
 150 0076 029A     		ldr	r2, [sp, #8]
 151 0078 6B46     		mov	r3, sp
 152 007a D888     		ldrh	r0, [r3, #6]
 153 007c D847     		blx	fp
 154              	.LVL22:
 561:..\..\..\arduinoLCD\test\Pain Drain\libraries\lvgl\src\draw\sw/lv_draw_sw_blend.c ****         for(y = 0; y < h; y++) {
 155              		.loc 1 561 0
 156 007e 0027     		movs	r7, #0
 157 0080 6B46     		mov	r3, sp
 158              	.LVL23:
ARM GAS  C:\Users\haske\AppData\Local\Temp\ccydbpJh.s 			page 16


 159 0082 9C81     		strh	r4, [r3, #12]
 160 0084 4446     		mov	r4, r8
 161              	.LVL24:
 162 0086 B846     		mov	r8, r7
 163              	.LVL25:
 164 0088 4F46     		mov	r7, r9
 165 008a D946     		mov	r9, fp
 166              	.LVL26:
 167 008c 18E0     		b	.L7
 168              	.LVL27:
 169              	.L9:
 562:..\..\..\arduinoLCD\test\Pain Drain\libraries\lvgl\src\draw\sw/lv_draw_sw_blend.c ****             for(x = 0; x < w; x++) {
 563:..\..\..\arduinoLCD\test\Pain Drain\libraries\lvgl\src\draw\sw/lv_draw_sw_blend.c ****                 if(last_dest_color.full != dest_buf[x].full) {
 170              		.loc 1 563 0
 171 008e 6B46     		mov	r3, sp
 172 0090 9B89     		ldrh	r3, [r3, #12]
 173 0092 7500     		lsls	r5, r6, #1
 174 0094 6519     		adds	r5, r4, r5
 175 0096 2A88     		ldrh	r2, [r5]
 176 0098 9342     		cmp	r3, r2
 177 009a 05D0     		beq	.L8
 564:..\..\..\arduinoLCD\test\Pain Drain\libraries\lvgl\src\draw\sw/lv_draw_sw_blend.c ****                     last_dest_color = dest_buf[x];
 178              		.loc 1 564 0
 179 009c 1100     		movs	r1, r2
 180 009e 6B46     		mov	r3, sp
 181 00a0 9A81     		strh	r2, [r3, #12]
 565:..\..\..\arduinoLCD\test\Pain Drain\libraries\lvgl\src\draw\sw/lv_draw_sw_blend.c ****                     last_res_color = blend_fp(color, dest_buf[x], opa);
 182              		.loc 1 565 0
 183 00a2 029A     		ldr	r2, [sp, #8]
 184 00a4 D888     		ldrh	r0, [r3, #6]
 185              	.LVL28:
 186 00a6 C847     		blx	r9
 187              	.LVL29:
 188              	.L8:
 566:..\..\..\arduinoLCD\test\Pain Drain\libraries\lvgl\src\draw\sw/lv_draw_sw_blend.c ****                 }
 567:..\..\..\arduinoLCD\test\Pain Drain\libraries\lvgl\src\draw\sw/lv_draw_sw_blend.c ****                 dest_buf[x] = last_res_color;
 189              		.loc 1 567 0 discriminator 2
 190 00a8 2880     		strh	r0, [r5]
 562:..\..\..\arduinoLCD\test\Pain Drain\libraries\lvgl\src\draw\sw/lv_draw_sw_blend.c ****                 if(last_dest_color.full != dest_buf[x].full) {
 191              		.loc 1 562 0 discriminator 2
 192 00aa 0136     		adds	r6, r6, #1
 193              	.LVL30:
 194 00ac 00E0     		b	.L10
 195              	.LVL31:
 196              	.L20:
 197 00ae 0026     		movs	r6, #0
 198              	.L10:
 199              	.LVL32:
 562:..\..\..\arduinoLCD\test\Pain Drain\libraries\lvgl\src\draw\sw/lv_draw_sw_blend.c ****                 if(last_dest_color.full != dest_buf[x].full) {
 200              		.loc 1 562 0 is_stmt 0 discriminator 1
 201 00b0 BE42     		cmp	r6, r7
 202 00b2 ECDB     		blt	.L9
 568:..\..\..\arduinoLCD\test\Pain Drain\libraries\lvgl\src\draw\sw/lv_draw_sw_blend.c ****             }
 569:..\..\..\arduinoLCD\test\Pain Drain\libraries\lvgl\src\draw\sw/lv_draw_sw_blend.c ****             dest_buf += dest_stride;
 203              		.loc 1 569 0 is_stmt 1 discriminator 2
 204 00b4 069B     		ldr	r3, [sp, #24]
 205 00b6 5B00     		lsls	r3, r3, #1
ARM GAS  C:\Users\haske\AppData\Local\Temp\ccydbpJh.s 			page 17


 206 00b8 E418     		adds	r4, r4, r3
 207              	.LVL33:
 561:..\..\..\arduinoLCD\test\Pain Drain\libraries\lvgl\src\draw\sw/lv_draw_sw_blend.c ****             for(x = 0; x < w; x++) {
 208              		.loc 1 561 0 discriminator 2
 209 00ba 0123     		movs	r3, #1
 210 00bc 9C46     		mov	ip, r3
 211 00be E044     		add	r8, r8, ip
 212              	.LVL34:
 213              	.L7:
 561:..\..\..\arduinoLCD\test\Pain Drain\libraries\lvgl\src\draw\sw/lv_draw_sw_blend.c ****             for(x = 0; x < w; x++) {
 214              		.loc 1 561 0 is_stmt 0 discriminator 1
 215 00c0 059B     		ldr	r3, [sp, #20]
 216 00c2 9845     		cmp	r8, r3
 217 00c4 F3DB     		blt	.L20
 218 00c6 54E0     		b	.L1
 219              	.LVL35:
 220              	.L6:
 221              	.LBE102:
 222              	.LBB103:
 570:..\..\..\arduinoLCD\test\Pain Drain\libraries\lvgl\src\draw\sw/lv_draw_sw_blend.c ****         }
 571:..\..\..\arduinoLCD\test\Pain Drain\libraries\lvgl\src\draw\sw/lv_draw_sw_blend.c ****     }
 572:..\..\..\arduinoLCD\test\Pain Drain\libraries\lvgl\src\draw\sw/lv_draw_sw_blend.c ****     /*Masked*/
 573:..\..\..\arduinoLCD\test\Pain Drain\libraries\lvgl\src\draw\sw/lv_draw_sw_blend.c ****     else {
 574:..\..\..\arduinoLCD\test\Pain Drain\libraries\lvgl\src\draw\sw/lv_draw_sw_blend.c ****         /*Buffer the result color to avoid recalculating the same color*/
 575:..\..\..\arduinoLCD\test\Pain Drain\libraries\lvgl\src\draw\sw/lv_draw_sw_blend.c ****         lv_color_t last_dest_color;
 576:..\..\..\arduinoLCD\test\Pain Drain\libraries\lvgl\src\draw\sw/lv_draw_sw_blend.c ****         lv_color_t last_res_color;
 577:..\..\..\arduinoLCD\test\Pain Drain\libraries\lvgl\src\draw\sw/lv_draw_sw_blend.c ****         lv_opa_t last_mask = LV_OPA_TRANSP;
 578:..\..\..\arduinoLCD\test\Pain Drain\libraries\lvgl\src\draw\sw/lv_draw_sw_blend.c ****         last_dest_color = dest_buf[0];
 223              		.loc 1 578 0 is_stmt 1
 224 00c8 4346     		mov	r3, r8
 225 00ca 1988     		ldrh	r1, [r3]
 226 00cc 0F1C     		adds	r7, r1, #0
 227              	.LVL36:
 579:..\..\..\arduinoLCD\test\Pain Drain\libraries\lvgl\src\draw\sw/lv_draw_sw_blend.c ****         lv_opa_t opa_tmp = mask[0] >= LV_OPA_MAX ? opa : (uint32_t)((uint32_t)mask[0] * opa) >> 8;
 228              		.loc 1 579 0
 229 00ce 5346     		mov	r3, r10
 230 00d0 1B78     		ldrb	r3, [r3]
 231 00d2 FC2B     		cmp	r3, #252
 232 00d4 04D8     		bhi	.L21
 233              		.loc 1 579 0 is_stmt 0 discriminator 1
 234 00d6 029A     		ldr	r2, [sp, #8]
 235 00d8 5343     		muls	r3, r2
 236 00da 1B0A     		lsrs	r3, r3, #8
 237 00dc DAB2     		uxtb	r2, r3
 238 00de 00E0     		b	.L11
 239              	.L21:
 240              		.loc 1 579 0
 241 00e0 029A     		ldr	r2, [sp, #8]
 242              	.L11:
 243              	.LVL37:
 580:..\..\..\arduinoLCD\test\Pain Drain\libraries\lvgl\src\draw\sw/lv_draw_sw_blend.c ****         last_res_color = blend_fp(color, last_dest_color, opa_tmp);
 244              		.loc 1 580 0 is_stmt 1 discriminator 4
 245 00e2 6B46     		mov	r3, sp
 246 00e4 D888     		ldrh	r0, [r3, #6]
 247 00e6 D847     		blx	fp
 248              	.LVL38:
 577:..\..\..\arduinoLCD\test\Pain Drain\libraries\lvgl\src\draw\sw/lv_draw_sw_blend.c ****         last_dest_color = dest_buf[0];
ARM GAS  C:\Users\haske\AppData\Local\Temp\ccydbpJh.s 			page 18


 249              		.loc 1 577 0 discriminator 4
 250 00e8 0023     		movs	r3, #0
 581:..\..\..\arduinoLCD\test\Pain Drain\libraries\lvgl\src\draw\sw/lv_draw_sw_blend.c **** 
 582:..\..\..\arduinoLCD\test\Pain Drain\libraries\lvgl\src\draw\sw/lv_draw_sw_blend.c ****         for(y = 0; y < h; y++) {
 251              		.loc 1 582 0 discriminator 4
 252 00ea 0022     		movs	r2, #0
 253 00ec 0392     		str	r2, [sp, #12]
 254              	.LVL39:
 255 00ee BC46     		mov	ip, r7
 256 00f0 4746     		mov	r7, r8
 257              	.LVL40:
 258 00f2 3AE0     		b	.L12
 259              	.LVL41:
 260              	.L17:
 583:..\..\..\arduinoLCD\test\Pain Drain\libraries\lvgl\src\draw\sw/lv_draw_sw_blend.c ****             for(x = 0; x < w; x++) {
 584:..\..\..\arduinoLCD\test\Pain Drain\libraries\lvgl\src\draw\sw/lv_draw_sw_blend.c ****                 if(mask[x] == 0) continue;
 261              		.loc 1 584 0
 262 00f4 2500     		movs	r5, r4
 263 00f6 5246     		mov	r2, r10
 264              	.LVL42:
 265 00f8 1619     		adds	r6, r2, r4
 266 00fa 3278     		ldrb	r2, [r6]
 267 00fc 002A     		cmp	r2, #0
 268 00fe 24D0     		beq	.L13
 585:..\..\..\arduinoLCD\test\Pain Drain\libraries\lvgl\src\draw\sw/lv_draw_sw_blend.c ****                 if(mask[x] != last_mask || last_dest_color.full != dest_buf[x].full) {
 269              		.loc 1 585 0
 270 0100 009B     		ldr	r3, [sp]
 271 0102 9342     		cmp	r3, r2
 272 0104 0AD1     		bne	.L14
 273              		.loc 1 585 0 is_stmt 0 discriminator 1
 274 0106 6146     		mov	r1, ip
 275 0108 6B46     		mov	r3, sp
 276 010a 1982     		strh	r1, [r3, #16]
 277 010c 198A     		ldrh	r1, [r3, #16]
 278 010e 0491     		str	r1, [sp, #16]
 279 0110 6100     		lsls	r1, r4, #1
 280 0112 795A     		ldrh	r1, [r7, r1]
 281 0114 8846     		mov	r8, r1
 282 0116 0499     		ldr	r1, [sp, #16]
 283 0118 4145     		cmp	r1, r8
 284 011a 14D0     		beq	.L15
 285              	.L14:
 586:..\..\..\arduinoLCD\test\Pain Drain\libraries\lvgl\src\draw\sw/lv_draw_sw_blend.c ****                     opa_tmp = mask[x] >= LV_OPA_MAX ? opa : (uint32_t)((uint32_t)mask[x] * opa) >> 
 286              		.loc 1 586 0 is_stmt 1
 287 011c FC2A     		cmp	r2, #252
 288 011e 04D8     		bhi	.L22
 289              		.loc 1 586 0 is_stmt 0 discriminator 1
 290 0120 029B     		ldr	r3, [sp, #8]
 291 0122 5A43     		muls	r2, r3
 292 0124 120A     		lsrs	r2, r2, #8
 293 0126 D2B2     		uxtb	r2, r2
 294 0128 00E0     		b	.L16
 295              	.L22:
 296              		.loc 1 586 0
 297 012a 029A     		ldr	r2, [sp, #8]
 298              	.L16:
 299              	.LVL43:
ARM GAS  C:\Users\haske\AppData\Local\Temp\ccydbpJh.s 			page 19


 587:..\..\..\arduinoLCD\test\Pain Drain\libraries\lvgl\src\draw\sw/lv_draw_sw_blend.c **** 
 588:..\..\..\arduinoLCD\test\Pain Drain\libraries\lvgl\src\draw\sw/lv_draw_sw_blend.c ****                     last_res_color = blend_fp(color, dest_buf[x], opa_tmp);
 300              		.loc 1 588 0 is_stmt 1 discriminator 4
 301 012c 6B00     		lsls	r3, r5, #1
 302 012e 9846     		mov	r8, r3
 303 0130 B844     		add	r8, r8, r7
 304 0132 4346     		mov	r3, r8
 305 0134 1988     		ldrh	r1, [r3]
 306 0136 6B46     		mov	r3, sp
 307 0138 D888     		ldrh	r0, [r3, #6]
 308              	.LVL44:
 309 013a D847     		blx	fp
 310              	.LVL45:
 589:..\..\..\arduinoLCD\test\Pain Drain\libraries\lvgl\src\draw\sw/lv_draw_sw_blend.c ****                     last_mask = mask[x];
 311              		.loc 1 589 0 discriminator 4
 312 013c 3378     		ldrb	r3, [r6]
 313 013e 0093     		str	r3, [sp]
 314              	.LVL46:
 590:..\..\..\arduinoLCD\test\Pain Drain\libraries\lvgl\src\draw\sw/lv_draw_sw_blend.c ****                     last_dest_color.full = dest_buf[x].full;
 315              		.loc 1 590 0 discriminator 4
 316 0140 4246     		mov	r2, r8
 317 0142 1288     		ldrh	r2, [r2]
 318              	.LVL47:
 319 0144 9446     		mov	ip, r2
 320              	.LVL48:
 321              	.L15:
 591:..\..\..\arduinoLCD\test\Pain Drain\libraries\lvgl\src\draw\sw/lv_draw_sw_blend.c ****                 }
 592:..\..\..\arduinoLCD\test\Pain Drain\libraries\lvgl\src\draw\sw/lv_draw_sw_blend.c ****                 dest_buf[x] = last_res_color;
 322              		.loc 1 592 0
 323 0146 6D00     		lsls	r5, r5, #1
 324 0148 7853     		strh	r0, [r7, r5]
 325              	.L13:
 583:..\..\..\arduinoLCD\test\Pain Drain\libraries\lvgl\src\draw\sw/lv_draw_sw_blend.c ****                 if(mask[x] == 0) continue;
 326              		.loc 1 583 0 discriminator 2
 327 014a 0134     		adds	r4, r4, #1
 328              	.LVL49:
 329 014c 01E0     		b	.L18
 330              	.LVL50:
 331              	.L23:
 332 014e 0024     		movs	r4, #0
 333 0150 0093     		str	r3, [sp]
 334              	.LVL51:
 335              	.L18:
 583:..\..\..\arduinoLCD\test\Pain Drain\libraries\lvgl\src\draw\sw/lv_draw_sw_blend.c ****                 if(mask[x] == 0) continue;
 336              		.loc 1 583 0 is_stmt 0 discriminator 1
 337 0152 4C45     		cmp	r4, r9
 338 0154 CEDB     		blt	.L17
 339 0156 009B     		ldr	r3, [sp]
 593:..\..\..\arduinoLCD\test\Pain Drain\libraries\lvgl\src\draw\sw/lv_draw_sw_blend.c ****             }
 594:..\..\..\arduinoLCD\test\Pain Drain\libraries\lvgl\src\draw\sw/lv_draw_sw_blend.c ****             dest_buf += dest_stride;
 340              		.loc 1 594 0 is_stmt 1 discriminator 2
 341 0158 069A     		ldr	r2, [sp, #24]
 342 015a 5200     		lsls	r2, r2, #1
 343 015c BF18     		adds	r7, r7, r2
 344              	.LVL52:
 595:..\..\..\arduinoLCD\test\Pain Drain\libraries\lvgl\src\draw\sw/lv_draw_sw_blend.c ****             mask += mask_stride;
 345              		.loc 1 595 0 discriminator 2
ARM GAS  C:\Users\haske\AppData\Local\Temp\ccydbpJh.s 			page 20


 346 015e 079A     		ldr	r2, [sp, #28]
 347 0160 9046     		mov	r8, r2
 348 0162 C244     		add	r10, r10, r8
 349              	.LVL53:
 582:..\..\..\arduinoLCD\test\Pain Drain\libraries\lvgl\src\draw\sw/lv_draw_sw_blend.c ****             for(x = 0; x < w; x++) {
 350              		.loc 1 582 0 discriminator 2
 351 0164 039A     		ldr	r2, [sp, #12]
 352 0166 0132     		adds	r2, r2, #1
 353 0168 0392     		str	r2, [sp, #12]
 354              	.LVL54:
 355              	.L12:
 582:..\..\..\arduinoLCD\test\Pain Drain\libraries\lvgl\src\draw\sw/lv_draw_sw_blend.c ****             for(x = 0; x < w; x++) {
 356              		.loc 1 582 0 is_stmt 0 discriminator 1
 357 016a 039A     		ldr	r2, [sp, #12]
 358 016c 0599     		ldr	r1, [sp, #20]
 359 016e 8A42     		cmp	r2, r1
 360 0170 EDDB     		blt	.L23
 361              	.LVL55:
 362              	.L1:
 363              	.LBE103:
 596:..\..\..\arduinoLCD\test\Pain Drain\libraries\lvgl\src\draw\sw/lv_draw_sw_blend.c ****         }
 597:..\..\..\arduinoLCD\test\Pain Drain\libraries\lvgl\src\draw\sw/lv_draw_sw_blend.c ****     }
 598:..\..\..\arduinoLCD\test\Pain Drain\libraries\lvgl\src\draw\sw/lv_draw_sw_blend.c **** }
 364              		.loc 1 598 0 is_stmt 1
 365 0172 09B0     		add	sp, sp, #36
 366              		@ sp needed
 367 0174 3CBC     		pop	{r2, r3, r4, r5}
 368 0176 9046     		mov	r8, r2
 369 0178 9946     		mov	r9, r3
 370 017a A246     		mov	r10, r4
 371 017c AB46     		mov	fp, r5
 372 017e F0BD     		pop	{r4, r5, r6, r7, pc}
 373              	.L25:
 374              		.align	2
 375              	.L24:
 376 0180 00000000 		.word	color_blend_true_color_additive
 377 0184 00000000 		.word	color_blend_true_color_multiply
 378 0188 00000000 		.word	color_blend_true_color_subtractive
 379              		.cfi_endproc
 380              	.LFE163:
 381              		.size	fill_blended, .-fill_blended
 382              		.section	.text.map_blended,"ax",%progbits
 383              		.align	2
 384              		.code	16
 385              		.thumb_func
 386              		.type	map_blended, %function
 387              	map_blended:
 388              	.LFB166:
 599:..\..\..\arduinoLCD\test\Pain Drain\libraries\lvgl\src\draw\sw/lv_draw_sw_blend.c **** #endif
 600:..\..\..\arduinoLCD\test\Pain Drain\libraries\lvgl\src\draw\sw/lv_draw_sw_blend.c **** 
 601:..\..\..\arduinoLCD\test\Pain Drain\libraries\lvgl\src\draw\sw/lv_draw_sw_blend.c **** static void map_set_px(lv_color_t * dest_buf, const lv_area_t * dest_area, lv_coord_t dest_stride,
 602:..\..\..\arduinoLCD\test\Pain Drain\libraries\lvgl\src\draw\sw/lv_draw_sw_blend.c ****                        const lv_color_t * src_buf, lv_coord_t src_stride, lv_opa_t opa, const lv_op
 603:..\..\..\arduinoLCD\test\Pain Drain\libraries\lvgl\src\draw\sw/lv_draw_sw_blend.c **** 
 604:..\..\..\arduinoLCD\test\Pain Drain\libraries\lvgl\src\draw\sw/lv_draw_sw_blend.c **** {
 605:..\..\..\arduinoLCD\test\Pain Drain\libraries\lvgl\src\draw\sw/lv_draw_sw_blend.c ****     lv_disp_t * disp = _lv_refr_get_disp_refreshing();
 606:..\..\..\arduinoLCD\test\Pain Drain\libraries\lvgl\src\draw\sw/lv_draw_sw_blend.c **** 
 607:..\..\..\arduinoLCD\test\Pain Drain\libraries\lvgl\src\draw\sw/lv_draw_sw_blend.c ****     int32_t w = lv_area_get_width(dest_area);
ARM GAS  C:\Users\haske\AppData\Local\Temp\ccydbpJh.s 			page 21


 608:..\..\..\arduinoLCD\test\Pain Drain\libraries\lvgl\src\draw\sw/lv_draw_sw_blend.c ****     int32_t h = lv_area_get_height(dest_area);
 609:..\..\..\arduinoLCD\test\Pain Drain\libraries\lvgl\src\draw\sw/lv_draw_sw_blend.c **** 
 610:..\..\..\arduinoLCD\test\Pain Drain\libraries\lvgl\src\draw\sw/lv_draw_sw_blend.c ****     int32_t x;
 611:..\..\..\arduinoLCD\test\Pain Drain\libraries\lvgl\src\draw\sw/lv_draw_sw_blend.c ****     int32_t y;
 612:..\..\..\arduinoLCD\test\Pain Drain\libraries\lvgl\src\draw\sw/lv_draw_sw_blend.c **** 
 613:..\..\..\arduinoLCD\test\Pain Drain\libraries\lvgl\src\draw\sw/lv_draw_sw_blend.c ****     if(mask == NULL) {
 614:..\..\..\arduinoLCD\test\Pain Drain\libraries\lvgl\src\draw\sw/lv_draw_sw_blend.c ****         for(y = 0; y < h; y++) {
 615:..\..\..\arduinoLCD\test\Pain Drain\libraries\lvgl\src\draw\sw/lv_draw_sw_blend.c ****             for(x = 0; x < w; x++) {
 616:..\..\..\arduinoLCD\test\Pain Drain\libraries\lvgl\src\draw\sw/lv_draw_sw_blend.c ****                 disp->driver->set_px_cb(disp->driver, (void *)dest_buf, dest_stride, dest_area->x1 
 617:..\..\..\arduinoLCD\test\Pain Drain\libraries\lvgl\src\draw\sw/lv_draw_sw_blend.c ****                                         opa);
 618:..\..\..\arduinoLCD\test\Pain Drain\libraries\lvgl\src\draw\sw/lv_draw_sw_blend.c ****             }
 619:..\..\..\arduinoLCD\test\Pain Drain\libraries\lvgl\src\draw\sw/lv_draw_sw_blend.c ****             src_buf += src_stride;
 620:..\..\..\arduinoLCD\test\Pain Drain\libraries\lvgl\src\draw\sw/lv_draw_sw_blend.c ****         }
 621:..\..\..\arduinoLCD\test\Pain Drain\libraries\lvgl\src\draw\sw/lv_draw_sw_blend.c ****     }
 622:..\..\..\arduinoLCD\test\Pain Drain\libraries\lvgl\src\draw\sw/lv_draw_sw_blend.c ****     else {
 623:..\..\..\arduinoLCD\test\Pain Drain\libraries\lvgl\src\draw\sw/lv_draw_sw_blend.c ****         for(y = 0; y < h; y++) {
 624:..\..\..\arduinoLCD\test\Pain Drain\libraries\lvgl\src\draw\sw/lv_draw_sw_blend.c ****             for(x = 0; x < w; x++) {
 625:..\..\..\arduinoLCD\test\Pain Drain\libraries\lvgl\src\draw\sw/lv_draw_sw_blend.c ****                 if(mask[x]) {
 626:..\..\..\arduinoLCD\test\Pain Drain\libraries\lvgl\src\draw\sw/lv_draw_sw_blend.c ****                     disp->driver->set_px_cb(disp->driver, (void *)dest_buf, dest_stride, dest_area-
 627:..\..\..\arduinoLCD\test\Pain Drain\libraries\lvgl\src\draw\sw/lv_draw_sw_blend.c ****                                             (uint32_t)((uint32_t)opa * mask[x]) >> 8);
 628:..\..\..\arduinoLCD\test\Pain Drain\libraries\lvgl\src\draw\sw/lv_draw_sw_blend.c ****                 }
 629:..\..\..\arduinoLCD\test\Pain Drain\libraries\lvgl\src\draw\sw/lv_draw_sw_blend.c ****             }
 630:..\..\..\arduinoLCD\test\Pain Drain\libraries\lvgl\src\draw\sw/lv_draw_sw_blend.c ****             mask += mask_stride;
 631:..\..\..\arduinoLCD\test\Pain Drain\libraries\lvgl\src\draw\sw/lv_draw_sw_blend.c ****             src_buf += src_stride;
 632:..\..\..\arduinoLCD\test\Pain Drain\libraries\lvgl\src\draw\sw/lv_draw_sw_blend.c ****         }
 633:..\..\..\arduinoLCD\test\Pain Drain\libraries\lvgl\src\draw\sw/lv_draw_sw_blend.c ****     }
 634:..\..\..\arduinoLCD\test\Pain Drain\libraries\lvgl\src\draw\sw/lv_draw_sw_blend.c **** }
 635:..\..\..\arduinoLCD\test\Pain Drain\libraries\lvgl\src\draw\sw/lv_draw_sw_blend.c **** 
 636:..\..\..\arduinoLCD\test\Pain Drain\libraries\lvgl\src\draw\sw/lv_draw_sw_blend.c **** LV_ATTRIBUTE_FAST_MEM static void map_normal(lv_color_t * dest_buf, const lv_area_t * dest_area, lv
 637:..\..\..\arduinoLCD\test\Pain Drain\libraries\lvgl\src\draw\sw/lv_draw_sw_blend.c ****                                              const lv_color_t * src_buf, lv_coord_t src_stride, lv_
 638:..\..\..\arduinoLCD\test\Pain Drain\libraries\lvgl\src\draw\sw/lv_draw_sw_blend.c **** 
 639:..\..\..\arduinoLCD\test\Pain Drain\libraries\lvgl\src\draw\sw/lv_draw_sw_blend.c **** {
 640:..\..\..\arduinoLCD\test\Pain Drain\libraries\lvgl\src\draw\sw/lv_draw_sw_blend.c ****     int32_t w = lv_area_get_width(dest_area);
 641:..\..\..\arduinoLCD\test\Pain Drain\libraries\lvgl\src\draw\sw/lv_draw_sw_blend.c ****     int32_t h = lv_area_get_height(dest_area);
 642:..\..\..\arduinoLCD\test\Pain Drain\libraries\lvgl\src\draw\sw/lv_draw_sw_blend.c **** 
 643:..\..\..\arduinoLCD\test\Pain Drain\libraries\lvgl\src\draw\sw/lv_draw_sw_blend.c ****     int32_t x;
 644:..\..\..\arduinoLCD\test\Pain Drain\libraries\lvgl\src\draw\sw/lv_draw_sw_blend.c ****     int32_t y;
 645:..\..\..\arduinoLCD\test\Pain Drain\libraries\lvgl\src\draw\sw/lv_draw_sw_blend.c **** 
 646:..\..\..\arduinoLCD\test\Pain Drain\libraries\lvgl\src\draw\sw/lv_draw_sw_blend.c ****     /*Simple fill (maybe with opacity), no masking*/
 647:..\..\..\arduinoLCD\test\Pain Drain\libraries\lvgl\src\draw\sw/lv_draw_sw_blend.c ****     if(mask == NULL) {
 648:..\..\..\arduinoLCD\test\Pain Drain\libraries\lvgl\src\draw\sw/lv_draw_sw_blend.c ****         if(opa >= LV_OPA_MAX) {
 649:..\..\..\arduinoLCD\test\Pain Drain\libraries\lvgl\src\draw\sw/lv_draw_sw_blend.c ****             for(y = 0; y < h; y++) {
 650:..\..\..\arduinoLCD\test\Pain Drain\libraries\lvgl\src\draw\sw/lv_draw_sw_blend.c ****                 lv_memcpy(dest_buf, src_buf, w * sizeof(lv_color_t));
 651:..\..\..\arduinoLCD\test\Pain Drain\libraries\lvgl\src\draw\sw/lv_draw_sw_blend.c ****                 dest_buf += dest_stride;
 652:..\..\..\arduinoLCD\test\Pain Drain\libraries\lvgl\src\draw\sw/lv_draw_sw_blend.c ****                 src_buf += src_stride;
 653:..\..\..\arduinoLCD\test\Pain Drain\libraries\lvgl\src\draw\sw/lv_draw_sw_blend.c ****             }
 654:..\..\..\arduinoLCD\test\Pain Drain\libraries\lvgl\src\draw\sw/lv_draw_sw_blend.c ****         }
 655:..\..\..\arduinoLCD\test\Pain Drain\libraries\lvgl\src\draw\sw/lv_draw_sw_blend.c ****         else {
 656:..\..\..\arduinoLCD\test\Pain Drain\libraries\lvgl\src\draw\sw/lv_draw_sw_blend.c ****             for(y = 0; y < h; y++) {
 657:..\..\..\arduinoLCD\test\Pain Drain\libraries\lvgl\src\draw\sw/lv_draw_sw_blend.c ****                 for(x = 0; x < w; x++) {
 658:..\..\..\arduinoLCD\test\Pain Drain\libraries\lvgl\src\draw\sw/lv_draw_sw_blend.c ****                     dest_buf[x] = lv_color_mix(src_buf[x], dest_buf[x], opa);
 659:..\..\..\arduinoLCD\test\Pain Drain\libraries\lvgl\src\draw\sw/lv_draw_sw_blend.c ****                 }
 660:..\..\..\arduinoLCD\test\Pain Drain\libraries\lvgl\src\draw\sw/lv_draw_sw_blend.c ****                 dest_buf += dest_stride;
 661:..\..\..\arduinoLCD\test\Pain Drain\libraries\lvgl\src\draw\sw/lv_draw_sw_blend.c ****                 src_buf += src_stride;
 662:..\..\..\arduinoLCD\test\Pain Drain\libraries\lvgl\src\draw\sw/lv_draw_sw_blend.c ****             }
 663:..\..\..\arduinoLCD\test\Pain Drain\libraries\lvgl\src\draw\sw/lv_draw_sw_blend.c ****         }
 664:..\..\..\arduinoLCD\test\Pain Drain\libraries\lvgl\src\draw\sw/lv_draw_sw_blend.c ****     }
ARM GAS  C:\Users\haske\AppData\Local\Temp\ccydbpJh.s 			page 22


 665:..\..\..\arduinoLCD\test\Pain Drain\libraries\lvgl\src\draw\sw/lv_draw_sw_blend.c ****     /*Masked*/
 666:..\..\..\arduinoLCD\test\Pain Drain\libraries\lvgl\src\draw\sw/lv_draw_sw_blend.c ****     else {
 667:..\..\..\arduinoLCD\test\Pain Drain\libraries\lvgl\src\draw\sw/lv_draw_sw_blend.c ****         /*Only the mask matters*/
 668:..\..\..\arduinoLCD\test\Pain Drain\libraries\lvgl\src\draw\sw/lv_draw_sw_blend.c ****         if(opa > LV_OPA_MAX) {
 669:..\..\..\arduinoLCD\test\Pain Drain\libraries\lvgl\src\draw\sw/lv_draw_sw_blend.c ****             int32_t x_end4 = w - 4;
 670:..\..\..\arduinoLCD\test\Pain Drain\libraries\lvgl\src\draw\sw/lv_draw_sw_blend.c **** 
 671:..\..\..\arduinoLCD\test\Pain Drain\libraries\lvgl\src\draw\sw/lv_draw_sw_blend.c ****             for(y = 0; y < h; y++) {
 672:..\..\..\arduinoLCD\test\Pain Drain\libraries\lvgl\src\draw\sw/lv_draw_sw_blend.c ****                 const lv_opa_t * mask_tmp_x = mask;
 673:..\..\..\arduinoLCD\test\Pain Drain\libraries\lvgl\src\draw\sw/lv_draw_sw_blend.c **** #if 0
 674:..\..\..\arduinoLCD\test\Pain Drain\libraries\lvgl\src\draw\sw/lv_draw_sw_blend.c ****                 for(x = 0; x < w; x++) {
 675:..\..\..\arduinoLCD\test\Pain Drain\libraries\lvgl\src\draw\sw/lv_draw_sw_blend.c ****                     MAP_NORMAL_MASK_PX(x);
 676:..\..\..\arduinoLCD\test\Pain Drain\libraries\lvgl\src\draw\sw/lv_draw_sw_blend.c ****                 }
 677:..\..\..\arduinoLCD\test\Pain Drain\libraries\lvgl\src\draw\sw/lv_draw_sw_blend.c **** #else
 678:..\..\..\arduinoLCD\test\Pain Drain\libraries\lvgl\src\draw\sw/lv_draw_sw_blend.c ****                 for(x = 0; x < w && ((lv_uintptr_t)mask_tmp_x & 0x3); x++) {
 679:..\..\..\arduinoLCD\test\Pain Drain\libraries\lvgl\src\draw\sw/lv_draw_sw_blend.c ****                     MAP_NORMAL_MASK_PX(x)
 680:..\..\..\arduinoLCD\test\Pain Drain\libraries\lvgl\src\draw\sw/lv_draw_sw_blend.c ****                 }
 681:..\..\..\arduinoLCD\test\Pain Drain\libraries\lvgl\src\draw\sw/lv_draw_sw_blend.c **** 
 682:..\..\..\arduinoLCD\test\Pain Drain\libraries\lvgl\src\draw\sw/lv_draw_sw_blend.c ****                 uint32_t * mask32 = (uint32_t *)mask_tmp_x;
 683:..\..\..\arduinoLCD\test\Pain Drain\libraries\lvgl\src\draw\sw/lv_draw_sw_blend.c ****                 for(; x < x_end4; x += 4) {
 684:..\..\..\arduinoLCD\test\Pain Drain\libraries\lvgl\src\draw\sw/lv_draw_sw_blend.c ****                     if(*mask32) {
 685:..\..\..\arduinoLCD\test\Pain Drain\libraries\lvgl\src\draw\sw/lv_draw_sw_blend.c ****                         if((*mask32) == 0xFFFFFFFF) {
 686:..\..\..\arduinoLCD\test\Pain Drain\libraries\lvgl\src\draw\sw/lv_draw_sw_blend.c ****                             dest_buf[x] = src_buf[x];
 687:..\..\..\arduinoLCD\test\Pain Drain\libraries\lvgl\src\draw\sw/lv_draw_sw_blend.c ****                             dest_buf[x + 1] = src_buf[x + 1];
 688:..\..\..\arduinoLCD\test\Pain Drain\libraries\lvgl\src\draw\sw/lv_draw_sw_blend.c ****                             dest_buf[x + 2] = src_buf[x + 2];
 689:..\..\..\arduinoLCD\test\Pain Drain\libraries\lvgl\src\draw\sw/lv_draw_sw_blend.c ****                             dest_buf[x + 3] = src_buf[x + 3];
 690:..\..\..\arduinoLCD\test\Pain Drain\libraries\lvgl\src\draw\sw/lv_draw_sw_blend.c ****                         }
 691:..\..\..\arduinoLCD\test\Pain Drain\libraries\lvgl\src\draw\sw/lv_draw_sw_blend.c ****                         else {
 692:..\..\..\arduinoLCD\test\Pain Drain\libraries\lvgl\src\draw\sw/lv_draw_sw_blend.c ****                             mask_tmp_x = (const lv_opa_t *)mask32;
 693:..\..\..\arduinoLCD\test\Pain Drain\libraries\lvgl\src\draw\sw/lv_draw_sw_blend.c ****                             MAP_NORMAL_MASK_PX(x)
 694:..\..\..\arduinoLCD\test\Pain Drain\libraries\lvgl\src\draw\sw/lv_draw_sw_blend.c ****                             MAP_NORMAL_MASK_PX(x + 1)
 695:..\..\..\arduinoLCD\test\Pain Drain\libraries\lvgl\src\draw\sw/lv_draw_sw_blend.c ****                             MAP_NORMAL_MASK_PX(x + 2)
 696:..\..\..\arduinoLCD\test\Pain Drain\libraries\lvgl\src\draw\sw/lv_draw_sw_blend.c ****                             MAP_NORMAL_MASK_PX(x + 3)
 697:..\..\..\arduinoLCD\test\Pain Drain\libraries\lvgl\src\draw\sw/lv_draw_sw_blend.c ****                         }
 698:..\..\..\arduinoLCD\test\Pain Drain\libraries\lvgl\src\draw\sw/lv_draw_sw_blend.c ****                     }
 699:..\..\..\arduinoLCD\test\Pain Drain\libraries\lvgl\src\draw\sw/lv_draw_sw_blend.c ****                     mask32++;
 700:..\..\..\arduinoLCD\test\Pain Drain\libraries\lvgl\src\draw\sw/lv_draw_sw_blend.c ****                 }
 701:..\..\..\arduinoLCD\test\Pain Drain\libraries\lvgl\src\draw\sw/lv_draw_sw_blend.c **** 
 702:..\..\..\arduinoLCD\test\Pain Drain\libraries\lvgl\src\draw\sw/lv_draw_sw_blend.c ****                 mask_tmp_x = (const lv_opa_t *)mask32;
 703:..\..\..\arduinoLCD\test\Pain Drain\libraries\lvgl\src\draw\sw/lv_draw_sw_blend.c ****                 for(; x < w ; x++) {
 704:..\..\..\arduinoLCD\test\Pain Drain\libraries\lvgl\src\draw\sw/lv_draw_sw_blend.c ****                     MAP_NORMAL_MASK_PX(x)
 705:..\..\..\arduinoLCD\test\Pain Drain\libraries\lvgl\src\draw\sw/lv_draw_sw_blend.c ****                 }
 706:..\..\..\arduinoLCD\test\Pain Drain\libraries\lvgl\src\draw\sw/lv_draw_sw_blend.c **** #endif
 707:..\..\..\arduinoLCD\test\Pain Drain\libraries\lvgl\src\draw\sw/lv_draw_sw_blend.c ****                 dest_buf += dest_stride;
 708:..\..\..\arduinoLCD\test\Pain Drain\libraries\lvgl\src\draw\sw/lv_draw_sw_blend.c ****                 src_buf += src_stride;
 709:..\..\..\arduinoLCD\test\Pain Drain\libraries\lvgl\src\draw\sw/lv_draw_sw_blend.c ****                 mask += mask_stride;
 710:..\..\..\arduinoLCD\test\Pain Drain\libraries\lvgl\src\draw\sw/lv_draw_sw_blend.c ****             }
 711:..\..\..\arduinoLCD\test\Pain Drain\libraries\lvgl\src\draw\sw/lv_draw_sw_blend.c ****         }
 712:..\..\..\arduinoLCD\test\Pain Drain\libraries\lvgl\src\draw\sw/lv_draw_sw_blend.c ****         /*Handle opa and mask values too*/
 713:..\..\..\arduinoLCD\test\Pain Drain\libraries\lvgl\src\draw\sw/lv_draw_sw_blend.c ****         else {
 714:..\..\..\arduinoLCD\test\Pain Drain\libraries\lvgl\src\draw\sw/lv_draw_sw_blend.c ****             for(y = 0; y < h; y++) {
 715:..\..\..\arduinoLCD\test\Pain Drain\libraries\lvgl\src\draw\sw/lv_draw_sw_blend.c ****                 for(x = 0; x < w; x++) {
 716:..\..\..\arduinoLCD\test\Pain Drain\libraries\lvgl\src\draw\sw/lv_draw_sw_blend.c ****                     if(mask[x]) {
 717:..\..\..\arduinoLCD\test\Pain Drain\libraries\lvgl\src\draw\sw/lv_draw_sw_blend.c ****                         lv_opa_t opa_tmp = mask[x] >= LV_OPA_MAX ? opa : ((opa * mask[x]) >> 8);
 718:..\..\..\arduinoLCD\test\Pain Drain\libraries\lvgl\src\draw\sw/lv_draw_sw_blend.c ****                         dest_buf[x] = lv_color_mix(src_buf[x], dest_buf[x], opa_tmp);
 719:..\..\..\arduinoLCD\test\Pain Drain\libraries\lvgl\src\draw\sw/lv_draw_sw_blend.c ****                     }
 720:..\..\..\arduinoLCD\test\Pain Drain\libraries\lvgl\src\draw\sw/lv_draw_sw_blend.c ****                 }
 721:..\..\..\arduinoLCD\test\Pain Drain\libraries\lvgl\src\draw\sw/lv_draw_sw_blend.c ****                 dest_buf += dest_stride;
ARM GAS  C:\Users\haske\AppData\Local\Temp\ccydbpJh.s 			page 23


 722:..\..\..\arduinoLCD\test\Pain Drain\libraries\lvgl\src\draw\sw/lv_draw_sw_blend.c ****                 src_buf += src_stride;
 723:..\..\..\arduinoLCD\test\Pain Drain\libraries\lvgl\src\draw\sw/lv_draw_sw_blend.c ****                 mask += mask_stride;
 724:..\..\..\arduinoLCD\test\Pain Drain\libraries\lvgl\src\draw\sw/lv_draw_sw_blend.c ****             }
 725:..\..\..\arduinoLCD\test\Pain Drain\libraries\lvgl\src\draw\sw/lv_draw_sw_blend.c ****         }
 726:..\..\..\arduinoLCD\test\Pain Drain\libraries\lvgl\src\draw\sw/lv_draw_sw_blend.c ****     }
 727:..\..\..\arduinoLCD\test\Pain Drain\libraries\lvgl\src\draw\sw/lv_draw_sw_blend.c **** }
 728:..\..\..\arduinoLCD\test\Pain Drain\libraries\lvgl\src\draw\sw/lv_draw_sw_blend.c **** 
 729:..\..\..\arduinoLCD\test\Pain Drain\libraries\lvgl\src\draw\sw/lv_draw_sw_blend.c **** 
 730:..\..\..\arduinoLCD\test\Pain Drain\libraries\lvgl\src\draw\sw/lv_draw_sw_blend.c **** 
 731:..\..\..\arduinoLCD\test\Pain Drain\libraries\lvgl\src\draw\sw/lv_draw_sw_blend.c **** #if LV_COLOR_SCREEN_TRANSP
 732:..\..\..\arduinoLCD\test\Pain Drain\libraries\lvgl\src\draw\sw/lv_draw_sw_blend.c **** LV_ATTRIBUTE_FAST_MEM static void map_argb(lv_color_t * dest_buf, const lv_area_t * dest_area, lv_c
 733:..\..\..\arduinoLCD\test\Pain Drain\libraries\lvgl\src\draw\sw/lv_draw_sw_blend.c ****                                            const lv_color_t * src_buf, lv_coord_t src_stride, lv_op
 734:..\..\..\arduinoLCD\test\Pain Drain\libraries\lvgl\src\draw\sw/lv_draw_sw_blend.c ****                                            const lv_opa_t * mask, lv_coord_t mask_stride, lv_blend_
 735:..\..\..\arduinoLCD\test\Pain Drain\libraries\lvgl\src\draw\sw/lv_draw_sw_blend.c **** 
 736:..\..\..\arduinoLCD\test\Pain Drain\libraries\lvgl\src\draw\sw/lv_draw_sw_blend.c **** {
 737:..\..\..\arduinoLCD\test\Pain Drain\libraries\lvgl\src\draw\sw/lv_draw_sw_blend.c ****     uint8_t * dest_buf8 = (uint8_t *) dest_buf;
 738:..\..\..\arduinoLCD\test\Pain Drain\libraries\lvgl\src\draw\sw/lv_draw_sw_blend.c **** 
 739:..\..\..\arduinoLCD\test\Pain Drain\libraries\lvgl\src\draw\sw/lv_draw_sw_blend.c ****     int32_t w = lv_area_get_width(dest_area);
 740:..\..\..\arduinoLCD\test\Pain Drain\libraries\lvgl\src\draw\sw/lv_draw_sw_blend.c ****     int32_t h = lv_area_get_height(dest_area);
 741:..\..\..\arduinoLCD\test\Pain Drain\libraries\lvgl\src\draw\sw/lv_draw_sw_blend.c **** 
 742:..\..\..\arduinoLCD\test\Pain Drain\libraries\lvgl\src\draw\sw/lv_draw_sw_blend.c ****     int32_t x;
 743:..\..\..\arduinoLCD\test\Pain Drain\libraries\lvgl\src\draw\sw/lv_draw_sw_blend.c ****     int32_t y;
 744:..\..\..\arduinoLCD\test\Pain Drain\libraries\lvgl\src\draw\sw/lv_draw_sw_blend.c **** 
 745:..\..\..\arduinoLCD\test\Pain Drain\libraries\lvgl\src\draw\sw/lv_draw_sw_blend.c ****     lv_color_t (*blend_fp)(lv_color_t, lv_color_t, lv_opa_t);
 746:..\..\..\arduinoLCD\test\Pain Drain\libraries\lvgl\src\draw\sw/lv_draw_sw_blend.c ****     switch(blend_mode) {
 747:..\..\..\arduinoLCD\test\Pain Drain\libraries\lvgl\src\draw\sw/lv_draw_sw_blend.c ****         case LV_BLEND_MODE_ADDITIVE:
 748:..\..\..\arduinoLCD\test\Pain Drain\libraries\lvgl\src\draw\sw/lv_draw_sw_blend.c ****             blend_fp = color_blend_true_color_additive;
 749:..\..\..\arduinoLCD\test\Pain Drain\libraries\lvgl\src\draw\sw/lv_draw_sw_blend.c ****             break;
 750:..\..\..\arduinoLCD\test\Pain Drain\libraries\lvgl\src\draw\sw/lv_draw_sw_blend.c ****         case LV_BLEND_MODE_SUBTRACTIVE:
 751:..\..\..\arduinoLCD\test\Pain Drain\libraries\lvgl\src\draw\sw/lv_draw_sw_blend.c ****             blend_fp = color_blend_true_color_subtractive;
 752:..\..\..\arduinoLCD\test\Pain Drain\libraries\lvgl\src\draw\sw/lv_draw_sw_blend.c ****             break;
 753:..\..\..\arduinoLCD\test\Pain Drain\libraries\lvgl\src\draw\sw/lv_draw_sw_blend.c ****         case LV_BLEND_MODE_MULTIPLY:
 754:..\..\..\arduinoLCD\test\Pain Drain\libraries\lvgl\src\draw\sw/lv_draw_sw_blend.c ****             blend_fp = color_blend_true_color_multiply;
 755:..\..\..\arduinoLCD\test\Pain Drain\libraries\lvgl\src\draw\sw/lv_draw_sw_blend.c ****             break;
 756:..\..\..\arduinoLCD\test\Pain Drain\libraries\lvgl\src\draw\sw/lv_draw_sw_blend.c ****         default:
 757:..\..\..\arduinoLCD\test\Pain Drain\libraries\lvgl\src\draw\sw/lv_draw_sw_blend.c ****             blend_fp = NULL;
 758:..\..\..\arduinoLCD\test\Pain Drain\libraries\lvgl\src\draw\sw/lv_draw_sw_blend.c ****     }
 759:..\..\..\arduinoLCD\test\Pain Drain\libraries\lvgl\src\draw\sw/lv_draw_sw_blend.c **** 
 760:..\..\..\arduinoLCD\test\Pain Drain\libraries\lvgl\src\draw\sw/lv_draw_sw_blend.c ****     /*Simple fill (maybe with opacity), no masking*/
 761:..\..\..\arduinoLCD\test\Pain Drain\libraries\lvgl\src\draw\sw/lv_draw_sw_blend.c ****     if(mask == NULL) {
 762:..\..\..\arduinoLCD\test\Pain Drain\libraries\lvgl\src\draw\sw/lv_draw_sw_blend.c ****         if(opa >= LV_OPA_MAX) {
 763:..\..\..\arduinoLCD\test\Pain Drain\libraries\lvgl\src\draw\sw/lv_draw_sw_blend.c ****             if(blend_fp == NULL && LV_COLOR_DEPTH == 32) {
 764:..\..\..\arduinoLCD\test\Pain Drain\libraries\lvgl\src\draw\sw/lv_draw_sw_blend.c ****                 for(y = 0; y < h; y++) {
 765:..\..\..\arduinoLCD\test\Pain Drain\libraries\lvgl\src\draw\sw/lv_draw_sw_blend.c ****                     lv_memcpy(dest_buf, src_buf, w * sizeof(lv_color_t));
 766:..\..\..\arduinoLCD\test\Pain Drain\libraries\lvgl\src\draw\sw/lv_draw_sw_blend.c ****                     dest_buf += dest_stride;
 767:..\..\..\arduinoLCD\test\Pain Drain\libraries\lvgl\src\draw\sw/lv_draw_sw_blend.c ****                     src_buf += src_stride;
 768:..\..\..\arduinoLCD\test\Pain Drain\libraries\lvgl\src\draw\sw/lv_draw_sw_blend.c ****                 }
 769:..\..\..\arduinoLCD\test\Pain Drain\libraries\lvgl\src\draw\sw/lv_draw_sw_blend.c ****             }
 770:..\..\..\arduinoLCD\test\Pain Drain\libraries\lvgl\src\draw\sw/lv_draw_sw_blend.c ****             else {
 771:..\..\..\arduinoLCD\test\Pain Drain\libraries\lvgl\src\draw\sw/lv_draw_sw_blend.c ****                 uint8_t * dest_buf8_row = dest_buf8;
 772:..\..\..\arduinoLCD\test\Pain Drain\libraries\lvgl\src\draw\sw/lv_draw_sw_blend.c ****                 for(y = 0; y < h; y++) {
 773:..\..\..\arduinoLCD\test\Pain Drain\libraries\lvgl\src\draw\sw/lv_draw_sw_blend.c ****                     if(blend_fp == NULL) {
 774:..\..\..\arduinoLCD\test\Pain Drain\libraries\lvgl\src\draw\sw/lv_draw_sw_blend.c ****                         for(x = 0; x < w; x++) {
 775:..\..\..\arduinoLCD\test\Pain Drain\libraries\lvgl\src\draw\sw/lv_draw_sw_blend.c ****                             set_px_argb(dest_buf8, src_buf[x], LV_OPA_COVER);
 776:..\..\..\arduinoLCD\test\Pain Drain\libraries\lvgl\src\draw\sw/lv_draw_sw_blend.c ****                             dest_buf8 += LV_IMG_PX_SIZE_ALPHA_BYTE;
 777:..\..\..\arduinoLCD\test\Pain Drain\libraries\lvgl\src\draw\sw/lv_draw_sw_blend.c ****                         }
 778:..\..\..\arduinoLCD\test\Pain Drain\libraries\lvgl\src\draw\sw/lv_draw_sw_blend.c ****                     }
ARM GAS  C:\Users\haske\AppData\Local\Temp\ccydbpJh.s 			page 24


 779:..\..\..\arduinoLCD\test\Pain Drain\libraries\lvgl\src\draw\sw/lv_draw_sw_blend.c ****                     else {
 780:..\..\..\arduinoLCD\test\Pain Drain\libraries\lvgl\src\draw\sw/lv_draw_sw_blend.c ****                         for(x = 0; x < w; x++) {
 781:..\..\..\arduinoLCD\test\Pain Drain\libraries\lvgl\src\draw\sw/lv_draw_sw_blend.c ****                             set_px_argb_blend(dest_buf8, src_buf[x], LV_OPA_COVER, blend_fp);
 782:..\..\..\arduinoLCD\test\Pain Drain\libraries\lvgl\src\draw\sw/lv_draw_sw_blend.c ****                             dest_buf8 += LV_IMG_PX_SIZE_ALPHA_BYTE;
 783:..\..\..\arduinoLCD\test\Pain Drain\libraries\lvgl\src\draw\sw/lv_draw_sw_blend.c ****                         }
 784:..\..\..\arduinoLCD\test\Pain Drain\libraries\lvgl\src\draw\sw/lv_draw_sw_blend.c ****                     }
 785:..\..\..\arduinoLCD\test\Pain Drain\libraries\lvgl\src\draw\sw/lv_draw_sw_blend.c **** 
 786:..\..\..\arduinoLCD\test\Pain Drain\libraries\lvgl\src\draw\sw/lv_draw_sw_blend.c ****                     dest_buf8_row += dest_stride * LV_IMG_PX_SIZE_ALPHA_BYTE;
 787:..\..\..\arduinoLCD\test\Pain Drain\libraries\lvgl\src\draw\sw/lv_draw_sw_blend.c ****                     dest_buf8 = dest_buf8_row;
 788:..\..\..\arduinoLCD\test\Pain Drain\libraries\lvgl\src\draw\sw/lv_draw_sw_blend.c ****                     src_buf += src_stride;
 789:..\..\..\arduinoLCD\test\Pain Drain\libraries\lvgl\src\draw\sw/lv_draw_sw_blend.c ****                 }
 790:..\..\..\arduinoLCD\test\Pain Drain\libraries\lvgl\src\draw\sw/lv_draw_sw_blend.c ****             }
 791:..\..\..\arduinoLCD\test\Pain Drain\libraries\lvgl\src\draw\sw/lv_draw_sw_blend.c ****         }
 792:..\..\..\arduinoLCD\test\Pain Drain\libraries\lvgl\src\draw\sw/lv_draw_sw_blend.c ****         /*No mask but opacity*/
 793:..\..\..\arduinoLCD\test\Pain Drain\libraries\lvgl\src\draw\sw/lv_draw_sw_blend.c ****         else {
 794:..\..\..\arduinoLCD\test\Pain Drain\libraries\lvgl\src\draw\sw/lv_draw_sw_blend.c ****             uint8_t * dest_buf8_row = dest_buf8;
 795:..\..\..\arduinoLCD\test\Pain Drain\libraries\lvgl\src\draw\sw/lv_draw_sw_blend.c ****             for(y = 0; y < h; y++) {
 796:..\..\..\arduinoLCD\test\Pain Drain\libraries\lvgl\src\draw\sw/lv_draw_sw_blend.c ****                 if(blend_fp == NULL) {
 797:..\..\..\arduinoLCD\test\Pain Drain\libraries\lvgl\src\draw\sw/lv_draw_sw_blend.c ****                     for(x = 0; x < w; x++) {
 798:..\..\..\arduinoLCD\test\Pain Drain\libraries\lvgl\src\draw\sw/lv_draw_sw_blend.c ****                         set_px_argb(dest_buf8, src_buf[x], opa);
 799:..\..\..\arduinoLCD\test\Pain Drain\libraries\lvgl\src\draw\sw/lv_draw_sw_blend.c ****                         dest_buf8 += LV_IMG_PX_SIZE_ALPHA_BYTE;
 800:..\..\..\arduinoLCD\test\Pain Drain\libraries\lvgl\src\draw\sw/lv_draw_sw_blend.c ****                     }
 801:..\..\..\arduinoLCD\test\Pain Drain\libraries\lvgl\src\draw\sw/lv_draw_sw_blend.c ****                 }
 802:..\..\..\arduinoLCD\test\Pain Drain\libraries\lvgl\src\draw\sw/lv_draw_sw_blend.c ****                 else {
 803:..\..\..\arduinoLCD\test\Pain Drain\libraries\lvgl\src\draw\sw/lv_draw_sw_blend.c ****                     for(x = 0; x < w; x++) {
 804:..\..\..\arduinoLCD\test\Pain Drain\libraries\lvgl\src\draw\sw/lv_draw_sw_blend.c ****                         set_px_argb_blend(dest_buf8, src_buf[x], opa, blend_fp);
 805:..\..\..\arduinoLCD\test\Pain Drain\libraries\lvgl\src\draw\sw/lv_draw_sw_blend.c ****                         dest_buf8 += LV_IMG_PX_SIZE_ALPHA_BYTE;
 806:..\..\..\arduinoLCD\test\Pain Drain\libraries\lvgl\src\draw\sw/lv_draw_sw_blend.c ****                     }
 807:..\..\..\arduinoLCD\test\Pain Drain\libraries\lvgl\src\draw\sw/lv_draw_sw_blend.c ****                 }
 808:..\..\..\arduinoLCD\test\Pain Drain\libraries\lvgl\src\draw\sw/lv_draw_sw_blend.c **** 
 809:..\..\..\arduinoLCD\test\Pain Drain\libraries\lvgl\src\draw\sw/lv_draw_sw_blend.c ****                 dest_buf8_row += dest_stride * LV_IMG_PX_SIZE_ALPHA_BYTE;
 810:..\..\..\arduinoLCD\test\Pain Drain\libraries\lvgl\src\draw\sw/lv_draw_sw_blend.c ****                 dest_buf8 = dest_buf8_row;
 811:..\..\..\arduinoLCD\test\Pain Drain\libraries\lvgl\src\draw\sw/lv_draw_sw_blend.c ****                 src_buf += src_stride;
 812:..\..\..\arduinoLCD\test\Pain Drain\libraries\lvgl\src\draw\sw/lv_draw_sw_blend.c ****             }
 813:..\..\..\arduinoLCD\test\Pain Drain\libraries\lvgl\src\draw\sw/lv_draw_sw_blend.c ****         }
 814:..\..\..\arduinoLCD\test\Pain Drain\libraries\lvgl\src\draw\sw/lv_draw_sw_blend.c ****     }
 815:..\..\..\arduinoLCD\test\Pain Drain\libraries\lvgl\src\draw\sw/lv_draw_sw_blend.c ****     /*Masked*/
 816:..\..\..\arduinoLCD\test\Pain Drain\libraries\lvgl\src\draw\sw/lv_draw_sw_blend.c ****     else {
 817:..\..\..\arduinoLCD\test\Pain Drain\libraries\lvgl\src\draw\sw/lv_draw_sw_blend.c ****         /*Only the mask matters*/
 818:..\..\..\arduinoLCD\test\Pain Drain\libraries\lvgl\src\draw\sw/lv_draw_sw_blend.c ****         if(opa > LV_OPA_MAX) {
 819:..\..\..\arduinoLCD\test\Pain Drain\libraries\lvgl\src\draw\sw/lv_draw_sw_blend.c ****             uint8_t * dest_buf8_row = dest_buf8;
 820:..\..\..\arduinoLCD\test\Pain Drain\libraries\lvgl\src\draw\sw/lv_draw_sw_blend.c ****             for(y = 0; y < h; y++) {
 821:..\..\..\arduinoLCD\test\Pain Drain\libraries\lvgl\src\draw\sw/lv_draw_sw_blend.c ****                 if(blend_fp == NULL) {
 822:..\..\..\arduinoLCD\test\Pain Drain\libraries\lvgl\src\draw\sw/lv_draw_sw_blend.c ****                     for(x = 0; x < w; x++) {
 823:..\..\..\arduinoLCD\test\Pain Drain\libraries\lvgl\src\draw\sw/lv_draw_sw_blend.c ****                         set_px_argb(dest_buf8, src_buf[x], mask[x]);
 824:..\..\..\arduinoLCD\test\Pain Drain\libraries\lvgl\src\draw\sw/lv_draw_sw_blend.c ****                         dest_buf8 += LV_IMG_PX_SIZE_ALPHA_BYTE;
 825:..\..\..\arduinoLCD\test\Pain Drain\libraries\lvgl\src\draw\sw/lv_draw_sw_blend.c ****                     }
 826:..\..\..\arduinoLCD\test\Pain Drain\libraries\lvgl\src\draw\sw/lv_draw_sw_blend.c ****                 }
 827:..\..\..\arduinoLCD\test\Pain Drain\libraries\lvgl\src\draw\sw/lv_draw_sw_blend.c ****                 else {
 828:..\..\..\arduinoLCD\test\Pain Drain\libraries\lvgl\src\draw\sw/lv_draw_sw_blend.c ****                     for(x = 0; x < w; x++) {
 829:..\..\..\arduinoLCD\test\Pain Drain\libraries\lvgl\src\draw\sw/lv_draw_sw_blend.c ****                         set_px_argb_blend(dest_buf8, src_buf[x], mask[x], blend_fp);
 830:..\..\..\arduinoLCD\test\Pain Drain\libraries\lvgl\src\draw\sw/lv_draw_sw_blend.c ****                         dest_buf8 += LV_IMG_PX_SIZE_ALPHA_BYTE;
 831:..\..\..\arduinoLCD\test\Pain Drain\libraries\lvgl\src\draw\sw/lv_draw_sw_blend.c ****                     }
 832:..\..\..\arduinoLCD\test\Pain Drain\libraries\lvgl\src\draw\sw/lv_draw_sw_blend.c ****                 }
 833:..\..\..\arduinoLCD\test\Pain Drain\libraries\lvgl\src\draw\sw/lv_draw_sw_blend.c ****                 dest_buf8_row += dest_stride * LV_IMG_PX_SIZE_ALPHA_BYTE;
 834:..\..\..\arduinoLCD\test\Pain Drain\libraries\lvgl\src\draw\sw/lv_draw_sw_blend.c ****                 dest_buf8 = dest_buf8_row;
 835:..\..\..\arduinoLCD\test\Pain Drain\libraries\lvgl\src\draw\sw/lv_draw_sw_blend.c ****                 src_buf += src_stride;
ARM GAS  C:\Users\haske\AppData\Local\Temp\ccydbpJh.s 			page 25


 836:..\..\..\arduinoLCD\test\Pain Drain\libraries\lvgl\src\draw\sw/lv_draw_sw_blend.c ****                 mask += mask_stride;
 837:..\..\..\arduinoLCD\test\Pain Drain\libraries\lvgl\src\draw\sw/lv_draw_sw_blend.c ****             }
 838:..\..\..\arduinoLCD\test\Pain Drain\libraries\lvgl\src\draw\sw/lv_draw_sw_blend.c ****         }
 839:..\..\..\arduinoLCD\test\Pain Drain\libraries\lvgl\src\draw\sw/lv_draw_sw_blend.c ****         /*Handle opa and mask values too*/
 840:..\..\..\arduinoLCD\test\Pain Drain\libraries\lvgl\src\draw\sw/lv_draw_sw_blend.c ****         else {
 841:..\..\..\arduinoLCD\test\Pain Drain\libraries\lvgl\src\draw\sw/lv_draw_sw_blend.c ****             uint8_t * dest_buf8_row = dest_buf8;
 842:..\..\..\arduinoLCD\test\Pain Drain\libraries\lvgl\src\draw\sw/lv_draw_sw_blend.c ****             for(y = 0; y < h; y++) {
 843:..\..\..\arduinoLCD\test\Pain Drain\libraries\lvgl\src\draw\sw/lv_draw_sw_blend.c ****                 if(blend_fp == NULL) {
 844:..\..\..\arduinoLCD\test\Pain Drain\libraries\lvgl\src\draw\sw/lv_draw_sw_blend.c ****                     for(x = 0; x < w; x++) {
 845:..\..\..\arduinoLCD\test\Pain Drain\libraries\lvgl\src\draw\sw/lv_draw_sw_blend.c ****                         if(mask[x]) {
 846:..\..\..\arduinoLCD\test\Pain Drain\libraries\lvgl\src\draw\sw/lv_draw_sw_blend.c ****                             lv_opa_t opa_tmp = mask[x] >= LV_OPA_MAX ? opa : ((opa * mask[x]) >> 8)
 847:..\..\..\arduinoLCD\test\Pain Drain\libraries\lvgl\src\draw\sw/lv_draw_sw_blend.c ****                             set_px_argb(dest_buf8, src_buf[x], opa_tmp);
 848:..\..\..\arduinoLCD\test\Pain Drain\libraries\lvgl\src\draw\sw/lv_draw_sw_blend.c ****                         }
 849:..\..\..\arduinoLCD\test\Pain Drain\libraries\lvgl\src\draw\sw/lv_draw_sw_blend.c ****                         dest_buf8 += LV_IMG_PX_SIZE_ALPHA_BYTE;
 850:..\..\..\arduinoLCD\test\Pain Drain\libraries\lvgl\src\draw\sw/lv_draw_sw_blend.c ****                     }
 851:..\..\..\arduinoLCD\test\Pain Drain\libraries\lvgl\src\draw\sw/lv_draw_sw_blend.c ****                 }
 852:..\..\..\arduinoLCD\test\Pain Drain\libraries\lvgl\src\draw\sw/lv_draw_sw_blend.c ****                 else {
 853:..\..\..\arduinoLCD\test\Pain Drain\libraries\lvgl\src\draw\sw/lv_draw_sw_blend.c ****                     for(x = 0; x < w; x++) {
 854:..\..\..\arduinoLCD\test\Pain Drain\libraries\lvgl\src\draw\sw/lv_draw_sw_blend.c ****                         if(mask[x]) {
 855:..\..\..\arduinoLCD\test\Pain Drain\libraries\lvgl\src\draw\sw/lv_draw_sw_blend.c ****                             lv_opa_t opa_tmp = mask[x] >= LV_OPA_MAX ? opa : ((opa * mask[x]) >> 8)
 856:..\..\..\arduinoLCD\test\Pain Drain\libraries\lvgl\src\draw\sw/lv_draw_sw_blend.c ****                             set_px_argb_blend(dest_buf8, src_buf[x], opa_tmp, blend_fp);
 857:..\..\..\arduinoLCD\test\Pain Drain\libraries\lvgl\src\draw\sw/lv_draw_sw_blend.c ****                         }
 858:..\..\..\arduinoLCD\test\Pain Drain\libraries\lvgl\src\draw\sw/lv_draw_sw_blend.c ****                         dest_buf8 += LV_IMG_PX_SIZE_ALPHA_BYTE;
 859:..\..\..\arduinoLCD\test\Pain Drain\libraries\lvgl\src\draw\sw/lv_draw_sw_blend.c ****                     }
 860:..\..\..\arduinoLCD\test\Pain Drain\libraries\lvgl\src\draw\sw/lv_draw_sw_blend.c ****                 }
 861:..\..\..\arduinoLCD\test\Pain Drain\libraries\lvgl\src\draw\sw/lv_draw_sw_blend.c ****                 dest_buf8_row += dest_stride * LV_IMG_PX_SIZE_ALPHA_BYTE;
 862:..\..\..\arduinoLCD\test\Pain Drain\libraries\lvgl\src\draw\sw/lv_draw_sw_blend.c ****                 dest_buf8 = dest_buf8_row;
 863:..\..\..\arduinoLCD\test\Pain Drain\libraries\lvgl\src\draw\sw/lv_draw_sw_blend.c ****                 src_buf += src_stride;
 864:..\..\..\arduinoLCD\test\Pain Drain\libraries\lvgl\src\draw\sw/lv_draw_sw_blend.c ****                 mask += mask_stride;
 865:..\..\..\arduinoLCD\test\Pain Drain\libraries\lvgl\src\draw\sw/lv_draw_sw_blend.c ****             }
 866:..\..\..\arduinoLCD\test\Pain Drain\libraries\lvgl\src\draw\sw/lv_draw_sw_blend.c ****         }
 867:..\..\..\arduinoLCD\test\Pain Drain\libraries\lvgl\src\draw\sw/lv_draw_sw_blend.c ****     }
 868:..\..\..\arduinoLCD\test\Pain Drain\libraries\lvgl\src\draw\sw/lv_draw_sw_blend.c **** }
 869:..\..\..\arduinoLCD\test\Pain Drain\libraries\lvgl\src\draw\sw/lv_draw_sw_blend.c **** #endif
 870:..\..\..\arduinoLCD\test\Pain Drain\libraries\lvgl\src\draw\sw/lv_draw_sw_blend.c **** 
 871:..\..\..\arduinoLCD\test\Pain Drain\libraries\lvgl\src\draw\sw/lv_draw_sw_blend.c **** 
 872:..\..\..\arduinoLCD\test\Pain Drain\libraries\lvgl\src\draw\sw/lv_draw_sw_blend.c **** #if LV_DRAW_COMPLEX
 873:..\..\..\arduinoLCD\test\Pain Drain\libraries\lvgl\src\draw\sw/lv_draw_sw_blend.c **** static void map_blended(lv_color_t * dest_buf, const lv_area_t * dest_area, lv_coord_t dest_stride,
 874:..\..\..\arduinoLCD\test\Pain Drain\libraries\lvgl\src\draw\sw/lv_draw_sw_blend.c ****                         const lv_color_t * src_buf, lv_coord_t src_stride, lv_opa_t opa,
 875:..\..\..\arduinoLCD\test\Pain Drain\libraries\lvgl\src\draw\sw/lv_draw_sw_blend.c ****                         const lv_opa_t * mask, lv_coord_t mask_stride, lv_blend_mode_t blend_mode)
 876:..\..\..\arduinoLCD\test\Pain Drain\libraries\lvgl\src\draw\sw/lv_draw_sw_blend.c **** {
 389              		.loc 1 876 0
 390              		.cfi_startproc
 391              		@ args = 20, pretend = 0, frame = 40
 392              		@ frame_needed = 0, uses_anonymous_args = 0
 393              	.LVL56:
 394 0000 F0B5     		push	{r4, r5, r6, r7, lr}
 395              		.cfi_def_cfa_offset 20
 396              		.cfi_offset 4, -20
 397              		.cfi_offset 5, -16
 398              		.cfi_offset 6, -12
 399              		.cfi_offset 7, -8
 400              		.cfi_offset 14, -4
 401 0002 5F46     		mov	r7, fp
 402 0004 5646     		mov	r6, r10
 403 0006 4D46     		mov	r5, r9
 404 0008 4446     		mov	r4, r8
ARM GAS  C:\Users\haske\AppData\Local\Temp\ccydbpJh.s 			page 26


 405 000a F0B4     		push	{r4, r5, r6, r7}
 406              		.cfi_def_cfa_offset 36
 407              		.cfi_offset 8, -36
 408              		.cfi_offset 9, -32
 409              		.cfi_offset 10, -28
 410              		.cfi_offset 11, -24
 411 000c 8BB0     		sub	sp, sp, #44
 412              		.cfi_def_cfa_offset 80
 413 000e 0700     		movs	r7, r0
 414 0010 0792     		str	r2, [sp, #28]
 415 0012 9A46     		mov	r10, r3
 416 0014 14AB     		add	r3, sp, #80
 417              	.LVL57:
 418 0016 0022     		movs	r2, #0
 419 0018 9B5E     		ldrsh	r3, [r3, r2]
 420              	.LVL58:
 421 001a 0893     		str	r3, [sp, #32]
 422 001c 15AB     		add	r3, sp, #84
 423              	.LVL59:
 424 001e 1B78     		ldrb	r3, [r3]
 425              	.LVL60:
 426 0020 0393     		str	r3, [sp, #12]
 427 0022 169B     		ldr	r3, [sp, #88]
 428 0024 9946     		mov	r9, r3
 429 0026 17AB     		add	r3, sp, #92
 430              	.LVL61:
 431 0028 0022     		movs	r2, #0
 432 002a 9B5E     		ldrsh	r3, [r3, r2]
 433              	.LVL62:
 434 002c 0993     		str	r3, [sp, #36]
 435 002e 18AB     		add	r3, sp, #96
 436              	.LVL63:
 437 0030 1A78     		ldrb	r2, [r3]
 438              	.LVL64:
 439              	.LBB104:
 440              	.LBB105:
 125:c:\projects\paindrain\arduinolcd\test\pain drain\libraries\lvgl\src\misc\lv_area.h **** }
 441              		.loc 2 125 0
 442 0032 0420     		movs	r0, #4
 443 0034 0B5E     		ldrsh	r3, [r1, r0]
 444              	.LVL65:
 445 0036 0024     		movs	r4, #0
 446 0038 085F     		ldrsh	r0, [r1, r4]
 447 003a 1B1A     		subs	r3, r3, r0
 448 003c 0133     		adds	r3, r3, #1
 449              	.LVL66:
 450              	.LBE105:
 451              	.LBE104:
 877:..\..\..\arduinoLCD\test\Pain Drain\libraries\lvgl\src\draw\sw/lv_draw_sw_blend.c **** 
 878:..\..\..\arduinoLCD\test\Pain Drain\libraries\lvgl\src\draw\sw/lv_draw_sw_blend.c ****     int32_t w = lv_area_get_width(dest_area);
 452              		.loc 1 878 0
 453 003e 1BB2     		sxth	r3, r3
 454 0040 9846     		mov	r8, r3
 455              	.LVL67:
 456              	.LBB106:
 457              	.LBB107:
 458              		.loc 2 135 0
ARM GAS  C:\Users\haske\AppData\Local\Temp\ccydbpJh.s 			page 27


 459 0042 0620     		movs	r0, #6
 460 0044 0B5E     		ldrsh	r3, [r1, r0]
 461              	.LVL68:
 462 0046 0220     		movs	r0, #2
 463 0048 095E     		ldrsh	r1, [r1, r0]
 464              	.LVL69:
 465 004a 5B1A     		subs	r3, r3, r1
 466 004c 0133     		adds	r3, r3, #1
 467              	.LVL70:
 468              	.LBE107:
 469              	.LBE106:
 879:..\..\..\arduinoLCD\test\Pain Drain\libraries\lvgl\src\draw\sw/lv_draw_sw_blend.c ****     int32_t h = lv_area_get_height(dest_area);
 470              		.loc 1 879 0
 471 004e 1BB2     		sxth	r3, r3
 472 0050 0693     		str	r3, [sp, #24]
 473              	.LVL71:
 880:..\..\..\arduinoLCD\test\Pain Drain\libraries\lvgl\src\draw\sw/lv_draw_sw_blend.c **** 
 881:..\..\..\arduinoLCD\test\Pain Drain\libraries\lvgl\src\draw\sw/lv_draw_sw_blend.c ****     int32_t x;
 882:..\..\..\arduinoLCD\test\Pain Drain\libraries\lvgl\src\draw\sw/lv_draw_sw_blend.c ****     int32_t y;
 883:..\..\..\arduinoLCD\test\Pain Drain\libraries\lvgl\src\draw\sw/lv_draw_sw_blend.c **** 
 884:..\..\..\arduinoLCD\test\Pain Drain\libraries\lvgl\src\draw\sw/lv_draw_sw_blend.c ****     lv_color_t (*blend_fp)(lv_color_t, lv_color_t, lv_opa_t);
 885:..\..\..\arduinoLCD\test\Pain Drain\libraries\lvgl\src\draw\sw/lv_draw_sw_blend.c ****     switch(blend_mode) {
 474              		.loc 1 885 0
 475 0052 022A     		cmp	r2, #2
 476 0054 0AD0     		beq	.L47
 477 0056 032A     		cmp	r2, #3
 478 0058 05D0     		beq	.L29
 479 005a 012A     		cmp	r2, #1
 480 005c 00D0     		beq	.LCB550
 481 005e A2E0     		b	.L26	@long jump
 482              	.LCB550:
 886:..\..\..\arduinoLCD\test\Pain Drain\libraries\lvgl\src\draw\sw/lv_draw_sw_blend.c ****         case LV_BLEND_MODE_ADDITIVE:
 887:..\..\..\arduinoLCD\test\Pain Drain\libraries\lvgl\src\draw\sw/lv_draw_sw_blend.c ****             blend_fp = color_blend_true_color_additive;
 483              		.loc 1 887 0
 484 0060 544B     		ldr	r3, .L52
 485              	.LVL72:
 486 0062 9B46     		mov	fp, r3
 487 0064 04E0     		b	.L28
 488              	.LVL73:
 489              	.L29:
 888:..\..\..\arduinoLCD\test\Pain Drain\libraries\lvgl\src\draw\sw/lv_draw_sw_blend.c ****             break;
 889:..\..\..\arduinoLCD\test\Pain Drain\libraries\lvgl\src\draw\sw/lv_draw_sw_blend.c ****         case LV_BLEND_MODE_SUBTRACTIVE:
 890:..\..\..\arduinoLCD\test\Pain Drain\libraries\lvgl\src\draw\sw/lv_draw_sw_blend.c ****             blend_fp = color_blend_true_color_subtractive;
 891:..\..\..\arduinoLCD\test\Pain Drain\libraries\lvgl\src\draw\sw/lv_draw_sw_blend.c ****             break;
 892:..\..\..\arduinoLCD\test\Pain Drain\libraries\lvgl\src\draw\sw/lv_draw_sw_blend.c ****         case LV_BLEND_MODE_MULTIPLY:
 893:..\..\..\arduinoLCD\test\Pain Drain\libraries\lvgl\src\draw\sw/lv_draw_sw_blend.c ****             blend_fp = color_blend_true_color_multiply;
 490              		.loc 1 893 0
 491 0066 544B     		ldr	r3, .L52+4
 492              	.LVL74:
 493 0068 9B46     		mov	fp, r3
 894:..\..\..\arduinoLCD\test\Pain Drain\libraries\lvgl\src\draw\sw/lv_draw_sw_blend.c ****             break;
 494              		.loc 1 894 0
 495 006a 01E0     		b	.L28
 496              	.LVL75:
 497              	.L47:
 890:..\..\..\arduinoLCD\test\Pain Drain\libraries\lvgl\src\draw\sw/lv_draw_sw_blend.c ****             break;
 498              		.loc 1 890 0
ARM GAS  C:\Users\haske\AppData\Local\Temp\ccydbpJh.s 			page 28


 499 006c 534B     		ldr	r3, .L52+8
 500              	.LVL76:
 501 006e 9B46     		mov	fp, r3
 502              	.L28:
 503              	.LVL77:
 895:..\..\..\arduinoLCD\test\Pain Drain\libraries\lvgl\src\draw\sw/lv_draw_sw_blend.c ****         default:
 896:..\..\..\arduinoLCD\test\Pain Drain\libraries\lvgl\src\draw\sw/lv_draw_sw_blend.c ****             LV_LOG_WARN("fill_blended: unsupported blend mode");
 897:..\..\..\arduinoLCD\test\Pain Drain\libraries\lvgl\src\draw\sw/lv_draw_sw_blend.c ****             return;
 898:..\..\..\arduinoLCD\test\Pain Drain\libraries\lvgl\src\draw\sw/lv_draw_sw_blend.c ****     }
 899:..\..\..\arduinoLCD\test\Pain Drain\libraries\lvgl\src\draw\sw/lv_draw_sw_blend.c **** 
 900:..\..\..\arduinoLCD\test\Pain Drain\libraries\lvgl\src\draw\sw/lv_draw_sw_blend.c ****     lv_color_t last_dest_color;
 901:..\..\..\arduinoLCD\test\Pain Drain\libraries\lvgl\src\draw\sw/lv_draw_sw_blend.c ****     lv_color_t last_src_color;
 902:..\..\..\arduinoLCD\test\Pain Drain\libraries\lvgl\src\draw\sw/lv_draw_sw_blend.c ****     /*Simple fill (maybe with opacity), no masking*/
 903:..\..\..\arduinoLCD\test\Pain Drain\libraries\lvgl\src\draw\sw/lv_draw_sw_blend.c ****     if(mask == NULL) {
 504              		.loc 1 903 0
 505 0070 4B46     		mov	r3, r9
 506 0072 002B     		cmp	r3, #0
 507 0074 39D1     		bne	.L31
 508              	.LBB108:
 904:..\..\..\arduinoLCD\test\Pain Drain\libraries\lvgl\src\draw\sw/lv_draw_sw_blend.c ****         last_dest_color = dest_buf[0];
 509              		.loc 1 904 0
 510 0076 3988     		ldrh	r1, [r7]
 511 0078 6B46     		mov	r3, sp
 512 007a 5981     		strh	r1, [r3, #10]
 905:..\..\..\arduinoLCD\test\Pain Drain\libraries\lvgl\src\draw\sw/lv_draw_sw_blend.c ****         last_src_color = src_buf[0];
 513              		.loc 1 905 0
 514 007c 5346     		mov	r3, r10
 515 007e 1888     		ldrh	r0, [r3]
 516 0080 6B46     		mov	r3, sp
 517 0082 1881     		strh	r0, [r3, #8]
 906:..\..\..\arduinoLCD\test\Pain Drain\libraries\lvgl\src\draw\sw/lv_draw_sw_blend.c ****         lv_color_t last_res_color = blend_fp(last_src_color, last_dest_color, opa);
 518              		.loc 1 906 0
 519 0084 039A     		ldr	r2, [sp, #12]
 520 0086 D847     		blx	fp
 521              	.LVL78:
 907:..\..\..\arduinoLCD\test\Pain Drain\libraries\lvgl\src\draw\sw/lv_draw_sw_blend.c ****         for(y = 0; y < h; y++) {
 522              		.loc 1 907 0
 523 0088 0026     		movs	r6, #0
 524 008a B146     		mov	r9, r6
 525 008c 5E46     		mov	r6, fp
 526 008e 28E0     		b	.L32
 527              	.LVL79:
 528              	.L35:
 908:..\..\..\arduinoLCD\test\Pain Drain\libraries\lvgl\src\draw\sw/lv_draw_sw_blend.c ****             for(x = 0; x < w; x++) {
 909:..\..\..\arduinoLCD\test\Pain Drain\libraries\lvgl\src\draw\sw/lv_draw_sw_blend.c ****                 if(last_src_color.full != src_buf[x].full || last_dest_color.full != dest_buf[x].fu
 529              		.loc 1 909 0
 530 0090 6B46     		mov	r3, sp
 531 0092 1B89     		ldrh	r3, [r3, #8]
 532 0094 6C00     		lsls	r4, r5, #1
 533 0096 5246     		mov	r2, r10
 534 0098 1219     		adds	r2, r2, r4
 535 009a 1188     		ldrh	r1, [r2]
 536 009c 8B42     		cmp	r3, r1
 537 009e 04D1     		bne	.L33
 538              		.loc 1 909 0 is_stmt 0 discriminator 1
 539 00a0 6B46     		mov	r3, sp
 540 00a2 5B89     		ldrh	r3, [r3, #10]
ARM GAS  C:\Users\haske\AppData\Local\Temp\ccydbpJh.s 			page 29


 541 00a4 395B     		ldrh	r1, [r7, r4]
 542 00a6 8B42     		cmp	r3, r1
 543 00a8 06D0     		beq	.L34
 544              	.L33:
 910:..\..\..\arduinoLCD\test\Pain Drain\libraries\lvgl\src\draw\sw/lv_draw_sw_blend.c ****                     last_dest_color = dest_buf[x];
 545              		.loc 1 910 0 is_stmt 1
 546 00aa 395B     		ldrh	r1, [r7, r4]
 547 00ac 6B46     		mov	r3, sp
 548 00ae 5981     		strh	r1, [r3, #10]
 911:..\..\..\arduinoLCD\test\Pain Drain\libraries\lvgl\src\draw\sw/lv_draw_sw_blend.c ****                     last_src_color = src_buf[x];
 549              		.loc 1 911 0
 550 00b0 1088     		ldrh	r0, [r2]
 551              	.LVL80:
 552 00b2 1881     		strh	r0, [r3, #8]
 912:..\..\..\arduinoLCD\test\Pain Drain\libraries\lvgl\src\draw\sw/lv_draw_sw_blend.c ****                     last_res_color = blend_fp(last_src_color, last_dest_color, opa);
 553              		.loc 1 912 0
 554 00b4 039A     		ldr	r2, [sp, #12]
 555 00b6 C047     		blx	r8
 556              	.LVL81:
 557              	.L34:
 913:..\..\..\arduinoLCD\test\Pain Drain\libraries\lvgl\src\draw\sw/lv_draw_sw_blend.c ****                 }
 914:..\..\..\arduinoLCD\test\Pain Drain\libraries\lvgl\src\draw\sw/lv_draw_sw_blend.c ****                 dest_buf[x] = last_res_color;
 558              		.loc 1 914 0 discriminator 2
 559 00b8 3853     		strh	r0, [r7, r4]
 908:..\..\..\arduinoLCD\test\Pain Drain\libraries\lvgl\src\draw\sw/lv_draw_sw_blend.c ****                 if(last_src_color.full != src_buf[x].full || last_dest_color.full != dest_buf[x].fu
 560              		.loc 1 908 0 discriminator 2
 561 00ba 0135     		adds	r5, r5, #1
 562              	.LVL82:
 563 00bc 03E0     		b	.L36
 564              	.LVL83:
 565              	.L48:
 566 00be 0025     		movs	r5, #0
 567 00c0 4346     		mov	r3, r8
 568 00c2 B046     		mov	r8, r6
 569              	.LVL84:
 570 00c4 1E00     		movs	r6, r3
 571              	.LVL85:
 572              	.L36:
 908:..\..\..\arduinoLCD\test\Pain Drain\libraries\lvgl\src\draw\sw/lv_draw_sw_blend.c ****                 if(last_src_color.full != src_buf[x].full || last_dest_color.full != dest_buf[x].fu
 573              		.loc 1 908 0 is_stmt 0 discriminator 1
 574 00c6 B542     		cmp	r5, r6
 575 00c8 E2DB     		blt	.L35
 576 00ca 3300     		movs	r3, r6
 577 00cc 4646     		mov	r6, r8
 578              	.LVL86:
 579 00ce 9846     		mov	r8, r3
 580              	.LVL87:
 915:..\..\..\arduinoLCD\test\Pain Drain\libraries\lvgl\src\draw\sw/lv_draw_sw_blend.c ****             }
 916:..\..\..\arduinoLCD\test\Pain Drain\libraries\lvgl\src\draw\sw/lv_draw_sw_blend.c ****             dest_buf += dest_stride;
 581              		.loc 1 916 0 is_stmt 1 discriminator 2
 582 00d0 079B     		ldr	r3, [sp, #28]
 583              	.LVL88:
 584 00d2 5B00     		lsls	r3, r3, #1
 585 00d4 FF18     		adds	r7, r7, r3
 586              	.LVL89:
 917:..\..\..\arduinoLCD\test\Pain Drain\libraries\lvgl\src\draw\sw/lv_draw_sw_blend.c ****             src_buf += src_stride;
 587              		.loc 1 917 0 discriminator 2
ARM GAS  C:\Users\haske\AppData\Local\Temp\ccydbpJh.s 			page 30


 588 00d6 089B     		ldr	r3, [sp, #32]
 589 00d8 5B00     		lsls	r3, r3, #1
 590 00da 9A44     		add	r10, r10, r3
 591              	.LVL90:
 907:..\..\..\arduinoLCD\test\Pain Drain\libraries\lvgl\src\draw\sw/lv_draw_sw_blend.c ****             for(x = 0; x < w; x++) {
 592              		.loc 1 907 0 discriminator 2
 593 00dc 0123     		movs	r3, #1
 594 00de 9C46     		mov	ip, r3
 595 00e0 E144     		add	r9, r9, ip
 596              	.LVL91:
 597              	.L32:
 907:..\..\..\arduinoLCD\test\Pain Drain\libraries\lvgl\src\draw\sw/lv_draw_sw_blend.c ****             for(x = 0; x < w; x++) {
 598              		.loc 1 907 0 is_stmt 0 discriminator 1
 599 00e2 069B     		ldr	r3, [sp, #24]
 600 00e4 9945     		cmp	r9, r3
 601 00e6 EADB     		blt	.L48
 602 00e8 5DE0     		b	.L26
 603              	.LVL92:
 604              	.L31:
 605              	.LBE108:
 606              	.LBB109:
 918:..\..\..\arduinoLCD\test\Pain Drain\libraries\lvgl\src\draw\sw/lv_draw_sw_blend.c ****         }
 919:..\..\..\arduinoLCD\test\Pain Drain\libraries\lvgl\src\draw\sw/lv_draw_sw_blend.c ****     }
 920:..\..\..\arduinoLCD\test\Pain Drain\libraries\lvgl\src\draw\sw/lv_draw_sw_blend.c ****     /*Masked*/
 921:..\..\..\arduinoLCD\test\Pain Drain\libraries\lvgl\src\draw\sw/lv_draw_sw_blend.c ****     else {
 922:..\..\..\arduinoLCD\test\Pain Drain\libraries\lvgl\src\draw\sw/lv_draw_sw_blend.c ****         last_dest_color = dest_buf[0];
 607              		.loc 1 922 0 is_stmt 1
 608 00ea 3988     		ldrh	r1, [r7]
 609 00ec 6B46     		mov	r3, sp
 610 00ee 5981     		strh	r1, [r3, #10]
 923:..\..\..\arduinoLCD\test\Pain Drain\libraries\lvgl\src\draw\sw/lv_draw_sw_blend.c ****         last_src_color = src_buf[0];
 611              		.loc 1 923 0
 612 00f0 5346     		mov	r3, r10
 613 00f2 1888     		ldrh	r0, [r3]
 614 00f4 6B46     		mov	r3, sp
 615 00f6 1881     		strh	r0, [r3, #8]
 924:..\..\..\arduinoLCD\test\Pain Drain\libraries\lvgl\src\draw\sw/lv_draw_sw_blend.c ****         lv_opa_t last_opa = mask[0] >= LV_OPA_MAX ? opa : ((opa * mask[0]) >> 8);
 616              		.loc 1 924 0
 617 00f8 4B46     		mov	r3, r9
 618 00fa 1B78     		ldrb	r3, [r3]
 619 00fc FC2B     		cmp	r3, #252
 620 00fe 05D8     		bhi	.L49
 621              		.loc 1 924 0 is_stmt 0 discriminator 1
 622 0100 039A     		ldr	r2, [sp, #12]
 623 0102 5343     		muls	r3, r2
 624 0104 1B12     		asrs	r3, r3, #8
 625 0106 DBB2     		uxtb	r3, r3
 626 0108 0493     		str	r3, [sp, #16]
 627 010a 01E0     		b	.L38
 628              	.L49:
 629              		.loc 1 924 0
 630 010c 039B     		ldr	r3, [sp, #12]
 631 010e 0493     		str	r3, [sp, #16]
 632              	.L38:
 633              	.LVL93:
 925:..\..\..\arduinoLCD\test\Pain Drain\libraries\lvgl\src\draw\sw/lv_draw_sw_blend.c ****         lv_color_t last_res_color = blend_fp(last_src_color, last_dest_color, last_opa);
 634              		.loc 1 925 0 is_stmt 1 discriminator 4
ARM GAS  C:\Users\haske\AppData\Local\Temp\ccydbpJh.s 			page 31


 635 0110 049A     		ldr	r2, [sp, #16]
 636 0112 D847     		blx	fp
 637              	.LVL94:
 926:..\..\..\arduinoLCD\test\Pain Drain\libraries\lvgl\src\draw\sw/lv_draw_sw_blend.c ****         for(y = 0; y < h; y++) {
 638              		.loc 1 926 0 discriminator 4
 639 0114 0023     		movs	r3, #0
 640 0116 0593     		str	r3, [sp, #20]
 641 0118 41E0     		b	.L39
 642              	.LVL95:
 643              	.L44:
 644              	.LBB110:
 927:..\..\..\arduinoLCD\test\Pain Drain\libraries\lvgl\src\draw\sw/lv_draw_sw_blend.c ****             for(x = 0; x < w; x++) {
 928:..\..\..\arduinoLCD\test\Pain Drain\libraries\lvgl\src\draw\sw/lv_draw_sw_blend.c ****                 if(mask[x] == 0) continue;
 645              		.loc 1 928 0
 646 011a 2A00     		movs	r2, r5
 647 011c 635D     		ldrb	r3, [r4, r5]
 648 011e 002B     		cmp	r3, #0
 649 0120 28D0     		beq	.L40
 650              	.LVL96:
 929:..\..\..\arduinoLCD\test\Pain Drain\libraries\lvgl\src\draw\sw/lv_draw_sw_blend.c ****                 lv_opa_t opa_tmp = mask[x] >= LV_OPA_MAX ? opa : ((opa * mask[x]) >> 8);
 651              		.loc 1 929 0
 652 0122 FC2B     		cmp	r3, #252
 653 0124 05D8     		bhi	.L50
 654              		.loc 1 929 0 is_stmt 0 discriminator 1
 655 0126 0399     		ldr	r1, [sp, #12]
 656 0128 4B43     		muls	r3, r1
 657 012a 1B12     		asrs	r3, r3, #8
 658 012c DBB2     		uxtb	r3, r3
 659 012e 0193     		str	r3, [sp, #4]
 660 0130 01E0     		b	.L41
 661              	.L50:
 662              		.loc 1 929 0
 663 0132 039B     		ldr	r3, [sp, #12]
 664 0134 0193     		str	r3, [sp, #4]
 665              	.L41:
 666              	.LVL97:
 930:..\..\..\arduinoLCD\test\Pain Drain\libraries\lvgl\src\draw\sw/lv_draw_sw_blend.c ****                 if(last_src_color.full != src_buf[x].full || last_dest_color.full != dest_buf[x].fu
 667              		.loc 1 930 0 is_stmt 1 discriminator 4
 668 0136 6B46     		mov	r3, sp
 669 0138 1B89     		ldrh	r3, [r3, #8]
 670 013a 5200     		lsls	r2, r2, #1
 671              	.LVL98:
 672 013c 9046     		mov	r8, r2
 673 013e 5246     		mov	r2, r10
 674 0140 4244     		add	r2, r2, r8
 675 0142 1188     		ldrh	r1, [r2]
 676 0144 8B42     		cmp	r3, r1
 677 0146 09D1     		bne	.L42
 678              		.loc 1 930 0 is_stmt 0 discriminator 1
 679 0148 6B46     		mov	r3, sp
 680 014a 5B89     		ldrh	r3, [r3, #10]
 681 014c 4146     		mov	r1, r8
 682 014e 795A     		ldrh	r1, [r7, r1]
 683 0150 8B42     		cmp	r3, r1
 684 0152 03D1     		bne	.L42
 685              		.loc 1 930 0 discriminator 2
 686 0154 049B     		ldr	r3, [sp, #16]
ARM GAS  C:\Users\haske\AppData\Local\Temp\ccydbpJh.s 			page 32


 687 0156 0199     		ldr	r1, [sp, #4]
 688 0158 8B42     		cmp	r3, r1
 689 015a 09D0     		beq	.L43
 690              	.L42:
 931:..\..\..\arduinoLCD\test\Pain Drain\libraries\lvgl\src\draw\sw/lv_draw_sw_blend.c ****                     last_dest_color = dest_buf[x];
 691              		.loc 1 931 0 is_stmt 1
 692 015c 4346     		mov	r3, r8
 693 015e F95A     		ldrh	r1, [r7, r3]
 694 0160 6B46     		mov	r3, sp
 695 0162 5981     		strh	r1, [r3, #10]
 932:..\..\..\arduinoLCD\test\Pain Drain\libraries\lvgl\src\draw\sw/lv_draw_sw_blend.c ****                     last_src_color = src_buf[x];
 696              		.loc 1 932 0
 697 0164 1088     		ldrh	r0, [r2]
 698              	.LVL99:
 699 0166 1881     		strh	r0, [r3, #8]
 700              	.LVL100:
 933:..\..\..\arduinoLCD\test\Pain Drain\libraries\lvgl\src\draw\sw/lv_draw_sw_blend.c ****                     last_opa = opa_tmp;
 934:..\..\..\arduinoLCD\test\Pain Drain\libraries\lvgl\src\draw\sw/lv_draw_sw_blend.c ****                     last_res_color = blend_fp(last_src_color, last_dest_color, last_opa);
 701              		.loc 1 934 0
 702 0168 019A     		ldr	r2, [sp, #4]
 703 016a D847     		blx	fp
 704              	.LVL101:
 933:..\..\..\arduinoLCD\test\Pain Drain\libraries\lvgl\src\draw\sw/lv_draw_sw_blend.c ****                     last_opa = opa_tmp;
 705              		.loc 1 933 0
 706 016c 019B     		ldr	r3, [sp, #4]
 707 016e 0493     		str	r3, [sp, #16]
 708              	.LVL102:
 709              	.L43:
 935:..\..\..\arduinoLCD\test\Pain Drain\libraries\lvgl\src\draw\sw/lv_draw_sw_blend.c ****                 }
 936:..\..\..\arduinoLCD\test\Pain Drain\libraries\lvgl\src\draw\sw/lv_draw_sw_blend.c ****                 dest_buf[x] = last_res_color;
 710              		.loc 1 936 0
 711 0170 4346     		mov	r3, r8
 712 0172 F852     		strh	r0, [r7, r3]
 713              	.LVL103:
 714              	.L40:
 715              	.LBE110:
 927:..\..\..\arduinoLCD\test\Pain Drain\libraries\lvgl\src\draw\sw/lv_draw_sw_blend.c ****                 if(mask[x] == 0) continue;
 716              		.loc 1 927 0 discriminator 2
 717 0174 0135     		adds	r5, r5, #1
 718              	.LVL104:
 719 0176 02E0     		b	.L45
 720              	.LVL105:
 721              	.L51:
 722 0178 0025     		movs	r5, #0
 723 017a 4646     		mov	r6, r8
 724 017c 4C46     		mov	r4, r9
 725              	.LVL106:
 726              	.L45:
 927:..\..\..\arduinoLCD\test\Pain Drain\libraries\lvgl\src\draw\sw/lv_draw_sw_blend.c ****                 if(mask[x] == 0) continue;
 727              		.loc 1 927 0 is_stmt 0 discriminator 1
 728 017e B542     		cmp	r5, r6
 729 0180 CBDB     		blt	.L44
 730 0182 B046     		mov	r8, r6
 731 0184 A146     		mov	r9, r4
 937:..\..\..\arduinoLCD\test\Pain Drain\libraries\lvgl\src\draw\sw/lv_draw_sw_blend.c ****             }
 938:..\..\..\arduinoLCD\test\Pain Drain\libraries\lvgl\src\draw\sw/lv_draw_sw_blend.c ****             dest_buf += dest_stride;
 732              		.loc 1 938 0 is_stmt 1 discriminator 2
ARM GAS  C:\Users\haske\AppData\Local\Temp\ccydbpJh.s 			page 33


 733 0186 079B     		ldr	r3, [sp, #28]
 734 0188 5A00     		lsls	r2, r3, #1
 735 018a BF18     		adds	r7, r7, r2
 736              	.LVL107:
 939:..\..\..\arduinoLCD\test\Pain Drain\libraries\lvgl\src\draw\sw/lv_draw_sw_blend.c ****             src_buf += src_stride;
 737              		.loc 1 939 0 discriminator 2
 738 018c 089B     		ldr	r3, [sp, #32]
 739 018e 5A00     		lsls	r2, r3, #1
 740 0190 9244     		add	r10, r10, r2
 741              	.LVL108:
 940:..\..\..\arduinoLCD\test\Pain Drain\libraries\lvgl\src\draw\sw/lv_draw_sw_blend.c ****             mask += mask_stride;
 742              		.loc 1 940 0 discriminator 2
 743 0192 099B     		ldr	r3, [sp, #36]
 744 0194 9C46     		mov	ip, r3
 745 0196 E144     		add	r9, r9, ip
 746              	.LVL109:
 926:..\..\..\arduinoLCD\test\Pain Drain\libraries\lvgl\src\draw\sw/lv_draw_sw_blend.c ****             for(x = 0; x < w; x++) {
 747              		.loc 1 926 0 discriminator 2
 748 0198 059B     		ldr	r3, [sp, #20]
 749 019a 0133     		adds	r3, r3, #1
 750 019c 0593     		str	r3, [sp, #20]
 751              	.LVL110:
 752              	.L39:
 926:..\..\..\arduinoLCD\test\Pain Drain\libraries\lvgl\src\draw\sw/lv_draw_sw_blend.c ****             for(x = 0; x < w; x++) {
 753              		.loc 1 926 0 is_stmt 0 discriminator 1
 754 019e 059B     		ldr	r3, [sp, #20]
 755 01a0 069A     		ldr	r2, [sp, #24]
 756 01a2 9342     		cmp	r3, r2
 757 01a4 E8DB     		blt	.L51
 758              	.LVL111:
 759              	.L26:
 760              	.LBE109:
 941:..\..\..\arduinoLCD\test\Pain Drain\libraries\lvgl\src\draw\sw/lv_draw_sw_blend.c ****         }
 942:..\..\..\arduinoLCD\test\Pain Drain\libraries\lvgl\src\draw\sw/lv_draw_sw_blend.c ****     }
 943:..\..\..\arduinoLCD\test\Pain Drain\libraries\lvgl\src\draw\sw/lv_draw_sw_blend.c **** }
 761              		.loc 1 943 0 is_stmt 1
 762 01a6 0BB0     		add	sp, sp, #44
 763              		@ sp needed
 764              	.LVL112:
 765              	.LVL113:
 766              	.LVL114:
 767 01a8 3CBC     		pop	{r2, r3, r4, r5}
 768 01aa 9046     		mov	r8, r2
 769 01ac 9946     		mov	r9, r3
 770 01ae A246     		mov	r10, r4
 771 01b0 AB46     		mov	fp, r5
 772 01b2 F0BD     		pop	{r4, r5, r6, r7, pc}
 773              	.L53:
 774              		.align	2
 775              	.L52:
 776 01b4 00000000 		.word	color_blend_true_color_additive
 777 01b8 00000000 		.word	color_blend_true_color_multiply
 778 01bc 00000000 		.word	color_blend_true_color_subtractive
 779              		.cfi_endproc
 780              	.LFE166:
 781              		.size	map_blended, .-map_blended
 782              		.section	.text.color_blend_true_color_additive,"ax",%progbits
ARM GAS  C:\Users\haske\AppData\Local\Temp\ccydbpJh.s 			page 34


 783              		.align	2
 784              		.code	16
 785              		.thumb_func
 786              		.type	color_blend_true_color_additive, %function
 787              	color_blend_true_color_additive:
 788              	.LFB167:
 944:..\..\..\arduinoLCD\test\Pain Drain\libraries\lvgl\src\draw\sw/lv_draw_sw_blend.c **** 
 945:..\..\..\arduinoLCD\test\Pain Drain\libraries\lvgl\src\draw\sw/lv_draw_sw_blend.c **** static inline lv_color_t color_blend_true_color_additive(lv_color_t fg, lv_color_t bg, lv_opa_t opa
 946:..\..\..\arduinoLCD\test\Pain Drain\libraries\lvgl\src\draw\sw/lv_draw_sw_blend.c **** {
 789              		.loc 1 946 0
 790              		.cfi_startproc
 791              		@ args = 0, pretend = 0, frame = 0
 792              		@ frame_needed = 0, uses_anonymous_args = 0
 793              	.LVL115:
 794 0000 70B5     		push	{r4, r5, r6, lr}
 795              		.cfi_def_cfa_offset 16
 796              		.cfi_offset 4, -16
 797              		.cfi_offset 5, -12
 798              		.cfi_offset 6, -8
 799              		.cfi_offset 14, -4
 947:..\..\..\arduinoLCD\test\Pain Drain\libraries\lvgl\src\draw\sw/lv_draw_sw_blend.c **** 
 948:..\..\..\arduinoLCD\test\Pain Drain\libraries\lvgl\src\draw\sw/lv_draw_sw_blend.c ****     if(opa <= LV_OPA_MIN) return bg;
 800              		.loc 1 948 0
 801 0002 022A     		cmp	r2, #2
 802 0004 01D8     		bhi	.L55
 803              		.loc 1 948 0 is_stmt 0 discriminator 1
 804 0006 081C     		adds	r0, r1, #0
 805              	.LVL116:
 806 0008 40E0     		b	.L56
 807              	.LVL117:
 808              	.L55:
 949:..\..\..\arduinoLCD\test\Pain Drain\libraries\lvgl\src\draw\sw/lv_draw_sw_blend.c **** 
 950:..\..\..\arduinoLCD\test\Pain Drain\libraries\lvgl\src\draw\sw/lv_draw_sw_blend.c ****     uint32_t tmp;
 951:..\..\..\arduinoLCD\test\Pain Drain\libraries\lvgl\src\draw\sw/lv_draw_sw_blend.c **** #if LV_COLOR_DEPTH == 1
 952:..\..\..\arduinoLCD\test\Pain Drain\libraries\lvgl\src\draw\sw/lv_draw_sw_blend.c ****     tmp = bg.full + fg.full;
 953:..\..\..\arduinoLCD\test\Pain Drain\libraries\lvgl\src\draw\sw/lv_draw_sw_blend.c ****     fg.full = LV_MIN(tmp, 1);
 954:..\..\..\arduinoLCD\test\Pain Drain\libraries\lvgl\src\draw\sw/lv_draw_sw_blend.c **** #else
 955:..\..\..\arduinoLCD\test\Pain Drain\libraries\lvgl\src\draw\sw/lv_draw_sw_blend.c ****     tmp = bg.ch.red + fg.ch.red;
 809              		.loc 1 955 0 is_stmt 1
 810 000a 0C04     		lsls	r4, r1, #16
 811 000c E40E     		lsrs	r4, r4, #27
 812 000e 0304     		lsls	r3, r0, #16
 813 0010 DB0E     		lsrs	r3, r3, #27
 814              	.LVL118:
 956:..\..\..\arduinoLCD\test\Pain Drain\libraries\lvgl\src\draw\sw/lv_draw_sw_blend.c **** #if LV_COLOR_DEPTH == 8
 957:..\..\..\arduinoLCD\test\Pain Drain\libraries\lvgl\src\draw\sw/lv_draw_sw_blend.c ****     fg.ch.red = LV_MIN(tmp, 7);
 958:..\..\..\arduinoLCD\test\Pain Drain\libraries\lvgl\src\draw\sw/lv_draw_sw_blend.c **** #elif LV_COLOR_DEPTH == 16
 959:..\..\..\arduinoLCD\test\Pain Drain\libraries\lvgl\src\draw\sw/lv_draw_sw_blend.c ****     fg.ch.red = LV_MIN(tmp, 31);
 815              		.loc 1 959 0
 816 0012 E418     		adds	r4, r4, r3
 817              	.LVL119:
 818 0014 1F2C     		cmp	r4, #31
 819 0016 00D9     		bls	.L57
 820 0018 1F24     		movs	r4, #31
 821              	.LVL120:
 822              	.L57:
 823 001a E4B2     		uxtb	r4, r4
ARM GAS  C:\Users\haske\AppData\Local\Temp\ccydbpJh.s 			page 35


 824 001c E402     		lsls	r4, r4, #11
 825 001e 4305     		lsls	r3, r0, #21
 826              	.LVL121:
 827 0020 5B0D     		lsrs	r3, r3, #21
 828 0022 2343     		orrs	r3, r4
 960:..\..\..\arduinoLCD\test\Pain Drain\libraries\lvgl\src\draw\sw/lv_draw_sw_blend.c **** #elif LV_COLOR_DEPTH == 32
 961:..\..\..\arduinoLCD\test\Pain Drain\libraries\lvgl\src\draw\sw/lv_draw_sw_blend.c ****     fg.ch.red = LV_MIN(tmp, 255);
 962:..\..\..\arduinoLCD\test\Pain Drain\libraries\lvgl\src\draw\sw/lv_draw_sw_blend.c **** #endif
 963:..\..\..\arduinoLCD\test\Pain Drain\libraries\lvgl\src\draw\sw/lv_draw_sw_blend.c **** 
 964:..\..\..\arduinoLCD\test\Pain Drain\libraries\lvgl\src\draw\sw/lv_draw_sw_blend.c **** #if LV_COLOR_DEPTH == 8
 965:..\..\..\arduinoLCD\test\Pain Drain\libraries\lvgl\src\draw\sw/lv_draw_sw_blend.c ****     tmp = bg.ch.green + fg.ch.green;
 966:..\..\..\arduinoLCD\test\Pain Drain\libraries\lvgl\src\draw\sw/lv_draw_sw_blend.c ****     fg.ch.green = LV_MIN(tmp, 7);
 967:..\..\..\arduinoLCD\test\Pain Drain\libraries\lvgl\src\draw\sw/lv_draw_sw_blend.c **** #elif LV_COLOR_DEPTH == 16
 968:..\..\..\arduinoLCD\test\Pain Drain\libraries\lvgl\src\draw\sw/lv_draw_sw_blend.c **** #if LV_COLOR_16_SWAP == 0
 969:..\..\..\arduinoLCD\test\Pain Drain\libraries\lvgl\src\draw\sw/lv_draw_sw_blend.c ****     tmp = bg.ch.green + fg.ch.green;
 829              		.loc 1 969 0
 830 0024 4C05     		lsls	r4, r1, #21
 831 0026 A40E     		lsrs	r4, r4, #26
 832 0028 5805     		lsls	r0, r3, #21
 833              	.LVL122:
 834 002a 800E     		lsrs	r0, r0, #26
 835              	.LVL123:
 970:..\..\..\arduinoLCD\test\Pain Drain\libraries\lvgl\src\draw\sw/lv_draw_sw_blend.c ****     fg.ch.green = LV_MIN(tmp, 63);
 836              		.loc 1 970 0
 837 002c 2418     		adds	r4, r4, r0
 838              	.LVL124:
 839 002e 3F2C     		cmp	r4, #63
 840 0030 00D9     		bls	.L58
 841 0032 3F24     		movs	r4, #63
 842              	.LVL125:
 843              	.L58:
 844 0034 3F20     		movs	r0, #63
 845              	.LVL126:
 846 0036 0440     		ands	r4, r0
 847 0038 6401     		lsls	r4, r4, #5
 848 003a 1548     		ldr	r0, .L61
 849 003c 0340     		ands	r3, r0
 850              	.LVL127:
 851 003e 2343     		orrs	r3, r4
 971:..\..\..\arduinoLCD\test\Pain Drain\libraries\lvgl\src\draw\sw/lv_draw_sw_blend.c **** #else
 972:..\..\..\arduinoLCD\test\Pain Drain\libraries\lvgl\src\draw\sw/lv_draw_sw_blend.c ****     tmp = (bg.ch.green_h << 3) + bg.ch.green_l + (fg.ch.green_h << 3) + fg.ch.green_l;
 973:..\..\..\arduinoLCD\test\Pain Drain\libraries\lvgl\src\draw\sw/lv_draw_sw_blend.c ****     tmp = LV_MIN(tmp, 63);
 974:..\..\..\arduinoLCD\test\Pain Drain\libraries\lvgl\src\draw\sw/lv_draw_sw_blend.c ****     fg.ch.green_h = tmp >> 3;
 975:..\..\..\arduinoLCD\test\Pain Drain\libraries\lvgl\src\draw\sw/lv_draw_sw_blend.c ****     fg.ch.green_l = tmp & 0x7;
 976:..\..\..\arduinoLCD\test\Pain Drain\libraries\lvgl\src\draw\sw/lv_draw_sw_blend.c **** #endif
 977:..\..\..\arduinoLCD\test\Pain Drain\libraries\lvgl\src\draw\sw/lv_draw_sw_blend.c **** 
 978:..\..\..\arduinoLCD\test\Pain Drain\libraries\lvgl\src\draw\sw/lv_draw_sw_blend.c **** #elif LV_COLOR_DEPTH == 32
 979:..\..\..\arduinoLCD\test\Pain Drain\libraries\lvgl\src\draw\sw/lv_draw_sw_blend.c ****     tmp = bg.ch.green + fg.ch.green;
 980:..\..\..\arduinoLCD\test\Pain Drain\libraries\lvgl\src\draw\sw/lv_draw_sw_blend.c ****     fg.ch.green = LV_MIN(tmp, 255);
 981:..\..\..\arduinoLCD\test\Pain Drain\libraries\lvgl\src\draw\sw/lv_draw_sw_blend.c **** #endif
 982:..\..\..\arduinoLCD\test\Pain Drain\libraries\lvgl\src\draw\sw/lv_draw_sw_blend.c **** 
 983:..\..\..\arduinoLCD\test\Pain Drain\libraries\lvgl\src\draw\sw/lv_draw_sw_blend.c ****     tmp = bg.ch.blue + fg.ch.blue;
 852              		.loc 1 983 0
 853 0040 C806     		lsls	r0, r1, #27
 854 0042 C50E     		lsrs	r5, r0, #27
 855 0044 D806     		lsls	r0, r3, #27
 856 0046 C00E     		lsrs	r0, r0, #27
ARM GAS  C:\Users\haske\AppData\Local\Temp\ccydbpJh.s 			page 36


 857              	.LVL128:
 984:..\..\..\arduinoLCD\test\Pain Drain\libraries\lvgl\src\draw\sw/lv_draw_sw_blend.c **** #if LV_COLOR_DEPTH == 8
 985:..\..\..\arduinoLCD\test\Pain Drain\libraries\lvgl\src\draw\sw/lv_draw_sw_blend.c ****     fg.ch.blue = LV_MIN(tmp, 4);
 986:..\..\..\arduinoLCD\test\Pain Drain\libraries\lvgl\src\draw\sw/lv_draw_sw_blend.c **** #elif LV_COLOR_DEPTH == 16
 987:..\..\..\arduinoLCD\test\Pain Drain\libraries\lvgl\src\draw\sw/lv_draw_sw_blend.c ****     fg.ch.blue = LV_MIN(tmp, 31);
 858              		.loc 1 987 0
 859 0048 2818     		adds	r0, r5, r0
 860              	.LVL129:
 861 004a 1F28     		cmp	r0, #31
 862 004c 00D9     		bls	.L59
 863 004e 1F20     		movs	r0, #31
 864              	.LVL130:
 865              	.L59:
 866 0050 1F25     		movs	r5, #31
 867              	.LVL131:
 868 0052 2840     		ands	r0, r5
 869 0054 1F24     		movs	r4, #31
 870 0056 A343     		bics	r3, r4
 871              	.LVL132:
 872 0058 0343     		orrs	r3, r0
 873 005a 1D00     		movs	r5, r3
 874 005c 181C     		adds	r0, r3, #0
 988:..\..\..\arduinoLCD\test\Pain Drain\libraries\lvgl\src\draw\sw/lv_draw_sw_blend.c **** #elif LV_COLOR_DEPTH == 32
 989:..\..\..\arduinoLCD\test\Pain Drain\libraries\lvgl\src\draw\sw/lv_draw_sw_blend.c ****     fg.ch.blue = LV_MIN(tmp, 255);
 990:..\..\..\arduinoLCD\test\Pain Drain\libraries\lvgl\src\draw\sw/lv_draw_sw_blend.c **** #endif
 991:..\..\..\arduinoLCD\test\Pain Drain\libraries\lvgl\src\draw\sw/lv_draw_sw_blend.c **** #endif
 992:..\..\..\arduinoLCD\test\Pain Drain\libraries\lvgl\src\draw\sw/lv_draw_sw_blend.c **** 
 993:..\..\..\arduinoLCD\test\Pain Drain\libraries\lvgl\src\draw\sw/lv_draw_sw_blend.c ****     if(opa == LV_OPA_COVER) return fg;
 875              		.loc 1 993 0
 876 005e FF2A     		cmp	r2, #255
 877 0060 14D0     		beq	.L56
 878              	.LVL133:
 879              	.LBB111:
 880              	.LBB112:
 881              		.file 3 "c:\\projects\\paindrain\\arduinolcd\\test\\pain drain\\libraries\\lvgl\\src\\misc\\lv_col
   1:c:\projects\paindrain\arduinolcd\test\pain drain\libraries\lvgl\src\misc\lv_color.h **** /**
   2:c:\projects\paindrain\arduinolcd\test\pain drain\libraries\lvgl\src\misc\lv_color.h ****  * @file lv_color.h
   3:c:\projects\paindrain\arduinolcd\test\pain drain\libraries\lvgl\src\misc\lv_color.h ****  *
   4:c:\projects\paindrain\arduinolcd\test\pain drain\libraries\lvgl\src\misc\lv_color.h ****  */
   5:c:\projects\paindrain\arduinolcd\test\pain drain\libraries\lvgl\src\misc\lv_color.h **** 
   6:c:\projects\paindrain\arduinolcd\test\pain drain\libraries\lvgl\src\misc\lv_color.h **** #ifndef LV_COLOR_H
   7:c:\projects\paindrain\arduinolcd\test\pain drain\libraries\lvgl\src\misc\lv_color.h **** #define LV_COLOR_H
   8:c:\projects\paindrain\arduinolcd\test\pain drain\libraries\lvgl\src\misc\lv_color.h **** 
   9:c:\projects\paindrain\arduinolcd\test\pain drain\libraries\lvgl\src\misc\lv_color.h **** #ifdef __cplusplus
  10:c:\projects\paindrain\arduinolcd\test\pain drain\libraries\lvgl\src\misc\lv_color.h **** extern "C" {
  11:c:\projects\paindrain\arduinolcd\test\pain drain\libraries\lvgl\src\misc\lv_color.h **** #endif
  12:c:\projects\paindrain\arduinolcd\test\pain drain\libraries\lvgl\src\misc\lv_color.h **** 
  13:c:\projects\paindrain\arduinolcd\test\pain drain\libraries\lvgl\src\misc\lv_color.h **** /*********************
  14:c:\projects\paindrain\arduinolcd\test\pain drain\libraries\lvgl\src\misc\lv_color.h ****  *      INCLUDES
  15:c:\projects\paindrain\arduinolcd\test\pain drain\libraries\lvgl\src\misc\lv_color.h ****  *********************/
  16:c:\projects\paindrain\arduinolcd\test\pain drain\libraries\lvgl\src\misc\lv_color.h **** #include "../lv_conf_internal.h"
  17:c:\projects\paindrain\arduinolcd\test\pain drain\libraries\lvgl\src\misc\lv_color.h **** #include "lv_assert.h"
  18:c:\projects\paindrain\arduinolcd\test\pain drain\libraries\lvgl\src\misc\lv_color.h **** #include "lv_math.h"
  19:c:\projects\paindrain\arduinolcd\test\pain drain\libraries\lvgl\src\misc\lv_color.h **** #include "lv_types.h"
  20:c:\projects\paindrain\arduinolcd\test\pain drain\libraries\lvgl\src\misc\lv_color.h **** 
  21:c:\projects\paindrain\arduinolcd\test\pain drain\libraries\lvgl\src\misc\lv_color.h **** /*Error checking*/
  22:c:\projects\paindrain\arduinolcd\test\pain drain\libraries\lvgl\src\misc\lv_color.h **** #if LV_COLOR_DEPTH == 24
ARM GAS  C:\Users\haske\AppData\Local\Temp\ccydbpJh.s 			page 37


  23:c:\projects\paindrain\arduinolcd\test\pain drain\libraries\lvgl\src\misc\lv_color.h **** #error "LV_COLOR_DEPTH 24 is deprecated. Use LV_COLOR_DEPTH 32 instead (lv_conf.h)"
  24:c:\projects\paindrain\arduinolcd\test\pain drain\libraries\lvgl\src\misc\lv_color.h **** #endif
  25:c:\projects\paindrain\arduinolcd\test\pain drain\libraries\lvgl\src\misc\lv_color.h **** 
  26:c:\projects\paindrain\arduinolcd\test\pain drain\libraries\lvgl\src\misc\lv_color.h **** #if LV_COLOR_DEPTH != 16 && LV_COLOR_16_SWAP != 0
  27:c:\projects\paindrain\arduinolcd\test\pain drain\libraries\lvgl\src\misc\lv_color.h **** #error "LV_COLOR_16_SWAP requires LV_COLOR_DEPTH == 16. Set it in lv_conf.h"
  28:c:\projects\paindrain\arduinolcd\test\pain drain\libraries\lvgl\src\misc\lv_color.h **** #endif
  29:c:\projects\paindrain\arduinolcd\test\pain drain\libraries\lvgl\src\misc\lv_color.h **** 
  30:c:\projects\paindrain\arduinolcd\test\pain drain\libraries\lvgl\src\misc\lv_color.h **** #include <stdint.h>
  31:c:\projects\paindrain\arduinolcd\test\pain drain\libraries\lvgl\src\misc\lv_color.h **** 
  32:c:\projects\paindrain\arduinolcd\test\pain drain\libraries\lvgl\src\misc\lv_color.h **** /*********************
  33:c:\projects\paindrain\arduinolcd\test\pain drain\libraries\lvgl\src\misc\lv_color.h ****  *      DEFINES
  34:c:\projects\paindrain\arduinolcd\test\pain drain\libraries\lvgl\src\misc\lv_color.h ****  *********************/
  35:c:\projects\paindrain\arduinolcd\test\pain drain\libraries\lvgl\src\misc\lv_color.h **** LV_EXPORT_CONST_INT(LV_COLOR_DEPTH);
  36:c:\projects\paindrain\arduinolcd\test\pain drain\libraries\lvgl\src\misc\lv_color.h **** LV_EXPORT_CONST_INT(LV_COLOR_16_SWAP);
  37:c:\projects\paindrain\arduinolcd\test\pain drain\libraries\lvgl\src\misc\lv_color.h **** 
  38:c:\projects\paindrain\arduinolcd\test\pain drain\libraries\lvgl\src\misc\lv_color.h **** /**
  39:c:\projects\paindrain\arduinolcd\test\pain drain\libraries\lvgl\src\misc\lv_color.h ****  * Opacity percentages.
  40:c:\projects\paindrain\arduinolcd\test\pain drain\libraries\lvgl\src\misc\lv_color.h ****  */
  41:c:\projects\paindrain\arduinolcd\test\pain drain\libraries\lvgl\src\misc\lv_color.h **** enum {
  42:c:\projects\paindrain\arduinolcd\test\pain drain\libraries\lvgl\src\misc\lv_color.h ****     LV_OPA_TRANSP = 0,
  43:c:\projects\paindrain\arduinolcd\test\pain drain\libraries\lvgl\src\misc\lv_color.h ****     LV_OPA_0      = 0,
  44:c:\projects\paindrain\arduinolcd\test\pain drain\libraries\lvgl\src\misc\lv_color.h ****     LV_OPA_10     = 25,
  45:c:\projects\paindrain\arduinolcd\test\pain drain\libraries\lvgl\src\misc\lv_color.h ****     LV_OPA_20     = 51,
  46:c:\projects\paindrain\arduinolcd\test\pain drain\libraries\lvgl\src\misc\lv_color.h ****     LV_OPA_30     = 76,
  47:c:\projects\paindrain\arduinolcd\test\pain drain\libraries\lvgl\src\misc\lv_color.h ****     LV_OPA_40     = 102,
  48:c:\projects\paindrain\arduinolcd\test\pain drain\libraries\lvgl\src\misc\lv_color.h ****     LV_OPA_50     = 127,
  49:c:\projects\paindrain\arduinolcd\test\pain drain\libraries\lvgl\src\misc\lv_color.h ****     LV_OPA_60     = 153,
  50:c:\projects\paindrain\arduinolcd\test\pain drain\libraries\lvgl\src\misc\lv_color.h ****     LV_OPA_70     = 178,
  51:c:\projects\paindrain\arduinolcd\test\pain drain\libraries\lvgl\src\misc\lv_color.h ****     LV_OPA_80     = 204,
  52:c:\projects\paindrain\arduinolcd\test\pain drain\libraries\lvgl\src\misc\lv_color.h ****     LV_OPA_90     = 229,
  53:c:\projects\paindrain\arduinolcd\test\pain drain\libraries\lvgl\src\misc\lv_color.h ****     LV_OPA_100    = 255,
  54:c:\projects\paindrain\arduinolcd\test\pain drain\libraries\lvgl\src\misc\lv_color.h ****     LV_OPA_COVER  = 255,
  55:c:\projects\paindrain\arduinolcd\test\pain drain\libraries\lvgl\src\misc\lv_color.h **** };
  56:c:\projects\paindrain\arduinolcd\test\pain drain\libraries\lvgl\src\misc\lv_color.h **** 
  57:c:\projects\paindrain\arduinolcd\test\pain drain\libraries\lvgl\src\misc\lv_color.h **** #define LV_OPA_MIN 2    /*Opacities below this will be transparent*/
  58:c:\projects\paindrain\arduinolcd\test\pain drain\libraries\lvgl\src\misc\lv_color.h **** #define LV_OPA_MAX 253  /*Opacities above this will fully cover*/
  59:c:\projects\paindrain\arduinolcd\test\pain drain\libraries\lvgl\src\misc\lv_color.h **** 
  60:c:\projects\paindrain\arduinolcd\test\pain drain\libraries\lvgl\src\misc\lv_color.h **** #if LV_COLOR_DEPTH == 1
  61:c:\projects\paindrain\arduinolcd\test\pain drain\libraries\lvgl\src\misc\lv_color.h **** #define LV_COLOR_SIZE 8
  62:c:\projects\paindrain\arduinolcd\test\pain drain\libraries\lvgl\src\misc\lv_color.h **** #elif LV_COLOR_DEPTH == 8
  63:c:\projects\paindrain\arduinolcd\test\pain drain\libraries\lvgl\src\misc\lv_color.h **** #define LV_COLOR_SIZE 8
  64:c:\projects\paindrain\arduinolcd\test\pain drain\libraries\lvgl\src\misc\lv_color.h **** #elif LV_COLOR_DEPTH == 16
  65:c:\projects\paindrain\arduinolcd\test\pain drain\libraries\lvgl\src\misc\lv_color.h **** #define LV_COLOR_SIZE 16
  66:c:\projects\paindrain\arduinolcd\test\pain drain\libraries\lvgl\src\misc\lv_color.h **** #elif LV_COLOR_DEPTH == 32
  67:c:\projects\paindrain\arduinolcd\test\pain drain\libraries\lvgl\src\misc\lv_color.h **** #define LV_COLOR_SIZE 32
  68:c:\projects\paindrain\arduinolcd\test\pain drain\libraries\lvgl\src\misc\lv_color.h **** #else
  69:c:\projects\paindrain\arduinolcd\test\pain drain\libraries\lvgl\src\misc\lv_color.h **** #error "Invalid LV_COLOR_DEPTH in lv_conf.h! Set it to 1, 8, 16 or 32!"
  70:c:\projects\paindrain\arduinolcd\test\pain drain\libraries\lvgl\src\misc\lv_color.h **** #endif
  71:c:\projects\paindrain\arduinolcd\test\pain drain\libraries\lvgl\src\misc\lv_color.h **** 
  72:c:\projects\paindrain\arduinolcd\test\pain drain\libraries\lvgl\src\misc\lv_color.h **** #if defined(__cplusplus) && !defined(_LV_COLOR_HAS_MODERN_CPP)
  73:c:\projects\paindrain\arduinolcd\test\pain drain\libraries\lvgl\src\misc\lv_color.h **** /**
  74:c:\projects\paindrain\arduinolcd\test\pain drain\libraries\lvgl\src\misc\lv_color.h **** * MSVC compiler's definition of the __cplusplus indicating 199711L regardless to C++ standard versi
  75:c:\projects\paindrain\arduinolcd\test\pain drain\libraries\lvgl\src\misc\lv_color.h **** * see https://devblogs.microsoft.com/cppblog/msvc-now-correctly-reports-cplusplus
  76:c:\projects\paindrain\arduinolcd\test\pain drain\libraries\lvgl\src\misc\lv_color.h **** * so we use _MSC_VER macro instead of __cplusplus
  77:c:\projects\paindrain\arduinolcd\test\pain drain\libraries\lvgl\src\misc\lv_color.h **** */
  78:c:\projects\paindrain\arduinolcd\test\pain drain\libraries\lvgl\src\misc\lv_color.h **** #ifdef _MSC_VER
  79:c:\projects\paindrain\arduinolcd\test\pain drain\libraries\lvgl\src\misc\lv_color.h **** #if _MSC_VER >= 1900 /*Visual Studio 2015*/
ARM GAS  C:\Users\haske\AppData\Local\Temp\ccydbpJh.s 			page 38


  80:c:\projects\paindrain\arduinolcd\test\pain drain\libraries\lvgl\src\misc\lv_color.h **** #define _LV_COLOR_HAS_MODERN_CPP 1
  81:c:\projects\paindrain\arduinolcd\test\pain drain\libraries\lvgl\src\misc\lv_color.h **** #endif
  82:c:\projects\paindrain\arduinolcd\test\pain drain\libraries\lvgl\src\misc\lv_color.h **** #else
  83:c:\projects\paindrain\arduinolcd\test\pain drain\libraries\lvgl\src\misc\lv_color.h **** #if __cplusplus >= 201103L
  84:c:\projects\paindrain\arduinolcd\test\pain drain\libraries\lvgl\src\misc\lv_color.h **** #define _LV_COLOR_HAS_MODERN_CPP 1
  85:c:\projects\paindrain\arduinolcd\test\pain drain\libraries\lvgl\src\misc\lv_color.h **** #endif
  86:c:\projects\paindrain\arduinolcd\test\pain drain\libraries\lvgl\src\misc\lv_color.h **** #endif
  87:c:\projects\paindrain\arduinolcd\test\pain drain\libraries\lvgl\src\misc\lv_color.h **** #endif /*__cplusplus*/
  88:c:\projects\paindrain\arduinolcd\test\pain drain\libraries\lvgl\src\misc\lv_color.h **** 
  89:c:\projects\paindrain\arduinolcd\test\pain drain\libraries\lvgl\src\misc\lv_color.h **** #ifndef _LV_COLOR_HAS_MODERN_CPP
  90:c:\projects\paindrain\arduinolcd\test\pain drain\libraries\lvgl\src\misc\lv_color.h **** #define _LV_COLOR_HAS_MODERN_CPP 0
  91:c:\projects\paindrain\arduinolcd\test\pain drain\libraries\lvgl\src\misc\lv_color.h **** #endif
  92:c:\projects\paindrain\arduinolcd\test\pain drain\libraries\lvgl\src\misc\lv_color.h **** 
  93:c:\projects\paindrain\arduinolcd\test\pain drain\libraries\lvgl\src\misc\lv_color.h **** #if _LV_COLOR_HAS_MODERN_CPP
  94:c:\projects\paindrain\arduinolcd\test\pain drain\libraries\lvgl\src\misc\lv_color.h **** /*Fix msvc compiler error C4576 inside C++ code*/
  95:c:\projects\paindrain\arduinolcd\test\pain drain\libraries\lvgl\src\misc\lv_color.h **** #define _LV_COLOR_MAKE_TYPE_HELPER lv_color_t
  96:c:\projects\paindrain\arduinolcd\test\pain drain\libraries\lvgl\src\misc\lv_color.h **** #else
  97:c:\projects\paindrain\arduinolcd\test\pain drain\libraries\lvgl\src\misc\lv_color.h **** #define _LV_COLOR_MAKE_TYPE_HELPER (lv_color_t)
  98:c:\projects\paindrain\arduinolcd\test\pain drain\libraries\lvgl\src\misc\lv_color.h **** #endif
  99:c:\projects\paindrain\arduinolcd\test\pain drain\libraries\lvgl\src\misc\lv_color.h **** 
 100:c:\projects\paindrain\arduinolcd\test\pain drain\libraries\lvgl\src\misc\lv_color.h **** /*---------------------------------------
 101:c:\projects\paindrain\arduinolcd\test\pain drain\libraries\lvgl\src\misc\lv_color.h ****  * Macros for all existing color depths
 102:c:\projects\paindrain\arduinolcd\test\pain drain\libraries\lvgl\src\misc\lv_color.h ****  * to set/get values of the color channels
 103:c:\projects\paindrain\arduinolcd\test\pain drain\libraries\lvgl\src\misc\lv_color.h ****  *------------------------------------------*/
 104:c:\projects\paindrain\arduinolcd\test\pain drain\libraries\lvgl\src\misc\lv_color.h **** # define LV_COLOR_SET_R1(c, v) (c).ch.red = (uint8_t)((v) & 0x1)
 105:c:\projects\paindrain\arduinolcd\test\pain drain\libraries\lvgl\src\misc\lv_color.h **** # define LV_COLOR_SET_G1(c, v) (c).ch.green = (uint8_t)((v) & 0x1)
 106:c:\projects\paindrain\arduinolcd\test\pain drain\libraries\lvgl\src\misc\lv_color.h **** # define LV_COLOR_SET_B1(c, v) (c).ch.blue = (uint8_t)((v) & 0x1)
 107:c:\projects\paindrain\arduinolcd\test\pain drain\libraries\lvgl\src\misc\lv_color.h **** # define LV_COLOR_SET_A1(c, v) do {} while(0)
 108:c:\projects\paindrain\arduinolcd\test\pain drain\libraries\lvgl\src\misc\lv_color.h **** 
 109:c:\projects\paindrain\arduinolcd\test\pain drain\libraries\lvgl\src\misc\lv_color.h **** # define LV_COLOR_GET_R1(c) (c).ch.red
 110:c:\projects\paindrain\arduinolcd\test\pain drain\libraries\lvgl\src\misc\lv_color.h **** # define LV_COLOR_GET_G1(c) (c).ch.green
 111:c:\projects\paindrain\arduinolcd\test\pain drain\libraries\lvgl\src\misc\lv_color.h **** # define LV_COLOR_GET_B1(c) (c).ch.blue
 112:c:\projects\paindrain\arduinolcd\test\pain drain\libraries\lvgl\src\misc\lv_color.h **** # define LV_COLOR_GET_A1(c) 0xFF
 113:c:\projects\paindrain\arduinolcd\test\pain drain\libraries\lvgl\src\misc\lv_color.h **** 
 114:c:\projects\paindrain\arduinolcd\test\pain drain\libraries\lvgl\src\misc\lv_color.h **** # define _LV_COLOR_ZERO_INITIALIZER1 {0x00}
 115:c:\projects\paindrain\arduinolcd\test\pain drain\libraries\lvgl\src\misc\lv_color.h **** # define LV_COLOR_MAKE1(r8, g8, b8)  {(uint8_t)((b8 >> 7) | (g8 >> 7) | (r8 >> 7))}
 116:c:\projects\paindrain\arduinolcd\test\pain drain\libraries\lvgl\src\misc\lv_color.h **** 
 117:c:\projects\paindrain\arduinolcd\test\pain drain\libraries\lvgl\src\misc\lv_color.h **** # define LV_COLOR_SET_R8(c, v) (c).ch.red = (uint8_t)((v) & 0x7U)
 118:c:\projects\paindrain\arduinolcd\test\pain drain\libraries\lvgl\src\misc\lv_color.h **** # define LV_COLOR_SET_G8(c, v) (c).ch.green = (uint8_t)((v) & 0x7U)
 119:c:\projects\paindrain\arduinolcd\test\pain drain\libraries\lvgl\src\misc\lv_color.h **** # define LV_COLOR_SET_B8(c, v) (c).ch.blue = (uint8_t)((v) & 0x3U)
 120:c:\projects\paindrain\arduinolcd\test\pain drain\libraries\lvgl\src\misc\lv_color.h **** # define LV_COLOR_SET_A8(c, v) do {} while(0)
 121:c:\projects\paindrain\arduinolcd\test\pain drain\libraries\lvgl\src\misc\lv_color.h **** 
 122:c:\projects\paindrain\arduinolcd\test\pain drain\libraries\lvgl\src\misc\lv_color.h **** # define LV_COLOR_GET_R8(c) (c).ch.red
 123:c:\projects\paindrain\arduinolcd\test\pain drain\libraries\lvgl\src\misc\lv_color.h **** # define LV_COLOR_GET_G8(c) (c).ch.green
 124:c:\projects\paindrain\arduinolcd\test\pain drain\libraries\lvgl\src\misc\lv_color.h **** # define LV_COLOR_GET_B8(c) (c).ch.blue
 125:c:\projects\paindrain\arduinolcd\test\pain drain\libraries\lvgl\src\misc\lv_color.h **** # define LV_COLOR_GET_A8(c) 0xFF
 126:c:\projects\paindrain\arduinolcd\test\pain drain\libraries\lvgl\src\misc\lv_color.h **** 
 127:c:\projects\paindrain\arduinolcd\test\pain drain\libraries\lvgl\src\misc\lv_color.h **** # define _LV_COLOR_ZERO_INITIALIZER8 {{0x00, 0x00, 0x00}}
 128:c:\projects\paindrain\arduinolcd\test\pain drain\libraries\lvgl\src\misc\lv_color.h **** # define LV_COLOR_MAKE8(r8, g8, b8) {{(uint8_t)((b8 >> 6) & 0x3U), (uint8_t)((g8 >> 5) & 0x7U), (ui
 129:c:\projects\paindrain\arduinolcd\test\pain drain\libraries\lvgl\src\misc\lv_color.h **** 
 130:c:\projects\paindrain\arduinolcd\test\pain drain\libraries\lvgl\src\misc\lv_color.h **** # define LV_COLOR_SET_R16(c, v) (c).ch.red = (uint8_t)((v) & 0x1FU)
 131:c:\projects\paindrain\arduinolcd\test\pain drain\libraries\lvgl\src\misc\lv_color.h **** #if LV_COLOR_16_SWAP == 0
 132:c:\projects\paindrain\arduinolcd\test\pain drain\libraries\lvgl\src\misc\lv_color.h **** # define LV_COLOR_SET_G16(c, v) (c).ch.green = (uint8_t)((v) & 0x3FU)
 133:c:\projects\paindrain\arduinolcd\test\pain drain\libraries\lvgl\src\misc\lv_color.h **** #else
 134:c:\projects\paindrain\arduinolcd\test\pain drain\libraries\lvgl\src\misc\lv_color.h **** # define LV_COLOR_SET_G16(c, v) {(c).ch.green_h = (uint8_t)(((v) >> 3) & 0x7); (c).ch.green_l = (ui
 135:c:\projects\paindrain\arduinolcd\test\pain drain\libraries\lvgl\src\misc\lv_color.h **** #endif
 136:c:\projects\paindrain\arduinolcd\test\pain drain\libraries\lvgl\src\misc\lv_color.h **** # define LV_COLOR_SET_B16(c, v) (c).ch.blue = (uint8_t)((v) & 0x1FU)
ARM GAS  C:\Users\haske\AppData\Local\Temp\ccydbpJh.s 			page 39


 137:c:\projects\paindrain\arduinolcd\test\pain drain\libraries\lvgl\src\misc\lv_color.h **** # define LV_COLOR_SET_A16(c, v) do {} while(0)
 138:c:\projects\paindrain\arduinolcd\test\pain drain\libraries\lvgl\src\misc\lv_color.h **** 
 139:c:\projects\paindrain\arduinolcd\test\pain drain\libraries\lvgl\src\misc\lv_color.h **** # define LV_COLOR_GET_R16(c) (c).ch.red
 140:c:\projects\paindrain\arduinolcd\test\pain drain\libraries\lvgl\src\misc\lv_color.h **** #if LV_COLOR_16_SWAP == 0
 141:c:\projects\paindrain\arduinolcd\test\pain drain\libraries\lvgl\src\misc\lv_color.h **** # define LV_COLOR_GET_G16(c) (c).ch.green
 142:c:\projects\paindrain\arduinolcd\test\pain drain\libraries\lvgl\src\misc\lv_color.h **** #else
 143:c:\projects\paindrain\arduinolcd\test\pain drain\libraries\lvgl\src\misc\lv_color.h **** # define LV_COLOR_GET_G16(c) (((c).ch.green_h << 3) + (c).ch.green_l)
 144:c:\projects\paindrain\arduinolcd\test\pain drain\libraries\lvgl\src\misc\lv_color.h **** #endif
 145:c:\projects\paindrain\arduinolcd\test\pain drain\libraries\lvgl\src\misc\lv_color.h **** # define LV_COLOR_GET_B16(c) (c).ch.blue
 146:c:\projects\paindrain\arduinolcd\test\pain drain\libraries\lvgl\src\misc\lv_color.h **** # define LV_COLOR_GET_A16(c) 0xFF
 147:c:\projects\paindrain\arduinolcd\test\pain drain\libraries\lvgl\src\misc\lv_color.h **** 
 148:c:\projects\paindrain\arduinolcd\test\pain drain\libraries\lvgl\src\misc\lv_color.h **** #if LV_COLOR_16_SWAP == 0
 149:c:\projects\paindrain\arduinolcd\test\pain drain\libraries\lvgl\src\misc\lv_color.h **** # define _LV_COLOR_ZERO_INITIALIZER16  {{0x00, 0x00, 0x00}}
 150:c:\projects\paindrain\arduinolcd\test\pain drain\libraries\lvgl\src\misc\lv_color.h **** # define LV_COLOR_MAKE16(r8, g8, b8) {{(uint8_t)((b8 >> 3) & 0x1FU), (uint8_t)((g8 >> 2) & 0x3FU), 
 151:c:\projects\paindrain\arduinolcd\test\pain drain\libraries\lvgl\src\misc\lv_color.h **** #else
 152:c:\projects\paindrain\arduinolcd\test\pain drain\libraries\lvgl\src\misc\lv_color.h **** # define _LV_COLOR_ZERO_INITIALIZER16 {{0x00, 0x00, 0x00, 0x00}}
 153:c:\projects\paindrain\arduinolcd\test\pain drain\libraries\lvgl\src\misc\lv_color.h **** # define LV_COLOR_MAKE16(r8, g8, b8) {{(uint8_t)((g8 >> 5) & 0x7U), (uint8_t)((r8 >> 3) & 0x1FU), (
 154:c:\projects\paindrain\arduinolcd\test\pain drain\libraries\lvgl\src\misc\lv_color.h **** #endif
 155:c:\projects\paindrain\arduinolcd\test\pain drain\libraries\lvgl\src\misc\lv_color.h **** 
 156:c:\projects\paindrain\arduinolcd\test\pain drain\libraries\lvgl\src\misc\lv_color.h **** # define LV_COLOR_SET_R32(c, v) (c).ch.red = (uint8_t)((v) & 0xFF)
 157:c:\projects\paindrain\arduinolcd\test\pain drain\libraries\lvgl\src\misc\lv_color.h **** # define LV_COLOR_SET_G32(c, v) (c).ch.green = (uint8_t)((v) & 0xFF)
 158:c:\projects\paindrain\arduinolcd\test\pain drain\libraries\lvgl\src\misc\lv_color.h **** # define LV_COLOR_SET_B32(c, v) (c).ch.blue = (uint8_t)((v) & 0xFF)
 159:c:\projects\paindrain\arduinolcd\test\pain drain\libraries\lvgl\src\misc\lv_color.h **** # define LV_COLOR_SET_A32(c, v) (c).ch.alpha = (uint8_t)((v) & 0xFF)
 160:c:\projects\paindrain\arduinolcd\test\pain drain\libraries\lvgl\src\misc\lv_color.h **** 
 161:c:\projects\paindrain\arduinolcd\test\pain drain\libraries\lvgl\src\misc\lv_color.h **** # define LV_COLOR_GET_R32(c) (c).ch.red
 162:c:\projects\paindrain\arduinolcd\test\pain drain\libraries\lvgl\src\misc\lv_color.h **** # define LV_COLOR_GET_G32(c) (c).ch.green
 163:c:\projects\paindrain\arduinolcd\test\pain drain\libraries\lvgl\src\misc\lv_color.h **** # define LV_COLOR_GET_B32(c) (c).ch.blue
 164:c:\projects\paindrain\arduinolcd\test\pain drain\libraries\lvgl\src\misc\lv_color.h **** # define LV_COLOR_GET_A32(c) (c).ch.alpha
 165:c:\projects\paindrain\arduinolcd\test\pain drain\libraries\lvgl\src\misc\lv_color.h **** 
 166:c:\projects\paindrain\arduinolcd\test\pain drain\libraries\lvgl\src\misc\lv_color.h **** # define _LV_COLOR_ZERO_INITIALIZER32  {{0x00, 0x00, 0x00, 0x00}}
 167:c:\projects\paindrain\arduinolcd\test\pain drain\libraries\lvgl\src\misc\lv_color.h **** # define LV_COLOR_MAKE32(r8, g8, b8) {{b8, g8, r8, 0xff}} /*Fix 0xff alpha*/
 168:c:\projects\paindrain\arduinolcd\test\pain drain\libraries\lvgl\src\misc\lv_color.h **** 
 169:c:\projects\paindrain\arduinolcd\test\pain drain\libraries\lvgl\src\misc\lv_color.h **** /*---------------------------------------
 170:c:\projects\paindrain\arduinolcd\test\pain drain\libraries\lvgl\src\misc\lv_color.h ****  * Macros for the current color depth
 171:c:\projects\paindrain\arduinolcd\test\pain drain\libraries\lvgl\src\misc\lv_color.h ****  * to set/get values of the color channels
 172:c:\projects\paindrain\arduinolcd\test\pain drain\libraries\lvgl\src\misc\lv_color.h ****  *------------------------------------------*/
 173:c:\projects\paindrain\arduinolcd\test\pain drain\libraries\lvgl\src\misc\lv_color.h **** #define LV_COLOR_SET_R(c, v) LV_CONCAT(LV_COLOR_SET_R, LV_COLOR_DEPTH)(c, v)
 174:c:\projects\paindrain\arduinolcd\test\pain drain\libraries\lvgl\src\misc\lv_color.h **** #define LV_COLOR_SET_G(c, v) LV_CONCAT(LV_COLOR_SET_G, LV_COLOR_DEPTH)(c, v)
 175:c:\projects\paindrain\arduinolcd\test\pain drain\libraries\lvgl\src\misc\lv_color.h **** #define LV_COLOR_SET_B(c, v) LV_CONCAT(LV_COLOR_SET_B, LV_COLOR_DEPTH)(c, v)
 176:c:\projects\paindrain\arduinolcd\test\pain drain\libraries\lvgl\src\misc\lv_color.h **** #define LV_COLOR_SET_A(c, v) LV_CONCAT(LV_COLOR_SET_A, LV_COLOR_DEPTH)(c, v)
 177:c:\projects\paindrain\arduinolcd\test\pain drain\libraries\lvgl\src\misc\lv_color.h **** 
 178:c:\projects\paindrain\arduinolcd\test\pain drain\libraries\lvgl\src\misc\lv_color.h **** #define LV_COLOR_GET_R(c) LV_CONCAT(LV_COLOR_GET_R, LV_COLOR_DEPTH)(c)
 179:c:\projects\paindrain\arduinolcd\test\pain drain\libraries\lvgl\src\misc\lv_color.h **** #define LV_COLOR_GET_G(c) LV_CONCAT(LV_COLOR_GET_G, LV_COLOR_DEPTH)(c)
 180:c:\projects\paindrain\arduinolcd\test\pain drain\libraries\lvgl\src\misc\lv_color.h **** #define LV_COLOR_GET_B(c) LV_CONCAT(LV_COLOR_GET_B, LV_COLOR_DEPTH)(c)
 181:c:\projects\paindrain\arduinolcd\test\pain drain\libraries\lvgl\src\misc\lv_color.h **** #define LV_COLOR_GET_A(c) LV_CONCAT(LV_COLOR_GET_A, LV_COLOR_DEPTH)(c)
 182:c:\projects\paindrain\arduinolcd\test\pain drain\libraries\lvgl\src\misc\lv_color.h **** 
 183:c:\projects\paindrain\arduinolcd\test\pain drain\libraries\lvgl\src\misc\lv_color.h **** #define _LV_COLOR_ZERO_INITIALIZER LV_CONCAT(_LV_COLOR_ZERO_INITIALIZER, LV_COLOR_DEPTH)
 184:c:\projects\paindrain\arduinolcd\test\pain drain\libraries\lvgl\src\misc\lv_color.h **** #define LV_COLOR_MAKE(r8, g8, b8) LV_CONCAT(LV_COLOR_MAKE, LV_COLOR_DEPTH)(r8, g8, b8)
 185:c:\projects\paindrain\arduinolcd\test\pain drain\libraries\lvgl\src\misc\lv_color.h **** 
 186:c:\projects\paindrain\arduinolcd\test\pain drain\libraries\lvgl\src\misc\lv_color.h **** /**********************
 187:c:\projects\paindrain\arduinolcd\test\pain drain\libraries\lvgl\src\misc\lv_color.h ****  *      TYPEDEFS
 188:c:\projects\paindrain\arduinolcd\test\pain drain\libraries\lvgl\src\misc\lv_color.h ****  **********************/
 189:c:\projects\paindrain\arduinolcd\test\pain drain\libraries\lvgl\src\misc\lv_color.h **** 
 190:c:\projects\paindrain\arduinolcd\test\pain drain\libraries\lvgl\src\misc\lv_color.h **** typedef union {
 191:c:\projects\paindrain\arduinolcd\test\pain drain\libraries\lvgl\src\misc\lv_color.h ****     uint8_t full; /*must be declared first to set all bits of byte via initializer list*/
 192:c:\projects\paindrain\arduinolcd\test\pain drain\libraries\lvgl\src\misc\lv_color.h ****     union {
 193:c:\projects\paindrain\arduinolcd\test\pain drain\libraries\lvgl\src\misc\lv_color.h ****         uint8_t blue : 1;
ARM GAS  C:\Users\haske\AppData\Local\Temp\ccydbpJh.s 			page 40


 194:c:\projects\paindrain\arduinolcd\test\pain drain\libraries\lvgl\src\misc\lv_color.h ****         uint8_t green : 1;
 195:c:\projects\paindrain\arduinolcd\test\pain drain\libraries\lvgl\src\misc\lv_color.h ****         uint8_t red : 1;
 196:c:\projects\paindrain\arduinolcd\test\pain drain\libraries\lvgl\src\misc\lv_color.h ****     } ch;
 197:c:\projects\paindrain\arduinolcd\test\pain drain\libraries\lvgl\src\misc\lv_color.h **** } lv_color1_t;
 198:c:\projects\paindrain\arduinolcd\test\pain drain\libraries\lvgl\src\misc\lv_color.h **** 
 199:c:\projects\paindrain\arduinolcd\test\pain drain\libraries\lvgl\src\misc\lv_color.h **** typedef union {
 200:c:\projects\paindrain\arduinolcd\test\pain drain\libraries\lvgl\src\misc\lv_color.h ****     struct {
 201:c:\projects\paindrain\arduinolcd\test\pain drain\libraries\lvgl\src\misc\lv_color.h ****         uint8_t blue : 2;
 202:c:\projects\paindrain\arduinolcd\test\pain drain\libraries\lvgl\src\misc\lv_color.h ****         uint8_t green : 3;
 203:c:\projects\paindrain\arduinolcd\test\pain drain\libraries\lvgl\src\misc\lv_color.h ****         uint8_t red : 3;
 204:c:\projects\paindrain\arduinolcd\test\pain drain\libraries\lvgl\src\misc\lv_color.h ****     } ch;
 205:c:\projects\paindrain\arduinolcd\test\pain drain\libraries\lvgl\src\misc\lv_color.h ****     uint8_t full;
 206:c:\projects\paindrain\arduinolcd\test\pain drain\libraries\lvgl\src\misc\lv_color.h **** } lv_color8_t;
 207:c:\projects\paindrain\arduinolcd\test\pain drain\libraries\lvgl\src\misc\lv_color.h **** 
 208:c:\projects\paindrain\arduinolcd\test\pain drain\libraries\lvgl\src\misc\lv_color.h **** typedef union {
 209:c:\projects\paindrain\arduinolcd\test\pain drain\libraries\lvgl\src\misc\lv_color.h ****     struct {
 210:c:\projects\paindrain\arduinolcd\test\pain drain\libraries\lvgl\src\misc\lv_color.h **** #if LV_COLOR_16_SWAP == 0
 211:c:\projects\paindrain\arduinolcd\test\pain drain\libraries\lvgl\src\misc\lv_color.h ****         uint16_t blue : 5;
 212:c:\projects\paindrain\arduinolcd\test\pain drain\libraries\lvgl\src\misc\lv_color.h ****         uint16_t green : 6;
 213:c:\projects\paindrain\arduinolcd\test\pain drain\libraries\lvgl\src\misc\lv_color.h ****         uint16_t red : 5;
 214:c:\projects\paindrain\arduinolcd\test\pain drain\libraries\lvgl\src\misc\lv_color.h **** #else
 215:c:\projects\paindrain\arduinolcd\test\pain drain\libraries\lvgl\src\misc\lv_color.h ****         uint16_t green_h : 3;
 216:c:\projects\paindrain\arduinolcd\test\pain drain\libraries\lvgl\src\misc\lv_color.h ****         uint16_t red : 5;
 217:c:\projects\paindrain\arduinolcd\test\pain drain\libraries\lvgl\src\misc\lv_color.h ****         uint16_t blue : 5;
 218:c:\projects\paindrain\arduinolcd\test\pain drain\libraries\lvgl\src\misc\lv_color.h ****         uint16_t green_l : 3;
 219:c:\projects\paindrain\arduinolcd\test\pain drain\libraries\lvgl\src\misc\lv_color.h **** #endif
 220:c:\projects\paindrain\arduinolcd\test\pain drain\libraries\lvgl\src\misc\lv_color.h ****     } ch;
 221:c:\projects\paindrain\arduinolcd\test\pain drain\libraries\lvgl\src\misc\lv_color.h ****     uint16_t full;
 222:c:\projects\paindrain\arduinolcd\test\pain drain\libraries\lvgl\src\misc\lv_color.h **** } lv_color16_t;
 223:c:\projects\paindrain\arduinolcd\test\pain drain\libraries\lvgl\src\misc\lv_color.h **** 
 224:c:\projects\paindrain\arduinolcd\test\pain drain\libraries\lvgl\src\misc\lv_color.h **** typedef union {
 225:c:\projects\paindrain\arduinolcd\test\pain drain\libraries\lvgl\src\misc\lv_color.h ****     struct {
 226:c:\projects\paindrain\arduinolcd\test\pain drain\libraries\lvgl\src\misc\lv_color.h ****         uint8_t blue;
 227:c:\projects\paindrain\arduinolcd\test\pain drain\libraries\lvgl\src\misc\lv_color.h ****         uint8_t green;
 228:c:\projects\paindrain\arduinolcd\test\pain drain\libraries\lvgl\src\misc\lv_color.h ****         uint8_t red;
 229:c:\projects\paindrain\arduinolcd\test\pain drain\libraries\lvgl\src\misc\lv_color.h ****         uint8_t alpha;
 230:c:\projects\paindrain\arduinolcd\test\pain drain\libraries\lvgl\src\misc\lv_color.h ****     } ch;
 231:c:\projects\paindrain\arduinolcd\test\pain drain\libraries\lvgl\src\misc\lv_color.h ****     uint32_t full;
 232:c:\projects\paindrain\arduinolcd\test\pain drain\libraries\lvgl\src\misc\lv_color.h **** } lv_color32_t;
 233:c:\projects\paindrain\arduinolcd\test\pain drain\libraries\lvgl\src\misc\lv_color.h **** 
 234:c:\projects\paindrain\arduinolcd\test\pain drain\libraries\lvgl\src\misc\lv_color.h **** typedef LV_CONCAT3(uint, LV_COLOR_SIZE, _t) lv_color_int_t;
 235:c:\projects\paindrain\arduinolcd\test\pain drain\libraries\lvgl\src\misc\lv_color.h **** typedef LV_CONCAT3(lv_color, LV_COLOR_DEPTH, _t) lv_color_t;
 236:c:\projects\paindrain\arduinolcd\test\pain drain\libraries\lvgl\src\misc\lv_color.h **** 
 237:c:\projects\paindrain\arduinolcd\test\pain drain\libraries\lvgl\src\misc\lv_color.h **** typedef struct {
 238:c:\projects\paindrain\arduinolcd\test\pain drain\libraries\lvgl\src\misc\lv_color.h ****     uint16_t h;
 239:c:\projects\paindrain\arduinolcd\test\pain drain\libraries\lvgl\src\misc\lv_color.h ****     uint8_t s;
 240:c:\projects\paindrain\arduinolcd\test\pain drain\libraries\lvgl\src\misc\lv_color.h ****     uint8_t v;
 241:c:\projects\paindrain\arduinolcd\test\pain drain\libraries\lvgl\src\misc\lv_color.h **** } lv_color_hsv_t;
 242:c:\projects\paindrain\arduinolcd\test\pain drain\libraries\lvgl\src\misc\lv_color.h **** 
 243:c:\projects\paindrain\arduinolcd\test\pain drain\libraries\lvgl\src\misc\lv_color.h **** //! @cond Doxygen_Suppress
 244:c:\projects\paindrain\arduinolcd\test\pain drain\libraries\lvgl\src\misc\lv_color.h **** /*No idea where the guard is required but else throws warnings in the docs*/
 245:c:\projects\paindrain\arduinolcd\test\pain drain\libraries\lvgl\src\misc\lv_color.h **** typedef uint8_t lv_opa_t;
 246:c:\projects\paindrain\arduinolcd\test\pain drain\libraries\lvgl\src\misc\lv_color.h **** //! @endcond
 247:c:\projects\paindrain\arduinolcd\test\pain drain\libraries\lvgl\src\misc\lv_color.h **** 
 248:c:\projects\paindrain\arduinolcd\test\pain drain\libraries\lvgl\src\misc\lv_color.h **** struct _lv_color_filter_dsc_t;
 249:c:\projects\paindrain\arduinolcd\test\pain drain\libraries\lvgl\src\misc\lv_color.h **** 
 250:c:\projects\paindrain\arduinolcd\test\pain drain\libraries\lvgl\src\misc\lv_color.h **** typedef lv_color_t (*lv_color_filter_cb_t)(const struct _lv_color_filter_dsc_t *, lv_color_t, lv_op
ARM GAS  C:\Users\haske\AppData\Local\Temp\ccydbpJh.s 			page 41


 251:c:\projects\paindrain\arduinolcd\test\pain drain\libraries\lvgl\src\misc\lv_color.h **** 
 252:c:\projects\paindrain\arduinolcd\test\pain drain\libraries\lvgl\src\misc\lv_color.h **** typedef struct _lv_color_filter_dsc_t {
 253:c:\projects\paindrain\arduinolcd\test\pain drain\libraries\lvgl\src\misc\lv_color.h ****     lv_color_filter_cb_t filter_cb;
 254:c:\projects\paindrain\arduinolcd\test\pain drain\libraries\lvgl\src\misc\lv_color.h ****     void * user_data;
 255:c:\projects\paindrain\arduinolcd\test\pain drain\libraries\lvgl\src\misc\lv_color.h **** } lv_color_filter_dsc_t;
 256:c:\projects\paindrain\arduinolcd\test\pain drain\libraries\lvgl\src\misc\lv_color.h **** 
 257:c:\projects\paindrain\arduinolcd\test\pain drain\libraries\lvgl\src\misc\lv_color.h **** 
 258:c:\projects\paindrain\arduinolcd\test\pain drain\libraries\lvgl\src\misc\lv_color.h **** typedef enum {
 259:c:\projects\paindrain\arduinolcd\test\pain drain\libraries\lvgl\src\misc\lv_color.h ****     LV_PALETTE_RED,
 260:c:\projects\paindrain\arduinolcd\test\pain drain\libraries\lvgl\src\misc\lv_color.h ****     LV_PALETTE_PINK,
 261:c:\projects\paindrain\arduinolcd\test\pain drain\libraries\lvgl\src\misc\lv_color.h ****     LV_PALETTE_PURPLE,
 262:c:\projects\paindrain\arduinolcd\test\pain drain\libraries\lvgl\src\misc\lv_color.h ****     LV_PALETTE_DEEP_PURPLE,
 263:c:\projects\paindrain\arduinolcd\test\pain drain\libraries\lvgl\src\misc\lv_color.h ****     LV_PALETTE_INDIGO,
 264:c:\projects\paindrain\arduinolcd\test\pain drain\libraries\lvgl\src\misc\lv_color.h ****     LV_PALETTE_BLUE,
 265:c:\projects\paindrain\arduinolcd\test\pain drain\libraries\lvgl\src\misc\lv_color.h ****     LV_PALETTE_LIGHT_BLUE,
 266:c:\projects\paindrain\arduinolcd\test\pain drain\libraries\lvgl\src\misc\lv_color.h ****     LV_PALETTE_CYAN,
 267:c:\projects\paindrain\arduinolcd\test\pain drain\libraries\lvgl\src\misc\lv_color.h ****     LV_PALETTE_TEAL,
 268:c:\projects\paindrain\arduinolcd\test\pain drain\libraries\lvgl\src\misc\lv_color.h ****     LV_PALETTE_GREEN,
 269:c:\projects\paindrain\arduinolcd\test\pain drain\libraries\lvgl\src\misc\lv_color.h ****     LV_PALETTE_LIGHT_GREEN,
 270:c:\projects\paindrain\arduinolcd\test\pain drain\libraries\lvgl\src\misc\lv_color.h ****     LV_PALETTE_LIME,
 271:c:\projects\paindrain\arduinolcd\test\pain drain\libraries\lvgl\src\misc\lv_color.h ****     LV_PALETTE_YELLOW,
 272:c:\projects\paindrain\arduinolcd\test\pain drain\libraries\lvgl\src\misc\lv_color.h ****     LV_PALETTE_AMBER,
 273:c:\projects\paindrain\arduinolcd\test\pain drain\libraries\lvgl\src\misc\lv_color.h ****     LV_PALETTE_ORANGE,
 274:c:\projects\paindrain\arduinolcd\test\pain drain\libraries\lvgl\src\misc\lv_color.h ****     LV_PALETTE_DEEP_ORANGE,
 275:c:\projects\paindrain\arduinolcd\test\pain drain\libraries\lvgl\src\misc\lv_color.h ****     LV_PALETTE_BROWN,
 276:c:\projects\paindrain\arduinolcd\test\pain drain\libraries\lvgl\src\misc\lv_color.h ****     LV_PALETTE_BLUE_GREY,
 277:c:\projects\paindrain\arduinolcd\test\pain drain\libraries\lvgl\src\misc\lv_color.h ****     LV_PALETTE_GREY,
 278:c:\projects\paindrain\arduinolcd\test\pain drain\libraries\lvgl\src\misc\lv_color.h ****     _LV_PALETTE_LAST,
 279:c:\projects\paindrain\arduinolcd\test\pain drain\libraries\lvgl\src\misc\lv_color.h ****     LV_PALETTE_NONE = 0xff,
 280:c:\projects\paindrain\arduinolcd\test\pain drain\libraries\lvgl\src\misc\lv_color.h **** } lv_palette_t;
 281:c:\projects\paindrain\arduinolcd\test\pain drain\libraries\lvgl\src\misc\lv_color.h **** 
 282:c:\projects\paindrain\arduinolcd\test\pain drain\libraries\lvgl\src\misc\lv_color.h **** /**********************
 283:c:\projects\paindrain\arduinolcd\test\pain drain\libraries\lvgl\src\misc\lv_color.h ****  * GLOBAL PROTOTYPES
 284:c:\projects\paindrain\arduinolcd\test\pain drain\libraries\lvgl\src\misc\lv_color.h ****  **********************/
 285:c:\projects\paindrain\arduinolcd\test\pain drain\libraries\lvgl\src\misc\lv_color.h **** 
 286:c:\projects\paindrain\arduinolcd\test\pain drain\libraries\lvgl\src\misc\lv_color.h **** /*In color conversations:
 287:c:\projects\paindrain\arduinolcd\test\pain drain\libraries\lvgl\src\misc\lv_color.h ****  * - When converting to bigger color type the LSB weight of 1 LSB is calculated
 288:c:\projects\paindrain\arduinolcd\test\pain drain\libraries\lvgl\src\misc\lv_color.h ****  *   E.g. 16 bit Red has 5 bits
 289:c:\projects\paindrain\arduinolcd\test\pain drain\libraries\lvgl\src\misc\lv_color.h ****  *         8 bit Red has 3 bits
 290:c:\projects\paindrain\arduinolcd\test\pain drain\libraries\lvgl\src\misc\lv_color.h ****  *        ----------------------
 291:c:\projects\paindrain\arduinolcd\test\pain drain\libraries\lvgl\src\misc\lv_color.h ****  *        8 bit red LSB = (2^5 - 1) / (2^3 - 1) = 31 / 7 = 4
 292:c:\projects\paindrain\arduinolcd\test\pain drain\libraries\lvgl\src\misc\lv_color.h ****  *
 293:c:\projects\paindrain\arduinolcd\test\pain drain\libraries\lvgl\src\misc\lv_color.h ****  * - When calculating to smaller color type simply shift out the LSBs
 294:c:\projects\paindrain\arduinolcd\test\pain drain\libraries\lvgl\src\misc\lv_color.h ****  *   E.g.  8 bit Red has 3 bits
 295:c:\projects\paindrain\arduinolcd\test\pain drain\libraries\lvgl\src\misc\lv_color.h ****  *        16 bit Red has 5 bits
 296:c:\projects\paindrain\arduinolcd\test\pain drain\libraries\lvgl\src\misc\lv_color.h ****  *        ----------------------
 297:c:\projects\paindrain\arduinolcd\test\pain drain\libraries\lvgl\src\misc\lv_color.h ****  *         Shift right with 5 - 3 = 2
 298:c:\projects\paindrain\arduinolcd\test\pain drain\libraries\lvgl\src\misc\lv_color.h ****  */
 299:c:\projects\paindrain\arduinolcd\test\pain drain\libraries\lvgl\src\misc\lv_color.h **** static inline uint8_t lv_color_to1(lv_color_t color)
 300:c:\projects\paindrain\arduinolcd\test\pain drain\libraries\lvgl\src\misc\lv_color.h **** {
 301:c:\projects\paindrain\arduinolcd\test\pain drain\libraries\lvgl\src\misc\lv_color.h **** #if LV_COLOR_DEPTH == 1
 302:c:\projects\paindrain\arduinolcd\test\pain drain\libraries\lvgl\src\misc\lv_color.h ****     return color.full;
 303:c:\projects\paindrain\arduinolcd\test\pain drain\libraries\lvgl\src\misc\lv_color.h **** #elif LV_COLOR_DEPTH == 8
 304:c:\projects\paindrain\arduinolcd\test\pain drain\libraries\lvgl\src\misc\lv_color.h ****     if((LV_COLOR_GET_R(color) & 0x4) || (LV_COLOR_GET_G(color) & 0x4) || (LV_COLOR_GET_B(color) & 0
 305:c:\projects\paindrain\arduinolcd\test\pain drain\libraries\lvgl\src\misc\lv_color.h ****         return 1;
 306:c:\projects\paindrain\arduinolcd\test\pain drain\libraries\lvgl\src\misc\lv_color.h ****     }
 307:c:\projects\paindrain\arduinolcd\test\pain drain\libraries\lvgl\src\misc\lv_color.h ****     else {
ARM GAS  C:\Users\haske\AppData\Local\Temp\ccydbpJh.s 			page 42


 308:c:\projects\paindrain\arduinolcd\test\pain drain\libraries\lvgl\src\misc\lv_color.h ****         return 0;
 309:c:\projects\paindrain\arduinolcd\test\pain drain\libraries\lvgl\src\misc\lv_color.h ****     }
 310:c:\projects\paindrain\arduinolcd\test\pain drain\libraries\lvgl\src\misc\lv_color.h **** #elif LV_COLOR_DEPTH == 16
 311:c:\projects\paindrain\arduinolcd\test\pain drain\libraries\lvgl\src\misc\lv_color.h ****     if((LV_COLOR_GET_R(color) & 0x10) || (LV_COLOR_GET_G(color) & 0x20) || (LV_COLOR_GET_B(color) &
 312:c:\projects\paindrain\arduinolcd\test\pain drain\libraries\lvgl\src\misc\lv_color.h ****         return 1;
 313:c:\projects\paindrain\arduinolcd\test\pain drain\libraries\lvgl\src\misc\lv_color.h ****     }
 314:c:\projects\paindrain\arduinolcd\test\pain drain\libraries\lvgl\src\misc\lv_color.h ****     else {
 315:c:\projects\paindrain\arduinolcd\test\pain drain\libraries\lvgl\src\misc\lv_color.h ****         return 0;
 316:c:\projects\paindrain\arduinolcd\test\pain drain\libraries\lvgl\src\misc\lv_color.h ****     }
 317:c:\projects\paindrain\arduinolcd\test\pain drain\libraries\lvgl\src\misc\lv_color.h **** #elif LV_COLOR_DEPTH == 32
 318:c:\projects\paindrain\arduinolcd\test\pain drain\libraries\lvgl\src\misc\lv_color.h ****     if((LV_COLOR_GET_R(color) & 0x80) || (LV_COLOR_GET_G(color) & 0x80) || (LV_COLOR_GET_B(color) &
 319:c:\projects\paindrain\arduinolcd\test\pain drain\libraries\lvgl\src\misc\lv_color.h ****         return 1;
 320:c:\projects\paindrain\arduinolcd\test\pain drain\libraries\lvgl\src\misc\lv_color.h ****     }
 321:c:\projects\paindrain\arduinolcd\test\pain drain\libraries\lvgl\src\misc\lv_color.h ****     else {
 322:c:\projects\paindrain\arduinolcd\test\pain drain\libraries\lvgl\src\misc\lv_color.h ****         return 0;
 323:c:\projects\paindrain\arduinolcd\test\pain drain\libraries\lvgl\src\misc\lv_color.h ****     }
 324:c:\projects\paindrain\arduinolcd\test\pain drain\libraries\lvgl\src\misc\lv_color.h **** #endif
 325:c:\projects\paindrain\arduinolcd\test\pain drain\libraries\lvgl\src\misc\lv_color.h **** }
 326:c:\projects\paindrain\arduinolcd\test\pain drain\libraries\lvgl\src\misc\lv_color.h **** 
 327:c:\projects\paindrain\arduinolcd\test\pain drain\libraries\lvgl\src\misc\lv_color.h **** static inline uint8_t lv_color_to8(lv_color_t color)
 328:c:\projects\paindrain\arduinolcd\test\pain drain\libraries\lvgl\src\misc\lv_color.h **** {
 329:c:\projects\paindrain\arduinolcd\test\pain drain\libraries\lvgl\src\misc\lv_color.h **** #if LV_COLOR_DEPTH == 1
 330:c:\projects\paindrain\arduinolcd\test\pain drain\libraries\lvgl\src\misc\lv_color.h ****     if(color.full == 0)
 331:c:\projects\paindrain\arduinolcd\test\pain drain\libraries\lvgl\src\misc\lv_color.h ****         return 0;
 332:c:\projects\paindrain\arduinolcd\test\pain drain\libraries\lvgl\src\misc\lv_color.h ****     else
 333:c:\projects\paindrain\arduinolcd\test\pain drain\libraries\lvgl\src\misc\lv_color.h ****         return 0xFF;
 334:c:\projects\paindrain\arduinolcd\test\pain drain\libraries\lvgl\src\misc\lv_color.h **** #elif LV_COLOR_DEPTH == 8
 335:c:\projects\paindrain\arduinolcd\test\pain drain\libraries\lvgl\src\misc\lv_color.h ****     return color.full;
 336:c:\projects\paindrain\arduinolcd\test\pain drain\libraries\lvgl\src\misc\lv_color.h **** #elif LV_COLOR_DEPTH == 16
 337:c:\projects\paindrain\arduinolcd\test\pain drain\libraries\lvgl\src\misc\lv_color.h ****     lv_color8_t ret;
 338:c:\projects\paindrain\arduinolcd\test\pain drain\libraries\lvgl\src\misc\lv_color.h ****     LV_COLOR_SET_R8(ret, LV_COLOR_GET_R(color) >> 2); /*5 - 3  = 2*/
 339:c:\projects\paindrain\arduinolcd\test\pain drain\libraries\lvgl\src\misc\lv_color.h ****     LV_COLOR_SET_G8(ret, LV_COLOR_GET_G(color) >> 3); /*6 - 3  = 3*/
 340:c:\projects\paindrain\arduinolcd\test\pain drain\libraries\lvgl\src\misc\lv_color.h ****     LV_COLOR_SET_B8(ret, LV_COLOR_GET_B(color) >> 3); /*5 - 2  = 3*/
 341:c:\projects\paindrain\arduinolcd\test\pain drain\libraries\lvgl\src\misc\lv_color.h ****     return ret.full;
 342:c:\projects\paindrain\arduinolcd\test\pain drain\libraries\lvgl\src\misc\lv_color.h **** #elif LV_COLOR_DEPTH == 32
 343:c:\projects\paindrain\arduinolcd\test\pain drain\libraries\lvgl\src\misc\lv_color.h ****     lv_color8_t ret;
 344:c:\projects\paindrain\arduinolcd\test\pain drain\libraries\lvgl\src\misc\lv_color.h ****     LV_COLOR_SET_R8(ret, LV_COLOR_GET_R(color) >> 5); /*8 - 3  = 5*/
 345:c:\projects\paindrain\arduinolcd\test\pain drain\libraries\lvgl\src\misc\lv_color.h ****     LV_COLOR_SET_G8(ret, LV_COLOR_GET_G(color) >> 5); /*8 - 3  = 5*/
 346:c:\projects\paindrain\arduinolcd\test\pain drain\libraries\lvgl\src\misc\lv_color.h ****     LV_COLOR_SET_B8(ret, LV_COLOR_GET_B(color) >> 6); /*8 - 2  = 6*/
 347:c:\projects\paindrain\arduinolcd\test\pain drain\libraries\lvgl\src\misc\lv_color.h ****     return ret.full;
 348:c:\projects\paindrain\arduinolcd\test\pain drain\libraries\lvgl\src\misc\lv_color.h **** #endif
 349:c:\projects\paindrain\arduinolcd\test\pain drain\libraries\lvgl\src\misc\lv_color.h **** }
 350:c:\projects\paindrain\arduinolcd\test\pain drain\libraries\lvgl\src\misc\lv_color.h **** 
 351:c:\projects\paindrain\arduinolcd\test\pain drain\libraries\lvgl\src\misc\lv_color.h **** static inline uint16_t lv_color_to16(lv_color_t color)
 352:c:\projects\paindrain\arduinolcd\test\pain drain\libraries\lvgl\src\misc\lv_color.h **** {
 353:c:\projects\paindrain\arduinolcd\test\pain drain\libraries\lvgl\src\misc\lv_color.h **** #if LV_COLOR_DEPTH == 1
 354:c:\projects\paindrain\arduinolcd\test\pain drain\libraries\lvgl\src\misc\lv_color.h ****     if(color.full == 0)
 355:c:\projects\paindrain\arduinolcd\test\pain drain\libraries\lvgl\src\misc\lv_color.h ****         return 0;
 356:c:\projects\paindrain\arduinolcd\test\pain drain\libraries\lvgl\src\misc\lv_color.h ****     else
 357:c:\projects\paindrain\arduinolcd\test\pain drain\libraries\lvgl\src\misc\lv_color.h ****         return 0xFFFF;
 358:c:\projects\paindrain\arduinolcd\test\pain drain\libraries\lvgl\src\misc\lv_color.h **** #elif LV_COLOR_DEPTH == 8
 359:c:\projects\paindrain\arduinolcd\test\pain drain\libraries\lvgl\src\misc\lv_color.h ****     lv_color16_t ret;
 360:c:\projects\paindrain\arduinolcd\test\pain drain\libraries\lvgl\src\misc\lv_color.h ****     LV_COLOR_SET_R16(ret, LV_COLOR_GET_R(color) * 4);  /*(2^5 - 1)/(2^3 - 1) = 31/7 = 4*/
 361:c:\projects\paindrain\arduinolcd\test\pain drain\libraries\lvgl\src\misc\lv_color.h ****     LV_COLOR_SET_G16(ret, LV_COLOR_GET_G(color) * 9);  /*(2^6 - 1)/(2^3 - 1) = 63/7 = 9*/
 362:c:\projects\paindrain\arduinolcd\test\pain drain\libraries\lvgl\src\misc\lv_color.h ****     LV_COLOR_SET_B16(ret, LV_COLOR_GET_B(color) * 10); /*(2^5 - 1)/(2^2 - 1) = 31/3 = 10*/
 363:c:\projects\paindrain\arduinolcd\test\pain drain\libraries\lvgl\src\misc\lv_color.h ****     return ret.full;
 364:c:\projects\paindrain\arduinolcd\test\pain drain\libraries\lvgl\src\misc\lv_color.h **** #elif LV_COLOR_DEPTH == 16
ARM GAS  C:\Users\haske\AppData\Local\Temp\ccydbpJh.s 			page 43


 365:c:\projects\paindrain\arduinolcd\test\pain drain\libraries\lvgl\src\misc\lv_color.h ****     return color.full;
 366:c:\projects\paindrain\arduinolcd\test\pain drain\libraries\lvgl\src\misc\lv_color.h **** #elif LV_COLOR_DEPTH == 32
 367:c:\projects\paindrain\arduinolcd\test\pain drain\libraries\lvgl\src\misc\lv_color.h ****     lv_color16_t ret;
 368:c:\projects\paindrain\arduinolcd\test\pain drain\libraries\lvgl\src\misc\lv_color.h ****     LV_COLOR_SET_R16(ret, LV_COLOR_GET_R(color) >> 3); /*8 - 5  = 3*/
 369:c:\projects\paindrain\arduinolcd\test\pain drain\libraries\lvgl\src\misc\lv_color.h ****     LV_COLOR_SET_G16(ret, LV_COLOR_GET_G(color) >> 2); /*8 - 6  = 2*/
 370:c:\projects\paindrain\arduinolcd\test\pain drain\libraries\lvgl\src\misc\lv_color.h ****     LV_COLOR_SET_B16(ret, LV_COLOR_GET_B(color) >> 3); /*8 - 5  = 3*/
 371:c:\projects\paindrain\arduinolcd\test\pain drain\libraries\lvgl\src\misc\lv_color.h ****     return ret.full;
 372:c:\projects\paindrain\arduinolcd\test\pain drain\libraries\lvgl\src\misc\lv_color.h **** #endif
 373:c:\projects\paindrain\arduinolcd\test\pain drain\libraries\lvgl\src\misc\lv_color.h **** }
 374:c:\projects\paindrain\arduinolcd\test\pain drain\libraries\lvgl\src\misc\lv_color.h **** 
 375:c:\projects\paindrain\arduinolcd\test\pain drain\libraries\lvgl\src\misc\lv_color.h **** static inline uint32_t lv_color_to32(lv_color_t color)
 376:c:\projects\paindrain\arduinolcd\test\pain drain\libraries\lvgl\src\misc\lv_color.h **** {
 377:c:\projects\paindrain\arduinolcd\test\pain drain\libraries\lvgl\src\misc\lv_color.h **** #if LV_COLOR_DEPTH == 1
 378:c:\projects\paindrain\arduinolcd\test\pain drain\libraries\lvgl\src\misc\lv_color.h ****     if(color.full == 0)
 379:c:\projects\paindrain\arduinolcd\test\pain drain\libraries\lvgl\src\misc\lv_color.h ****         return 0xFF000000;
 380:c:\projects\paindrain\arduinolcd\test\pain drain\libraries\lvgl\src\misc\lv_color.h ****     else
 381:c:\projects\paindrain\arduinolcd\test\pain drain\libraries\lvgl\src\misc\lv_color.h ****         return 0xFFFFFFFF;
 382:c:\projects\paindrain\arduinolcd\test\pain drain\libraries\lvgl\src\misc\lv_color.h **** #elif LV_COLOR_DEPTH == 8
 383:c:\projects\paindrain\arduinolcd\test\pain drain\libraries\lvgl\src\misc\lv_color.h ****     lv_color32_t ret;
 384:c:\projects\paindrain\arduinolcd\test\pain drain\libraries\lvgl\src\misc\lv_color.h ****     LV_COLOR_SET_R32(ret, LV_COLOR_GET_R(color) * 36); /*(2^8 - 1)/(2^3 - 1) = 255/7 = 36*/
 385:c:\projects\paindrain\arduinolcd\test\pain drain\libraries\lvgl\src\misc\lv_color.h ****     LV_COLOR_SET_G32(ret, LV_COLOR_GET_G(color) * 36); /*(2^8 - 1)/(2^3 - 1) = 255/7 = 36*/
 386:c:\projects\paindrain\arduinolcd\test\pain drain\libraries\lvgl\src\misc\lv_color.h ****     LV_COLOR_SET_B32(ret, LV_COLOR_GET_B(color) * 85); /*(2^8 - 1)/(2^2 - 1) = 255/3 = 85*/
 387:c:\projects\paindrain\arduinolcd\test\pain drain\libraries\lvgl\src\misc\lv_color.h ****     LV_COLOR_SET_A32(ret, 0xFF);
 388:c:\projects\paindrain\arduinolcd\test\pain drain\libraries\lvgl\src\misc\lv_color.h ****     return ret.full;
 389:c:\projects\paindrain\arduinolcd\test\pain drain\libraries\lvgl\src\misc\lv_color.h **** #elif LV_COLOR_DEPTH == 16
 390:c:\projects\paindrain\arduinolcd\test\pain drain\libraries\lvgl\src\misc\lv_color.h ****     /**
 391:c:\projects\paindrain\arduinolcd\test\pain drain\libraries\lvgl\src\misc\lv_color.h ****      * The floating point math for conversion is:
 392:c:\projects\paindrain\arduinolcd\test\pain drain\libraries\lvgl\src\misc\lv_color.h ****      *  valueto = valuefrom * ( (2^bitsto - 1) / (float)(2^bitsfrom - 1) )
 393:c:\projects\paindrain\arduinolcd\test\pain drain\libraries\lvgl\src\misc\lv_color.h ****      * The faster integer math for conversion is:
 394:c:\projects\paindrain\arduinolcd\test\pain drain\libraries\lvgl\src\misc\lv_color.h ****      *  valueto = ( valuefrom * multiplier + adder ) >> divisor
 395:c:\projects\paindrain\arduinolcd\test\pain drain\libraries\lvgl\src\misc\lv_color.h ****      *   multiplier = FLOOR( ( (2^bitsto - 1) << divisor ) / (float)(2^bitsfrom - 1) )
 396:c:\projects\paindrain\arduinolcd\test\pain drain\libraries\lvgl\src\misc\lv_color.h ****      *
 397:c:\projects\paindrain\arduinolcd\test\pain drain\libraries\lvgl\src\misc\lv_color.h ****      * Find the first divisor where ( adder >> divisor ) <= 0
 398:c:\projects\paindrain\arduinolcd\test\pain drain\libraries\lvgl\src\misc\lv_color.h ****      *
 399:c:\projects\paindrain\arduinolcd\test\pain drain\libraries\lvgl\src\misc\lv_color.h ****      * 5-bit to 8-bit: ( 31 * multiplier + adder ) >> divisor = 255
 400:c:\projects\paindrain\arduinolcd\test\pain drain\libraries\lvgl\src\misc\lv_color.h ****      * divisor  multiplier  adder  min (0)  max (31)
 401:c:\projects\paindrain\arduinolcd\test\pain drain\libraries\lvgl\src\misc\lv_color.h ****      *       0           8      7        7       255
 402:c:\projects\paindrain\arduinolcd\test\pain drain\libraries\lvgl\src\misc\lv_color.h ****      *       1          16     14        7       255
 403:c:\projects\paindrain\arduinolcd\test\pain drain\libraries\lvgl\src\misc\lv_color.h ****      *       2          32     28        7       255
 404:c:\projects\paindrain\arduinolcd\test\pain drain\libraries\lvgl\src\misc\lv_color.h ****      *       3          65     25        3       255
 405:c:\projects\paindrain\arduinolcd\test\pain drain\libraries\lvgl\src\misc\lv_color.h ****      *       4         131     19        1       255
 406:c:\projects\paindrain\arduinolcd\test\pain drain\libraries\lvgl\src\misc\lv_color.h ****      *       5         263      7        0       255
 407:c:\projects\paindrain\arduinolcd\test\pain drain\libraries\lvgl\src\misc\lv_color.h ****      *
 408:c:\projects\paindrain\arduinolcd\test\pain drain\libraries\lvgl\src\misc\lv_color.h ****      * 6-bit to 8-bit: 255 = ( 63 * multiplier + adder ) >> divisor
 409:c:\projects\paindrain\arduinolcd\test\pain drain\libraries\lvgl\src\misc\lv_color.h ****      * divisor  multiplier  adder  min (0)  max (63)
 410:c:\projects\paindrain\arduinolcd\test\pain drain\libraries\lvgl\src\misc\lv_color.h ****      *       0           4      3        3       255
 411:c:\projects\paindrain\arduinolcd\test\pain drain\libraries\lvgl\src\misc\lv_color.h ****      *       1           8      6        3       255
 412:c:\projects\paindrain\arduinolcd\test\pain drain\libraries\lvgl\src\misc\lv_color.h ****      *       2          16     12        3       255
 413:c:\projects\paindrain\arduinolcd\test\pain drain\libraries\lvgl\src\misc\lv_color.h ****      *       3          32     24        3       255
 414:c:\projects\paindrain\arduinolcd\test\pain drain\libraries\lvgl\src\misc\lv_color.h ****      *       4          64     48        3       255
 415:c:\projects\paindrain\arduinolcd\test\pain drain\libraries\lvgl\src\misc\lv_color.h ****      *       5         129     33        1       255
 416:c:\projects\paindrain\arduinolcd\test\pain drain\libraries\lvgl\src\misc\lv_color.h ****      *       6         259      3        0       255
 417:c:\projects\paindrain\arduinolcd\test\pain drain\libraries\lvgl\src\misc\lv_color.h ****      */
 418:c:\projects\paindrain\arduinolcd\test\pain drain\libraries\lvgl\src\misc\lv_color.h **** 
 419:c:\projects\paindrain\arduinolcd\test\pain drain\libraries\lvgl\src\misc\lv_color.h ****     lv_color32_t ret;
 420:c:\projects\paindrain\arduinolcd\test\pain drain\libraries\lvgl\src\misc\lv_color.h ****     LV_COLOR_SET_R32(ret, (LV_COLOR_GET_R(color) * 263 + 7) >> 5);
 421:c:\projects\paindrain\arduinolcd\test\pain drain\libraries\lvgl\src\misc\lv_color.h ****     LV_COLOR_SET_G32(ret, (LV_COLOR_GET_G(color) * 259 + 3) >> 6);
ARM GAS  C:\Users\haske\AppData\Local\Temp\ccydbpJh.s 			page 44


 422:c:\projects\paindrain\arduinolcd\test\pain drain\libraries\lvgl\src\misc\lv_color.h ****     LV_COLOR_SET_B32(ret, (LV_COLOR_GET_B(color) * 263 + 7) >> 5);
 423:c:\projects\paindrain\arduinolcd\test\pain drain\libraries\lvgl\src\misc\lv_color.h ****     LV_COLOR_SET_A32(ret, 0xFF);
 424:c:\projects\paindrain\arduinolcd\test\pain drain\libraries\lvgl\src\misc\lv_color.h ****     return ret.full;
 425:c:\projects\paindrain\arduinolcd\test\pain drain\libraries\lvgl\src\misc\lv_color.h **** #elif LV_COLOR_DEPTH == 32
 426:c:\projects\paindrain\arduinolcd\test\pain drain\libraries\lvgl\src\misc\lv_color.h ****     return color.full;
 427:c:\projects\paindrain\arduinolcd\test\pain drain\libraries\lvgl\src\misc\lv_color.h **** #endif
 428:c:\projects\paindrain\arduinolcd\test\pain drain\libraries\lvgl\src\misc\lv_color.h **** }
 429:c:\projects\paindrain\arduinolcd\test\pain drain\libraries\lvgl\src\misc\lv_color.h **** 
 430:c:\projects\paindrain\arduinolcd\test\pain drain\libraries\lvgl\src\misc\lv_color.h **** //! @cond Doxygen_Suppress
 431:c:\projects\paindrain\arduinolcd\test\pain drain\libraries\lvgl\src\misc\lv_color.h **** 
 432:c:\projects\paindrain\arduinolcd\test\pain drain\libraries\lvgl\src\misc\lv_color.h **** /**
 433:c:\projects\paindrain\arduinolcd\test\pain drain\libraries\lvgl\src\misc\lv_color.h ****  * Mix two colors with a given ratio.
 434:c:\projects\paindrain\arduinolcd\test\pain drain\libraries\lvgl\src\misc\lv_color.h ****  * @param c1 the first color to mix (usually the foreground)
 435:c:\projects\paindrain\arduinolcd\test\pain drain\libraries\lvgl\src\misc\lv_color.h ****  * @param c2 the second color to mix (usually the background)
 436:c:\projects\paindrain\arduinolcd\test\pain drain\libraries\lvgl\src\misc\lv_color.h ****  * @param mix The ratio of the colors. 0: full `c2`, 255: full `c1`, 127: half `c1` and half`c2`
 437:c:\projects\paindrain\arduinolcd\test\pain drain\libraries\lvgl\src\misc\lv_color.h ****  * @return the mixed color
 438:c:\projects\paindrain\arduinolcd\test\pain drain\libraries\lvgl\src\misc\lv_color.h ****  */
 439:c:\projects\paindrain\arduinolcd\test\pain drain\libraries\lvgl\src\misc\lv_color.h **** LV_ATTRIBUTE_FAST_MEM static inline lv_color_t lv_color_mix(lv_color_t c1, lv_color_t c2, uint8_t m
 440:c:\projects\paindrain\arduinolcd\test\pain drain\libraries\lvgl\src\misc\lv_color.h **** {
 441:c:\projects\paindrain\arduinolcd\test\pain drain\libraries\lvgl\src\misc\lv_color.h ****     lv_color_t ret;
 442:c:\projects\paindrain\arduinolcd\test\pain drain\libraries\lvgl\src\misc\lv_color.h **** 
 443:c:\projects\paindrain\arduinolcd\test\pain drain\libraries\lvgl\src\misc\lv_color.h **** #if LV_COLOR_DEPTH == 16 && LV_COLOR_16_SWAP == 0 && LV_COLOR_MIX_ROUND_OFS == 0
 444:c:\projects\paindrain\arduinolcd\test\pain drain\libraries\lvgl\src\misc\lv_color.h ****     /*Source: https://stackoverflow.com/a/50012418/1999969*/
 445:c:\projects\paindrain\arduinolcd\test\pain drain\libraries\lvgl\src\misc\lv_color.h ****     mix = (uint32_t)((uint32_t)mix + 4) >> 3;
 882              		.loc 3 445 0
 883 0062 0432     		adds	r2, r2, #4
 884              	.LVL134:
 885 0064 D208     		lsrs	r2, r2, #3
 886              	.LVL135:
 446:c:\projects\paindrain\arduinolcd\test\pain drain\libraries\lvgl\src\misc\lv_color.h ****     uint32_t bg = (uint32_t)((uint32_t)c2.full | ((uint32_t)c2.full << 16)) &
 887              		.loc 3 446 0
 888 0066 8CB2     		uxth	r4, r1
 889 0068 2004     		lsls	r0, r4, #16
 890 006a 0443     		orrs	r4, r0
 891 006c 094B     		ldr	r3, .L61+4
 892 006e 1C40     		ands	r4, r3
 893              	.LVL136:
 447:c:\projects\paindrain\arduinolcd\test\pain drain\libraries\lvgl\src\misc\lv_color.h ****                   0x7E0F81F; /*0b00000111111000001111100000011111*/
 448:c:\projects\paindrain\arduinolcd\test\pain drain\libraries\lvgl\src\misc\lv_color.h ****     uint32_t fg = (uint32_t)((uint32_t)c1.full | ((uint32_t)c1.full << 16)) & 0x7E0F81F;
 894              		.loc 3 448 0
 895 0070 ADB2     		uxth	r5, r5
 896 0072 2E04     		lsls	r6, r5, #16
 897 0074 3543     		orrs	r5, r6
 898 0076 1D40     		ands	r5, r3
 899              	.LVL137:
 449:c:\projects\paindrain\arduinolcd\test\pain drain\libraries\lvgl\src\misc\lv_color.h ****     uint32_t result = ((((fg - bg) * mix) >> 5) + bg) & 0x7E0F81F;
 900              		.loc 3 449 0
 901 0078 2D1B     		subs	r5, r5, r4
 902              	.LVL138:
 903 007a FF20     		movs	r0, #255
 904 007c 0240     		ands	r2, r0
 905              	.LVL139:
 906 007e 6A43     		muls	r2, r5
 907 0080 5209     		lsrs	r2, r2, #5
 908 0082 A018     		adds	r0, r4, r2
 909 0084 0340     		ands	r3, r0
 910              	.LVL140:
ARM GAS  C:\Users\haske\AppData\Local\Temp\ccydbpJh.s 			page 45


 450:c:\projects\paindrain\arduinolcd\test\pain drain\libraries\lvgl\src\misc\lv_color.h ****     ret.full = (uint16_t)((result >> 16) | result);
 911              		.loc 3 450 0
 912 0086 190C     		lsrs	r1, r3, #16
 913              	.LVL141:
 914 0088 1943     		orrs	r1, r3
 915 008a 0800     		movs	r0, r1
 916              	.LVL142:
 917              	.L56:
 918              	.LBE112:
 919              	.LBE111:
 994:..\..\..\arduinoLCD\test\Pain Drain\libraries\lvgl\src\draw\sw/lv_draw_sw_blend.c **** 
 995:..\..\..\arduinoLCD\test\Pain Drain\libraries\lvgl\src\draw\sw/lv_draw_sw_blend.c ****     return lv_color_mix(fg, bg, opa);
 996:..\..\..\arduinoLCD\test\Pain Drain\libraries\lvgl\src\draw\sw/lv_draw_sw_blend.c **** }
 920              		.loc 1 996 0
 921              		@ sp needed
 922 008c 70BD     		pop	{r4, r5, r6, pc}
 923              	.L62:
 924 008e C046     		.align	2
 925              	.L61:
 926 0090 1FF8FFFF 		.word	-2017
 927 0094 1FF8E007 		.word	132184095
 928              		.cfi_endproc
 929              	.LFE167:
 930              		.size	color_blend_true_color_additive, .-color_blend_true_color_additive
 931              		.section	.text.color_blend_true_color_subtractive,"ax",%progbits
 932              		.align	2
 933              		.code	16
 934              		.thumb_func
 935              		.type	color_blend_true_color_subtractive, %function
 936              	color_blend_true_color_subtractive:
 937              	.LFB168:
 997:..\..\..\arduinoLCD\test\Pain Drain\libraries\lvgl\src\draw\sw/lv_draw_sw_blend.c **** 
 998:..\..\..\arduinoLCD\test\Pain Drain\libraries\lvgl\src\draw\sw/lv_draw_sw_blend.c **** static inline lv_color_t color_blend_true_color_subtractive(lv_color_t fg, lv_color_t bg, lv_opa_t 
 999:..\..\..\arduinoLCD\test\Pain Drain\libraries\lvgl\src\draw\sw/lv_draw_sw_blend.c **** {
 938              		.loc 1 999 0
 939              		.cfi_startproc
 940              		@ args = 0, pretend = 0, frame = 0
 941              		@ frame_needed = 0, uses_anonymous_args = 0
 942              	.LVL143:
 943 0000 70B5     		push	{r4, r5, r6, lr}
 944              		.cfi_def_cfa_offset 16
 945              		.cfi_offset 4, -16
 946              		.cfi_offset 5, -12
 947              		.cfi_offset 6, -8
 948              		.cfi_offset 14, -4
1000:..\..\..\arduinoLCD\test\Pain Drain\libraries\lvgl\src\draw\sw/lv_draw_sw_blend.c ****     if(opa <= LV_OPA_MIN) return bg;
 949              		.loc 1 1000 0
 950 0002 022A     		cmp	r2, #2
 951 0004 01D8     		bhi	.L64
 952              		.loc 1 1000 0 is_stmt 0 discriminator 1
 953 0006 081C     		adds	r0, r1, #0
 954              	.LVL144:
 955 0008 3DE0     		b	.L65
 956              	.LVL145:
 957              	.L64:
1001:..\..\..\arduinoLCD\test\Pain Drain\libraries\lvgl\src\draw\sw/lv_draw_sw_blend.c **** 
1002:..\..\..\arduinoLCD\test\Pain Drain\libraries\lvgl\src\draw\sw/lv_draw_sw_blend.c ****     int32_t tmp;
ARM GAS  C:\Users\haske\AppData\Local\Temp\ccydbpJh.s 			page 46


1003:..\..\..\arduinoLCD\test\Pain Drain\libraries\lvgl\src\draw\sw/lv_draw_sw_blend.c ****     tmp = bg.ch.red - fg.ch.red;
 958              		.loc 1 1003 0 is_stmt 1
 959 000a 0C04     		lsls	r4, r1, #16
 960 000c E50E     		lsrs	r5, r4, #27
 961 000e 0404     		lsls	r4, r0, #16
 962 0010 E40E     		lsrs	r4, r4, #27
 963 0012 2C1B     		subs	r4, r5, r4
1004:..\..\..\arduinoLCD\test\Pain Drain\libraries\lvgl\src\draw\sw/lv_draw_sw_blend.c ****     fg.ch.red = LV_MAX(tmp, 0);
 964              		.loc 1 1004 0
 965 0014 00D5     		bpl	.L66
 966 0016 0024     		movs	r4, #0
 967              	.L66:
 968 0018 E4B2     		uxtb	r4, r4
 969 001a E402     		lsls	r4, r4, #11
 970 001c 4305     		lsls	r3, r0, #21
 971 001e 5B0D     		lsrs	r3, r3, #21
 972 0020 2343     		orrs	r3, r4
1005:..\..\..\arduinoLCD\test\Pain Drain\libraries\lvgl\src\draw\sw/lv_draw_sw_blend.c **** 
1006:..\..\..\arduinoLCD\test\Pain Drain\libraries\lvgl\src\draw\sw/lv_draw_sw_blend.c **** #if LV_COLOR_16_SWAP == 0
1007:..\..\..\arduinoLCD\test\Pain Drain\libraries\lvgl\src\draw\sw/lv_draw_sw_blend.c ****     tmp = bg.ch.green - fg.ch.green;
 973              		.loc 1 1007 0
 974 0022 4C05     		lsls	r4, r1, #21
 975 0024 A00E     		lsrs	r0, r4, #26
 976              	.LVL146:
 977 0026 5C05     		lsls	r4, r3, #21
 978 0028 A40E     		lsrs	r4, r4, #26
 979 002a 041B     		subs	r4, r0, r4
1008:..\..\..\arduinoLCD\test\Pain Drain\libraries\lvgl\src\draw\sw/lv_draw_sw_blend.c ****     fg.ch.green = LV_MAX(tmp, 0);
 980              		.loc 1 1008 0
 981 002c 00D5     		bpl	.L67
 982 002e 0024     		movs	r4, #0
 983              	.L67:
 984 0030 3F20     		movs	r0, #63
 985 0032 0440     		ands	r4, r0
 986 0034 6401     		lsls	r4, r4, #5
 987 0036 1448     		ldr	r0, .L70
 988 0038 0340     		ands	r3, r0
 989 003a 2343     		orrs	r3, r4
1009:..\..\..\arduinoLCD\test\Pain Drain\libraries\lvgl\src\draw\sw/lv_draw_sw_blend.c **** #else
1010:..\..\..\arduinoLCD\test\Pain Drain\libraries\lvgl\src\draw\sw/lv_draw_sw_blend.c ****     tmp = (bg.ch.green_h << 3) + bg.ch.green_l + (fg.ch.green_h << 3) + fg.ch.green_l;
1011:..\..\..\arduinoLCD\test\Pain Drain\libraries\lvgl\src\draw\sw/lv_draw_sw_blend.c ****     tmp = LV_MAX(tmp, 0);
1012:..\..\..\arduinoLCD\test\Pain Drain\libraries\lvgl\src\draw\sw/lv_draw_sw_blend.c ****     fg.ch.green_h = tmp >> 3;
1013:..\..\..\arduinoLCD\test\Pain Drain\libraries\lvgl\src\draw\sw/lv_draw_sw_blend.c ****     fg.ch.green_l = tmp & 0x7;
1014:..\..\..\arduinoLCD\test\Pain Drain\libraries\lvgl\src\draw\sw/lv_draw_sw_blend.c **** #endif
1015:..\..\..\arduinoLCD\test\Pain Drain\libraries\lvgl\src\draw\sw/lv_draw_sw_blend.c **** 
1016:..\..\..\arduinoLCD\test\Pain Drain\libraries\lvgl\src\draw\sw/lv_draw_sw_blend.c ****     tmp = bg.ch.blue - fg.ch.blue;
 990              		.loc 1 1016 0
 991 003c C806     		lsls	r0, r1, #27
 992 003e C40E     		lsrs	r4, r0, #27
 993 0040 D806     		lsls	r0, r3, #27
 994 0042 C00E     		lsrs	r0, r0, #27
 995 0044 201A     		subs	r0, r4, r0
1017:..\..\..\arduinoLCD\test\Pain Drain\libraries\lvgl\src\draw\sw/lv_draw_sw_blend.c ****     fg.ch.blue = LV_MAX(tmp, 0);
 996              		.loc 1 1017 0
 997 0046 00D5     		bpl	.L68
 998 0048 0020     		movs	r0, #0
 999              	.L68:
ARM GAS  C:\Users\haske\AppData\Local\Temp\ccydbpJh.s 			page 47


 1000 004a 1F25     		movs	r5, #31
 1001 004c 2840     		ands	r0, r5
 1002 004e 1F24     		movs	r4, #31
 1003 0050 A343     		bics	r3, r4
 1004 0052 0343     		orrs	r3, r0
 1005 0054 1D00     		movs	r5, r3
 1006 0056 181C     		adds	r0, r3, #0
1018:..\..\..\arduinoLCD\test\Pain Drain\libraries\lvgl\src\draw\sw/lv_draw_sw_blend.c **** 
1019:..\..\..\arduinoLCD\test\Pain Drain\libraries\lvgl\src\draw\sw/lv_draw_sw_blend.c ****     if(opa == LV_OPA_COVER) return fg;
 1007              		.loc 1 1019 0
 1008 0058 FF2A     		cmp	r2, #255
 1009 005a 14D0     		beq	.L65
 1010              	.LVL147:
 1011              	.LBB113:
 1012              	.LBB114:
 445:c:\projects\paindrain\arduinolcd\test\pain drain\libraries\lvgl\src\misc\lv_color.h ****     uint32_t bg = (uint32_t)((uint32_t)c2.full | ((uint32_t)c2.full << 16)) &
 1013              		.loc 3 445 0
 1014 005c 0432     		adds	r2, r2, #4
 1015              	.LVL148:
 1016 005e D208     		lsrs	r2, r2, #3
 1017              	.LVL149:
 446:c:\projects\paindrain\arduinolcd\test\pain drain\libraries\lvgl\src\misc\lv_color.h ****                   0x7E0F81F; /*0b00000111111000001111100000011111*/
 1018              		.loc 3 446 0
 1019 0060 8CB2     		uxth	r4, r1
 1020 0062 2004     		lsls	r0, r4, #16
 1021 0064 0443     		orrs	r4, r0
 1022 0066 094B     		ldr	r3, .L70+4
 1023 0068 1C40     		ands	r4, r3
 1024              	.LVL150:
 448:c:\projects\paindrain\arduinolcd\test\pain drain\libraries\lvgl\src\misc\lv_color.h ****     uint32_t result = ((((fg - bg) * mix) >> 5) + bg) & 0x7E0F81F;
 1025              		.loc 3 448 0
 1026 006a ADB2     		uxth	r5, r5
 1027 006c 2E04     		lsls	r6, r5, #16
 1028 006e 3543     		orrs	r5, r6
 1029 0070 1D40     		ands	r5, r3
 1030              	.LVL151:
 449:c:\projects\paindrain\arduinolcd\test\pain drain\libraries\lvgl\src\misc\lv_color.h ****     ret.full = (uint16_t)((result >> 16) | result);
 1031              		.loc 3 449 0
 1032 0072 2D1B     		subs	r5, r5, r4
 1033              	.LVL152:
 1034 0074 FF20     		movs	r0, #255
 1035 0076 0240     		ands	r2, r0
 1036              	.LVL153:
 1037 0078 6A43     		muls	r2, r5
 1038 007a 5209     		lsrs	r2, r2, #5
 1039 007c A018     		adds	r0, r4, r2
 1040 007e 0340     		ands	r3, r0
 1041              	.LVL154:
 1042              		.loc 3 450 0
 1043 0080 190C     		lsrs	r1, r3, #16
 1044              	.LVL155:
 1045 0082 1943     		orrs	r1, r3
 1046 0084 0800     		movs	r0, r1
 1047              	.LVL156:
 1048              	.L65:
 1049              	.LBE114:
 1050              	.LBE113:
ARM GAS  C:\Users\haske\AppData\Local\Temp\ccydbpJh.s 			page 48


1020:..\..\..\arduinoLCD\test\Pain Drain\libraries\lvgl\src\draw\sw/lv_draw_sw_blend.c **** 
1021:..\..\..\arduinoLCD\test\Pain Drain\libraries\lvgl\src\draw\sw/lv_draw_sw_blend.c ****     return lv_color_mix(fg, bg, opa);
1022:..\..\..\arduinoLCD\test\Pain Drain\libraries\lvgl\src\draw\sw/lv_draw_sw_blend.c **** }
 1051              		.loc 1 1022 0
 1052              		@ sp needed
 1053 0086 70BD     		pop	{r4, r5, r6, pc}
 1054              	.L71:
 1055              		.align	2
 1056              	.L70:
 1057 0088 1FF8FFFF 		.word	-2017
 1058 008c 1FF8E007 		.word	132184095
 1059              		.cfi_endproc
 1060              	.LFE168:
 1061              		.size	color_blend_true_color_subtractive, .-color_blend_true_color_subtractive
 1062              		.section	.text.color_blend_true_color_multiply,"ax",%progbits
 1063              		.align	2
 1064              		.code	16
 1065              		.thumb_func
 1066              		.type	color_blend_true_color_multiply, %function
 1067              	color_blend_true_color_multiply:
 1068              	.LFB169:
1023:..\..\..\arduinoLCD\test\Pain Drain\libraries\lvgl\src\draw\sw/lv_draw_sw_blend.c **** 
1024:..\..\..\arduinoLCD\test\Pain Drain\libraries\lvgl\src\draw\sw/lv_draw_sw_blend.c **** static inline lv_color_t color_blend_true_color_multiply(lv_color_t fg, lv_color_t bg, lv_opa_t opa
1025:..\..\..\arduinoLCD\test\Pain Drain\libraries\lvgl\src\draw\sw/lv_draw_sw_blend.c **** {
 1069              		.loc 1 1025 0
 1070              		.cfi_startproc
 1071              		@ args = 0, pretend = 0, frame = 0
 1072              		@ frame_needed = 0, uses_anonymous_args = 0
 1073              	.LVL157:
 1074 0000 70B5     		push	{r4, r5, r6, lr}
 1075              		.cfi_def_cfa_offset 16
 1076              		.cfi_offset 4, -16
 1077              		.cfi_offset 5, -12
 1078              		.cfi_offset 6, -8
 1079              		.cfi_offset 14, -4
1026:..\..\..\arduinoLCD\test\Pain Drain\libraries\lvgl\src\draw\sw/lv_draw_sw_blend.c ****     if(opa <= LV_OPA_MIN) return bg;
 1080              		.loc 1 1026 0
 1081 0002 022A     		cmp	r2, #2
 1082 0004 01D8     		bhi	.L73
 1083              		.loc 1 1026 0 is_stmt 0 discriminator 1
 1084 0006 081C     		adds	r0, r1, #0
 1085              	.LVL158:
 1086 0008 38E0     		b	.L74
 1087              	.LVL159:
 1088              	.L73:
1027:..\..\..\arduinoLCD\test\Pain Drain\libraries\lvgl\src\draw\sw/lv_draw_sw_blend.c **** 
1028:..\..\..\arduinoLCD\test\Pain Drain\libraries\lvgl\src\draw\sw/lv_draw_sw_blend.c **** #if LV_COLOR_DEPTH == 32
1029:..\..\..\arduinoLCD\test\Pain Drain\libraries\lvgl\src\draw\sw/lv_draw_sw_blend.c ****     fg.ch.red = (fg.ch.red * bg.ch.red) >> 8;
1030:..\..\..\arduinoLCD\test\Pain Drain\libraries\lvgl\src\draw\sw/lv_draw_sw_blend.c ****     fg.ch.green = (fg.ch.green * bg.ch.green) >> 8;
1031:..\..\..\arduinoLCD\test\Pain Drain\libraries\lvgl\src\draw\sw/lv_draw_sw_blend.c ****     fg.ch.blue = (fg.ch.blue * bg.ch.blue) >> 8;
1032:..\..\..\arduinoLCD\test\Pain Drain\libraries\lvgl\src\draw\sw/lv_draw_sw_blend.c **** #elif LV_COLOR_DEPTH == 16
1033:..\..\..\arduinoLCD\test\Pain Drain\libraries\lvgl\src\draw\sw/lv_draw_sw_blend.c ****     fg.ch.red = (fg.ch.red * bg.ch.red) >> 5;
 1089              		.loc 1 1033 0 is_stmt 1
 1090 000a 0404     		lsls	r4, r0, #16
 1091 000c E30E     		lsrs	r3, r4, #27
 1092 000e 0C04     		lsls	r4, r1, #16
 1093 0010 E40E     		lsrs	r4, r4, #27
ARM GAS  C:\Users\haske\AppData\Local\Temp\ccydbpJh.s 			page 49


 1094 0012 5C43     		muls	r4, r3
 1095 0014 6411     		asrs	r4, r4, #5
 1096 0016 E3B2     		uxtb	r3, r4
 1097 0018 DC02     		lsls	r4, r3, #11
 1098 001a 4305     		lsls	r3, r0, #21
 1099 001c 5B0D     		lsrs	r3, r3, #21
 1100 001e 2343     		orrs	r3, r4
1034:..\..\..\arduinoLCD\test\Pain Drain\libraries\lvgl\src\draw\sw/lv_draw_sw_blend.c ****     fg.ch.blue = (fg.ch.blue * bg.ch.blue) >> 5;
 1101              		.loc 1 1034 0
 1102 0020 D806     		lsls	r0, r3, #27
 1103              	.LVL160:
 1104 0022 C40E     		lsrs	r4, r0, #27
 1105 0024 C806     		lsls	r0, r1, #27
 1106 0026 C00E     		lsrs	r0, r0, #27
 1107 0028 6043     		muls	r0, r4
 1108 002a 4011     		asrs	r0, r0, #5
 1109 002c 1F24     		movs	r4, #31
 1110 002e 2040     		ands	r0, r4
 1111 0030 A343     		bics	r3, r4
 1112 0032 0343     		orrs	r3, r0
1035:..\..\..\arduinoLCD\test\Pain Drain\libraries\lvgl\src\draw\sw/lv_draw_sw_blend.c ****     LV_COLOR_SET_G(fg, (LV_COLOR_GET_G(fg) * LV_COLOR_GET_G(bg)) >> 6);
 1113              		.loc 1 1035 0
 1114 0034 5C05     		lsls	r4, r3, #21
 1115 0036 A00E     		lsrs	r0, r4, #26
 1116 0038 4C05     		lsls	r4, r1, #21
 1117 003a A40E     		lsrs	r4, r4, #26
 1118 003c 4443     		muls	r4, r0
 1119 003e A411     		asrs	r4, r4, #6
 1120 0040 3F20     		movs	r0, #63
 1121 0042 0440     		ands	r4, r0
 1122 0044 6401     		lsls	r4, r4, #5
 1123 0046 0E48     		ldr	r0, .L76
 1124 0048 0340     		ands	r3, r0
 1125 004a 2343     		orrs	r3, r4
 1126 004c 181C     		adds	r0, r3, #0
1036:..\..\..\arduinoLCD\test\Pain Drain\libraries\lvgl\src\draw\sw/lv_draw_sw_blend.c **** #elif LV_COLOR_DEPTH == 8
1037:..\..\..\arduinoLCD\test\Pain Drain\libraries\lvgl\src\draw\sw/lv_draw_sw_blend.c ****     fg.ch.red = (fg.ch.red * bg.ch.red) >> 3;
1038:..\..\..\arduinoLCD\test\Pain Drain\libraries\lvgl\src\draw\sw/lv_draw_sw_blend.c ****     fg.ch.green = (fg.ch.green * bg.ch.green) >> 3;
1039:..\..\..\arduinoLCD\test\Pain Drain\libraries\lvgl\src\draw\sw/lv_draw_sw_blend.c ****     fg.ch.blue = (fg.ch.blue * bg.ch.blue) >> 2;
1040:..\..\..\arduinoLCD\test\Pain Drain\libraries\lvgl\src\draw\sw/lv_draw_sw_blend.c **** #endif
1041:..\..\..\arduinoLCD\test\Pain Drain\libraries\lvgl\src\draw\sw/lv_draw_sw_blend.c **** 
1042:..\..\..\arduinoLCD\test\Pain Drain\libraries\lvgl\src\draw\sw/lv_draw_sw_blend.c ****     if(opa == LV_OPA_COVER) return fg;
 1127              		.loc 1 1042 0
 1128 004e FF2A     		cmp	r2, #255
 1129 0050 14D0     		beq	.L74
 1130              	.LVL161:
 1131              	.LBB115:
 1132              	.LBB116:
 445:c:\projects\paindrain\arduinolcd\test\pain drain\libraries\lvgl\src\misc\lv_color.h ****     uint32_t bg = (uint32_t)((uint32_t)c2.full | ((uint32_t)c2.full << 16)) &
 1133              		.loc 3 445 0
 1134 0052 0432     		adds	r2, r2, #4
 1135              	.LVL162:
 1136 0054 D208     		lsrs	r2, r2, #3
 1137              	.LVL163:
 446:c:\projects\paindrain\arduinolcd\test\pain drain\libraries\lvgl\src\misc\lv_color.h ****                   0x7E0F81F; /*0b00000111111000001111100000011111*/
 1138              		.loc 3 446 0
 1139 0056 8DB2     		uxth	r5, r1
ARM GAS  C:\Users\haske\AppData\Local\Temp\ccydbpJh.s 			page 50


 1140 0058 2804     		lsls	r0, r5, #16
 1141 005a 0543     		orrs	r5, r0
 1142 005c 094C     		ldr	r4, .L76+4
 1143 005e 2540     		ands	r5, r4
 1144              	.LVL164:
 448:c:\projects\paindrain\arduinolcd\test\pain drain\libraries\lvgl\src\misc\lv_color.h ****     uint32_t result = ((((fg - bg) * mix) >> 5) + bg) & 0x7E0F81F;
 1145              		.loc 3 448 0
 1146 0060 98B2     		uxth	r0, r3
 1147 0062 0604     		lsls	r6, r0, #16
 1148 0064 0643     		orrs	r6, r0
 1149 0066 2640     		ands	r6, r4
 1150              	.LVL165:
 449:c:\projects\paindrain\arduinolcd\test\pain drain\libraries\lvgl\src\misc\lv_color.h ****     ret.full = (uint16_t)((result >> 16) | result);
 1151              		.loc 3 449 0
 1152 0068 761B     		subs	r6, r6, r5
 1153              	.LVL166:
 1154 006a FF23     		movs	r3, #255
 1155 006c 1340     		ands	r3, r2
 1156 006e 7343     		muls	r3, r6
 1157 0070 5B09     		lsrs	r3, r3, #5
 1158 0072 E818     		adds	r0, r5, r3
 1159              	.LVL167:
 1160 0074 0440     		ands	r4, r0
 1161              	.LVL168:
 1162              		.loc 3 450 0
 1163 0076 210C     		lsrs	r1, r4, #16
 1164              	.LVL169:
 1165 0078 2143     		orrs	r1, r4
 1166 007a 0800     		movs	r0, r1
 1167              	.LVL170:
 1168              	.L74:
 1169              	.LBE116:
 1170              	.LBE115:
1043:..\..\..\arduinoLCD\test\Pain Drain\libraries\lvgl\src\draw\sw/lv_draw_sw_blend.c **** 
1044:..\..\..\arduinoLCD\test\Pain Drain\libraries\lvgl\src\draw\sw/lv_draw_sw_blend.c ****     return lv_color_mix(fg, bg, opa);
1045:..\..\..\arduinoLCD\test\Pain Drain\libraries\lvgl\src\draw\sw/lv_draw_sw_blend.c **** }
 1171              		.loc 1 1045 0
 1172              		@ sp needed
 1173 007c 70BD     		pop	{r4, r5, r6, pc}
 1174              	.L77:
 1175 007e C046     		.align	2
 1176              	.L76:
 1177 0080 1FF8FFFF 		.word	-2017
 1178 0084 1FF8E007 		.word	132184095
 1179              		.cfi_endproc
 1180              	.LFE169:
 1181              		.size	color_blend_true_color_multiply, .-color_blend_true_color_multiply
 1182              		.section	.text.fill_set_px,"ax",%progbits
 1183              		.align	2
 1184              		.code	16
 1185              		.thumb_func
 1186              		.type	fill_set_px, %function
 1187              	fill_set_px:
 1188              	.LFB161:
 209:..\..\..\arduinoLCD\test\Pain Drain\libraries\lvgl\src\draw\sw/lv_draw_sw_blend.c ****     lv_disp_t * disp = _lv_refr_get_disp_refreshing();
 1189              		.loc 1 209 0
 1190              		.cfi_startproc
ARM GAS  C:\Users\haske\AppData\Local\Temp\ccydbpJh.s 			page 51


 1191              		@ args = 12, pretend = 0, frame = 24
 1192              		@ frame_needed = 0, uses_anonymous_args = 0
 1193              	.LVL171:
 1194 0000 F0B5     		push	{r4, r5, r6, r7, lr}
 1195              		.cfi_def_cfa_offset 20
 1196              		.cfi_offset 4, -20
 1197              		.cfi_offset 5, -16
 1198              		.cfi_offset 6, -12
 1199              		.cfi_offset 7, -8
 1200              		.cfi_offset 14, -4
 1201 0002 5F46     		mov	r7, fp
 1202 0004 5646     		mov	r6, r10
 1203 0006 4D46     		mov	r5, r9
 1204 0008 4446     		mov	r4, r8
 1205 000a F0B4     		push	{r4, r5, r6, r7}
 1206              		.cfi_def_cfa_offset 36
 1207              		.cfi_offset 8, -36
 1208              		.cfi_offset 9, -32
 1209              		.cfi_offset 10, -28
 1210              		.cfi_offset 11, -24
 1211 000c 8BB0     		sub	sp, sp, #44
 1212              		.cfi_def_cfa_offset 80
 1213 000e 0590     		str	r0, [sp, #20]
 1214 0010 0F00     		movs	r7, r1
 1215 0012 0692     		str	r2, [sp, #24]
 1216 0014 6A46     		mov	r2, sp
 1217              	.LVL172:
 1218 0016 D383     		strh	r3, [r2, #30]
 1219 0018 14AB     		add	r3, sp, #80
 1220              	.LVL173:
 1221 001a 1B78     		ldrb	r3, [r3]
 1222              	.LVL174:
 1223 001c 9B46     		mov	fp, r3
 1224 001e 159D     		ldr	r5, [sp, #84]
 1225 0020 16AB     		add	r3, sp, #88
 1226              	.LVL175:
 1227 0022 0022     		movs	r2, #0
 1228 0024 9B5E     		ldrsh	r3, [r3, r2]
 1229              	.LVL176:
 1230 0026 0993     		str	r3, [sp, #36]
 210:..\..\..\arduinoLCD\test\Pain Drain\libraries\lvgl\src\draw\sw/lv_draw_sw_blend.c **** 
 1231              		.loc 1 210 0
 1232 0028 FFF7FEFF 		bl	_lv_refr_get_disp_refreshing
 1233              	.LVL177:
 1234 002c 8246     		mov	r10, r0
 1235              	.LVL178:
 215:..\..\..\arduinoLCD\test\Pain Drain\libraries\lvgl\src\draw\sw/lv_draw_sw_blend.c ****         for(y = blend_area->y1; y <= blend_area->y2; y++) {
 1236              		.loc 1 215 0
 1237 002e 002D     		cmp	r5, #0
 1238 0030 28D1     		bne	.L79
 216:..\..\..\arduinoLCD\test\Pain Drain\libraries\lvgl\src\draw\sw/lv_draw_sw_blend.c ****             for(x = blend_area->x1; x <= blend_area->x2; x++) {
 1239              		.loc 1 216 0
 1240 0032 0223     		movs	r3, #2
 1241 0034 FC5E     		ldrsh	r4, [r7, r3]
 1242              	.LVL179:
 1243 0036 0494     		str	r4, [sp, #16]
 1244 0038 3C00     		movs	r4, r7
ARM GAS  C:\Users\haske\AppData\Local\Temp\ccydbpJh.s 			page 52


 1245              	.LVL180:
 1246 003a 0700     		movs	r7, r0
 1247              	.LVL181:
 1248 003c 6B46     		mov	r3, sp
 1249 003e DB8B     		ldrh	r3, [r3, #30]
 1250              	.LVL182:
 1251 0040 9946     		mov	r9, r3
 1252 0042 19E0     		b	.L80
 1253              	.LVL183:
 1254              	.L83:
 217:..\..\..\arduinoLCD\test\Pain Drain\libraries\lvgl\src\draw\sw/lv_draw_sw_blend.c ****                 disp->driver->set_px_cb(disp->driver, (void *)dest_buf, dest_stride, x, y, color, o
 1255              		.loc 1 217 0
 1256 0044 0023     		movs	r3, #0
 1257 0046 E55E     		ldrsh	r5, [r4, r3]
 1258              	.LVL184:
 1259 0048 0FE0     		b	.L81
 1260              	.LVL185:
 1261              	.L82:
 218:..\..\..\arduinoLCD\test\Pain Drain\libraries\lvgl\src\draw\sw/lv_draw_sw_blend.c ****             }
 1262              		.loc 1 218 0 discriminator 3
 1263 004a 3868     		ldr	r0, [r7]
 1264 004c C669     		ldr	r6, [r0, #28]
 1265 004e 2BB2     		sxth	r3, r5
 1266 0050 5A46     		mov	r2, fp
 1267 0052 0292     		str	r2, [sp, #8]
 1268 0054 01AA     		add	r2, sp, #4
 1269 0056 4946     		mov	r1, r9
 1270 0058 1180     		strh	r1, [r2]
 1271 005a 6A46     		mov	r2, sp
 1272 005c 1021     		movs	r1, #16
 1273 005e 525E     		ldrsh	r2, [r2, r1]
 1274 0060 0092     		str	r2, [sp]
 1275 0062 069A     		ldr	r2, [sp, #24]
 1276 0064 0599     		ldr	r1, [sp, #20]
 1277 0066 B047     		blx	r6
 1278              	.LVL186:
 217:..\..\..\arduinoLCD\test\Pain Drain\libraries\lvgl\src\draw\sw/lv_draw_sw_blend.c ****                 disp->driver->set_px_cb(disp->driver, (void *)dest_buf, dest_stride, x, y, color, o
 1279              		.loc 1 217 0 discriminator 3
 1280 0068 0135     		adds	r5, r5, #1
 1281              	.LVL187:
 1282              	.L81:
 217:..\..\..\arduinoLCD\test\Pain Drain\libraries\lvgl\src\draw\sw/lv_draw_sw_blend.c ****                 disp->driver->set_px_cb(disp->driver, (void *)dest_buf, dest_stride, x, y, color, o
 1283              		.loc 1 217 0 is_stmt 0 discriminator 1
 1284 006a 0422     		movs	r2, #4
 1285 006c A35E     		ldrsh	r3, [r4, r2]
 1286 006e 9D42     		cmp	r5, r3
 1287 0070 EBDD     		ble	.L82
 216:..\..\..\arduinoLCD\test\Pain Drain\libraries\lvgl\src\draw\sw/lv_draw_sw_blend.c ****             for(x = blend_area->x1; x <= blend_area->x2; x++) {
 1288              		.loc 1 216 0 is_stmt 1 discriminator 2
 1289 0072 049B     		ldr	r3, [sp, #16]
 1290 0074 0133     		adds	r3, r3, #1
 1291 0076 0493     		str	r3, [sp, #16]
 1292              	.LVL188:
 1293              	.L80:
 216:..\..\..\arduinoLCD\test\Pain Drain\libraries\lvgl\src\draw\sw/lv_draw_sw_blend.c ****             for(x = blend_area->x1; x <= blend_area->x2; x++) {
 1294              		.loc 1 216 0 is_stmt 0 discriminator 1
 1295 0078 0622     		movs	r2, #6
ARM GAS  C:\Users\haske\AppData\Local\Temp\ccydbpJh.s 			page 53


 1296 007a A35E     		ldrsh	r3, [r4, r2]
 1297              	.LVL189:
 1298 007c 049A     		ldr	r2, [sp, #16]
 1299 007e 9A42     		cmp	r2, r3
 1300 0080 E0DD     		ble	.L83
 1301 0082 44E0     		b	.L78
 1302              	.LVL190:
 1303              	.L79:
 1304              	.LBB117:
 1305              	.LBB118:
 1306              	.LBB119:
 125:c:\projects\paindrain\arduinolcd\test\pain drain\libraries\lvgl\src\misc\lv_area.h **** }
 1307              		.loc 2 125 0 is_stmt 1
 1308 0084 0422     		movs	r2, #4
 1309 0086 BB5E     		ldrsh	r3, [r7, r2]
 1310 0088 0022     		movs	r2, #0
 1311 008a BE5E     		ldrsh	r6, [r7, r2]
 1312 008c 9E1B     		subs	r6, r3, r6
 1313 008e 0136     		adds	r6, r6, #1
 1314              	.LVL191:
 1315              	.LBE119:
 1316              	.LBE118:
 223:..\..\..\arduinoLCD\test\Pain Drain\libraries\lvgl\src\draw\sw/lv_draw_sw_blend.c ****         int32_t h = lv_area_get_height(blend_area);
 1317              		.loc 1 223 0
 1318 0090 36B2     		sxth	r6, r6
 1319              	.LVL192:
 1320              	.LBB120:
 1321              	.LBB121:
 1322              		.loc 2 135 0
 1323 0092 0622     		movs	r2, #6
 1324 0094 BB5E     		ldrsh	r3, [r7, r2]
 1325 0096 0221     		movs	r1, #2
 1326 0098 7A5E     		ldrsh	r2, [r7, r1]
 1327 009a 9B1A     		subs	r3, r3, r2
 1328 009c 0133     		adds	r3, r3, #1
 1329              	.LVL193:
 1330              	.LBE121:
 1331              	.LBE120:
 224:..\..\..\arduinoLCD\test\Pain Drain\libraries\lvgl\src\draw\sw/lv_draw_sw_blend.c **** 
 1332              		.loc 1 224 0
 1333 009e 1BB2     		sxth	r3, r3
 1334 00a0 0893     		str	r3, [sp, #32]
 1335              	.LVL194:
 226:..\..\..\arduinoLCD\test\Pain Drain\libraries\lvgl\src\draw\sw/lv_draw_sw_blend.c ****             for(x = 0; x < w; x++) {
 1336              		.loc 1 226 0
 1337 00a2 0023     		movs	r3, #0
 1338              	.LVL195:
 1339 00a4 9846     		mov	r8, r3
 1340 00a6 3B00     		movs	r3, r7
 1341 00a8 4746     		mov	r7, r8
 1342              	.LVL196:
 1343 00aa 9846     		mov	r8, r3
 1344 00ac 2CE0     		b	.L85
 1345              	.LVL197:
 1346              	.L87:
 228:..\..\..\arduinoLCD\test\Pain Drain\libraries\lvgl\src\draw\sw/lv_draw_sw_blend.c **** 
 1347              		.loc 1 228 0
ARM GAS  C:\Users\haske\AppData\Local\Temp\ccydbpJh.s 			page 54


 1348 00ae 2A5D     		ldrb	r2, [r5, r4]
 1349 00b0 002A     		cmp	r2, #0
 1350 00b2 1CD0     		beq	.L86
 231:..\..\..\arduinoLCD\test\Pain Drain\libraries\lvgl\src\draw\sw/lv_draw_sw_blend.c ****                                             (uint32_t)((uint32_t)opa * mask[x]) >> 8);
 1351              		.loc 1 231 0
 1352 00b4 5346     		mov	r3, r10
 1353 00b6 1868     		ldr	r0, [r3]
 1354 00b8 C369     		ldr	r3, [r0, #28]
 1355 00ba 9846     		mov	r8, r3
 1356 00bc 0021     		movs	r1, #0
 1357 00be 7B5E     		ldrsh	r3, [r7, r1]
 1358 00c0 0493     		str	r3, [sp, #16]
 1359 00c2 0221     		movs	r1, #2
 1360 00c4 7B5E     		ldrsh	r3, [r7, r1]
 1361 00c6 9C46     		mov	ip, r3
 232:..\..\..\arduinoLCD\test\Pain Drain\libraries\lvgl\src\draw\sw/lv_draw_sw_blend.c ****                 }
 1362              		.loc 1 232 0
 1363 00c8 5946     		mov	r1, fp
 1364 00ca 4A43     		muls	r2, r1
 1365 00cc 120A     		lsrs	r2, r2, #8
 231:..\..\..\arduinoLCD\test\Pain Drain\libraries\lvgl\src\draw\sw/lv_draw_sw_blend.c ****                                             (uint32_t)((uint32_t)opa * mask[x]) >> 8);
 1366              		.loc 1 231 0
 1367 00ce 049B     		ldr	r3, [sp, #16]
 1368 00d0 1B19     		adds	r3, r3, r4
 1369 00d2 1BB2     		sxth	r3, r3
 1370 00d4 D2B2     		uxtb	r2, r2
 1371 00d6 0292     		str	r2, [sp, #8]
 1372 00d8 01AA     		add	r2, sp, #4
 1373 00da 6946     		mov	r1, sp
 1374 00dc C98B     		ldrh	r1, [r1, #30]
 1375              	.LVL198:
 1376 00de 1180     		strh	r1, [r2]
 1377 00e0 6246     		mov	r2, ip
 1378 00e2 4A44     		add	r2, r2, r9
 1379 00e4 12B2     		sxth	r2, r2
 1380 00e6 0092     		str	r2, [sp]
 1381 00e8 069A     		ldr	r2, [sp, #24]
 1382 00ea 0599     		ldr	r1, [sp, #20]
 1383              	.LVL199:
 1384 00ec C047     		blx	r8
 1385              	.LVL200:
 1386              	.L86:
 227:..\..\..\arduinoLCD\test\Pain Drain\libraries\lvgl\src\draw\sw/lv_draw_sw_blend.c ****                 if(mask[x]) {
 1387              		.loc 1 227 0 discriminator 2
 1388 00ee 0134     		adds	r4, r4, #1
 1389              	.LVL201:
 1390 00f0 02E0     		b	.L88
 1391              	.LVL202:
 1392              	.L89:
 1393 00f2 0024     		movs	r4, #0
 1394 00f4 B946     		mov	r9, r7
 1395 00f6 4746     		mov	r7, r8
 1396              	.LVL203:
 1397              	.L88:
 227:..\..\..\arduinoLCD\test\Pain Drain\libraries\lvgl\src\draw\sw/lv_draw_sw_blend.c ****                 if(mask[x]) {
 1398              		.loc 1 227 0 is_stmt 0 discriminator 1
 1399 00f8 B442     		cmp	r4, r6
ARM GAS  C:\Users\haske\AppData\Local\Temp\ccydbpJh.s 			page 55


 1400 00fa D8DB     		blt	.L87
 1401 00fc B846     		mov	r8, r7
 1402 00fe 4F46     		mov	r7, r9
 1403              	.LVL204:
 235:..\..\..\arduinoLCD\test\Pain Drain\libraries\lvgl\src\draw\sw/lv_draw_sw_blend.c ****         }
 1404              		.loc 1 235 0 is_stmt 1 discriminator 2
 1405 0100 099B     		ldr	r3, [sp, #36]
 1406 0102 9C46     		mov	ip, r3
 1407 0104 6544     		add	r5, r5, ip
 1408              	.LVL205:
 226:..\..\..\arduinoLCD\test\Pain Drain\libraries\lvgl\src\draw\sw/lv_draw_sw_blend.c ****             for(x = 0; x < w; x++) {
 1409              		.loc 1 226 0 discriminator 2
 1410 0106 0137     		adds	r7, r7, #1
 1411              	.LVL206:
 1412              	.L85:
 226:..\..\..\arduinoLCD\test\Pain Drain\libraries\lvgl\src\draw\sw/lv_draw_sw_blend.c ****             for(x = 0; x < w; x++) {
 1413              		.loc 1 226 0 is_stmt 0 discriminator 1
 1414 0108 089B     		ldr	r3, [sp, #32]
 1415 010a 9F42     		cmp	r7, r3
 1416 010c F1DB     		blt	.L89
 1417              	.LVL207:
 1418              	.L78:
 1419              	.LBE117:
 238:..\..\..\arduinoLCD\test\Pain Drain\libraries\lvgl\src\draw\sw/lv_draw_sw_blend.c **** 
 1420              		.loc 1 238 0 is_stmt 1
 1421 010e 0BB0     		add	sp, sp, #44
 1422              		@ sp needed
 1423              	.LVL208:
 1424              	.LVL209:
 1425 0110 3CBC     		pop	{r2, r3, r4, r5}
 1426 0112 9046     		mov	r8, r2
 1427 0114 9946     		mov	r9, r3
 1428 0116 A246     		mov	r10, r4
 1429 0118 AB46     		mov	fp, r5
 1430 011a F0BD     		pop	{r4, r5, r6, r7, pc}
 1431              		.cfi_endproc
 1432              	.LFE161:
 1433              		.size	fill_set_px, .-fill_set_px
 1434              		.section	.text.map_set_px,"ax",%progbits
 1435              		.align	2
 1436              		.code	16
 1437              		.thumb_func
 1438              		.type	map_set_px, %function
 1439              	map_set_px:
 1440              	.LFB164:
 604:..\..\..\arduinoLCD\test\Pain Drain\libraries\lvgl\src\draw\sw/lv_draw_sw_blend.c ****     lv_disp_t * disp = _lv_refr_get_disp_refreshing();
 1441              		.loc 1 604 0
 1442              		.cfi_startproc
 1443              		@ args = 16, pretend = 0, frame = 32
 1444              		@ frame_needed = 0, uses_anonymous_args = 0
 1445              	.LVL210:
 1446 0000 F0B5     		push	{r4, r5, r6, r7, lr}
 1447              		.cfi_def_cfa_offset 20
 1448              		.cfi_offset 4, -20
 1449              		.cfi_offset 5, -16
 1450              		.cfi_offset 6, -12
 1451              		.cfi_offset 7, -8
ARM GAS  C:\Users\haske\AppData\Local\Temp\ccydbpJh.s 			page 56


 1452              		.cfi_offset 14, -4
 1453 0002 5F46     		mov	r7, fp
 1454 0004 5646     		mov	r6, r10
 1455 0006 4D46     		mov	r5, r9
 1456 0008 4446     		mov	r4, r8
 1457 000a F0B4     		push	{r4, r5, r6, r7}
 1458              		.cfi_def_cfa_offset 36
 1459              		.cfi_offset 8, -36
 1460              		.cfi_offset 9, -32
 1461              		.cfi_offset 10, -28
 1462              		.cfi_offset 11, -24
 1463 000c 8DB0     		sub	sp, sp, #52
 1464              		.cfi_def_cfa_offset 88
 1465 000e 0690     		str	r0, [sp, #24]
 1466 0010 0F00     		movs	r7, r1
 1467 0012 0792     		str	r2, [sp, #28]
 1468 0014 9846     		mov	r8, r3
 1469 0016 16AB     		add	r3, sp, #88
 1470              	.LVL211:
 1471 0018 0022     		movs	r2, #0
 1472 001a 9B5E     		ldrsh	r3, [r3, r2]
 1473              	.LVL212:
 1474 001c 0A93     		str	r3, [sp, #40]
 1475 001e 17AB     		add	r3, sp, #92
 1476              	.LVL213:
 1477 0020 1B78     		ldrb	r3, [r3]
 1478              	.LVL214:
 1479 0022 0893     		str	r3, [sp, #32]
 1480 0024 189E     		ldr	r6, [sp, #96]
 1481 0026 19AB     		add	r3, sp, #100
 1482              	.LVL215:
 1483 0028 0022     		movs	r2, #0
 1484 002a 9B5E     		ldrsh	r3, [r3, r2]
 1485              	.LVL216:
 1486 002c 0B93     		str	r3, [sp, #44]
 605:..\..\..\arduinoLCD\test\Pain Drain\libraries\lvgl\src\draw\sw/lv_draw_sw_blend.c **** 
 1487              		.loc 1 605 0
 1488 002e FFF7FEFF 		bl	_lv_refr_get_disp_refreshing
 1489              	.LVL217:
 1490 0032 8346     		mov	fp, r0
 1491              	.LVL218:
 1492              	.LBB122:
 1493              	.LBB123:
 125:c:\projects\paindrain\arduinolcd\test\pain drain\libraries\lvgl\src\misc\lv_area.h **** }
 1494              		.loc 2 125 0
 1495 0034 0422     		movs	r2, #4
 1496 0036 BB5E     		ldrsh	r3, [r7, r2]
 1497 0038 0022     		movs	r2, #0
 1498 003a BD5E     		ldrsh	r5, [r7, r2]
 1499 003c 5D1B     		subs	r5, r3, r5
 1500 003e 0135     		adds	r5, r5, #1
 1501              	.LVL219:
 1502              	.LBE123:
 1503              	.LBE122:
 607:..\..\..\arduinoLCD\test\Pain Drain\libraries\lvgl\src\draw\sw/lv_draw_sw_blend.c ****     int32_t h = lv_area_get_height(dest_area);
 1504              		.loc 1 607 0
 1505 0040 2DB2     		sxth	r5, r5
ARM GAS  C:\Users\haske\AppData\Local\Temp\ccydbpJh.s 			page 57


 1506              	.LVL220:
 1507              	.LBB124:
 1508              	.LBB125:
 1509              		.loc 2 135 0
 1510 0042 0622     		movs	r2, #6
 1511 0044 BB5E     		ldrsh	r3, [r7, r2]
 1512 0046 0221     		movs	r1, #2
 1513 0048 7A5E     		ldrsh	r2, [r7, r1]
 1514 004a 9B1A     		subs	r3, r3, r2
 1515 004c 0133     		adds	r3, r3, #1
 1516              	.LVL221:
 1517              	.LBE125:
 1518              	.LBE124:
 608:..\..\..\arduinoLCD\test\Pain Drain\libraries\lvgl\src\draw\sw/lv_draw_sw_blend.c **** 
 1519              		.loc 1 608 0
 1520 004e 1BB2     		sxth	r3, r3
 1521 0050 0993     		str	r3, [sp, #36]
 1522              	.LVL222:
 613:..\..\..\arduinoLCD\test\Pain Drain\libraries\lvgl\src\draw\sw/lv_draw_sw_blend.c ****         for(y = 0; y < h; y++) {
 1523              		.loc 1 613 0
 1524 0052 002E     		cmp	r6, #0
 1525 0054 2DD0     		beq	.L99
 1526 0056 0023     		movs	r3, #0
 1527              	.LVL223:
 1528 0058 9946     		mov	r9, r3
 1529 005a 3B00     		movs	r3, r7
 1530 005c 4F46     		mov	r7, r9
 1531              	.LVL224:
 1532 005e 9946     		mov	r9, r3
 1533 0060 65E0     		b	.L92
 1534              	.LVL225:
 1535              	.L93:
 616:..\..\..\arduinoLCD\test\Pain Drain\libraries\lvgl\src\draw\sw/lv_draw_sw_blend.c ****                                         opa);
 1536              		.loc 1 616 0 discriminator 3
 1537 0062 5B46     		mov	r3, fp
 1538 0064 1868     		ldr	r0, [r3]
 1539 0066 C669     		ldr	r6, [r0, #28]
 1540 0068 0022     		movs	r2, #0
 1541 006a BB5E     		ldrsh	r3, [r7, r2]
 1542 006c 0221     		movs	r1, #2
 1543 006e 7A5E     		ldrsh	r2, [r7, r1]
 1544 0070 6100     		lsls	r1, r4, #1
 1545 0072 1B19     		adds	r3, r3, r4
 1546 0074 1BB2     		sxth	r3, r3
 1547 0076 5546     		mov	r5, r10
 1548 0078 0295     		str	r5, [sp, #8]
 1549 007a 01AD     		add	r5, sp, #4
 1550 007c AC46     		mov	ip, r5
 1551 007e 4546     		mov	r5, r8
 1552 0080 695A     		ldrh	r1, [r5, r1]
 1553 0082 6546     		mov	r5, ip
 1554 0084 2980     		strh	r1, [r5]
 1555 0086 4A44     		add	r2, r2, r9
 1556 0088 12B2     		sxth	r2, r2
 1557 008a 0092     		str	r2, [sp]
 1558 008c 079A     		ldr	r2, [sp, #28]
 1559 008e 0699     		ldr	r1, [sp, #24]
ARM GAS  C:\Users\haske\AppData\Local\Temp\ccydbpJh.s 			page 58


 1560 0090 B047     		blx	r6
 1561              	.LVL226:
 615:..\..\..\arduinoLCD\test\Pain Drain\libraries\lvgl\src\draw\sw/lv_draw_sw_blend.c ****                 disp->driver->set_px_cb(disp->driver, (void *)dest_buf, dest_stride, dest_area->x1 
 1562              		.loc 1 615 0 discriminator 3
 1563 0092 0134     		adds	r4, r4, #1
 1564              	.LVL227:
 1565 0094 03E0     		b	.L94
 1566              	.LVL228:
 1567              	.L100:
 1568 0096 0024     		movs	r4, #0
 1569 0098 4B46     		mov	r3, r9
 1570 009a A946     		mov	r9, r5
 1571 009c 0593     		str	r3, [sp, #20]
 1572              	.LVL229:
 1573              	.L94:
 615:..\..\..\arduinoLCD\test\Pain Drain\libraries\lvgl\src\draw\sw/lv_draw_sw_blend.c ****                 disp->driver->set_px_cb(disp->driver, (void *)dest_buf, dest_stride, dest_area->x1 
 1574              		.loc 1 615 0 is_stmt 0 discriminator 1
 1575 009e 059B     		ldr	r3, [sp, #20]
 1576 00a0 9C42     		cmp	r4, r3
 1577 00a2 DEDB     		blt	.L93
 1578 00a4 4D46     		mov	r5, r9
 1579 00a6 9946     		mov	r9, r3
 1580              	.LVL230:
 619:..\..\..\arduinoLCD\test\Pain Drain\libraries\lvgl\src\draw\sw/lv_draw_sw_blend.c ****         }
 1581              		.loc 1 619 0 is_stmt 1 discriminator 2
 1582 00a8 0A9B     		ldr	r3, [sp, #40]
 1583 00aa 5B00     		lsls	r3, r3, #1
 1584 00ac 9844     		add	r8, r8, r3
 1585              	.LVL231:
 614:..\..\..\arduinoLCD\test\Pain Drain\libraries\lvgl\src\draw\sw/lv_draw_sw_blend.c ****             for(x = 0; x < w; x++) {
 1586              		.loc 1 614 0 discriminator 2
 1587 00ae 0135     		adds	r5, r5, #1
 1588              	.LVL232:
 1589 00b0 05E0     		b	.L91
 1590              	.LVL233:
 1591              	.L99:
 1592 00b2 0023     		movs	r3, #0
 1593              	.LVL234:
 1594 00b4 2A00     		movs	r2, r5
 1595 00b6 1D00     		movs	r5, r3
 1596              	.LVL235:
 1597 00b8 089B     		ldr	r3, [sp, #32]
 1598 00ba 9A46     		mov	r10, r3
 1599 00bc 9146     		mov	r9, r2
 1600              	.LVL236:
 1601              	.L91:
 614:..\..\..\arduinoLCD\test\Pain Drain\libraries\lvgl\src\draw\sw/lv_draw_sw_blend.c ****             for(x = 0; x < w; x++) {
 1602              		.loc 1 614 0 is_stmt 0 discriminator 1
 1603 00be 099B     		ldr	r3, [sp, #36]
 1604 00c0 9D42     		cmp	r5, r3
 1605 00c2 E8DB     		blt	.L100
 1606 00c4 36E0     		b	.L90
 1607              	.LVL237:
 1608              	.L97:
 625:..\..\..\arduinoLCD\test\Pain Drain\libraries\lvgl\src\draw\sw/lv_draw_sw_blend.c ****                     disp->driver->set_px_cb(disp->driver, (void *)dest_buf, dest_stride, dest_area-
 1609              		.loc 1 625 0 is_stmt 1
 1610 00c6 325D     		ldrb	r2, [r6, r4]
ARM GAS  C:\Users\haske\AppData\Local\Temp\ccydbpJh.s 			page 59


 1611 00c8 002A     		cmp	r2, #0
 1612 00ca 1ED0     		beq	.L96
 626:..\..\..\arduinoLCD\test\Pain Drain\libraries\lvgl\src\draw\sw/lv_draw_sw_blend.c ****                                             (uint32_t)((uint32_t)opa * mask[x]) >> 8);
 1613              		.loc 1 626 0
 1614 00cc 5B46     		mov	r3, fp
 1615 00ce 1868     		ldr	r0, [r3]
 1616 00d0 C369     		ldr	r3, [r0, #28]
 1617 00d2 9946     		mov	r9, r3
 1618 00d4 059F     		ldr	r7, [sp, #20]
 1619 00d6 3900     		movs	r1, r7
 1620 00d8 0023     		movs	r3, #0
 1621 00da CB5E     		ldrsh	r3, [r1, r3]
 1622 00dc 3900     		movs	r1, r7
 1623 00de 0227     		movs	r7, #2
 1624 00e0 C95F     		ldrsh	r1, [r1, r7]
 1625 00e2 8C46     		mov	ip, r1
 1626 00e4 6100     		lsls	r1, r4, #1
 627:..\..\..\arduinoLCD\test\Pain Drain\libraries\lvgl\src\draw\sw/lv_draw_sw_blend.c ****                 }
 1627              		.loc 1 627 0
 1628 00e6 089F     		ldr	r7, [sp, #32]
 1629 00e8 7A43     		muls	r2, r7
 1630 00ea 120A     		lsrs	r2, r2, #8
 626:..\..\..\arduinoLCD\test\Pain Drain\libraries\lvgl\src\draw\sw/lv_draw_sw_blend.c ****                                             (uint32_t)((uint32_t)opa * mask[x]) >> 8);
 1631              		.loc 1 626 0
 1632 00ec 1B19     		adds	r3, r3, r4
 1633 00ee 1BB2     		sxth	r3, r3
 1634 00f0 D2B2     		uxtb	r2, r2
 1635 00f2 0292     		str	r2, [sp, #8]
 1636 00f4 01AA     		add	r2, sp, #4
 1637 00f6 4746     		mov	r7, r8
 1638 00f8 795A     		ldrh	r1, [r7, r1]
 1639 00fa 1180     		strh	r1, [r2]
 1640 00fc 6246     		mov	r2, ip
 1641 00fe 5244     		add	r2, r2, r10
 1642 0100 12B2     		sxth	r2, r2
 1643 0102 0092     		str	r2, [sp]
 1644 0104 079A     		ldr	r2, [sp, #28]
 1645 0106 0699     		ldr	r1, [sp, #24]
 1646 0108 C847     		blx	r9
 1647              	.LVL238:
 1648              	.L96:
 624:..\..\..\arduinoLCD\test\Pain Drain\libraries\lvgl\src\draw\sw/lv_draw_sw_blend.c ****                 if(mask[x]) {
 1649              		.loc 1 624 0 discriminator 2
 1650 010a 0134     		adds	r4, r4, #1
 1651              	.LVL239:
 1652 010c 03E0     		b	.L98
 1653              	.LVL240:
 1654              	.L101:
 1655 010e 0024     		movs	r4, #0
 1656 0110 BA46     		mov	r10, r7
 1657 0112 4B46     		mov	r3, r9
 1658 0114 0593     		str	r3, [sp, #20]
 1659              	.LVL241:
 1660              	.L98:
 624:..\..\..\arduinoLCD\test\Pain Drain\libraries\lvgl\src\draw\sw/lv_draw_sw_blend.c ****                 if(mask[x]) {
 1661              		.loc 1 624 0 is_stmt 0 discriminator 1
 1662 0116 AC42     		cmp	r4, r5
ARM GAS  C:\Users\haske\AppData\Local\Temp\ccydbpJh.s 			page 60


 1663 0118 D5DB     		blt	.L97
 1664 011a 059B     		ldr	r3, [sp, #20]
 1665 011c 9946     		mov	r9, r3
 1666 011e 5746     		mov	r7, r10
 630:..\..\..\arduinoLCD\test\Pain Drain\libraries\lvgl\src\draw\sw/lv_draw_sw_blend.c ****             src_buf += src_stride;
 1667              		.loc 1 630 0 is_stmt 1 discriminator 2
 1668 0120 0B9B     		ldr	r3, [sp, #44]
 1669 0122 9C46     		mov	ip, r3
 1670 0124 6644     		add	r6, r6, ip
 1671              	.LVL242:
 631:..\..\..\arduinoLCD\test\Pain Drain\libraries\lvgl\src\draw\sw/lv_draw_sw_blend.c ****         }
 1672              		.loc 1 631 0 discriminator 2
 1673 0126 0A9B     		ldr	r3, [sp, #40]
 1674 0128 5B00     		lsls	r3, r3, #1
 1675 012a 9844     		add	r8, r8, r3
 1676              	.LVL243:
 623:..\..\..\arduinoLCD\test\Pain Drain\libraries\lvgl\src\draw\sw/lv_draw_sw_blend.c ****             for(x = 0; x < w; x++) {
 1677              		.loc 1 623 0 discriminator 2
 1678 012c 0137     		adds	r7, r7, #1
 1679              	.LVL244:
 1680              	.L92:
 623:..\..\..\arduinoLCD\test\Pain Drain\libraries\lvgl\src\draw\sw/lv_draw_sw_blend.c ****             for(x = 0; x < w; x++) {
 1681              		.loc 1 623 0 is_stmt 0 discriminator 1
 1682 012e 099B     		ldr	r3, [sp, #36]
 1683 0130 9F42     		cmp	r7, r3
 1684 0132 ECDB     		blt	.L101
 1685              	.LVL245:
 1686              	.L90:
 634:..\..\..\arduinoLCD\test\Pain Drain\libraries\lvgl\src\draw\sw/lv_draw_sw_blend.c **** 
 1687              		.loc 1 634 0 is_stmt 1
 1688 0134 0DB0     		add	sp, sp, #52
 1689              		@ sp needed
 1690              	.LVL246:
 1691              	.LVL247:
 1692 0136 3CBC     		pop	{r2, r3, r4, r5}
 1693 0138 9046     		mov	r8, r2
 1694 013a 9946     		mov	r9, r3
 1695 013c A246     		mov	r10, r4
 1696 013e AB46     		mov	fp, r5
 1697 0140 F0BD     		pop	{r4, r5, r6, r7, pc}
 1698              		.cfi_endproc
 1699              	.LFE164:
 1700              		.size	map_set_px, .-map_set_px
 1701 0142 C046     		.section	.text.fill_normal,"ax",%progbits
 1702              		.align	2
 1703              		.code	16
 1704              		.thumb_func
 1705              		.type	fill_normal, %function
 1706              	fill_normal:
 1707              	.LFB162:
 242:..\..\..\arduinoLCD\test\Pain Drain\libraries\lvgl\src\draw\sw/lv_draw_sw_blend.c ****     int32_t w = lv_area_get_width(dest_area);
 1708              		.loc 1 242 0
 1709              		.cfi_startproc
 1710              		@ args = 12, pretend = 0, frame = 24
 1711              		@ frame_needed = 0, uses_anonymous_args = 0
 1712              	.LVL248:
 1713 0000 F0B5     		push	{r4, r5, r6, r7, lr}
ARM GAS  C:\Users\haske\AppData\Local\Temp\ccydbpJh.s 			page 61


 1714              		.cfi_def_cfa_offset 20
 1715              		.cfi_offset 4, -20
 1716              		.cfi_offset 5, -16
 1717              		.cfi_offset 6, -12
 1718              		.cfi_offset 7, -8
 1719              		.cfi_offset 14, -4
 1720 0002 5F46     		mov	r7, fp
 1721 0004 5646     		mov	r6, r10
 1722 0006 4D46     		mov	r5, r9
 1723 0008 4446     		mov	r4, r8
 1724 000a F0B4     		push	{r4, r5, r6, r7}
 1725              		.cfi_def_cfa_offset 36
 1726              		.cfi_offset 8, -36
 1727              		.cfi_offset 9, -32
 1728              		.cfi_offset 10, -28
 1729              		.cfi_offset 11, -24
 1730 000c 87B0     		sub	sp, sp, #28
 1731              		.cfi_def_cfa_offset 64
 1732 000e 0600     		movs	r6, r0
 1733 0010 0592     		str	r2, [sp, #20]
 1734 0012 1C1C     		adds	r4, r3, #0
 1735 0014 10AB     		add	r3, sp, #64
 1736              	.LVL249:
 1737 0016 1B78     		ldrb	r3, [r3]
 1738              	.LVL250:
 1739 0018 9A46     		mov	r10, r3
 1740 001a 119D     		ldr	r5, [sp, #68]
 1741 001c 12AB     		add	r3, sp, #72
 1742              	.LVL251:
 1743 001e 0022     		movs	r2, #0
 1744 0020 9B5E     		ldrsh	r3, [r3, r2]
 1745              	.LVL252:
 1746 0022 0493     		str	r3, [sp, #16]
 1747              	.LVL253:
 1748              	.LBB126:
 1749              	.LBB127:
 125:c:\projects\paindrain\arduinolcd\test\pain drain\libraries\lvgl\src\misc\lv_area.h **** }
 1750              		.loc 2 125 0
 1751 0024 0422     		movs	r2, #4
 1752 0026 8B5E     		ldrsh	r3, [r1, r2]
 1753 0028 0022     		movs	r2, #0
 1754 002a 8F5E     		ldrsh	r7, [r1, r2]
 1755 002c DF1B     		subs	r7, r3, r7
 1756 002e 0137     		adds	r7, r7, #1
 1757 0030 3FB2     		sxth	r7, r7
 1758              	.LVL254:
 1759              	.LBE127:
 1760              	.LBE126:
 243:..\..\..\arduinoLCD\test\Pain Drain\libraries\lvgl\src\draw\sw/lv_draw_sw_blend.c ****     int32_t h = lv_area_get_height(dest_area);
 1761              		.loc 1 243 0
 1762 0032 BC46     		mov	ip, r7
 1763              	.LVL255:
 1764              	.LBB128:
 1765              	.LBB129:
 1766              		.loc 2 135 0
 1767 0034 0622     		movs	r2, #6
 1768 0036 8B5E     		ldrsh	r3, [r1, r2]
ARM GAS  C:\Users\haske\AppData\Local\Temp\ccydbpJh.s 			page 62


 1769 0038 0222     		movs	r2, #2
 1770 003a 8A5E     		ldrsh	r2, [r1, r2]
 1771              	.LVL256:
 1772 003c 9B1A     		subs	r3, r3, r2
 1773 003e 0133     		adds	r3, r3, #1
 1774              	.LVL257:
 1775              	.LBE129:
 1776              	.LBE128:
 244:..\..\..\arduinoLCD\test\Pain Drain\libraries\lvgl\src\draw\sw/lv_draw_sw_blend.c **** 
 1777              		.loc 1 244 0
 1778 0040 1BB2     		sxth	r3, r3
 1779 0042 0393     		str	r3, [sp, #12]
 1780              	.LVL258:
 250:..\..\..\arduinoLCD\test\Pain Drain\libraries\lvgl\src\draw\sw/lv_draw_sw_blend.c ****         if(opa >= LV_OPA_MAX) {
 1781              		.loc 1 250 0
 1782 0044 002D     		cmp	r5, #0
 1783 0046 00D0     		beq	.LCB2090
 1784 0048 9BE0     		b	.L103	@long jump
 1785              	.LCB2090:
 251:..\..\..\arduinoLCD\test\Pain Drain\libraries\lvgl\src\draw\sw/lv_draw_sw_blend.c ****             for(y = 0; y < h; y++) {
 1786              		.loc 1 251 0
 1787 004a 5346     		mov	r3, r10
 1788              	.LVL259:
 1789 004c FC2B     		cmp	r3, #252
 1790 004e 0AD8     		bhi	.L146
 1791 0050 12E0     		b	.L151
 1792              	.LVL260:
 1793              	.L106:
 253:..\..\..\arduinoLCD\test\Pain Drain\libraries\lvgl\src\draw\sw/lv_draw_sw_blend.c ****                 dest_buf += dest_stride;
 1794              		.loc 1 253 0 discriminator 3
 1795 0052 4246     		mov	r2, r8
 1796 0054 6B46     		mov	r3, sp
 1797 0056 1988     		ldrh	r1, [r3]
 1798 0058 3000     		movs	r0, r6
 1799 005a FFF7FEFF 		bl	lv_color_fill
 1800              	.LVL261:
 254:..\..\..\arduinoLCD\test\Pain Drain\libraries\lvgl\src\draw\sw/lv_draw_sw_blend.c ****             }
 1801              		.loc 1 254 0 discriminator 3
 1802 005e 7B00     		lsls	r3, r7, #1
 1803 0060 F618     		adds	r6, r6, r3
 1804              	.LVL262:
 252:..\..\..\arduinoLCD\test\Pain Drain\libraries\lvgl\src\draw\sw/lv_draw_sw_blend.c ****                 lv_color_fill(dest_buf, color, w);
 1805              		.loc 1 252 0 discriminator 3
 1806 0062 0135     		adds	r5, r5, #1
 1807              	.LVL263:
 1808 0064 05E0     		b	.L104
 1809              	.LVL264:
 1810              	.L146:
 1811 0066 0025     		movs	r5, #0
 1812 0068 B846     		mov	r8, r7
 1813 006a 059F     		ldr	r7, [sp, #20]
 1814              	.LVL265:
 1815 006c 6B46     		mov	r3, sp
 1816              	.LVL266:
 1817 006e 1C80     		strh	r4, [r3]
 1818 0070 039C     		ldr	r4, [sp, #12]
 1819              	.LVL267:
ARM GAS  C:\Users\haske\AppData\Local\Temp\ccydbpJh.s 			page 63


 1820              	.L104:
 252:..\..\..\arduinoLCD\test\Pain Drain\libraries\lvgl\src\draw\sw/lv_draw_sw_blend.c ****                 lv_color_fill(dest_buf, color, w);
 1821              		.loc 1 252 0 is_stmt 0 discriminator 1
 1822 0072 A542     		cmp	r5, r4
 1823 0074 EDDB     		blt	.L106
 1824 0076 05E2     		b	.L102
 1825              	.LVL268:
 1826              	.L151:
 1827 0078 0023     		movs	r3, #0
 1828              	.LVL269:
 1829 007a 6A46     		mov	r2, sp
 1830              	.LVL270:
 1831 007c 1380     		strh	r3, [r2]
 1832              	.LVL271:
 1833              	.LBB130:
 1834              	.LBB131:
 1835              	.LBB132:
 445:c:\projects\paindrain\arduinolcd\test\pain drain\libraries\lvgl\src\misc\lv_color.h ****     uint32_t bg = (uint32_t)((uint32_t)c2.full | ((uint32_t)c2.full << 16)) &
 1836              		.loc 3 445 0 is_stmt 1
 1837 007e 5246     		mov	r2, r10
 1838 0080 0432     		adds	r2, r2, #4
 1839 0082 D208     		lsrs	r2, r2, #3
 1840              	.LVL272:
 446:c:\projects\paindrain\arduinolcd\test\pain drain\libraries\lvgl\src\misc\lv_color.h ****                   0x7E0F81F; /*0b00000111111000001111100000011111*/
 1841              		.loc 3 446 0
 1842 0084 D448     		ldr	r0, .L153
 1843              	.LVL273:
 448:c:\projects\paindrain\arduinolcd\test\pain drain\libraries\lvgl\src\misc\lv_color.h ****     uint32_t result = ((((fg - bg) * mix) >> 5) + bg) & 0x7E0F81F;
 1844              		.loc 3 448 0
 1845 0086 A1B2     		uxth	r1, r4
 1846 0088 0B04     		lsls	r3, r1, #16
 1847              	.LVL274:
 1848 008a 1943     		orrs	r1, r3
 1849              	.LVL275:
 449:c:\projects\paindrain\arduinolcd\test\pain drain\libraries\lvgl\src\misc\lv_color.h ****     ret.full = (uint16_t)((result >> 16) | result);
 1850              		.loc 3 449 0
 1851 008c 0140     		ands	r1, r0
 1852              	.LVL276:
 1853 008e FF23     		movs	r3, #255
 1854 0090 1340     		ands	r3, r2
 1855 0092 4B43     		muls	r3, r1
 1856 0094 5B09     		lsrs	r3, r3, #5
 1857 0096 0340     		ands	r3, r0
 1858              	.LVL277:
 1859              		.loc 3 450 0
 1860 0098 190C     		lsrs	r1, r3, #16
 1861              	.LVL278:
 1862 009a 0B43     		orrs	r3, r1
 1863              	.LVL279:
 1864              	.LBE132:
 1865              	.LBE131:
 266:..\..\..\arduinoLCD\test\Pain Drain\libraries\lvgl\src\draw\sw/lv_draw_sw_blend.c ****             opa = opa << 3;
 1866              		.loc 1 266 0
 1867 009c D2B2     		uxtb	r2, r2
 1868              	.LVL280:
 267:..\..\..\arduinoLCD\test\Pain Drain\libraries\lvgl\src\draw\sw/lv_draw_sw_blend.c **** #endif
 1869              		.loc 1 267 0
ARM GAS  C:\Users\haske\AppData\Local\Temp\ccydbpJh.s 			page 64


 1870 009e D200     		lsls	r2, r2, #3
 1871              	.LVL281:
 1872 00a0 D2B2     		uxtb	r2, r2
 1873              	.LVL282:
 1874              	.LBB133:
 1875              	.LBB134:
 451:c:\projects\paindrain\arduinolcd\test\pain drain\libraries\lvgl\src\misc\lv_color.h **** #elif LV_COLOR_DEPTH != 1
 452:c:\projects\paindrain\arduinolcd\test\pain drain\libraries\lvgl\src\misc\lv_color.h ****     /*LV_COLOR_DEPTH == 8, 16 or 32*/
 453:c:\projects\paindrain\arduinolcd\test\pain drain\libraries\lvgl\src\misc\lv_color.h ****     LV_COLOR_SET_R(ret, LV_UDIV255((uint16_t)LV_COLOR_GET_R(c1) * mix + LV_COLOR_GET_R(c2) *
 454:c:\projects\paindrain\arduinolcd\test\pain drain\libraries\lvgl\src\misc\lv_color.h ****                                    (255 - mix) + LV_COLOR_MIX_ROUND_OFS));
 455:c:\projects\paindrain\arduinolcd\test\pain drain\libraries\lvgl\src\misc\lv_color.h ****     LV_COLOR_SET_G(ret, LV_UDIV255((uint16_t)LV_COLOR_GET_G(c1) * mix + LV_COLOR_GET_G(c2) *
 456:c:\projects\paindrain\arduinolcd\test\pain drain\libraries\lvgl\src\misc\lv_color.h ****                                    (255 - mix) + LV_COLOR_MIX_ROUND_OFS));
 457:c:\projects\paindrain\arduinolcd\test\pain drain\libraries\lvgl\src\misc\lv_color.h ****     LV_COLOR_SET_B(ret, LV_UDIV255((uint16_t)LV_COLOR_GET_B(c1) * mix + LV_COLOR_GET_B(c2) *
 458:c:\projects\paindrain\arduinolcd\test\pain drain\libraries\lvgl\src\misc\lv_color.h ****                                    (255 - mix) + LV_COLOR_MIX_ROUND_OFS));
 459:c:\projects\paindrain\arduinolcd\test\pain drain\libraries\lvgl\src\misc\lv_color.h ****     LV_COLOR_SET_A(ret, 0xFF);
 460:c:\projects\paindrain\arduinolcd\test\pain drain\libraries\lvgl\src\misc\lv_color.h **** #else
 461:c:\projects\paindrain\arduinolcd\test\pain drain\libraries\lvgl\src\misc\lv_color.h ****     /*LV_COLOR_DEPTH == 1*/
 462:c:\projects\paindrain\arduinolcd\test\pain drain\libraries\lvgl\src\misc\lv_color.h ****     ret.full = mix > LV_OPA_50 ? c1.full : c2.full;
 463:c:\projects\paindrain\arduinolcd\test\pain drain\libraries\lvgl\src\misc\lv_color.h **** #endif
 464:c:\projects\paindrain\arduinolcd\test\pain drain\libraries\lvgl\src\misc\lv_color.h **** 
 465:c:\projects\paindrain\arduinolcd\test\pain drain\libraries\lvgl\src\misc\lv_color.h ****     return ret;
 466:c:\projects\paindrain\arduinolcd\test\pain drain\libraries\lvgl\src\misc\lv_color.h **** }
 467:c:\projects\paindrain\arduinolcd\test\pain drain\libraries\lvgl\src\misc\lv_color.h **** 
 468:c:\projects\paindrain\arduinolcd\test\pain drain\libraries\lvgl\src\misc\lv_color.h **** LV_ATTRIBUTE_FAST_MEM static inline void lv_color_premult(lv_color_t c, uint8_t mix, uint16_t * out
 469:c:\projects\paindrain\arduinolcd\test\pain drain\libraries\lvgl\src\misc\lv_color.h **** {
 470:c:\projects\paindrain\arduinolcd\test\pain drain\libraries\lvgl\src\misc\lv_color.h **** #if LV_COLOR_DEPTH != 1
 471:c:\projects\paindrain\arduinolcd\test\pain drain\libraries\lvgl\src\misc\lv_color.h ****     out[0] = (uint16_t)LV_COLOR_GET_R(c) * mix;
 1876              		.loc 3 471 0
 1877 00a2 2704     		lsls	r7, r4, #16
 1878              	.LVL283:
 1879 00a4 FF0E     		lsrs	r7, r7, #27
 1880 00a6 91B2     		uxth	r1, r2
 1881 00a8 4F43     		muls	r7, r1
 472:c:\projects\paindrain\arduinolcd\test\pain drain\libraries\lvgl\src\misc\lv_color.h ****     out[1] = (uint16_t)LV_COLOR_GET_G(c) * mix;
 1882              		.loc 3 472 0
 1883 00aa 6505     		lsls	r5, r4, #21
 1884 00ac AD0E     		lsrs	r5, r5, #26
 1885 00ae 4D43     		muls	r5, r1
 1886 00b0 2800     		movs	r0, r5
 473:c:\projects\paindrain\arduinolcd\test\pain drain\libraries\lvgl\src\misc\lv_color.h ****     out[2] = (uint16_t)LV_COLOR_GET_B(c) * mix;
 1887              		.loc 3 473 0
 1888 00b2 E406     		lsls	r4, r4, #27
 1889              	.LVL284:
 1890 00b4 E40E     		lsrs	r4, r4, #27
 1891 00b6 4C43     		muls	r4, r1
 1892 00b8 A046     		mov	r8, r4
 1893              	.LVL285:
 1894              	.LBE134:
 1895              	.LBE133:
 272:..\..\..\arduinoLCD\test\Pain Drain\libraries\lvgl\src\draw\sw/lv_draw_sw_blend.c **** 
 1896              		.loc 1 272 0
 1897 00ba D443     		mvns	r4, r2
 1898 00bc E4B2     		uxtb	r4, r4
 1899              	.LVL286:
 274:..\..\..\arduinoLCD\test\Pain Drain\libraries\lvgl\src\draw\sw/lv_draw_sw_blend.c ****                 for(x = 0; x < w; x++) {
 1900              		.loc 1 274 0
 1901 00be 0022     		movs	r2, #0
ARM GAS  C:\Users\haske\AppData\Local\Temp\ccydbpJh.s 			page 65


 1902              	.LVL287:
 1903 00c0 9346     		mov	fp, r2
 1904 00c2 6546     		mov	r5, ip
 1905 00c4 BA46     		mov	r10, r7
 1906              	.LVL288:
 1907 00c6 0200     		movs	r2, r0
 1908              	.LVL289:
 1909 00c8 1F1C     		adds	r7, r3, #0
 1910 00ca 56E0     		b	.L108
 1911              	.LVL290:
 1912              	.L110:
 276:..\..\..\arduinoLCD\test\Pain Drain\libraries\lvgl\src\draw\sw/lv_draw_sw_blend.c ****                         last_dest_color = dest_buf[x];
 1913              		.loc 1 276 0
 1914 00cc 6B46     		mov	r3, sp
 1915              	.LVL291:
 1916 00ce 1B88     		ldrh	r3, [r3]
 1917 00d0 4200     		lsls	r2, r0, #1
 1918 00d2 019E     		ldr	r6, [sp, #4]
 1919 00d4 B346     		mov	fp, r6
 1920 00d6 5A44     		add	r2, r2, fp
 1921 00d8 1788     		ldrh	r7, [r2]
 1922              	.LVL292:
 1923 00da BB42     		cmp	r3, r7
 1924 00dc 34D0     		beq	.L109
 277:..\..\..\arduinoLCD\test\Pain Drain\libraries\lvgl\src\draw\sw/lv_draw_sw_blend.c ****                         last_res_color = lv_color_mix_premult(color_premult, dest_buf[x], opa_inv);
 1925              		.loc 1 277 0
 1926 00de 3B00     		movs	r3, r7
 1927 00e0 6E46     		mov	r6, sp
 1928 00e2 3780     		strh	r7, [r6]
 1929              	.LVL293:
 1930              	.LBB135:
 1931              	.LBB136:
 474:c:\projects\paindrain\arduinolcd\test\pain drain\libraries\lvgl\src\misc\lv_color.h **** #else
 475:c:\projects\paindrain\arduinolcd\test\pain drain\libraries\lvgl\src\misc\lv_color.h ****     (void) mix;
 476:c:\projects\paindrain\arduinolcd\test\pain drain\libraries\lvgl\src\misc\lv_color.h ****     /*Pre-multiplication can't be used with 1 bpp*/
 477:c:\projects\paindrain\arduinolcd\test\pain drain\libraries\lvgl\src\misc\lv_color.h ****     out[0] = LV_COLOR_GET_R(c);
 478:c:\projects\paindrain\arduinolcd\test\pain drain\libraries\lvgl\src\misc\lv_color.h ****     out[1] = LV_COLOR_GET_G(c);
 479:c:\projects\paindrain\arduinolcd\test\pain drain\libraries\lvgl\src\misc\lv_color.h ****     out[2] = LV_COLOR_GET_B(c);
 480:c:\projects\paindrain\arduinolcd\test\pain drain\libraries\lvgl\src\misc\lv_color.h **** #endif
 481:c:\projects\paindrain\arduinolcd\test\pain drain\libraries\lvgl\src\misc\lv_color.h **** 
 482:c:\projects\paindrain\arduinolcd\test\pain drain\libraries\lvgl\src\misc\lv_color.h **** }
 483:c:\projects\paindrain\arduinolcd\test\pain drain\libraries\lvgl\src\misc\lv_color.h **** 
 484:c:\projects\paindrain\arduinolcd\test\pain drain\libraries\lvgl\src\misc\lv_color.h **** /**
 485:c:\projects\paindrain\arduinolcd\test\pain drain\libraries\lvgl\src\misc\lv_color.h ****  * Mix two colors with a given ratio. It runs faster then `lv_color_mix` but requires some pre comp
 486:c:\projects\paindrain\arduinolcd\test\pain drain\libraries\lvgl\src\misc\lv_color.h ****  * @param premult_c1 The first color. Should be preprocessed with `lv_color_premult(c1)`
 487:c:\projects\paindrain\arduinolcd\test\pain drain\libraries\lvgl\src\misc\lv_color.h ****  * @param c2 The second color. As it is no pre computation required on it
 488:c:\projects\paindrain\arduinolcd\test\pain drain\libraries\lvgl\src\misc\lv_color.h ****  * @param mix The ratio of the colors. 0: full `c1`, 255: full `c2`, 127: half `c1` and half `c2`.
 489:c:\projects\paindrain\arduinolcd\test\pain drain\libraries\lvgl\src\misc\lv_color.h ****  *            Should be modified like mix = `255 - mix`
 490:c:\projects\paindrain\arduinolcd\test\pain drain\libraries\lvgl\src\misc\lv_color.h ****  * @return the mixed color
 491:c:\projects\paindrain\arduinolcd\test\pain drain\libraries\lvgl\src\misc\lv_color.h ****  * @note 255 won't give clearly `c1`.
 492:c:\projects\paindrain\arduinolcd\test\pain drain\libraries\lvgl\src\misc\lv_color.h ****  */
 493:c:\projects\paindrain\arduinolcd\test\pain drain\libraries\lvgl\src\misc\lv_color.h **** LV_ATTRIBUTE_FAST_MEM static inline lv_color_t lv_color_mix_premult(uint16_t * premult_c1, lv_color
 494:c:\projects\paindrain\arduinolcd\test\pain drain\libraries\lvgl\src\misc\lv_color.h **** {
 495:c:\projects\paindrain\arduinolcd\test\pain drain\libraries\lvgl\src\misc\lv_color.h ****     lv_color_t ret;
 496:c:\projects\paindrain\arduinolcd\test\pain drain\libraries\lvgl\src\misc\lv_color.h **** #if LV_COLOR_DEPTH != 1
 497:c:\projects\paindrain\arduinolcd\test\pain drain\libraries\lvgl\src\misc\lv_color.h ****     /*LV_COLOR_DEPTH == 8 or 32*/
 498:c:\projects\paindrain\arduinolcd\test\pain drain\libraries\lvgl\src\misc\lv_color.h ****     LV_COLOR_SET_R(ret, LV_UDIV255(premult_c1[0] + LV_COLOR_GET_R(c2) * mix + LV_COLOR_MIX_ROUND_OF
ARM GAS  C:\Users\haske\AppData\Local\Temp\ccydbpJh.s 			page 66


 1932              		.loc 3 498 0
 1933 00e4 FF0A     		lsrs	r7, r7, #11
 1934 00e6 6743     		muls	r7, r4
 1935 00e8 5744     		add	r7, r7, r10
 1936 00ea 3E02     		lsls	r6, r7, #8
 1937 00ec B146     		mov	r9, r6
 1938              	.LVL294:
 1939 00ee B944     		add	r9, r9, r7
 1940 00f0 4E46     		mov	r6, r9
 1941 00f2 F601     		lsls	r6, r6, #7
 1942 00f4 B146     		mov	r9, r6
 1943 00f6 4F44     		add	r7, r7, r9
 1944 00f8 FF0D     		lsrs	r7, r7, #23
 1945 00fa FFB2     		uxtb	r7, r7
 1946 00fc FF02     		lsls	r7, r7, #11
 1947              	.LVL295:
 1948 00fe 4905     		lsls	r1, r1, #21
 1949              	.LVL296:
 1950 0100 490D     		lsrs	r1, r1, #21
 1951 0102 3943     		orrs	r1, r7
 499:c:\projects\paindrain\arduinolcd\test\pain drain\libraries\lvgl\src\misc\lv_color.h ****     LV_COLOR_SET_G(ret, LV_UDIV255(premult_c1[1] + LV_COLOR_GET_G(c2) * mix + LV_COLOR_MIX_ROUND_OF
 1952              		.loc 3 499 0
 1953 0104 5F05     		lsls	r7, r3, #21
 1954 0106 BF0E     		lsrs	r7, r7, #26
 1955 0108 6743     		muls	r7, r4
 1956 010a 6744     		add	r7, r7, ip
 1957 010c 3E02     		lsls	r6, r7, #8
 1958 010e B146     		mov	r9, r6
 1959 0110 B944     		add	r9, r9, r7
 1960 0112 4E46     		mov	r6, r9
 1961 0114 F601     		lsls	r6, r6, #7
 1962 0116 B146     		mov	r9, r6
 1963 0118 4F44     		add	r7, r7, r9
 1964 011a FF0D     		lsrs	r7, r7, #23
 1965 011c 3F26     		movs	r6, #63
 1966 011e 3740     		ands	r7, r6
 1967 0120 7E01     		lsls	r6, r7, #5
 1968 0122 AE4F     		ldr	r7, .L153+4
 1969 0124 3940     		ands	r1, r7
 1970 0126 3143     		orrs	r1, r6
 500:c:\projects\paindrain\arduinolcd\test\pain drain\libraries\lvgl\src\misc\lv_color.h ****     LV_COLOR_SET_B(ret, LV_UDIV255(premult_c1[2] + LV_COLOR_GET_B(c2) * mix + LV_COLOR_MIX_ROUND_OF
 1971              		.loc 3 500 0
 1972 0128 DB06     		lsls	r3, r3, #27
 1973 012a DB0E     		lsrs	r3, r3, #27
 1974 012c 6343     		muls	r3, r4
 1975 012e 4344     		add	r3, r3, r8
 1976 0130 1F02     		lsls	r7, r3, #8
 1977 0132 FF18     		adds	r7, r7, r3
 1978 0134 FF01     		lsls	r7, r7, #7
 1979 0136 FB18     		adds	r3, r7, r3
 1980 0138 DB0D     		lsrs	r3, r3, #23
 1981 013a 1F27     		movs	r7, #31
 1982 013c 3B40     		ands	r3, r7
 1983 013e B943     		bics	r1, r7
 1984 0140 0F00     		movs	r7, r1
 1985 0142 1F43     		orrs	r7, r3
 1986 0144 391C     		adds	r1, r7, #0
ARM GAS  C:\Users\haske\AppData\Local\Temp\ccydbpJh.s 			page 67


 1987 0146 B946     		mov	r9, r7
 1988              	.LVL297:
 1989              	.L109:
 1990              	.LBE136:
 1991              	.LBE135:
 280:..\..\..\arduinoLCD\test\Pain Drain\libraries\lvgl\src\draw\sw/lv_draw_sw_blend.c ****                 }
 1992              		.loc 1 280 0 discriminator 2
 1993 0148 4B46     		mov	r3, r9
 1994 014a 1380     		strh	r3, [r2]
 275:..\..\..\arduinoLCD\test\Pain Drain\libraries\lvgl\src\draw\sw/lv_draw_sw_blend.c ****                     if(last_dest_color.full != dest_buf[x].full) {
 1995              		.loc 1 275 0 discriminator 2
 1996 014c 0130     		adds	r0, r0, #1
 1997              	.LVL298:
 1998 014e 06E0     		b	.L111
 1999              	.LVL299:
 2000              	.L147:
 2001 0150 0020     		movs	r0, #0
 2002 0152 5B46     		mov	r3, fp
 2003 0154 0293     		str	r3, [sp, #8]
 2004 0156 9446     		mov	ip, r2
 2005 0158 4946     		mov	r1, r9
 2006              	.LVL300:
 2007 015a B946     		mov	r9, r7
 2008              	.LVL301:
 2009 015c 0196     		str	r6, [sp, #4]
 2010              	.LVL302:
 2011              	.L111:
 275:..\..\..\arduinoLCD\test\Pain Drain\libraries\lvgl\src\draw\sw/lv_draw_sw_blend.c ****                     if(last_dest_color.full != dest_buf[x].full) {
 2012              		.loc 1 275 0 is_stmt 0 discriminator 1
 2013 015e A842     		cmp	r0, r5
 2014 0160 B4DB     		blt	.L110
 2015 0162 029B     		ldr	r3, [sp, #8]
 2016              	.LVL303:
 2017 0164 9B46     		mov	fp, r3
 2018 0166 6246     		mov	r2, ip
 2019 0168 4F46     		mov	r7, r9
 2020              	.LVL304:
 2021 016a 8946     		mov	r9, r1
 2022              	.LVL305:
 2023 016c 019E     		ldr	r6, [sp, #4]
 282:..\..\..\arduinoLCD\test\Pain Drain\libraries\lvgl\src\draw\sw/lv_draw_sw_blend.c ****             }
 2024              		.loc 1 282 0 is_stmt 1 discriminator 2
 2025 016e 059B     		ldr	r3, [sp, #20]
 2026 0170 5B00     		lsls	r3, r3, #1
 2027 0172 F618     		adds	r6, r6, r3
 2028              	.LVL306:
 274:..\..\..\arduinoLCD\test\Pain Drain\libraries\lvgl\src\draw\sw/lv_draw_sw_blend.c ****                 for(x = 0; x < w; x++) {
 2029              		.loc 1 274 0 discriminator 2
 2030 0174 0123     		movs	r3, #1
 2031 0176 9C46     		mov	ip, r3
 2032 0178 E344     		add	fp, fp, ip
 2033              	.LVL307:
 2034              	.L108:
 274:..\..\..\arduinoLCD\test\Pain Drain\libraries\lvgl\src\draw\sw/lv_draw_sw_blend.c ****                 for(x = 0; x < w; x++) {
 2035              		.loc 1 274 0 is_stmt 0 discriminator 1
 2036 017a 039B     		ldr	r3, [sp, #12]
 2037              	.LVL308:
ARM GAS  C:\Users\haske\AppData\Local\Temp\ccydbpJh.s 			page 68


 2038 017c 9B45     		cmp	fp, r3
 2039 017e E7DB     		blt	.L147
 2040 0180 80E1     		b	.L102
 2041              	.LVL309:
 2042              	.L103:
 2043              	.LBE130:
 2044              	.LBB137:
 289:..\..\..\arduinoLCD\test\Pain Drain\libraries\lvgl\src\draw\sw/lv_draw_sw_blend.c **** #endif
 2045              		.loc 1 289 0 is_stmt 1
 2046 0182 A3B2     		uxth	r3, r4
 2047              	.LVL310:
 2048 0184 1A04     		lsls	r2, r3, #16
 2049 0186 9946     		mov	r9, r3
 2050 0188 9144     		add	r9, r9, r2
 2051              	.LVL311:
 292:..\..\..\arduinoLCD\test\Pain Drain\libraries\lvgl\src\draw\sw/lv_draw_sw_blend.c ****             int32_t x_end4 = w - 4;
 2052              		.loc 1 292 0
 2053 018a 5346     		mov	r3, r10
 2054 018c FC2B     		cmp	r3, #252
 2055 018e 00D8     		bhi	.LCB2452
 2056 0190 14E1     		b	.L112	@long jump
 2057              	.LCB2452:
 2058              	.LBB138:
 293:..\..\..\arduinoLCD\test\Pain Drain\libraries\lvgl\src\draw\sw/lv_draw_sw_blend.c ****             for(y = 0; y < h; y++) {
 2059              		.loc 1 293 0
 2060 0192 3B1F     		subs	r3, r7, #4
 2061 0194 9846     		mov	r8, r3
 2062              	.LVL312:
 294:..\..\..\arduinoLCD\test\Pain Drain\libraries\lvgl\src\draw\sw/lv_draw_sw_blend.c ****                 for(x = 0; x < w && ((lv_uintptr_t)(mask) & 0x3); x++) {
 2063              		.loc 1 294 0
 2064 0196 0023     		movs	r3, #0
 2065              	.LVL313:
 2066 0198 9A46     		mov	r10, r3
 2067 019a 6B46     		mov	r3, sp
 2068 019c 1C80     		strh	r4, [r3]
 2069 019e 08E1     		b	.L113
 2070              	.LVL314:
 2071              	.L117:
 296:..\..\..\arduinoLCD\test\Pain Drain\libraries\lvgl\src\draw\sw/lv_draw_sw_blend.c ****                 }
 2072              		.loc 1 296 0
 2073 01a0 2A78     		ldrb	r2, [r5]
 2074 01a2 FF2A     		cmp	r2, #255
 2075 01a4 03D1     		bne	.L114
 296:..\..\..\arduinoLCD\test\Pain Drain\libraries\lvgl\src\draw\sw/lv_draw_sw_blend.c ****                 }
 2076              		.loc 1 296 0 is_stmt 0 discriminator 1
 2077 01a6 6B46     		mov	r3, sp
 2078 01a8 1B88     		ldrh	r3, [r3]
 2079              	.LVL315:
 2080 01aa 3380     		strh	r3, [r6]
 2081 01ac 17E0     		b	.L115
 2082              	.LVL316:
 2083              	.L114:
 2084              	.LBB139:
 2085              	.LBB140:
 445:c:\projects\paindrain\arduinolcd\test\pain drain\libraries\lvgl\src\misc\lv_color.h ****     uint32_t bg = (uint32_t)((uint32_t)c2.full | ((uint32_t)c2.full << 16)) &
 2086              		.loc 3 445 0 is_stmt 1 discriminator 2
 2087 01ae 0432     		adds	r2, r2, #4
ARM GAS  C:\Users\haske\AppData\Local\Temp\ccydbpJh.s 			page 69


 2088              	.LVL317:
 2089 01b0 D208     		lsrs	r2, r2, #3
 2090              	.LVL318:
 446:c:\projects\paindrain\arduinolcd\test\pain drain\libraries\lvgl\src\misc\lv_color.h ****                   0x7E0F81F; /*0b00000111111000001111100000011111*/
 2091              		.loc 3 446 0 discriminator 2
 2092 01b2 3088     		ldrh	r0, [r6]
 2093 01b4 0304     		lsls	r3, r0, #16
 2094 01b6 0343     		orrs	r3, r0
 2095 01b8 874C     		ldr	r4, .L153
 2096              	.LVL319:
 2097 01ba 2340     		ands	r3, r4
 2098              	.LVL320:
 448:c:\projects\paindrain\arduinolcd\test\pain drain\libraries\lvgl\src\misc\lv_color.h ****     uint32_t result = ((((fg - bg) * mix) >> 5) + bg) & 0x7E0F81F;
 2099              		.loc 3 448 0 discriminator 2
 2100 01bc 6946     		mov	r1, sp
 2101 01be 0888     		ldrh	r0, [r1]
 2102 01c0 8346     		mov	fp, r0
 2103 01c2 0004     		lsls	r0, r0, #16
 2104 01c4 5946     		mov	r1, fp
 2105 01c6 0843     		orrs	r0, r1
 2106 01c8 2040     		ands	r0, r4
 2107              	.LVL321:
 449:c:\projects\paindrain\arduinolcd\test\pain drain\libraries\lvgl\src\misc\lv_color.h ****     ret.full = (uint16_t)((result >> 16) | result);
 2108              		.loc 3 449 0 discriminator 2
 2109 01ca C01A     		subs	r0, r0, r3
 2110              	.LVL322:
 2111 01cc FF21     		movs	r1, #255
 2112              	.LVL323:
 2113 01ce 0A40     		ands	r2, r1
 2114              	.LVL324:
 2115 01d0 4243     		muls	r2, r0
 2116 01d2 5209     		lsrs	r2, r2, #5
 2117 01d4 9B18     		adds	r3, r3, r2
 2118              	.LVL325:
 2119 01d6 2340     		ands	r3, r4
 2120              	.LVL326:
 450:c:\projects\paindrain\arduinolcd\test\pain drain\libraries\lvgl\src\misc\lv_color.h **** #elif LV_COLOR_DEPTH != 1
 2121              		.loc 3 450 0 discriminator 2
 2122 01d8 1A0C     		lsrs	r2, r3, #16
 2123 01da 1343     		orrs	r3, r2
 2124              	.LVL327:
 2125              	.LBE140:
 2126              	.LBE139:
 296:..\..\..\arduinoLCD\test\Pain Drain\libraries\lvgl\src\draw\sw/lv_draw_sw_blend.c ****                 }
 2127              		.loc 1 296 0 discriminator 2
 2128 01dc 3380     		strh	r3, [r6]
 2129              	.LVL328:
 2130              	.L115:
 296:..\..\..\arduinoLCD\test\Pain Drain\libraries\lvgl\src\draw\sw/lv_draw_sw_blend.c ****                 }
 2131              		.loc 1 296 0 is_stmt 0 discriminator 4
 2132 01de 0135     		adds	r5, r5, #1
 2133              	.LVL329:
 2134 01e0 0236     		adds	r6, r6, #2
 2135              	.LVL330:
 295:..\..\..\arduinoLCD\test\Pain Drain\libraries\lvgl\src\draw\sw/lv_draw_sw_blend.c ****                     FILL_NORMAL_MASK_PX(color)
 2136              		.loc 1 295 0 is_stmt 1 discriminator 4
 2137 01e2 0137     		adds	r7, r7, #1
ARM GAS  C:\Users\haske\AppData\Local\Temp\ccydbpJh.s 			page 70


 2138              	.LVL331:
 2139 01e4 00E0     		b	.L136
 2140              	.LVL332:
 2141              	.L148:
 2142 01e6 0027     		movs	r7, #0
 2143              	.L136:
 2144              	.LVL333:
 295:..\..\..\arduinoLCD\test\Pain Drain\libraries\lvgl\src\draw\sw/lv_draw_sw_blend.c ****                     FILL_NORMAL_MASK_PX(color)
 2145              		.loc 1 295 0 is_stmt 0 discriminator 2
 2146 01e8 6745     		cmp	r7, ip
 2147 01ea 00DB     		blt	.LCB2566
 2148 01ec A1E0     		b	.L152	@long jump
 2149              	.LCB2566:
 295:..\..\..\arduinoLCD\test\Pain Drain\libraries\lvgl\src\draw\sw/lv_draw_sw_blend.c ****                     FILL_NORMAL_MASK_PX(color)
 2150              		.loc 1 295 0 discriminator 3
 2151 01ee AB07     		lsls	r3, r5, #30
 2152 01f0 D6D1     		bne	.L117
 2153 01f2 4B46     		mov	r3, r9
 2154 01f4 0293     		str	r3, [sp, #8]
 2155 01f6 4346     		mov	r3, r8
 2156 01f8 0193     		str	r3, [sp, #4]
 2157 01fa 6B46     		mov	r3, sp
 2158 01fc 1C88     		ldrh	r4, [r3]
 2159              	.LVL334:
 2160 01fe 9EE0     		b	.L116
 2161              	.LVL335:
 2162              	.L131:
 2163              	.LBB141:
 300:..\..\..\arduinoLCD\test\Pain Drain\libraries\lvgl\src\draw\sw/lv_draw_sw_blend.c ****                     if(mask32 == 0xFFFFFFFF) {
 2164              		.loc 1 300 0 is_stmt 1
 2165 0200 2B68     		ldr	r3, [r5]
 2166              	.LVL336:
 301:..\..\..\arduinoLCD\test\Pain Drain\libraries\lvgl\src\draw\sw/lv_draw_sw_blend.c **** #if LV_COLOR_DEPTH == 16
 2167              		.loc 1 301 0
 2168 0202 581C     		adds	r0, r3, #1
 2169 0204 0DD1     		bne	.L118
 303:..\..\..\arduinoLCD\test\Pain Drain\libraries\lvgl\src\draw\sw/lv_draw_sw_blend.c ****                             *(dest_buf + 0) = color;
 2170              		.loc 1 303 0
 2171 0206 B307     		lsls	r3, r6, #30
 2172 0208 05D0     		beq	.L119
 2173              	.LVL337:
 2174              	.LBB142:
 304:..\..\..\arduinoLCD\test\Pain Drain\libraries\lvgl\src\draw\sw/lv_draw_sw_blend.c ****                             uint32_t * d = (uint32_t *)(dest_buf + 1);
 2175              		.loc 1 304 0
 2176 020a 3480     		strh	r4, [r6]
 2177              	.LVL338:
 306:..\..\..\arduinoLCD\test\Pain Drain\libraries\lvgl\src\draw\sw/lv_draw_sw_blend.c ****                             *(dest_buf + 3) = color;
 2178              		.loc 1 306 0
 2179 020c B31C     		adds	r3, r6, #2
 2180              	.LVL339:
 2181 020e 029A     		ldr	r2, [sp, #8]
 2182 0210 1A60     		str	r2, [r3]
 307:..\..\..\arduinoLCD\test\Pain Drain\libraries\lvgl\src\draw\sw/lv_draw_sw_blend.c ****                         }
 2183              		.loc 1 307 0
 2184 0212 F480     		strh	r4, [r6, #6]
 2185              	.LBE142:
 2186 0214 02E0     		b	.L120
ARM GAS  C:\Users\haske\AppData\Local\Temp\ccydbpJh.s 			page 71


 2187              	.LVL340:
 2188              	.L119:
 2189              	.LBB143:
 311:..\..\..\arduinoLCD\test\Pain Drain\libraries\lvgl\src\draw\sw/lv_draw_sw_blend.c ****                             *(d + 1) = c32;
 2190              		.loc 1 311 0
 2191 0216 029B     		ldr	r3, [sp, #8]
 2192 0218 3360     		str	r3, [r6]
 2193              	.LVL341:
 312:..\..\..\arduinoLCD\test\Pain Drain\libraries\lvgl\src\draw\sw/lv_draw_sw_blend.c ****                         }
 2194              		.loc 1 312 0
 2195 021a 7360     		str	r3, [r6, #4]
 2196              	.LVL342:
 2197              	.L120:
 2198              	.LBE143:
 320:..\..\..\arduinoLCD\test\Pain Drain\libraries\lvgl\src\draw\sw/lv_draw_sw_blend.c ****                         mask += 4;
 2199              		.loc 1 320 0
 2200 021c 0836     		adds	r6, r6, #8
 2201              	.LVL343:
 321:..\..\..\arduinoLCD\test\Pain Drain\libraries\lvgl\src\draw\sw/lv_draw_sw_blend.c ****                     }
 2202              		.loc 1 321 0
 2203 021e 0435     		adds	r5, r5, #4
 2204              	.LVL344:
 2205 0220 85E0     		b	.L121
 2206              	.LVL345:
 2207              	.L118:
 323:..\..\..\arduinoLCD\test\Pain Drain\libraries\lvgl\src\draw\sw/lv_draw_sw_blend.c ****                         FILL_NORMAL_MASK_PX(color)
 2208              		.loc 1 323 0
 2209 0222 002B     		cmp	r3, #0
 2210 0224 00D1     		bne	.LCB2642
 2211 0226 80E0     		b	.L122	@long jump
 2212              	.LCB2642:
 324:..\..\..\arduinoLCD\test\Pain Drain\libraries\lvgl\src\draw\sw/lv_draw_sw_blend.c ****                         FILL_NORMAL_MASK_PX(color)
 2213              		.loc 1 324 0
 2214 0228 2878     		ldrb	r0, [r5]
 2215 022a FF28     		cmp	r0, #255
 2216 022c 01D1     		bne	.L123
 324:..\..\..\arduinoLCD\test\Pain Drain\libraries\lvgl\src\draw\sw/lv_draw_sw_blend.c ****                         FILL_NORMAL_MASK_PX(color)
 2217              		.loc 1 324 0 is_stmt 0 discriminator 1
 2218 022e 3480     		strh	r4, [r6]
 2219 0230 1BE0     		b	.L124
 2220              	.L123:
 2221              	.LVL346:
 2222              	.LBB144:
 2223              	.LBB145:
 445:c:\projects\paindrain\arduinolcd\test\pain drain\libraries\lvgl\src\misc\lv_color.h ****     uint32_t bg = (uint32_t)((uint32_t)c2.full | ((uint32_t)c2.full << 16)) &
 2224              		.loc 3 445 0 is_stmt 1 discriminator 2
 2225 0232 0430     		adds	r0, r0, #4
 2226              	.LVL347:
 2227 0234 C308     		lsrs	r3, r0, #3
 2228              	.LVL348:
 2229 0236 9946     		mov	r9, r3
 2230              	.LVL349:
 446:c:\projects\paindrain\arduinolcd\test\pain drain\libraries\lvgl\src\misc\lv_color.h ****                   0x7E0F81F; /*0b00000111111000001111100000011111*/
 2231              		.loc 3 446 0 discriminator 2
 2232 0238 3088     		ldrh	r0, [r6]
 2233 023a 0304     		lsls	r3, r0, #16
 2234 023c 0343     		orrs	r3, r0
ARM GAS  C:\Users\haske\AppData\Local\Temp\ccydbpJh.s 			page 72


 2235 023e 6649     		ldr	r1, .L153
 2236 0240 8846     		mov	r8, r1
 2237 0242 0B40     		ands	r3, r1
 2238              	.LVL350:
 448:c:\projects\paindrain\arduinolcd\test\pain drain\libraries\lvgl\src\misc\lv_color.h ****     uint32_t result = ((((fg - bg) * mix) >> 5) + bg) & 0x7E0F81F;
 2239              		.loc 3 448 0 discriminator 2
 2240 0244 A1B2     		uxth	r1, r4
 2241 0246 0804     		lsls	r0, r1, #16
 2242 0248 0843     		orrs	r0, r1
 2243 024a 4146     		mov	r1, r8
 2244 024c 0840     		ands	r0, r1
 2245              	.LVL351:
 449:c:\projects\paindrain\arduinolcd\test\pain drain\libraries\lvgl\src\misc\lv_color.h ****     ret.full = (uint16_t)((result >> 16) | result);
 2246              		.loc 3 449 0 discriminator 2
 2247 024e C01A     		subs	r0, r0, r3
 2248              	.LVL352:
 2249 0250 FF21     		movs	r1, #255
 2250              	.LVL353:
 2251 0252 8B46     		mov	fp, r1
 2252 0254 4946     		mov	r1, r9
 2253 0256 5A46     		mov	r2, fp
 2254 0258 1140     		ands	r1, r2
 2255 025a 4843     		muls	r0, r1
 2256 025c 4009     		lsrs	r0, r0, #5
 2257 025e 1B18     		adds	r3, r3, r0
 2258              	.LVL354:
 2259 0260 4246     		mov	r2, r8
 2260 0262 1340     		ands	r3, r2
 2261              	.LVL355:
 450:c:\projects\paindrain\arduinolcd\test\pain drain\libraries\lvgl\src\misc\lv_color.h **** #elif LV_COLOR_DEPTH != 1
 2262              		.loc 3 450 0 discriminator 2
 2263 0264 180C     		lsrs	r0, r3, #16
 2264 0266 0343     		orrs	r3, r0
 2265              	.LVL356:
 2266              	.LBE145:
 2267              	.LBE144:
 324:..\..\..\arduinoLCD\test\Pain Drain\libraries\lvgl\src\draw\sw/lv_draw_sw_blend.c ****                         FILL_NORMAL_MASK_PX(color)
 2268              		.loc 1 324 0 discriminator 2
 2269 0268 3380     		strh	r3, [r6]
 2270              	.LVL357:
 2271              	.L124:
 325:..\..\..\arduinoLCD\test\Pain Drain\libraries\lvgl\src\draw\sw/lv_draw_sw_blend.c ****                         FILL_NORMAL_MASK_PX(color)
 2272              		.loc 1 325 0 discriminator 4
 2273 026a 6878     		ldrb	r0, [r5, #1]
 2274 026c FF28     		cmp	r0, #255
 2275 026e 01D1     		bne	.L125
 325:..\..\..\arduinoLCD\test\Pain Drain\libraries\lvgl\src\draw\sw/lv_draw_sw_blend.c ****                         FILL_NORMAL_MASK_PX(color)
 2276              		.loc 1 325 0 is_stmt 0 discriminator 1
 2277 0270 7480     		strh	r4, [r6, #2]
 2278 0272 19E0     		b	.L126
 2279              	.L125:
 2280              	.LVL358:
 2281              	.LBB146:
 2282              	.LBB147:
 445:c:\projects\paindrain\arduinolcd\test\pain drain\libraries\lvgl\src\misc\lv_color.h ****     uint32_t bg = (uint32_t)((uint32_t)c2.full | ((uint32_t)c2.full << 16)) &
 2283              		.loc 3 445 0 is_stmt 1 discriminator 2
 2284 0274 0430     		adds	r0, r0, #4
ARM GAS  C:\Users\haske\AppData\Local\Temp\ccydbpJh.s 			page 73


 2285              	.LVL359:
 2286 0276 C308     		lsrs	r3, r0, #3
 2287 0278 9946     		mov	r9, r3
 2288              	.LVL360:
 446:c:\projects\paindrain\arduinolcd\test\pain drain\libraries\lvgl\src\misc\lv_color.h ****                   0x7E0F81F; /*0b00000111111000001111100000011111*/
 2289              		.loc 3 446 0 discriminator 2
 2290 027a 7088     		ldrh	r0, [r6, #2]
 2291 027c 0304     		lsls	r3, r0, #16
 2292 027e 0343     		orrs	r3, r0
 2293 0280 554A     		ldr	r2, .L153
 2294 0282 9046     		mov	r8, r2
 2295 0284 1340     		ands	r3, r2
 2296              	.LVL361:
 448:c:\projects\paindrain\arduinolcd\test\pain drain\libraries\lvgl\src\misc\lv_color.h ****     uint32_t result = ((((fg - bg) * mix) >> 5) + bg) & 0x7E0F81F;
 2297              		.loc 3 448 0 discriminator 2
 2298 0286 A2B2     		uxth	r2, r4
 2299 0288 1004     		lsls	r0, r2, #16
 2300 028a 1043     		orrs	r0, r2
 2301 028c 4246     		mov	r2, r8
 2302 028e 1040     		ands	r0, r2
 2303              	.LVL362:
 449:c:\projects\paindrain\arduinolcd\test\pain drain\libraries\lvgl\src\misc\lv_color.h ****     ret.full = (uint16_t)((result >> 16) | result);
 2304              		.loc 3 449 0 discriminator 2
 2305 0290 C01A     		subs	r0, r0, r3
 2306              	.LVL363:
 2307 0292 FF22     		movs	r2, #255
 2308              	.LVL364:
 2309 0294 4946     		mov	r1, r9
 2310 0296 1140     		ands	r1, r2
 2311 0298 4843     		muls	r0, r1
 2312 029a 4009     		lsrs	r0, r0, #5
 2313 029c 1B18     		adds	r3, r3, r0
 2314              	.LVL365:
 2315 029e 4246     		mov	r2, r8
 2316 02a0 1340     		ands	r3, r2
 2317              	.LVL366:
 450:c:\projects\paindrain\arduinolcd\test\pain drain\libraries\lvgl\src\misc\lv_color.h **** #elif LV_COLOR_DEPTH != 1
 2318              		.loc 3 450 0 discriminator 2
 2319 02a2 180C     		lsrs	r0, r3, #16
 2320 02a4 0343     		orrs	r3, r0
 2321              	.LVL367:
 2322              	.LBE147:
 2323              	.LBE146:
 325:..\..\..\arduinoLCD\test\Pain Drain\libraries\lvgl\src\draw\sw/lv_draw_sw_blend.c ****                         FILL_NORMAL_MASK_PX(color)
 2324              		.loc 1 325 0 discriminator 2
 2325 02a6 7380     		strh	r3, [r6, #2]
 2326              	.L126:
 2327              	.LVL368:
 326:..\..\..\arduinoLCD\test\Pain Drain\libraries\lvgl\src\draw\sw/lv_draw_sw_blend.c ****                         FILL_NORMAL_MASK_PX(color)
 2328              		.loc 1 326 0 discriminator 4
 2329 02a8 A878     		ldrb	r0, [r5, #2]
 2330 02aa FF28     		cmp	r0, #255
 2331 02ac 01D1     		bne	.L127
 326:..\..\..\arduinoLCD\test\Pain Drain\libraries\lvgl\src\draw\sw/lv_draw_sw_blend.c ****                         FILL_NORMAL_MASK_PX(color)
 2332              		.loc 1 326 0 is_stmt 0 discriminator 1
 2333 02ae B480     		strh	r4, [r6, #4]
 2334 02b0 19E0     		b	.L128
ARM GAS  C:\Users\haske\AppData\Local\Temp\ccydbpJh.s 			page 74


 2335              	.L127:
 2336              	.LVL369:
 2337              	.LBB148:
 2338              	.LBB149:
 445:c:\projects\paindrain\arduinolcd\test\pain drain\libraries\lvgl\src\misc\lv_color.h ****     uint32_t bg = (uint32_t)((uint32_t)c2.full | ((uint32_t)c2.full << 16)) &
 2339              		.loc 3 445 0 is_stmt 1 discriminator 2
 2340 02b2 0430     		adds	r0, r0, #4
 2341              	.LVL370:
 2342 02b4 C308     		lsrs	r3, r0, #3
 2343 02b6 9946     		mov	r9, r3
 2344              	.LVL371:
 446:c:\projects\paindrain\arduinolcd\test\pain drain\libraries\lvgl\src\misc\lv_color.h ****                   0x7E0F81F; /*0b00000111111000001111100000011111*/
 2345              		.loc 3 446 0 discriminator 2
 2346 02b8 B088     		ldrh	r0, [r6, #4]
 2347 02ba 0304     		lsls	r3, r0, #16
 2348 02bc 0343     		orrs	r3, r0
 2349 02be 464A     		ldr	r2, .L153
 2350 02c0 9046     		mov	r8, r2
 2351 02c2 1340     		ands	r3, r2
 2352              	.LVL372:
 448:c:\projects\paindrain\arduinolcd\test\pain drain\libraries\lvgl\src\misc\lv_color.h ****     uint32_t result = ((((fg - bg) * mix) >> 5) + bg) & 0x7E0F81F;
 2353              		.loc 3 448 0 discriminator 2
 2354 02c4 A2B2     		uxth	r2, r4
 2355 02c6 1004     		lsls	r0, r2, #16
 2356 02c8 1043     		orrs	r0, r2
 2357 02ca 4246     		mov	r2, r8
 2358 02cc 1040     		ands	r0, r2
 2359              	.LVL373:
 449:c:\projects\paindrain\arduinolcd\test\pain drain\libraries\lvgl\src\misc\lv_color.h ****     ret.full = (uint16_t)((result >> 16) | result);
 2360              		.loc 3 449 0 discriminator 2
 2361 02ce C01A     		subs	r0, r0, r3
 2362              	.LVL374:
 2363 02d0 FF22     		movs	r2, #255
 2364              	.LVL375:
 2365 02d2 4946     		mov	r1, r9
 2366 02d4 1140     		ands	r1, r2
 2367 02d6 4843     		muls	r0, r1
 2368 02d8 4009     		lsrs	r0, r0, #5
 2369 02da 1B18     		adds	r3, r3, r0
 2370              	.LVL376:
 2371 02dc 4246     		mov	r2, r8
 2372 02de 1340     		ands	r3, r2
 2373              	.LVL377:
 450:c:\projects\paindrain\arduinolcd\test\pain drain\libraries\lvgl\src\misc\lv_color.h **** #elif LV_COLOR_DEPTH != 1
 2374              		.loc 3 450 0 discriminator 2
 2375 02e0 180C     		lsrs	r0, r3, #16
 2376 02e2 0343     		orrs	r3, r0
 2377              	.LVL378:
 2378              	.LBE149:
 2379              	.LBE148:
 326:..\..\..\arduinoLCD\test\Pain Drain\libraries\lvgl\src\draw\sw/lv_draw_sw_blend.c ****                         FILL_NORMAL_MASK_PX(color)
 2380              		.loc 1 326 0 discriminator 2
 2381 02e4 B380     		strh	r3, [r6, #4]
 2382              	.L128:
 2383              	.LVL379:
 327:..\..\..\arduinoLCD\test\Pain Drain\libraries\lvgl\src\draw\sw/lv_draw_sw_blend.c ****                     }
 2384              		.loc 1 327 0 discriminator 4
ARM GAS  C:\Users\haske\AppData\Local\Temp\ccydbpJh.s 			page 75


 2385 02e6 E878     		ldrb	r0, [r5, #3]
 2386 02e8 FF28     		cmp	r0, #255
 2387 02ea 01D1     		bne	.L129
 327:..\..\..\arduinoLCD\test\Pain Drain\libraries\lvgl\src\draw\sw/lv_draw_sw_blend.c ****                     }
 2388              		.loc 1 327 0 is_stmt 0 discriminator 1
 2389 02ec F480     		strh	r4, [r6, #6]
 2390 02ee 19E0     		b	.L130
 2391              	.L129:
 2392              	.LVL380:
 2393              	.LBB150:
 2394              	.LBB151:
 445:c:\projects\paindrain\arduinolcd\test\pain drain\libraries\lvgl\src\misc\lv_color.h ****     uint32_t bg = (uint32_t)((uint32_t)c2.full | ((uint32_t)c2.full << 16)) &
 2395              		.loc 3 445 0 is_stmt 1 discriminator 2
 2396 02f0 0430     		adds	r0, r0, #4
 2397              	.LVL381:
 2398 02f2 C308     		lsrs	r3, r0, #3
 2399 02f4 9946     		mov	r9, r3
 2400              	.LVL382:
 446:c:\projects\paindrain\arduinolcd\test\pain drain\libraries\lvgl\src\misc\lv_color.h ****                   0x7E0F81F; /*0b00000111111000001111100000011111*/
 2401              		.loc 3 446 0 discriminator 2
 2402 02f6 F088     		ldrh	r0, [r6, #6]
 2403 02f8 0304     		lsls	r3, r0, #16
 2404 02fa 0343     		orrs	r3, r0
 2405 02fc 364A     		ldr	r2, .L153
 2406 02fe 9046     		mov	r8, r2
 2407 0300 1340     		ands	r3, r2
 2408              	.LVL383:
 448:c:\projects\paindrain\arduinolcd\test\pain drain\libraries\lvgl\src\misc\lv_color.h ****     uint32_t result = ((((fg - bg) * mix) >> 5) + bg) & 0x7E0F81F;
 2409              		.loc 3 448 0 discriminator 2
 2410 0302 A2B2     		uxth	r2, r4
 2411 0304 1004     		lsls	r0, r2, #16
 2412 0306 1043     		orrs	r0, r2
 2413 0308 4246     		mov	r2, r8
 2414 030a 1040     		ands	r0, r2
 2415              	.LVL384:
 449:c:\projects\paindrain\arduinolcd\test\pain drain\libraries\lvgl\src\misc\lv_color.h ****     ret.full = (uint16_t)((result >> 16) | result);
 2416              		.loc 3 449 0 discriminator 2
 2417 030c C01A     		subs	r0, r0, r3
 2418              	.LVL385:
 2419 030e FF22     		movs	r2, #255
 2420              	.LVL386:
 2421 0310 4946     		mov	r1, r9
 2422 0312 1140     		ands	r1, r2
 2423 0314 4843     		muls	r0, r1
 2424 0316 4009     		lsrs	r0, r0, #5
 2425 0318 1B18     		adds	r3, r3, r0
 2426              	.LVL387:
 2427 031a 4246     		mov	r2, r8
 2428 031c 1340     		ands	r3, r2
 2429              	.LVL388:
 450:c:\projects\paindrain\arduinolcd\test\pain drain\libraries\lvgl\src\misc\lv_color.h **** #elif LV_COLOR_DEPTH != 1
 2430              		.loc 3 450 0 discriminator 2
 2431 031e 180C     		lsrs	r0, r3, #16
 2432 0320 0343     		orrs	r3, r0
 2433              	.LVL389:
 2434              	.LBE151:
 2435              	.LBE150:
ARM GAS  C:\Users\haske\AppData\Local\Temp\ccydbpJh.s 			page 76


 327:..\..\..\arduinoLCD\test\Pain Drain\libraries\lvgl\src\draw\sw/lv_draw_sw_blend.c ****                     }
 2436              		.loc 1 327 0 discriminator 2
 2437 0322 F380     		strh	r3, [r6, #6]
 2438              	.L130:
 327:..\..\..\arduinoLCD\test\Pain Drain\libraries\lvgl\src\draw\sw/lv_draw_sw_blend.c ****                     }
 2439              		.loc 1 327 0 is_stmt 0 discriminator 4
 2440 0324 0435     		adds	r5, r5, #4
 2441              	.LVL390:
 2442 0326 0836     		adds	r6, r6, #8
 2443              	.LVL391:
 2444 0328 01E0     		b	.L121
 2445              	.LVL392:
 2446              	.L122:
 330:..\..\..\arduinoLCD\test\Pain Drain\libraries\lvgl\src\draw\sw/lv_draw_sw_blend.c ****                         dest_buf += 4;
 2447              		.loc 1 330 0 is_stmt 1
 2448 032a 0435     		adds	r5, r5, #4
 2449              	.LVL393:
 331:..\..\..\arduinoLCD\test\Pain Drain\libraries\lvgl\src\draw\sw/lv_draw_sw_blend.c ****                     }
 2450              		.loc 1 331 0
 2451 032c 0836     		adds	r6, r6, #8
 2452              	.LVL394:
 2453              	.L121:
 2454              	.LBE141:
 299:..\..\..\arduinoLCD\test\Pain Drain\libraries\lvgl\src\draw\sw/lv_draw_sw_blend.c ****                     uint32_t mask32 = *((uint32_t *)mask);
 2455              		.loc 1 299 0
 2456 032e 0437     		adds	r7, r7, #4
 2457              	.LVL395:
 2458 0330 05E0     		b	.L116
 2459              	.L152:
 2460 0332 4B46     		mov	r3, r9
 2461 0334 0293     		str	r3, [sp, #8]
 2462 0336 4346     		mov	r3, r8
 2463 0338 0193     		str	r3, [sp, #4]
 2464 033a 6B46     		mov	r3, sp
 2465 033c 1C88     		ldrh	r4, [r3]
 2466              	.LVL396:
 2467              	.L116:
 299:..\..\..\arduinoLCD\test\Pain Drain\libraries\lvgl\src\draw\sw/lv_draw_sw_blend.c ****                     uint32_t mask32 = *((uint32_t *)mask);
 2468              		.loc 1 299 0 is_stmt 0 discriminator 1
 2469 033e 019B     		ldr	r3, [sp, #4]
 2470 0340 9F42     		cmp	r7, r3
 2471 0342 00DC     		bgt	.LCB2942
 2472 0344 5CE7     		b	.L131	@long jump
 2473              	.LCB2942:
 2474 0346 029B     		ldr	r3, [sp, #8]
 2475 0348 9946     		mov	r9, r3
 2476 034a 019B     		ldr	r3, [sp, #4]
 2477 034c 9846     		mov	r8, r3
 2478 034e 6B46     		mov	r3, sp
 2479 0350 1C80     		strh	r4, [r3]
 2480 0352 21E0     		b	.L132
 2481              	.L135:
 336:..\..\..\arduinoLCD\test\Pain Drain\libraries\lvgl\src\draw\sw/lv_draw_sw_blend.c ****                 }
 2482              		.loc 1 336 0 is_stmt 1
 2483 0354 2A78     		ldrb	r2, [r5]
 2484 0356 FF2A     		cmp	r2, #255
 2485 0358 03D1     		bne	.L133
ARM GAS  C:\Users\haske\AppData\Local\Temp\ccydbpJh.s 			page 77


 336:..\..\..\arduinoLCD\test\Pain Drain\libraries\lvgl\src\draw\sw/lv_draw_sw_blend.c ****                 }
 2486              		.loc 1 336 0 is_stmt 0 discriminator 1
 2487 035a 6B46     		mov	r3, sp
 2488 035c 1B88     		ldrh	r3, [r3]
 2489 035e 3380     		strh	r3, [r6]
 2490 0360 17E0     		b	.L134
 2491              	.L133:
 2492              	.LVL397:
 2493              	.LBB152:
 2494              	.LBB153:
 445:c:\projects\paindrain\arduinolcd\test\pain drain\libraries\lvgl\src\misc\lv_color.h ****     uint32_t bg = (uint32_t)((uint32_t)c2.full | ((uint32_t)c2.full << 16)) &
 2495              		.loc 3 445 0 is_stmt 1 discriminator 2
 2496 0362 0432     		adds	r2, r2, #4
 2497              	.LVL398:
 2498 0364 D208     		lsrs	r2, r2, #3
 2499              	.LVL399:
 446:c:\projects\paindrain\arduinolcd\test\pain drain\libraries\lvgl\src\misc\lv_color.h ****                   0x7E0F81F; /*0b00000111111000001111100000011111*/
 2500              		.loc 3 446 0 discriminator 2
 2501 0366 3088     		ldrh	r0, [r6]
 2502 0368 0304     		lsls	r3, r0, #16
 2503 036a 0343     		orrs	r3, r0
 2504 036c 1A4C     		ldr	r4, .L153
 2505              	.LVL400:
 2506 036e 2340     		ands	r3, r4
 2507              	.LVL401:
 448:c:\projects\paindrain\arduinolcd\test\pain drain\libraries\lvgl\src\misc\lv_color.h ****     uint32_t result = ((((fg - bg) * mix) >> 5) + bg) & 0x7E0F81F;
 2508              		.loc 3 448 0 discriminator 2
 2509 0370 6946     		mov	r1, sp
 2510 0372 0888     		ldrh	r0, [r1]
 2511 0374 8346     		mov	fp, r0
 2512 0376 0004     		lsls	r0, r0, #16
 2513 0378 5946     		mov	r1, fp
 2514 037a 0843     		orrs	r0, r1
 2515 037c 2040     		ands	r0, r4
 2516              	.LVL402:
 449:c:\projects\paindrain\arduinolcd\test\pain drain\libraries\lvgl\src\misc\lv_color.h ****     ret.full = (uint16_t)((result >> 16) | result);
 2517              		.loc 3 449 0 discriminator 2
 2518 037e C01A     		subs	r0, r0, r3
 2519              	.LVL403:
 2520 0380 FF21     		movs	r1, #255
 2521              	.LVL404:
 2522 0382 0A40     		ands	r2, r1
 2523              	.LVL405:
 2524 0384 4243     		muls	r2, r0
 2525 0386 5209     		lsrs	r2, r2, #5
 2526 0388 9B18     		adds	r3, r3, r2
 2527              	.LVL406:
 2528 038a 2340     		ands	r3, r4
 2529              	.LVL407:
 450:c:\projects\paindrain\arduinolcd\test\pain drain\libraries\lvgl\src\misc\lv_color.h **** #elif LV_COLOR_DEPTH != 1
 2530              		.loc 3 450 0 discriminator 2
 2531 038c 1A0C     		lsrs	r2, r3, #16
 2532 038e 1343     		orrs	r3, r2
 2533              	.LVL408:
 2534              	.LBE153:
 2535              	.LBE152:
 336:..\..\..\arduinoLCD\test\Pain Drain\libraries\lvgl\src\draw\sw/lv_draw_sw_blend.c ****                 }
ARM GAS  C:\Users\haske\AppData\Local\Temp\ccydbpJh.s 			page 78


 2536              		.loc 1 336 0 discriminator 2
 2537 0390 3380     		strh	r3, [r6]
 2538              	.LVL409:
 2539              	.L134:
 336:..\..\..\arduinoLCD\test\Pain Drain\libraries\lvgl\src\draw\sw/lv_draw_sw_blend.c ****                 }
 2540              		.loc 1 336 0 is_stmt 0 discriminator 4
 2541 0392 0135     		adds	r5, r5, #1
 2542              	.LVL410:
 2543 0394 0236     		adds	r6, r6, #2
 2544              	.LVL411:
 335:..\..\..\arduinoLCD\test\Pain Drain\libraries\lvgl\src\draw\sw/lv_draw_sw_blend.c ****                     FILL_NORMAL_MASK_PX(color)
 2545              		.loc 1 335 0 is_stmt 1 discriminator 4
 2546 0396 0137     		adds	r7, r7, #1
 2547              	.LVL412:
 2548              	.L132:
 335:..\..\..\arduinoLCD\test\Pain Drain\libraries\lvgl\src\draw\sw/lv_draw_sw_blend.c ****                     FILL_NORMAL_MASK_PX(color)
 2549              		.loc 1 335 0 is_stmt 0 discriminator 1
 2550 0398 6745     		cmp	r7, ip
 2551 039a DBDB     		blt	.L135
 338:..\..\..\arduinoLCD\test\Pain Drain\libraries\lvgl\src\draw\sw/lv_draw_sw_blend.c ****                 mask += (mask_stride - w);
 2552              		.loc 1 338 0 is_stmt 1 discriminator 2
 2553 039c 059B     		ldr	r3, [sp, #20]
 2554 039e 6246     		mov	r2, ip
 2555 03a0 9B1A     		subs	r3, r3, r2
 2556 03a2 5B00     		lsls	r3, r3, #1
 2557 03a4 F618     		adds	r6, r6, r3
 2558              	.LVL413:
 339:..\..\..\arduinoLCD\test\Pain Drain\libraries\lvgl\src\draw\sw/lv_draw_sw_blend.c ****             }
 2559              		.loc 1 339 0 discriminator 2
 2560 03a6 049B     		ldr	r3, [sp, #16]
 2561 03a8 9B1A     		subs	r3, r3, r2
 2562 03aa ED18     		adds	r5, r5, r3
 2563              	.LVL414:
 294:..\..\..\arduinoLCD\test\Pain Drain\libraries\lvgl\src\draw\sw/lv_draw_sw_blend.c ****                 for(x = 0; x < w && ((lv_uintptr_t)(mask) & 0x3); x++) {
 2564              		.loc 1 294 0 discriminator 2
 2565 03ac 0123     		movs	r3, #1
 2566 03ae 9B46     		mov	fp, r3
 2567 03b0 DA44     		add	r10, r10, fp
 2568              	.LVL415:
 2569              	.L113:
 294:..\..\..\arduinoLCD\test\Pain Drain\libraries\lvgl\src\draw\sw/lv_draw_sw_blend.c ****                 for(x = 0; x < w && ((lv_uintptr_t)(mask) & 0x3); x++) {
 2570              		.loc 1 294 0 is_stmt 0 discriminator 1
 2571 03b2 039B     		ldr	r3, [sp, #12]
 2572 03b4 9A45     		cmp	r10, r3
 2573 03b6 00DA     		bge	.LCB3075
 2574 03b8 15E7     		b	.L148	@long jump
 2575              	.LCB3075:
 2576 03ba 63E0     		b	.L102
 2577              	.LVL416:
 2578              	.L112:
 2579              	.LBE138:
 2580              	.LBB154:
 348:..\..\..\arduinoLCD\test\Pain Drain\libraries\lvgl\src\draw\sw/lv_draw_sw_blend.c ****             last_res_color.full = dest_buf[0].full;
 2581              		.loc 1 348 0 is_stmt 1
 2582 03bc 0388     		ldrh	r3, [r0]
 2583 03be 9946     		mov	r9, r3
 2584              	.LVL417:
ARM GAS  C:\Users\haske\AppData\Local\Temp\ccydbpJh.s 			page 79


 350:..\..\..\arduinoLCD\test\Pain Drain\libraries\lvgl\src\draw\sw/lv_draw_sw_blend.c **** 
 2585              		.loc 1 350 0
 2586 03c0 0027     		movs	r7, #0
 2587              	.LVL418:
 347:..\..\..\arduinoLCD\test\Pain Drain\libraries\lvgl\src\draw\sw/lv_draw_sw_blend.c ****             last_dest_color.full = dest_buf[0].full;
 2588              		.loc 1 347 0
 2589 03c2 0022     		movs	r2, #0
 2590              	.LVL419:
 352:..\..\..\arduinoLCD\test\Pain Drain\libraries\lvgl\src\draw\sw/lv_draw_sw_blend.c ****                 for(x = 0; x < w; x++) {
 2591              		.loc 1 352 0
 2592 03c4 0021     		movs	r1, #0
 2593 03c6 0291     		str	r1, [sp, #8]
 2594 03c8 0599     		ldr	r1, [sp, #20]
 2595 03ca 8846     		mov	r8, r1
 2596 03cc 6946     		mov	r1, sp
 2597 03ce 8C80     		strh	r4, [r1, #4]
 2598 03d0 6446     		mov	r4, ip
 2599              	.LVL420:
 2600 03d2 0399     		ldr	r1, [sp, #12]
 2601              	.LVL421:
 2602 03d4 8C46     		mov	ip, r1
 2603              	.LVL422:
 2604 03d6 52E0     		b	.L137
 2605              	.L154:
 2606              		.align	2
 2607              	.L153:
 2608 03d8 1FF8E007 		.word	132184095
 2609 03dc 1FF8FFFF 		.word	-2017
 2610              	.LVL423:
 2611              	.L144:
 354:..\..\..\arduinoLCD\test\Pain Drain\libraries\lvgl\src\draw\sw/lv_draw_sw_blend.c ****                         if(*mask != last_mask) opa_tmp = *mask == LV_OPA_COVER ? opa :
 2612              		.loc 1 354 0
 2613 03e0 2978     		ldrb	r1, [r5]
 2614 03e2 0029     		cmp	r1, #0
 2615 03e4 39D0     		beq	.L138
 355:..\..\..\arduinoLCD\test\Pain Drain\libraries\lvgl\src\draw\sw/lv_draw_sw_blend.c ****                                                              (uint32_t)((uint32_t)(*mask) * opa) >>
 2616              		.loc 1 355 0
 2617 03e6 8A42     		cmp	r2, r1
 2618 03e8 07D0     		beq	.L139
 355:..\..\..\arduinoLCD\test\Pain Drain\libraries\lvgl\src\draw\sw/lv_draw_sw_blend.c ****                                                              (uint32_t)((uint32_t)(*mask) * opa) >>
 2619              		.loc 1 355 0 is_stmt 0 discriminator 1
 2620 03ea FF29     		cmp	r1, #255
 2621 03ec 04D0     		beq	.L149
 356:..\..\..\arduinoLCD\test\Pain Drain\libraries\lvgl\src\draw\sw/lv_draw_sw_blend.c ****                         if(*mask != last_mask || last_dest_color.full != dest_buf[x].full) {
 2622              		.loc 1 356 0 is_stmt 1 discriminator 2
 2623 03ee 5746     		mov	r7, r10
 2624              	.LVL424:
 2625 03f0 4F43     		muls	r7, r1
 2626 03f2 3F0A     		lsrs	r7, r7, #8
 355:..\..\..\arduinoLCD\test\Pain Drain\libraries\lvgl\src\draw\sw/lv_draw_sw_blend.c ****                                                              (uint32_t)((uint32_t)(*mask) * opa) >>
 2627              		.loc 1 355 0 discriminator 2
 2628 03f4 FFB2     		uxtb	r7, r7
 2629 03f6 00E0     		b	.L139
 2630              	.LVL425:
 2631              	.L149:
 355:..\..\..\arduinoLCD\test\Pain Drain\libraries\lvgl\src\draw\sw/lv_draw_sw_blend.c ****                                                              (uint32_t)((uint32_t)(*mask) * opa) >>
 2632              		.loc 1 355 0 is_stmt 0
ARM GAS  C:\Users\haske\AppData\Local\Temp\ccydbpJh.s 			page 80


 2633 03f8 5746     		mov	r7, r10
 2634              	.LVL426:
 2635              	.L139:
 357:..\..\..\arduinoLCD\test\Pain Drain\libraries\lvgl\src\draw\sw/lv_draw_sw_blend.c ****                             if(opa_tmp == LV_OPA_COVER) last_res_color = color;
 2636              		.loc 1 357 0 is_stmt 1
 2637 03fa 8A42     		cmp	r2, r1
 2638 03fc 07D1     		bne	.L140
 357:..\..\..\arduinoLCD\test\Pain Drain\libraries\lvgl\src\draw\sw/lv_draw_sw_blend.c ****                             if(opa_tmp == LV_OPA_COVER) last_res_color = color;
 2639              		.loc 1 357 0 is_stmt 0 discriminator 1
 2640 03fe 4946     		mov	r1, r9
 2641 0400 6C46     		mov	r4, sp
 2642 0402 A181     		strh	r1, [r4, #12]
 2643 0404 A189     		ldrh	r1, [r4, #12]
 2644 0406 4400     		lsls	r4, r0, #1
 2645 0408 345B     		ldrh	r4, [r6, r4]
 2646 040a A142     		cmp	r1, r4
 2647 040c 23D0     		beq	.L141
 2648              	.L140:
 358:..\..\..\arduinoLCD\test\Pain Drain\libraries\lvgl\src\draw\sw/lv_draw_sw_blend.c ****                             else last_res_color = lv_color_mix(color, dest_buf[x], opa_tmp);
 2649              		.loc 1 358 0 is_stmt 1
 2650 040e FF2F     		cmp	r7, #255
 2651 0410 02D1     		bne	.L142
 358:..\..\..\arduinoLCD\test\Pain Drain\libraries\lvgl\src\draw\sw/lv_draw_sw_blend.c ****                             else last_res_color = lv_color_mix(color, dest_buf[x], opa_tmp);
 2652              		.loc 1 358 0 is_stmt 0 discriminator 1
 2653 0412 6B46     		mov	r3, sp
 2654              	.LVL427:
 2655 0414 9B88     		ldrh	r3, [r3, #4]
 2656 0416 1AE0     		b	.L143
 2657              	.LVL428:
 2658              	.L142:
 359:..\..\..\arduinoLCD\test\Pain Drain\libraries\lvgl\src\draw\sw/lv_draw_sw_blend.c ****                             last_mask = *mask;
 2659              		.loc 1 359 0 is_stmt 1
 2660 0418 4100     		lsls	r1, r0, #1
 2661              	.LVL429:
 2662              	.LBB155:
 2663              	.LBB156:
 445:c:\projects\paindrain\arduinolcd\test\pain drain\libraries\lvgl\src\misc\lv_color.h ****     uint32_t bg = (uint32_t)((uint32_t)c2.full | ((uint32_t)c2.full << 16)) &
 2664              		.loc 3 445 0
 2665 041a 3A1D     		adds	r2, r7, #4
 2666              	.LVL430:
 2667 041c D208     		lsrs	r2, r2, #3
 2668              	.LVL431:
 446:c:\projects\paindrain\arduinolcd\test\pain drain\libraries\lvgl\src\misc\lv_color.h ****                   0x7E0F81F; /*0b00000111111000001111100000011111*/
 2669              		.loc 3 446 0
 2670 041e 715A     		ldrh	r1, [r6, r1]
 2671 0420 0B04     		lsls	r3, r1, #16
 2672              	.LVL432:
 2673 0422 0B43     		orrs	r3, r1
 2674 0424 1B49     		ldr	r1, .L155
 2675 0426 8946     		mov	r9, r1
 2676              	.LVL433:
 2677 0428 0B40     		ands	r3, r1
 2678              	.LVL434:
 448:c:\projects\paindrain\arduinolcd\test\pain drain\libraries\lvgl\src\misc\lv_color.h ****     uint32_t result = ((((fg - bg) * mix) >> 5) + bg) & 0x7E0F81F;
 2679              		.loc 3 448 0
 2680 042a 6946     		mov	r1, sp
 2681 042c 8988     		ldrh	r1, [r1, #4]
ARM GAS  C:\Users\haske\AppData\Local\Temp\ccydbpJh.s 			page 81


 2682 042e 8B46     		mov	fp, r1
 2683 0430 0904     		lsls	r1, r1, #16
 2684 0432 5C46     		mov	r4, fp
 2685 0434 2143     		orrs	r1, r4
 2686 0436 4C46     		mov	r4, r9
 2687 0438 2140     		ands	r1, r4
 2688              	.LVL435:
 449:c:\projects\paindrain\arduinolcd\test\pain drain\libraries\lvgl\src\misc\lv_color.h ****     ret.full = (uint16_t)((result >> 16) | result);
 2689              		.loc 3 449 0
 2690 043a C91A     		subs	r1, r1, r3
 2691              	.LVL436:
 2692 043c FF24     		movs	r4, #255
 2693              	.LVL437:
 2694 043e 2240     		ands	r2, r4
 2695              	.LVL438:
 2696 0440 4A43     		muls	r2, r1
 2697 0442 5209     		lsrs	r2, r2, #5
 2698 0444 9B18     		adds	r3, r3, r2
 2699              	.LVL439:
 2700 0446 4A46     		mov	r2, r9
 2701 0448 1340     		ands	r3, r2
 2702              	.LVL440:
 450:c:\projects\paindrain\arduinolcd\test\pain drain\libraries\lvgl\src\misc\lv_color.h **** #elif LV_COLOR_DEPTH != 1
 2703              		.loc 3 450 0
 2704 044a 1A0C     		lsrs	r2, r3, #16
 2705 044c 1343     		orrs	r3, r2
 2706              	.LVL441:
 2707              	.L143:
 2708              	.LBE156:
 2709              	.LBE155:
 360:..\..\..\arduinoLCD\test\Pain Drain\libraries\lvgl\src\draw\sw/lv_draw_sw_blend.c ****                             last_dest_color.full = dest_buf[x].full;
 2710              		.loc 1 360 0
 2711 044e 2A78     		ldrb	r2, [r5]
 2712              	.LVL442:
 361:..\..\..\arduinoLCD\test\Pain Drain\libraries\lvgl\src\draw\sw/lv_draw_sw_blend.c ****                         }
 2713              		.loc 1 361 0
 2714 0450 4100     		lsls	r1, r0, #1
 2715 0452 715A     		ldrh	r1, [r6, r1]
 2716 0454 8946     		mov	r9, r1
 2717              	.LVL443:
 2718              	.L141:
 363:..\..\..\arduinoLCD\test\Pain Drain\libraries\lvgl\src\draw\sw/lv_draw_sw_blend.c ****                     }
 2719              		.loc 1 363 0
 2720 0456 4100     		lsls	r1, r0, #1
 2721              	.LVL444:
 2722 0458 7352     		strh	r3, [r6, r1]
 2723              	.L138:
 365:..\..\..\arduinoLCD\test\Pain Drain\libraries\lvgl\src\draw\sw/lv_draw_sw_blend.c ****                 }
 2724              		.loc 1 365 0 discriminator 2
 2725 045a 0135     		adds	r5, r5, #1
 2726              	.LVL445:
 353:..\..\..\arduinoLCD\test\Pain Drain\libraries\lvgl\src\draw\sw/lv_draw_sw_blend.c ****                     if(*mask) {
 2727              		.loc 1 353 0 discriminator 2
 2728 045c 0130     		adds	r0, r0, #1
 2729              	.LVL446:
 2730 045e 01E0     		b	.L145
 2731              	.LVL447:
ARM GAS  C:\Users\haske\AppData\Local\Temp\ccydbpJh.s 			page 82


 2732              	.L150:
 2733 0460 0020     		movs	r0, #0
 2734 0462 0094     		str	r4, [sp]
 2735              	.LVL448:
 2736              	.L145:
 353:..\..\..\arduinoLCD\test\Pain Drain\libraries\lvgl\src\draw\sw/lv_draw_sw_blend.c ****                     if(*mask) {
 2737              		.loc 1 353 0 is_stmt 0 discriminator 1
 2738 0464 0099     		ldr	r1, [sp]
 2739 0466 8842     		cmp	r0, r1
 2740 0468 BADB     		blt	.L144
 2741 046a 0C00     		movs	r4, r1
 367:..\..\..\arduinoLCD\test\Pain Drain\libraries\lvgl\src\draw\sw/lv_draw_sw_blend.c ****                 mask += (mask_stride - w);
 2742              		.loc 1 367 0 is_stmt 1 discriminator 2
 2743 046c 4146     		mov	r1, r8
 2744 046e 4900     		lsls	r1, r1, #1
 2745 0470 7618     		adds	r6, r6, r1
 2746              	.LVL449:
 368:..\..\..\arduinoLCD\test\Pain Drain\libraries\lvgl\src\draw\sw/lv_draw_sw_blend.c ****             }
 2747              		.loc 1 368 0 discriminator 2
 2748 0472 0499     		ldr	r1, [sp, #16]
 2749 0474 091B     		subs	r1, r1, r4
 2750 0476 6D18     		adds	r5, r5, r1
 2751              	.LVL450:
 352:..\..\..\arduinoLCD\test\Pain Drain\libraries\lvgl\src\draw\sw/lv_draw_sw_blend.c ****                 for(x = 0; x < w; x++) {
 2752              		.loc 1 352 0 discriminator 2
 2753 0478 0299     		ldr	r1, [sp, #8]
 2754 047a 0131     		adds	r1, r1, #1
 2755 047c 0291     		str	r1, [sp, #8]
 2756              	.LVL451:
 2757              	.L137:
 352:..\..\..\arduinoLCD\test\Pain Drain\libraries\lvgl\src\draw\sw/lv_draw_sw_blend.c ****                 for(x = 0; x < w; x++) {
 2758              		.loc 1 352 0 is_stmt 0 discriminator 1
 2759 047e 0299     		ldr	r1, [sp, #8]
 2760 0480 6145     		cmp	r1, ip
 2761 0482 EDDB     		blt	.L150
 2762              	.LVL452:
 2763              	.L102:
 2764              	.LBE154:
 2765              	.LBE137:
 372:..\..\..\arduinoLCD\test\Pain Drain\libraries\lvgl\src\draw\sw/lv_draw_sw_blend.c **** 
 2766              		.loc 1 372 0 is_stmt 1
 2767 0484 07B0     		add	sp, sp, #28
 2768              		@ sp needed
 2769              	.LVL453:
 2770              	.LVL454:
 2771              	.LVL455:
 2772 0486 3CBC     		pop	{r2, r3, r4, r5}
 2773 0488 9046     		mov	r8, r2
 2774 048a 9946     		mov	r9, r3
 2775 048c A246     		mov	r10, r4
 2776 048e AB46     		mov	fp, r5
 2777 0490 F0BD     		pop	{r4, r5, r6, r7, pc}
 2778              	.L156:
 2779 0492 C046     		.align	2
 2780              	.L155:
 2781 0494 1FF8E007 		.word	132184095
 2782              		.cfi_endproc
ARM GAS  C:\Users\haske\AppData\Local\Temp\ccydbpJh.s 			page 83


 2783              	.LFE162:
 2784              		.size	fill_normal, .-fill_normal
 2785              		.section	.text.map_normal,"ax",%progbits
 2786              		.align	2
 2787              		.code	16
 2788              		.thumb_func
 2789              		.type	map_normal, %function
 2790              	map_normal:
 2791              	.LFB165:
 639:..\..\..\arduinoLCD\test\Pain Drain\libraries\lvgl\src\draw\sw/lv_draw_sw_blend.c ****     int32_t w = lv_area_get_width(dest_area);
 2792              		.loc 1 639 0
 2793              		.cfi_startproc
 2794              		@ args = 16, pretend = 0, frame = 32
 2795              		@ frame_needed = 0, uses_anonymous_args = 0
 2796              	.LVL456:
 2797 0000 F0B5     		push	{r4, r5, r6, r7, lr}
 2798              		.cfi_def_cfa_offset 20
 2799              		.cfi_offset 4, -20
 2800              		.cfi_offset 5, -16
 2801              		.cfi_offset 6, -12
 2802              		.cfi_offset 7, -8
 2803              		.cfi_offset 14, -4
 2804 0002 5F46     		mov	r7, fp
 2805 0004 5646     		mov	r6, r10
 2806 0006 4D46     		mov	r5, r9
 2807 0008 4446     		mov	r4, r8
 2808 000a F0B4     		push	{r4, r5, r6, r7}
 2809              		.cfi_def_cfa_offset 36
 2810              		.cfi_offset 8, -36
 2811              		.cfi_offset 9, -32
 2812              		.cfi_offset 10, -28
 2813              		.cfi_offset 11, -24
 2814 000c 89B0     		sub	sp, sp, #36
 2815              		.cfi_def_cfa_offset 72
 2816 000e 0500     		movs	r5, r0
 2817 0010 0592     		str	r2, [sp, #20]
 2818 0012 1E00     		movs	r6, r3
 2819 0014 12AB     		add	r3, sp, #72
 2820              	.LVL457:
 2821 0016 0022     		movs	r2, #0
 2822 0018 9B5E     		ldrsh	r3, [r3, r2]
 2823              	.LVL458:
 2824 001a 0693     		str	r3, [sp, #24]
 2825 001c 13AB     		add	r3, sp, #76
 2826              	.LVL459:
 2827 001e 1B78     		ldrb	r3, [r3]
 2828              	.LVL460:
 2829 0020 9A46     		mov	r10, r3
 2830 0022 149B     		ldr	r3, [sp, #80]
 2831 0024 9846     		mov	r8, r3
 2832 0026 15AB     		add	r3, sp, #84
 2833              	.LVL461:
 2834 0028 0022     		movs	r2, #0
 2835 002a 9B5E     		ldrsh	r3, [r3, r2]
 2836              	.LVL462:
 2837 002c 0793     		str	r3, [sp, #28]
 2838              	.LVL463:
ARM GAS  C:\Users\haske\AppData\Local\Temp\ccydbpJh.s 			page 84


 2839              	.LBB157:
 2840              	.LBB158:
 125:c:\projects\paindrain\arduinolcd\test\pain drain\libraries\lvgl\src\misc\lv_area.h **** }
 2841              		.loc 2 125 0
 2842 002e 0422     		movs	r2, #4
 2843 0030 8B5E     		ldrsh	r3, [r1, r2]
 2844 0032 0022     		movs	r2, #0
 2845 0034 8C5E     		ldrsh	r4, [r1, r2]
 2846 0036 1C1B     		subs	r4, r3, r4
 2847 0038 0134     		adds	r4, r4, #1
 2848 003a 24B2     		sxth	r4, r4
 2849              	.LVL464:
 2850              	.LBE158:
 2851              	.LBE157:
 640:..\..\..\arduinoLCD\test\Pain Drain\libraries\lvgl\src\draw\sw/lv_draw_sw_blend.c ****     int32_t h = lv_area_get_height(dest_area);
 2852              		.loc 1 640 0
 2853 003c A446     		mov	ip, r4
 2854              	.LVL465:
 2855              	.LBB159:
 2856              	.LBB160:
 2857              		.loc 2 135 0
 2858 003e 0622     		movs	r2, #6
 2859 0040 8B5E     		ldrsh	r3, [r1, r2]
 2860 0042 0222     		movs	r2, #2
 2861 0044 8A5E     		ldrsh	r2, [r1, r2]
 2862              	.LVL466:
 2863 0046 9B1A     		subs	r3, r3, r2
 2864 0048 0133     		adds	r3, r3, #1
 2865              	.LVL467:
 2866              	.LBE160:
 2867              	.LBE159:
 641:..\..\..\arduinoLCD\test\Pain Drain\libraries\lvgl\src\draw\sw/lv_draw_sw_blend.c **** 
 2868              		.loc 1 641 0
 2869 004a 1BB2     		sxth	r3, r3
 2870 004c 0493     		str	r3, [sp, #16]
 2871              	.LVL468:
 647:..\..\..\arduinoLCD\test\Pain Drain\libraries\lvgl\src\draw\sw/lv_draw_sw_blend.c ****         if(opa >= LV_OPA_MAX) {
 2872              		.loc 1 647 0
 2873 004e 4346     		mov	r3, r8
 2874              	.LVL469:
 2875 0050 002B     		cmp	r3, #0
 2876 0052 5BD1     		bne	.L158
 648:..\..\..\arduinoLCD\test\Pain Drain\libraries\lvgl\src\draw\sw/lv_draw_sw_blend.c ****             for(y = 0; y < h; y++) {
 2877              		.loc 1 648 0
 2878 0054 5346     		mov	r3, r10
 2879 0056 FC2B     		cmp	r3, #252
 2880 0058 13D8     		bhi	.L190
 2881 005a 0023     		movs	r3, #0
 2882 005c 9846     		mov	r8, r3
 2883 005e 049B     		ldr	r3, [sp, #16]
 2884 0060 9946     		mov	r9, r3
 2885 0062 0196     		str	r6, [sp, #4]
 2886 0064 4FE0     		b	.L160
 2887              	.LVL470:
 2888              	.L161:
 650:..\..\..\arduinoLCD\test\Pain Drain\libraries\lvgl\src\draw\sw/lv_draw_sw_blend.c ****                 dest_buf += dest_stride;
 2889              		.loc 1 650 0 discriminator 3
ARM GAS  C:\Users\haske\AppData\Local\Temp\ccydbpJh.s 			page 85


 2890 0066 4346     		mov	r3, r8
 2891 0068 5A00     		lsls	r2, r3, #1
 2892 006a 3100     		movs	r1, r6
 2893 006c 2800     		movs	r0, r5
 2894 006e FFF7FEFF 		bl	lv_memcpy
 2895              	.LVL471:
 651:..\..\..\arduinoLCD\test\Pain Drain\libraries\lvgl\src\draw\sw/lv_draw_sw_blend.c ****                 src_buf += src_stride;
 2896              		.loc 1 651 0 discriminator 3
 2897 0072 4B46     		mov	r3, r9
 2898 0074 5B00     		lsls	r3, r3, #1
 2899 0076 ED18     		adds	r5, r5, r3
 2900              	.LVL472:
 652:..\..\..\arduinoLCD\test\Pain Drain\libraries\lvgl\src\draw\sw/lv_draw_sw_blend.c ****             }
 2901              		.loc 1 652 0 discriminator 3
 2902 0078 5346     		mov	r3, r10
 2903 007a 5B00     		lsls	r3, r3, #1
 2904 007c F618     		adds	r6, r6, r3
 2905              	.LVL473:
 649:..\..\..\arduinoLCD\test\Pain Drain\libraries\lvgl\src\draw\sw/lv_draw_sw_blend.c ****                 lv_memcpy(dest_buf, src_buf, w * sizeof(lv_color_t));
 2906              		.loc 1 649 0 discriminator 3
 2907 007e 0137     		adds	r7, r7, #1
 2908              	.LVL474:
 2909 0080 06E0     		b	.L159
 2910              	.LVL475:
 2911              	.L190:
 2912 0082 0027     		movs	r7, #0
 2913 0084 A046     		mov	r8, r4
 2914 0086 049C     		ldr	r4, [sp, #16]
 2915              	.LVL476:
 2916 0088 059B     		ldr	r3, [sp, #20]
 2917 008a 9946     		mov	r9, r3
 2918 008c 069B     		ldr	r3, [sp, #24]
 2919 008e 9A46     		mov	r10, r3
 2920              	.LVL477:
 2921              	.L159:
 649:..\..\..\arduinoLCD\test\Pain Drain\libraries\lvgl\src\draw\sw/lv_draw_sw_blend.c ****                 lv_memcpy(dest_buf, src_buf, w * sizeof(lv_color_t));
 2922              		.loc 1 649 0 is_stmt 0 discriminator 1
 2923 0090 A742     		cmp	r7, r4
 2924 0092 E8DB     		blt	.L161
 2925 0094 01E2     		b	.L157
 2926              	.LVL478:
 2927              	.L163:
 658:..\..\..\arduinoLCD\test\Pain Drain\libraries\lvgl\src\draw\sw/lv_draw_sw_blend.c ****                 }
 2928              		.loc 1 658 0 is_stmt 1 discriminator 3
 2929 0096 6200     		lsls	r2, r4, #1
 2930 0098 6346     		mov	r3, ip
 2931 009a 9918     		adds	r1, r3, r2
 2932              	.LVL479:
 2933              	.LBB161:
 2934              	.LBB162:
 445:c:\projects\paindrain\arduinolcd\test\pain drain\libraries\lvgl\src\misc\lv_color.h ****     uint32_t bg = (uint32_t)((uint32_t)c2.full | ((uint32_t)c2.full << 16)) &
 2935              		.loc 3 445 0 discriminator 3
 2936 009c 029B     		ldr	r3, [sp, #8]
 2937 009e 0433     		adds	r3, r3, #4
 2938 00a0 DB08     		lsrs	r3, r3, #3
 2939 00a2 9A46     		mov	r10, r3
 2940              	.LVL480:
ARM GAS  C:\Users\haske\AppData\Local\Temp\ccydbpJh.s 			page 86


 446:c:\projects\paindrain\arduinolcd\test\pain drain\libraries\lvgl\src\misc\lv_color.h ****                   0x7E0F81F; /*0b00000111111000001111100000011111*/
 2941              		.loc 3 446 0 discriminator 3
 2942 00a4 0D88     		ldrh	r5, [r1]
 2943 00a6 2B04     		lsls	r3, r5, #16
 2944 00a8 2B43     		orrs	r3, r5
 2945 00aa D04D     		ldr	r5, .L197
 2946 00ac 2B40     		ands	r3, r5
 2947              	.LVL481:
 448:c:\projects\paindrain\arduinolcd\test\pain drain\libraries\lvgl\src\misc\lv_color.h ****     uint32_t result = ((((fg - bg) * mix) >> 5) + bg) & 0x7E0F81F;
 2948              		.loc 3 448 0 discriminator 3
 2949 00ae 019E     		ldr	r6, [sp, #4]
 2950 00b0 B65A     		ldrh	r6, [r6, r2]
 2951 00b2 3204     		lsls	r2, r6, #16
 2952 00b4 3243     		orrs	r2, r6
 2953 00b6 2A40     		ands	r2, r5
 2954              	.LVL482:
 449:c:\projects\paindrain\arduinolcd\test\pain drain\libraries\lvgl\src\misc\lv_color.h ****     ret.full = (uint16_t)((result >> 16) | result);
 2955              		.loc 3 449 0 discriminator 3
 2956 00b8 D21A     		subs	r2, r2, r3
 2957              	.LVL483:
 2958 00ba FF26     		movs	r6, #255
 2959              	.LVL484:
 2960 00bc B346     		mov	fp, r6
 2961 00be 5646     		mov	r6, r10
 2962 00c0 5F46     		mov	r7, fp
 2963 00c2 3E40     		ands	r6, r7
 2964 00c4 7243     		muls	r2, r6
 2965 00c6 5209     		lsrs	r2, r2, #5
 2966 00c8 9B18     		adds	r3, r3, r2
 2967              	.LVL485:
 2968 00ca 2B40     		ands	r3, r5
 2969              	.LVL486:
 450:c:\projects\paindrain\arduinolcd\test\pain drain\libraries\lvgl\src\misc\lv_color.h **** #elif LV_COLOR_DEPTH != 1
 2970              		.loc 3 450 0 discriminator 3
 2971 00cc 1A0C     		lsrs	r2, r3, #16
 2972 00ce 1343     		orrs	r3, r2
 2973              	.LVL487:
 2974              	.LBE162:
 2975              	.LBE161:
 658:..\..\..\arduinoLCD\test\Pain Drain\libraries\lvgl\src\draw\sw/lv_draw_sw_blend.c ****                 }
 2976              		.loc 1 658 0 discriminator 3
 2977 00d0 0B80     		strh	r3, [r1]
 657:..\..\..\arduinoLCD\test\Pain Drain\libraries\lvgl\src\draw\sw/lv_draw_sw_blend.c ****                     dest_buf[x] = lv_color_mix(src_buf[x], dest_buf[x], opa);
 2978              		.loc 1 657 0 discriminator 3
 2979 00d2 0134     		adds	r4, r4, #1
 2980              	.LVL488:
 2981 00d4 04E0     		b	.L164
 2982              	.LVL489:
 2983              	.L191:
 2984 00d6 0024     		movs	r4, #0
 2985 00d8 6046     		mov	r0, ip
 2986 00da AC46     		mov	ip, r5
 2987              	.LVL490:
 2988 00dc 5346     		mov	r3, r10
 2989 00de 0293     		str	r3, [sp, #8]
 2990              	.LVL491:
 2991              	.L164:
ARM GAS  C:\Users\haske\AppData\Local\Temp\ccydbpJh.s 			page 87


 657:..\..\..\arduinoLCD\test\Pain Drain\libraries\lvgl\src\draw\sw/lv_draw_sw_blend.c ****                     dest_buf[x] = lv_color_mix(src_buf[x], dest_buf[x], opa);
 2992              		.loc 1 657 0 is_stmt 0 discriminator 1
 2993 00e0 8442     		cmp	r4, r0
 2994 00e2 D8DB     		blt	.L163
 2995 00e4 6546     		mov	r5, ip
 2996 00e6 8446     		mov	ip, r0
 2997              	.LVL492:
 2998 00e8 029B     		ldr	r3, [sp, #8]
 2999 00ea 9A46     		mov	r10, r3
 660:..\..\..\arduinoLCD\test\Pain Drain\libraries\lvgl\src\draw\sw/lv_draw_sw_blend.c ****                 src_buf += src_stride;
 3000              		.loc 1 660 0 is_stmt 1 discriminator 2
 3001 00ec 059B     		ldr	r3, [sp, #20]
 3002 00ee 5B00     		lsls	r3, r3, #1
 3003 00f0 ED18     		adds	r5, r5, r3
 3004              	.LVL493:
 661:..\..\..\arduinoLCD\test\Pain Drain\libraries\lvgl\src\draw\sw/lv_draw_sw_blend.c ****             }
 3005              		.loc 1 661 0 discriminator 2
 3006 00f2 069B     		ldr	r3, [sp, #24]
 3007 00f4 5B00     		lsls	r3, r3, #1
 3008 00f6 019A     		ldr	r2, [sp, #4]
 3009 00f8 9346     		mov	fp, r2
 3010 00fa 9B44     		add	fp, fp, r3
 3011 00fc 5B46     		mov	r3, fp
 3012 00fe 0193     		str	r3, [sp, #4]
 3013              	.LVL494:
 656:..\..\..\arduinoLCD\test\Pain Drain\libraries\lvgl\src\draw\sw/lv_draw_sw_blend.c ****                 for(x = 0; x < w; x++) {
 3014              		.loc 1 656 0 discriminator 2
 3015 0100 0123     		movs	r3, #1
 3016              	.LVL495:
 3017 0102 9B46     		mov	fp, r3
 3018              	.LVL496:
 3019 0104 D844     		add	r8, r8, fp
 3020              	.LVL497:
 3021              	.L160:
 656:..\..\..\arduinoLCD\test\Pain Drain\libraries\lvgl\src\draw\sw/lv_draw_sw_blend.c ****                 for(x = 0; x < w; x++) {
 3022              		.loc 1 656 0 is_stmt 0 discriminator 1
 3023 0106 C845     		cmp	r8, r9
 3024 0108 E5DB     		blt	.L191
 3025 010a C6E1     		b	.L157
 3026              	.LVL498:
 3027              	.L158:
 668:..\..\..\arduinoLCD\test\Pain Drain\libraries\lvgl\src\draw\sw/lv_draw_sw_blend.c ****             int32_t x_end4 = w - 4;
 3028              		.loc 1 668 0 is_stmt 1
 3029 010c 5346     		mov	r3, r10
 3030 010e FD2B     		cmp	r3, #253
 3031 0110 00D8     		bhi	.LCB3682
 3032 0112 B5E1     		b	.L192	@long jump
 3033              	.LCB3682:
 3034              	.LBB163:
 669:..\..\..\arduinoLCD\test\Pain Drain\libraries\lvgl\src\draw\sw/lv_draw_sw_blend.c **** 
 3035              		.loc 1 669 0
 3036 0114 231F     		subs	r3, r4, #4
 3037 0116 9946     		mov	r9, r3
 3038              	.LVL499:
 671:..\..\..\arduinoLCD\test\Pain Drain\libraries\lvgl\src\draw\sw/lv_draw_sw_blend.c ****                 const lv_opa_t * mask_tmp_x = mask;
 3039              		.loc 1 671 0
 3040 0118 0023     		movs	r3, #0
ARM GAS  C:\Users\haske\AppData\Local\Temp\ccydbpJh.s 			page 88


 3041              	.LVL500:
 3042 011a 9A46     		mov	r10, r3
 3043 011c 4346     		mov	r3, r8
 3044 011e 1493     		str	r3, [sp, #80]
 3045              	.LVL501:
 3046 0120 5EE1     		b	.L166
 3047              	.LVL502:
 3048              	.L170:
 3049              	.LBB164:
 679:..\..\..\arduinoLCD\test\Pain Drain\libraries\lvgl\src\draw\sw/lv_draw_sw_blend.c ****                 }
 3050              		.loc 1 679 0
 3051 0122 3B78     		ldrb	r3, [r7]
 3052 0124 002B     		cmp	r3, #0
 3053 0126 2BD0     		beq	.L167
 679:..\..\..\arduinoLCD\test\Pain Drain\libraries\lvgl\src\draw\sw/lv_draw_sw_blend.c ****                 }
 3054              		.loc 1 679 0 is_stmt 0 discriminator 1
 3055 0128 FF2B     		cmp	r3, #255
 3056 012a 05D1     		bne	.L168
 679:..\..\..\arduinoLCD\test\Pain Drain\libraries\lvgl\src\draw\sw/lv_draw_sw_blend.c ****                 }
 3057              		.loc 1 679 0 discriminator 3
 3058 012c 6300     		lsls	r3, r4, #1
 3059 012e 0399     		ldr	r1, [sp, #12]
 3060 0130 C95A     		ldrh	r1, [r1, r3]
 3061 0132 0298     		ldr	r0, [sp, #8]
 3062 0134 C152     		strh	r1, [r0, r3]
 3063 0136 23E0     		b	.L167
 3064              	.L168:
 679:..\..\..\arduinoLCD\test\Pain Drain\libraries\lvgl\src\draw\sw/lv_draw_sw_blend.c ****                 }
 3065              		.loc 1 679 0 discriminator 4
 3066 0138 6000     		lsls	r0, r4, #1
 3067 013a 0299     		ldr	r1, [sp, #8]
 3068 013c 0918     		adds	r1, r1, r0
 3069              	.LVL503:
 3070              	.LBB165:
 3071              	.LBB166:
 445:c:\projects\paindrain\arduinolcd\test\pain drain\libraries\lvgl\src\misc\lv_color.h ****     uint32_t bg = (uint32_t)((uint32_t)c2.full | ((uint32_t)c2.full << 16)) &
 3072              		.loc 3 445 0 is_stmt 1 discriminator 4
 3073 013e 0433     		adds	r3, r3, #4
 3074              	.LVL504:
 3075 0140 DB08     		lsrs	r3, r3, #3
 3076 0142 9846     		mov	r8, r3
 3077              	.LVL505:
 446:c:\projects\paindrain\arduinolcd\test\pain drain\libraries\lvgl\src\misc\lv_color.h ****                   0x7E0F81F; /*0b00000111111000001111100000011111*/
 3078              		.loc 3 446 0 discriminator 4
 3079 0144 0B88     		ldrh	r3, [r1]
 3080 0146 9C46     		mov	ip, r3
 3081 0148 1B04     		lsls	r3, r3, #16
 3082 014a 6546     		mov	r5, ip
 3083 014c 2B43     		orrs	r3, r5
 3084 014e A74D     		ldr	r5, .L197
 3085 0150 AC46     		mov	ip, r5
 3086 0152 2B40     		ands	r3, r5
 3087              	.LVL506:
 448:c:\projects\paindrain\arduinolcd\test\pain drain\libraries\lvgl\src\misc\lv_color.h ****     uint32_t result = ((((fg - bg) * mix) >> 5) + bg) & 0x7E0F81F;
 3088              		.loc 3 448 0 discriminator 4
 3089 0154 039D     		ldr	r5, [sp, #12]
 3090 0156 285A     		ldrh	r0, [r5, r0]
ARM GAS  C:\Users\haske\AppData\Local\Temp\ccydbpJh.s 			page 89


 3091 0158 8346     		mov	fp, r0
 3092 015a 0004     		lsls	r0, r0, #16
 3093 015c 5D46     		mov	r5, fp
 3094 015e 2843     		orrs	r0, r5
 3095 0160 6546     		mov	r5, ip
 3096 0162 2840     		ands	r0, r5
 3097              	.LVL507:
 449:c:\projects\paindrain\arduinolcd\test\pain drain\libraries\lvgl\src\misc\lv_color.h ****     ret.full = (uint16_t)((result >> 16) | result);
 3098              		.loc 3 449 0 discriminator 4
 3099 0164 C01A     		subs	r0, r0, r3
 3100              	.LVL508:
 3101 0166 FF25     		movs	r5, #255
 3102              	.LVL509:
 3103 0168 AB46     		mov	fp, r5
 3104              	.LVL510:
 3105 016a 4546     		mov	r5, r8
 3106 016c 5E46     		mov	r6, fp
 3107 016e 3540     		ands	r5, r6
 3108 0170 6843     		muls	r0, r5
 3109 0172 4009     		lsrs	r0, r0, #5
 3110 0174 1B18     		adds	r3, r3, r0
 3111              	.LVL511:
 3112 0176 6046     		mov	r0, ip
 3113 0178 0340     		ands	r3, r0
 3114              	.LVL512:
 450:c:\projects\paindrain\arduinolcd\test\pain drain\libraries\lvgl\src\misc\lv_color.h **** #elif LV_COLOR_DEPTH != 1
 3115              		.loc 3 450 0 discriminator 4
 3116 017a 180C     		lsrs	r0, r3, #16
 3117 017c 0343     		orrs	r3, r0
 3118              	.LVL513:
 3119              	.LBE166:
 3120              	.LBE165:
 679:..\..\..\arduinoLCD\test\Pain Drain\libraries\lvgl\src\draw\sw/lv_draw_sw_blend.c ****                 }
 3121              		.loc 1 679 0 discriminator 4
 3122 017e 0B80     		strh	r3, [r1]
 3123              	.L167:
 679:..\..\..\arduinoLCD\test\Pain Drain\libraries\lvgl\src\draw\sw/lv_draw_sw_blend.c ****                 }
 3124              		.loc 1 679 0 is_stmt 0 discriminator 6
 3125 0180 0137     		adds	r7, r7, #1
 3126              	.LVL514:
 678:..\..\..\arduinoLCD\test\Pain Drain\libraries\lvgl\src\draw\sw/lv_draw_sw_blend.c ****                     MAP_NORMAL_MASK_PX(x)
 3127              		.loc 1 678 0 is_stmt 1 discriminator 6
 3128 0182 0134     		adds	r4, r4, #1
 3129              	.LVL515:
 3130 0184 04E0     		b	.L185
 3131              	.LVL516:
 3132              	.L193:
 3133              	.LBE164:
 3134 0186 149F     		ldr	r7, [sp, #80]
 3135 0188 0024     		movs	r4, #0
 3136 018a 6246     		mov	r2, ip
 3137 018c 0295     		str	r5, [sp, #8]
 3138 018e 0396     		str	r6, [sp, #12]
 3139              	.LVL517:
 3140              	.L185:
 3141              	.LBB177:
 678:..\..\..\arduinoLCD\test\Pain Drain\libraries\lvgl\src\draw\sw/lv_draw_sw_blend.c ****                     MAP_NORMAL_MASK_PX(x)
ARM GAS  C:\Users\haske\AppData\Local\Temp\ccydbpJh.s 			page 90


 3142              		.loc 1 678 0 is_stmt 0 discriminator 2
 3143 0190 9442     		cmp	r4, r2
 3144 0192 00DB     		blt	.LCB3821
 3145 0194 D2E0     		b	.L196	@long jump
 3146              	.LCB3821:
 678:..\..\..\arduinoLCD\test\Pain Drain\libraries\lvgl\src\draw\sw/lv_draw_sw_blend.c ****                     MAP_NORMAL_MASK_PX(x)
 3147              		.loc 1 678 0 discriminator 3
 3148 0196 BB07     		lsls	r3, r7, #30
 3149 0198 C3D1     		bne	.L170
 3150 019a 9446     		mov	ip, r2
 3151 019c 029D     		ldr	r5, [sp, #8]
 3152 019e 039E     		ldr	r6, [sp, #12]
 3153 01a0 4B46     		mov	r3, r9
 3154 01a2 0193     		str	r3, [sp, #4]
 3155 01a4 CFE0     		b	.L169
 3156              	.LVL518:
 3157              	.L180:
 684:..\..\..\arduinoLCD\test\Pain Drain\libraries\lvgl\src\draw\sw/lv_draw_sw_blend.c ****                         if((*mask32) == 0xFFFFFFFF) {
 3158              		.loc 1 684 0 is_stmt 1
 3159 01a6 3B68     		ldr	r3, [r7]
 3160 01a8 002B     		cmp	r3, #0
 3161 01aa 00D1     		bne	.LCB3843
 3162 01ac C3E0     		b	.L171	@long jump
 3163              	.LCB3843:
 685:..\..\..\arduinoLCD\test\Pain Drain\libraries\lvgl\src\draw\sw/lv_draw_sw_blend.c ****                             dest_buf[x] = src_buf[x];
 3164              		.loc 1 685 0
 3165 01ae 0133     		adds	r3, r3, #1
 3166 01b0 0FD1     		bne	.L172
 686:..\..\..\arduinoLCD\test\Pain Drain\libraries\lvgl\src\draw\sw/lv_draw_sw_blend.c ****                             dest_buf[x + 1] = src_buf[x + 1];
 3167              		.loc 1 686 0
 3168 01b2 6300     		lsls	r3, r4, #1
 3169 01b4 F15A     		ldrh	r1, [r6, r3]
 3170 01b6 E952     		strh	r1, [r5, r3]
 687:..\..\..\arduinoLCD\test\Pain Drain\libraries\lvgl\src\draw\sw/lv_draw_sw_blend.c ****                             dest_buf[x + 2] = src_buf[x + 2];
 3171              		.loc 1 687 0
 3172 01b8 631C     		adds	r3, r4, #1
 3173 01ba 5B00     		lsls	r3, r3, #1
 3174 01bc F15A     		ldrh	r1, [r6, r3]
 3175 01be E952     		strh	r1, [r5, r3]
 688:..\..\..\arduinoLCD\test\Pain Drain\libraries\lvgl\src\draw\sw/lv_draw_sw_blend.c ****                             dest_buf[x + 3] = src_buf[x + 3];
 3176              		.loc 1 688 0
 3177 01c0 A31C     		adds	r3, r4, #2
 3178 01c2 5B00     		lsls	r3, r3, #1
 3179 01c4 F15A     		ldrh	r1, [r6, r3]
 3180 01c6 E952     		strh	r1, [r5, r3]
 689:..\..\..\arduinoLCD\test\Pain Drain\libraries\lvgl\src\draw\sw/lv_draw_sw_blend.c ****                         }
 3181              		.loc 1 689 0
 3182 01c8 E31C     		adds	r3, r4, #3
 3183 01ca 5B00     		lsls	r3, r3, #1
 3184 01cc F15A     		ldrh	r1, [r6, r3]
 3185 01ce E952     		strh	r1, [r5, r3]
 3186 01d0 B1E0     		b	.L171
 3187              	.L172:
 3188              	.LVL519:
 693:..\..\..\arduinoLCD\test\Pain Drain\libraries\lvgl\src\draw\sw/lv_draw_sw_blend.c ****                             MAP_NORMAL_MASK_PX(x + 1)
 3189              		.loc 1 693 0
 3190 01d2 3B78     		ldrb	r3, [r7]
ARM GAS  C:\Users\haske\AppData\Local\Temp\ccydbpJh.s 			page 91


 3191 01d4 002B     		cmp	r3, #0
 3192 01d6 27D0     		beq	.L173
 693:..\..\..\arduinoLCD\test\Pain Drain\libraries\lvgl\src\draw\sw/lv_draw_sw_blend.c ****                             MAP_NORMAL_MASK_PX(x + 1)
 3193              		.loc 1 693 0 is_stmt 0 discriminator 1
 3194 01d8 FF2B     		cmp	r3, #255
 3195 01da 03D1     		bne	.L174
 693:..\..\..\arduinoLCD\test\Pain Drain\libraries\lvgl\src\draw\sw/lv_draw_sw_blend.c ****                             MAP_NORMAL_MASK_PX(x + 1)
 3196              		.loc 1 693 0 discriminator 3
 3197 01dc 6300     		lsls	r3, r4, #1
 3198 01de F15A     		ldrh	r1, [r6, r3]
 3199 01e0 E952     		strh	r1, [r5, r3]
 3200 01e2 21E0     		b	.L173
 3201              	.L174:
 693:..\..\..\arduinoLCD\test\Pain Drain\libraries\lvgl\src\draw\sw/lv_draw_sw_blend.c ****                             MAP_NORMAL_MASK_PX(x + 1)
 3202              		.loc 1 693 0 discriminator 4
 3203 01e4 6000     		lsls	r0, r4, #1
 3204 01e6 2918     		adds	r1, r5, r0
 3205              	.LVL520:
 3206              	.LBB167:
 3207              	.LBB168:
 445:c:\projects\paindrain\arduinolcd\test\pain drain\libraries\lvgl\src\misc\lv_color.h ****     uint32_t bg = (uint32_t)((uint32_t)c2.full | ((uint32_t)c2.full << 16)) &
 3208              		.loc 3 445 0 is_stmt 1 discriminator 4
 3209 01e8 0433     		adds	r3, r3, #4
 3210              	.LVL521:
 3211 01ea DB08     		lsrs	r3, r3, #3
 3212 01ec 9946     		mov	r9, r3
 3213              	.LVL522:
 446:c:\projects\paindrain\arduinolcd\test\pain drain\libraries\lvgl\src\misc\lv_color.h ****                   0x7E0F81F; /*0b00000111111000001111100000011111*/
 3214              		.loc 3 446 0 discriminator 4
 3215 01ee 0B88     		ldrh	r3, [r1]
 3216 01f0 9846     		mov	r8, r3
 3217 01f2 1B04     		lsls	r3, r3, #16
 3218 01f4 4246     		mov	r2, r8
 3219 01f6 1343     		orrs	r3, r2
 3220 01f8 7C4A     		ldr	r2, .L197
 3221 01fa 9046     		mov	r8, r2
 3222 01fc 1340     		ands	r3, r2
 3223              	.LVL523:
 448:c:\projects\paindrain\arduinolcd\test\pain drain\libraries\lvgl\src\misc\lv_color.h ****     uint32_t result = ((((fg - bg) * mix) >> 5) + bg) & 0x7E0F81F;
 3224              		.loc 3 448 0 discriminator 4
 3225 01fe 325A     		ldrh	r2, [r6, r0]
 3226 0200 1004     		lsls	r0, r2, #16
 3227 0202 1043     		orrs	r0, r2
 3228 0204 4246     		mov	r2, r8
 3229 0206 1040     		ands	r0, r2
 3230              	.LVL524:
 449:c:\projects\paindrain\arduinolcd\test\pain drain\libraries\lvgl\src\misc\lv_color.h ****     ret.full = (uint16_t)((result >> 16) | result);
 3231              		.loc 3 449 0 discriminator 4
 3232 0208 C01A     		subs	r0, r0, r3
 3233              	.LVL525:
 3234 020a 0290     		str	r0, [sp, #8]
 3235 020c FF22     		movs	r2, #255
 3236              	.LVL526:
 3237 020e 9346     		mov	fp, r2
 3238 0210 4A46     		mov	r2, r9
 3239 0212 5846     		mov	r0, fp
 3240 0214 0240     		ands	r2, r0
ARM GAS  C:\Users\haske\AppData\Local\Temp\ccydbpJh.s 			page 92


 3241 0216 0298     		ldr	r0, [sp, #8]
 3242 0218 5043     		muls	r0, r2
 3243 021a 4009     		lsrs	r0, r0, #5
 3244 021c 1B18     		adds	r3, r3, r0
 3245              	.LVL527:
 3246 021e 4246     		mov	r2, r8
 3247 0220 1340     		ands	r3, r2
 3248              	.LVL528:
 450:c:\projects\paindrain\arduinolcd\test\pain drain\libraries\lvgl\src\misc\lv_color.h **** #elif LV_COLOR_DEPTH != 1
 3249              		.loc 3 450 0 discriminator 4
 3250 0222 180C     		lsrs	r0, r3, #16
 3251 0224 0343     		orrs	r3, r0
 3252              	.LVL529:
 3253              	.LBE168:
 3254              	.LBE167:
 693:..\..\..\arduinoLCD\test\Pain Drain\libraries\lvgl\src\draw\sw/lv_draw_sw_blend.c ****                             MAP_NORMAL_MASK_PX(x + 1)
 3255              		.loc 1 693 0 discriminator 4
 3256 0226 0B80     		strh	r3, [r1]
 3257              	.L173:
 3258              	.LVL530:
 694:..\..\..\arduinoLCD\test\Pain Drain\libraries\lvgl\src\draw\sw/lv_draw_sw_blend.c ****                             MAP_NORMAL_MASK_PX(x + 2)
 3259              		.loc 1 694 0 discriminator 6
 3260 0228 7B78     		ldrb	r3, [r7, #1]
 3261 022a 002B     		cmp	r3, #0
 3262 022c 29D0     		beq	.L175
 694:..\..\..\arduinoLCD\test\Pain Drain\libraries\lvgl\src\draw\sw/lv_draw_sw_blend.c ****                             MAP_NORMAL_MASK_PX(x + 2)
 3263              		.loc 1 694 0 is_stmt 0 discriminator 1
 3264 022e FF2B     		cmp	r3, #255
 3265 0230 04D1     		bne	.L176
 694:..\..\..\arduinoLCD\test\Pain Drain\libraries\lvgl\src\draw\sw/lv_draw_sw_blend.c ****                             MAP_NORMAL_MASK_PX(x + 2)
 3266              		.loc 1 694 0 discriminator 3
 3267 0232 631C     		adds	r3, r4, #1
 3268 0234 5B00     		lsls	r3, r3, #1
 3269 0236 F15A     		ldrh	r1, [r6, r3]
 3270 0238 E952     		strh	r1, [r5, r3]
 3271 023a 22E0     		b	.L175
 3272              	.L176:
 694:..\..\..\arduinoLCD\test\Pain Drain\libraries\lvgl\src\draw\sw/lv_draw_sw_blend.c ****                             MAP_NORMAL_MASK_PX(x + 2)
 3273              		.loc 1 694 0 discriminator 4
 3274 023c 601C     		adds	r0, r4, #1
 3275 023e 4000     		lsls	r0, r0, #1
 3276 0240 2918     		adds	r1, r5, r0
 3277              	.LVL531:
 3278              	.LBB169:
 3279              	.LBB170:
 445:c:\projects\paindrain\arduinolcd\test\pain drain\libraries\lvgl\src\misc\lv_color.h ****     uint32_t bg = (uint32_t)((uint32_t)c2.full | ((uint32_t)c2.full << 16)) &
 3280              		.loc 3 445 0 is_stmt 1 discriminator 4
 3281 0242 0433     		adds	r3, r3, #4
 3282              	.LVL532:
 3283 0244 DB08     		lsrs	r3, r3, #3
 3284 0246 9946     		mov	r9, r3
 3285              	.LVL533:
 446:c:\projects\paindrain\arduinolcd\test\pain drain\libraries\lvgl\src\misc\lv_color.h ****                   0x7E0F81F; /*0b00000111111000001111100000011111*/
 3286              		.loc 3 446 0 discriminator 4
 3287 0248 0B88     		ldrh	r3, [r1]
 3288 024a 9846     		mov	r8, r3
 3289 024c 1B04     		lsls	r3, r3, #16
ARM GAS  C:\Users\haske\AppData\Local\Temp\ccydbpJh.s 			page 93


 3290 024e 4246     		mov	r2, r8
 3291 0250 1343     		orrs	r3, r2
 3292 0252 664A     		ldr	r2, .L197
 3293 0254 9046     		mov	r8, r2
 3294 0256 1340     		ands	r3, r2
 3295              	.LVL534:
 448:c:\projects\paindrain\arduinolcd\test\pain drain\libraries\lvgl\src\misc\lv_color.h ****     uint32_t result = ((((fg - bg) * mix) >> 5) + bg) & 0x7E0F81F;
 3296              		.loc 3 448 0 discriminator 4
 3297 0258 325A     		ldrh	r2, [r6, r0]
 3298 025a 1004     		lsls	r0, r2, #16
 3299 025c 1043     		orrs	r0, r2
 3300 025e 4246     		mov	r2, r8
 3301 0260 1040     		ands	r0, r2
 3302              	.LVL535:
 449:c:\projects\paindrain\arduinolcd\test\pain drain\libraries\lvgl\src\misc\lv_color.h ****     ret.full = (uint16_t)((result >> 16) | result);
 3303              		.loc 3 449 0 discriminator 4
 3304 0262 C01A     		subs	r0, r0, r3
 3305              	.LVL536:
 3306 0264 0290     		str	r0, [sp, #8]
 3307 0266 FF22     		movs	r2, #255
 3308              	.LVL537:
 3309 0268 9346     		mov	fp, r2
 3310 026a 4A46     		mov	r2, r9
 3311 026c 5846     		mov	r0, fp
 3312 026e 0240     		ands	r2, r0
 3313 0270 0298     		ldr	r0, [sp, #8]
 3314 0272 5043     		muls	r0, r2
 3315 0274 4009     		lsrs	r0, r0, #5
 3316 0276 1B18     		adds	r3, r3, r0
 3317              	.LVL538:
 3318 0278 4246     		mov	r2, r8
 3319 027a 1340     		ands	r3, r2
 3320              	.LVL539:
 450:c:\projects\paindrain\arduinolcd\test\pain drain\libraries\lvgl\src\misc\lv_color.h **** #elif LV_COLOR_DEPTH != 1
 3321              		.loc 3 450 0 discriminator 4
 3322 027c 180C     		lsrs	r0, r3, #16
 3323 027e 0343     		orrs	r3, r0
 3324              	.LVL540:
 3325              	.LBE170:
 3326              	.LBE169:
 694:..\..\..\arduinoLCD\test\Pain Drain\libraries\lvgl\src\draw\sw/lv_draw_sw_blend.c ****                             MAP_NORMAL_MASK_PX(x + 2)
 3327              		.loc 1 694 0 discriminator 4
 3328 0280 0B80     		strh	r3, [r1]
 3329              	.L175:
 3330              	.LVL541:
 695:..\..\..\arduinoLCD\test\Pain Drain\libraries\lvgl\src\draw\sw/lv_draw_sw_blend.c ****                             MAP_NORMAL_MASK_PX(x + 3)
 3331              		.loc 1 695 0 discriminator 6
 3332 0282 BB78     		ldrb	r3, [r7, #2]
 3333 0284 002B     		cmp	r3, #0
 3334 0286 29D0     		beq	.L177
 695:..\..\..\arduinoLCD\test\Pain Drain\libraries\lvgl\src\draw\sw/lv_draw_sw_blend.c ****                             MAP_NORMAL_MASK_PX(x + 3)
 3335              		.loc 1 695 0 is_stmt 0 discriminator 1
 3336 0288 FF2B     		cmp	r3, #255
 3337 028a 04D1     		bne	.L178
 695:..\..\..\arduinoLCD\test\Pain Drain\libraries\lvgl\src\draw\sw/lv_draw_sw_blend.c ****                             MAP_NORMAL_MASK_PX(x + 3)
 3338              		.loc 1 695 0 discriminator 3
 3339 028c A31C     		adds	r3, r4, #2
ARM GAS  C:\Users\haske\AppData\Local\Temp\ccydbpJh.s 			page 94


 3340 028e 5B00     		lsls	r3, r3, #1
 3341 0290 F15A     		ldrh	r1, [r6, r3]
 3342 0292 E952     		strh	r1, [r5, r3]
 3343 0294 22E0     		b	.L177
 3344              	.L178:
 695:..\..\..\arduinoLCD\test\Pain Drain\libraries\lvgl\src\draw\sw/lv_draw_sw_blend.c ****                             MAP_NORMAL_MASK_PX(x + 3)
 3345              		.loc 1 695 0 discriminator 4
 3346 0296 A01C     		adds	r0, r4, #2
 3347 0298 4000     		lsls	r0, r0, #1
 3348 029a 2918     		adds	r1, r5, r0
 3349              	.LVL542:
 3350              	.LBB171:
 3351              	.LBB172:
 445:c:\projects\paindrain\arduinolcd\test\pain drain\libraries\lvgl\src\misc\lv_color.h ****     uint32_t bg = (uint32_t)((uint32_t)c2.full | ((uint32_t)c2.full << 16)) &
 3352              		.loc 3 445 0 is_stmt 1 discriminator 4
 3353 029c 0433     		adds	r3, r3, #4
 3354              	.LVL543:
 3355 029e DB08     		lsrs	r3, r3, #3
 3356 02a0 9946     		mov	r9, r3
 3357              	.LVL544:
 446:c:\projects\paindrain\arduinolcd\test\pain drain\libraries\lvgl\src\misc\lv_color.h ****                   0x7E0F81F; /*0b00000111111000001111100000011111*/
 3358              		.loc 3 446 0 discriminator 4
 3359 02a2 0B88     		ldrh	r3, [r1]
 3360 02a4 9846     		mov	r8, r3
 3361 02a6 1B04     		lsls	r3, r3, #16
 3362 02a8 4246     		mov	r2, r8
 3363 02aa 1343     		orrs	r3, r2
 3364 02ac 4F4A     		ldr	r2, .L197
 3365 02ae 9046     		mov	r8, r2
 3366 02b0 1340     		ands	r3, r2
 3367              	.LVL545:
 448:c:\projects\paindrain\arduinolcd\test\pain drain\libraries\lvgl\src\misc\lv_color.h ****     uint32_t result = ((((fg - bg) * mix) >> 5) + bg) & 0x7E0F81F;
 3368              		.loc 3 448 0 discriminator 4
 3369 02b2 325A     		ldrh	r2, [r6, r0]
 3370 02b4 1004     		lsls	r0, r2, #16
 3371 02b6 1043     		orrs	r0, r2
 3372 02b8 4246     		mov	r2, r8
 3373 02ba 1040     		ands	r0, r2
 3374              	.LVL546:
 449:c:\projects\paindrain\arduinolcd\test\pain drain\libraries\lvgl\src\misc\lv_color.h ****     ret.full = (uint16_t)((result >> 16) | result);
 3375              		.loc 3 449 0 discriminator 4
 3376 02bc C01A     		subs	r0, r0, r3
 3377              	.LVL547:
 3378 02be 0290     		str	r0, [sp, #8]
 3379 02c0 FF22     		movs	r2, #255
 3380              	.LVL548:
 3381 02c2 9346     		mov	fp, r2
 3382 02c4 4A46     		mov	r2, r9
 3383 02c6 5846     		mov	r0, fp
 3384 02c8 0240     		ands	r2, r0
 3385 02ca 0298     		ldr	r0, [sp, #8]
 3386 02cc 5043     		muls	r0, r2
 3387 02ce 4009     		lsrs	r0, r0, #5
 3388 02d0 1B18     		adds	r3, r3, r0
 3389              	.LVL549:
 3390 02d2 4246     		mov	r2, r8
 3391 02d4 1340     		ands	r3, r2
ARM GAS  C:\Users\haske\AppData\Local\Temp\ccydbpJh.s 			page 95


 3392              	.LVL550:
 450:c:\projects\paindrain\arduinolcd\test\pain drain\libraries\lvgl\src\misc\lv_color.h **** #elif LV_COLOR_DEPTH != 1
 3393              		.loc 3 450 0 discriminator 4
 3394 02d6 180C     		lsrs	r0, r3, #16
 3395 02d8 0343     		orrs	r3, r0
 3396              	.LVL551:
 3397              	.LBE172:
 3398              	.LBE171:
 695:..\..\..\arduinoLCD\test\Pain Drain\libraries\lvgl\src\draw\sw/lv_draw_sw_blend.c ****                             MAP_NORMAL_MASK_PX(x + 3)
 3399              		.loc 1 695 0 discriminator 4
 3400 02da 0B80     		strh	r3, [r1]
 3401              	.L177:
 3402              	.LVL552:
 696:..\..\..\arduinoLCD\test\Pain Drain\libraries\lvgl\src\draw\sw/lv_draw_sw_blend.c ****                         }
 3403              		.loc 1 696 0 discriminator 6
 3404 02dc FB78     		ldrb	r3, [r7, #3]
 3405 02de 002B     		cmp	r3, #0
 3406 02e0 29D0     		beq	.L171
 696:..\..\..\arduinoLCD\test\Pain Drain\libraries\lvgl\src\draw\sw/lv_draw_sw_blend.c ****                         }
 3407              		.loc 1 696 0 is_stmt 0 discriminator 1
 3408 02e2 FF2B     		cmp	r3, #255
 3409 02e4 04D1     		bne	.L179
 696:..\..\..\arduinoLCD\test\Pain Drain\libraries\lvgl\src\draw\sw/lv_draw_sw_blend.c ****                         }
 3410              		.loc 1 696 0 discriminator 3
 3411 02e6 E31C     		adds	r3, r4, #3
 3412 02e8 5B00     		lsls	r3, r3, #1
 3413 02ea F15A     		ldrh	r1, [r6, r3]
 3414 02ec E952     		strh	r1, [r5, r3]
 3415 02ee 22E0     		b	.L171
 3416              	.L179:
 696:..\..\..\arduinoLCD\test\Pain Drain\libraries\lvgl\src\draw\sw/lv_draw_sw_blend.c ****                         }
 3417              		.loc 1 696 0 discriminator 4
 3418 02f0 E01C     		adds	r0, r4, #3
 3419 02f2 4000     		lsls	r0, r0, #1
 3420 02f4 2918     		adds	r1, r5, r0
 3421              	.LVL553:
 3422              	.LBB173:
 3423              	.LBB174:
 445:c:\projects\paindrain\arduinolcd\test\pain drain\libraries\lvgl\src\misc\lv_color.h ****     uint32_t bg = (uint32_t)((uint32_t)c2.full | ((uint32_t)c2.full << 16)) &
 3424              		.loc 3 445 0 is_stmt 1 discriminator 4
 3425 02f6 0433     		adds	r3, r3, #4
 3426              	.LVL554:
 3427 02f8 DB08     		lsrs	r3, r3, #3
 3428 02fa 9946     		mov	r9, r3
 3429              	.LVL555:
 446:c:\projects\paindrain\arduinolcd\test\pain drain\libraries\lvgl\src\misc\lv_color.h ****                   0x7E0F81F; /*0b00000111111000001111100000011111*/
 3430              		.loc 3 446 0 discriminator 4
 3431 02fc 0B88     		ldrh	r3, [r1]
 3432 02fe 9846     		mov	r8, r3
 3433 0300 1B04     		lsls	r3, r3, #16
 3434 0302 4246     		mov	r2, r8
 3435 0304 1343     		orrs	r3, r2
 3436 0306 394A     		ldr	r2, .L197
 3437 0308 9046     		mov	r8, r2
 3438 030a 1340     		ands	r3, r2
 3439              	.LVL556:
 448:c:\projects\paindrain\arduinolcd\test\pain drain\libraries\lvgl\src\misc\lv_color.h ****     uint32_t result = ((((fg - bg) * mix) >> 5) + bg) & 0x7E0F81F;
ARM GAS  C:\Users\haske\AppData\Local\Temp\ccydbpJh.s 			page 96


 3440              		.loc 3 448 0 discriminator 4
 3441 030c 325A     		ldrh	r2, [r6, r0]
 3442 030e 1004     		lsls	r0, r2, #16
 3443 0310 1043     		orrs	r0, r2
 3444 0312 4246     		mov	r2, r8
 3445 0314 1040     		ands	r0, r2
 3446              	.LVL557:
 449:c:\projects\paindrain\arduinolcd\test\pain drain\libraries\lvgl\src\misc\lv_color.h ****     ret.full = (uint16_t)((result >> 16) | result);
 3447              		.loc 3 449 0 discriminator 4
 3448 0316 C01A     		subs	r0, r0, r3
 3449              	.LVL558:
 3450 0318 0290     		str	r0, [sp, #8]
 3451 031a FF22     		movs	r2, #255
 3452              	.LVL559:
 3453 031c 9346     		mov	fp, r2
 3454 031e 4A46     		mov	r2, r9
 3455 0320 5846     		mov	r0, fp
 3456 0322 0240     		ands	r2, r0
 3457 0324 0298     		ldr	r0, [sp, #8]
 3458 0326 5043     		muls	r0, r2
 3459 0328 4009     		lsrs	r0, r0, #5
 3460 032a 1B18     		adds	r3, r3, r0
 3461              	.LVL560:
 3462 032c 4246     		mov	r2, r8
 3463 032e 1340     		ands	r3, r2
 3464              	.LVL561:
 450:c:\projects\paindrain\arduinolcd\test\pain drain\libraries\lvgl\src\misc\lv_color.h **** #elif LV_COLOR_DEPTH != 1
 3465              		.loc 3 450 0 discriminator 4
 3466 0330 180C     		lsrs	r0, r3, #16
 3467 0332 0343     		orrs	r3, r0
 3468              	.LVL562:
 3469              	.LBE174:
 3470              	.LBE173:
 696:..\..\..\arduinoLCD\test\Pain Drain\libraries\lvgl\src\draw\sw/lv_draw_sw_blend.c ****                         }
 3471              		.loc 1 696 0 discriminator 4
 3472 0334 0B80     		strh	r3, [r1]
 3473              	.LVL563:
 3474              	.L171:
 699:..\..\..\arduinoLCD\test\Pain Drain\libraries\lvgl\src\draw\sw/lv_draw_sw_blend.c ****                 }
 3475              		.loc 1 699 0
 3476 0336 0437     		adds	r7, r7, #4
 3477              	.LVL564:
 683:..\..\..\arduinoLCD\test\Pain Drain\libraries\lvgl\src\draw\sw/lv_draw_sw_blend.c ****                     if(*mask32) {
 3478              		.loc 1 683 0
 3479 0338 0434     		adds	r4, r4, #4
 3480              	.LVL565:
 3481 033a 04E0     		b	.L169
 3482              	.LVL566:
 3483              	.L196:
 3484 033c 9446     		mov	ip, r2
 3485 033e 4B46     		mov	r3, r9
 3486 0340 0193     		str	r3, [sp, #4]
 3487 0342 029D     		ldr	r5, [sp, #8]
 3488 0344 039E     		ldr	r6, [sp, #12]
 3489              	.LVL567:
 3490              	.L169:
 683:..\..\..\arduinoLCD\test\Pain Drain\libraries\lvgl\src\draw\sw/lv_draw_sw_blend.c ****                     if(*mask32) {
ARM GAS  C:\Users\haske\AppData\Local\Temp\ccydbpJh.s 			page 97


 3491              		.loc 1 683 0 is_stmt 0 discriminator 1
 3492 0346 019B     		ldr	r3, [sp, #4]
 3493 0348 9C42     		cmp	r4, r3
 3494 034a 00DA     		bge	.LCB4221
 3495 034c 2BE7     		b	.L180	@long jump
 3496              	.LCB4221:
 3497 034e 9946     		mov	r9, r3
 3498 0350 6246     		mov	r2, ip
 3499 0352 0195     		str	r5, [sp, #4]
 3500 0354 0296     		str	r6, [sp, #8]
 3501 0356 30E0     		b	.L181
 3502              	.LVL568:
 3503              	.L184:
 704:..\..\..\arduinoLCD\test\Pain Drain\libraries\lvgl\src\draw\sw/lv_draw_sw_blend.c ****                 }
 3504              		.loc 1 704 0 is_stmt 1
 3505 0358 3B78     		ldrb	r3, [r7]
 3506 035a 002B     		cmp	r3, #0
 3507 035c 2BD0     		beq	.L182
 704:..\..\..\arduinoLCD\test\Pain Drain\libraries\lvgl\src\draw\sw/lv_draw_sw_blend.c ****                 }
 3508              		.loc 1 704 0 is_stmt 0 discriminator 1
 3509 035e FF2B     		cmp	r3, #255
 3510 0360 05D1     		bne	.L183
 704:..\..\..\arduinoLCD\test\Pain Drain\libraries\lvgl\src\draw\sw/lv_draw_sw_blend.c ****                 }
 3511              		.loc 1 704 0 discriminator 3
 3512 0362 6300     		lsls	r3, r4, #1
 3513 0364 0299     		ldr	r1, [sp, #8]
 3514 0366 C95A     		ldrh	r1, [r1, r3]
 3515 0368 0198     		ldr	r0, [sp, #4]
 3516 036a C152     		strh	r1, [r0, r3]
 3517 036c 23E0     		b	.L182
 3518              	.L183:
 704:..\..\..\arduinoLCD\test\Pain Drain\libraries\lvgl\src\draw\sw/lv_draw_sw_blend.c ****                 }
 3519              		.loc 1 704 0 discriminator 4
 3520 036e 6000     		lsls	r0, r4, #1
 3521 0370 0199     		ldr	r1, [sp, #4]
 3522 0372 0918     		adds	r1, r1, r0
 3523              	.LVL569:
 3524              	.LBB175:
 3525              	.LBB176:
 445:c:\projects\paindrain\arduinolcd\test\pain drain\libraries\lvgl\src\misc\lv_color.h ****     uint32_t bg = (uint32_t)((uint32_t)c2.full | ((uint32_t)c2.full << 16)) &
 3526              		.loc 3 445 0 is_stmt 1 discriminator 4
 3527 0374 0433     		adds	r3, r3, #4
 3528              	.LVL570:
 3529 0376 DB08     		lsrs	r3, r3, #3
 3530 0378 9846     		mov	r8, r3
 3531              	.LVL571:
 446:c:\projects\paindrain\arduinolcd\test\pain drain\libraries\lvgl\src\misc\lv_color.h ****                   0x7E0F81F; /*0b00000111111000001111100000011111*/
 3532              		.loc 3 446 0 discriminator 4
 3533 037a 0B88     		ldrh	r3, [r1]
 3534 037c 9C46     		mov	ip, r3
 3535 037e 1B04     		lsls	r3, r3, #16
 3536 0380 6546     		mov	r5, ip
 3537 0382 2B43     		orrs	r3, r5
 3538 0384 194D     		ldr	r5, .L197
 3539 0386 AC46     		mov	ip, r5
 3540 0388 2B40     		ands	r3, r5
 3541              	.LVL572:
ARM GAS  C:\Users\haske\AppData\Local\Temp\ccydbpJh.s 			page 98


 448:c:\projects\paindrain\arduinolcd\test\pain drain\libraries\lvgl\src\misc\lv_color.h ****     uint32_t result = ((((fg - bg) * mix) >> 5) + bg) & 0x7E0F81F;
 3542              		.loc 3 448 0 discriminator 4
 3543 038a 029D     		ldr	r5, [sp, #8]
 3544 038c 285A     		ldrh	r0, [r5, r0]
 3545 038e 8346     		mov	fp, r0
 3546 0390 0004     		lsls	r0, r0, #16
 3547 0392 5D46     		mov	r5, fp
 3548 0394 2843     		orrs	r0, r5
 3549 0396 6546     		mov	r5, ip
 3550 0398 2840     		ands	r0, r5
 3551              	.LVL573:
 449:c:\projects\paindrain\arduinolcd\test\pain drain\libraries\lvgl\src\misc\lv_color.h ****     ret.full = (uint16_t)((result >> 16) | result);
 3552              		.loc 3 449 0 discriminator 4
 3553 039a C01A     		subs	r0, r0, r3
 3554              	.LVL574:
 3555 039c FF25     		movs	r5, #255
 3556              	.LVL575:
 3557 039e AB46     		mov	fp, r5
 3558              	.LVL576:
 3559 03a0 4546     		mov	r5, r8
 3560 03a2 5E46     		mov	r6, fp
 3561 03a4 3540     		ands	r5, r6
 3562 03a6 6843     		muls	r0, r5
 3563 03a8 4009     		lsrs	r0, r0, #5
 3564 03aa 1B18     		adds	r3, r3, r0
 3565              	.LVL577:
 3566 03ac 6046     		mov	r0, ip
 3567 03ae 0340     		ands	r3, r0
 3568              	.LVL578:
 450:c:\projects\paindrain\arduinolcd\test\pain drain\libraries\lvgl\src\misc\lv_color.h **** #elif LV_COLOR_DEPTH != 1
 3569              		.loc 3 450 0 discriminator 4
 3570 03b0 180C     		lsrs	r0, r3, #16
 3571 03b2 0343     		orrs	r3, r0
 3572              	.LVL579:
 3573              	.LBE176:
 3574              	.LBE175:
 704:..\..\..\arduinoLCD\test\Pain Drain\libraries\lvgl\src\draw\sw/lv_draw_sw_blend.c ****                 }
 3575              		.loc 1 704 0 discriminator 4
 3576 03b4 0B80     		strh	r3, [r1]
 3577              	.L182:
 704:..\..\..\arduinoLCD\test\Pain Drain\libraries\lvgl\src\draw\sw/lv_draw_sw_blend.c ****                 }
 3578              		.loc 1 704 0 is_stmt 0 discriminator 6
 3579 03b6 0137     		adds	r7, r7, #1
 3580              	.LVL580:
 703:..\..\..\arduinoLCD\test\Pain Drain\libraries\lvgl\src\draw\sw/lv_draw_sw_blend.c ****                     MAP_NORMAL_MASK_PX(x)
 3581              		.loc 1 703 0 is_stmt 1 discriminator 6
 3582 03b8 0134     		adds	r4, r4, #1
 3583              	.LVL581:
 3584              	.L181:
 703:..\..\..\arduinoLCD\test\Pain Drain\libraries\lvgl\src\draw\sw/lv_draw_sw_blend.c ****                     MAP_NORMAL_MASK_PX(x)
 3585              		.loc 1 703 0 is_stmt 0 discriminator 1
 3586 03ba 9442     		cmp	r4, r2
 3587 03bc CCDB     		blt	.L184
 3588 03be 9446     		mov	ip, r2
 3589 03c0 019D     		ldr	r5, [sp, #4]
 3590 03c2 029E     		ldr	r6, [sp, #8]
 707:..\..\..\arduinoLCD\test\Pain Drain\libraries\lvgl\src\draw\sw/lv_draw_sw_blend.c ****                 src_buf += src_stride;
ARM GAS  C:\Users\haske\AppData\Local\Temp\ccydbpJh.s 			page 99


 3591              		.loc 1 707 0 is_stmt 1 discriminator 2
 3592 03c4 059B     		ldr	r3, [sp, #20]
 3593 03c6 5B00     		lsls	r3, r3, #1
 3594 03c8 ED18     		adds	r5, r5, r3
 3595              	.LVL582:
 708:..\..\..\arduinoLCD\test\Pain Drain\libraries\lvgl\src\draw\sw/lv_draw_sw_blend.c ****                 mask += mask_stride;
 3596              		.loc 1 708 0 discriminator 2
 3597 03ca 069B     		ldr	r3, [sp, #24]
 3598 03cc 5B00     		lsls	r3, r3, #1
 3599 03ce F618     		adds	r6, r6, r3
 3600              	.LVL583:
 709:..\..\..\arduinoLCD\test\Pain Drain\libraries\lvgl\src\draw\sw/lv_draw_sw_blend.c ****             }
 3601              		.loc 1 709 0 discriminator 2
 3602 03d0 149B     		ldr	r3, [sp, #80]
 3603 03d2 079A     		ldr	r2, [sp, #28]
 3604              	.LVL584:
 3605 03d4 9046     		mov	r8, r2
 3606 03d6 4344     		add	r3, r3, r8
 3607 03d8 1493     		str	r3, [sp, #80]
 3608              	.LVL585:
 3609              	.LBE177:
 671:..\..\..\arduinoLCD\test\Pain Drain\libraries\lvgl\src\draw\sw/lv_draw_sw_blend.c ****                 const lv_opa_t * mask_tmp_x = mask;
 3610              		.loc 1 671 0 discriminator 2
 3611 03da 0123     		movs	r3, #1
 3612              	.LVL586:
 3613 03dc 9846     		mov	r8, r3
 3614 03de C244     		add	r10, r10, r8
 3615              	.LVL587:
 3616              	.L166:
 671:..\..\..\arduinoLCD\test\Pain Drain\libraries\lvgl\src\draw\sw/lv_draw_sw_blend.c ****                 const lv_opa_t * mask_tmp_x = mask;
 3617              		.loc 1 671 0 is_stmt 0 discriminator 1
 3618 03e0 049B     		ldr	r3, [sp, #16]
 3619 03e2 9A45     		cmp	r10, r3
 3620 03e4 00DA     		bge	.LCB4376
 3621 03e6 CEE6     		b	.L193	@long jump
 3622              	.LCB4376:
 3623 03e8 57E0     		b	.L157
 3624              	.L198:
 3625 03ea C046     		.align	2
 3626              	.L197:
 3627 03ec 1FF8E007 		.word	132184095
 3628              	.LVL588:
 3629              	.L188:
 3630              	.LBE163:
 716:..\..\..\arduinoLCD\test\Pain Drain\libraries\lvgl\src\draw\sw/lv_draw_sw_blend.c ****                         lv_opa_t opa_tmp = mask[x] >= LV_OPA_MAX ? opa : ((opa * mask[x]) >> 8);
 3631              		.loc 1 716 0 is_stmt 1
 3632 03f0 2200     		movs	r2, r4
 3633 03f2 2B5D     		ldrb	r3, [r5, r4]
 3634 03f4 002B     		cmp	r3, #0
 3635 03f6 29D0     		beq	.L186
 3636              	.LVL589:
 3637              	.LBB178:
 717:..\..\..\arduinoLCD\test\Pain Drain\libraries\lvgl\src\draw\sw/lv_draw_sw_blend.c ****                         dest_buf[x] = lv_color_mix(src_buf[x], dest_buf[x], opa_tmp);
 3638              		.loc 1 717 0
 3639 03f8 FC2B     		cmp	r3, #252
 3640 03fa 04D8     		bhi	.L194
 717:..\..\..\arduinoLCD\test\Pain Drain\libraries\lvgl\src\draw\sw/lv_draw_sw_blend.c ****                         dest_buf[x] = lv_color_mix(src_buf[x], dest_buf[x], opa_tmp);
ARM GAS  C:\Users\haske\AppData\Local\Temp\ccydbpJh.s 			page 100


 3641              		.loc 1 717 0 is_stmt 0 discriminator 1
 3642 03fc 0399     		ldr	r1, [sp, #12]
 3643 03fe 4B43     		muls	r3, r1
 3644 0400 1B12     		asrs	r3, r3, #8
 3645 0402 DBB2     		uxtb	r3, r3
 3646 0404 00E0     		b	.L187
 3647              	.L194:
 717:..\..\..\arduinoLCD\test\Pain Drain\libraries\lvgl\src\draw\sw/lv_draw_sw_blend.c ****                         dest_buf[x] = lv_color_mix(src_buf[x], dest_buf[x], opa_tmp);
 3648              		.loc 1 717 0
 3649 0406 039B     		ldr	r3, [sp, #12]
 3650              	.L187:
 3651              	.LVL590:
 718:..\..\..\arduinoLCD\test\Pain Drain\libraries\lvgl\src\draw\sw/lv_draw_sw_blend.c ****                     }
 3652              		.loc 1 718 0 is_stmt 1 discriminator 4
 3653 0408 5200     		lsls	r2, r2, #1
 3654              	.LVL591:
 3655 040a 9046     		mov	r8, r2
 3656 040c 0199     		ldr	r1, [sp, #4]
 3657 040e 8C46     		mov	ip, r1
 3658 0410 6244     		add	r2, r2, ip
 3659              	.LVL592:
 3660              	.LBB179:
 3661              	.LBB180:
 445:c:\projects\paindrain\arduinolcd\test\pain drain\libraries\lvgl\src\misc\lv_color.h ****     uint32_t bg = (uint32_t)((uint32_t)c2.full | ((uint32_t)c2.full << 16)) &
 3662              		.loc 3 445 0 discriminator 4
 3663 0412 0433     		adds	r3, r3, #4
 3664              	.LVL593:
 3665 0414 DB08     		lsrs	r3, r3, #3
 3666              	.LVL594:
 446:c:\projects\paindrain\arduinolcd\test\pain drain\libraries\lvgl\src\misc\lv_color.h ****                   0x7E0F81F; /*0b00000111111000001111100000011111*/
 3667              		.loc 3 446 0 discriminator 4
 3668 0416 1188     		ldrh	r1, [r2]
 3669 0418 0F04     		lsls	r7, r1, #16
 3670 041a 3943     		orrs	r1, r7
 3671 041c 224F     		ldr	r7, .L199
 3672 041e 3940     		ands	r1, r7
 3673 0420 8A46     		mov	r10, r1
 3674              	.LVL595:
 448:c:\projects\paindrain\arduinolcd\test\pain drain\libraries\lvgl\src\misc\lv_color.h ****     uint32_t result = ((((fg - bg) * mix) >> 5) + bg) & 0x7E0F81F;
 3675              		.loc 3 448 0 discriminator 4
 3676 0422 4146     		mov	r1, r8
 3677              	.LVL596:
 3678 0424 0298     		ldr	r0, [sp, #8]
 3679 0426 415A     		ldrh	r1, [r0, r1]
 3680 0428 8B46     		mov	fp, r1
 3681 042a 0904     		lsls	r1, r1, #16
 3682 042c 5846     		mov	r0, fp
 3683 042e 0143     		orrs	r1, r0
 3684 0430 3940     		ands	r1, r7
 3685              	.LVL597:
 449:c:\projects\paindrain\arduinolcd\test\pain drain\libraries\lvgl\src\misc\lv_color.h ****     ret.full = (uint16_t)((result >> 16) | result);
 3686              		.loc 3 449 0 discriminator 4
 3687 0432 5046     		mov	r0, r10
 3688 0434 091A     		subs	r1, r1, r0
 3689              	.LVL598:
 3690 0436 8846     		mov	r8, r1
 3691 0438 FF21     		movs	r1, #255
ARM GAS  C:\Users\haske\AppData\Local\Temp\ccydbpJh.s 			page 101


 3692 043a 0B40     		ands	r3, r1
 3693              	.LVL599:
 3694 043c 4146     		mov	r1, r8
 3695 043e 4B43     		muls	r3, r1
 3696 0440 5B09     		lsrs	r3, r3, #5
 3697 0442 5344     		add	r3, r3, r10
 3698 0444 3B40     		ands	r3, r7
 3699              	.LVL600:
 450:c:\projects\paindrain\arduinolcd\test\pain drain\libraries\lvgl\src\misc\lv_color.h **** #elif LV_COLOR_DEPTH != 1
 3700              		.loc 3 450 0 discriminator 4
 3701 0446 190C     		lsrs	r1, r3, #16
 3702 0448 0B43     		orrs	r3, r1
 3703              	.LVL601:
 3704              	.LBE180:
 3705              	.LBE179:
 718:..\..\..\arduinoLCD\test\Pain Drain\libraries\lvgl\src\draw\sw/lv_draw_sw_blend.c ****                     }
 3706              		.loc 1 718 0 discriminator 4
 3707 044a 1380     		strh	r3, [r2]
 3708              	.L186:
 3709              	.LBE178:
 715:..\..\..\arduinoLCD\test\Pain Drain\libraries\lvgl\src\draw\sw/lv_draw_sw_blend.c ****                     if(mask[x]) {
 3710              		.loc 1 715 0 discriminator 2
 3711 044c 0134     		adds	r4, r4, #1
 3712              	.LVL602:
 3713 044e 04E0     		b	.L189
 3714              	.LVL603:
 3715              	.L195:
 3716 0450 0024     		movs	r4, #0
 3717 0452 6346     		mov	r3, ip
 3718 0454 0193     		str	r3, [sp, #4]
 3719 0456 4346     		mov	r3, r8
 3720 0458 0293     		str	r3, [sp, #8]
 3721              	.LVL604:
 3722              	.L189:
 715:..\..\..\arduinoLCD\test\Pain Drain\libraries\lvgl\src\draw\sw/lv_draw_sw_blend.c ****                     if(mask[x]) {
 3723              		.loc 1 715 0 is_stmt 0 discriminator 1
 3724 045a B442     		cmp	r4, r6
 3725 045c C8DB     		blt	.L188
 3726 045e 019B     		ldr	r3, [sp, #4]
 3727 0460 9C46     		mov	ip, r3
 3728 0462 029B     		ldr	r3, [sp, #8]
 3729 0464 9846     		mov	r8, r3
 721:..\..\..\arduinoLCD\test\Pain Drain\libraries\lvgl\src\draw\sw/lv_draw_sw_blend.c ****                 src_buf += src_stride;
 3730              		.loc 1 721 0 is_stmt 1 discriminator 2
 3731 0466 059B     		ldr	r3, [sp, #20]
 3732 0468 5B00     		lsls	r3, r3, #1
 3733 046a 9C44     		add	ip, ip, r3
 3734              	.LVL605:
 722:..\..\..\arduinoLCD\test\Pain Drain\libraries\lvgl\src\draw\sw/lv_draw_sw_blend.c ****                 mask += mask_stride;
 3735              		.loc 1 722 0 discriminator 2
 3736 046c 069B     		ldr	r3, [sp, #24]
 3737 046e 5B00     		lsls	r3, r3, #1
 3738 0470 9844     		add	r8, r8, r3
 3739              	.LVL606:
 723:..\..\..\arduinoLCD\test\Pain Drain\libraries\lvgl\src\draw\sw/lv_draw_sw_blend.c ****             }
 3740              		.loc 1 723 0 discriminator 2
 3741 0472 079B     		ldr	r3, [sp, #28]
ARM GAS  C:\Users\haske\AppData\Local\Temp\ccydbpJh.s 			page 102


 3742 0474 9A46     		mov	r10, r3
 3743 0476 5544     		add	r5, r5, r10
 3744              	.LVL607:
 714:..\..\..\arduinoLCD\test\Pain Drain\libraries\lvgl\src\draw\sw/lv_draw_sw_blend.c ****                 for(x = 0; x < w; x++) {
 3745              		.loc 1 714 0 discriminator 2
 3746 0478 0123     		movs	r3, #1
 3747 047a 9A46     		mov	r10, r3
 3748 047c D144     		add	r9, r9, r10
 3749              	.LVL608:
 3750 047e 09E0     		b	.L165
 3751              	.LVL609:
 3752              	.L192:
 3753 0480 0023     		movs	r3, #0
 3754 0482 9946     		mov	r9, r3
 3755 0484 5346     		mov	r3, r10
 3756 0486 0393     		str	r3, [sp, #12]
 3757 0488 4346     		mov	r3, r8
 3758 048a 1493     		str	r3, [sp, #80]
 3759              	.LVL610:
 3760 048c B046     		mov	r8, r6
 3761 048e 2600     		movs	r6, r4
 3762              	.LVL611:
 3763 0490 8446     		mov	ip, r0
 3764 0492 1D00     		movs	r5, r3
 3765              	.LVL612:
 3766              	.L165:
 714:..\..\..\arduinoLCD\test\Pain Drain\libraries\lvgl\src\draw\sw/lv_draw_sw_blend.c ****                 for(x = 0; x < w; x++) {
 3767              		.loc 1 714 0 is_stmt 0 discriminator 1
 3768 0494 049B     		ldr	r3, [sp, #16]
 3769 0496 9945     		cmp	r9, r3
 3770 0498 DADB     		blt	.L195
 3771              	.LVL613:
 3772              	.L157:
 727:..\..\..\arduinoLCD\test\Pain Drain\libraries\lvgl\src\draw\sw/lv_draw_sw_blend.c **** 
 3773              		.loc 1 727 0 is_stmt 1
 3774 049a 09B0     		add	sp, sp, #36
 3775              		@ sp needed
 3776 049c 3CBC     		pop	{r2, r3, r4, r5}
 3777 049e 9046     		mov	r8, r2
 3778 04a0 9946     		mov	r9, r3
 3779 04a2 A246     		mov	r10, r4
 3780 04a4 AB46     		mov	fp, r5
 3781 04a6 F0BD     		pop	{r4, r5, r6, r7, pc}
 3782              	.L200:
 3783              		.align	2
 3784              	.L199:
 3785 04a8 1FF8E007 		.word	132184095
 3786              		.cfi_endproc
 3787              	.LFE165:
 3788              		.size	map_normal, .-map_normal
 3789              		.section	.text.lv_draw_sw_blend,"ax",%progbits
 3790              		.align	2
 3791              		.global	lv_draw_sw_blend
 3792              		.code	16
 3793              		.thumb_func
 3794              		.type	lv_draw_sw_blend, %function
 3795              	lv_draw_sw_blend:
ARM GAS  C:\Users\haske\AppData\Local\Temp\ccydbpJh.s 			page 103


 3796              	.LFB159:
  92:..\..\..\arduinoLCD\test\Pain Drain\libraries\lvgl\src\draw\sw/lv_draw_sw_blend.c ****     /*Do not draw transparent things*/
 3797              		.loc 1 92 0
 3798              		.cfi_startproc
 3799              		@ args = 0, pretend = 0, frame = 8
 3800              		@ frame_needed = 0, uses_anonymous_args = 0
 3801              	.LVL614:
 3802 0000 30B5     		push	{r4, r5, lr}
 3803              		.cfi_def_cfa_offset 12
 3804              		.cfi_offset 4, -12
 3805              		.cfi_offset 5, -8
 3806              		.cfi_offset 14, -4
 3807 0002 83B0     		sub	sp, sp, #12
 3808              		.cfi_def_cfa_offset 24
 3809 0004 0500     		movs	r5, r0
 3810 0006 0C00     		movs	r4, r1
  94:..\..\..\arduinoLCD\test\Pain Drain\libraries\lvgl\src\draw\sw/lv_draw_sw_blend.c **** 
 3811              		.loc 1 94 0
 3812 0008 0B7E     		ldrb	r3, [r1, #24]
 3813 000a 022B     		cmp	r3, #2
 3814 000c 0FD9     		bls	.L201
  97:..\..\..\arduinoLCD\test\Pain Drain\libraries\lvgl\src\draw\sw/lv_draw_sw_blend.c **** 
 3815              		.loc 1 97 0
 3816 000e 8268     		ldr	r2, [r0, #8]
 3817 0010 0968     		ldr	r1, [r1]
 3818              	.LVL615:
 3819 0012 6846     		mov	r0, sp
 3820              	.LVL616:
 3821 0014 FFF7FEFF 		bl	_lv_area_intersect
 3822              	.LVL617:
 3823 0018 0028     		cmp	r0, #0
 3824 001a 08D0     		beq	.L201
  99:..\..\..\arduinoLCD\test\Pain Drain\libraries\lvgl\src\draw\sw/lv_draw_sw_blend.c **** 
 3825              		.loc 1 99 0
 3826 001c 6B6B     		ldr	r3, [r5, #52]
 3827 001e 002B     		cmp	r3, #0
 3828 0020 01D0     		beq	.L203
  99:..\..\..\arduinoLCD\test\Pain Drain\libraries\lvgl\src\draw\sw/lv_draw_sw_blend.c **** 
 3829              		.loc 1 99 0 is_stmt 0 discriminator 1
 3830 0022 2800     		movs	r0, r5
 3831 0024 9847     		blx	r3
 3832              	.LVL618:
 3833              	.L203:
 101:..\..\..\arduinoLCD\test\Pain Drain\libraries\lvgl\src\draw\sw/lv_draw_sw_blend.c **** }
 3834              		.loc 1 101 0 is_stmt 1
 3835 0026 6B6D     		ldr	r3, [r5, #84]
 3836 0028 2100     		movs	r1, r4
 3837 002a 2800     		movs	r0, r5
 3838 002c 9847     		blx	r3
 3839              	.LVL619:
 3840              	.L201:
 102:..\..\..\arduinoLCD\test\Pain Drain\libraries\lvgl\src\draw\sw/lv_draw_sw_blend.c **** 
 3841              		.loc 1 102 0
 3842 002e 03B0     		add	sp, sp, #12
 3843              		@ sp needed
 3844              	.LVL620:
 3845              	.LVL621:
ARM GAS  C:\Users\haske\AppData\Local\Temp\ccydbpJh.s 			page 104


 3846 0030 30BD     		pop	{r4, r5, pc}
 3847              		.cfi_endproc
 3848              	.LFE159:
 3849              		.size	lv_draw_sw_blend, .-lv_draw_sw_blend
 3850 0032 C046     		.section	.text.lv_draw_sw_blend_basic,"ax",%progbits
 3851              		.align	2
 3852              		.global	lv_draw_sw_blend_basic
 3853              		.code	16
 3854              		.thumb_func
 3855              		.type	lv_draw_sw_blend_basic, %function
 3856              	lv_draw_sw_blend_basic:
 3857              	.LFB160:
 105:..\..\..\arduinoLCD\test\Pain Drain\libraries\lvgl\src\draw\sw/lv_draw_sw_blend.c ****     lv_opa_t * mask;
 3858              		.loc 1 105 0
 3859              		.cfi_startproc
 3860              		@ args = 0, pretend = 0, frame = 16
 3861              		@ frame_needed = 0, uses_anonymous_args = 0
 3862              	.LVL622:
 3863 0000 F0B5     		push	{r4, r5, r6, r7, lr}
 3864              		.cfi_def_cfa_offset 20
 3865              		.cfi_offset 4, -20
 3866              		.cfi_offset 5, -16
 3867              		.cfi_offset 6, -12
 3868              		.cfi_offset 7, -8
 3869              		.cfi_offset 14, -4
 3870 0002 5F46     		mov	r7, fp
 3871 0004 5646     		mov	r6, r10
 3872 0006 4D46     		mov	r5, r9
 3873 0008 4446     		mov	r4, r8
 3874 000a F0B4     		push	{r4, r5, r6, r7}
 3875              		.cfi_def_cfa_offset 36
 3876              		.cfi_offset 8, -36
 3877              		.cfi_offset 9, -32
 3878              		.cfi_offset 10, -28
 3879              		.cfi_offset 11, -24
 3880 000c 8BB0     		sub	sp, sp, #44
 3881              		.cfi_def_cfa_offset 80
 3882 000e 0700     		movs	r7, r0
 3883 0010 0C00     		movs	r4, r1
 108:..\..\..\arduinoLCD\test\Pain Drain\libraries\lvgl\src\draw\sw/lv_draw_sw_blend.c ****     else if(dsc->mask_res == LV_DRAW_MASK_RES_FULL_COVER) mask = NULL;
 3884              		.loc 1 108 0
 3885 0012 CE68     		ldr	r6, [r1, #12]
 3886 0014 002E     		cmp	r6, #0
 3887 0016 03D0     		beq	.L206
 108:..\..\..\arduinoLCD\test\Pain Drain\libraries\lvgl\src\draw\sw/lv_draw_sw_blend.c ****     else if(dsc->mask_res == LV_DRAW_MASK_RES_FULL_COVER) mask = NULL;
 3888              		.loc 1 108 0 is_stmt 0 discriminator 1
 3889 0018 0B7C     		ldrb	r3, [r1, #16]
 3890 001a 002B     		cmp	r3, #0
 3891 001c 00D1     		bne	.LCB4682
 3892 001e 17E1     		b	.L205	@long jump
 3893              	.LCB4682:
 3894              	.L206:
 109:..\..\..\arduinoLCD\test\Pain Drain\libraries\lvgl\src\draw\sw/lv_draw_sw_blend.c ****     else mask = dsc->mask_buf;
 3895              		.loc 1 109 0 is_stmt 1
 3896 0020 237C     		ldrb	r3, [r4, #16]
 3897 0022 012B     		cmp	r3, #1
 3898 0024 00D1     		bne	.L208
ARM GAS  C:\Users\haske\AppData\Local\Temp\ccydbpJh.s 			page 105


 3899 0026 0026     		movs	r6, #0
 3900              	.L208:
 3901              	.LVL623:
 112:..\..\..\arduinoLCD\test\Pain Drain\libraries\lvgl\src\draw\sw/lv_draw_sw_blend.c **** 
 3902              		.loc 1 112 0
 3903 0028 7A68     		ldr	r2, [r7, #4]
 3904              	.LVL624:
 3905              	.LBB181:
 3906              	.LBB182:
 125:c:\projects\paindrain\arduinolcd\test\pain drain\libraries\lvgl\src\misc\lv_area.h **** }
 3907              		.loc 2 125 0
 3908 002a 0421     		movs	r1, #4
 3909 002c 535E     		ldrsh	r3, [r2, r1]
 3910              	.LVL625:
 3911 002e 0025     		movs	r5, #0
 3912 0030 555F     		ldrsh	r5, [r2, r5]
 3913              	.LVL626:
 3914 0032 5D1B     		subs	r5, r3, r5
 3915 0034 0135     		adds	r5, r5, #1
 3916 0036 2DB2     		sxth	r5, r5
 3917              	.LVL627:
 3918              	.LBE182:
 3919              	.LBE181:
 115:..\..\..\arduinoLCD\test\Pain Drain\libraries\lvgl\src\draw\sw/lv_draw_sw_blend.c **** 
 3920              		.loc 1 115 0
 3921 0038 BA68     		ldr	r2, [r7, #8]
 3922 003a 2168     		ldr	r1, [r4]
 3923 003c 08A8     		add	r0, sp, #32
 3924              	.LVL628:
 3925 003e FFF7FEFF 		bl	_lv_area_intersect
 3926              	.LVL629:
 3927 0042 0028     		cmp	r0, #0
 3928 0044 00D1     		bne	.LCB4714
 3929 0046 03E1     		b	.L205	@long jump
 3930              	.LCB4714:
 117:..\..\..\arduinoLCD\test\Pain Drain\libraries\lvgl\src\draw\sw/lv_draw_sw_blend.c ****     lv_color_t * dest_buf = draw_ctx->buf;
 3931              		.loc 1 117 0
 3932 0048 FFF7FEFF 		bl	_lv_refr_get_disp_refreshing
 3933              	.LVL630:
 3934 004c 8346     		mov	fp, r0
 3935              	.LVL631:
 118:..\..\..\arduinoLCD\test\Pain Drain\libraries\lvgl\src\draw\sw/lv_draw_sw_blend.c ****     if(disp->driver->set_px_cb == NULL) {
 3936              		.loc 1 118 0
 3937 004e 3B68     		ldr	r3, [r7]
 3938 0050 0693     		str	r3, [sp, #24]
 3939              	.LVL632:
 119:..\..\..\arduinoLCD\test\Pain Drain\libraries\lvgl\src\draw\sw/lv_draw_sw_blend.c ****         if(disp->driver->screen_transp == 0) {
 3940              		.loc 1 119 0
 3941 0052 0168     		ldr	r1, [r0]
 3942 0054 CB69     		ldr	r3, [r1, #28]
 3943              	.LVL633:
 3944 0056 002B     		cmp	r3, #0
 3945 0058 38D1     		bne	.L209
 120:..\..\..\arduinoLCD\test\Pain Drain\libraries\lvgl\src\draw\sw/lv_draw_sw_blend.c ****             dest_buf += dest_stride * (blend_area.y1 - draw_ctx->buf_area->y1) + (blend_area.x1 - d
 3946              		.loc 1 120 0
 3947 005a 0B7C     		ldrb	r3, [r1, #16]
 3948 005c 5B06     		lsls	r3, r3, #25
ARM GAS  C:\Users\haske\AppData\Local\Temp\ccydbpJh.s 			page 106


 3949 005e 19D4     		bmi	.L210
 121:..\..\..\arduinoLCD\test\Pain Drain\libraries\lvgl\src\draw\sw/lv_draw_sw_blend.c ****         }
 3950              		.loc 1 121 0
 3951 0060 08AA     		add	r2, sp, #32
 3952 0062 0220     		movs	r0, #2
 3953 0064 135E     		ldrsh	r3, [r2, r0]
 3954              	.LVL634:
 3955 0066 9C46     		mov	ip, r3
 3956 0068 7868     		ldr	r0, [r7, #4]
 3957 006a 0223     		movs	r3, #2
 3958 006c C05E     		ldrsh	r0, [r0, r3]
 3959 006e 6346     		mov	r3, ip
 3960 0070 1B1A     		subs	r3, r3, r0
 3961 0072 6B43     		muls	r3, r5
 3962 0074 9C46     		mov	ip, r3
 3963 0076 0020     		movs	r0, #0
 3964 0078 125E     		ldrsh	r2, [r2, r0]
 3965 007a 7868     		ldr	r0, [r7, #4]
 3966 007c 0023     		movs	r3, #0
 3967 007e C05E     		ldrsh	r0, [r0, r3]
 3968 0080 121A     		subs	r2, r2, r0
 3969 0082 1300     		movs	r3, r2
 3970 0084 6344     		add	r3, r3, ip
 3971 0086 5B00     		lsls	r3, r3, #1
 3972 0088 069A     		ldr	r2, [sp, #24]
 3973 008a 9446     		mov	ip, r2
 3974 008c 9C44     		add	ip, ip, r3
 3975 008e 6346     		mov	r3, ip
 3976 0090 0693     		str	r3, [sp, #24]
 3977              	.LVL635:
 3978 0092 1BE0     		b	.L209
 3979              	.LVL636:
 3980              	.L210:
 3981              	.LBB183:
 126:..\..\..\arduinoLCD\test\Pain Drain\libraries\lvgl\src\draw\sw/lv_draw_sw_blend.c ****             dest_buf8 += (blend_area.x1 - draw_ctx->buf_area->x1) * LV_IMG_PX_SIZE_ALPHA_BYTE;
 3982              		.loc 1 126 0
 3983 0094 08AA     		add	r2, sp, #32
 3984 0096 0220     		movs	r0, #2
 3985 0098 135E     		ldrsh	r3, [r2, r0]
 3986              	.LVL637:
 3987 009a 9C46     		mov	ip, r3
 3988 009c 7868     		ldr	r0, [r7, #4]
 3989 009e 0223     		movs	r3, #2
 3990 00a0 C05E     		ldrsh	r0, [r0, r3]
 3991 00a2 6346     		mov	r3, ip
 3992 00a4 1B1A     		subs	r3, r3, r0
 3993 00a6 6B43     		muls	r3, r5
 3994 00a8 5800     		lsls	r0, r3, #1
 3995 00aa C018     		adds	r0, r0, r3
 3996              	.LVL638:
 127:..\..\..\arduinoLCD\test\Pain Drain\libraries\lvgl\src\draw\sw/lv_draw_sw_blend.c ****             dest_buf = (lv_color_t *)dest_buf8;
 3997              		.loc 1 127 0
 3998 00ac 0023     		movs	r3, #0
 3999 00ae D25E     		ldrsh	r2, [r2, r3]
 4000 00b0 9446     		mov	ip, r2
 4001 00b2 7B68     		ldr	r3, [r7, #4]
 4002 00b4 0022     		movs	r2, #0
ARM GAS  C:\Users\haske\AppData\Local\Temp\ccydbpJh.s 			page 107


 4003 00b6 9B5E     		ldrsh	r3, [r3, r2]
 4004 00b8 6246     		mov	r2, ip
 4005 00ba D31A     		subs	r3, r2, r3
 4006 00bc 5A00     		lsls	r2, r3, #1
 4007 00be D318     		adds	r3, r2, r3
 4008 00c0 C318     		adds	r3, r0, r3
 4009 00c2 069A     		ldr	r2, [sp, #24]
 4010 00c4 9446     		mov	ip, r2
 4011 00c6 9C44     		add	ip, ip, r3
 4012 00c8 6346     		mov	r3, ip
 4013 00ca 0693     		str	r3, [sp, #24]
 4014              	.LVL639:
 4015              	.L209:
 4016              	.LBE183:
 132:..\..\..\arduinoLCD\test\Pain Drain\libraries\lvgl\src\draw\sw/lv_draw_sw_blend.c ****     lv_coord_t src_stride;
 4017              		.loc 1 132 0
 4018 00cc 6368     		ldr	r3, [r4, #4]
 4019 00ce 9A46     		mov	r10, r3
 4020              	.LVL640:
 134:..\..\..\arduinoLCD\test\Pain Drain\libraries\lvgl\src\draw\sw/lv_draw_sw_blend.c ****         src_stride = lv_area_get_width(dsc->blend_area);
 4021              		.loc 1 134 0
 4022 00d0 002B     		cmp	r3, #0
 4023 00d2 1DD0     		beq	.L224
 135:..\..\..\arduinoLCD\test\Pain Drain\libraries\lvgl\src\draw\sw/lv_draw_sw_blend.c ****         src_buf += src_stride * (blend_area.y1 - dsc->blend_area->y1) + (blend_area.x1 - dsc->blend
 4024              		.loc 1 135 0
 4025 00d4 2368     		ldr	r3, [r4]
 4026              	.LVL641:
 4027              	.LBB184:
 4028              	.LBB185:
 125:c:\projects\paindrain\arduinolcd\test\pain drain\libraries\lvgl\src\misc\lv_area.h **** }
 4029              		.loc 2 125 0
 4030 00d6 0420     		movs	r0, #4
 4031 00d8 1A5E     		ldrsh	r2, [r3, r0]
 4032 00da 0793     		str	r3, [sp, #28]
 4033 00dc 0020     		movs	r0, #0
 4034 00de 1B5E     		ldrsh	r3, [r3, r0]
 4035              	.LVL642:
 4036 00e0 9846     		mov	r8, r3
 4037 00e2 D21A     		subs	r2, r2, r3
 4038 00e4 0132     		adds	r2, r2, #1
 4039 00e6 12B2     		sxth	r2, r2
 4040 00e8 9146     		mov	r9, r2
 4041              	.LVL643:
 4042              	.LBE185:
 4043              	.LBE184:
 136:..\..\..\arduinoLCD\test\Pain Drain\libraries\lvgl\src\draw\sw/lv_draw_sw_blend.c ****     }
 4044              		.loc 1 136 0
 4045 00ea 08AA     		add	r2, sp, #32
 4046 00ec 0223     		movs	r3, #2
 4047 00ee D05E     		ldrsh	r0, [r2, r3]
 4048 00f0 8446     		mov	ip, r0
 4049 00f2 079B     		ldr	r3, [sp, #28]
 4050 00f4 0220     		movs	r0, #2
 4051 00f6 1B5E     		ldrsh	r3, [r3, r0]
 4052 00f8 6046     		mov	r0, ip
 4053 00fa C31A     		subs	r3, r0, r3
 4054 00fc 4846     		mov	r0, r9
ARM GAS  C:\Users\haske\AppData\Local\Temp\ccydbpJh.s 			page 108


 4055 00fe 4343     		muls	r3, r0
 4056 0100 0020     		movs	r0, #0
 4057 0102 125E     		ldrsh	r2, [r2, r0]
 4058 0104 4046     		mov	r0, r8
 4059 0106 121A     		subs	r2, r2, r0
 4060 0108 9B18     		adds	r3, r3, r2
 4061 010a 5B00     		lsls	r3, r3, #1
 4062 010c 9A44     		add	r10, r10, r3
 4063              	.LVL644:
 4064 010e 01E0     		b	.L211
 4065              	.LVL645:
 4066              	.L224:
 139:..\..\..\arduinoLCD\test\Pain Drain\libraries\lvgl\src\draw\sw/lv_draw_sw_blend.c ****     }
 4067              		.loc 1 139 0
 4068 0110 0023     		movs	r3, #0
 4069              	.LVL646:
 4070 0112 9946     		mov	r9, r3
 4071              	.L211:
 4072              	.LVL647:
 143:..\..\..\arduinoLCD\test\Pain Drain\libraries\lvgl\src\draw\sw/lv_draw_sw_blend.c ****         /*Round the values in the mask if anti-aliasing is disabled*/
 4073              		.loc 1 143 0
 4074 0114 002E     		cmp	r6, #0
 4075 0116 2DD0     		beq	.L225
 145:..\..\..\arduinoLCD\test\Pain Drain\libraries\lvgl\src\draw\sw/lv_draw_sw_blend.c ****             int32_t mask_size = lv_area_get_size(dsc->mask_area);
 4076              		.loc 1 145 0
 4077 0118 0B7C     		ldrb	r3, [r1, #16]
 4078 011a 0822     		movs	r2, #8
 4079 011c 1A40     		ands	r2, r3
 4080 011e 9046     		mov	r8, r2
 4081 0120 0FD1     		bne	.L213
 4082              	.LBB186:
 146:..\..\..\arduinoLCD\test\Pain Drain\libraries\lvgl\src\draw\sw/lv_draw_sw_blend.c ****             int32_t i;
 4083              		.loc 1 146 0
 4084 0122 6069     		ldr	r0, [r4, #20]
 4085 0124 FFF7FEFF 		bl	lv_area_get_size
 4086              	.LVL648:
 148:..\..\..\arduinoLCD\test\Pain Drain\libraries\lvgl\src\draw\sw/lv_draw_sw_blend.c ****                 mask[i] = mask[i] > 128 ? LV_OPA_COVER : LV_OPA_TRANSP;
 4087              		.loc 1 148 0
 4088 0128 0023     		movs	r3, #0
 4089 012a 08E0     		b	.L214
 4090              	.LVL649:
 4091              	.L216:
 149:..\..\..\arduinoLCD\test\Pain Drain\libraries\lvgl\src\draw\sw/lv_draw_sw_blend.c ****             }
 4092              		.loc 1 149 0
 4093 012c F218     		adds	r2, r6, r3
 4094 012e 1178     		ldrb	r1, [r2]
 4095 0130 8029     		cmp	r1, #128
 4096 0132 01D9     		bls	.L226
 4097 0134 FF21     		movs	r1, #255
 4098 0136 00E0     		b	.L215
 4099              	.L226:
 4100 0138 4146     		mov	r1, r8
 4101              	.L215:
 149:..\..\..\arduinoLCD\test\Pain Drain\libraries\lvgl\src\draw\sw/lv_draw_sw_blend.c ****             }
 4102              		.loc 1 149 0 is_stmt 0 discriminator 4
 4103 013a 1170     		strb	r1, [r2]
 148:..\..\..\arduinoLCD\test\Pain Drain\libraries\lvgl\src\draw\sw/lv_draw_sw_blend.c ****                 mask[i] = mask[i] > 128 ? LV_OPA_COVER : LV_OPA_TRANSP;
ARM GAS  C:\Users\haske\AppData\Local\Temp\ccydbpJh.s 			page 109


 4104              		.loc 1 148 0 is_stmt 1 discriminator 4
 4105 013c 0133     		adds	r3, r3, #1
 4106              	.LVL650:
 4107              	.L214:
 148:..\..\..\arduinoLCD\test\Pain Drain\libraries\lvgl\src\draw\sw/lv_draw_sw_blend.c ****                 mask[i] = mask[i] > 128 ? LV_OPA_COVER : LV_OPA_TRANSP;
 4108              		.loc 1 148 0 is_stmt 0 discriminator 2
 4109 013e 8342     		cmp	r3, r0
 4110 0140 F4DB     		blt	.L216
 4111              	.LVL651:
 4112              	.L213:
 4113              	.LBE186:
 153:..\..\..\arduinoLCD\test\Pain Drain\libraries\lvgl\src\draw\sw/lv_draw_sw_blend.c ****         mask += mask_stride * (blend_area.y1 - dsc->mask_area->y1) + (blend_area.x1 - dsc->mask_are
 4114              		.loc 1 153 0 is_stmt 1
 4115 0142 6069     		ldr	r0, [r4, #20]
 4116              	.LVL652:
 4117              	.LBB187:
 4118              	.LBB188:
 125:c:\projects\paindrain\arduinolcd\test\pain drain\libraries\lvgl\src\misc\lv_area.h **** }
 4119              		.loc 2 125 0
 4120 0144 0422     		movs	r2, #4
 4121 0146 835E     		ldrsh	r3, [r0, r2]
 4122 0148 0022     		movs	r2, #0
 4123 014a 815E     		ldrsh	r1, [r0, r2]
 4124 014c 8C46     		mov	ip, r1
 4125 014e 5B1A     		subs	r3, r3, r1
 4126 0150 0133     		adds	r3, r3, #1
 4127 0152 1BB2     		sxth	r3, r3
 4128 0154 9846     		mov	r8, r3
 4129              	.LVL653:
 4130              	.LBE188:
 4131              	.LBE187:
 154:..\..\..\arduinoLCD\test\Pain Drain\libraries\lvgl\src\draw\sw/lv_draw_sw_blend.c **** 
 4132              		.loc 1 154 0
 4133 0156 08AA     		add	r2, sp, #32
 4134 0158 0221     		movs	r1, #2
 4135 015a 535E     		ldrsh	r3, [r2, r1]
 4136 015c 0221     		movs	r1, #2
 4137 015e 405E     		ldrsh	r0, [r0, r1]
 4138 0160 1B1A     		subs	r3, r3, r0
 4139 0162 4046     		mov	r0, r8
 4140 0164 4343     		muls	r3, r0
 4141 0166 0021     		movs	r1, #0
 4142 0168 525E     		ldrsh	r2, [r2, r1]
 4143 016a 6146     		mov	r1, ip
 4144 016c 521A     		subs	r2, r2, r1
 4145 016e 9B18     		adds	r3, r3, r2
 4146 0170 F618     		adds	r6, r6, r3
 4147              	.LVL654:
 4148 0172 01E0     		b	.L212
 4149              	.L225:
 158:..\..\..\arduinoLCD\test\Pain Drain\libraries\lvgl\src\draw\sw/lv_draw_sw_blend.c ****     }
 4150              		.loc 1 158 0
 4151 0174 0023     		movs	r3, #0
 4152 0176 9846     		mov	r8, r3
 4153              	.L212:
 4154              	.LVL655:
 161:..\..\..\arduinoLCD\test\Pain Drain\libraries\lvgl\src\draw\sw/lv_draw_sw_blend.c **** 
ARM GAS  C:\Users\haske\AppData\Local\Temp\ccydbpJh.s 			page 110


 4155              		.loc 1 161 0
 4156 0178 7B68     		ldr	r3, [r7, #4]
 4157 017a 0022     		movs	r2, #0
 4158 017c 995E     		ldrsh	r1, [r3, r2]
 4159 017e 0222     		movs	r2, #2
 4160 0180 9A5E     		ldrsh	r2, [r3, r2]
 4161 0182 5242     		rsbs	r2, r2, #0
 4162 0184 12B2     		sxth	r2, r2
 4163 0186 4942     		rsbs	r1, r1, #0
 4164 0188 09B2     		sxth	r1, r1
 4165 018a 08A8     		add	r0, sp, #32
 4166 018c FFF7FEFF 		bl	lv_area_move
 4167              	.LVL656:
 164:..\..\..\arduinoLCD\test\Pain Drain\libraries\lvgl\src\draw\sw/lv_draw_sw_blend.c ****         if(dsc->src_buf == NULL) {
 4168              		.loc 1 164 0
 4169 0190 5B46     		mov	r3, fp
 4170 0192 1B68     		ldr	r3, [r3]
 4171 0194 DB69     		ldr	r3, [r3, #28]
 4172 0196 002B     		cmp	r3, #0
 4173 0198 1CD0     		beq	.L217
 165:..\..\..\arduinoLCD\test\Pain Drain\libraries\lvgl\src\draw\sw/lv_draw_sw_blend.c ****             fill_set_px(dest_buf, &blend_area, dest_stride, dsc->color, dsc->opa, mask, mask_stride
 4174              		.loc 1 165 0
 4175 019a 6368     		ldr	r3, [r4, #4]
 4176 019c 002B     		cmp	r3, #0
 4177 019e 0BD1     		bne	.L218
 166:..\..\..\arduinoLCD\test\Pain Drain\libraries\lvgl\src\draw\sw/lv_draw_sw_blend.c ****         }
 4178              		.loc 1 166 0
 4179 01a0 2389     		ldrh	r3, [r4, #8]
 4180 01a2 4246     		mov	r2, r8
 4181 01a4 0292     		str	r2, [sp, #8]
 4182 01a6 0196     		str	r6, [sp, #4]
 4183 01a8 227E     		ldrb	r2, [r4, #24]
 4184 01aa 0092     		str	r2, [sp]
 4185 01ac 2A00     		movs	r2, r5
 4186 01ae 08A9     		add	r1, sp, #32
 4187 01b0 0698     		ldr	r0, [sp, #24]
 4188 01b2 FFF7FEFF 		bl	fill_set_px
 4189              	.LVL657:
 4190 01b6 4BE0     		b	.L205
 4191              	.L218:
 169:..\..\..\arduinoLCD\test\Pain Drain\libraries\lvgl\src\draw\sw/lv_draw_sw_blend.c ****         }
 4192              		.loc 1 169 0
 4193 01b8 4346     		mov	r3, r8
 4194 01ba 0393     		str	r3, [sp, #12]
 4195 01bc 0296     		str	r6, [sp, #8]
 4196 01be 237E     		ldrb	r3, [r4, #24]
 4197 01c0 0193     		str	r3, [sp, #4]
 4198 01c2 4B46     		mov	r3, r9
 4199 01c4 0093     		str	r3, [sp]
 4200 01c6 5346     		mov	r3, r10
 4201 01c8 2A00     		movs	r2, r5
 4202 01ca 08A9     		add	r1, sp, #32
 4203 01cc 0698     		ldr	r0, [sp, #24]
 4204 01ce FFF7FEFF 		bl	map_set_px
 4205              	.LVL658:
 4206 01d2 3DE0     		b	.L205
 4207              	.L217:
ARM GAS  C:\Users\haske\AppData\Local\Temp\ccydbpJh.s 			page 111


 182:..\..\..\arduinoLCD\test\Pain Drain\libraries\lvgl\src\draw\sw/lv_draw_sw_blend.c ****         if(dsc->src_buf == NULL) {
 4208              		.loc 1 182 0
 4209 01d4 627E     		ldrb	r2, [r4, #25]
 4210 01d6 002A     		cmp	r2, #0
 4211 01d8 1CD1     		bne	.L220
 183:..\..\..\arduinoLCD\test\Pain Drain\libraries\lvgl\src\draw\sw/lv_draw_sw_blend.c ****             fill_normal(dest_buf, &blend_area, dest_stride, dsc->color, dsc->opa, mask, mask_stride
 4212              		.loc 1 183 0
 4213 01da 6368     		ldr	r3, [r4, #4]
 4214 01dc 002B     		cmp	r3, #0
 4215 01de 0BD1     		bne	.L221
 184:..\..\..\arduinoLCD\test\Pain Drain\libraries\lvgl\src\draw\sw/lv_draw_sw_blend.c ****         }
 4216              		.loc 1 184 0
 4217 01e0 2389     		ldrh	r3, [r4, #8]
 4218 01e2 4246     		mov	r2, r8
 4219 01e4 0292     		str	r2, [sp, #8]
 4220 01e6 0196     		str	r6, [sp, #4]
 4221 01e8 227E     		ldrb	r2, [r4, #24]
 4222 01ea 0092     		str	r2, [sp]
 4223 01ec 2A00     		movs	r2, r5
 4224 01ee 08A9     		add	r1, sp, #32
 4225 01f0 0698     		ldr	r0, [sp, #24]
 4226 01f2 FFF7FEFF 		bl	fill_normal
 4227              	.LVL659:
 4228 01f6 2BE0     		b	.L205
 4229              	.L221:
 187:..\..\..\arduinoLCD\test\Pain Drain\libraries\lvgl\src\draw\sw/lv_draw_sw_blend.c ****         }
 4230              		.loc 1 187 0
 4231 01f8 4346     		mov	r3, r8
 4232 01fa 0393     		str	r3, [sp, #12]
 4233 01fc 0296     		str	r6, [sp, #8]
 4234 01fe 237E     		ldrb	r3, [r4, #24]
 4235 0200 0193     		str	r3, [sp, #4]
 4236 0202 4B46     		mov	r3, r9
 4237 0204 0093     		str	r3, [sp]
 4238 0206 5346     		mov	r3, r10
 4239 0208 2A00     		movs	r2, r5
 4240 020a 08A9     		add	r1, sp, #32
 4241 020c 0698     		ldr	r0, [sp, #24]
 4242 020e FFF7FEFF 		bl	map_normal
 4243              	.LVL660:
 4244 0212 1DE0     		b	.L205
 4245              	.L220:
 192:..\..\..\arduinoLCD\test\Pain Drain\libraries\lvgl\src\draw\sw/lv_draw_sw_blend.c ****             fill_blended(dest_buf, &blend_area, dest_stride, dsc->color, dsc->opa, mask, mask_strid
 4246              		.loc 1 192 0
 4247 0214 6368     		ldr	r3, [r4, #4]
 4248 0216 002B     		cmp	r3, #0
 4249 0218 0CD1     		bne	.L222
 193:..\..\..\arduinoLCD\test\Pain Drain\libraries\lvgl\src\draw\sw/lv_draw_sw_blend.c ****         }
 4250              		.loc 1 193 0
 4251 021a 2389     		ldrh	r3, [r4, #8]
 4252 021c 0392     		str	r2, [sp, #12]
 4253 021e 4246     		mov	r2, r8
 4254 0220 0292     		str	r2, [sp, #8]
 4255 0222 0196     		str	r6, [sp, #4]
 4256 0224 227E     		ldrb	r2, [r4, #24]
 4257 0226 0092     		str	r2, [sp]
 4258 0228 2A00     		movs	r2, r5
ARM GAS  C:\Users\haske\AppData\Local\Temp\ccydbpJh.s 			page 112


 4259 022a 08A9     		add	r1, sp, #32
 4260 022c 0698     		ldr	r0, [sp, #24]
 4261 022e FFF7FEFF 		bl	fill_blended
 4262              	.LVL661:
 4263 0232 0DE0     		b	.L205
 4264              	.L222:
 196:..\..\..\arduinoLCD\test\Pain Drain\libraries\lvgl\src\draw\sw/lv_draw_sw_blend.c ****         }
 4265              		.loc 1 196 0
 4266 0234 0492     		str	r2, [sp, #16]
 4267 0236 4346     		mov	r3, r8
 4268 0238 0393     		str	r3, [sp, #12]
 4269 023a 0296     		str	r6, [sp, #8]
 4270 023c 237E     		ldrb	r3, [r4, #24]
 4271 023e 0193     		str	r3, [sp, #4]
 4272 0240 4B46     		mov	r3, r9
 4273 0242 0093     		str	r3, [sp]
 4274 0244 5346     		mov	r3, r10
 4275 0246 2A00     		movs	r2, r5
 4276 0248 08A9     		add	r1, sp, #32
 4277 024a 0698     		ldr	r0, [sp, #24]
 4278 024c FFF7FEFF 		bl	map_blended
 4279              	.LVL662:
 4280              	.L205:
 200:..\..\..\arduinoLCD\test\Pain Drain\libraries\lvgl\src\draw\sw/lv_draw_sw_blend.c **** 
 4281              		.loc 1 200 0
 4282 0250 0BB0     		add	sp, sp, #44
 4283              		@ sp needed
 4284              	.LVL663:
 4285              	.LVL664:
 4286 0252 3CBC     		pop	{r2, r3, r4, r5}
 4287 0254 9046     		mov	r8, r2
 4288 0256 9946     		mov	r9, r3
 4289 0258 A246     		mov	r10, r4
 4290 025a AB46     		mov	fp, r5
 4291 025c F0BD     		pop	{r4, r5, r6, r7, pc}
 4292              		.cfi_endproc
 4293              	.LFE160:
 4294              		.size	lv_draw_sw_blend_basic, .-lv_draw_sw_blend_basic
 4295 025e C046     		.text
 4296              	.Letext0:
 4297              		.file 4 "c:\\program files (x86)\\cypress\\psoc creator\\4.4\\psoc creator\\import\\gnu\\arm\\5.4.
 4298              		.file 5 "c:\\program files (x86)\\cypress\\psoc creator\\4.4\\psoc creator\\import\\gnu\\arm\\5.4.
 4299              		.file 6 "c:\\projects\\paindrain\\arduinolcd\\test\\pain drain\\libraries\\lvgl\\src\\misc\\lv_typ
 4300              		.file 7 "c:\\program files (x86)\\cypress\\psoc creator\\4.4\\psoc creator\\import\\gnu\\arm\\5.4.
 4301              		.file 8 "c:\\projects\\paindrain\\arduinolcd\\test\\pain drain\\libraries\\lvgl\\src\\font\\lv_fon
 4302              		.file 9 "c:\\projects\\paindrain\\arduinolcd\\test\\pain drain\\libraries\\lvgl\\src\\misc\\lv_txt
 4303              		.file 10 "c:\\projects\\paindrain\\arduinolcd\\test\\pain drain\\libraries\\lvgl\\src\\misc\\lv_bi
 4304              		.file 11 "c:\\projects\\paindrain\\arduinolcd\\test\\pain drain\\libraries\\lvgl\\src\\misc\\lv_st
 4305              		.file 12 "..\\..\\..\\arduinoLCD\\test\\Pain Drain\\libraries\\lvgl\\src\\draw\\sw\\../lv_draw_mas
 4306              		.file 13 "..\\..\\..\\arduinoLCD\\test\\Pain Drain\\libraries\\lvgl\\src\\draw\\sw\\lv_draw_sw_ble
 4307              		.file 14 "..\\..\\..\\arduinoLCD\\test\\Pain Drain\\libraries\\lvgl\\src\\draw\\sw\\../lv_img_buf.
 4308              		.file 15 "c:\\projects\\paindrain\\arduinolcd\\test\\pain drain\\libraries\\lvgl\\src\\core\\lv_ob
 4309              		.file 16 "..\\..\\..\\arduinoLCD\\test\\Pain Drain\\libraries\\lvgl\\src\\draw\\sw\\../lv_draw_rec
 4310              		.file 17 "..\\..\\..\\arduinoLCD\\test\\Pain Drain\\libraries\\lvgl\\src\\draw\\sw\\../lv_draw_lab
 4311              		.file 18 "..\\..\\..\\arduinoLCD\\test\\Pain Drain\\libraries\\lvgl\\src\\draw\\sw\\../lv_draw_img
 4312              		.file 19 "..\\..\\..\\arduinoLCD\\test\\Pain Drain\\libraries\\lvgl\\src\\draw\\sw\\../lv_draw_lin
 4313              		.file 20 "..\\..\\..\\arduinoLCD\\test\\Pain Drain\\libraries\\lvgl\\src\\draw\\sw\\../lv_draw_arc
ARM GAS  C:\Users\haske\AppData\Local\Temp\ccydbpJh.s 			page 113


 4314              		.file 21 "..\\..\\..\\arduinoLCD\\test\\Pain Drain\\libraries\\lvgl\\src\\draw\\sw\\../lv_draw_lay
 4315              		.file 22 "..\\..\\..\\arduinoLCD\\test\\Pain Drain\\libraries\\lvgl\\src\\draw\\sw\\../lv_draw.h"
 4316              		.file 23 "c:\\projects\\paindrain\\arduinolcd\\test\\pain drain\\libraries\\lvgl\\src\\misc\\lv_ti
 4317              		.file 24 "c:\\projects\\paindrain\\arduinolcd\\test\\pain drain\\libraries\\lvgl\\src\\hal\\lv_hal
 4318              		.file 25 "c:\\projects\\paindrain\\arduinolcd\\test\\pain drain\\libraries\\lvgl\\src\\core\\lv_gr
 4319              		.file 26 "c:\\projects\\paindrain\\arduinolcd\\test\\pain drain\\libraries\\lvgl\\src\\misc\\lv_ll
 4320              		.file 27 "..\\..\\..\\arduinoLCD\\test\\Pain Drain\\libraries\\lvgl\\src\\draw\\sw\\lv_draw_sw.h"
 4321              		.file 28 "c:\\projects\\paindrain\\arduinolcd\\test\\pain drain\\libraries\\lvgl\\src\\core\\lv_ob
 4322              		.file 29 "c:\\projects\\paindrain\\arduinolcd\\test\\pain drain\\libraries\\lvgl\\src\\core\\lv_ob
 4323              		.file 30 "c:\\projects\\paindrain\\arduinolcd\\test\\pain drain\\libraries\\lvgl\\src\\core\\lv_ob
 4324              		.file 31 "c:\\projects\\paindrain\\arduinolcd\\test\\pain drain\\libraries\\lvgl\\src\\core\\lv_ev
 4325              		.file 32 "c:\\projects\\paindrain\\arduinolcd\\test\\pain drain\\libraries\\lvgl\\src\\core\\lv_re
 4326              		.file 33 "c:\\projects\\paindrain\\arduinolcd\\test\\pain drain\\libraries\\lvgl\\src\\misc\\lv_me
 4327              		.section	.debug_info,"",%progbits
 4328              	.Ldebug_info0:
 4329 0000 8E320000 		.4byte	0x328e
 4330 0004 0400     		.2byte	0x4
 4331 0006 00000000 		.4byte	.Ldebug_abbrev0
 4332 000a 04       		.byte	0x4
 4333 000b 01       		.uleb128 0x1
 4334 000c 66080000 		.4byte	.LASF537
 4335 0010 0C       		.byte	0xc
 4336 0011 59180000 		.4byte	.LASF538
 4337 0015 DC1A0000 		.4byte	.LASF539
 4338 0019 18000000 		.4byte	.Ldebug_ranges0+0x18
 4339 001d 00000000 		.4byte	0
 4340 0021 00000000 		.4byte	.Ldebug_line0
 4341 0025 02       		.uleb128 0x2
 4342 0026 D2140000 		.4byte	.LASF0
 4343 002a 04       		.byte	0x4
 4344 002b 1B       		.byte	0x1b
 4345 002c 30000000 		.4byte	0x30
 4346 0030 03       		.uleb128 0x3
 4347 0031 01       		.byte	0x1
 4348 0032 06       		.byte	0x6
 4349 0033 4F060000 		.4byte	.LASF2
 4350 0037 02       		.uleb128 0x2
 4351 0038 99030000 		.4byte	.LASF1
 4352 003c 04       		.byte	0x4
 4353 003d 1D       		.byte	0x1d
 4354 003e 42000000 		.4byte	0x42
 4355 0042 03       		.uleb128 0x3
 4356 0043 01       		.byte	0x1
 4357 0044 08       		.byte	0x8
 4358 0045 DA060000 		.4byte	.LASF3
 4359 0049 02       		.uleb128 0x2
 4360 004a 2D170000 		.4byte	.LASF4
 4361 004e 04       		.byte	0x4
 4362 004f 29       		.byte	0x29
 4363 0050 54000000 		.4byte	0x54
 4364 0054 03       		.uleb128 0x3
 4365 0055 02       		.byte	0x2
 4366 0056 05       		.byte	0x5
 4367 0057 10190000 		.4byte	.LASF5
 4368 005b 02       		.uleb128 0x2
 4369 005c 080A0000 		.4byte	.LASF6
 4370 0060 04       		.byte	0x4
ARM GAS  C:\Users\haske\AppData\Local\Temp\ccydbpJh.s 			page 114


 4371 0061 2B       		.byte	0x2b
 4372 0062 66000000 		.4byte	0x66
 4373 0066 03       		.uleb128 0x3
 4374 0067 02       		.byte	0x2
 4375 0068 07       		.byte	0x7
 4376 0069 E71C0000 		.4byte	.LASF7
 4377 006d 02       		.uleb128 0x2
 4378 006e A71D0000 		.4byte	.LASF8
 4379 0072 04       		.byte	0x4
 4380 0073 3F       		.byte	0x3f
 4381 0074 78000000 		.4byte	0x78
 4382 0078 03       		.uleb128 0x3
 4383 0079 04       		.byte	0x4
 4384 007a 05       		.byte	0x5
 4385 007b 7E040000 		.4byte	.LASF9
 4386 007f 02       		.uleb128 0x2
 4387 0080 C90F0000 		.4byte	.LASF10
 4388 0084 04       		.byte	0x4
 4389 0085 41       		.byte	0x41
 4390 0086 8A000000 		.4byte	0x8a
 4391 008a 03       		.uleb128 0x3
 4392 008b 04       		.byte	0x4
 4393 008c 07       		.byte	0x7
 4394 008d 8D0D0000 		.4byte	.LASF11
 4395 0091 03       		.uleb128 0x3
 4396 0092 08       		.byte	0x8
 4397 0093 05       		.byte	0x5
 4398 0094 09100000 		.4byte	.LASF12
 4399 0098 03       		.uleb128 0x3
 4400 0099 08       		.byte	0x8
 4401 009a 07       		.byte	0x7
 4402 009b 2C150000 		.4byte	.LASF13
 4403 009f 04       		.uleb128 0x4
 4404 00a0 04       		.byte	0x4
 4405 00a1 05       		.byte	0x5
 4406 00a2 696E7400 		.ascii	"int\000"
 4407 00a6 02       		.uleb128 0x2
 4408 00a7 AB170000 		.4byte	.LASF14
 4409 00ab 04       		.byte	0x4
 4410 00ac CA       		.byte	0xca
 4411 00ad B1000000 		.4byte	0xb1
 4412 00b1 03       		.uleb128 0x3
 4413 00b2 04       		.byte	0x4
 4414 00b3 07       		.byte	0x7
 4415 00b4 9F110000 		.4byte	.LASF15
 4416 00b8 02       		.uleb128 0x2
 4417 00b9 09000000 		.4byte	.LASF16
 4418 00bd 05       		.byte	0x5
 4419 00be 14       		.byte	0x14
 4420 00bf 25000000 		.4byte	0x25
 4421 00c3 02       		.uleb128 0x2
 4422 00c4 5B060000 		.4byte	.LASF17
 4423 00c8 05       		.byte	0x5
 4424 00c9 18       		.byte	0x18
 4425 00ca 37000000 		.4byte	0x37
 4426 00ce 02       		.uleb128 0x2
 4427 00cf C8190000 		.4byte	.LASF18
ARM GAS  C:\Users\haske\AppData\Local\Temp\ccydbpJh.s 			page 115


 4428 00d3 05       		.byte	0x5
 4429 00d4 20       		.byte	0x20
 4430 00d5 49000000 		.4byte	0x49
 4431 00d9 02       		.uleb128 0x2
 4432 00da AF150000 		.4byte	.LASF19
 4433 00de 05       		.byte	0x5
 4434 00df 24       		.byte	0x24
 4435 00e0 5B000000 		.4byte	0x5b
 4436 00e4 02       		.uleb128 0x2
 4437 00e5 EF000000 		.4byte	.LASF20
 4438 00e9 05       		.byte	0x5
 4439 00ea 2C       		.byte	0x2c
 4440 00eb 6D000000 		.4byte	0x6d
 4441 00ef 02       		.uleb128 0x2
 4442 00f0 741C0000 		.4byte	.LASF21
 4443 00f4 05       		.byte	0x5
 4444 00f5 30       		.byte	0x30
 4445 00f6 7F000000 		.4byte	0x7f
 4446 00fa 02       		.uleb128 0x2
 4447 00fb BD0E0000 		.4byte	.LASF22
 4448 00ff 05       		.byte	0x5
 4449 0100 48       		.byte	0x48
 4450 0101 A6000000 		.4byte	0xa6
 4451 0105 02       		.uleb128 0x2
 4452 0106 88130000 		.4byte	.LASF23
 4453 010a 06       		.byte	0x6
 4454 010b 2F       		.byte	0x2f
 4455 010c C3000000 		.4byte	0xc3
 4456 0110 02       		.uleb128 0x2
 4457 0111 90160000 		.4byte	.LASF24
 4458 0115 06       		.byte	0x6
 4459 0116 33       		.byte	0x33
 4460 0117 FA000000 		.4byte	0xfa
 4461 011b 02       		.uleb128 0x2
 4462 011c 5D000000 		.4byte	.LASF25
 4463 0120 07       		.byte	0x7
 4464 0121 D8       		.byte	0xd8
 4465 0122 B1000000 		.4byte	0xb1
 4466 0126 03       		.uleb128 0x3
 4467 0127 08       		.byte	0x8
 4468 0128 04       		.byte	0x4
 4469 0129 BB130000 		.4byte	.LASF26
 4470 012d 03       		.uleb128 0x3
 4471 012e 04       		.byte	0x4
 4472 012f 07       		.byte	0x7
 4473 0130 6A000000 		.4byte	.LASF27
 4474 0134 05       		.uleb128 0x5
 4475 0135 04       		.byte	0x4
 4476 0136 03       		.uleb128 0x3
 4477 0137 01       		.byte	0x1
 4478 0138 08       		.byte	0x8
 4479 0139 33090000 		.4byte	.LASF28
 4480 013d 06       		.uleb128 0x6
 4481 013e 01       		.byte	0x1
 4482 013f 42000000 		.4byte	0x42
 4483 0143 03       		.byte	0x3
 4484 0144 29       		.byte	0x29
ARM GAS  C:\Users\haske\AppData\Local\Temp\ccydbpJh.s 			page 116


 4485 0145 98010000 		.4byte	0x198
 4486 0149 07       		.uleb128 0x7
 4487 014a 0F110000 		.4byte	.LASF29
 4488 014e 00       		.byte	0
 4489 014f 07       		.uleb128 0x7
 4490 0150 860E0000 		.4byte	.LASF30
 4491 0154 00       		.byte	0
 4492 0155 07       		.uleb128 0x7
 4493 0156 9D160000 		.4byte	.LASF31
 4494 015a 19       		.byte	0x19
 4495 015b 07       		.uleb128 0x7
 4496 015c 9B170000 		.4byte	.LASF32
 4497 0160 33       		.byte	0x33
 4498 0161 07       		.uleb128 0x7
 4499 0162 31180000 		.4byte	.LASF33
 4500 0166 4C       		.byte	0x4c
 4501 0167 07       		.uleb128 0x7
 4502 0168 BE190000 		.4byte	.LASF34
 4503 016c 66       		.byte	0x66
 4504 016d 07       		.uleb128 0x7
 4505 016e C01A0000 		.4byte	.LASF35
 4506 0172 7F       		.byte	0x7f
 4507 0173 07       		.uleb128 0x7
 4508 0174 FD1B0000 		.4byte	.LASF36
 4509 0178 99       		.byte	0x99
 4510 0179 07       		.uleb128 0x7
 4511 017a DD1C0000 		.4byte	.LASF37
 4512 017e B2       		.byte	0xb2
 4513 017f 07       		.uleb128 0x7
 4514 0180 F41D0000 		.4byte	.LASF38
 4515 0184 CC       		.byte	0xcc
 4516 0185 07       		.uleb128 0x7
 4517 0186 DB1E0000 		.4byte	.LASF39
 4518 018a E5       		.byte	0xe5
 4519 018b 07       		.uleb128 0x7
 4520 018c 3F130000 		.4byte	.LASF40
 4521 0190 FF       		.byte	0xff
 4522 0191 07       		.uleb128 0x7
 4523 0192 13140000 		.4byte	.LASF41
 4524 0196 FF       		.byte	0xff
 4525 0197 00       		.byte	0
 4526 0198 08       		.uleb128 0x8
 4527 0199 02       		.byte	0x2
 4528 019a 03       		.byte	0x3
 4529 019b D1       		.byte	0xd1
 4530 019c CE010000 		.4byte	0x1ce
 4531 01a0 09       		.uleb128 0x9
 4532 01a1 BB060000 		.4byte	.LASF42
 4533 01a5 03       		.byte	0x3
 4534 01a6 D3       		.byte	0xd3
 4535 01a7 D9000000 		.4byte	0xd9
 4536 01ab 02       		.byte	0x2
 4537 01ac 05       		.byte	0x5
 4538 01ad 0B       		.byte	0xb
 4539 01ae 00       		.byte	0
 4540 01af 09       		.uleb128 0x9
 4541 01b0 AE1C0000 		.4byte	.LASF43
ARM GAS  C:\Users\haske\AppData\Local\Temp\ccydbpJh.s 			page 117


 4542 01b4 03       		.byte	0x3
 4543 01b5 D4       		.byte	0xd4
 4544 01b6 D9000000 		.4byte	0xd9
 4545 01ba 02       		.byte	0x2
 4546 01bb 06       		.byte	0x6
 4547 01bc 05       		.byte	0x5
 4548 01bd 00       		.byte	0
 4549 01be 0A       		.uleb128 0xa
 4550 01bf 72656400 		.ascii	"red\000"
 4551 01c3 03       		.byte	0x3
 4552 01c4 D5       		.byte	0xd5
 4553 01c5 D9000000 		.4byte	0xd9
 4554 01c9 02       		.byte	0x2
 4555 01ca 05       		.byte	0x5
 4556 01cb 00       		.byte	0
 4557 01cc 00       		.byte	0
 4558 01cd 00       		.byte	0
 4559 01ce 0B       		.uleb128 0xb
 4560 01cf 02       		.byte	0x2
 4561 01d0 03       		.byte	0x3
 4562 01d1 D0       		.byte	0xd0
 4563 01d2 EC010000 		.4byte	0x1ec
 4564 01d6 0C       		.uleb128 0xc
 4565 01d7 636800   		.ascii	"ch\000"
 4566 01da 03       		.byte	0x3
 4567 01db DC       		.byte	0xdc
 4568 01dc 98010000 		.4byte	0x198
 4569 01e0 0D       		.uleb128 0xd
 4570 01e1 82170000 		.4byte	.LASF44
 4571 01e5 03       		.byte	0x3
 4572 01e6 DD       		.byte	0xdd
 4573 01e7 D9000000 		.4byte	0xd9
 4574 01eb 00       		.byte	0
 4575 01ec 02       		.uleb128 0x2
 4576 01ed FD180000 		.4byte	.LASF45
 4577 01f1 03       		.byte	0x3
 4578 01f2 DE       		.byte	0xde
 4579 01f3 CE010000 		.4byte	0x1ce
 4580 01f7 02       		.uleb128 0x2
 4581 01f8 DB150000 		.4byte	.LASF46
 4582 01fc 03       		.byte	0x3
 4583 01fd EB       		.byte	0xeb
 4584 01fe EC010000 		.4byte	0x1ec
 4585 0202 02       		.uleb128 0x2
 4586 0203 CD000000 		.4byte	.LASF47
 4587 0207 03       		.byte	0x3
 4588 0208 F5       		.byte	0xf5
 4589 0209 C3000000 		.4byte	0xc3
 4590 020d 02       		.uleb128 0x2
 4591 020e 071D0000 		.4byte	.LASF48
 4592 0212 02       		.byte	0x2
 4593 0213 1B       		.byte	0x1b
 4594 0214 CE000000 		.4byte	0xce
 4595 0218 08       		.uleb128 0x8
 4596 0219 04       		.byte	0x4
 4597 021a 02       		.byte	0x2
 4598 021b 25       		.byte	0x25
ARM GAS  C:\Users\haske\AppData\Local\Temp\ccydbpJh.s 			page 118


 4599 021c 35020000 		.4byte	0x235
 4600 0220 0E       		.uleb128 0xe
 4601 0221 7800     		.ascii	"x\000"
 4602 0223 02       		.byte	0x2
 4603 0224 26       		.byte	0x26
 4604 0225 0D020000 		.4byte	0x20d
 4605 0229 00       		.byte	0
 4606 022a 0E       		.uleb128 0xe
 4607 022b 7900     		.ascii	"y\000"
 4608 022d 02       		.byte	0x2
 4609 022e 27       		.byte	0x27
 4610 022f 0D020000 		.4byte	0x20d
 4611 0233 02       		.byte	0x2
 4612 0234 00       		.byte	0
 4613 0235 02       		.uleb128 0x2
 4614 0236 25010000 		.4byte	.LASF49
 4615 023a 02       		.byte	0x2
 4616 023b 28       		.byte	0x28
 4617 023c 18020000 		.4byte	0x218
 4618 0240 08       		.uleb128 0x8
 4619 0241 08       		.byte	0x8
 4620 0242 02       		.byte	0x2
 4621 0243 2B       		.byte	0x2b
 4622 0244 75020000 		.4byte	0x275
 4623 0248 0E       		.uleb128 0xe
 4624 0249 783100   		.ascii	"x1\000"
 4625 024c 02       		.byte	0x2
 4626 024d 2C       		.byte	0x2c
 4627 024e 0D020000 		.4byte	0x20d
 4628 0252 00       		.byte	0
 4629 0253 0E       		.uleb128 0xe
 4630 0254 793100   		.ascii	"y1\000"
 4631 0257 02       		.byte	0x2
 4632 0258 2D       		.byte	0x2d
 4633 0259 0D020000 		.4byte	0x20d
 4634 025d 02       		.byte	0x2
 4635 025e 0E       		.uleb128 0xe
 4636 025f 783200   		.ascii	"x2\000"
 4637 0262 02       		.byte	0x2
 4638 0263 2E       		.byte	0x2e
 4639 0264 0D020000 		.4byte	0x20d
 4640 0268 04       		.byte	0x4
 4641 0269 0E       		.uleb128 0xe
 4642 026a 793200   		.ascii	"y2\000"
 4643 026d 02       		.byte	0x2
 4644 026e 2F       		.byte	0x2f
 4645 026f 0D020000 		.4byte	0x20d
 4646 0273 06       		.byte	0x6
 4647 0274 00       		.byte	0
 4648 0275 02       		.uleb128 0x2
 4649 0276 CB0B0000 		.4byte	.LASF50
 4650 027a 02       		.byte	0x2
 4651 027b 30       		.byte	0x30
 4652 027c 40020000 		.4byte	0x240
 4653 0280 02       		.uleb128 0x2
 4654 0281 960A0000 		.4byte	.LASF51
 4655 0285 02       		.byte	0x2
ARM GAS  C:\Users\haske\AppData\Local\Temp\ccydbpJh.s 			page 119


 4656 0286 59       		.byte	0x59
 4657 0287 C3000000 		.4byte	0xc3
 4658 028b 08       		.uleb128 0x8
 4659 028c 10       		.byte	0x10
 4660 028d 08       		.byte	0x8
 4661 028e 29       		.byte	0x29
 4662 028f FA020000 		.4byte	0x2fa
 4663 0293 0F       		.uleb128 0xf
 4664 0294 540E0000 		.4byte	.LASF52
 4665 0298 08       		.byte	0x8
 4666 0299 2B       		.byte	0x2b
 4667 029a 82030000 		.4byte	0x382
 4668 029e 00       		.byte	0
 4669 029f 0F       		.uleb128 0xf
 4670 02a0 64000000 		.4byte	.LASF53
 4671 02a4 08       		.byte	0x8
 4672 02a5 2C       		.byte	0x2c
 4673 02a6 D9000000 		.4byte	0xd9
 4674 02aa 04       		.byte	0x4
 4675 02ab 0F       		.uleb128 0xf
 4676 02ac 0A190000 		.4byte	.LASF54
 4677 02b0 08       		.byte	0x8
 4678 02b1 2D       		.byte	0x2d
 4679 02b2 D9000000 		.4byte	0xd9
 4680 02b6 06       		.byte	0x6
 4681 02b7 0F       		.uleb128 0xf
 4682 02b8 CB180000 		.4byte	.LASF55
 4683 02bc 08       		.byte	0x8
 4684 02bd 2E       		.byte	0x2e
 4685 02be D9000000 		.4byte	0xd9
 4686 02c2 08       		.byte	0x8
 4687 02c3 0F       		.uleb128 0xf
 4688 02c4 B5070000 		.4byte	.LASF56
 4689 02c8 08       		.byte	0x8
 4690 02c9 2F       		.byte	0x2f
 4691 02ca CE000000 		.4byte	0xce
 4692 02ce 0A       		.byte	0xa
 4693 02cf 0F       		.uleb128 0xf
 4694 02d0 BB070000 		.4byte	.LASF57
 4695 02d4 08       		.byte	0x8
 4696 02d5 30       		.byte	0x30
 4697 02d6 CE000000 		.4byte	0xce
 4698 02da 0C       		.byte	0xc
 4699 02db 0A       		.uleb128 0xa
 4700 02dc 62707000 		.ascii	"bpp\000"
 4701 02e0 08       		.byte	0x8
 4702 02e1 31       		.byte	0x31
 4703 02e2 C3000000 		.4byte	0xc3
 4704 02e6 01       		.byte	0x1
 4705 02e7 04       		.byte	0x4
 4706 02e8 04       		.byte	0x4
 4707 02e9 0E       		.byte	0xe
 4708 02ea 09       		.uleb128 0x9
 4709 02eb B71E0000 		.4byte	.LASF58
 4710 02ef 08       		.byte	0x8
 4711 02f0 32       		.byte	0x32
 4712 02f1 C3000000 		.4byte	0xc3
ARM GAS  C:\Users\haske\AppData\Local\Temp\ccydbpJh.s 			page 120


 4713 02f5 01       		.byte	0x1
 4714 02f6 01       		.byte	0x1
 4715 02f7 03       		.byte	0x3
 4716 02f8 0E       		.byte	0xe
 4717 02f9 00       		.byte	0
 4718 02fa 10       		.uleb128 0x10
 4719 02fb B60F0000 		.4byte	.LASF205
 4720 02ff 1C       		.byte	0x1c
 4721 0300 08       		.byte	0x8
 4722 0301 40       		.byte	0x40
 4723 0302 82030000 		.4byte	0x382
 4724 0306 0F       		.uleb128 0xf
 4725 0307 991D0000 		.4byte	.LASF59
 4726 030b 08       		.byte	0x8
 4727 030c 42       		.byte	0x42
 4728 030d C3030000 		.4byte	0x3c3
 4729 0311 00       		.byte	0
 4730 0312 0F       		.uleb128 0xf
 4731 0313 A0060000 		.4byte	.LASF60
 4732 0317 08       		.byte	0x8
 4733 0318 45       		.byte	0x45
 4734 0319 E8030000 		.4byte	0x3e8
 4735 031d 04       		.byte	0x4
 4736 031e 0F       		.uleb128 0xf
 4737 031f 40010000 		.4byte	.LASF61
 4738 0323 08       		.byte	0x8
 4739 0324 48       		.byte	0x48
 4740 0325 0D020000 		.4byte	0x20d
 4741 0329 08       		.byte	0x8
 4742 032a 0F       		.uleb128 0xf
 4743 032b 3A190000 		.4byte	.LASF62
 4744 032f 08       		.byte	0x8
 4745 0330 49       		.byte	0x49
 4746 0331 0D020000 		.4byte	0x20d
 4747 0335 0A       		.byte	0xa
 4748 0336 09       		.uleb128 0x9
 4749 0337 0D140000 		.4byte	.LASF63
 4750 033b 08       		.byte	0x8
 4751 033c 4A       		.byte	0x4a
 4752 033d C3000000 		.4byte	0xc3
 4753 0341 01       		.byte	0x1
 4754 0342 02       		.byte	0x2
 4755 0343 06       		.byte	0x6
 4756 0344 0C       		.byte	0xc
 4757 0345 0F       		.uleb128 0xf
 4758 0346 4A090000 		.4byte	.LASF64
 4759 034a 08       		.byte	0x8
 4760 034b 4C       		.byte	0x4c
 4761 034c B8000000 		.4byte	0xb8
 4762 0350 0D       		.byte	0xd
 4763 0351 0F       		.uleb128 0xf
 4764 0352 CB100000 		.4byte	.LASF65
 4765 0356 08       		.byte	0x8
 4766 0357 4D       		.byte	0x4d
 4767 0358 B8000000 		.4byte	0xb8
 4768 035c 0E       		.byte	0xe
 4769 035d 0E       		.uleb128 0xe
ARM GAS  C:\Users\haske\AppData\Local\Temp\ccydbpJh.s 			page 121


 4770 035e 64736300 		.ascii	"dsc\000"
 4771 0362 08       		.byte	0x8
 4772 0363 4F       		.byte	0x4f
 4773 0364 EE030000 		.4byte	0x3ee
 4774 0368 10       		.byte	0x10
 4775 0369 0F       		.uleb128 0xf
 4776 036a 7C0B0000 		.4byte	.LASF66
 4777 036e 08       		.byte	0x8
 4778 036f 50       		.byte	0x50
 4779 0370 82030000 		.4byte	0x382
 4780 0374 14       		.byte	0x14
 4781 0375 0F       		.uleb128 0xf
 4782 0376 4A1D0000 		.4byte	.LASF67
 4783 037a 08       		.byte	0x8
 4784 037b 52       		.byte	0x52
 4785 037c 34010000 		.4byte	0x134
 4786 0380 18       		.byte	0x18
 4787 0381 00       		.byte	0
 4788 0382 11       		.uleb128 0x11
 4789 0383 04       		.byte	0x4
 4790 0384 88030000 		.4byte	0x388
 4791 0388 12       		.uleb128 0x12
 4792 0389 FA020000 		.4byte	0x2fa
 4793 038d 02       		.uleb128 0x2
 4794 038e 98120000 		.4byte	.LASF68
 4795 0392 08       		.byte	0x8
 4796 0393 33       		.byte	0x33
 4797 0394 8B020000 		.4byte	0x28b
 4798 0398 13       		.uleb128 0x13
 4799 0399 B6030000 		.4byte	0x3b6
 4800 039d B6030000 		.4byte	0x3b6
 4801 03a1 14       		.uleb128 0x14
 4802 03a2 82030000 		.4byte	0x382
 4803 03a6 14       		.uleb128 0x14
 4804 03a7 BD030000 		.4byte	0x3bd
 4805 03ab 14       		.uleb128 0x14
 4806 03ac EF000000 		.4byte	0xef
 4807 03b0 14       		.uleb128 0x14
 4808 03b1 EF000000 		.4byte	0xef
 4809 03b5 00       		.byte	0
 4810 03b6 03       		.uleb128 0x3
 4811 03b7 01       		.byte	0x1
 4812 03b8 02       		.byte	0x2
 4813 03b9 FC070000 		.4byte	.LASF69
 4814 03bd 11       		.uleb128 0x11
 4815 03be 04       		.byte	0x4
 4816 03bf 8D030000 		.4byte	0x38d
 4817 03c3 11       		.uleb128 0x11
 4818 03c4 04       		.byte	0x4
 4819 03c5 98030000 		.4byte	0x398
 4820 03c9 13       		.uleb128 0x13
 4821 03ca DD030000 		.4byte	0x3dd
 4822 03ce DD030000 		.4byte	0x3dd
 4823 03d2 14       		.uleb128 0x14
 4824 03d3 82030000 		.4byte	0x382
 4825 03d7 14       		.uleb128 0x14
 4826 03d8 EF000000 		.4byte	0xef
ARM GAS  C:\Users\haske\AppData\Local\Temp\ccydbpJh.s 			page 122


 4827 03dc 00       		.byte	0
 4828 03dd 11       		.uleb128 0x11
 4829 03de 04       		.byte	0x4
 4830 03df E3030000 		.4byte	0x3e3
 4831 03e3 12       		.uleb128 0x12
 4832 03e4 C3000000 		.4byte	0xc3
 4833 03e8 11       		.uleb128 0x11
 4834 03e9 04       		.byte	0x4
 4835 03ea C9030000 		.4byte	0x3c9
 4836 03ee 11       		.uleb128 0x11
 4837 03ef 04       		.byte	0x4
 4838 03f0 F4030000 		.4byte	0x3f4
 4839 03f4 15       		.uleb128 0x15
 4840 03f5 02       		.uleb128 0x2
 4841 03f6 B41C0000 		.4byte	.LASF70
 4842 03fa 08       		.byte	0x8
 4843 03fb 54       		.byte	0x54
 4844 03fc FA020000 		.4byte	0x2fa
 4845 0400 02       		.uleb128 0x2
 4846 0401 55160000 		.4byte	.LASF71
 4847 0405 09       		.byte	0x9
 4848 0406 30       		.byte	0x30
 4849 0407 C3000000 		.4byte	0xc3
 4850 040b 02       		.uleb128 0x2
 4851 040c AC100000 		.4byte	.LASF72
 4852 0410 09       		.byte	0x9
 4853 0411 42       		.byte	0x42
 4854 0412 C3000000 		.4byte	0xc3
 4855 0416 02       		.uleb128 0x2
 4856 0417 C1070000 		.4byte	.LASF73
 4857 041b 0A       		.byte	0xa
 4858 041c 2A       		.byte	0x2a
 4859 041d C3000000 		.4byte	0xc3
 4860 0421 06       		.uleb128 0x6
 4861 0422 01       		.byte	0x1
 4862 0423 42000000 		.4byte	0x42
 4863 0427 0B       		.byte	0xb
 4864 0428 56       		.byte	0x56
 4865 0429 4C040000 		.4byte	0x44c
 4866 042d 07       		.uleb128 0x7
 4867 042e B8150000 		.4byte	.LASF74
 4868 0432 00       		.byte	0
 4869 0433 07       		.uleb128 0x7
 4870 0434 0C060000 		.4byte	.LASF75
 4871 0438 01       		.byte	0x1
 4872 0439 07       		.uleb128 0x7
 4873 043a AC010000 		.4byte	.LASF76
 4874 043e 02       		.byte	0x2
 4875 043f 07       		.uleb128 0x7
 4876 0440 65010000 		.4byte	.LASF77
 4877 0444 03       		.byte	0x3
 4878 0445 07       		.uleb128 0x7
 4879 0446 EA140000 		.4byte	.LASF78
 4880 044a 04       		.byte	0x4
 4881 044b 00       		.byte	0
 4882 044c 02       		.uleb128 0x2
 4883 044d 4C010000 		.4byte	.LASF79
ARM GAS  C:\Users\haske\AppData\Local\Temp\ccydbpJh.s 			page 123


 4884 0451 0B       		.byte	0xb
 4885 0452 5E       		.byte	0x5e
 4886 0453 C3000000 		.4byte	0xc3
 4887 0457 02       		.uleb128 0x2
 4888 0458 ED0F0000 		.4byte	.LASF80
 4889 045c 0B       		.byte	0xb
 4890 045d 6A       		.byte	0x6a
 4891 045e C3000000 		.4byte	0xc3
 4892 0462 02       		.uleb128 0x2
 4893 0463 EB170000 		.4byte	.LASF81
 4894 0467 0B       		.byte	0xb
 4895 0468 79       		.byte	0x79
 4896 0469 C3000000 		.4byte	0xc3
 4897 046d 02       		.uleb128 0x2
 4898 046e C81D0000 		.4byte	.LASF82
 4899 0472 0B       		.byte	0xb
 4900 0473 84       		.byte	0x84
 4901 0474 C3000000 		.4byte	0xc3
 4902 0478 02       		.uleb128 0x2
 4903 0479 CD130000 		.4byte	.LASF83
 4904 047d 0B       		.byte	0xb
 4905 047e 90       		.byte	0x90
 4906 047f C3000000 		.4byte	0xc3
 4907 0483 08       		.uleb128 0x8
 4908 0484 04       		.byte	0x4
 4909 0485 0B       		.byte	0xb
 4910 0486 95       		.byte	0x95
 4911 0487 A4040000 		.4byte	0x4a4
 4912 048b 0F       		.uleb128 0xf
 4913 048c A5170000 		.4byte	.LASF84
 4914 0490 0B       		.byte	0xb
 4915 0491 96       		.byte	0x96
 4916 0492 F7010000 		.4byte	0x1f7
 4917 0496 00       		.byte	0
 4918 0497 0F       		.uleb128 0xf
 4919 0498 FC170000 		.4byte	.LASF85
 4920 049c 0B       		.byte	0xb
 4921 049d 97       		.byte	0x97
 4922 049e C3000000 		.4byte	0xc3
 4923 04a2 02       		.byte	0x2
 4924 04a3 00       		.byte	0
 4925 04a4 02       		.uleb128 0x2
 4926 04a5 C91B0000 		.4byte	.LASF86
 4927 04a9 0B       		.byte	0xb
 4928 04aa 98       		.byte	0x98
 4929 04ab 83040000 		.4byte	0x483
 4930 04af 08       		.uleb128 0x8
 4931 04b0 0A       		.byte	0xa
 4932 04b1 0B       		.byte	0xb
 4933 04b2 9B       		.byte	0x9b
 4934 04b3 EE040000 		.4byte	0x4ee
 4935 04b7 0F       		.uleb128 0xf
 4936 04b8 B7170000 		.4byte	.LASF87
 4937 04bc 0B       		.byte	0xb
 4938 04bd 9C       		.byte	0x9c
 4939 04be EE040000 		.4byte	0x4ee
 4940 04c2 00       		.byte	0
ARM GAS  C:\Users\haske\AppData\Local\Temp\ccydbpJh.s 			page 124


 4941 04c3 0F       		.uleb128 0xf
 4942 04c4 E8090000 		.4byte	.LASF88
 4943 04c8 0B       		.byte	0xb
 4944 04c9 9D       		.byte	0x9d
 4945 04ca C3000000 		.4byte	0xc3
 4946 04ce 08       		.byte	0x8
 4947 04cf 0A       		.uleb128 0xa
 4948 04d0 64697200 		.ascii	"dir\000"
 4949 04d4 0B       		.byte	0xb
 4950 04d5 9E       		.byte	0x9e
 4951 04d6 6D040000 		.4byte	0x46d
 4952 04da 01       		.byte	0x1
 4953 04db 03       		.byte	0x3
 4954 04dc 05       		.byte	0x5
 4955 04dd 09       		.byte	0x9
 4956 04de 09       		.uleb128 0x9
 4957 04df D61C0000 		.4byte	.LASF89
 4958 04e3 0B       		.byte	0xb
 4959 04e4 A0       		.byte	0xa0
 4960 04e5 78040000 		.4byte	0x478
 4961 04e9 01       		.byte	0x1
 4962 04ea 03       		.byte	0x3
 4963 04eb 02       		.byte	0x2
 4964 04ec 09       		.byte	0x9
 4965 04ed 00       		.byte	0
 4966 04ee 16       		.uleb128 0x16
 4967 04ef A4040000 		.4byte	0x4a4
 4968 04f3 FE040000 		.4byte	0x4fe
 4969 04f7 17       		.uleb128 0x17
 4970 04f8 2D010000 		.4byte	0x12d
 4971 04fc 01       		.byte	0x1
 4972 04fd 00       		.byte	0
 4973 04fe 02       		.uleb128 0x2
 4974 04ff 731E0000 		.4byte	.LASF90
 4975 0503 0B       		.byte	0xb
 4976 0504 A2       		.byte	0xa2
 4977 0505 AF040000 		.4byte	0x4af
 4978 0509 0B       		.uleb128 0xb
 4979 050a 04       		.byte	0x4
 4980 050b 0B       		.byte	0xb
 4981 050c A7       		.byte	0xa7
 4982 050d 33050000 		.4byte	0x533
 4983 0511 0C       		.uleb128 0xc
 4984 0512 6E756D00 		.ascii	"num\000"
 4985 0516 0B       		.byte	0xb
 4986 0517 A8       		.byte	0xa8
 4987 0518 E4000000 		.4byte	0xe4
 4988 051c 0C       		.uleb128 0xc
 4989 051d 70747200 		.ascii	"ptr\000"
 4990 0521 0B       		.byte	0xb
 4991 0522 A9       		.byte	0xa9
 4992 0523 EE030000 		.4byte	0x3ee
 4993 0527 0D       		.uleb128 0xd
 4994 0528 A5170000 		.4byte	.LASF84
 4995 052c 0B       		.byte	0xb
 4996 052d AA       		.byte	0xaa
 4997 052e F7010000 		.4byte	0x1f7
ARM GAS  C:\Users\haske\AppData\Local\Temp\ccydbpJh.s 			page 125


 4998 0532 00       		.byte	0
 4999 0533 02       		.uleb128 0x2
 5000 0534 C2110000 		.4byte	.LASF91
 5001 0538 0B       		.byte	0xb
 5002 0539 AB       		.byte	0xab
 5003 053a 09050000 		.4byte	0x509
 5004 053e 06       		.uleb128 0x6
 5005 053f 02       		.byte	0x2
 5006 0540 66000000 		.4byte	0x66
 5007 0544 0B       		.byte	0xb
 5008 0545 B2       		.byte	0xb2
 5009 0546 63070000 		.4byte	0x763
 5010 054a 07       		.uleb128 0x7
 5011 054b 290C0000 		.4byte	.LASF92
 5012 054f 00       		.byte	0
 5013 0550 07       		.uleb128 0x7
 5014 0551 F2150000 		.4byte	.LASF93
 5015 0555 01       		.byte	0x1
 5016 0556 07       		.uleb128 0x7
 5017 0557 38160000 		.4byte	.LASF94
 5018 055b 02       		.byte	0x2
 5019 055c 07       		.uleb128 0x7
 5020 055d DE030000 		.4byte	.LASF95
 5021 0561 03       		.byte	0x3
 5022 0562 07       		.uleb128 0x7
 5023 0563 E3010000 		.4byte	.LASF96
 5024 0567 04       		.byte	0x4
 5025 0568 07       		.uleb128 0x7
 5026 0569 621B0000 		.4byte	.LASF97
 5027 056d 05       		.byte	0x5
 5028 056e 07       		.uleb128 0x7
 5029 056f 1D180000 		.4byte	.LASF98
 5030 0573 06       		.byte	0x6
 5031 0574 07       		.uleb128 0x7
 5032 0575 8A0F0000 		.4byte	.LASF99
 5033 0579 07       		.byte	0x7
 5034 057a 07       		.uleb128 0x7
 5035 057b DC1B0000 		.4byte	.LASF100
 5036 057f 08       		.byte	0x8
 5037 0580 07       		.uleb128 0x7
 5038 0581 CB060000 		.4byte	.LASF101
 5039 0585 09       		.byte	0x9
 5040 0586 07       		.uleb128 0x7
 5041 0587 88120000 		.4byte	.LASF102
 5042 058b 0A       		.byte	0xa
 5043 058c 07       		.uleb128 0x7
 5044 058d B7030000 		.4byte	.LASF103
 5045 0591 0B       		.byte	0xb
 5046 0592 07       		.uleb128 0x7
 5047 0593 321A0000 		.4byte	.LASF104
 5048 0597 10       		.byte	0x10
 5049 0598 07       		.uleb128 0x7
 5050 0599 E00C0000 		.4byte	.LASF105
 5051 059d 11       		.byte	0x11
 5052 059e 07       		.uleb128 0x7
 5053 059f F40E0000 		.4byte	.LASF106
 5054 05a3 12       		.byte	0x12
ARM GAS  C:\Users\haske\AppData\Local\Temp\ccydbpJh.s 			page 126


 5055 05a4 07       		.uleb128 0x7
 5056 05a5 4B040000 		.4byte	.LASF107
 5057 05a9 13       		.byte	0x13
 5058 05aa 07       		.uleb128 0x7
 5059 05ab 8F0E0000 		.4byte	.LASF108
 5060 05af 14       		.byte	0x14
 5061 05b0 07       		.uleb128 0x7
 5062 05b1 41030000 		.4byte	.LASF109
 5063 05b5 15       		.byte	0x15
 5064 05b6 07       		.uleb128 0x7
 5065 05b7 C1090000 		.4byte	.LASF110
 5066 05bb 16       		.byte	0x16
 5067 05bc 07       		.uleb128 0x7
 5068 05bd 0B130000 		.4byte	.LASF111
 5069 05c1 17       		.byte	0x17
 5070 05c2 07       		.uleb128 0x7
 5071 05c3 4A0A0000 		.4byte	.LASF112
 5072 05c7 20       		.byte	0x20
 5073 05c8 07       		.uleb128 0x7
 5074 05c9 070D0000 		.4byte	.LASF113
 5075 05cd 21       		.byte	0x21
 5076 05ce 07       		.uleb128 0x7
 5077 05cf AB180000 		.4byte	.LASF114
 5078 05d3 22       		.byte	0x22
 5079 05d4 07       		.uleb128 0x7
 5080 05d5 8B060000 		.4byte	.LASF115
 5081 05d9 23       		.byte	0x23
 5082 05da 07       		.uleb128 0x7
 5083 05db 4E020000 		.4byte	.LASF116
 5084 05df 24       		.byte	0x24
 5085 05e0 07       		.uleb128 0x7
 5086 05e1 4D150000 		.4byte	.LASF117
 5087 05e5 25       		.byte	0x25
 5088 05e6 07       		.uleb128 0x7
 5089 05e7 941E0000 		.4byte	.LASF118
 5090 05eb 26       		.byte	0x26
 5091 05ec 07       		.uleb128 0x7
 5092 05ed 75030000 		.4byte	.LASF119
 5093 05f1 27       		.byte	0x27
 5094 05f2 07       		.uleb128 0x7
 5095 05f3 A7160000 		.4byte	.LASF120
 5096 05f7 28       		.byte	0x28
 5097 05f8 07       		.uleb128 0x7
 5098 05f9 751A0000 		.4byte	.LASF121
 5099 05fd 29       		.byte	0x29
 5100 05fe 07       		.uleb128 0x7
 5101 05ff F9030000 		.4byte	.LASF122
 5102 0603 2A       		.byte	0x2a
 5103 0604 07       		.uleb128 0x7
 5104 0605 C8040000 		.4byte	.LASF123
 5105 0609 2B       		.byte	0x2b
 5106 060a 07       		.uleb128 0x7
 5107 060b 46050000 		.4byte	.LASF124
 5108 060f 2C       		.byte	0x2c
 5109 0610 07       		.uleb128 0x7
 5110 0611 9E140000 		.4byte	.LASF125
 5111 0615 30       		.byte	0x30
ARM GAS  C:\Users\haske\AppData\Local\Temp\ccydbpJh.s 			page 127


 5112 0616 07       		.uleb128 0x7
 5113 0617 8A050000 		.4byte	.LASF126
 5114 061b 31       		.byte	0x31
 5115 061c 07       		.uleb128 0x7
 5116 061d 0D030000 		.4byte	.LASF127
 5117 0621 32       		.byte	0x32
 5118 0622 07       		.uleb128 0x7
 5119 0623 63150000 		.4byte	.LASF128
 5120 0627 33       		.byte	0x33
 5121 0628 07       		.uleb128 0x7
 5122 0629 911B0000 		.4byte	.LASF129
 5123 062d 34       		.byte	0x34
 5124 062e 07       		.uleb128 0x7
 5125 062f E00B0000 		.4byte	.LASF130
 5126 0633 35       		.byte	0x35
 5127 0634 07       		.uleb128 0x7
 5128 0635 331D0000 		.4byte	.LASF131
 5129 0639 36       		.byte	0x36
 5130 063a 07       		.uleb128 0x7
 5131 063b D3090000 		.4byte	.LASF132
 5132 063f 37       		.byte	0x37
 5133 0640 07       		.uleb128 0x7
 5134 0641 C61E0000 		.4byte	.LASF133
 5135 0645 38       		.byte	0x38
 5136 0646 07       		.uleb128 0x7
 5137 0647 E3120000 		.4byte	.LASF134
 5138 064b 40       		.byte	0x40
 5139 064c 07       		.uleb128 0x7
 5140 064d 64160000 		.4byte	.LASF135
 5141 0651 41       		.byte	0x41
 5142 0652 07       		.uleb128 0x7
 5143 0653 7A160000 		.4byte	.LASF136
 5144 0657 42       		.byte	0x42
 5145 0658 07       		.uleb128 0x7
 5146 0659 821D0000 		.4byte	.LASF137
 5147 065d 43       		.byte	0x43
 5148 065e 07       		.uleb128 0x7
 5149 065f F6050000 		.4byte	.LASF138
 5150 0663 44       		.byte	0x44
 5151 0664 07       		.uleb128 0x7
 5152 0665 11040000 		.4byte	.LASF139
 5153 0669 45       		.byte	0x45
 5154 066a 07       		.uleb128 0x7
 5155 066b 550D0000 		.4byte	.LASF140
 5156 066f 46       		.byte	0x46
 5157 0670 07       		.uleb128 0x7
 5158 0671 84070000 		.4byte	.LASF141
 5159 0675 47       		.byte	0x47
 5160 0676 07       		.uleb128 0x7
 5161 0677 5C0A0000 		.4byte	.LASF142
 5162 067b 48       		.byte	0x48
 5163 067c 07       		.uleb128 0x7
 5164 067d 891A0000 		.4byte	.LASF143
 5165 0681 49       		.byte	0x49
 5166 0682 07       		.uleb128 0x7
 5167 0683 070B0000 		.4byte	.LASF144
 5168 0687 4A       		.byte	0x4a
ARM GAS  C:\Users\haske\AppData\Local\Temp\ccydbpJh.s 			page 128


 5169 0688 07       		.uleb128 0x7
 5170 0689 96000000 		.4byte	.LASF145
 5171 068d 4B       		.byte	0x4b
 5172 068e 07       		.uleb128 0x7
 5173 068f E71B0000 		.4byte	.LASF146
 5174 0693 4C       		.byte	0x4c
 5175 0694 07       		.uleb128 0x7
 5176 0695 720E0000 		.4byte	.LASF147
 5177 0699 4D       		.byte	0x4d
 5178 069a 07       		.uleb128 0x7
 5179 069b 170D0000 		.4byte	.LASF148
 5180 069f 4E       		.byte	0x4e
 5181 06a0 07       		.uleb128 0x7
 5182 06a1 A2070000 		.4byte	.LASF149
 5183 06a5 50       		.byte	0x50
 5184 06a6 07       		.uleb128 0x7
 5185 06a7 1D110000 		.4byte	.LASF150
 5186 06ab 51       		.byte	0x51
 5187 06ac 07       		.uleb128 0x7
 5188 06ad AB190000 		.4byte	.LASF151
 5189 06b1 52       		.byte	0x52
 5190 06b2 07       		.uleb128 0x7
 5191 06b3 D6000000 		.4byte	.LASF152
 5192 06b7 53       		.byte	0x53
 5193 06b8 07       		.uleb128 0x7
 5194 06b9 C1160000 		.4byte	.LASF153
 5195 06bd 54       		.byte	0x54
 5196 06be 07       		.uleb128 0x7
 5197 06bf 50110000 		.4byte	.LASF154
 5198 06c3 55       		.byte	0x55
 5199 06c4 07       		.uleb128 0x7
 5200 06c5 B90D0000 		.4byte	.LASF155
 5201 06c9 56       		.byte	0x56
 5202 06ca 07       		.uleb128 0x7
 5203 06cb 44170000 		.4byte	.LASF156
 5204 06cf 57       		.byte	0x57
 5205 06d0 07       		.uleb128 0x7
 5206 06d1 FE1E0000 		.4byte	.LASF157
 5207 06d5 58       		.byte	0x58
 5208 06d6 07       		.uleb128 0x7
 5209 06d7 3B0C0000 		.4byte	.LASF158
 5210 06db 59       		.byte	0x59
 5211 06dc 07       		.uleb128 0x7
 5212 06dd DF100000 		.4byte	.LASF159
 5213 06e1 5A       		.byte	0x5a
 5214 06e2 07       		.uleb128 0x7
 5215 06e3 950F0000 		.4byte	.LASF160
 5216 06e7 5B       		.byte	0x5b
 5217 06e8 07       		.uleb128 0x7
 5218 06e9 10000000 		.4byte	.LASF161
 5219 06ed 60       		.byte	0x60
 5220 06ee 07       		.uleb128 0x7
 5221 06ef 92100000 		.4byte	.LASF162
 5222 06f3 61       		.byte	0x61
 5223 06f4 07       		.uleb128 0x7
 5224 06f5 99130000 		.4byte	.LASF163
 5225 06f9 62       		.byte	0x62
ARM GAS  C:\Users\haske\AppData\Local\Temp\ccydbpJh.s 			page 129


 5226 06fa 07       		.uleb128 0x7
 5227 06fb 7C0F0000 		.4byte	.LASF164
 5228 06ff 63       		.byte	0x63
 5229 0700 07       		.uleb128 0x7
 5230 0701 CD0C0000 		.4byte	.LASF165
 5231 0705 64       		.byte	0x64
 5232 0706 07       		.uleb128 0x7
 5233 0707 B70B0000 		.4byte	.LASF166
 5234 070b 65       		.byte	0x65
 5235 070c 07       		.uleb128 0x7
 5236 070d 87040000 		.4byte	.LASF167
 5237 0711 66       		.byte	0x66
 5238 0712 07       		.uleb128 0x7
 5239 0713 820A0000 		.4byte	.LASF168
 5240 0717 67       		.byte	0x67
 5241 0718 07       		.uleb128 0x7
 5242 0719 2D0B0000 		.4byte	.LASF169
 5243 071d 68       		.byte	0x68
 5244 071e 07       		.uleb128 0x7
 5245 071f 31040000 		.4byte	.LASF170
 5246 0723 69       		.byte	0x69
 5247 0724 07       		.uleb128 0x7
 5248 0725 3C080000 		.4byte	.LASF171
 5249 0729 6A       		.byte	0x6a
 5250 072a 07       		.uleb128 0x7
 5251 072b 51080000 		.4byte	.LASF172
 5252 072f 6B       		.byte	0x6b
 5253 0730 07       		.uleb128 0x7
 5254 0731 660D0000 		.4byte	.LASF173
 5255 0735 6C       		.byte	0x6c
 5256 0736 07       		.uleb128 0x7
 5257 0737 61100000 		.4byte	.LASF174
 5258 073b 6D       		.byte	0x6d
 5259 073c 07       		.uleb128 0x7
 5260 073d 2F070000 		.4byte	.LASF175
 5261 0741 6E       		.byte	0x6e
 5262 0742 07       		.uleb128 0x7
 5263 0743 4A070000 		.4byte	.LASF176
 5264 0747 6F       		.byte	0x6f
 5265 0748 07       		.uleb128 0x7
 5266 0749 95020000 		.4byte	.LASF177
 5267 074d 6F       		.byte	0x6f
 5268 074e 07       		.uleb128 0x7
 5269 074f FE190000 		.4byte	.LASF178
 5270 0753 70       		.byte	0x70
 5271 0754 18       		.uleb128 0x18
 5272 0755 70170000 		.4byte	.LASF179
 5273 0759 FFFF     		.2byte	0xffff
 5274 075b 18       		.uleb128 0x18
 5275 075c DB110000 		.4byte	.LASF180
 5276 0760 FFFF     		.2byte	0xffff
 5277 0762 00       		.byte	0
 5278 0763 19       		.uleb128 0x19
 5279 0764 590B0000 		.4byte	.LASF181
 5280 0768 0B       		.byte	0xb
 5281 0769 1C01     		.2byte	0x11c
 5282 076b 3E050000 		.4byte	0x53e
ARM GAS  C:\Users\haske\AppData\Local\Temp\ccydbpJh.s 			page 130


 5283 076f 1A       		.uleb128 0x1a
 5284 0770 08       		.byte	0x8
 5285 0771 0B       		.byte	0xb
 5286 0772 3601     		.2byte	0x136
 5287 0774 93070000 		.4byte	0x793
 5288 0778 1B       		.uleb128 0x1b
 5289 0779 B60A0000 		.4byte	.LASF182
 5290 077d 0B       		.byte	0xb
 5291 077e 3701     		.2byte	0x137
 5292 0780 63070000 		.4byte	0x763
 5293 0784 00       		.byte	0
 5294 0785 1B       		.uleb128 0x1b
 5295 0786 11090000 		.4byte	.LASF183
 5296 078a 0B       		.byte	0xb
 5297 078b 3801     		.2byte	0x138
 5298 078d 33050000 		.4byte	0x533
 5299 0791 04       		.byte	0x4
 5300 0792 00       		.byte	0
 5301 0793 19       		.uleb128 0x19
 5302 0794 630C0000 		.4byte	.LASF184
 5303 0798 0B       		.byte	0xb
 5304 0799 3901     		.2byte	0x139
 5305 079b 6F070000 		.4byte	0x76f
 5306 079f 1C       		.uleb128 0x1c
 5307 07a0 04       		.byte	0x4
 5308 07a1 0B       		.byte	0xb
 5309 07a2 4601     		.2byte	0x146
 5310 07a4 CD070000 		.4byte	0x7cd
 5311 07a8 1D       		.uleb128 0x1d
 5312 07a9 D6160000 		.4byte	.LASF185
 5313 07ad 0B       		.byte	0xb
 5314 07ae 4701     		.2byte	0x147
 5315 07b0 33050000 		.4byte	0x533
 5316 07b4 1D       		.uleb128 0x1d
 5317 07b5 850B0000 		.4byte	.LASF186
 5318 07b9 0B       		.byte	0xb
 5319 07ba 4801     		.2byte	0x148
 5320 07bc CD070000 		.4byte	0x7cd
 5321 07c0 1D       		.uleb128 0x1d
 5322 07c1 BB0A0000 		.4byte	.LASF187
 5323 07c5 0B       		.byte	0xb
 5324 07c6 4901     		.2byte	0x149
 5325 07c8 D3070000 		.4byte	0x7d3
 5326 07cc 00       		.byte	0
 5327 07cd 11       		.uleb128 0x11
 5328 07ce 04       		.byte	0x4
 5329 07cf C3000000 		.4byte	0xc3
 5330 07d3 11       		.uleb128 0x11
 5331 07d4 04       		.byte	0x4
 5332 07d5 D9070000 		.4byte	0x7d9
 5333 07d9 12       		.uleb128 0x12
 5334 07da 93070000 		.4byte	0x793
 5335 07de 1A       		.uleb128 0x1a
 5336 07df 08       		.byte	0x8
 5337 07e0 0B       		.byte	0xb
 5338 07e1 3E01     		.2byte	0x13e
 5339 07e3 1C080000 		.4byte	0x81c
ARM GAS  C:\Users\haske\AppData\Local\Temp\ccydbpJh.s 			page 131


 5340 07e7 1E       		.uleb128 0x1e
 5341 07e8 765F7000 		.ascii	"v_p\000"
 5342 07ec 0B       		.byte	0xb
 5343 07ed 4A01     		.2byte	0x14a
 5344 07ef 9F070000 		.4byte	0x79f
 5345 07f3 00       		.byte	0
 5346 07f4 1B       		.uleb128 0x1b
 5347 07f5 151B0000 		.4byte	.LASF188
 5348 07f9 0B       		.byte	0xb
 5349 07fa 4C01     		.2byte	0x14c
 5350 07fc D9000000 		.4byte	0xd9
 5351 0800 04       		.byte	0x4
 5352 0801 1B       		.uleb128 0x1b
 5353 0802 0B010000 		.4byte	.LASF189
 5354 0806 0B       		.byte	0xb
 5355 0807 4D01     		.2byte	0x14d
 5356 0809 C3000000 		.4byte	0xc3
 5357 080d 06       		.byte	0x6
 5358 080e 1B       		.uleb128 0x1b
 5359 080f 00000000 		.4byte	.LASF190
 5360 0813 0B       		.byte	0xb
 5361 0814 4E01     		.2byte	0x14e
 5362 0816 C3000000 		.4byte	0xc3
 5363 081a 07       		.byte	0x7
 5364 081b 00       		.byte	0
 5365 081c 19       		.uleb128 0x19
 5366 081d 290D0000 		.4byte	.LASF191
 5367 0821 0B       		.byte	0xb
 5368 0822 4F01     		.2byte	0x14f
 5369 0824 DE070000 		.4byte	0x7de
 5370 0828 06       		.uleb128 0x6
 5371 0829 01       		.byte	0x1
 5372 082a 42000000 		.4byte	0x42
 5373 082e 0C       		.byte	0xc
 5374 082f 24       		.byte	0x24
 5375 0830 4D080000 		.4byte	0x84d
 5376 0834 07       		.uleb128 0x7
 5377 0835 121D0000 		.4byte	.LASF192
 5378 0839 00       		.byte	0
 5379 083a 07       		.uleb128 0x7
 5380 083b 2E000000 		.4byte	.LASF193
 5381 083f 01       		.byte	0x1
 5382 0840 07       		.uleb128 0x7
 5383 0841 230E0000 		.4byte	.LASF194
 5384 0845 02       		.byte	0x2
 5385 0846 07       		.uleb128 0x7
 5386 0847 EF130000 		.4byte	.LASF195
 5387 084b 03       		.byte	0x3
 5388 084c 00       		.byte	0
 5389 084d 02       		.uleb128 0x2
 5390 084e 05020000 		.4byte	.LASF196
 5391 0852 0C       		.byte	0xc
 5392 0853 2B       		.byte	0x2b
 5393 0854 C3000000 		.4byte	0xc3
 5394 0858 11       		.uleb128 0x11
 5395 0859 04       		.byte	0x4
 5396 085a 02020000 		.4byte	0x202
ARM GAS  C:\Users\haske\AppData\Local\Temp\ccydbpJh.s 			page 132


 5397 085e 11       		.uleb128 0x11
 5398 085f 04       		.byte	0x4
 5399 0860 D9000000 		.4byte	0xd9
 5400 0864 11       		.uleb128 0x11
 5401 0865 04       		.byte	0x4
 5402 0866 6A080000 		.4byte	0x86a
 5403 086a 12       		.uleb128 0x12
 5404 086b 02020000 		.4byte	0x202
 5405 086f 08       		.uleb128 0x8
 5406 0870 1C       		.byte	0x1c
 5407 0871 0D       		.byte	0xd
 5408 0872 1D       		.byte	0x1d
 5409 0873 D8080000 		.4byte	0x8d8
 5410 0877 0F       		.uleb128 0xf
 5411 0878 DD160000 		.4byte	.LASF197
 5412 087c 0D       		.byte	0xd
 5413 087d 1E       		.byte	0x1e
 5414 087e D8080000 		.4byte	0x8d8
 5415 0882 00       		.byte	0
 5416 0883 0F       		.uleb128 0xf
 5417 0884 06170000 		.4byte	.LASF198
 5418 0888 0D       		.byte	0xd
 5419 0889 20       		.byte	0x20
 5420 088a E3080000 		.4byte	0x8e3
 5421 088e 04       		.byte	0x4
 5422 088f 0F       		.uleb128 0xf
 5423 0890 A5170000 		.4byte	.LASF84
 5424 0894 0D       		.byte	0xd
 5425 0895 21       		.byte	0x21
 5426 0896 F7010000 		.4byte	0x1f7
 5427 089a 08       		.byte	0x8
 5428 089b 0F       		.uleb128 0xf
 5429 089c 41100000 		.4byte	.LASF199
 5430 08a0 0D       		.byte	0xd
 5431 08a1 22       		.byte	0x22
 5432 08a2 58080000 		.4byte	0x858
 5433 08a6 0C       		.byte	0xc
 5434 08a7 0F       		.uleb128 0xf
 5435 08a8 75060000 		.4byte	.LASF200
 5436 08ac 0D       		.byte	0xd
 5437 08ad 23       		.byte	0x23
 5438 08ae 4D080000 		.4byte	0x84d
 5439 08b2 10       		.byte	0x10
 5440 08b3 0F       		.uleb128 0xf
 5441 08b4 64110000 		.4byte	.LASF201
 5442 08b8 0D       		.byte	0xd
 5443 08b9 24       		.byte	0x24
 5444 08ba D8080000 		.4byte	0x8d8
 5445 08be 14       		.byte	0x14
 5446 08bf 0E       		.uleb128 0xe
 5447 08c0 6F706100 		.ascii	"opa\000"
 5448 08c4 0D       		.byte	0xd
 5449 08c5 25       		.byte	0x25
 5450 08c6 02020000 		.4byte	0x202
 5451 08ca 18       		.byte	0x18
 5452 08cb 0F       		.uleb128 0xf
 5453 08cc AC030000 		.4byte	.LASF202
ARM GAS  C:\Users\haske\AppData\Local\Temp\ccydbpJh.s 			page 133


 5454 08d0 0D       		.byte	0xd
 5455 08d1 26       		.byte	0x26
 5456 08d2 4C040000 		.4byte	0x44c
 5457 08d6 19       		.byte	0x19
 5458 08d7 00       		.byte	0
 5459 08d8 11       		.uleb128 0x11
 5460 08d9 04       		.byte	0x4
 5461 08da DE080000 		.4byte	0x8de
 5462 08de 12       		.uleb128 0x12
 5463 08df 75020000 		.4byte	0x275
 5464 08e3 11       		.uleb128 0x11
 5465 08e4 04       		.byte	0x4
 5466 08e5 E9080000 		.4byte	0x8e9
 5467 08e9 12       		.uleb128 0x12
 5468 08ea F7010000 		.4byte	0x1f7
 5469 08ee 02       		.uleb128 0x2
 5470 08ef 37020000 		.4byte	.LASF203
 5471 08f3 0D       		.byte	0xd
 5472 08f4 27       		.byte	0x27
 5473 08f5 6F080000 		.4byte	0x86f
 5474 08f9 02       		.uleb128 0x2
 5475 08fa AD0D0000 		.4byte	.LASF204
 5476 08fe 0E       		.byte	0xe
 5477 08ff 69       		.byte	0x69
 5478 0900 C3000000 		.4byte	0xc3
 5479 0904 11       		.uleb128 0x11
 5480 0905 04       		.byte	0x4
 5481 0906 EF000000 		.4byte	0xef
 5482 090a 11       		.uleb128 0x11
 5483 090b 04       		.byte	0x4
 5484 090c 10090000 		.4byte	0x910
 5485 0910 10       		.uleb128 0x10
 5486 0911 01180000 		.4byte	.LASF206
 5487 0915 24       		.byte	0x24
 5488 0916 0F       		.byte	0xf
 5489 0917 AE       		.byte	0xae
 5490 0918 D7090000 		.4byte	0x9d7
 5491 091c 0F       		.uleb128 0xf
 5492 091d 7E110000 		.4byte	.LASF207
 5493 0921 0F       		.byte	0xf
 5494 0922 AF       		.byte	0xaf
 5495 0923 A01B0000 		.4byte	0x1ba0
 5496 0927 00       		.byte	0
 5497 0928 0F       		.uleb128 0xf
 5498 0929 900C0000 		.4byte	.LASF208
 5499 092d 0F       		.byte	0xf
 5500 092e B0       		.byte	0xb0
 5501 092f 0A090000 		.4byte	0x90a
 5502 0933 04       		.byte	0x4
 5503 0934 0F       		.uleb128 0xf
 5504 0935 94010000 		.4byte	.LASF209
 5505 0939 0F       		.byte	0xf
 5506 093a B1       		.byte	0xb1
 5507 093b AB1B0000 		.4byte	0x1bab
 5508 093f 08       		.byte	0x8
 5509 0940 0F       		.uleb128 0xf
 5510 0941 440D0000 		.4byte	.LASF210
ARM GAS  C:\Users\haske\AppData\Local\Temp\ccydbpJh.s 			page 134


 5511 0945 0F       		.byte	0xf
 5512 0946 B2       		.byte	0xb2
 5513 0947 B11B0000 		.4byte	0x1bb1
 5514 094b 0C       		.byte	0xc
 5515 094c 0F       		.uleb128 0xf
 5516 094d 4A1D0000 		.4byte	.LASF67
 5517 0951 0F       		.byte	0xf
 5518 0952 B4       		.byte	0xb4
 5519 0953 34010000 		.4byte	0x134
 5520 0957 10       		.byte	0x10
 5521 0958 0F       		.uleb128 0xf
 5522 0959 E9190000 		.4byte	.LASF211
 5523 095d 0F       		.byte	0xf
 5524 095e B6       		.byte	0xb6
 5525 095f 75020000 		.4byte	0x275
 5526 0963 14       		.byte	0x14
 5527 0964 0F       		.uleb128 0xf
 5528 0965 17090000 		.4byte	.LASF212
 5529 0969 0F       		.byte	0xf
 5530 096a B7       		.byte	0xb7
 5531 096b 87170000 		.4byte	0x1787
 5532 096f 1C       		.byte	0x1c
 5533 0970 0F       		.uleb128 0xf
 5534 0971 DD010000 		.4byte	.LASF213
 5535 0975 0F       		.byte	0xf
 5536 0976 B8       		.byte	0xb8
 5537 0977 7C170000 		.4byte	0x177c
 5538 097b 20       		.byte	0x20
 5539 097c 09       		.uleb128 0x9
 5540 097d 3B060000 		.4byte	.LASF214
 5541 0981 0F       		.byte	0xf
 5542 0982 B9       		.byte	0xb9
 5543 0983 D9000000 		.4byte	0xd9
 5544 0987 02       		.byte	0x2
 5545 0988 01       		.byte	0x1
 5546 0989 0F       		.byte	0xf
 5547 098a 22       		.byte	0x22
 5548 098b 09       		.uleb128 0x9
 5549 098c CF030000 		.4byte	.LASF215
 5550 0990 0F       		.byte	0xf
 5551 0991 BA       		.byte	0xba
 5552 0992 D9000000 		.4byte	0xd9
 5553 0996 02       		.byte	0x2
 5554 0997 01       		.byte	0x1
 5555 0998 0E       		.byte	0xe
 5556 0999 22       		.byte	0x22
 5557 099a 09       		.uleb128 0x9
 5558 099b 3D110000 		.4byte	.LASF216
 5559 099f 0F       		.byte	0xf
 5560 09a0 BB       		.byte	0xbb
 5561 09a1 D9000000 		.4byte	0xd9
 5562 09a5 02       		.byte	0x2
 5563 09a6 01       		.byte	0x1
 5564 09a7 0D       		.byte	0xd
 5565 09a8 22       		.byte	0x22
 5566 09a9 09       		.uleb128 0x9
 5567 09aa 2A060000 		.4byte	.LASF217
ARM GAS  C:\Users\haske\AppData\Local\Temp\ccydbpJh.s 			page 135


 5568 09ae 0F       		.byte	0xf
 5569 09af BC       		.byte	0xbc
 5570 09b0 D9000000 		.4byte	0xd9
 5571 09b4 02       		.byte	0x2
 5572 09b5 06       		.byte	0x6
 5573 09b6 07       		.byte	0x7
 5574 09b7 22       		.byte	0x22
 5575 09b8 09       		.uleb128 0x9
 5576 09b9 E5070000 		.4byte	.LASF218
 5577 09bd 0F       		.byte	0xf
 5578 09be BD       		.byte	0xbd
 5579 09bf D9000000 		.4byte	0xd9
 5580 09c3 02       		.byte	0x2
 5581 09c4 01       		.byte	0x1
 5582 09c5 06       		.byte	0x6
 5583 09c6 22       		.byte	0x22
 5584 09c7 09       		.uleb128 0x9
 5585 09c8 A3030000 		.4byte	.LASF219
 5586 09cc 0F       		.byte	0xf
 5587 09cd BE       		.byte	0xbe
 5588 09ce D9000000 		.4byte	0xd9
 5589 09d2 02       		.byte	0x2
 5590 09d3 01       		.byte	0x1
 5591 09d4 05       		.byte	0x5
 5592 09d5 22       		.byte	0x22
 5593 09d6 00       		.byte	0
 5594 09d7 11       		.uleb128 0x11
 5595 09d8 04       		.byte	0x4
 5596 09d9 F7010000 		.4byte	0x1f7
 5597 09dd 08       		.uleb128 0x8
 5598 09de 38       		.byte	0x38
 5599 09df 10       		.byte	0x10
 5600 09e0 20       		.byte	0x20
 5601 09e1 240B0000 		.4byte	0xb24
 5602 09e5 0F       		.uleb128 0xf
 5603 09e6 30010000 		.4byte	.LASF220
 5604 09ea 10       		.byte	0x10
 5605 09eb 21       		.byte	0x21
 5606 09ec 0D020000 		.4byte	0x20d
 5607 09f0 00       		.byte	0
 5608 09f1 0F       		.uleb128 0xf
 5609 09f2 AC030000 		.4byte	.LASF202
 5610 09f6 10       		.byte	0x10
 5611 09f7 22       		.byte	0x22
 5612 09f8 4C040000 		.4byte	0x44c
 5613 09fc 02       		.byte	0x2
 5614 09fd 0F       		.uleb128 0xf
 5615 09fe E4040000 		.4byte	.LASF221
 5616 0a02 10       		.byte	0x10
 5617 0a03 25       		.byte	0x25
 5618 0a04 02020000 		.4byte	0x202
 5619 0a08 03       		.byte	0x3
 5620 0a09 0F       		.uleb128 0xf
 5621 0a0a 37010000 		.4byte	.LASF222
 5622 0a0e 10       		.byte	0x10
 5623 0a0f 26       		.byte	0x26
 5624 0a10 F7010000 		.4byte	0x1f7
ARM GAS  C:\Users\haske\AppData\Local\Temp\ccydbpJh.s 			page 136


 5625 0a14 04       		.byte	0x4
 5626 0a15 0F       		.uleb128 0xf
 5627 0a16 891B0000 		.4byte	.LASF223
 5628 0a1a 10       		.byte	0x10
 5629 0a1b 27       		.byte	0x27
 5630 0a1c FE040000 		.4byte	0x4fe
 5631 0a20 06       		.byte	0x6
 5632 0a21 0F       		.uleb128 0xf
 5633 0a22 02030000 		.4byte	.LASF224
 5634 0a26 10       		.byte	0x10
 5635 0a27 2A       		.byte	0x2a
 5636 0a28 EE030000 		.4byte	0x3ee
 5637 0a2c 10       		.byte	0x10
 5638 0a2d 0F       		.uleb128 0xf
 5639 0a2e 4E1E0000 		.4byte	.LASF225
 5640 0a32 10       		.byte	0x10
 5641 0a33 2B       		.byte	0x2b
 5642 0a34 EE030000 		.4byte	0x3ee
 5643 0a38 14       		.byte	0x14
 5644 0a39 0F       		.uleb128 0xf
 5645 0a3a D1180000 		.4byte	.LASF226
 5646 0a3e 10       		.byte	0x10
 5647 0a3f 2C       		.byte	0x2c
 5648 0a40 F7010000 		.4byte	0x1f7
 5649 0a44 18       		.byte	0x18
 5650 0a45 0F       		.uleb128 0xf
 5651 0a46 C0060000 		.4byte	.LASF227
 5652 0a4a 10       		.byte	0x10
 5653 0a4b 2D       		.byte	0x2d
 5654 0a4c 02020000 		.4byte	0x202
 5655 0a50 1A       		.byte	0x1a
 5656 0a51 0F       		.uleb128 0xf
 5657 0a52 30140000 		.4byte	.LASF228
 5658 0a56 10       		.byte	0x10
 5659 0a57 2E       		.byte	0x2e
 5660 0a58 02020000 		.4byte	0x202
 5661 0a5c 1B       		.byte	0x1b
 5662 0a5d 0F       		.uleb128 0xf
 5663 0a5e 7E060000 		.4byte	.LASF229
 5664 0a62 10       		.byte	0x10
 5665 0a63 2F       		.byte	0x2f
 5666 0a64 C3000000 		.4byte	0xc3
 5667 0a68 1C       		.byte	0x1c
 5668 0a69 0F       		.uleb128 0xf
 5669 0a6a 750A0000 		.4byte	.LASF230
 5670 0a6e 10       		.byte	0x10
 5671 0a6f 32       		.byte	0x32
 5672 0a70 F7010000 		.4byte	0x1f7
 5673 0a74 1E       		.byte	0x1e
 5674 0a75 0F       		.uleb128 0xf
 5675 0a76 22160000 		.4byte	.LASF231
 5676 0a7a 10       		.byte	0x10
 5677 0a7b 33       		.byte	0x33
 5678 0a7c 0D020000 		.4byte	0x20d
 5679 0a80 20       		.byte	0x20
 5680 0a81 0F       		.uleb128 0xf
 5681 0a82 4C1B0000 		.4byte	.LASF232
ARM GAS  C:\Users\haske\AppData\Local\Temp\ccydbpJh.s 			page 137


 5682 0a86 10       		.byte	0x10
 5683 0a87 34       		.byte	0x34
 5684 0a88 02020000 		.4byte	0x202
 5685 0a8c 22       		.byte	0x22
 5686 0a8d 09       		.uleb128 0x9
 5687 0a8e E80A0000 		.4byte	.LASF233
 5688 0a92 10       		.byte	0x10
 5689 0a93 35       		.byte	0x35
 5690 0a94 C3000000 		.4byte	0xc3
 5691 0a98 01       		.byte	0x1
 5692 0a99 01       		.byte	0x1
 5693 0a9a 07       		.byte	0x7
 5694 0a9b 23       		.byte	0x23
 5695 0a9c 09       		.uleb128 0x9
 5696 0a9d 8D030000 		.4byte	.LASF234
 5697 0aa1 10       		.byte	0x10
 5698 0aa2 36       		.byte	0x36
 5699 0aa3 62040000 		.4byte	0x462
 5700 0aa7 01       		.byte	0x1
 5701 0aa8 05       		.byte	0x5
 5702 0aa9 02       		.byte	0x2
 5703 0aaa 23       		.byte	0x23
 5704 0aab 0F       		.uleb128 0xf
 5705 0aac E8050000 		.4byte	.LASF235
 5706 0ab0 10       		.byte	0x10
 5707 0ab1 39       		.byte	0x39
 5708 0ab2 F7010000 		.4byte	0x1f7
 5709 0ab6 24       		.byte	0x24
 5710 0ab7 0F       		.uleb128 0xf
 5711 0ab8 D5120000 		.4byte	.LASF236
 5712 0abc 10       		.byte	0x10
 5713 0abd 3A       		.byte	0x3a
 5714 0abe 0D020000 		.4byte	0x20d
 5715 0ac2 26       		.byte	0x26
 5716 0ac3 0F       		.uleb128 0xf
 5717 0ac4 300A0000 		.4byte	.LASF237
 5718 0ac8 10       		.byte	0x10
 5719 0ac9 3B       		.byte	0x3b
 5720 0aca 0D020000 		.4byte	0x20d
 5721 0ace 28       		.byte	0x28
 5722 0acf 0F       		.uleb128 0xf
 5723 0ad0 36120000 		.4byte	.LASF238
 5724 0ad4 10       		.byte	0x10
 5725 0ad5 3C       		.byte	0x3c
 5726 0ad6 02020000 		.4byte	0x202
 5727 0ada 2A       		.byte	0x2a
 5728 0adb 0F       		.uleb128 0xf
 5729 0adc 17100000 		.4byte	.LASF239
 5730 0ae0 10       		.byte	0x10
 5731 0ae1 3F       		.byte	0x3f
 5732 0ae2 F7010000 		.4byte	0x1f7
 5733 0ae6 2C       		.byte	0x2c
 5734 0ae7 0F       		.uleb128 0xf
 5735 0ae8 A11C0000 		.4byte	.LASF240
 5736 0aec 10       		.byte	0x10
 5737 0aed 40       		.byte	0x40
 5738 0aee 0D020000 		.4byte	0x20d
ARM GAS  C:\Users\haske\AppData\Local\Temp\ccydbpJh.s 			page 138


 5739 0af2 2E       		.byte	0x2e
 5740 0af3 0F       		.uleb128 0xf
 5741 0af4 200B0000 		.4byte	.LASF241
 5742 0af8 10       		.byte	0x10
 5743 0af9 41       		.byte	0x41
 5744 0afa 0D020000 		.4byte	0x20d
 5745 0afe 30       		.byte	0x30
 5746 0aff 0F       		.uleb128 0xf
 5747 0b00 611E0000 		.4byte	.LASF242
 5748 0b04 10       		.byte	0x10
 5749 0b05 42       		.byte	0x42
 5750 0b06 0D020000 		.4byte	0x20d
 5751 0b0a 32       		.byte	0x32
 5752 0b0b 0F       		.uleb128 0xf
 5753 0b0c BF0C0000 		.4byte	.LASF243
 5754 0b10 10       		.byte	0x10
 5755 0b11 43       		.byte	0x43
 5756 0b12 0D020000 		.4byte	0x20d
 5757 0b16 34       		.byte	0x34
 5758 0b17 0F       		.uleb128 0xf
 5759 0b18 A0190000 		.4byte	.LASF244
 5760 0b1c 10       		.byte	0x10
 5761 0b1d 44       		.byte	0x44
 5762 0b1e 02020000 		.4byte	0x202
 5763 0b22 36       		.byte	0x36
 5764 0b23 00       		.byte	0
 5765 0b24 02       		.uleb128 0x2
 5766 0b25 9C150000 		.4byte	.LASF245
 5767 0b29 10       		.byte	0x10
 5768 0b2a 45       		.byte	0x45
 5769 0b2b DD090000 		.4byte	0x9dd
 5770 0b2f 08       		.uleb128 0x8
 5771 0b30 20       		.byte	0x20
 5772 0b31 11       		.byte	0x11
 5773 0b32 1E       		.byte	0x1e
 5774 0b33 FE0B0000 		.4byte	0xbfe
 5775 0b37 0F       		.uleb128 0xf
 5776 0b38 0B180000 		.4byte	.LASF246
 5777 0b3c 11       		.byte	0x11
 5778 0b3d 1F       		.byte	0x1f
 5779 0b3e FE0B0000 		.4byte	0xbfe
 5780 0b42 00       		.byte	0
 5781 0b43 0F       		.uleb128 0xf
 5782 0b44 571C0000 		.4byte	.LASF247
 5783 0b48 11       		.byte	0x11
 5784 0b49 20       		.byte	0x20
 5785 0b4a EF000000 		.4byte	0xef
 5786 0b4e 04       		.byte	0x4
 5787 0b4f 0F       		.uleb128 0xf
 5788 0b50 D3110000 		.4byte	.LASF248
 5789 0b54 11       		.byte	0x11
 5790 0b55 21       		.byte	0x21
 5791 0b56 EF000000 		.4byte	0xef
 5792 0b5a 08       		.byte	0x8
 5793 0b5b 0F       		.uleb128 0xf
 5794 0b5c A5170000 		.4byte	.LASF84
 5795 0b60 11       		.byte	0x11
ARM GAS  C:\Users\haske\AppData\Local\Temp\ccydbpJh.s 			page 139


 5796 0b61 22       		.byte	0x22
 5797 0b62 F7010000 		.4byte	0x1f7
 5798 0b66 0C       		.byte	0xc
 5799 0b67 0F       		.uleb128 0xf
 5800 0b68 361E0000 		.4byte	.LASF249
 5801 0b6c 11       		.byte	0x11
 5802 0b6d 23       		.byte	0x23
 5803 0b6e F7010000 		.4byte	0x1f7
 5804 0b72 0E       		.byte	0xe
 5805 0b73 0F       		.uleb128 0xf
 5806 0b74 15050000 		.4byte	.LASF250
 5807 0b78 11       		.byte	0x11
 5808 0b79 24       		.byte	0x24
 5809 0b7a F7010000 		.4byte	0x1f7
 5810 0b7e 10       		.byte	0x10
 5811 0b7f 0F       		.uleb128 0xf
 5812 0b80 BD170000 		.4byte	.LASF251
 5813 0b84 11       		.byte	0x11
 5814 0b85 25       		.byte	0x25
 5815 0b86 0D020000 		.4byte	0x20d
 5816 0b8a 12       		.byte	0x12
 5817 0b8b 0F       		.uleb128 0xf
 5818 0b8c 10180000 		.4byte	.LASF252
 5819 0b90 11       		.byte	0x11
 5820 0b91 26       		.byte	0x26
 5821 0b92 0D020000 		.4byte	0x20d
 5822 0b96 14       		.byte	0x14
 5823 0b97 0F       		.uleb128 0xf
 5824 0b98 B5070000 		.4byte	.LASF56
 5825 0b9c 11       		.byte	0x11
 5826 0b9d 27       		.byte	0x27
 5827 0b9e 0D020000 		.4byte	0x20d
 5828 0ba2 16       		.byte	0x16
 5829 0ba3 0F       		.uleb128 0xf
 5830 0ba4 BB070000 		.4byte	.LASF57
 5831 0ba8 11       		.byte	0x11
 5832 0ba9 28       		.byte	0x28
 5833 0baa 0D020000 		.4byte	0x20d
 5834 0bae 18       		.byte	0x18
 5835 0baf 0E       		.uleb128 0xe
 5836 0bb0 6F706100 		.ascii	"opa\000"
 5837 0bb4 11       		.byte	0x11
 5838 0bb5 29       		.byte	0x29
 5839 0bb6 02020000 		.4byte	0x202
 5840 0bba 1A       		.byte	0x1a
 5841 0bbb 0F       		.uleb128 0xf
 5842 0bbc 5C010000 		.4byte	.LASF253
 5843 0bc0 11       		.byte	0x11
 5844 0bc1 2A       		.byte	0x2a
 5845 0bc2 16040000 		.4byte	0x416
 5846 0bc6 1B       		.byte	0x1b
 5847 0bc7 0F       		.uleb128 0xf
 5848 0bc8 09110000 		.4byte	.LASF254
 5849 0bcc 11       		.byte	0x11
 5850 0bcd 2B       		.byte	0x2b
 5851 0bce 0B040000 		.4byte	0x40b
 5852 0bd2 1C       		.byte	0x1c
ARM GAS  C:\Users\haske\AppData\Local\Temp\ccydbpJh.s 			page 140


 5853 0bd3 0F       		.uleb128 0xf
 5854 0bd4 FA110000 		.4byte	.LASF255
 5855 0bd8 11       		.byte	0x11
 5856 0bd9 2C       		.byte	0x2c
 5857 0bda 00040000 		.4byte	0x400
 5858 0bde 1D       		.byte	0x1d
 5859 0bdf 09       		.uleb128 0x9
 5860 0be0 27170000 		.4byte	.LASF256
 5861 0be4 11       		.byte	0x11
 5862 0be5 2D       		.byte	0x2d
 5863 0be6 57040000 		.4byte	0x457
 5864 0bea 01       		.byte	0x1
 5865 0beb 03       		.byte	0x3
 5866 0bec 05       		.byte	0x5
 5867 0bed 1E       		.byte	0x1e
 5868 0bee 09       		.uleb128 0x9
 5869 0bef AC030000 		.4byte	.LASF202
 5870 0bf3 11       		.byte	0x11
 5871 0bf4 2E       		.byte	0x2e
 5872 0bf5 4C040000 		.4byte	0x44c
 5873 0bf9 01       		.byte	0x1
 5874 0bfa 03       		.byte	0x3
 5875 0bfb 02       		.byte	0x2
 5876 0bfc 1E       		.byte	0x1e
 5877 0bfd 00       		.byte	0
 5878 0bfe 11       		.uleb128 0x11
 5879 0bff 04       		.byte	0x4
 5880 0c00 040C0000 		.4byte	0xc04
 5881 0c04 12       		.uleb128 0x12
 5882 0c05 F5030000 		.4byte	0x3f5
 5883 0c09 02       		.uleb128 0x2
 5884 0c0a F6040000 		.4byte	.LASF257
 5885 0c0e 11       		.byte	0x11
 5886 0c0f 2F       		.byte	0x2f
 5887 0c10 2F0B0000 		.4byte	0xb2f
 5888 0c14 08       		.uleb128 0x8
 5889 0c15 18       		.byte	0x18
 5890 0c16 12       		.byte	0x12
 5891 0c17 20       		.byte	0x20
 5892 0c18 8F0C0000 		.4byte	0xc8f
 5893 0c1c 0F       		.uleb128 0xf
 5894 0c1d EE0E0000 		.4byte	.LASF258
 5895 0c21 12       		.byte	0x12
 5896 0c22 22       		.byte	0x22
 5897 0c23 CE000000 		.4byte	0xce
 5898 0c27 00       		.byte	0
 5899 0c28 0F       		.uleb128 0xf
 5900 0c29 00020000 		.4byte	.LASF259
 5901 0c2d 12       		.byte	0x12
 5902 0c2e 23       		.byte	0x23
 5903 0c2f D9000000 		.4byte	0xd9
 5904 0c33 02       		.byte	0x2
 5905 0c34 0F       		.uleb128 0xf
 5906 0c35 BB160000 		.4byte	.LASF260
 5907 0c39 12       		.byte	0x12
 5908 0c3a 24       		.byte	0x24
 5909 0c3b 35020000 		.4byte	0x235
ARM GAS  C:\Users\haske\AppData\Local\Temp\ccydbpJh.s 			page 141


 5910 0c3f 04       		.byte	0x4
 5911 0c40 0F       		.uleb128 0xf
 5912 0c41 C70E0000 		.4byte	.LASF261
 5913 0c45 12       		.byte	0x12
 5914 0c46 26       		.byte	0x26
 5915 0c47 F7010000 		.4byte	0x1f7
 5916 0c4b 08       		.byte	0x8
 5917 0c4c 0F       		.uleb128 0xf
 5918 0c4d 7C120000 		.4byte	.LASF262
 5919 0c51 12       		.byte	0x12
 5920 0c52 27       		.byte	0x27
 5921 0c53 02020000 		.4byte	0x202
 5922 0c57 0A       		.byte	0xa
 5923 0c58 0E       		.uleb128 0xe
 5924 0c59 6F706100 		.ascii	"opa\000"
 5925 0c5d 12       		.byte	0x12
 5926 0c5e 29       		.byte	0x29
 5927 0c5f 02020000 		.4byte	0x202
 5928 0c63 0B       		.byte	0xb
 5929 0c64 09       		.uleb128 0x9
 5930 0c65 AC030000 		.4byte	.LASF202
 5931 0c69 12       		.byte	0x12
 5932 0c6a 2A       		.byte	0x2a
 5933 0c6b 4C040000 		.4byte	0x44c
 5934 0c6f 01       		.byte	0x1
 5935 0c70 04       		.byte	0x4
 5936 0c71 04       		.byte	0x4
 5937 0c72 0C       		.byte	0xc
 5938 0c73 0F       		.uleb128 0xf
 5939 0c74 73120000 		.4byte	.LASF263
 5940 0c78 12       		.byte	0x12
 5941 0c79 2C       		.byte	0x2c
 5942 0c7a E4000000 		.4byte	0xe4
 5943 0c7e 10       		.byte	0x10
 5944 0c7f 09       		.uleb128 0x9
 5945 0c80 2A130000 		.4byte	.LASF264
 5946 0c84 12       		.byte	0x12
 5947 0c85 2D       		.byte	0x2d
 5948 0c86 C3000000 		.4byte	0xc3
 5949 0c8a 01       		.byte	0x1
 5950 0c8b 01       		.byte	0x1
 5951 0c8c 07       		.byte	0x7
 5952 0c8d 14       		.byte	0x14
 5953 0c8e 00       		.byte	0
 5954 0c8f 02       		.uleb128 0x2
 5955 0c90 38090000 		.4byte	.LASF265
 5956 0c94 12       		.byte	0x12
 5957 0c95 2E       		.byte	0x2e
 5958 0c96 140C0000 		.4byte	0xc14
 5959 0c9a 08       		.uleb128 0x8
 5960 0c9b 0A       		.byte	0xa
 5961 0c9c 13       		.byte	0x13
 5962 0c9d 1C       		.byte	0x1c
 5963 0c9e 1B0D0000 		.4byte	0xd1b
 5964 0ca2 0F       		.uleb128 0xf
 5965 0ca3 A5170000 		.4byte	.LASF84
 5966 0ca7 13       		.byte	0x13
ARM GAS  C:\Users\haske\AppData\Local\Temp\ccydbpJh.s 			page 142


 5967 0ca8 1D       		.byte	0x1d
 5968 0ca9 F7010000 		.4byte	0x1f7
 5969 0cad 00       		.byte	0
 5970 0cae 0F       		.uleb128 0xf
 5971 0caf 2C100000 		.4byte	.LASF266
 5972 0cb3 13       		.byte	0x13
 5973 0cb4 1E       		.byte	0x1e
 5974 0cb5 0D020000 		.4byte	0x20d
 5975 0cb9 02       		.byte	0x2
 5976 0cba 0F       		.uleb128 0xf
 5977 0cbb 050E0000 		.4byte	.LASF267
 5978 0cbf 13       		.byte	0x13
 5979 0cc0 1F       		.byte	0x1f
 5980 0cc1 0D020000 		.4byte	0x20d
 5981 0cc5 04       		.byte	0x4
 5982 0cc6 0F       		.uleb128 0xf
 5983 0cc7 7D090000 		.4byte	.LASF268
 5984 0ccb 13       		.byte	0x13
 5985 0ccc 20       		.byte	0x20
 5986 0ccd 0D020000 		.4byte	0x20d
 5987 0cd1 06       		.byte	0x6
 5988 0cd2 0E       		.uleb128 0xe
 5989 0cd3 6F706100 		.ascii	"opa\000"
 5990 0cd7 13       		.byte	0x13
 5991 0cd8 21       		.byte	0x21
 5992 0cd9 02020000 		.4byte	0x202
 5993 0cdd 08       		.byte	0x8
 5994 0cde 09       		.uleb128 0x9
 5995 0cdf AC030000 		.4byte	.LASF202
 5996 0ce3 13       		.byte	0x13
 5997 0ce4 22       		.byte	0x22
 5998 0ce5 4C040000 		.4byte	0x44c
 5999 0ce9 01       		.byte	0x1
 6000 0cea 02       		.byte	0x2
 6001 0ceb 06       		.byte	0x6
 6002 0cec 09       		.byte	0x9
 6003 0ced 09       		.uleb128 0x9
 6004 0cee 690B0000 		.4byte	.LASF269
 6005 0cf2 13       		.byte	0x13
 6006 0cf3 23       		.byte	0x23
 6007 0cf4 C3000000 		.4byte	0xc3
 6008 0cf8 01       		.byte	0x1
 6009 0cf9 01       		.byte	0x1
 6010 0cfa 05       		.byte	0x5
 6011 0cfb 09       		.byte	0x9
 6012 0cfc 09       		.uleb128 0x9
 6013 0cfd A40C0000 		.4byte	.LASF270
 6014 0d01 13       		.byte	0x13
 6015 0d02 24       		.byte	0x24
 6016 0d03 C3000000 		.4byte	0xc3
 6017 0d07 01       		.byte	0x1
 6018 0d08 01       		.byte	0x1
 6019 0d09 04       		.byte	0x4
 6020 0d0a 09       		.byte	0x9
 6021 0d0b 09       		.uleb128 0x9
 6022 0d0c E7000000 		.4byte	.LASF271
 6023 0d10 13       		.byte	0x13
ARM GAS  C:\Users\haske\AppData\Local\Temp\ccydbpJh.s 			page 143


 6024 0d11 25       		.byte	0x25
 6025 0d12 C3000000 		.4byte	0xc3
 6026 0d16 01       		.byte	0x1
 6027 0d17 01       		.byte	0x1
 6028 0d18 03       		.byte	0x3
 6029 0d19 09       		.byte	0x9
 6030 0d1a 00       		.byte	0
 6031 0d1b 02       		.uleb128 0x2
 6032 0d1c 1C070000 		.4byte	.LASF272
 6033 0d20 13       		.byte	0x13
 6034 0d21 26       		.byte	0x26
 6035 0d22 9A0C0000 		.4byte	0xc9a
 6036 0d26 08       		.uleb128 0x8
 6037 0d27 10       		.byte	0x10
 6038 0d28 14       		.byte	0x14
 6039 0d29 1C       		.byte	0x1c
 6040 0d2a 950D0000 		.4byte	0xd95
 6041 0d2e 0F       		.uleb128 0xf
 6042 0d2f A5170000 		.4byte	.LASF84
 6043 0d33 14       		.byte	0x14
 6044 0d34 1D       		.byte	0x1d
 6045 0d35 F7010000 		.4byte	0x1f7
 6046 0d39 00       		.byte	0
 6047 0d3a 0F       		.uleb128 0xf
 6048 0d3b 2C100000 		.4byte	.LASF266
 6049 0d3f 14       		.byte	0x14
 6050 0d40 1E       		.byte	0x1e
 6051 0d41 0D020000 		.4byte	0x20d
 6052 0d45 02       		.byte	0x2
 6053 0d46 0F       		.uleb128 0xf
 6054 0d47 CB0D0000 		.4byte	.LASF273
 6055 0d4b 14       		.byte	0x14
 6056 0d4c 1F       		.byte	0x1f
 6057 0d4d D9000000 		.4byte	0xd9
 6058 0d51 04       		.byte	0x4
 6059 0d52 0F       		.uleb128 0xf
 6060 0d53 B1060000 		.4byte	.LASF274
 6061 0d57 14       		.byte	0x14
 6062 0d58 20       		.byte	0x20
 6063 0d59 D9000000 		.4byte	0xd9
 6064 0d5d 06       		.byte	0x6
 6065 0d5e 0F       		.uleb128 0xf
 6066 0d5f AE0C0000 		.4byte	.LASF275
 6067 0d63 14       		.byte	0x14
 6068 0d64 21       		.byte	0x21
 6069 0d65 EE030000 		.4byte	0x3ee
 6070 0d69 08       		.byte	0x8
 6071 0d6a 0E       		.uleb128 0xe
 6072 0d6b 6F706100 		.ascii	"opa\000"
 6073 0d6f 14       		.byte	0x14
 6074 0d70 22       		.byte	0x22
 6075 0d71 02020000 		.4byte	0x202
 6076 0d75 0C       		.byte	0xc
 6077 0d76 09       		.uleb128 0x9
 6078 0d77 AC030000 		.4byte	.LASF202
 6079 0d7b 14       		.byte	0x14
 6080 0d7c 23       		.byte	0x23
ARM GAS  C:\Users\haske\AppData\Local\Temp\ccydbpJh.s 			page 144


 6081 0d7d 4C040000 		.4byte	0x44c
 6082 0d81 01       		.byte	0x1
 6083 0d82 02       		.byte	0x2
 6084 0d83 06       		.byte	0x6
 6085 0d84 0D       		.byte	0xd
 6086 0d85 09       		.uleb128 0x9
 6087 0d86 8D020000 		.4byte	.LASF276
 6088 0d8a 14       		.byte	0x14
 6089 0d8b 24       		.byte	0x24
 6090 0d8c C3000000 		.4byte	0xc3
 6091 0d90 01       		.byte	0x1
 6092 0d91 01       		.byte	0x1
 6093 0d92 05       		.byte	0x5
 6094 0d93 0D       		.byte	0xd
 6095 0d94 00       		.byte	0
 6096 0d95 02       		.uleb128 0x2
 6097 0d96 47180000 		.4byte	.LASF277
 6098 0d9a 14       		.byte	0x14
 6099 0d9b 25       		.byte	0x25
 6100 0d9c 260D0000 		.4byte	0xd26
 6101 0da0 06       		.uleb128 0x6
 6102 0da1 01       		.byte	0x1
 6103 0da2 42000000 		.4byte	0x42
 6104 0da6 15       		.byte	0x15
 6105 0da7 1C       		.byte	0x1c
 6106 0da8 BF0D0000 		.4byte	0xdbf
 6107 0dac 07       		.uleb128 0x7
 6108 0dad 7A100000 		.4byte	.LASF278
 6109 0db1 00       		.byte	0
 6110 0db2 07       		.uleb128 0x7
 6111 0db3 E0180000 		.4byte	.LASF279
 6112 0db7 01       		.byte	0x1
 6113 0db8 07       		.uleb128 0x7
 6114 0db9 43140000 		.4byte	.LASF280
 6115 0dbd 02       		.byte	0x2
 6116 0dbe 00       		.byte	0
 6117 0dbf 02       		.uleb128 0x2
 6118 0dc0 1D090000 		.4byte	.LASF281
 6119 0dc4 15       		.byte	0x15
 6120 0dc5 20       		.byte	0x20
 6121 0dc6 A00D0000 		.4byte	0xda0
 6122 0dca 08       		.uleb128 0x8
 6123 0dcb 10       		.byte	0x10
 6124 0dcc 16       		.byte	0x16
 6125 0dcd 33       		.byte	0x33
 6126 0dce 030E0000 		.4byte	0xe03
 6127 0dd2 0F       		.uleb128 0xf
 6128 0dd3 B8110000 		.4byte	.LASF282
 6129 0dd7 16       		.byte	0x16
 6130 0dd8 34       		.byte	0x34
 6131 0dd9 D8080000 		.4byte	0x8d8
 6132 0ddd 00       		.byte	0
 6133 0dde 0F       		.uleb128 0xf
 6134 0ddf B40E0000 		.4byte	.LASF283
 6135 0de3 16       		.byte	0x16
 6136 0de4 35       		.byte	0x35
 6137 0de5 030E0000 		.4byte	0xe03
ARM GAS  C:\Users\haske\AppData\Local\Temp\ccydbpJh.s 			page 145


 6138 0de9 04       		.byte	0x4
 6139 0dea 0E       		.uleb128 0xe
 6140 0deb 62756600 		.ascii	"buf\000"
 6141 0def 16       		.byte	0x16
 6142 0df0 36       		.byte	0x36
 6143 0df1 34010000 		.4byte	0x134
 6144 0df5 08       		.byte	0x8
 6145 0df6 0F       		.uleb128 0xf
 6146 0df7 DB190000 		.4byte	.LASF284
 6147 0dfb 16       		.byte	0x16
 6148 0dfc 37       		.byte	0x37
 6149 0dfd B6030000 		.4byte	0x3b6
 6150 0e01 0C       		.byte	0xc
 6151 0e02 00       		.byte	0
 6152 0e03 11       		.uleb128 0x11
 6153 0e04 04       		.byte	0x4
 6154 0e05 75020000 		.4byte	0x275
 6155 0e09 10       		.uleb128 0x10
 6156 0e0a 21120000 		.4byte	.LASF285
 6157 0e0e 28       		.byte	0x28
 6158 0e0f 16       		.byte	0x16
 6159 0e10 2D       		.byte	0x2d
 6160 0e11 5E0E0000 		.4byte	0xe5e
 6161 0e15 0F       		.uleb128 0xf
 6162 0e16 F0110000 		.4byte	.LASF286
 6163 0e1a 16       		.byte	0x16
 6164 0e1b 2E       		.byte	0x2e
 6165 0e1c 75020000 		.4byte	0x275
 6166 0e20 00       		.byte	0
 6167 0e21 0F       		.uleb128 0xf
 6168 0e22 99070000 		.4byte	.LASF287
 6169 0e26 16       		.byte	0x16
 6170 0e27 2F       		.byte	0x2f
 6171 0e28 75020000 		.4byte	0x275
 6172 0e2c 08       		.byte	0x8
 6173 0e2d 0F       		.uleb128 0xf
 6174 0e2e 4C120000 		.4byte	.LASF288
 6175 0e32 16       		.byte	0x16
 6176 0e33 30       		.byte	0x30
 6177 0e34 0D020000 		.4byte	0x20d
 6178 0e38 10       		.byte	0x10
 6179 0e39 0F       		.uleb128 0xf
 6180 0e3a 16150000 		.4byte	.LASF289
 6181 0e3e 16       		.byte	0x16
 6182 0e3f 31       		.byte	0x31
 6183 0e40 0D020000 		.4byte	0x20d
 6184 0e44 12       		.byte	0x12
 6185 0e45 0E       		.uleb128 0xe
 6186 0e46 62756600 		.ascii	"buf\000"
 6187 0e4a 16       		.byte	0x16
 6188 0e4b 32       		.byte	0x32
 6189 0e4c 34010000 		.4byte	0x134
 6190 0e50 14       		.byte	0x14
 6191 0e51 0F       		.uleb128 0xf
 6192 0e52 33080000 		.4byte	.LASF290
 6193 0e56 16       		.byte	0x16
 6194 0e57 38       		.byte	0x38
ARM GAS  C:\Users\haske\AppData\Local\Temp\ccydbpJh.s 			page 146


 6195 0e58 CA0D0000 		.4byte	0xdca
 6196 0e5c 18       		.byte	0x18
 6197 0e5d 00       		.byte	0
 6198 0e5e 02       		.uleb128 0x2
 6199 0e5f 87170000 		.4byte	.LASF291
 6200 0e63 16       		.byte	0x16
 6201 0e64 39       		.byte	0x39
 6202 0e65 090E0000 		.4byte	0xe09
 6203 0e69 10       		.uleb128 0x10
 6204 0e6a B2020000 		.4byte	.LASF292
 6205 0e6e 54       		.byte	0x54
 6206 0e6f 16       		.byte	0x16
 6207 0e70 3B       		.byte	0x3b
 6208 0e71 720F0000 		.4byte	0xf72
 6209 0e75 0E       		.uleb128 0xe
 6210 0e76 62756600 		.ascii	"buf\000"
 6211 0e7a 16       		.byte	0x16
 6212 0e7b 3F       		.byte	0x3f
 6213 0e7c 34010000 		.4byte	0x134
 6214 0e80 00       		.byte	0
 6215 0e81 0F       		.uleb128 0xf
 6216 0e82 B40E0000 		.4byte	.LASF283
 6217 0e86 16       		.byte	0x16
 6218 0e87 44       		.byte	0x44
 6219 0e88 030E0000 		.4byte	0xe03
 6220 0e8c 04       		.byte	0x4
 6221 0e8d 0F       		.uleb128 0xf
 6222 0e8e B8110000 		.4byte	.LASF282
 6223 0e92 16       		.byte	0x16
 6224 0e93 49       		.byte	0x49
 6225 0e94 D8080000 		.4byte	0x8d8
 6226 0e98 08       		.byte	0x8
 6227 0e99 0F       		.uleb128 0xf
 6228 0e9a 75020000 		.4byte	.LASF293
 6229 0e9e 16       		.byte	0x16
 6230 0e9f 4B       		.byte	0x4b
 6231 0ea0 830F0000 		.4byte	0xf83
 6232 0ea4 0C       		.byte	0xc
 6233 0ea5 0F       		.uleb128 0xf
 6234 0ea6 21020000 		.4byte	.LASF294
 6235 0eaa 16       		.byte	0x16
 6236 0eab 4D       		.byte	0x4d
 6237 0eac A90F0000 		.4byte	0xfa9
 6238 0eb0 10       		.byte	0x10
 6239 0eb1 0F       		.uleb128 0xf
 6240 0eb2 690E0000 		.4byte	.LASF295
 6241 0eb6 16       		.byte	0x16
 6242 0eb7 4F       		.byte	0x4f
 6243 0eb8 E90F0000 		.4byte	0xfe9
 6244 0ebc 14       		.byte	0x14
 6245 0ebd 0F       		.uleb128 0xf
 6246 0ebe 5D0F0000 		.4byte	.LASF296
 6247 0ec2 16       		.byte	0x16
 6248 0ec3 52       		.byte	0x52
 6249 0ec4 19100000 		.4byte	0x1019
 6250 0ec8 18       		.byte	0x18
 6251 0ec9 0F       		.uleb128 0xf
ARM GAS  C:\Users\haske\AppData\Local\Temp\ccydbpJh.s 			page 147


 6252 0eca C01B0000 		.4byte	.LASF297
 6253 0ece 16       		.byte	0x16
 6254 0ecf 55       		.byte	0x55
 6255 0ed0 3D100000 		.4byte	0x103d
 6256 0ed4 1C       		.byte	0x1c
 6257 0ed5 0F       		.uleb128 0xf
 6258 0ed6 E6150000 		.4byte	.LASF298
 6259 0eda 16       		.byte	0x16
 6260 0edb 58       		.byte	0x58
 6261 0edc 68100000 		.4byte	0x1068
 6262 0ee0 20       		.byte	0x20
 6263 0ee1 0F       		.uleb128 0xf
 6264 0ee2 63060000 		.4byte	.LASF299
 6265 0ee6 16       		.byte	0x16
 6266 0ee7 5C       		.byte	0x5c
 6267 0ee8 93100000 		.4byte	0x1093
 6268 0eec 24       		.byte	0x24
 6269 0eed 0F       		.uleb128 0xf
 6270 0eee 241C0000 		.4byte	.LASF300
 6271 0ef2 16       		.byte	0x16
 6272 0ef3 60       		.byte	0x60
 6273 0ef4 B3100000 		.4byte	0x10b3
 6274 0ef8 28       		.byte	0x28
 6275 0ef9 0F       		.uleb128 0xf
 6276 0efa 91090000 		.4byte	.LASF301
 6277 0efe 16       		.byte	0x16
 6278 0eff 71       		.byte	0x71
 6279 0f00 F1100000 		.4byte	0x10f1
 6280 0f04 2C       		.byte	0x2c
 6281 0f05 0F       		.uleb128 0xf
 6282 0f06 C5000000 		.4byte	.LASF302
 6283 0f0a 16       		.byte	0x16
 6284 0f0b 78       		.byte	0x78
 6285 0f0c A90F0000 		.4byte	0xfa9
 6286 0f10 30       		.byte	0x30
 6287 0f11 0F       		.uleb128 0xf
 6288 0f12 20140000 		.4byte	.LASF303
 6289 0f16 16       		.byte	0x16
 6290 0f17 7D       		.byte	0x7d
 6291 0f18 830F0000 		.4byte	0xf83
 6292 0f1c 34       		.byte	0x34
 6293 0f1d 0F       		.uleb128 0xf
 6294 0f1e BC050000 		.4byte	.LASF304
 6295 0f22 16       		.byte	0x16
 6296 0f23 8D       		.byte	0x8d
 6297 0f24 20110000 		.4byte	0x1120
 6298 0f28 38       		.byte	0x38
 6299 0f29 0F       		.uleb128 0xf
 6300 0f2a D50B0000 		.4byte	.LASF305
 6301 0f2e 16       		.byte	0x16
 6302 0f2f 99       		.byte	0x99
 6303 0f30 45110000 		.4byte	0x1145
 6304 0f34 3C       		.byte	0x3c
 6305 0f35 0F       		.uleb128 0xf
 6306 0f36 37170000 		.4byte	.LASF306
 6307 0f3a 16       		.byte	0x16
 6308 0f3b A3       		.byte	0xa3
ARM GAS  C:\Users\haske\AppData\Local\Temp\ccydbpJh.s 			page 148


 6309 0f3c 60110000 		.4byte	0x1160
 6310 0f40 40       		.byte	0x40
 6311 0f41 0F       		.uleb128 0xf
 6312 0f42 C8170000 		.4byte	.LASF307
 6313 0f46 16       		.byte	0x16
 6314 0f47 AC       		.byte	0xac
 6315 0f48 7B110000 		.4byte	0x117b
 6316 0f4c 44       		.byte	0x44
 6317 0f4d 0F       		.uleb128 0xf
 6318 0f4e F70D0000 		.4byte	.LASF308
 6319 0f52 16       		.byte	0x16
 6320 0f53 B5       		.byte	0xb5
 6321 0f54 97110000 		.4byte	0x1197
 6322 0f58 48       		.byte	0x48
 6323 0f59 0F       		.uleb128 0xf
 6324 0f5a 5D090000 		.4byte	.LASF309
 6325 0f5e 16       		.byte	0x16
 6326 0f5f BA       		.byte	0xba
 6327 0f60 1B010000 		.4byte	0x11b
 6328 0f64 4C       		.byte	0x4c
 6329 0f65 0F       		.uleb128 0xf
 6330 0f66 4A1D0000 		.4byte	.LASF67
 6331 0f6a 16       		.byte	0x16
 6332 0f6b BD       		.byte	0xbd
 6333 0f6c 34010000 		.4byte	0x134
 6334 0f70 50       		.byte	0x50
 6335 0f71 00       		.byte	0
 6336 0f72 1F       		.uleb128 0x1f
 6337 0f73 7D0F0000 		.4byte	0xf7d
 6338 0f77 14       		.uleb128 0x14
 6339 0f78 7D0F0000 		.4byte	0xf7d
 6340 0f7c 00       		.byte	0
 6341 0f7d 11       		.uleb128 0x11
 6342 0f7e 04       		.byte	0x4
 6343 0f7f 690E0000 		.4byte	0xe69
 6344 0f83 11       		.uleb128 0x11
 6345 0f84 04       		.byte	0x4
 6346 0f85 720F0000 		.4byte	0xf72
 6347 0f89 1F       		.uleb128 0x1f
 6348 0f8a 9E0F0000 		.4byte	0xf9e
 6349 0f8e 14       		.uleb128 0x14
 6350 0f8f 7D0F0000 		.4byte	0xf7d
 6351 0f93 14       		.uleb128 0x14
 6352 0f94 9E0F0000 		.4byte	0xf9e
 6353 0f98 14       		.uleb128 0x14
 6354 0f99 D8080000 		.4byte	0x8d8
 6355 0f9d 00       		.byte	0
 6356 0f9e 11       		.uleb128 0x11
 6357 0f9f 04       		.byte	0x4
 6358 0fa0 A40F0000 		.4byte	0xfa4
 6359 0fa4 12       		.uleb128 0x12
 6360 0fa5 240B0000 		.4byte	0xb24
 6361 0fa9 11       		.uleb128 0x11
 6362 0faa 04       		.byte	0x4
 6363 0fab 890F0000 		.4byte	0xf89
 6364 0faf 1F       		.uleb128 0x1f
 6365 0fb0 D30F0000 		.4byte	0xfd3
ARM GAS  C:\Users\haske\AppData\Local\Temp\ccydbpJh.s 			page 149


 6366 0fb4 14       		.uleb128 0x14
 6367 0fb5 7D0F0000 		.4byte	0xf7d
 6368 0fb9 14       		.uleb128 0x14
 6369 0fba D30F0000 		.4byte	0xfd3
 6370 0fbe 14       		.uleb128 0x14
 6371 0fbf DE0F0000 		.4byte	0xfde
 6372 0fc3 14       		.uleb128 0x14
 6373 0fc4 D9000000 		.4byte	0xd9
 6374 0fc8 14       		.uleb128 0x14
 6375 0fc9 D9000000 		.4byte	0xd9
 6376 0fcd 14       		.uleb128 0x14
 6377 0fce D9000000 		.4byte	0xd9
 6378 0fd2 00       		.byte	0
 6379 0fd3 11       		.uleb128 0x11
 6380 0fd4 04       		.byte	0x4
 6381 0fd5 D90F0000 		.4byte	0xfd9
 6382 0fd9 12       		.uleb128 0x12
 6383 0fda 950D0000 		.4byte	0xd95
 6384 0fde 11       		.uleb128 0x11
 6385 0fdf 04       		.byte	0x4
 6386 0fe0 E40F0000 		.4byte	0xfe4
 6387 0fe4 12       		.uleb128 0x12
 6388 0fe5 35020000 		.4byte	0x235
 6389 0fe9 11       		.uleb128 0x11
 6390 0fea 04       		.byte	0x4
 6391 0feb AF0F0000 		.4byte	0xfaf
 6392 0fef 1F       		.uleb128 0x1f
 6393 0ff0 0E100000 		.4byte	0x100e
 6394 0ff4 14       		.uleb128 0x14
 6395 0ff5 7D0F0000 		.4byte	0xf7d
 6396 0ff9 14       		.uleb128 0x14
 6397 0ffa 0E100000 		.4byte	0x100e
 6398 0ffe 14       		.uleb128 0x14
 6399 0fff D8080000 		.4byte	0x8d8
 6400 1003 14       		.uleb128 0x14
 6401 1004 DD030000 		.4byte	0x3dd
 6402 1008 14       		.uleb128 0x14
 6403 1009 F9080000 		.4byte	0x8f9
 6404 100d 00       		.byte	0
 6405 100e 11       		.uleb128 0x11
 6406 100f 04       		.byte	0x4
 6407 1010 14100000 		.4byte	0x1014
 6408 1014 12       		.uleb128 0x12
 6409 1015 8F0C0000 		.4byte	0xc8f
 6410 1019 11       		.uleb128 0x11
 6411 101a 04       		.byte	0x4
 6412 101b EF0F0000 		.4byte	0xfef
 6413 101f 13       		.uleb128 0x13
 6414 1020 05010000 		.4byte	0x105
 6415 1024 3D100000 		.4byte	0x103d
 6416 1028 14       		.uleb128 0x14
 6417 1029 7D0F0000 		.4byte	0xf7d
 6418 102d 14       		.uleb128 0x14
 6419 102e 0E100000 		.4byte	0x100e
 6420 1032 14       		.uleb128 0x14
 6421 1033 D8080000 		.4byte	0x8d8
 6422 1037 14       		.uleb128 0x14
ARM GAS  C:\Users\haske\AppData\Local\Temp\ccydbpJh.s 			page 150


 6423 1038 EE030000 		.4byte	0x3ee
 6424 103c 00       		.byte	0
 6425 103d 11       		.uleb128 0x11
 6426 103e 04       		.byte	0x4
 6427 103f 1F100000 		.4byte	0x101f
 6428 1043 1F       		.uleb128 0x1f
 6429 1044 5D100000 		.4byte	0x105d
 6430 1048 14       		.uleb128 0x14
 6431 1049 7D0F0000 		.4byte	0xf7d
 6432 104d 14       		.uleb128 0x14
 6433 104e 5D100000 		.4byte	0x105d
 6434 1052 14       		.uleb128 0x14
 6435 1053 DE0F0000 		.4byte	0xfde
 6436 1057 14       		.uleb128 0x14
 6437 1058 EF000000 		.4byte	0xef
 6438 105c 00       		.byte	0
 6439 105d 11       		.uleb128 0x11
 6440 105e 04       		.byte	0x4
 6441 105f 63100000 		.4byte	0x1063
 6442 1063 12       		.uleb128 0x12
 6443 1064 090C0000 		.4byte	0xc09
 6444 1068 11       		.uleb128 0x11
 6445 1069 04       		.byte	0x4
 6446 106a 43100000 		.4byte	0x1043
 6447 106e 1F       		.uleb128 0x1f
 6448 106f 88100000 		.4byte	0x1088
 6449 1073 14       		.uleb128 0x14
 6450 1074 7D0F0000 		.4byte	0xf7d
 6451 1078 14       		.uleb128 0x14
 6452 1079 88100000 		.4byte	0x1088
 6453 107d 14       		.uleb128 0x14
 6454 107e DE0F0000 		.4byte	0xfde
 6455 1082 14       		.uleb128 0x14
 6456 1083 DE0F0000 		.4byte	0xfde
 6457 1087 00       		.byte	0
 6458 1088 11       		.uleb128 0x11
 6459 1089 04       		.byte	0x4
 6460 108a 8E100000 		.4byte	0x108e
 6461 108e 12       		.uleb128 0x12
 6462 108f 1B0D0000 		.4byte	0xd1b
 6463 1093 11       		.uleb128 0x11
 6464 1094 04       		.byte	0x4
 6465 1095 6E100000 		.4byte	0x106e
 6466 1099 1F       		.uleb128 0x1f
 6467 109a B3100000 		.4byte	0x10b3
 6468 109e 14       		.uleb128 0x14
 6469 109f 7D0F0000 		.4byte	0xf7d
 6470 10a3 14       		.uleb128 0x14
 6471 10a4 9E0F0000 		.4byte	0xf9e
 6472 10a8 14       		.uleb128 0x14
 6473 10a9 DE0F0000 		.4byte	0xfde
 6474 10ad 14       		.uleb128 0x14
 6475 10ae D9000000 		.4byte	0xd9
 6476 10b2 00       		.byte	0
 6477 10b3 11       		.uleb128 0x11
 6478 10b4 04       		.byte	0x4
 6479 10b5 99100000 		.4byte	0x1099
ARM GAS  C:\Users\haske\AppData\Local\Temp\ccydbpJh.s 			page 151


 6480 10b9 1F       		.uleb128 0x1f
 6481 10ba F1100000 		.4byte	0x10f1
 6482 10be 14       		.uleb128 0x14
 6483 10bf 7D0F0000 		.4byte	0xf7d
 6484 10c3 14       		.uleb128 0x14
 6485 10c4 D8080000 		.4byte	0x8d8
 6486 10c8 14       		.uleb128 0x14
 6487 10c9 EE030000 		.4byte	0x3ee
 6488 10cd 14       		.uleb128 0x14
 6489 10ce 0D020000 		.4byte	0x20d
 6490 10d2 14       		.uleb128 0x14
 6491 10d3 0D020000 		.4byte	0x20d
 6492 10d7 14       		.uleb128 0x14
 6493 10d8 0D020000 		.4byte	0x20d
 6494 10dc 14       		.uleb128 0x14
 6495 10dd 0E100000 		.4byte	0x100e
 6496 10e1 14       		.uleb128 0x14
 6497 10e2 F9080000 		.4byte	0x8f9
 6498 10e6 14       		.uleb128 0x14
 6499 10e7 D7090000 		.4byte	0x9d7
 6500 10eb 14       		.uleb128 0x14
 6501 10ec 58080000 		.4byte	0x858
 6502 10f0 00       		.byte	0
 6503 10f1 11       		.uleb128 0x11
 6504 10f2 04       		.byte	0x4
 6505 10f3 B9100000 		.4byte	0x10b9
 6506 10f7 1F       		.uleb128 0x1f
 6507 10f8 20110000 		.4byte	0x1120
 6508 10fc 14       		.uleb128 0x14
 6509 10fd 7D0F0000 		.4byte	0xf7d
 6510 1101 14       		.uleb128 0x14
 6511 1102 34010000 		.4byte	0x134
 6512 1106 14       		.uleb128 0x14
 6513 1107 0D020000 		.4byte	0x20d
 6514 110b 14       		.uleb128 0x14
 6515 110c D8080000 		.4byte	0x8d8
 6516 1110 14       		.uleb128 0x14
 6517 1111 34010000 		.4byte	0x134
 6518 1115 14       		.uleb128 0x14
 6519 1116 0D020000 		.4byte	0x20d
 6520 111a 14       		.uleb128 0x14
 6521 111b D8080000 		.4byte	0x8d8
 6522 111f 00       		.byte	0
 6523 1120 11       		.uleb128 0x11
 6524 1121 04       		.byte	0x4
 6525 1122 F7100000 		.4byte	0x10f7
 6526 1126 13       		.uleb128 0x13
 6527 1127 3F110000 		.4byte	0x113f
 6528 112b 3F110000 		.4byte	0x113f
 6529 112f 14       		.uleb128 0x14
 6530 1130 7D0F0000 		.4byte	0xf7d
 6531 1134 14       		.uleb128 0x14
 6532 1135 3F110000 		.4byte	0x113f
 6533 1139 14       		.uleb128 0x14
 6534 113a BF0D0000 		.4byte	0xdbf
 6535 113e 00       		.byte	0
 6536 113f 11       		.uleb128 0x11
ARM GAS  C:\Users\haske\AppData\Local\Temp\ccydbpJh.s 			page 152


 6537 1140 04       		.byte	0x4
 6538 1141 090E0000 		.4byte	0xe09
 6539 1145 11       		.uleb128 0x11
 6540 1146 04       		.byte	0x4
 6541 1147 26110000 		.4byte	0x1126
 6542 114b 1F       		.uleb128 0x1f
 6543 114c 60110000 		.4byte	0x1160
 6544 1150 14       		.uleb128 0x14
 6545 1151 7D0F0000 		.4byte	0xf7d
 6546 1155 14       		.uleb128 0x14
 6547 1156 3F110000 		.4byte	0x113f
 6548 115a 14       		.uleb128 0x14
 6549 115b BF0D0000 		.4byte	0xdbf
 6550 115f 00       		.byte	0
 6551 1160 11       		.uleb128 0x11
 6552 1161 04       		.byte	0x4
 6553 1162 4B110000 		.4byte	0x114b
 6554 1166 1F       		.uleb128 0x1f
 6555 1167 7B110000 		.4byte	0x117b
 6556 116b 14       		.uleb128 0x14
 6557 116c 7D0F0000 		.4byte	0xf7d
 6558 1170 14       		.uleb128 0x14
 6559 1171 3F110000 		.4byte	0x113f
 6560 1175 14       		.uleb128 0x14
 6561 1176 0E100000 		.4byte	0x100e
 6562 117a 00       		.byte	0
 6563 117b 11       		.uleb128 0x11
 6564 117c 04       		.byte	0x4
 6565 117d 66110000 		.4byte	0x1166
 6566 1181 1F       		.uleb128 0x1f
 6567 1182 91110000 		.4byte	0x1191
 6568 1186 14       		.uleb128 0x14
 6569 1187 7D0F0000 		.4byte	0xf7d
 6570 118b 14       		.uleb128 0x14
 6571 118c 91110000 		.4byte	0x1191
 6572 1190 00       		.byte	0
 6573 1191 11       		.uleb128 0x11
 6574 1192 04       		.byte	0x4
 6575 1193 5E0E0000 		.4byte	0xe5e
 6576 1197 11       		.uleb128 0x11
 6577 1198 04       		.byte	0x4
 6578 1199 81110000 		.4byte	0x1181
 6579 119d 02       		.uleb128 0x2
 6580 119e 3C0A0000 		.4byte	.LASF310
 6581 11a2 16       		.byte	0x16
 6582 11a3 C0       		.byte	0xc0
 6583 11a4 690E0000 		.4byte	0xe69
 6584 11a8 02       		.uleb128 0x2
 6585 11a9 6E0F0000 		.4byte	.LASF311
 6586 11ad 17       		.byte	0x17
 6587 11ae 27       		.byte	0x27
 6588 11af B3110000 		.4byte	0x11b3
 6589 11b3 11       		.uleb128 0x11
 6590 11b4 04       		.byte	0x4
 6591 11b5 B9110000 		.4byte	0x11b9
 6592 11b9 1F       		.uleb128 0x1f
 6593 11ba C4110000 		.4byte	0x11c4
ARM GAS  C:\Users\haske\AppData\Local\Temp\ccydbpJh.s 			page 153


 6594 11be 14       		.uleb128 0x14
 6595 11bf C4110000 		.4byte	0x11c4
 6596 11c3 00       		.byte	0
 6597 11c4 11       		.uleb128 0x11
 6598 11c5 04       		.byte	0x4
 6599 11c6 CA110000 		.4byte	0x11ca
 6600 11ca 10       		.uleb128 0x10
 6601 11cb 2B020000 		.4byte	.LASF312
 6602 11cf 18       		.byte	0x18
 6603 11d0 17       		.byte	0x17
 6604 11d1 2C       		.byte	0x2c
 6605 11d2 22120000 		.4byte	0x1222
 6606 11d6 0F       		.uleb128 0xf
 6607 11d7 34060000 		.4byte	.LASF313
 6608 11db 17       		.byte	0x17
 6609 11dc 2D       		.byte	0x2d
 6610 11dd EF000000 		.4byte	0xef
 6611 11e1 00       		.byte	0
 6612 11e2 0F       		.uleb128 0xf
 6613 11e3 CD150000 		.4byte	.LASF314
 6614 11e7 17       		.byte	0x17
 6615 11e8 2E       		.byte	0x2e
 6616 11e9 EF000000 		.4byte	0xef
 6617 11ed 04       		.byte	0x4
 6618 11ee 0F       		.uleb128 0xf
 6619 11ef 64140000 		.4byte	.LASF315
 6620 11f3 17       		.byte	0x17
 6621 11f4 2F       		.byte	0x2f
 6622 11f5 A8110000 		.4byte	0x11a8
 6623 11f9 08       		.byte	0x8
 6624 11fa 0F       		.uleb128 0xf
 6625 11fb 4A1D0000 		.4byte	.LASF67
 6626 11ff 17       		.byte	0x17
 6627 1200 30       		.byte	0x30
 6628 1201 34010000 		.4byte	0x134
 6629 1205 0C       		.byte	0xc
 6630 1206 0F       		.uleb128 0xf
 6631 1207 F3010000 		.4byte	.LASF316
 6632 120b 17       		.byte	0x17
 6633 120c 31       		.byte	0x31
 6634 120d E4000000 		.4byte	0xe4
 6635 1211 10       		.byte	0x10
 6636 1212 09       		.uleb128 0x9
 6637 1213 B1110000 		.4byte	.LASF317
 6638 1217 17       		.byte	0x17
 6639 1218 32       		.byte	0x32
 6640 1219 EF000000 		.4byte	0xef
 6641 121d 04       		.byte	0x4
 6642 121e 01       		.byte	0x1
 6643 121f 1F       		.byte	0x1f
 6644 1220 14       		.byte	0x14
 6645 1221 00       		.byte	0
 6646 1222 02       		.uleb128 0x2
 6647 1223 460B0000 		.4byte	.LASF318
 6648 1227 17       		.byte	0x17
 6649 1228 33       		.byte	0x33
 6650 1229 CA110000 		.4byte	0x11ca
ARM GAS  C:\Users\haske\AppData\Local\Temp\ccydbpJh.s 			page 154


 6651 122d 20       		.uleb128 0x20
 6652 122e FF110000 		.4byte	.LASF319
 6653 1232 5C01     		.2byte	0x15c
 6654 1234 18       		.byte	0x18
 6655 1235 9E       		.byte	0x9e
 6656 1236 44130000 		.4byte	0x1344
 6657 123a 0F       		.uleb128 0xf
 6658 123b 010A0000 		.4byte	.LASF320
 6659 123f 18       		.byte	0x18
 6660 1240 A0       		.byte	0xa0
 6661 1241 3F160000 		.4byte	0x163f
 6662 1245 00       		.byte	0
 6663 1246 0F       		.uleb128 0xf
 6664 1247 EB040000 		.4byte	.LASF321
 6665 124b 18       		.byte	0x18
 6666 124c A3       		.byte	0xa3
 6667 124d 44130000 		.4byte	0x1344
 6668 1251 04       		.byte	0x4
 6669 1252 0F       		.uleb128 0xf
 6670 1253 3C0E0000 		.4byte	.LASF322
 6671 1257 18       		.byte	0x18
 6672 1258 A6       		.byte	0xa6
 6673 1259 F8160000 		.4byte	0x16f8
 6674 125d 08       		.byte	0x8
 6675 125e 0F       		.uleb128 0xf
 6676 125f F1030000 		.4byte	.LASF323
 6677 1263 18       		.byte	0x18
 6678 1264 A9       		.byte	0xa9
 6679 1265 FE160000 		.4byte	0x16fe
 6680 1269 0C       		.byte	0xc
 6681 126a 0F       		.uleb128 0xf
 6682 126b B2000000 		.4byte	.LASF324
 6683 126f 18       		.byte	0x18
 6684 1270 AA       		.byte	0xaa
 6685 1271 0A090000 		.4byte	0x90a
 6686 1275 10       		.byte	0x10
 6687 1276 0F       		.uleb128 0xf
 6688 1277 C2180000 		.4byte	.LASF325
 6689 127b 18       		.byte	0x18
 6690 127c AB       		.byte	0xab
 6691 127d 0A090000 		.4byte	0x90a
 6692 1281 14       		.byte	0x14
 6693 1282 0F       		.uleb128 0xf
 6694 1283 72050000 		.4byte	.LASF326
 6695 1287 18       		.byte	0x18
 6696 1288 AC       		.byte	0xac
 6697 1289 0A090000 		.4byte	0x90a
 6698 128d 18       		.byte	0x18
 6699 128e 0F       		.uleb128 0xf
 6700 128f E8060000 		.4byte	.LASF327
 6701 1293 18       		.byte	0x18
 6702 1294 AD       		.byte	0xad
 6703 1295 0A090000 		.4byte	0x90a
 6704 1299 1C       		.byte	0x1c
 6705 129a 0F       		.uleb128 0xf
 6706 129b 43150000 		.4byte	.LASF328
 6707 129f 18       		.byte	0x18
ARM GAS  C:\Users\haske\AppData\Local\Temp\ccydbpJh.s 			page 155


 6708 12a0 AE       		.byte	0xae
 6709 12a1 0A090000 		.4byte	0x90a
 6710 12a5 20       		.byte	0x20
 6711 12a6 0F       		.uleb128 0xf
 6712 12a7 BA000000 		.4byte	.LASF329
 6713 12ab 18       		.byte	0x18
 6714 12ac AF       		.byte	0xaf
 6715 12ad EF000000 		.4byte	0xef
 6716 12b1 24       		.byte	0x24
 6717 12b2 09       		.uleb128 0x9
 6718 12b3 E40D0000 		.4byte	.LASF330
 6719 12b7 18       		.byte	0x18
 6720 12b8 B0       		.byte	0xb0
 6721 12b9 C3000000 		.4byte	0xc3
 6722 12bd 01       		.byte	0x1
 6723 12be 01       		.byte	0x1
 6724 12bf 07       		.byte	0x7
 6725 12c0 28       		.byte	0x28
 6726 12c1 09       		.uleb128 0x9
 6727 12c2 5A1A0000 		.4byte	.LASF331
 6728 12c6 18       		.byte	0x18
 6729 12c7 B2       		.byte	0xb2
 6730 12c8 C3000000 		.4byte	0xc3
 6731 12cc 01       		.byte	0x1
 6732 12cd 01       		.byte	0x1
 6733 12ce 06       		.byte	0x6
 6734 12cf 28       		.byte	0x28
 6735 12d0 09       		.uleb128 0x9
 6736 12d1 CF070000 		.4byte	.LASF332
 6737 12d5 18       		.byte	0x18
 6738 12d6 B4       		.byte	0xb4
 6739 12d7 C3000000 		.4byte	0xc3
 6740 12db 01       		.byte	0x1
 6741 12dc 01       		.byte	0x1
 6742 12dd 05       		.byte	0x5
 6743 12de 28       		.byte	0x28
 6744 12df 0F       		.uleb128 0xf
 6745 12e0 E4040000 		.4byte	.LASF221
 6746 12e4 18       		.byte	0x18
 6747 12e5 B6       		.byte	0xb6
 6748 12e6 02020000 		.4byte	0x202
 6749 12ea 29       		.byte	0x29
 6750 12eb 0F       		.uleb128 0xf
 6751 12ec 37010000 		.4byte	.LASF222
 6752 12f0 18       		.byte	0x18
 6753 12f1 B7       		.byte	0xb7
 6754 12f2 F7010000 		.4byte	0x1f7
 6755 12f6 2A       		.byte	0x2a
 6756 12f7 0F       		.uleb128 0xf
 6757 12f8 631A0000 		.4byte	.LASF333
 6758 12fc 18       		.byte	0x18
 6759 12fd B8       		.byte	0xb8
 6760 12fe EE030000 		.4byte	0x3ee
 6761 1302 2C       		.byte	0x2c
 6762 1303 0F       		.uleb128 0xf
 6763 1304 42120000 		.4byte	.LASF334
 6764 1308 18       		.byte	0x18
ARM GAS  C:\Users\haske\AppData\Local\Temp\ccydbpJh.s 			page 156


 6765 1309 BB       		.byte	0xbb
 6766 130a 04170000 		.4byte	0x1704
 6767 130e 30       		.byte	0x30
 6768 130f 21       		.uleb128 0x21
 6769 1310 36050000 		.4byte	.LASF335
 6770 1314 18       		.byte	0x18
 6771 1315 BC       		.byte	0xbc
 6772 1316 14170000 		.4byte	0x1714
 6773 131a 3001     		.2byte	0x130
 6774 131c 21       		.uleb128 0x21
 6775 131d 44190000 		.4byte	.LASF336
 6776 1321 18       		.byte	0x18
 6777 1322 BD       		.byte	0xbd
 6778 1323 D9000000 		.4byte	0xd9
 6779 1327 5001     		.2byte	0x150
 6780 1329 21       		.uleb128 0x21
 6781 132a D0190000 		.4byte	.LASF337
 6782 132e 18       		.byte	0x18
 6783 132f BE       		.byte	0xbe
 6784 1330 E4000000 		.4byte	0xe4
 6785 1334 5401     		.2byte	0x154
 6786 1336 21       		.uleb128 0x21
 6787 1337 6B040000 		.4byte	.LASF338
 6788 133b 18       		.byte	0x18
 6789 133c C1       		.byte	0xc1
 6790 133d EF000000 		.4byte	0xef
 6791 1341 5801     		.2byte	0x158
 6792 1343 00       		.byte	0
 6793 1344 11       		.uleb128 0x11
 6794 1345 04       		.byte	0x4
 6795 1346 22120000 		.4byte	0x1222
 6796 134a 10       		.uleb128 0x10
 6797 134b 881E0000 		.4byte	.LASF339
 6798 134f 20       		.byte	0x20
 6799 1350 19       		.byte	0x19
 6800 1351 3B       		.byte	0x3b
 6801 1352 CF130000 		.4byte	0x13cf
 6802 1356 0F       		.uleb128 0xf
 6803 1357 620E0000 		.4byte	.LASF340
 6804 135b 19       		.byte	0x19
 6805 135c 3C       		.byte	0x3c
 6806 135d 13140000 		.4byte	0x1413
 6807 1361 00       		.byte	0
 6808 1362 0F       		.uleb128 0xf
 6809 1363 F41E0000 		.4byte	.LASF341
 6810 1367 19       		.byte	0x19
 6811 1368 3D       		.byte	0x3d
 6812 1369 FE160000 		.4byte	0x16fe
 6813 136d 0C       		.byte	0xc
 6814 136e 0F       		.uleb128 0xf
 6815 136f 74130000 		.4byte	.LASF342
 6816 1373 19       		.byte	0x19
 6817 1374 3F       		.byte	0x3f
 6818 1375 851A0000 		.4byte	0x1a85
 6819 1379 10       		.byte	0x10
 6820 137a 0F       		.uleb128 0xf
 6821 137b 2E050000 		.4byte	.LASF343
ARM GAS  C:\Users\haske\AppData\Local\Temp\ccydbpJh.s 			page 157


 6822 137f 19       		.byte	0x19
 6823 1380 40       		.byte	0x40
 6824 1381 A11A0000 		.4byte	0x1aa1
 6825 1385 14       		.byte	0x14
 6826 1386 0F       		.uleb128 0xf
 6827 1387 4A1D0000 		.4byte	.LASF67
 6828 138b 19       		.byte	0x19
 6829 138c 45       		.byte	0x45
 6830 138d 34010000 		.4byte	0x134
 6831 1391 18       		.byte	0x18
 6832 1392 09       		.uleb128 0x9
 6833 1393 B5050000 		.4byte	.LASF344
 6834 1397 19       		.byte	0x19
 6835 1398 48       		.byte	0x48
 6836 1399 C3000000 		.4byte	0xc3
 6837 139d 01       		.byte	0x1
 6838 139e 01       		.byte	0x1
 6839 139f 07       		.byte	0x7
 6840 13a0 1C       		.byte	0x1c
 6841 13a1 09       		.uleb128 0x9
 6842 13a2 48110000 		.4byte	.LASF345
 6843 13a6 19       		.byte	0x19
 6844 13a7 49       		.byte	0x49
 6845 13a8 C3000000 		.4byte	0xc3
 6846 13ac 01       		.byte	0x1
 6847 13ad 01       		.byte	0x1
 6848 13ae 06       		.byte	0x6
 6849 13af 1C       		.byte	0x1c
 6850 13b0 09       		.uleb128 0x9
 6851 13b1 D61D0000 		.4byte	.LASF346
 6852 13b5 19       		.byte	0x19
 6853 13b6 4A       		.byte	0x4a
 6854 13b7 C3000000 		.4byte	0xc3
 6855 13bb 01       		.byte	0x1
 6856 13bc 01       		.byte	0x1
 6857 13bd 05       		.byte	0x5
 6858 13be 1C       		.byte	0x1c
 6859 13bf 09       		.uleb128 0x9
 6860 13c0 D6150000 		.4byte	.LASF347
 6861 13c4 19       		.byte	0x19
 6862 13c5 4C       		.byte	0x4c
 6863 13c6 C3000000 		.4byte	0xc3
 6864 13ca 01       		.byte	0x1
 6865 13cb 01       		.byte	0x1
 6866 13cc 04       		.byte	0x4
 6867 13cd 1C       		.byte	0x1c
 6868 13ce 00       		.byte	0
 6869 13cf 11       		.uleb128 0x11
 6870 13d0 04       		.byte	0x4
 6871 13d1 4A130000 		.4byte	0x134a
 6872 13d5 02       		.uleb128 0x2
 6873 13d6 4D1A0000 		.4byte	.LASF348
 6874 13da 1A       		.byte	0x1a
 6875 13db 1D       		.byte	0x1d
 6876 13dc C3000000 		.4byte	0xc3
 6877 13e0 08       		.uleb128 0x8
 6878 13e1 0C       		.byte	0xc
ARM GAS  C:\Users\haske\AppData\Local\Temp\ccydbpJh.s 			page 158


 6879 13e2 1A       		.byte	0x1a
 6880 13e3 20       		.byte	0x20
 6881 13e4 0D140000 		.4byte	0x140d
 6882 13e8 0F       		.uleb128 0xf
 6883 13e9 811E0000 		.4byte	.LASF349
 6884 13ed 1A       		.byte	0x1a
 6885 13ee 21       		.byte	0x21
 6886 13ef EF000000 		.4byte	0xef
 6887 13f3 00       		.byte	0
 6888 13f4 0F       		.uleb128 0xf
 6889 13f5 85050000 		.4byte	.LASF350
 6890 13f9 1A       		.byte	0x1a
 6891 13fa 22       		.byte	0x22
 6892 13fb 0D140000 		.4byte	0x140d
 6893 13ff 04       		.byte	0x4
 6894 1400 0F       		.uleb128 0xf
 6895 1401 AD000000 		.4byte	.LASF351
 6896 1405 1A       		.byte	0x1a
 6897 1406 23       		.byte	0x23
 6898 1407 0D140000 		.4byte	0x140d
 6899 140b 08       		.byte	0x8
 6900 140c 00       		.byte	0
 6901 140d 11       		.uleb128 0x11
 6902 140e 04       		.byte	0x4
 6903 140f D5130000 		.4byte	0x13d5
 6904 1413 02       		.uleb128 0x2
 6905 1414 4A190000 		.4byte	.LASF352
 6906 1418 1A       		.byte	0x1a
 6907 1419 24       		.byte	0x24
 6908 141a E0130000 		.4byte	0x13e0
 6909 141e 10       		.uleb128 0x10
 6910 141f A00E0000 		.4byte	.LASF353
 6911 1423 1C       		.byte	0x1c
 6912 1424 18       		.byte	0x18
 6913 1425 32       		.byte	0x32
 6914 1426 91140000 		.4byte	0x1491
 6915 142a 0F       		.uleb128 0xf
 6916 142b 57100000 		.4byte	.LASF354
 6917 142f 18       		.byte	0x18
 6918 1430 33       		.byte	0x33
 6919 1431 34010000 		.4byte	0x134
 6920 1435 00       		.byte	0
 6921 1436 0F       		.uleb128 0xf
 6922 1437 5C100000 		.4byte	.LASF355
 6923 143b 18       		.byte	0x18
 6924 143c 34       		.byte	0x34
 6925 143d 34010000 		.4byte	0x134
 6926 1441 04       		.byte	0x4
 6927 1442 0F       		.uleb128 0xf
 6928 1443 B3130000 		.4byte	.LASF356
 6929 1447 18       		.byte	0x18
 6930 1448 37       		.byte	0x37
 6931 1449 34010000 		.4byte	0x134
 6932 144d 08       		.byte	0x8
 6933 144e 0F       		.uleb128 0xf
 6934 144f 11150000 		.4byte	.LASF357
 6935 1453 18       		.byte	0x18
ARM GAS  C:\Users\haske\AppData\Local\Temp\ccydbpJh.s 			page 159


 6936 1454 38       		.byte	0x38
 6937 1455 EF000000 		.4byte	0xef
 6938 1459 0C       		.byte	0xc
 6939 145a 0F       		.uleb128 0xf
 6940 145b FE0A0000 		.4byte	.LASF358
 6941 145f 18       		.byte	0x18
 6942 1460 3A       		.byte	0x3a
 6943 1461 91140000 		.4byte	0x1491
 6944 1465 10       		.byte	0x10
 6945 1466 0F       		.uleb128 0xf
 6946 1467 EE070000 		.4byte	.LASF359
 6947 146b 18       		.byte	0x18
 6948 146c 3C       		.byte	0x3c
 6949 146d 91140000 		.4byte	0x1491
 6950 1471 14       		.byte	0x14
 6951 1472 09       		.uleb128 0x9
 6952 1473 C1100000 		.4byte	.LASF360
 6953 1477 18       		.byte	0x18
 6954 1478 3D       		.byte	0x3d
 6955 1479 96140000 		.4byte	0x1496
 6956 147d 04       		.byte	0x4
 6957 147e 01       		.byte	0x1
 6958 147f 1F       		.byte	0x1f
 6959 1480 18       		.byte	0x18
 6960 1481 09       		.uleb128 0x9
 6961 1482 100E0000 		.4byte	.LASF361
 6962 1486 18       		.byte	0x18
 6963 1487 3E       		.byte	0x3e
 6964 1488 96140000 		.4byte	0x1496
 6965 148c 04       		.byte	0x4
 6966 148d 01       		.byte	0x1
 6967 148e 1E       		.byte	0x1e
 6968 148f 18       		.byte	0x18
 6969 1490 00       		.byte	0
 6970 1491 22       		.uleb128 0x22
 6971 1492 9F000000 		.4byte	0x9f
 6972 1496 22       		.uleb128 0x22
 6973 1497 EF000000 		.4byte	0xef
 6974 149b 02       		.uleb128 0x2
 6975 149c 4A000000 		.4byte	.LASF362
 6976 14a0 18       		.byte	0x18
 6977 14a1 3F       		.byte	0x3f
 6978 14a2 1E140000 		.4byte	0x141e
 6979 14a6 10       		.uleb128 0x10
 6980 14a7 E51D0000 		.4byte	.LASF363
 6981 14ab 50       		.byte	0x50
 6982 14ac 18       		.byte	0x18
 6983 14ad 4D       		.byte	0x4d
 6984 14ae 24160000 		.4byte	0x1624
 6985 14b2 0F       		.uleb128 0xf
 6986 14b3 6D060000 		.4byte	.LASF364
 6987 14b7 18       		.byte	0x18
 6988 14b8 4F       		.byte	0x4f
 6989 14b9 0D020000 		.4byte	0x20d
 6990 14bd 00       		.byte	0
 6991 14be 0F       		.uleb128 0xf
 6992 14bf C7030000 		.4byte	.LASF365
ARM GAS  C:\Users\haske\AppData\Local\Temp\ccydbpJh.s 			page 160


 6993 14c3 18       		.byte	0x18
 6994 14c4 50       		.byte	0x50
 6995 14c5 0D020000 		.4byte	0x20d
 6996 14c9 02       		.byte	0x2
 6997 14ca 0F       		.uleb128 0xf
 6998 14cb 00150000 		.4byte	.LASF366
 6999 14cf 18       		.byte	0x18
 7000 14d0 53       		.byte	0x53
 7001 14d1 0D020000 		.4byte	0x20d
 7002 14d5 04       		.byte	0x4
 7003 14d6 0F       		.uleb128 0xf
 7004 14d7 11080000 		.4byte	.LASF367
 7005 14db 18       		.byte	0x18
 7006 14dc 55       		.byte	0x55
 7007 14dd 0D020000 		.4byte	0x20d
 7008 14e1 06       		.byte	0x6
 7009 14e2 0F       		.uleb128 0xf
 7010 14e3 420E0000 		.4byte	.LASF368
 7011 14e7 18       		.byte	0x18
 7012 14e8 57       		.byte	0x57
 7013 14e9 0D020000 		.4byte	0x20d
 7014 14ed 08       		.byte	0x8
 7015 14ee 0F       		.uleb128 0xf
 7016 14ef 4B0E0000 		.4byte	.LASF369
 7017 14f3 18       		.byte	0x18
 7018 14f4 58       		.byte	0x58
 7019 14f5 0D020000 		.4byte	0x20d
 7020 14f9 0A       		.byte	0xa
 7021 14fa 0F       		.uleb128 0xf
 7022 14fb FD160000 		.4byte	.LASF370
 7023 14ff 18       		.byte	0x18
 7024 1500 5C       		.byte	0x5c
 7025 1501 24160000 		.4byte	0x1624
 7026 1505 0C       		.byte	0xc
 7027 1506 09       		.uleb128 0x9
 7028 1507 A0090000 		.4byte	.LASF371
 7029 150b 18       		.byte	0x18
 7030 150c 5E       		.byte	0x5e
 7031 150d EF000000 		.4byte	0xef
 7032 1511 04       		.byte	0x4
 7033 1512 01       		.byte	0x1
 7034 1513 1F       		.byte	0x1f
 7035 1514 10       		.byte	0x10
 7036 1515 09       		.uleb128 0x9
 7037 1516 970C0000 		.4byte	.LASF372
 7038 151a 18       		.byte	0x18
 7039 151b 5F       		.byte	0x5f
 7040 151c EF000000 		.4byte	0xef
 7041 1520 04       		.byte	0x4
 7042 1521 01       		.byte	0x1
 7043 1522 1E       		.byte	0x1e
 7044 1523 10       		.byte	0x10
 7045 1524 09       		.uleb128 0x9
 7046 1525 A20B0000 		.4byte	.LASF373
 7047 1529 18       		.byte	0x18
 7048 152a 60       		.byte	0x60
 7049 152b EF000000 		.4byte	0xef
ARM GAS  C:\Users\haske\AppData\Local\Temp\ccydbpJh.s 			page 161


 7050 152f 04       		.byte	0x4
 7051 1530 01       		.byte	0x1
 7052 1531 1D       		.byte	0x1d
 7053 1532 10       		.byte	0x10
 7054 1533 09       		.uleb128 0x9
 7055 1534 F4090000 		.4byte	.LASF374
 7056 1538 18       		.byte	0x18
 7057 1539 61       		.byte	0x61
 7058 153a EF000000 		.4byte	0xef
 7059 153e 04       		.byte	0x4
 7060 153f 01       		.byte	0x1
 7061 1540 1C       		.byte	0x1c
 7062 1541 10       		.byte	0x10
 7063 1542 09       		.uleb128 0x9
 7064 1543 9B040000 		.4byte	.LASF375
 7065 1547 18       		.byte	0x18
 7066 1548 62       		.byte	0x62
 7067 1549 EF000000 		.4byte	0xef
 7068 154d 04       		.byte	0x4
 7069 154e 02       		.byte	0x2
 7070 154f 1A       		.byte	0x1a
 7071 1550 10       		.byte	0x10
 7072 1551 09       		.uleb128 0x9
 7073 1552 DB190000 		.4byte	.LASF284
 7074 1556 18       		.byte	0x18
 7075 1557 63       		.byte	0x63
 7076 1558 EF000000 		.4byte	0xef
 7077 155c 04       		.byte	0x4
 7078 155d 01       		.byte	0x1
 7079 155e 19       		.byte	0x19
 7080 155f 10       		.byte	0x10
 7081 1560 0A       		.uleb128 0xa
 7082 1561 64706900 		.ascii	"dpi\000"
 7083 1565 18       		.byte	0x18
 7084 1566 66       		.byte	0x66
 7085 1567 EF000000 		.4byte	0xef
 7086 156b 04       		.byte	0x4
 7087 156c 0A       		.byte	0xa
 7088 156d 0F       		.byte	0xf
 7089 156e 10       		.byte	0x10
 7090 156f 0F       		.uleb128 0xf
 7091 1570 2A1D0000 		.4byte	.LASF376
 7092 1574 18       		.byte	0x18
 7093 1575 6A       		.byte	0x6a
 7094 1576 45160000 		.4byte	0x1645
 7095 157a 14       		.byte	0x14
 7096 157b 0F       		.uleb128 0xf
 7097 157c 1C170000 		.4byte	.LASF377
 7098 1580 18       		.byte	0x18
 7099 1581 6E       		.byte	0x6e
 7100 1582 5B160000 		.4byte	0x165b
 7101 1586 18       		.byte	0x18
 7102 1587 0F       		.uleb128 0xf
 7103 1588 2E1B0000 		.4byte	.LASF378
 7104 158c 18       		.byte	0x18
 7105 158d 73       		.byte	0x73
 7106 158e 8A160000 		.4byte	0x168a
ARM GAS  C:\Users\haske\AppData\Local\Temp\ccydbpJh.s 			page 162


 7107 1592 1C       		.byte	0x1c
 7108 1593 0F       		.uleb128 0xf
 7109 1594 FE0C0000 		.4byte	.LASF379
 7110 1598 18       		.byte	0x18
 7111 1599 76       		.byte	0x76
 7112 159a A5160000 		.4byte	0x16a5
 7113 159e 20       		.byte	0x20
 7114 159f 0F       		.uleb128 0xf
 7115 15a0 32110000 		.4byte	.LASF380
 7116 15a4 18       		.byte	0x18
 7117 15a5 7B       		.byte	0x7b
 7118 15a6 C0160000 		.4byte	0x16c0
 7119 15aa 24       		.byte	0x24
 7120 15ab 0F       		.uleb128 0xf
 7121 15ac C10F0000 		.4byte	.LASF381
 7122 15b0 18       		.byte	0x18
 7123 15b1 80       		.byte	0x80
 7124 15b2 D1160000 		.4byte	0x16d1
 7125 15b6 28       		.byte	0x28
 7126 15b7 0F       		.uleb128 0xf
 7127 15b8 261E0000 		.4byte	.LASF382
 7128 15bc 18       		.byte	0x18
 7129 15bd 83       		.byte	0x83
 7130 15be D1160000 		.4byte	0x16d1
 7131 15c2 2C       		.byte	0x2c
 7132 15c3 0F       		.uleb128 0xf
 7133 15c4 C4140000 		.4byte	.LASF383
 7134 15c8 18       		.byte	0x18
 7135 15c9 86       		.byte	0x86
 7136 15ca D1160000 		.4byte	0x16d1
 7137 15ce 30       		.byte	0x30
 7138 15cf 0F       		.uleb128 0xf
 7139 15d0 B4140000 		.4byte	.LASF384
 7140 15d4 18       		.byte	0x18
 7141 15d5 89       		.byte	0x89
 7142 15d6 D1160000 		.4byte	0x16d1
 7143 15da 34       		.byte	0x34
 7144 15db 0F       		.uleb128 0xf
 7145 15dc 1D000000 		.4byte	.LASF385
 7146 15e0 18       		.byte	0x18
 7147 15e1 8D       		.byte	0x8d
 7148 15e2 F7010000 		.4byte	0x1f7
 7149 15e6 38       		.byte	0x38
 7150 15e7 0F       		.uleb128 0xf
 7151 15e8 B71B0000 		.4byte	.LASF386
 7152 15ec 18       		.byte	0x18
 7153 15ed 8F       		.byte	0x8f
 7154 15ee D7160000 		.4byte	0x16d7
 7155 15f2 3C       		.byte	0x3c
 7156 15f3 0F       		.uleb128 0xf
 7157 15f4 060F0000 		.4byte	.LASF387
 7158 15f8 18       		.byte	0x18
 7159 15f9 90       		.byte	0x90
 7160 15fa ED160000 		.4byte	0x16ed
 7161 15fe 40       		.byte	0x40
 7162 15ff 0F       		.uleb128 0xf
 7163 1600 B8040000 		.4byte	.LASF388
ARM GAS  C:\Users\haske\AppData\Local\Temp\ccydbpJh.s 			page 163


 7164 1604 18       		.byte	0x18
 7165 1605 91       		.byte	0x91
 7166 1606 ED160000 		.4byte	0x16ed
 7167 160a 44       		.byte	0x44
 7168 160b 0F       		.uleb128 0xf
 7169 160c 7C010000 		.4byte	.LASF389
 7170 1610 18       		.byte	0x18
 7171 1611 92       		.byte	0x92
 7172 1612 1B010000 		.4byte	0x11b
 7173 1616 48       		.byte	0x48
 7174 1617 0F       		.uleb128 0xf
 7175 1618 4A1D0000 		.4byte	.LASF67
 7176 161c 18       		.byte	0x18
 7177 161d 95       		.byte	0x95
 7178 161e 34010000 		.4byte	0x134
 7179 1622 4C       		.byte	0x4c
 7180 1623 00       		.byte	0
 7181 1624 11       		.uleb128 0x11
 7182 1625 04       		.byte	0x4
 7183 1626 9B140000 		.4byte	0x149b
 7184 162a 1F       		.uleb128 0x1f
 7185 162b 3F160000 		.4byte	0x163f
 7186 162f 14       		.uleb128 0x14
 7187 1630 3F160000 		.4byte	0x163f
 7188 1634 14       		.uleb128 0x14
 7189 1635 D8080000 		.4byte	0x8d8
 7190 1639 14       		.uleb128 0x14
 7191 163a D7090000 		.4byte	0x9d7
 7192 163e 00       		.byte	0
 7193 163f 11       		.uleb128 0x11
 7194 1640 04       		.byte	0x4
 7195 1641 A6140000 		.4byte	0x14a6
 7196 1645 11       		.uleb128 0x11
 7197 1646 04       		.byte	0x4
 7198 1647 2A160000 		.4byte	0x162a
 7199 164b 1F       		.uleb128 0x1f
 7200 164c 5B160000 		.4byte	0x165b
 7201 1650 14       		.uleb128 0x14
 7202 1651 3F160000 		.4byte	0x163f
 7203 1655 14       		.uleb128 0x14
 7204 1656 030E0000 		.4byte	0xe03
 7205 165a 00       		.byte	0
 7206 165b 11       		.uleb128 0x11
 7207 165c 04       		.byte	0x4
 7208 165d 4B160000 		.4byte	0x164b
 7209 1661 1F       		.uleb128 0x1f
 7210 1662 8A160000 		.4byte	0x168a
 7211 1666 14       		.uleb128 0x14
 7212 1667 3F160000 		.4byte	0x163f
 7213 166b 14       		.uleb128 0x14
 7214 166c CD070000 		.4byte	0x7cd
 7215 1670 14       		.uleb128 0x14
 7216 1671 0D020000 		.4byte	0x20d
 7217 1675 14       		.uleb128 0x14
 7218 1676 0D020000 		.4byte	0x20d
 7219 167a 14       		.uleb128 0x14
 7220 167b 0D020000 		.4byte	0x20d
ARM GAS  C:\Users\haske\AppData\Local\Temp\ccydbpJh.s 			page 164


 7221 167f 14       		.uleb128 0x14
 7222 1680 F7010000 		.4byte	0x1f7
 7223 1684 14       		.uleb128 0x14
 7224 1685 02020000 		.4byte	0x202
 7225 1689 00       		.byte	0
 7226 168a 11       		.uleb128 0x11
 7227 168b 04       		.byte	0x4
 7228 168c 61160000 		.4byte	0x1661
 7229 1690 1F       		.uleb128 0x1f
 7230 1691 A5160000 		.4byte	0x16a5
 7231 1695 14       		.uleb128 0x14
 7232 1696 3F160000 		.4byte	0x163f
 7233 169a 14       		.uleb128 0x14
 7234 169b CD070000 		.4byte	0x7cd
 7235 169f 14       		.uleb128 0x14
 7236 16a0 EF000000 		.4byte	0xef
 7237 16a4 00       		.byte	0
 7238 16a5 11       		.uleb128 0x11
 7239 16a6 04       		.byte	0x4
 7240 16a7 90160000 		.4byte	0x1690
 7241 16ab 1F       		.uleb128 0x1f
 7242 16ac C0160000 		.4byte	0x16c0
 7243 16b0 14       		.uleb128 0x14
 7244 16b1 3F160000 		.4byte	0x163f
 7245 16b5 14       		.uleb128 0x14
 7246 16b6 EF000000 		.4byte	0xef
 7247 16ba 14       		.uleb128 0x14
 7248 16bb EF000000 		.4byte	0xef
 7249 16bf 00       		.byte	0
 7250 16c0 11       		.uleb128 0x11
 7251 16c1 04       		.byte	0x4
 7252 16c2 AB160000 		.4byte	0x16ab
 7253 16c6 1F       		.uleb128 0x1f
 7254 16c7 D1160000 		.4byte	0x16d1
 7255 16cb 14       		.uleb128 0x14
 7256 16cc 3F160000 		.4byte	0x163f
 7257 16d0 00       		.byte	0
 7258 16d1 11       		.uleb128 0x11
 7259 16d2 04       		.byte	0x4
 7260 16d3 C6160000 		.4byte	0x16c6
 7261 16d7 11       		.uleb128 0x11
 7262 16d8 04       		.byte	0x4
 7263 16d9 9D110000 		.4byte	0x119d
 7264 16dd 1F       		.uleb128 0x1f
 7265 16de ED160000 		.4byte	0x16ed
 7266 16e2 14       		.uleb128 0x14
 7267 16e3 3F160000 		.4byte	0x163f
 7268 16e7 14       		.uleb128 0x14
 7269 16e8 D7160000 		.4byte	0x16d7
 7270 16ec 00       		.byte	0
 7271 16ed 11       		.uleb128 0x11
 7272 16ee 04       		.byte	0x4
 7273 16ef DD160000 		.4byte	0x16dd
 7274 16f3 23       		.uleb128 0x23
 7275 16f4 3B180000 		.4byte	.LASF487
 7276 16f8 11       		.uleb128 0x11
 7277 16f9 04       		.byte	0x4
ARM GAS  C:\Users\haske\AppData\Local\Temp\ccydbpJh.s 			page 165


 7278 16fa F3160000 		.4byte	0x16f3
 7279 16fe 11       		.uleb128 0x11
 7280 16ff 04       		.byte	0x4
 7281 1700 0A090000 		.4byte	0x90a
 7282 1704 16       		.uleb128 0x16
 7283 1705 75020000 		.4byte	0x275
 7284 1709 14170000 		.4byte	0x1714
 7285 170d 17       		.uleb128 0x17
 7286 170e 2D010000 		.4byte	0x12d
 7287 1712 1F       		.byte	0x1f
 7288 1713 00       		.byte	0
 7289 1714 16       		.uleb128 0x16
 7290 1715 C3000000 		.4byte	0xc3
 7291 1719 24170000 		.4byte	0x1724
 7292 171d 17       		.uleb128 0x17
 7293 171e 2D010000 		.4byte	0x12d
 7294 1722 1F       		.byte	0x1f
 7295 1723 00       		.byte	0
 7296 1724 02       		.uleb128 0x2
 7297 1725 73000000 		.4byte	.LASF390
 7298 1729 18       		.byte	0x18
 7299 172a C2       		.byte	0xc2
 7300 172b 2D120000 		.4byte	0x122d
 7301 172f 08       		.uleb128 0x8
 7302 1730 58       		.byte	0x58
 7303 1731 1B       		.byte	0x1b
 7304 1732 20       		.byte	0x20
 7305 1733 50170000 		.4byte	0x1750
 7306 1737 0F       		.uleb128 0xf
 7307 1738 5C050000 		.4byte	.LASF391
 7308 173c 1B       		.byte	0x1b
 7309 173d 21       		.byte	0x21
 7310 173e 9D110000 		.4byte	0x119d
 7311 1742 00       		.byte	0
 7312 1743 0F       		.uleb128 0xf
 7313 1744 B11D0000 		.4byte	.LASF392
 7314 1748 1B       		.byte	0x1b
 7315 1749 24       		.byte	0x24
 7316 174a 6B170000 		.4byte	0x176b
 7317 174e 54       		.byte	0x54
 7318 174f 00       		.byte	0
 7319 1750 1F       		.uleb128 0x1f
 7320 1751 60170000 		.4byte	0x1760
 7321 1755 14       		.uleb128 0x14
 7322 1756 D7160000 		.4byte	0x16d7
 7323 175a 14       		.uleb128 0x14
 7324 175b 60170000 		.4byte	0x1760
 7325 175f 00       		.byte	0
 7326 1760 11       		.uleb128 0x11
 7327 1761 04       		.byte	0x4
 7328 1762 66170000 		.4byte	0x1766
 7329 1766 12       		.uleb128 0x12
 7330 1767 EE080000 		.4byte	0x8ee
 7331 176b 11       		.uleb128 0x11
 7332 176c 04       		.byte	0x4
 7333 176d 50170000 		.4byte	0x1750
 7334 1771 02       		.uleb128 0x2
ARM GAS  C:\Users\haske\AppData\Local\Temp\ccydbpJh.s 			page 166


 7335 1772 D70A0000 		.4byte	.LASF393
 7336 1776 1B       		.byte	0x1b
 7337 1777 25       		.byte	0x25
 7338 1778 2F170000 		.4byte	0x172f
 7339 177c 02       		.uleb128 0x2
 7340 177d 0A050000 		.4byte	.LASF394
 7341 1781 0F       		.byte	0xf
 7342 1782 3C       		.byte	0x3c
 7343 1783 D9000000 		.4byte	0xd9
 7344 1787 02       		.uleb128 0x2
 7345 1788 7D1C0000 		.4byte	.LASF395
 7346 178c 0F       		.byte	0xf
 7347 178d 7D       		.byte	0x7d
 7348 178e EF000000 		.4byte	0xef
 7349 1792 02       		.uleb128 0x2
 7350 1793 F7000000 		.4byte	.LASF396
 7351 1797 1C       		.byte	0x1c
 7352 1798 26       		.byte	0x26
 7353 1799 C3000000 		.4byte	0xc3
 7354 179d 02       		.uleb128 0x2
 7355 179e DE130000 		.4byte	.LASF397
 7356 17a2 1C       		.byte	0x1c
 7357 17a3 30       		.byte	0x30
 7358 17a4 C3000000 		.4byte	0xc3
 7359 17a8 08       		.uleb128 0x8
 7360 17a9 08       		.byte	0x8
 7361 17aa 1D       		.byte	0x1d
 7362 17ab 27       		.byte	0x27
 7363 17ac EA170000 		.4byte	0x17ea
 7364 17b0 0F       		.uleb128 0xf
 7365 17b1 C7130000 		.4byte	.LASF398
 7366 17b5 1D       		.byte	0x1d
 7367 17b6 28       		.byte	0x28
 7368 17b7 EA170000 		.4byte	0x17ea
 7369 17bb 00       		.byte	0
 7370 17bc 09       		.uleb128 0x9
 7371 17bd 46060000 		.4byte	.LASF399
 7372 17c1 1D       		.byte	0x1d
 7373 17c2 29       		.byte	0x29
 7374 17c3 EF000000 		.4byte	0xef
 7375 17c7 04       		.byte	0x4
 7376 17c8 18       		.byte	0x18
 7377 17c9 08       		.byte	0x8
 7378 17ca 04       		.byte	0x4
 7379 17cb 09       		.uleb128 0x9
 7380 17cc 18020000 		.4byte	.LASF400
 7381 17d0 1D       		.byte	0x1d
 7382 17d1 2A       		.byte	0x2a
 7383 17d2 EF000000 		.4byte	0xef
 7384 17d6 04       		.byte	0x4
 7385 17d7 01       		.byte	0x1
 7386 17d8 07       		.byte	0x7
 7387 17d9 04       		.byte	0x4
 7388 17da 09       		.uleb128 0x9
 7389 17db B60C0000 		.4byte	.LASF401
 7390 17df 1D       		.byte	0x1d
 7391 17e0 2B       		.byte	0x2b
ARM GAS  C:\Users\haske\AppData\Local\Temp\ccydbpJh.s 			page 167


 7392 17e1 EF000000 		.4byte	0xef
 7393 17e5 04       		.byte	0x4
 7394 17e6 01       		.byte	0x1
 7395 17e7 06       		.byte	0x6
 7396 17e8 04       		.byte	0x4
 7397 17e9 00       		.byte	0
 7398 17ea 11       		.uleb128 0x11
 7399 17eb 04       		.byte	0x4
 7400 17ec 1C080000 		.4byte	0x81c
 7401 17f0 02       		.uleb128 0x2
 7402 17f1 C70A0000 		.4byte	.LASF402
 7403 17f5 1D       		.byte	0x1d
 7404 17f6 2C       		.byte	0x2c
 7405 17f7 A8170000 		.4byte	0x17a8
 7406 17fb 10       		.uleb128 0x10
 7407 17fc 8C150000 		.4byte	.LASF403
 7408 1800 1C       		.byte	0x1c
 7409 1801 1E       		.byte	0x1e
 7410 1802 31       		.byte	0x31
 7411 1803 89180000 		.4byte	0x1889
 7412 1807 0F       		.uleb128 0xf
 7413 1808 34130000 		.4byte	.LASF404
 7414 180c 1E       		.byte	0x1e
 7415 180d 32       		.byte	0x32
 7416 180e 89180000 		.4byte	0x1889
 7417 1812 00       		.byte	0
 7418 1813 0F       		.uleb128 0xf
 7419 1814 7E020000 		.4byte	.LASF405
 7420 1818 1E       		.byte	0x1e
 7421 1819 33       		.byte	0x33
 7422 181a 2C190000 		.4byte	0x192c
 7423 181e 04       		.byte	0x4
 7424 181f 0F       		.uleb128 0xf
 7425 1820 DD170000 		.4byte	.LASF406
 7426 1824 1E       		.byte	0x1e
 7427 1825 34       		.byte	0x34
 7428 1826 2C190000 		.4byte	0x192c
 7429 182a 08       		.byte	0x8
 7430 182b 0F       		.uleb128 0xf
 7431 182c 4A1D0000 		.4byte	.LASF67
 7432 1830 1E       		.byte	0x1e
 7433 1831 36       		.byte	0x36
 7434 1832 34010000 		.4byte	0x134
 7435 1836 0C       		.byte	0xc
 7436 1837 0F       		.uleb128 0xf
 7437 1838 D40F0000 		.4byte	.LASF407
 7438 183c 1E       		.byte	0x1e
 7439 183d 38       		.byte	0x38
 7440 183e 42190000 		.4byte	0x1942
 7441 1842 10       		.byte	0x10
 7442 1843 0F       		.uleb128 0xf
 7443 1844 F40C0000 		.4byte	.LASF408
 7444 1848 1E       		.byte	0x1e
 7445 1849 3A       		.byte	0x3a
 7446 184a 0D020000 		.4byte	0x20d
 7447 184e 14       		.byte	0x14
 7448 184f 0F       		.uleb128 0xf
ARM GAS  C:\Users\haske\AppData\Local\Temp\ccydbpJh.s 			page 168


 7449 1850 FE1D0000 		.4byte	.LASF409
 7450 1854 1E       		.byte	0x1e
 7451 1855 3B       		.byte	0x3b
 7452 1856 0D020000 		.4byte	0x20d
 7453 185a 16       		.byte	0x16
 7454 185b 09       		.uleb128 0x9
 7455 185c 1A0E0000 		.4byte	.LASF410
 7456 1860 1E       		.byte	0x1e
 7457 1861 3C       		.byte	0x3c
 7458 1862 EF000000 		.4byte	0xef
 7459 1866 04       		.byte	0x4
 7460 1867 02       		.byte	0x2
 7461 1868 1E       		.byte	0x1e
 7462 1869 18       		.byte	0x18
 7463 186a 09       		.uleb128 0x9
 7464 186b AE040000 		.4byte	.LASF411
 7465 186f 1E       		.byte	0x1e
 7466 1870 3D       		.byte	0x3d
 7467 1871 EF000000 		.4byte	0xef
 7468 1875 04       		.byte	0x4
 7469 1876 02       		.byte	0x2
 7470 1877 1C       		.byte	0x1c
 7471 1878 18       		.byte	0x18
 7472 1879 09       		.uleb128 0x9
 7473 187a E00E0000 		.4byte	.LASF412
 7474 187e 1E       		.byte	0x1e
 7475 187f 3E       		.byte	0x3e
 7476 1880 EF000000 		.4byte	0xef
 7477 1884 04       		.byte	0x4
 7478 1885 10       		.byte	0x10
 7479 1886 0C       		.byte	0xc
 7480 1887 18       		.byte	0x18
 7481 1888 00       		.byte	0
 7482 1889 11       		.uleb128 0x11
 7483 188a 04       		.byte	0x4
 7484 188b 8F180000 		.4byte	0x188f
 7485 188f 12       		.uleb128 0x12
 7486 1890 FB170000 		.4byte	0x17fb
 7487 1894 11       		.uleb128 0x11
 7488 1895 04       		.byte	0x4
 7489 1896 9A180000 		.4byte	0x189a
 7490 189a 10       		.uleb128 0x10
 7491 189b FD0F0000 		.4byte	.LASF413
 7492 189f 1C       		.byte	0x1c
 7493 18a0 1F       		.byte	0x1f
 7494 18a1 5E       		.byte	0x5e
 7495 18a2 1C190000 		.4byte	0x191c
 7496 18a6 0F       		.uleb128 0xf
 7497 18a7 DD0D0000 		.4byte	.LASF414
 7498 18ab 1F       		.byte	0x1f
 7499 18ac 5F       		.byte	0x5f
 7500 18ad 0A090000 		.4byte	0x90a
 7501 18b1 00       		.byte	0
 7502 18b2 0F       		.uleb128 0xf
 7503 18b3 140F0000 		.4byte	.LASF415
 7504 18b7 1F       		.byte	0x1f
 7505 18b8 60       		.byte	0x60
ARM GAS  C:\Users\haske\AppData\Local\Temp\ccydbpJh.s 			page 169


 7506 18b9 0A090000 		.4byte	0x90a
 7507 18bd 04       		.byte	0x4
 7508 18be 0F       		.uleb128 0xf
 7509 18bf 08140000 		.4byte	.LASF416
 7510 18c3 1F       		.byte	0x1f
 7511 18c4 61       		.byte	0x61
 7512 18c5 7A1A0000 		.4byte	0x1a7a
 7513 18c9 08       		.byte	0x8
 7514 18ca 0F       		.uleb128 0xf
 7515 18cb 4A1D0000 		.4byte	.LASF67
 7516 18cf 1F       		.byte	0x1f
 7517 18d0 62       		.byte	0x62
 7518 18d1 34010000 		.4byte	0x134
 7519 18d5 0C       		.byte	0xc
 7520 18d6 0F       		.uleb128 0xf
 7521 18d7 D70D0000 		.4byte	.LASF417
 7522 18db 1F       		.byte	0x1f
 7523 18dc 63       		.byte	0x63
 7524 18dd 34010000 		.4byte	0x134
 7525 18e1 10       		.byte	0x10
 7526 18e2 0F       		.uleb128 0xf
 7527 18e3 6E1E0000 		.4byte	.LASF418
 7528 18e7 1F       		.byte	0x1f
 7529 18e8 64       		.byte	0x64
 7530 18e9 94180000 		.4byte	0x1894
 7531 18ed 14       		.byte	0x14
 7532 18ee 09       		.uleb128 0x9
 7533 18ef 24100000 		.4byte	.LASF419
 7534 18f3 1F       		.byte	0x1f
 7535 18f4 65       		.byte	0x65
 7536 18f5 C3000000 		.4byte	0xc3
 7537 18f9 01       		.byte	0x1
 7538 18fa 01       		.byte	0x1
 7539 18fb 07       		.byte	0x7
 7540 18fc 18       		.byte	0x18
 7541 18fd 09       		.uleb128 0x9
 7542 18fe 01090000 		.4byte	.LASF420
 7543 1902 1F       		.byte	0x1f
 7544 1903 66       		.byte	0x66
 7545 1904 C3000000 		.4byte	0xc3
 7546 1908 01       		.byte	0x1
 7547 1909 01       		.byte	0x1
 7548 190a 06       		.byte	0x6
 7549 190b 18       		.byte	0x18
 7550 190c 09       		.uleb128 0x9
 7551 190d C7120000 		.4byte	.LASF421
 7552 1911 1F       		.byte	0x1f
 7553 1912 67       		.byte	0x67
 7554 1913 C3000000 		.4byte	0xc3
 7555 1917 01       		.byte	0x1
 7556 1918 01       		.byte	0x1
 7557 1919 05       		.byte	0x5
 7558 191a 18       		.byte	0x18
 7559 191b 00       		.byte	0
 7560 191c 1F       		.uleb128 0x1f
 7561 191d 2C190000 		.4byte	0x192c
 7562 1921 14       		.uleb128 0x14
ARM GAS  C:\Users\haske\AppData\Local\Temp\ccydbpJh.s 			page 170


 7563 1922 89180000 		.4byte	0x1889
 7564 1926 14       		.uleb128 0x14
 7565 1927 0A090000 		.4byte	0x90a
 7566 192b 00       		.byte	0
 7567 192c 11       		.uleb128 0x11
 7568 192d 04       		.byte	0x4
 7569 192e 1C190000 		.4byte	0x191c
 7570 1932 1F       		.uleb128 0x1f
 7571 1933 42190000 		.4byte	0x1942
 7572 1937 14       		.uleb128 0x14
 7573 1938 89180000 		.4byte	0x1889
 7574 193c 14       		.uleb128 0x14
 7575 193d 94180000 		.4byte	0x1894
 7576 1941 00       		.byte	0
 7577 1942 11       		.uleb128 0x11
 7578 1943 04       		.byte	0x4
 7579 1944 32190000 		.4byte	0x1932
 7580 1948 02       		.uleb128 0x2
 7581 1949 540C0000 		.4byte	.LASF422
 7582 194d 1E       		.byte	0x1e
 7583 194e 3F       		.byte	0x3f
 7584 194f FB170000 		.4byte	0x17fb
 7585 1953 06       		.uleb128 0x6
 7586 1954 01       		.byte	0x1
 7587 1955 42000000 		.4byte	0x42
 7588 1959 1F       		.byte	0x1f
 7589 195a 20       		.byte	0x20
 7590 195b 7A1A0000 		.4byte	0x1a7a
 7591 195f 07       		.uleb128 0x7
 7592 1960 5E040000 		.4byte	.LASF423
 7593 1964 00       		.byte	0
 7594 1965 07       		.uleb128 0x7
 7595 1966 6D140000 		.4byte	.LASF424
 7596 196a 01       		.byte	0x1
 7597 196b 07       		.uleb128 0x7
 7598 196c F9120000 		.4byte	.LASF425
 7599 1970 02       		.byte	0x2
 7600 1971 07       		.uleb128 0x7
 7601 1972 541D0000 		.4byte	.LASF426
 7602 1976 03       		.byte	0x3
 7603 1977 07       		.uleb128 0x7
 7604 1978 5E030000 		.4byte	.LASF427
 7605 197c 04       		.byte	0x4
 7606 197d 07       		.uleb128 0x7
 7607 197e D2020000 		.4byte	.LASF428
 7608 1982 05       		.byte	0x5
 7609 1983 07       		.uleb128 0x7
 7610 1984 4A130000 		.4byte	.LASF429
 7611 1988 06       		.byte	0x6
 7612 1989 07       		.uleb128 0x7
 7613 198a 180C0000 		.4byte	.LASF430
 7614 198e 07       		.byte	0x7
 7615 198f 07       		.uleb128 0x7
 7616 1990 A51E0000 		.4byte	.LASF431
 7617 1994 08       		.byte	0x8
 7618 1995 07       		.uleb128 0x7
 7619 1996 F3100000 		.4byte	.LASF432
ARM GAS  C:\Users\haske\AppData\Local\Temp\ccydbpJh.s 			page 171


 7620 199a 09       		.byte	0x9
 7621 199b 07       		.uleb128 0x7
 7622 199c 381B0000 		.4byte	.LASF433
 7623 19a0 0A       		.byte	0xa
 7624 19a1 07       		.uleb128 0x7
 7625 19a2 7E140000 		.4byte	.LASF434
 7626 19a6 0B       		.byte	0xb
 7627 19a7 07       		.uleb128 0x7
 7628 19a8 C1020000 		.4byte	.LASF435
 7629 19ac 0C       		.byte	0xc
 7630 19ad 07       		.uleb128 0x7
 7631 19ae FA1C0000 		.4byte	.LASF436
 7632 19b2 0D       		.byte	0xd
 7633 19b3 07       		.uleb128 0x7
 7634 19b4 B71D0000 		.4byte	.LASF437
 7635 19b8 0E       		.byte	0xe
 7636 19b9 07       		.uleb128 0x7
 7637 19ba 761B0000 		.4byte	.LASF438
 7638 19be 0F       		.byte	0xf
 7639 19bf 07       		.uleb128 0x7
 7640 19c0 7E0D0000 		.4byte	.LASF439
 7641 19c4 10       		.byte	0x10
 7642 19c5 07       		.uleb128 0x7
 7643 19c6 130A0000 		.4byte	.LASF440
 7644 19ca 11       		.byte	0x11
 7645 19cb 07       		.uleb128 0x7
 7646 19cc AC090000 		.4byte	.LASF441
 7647 19d0 12       		.byte	0x12
 7648 19d1 07       		.uleb128 0x7
 7649 19d2 3A0F0000 		.4byte	.LASF442
 7650 19d6 13       		.byte	0x13
 7651 19d7 07       		.uleb128 0x7
 7652 19d8 7D000000 		.4byte	.LASF443
 7653 19dc 14       		.byte	0x14
 7654 19dd 07       		.uleb128 0x7
 7655 19de 09070000 		.4byte	.LASF444
 7656 19e2 15       		.byte	0x15
 7657 19e3 07       		.uleb128 0x7
 7658 19e4 790C0000 		.4byte	.LASF445
 7659 19e8 16       		.byte	0x16
 7660 19e9 07       		.uleb128 0x7
 7661 19ea 86110000 		.4byte	.LASF446
 7662 19ee 17       		.byte	0x17
 7663 19ef 07       		.uleb128 0x7
 7664 19f0 611C0000 		.4byte	.LASF447
 7665 19f4 18       		.byte	0x18
 7666 19f5 07       		.uleb128 0x7
 7667 19f6 70190000 		.4byte	.LASF448
 7668 19fa 19       		.byte	0x19
 7669 19fb 07       		.uleb128 0x7
 7670 19fc 87190000 		.4byte	.LASF449
 7671 1a00 1A       		.byte	0x1a
 7672 1a01 07       		.uleb128 0x7
 7673 1a02 9E050000 		.4byte	.LASF450
 7674 1a06 1B       		.byte	0x1b
 7675 1a07 07       		.uleb128 0x7
 7676 1a08 0A120000 		.4byte	.LASF451
ARM GAS  C:\Users\haske\AppData\Local\Temp\ccydbpJh.s 			page 172


 7677 1a0c 1C       		.byte	0x1c
 7678 1a0d 07       		.uleb128 0x7
 7679 1a0e 15010000 		.4byte	.LASF452
 7680 1a12 1D       		.byte	0x1d
 7681 1a13 07       		.uleb128 0x7
 7682 1a14 CF0E0000 		.4byte	.LASF453
 7683 1a18 1E       		.byte	0x1e
 7684 1a19 07       		.uleb128 0x7
 7685 1a1a 481C0000 		.4byte	.LASF454
 7686 1a1e 1F       		.byte	0x1f
 7687 1a1f 07       		.uleb128 0x7
 7688 1a20 8E140000 		.4byte	.LASF455
 7689 1a24 20       		.byte	0x20
 7690 1a25 07       		.uleb128 0x7
 7691 1a26 6E110000 		.4byte	.LASF456
 7692 1a2a 21       		.byte	0x21
 7693 1a2b 07       		.uleb128 0x7
 7694 1a2c C6010000 		.4byte	.LASF457
 7695 1a30 22       		.byte	0x22
 7696 1a31 07       		.uleb128 0x7
 7697 1a32 23030000 		.4byte	.LASF458
 7698 1a36 23       		.byte	0x23
 7699 1a37 07       		.uleb128 0x7
 7700 1a38 230F0000 		.4byte	.LASF459
 7701 1a3c 24       		.byte	0x24
 7702 1a3d 07       		.uleb128 0x7
 7703 1a3e 091E0000 		.4byte	.LASF460
 7704 1a42 25       		.byte	0x25
 7705 1a43 07       		.uleb128 0x7
 7706 1a44 AC120000 		.4byte	.LASF461
 7707 1a48 26       		.byte	0x26
 7708 1a49 07       		.uleb128 0x7
 7709 1a4a 9F0A0000 		.4byte	.LASF462
 7710 1a4e 27       		.byte	0x27
 7711 1a4f 07       		.uleb128 0x7
 7712 1a50 57170000 		.4byte	.LASF463
 7713 1a54 28       		.byte	0x28
 7714 1a55 07       		.uleb128 0x7
 7715 1a56 8B1C0000 		.4byte	.LASF464
 7716 1a5a 29       		.byte	0x29
 7717 1a5b 07       		.uleb128 0x7
 7718 1a5c 311C0000 		.4byte	.LASF465
 7719 1a60 2A       		.byte	0x2a
 7720 1a61 07       		.uleb128 0x7
 7721 1a62 BE1C0000 		.4byte	.LASF466
 7722 1a66 2B       		.byte	0x2b
 7723 1a67 07       		.uleb128 0x7
 7724 1a68 F2060000 		.4byte	.LASF467
 7725 1a6c 2C       		.byte	0x2c
 7726 1a6d 07       		.uleb128 0x7
 7727 1a6e DB140000 		.4byte	.LASF468
 7728 1a72 2D       		.byte	0x2d
 7729 1a73 07       		.uleb128 0x7
 7730 1a74 5F120000 		.4byte	.LASF469
 7731 1a78 80       		.byte	0x80
 7732 1a79 00       		.byte	0
 7733 1a7a 02       		.uleb128 0x2
ARM GAS  C:\Users\haske\AppData\Local\Temp\ccydbpJh.s 			page 173


 7734 1a7b DD0F0000 		.4byte	.LASF470
 7735 1a7f 1F       		.byte	0x1f
 7736 1a80 5C       		.byte	0x5c
 7737 1a81 53190000 		.4byte	0x1953
 7738 1a85 02       		.uleb128 0x2
 7739 1a86 78150000 		.4byte	.LASF471
 7740 1a8a 19       		.byte	0x19
 7741 1a8b 34       		.byte	0x34
 7742 1a8c 901A0000 		.4byte	0x1a90
 7743 1a90 11       		.uleb128 0x11
 7744 1a91 04       		.byte	0x4
 7745 1a92 961A0000 		.4byte	0x1a96
 7746 1a96 1F       		.uleb128 0x1f
 7747 1a97 A11A0000 		.4byte	0x1aa1
 7748 1a9b 14       		.uleb128 0x14
 7749 1a9c CF130000 		.4byte	0x13cf
 7750 1aa0 00       		.byte	0
 7751 1aa1 02       		.uleb128 0x2
 7752 1aa2 050C0000 		.4byte	.LASF472
 7753 1aa6 19       		.byte	0x19
 7754 1aa7 35       		.byte	0x35
 7755 1aa8 AC1A0000 		.4byte	0x1aac
 7756 1aac 11       		.uleb128 0x11
 7757 1aad 04       		.byte	0x4
 7758 1aae B21A0000 		.4byte	0x1ab2
 7759 1ab2 1F       		.uleb128 0x1f
 7760 1ab3 C21A0000 		.4byte	0x1ac2
 7761 1ab7 14       		.uleb128 0x14
 7762 1ab8 CF130000 		.4byte	0x13cf
 7763 1abc 14       		.uleb128 0x14
 7764 1abd B6030000 		.4byte	0x3b6
 7765 1ac1 00       		.byte	0
 7766 1ac2 02       		.uleb128 0x2
 7767 1ac3 65070000 		.4byte	.LASF473
 7768 1ac7 19       		.byte	0x19
 7769 1ac8 4E       		.byte	0x4e
 7770 1ac9 4A130000 		.4byte	0x134a
 7771 1acd 08       		.uleb128 0x8
 7772 1ace 1C       		.byte	0x1c
 7773 1acf 0F       		.byte	0xf
 7774 1ad0 9B       		.byte	0x9b
 7775 1ad1 841B0000 		.4byte	0x1b84
 7776 1ad5 0F       		.uleb128 0xf
 7777 1ad6 55030000 		.4byte	.LASF474
 7778 1ada 0F       		.byte	0xf
 7779 1adb 9C       		.byte	0x9c
 7780 1adc FE160000 		.4byte	0x16fe
 7781 1ae0 00       		.byte	0
 7782 1ae1 0F       		.uleb128 0xf
 7783 1ae2 4B0D0000 		.4byte	.LASF475
 7784 1ae6 0F       		.byte	0xf
 7785 1ae7 9D       		.byte	0x9d
 7786 1ae8 EF000000 		.4byte	0xef
 7787 1aec 04       		.byte	0x4
 7788 1aed 0F       		.uleb128 0xf
 7789 1aee 510B0000 		.4byte	.LASF476
 7790 1af2 0F       		.byte	0xf
ARM GAS  C:\Users\haske\AppData\Local\Temp\ccydbpJh.s 			page 174


 7791 1af3 9E       		.byte	0x9e
 7792 1af4 841B0000 		.4byte	0x1b84
 7793 1af8 08       		.byte	0x8
 7794 1af9 0F       		.uleb128 0xf
 7795 1afa F40A0000 		.4byte	.LASF477
 7796 1afe 0F       		.byte	0xf
 7797 1aff A0       		.byte	0xa0
 7798 1b00 8F1B0000 		.4byte	0x1b8f
 7799 1b04 0C       		.byte	0xc
 7800 1b05 0F       		.uleb128 0xf
 7801 1b06 750B0000 		.4byte	.LASF478
 7802 1b0a 0F       		.byte	0xf
 7803 1b0b A1       		.byte	0xa1
 7804 1b0c 35020000 		.4byte	0x235
 7805 1b10 10       		.byte	0x10
 7806 1b11 0F       		.uleb128 0xf
 7807 1b12 F0190000 		.4byte	.LASF479
 7808 1b16 0F       		.byte	0xf
 7809 1b17 A3       		.byte	0xa3
 7810 1b18 0D020000 		.4byte	0x20d
 7811 1b1c 14       		.byte	0x14
 7812 1b1d 0F       		.uleb128 0xf
 7813 1b1e F70B0000 		.4byte	.LASF480
 7814 1b22 0F       		.byte	0xf
 7815 1b23 A4       		.byte	0xa4
 7816 1b24 0D020000 		.4byte	0x20d
 7817 1b28 16       		.byte	0x16
 7818 1b29 09       		.uleb128 0x9
 7819 1b2a 02080000 		.4byte	.LASF481
 7820 1b2e 0F       		.byte	0xf
 7821 1b2f A6       		.byte	0xa6
 7822 1b30 92170000 		.4byte	0x1792
 7823 1b34 01       		.byte	0x1
 7824 1b35 02       		.byte	0x2
 7825 1b36 06       		.byte	0x6
 7826 1b37 18       		.byte	0x18
 7827 1b38 09       		.uleb128 0x9
 7828 1b39 9E010000 		.4byte	.LASF482
 7829 1b3d 0F       		.byte	0xf
 7830 1b3e A7       		.byte	0xa7
 7831 1b3f 9D170000 		.4byte	0x179d
 7832 1b43 01       		.byte	0x1
 7833 1b44 02       		.byte	0x2
 7834 1b45 04       		.byte	0x4
 7835 1b46 18       		.byte	0x18
 7836 1b47 09       		.uleb128 0x9
 7837 1b48 9F0D0000 		.4byte	.LASF483
 7838 1b4c 0F       		.byte	0xf
 7839 1b4d A8       		.byte	0xa8
 7840 1b4e 9D170000 		.4byte	0x179d
 7841 1b52 01       		.byte	0x1
 7842 1b53 02       		.byte	0x2
 7843 1b54 02       		.byte	0x2
 7844 1b55 18       		.byte	0x18
 7845 1b56 09       		.uleb128 0x9
 7846 1b57 A3040000 		.4byte	.LASF484
 7847 1b5b 0F       		.byte	0xf
ARM GAS  C:\Users\haske\AppData\Local\Temp\ccydbpJh.s 			page 175


 7848 1b5c A9       		.byte	0xa9
 7849 1b5d 80020000 		.4byte	0x280
 7850 1b61 01       		.byte	0x1
 7851 1b62 04       		.byte	0x4
 7852 1b63 04       		.byte	0x4
 7853 1b64 19       		.byte	0x19
 7854 1b65 09       		.uleb128 0x9
 7855 1b66 191F0000 		.4byte	.LASF485
 7856 1b6a 0F       		.byte	0xf
 7857 1b6b AA       		.byte	0xaa
 7858 1b6c C3000000 		.4byte	0xc3
 7859 1b70 01       		.byte	0x1
 7860 1b71 06       		.byte	0x6
 7861 1b72 02       		.byte	0x2
 7862 1b73 1A       		.byte	0x1a
 7863 1b74 09       		.uleb128 0x9
 7864 1b75 AC0B0000 		.4byte	.LASF486
 7865 1b79 0F       		.byte	0xf
 7866 1b7a AB       		.byte	0xab
 7867 1b7b C3000000 		.4byte	0xc3
 7868 1b7f 01       		.byte	0x1
 7869 1b80 02       		.byte	0x2
 7870 1b81 00       		.byte	0
 7871 1b82 1A       		.byte	0x1a
 7872 1b83 00       		.byte	0
 7873 1b84 11       		.uleb128 0x11
 7874 1b85 04       		.byte	0x4
 7875 1b86 C21A0000 		.4byte	0x1ac2
 7876 1b8a 23       		.uleb128 0x23
 7877 1b8b 721D0000 		.4byte	.LASF488
 7878 1b8f 11       		.uleb128 0x11
 7879 1b90 04       		.byte	0x4
 7880 1b91 8A1B0000 		.4byte	0x1b8a
 7881 1b95 02       		.uleb128 0x2
 7882 1b96 70070000 		.4byte	.LASF489
 7883 1b9a 0F       		.byte	0xf
 7884 1b9b AC       		.byte	0xac
 7885 1b9c CD1A0000 		.4byte	0x1acd
 7886 1ba0 11       		.uleb128 0x11
 7887 1ba1 04       		.byte	0x4
 7888 1ba2 A61B0000 		.4byte	0x1ba6
 7889 1ba6 12       		.uleb128 0x12
 7890 1ba7 48190000 		.4byte	0x1948
 7891 1bab 11       		.uleb128 0x11
 7892 1bac 04       		.byte	0x4
 7893 1bad 951B0000 		.4byte	0x1b95
 7894 1bb1 11       		.uleb128 0x11
 7895 1bb2 04       		.byte	0x4
 7896 1bb3 F0170000 		.4byte	0x17f0
 7897 1bb7 24       		.uleb128 0x24
 7898 1bb8 0E170000 		.4byte	.LASF490
 7899 1bbc 03       		.byte	0x3
 7900 1bbd 4C02     		.2byte	0x24c
 7901 1bbf F7010000 		.4byte	0x1f7
 7902 1bc3 03       		.byte	0x3
 7903 1bc4 E71B0000 		.4byte	0x1be7
 7904 1bc8 25       		.uleb128 0x25
ARM GAS  C:\Users\haske\AppData\Local\Temp\ccydbpJh.s 			page 176


 7905 1bc9 7200     		.ascii	"r\000"
 7906 1bcb 03       		.byte	0x3
 7907 1bcc 4C02     		.2byte	0x24c
 7908 1bce C3000000 		.4byte	0xc3
 7909 1bd2 25       		.uleb128 0x25
 7910 1bd3 6700     		.ascii	"g\000"
 7911 1bd5 03       		.byte	0x3
 7912 1bd6 4C02     		.2byte	0x24c
 7913 1bd8 C3000000 		.4byte	0xc3
 7914 1bdc 25       		.uleb128 0x25
 7915 1bdd 6200     		.ascii	"b\000"
 7916 1bdf 03       		.byte	0x3
 7917 1be0 4C02     		.2byte	0x24c
 7918 1be2 C3000000 		.4byte	0xc3
 7919 1be6 00       		.byte	0
 7920 1be7 26       		.uleb128 0x26
 7921 1be8 0F160000 		.4byte	.LASF491
 7922 1bec 02       		.byte	0x2
 7923 1bed 85       		.byte	0x85
 7924 1bee 0D020000 		.4byte	0x20d
 7925 1bf2 03       		.byte	0x3
 7926 1bf3 031C0000 		.4byte	0x1c03
 7927 1bf7 27       		.uleb128 0x27
 7928 1bf8 7E050000 		.4byte	.LASF492
 7929 1bfc 02       		.byte	0x2
 7930 1bfd 85       		.byte	0x85
 7931 1bfe D8080000 		.4byte	0x8d8
 7932 1c02 00       		.byte	0
 7933 1c03 26       		.uleb128 0x26
 7934 1c04 CA1A0000 		.4byte	.LASF493
 7935 1c08 02       		.byte	0x2
 7936 1c09 7B       		.byte	0x7b
 7937 1c0a 0D020000 		.4byte	0x20d
 7938 1c0e 03       		.byte	0x3
 7939 1c0f 1F1C0000 		.4byte	0x1c1f
 7940 1c13 27       		.uleb128 0x27
 7941 1c14 7E050000 		.4byte	.LASF492
 7942 1c18 02       		.byte	0x2
 7943 1c19 7B       		.byte	0x7b
 7944 1c1a D8080000 		.4byte	0x8d8
 7945 1c1e 00       		.byte	0
 7946 1c1f 24       		.uleb128 0x24
 7947 1c20 A90F0000 		.4byte	.LASF494
 7948 1c24 03       		.byte	0x3
 7949 1c25 B701     		.2byte	0x1b7
 7950 1c27 F7010000 		.4byte	0x1f7
 7951 1c2b 03       		.byte	0x3
 7952 1c2c 811C0000 		.4byte	0x1c81
 7953 1c30 25       		.uleb128 0x25
 7954 1c31 633100   		.ascii	"c1\000"
 7955 1c34 03       		.byte	0x3
 7956 1c35 B701     		.2byte	0x1b7
 7957 1c37 F7010000 		.4byte	0x1f7
 7958 1c3b 25       		.uleb128 0x25
 7959 1c3c 633200   		.ascii	"c2\000"
 7960 1c3f 03       		.byte	0x3
 7961 1c40 B701     		.2byte	0x1b7
ARM GAS  C:\Users\haske\AppData\Local\Temp\ccydbpJh.s 			page 177


 7962 1c42 F7010000 		.4byte	0x1f7
 7963 1c46 25       		.uleb128 0x25
 7964 1c47 6D697800 		.ascii	"mix\000"
 7965 1c4b 03       		.byte	0x3
 7966 1c4c B701     		.2byte	0x1b7
 7967 1c4e C3000000 		.4byte	0xc3
 7968 1c52 28       		.uleb128 0x28
 7969 1c53 72657400 		.ascii	"ret\000"
 7970 1c57 03       		.byte	0x3
 7971 1c58 B901     		.2byte	0x1b9
 7972 1c5a F7010000 		.4byte	0x1f7
 7973 1c5e 28       		.uleb128 0x28
 7974 1c5f 626700   		.ascii	"bg\000"
 7975 1c62 03       		.byte	0x3
 7976 1c63 BE01     		.2byte	0x1be
 7977 1c65 EF000000 		.4byte	0xef
 7978 1c69 28       		.uleb128 0x28
 7979 1c6a 666700   		.ascii	"fg\000"
 7980 1c6d 03       		.byte	0x3
 7981 1c6e C001     		.2byte	0x1c0
 7982 1c70 EF000000 		.4byte	0xef
 7983 1c74 29       		.uleb128 0x29
 7984 1c75 560F0000 		.4byte	.LASF495
 7985 1c79 03       		.byte	0x3
 7986 1c7a C101     		.2byte	0x1c1
 7987 1c7c EF000000 		.4byte	0xef
 7988 1c80 00       		.byte	0
 7989 1c81 2A       		.uleb128 0x2a
 7990 1c82 A61B0000 		.4byte	.LASF540
 7991 1c86 03       		.byte	0x3
 7992 1c87 D401     		.2byte	0x1d4
 7993 1c89 03       		.byte	0x3
 7994 1c8a B11C0000 		.4byte	0x1cb1
 7995 1c8e 25       		.uleb128 0x25
 7996 1c8f 6300     		.ascii	"c\000"
 7997 1c91 03       		.byte	0x3
 7998 1c92 D401     		.2byte	0x1d4
 7999 1c94 F7010000 		.4byte	0x1f7
 8000 1c98 25       		.uleb128 0x25
 8001 1c99 6D697800 		.ascii	"mix\000"
 8002 1c9d 03       		.byte	0x3
 8003 1c9e D401     		.2byte	0x1d4
 8004 1ca0 C3000000 		.4byte	0xc3
 8005 1ca4 25       		.uleb128 0x25
 8006 1ca5 6F757400 		.ascii	"out\000"
 8007 1ca9 03       		.byte	0x3
 8008 1caa D401     		.2byte	0x1d4
 8009 1cac 5E080000 		.4byte	0x85e
 8010 1cb0 00       		.byte	0
 8011 1cb1 2B       		.uleb128 0x2b
 8012 1cb2 32100000 		.4byte	.LASF541
 8013 1cb6 03       		.byte	0x3
 8014 1cb7 B502     		.2byte	0x2b5
 8015 1cb9 F7010000 		.4byte	0x1f7
 8016 1cbd 03       		.byte	0x3
 8017 1cbe 24       		.uleb128 0x24
 8018 1cbf E8160000 		.4byte	.LASF496
ARM GAS  C:\Users\haske\AppData\Local\Temp\ccydbpJh.s 			page 178


 8019 1cc3 03       		.byte	0x3
 8020 1cc4 ED01     		.2byte	0x1ed
 8021 1cc6 F7010000 		.4byte	0x1f7
 8022 1cca 03       		.byte	0x3
 8023 1ccb FF1C0000 		.4byte	0x1cff
 8024 1ccf 2C       		.uleb128 0x2c
 8025 1cd0 571B0000 		.4byte	.LASF497
 8026 1cd4 03       		.byte	0x3
 8027 1cd5 ED01     		.2byte	0x1ed
 8028 1cd7 5E080000 		.4byte	0x85e
 8029 1cdb 25       		.uleb128 0x25
 8030 1cdc 633200   		.ascii	"c2\000"
 8031 1cdf 03       		.byte	0x3
 8032 1ce0 ED01     		.2byte	0x1ed
 8033 1ce2 F7010000 		.4byte	0x1f7
 8034 1ce6 25       		.uleb128 0x25
 8035 1ce7 6D697800 		.ascii	"mix\000"
 8036 1ceb 03       		.byte	0x3
 8037 1cec ED01     		.2byte	0x1ed
 8038 1cee C3000000 		.4byte	0xc3
 8039 1cf2 28       		.uleb128 0x28
 8040 1cf3 72657400 		.ascii	"ret\000"
 8041 1cf7 03       		.byte	0x3
 8042 1cf8 EF01     		.2byte	0x1ef
 8043 1cfa F7010000 		.4byte	0x1f7
 8044 1cfe 00       		.byte	0
 8045 1cff 2D       		.uleb128 0x2d
 8046 1d00 67130000 		.4byte	.LASF508
 8047 1d04 01       		.byte	0x1
 8048 1d05 1202     		.2byte	0x212
 8049 1d07 00000000 		.4byte	.LFB163
 8050 1d0b 8C010000 		.4byte	.LFE163-.LFB163
 8051 1d0f 01       		.uleb128 0x1
 8052 1d10 9C       		.byte	0x9c
 8053 1d11 EB1E0000 		.4byte	0x1eeb
 8054 1d15 2E       		.uleb128 0x2e
 8055 1d16 F8080000 		.4byte	.LASF498
 8056 1d1a 01       		.byte	0x1
 8057 1d1b 1202     		.2byte	0x212
 8058 1d1d D7090000 		.4byte	0x9d7
 8059 1d21 00000000 		.4byte	.LLST0
 8060 1d25 2E       		.uleb128 0x2e
 8061 1d26 20130000 		.4byte	.LASF499
 8062 1d2a 01       		.byte	0x1
 8063 1d2b 1202     		.2byte	0x212
 8064 1d2d D8080000 		.4byte	0x8d8
 8065 1d31 3F000000 		.4byte	.LLST1
 8066 1d35 2E       		.uleb128 0x2e
 8067 1d36 960B0000 		.4byte	.LASF500
 8068 1d3a 01       		.byte	0x1
 8069 1d3b 1302     		.2byte	0x213
 8070 1d3d 0D020000 		.4byte	0x20d
 8071 1d41 60000000 		.4byte	.LLST2
 8072 1d45 2E       		.uleb128 0x2e
 8073 1d46 A5170000 		.4byte	.LASF84
 8074 1d4a 01       		.byte	0x1
 8075 1d4b 1302     		.2byte	0x213
ARM GAS  C:\Users\haske\AppData\Local\Temp\ccydbpJh.s 			page 179


 8076 1d4d F7010000 		.4byte	0x1f7
 8077 1d51 81000000 		.4byte	.LLST3
 8078 1d55 2F       		.uleb128 0x2f
 8079 1d56 6F706100 		.ascii	"opa\000"
 8080 1d5a 01       		.byte	0x1
 8081 1d5b 1302     		.2byte	0x213
 8082 1d5d 02020000 		.4byte	0x202
 8083 1d61 94000000 		.4byte	.LLST4
 8084 1d65 2E       		.uleb128 0x2e
 8085 1d66 BC100000 		.4byte	.LASF501
 8086 1d6a 01       		.byte	0x1
 8087 1d6b 1302     		.2byte	0x213
 8088 1d6d 64080000 		.4byte	0x864
 8089 1d71 C0000000 		.4byte	.LLST5
 8090 1d75 2E       		.uleb128 0x2e
 8091 1d76 71090000 		.4byte	.LASF502
 8092 1d7a 01       		.byte	0x1
 8093 1d7b 1302     		.2byte	0x213
 8094 1d7d 0D020000 		.4byte	0x20d
 8095 1d81 02010000 		.4byte	.LLST6
 8096 1d85 2E       		.uleb128 0x2e
 8097 1d86 AC030000 		.4byte	.LASF202
 8098 1d8a 01       		.byte	0x1
 8099 1d8b 1402     		.2byte	0x214
 8100 1d8d 4C040000 		.4byte	0x44c
 8101 1d91 46010000 		.4byte	.LLST7
 8102 1d95 30       		.uleb128 0x30
 8103 1d96 7700     		.ascii	"w\000"
 8104 1d98 01       		.byte	0x1
 8105 1d99 1702     		.2byte	0x217
 8106 1d9b E4000000 		.4byte	0xe4
 8107 1d9f 8A010000 		.4byte	.LLST8
 8108 1da3 30       		.uleb128 0x30
 8109 1da4 6800     		.ascii	"h\000"
 8110 1da6 01       		.byte	0x1
 8111 1da7 1802     		.2byte	0x218
 8112 1da9 E4000000 		.4byte	0xe4
 8113 1dad BE010000 		.4byte	.LLST9
 8114 1db1 30       		.uleb128 0x30
 8115 1db2 7800     		.ascii	"x\000"
 8116 1db4 01       		.byte	0x1
 8117 1db5 1A02     		.2byte	0x21a
 8118 1db7 E4000000 		.4byte	0xe4
 8119 1dbb 0B020000 		.4byte	.LLST10
 8120 1dbf 30       		.uleb128 0x30
 8121 1dc0 7900     		.ascii	"y\000"
 8122 1dc2 01       		.byte	0x1
 8123 1dc3 1B02     		.2byte	0x21b
 8124 1dc5 E4000000 		.4byte	0xe4
 8125 1dc9 3F020000 		.4byte	.LLST11
 8126 1dcd 31       		.uleb128 0x31
 8127 1dce D4170000 		.4byte	.LASF503
 8128 1dd2 01       		.byte	0x1
 8129 1dd3 1D02     		.2byte	0x21d
 8130 1dd5 041F0000 		.4byte	0x1f04
 8131 1dd9 8D020000 		.4byte	.LLST12
 8132 1ddd 32       		.uleb128 0x32
ARM GAS  C:\Users\haske\AppData\Local\Temp\ccydbpJh.s 			page 180


 8133 1dde 031C0000 		.4byte	0x1c03
 8134 1de2 2C000000 		.4byte	.LBB98
 8135 1de6 0C000000 		.4byte	.LBE98-.LBB98
 8136 1dea 01       		.byte	0x1
 8137 1deb 1702     		.2byte	0x217
 8138 1ded FB1D0000 		.4byte	0x1dfb
 8139 1df1 33       		.uleb128 0x33
 8140 1df2 131C0000 		.4byte	0x1c13
 8141 1df6 B0020000 		.4byte	.LLST13
 8142 1dfa 00       		.byte	0
 8143 1dfb 32       		.uleb128 0x32
 8144 1dfc E71B0000 		.4byte	0x1be7
 8145 1e00 3C000000 		.4byte	.LBB100
 8146 1e04 0C000000 		.4byte	.LBE100-.LBB100
 8147 1e08 01       		.byte	0x1
 8148 1e09 1802     		.2byte	0x218
 8149 1e0b 191E0000 		.4byte	0x1e19
 8150 1e0f 33       		.uleb128 0x33
 8151 1e10 F71B0000 		.4byte	0x1bf7
 8152 1e14 C3020000 		.4byte	.LLST14
 8153 1e18 00       		.byte	0
 8154 1e19 34       		.uleb128 0x34
 8155 1e1a 70000000 		.4byte	.LBB102
 8156 1e1e 58000000 		.4byte	.LBE102-.LBB102
 8157 1e22 801E0000 		.4byte	0x1e80
 8158 1e26 31       		.uleb128 0x31
 8159 1e27 340D0000 		.4byte	.LASF504
 8160 1e2b 01       		.byte	0x1
 8161 1e2c 2F02     		.2byte	0x22f
 8162 1e2e F7010000 		.4byte	0x1f7
 8163 1e32 E4020000 		.4byte	.LLST15
 8164 1e36 31       		.uleb128 0x31
 8165 1e37 E51E0000 		.4byte	.LASF505
 8166 1e3b 01       		.byte	0x1
 8167 1e3c 3002     		.2byte	0x230
 8168 1e3e F7010000 		.4byte	0x1f7
 8169 1e42 F7020000 		.4byte	.LLST16
 8170 1e46 35       		.uleb128 0x35
 8171 1e47 7E000000 		.4byte	.LVL22
 8172 1e4b 02       		.uleb128 0x2
 8173 1e4c 7B       		.byte	0x7b
 8174 1e4d 00       		.sleb128 0
 8175 1e4e 691E0000 		.4byte	0x1e69
 8176 1e52 36       		.uleb128 0x36
 8177 1e53 01       		.uleb128 0x1
 8178 1e54 50       		.byte	0x50
 8179 1e55 04       		.uleb128 0x4
 8180 1e56 7D       		.byte	0x7d
 8181 1e57 06       		.sleb128 6
 8182 1e58 94       		.byte	0x94
 8183 1e59 02       		.byte	0x2
 8184 1e5a 36       		.uleb128 0x36
 8185 1e5b 01       		.uleb128 0x1
 8186 1e5c 51       		.byte	0x51
 8187 1e5d 02       		.uleb128 0x2
 8188 1e5e 74       		.byte	0x74
 8189 1e5f 00       		.sleb128 0
ARM GAS  C:\Users\haske\AppData\Local\Temp\ccydbpJh.s 			page 181


 8190 1e60 36       		.uleb128 0x36
 8191 1e61 01       		.uleb128 0x1
 8192 1e62 52       		.byte	0x52
 8193 1e63 04       		.uleb128 0x4
 8194 1e64 91       		.byte	0x91
 8195 1e65 40       		.sleb128 -64
 8196 1e66 94       		.byte	0x94
 8197 1e67 01       		.byte	0x1
 8198 1e68 00       		.byte	0
 8199 1e69 37       		.uleb128 0x37
 8200 1e6a A8000000 		.4byte	.LVL29
 8201 1e6e 36       		.uleb128 0x36
 8202 1e6f 01       		.uleb128 0x1
 8203 1e70 50       		.byte	0x50
 8204 1e71 04       		.uleb128 0x4
 8205 1e72 7D       		.byte	0x7d
 8206 1e73 06       		.sleb128 6
 8207 1e74 94       		.byte	0x94
 8208 1e75 02       		.byte	0x2
 8209 1e76 36       		.uleb128 0x36
 8210 1e77 01       		.uleb128 0x1
 8211 1e78 52       		.byte	0x52
 8212 1e79 04       		.uleb128 0x4
 8213 1e7a 91       		.byte	0x91
 8214 1e7b 40       		.sleb128 -64
 8215 1e7c 94       		.byte	0x94
 8216 1e7d 01       		.byte	0x1
 8217 1e7e 00       		.byte	0
 8218 1e7f 00       		.byte	0
 8219 1e80 38       		.uleb128 0x38
 8220 1e81 C8000000 		.4byte	.LBB103
 8221 1e85 AA000000 		.4byte	.LBE103-.LBB103
 8222 1e89 31       		.uleb128 0x31
 8223 1e8a 340D0000 		.4byte	.LASF504
 8224 1e8e 01       		.byte	0x1
 8225 1e8f 3F02     		.2byte	0x23f
 8226 1e91 F7010000 		.4byte	0x1f7
 8227 1e95 20030000 		.4byte	.LLST17
 8228 1e99 31       		.uleb128 0x31
 8229 1e9a E51E0000 		.4byte	.LASF505
 8230 1e9e 01       		.byte	0x1
 8231 1e9f 4002     		.2byte	0x240
 8232 1ea1 F7010000 		.4byte	0x1f7
 8233 1ea5 5F030000 		.4byte	.LLST18
 8234 1ea9 31       		.uleb128 0x31
 8235 1eaa 681D0000 		.4byte	.LASF506
 8236 1eae 01       		.byte	0x1
 8237 1eaf 4102     		.2byte	0x241
 8238 1eb1 02020000 		.4byte	0x202
 8239 1eb5 7D030000 		.4byte	.LLST19
 8240 1eb9 31       		.uleb128 0x31
 8241 1eba 68190000 		.4byte	.LASF507
 8242 1ebe 01       		.byte	0x1
 8243 1ebf 4302     		.2byte	0x243
 8244 1ec1 02020000 		.4byte	0x202
 8245 1ec5 BF030000 		.4byte	.LLST20
 8246 1ec9 39       		.uleb128 0x39
ARM GAS  C:\Users\haske\AppData\Local\Temp\ccydbpJh.s 			page 182


 8247 1eca E8000000 		.4byte	.LVL38
 8248 1ece DB1E0000 		.4byte	0x1edb
 8249 1ed2 36       		.uleb128 0x36
 8250 1ed3 01       		.uleb128 0x1
 8251 1ed4 50       		.byte	0x50
 8252 1ed5 04       		.uleb128 0x4
 8253 1ed6 7D       		.byte	0x7d
 8254 1ed7 06       		.sleb128 6
 8255 1ed8 94       		.byte	0x94
 8256 1ed9 02       		.byte	0x2
 8257 1eda 00       		.byte	0
 8258 1edb 37       		.uleb128 0x37
 8259 1edc 3C010000 		.4byte	.LVL45
 8260 1ee0 36       		.uleb128 0x36
 8261 1ee1 01       		.uleb128 0x1
 8262 1ee2 50       		.byte	0x50
 8263 1ee3 04       		.uleb128 0x4
 8264 1ee4 7D       		.byte	0x7d
 8265 1ee5 06       		.sleb128 6
 8266 1ee6 94       		.byte	0x94
 8267 1ee7 02       		.byte	0x2
 8268 1ee8 00       		.byte	0
 8269 1ee9 00       		.byte	0
 8270 1eea 00       		.byte	0
 8271 1eeb 13       		.uleb128 0x13
 8272 1eec F7010000 		.4byte	0x1f7
 8273 1ef0 041F0000 		.4byte	0x1f04
 8274 1ef4 14       		.uleb128 0x14
 8275 1ef5 F7010000 		.4byte	0x1f7
 8276 1ef9 14       		.uleb128 0x14
 8277 1efa F7010000 		.4byte	0x1f7
 8278 1efe 14       		.uleb128 0x14
 8279 1eff 02020000 		.4byte	0x202
 8280 1f03 00       		.byte	0
 8281 1f04 11       		.uleb128 0x11
 8282 1f05 04       		.byte	0x4
 8283 1f06 EB1E0000 		.4byte	0x1eeb
 8284 1f0a 2D       		.uleb128 0x2d
 8285 1f0b 22050000 		.4byte	.LASF509
 8286 1f0f 01       		.byte	0x1
 8287 1f10 6903     		.2byte	0x369
 8288 1f12 00000000 		.4byte	.LFB166
 8289 1f16 C0010000 		.4byte	.LFE166-.LFB166
 8290 1f1a 01       		.uleb128 0x1
 8291 1f1b 9C       		.byte	0x9c
 8292 1f1c 25210000 		.4byte	0x2125
 8293 1f20 2E       		.uleb128 0x2e
 8294 1f21 F8080000 		.4byte	.LASF498
 8295 1f25 01       		.byte	0x1
 8296 1f26 6903     		.2byte	0x369
 8297 1f28 D7090000 		.4byte	0x9d7
 8298 1f2c DD030000 		.4byte	.LLST21
 8299 1f30 2E       		.uleb128 0x2e
 8300 1f31 20130000 		.4byte	.LASF499
 8301 1f35 01       		.byte	0x1
 8302 1f36 6903     		.2byte	0x369
 8303 1f38 D8080000 		.4byte	0x8d8
ARM GAS  C:\Users\haske\AppData\Local\Temp\ccydbpJh.s 			page 183


 8304 1f3c FB030000 		.4byte	.LLST22
 8305 1f40 2E       		.uleb128 0x2e
 8306 1f41 960B0000 		.4byte	.LASF500
 8307 1f45 01       		.byte	0x1
 8308 1f46 6903     		.2byte	0x369
 8309 1f48 0D020000 		.4byte	0x20d
 8310 1f4c 1C040000 		.4byte	.LLST23
 8311 1f50 2E       		.uleb128 0x2e
 8312 1f51 06170000 		.4byte	.LASF198
 8313 1f55 01       		.byte	0x1
 8314 1f56 6A03     		.2byte	0x36a
 8315 1f58 E3080000 		.4byte	0x8e3
 8316 1f5c 3D040000 		.4byte	.LLST24
 8317 1f60 2E       		.uleb128 0x2e
 8318 1f61 F7020000 		.4byte	.LASF510
 8319 1f65 01       		.byte	0x1
 8320 1f66 6A03     		.2byte	0x36a
 8321 1f68 0D020000 		.4byte	0x20d
 8322 1f6c 5B040000 		.4byte	.LLST25
 8323 1f70 2F       		.uleb128 0x2f
 8324 1f71 6F706100 		.ascii	"opa\000"
 8325 1f75 01       		.byte	0x1
 8326 1f76 6A03     		.2byte	0x36a
 8327 1f78 02020000 		.4byte	0x202
 8328 1f7c 87040000 		.4byte	.LLST26
 8329 1f80 2E       		.uleb128 0x2e
 8330 1f81 BC100000 		.4byte	.LASF501
 8331 1f85 01       		.byte	0x1
 8332 1f86 6B03     		.2byte	0x36b
 8333 1f88 64080000 		.4byte	0x864
 8334 1f8c CB040000 		.4byte	.LLST27
 8335 1f90 2E       		.uleb128 0x2e
 8336 1f91 71090000 		.4byte	.LASF502
 8337 1f95 01       		.byte	0x1
 8338 1f96 6B03     		.2byte	0x36b
 8339 1f98 0D020000 		.4byte	0x20d
 8340 1f9c 0D050000 		.4byte	.LLST28
 8341 1fa0 2E       		.uleb128 0x2e
 8342 1fa1 AC030000 		.4byte	.LASF202
 8343 1fa5 01       		.byte	0x1
 8344 1fa6 6B03     		.2byte	0x36b
 8345 1fa8 4C040000 		.4byte	0x44c
 8346 1fac 51050000 		.4byte	.LLST29
 8347 1fb0 30       		.uleb128 0x30
 8348 1fb1 7700     		.ascii	"w\000"
 8349 1fb3 01       		.byte	0x1
 8350 1fb4 6E03     		.2byte	0x36e
 8351 1fb6 E4000000 		.4byte	0xe4
 8352 1fba 95050000 		.4byte	.LLST30
 8353 1fbe 30       		.uleb128 0x30
 8354 1fbf 6800     		.ascii	"h\000"
 8355 1fc1 01       		.byte	0x1
 8356 1fc2 6F03     		.2byte	0x36f
 8357 1fc4 E4000000 		.4byte	0xe4
 8358 1fc8 21060000 		.4byte	.LLST31
 8359 1fcc 30       		.uleb128 0x30
 8360 1fcd 7800     		.ascii	"x\000"
ARM GAS  C:\Users\haske\AppData\Local\Temp\ccydbpJh.s 			page 184


 8361 1fcf 01       		.byte	0x1
 8362 1fd0 7103     		.2byte	0x371
 8363 1fd2 E4000000 		.4byte	0xe4
 8364 1fd6 6E060000 		.4byte	.LLST32
 8365 1fda 30       		.uleb128 0x30
 8366 1fdb 7900     		.ascii	"y\000"
 8367 1fdd 01       		.byte	0x1
 8368 1fde 7203     		.2byte	0x372
 8369 1fe0 E4000000 		.4byte	0xe4
 8370 1fe4 B8060000 		.4byte	.LLST33
 8371 1fe8 31       		.uleb128 0x31
 8372 1fe9 D4170000 		.4byte	.LASF503
 8373 1fed 01       		.byte	0x1
 8374 1fee 7403     		.2byte	0x374
 8375 1ff0 041F0000 		.4byte	0x1f04
 8376 1ff4 06070000 		.4byte	.LLST34
 8377 1ff8 29       		.uleb128 0x29
 8378 1ff9 340D0000 		.4byte	.LASF504
 8379 1ffd 01       		.byte	0x1
 8380 1ffe 8403     		.2byte	0x384
 8381 2000 F7010000 		.4byte	0x1f7
 8382 2004 29       		.uleb128 0x29
 8383 2005 E8020000 		.4byte	.LASF511
 8384 2009 01       		.byte	0x1
 8385 200a 8503     		.2byte	0x385
 8386 200c F7010000 		.4byte	0x1f7
 8387 2010 32       		.uleb128 0x32
 8388 2011 031C0000 		.4byte	0x1c03
 8389 2015 32000000 		.4byte	.LBB104
 8390 2019 0C000000 		.4byte	.LBE104-.LBB104
 8391 201d 01       		.byte	0x1
 8392 201e 6E03     		.2byte	0x36e
 8393 2020 2E200000 		.4byte	0x202e
 8394 2024 33       		.uleb128 0x33
 8395 2025 131C0000 		.4byte	0x1c13
 8396 2029 6B070000 		.4byte	.LLST35
 8397 202d 00       		.byte	0
 8398 202e 32       		.uleb128 0x32
 8399 202f E71B0000 		.4byte	0x1be7
 8400 2033 42000000 		.4byte	.LBB106
 8401 2037 0C000000 		.4byte	.LBE106-.LBB106
 8402 203b 01       		.byte	0x1
 8403 203c 6F03     		.2byte	0x36f
 8404 203e 4C200000 		.4byte	0x204c
 8405 2042 33       		.uleb128 0x33
 8406 2043 F71B0000 		.4byte	0x1bf7
 8407 2047 7E070000 		.4byte	.LLST36
 8408 204b 00       		.byte	0
 8409 204c 34       		.uleb128 0x34
 8410 204d 76000000 		.4byte	.LBB108
 8411 2051 74000000 		.4byte	.LBE108-.LBB108
 8412 2055 AF200000 		.4byte	0x20af
 8413 2059 31       		.uleb128 0x31
 8414 205a E51E0000 		.4byte	.LASF505
 8415 205e 01       		.byte	0x1
 8416 205f 8A03     		.2byte	0x38a
 8417 2061 F7010000 		.4byte	0x1f7
ARM GAS  C:\Users\haske\AppData\Local\Temp\ccydbpJh.s 			page 185


 8418 2065 9F070000 		.4byte	.LLST37
 8419 2069 35       		.uleb128 0x35
 8420 206a 88000000 		.4byte	.LVL78
 8421 206e 02       		.uleb128 0x2
 8422 206f 7B       		.byte	0x7b
 8423 2070 00       		.sleb128 0
 8424 2071 8F200000 		.4byte	0x208f
 8425 2075 36       		.uleb128 0x36
 8426 2076 01       		.uleb128 0x1
 8427 2077 50       		.byte	0x50
 8428 2078 04       		.uleb128 0x4
 8429 2079 7D       		.byte	0x7d
 8430 207a 08       		.sleb128 8
 8431 207b 94       		.byte	0x94
 8432 207c 02       		.byte	0x2
 8433 207d 36       		.uleb128 0x36
 8434 207e 01       		.uleb128 0x1
 8435 207f 51       		.byte	0x51
 8436 2080 04       		.uleb128 0x4
 8437 2081 7D       		.byte	0x7d
 8438 2082 0A       		.sleb128 10
 8439 2083 94       		.byte	0x94
 8440 2084 02       		.byte	0x2
 8441 2085 36       		.uleb128 0x36
 8442 2086 01       		.uleb128 0x1
 8443 2087 52       		.byte	0x52
 8444 2088 05       		.uleb128 0x5
 8445 2089 91       		.byte	0x91
 8446 208a BC7F     		.sleb128 -68
 8447 208c 94       		.byte	0x94
 8448 208d 01       		.byte	0x1
 8449 208e 00       		.byte	0
 8450 208f 37       		.uleb128 0x37
 8451 2090 B8000000 		.4byte	.LVL81
 8452 2094 36       		.uleb128 0x36
 8453 2095 01       		.uleb128 0x1
 8454 2096 50       		.byte	0x50
 8455 2097 04       		.uleb128 0x4
 8456 2098 7D       		.byte	0x7d
 8457 2099 08       		.sleb128 8
 8458 209a 94       		.byte	0x94
 8459 209b 02       		.byte	0x2
 8460 209c 36       		.uleb128 0x36
 8461 209d 01       		.uleb128 0x1
 8462 209e 51       		.byte	0x51
 8463 209f 04       		.uleb128 0x4
 8464 20a0 7D       		.byte	0x7d
 8465 20a1 0A       		.sleb128 10
 8466 20a2 94       		.byte	0x94
 8467 20a3 02       		.byte	0x2
 8468 20a4 36       		.uleb128 0x36
 8469 20a5 01       		.uleb128 0x1
 8470 20a6 52       		.byte	0x52
 8471 20a7 05       		.uleb128 0x5
 8472 20a8 91       		.byte	0x91
 8473 20a9 BC7F     		.sleb128 -68
 8474 20ab 94       		.byte	0x94
ARM GAS  C:\Users\haske\AppData\Local\Temp\ccydbpJh.s 			page 186


 8475 20ac 01       		.byte	0x1
 8476 20ad 00       		.byte	0
 8477 20ae 00       		.byte	0
 8478 20af 38       		.uleb128 0x38
 8479 20b0 EA000000 		.4byte	.LBB109
 8480 20b4 BC000000 		.4byte	.LBE109-.LBB109
 8481 20b8 31       		.uleb128 0x31
 8482 20b9 2F160000 		.4byte	.LASF512
 8483 20bd 01       		.byte	0x1
 8484 20be 9C03     		.2byte	0x39c
 8485 20c0 02020000 		.4byte	0x202
 8486 20c4 C8070000 		.4byte	.LLST38
 8487 20c8 31       		.uleb128 0x31
 8488 20c9 E51E0000 		.4byte	.LASF505
 8489 20cd 01       		.byte	0x1
 8490 20ce 9D03     		.2byte	0x39d
 8491 20d0 F7010000 		.4byte	0x1f7
 8492 20d4 F5070000 		.4byte	.LLST39
 8493 20d8 34       		.uleb128 0x34
 8494 20d9 1A010000 		.4byte	.LBB110
 8495 20dd 5A000000 		.4byte	.LBE110-.LBB110
 8496 20e1 15210000 		.4byte	0x2115
 8497 20e5 31       		.uleb128 0x31
 8498 20e6 68190000 		.4byte	.LASF507
 8499 20ea 01       		.byte	0x1
 8500 20eb A103     		.2byte	0x3a1
 8501 20ed 02020000 		.4byte	0x202
 8502 20f1 13080000 		.4byte	.LLST40
 8503 20f5 37       		.uleb128 0x37
 8504 20f6 6C010000 		.4byte	.LVL101
 8505 20fa 36       		.uleb128 0x36
 8506 20fb 01       		.uleb128 0x1
 8507 20fc 50       		.byte	0x50
 8508 20fd 04       		.uleb128 0x4
 8509 20fe 7D       		.byte	0x7d
 8510 20ff 08       		.sleb128 8
 8511 2100 94       		.byte	0x94
 8512 2101 02       		.byte	0x2
 8513 2102 36       		.uleb128 0x36
 8514 2103 01       		.uleb128 0x1
 8515 2104 51       		.byte	0x51
 8516 2105 04       		.uleb128 0x4
 8517 2106 7D       		.byte	0x7d
 8518 2107 0A       		.sleb128 10
 8519 2108 94       		.byte	0x94
 8520 2109 02       		.byte	0x2
 8521 210a 36       		.uleb128 0x36
 8522 210b 01       		.uleb128 0x1
 8523 210c 52       		.byte	0x52
 8524 210d 05       		.uleb128 0x5
 8525 210e 91       		.byte	0x91
 8526 210f B47F     		.sleb128 -76
 8527 2111 94       		.byte	0x94
 8528 2112 01       		.byte	0x1
 8529 2113 00       		.byte	0
 8530 2114 00       		.byte	0
 8531 2115 37       		.uleb128 0x37
ARM GAS  C:\Users\haske\AppData\Local\Temp\ccydbpJh.s 			page 187


 8532 2116 14010000 		.4byte	.LVL94
 8533 211a 36       		.uleb128 0x36
 8534 211b 01       		.uleb128 0x1
 8535 211c 52       		.byte	0x52
 8536 211d 04       		.uleb128 0x4
 8537 211e 91       		.byte	0x91
 8538 211f 40       		.sleb128 -64
 8539 2120 94       		.byte	0x94
 8540 2121 01       		.byte	0x1
 8541 2122 00       		.byte	0
 8542 2123 00       		.byte	0
 8543 2124 00       		.byte	0
 8544 2125 3A       		.uleb128 0x3a
 8545 2126 1A190000 		.4byte	.LASF513
 8546 212a 01       		.byte	0x1
 8547 212b B103     		.2byte	0x3b1
 8548 212d F7010000 		.4byte	0x1f7
 8549 2131 00000000 		.4byte	.LFB167
 8550 2135 98000000 		.4byte	.LFE167-.LFB167
 8551 2139 01       		.uleb128 0x1
 8552 213a 9C       		.byte	0x9c
 8553 213b CC210000 		.4byte	0x21cc
 8554 213f 2F       		.uleb128 0x2f
 8555 2140 666700   		.ascii	"fg\000"
 8556 2143 01       		.byte	0x1
 8557 2144 B103     		.2byte	0x3b1
 8558 2146 F7010000 		.4byte	0x1f7
 8559 214a 28080000 		.4byte	.LLST41
 8560 214e 2F       		.uleb128 0x2f
 8561 214f 626700   		.ascii	"bg\000"
 8562 2152 01       		.byte	0x1
 8563 2153 B103     		.2byte	0x3b1
 8564 2155 F7010000 		.4byte	0x1f7
 8565 2159 46080000 		.4byte	.LLST42
 8566 215d 2F       		.uleb128 0x2f
 8567 215e 6F706100 		.ascii	"opa\000"
 8568 2162 01       		.byte	0x1
 8569 2163 B103     		.2byte	0x3b1
 8570 2165 02020000 		.4byte	0x202
 8571 2169 64080000 		.4byte	.LLST43
 8572 216d 30       		.uleb128 0x30
 8573 216e 746D7000 		.ascii	"tmp\000"
 8574 2172 01       		.byte	0x1
 8575 2173 B603     		.2byte	0x3b6
 8576 2175 EF000000 		.4byte	0xef
 8577 2179 85080000 		.4byte	.LLST44
 8578 217d 3B       		.uleb128 0x3b
 8579 217e 1F1C0000 		.4byte	0x1c1f
 8580 2182 62000000 		.4byte	.LBB111
 8581 2186 2A000000 		.4byte	.LBE111-.LBB111
 8582 218a 01       		.byte	0x1
 8583 218b E303     		.2byte	0x3e3
 8584 218d 33       		.uleb128 0x33
 8585 218e 461C0000 		.4byte	0x1c46
 8586 2192 62090000 		.4byte	.LLST45
 8587 2196 3C       		.uleb128 0x3c
 8588 2197 3B1C0000 		.4byte	0x1c3b
ARM GAS  C:\Users\haske\AppData\Local\Temp\ccydbpJh.s 			page 188


 8589 219b 3C       		.uleb128 0x3c
 8590 219c 301C0000 		.4byte	0x1c30
 8591 21a0 38       		.uleb128 0x38
 8592 21a1 62000000 		.4byte	.LBB112
 8593 21a5 2A000000 		.4byte	.LBE112-.LBB112
 8594 21a9 3D       		.uleb128 0x3d
 8595 21aa 521C0000 		.4byte	0x1c52
 8596 21ae 3E       		.uleb128 0x3e
 8597 21af 5E1C0000 		.4byte	0x1c5e
 8598 21b3 8E090000 		.4byte	.LLST46
 8599 21b7 3E       		.uleb128 0x3e
 8600 21b8 691C0000 		.4byte	0x1c69
 8601 21bc A1090000 		.4byte	.LLST47
 8602 21c0 3E       		.uleb128 0x3e
 8603 21c1 741C0000 		.4byte	0x1c74
 8604 21c5 B4090000 		.4byte	.LLST48
 8605 21c9 00       		.byte	0
 8606 21ca 00       		.byte	0
 8607 21cb 00       		.byte	0
 8608 21cc 3A       		.uleb128 0x3a
 8609 21cd 9D1A0000 		.4byte	.LASF514
 8610 21d1 01       		.byte	0x1
 8611 21d2 E603     		.2byte	0x3e6
 8612 21d4 F7010000 		.4byte	0x1f7
 8613 21d8 00000000 		.4byte	.LFB168
 8614 21dc 90000000 		.4byte	.LFE168-.LFB168
 8615 21e0 01       		.uleb128 0x1
 8616 21e1 9C       		.byte	0x9c
 8617 21e2 6F220000 		.4byte	0x226f
 8618 21e6 2F       		.uleb128 0x2f
 8619 21e7 666700   		.ascii	"fg\000"
 8620 21ea 01       		.byte	0x1
 8621 21eb E603     		.2byte	0x3e6
 8622 21ed F7010000 		.4byte	0x1f7
 8623 21f1 C7090000 		.4byte	.LLST49
 8624 21f5 2F       		.uleb128 0x2f
 8625 21f6 626700   		.ascii	"bg\000"
 8626 21f9 01       		.byte	0x1
 8627 21fa E603     		.2byte	0x3e6
 8628 21fc F7010000 		.4byte	0x1f7
 8629 2200 E5090000 		.4byte	.LLST50
 8630 2204 2F       		.uleb128 0x2f
 8631 2205 6F706100 		.ascii	"opa\000"
 8632 2209 01       		.byte	0x1
 8633 220a E603     		.2byte	0x3e6
 8634 220c 02020000 		.4byte	0x202
 8635 2210 030A0000 		.4byte	.LLST51
 8636 2214 28       		.uleb128 0x28
 8637 2215 746D7000 		.ascii	"tmp\000"
 8638 2219 01       		.byte	0x1
 8639 221a EA03     		.2byte	0x3ea
 8640 221c E4000000 		.4byte	0xe4
 8641 2220 3B       		.uleb128 0x3b
 8642 2221 1F1C0000 		.4byte	0x1c1f
 8643 2225 5C000000 		.4byte	.LBB113
 8644 2229 2A000000 		.4byte	.LBE113-.LBB113
 8645 222d 01       		.byte	0x1
ARM GAS  C:\Users\haske\AppData\Local\Temp\ccydbpJh.s 			page 189


 8646 222e FD03     		.2byte	0x3fd
 8647 2230 33       		.uleb128 0x33
 8648 2231 461C0000 		.4byte	0x1c46
 8649 2235 240A0000 		.4byte	.LLST52
 8650 2239 3C       		.uleb128 0x3c
 8651 223a 3B1C0000 		.4byte	0x1c3b
 8652 223e 3C       		.uleb128 0x3c
 8653 223f 301C0000 		.4byte	0x1c30
 8654 2243 38       		.uleb128 0x38
 8655 2244 5C000000 		.4byte	.LBB114
 8656 2248 2A000000 		.4byte	.LBE114-.LBB114
 8657 224c 3D       		.uleb128 0x3d
 8658 224d 521C0000 		.4byte	0x1c52
 8659 2251 3E       		.uleb128 0x3e
 8660 2252 5E1C0000 		.4byte	0x1c5e
 8661 2256 500A0000 		.4byte	.LLST53
 8662 225a 3E       		.uleb128 0x3e
 8663 225b 691C0000 		.4byte	0x1c69
 8664 225f 630A0000 		.4byte	.LLST54
 8665 2263 3E       		.uleb128 0x3e
 8666 2264 741C0000 		.4byte	0x1c74
 8667 2268 760A0000 		.4byte	.LLST55
 8668 226c 00       		.byte	0
 8669 226d 00       		.byte	0
 8670 226e 00       		.byte	0
 8671 226f 3A       		.uleb128 0x3a
 8672 2270 C8050000 		.4byte	.LASF515
 8673 2274 01       		.byte	0x1
 8674 2275 0004     		.2byte	0x400
 8675 2277 F7010000 		.4byte	0x1f7
 8676 227b 00000000 		.4byte	.LFB169
 8677 227f 88000000 		.4byte	.LFE169-.LFB169
 8678 2283 01       		.uleb128 0x1
 8679 2284 9C       		.byte	0x9c
 8680 2285 06230000 		.4byte	0x2306
 8681 2289 2F       		.uleb128 0x2f
 8682 228a 666700   		.ascii	"fg\000"
 8683 228d 01       		.byte	0x1
 8684 228e 0004     		.2byte	0x400
 8685 2290 F7010000 		.4byte	0x1f7
 8686 2294 890A0000 		.4byte	.LLST56
 8687 2298 2F       		.uleb128 0x2f
 8688 2299 626700   		.ascii	"bg\000"
 8689 229c 01       		.byte	0x1
 8690 229d 0004     		.2byte	0x400
 8691 229f F7010000 		.4byte	0x1f7
 8692 22a3 A70A0000 		.4byte	.LLST57
 8693 22a7 2F       		.uleb128 0x2f
 8694 22a8 6F706100 		.ascii	"opa\000"
 8695 22ac 01       		.byte	0x1
 8696 22ad 0004     		.2byte	0x400
 8697 22af 02020000 		.4byte	0x202
 8698 22b3 C50A0000 		.4byte	.LLST58
 8699 22b7 3B       		.uleb128 0x3b
 8700 22b8 1F1C0000 		.4byte	0x1c1f
 8701 22bc 52000000 		.4byte	.LBB115
 8702 22c0 2A000000 		.4byte	.LBE115-.LBB115
ARM GAS  C:\Users\haske\AppData\Local\Temp\ccydbpJh.s 			page 190


 8703 22c4 01       		.byte	0x1
 8704 22c5 1404     		.2byte	0x414
 8705 22c7 33       		.uleb128 0x33
 8706 22c8 461C0000 		.4byte	0x1c46
 8707 22cc E60A0000 		.4byte	.LLST59
 8708 22d0 3C       		.uleb128 0x3c
 8709 22d1 3B1C0000 		.4byte	0x1c3b
 8710 22d5 3C       		.uleb128 0x3c
 8711 22d6 301C0000 		.4byte	0x1c30
 8712 22da 38       		.uleb128 0x38
 8713 22db 52000000 		.4byte	.LBB116
 8714 22df 2A000000 		.4byte	.LBE116-.LBB116
 8715 22e3 3D       		.uleb128 0x3d
 8716 22e4 521C0000 		.4byte	0x1c52
 8717 22e8 3E       		.uleb128 0x3e
 8718 22e9 5E1C0000 		.4byte	0x1c5e
 8719 22ed 120B0000 		.4byte	.LLST60
 8720 22f1 3E       		.uleb128 0x3e
 8721 22f2 691C0000 		.4byte	0x1c69
 8722 22f6 250B0000 		.4byte	.LLST61
 8723 22fa 3E       		.uleb128 0x3e
 8724 22fb 741C0000 		.4byte	0x1c74
 8725 22ff 4D0B0000 		.4byte	.LLST62
 8726 2303 00       		.byte	0
 8727 2304 00       		.byte	0
 8728 2305 00       		.byte	0
 8729 2306 3F       		.uleb128 0x3f
 8730 2307 25040000 		.4byte	.LASF516
 8731 230b 01       		.byte	0x1
 8732 230c CF       		.byte	0xcf
 8733 230d 00000000 		.4byte	.LFB161
 8734 2311 1C010000 		.4byte	.LFE161-.LFB161
 8735 2315 01       		.uleb128 0x1
 8736 2316 9C       		.byte	0x9c
 8737 2317 72240000 		.4byte	0x2472
 8738 231b 40       		.uleb128 0x40
 8739 231c F8080000 		.4byte	.LASF498
 8740 2320 01       		.byte	0x1
 8741 2321 CF       		.byte	0xcf
 8742 2322 D7090000 		.4byte	0x9d7
 8743 2326 600B0000 		.4byte	.LLST63
 8744 232a 40       		.uleb128 0x40
 8745 232b DD160000 		.4byte	.LASF197
 8746 232f 01       		.byte	0x1
 8747 2330 CF       		.byte	0xcf
 8748 2331 D8080000 		.4byte	0x8d8
 8749 2335 7F0B0000 		.4byte	.LLST64
 8750 2339 40       		.uleb128 0x40
 8751 233a 960B0000 		.4byte	.LASF500
 8752 233e 01       		.byte	0x1
 8753 233f CF       		.byte	0xcf
 8754 2340 0D020000 		.4byte	0x20d
 8755 2344 F80B0000 		.4byte	.LLST65
 8756 2348 40       		.uleb128 0x40
 8757 2349 A5170000 		.4byte	.LASF84
 8758 234d 01       		.byte	0x1
 8759 234e D0       		.byte	0xd0
ARM GAS  C:\Users\haske\AppData\Local\Temp\ccydbpJh.s 			page 191


 8760 234f F7010000 		.4byte	0x1f7
 8761 2353 190C0000 		.4byte	.LLST66
 8762 2357 41       		.uleb128 0x41
 8763 2358 6F706100 		.ascii	"opa\000"
 8764 235c 01       		.byte	0x1
 8765 235d D0       		.byte	0xd0
 8766 235e 02020000 		.4byte	0x202
 8767 2362 6E0C0000 		.4byte	.LLST67
 8768 2366 40       		.uleb128 0x40
 8769 2367 BC100000 		.4byte	.LASF501
 8770 236b 01       		.byte	0x1
 8771 236c D0       		.byte	0xd0
 8772 236d 64080000 		.4byte	0x864
 8773 2371 9A0C0000 		.4byte	.LLST68
 8774 2375 40       		.uleb128 0x40
 8775 2376 250A0000 		.4byte	.LASF517
 8776 237a 01       		.byte	0x1
 8777 237b D0       		.byte	0xd0
 8778 237c 0D020000 		.4byte	0x20d
 8779 2380 DC0C0000 		.4byte	.LLST69
 8780 2384 42       		.uleb128 0x42
 8781 2385 AC110000 		.4byte	.LASF518
 8782 2389 01       		.byte	0x1
 8783 238a D2       		.byte	0xd2
 8784 238b 72240000 		.4byte	0x2472
 8785 238f 200D0000 		.4byte	.LLST70
 8786 2393 43       		.uleb128 0x43
 8787 2394 7800     		.ascii	"x\000"
 8788 2396 01       		.byte	0x1
 8789 2397 D4       		.byte	0xd4
 8790 2398 E4000000 		.4byte	0xe4
 8791 239c 540D0000 		.4byte	.LLST71
 8792 23a0 43       		.uleb128 0x43
 8793 23a1 7900     		.ascii	"y\000"
 8794 23a3 01       		.byte	0x1
 8795 23a4 D5       		.byte	0xd5
 8796 23a5 E4000000 		.4byte	0xe4
 8797 23a9 7D0D0000 		.4byte	.LLST72
 8798 23ad 34       		.uleb128 0x34
 8799 23ae 84000000 		.4byte	.LBB117
 8800 23b2 8A000000 		.4byte	.LBE117-.LBB117
 8801 23b6 3A240000 		.4byte	0x243a
 8802 23ba 43       		.uleb128 0x43
 8803 23bb 7700     		.ascii	"w\000"
 8804 23bd 01       		.byte	0x1
 8805 23be DF       		.byte	0xdf
 8806 23bf E4000000 		.4byte	0xe4
 8807 23c3 EB0D0000 		.4byte	.LLST73
 8808 23c7 43       		.uleb128 0x43
 8809 23c8 6800     		.ascii	"h\000"
 8810 23ca 01       		.byte	0x1
 8811 23cb E0       		.byte	0xe0
 8812 23cc E4000000 		.4byte	0xe4
 8813 23d0 FE0D0000 		.4byte	.LLST74
 8814 23d4 44       		.uleb128 0x44
 8815 23d5 031C0000 		.4byte	0x1c03
 8816 23d9 84000000 		.4byte	.LBB118
ARM GAS  C:\Users\haske\AppData\Local\Temp\ccydbpJh.s 			page 192


 8817 23dd 0C000000 		.4byte	.LBE118-.LBB118
 8818 23e1 01       		.byte	0x1
 8819 23e2 DF       		.byte	0xdf
 8820 23e3 F1230000 		.4byte	0x23f1
 8821 23e7 33       		.uleb128 0x33
 8822 23e8 131C0000 		.4byte	0x1c13
 8823 23ec 1D0E0000 		.4byte	.LLST75
 8824 23f0 00       		.byte	0
 8825 23f1 44       		.uleb128 0x44
 8826 23f2 E71B0000 		.4byte	0x1be7
 8827 23f6 92000000 		.4byte	.LBB120
 8828 23fa 0C000000 		.4byte	.LBE120-.LBB120
 8829 23fe 01       		.byte	0x1
 8830 23ff E0       		.byte	0xe0
 8831 2400 0E240000 		.4byte	0x240e
 8832 2404 33       		.uleb128 0x33
 8833 2405 F71B0000 		.4byte	0x1bf7
 8834 2409 300E0000 		.4byte	.LLST76
 8835 240d 00       		.byte	0
 8836 240e 45       		.uleb128 0x45
 8837 240f EE000000 		.4byte	.LVL200
 8838 2413 02       		.uleb128 0x2
 8839 2414 78       		.byte	0x78
 8840 2415 00       		.sleb128 0
 8841 2416 36       		.uleb128 0x36
 8842 2417 01       		.uleb128 0x1
 8843 2418 51       		.byte	0x51
 8844 2419 03       		.uleb128 0x3
 8845 241a 91       		.byte	0x91
 8846 241b 44       		.sleb128 -60
 8847 241c 06       		.byte	0x6
 8848 241d 36       		.uleb128 0x36
 8849 241e 01       		.uleb128 0x1
 8850 241f 52       		.byte	0x52
 8851 2420 04       		.uleb128 0x4
 8852 2421 91       		.byte	0x91
 8853 2422 48       		.sleb128 -56
 8854 2423 94       		.byte	0x94
 8855 2424 02       		.byte	0x2
 8856 2425 36       		.uleb128 0x36
 8857 2426 01       		.uleb128 0x1
 8858 2427 53       		.byte	0x53
 8859 2428 06       		.uleb128 0x6
 8860 2429 91       		.byte	0x91
 8861 242a 40       		.sleb128 -64
 8862 242b 06       		.byte	0x6
 8863 242c 74       		.byte	0x74
 8864 242d 00       		.sleb128 0
 8865 242e 22       		.byte	0x22
 8866 242f 36       		.uleb128 0x36
 8867 2430 02       		.uleb128 0x2
 8868 2431 7D       		.byte	0x7d
 8869 2432 04       		.sleb128 4
 8870 2433 04       		.uleb128 0x4
 8871 2434 7D       		.byte	0x7d
 8872 2435 1E       		.sleb128 30
 8873 2436 94       		.byte	0x94
ARM GAS  C:\Users\haske\AppData\Local\Temp\ccydbpJh.s 			page 193


 8874 2437 02       		.byte	0x2
 8875 2438 00       		.byte	0
 8876 2439 00       		.byte	0
 8877 243a 46       		.uleb128 0x46
 8878 243b 2C000000 		.4byte	.LVL177
 8879 243f 4E320000 		.4byte	0x324e
 8880 2443 45       		.uleb128 0x45
 8881 2444 68000000 		.4byte	.LVL186
 8882 2448 02       		.uleb128 0x2
 8883 2449 76       		.byte	0x76
 8884 244a 00       		.sleb128 0
 8885 244b 36       		.uleb128 0x36
 8886 244c 01       		.uleb128 0x1
 8887 244d 51       		.byte	0x51
 8888 244e 03       		.uleb128 0x3
 8889 244f 91       		.byte	0x91
 8890 2450 44       		.sleb128 -60
 8891 2451 06       		.byte	0x6
 8892 2452 36       		.uleb128 0x36
 8893 2453 01       		.uleb128 0x1
 8894 2454 52       		.byte	0x52
 8895 2455 04       		.uleb128 0x4
 8896 2456 91       		.byte	0x91
 8897 2457 48       		.sleb128 -56
 8898 2458 94       		.byte	0x94
 8899 2459 02       		.byte	0x2
 8900 245a 36       		.uleb128 0x36
 8901 245b 01       		.uleb128 0x1
 8902 245c 53       		.byte	0x53
 8903 245d 02       		.uleb128 0x2
 8904 245e 75       		.byte	0x75
 8905 245f 00       		.sleb128 0
 8906 2460 36       		.uleb128 0x36
 8907 2461 02       		.uleb128 0x2
 8908 2462 7D       		.byte	0x7d
 8909 2463 00       		.sleb128 0
 8910 2464 04       		.uleb128 0x4
 8911 2465 7D       		.byte	0x7d
 8912 2466 10       		.sleb128 16
 8913 2467 94       		.byte	0x94
 8914 2468 02       		.byte	0x2
 8915 2469 36       		.uleb128 0x36
 8916 246a 02       		.uleb128 0x2
 8917 246b 7D       		.byte	0x7d
 8918 246c 04       		.sleb128 4
 8919 246d 02       		.uleb128 0x2
 8920 246e 79       		.byte	0x79
 8921 246f 00       		.sleb128 0
 8922 2470 00       		.byte	0
 8923 2471 00       		.byte	0
 8924 2472 11       		.uleb128 0x11
 8925 2473 04       		.byte	0x4
 8926 2474 24170000 		.4byte	0x1724
 8927 2478 2D       		.uleb128 0x2d
 8928 2479 86090000 		.4byte	.LASF519
 8929 247d 01       		.byte	0x1
 8930 247e 5902     		.2byte	0x259
ARM GAS  C:\Users\haske\AppData\Local\Temp\ccydbpJh.s 			page 194


 8931 2480 00000000 		.4byte	.LFB164
 8932 2484 42010000 		.4byte	.LFE164-.LFB164
 8933 2488 01       		.uleb128 0x1
 8934 2489 9C       		.byte	0x9c
 8935 248a D0250000 		.4byte	0x25d0
 8936 248e 2E       		.uleb128 0x2e
 8937 248f F8080000 		.4byte	.LASF498
 8938 2493 01       		.byte	0x1
 8939 2494 5902     		.2byte	0x259
 8940 2496 D7090000 		.4byte	0x9d7
 8941 249a 430E0000 		.4byte	.LLST77
 8942 249e 2E       		.uleb128 0x2e
 8943 249f 20130000 		.4byte	.LASF499
 8944 24a3 01       		.byte	0x1
 8945 24a4 5902     		.2byte	0x259
 8946 24a6 D8080000 		.4byte	0x8d8
 8947 24aa 620E0000 		.4byte	.LLST78
 8948 24ae 2E       		.uleb128 0x2e
 8949 24af 960B0000 		.4byte	.LASF500
 8950 24b3 01       		.byte	0x1
 8951 24b4 5902     		.2byte	0x259
 8952 24b6 0D020000 		.4byte	0x20d
 8953 24ba A40E0000 		.4byte	.LLST79
 8954 24be 2E       		.uleb128 0x2e
 8955 24bf 06170000 		.4byte	.LASF198
 8956 24c3 01       		.byte	0x1
 8957 24c4 5A02     		.2byte	0x25a
 8958 24c6 E3080000 		.4byte	0x8e3
 8959 24ca C50E0000 		.4byte	.LLST80
 8960 24ce 2E       		.uleb128 0x2e
 8961 24cf F7020000 		.4byte	.LASF510
 8962 24d3 01       		.byte	0x1
 8963 24d4 5A02     		.2byte	0x25a
 8964 24d6 0D020000 		.4byte	0x20d
 8965 24da E30E0000 		.4byte	.LLST81
 8966 24de 2F       		.uleb128 0x2f
 8967 24df 6F706100 		.ascii	"opa\000"
 8968 24e3 01       		.byte	0x1
 8969 24e4 5A02     		.2byte	0x25a
 8970 24e6 02020000 		.4byte	0x202
 8971 24ea 0F0F0000 		.4byte	.LLST82
 8972 24ee 2E       		.uleb128 0x2e
 8973 24ef BC100000 		.4byte	.LASF501
 8974 24f3 01       		.byte	0x1
 8975 24f4 5A02     		.2byte	0x25a
 8976 24f6 64080000 		.4byte	0x864
 8977 24fa 530F0000 		.4byte	.LLST83
 8978 24fe 2E       		.uleb128 0x2e
 8979 24ff 71090000 		.4byte	.LASF502
 8980 2503 01       		.byte	0x1
 8981 2504 5A02     		.2byte	0x25a
 8982 2506 0D020000 		.4byte	0x20d
 8983 250a 950F0000 		.4byte	.LLST84
 8984 250e 31       		.uleb128 0x31
 8985 250f AC110000 		.4byte	.LASF518
 8986 2513 01       		.byte	0x1
 8987 2514 5D02     		.2byte	0x25d
ARM GAS  C:\Users\haske\AppData\Local\Temp\ccydbpJh.s 			page 195


 8988 2516 72240000 		.4byte	0x2472
 8989 251a D90F0000 		.4byte	.LLST85
 8990 251e 30       		.uleb128 0x30
 8991 251f 7700     		.ascii	"w\000"
 8992 2521 01       		.byte	0x1
 8993 2522 5F02     		.2byte	0x25f
 8994 2524 E4000000 		.4byte	0xe4
 8995 2528 0D100000 		.4byte	.LLST86
 8996 252c 30       		.uleb128 0x30
 8997 252d 6800     		.ascii	"h\000"
 8998 252f 01       		.byte	0x1
 8999 2530 6002     		.2byte	0x260
 9000 2532 E4000000 		.4byte	0xe4
 9001 2536 41100000 		.4byte	.LLST87
 9002 253a 30       		.uleb128 0x30
 9003 253b 7800     		.ascii	"x\000"
 9004 253d 01       		.byte	0x1
 9005 253e 6202     		.2byte	0x262
 9006 2540 E4000000 		.4byte	0xe4
 9007 2544 77100000 		.4byte	.LLST88
 9008 2548 30       		.uleb128 0x30
 9009 2549 7900     		.ascii	"y\000"
 9010 254b 01       		.byte	0x1
 9011 254c 6302     		.2byte	0x263
 9012 254e E4000000 		.4byte	0xe4
 9013 2552 AB100000 		.4byte	.LLST89
 9014 2556 32       		.uleb128 0x32
 9015 2557 031C0000 		.4byte	0x1c03
 9016 255b 34000000 		.4byte	.LBB122
 9017 255f 0C000000 		.4byte	.LBE122-.LBB122
 9018 2563 01       		.byte	0x1
 9019 2564 5F02     		.2byte	0x25f
 9020 2566 74250000 		.4byte	0x2574
 9021 256a 33       		.uleb128 0x33
 9022 256b 131C0000 		.4byte	0x1c13
 9023 256f 16110000 		.4byte	.LLST90
 9024 2573 00       		.byte	0
 9025 2574 32       		.uleb128 0x32
 9026 2575 E71B0000 		.4byte	0x1be7
 9027 2579 42000000 		.4byte	.LBB124
 9028 257d 0C000000 		.4byte	.LBE124-.LBB124
 9029 2581 01       		.byte	0x1
 9030 2582 6002     		.2byte	0x260
 9031 2584 92250000 		.4byte	0x2592
 9032 2588 33       		.uleb128 0x33
 9033 2589 F71B0000 		.4byte	0x1bf7
 9034 258d 29110000 		.4byte	.LLST91
 9035 2591 00       		.byte	0
 9036 2592 46       		.uleb128 0x46
 9037 2593 32000000 		.4byte	.LVL217
 9038 2597 4E320000 		.4byte	0x324e
 9039 259b 35       		.uleb128 0x35
 9040 259c 92000000 		.4byte	.LVL226
 9041 25a0 02       		.uleb128 0x2
 9042 25a1 76       		.byte	0x76
 9043 25a2 00       		.sleb128 0
 9044 25a3 B7250000 		.4byte	0x25b7
ARM GAS  C:\Users\haske\AppData\Local\Temp\ccydbpJh.s 			page 196


 9045 25a7 36       		.uleb128 0x36
 9046 25a8 01       		.uleb128 0x1
 9047 25a9 51       		.byte	0x51
 9048 25aa 03       		.uleb128 0x3
 9049 25ab 91       		.byte	0x91
 9050 25ac 40       		.sleb128 -64
 9051 25ad 06       		.byte	0x6
 9052 25ae 36       		.uleb128 0x36
 9053 25af 01       		.uleb128 0x1
 9054 25b0 52       		.byte	0x52
 9055 25b1 04       		.uleb128 0x4
 9056 25b2 91       		.byte	0x91
 9057 25b3 44       		.sleb128 -60
 9058 25b4 94       		.byte	0x94
 9059 25b5 02       		.byte	0x2
 9060 25b6 00       		.byte	0
 9061 25b7 45       		.uleb128 0x45
 9062 25b8 0A010000 		.4byte	.LVL238
 9063 25bc 02       		.uleb128 0x2
 9064 25bd 79       		.byte	0x79
 9065 25be 00       		.sleb128 0
 9066 25bf 36       		.uleb128 0x36
 9067 25c0 01       		.uleb128 0x1
 9068 25c1 51       		.byte	0x51
 9069 25c2 03       		.uleb128 0x3
 9070 25c3 91       		.byte	0x91
 9071 25c4 40       		.sleb128 -64
 9072 25c5 06       		.byte	0x6
 9073 25c6 36       		.uleb128 0x36
 9074 25c7 01       		.uleb128 0x1
 9075 25c8 52       		.byte	0x52
 9076 25c9 04       		.uleb128 0x4
 9077 25ca 91       		.byte	0x91
 9078 25cb 44       		.sleb128 -60
 9079 25cc 94       		.byte	0x94
 9080 25cd 02       		.byte	0x2
 9081 25ce 00       		.byte	0
 9082 25cf 00       		.byte	0
 9083 25d0 3F       		.uleb128 0x3f
 9084 25d1 66050000 		.4byte	.LASF520
 9085 25d5 01       		.byte	0x1
 9086 25d6 F0       		.byte	0xf0
 9087 25d7 00000000 		.4byte	.LFB162
 9088 25db 98040000 		.4byte	.LFE162-.LFB162
 9089 25df 01       		.uleb128 0x1
 9090 25e0 9C       		.byte	0x9c
 9091 25e1 EC2A0000 		.4byte	0x2aec
 9092 25e5 40       		.uleb128 0x40
 9093 25e6 F8080000 		.4byte	.LASF498
 9094 25ea 01       		.byte	0x1
 9095 25eb F0       		.byte	0xf0
 9096 25ec D7090000 		.4byte	0x9d7
 9097 25f0 3C110000 		.4byte	.LLST92
 9098 25f4 40       		.uleb128 0x40
 9099 25f5 20130000 		.4byte	.LASF499
 9100 25f9 01       		.byte	0x1
 9101 25fa F0       		.byte	0xf0
ARM GAS  C:\Users\haske\AppData\Local\Temp\ccydbpJh.s 			page 197


 9102 25fb D8080000 		.4byte	0x8d8
 9103 25ff 12120000 		.4byte	.LLST93
 9104 2603 40       		.uleb128 0x40
 9105 2604 960B0000 		.4byte	.LASF500
 9106 2608 01       		.byte	0x1
 9107 2609 F1       		.byte	0xf1
 9108 260a 0D020000 		.4byte	0x20d
 9109 260e 33120000 		.4byte	.LLST94
 9110 2612 40       		.uleb128 0x40
 9111 2613 A5170000 		.4byte	.LASF84
 9112 2617 01       		.byte	0x1
 9113 2618 F1       		.byte	0xf1
 9114 2619 F7010000 		.4byte	0x1f7
 9115 261d 54120000 		.4byte	.LLST95
 9116 2621 41       		.uleb128 0x41
 9117 2622 6F706100 		.ascii	"opa\000"
 9118 2626 01       		.byte	0x1
 9119 2627 F1       		.byte	0xf1
 9120 2628 02020000 		.4byte	0x202
 9121 262c D5120000 		.4byte	.LLST96
 9122 2630 40       		.uleb128 0x40
 9123 2631 BC100000 		.4byte	.LASF501
 9124 2635 01       		.byte	0x1
 9125 2636 F1       		.byte	0xf1
 9126 2637 64080000 		.4byte	0x864
 9127 263b 5B130000 		.4byte	.LLST97
 9128 263f 40       		.uleb128 0x40
 9129 2640 71090000 		.4byte	.LASF502
 9130 2644 01       		.byte	0x1
 9131 2645 F1       		.byte	0xf1
 9132 2646 0D020000 		.4byte	0x20d
 9133 264a DB130000 		.4byte	.LLST98
 9134 264e 43       		.uleb128 0x43
 9135 264f 7700     		.ascii	"w\000"
 9136 2651 01       		.byte	0x1
 9137 2652 F3       		.byte	0xf3
 9138 2653 E4000000 		.4byte	0xe4
 9139 2657 1F140000 		.4byte	.LLST99
 9140 265b 43       		.uleb128 0x43
 9141 265c 6800     		.ascii	"h\000"
 9142 265e 01       		.byte	0x1
 9143 265f F4       		.byte	0xf4
 9144 2660 E4000000 		.4byte	0xe4
 9145 2664 B6140000 		.4byte	.LLST100
 9146 2668 43       		.uleb128 0x43
 9147 2669 7800     		.ascii	"x\000"
 9148 266b 01       		.byte	0x1
 9149 266c F6       		.byte	0xf6
 9150 266d E4000000 		.4byte	0xe4
 9151 2671 EC140000 		.4byte	.LLST101
 9152 2675 43       		.uleb128 0x43
 9153 2676 7900     		.ascii	"y\000"
 9154 2678 01       		.byte	0x1
 9155 2679 F7       		.byte	0xf7
 9156 267a E4000000 		.4byte	0xe4
 9157 267e 36150000 		.4byte	.LLST102
 9158 2682 44       		.uleb128 0x44
ARM GAS  C:\Users\haske\AppData\Local\Temp\ccydbpJh.s 			page 198


 9159 2683 031C0000 		.4byte	0x1c03
 9160 2687 24000000 		.4byte	.LBB126
 9161 268b 0E000000 		.4byte	.LBE126-.LBB126
 9162 268f 01       		.byte	0x1
 9163 2690 F3       		.byte	0xf3
 9164 2691 9F260000 		.4byte	0x269f
 9165 2695 33       		.uleb128 0x33
 9166 2696 131C0000 		.4byte	0x1c13
 9167 269a D4150000 		.4byte	.LLST103
 9168 269e 00       		.byte	0
 9169 269f 44       		.uleb128 0x44
 9170 26a0 E71B0000 		.4byte	0x1be7
 9171 26a4 34000000 		.4byte	.LBB128
 9172 26a8 0C000000 		.4byte	.LBE128-.LBB128
 9173 26ac 01       		.byte	0x1
 9174 26ad F4       		.byte	0xf4
 9175 26ae BC260000 		.4byte	0x26bc
 9176 26b2 33       		.uleb128 0x33
 9177 26b3 F71B0000 		.4byte	0x1bf7
 9178 26b7 E7150000 		.4byte	.LLST104
 9179 26bb 00       		.byte	0
 9180 26bc 34       		.uleb128 0x34
 9181 26bd 7E000000 		.4byte	.LBB130
 9182 26c1 04010000 		.4byte	.LBE130-.LBB130
 9183 26c5 BF270000 		.4byte	0x27bf
 9184 26c9 31       		.uleb128 0x31
 9185 26ca 340D0000 		.4byte	.LASF504
 9186 26ce 01       		.byte	0x1
 9187 26cf 0301     		.2byte	0x103
 9188 26d1 F7010000 		.4byte	0x1f7
 9189 26d5 08160000 		.4byte	.LLST105
 9190 26d9 31       		.uleb128 0x31
 9191 26da E51E0000 		.4byte	.LASF505
 9192 26de 01       		.byte	0x1
 9193 26df 0401     		.2byte	0x104
 9194 26e1 F7010000 		.4byte	0x1f7
 9195 26e5 1B160000 		.4byte	.LLST106
 9196 26e9 29       		.uleb128 0x29
 9197 26ea 401E0000 		.4byte	.LASF521
 9198 26ee 01       		.byte	0x1
 9199 26ef 0E01     		.2byte	0x10e
 9200 26f1 EC2A0000 		.4byte	0x2aec
 9201 26f5 31       		.uleb128 0x31
 9202 26f6 91130000 		.4byte	.LASF522
 9203 26fa 01       		.byte	0x1
 9204 26fb 1001     		.2byte	0x110
 9205 26fd 02020000 		.4byte	0x202
 9206 2701 86160000 		.4byte	.LLST107
 9207 2705 32       		.uleb128 0x32
 9208 2706 1F1C0000 		.4byte	0x1c1f
 9209 270a 7E000000 		.4byte	.LBB131
 9210 270e 1E000000 		.4byte	.LBE131-.LBB131
 9211 2712 01       		.byte	0x1
 9212 2713 0401     		.2byte	0x104
 9213 2715 57270000 		.4byte	0x2757
 9214 2719 33       		.uleb128 0x33
 9215 271a 461C0000 		.4byte	0x1c46
ARM GAS  C:\Users\haske\AppData\Local\Temp\ccydbpJh.s 			page 199


 9216 271e 99160000 		.4byte	.LLST108
 9217 2722 3C       		.uleb128 0x3c
 9218 2723 3B1C0000 		.4byte	0x1c3b
 9219 2727 3C       		.uleb128 0x3c
 9220 2728 301C0000 		.4byte	0x1c30
 9221 272c 38       		.uleb128 0x38
 9222 272d 7E000000 		.4byte	.LBB132
 9223 2731 1E000000 		.4byte	.LBE132-.LBB132
 9224 2735 3D       		.uleb128 0x3d
 9225 2736 521C0000 		.4byte	0x1c52
 9226 273a 3E       		.uleb128 0x3e
 9227 273b 5E1C0000 		.4byte	0x1c5e
 9228 273f B7160000 		.4byte	.LLST109
 9229 2743 3E       		.uleb128 0x3e
 9230 2744 691C0000 		.4byte	0x1c69
 9231 2748 CB160000 		.4byte	.LLST110
 9232 274c 3E       		.uleb128 0x3e
 9233 274d 741C0000 		.4byte	0x1c74
 9234 2751 0B170000 		.4byte	.LLST111
 9235 2755 00       		.byte	0
 9236 2756 00       		.byte	0
 9237 2757 32       		.uleb128 0x32
 9238 2758 811C0000 		.4byte	0x1c81
 9239 275c A2000000 		.4byte	.LBB133
 9240 2760 18000000 		.4byte	.LBE133-.LBB133
 9241 2764 01       		.byte	0x1
 9242 2765 0F01     		.2byte	0x10f
 9243 2767 83270000 		.4byte	0x2783
 9244 276b 33       		.uleb128 0x33
 9245 276c A41C0000 		.4byte	0x1ca4
 9246 2770 1E170000 		.4byte	.LLST112
 9247 2774 33       		.uleb128 0x33
 9248 2775 981C0000 		.4byte	0x1c98
 9249 2779 36170000 		.4byte	.LLST113
 9250 277d 3C       		.uleb128 0x3c
 9251 277e 8E1C0000 		.4byte	0x1c8e
 9252 2782 00       		.byte	0
 9253 2783 3B       		.uleb128 0x3b
 9254 2784 BE1C0000 		.4byte	0x1cbe
 9255 2788 E4000000 		.4byte	.LBB135
 9256 278c 64000000 		.4byte	.LBE135-.LBB135
 9257 2790 01       		.byte	0x1
 9258 2791 1601     		.2byte	0x116
 9259 2793 33       		.uleb128 0x33
 9260 2794 E61C0000 		.4byte	0x1ce6
 9261 2798 49170000 		.4byte	.LLST114
 9262 279c 3C       		.uleb128 0x3c
 9263 279d DB1C0000 		.4byte	0x1cdb
 9264 27a1 33       		.uleb128 0x33
 9265 27a2 CF1C0000 		.4byte	0x1ccf
 9266 27a6 5C170000 		.4byte	.LLST115
 9267 27aa 38       		.uleb128 0x38
 9268 27ab E4000000 		.4byte	.LBB136
 9269 27af 64000000 		.4byte	.LBE136-.LBB136
 9270 27b3 3E       		.uleb128 0x3e
 9271 27b4 F21C0000 		.4byte	0x1cf2
 9272 27b8 74170000 		.4byte	.LLST116
ARM GAS  C:\Users\haske\AppData\Local\Temp\ccydbpJh.s 			page 200


 9273 27bc 00       		.byte	0
 9274 27bd 00       		.byte	0
 9275 27be 00       		.byte	0
 9276 27bf 34       		.uleb128 0x34
 9277 27c0 82010000 		.4byte	.LBB137
 9278 27c4 02030000 		.4byte	.LBE137-.LBB137
 9279 27c8 CD2A0000 		.4byte	0x2acd
 9280 27cc 30       		.uleb128 0x30
 9281 27cd 63333200 		.ascii	"c32\000"
 9282 27d1 01       		.byte	0x1
 9283 27d2 2101     		.2byte	0x121
 9284 27d4 EF000000 		.4byte	0xef
 9285 27d8 B3170000 		.4byte	.LLST117
 9286 27dc 34       		.uleb128 0x34
 9287 27dd 92010000 		.4byte	.LBB138
 9288 27e1 2A020000 		.4byte	.LBE138-.LBB138
 9289 27e5 342A0000 		.4byte	0x2a34
 9290 27e9 31       		.uleb128 0x31
 9291 27ea 23060000 		.4byte	.LASF523
 9292 27ee 01       		.byte	0x1
 9293 27ef 2501     		.2byte	0x125
 9294 27f1 E4000000 		.4byte	0xe4
 9295 27f5 3B180000 		.4byte	.LLST118
 9296 27f9 32       		.uleb128 0x32
 9297 27fa 1F1C0000 		.4byte	0x1c1f
 9298 27fe AE010000 		.4byte	.LBB139
 9299 2802 2E000000 		.4byte	.LBE139-.LBB139
 9300 2806 01       		.byte	0x1
 9301 2807 2801     		.2byte	0x128
 9302 2809 4B280000 		.4byte	0x284b
 9303 280d 33       		.uleb128 0x33
 9304 280e 461C0000 		.4byte	0x1c46
 9305 2812 66180000 		.4byte	.LLST119
 9306 2816 3C       		.uleb128 0x3c
 9307 2817 3B1C0000 		.4byte	0x1c3b
 9308 281b 3C       		.uleb128 0x3c
 9309 281c 301C0000 		.4byte	0x1c30
 9310 2820 38       		.uleb128 0x38
 9311 2821 AE010000 		.4byte	.LBB140
 9312 2825 2E000000 		.4byte	.LBE140-.LBB140
 9313 2829 3D       		.uleb128 0x3d
 9314 282a 521C0000 		.4byte	0x1c52
 9315 282e 3E       		.uleb128 0x3e
 9316 282f 5E1C0000 		.4byte	0x1c5e
 9317 2833 9A180000 		.4byte	.LLST120
 9318 2837 3E       		.uleb128 0x3e
 9319 2838 691C0000 		.4byte	0x1c69
 9320 283c CE180000 		.4byte	.LLST121
 9321 2840 3E       		.uleb128 0x3e
 9322 2841 741C0000 		.4byte	0x1c74
 9323 2845 0B190000 		.4byte	.LLST122
 9324 2849 00       		.byte	0
 9325 284a 00       		.byte	0
 9326 284b 34       		.uleb128 0x34
 9327 284c 00020000 		.4byte	.LBB141
 9328 2850 2E010000 		.4byte	.LBE141-.LBB141
 9329 2854 E5290000 		.4byte	0x29e5
ARM GAS  C:\Users\haske\AppData\Local\Temp\ccydbpJh.s 			page 201


 9330 2858 31       		.uleb128 0x31
 9331 2859 3A030000 		.4byte	.LASF524
 9332 285d 01       		.byte	0x1
 9333 285e 2C01     		.2byte	0x12c
 9334 2860 EF000000 		.4byte	0xef
 9335 2864 1E190000 		.4byte	.LLST123
 9336 2868 34       		.uleb128 0x34
 9337 2869 0A020000 		.4byte	.LBB142
 9338 286d 0A000000 		.4byte	.LBE142-.LBB142
 9339 2871 84280000 		.4byte	0x2884
 9340 2875 30       		.uleb128 0x30
 9341 2876 6400     		.ascii	"d\000"
 9342 2878 01       		.byte	0x1
 9343 2879 3101     		.2byte	0x131
 9344 287b 04090000 		.4byte	0x904
 9345 287f 6B190000 		.4byte	.LLST124
 9346 2883 00       		.byte	0
 9347 2884 34       		.uleb128 0x34
 9348 2885 16020000 		.4byte	.LBB143
 9349 2889 06000000 		.4byte	.LBE143-.LBB143
 9350 288d A0280000 		.4byte	0x28a0
 9351 2891 30       		.uleb128 0x30
 9352 2892 6400     		.ascii	"d\000"
 9353 2894 01       		.byte	0x1
 9354 2895 3601     		.2byte	0x136
 9355 2897 04090000 		.4byte	0x904
 9356 289b 8B190000 		.4byte	.LLST125
 9357 289f 00       		.byte	0
 9358 28a0 32       		.uleb128 0x32
 9359 28a1 1F1C0000 		.4byte	0x1c1f
 9360 28a5 32020000 		.4byte	.LBB144
 9361 28a9 36000000 		.4byte	.LBE144-.LBB144
 9362 28ad 01       		.byte	0x1
 9363 28ae 4401     		.2byte	0x144
 9364 28b0 F2280000 		.4byte	0x28f2
 9365 28b4 33       		.uleb128 0x33
 9366 28b5 461C0000 		.4byte	0x1c46
 9367 28b9 9E190000 		.4byte	.LLST126
 9368 28bd 3C       		.uleb128 0x3c
 9369 28be 3B1C0000 		.4byte	0x1c3b
 9370 28c2 3C       		.uleb128 0x3c
 9371 28c3 301C0000 		.4byte	0x1c30
 9372 28c7 38       		.uleb128 0x38
 9373 28c8 32020000 		.4byte	.LBB145
 9374 28cc 36000000 		.4byte	.LBE145-.LBB145
 9375 28d0 3D       		.uleb128 0x3d
 9376 28d1 521C0000 		.4byte	0x1c52
 9377 28d5 3E       		.uleb128 0x3e
 9378 28d6 5E1C0000 		.4byte	0x1c5e
 9379 28da BC190000 		.4byte	.LLST127
 9380 28de 3E       		.uleb128 0x3e
 9381 28df 691C0000 		.4byte	0x1c69
 9382 28e3 F0190000 		.4byte	.LLST128
 9383 28e7 3E       		.uleb128 0x3e
 9384 28e8 741C0000 		.4byte	0x1c74
 9385 28ec 3D1A0000 		.4byte	.LLST129
 9386 28f0 00       		.byte	0
ARM GAS  C:\Users\haske\AppData\Local\Temp\ccydbpJh.s 			page 202


 9387 28f1 00       		.byte	0
 9388 28f2 32       		.uleb128 0x32
 9389 28f3 1F1C0000 		.4byte	0x1c1f
 9390 28f7 74020000 		.4byte	.LBB146
 9391 28fb 32000000 		.4byte	.LBE146-.LBB146
 9392 28ff 01       		.byte	0x1
 9393 2900 4501     		.2byte	0x145
 9394 2902 44290000 		.4byte	0x2944
 9395 2906 33       		.uleb128 0x33
 9396 2907 461C0000 		.4byte	0x1c46
 9397 290b 501A0000 		.4byte	.LLST130
 9398 290f 3C       		.uleb128 0x3c
 9399 2910 3B1C0000 		.4byte	0x1c3b
 9400 2914 3C       		.uleb128 0x3c
 9401 2915 301C0000 		.4byte	0x1c30
 9402 2919 38       		.uleb128 0x38
 9403 291a 74020000 		.4byte	.LBB147
 9404 291e 32000000 		.4byte	.LBE147-.LBB147
 9405 2922 3D       		.uleb128 0x3d
 9406 2923 521C0000 		.4byte	0x1c52
 9407 2927 3E       		.uleb128 0x3e
 9408 2928 5E1C0000 		.4byte	0x1c5e
 9409 292c 6E1A0000 		.4byte	.LLST131
 9410 2930 3E       		.uleb128 0x3e
 9411 2931 691C0000 		.4byte	0x1c69
 9412 2935 A21A0000 		.4byte	.LLST132
 9413 2939 3E       		.uleb128 0x3e
 9414 293a 741C0000 		.4byte	0x1c74
 9415 293e EF1A0000 		.4byte	.LLST133
 9416 2942 00       		.byte	0
 9417 2943 00       		.byte	0
 9418 2944 32       		.uleb128 0x32
 9419 2945 1F1C0000 		.4byte	0x1c1f
 9420 2949 B2020000 		.4byte	.LBB148
 9421 294d 32000000 		.4byte	.LBE148-.LBB148
 9422 2951 01       		.byte	0x1
 9423 2952 4601     		.2byte	0x146
 9424 2954 96290000 		.4byte	0x2996
 9425 2958 33       		.uleb128 0x33
 9426 2959 461C0000 		.4byte	0x1c46
 9427 295d 021B0000 		.4byte	.LLST134
 9428 2961 3C       		.uleb128 0x3c
 9429 2962 3B1C0000 		.4byte	0x1c3b
 9430 2966 3C       		.uleb128 0x3c
 9431 2967 301C0000 		.4byte	0x1c30
 9432 296b 38       		.uleb128 0x38
 9433 296c B2020000 		.4byte	.LBB149
 9434 2970 32000000 		.4byte	.LBE149-.LBB149
 9435 2974 3D       		.uleb128 0x3d
 9436 2975 521C0000 		.4byte	0x1c52
 9437 2979 3E       		.uleb128 0x3e
 9438 297a 5E1C0000 		.4byte	0x1c5e
 9439 297e 201B0000 		.4byte	.LLST135
 9440 2982 3E       		.uleb128 0x3e
 9441 2983 691C0000 		.4byte	0x1c69
 9442 2987 541B0000 		.4byte	.LLST136
 9443 298b 3E       		.uleb128 0x3e
ARM GAS  C:\Users\haske\AppData\Local\Temp\ccydbpJh.s 			page 203


 9444 298c 741C0000 		.4byte	0x1c74
 9445 2990 A11B0000 		.4byte	.LLST137
 9446 2994 00       		.byte	0
 9447 2995 00       		.byte	0
 9448 2996 3B       		.uleb128 0x3b
 9449 2997 1F1C0000 		.4byte	0x1c1f
 9450 299b F0020000 		.4byte	.LBB150
 9451 299f 32000000 		.4byte	.LBE150-.LBB150
 9452 29a3 01       		.byte	0x1
 9453 29a4 4701     		.2byte	0x147
 9454 29a6 33       		.uleb128 0x33
 9455 29a7 461C0000 		.4byte	0x1c46
 9456 29ab B41B0000 		.4byte	.LLST138
 9457 29af 3C       		.uleb128 0x3c
 9458 29b0 3B1C0000 		.4byte	0x1c3b
 9459 29b4 3C       		.uleb128 0x3c
 9460 29b5 301C0000 		.4byte	0x1c30
 9461 29b9 38       		.uleb128 0x38
 9462 29ba F0020000 		.4byte	.LBB151
 9463 29be 32000000 		.4byte	.LBE151-.LBB151
 9464 29c2 3D       		.uleb128 0x3d
 9465 29c3 521C0000 		.4byte	0x1c52
 9466 29c7 3E       		.uleb128 0x3e
 9467 29c8 5E1C0000 		.4byte	0x1c5e
 9468 29cc D21B0000 		.4byte	.LLST139
 9469 29d0 3E       		.uleb128 0x3e
 9470 29d1 691C0000 		.4byte	0x1c69
 9471 29d5 061C0000 		.4byte	.LLST140
 9472 29d9 3E       		.uleb128 0x3e
 9473 29da 741C0000 		.4byte	0x1c74
 9474 29de 531C0000 		.4byte	.LLST141
 9475 29e2 00       		.byte	0
 9476 29e3 00       		.byte	0
 9477 29e4 00       		.byte	0
 9478 29e5 3B       		.uleb128 0x3b
 9479 29e6 1F1C0000 		.4byte	0x1c1f
 9480 29ea 62030000 		.4byte	.LBB152
 9481 29ee 2E000000 		.4byte	.LBE152-.LBB152
 9482 29f2 01       		.byte	0x1
 9483 29f3 5001     		.2byte	0x150
 9484 29f5 33       		.uleb128 0x33
 9485 29f6 461C0000 		.4byte	0x1c46
 9486 29fa 661C0000 		.4byte	.LLST142
 9487 29fe 3C       		.uleb128 0x3c
 9488 29ff 3B1C0000 		.4byte	0x1c3b
 9489 2a03 3C       		.uleb128 0x3c
 9490 2a04 301C0000 		.4byte	0x1c30
 9491 2a08 38       		.uleb128 0x38
 9492 2a09 62030000 		.4byte	.LBB153
 9493 2a0d 2E000000 		.4byte	.LBE153-.LBB153
 9494 2a11 3D       		.uleb128 0x3d
 9495 2a12 521C0000 		.4byte	0x1c52
 9496 2a16 3E       		.uleb128 0x3e
 9497 2a17 5E1C0000 		.4byte	0x1c5e
 9498 2a1b 9A1C0000 		.4byte	.LLST143
 9499 2a1f 3E       		.uleb128 0x3e
 9500 2a20 691C0000 		.4byte	0x1c69
ARM GAS  C:\Users\haske\AppData\Local\Temp\ccydbpJh.s 			page 204


 9501 2a24 CE1C0000 		.4byte	.LLST144
 9502 2a28 3E       		.uleb128 0x3e
 9503 2a29 741C0000 		.4byte	0x1c74
 9504 2a2d 0B1D0000 		.4byte	.LLST145
 9505 2a31 00       		.byte	0
 9506 2a32 00       		.byte	0
 9507 2a33 00       		.byte	0
 9508 2a34 38       		.uleb128 0x38
 9509 2a35 BC030000 		.4byte	.LBB154
 9510 2a39 C8000000 		.4byte	.LBE154-.LBB154
 9511 2a3d 31       		.uleb128 0x31
 9512 2a3e 340D0000 		.4byte	.LASF504
 9513 2a42 01       		.byte	0x1
 9514 2a43 5901     		.2byte	0x159
 9515 2a45 F7010000 		.4byte	0x1f7
 9516 2a49 1E1D0000 		.4byte	.LLST146
 9517 2a4d 31       		.uleb128 0x31
 9518 2a4e E51E0000 		.4byte	.LASF505
 9519 2a52 01       		.byte	0x1
 9520 2a53 5A01     		.2byte	0x15a
 9521 2a55 F7010000 		.4byte	0x1f7
 9522 2a59 521D0000 		.4byte	.LLST147
 9523 2a5d 31       		.uleb128 0x31
 9524 2a5e 681D0000 		.4byte	.LASF506
 9525 2a62 01       		.byte	0x1
 9526 2a63 5B01     		.2byte	0x15b
 9527 2a65 02020000 		.4byte	0x202
 9528 2a69 7B1D0000 		.4byte	.LLST148
 9529 2a6d 31       		.uleb128 0x31
 9530 2a6e 68190000 		.4byte	.LASF507
 9531 2a72 01       		.byte	0x1
 9532 2a73 5E01     		.2byte	0x15e
 9533 2a75 02020000 		.4byte	0x202
 9534 2a79 A51D0000 		.4byte	.LLST149
 9535 2a7d 3B       		.uleb128 0x3b
 9536 2a7e 1F1C0000 		.4byte	0x1c1f
 9537 2a82 1A040000 		.4byte	.LBB155
 9538 2a86 34000000 		.4byte	.LBE155-.LBB155
 9539 2a8a 01       		.byte	0x1
 9540 2a8b 6701     		.2byte	0x167
 9541 2a8d 33       		.uleb128 0x33
 9542 2a8e 461C0000 		.4byte	0x1c46
 9543 2a92 CF1D0000 		.4byte	.LLST150
 9544 2a96 3C       		.uleb128 0x3c
 9545 2a97 3B1C0000 		.4byte	0x1c3b
 9546 2a9b 3C       		.uleb128 0x3c
 9547 2a9c 301C0000 		.4byte	0x1c30
 9548 2aa0 38       		.uleb128 0x38
 9549 2aa1 1A040000 		.4byte	.LBB156
 9550 2aa5 34000000 		.4byte	.LBE156-.LBB156
 9551 2aa9 3D       		.uleb128 0x3d
 9552 2aaa 521C0000 		.4byte	0x1c52
 9553 2aae 3E       		.uleb128 0x3e
 9554 2aaf 5E1C0000 		.4byte	0x1c5e
 9555 2ab3 FC1D0000 		.4byte	.LLST151
 9556 2ab7 3E       		.uleb128 0x3e
 9557 2ab8 691C0000 		.4byte	0x1c69
ARM GAS  C:\Users\haske\AppData\Local\Temp\ccydbpJh.s 			page 205


 9558 2abc 3A1E0000 		.4byte	.LLST152
 9559 2ac0 3E       		.uleb128 0x3e
 9560 2ac1 741C0000 		.4byte	0x1c74
 9561 2ac5 771E0000 		.4byte	.LLST153
 9562 2ac9 00       		.byte	0
 9563 2aca 00       		.byte	0
 9564 2acb 00       		.byte	0
 9565 2acc 00       		.byte	0
 9566 2acd 47       		.uleb128 0x47
 9567 2ace 5E000000 		.4byte	.LVL261
 9568 2ad2 59320000 		.4byte	0x3259
 9569 2ad6 36       		.uleb128 0x36
 9570 2ad7 01       		.uleb128 0x1
 9571 2ad8 50       		.byte	0x50
 9572 2ad9 02       		.uleb128 0x2
 9573 2ada 76       		.byte	0x76
 9574 2adb 00       		.sleb128 0
 9575 2adc 36       		.uleb128 0x36
 9576 2add 01       		.uleb128 0x1
 9577 2ade 51       		.byte	0x51
 9578 2adf 04       		.uleb128 0x4
 9579 2ae0 7D       		.byte	0x7d
 9580 2ae1 00       		.sleb128 0
 9581 2ae2 94       		.byte	0x94
 9582 2ae3 02       		.byte	0x2
 9583 2ae4 36       		.uleb128 0x36
 9584 2ae5 01       		.uleb128 0x1
 9585 2ae6 52       		.byte	0x52
 9586 2ae7 02       		.uleb128 0x2
 9587 2ae8 78       		.byte	0x78
 9588 2ae9 00       		.sleb128 0
 9589 2aea 00       		.byte	0
 9590 2aeb 00       		.byte	0
 9591 2aec 16       		.uleb128 0x16
 9592 2aed D9000000 		.4byte	0xd9
 9593 2af1 FC2A0000 		.4byte	0x2afc
 9594 2af5 17       		.uleb128 0x17
 9595 2af6 2D010000 		.4byte	0x12d
 9596 2afa 02       		.byte	0x2
 9597 2afb 00       		.byte	0
 9598 2afc 2D       		.uleb128 0x2d
 9599 2afd 7D130000 		.4byte	.LASF525
 9600 2b01 01       		.byte	0x1
 9601 2b02 7C02     		.2byte	0x27c
 9602 2b04 00000000 		.4byte	.LFB165
 9603 2b08 AC040000 		.4byte	.LFE165-.LFB165
 9604 2b0c 01       		.uleb128 0x1
 9605 2b0d 9C       		.byte	0x9c
 9606 2b0e 0F2F0000 		.4byte	0x2f0f
 9607 2b12 2E       		.uleb128 0x2e
 9608 2b13 F8080000 		.4byte	.LASF498
 9609 2b17 01       		.byte	0x1
 9610 2b18 7C02     		.2byte	0x27c
 9611 2b1a D7090000 		.4byte	0x9d7
 9612 2b1e 8A1E0000 		.4byte	.LLST154
 9613 2b22 2E       		.uleb128 0x2e
 9614 2b23 20130000 		.4byte	.LASF499
ARM GAS  C:\Users\haske\AppData\Local\Temp\ccydbpJh.s 			page 206


 9615 2b27 01       		.byte	0x1
 9616 2b28 7C02     		.2byte	0x27c
 9617 2b2a D8080000 		.4byte	0x8d8
 9618 2b2e 751F0000 		.4byte	.LLST155
 9619 2b32 2E       		.uleb128 0x2e
 9620 2b33 960B0000 		.4byte	.LASF500
 9621 2b37 01       		.byte	0x1
 9622 2b38 7C02     		.2byte	0x27c
 9623 2b3a 0D020000 		.4byte	0x20d
 9624 2b3e 961F0000 		.4byte	.LLST156
 9625 2b42 2E       		.uleb128 0x2e
 9626 2b43 06170000 		.4byte	.LASF198
 9627 2b47 01       		.byte	0x1
 9628 2b48 7D02     		.2byte	0x27d
 9629 2b4a E3080000 		.4byte	0x8e3
 9630 2b4e B71F0000 		.4byte	.LLST157
 9631 2b52 2E       		.uleb128 0x2e
 9632 2b53 F7020000 		.4byte	.LASF510
 9633 2b57 01       		.byte	0x1
 9634 2b58 7D02     		.2byte	0x27d
 9635 2b5a 0D020000 		.4byte	0x20d
 9636 2b5e 82200000 		.4byte	.LLST158
 9637 2b62 2F       		.uleb128 0x2f
 9638 2b63 6F706100 		.ascii	"opa\000"
 9639 2b67 01       		.byte	0x1
 9640 2b68 7D02     		.2byte	0x27d
 9641 2b6a 02020000 		.4byte	0x202
 9642 2b6e AE200000 		.4byte	.LLST159
 9643 2b72 2E       		.uleb128 0x2e
 9644 2b73 BC100000 		.4byte	.LASF501
 9645 2b77 01       		.byte	0x1
 9646 2b78 7D02     		.2byte	0x27d
 9647 2b7a 64080000 		.4byte	0x864
 9648 2b7e F2200000 		.4byte	.LLST160
 9649 2b82 2E       		.uleb128 0x2e
 9650 2b83 71090000 		.4byte	.LASF502
 9651 2b87 01       		.byte	0x1
 9652 2b88 7D02     		.2byte	0x27d
 9653 2b8a 0D020000 		.4byte	0x20d
 9654 2b8e 63210000 		.4byte	.LLST161
 9655 2b92 30       		.uleb128 0x30
 9656 2b93 7700     		.ascii	"w\000"
 9657 2b95 01       		.byte	0x1
 9658 2b96 8002     		.2byte	0x280
 9659 2b98 E4000000 		.4byte	0xe4
 9660 2b9c A7210000 		.4byte	.LLST162
 9661 2ba0 30       		.uleb128 0x30
 9662 2ba1 6800     		.ascii	"h\000"
 9663 2ba3 01       		.byte	0x1
 9664 2ba4 8102     		.2byte	0x281
 9665 2ba6 E4000000 		.4byte	0xe4
 9666 2baa 96220000 		.4byte	.LLST163
 9667 2bae 30       		.uleb128 0x30
 9668 2baf 7800     		.ascii	"x\000"
 9669 2bb1 01       		.byte	0x1
 9670 2bb2 8302     		.2byte	0x283
 9671 2bb4 E4000000 		.4byte	0xe4
ARM GAS  C:\Users\haske\AppData\Local\Temp\ccydbpJh.s 			page 207


 9672 2bb8 CC220000 		.4byte	.LLST164
 9673 2bbc 30       		.uleb128 0x30
 9674 2bbd 7900     		.ascii	"y\000"
 9675 2bbf 01       		.byte	0x1
 9676 2bc0 8402     		.2byte	0x284
 9677 2bc2 E4000000 		.4byte	0xe4
 9678 2bc6 2C230000 		.4byte	.LLST165
 9679 2bca 32       		.uleb128 0x32
 9680 2bcb 031C0000 		.4byte	0x1c03
 9681 2bcf 2E000000 		.4byte	.LBB157
 9682 2bd3 0E000000 		.4byte	.LBE157-.LBB157
 9683 2bd7 01       		.byte	0x1
 9684 2bd8 8002     		.2byte	0x280
 9685 2bda E82B0000 		.4byte	0x2be8
 9686 2bde 33       		.uleb128 0x33
 9687 2bdf 131C0000 		.4byte	0x1c13
 9688 2be3 82230000 		.4byte	.LLST166
 9689 2be7 00       		.byte	0
 9690 2be8 32       		.uleb128 0x32
 9691 2be9 E71B0000 		.4byte	0x1be7
 9692 2bed 3E000000 		.4byte	.LBB159
 9693 2bf1 0C000000 		.4byte	.LBE159-.LBB159
 9694 2bf5 01       		.byte	0x1
 9695 2bf6 8102     		.2byte	0x281
 9696 2bf8 062C0000 		.4byte	0x2c06
 9697 2bfc 33       		.uleb128 0x33
 9698 2bfd F71B0000 		.4byte	0x1bf7
 9699 2c01 95230000 		.4byte	.LLST167
 9700 2c05 00       		.byte	0
 9701 2c06 32       		.uleb128 0x32
 9702 2c07 1F1C0000 		.4byte	0x1c1f
 9703 2c0b 9C000000 		.4byte	.LBB161
 9704 2c0f 34000000 		.4byte	.LBE161-.LBB161
 9705 2c13 01       		.byte	0x1
 9706 2c14 9202     		.2byte	0x292
 9707 2c16 582C0000 		.4byte	0x2c58
 9708 2c1a 33       		.uleb128 0x33
 9709 2c1b 461C0000 		.4byte	0x1c46
 9710 2c1f B6230000 		.4byte	.LLST168
 9711 2c23 3C       		.uleb128 0x3c
 9712 2c24 3B1C0000 		.4byte	0x1c3b
 9713 2c28 3C       		.uleb128 0x3c
 9714 2c29 301C0000 		.4byte	0x1c30
 9715 2c2d 38       		.uleb128 0x38
 9716 2c2e 9C000000 		.4byte	.LBB162
 9717 2c32 34000000 		.4byte	.LBE162-.LBB162
 9718 2c36 3D       		.uleb128 0x3d
 9719 2c37 521C0000 		.4byte	0x1c52
 9720 2c3b 3E       		.uleb128 0x3e
 9721 2c3c 5E1C0000 		.4byte	0x1c5e
 9722 2c40 D5230000 		.4byte	.LLST169
 9723 2c44 3E       		.uleb128 0x3e
 9724 2c45 691C0000 		.4byte	0x1c69
 9725 2c49 09240000 		.4byte	.LLST170
 9726 2c4d 3E       		.uleb128 0x3e
 9727 2c4e 741C0000 		.4byte	0x1c74
 9728 2c52 60240000 		.4byte	.LLST171
ARM GAS  C:\Users\haske\AppData\Local\Temp\ccydbpJh.s 			page 208


 9729 2c56 00       		.byte	0
 9730 2c57 00       		.byte	0
 9731 2c58 34       		.uleb128 0x34
 9732 2c59 14010000 		.4byte	.LBB163
 9733 2c5d DC020000 		.4byte	.LBE163-.LBB163
 9734 2c61 842E0000 		.4byte	0x2e84
 9735 2c65 31       		.uleb128 0x31
 9736 2c66 23060000 		.4byte	.LASF523
 9737 2c6a 01       		.byte	0x1
 9738 2c6b 9D02     		.2byte	0x29d
 9739 2c6d E4000000 		.4byte	0xe4
 9740 2c71 73240000 		.4byte	.LLST172
 9741 2c75 48       		.uleb128 0x48
 9742 2c76 00000000 		.4byte	.Ldebug_ranges0+0
 9743 2c7a 31       		.uleb128 0x31
 9744 2c7b 6A1A0000 		.4byte	.LASF526
 9745 2c7f 01       		.byte	0x1
 9746 2c80 A002     		.2byte	0x2a0
 9747 2c82 64080000 		.4byte	0x864
 9748 2c86 F9240000 		.4byte	.LLST173
 9749 2c8a 31       		.uleb128 0x31
 9750 2c8b 3A030000 		.4byte	.LASF524
 9751 2c8f 01       		.byte	0x1
 9752 2c90 AA02     		.2byte	0x2aa
 9753 2c92 04090000 		.4byte	0x904
 9754 2c96 5F250000 		.4byte	.LLST174
 9755 2c9a 32       		.uleb128 0x32
 9756 2c9b 1F1C0000 		.4byte	0x1c1f
 9757 2c9f 3E010000 		.4byte	.LBB165
 9758 2ca3 40000000 		.4byte	.LBE165-.LBB165
 9759 2ca7 01       		.byte	0x1
 9760 2ca8 A702     		.2byte	0x2a7
 9761 2caa EC2C0000 		.4byte	0x2cec
 9762 2cae 33       		.uleb128 0x33
 9763 2caf 461C0000 		.4byte	0x1c46
 9764 2cb3 7D250000 		.4byte	.LLST175
 9765 2cb7 3C       		.uleb128 0x3c
 9766 2cb8 3B1C0000 		.4byte	0x1c3b
 9767 2cbc 3C       		.uleb128 0x3c
 9768 2cbd 301C0000 		.4byte	0x1c30
 9769 2cc1 38       		.uleb128 0x38
 9770 2cc2 3E010000 		.4byte	.LBB166
 9771 2cc6 40000000 		.4byte	.LBE166-.LBB166
 9772 2cca 3D       		.uleb128 0x3d
 9773 2ccb 521C0000 		.4byte	0x1c52
 9774 2ccf 3E       		.uleb128 0x3e
 9775 2cd0 5E1C0000 		.4byte	0x1c5e
 9776 2cd4 9B250000 		.4byte	.LLST176
 9777 2cd8 3E       		.uleb128 0x3e
 9778 2cd9 691C0000 		.4byte	0x1c69
 9779 2cdd CF250000 		.4byte	.LLST177
 9780 2ce1 3E       		.uleb128 0x3e
 9781 2ce2 741C0000 		.4byte	0x1c74
 9782 2ce6 39260000 		.4byte	.LLST178
 9783 2cea 00       		.byte	0
 9784 2ceb 00       		.byte	0
 9785 2cec 32       		.uleb128 0x32
ARM GAS  C:\Users\haske\AppData\Local\Temp\ccydbpJh.s 			page 209


 9786 2ced 1F1C0000 		.4byte	0x1c1f
 9787 2cf1 E8010000 		.4byte	.LBB167
 9788 2cf5 3E000000 		.4byte	.LBE167-.LBB167
 9789 2cf9 01       		.byte	0x1
 9790 2cfa B502     		.2byte	0x2b5
 9791 2cfc 3E2D0000 		.4byte	0x2d3e
 9792 2d00 33       		.uleb128 0x33
 9793 2d01 461C0000 		.4byte	0x1c46
 9794 2d05 4C260000 		.4byte	.LLST179
 9795 2d09 3C       		.uleb128 0x3c
 9796 2d0a 3B1C0000 		.4byte	0x1c3b
 9797 2d0e 3C       		.uleb128 0x3c
 9798 2d0f 301C0000 		.4byte	0x1c30
 9799 2d13 38       		.uleb128 0x38
 9800 2d14 E8010000 		.4byte	.LBB168
 9801 2d18 3E000000 		.4byte	.LBE168-.LBB168
 9802 2d1c 3D       		.uleb128 0x3d
 9803 2d1d 521C0000 		.4byte	0x1c52
 9804 2d21 3E       		.uleb128 0x3e
 9805 2d22 5E1C0000 		.4byte	0x1c5e
 9806 2d26 6A260000 		.4byte	.LLST180
 9807 2d2a 3E       		.uleb128 0x3e
 9808 2d2b 691C0000 		.4byte	0x1c69
 9809 2d2f 9E260000 		.4byte	.LLST181
 9810 2d33 3E       		.uleb128 0x3e
 9811 2d34 741C0000 		.4byte	0x1c74
 9812 2d38 07270000 		.4byte	.LLST182
 9813 2d3c 00       		.byte	0
 9814 2d3d 00       		.byte	0
 9815 2d3e 32       		.uleb128 0x32
 9816 2d3f 1F1C0000 		.4byte	0x1c1f
 9817 2d43 42020000 		.4byte	.LBB169
 9818 2d47 3E000000 		.4byte	.LBE169-.LBB169
 9819 2d4b 01       		.byte	0x1
 9820 2d4c B602     		.2byte	0x2b6
 9821 2d4e 902D0000 		.4byte	0x2d90
 9822 2d52 33       		.uleb128 0x33
 9823 2d53 461C0000 		.4byte	0x1c46
 9824 2d57 1A270000 		.4byte	.LLST183
 9825 2d5b 3C       		.uleb128 0x3c
 9826 2d5c 3B1C0000 		.4byte	0x1c3b
 9827 2d60 3C       		.uleb128 0x3c
 9828 2d61 301C0000 		.4byte	0x1c30
 9829 2d65 38       		.uleb128 0x38
 9830 2d66 42020000 		.4byte	.LBB170
 9831 2d6a 3E000000 		.4byte	.LBE170-.LBB170
 9832 2d6e 3D       		.uleb128 0x3d
 9833 2d6f 521C0000 		.4byte	0x1c52
 9834 2d73 3E       		.uleb128 0x3e
 9835 2d74 5E1C0000 		.4byte	0x1c5e
 9836 2d78 38270000 		.4byte	.LLST184
 9837 2d7c 3E       		.uleb128 0x3e
 9838 2d7d 691C0000 		.4byte	0x1c69
 9839 2d81 6C270000 		.4byte	.LLST185
 9840 2d85 3E       		.uleb128 0x3e
 9841 2d86 741C0000 		.4byte	0x1c74
 9842 2d8a D5270000 		.4byte	.LLST186
ARM GAS  C:\Users\haske\AppData\Local\Temp\ccydbpJh.s 			page 210


 9843 2d8e 00       		.byte	0
 9844 2d8f 00       		.byte	0
 9845 2d90 32       		.uleb128 0x32
 9846 2d91 1F1C0000 		.4byte	0x1c1f
 9847 2d95 9C020000 		.4byte	.LBB171
 9848 2d99 3E000000 		.4byte	.LBE171-.LBB171
 9849 2d9d 01       		.byte	0x1
 9850 2d9e B702     		.2byte	0x2b7
 9851 2da0 E22D0000 		.4byte	0x2de2
 9852 2da4 33       		.uleb128 0x33
 9853 2da5 461C0000 		.4byte	0x1c46
 9854 2da9 E8270000 		.4byte	.LLST187
 9855 2dad 3C       		.uleb128 0x3c
 9856 2dae 3B1C0000 		.4byte	0x1c3b
 9857 2db2 3C       		.uleb128 0x3c
 9858 2db3 301C0000 		.4byte	0x1c30
 9859 2db7 38       		.uleb128 0x38
 9860 2db8 9C020000 		.4byte	.LBB172
 9861 2dbc 3E000000 		.4byte	.LBE172-.LBB172
 9862 2dc0 3D       		.uleb128 0x3d
 9863 2dc1 521C0000 		.4byte	0x1c52
 9864 2dc5 3E       		.uleb128 0x3e
 9865 2dc6 5E1C0000 		.4byte	0x1c5e
 9866 2dca 06280000 		.4byte	.LLST188
 9867 2dce 3E       		.uleb128 0x3e
 9868 2dcf 691C0000 		.4byte	0x1c69
 9869 2dd3 3A280000 		.4byte	.LLST189
 9870 2dd7 3E       		.uleb128 0x3e
 9871 2dd8 741C0000 		.4byte	0x1c74
 9872 2ddc A3280000 		.4byte	.LLST190
 9873 2de0 00       		.byte	0
 9874 2de1 00       		.byte	0
 9875 2de2 32       		.uleb128 0x32
 9876 2de3 1F1C0000 		.4byte	0x1c1f
 9877 2de7 F6020000 		.4byte	.LBB173
 9878 2deb 3E000000 		.4byte	.LBE173-.LBB173
 9879 2def 01       		.byte	0x1
 9880 2df0 B802     		.2byte	0x2b8
 9881 2df2 342E0000 		.4byte	0x2e34
 9882 2df6 33       		.uleb128 0x33
 9883 2df7 461C0000 		.4byte	0x1c46
 9884 2dfb B6280000 		.4byte	.LLST191
 9885 2dff 3C       		.uleb128 0x3c
 9886 2e00 3B1C0000 		.4byte	0x1c3b
 9887 2e04 3C       		.uleb128 0x3c
 9888 2e05 301C0000 		.4byte	0x1c30
 9889 2e09 38       		.uleb128 0x38
 9890 2e0a F6020000 		.4byte	.LBB174
 9891 2e0e 3E000000 		.4byte	.LBE174-.LBB174
 9892 2e12 3D       		.uleb128 0x3d
 9893 2e13 521C0000 		.4byte	0x1c52
 9894 2e17 3E       		.uleb128 0x3e
 9895 2e18 5E1C0000 		.4byte	0x1c5e
 9896 2e1c D4280000 		.4byte	.LLST192
 9897 2e20 3E       		.uleb128 0x3e
 9898 2e21 691C0000 		.4byte	0x1c69
 9899 2e25 08290000 		.4byte	.LLST193
ARM GAS  C:\Users\haske\AppData\Local\Temp\ccydbpJh.s 			page 211


 9900 2e29 3E       		.uleb128 0x3e
 9901 2e2a 741C0000 		.4byte	0x1c74
 9902 2e2e 71290000 		.4byte	.LLST194
 9903 2e32 00       		.byte	0
 9904 2e33 00       		.byte	0
 9905 2e34 3B       		.uleb128 0x3b
 9906 2e35 1F1C0000 		.4byte	0x1c1f
 9907 2e39 74030000 		.4byte	.LBB175
 9908 2e3d 40000000 		.4byte	.LBE175-.LBB175
 9909 2e41 01       		.byte	0x1
 9910 2e42 C002     		.2byte	0x2c0
 9911 2e44 33       		.uleb128 0x33
 9912 2e45 461C0000 		.4byte	0x1c46
 9913 2e49 84290000 		.4byte	.LLST195
 9914 2e4d 3C       		.uleb128 0x3c
 9915 2e4e 3B1C0000 		.4byte	0x1c3b
 9916 2e52 3C       		.uleb128 0x3c
 9917 2e53 301C0000 		.4byte	0x1c30
 9918 2e57 38       		.uleb128 0x38
 9919 2e58 74030000 		.4byte	.LBB176
 9920 2e5c 40000000 		.4byte	.LBE176-.LBB176
 9921 2e60 3D       		.uleb128 0x3d
 9922 2e61 521C0000 		.4byte	0x1c52
 9923 2e65 3E       		.uleb128 0x3e
 9924 2e66 5E1C0000 		.4byte	0x1c5e
 9925 2e6a A2290000 		.4byte	.LLST196
 9926 2e6e 3E       		.uleb128 0x3e
 9927 2e6f 691C0000 		.4byte	0x1c69
 9928 2e73 D6290000 		.4byte	.LLST197
 9929 2e77 3E       		.uleb128 0x3e
 9930 2e78 741C0000 		.4byte	0x1c74
 9931 2e7c 402A0000 		.4byte	.LLST198
 9932 2e80 00       		.byte	0
 9933 2e81 00       		.byte	0
 9934 2e82 00       		.byte	0
 9935 2e83 00       		.byte	0
 9936 2e84 34       		.uleb128 0x34
 9937 2e85 F8030000 		.4byte	.LBB178
 9938 2e89 54000000 		.4byte	.LBE178-.LBB178
 9939 2e8d F02E0000 		.4byte	0x2ef0
 9940 2e91 31       		.uleb128 0x31
 9941 2e92 68190000 		.4byte	.LASF507
 9942 2e96 01       		.byte	0x1
 9943 2e97 CD02     		.2byte	0x2cd
 9944 2e99 02020000 		.4byte	0x202
 9945 2e9d 532A0000 		.4byte	.LLST199
 9946 2ea1 3B       		.uleb128 0x3b
 9947 2ea2 1F1C0000 		.4byte	0x1c1f
 9948 2ea6 12040000 		.4byte	.LBB179
 9949 2eaa 38000000 		.4byte	.LBE179-.LBB179
 9950 2eae 01       		.byte	0x1
 9951 2eaf CE02     		.2byte	0x2ce
 9952 2eb1 33       		.uleb128 0x33
 9953 2eb2 461C0000 		.4byte	0x1c46
 9954 2eb6 662A0000 		.4byte	.LLST200
 9955 2eba 3C       		.uleb128 0x3c
 9956 2ebb 3B1C0000 		.4byte	0x1c3b
ARM GAS  C:\Users\haske\AppData\Local\Temp\ccydbpJh.s 			page 212


 9957 2ebf 3C       		.uleb128 0x3c
 9958 2ec0 301C0000 		.4byte	0x1c30
 9959 2ec4 38       		.uleb128 0x38
 9960 2ec5 12040000 		.4byte	.LBB180
 9961 2ec9 38000000 		.4byte	.LBE180-.LBB180
 9962 2ecd 3D       		.uleb128 0x3d
 9963 2ece 521C0000 		.4byte	0x1c52
 9964 2ed2 3E       		.uleb128 0x3e
 9965 2ed3 5E1C0000 		.4byte	0x1c5e
 9966 2ed7 842A0000 		.4byte	.LLST201
 9967 2edb 3E       		.uleb128 0x3e
 9968 2edc 691C0000 		.4byte	0x1c69
 9969 2ee0 A22A0000 		.4byte	.LLST202
 9970 2ee4 3E       		.uleb128 0x3e
 9971 2ee5 741C0000 		.4byte	0x1c74
 9972 2ee9 CA2A0000 		.4byte	.LLST203
 9973 2eed 00       		.byte	0
 9974 2eee 00       		.byte	0
 9975 2eef 00       		.byte	0
 9976 2ef0 47       		.uleb128 0x47
 9977 2ef1 72000000 		.4byte	.LVL471
 9978 2ef5 65320000 		.4byte	0x3265
 9979 2ef9 36       		.uleb128 0x36
 9980 2efa 01       		.uleb128 0x1
 9981 2efb 50       		.byte	0x50
 9982 2efc 02       		.uleb128 0x2
 9983 2efd 75       		.byte	0x75
 9984 2efe 00       		.sleb128 0
 9985 2eff 36       		.uleb128 0x36
 9986 2f00 01       		.uleb128 0x1
 9987 2f01 51       		.byte	0x51
 9988 2f02 02       		.uleb128 0x2
 9989 2f03 76       		.byte	0x76
 9990 2f04 00       		.sleb128 0
 9991 2f05 36       		.uleb128 0x36
 9992 2f06 01       		.uleb128 0x1
 9993 2f07 52       		.byte	0x52
 9994 2f08 04       		.uleb128 0x4
 9995 2f09 78       		.byte	0x78
 9996 2f0a 00       		.sleb128 0
 9997 2f0b 31       		.byte	0x31
 9998 2f0c 24       		.byte	0x24
 9999 2f0d 00       		.byte	0
 10000 2f0e 00       		.byte	0
 10001 2f0f 49       		.uleb128 0x49
 10002 2f10 64020000 		.4byte	.LASF527
 10003 2f14 01       		.byte	0x1
 10004 2f15 5B       		.byte	0x5b
 10005 2f16 00000000 		.4byte	.LFB159
 10006 2f1a 32000000 		.4byte	.LFE159-.LFB159
 10007 2f1e 01       		.uleb128 0x1
 10008 2f1f 9C       		.byte	0x9c
 10009 2f20 872F0000 		.4byte	0x2f87
 10010 2f24 40       		.uleb128 0x40
 10011 2f25 B71B0000 		.4byte	.LASF386
 10012 2f29 01       		.byte	0x1
 10013 2f2a 5B       		.byte	0x5b
ARM GAS  C:\Users\haske\AppData\Local\Temp\ccydbpJh.s 			page 213


 10014 2f2b D7160000 		.4byte	0x16d7
 10015 2f2f DD2A0000 		.4byte	.LLST204
 10016 2f33 41       		.uleb128 0x41
 10017 2f34 64736300 		.ascii	"dsc\000"
 10018 2f38 01       		.byte	0x1
 10019 2f39 5B       		.byte	0x5b
 10020 2f3a 60170000 		.4byte	0x1760
 10021 2f3e 092B0000 		.4byte	.LLST205
 10022 2f42 4A       		.uleb128 0x4a
 10023 2f43 DD160000 		.4byte	.LASF197
 10024 2f47 01       		.byte	0x1
 10025 2f48 60       		.byte	0x60
 10026 2f49 75020000 		.4byte	0x275
 10027 2f4d 02       		.uleb128 0x2
 10028 2f4e 91       		.byte	0x91
 10029 2f4f 68       		.sleb128 -24
 10030 2f50 4B       		.uleb128 0x4b
 10031 2f51 18000000 		.4byte	.LVL617
 10032 2f55 70320000 		.4byte	0x3270
 10033 2f59 642F0000 		.4byte	0x2f64
 10034 2f5d 36       		.uleb128 0x36
 10035 2f5e 01       		.uleb128 0x1
 10036 2f5f 50       		.byte	0x50
 10037 2f60 02       		.uleb128 0x2
 10038 2f61 7D       		.byte	0x7d
 10039 2f62 00       		.sleb128 0
 10040 2f63 00       		.byte	0
 10041 2f64 39       		.uleb128 0x39
 10042 2f65 26000000 		.4byte	.LVL618
 10043 2f69 742F0000 		.4byte	0x2f74
 10044 2f6d 36       		.uleb128 0x36
 10045 2f6e 01       		.uleb128 0x1
 10046 2f6f 50       		.byte	0x50
 10047 2f70 02       		.uleb128 0x2
 10048 2f71 75       		.byte	0x75
 10049 2f72 00       		.sleb128 0
 10050 2f73 00       		.byte	0
 10051 2f74 37       		.uleb128 0x37
 10052 2f75 2E000000 		.4byte	.LVL619
 10053 2f79 36       		.uleb128 0x36
 10054 2f7a 01       		.uleb128 0x1
 10055 2f7b 50       		.byte	0x50
 10056 2f7c 02       		.uleb128 0x2
 10057 2f7d 75       		.byte	0x75
 10058 2f7e 00       		.sleb128 0
 10059 2f7f 36       		.uleb128 0x36
 10060 2f80 01       		.uleb128 0x1
 10061 2f81 51       		.byte	0x51
 10062 2f82 02       		.uleb128 0x2
 10063 2f83 74       		.byte	0x74
 10064 2f84 00       		.sleb128 0
 10065 2f85 00       		.byte	0
 10066 2f86 00       		.byte	0
 10067 2f87 49       		.uleb128 0x49
 10068 2f88 1B1A0000 		.4byte	.LASF528
 10069 2f8c 01       		.byte	0x1
 10070 2f8d 68       		.byte	0x68
ARM GAS  C:\Users\haske\AppData\Local\Temp\ccydbpJh.s 			page 214


 10071 2f8e 00000000 		.4byte	.LFB160
 10072 2f92 5E020000 		.4byte	.LFE160-.LFB160
 10073 2f96 01       		.uleb128 0x1
 10074 2f97 9C       		.byte	0x9c
 10075 2f98 43320000 		.4byte	0x3243
 10076 2f9c 40       		.uleb128 0x40
 10077 2f9d B71B0000 		.4byte	.LASF386
 10078 2fa1 01       		.byte	0x1
 10079 2fa2 68       		.byte	0x68
 10080 2fa3 D7160000 		.4byte	0x16d7
 10081 2fa7 352B0000 		.4byte	.LLST206
 10082 2fab 41       		.uleb128 0x41
 10083 2fac 64736300 		.ascii	"dsc\000"
 10084 2fb0 01       		.byte	0x1
 10085 2fb1 68       		.byte	0x68
 10086 2fb2 60170000 		.4byte	0x1760
 10087 2fb6 612B0000 		.4byte	.LLST207
 10088 2fba 42       		.uleb128 0x42
 10089 2fbb BC100000 		.4byte	.LASF501
 10090 2fbf 01       		.byte	0x1
 10091 2fc0 6A       		.byte	0x6a
 10092 2fc1 58080000 		.4byte	0x858
 10093 2fc5 8D2B0000 		.4byte	.LLST208
 10094 2fc9 4C       		.uleb128 0x4c
 10095 2fca 960B0000 		.4byte	.LASF500
 10096 2fce 01       		.byte	0x1
 10097 2fcf 70       		.byte	0x70
 10098 2fd0 0D020000 		.4byte	0x20d
 10099 2fd4 4A       		.uleb128 0x4a
 10100 2fd5 DD160000 		.4byte	.LASF197
 10101 2fd9 01       		.byte	0x1
 10102 2fda 72       		.byte	0x72
 10103 2fdb 75020000 		.4byte	0x275
 10104 2fdf 02       		.uleb128 0x2
 10105 2fe0 91       		.byte	0x91
 10106 2fe1 50       		.sleb128 -48
 10107 2fe2 42       		.uleb128 0x42
 10108 2fe3 AC110000 		.4byte	.LASF518
 10109 2fe7 01       		.byte	0x1
 10110 2fe8 75       		.byte	0x75
 10111 2fe9 72240000 		.4byte	0x2472
 10112 2fed A02B0000 		.4byte	.LLST209
 10113 2ff1 42       		.uleb128 0x42
 10114 2ff2 F8080000 		.4byte	.LASF498
 10115 2ff6 01       		.byte	0x1
 10116 2ff7 76       		.byte	0x76
 10117 2ff8 D7090000 		.4byte	0x9d7
 10118 2ffc D42B0000 		.4byte	.LLST210
 10119 3000 42       		.uleb128 0x42
 10120 3001 06170000 		.4byte	.LASF198
 10121 3005 01       		.byte	0x1
 10122 3006 84       		.byte	0x84
 10123 3007 E3080000 		.4byte	0x8e3
 10124 300b 162C0000 		.4byte	.LLST211
 10125 300f 42       		.uleb128 0x42
 10126 3010 F7020000 		.4byte	.LASF510
 10127 3014 01       		.byte	0x1
ARM GAS  C:\Users\haske\AppData\Local\Temp\ccydbpJh.s 			page 215


 10128 3015 85       		.byte	0x85
 10129 3016 0D020000 		.4byte	0x20d
 10130 301a 4A2C0000 		.4byte	.LLST212
 10131 301e 42       		.uleb128 0x42
 10132 301f 71090000 		.4byte	.LASF502
 10133 3023 01       		.byte	0x1
 10134 3024 8E       		.byte	0x8e
 10135 3025 0D020000 		.4byte	0x20d
 10136 3029 5D2C0000 		.4byte	.LLST213
 10137 302d 44       		.uleb128 0x44
 10138 302e 031C0000 		.4byte	0x1c03
 10139 3032 2A000000 		.4byte	.LBB181
 10140 3036 0E000000 		.4byte	.LBE181-.LBB181
 10141 303a 01       		.byte	0x1
 10142 303b 70       		.byte	0x70
 10143 303c 4A300000 		.4byte	0x304a
 10144 3040 33       		.uleb128 0x33
 10145 3041 131C0000 		.4byte	0x1c13
 10146 3045 702C0000 		.4byte	.LLST214
 10147 3049 00       		.byte	0
 10148 304a 34       		.uleb128 0x34
 10149 304b 94000000 		.4byte	.LBB183
 10150 304f 38000000 		.4byte	.LBE183-.LBB183
 10151 3053 67300000 		.4byte	0x3067
 10152 3057 42       		.uleb128 0x42
 10153 3058 4B160000 		.4byte	.LASF529
 10154 305c 01       		.byte	0x1
 10155 305d 7D       		.byte	0x7d
 10156 305e CD070000 		.4byte	0x7cd
 10157 3062 8F2C0000 		.4byte	.LLST215
 10158 3066 00       		.byte	0
 10159 3067 44       		.uleb128 0x44
 10160 3068 031C0000 		.4byte	0x1c03
 10161 306c D6000000 		.4byte	.LBB184
 10162 3070 14000000 		.4byte	.LBE184-.LBB184
 10163 3074 01       		.byte	0x1
 10164 3075 87       		.byte	0x87
 10165 3076 84300000 		.4byte	0x3084
 10166 307a 33       		.uleb128 0x33
 10167 307b 131C0000 		.4byte	0x1c13
 10168 307f B42C0000 		.4byte	.LLST216
 10169 3083 00       		.byte	0
 10170 3084 34       		.uleb128 0x34
 10171 3085 22010000 		.4byte	.LBB186
 10172 3089 20000000 		.4byte	.LBE186-.LBB186
 10173 308d B7300000 		.4byte	0x30b7
 10174 3091 42       		.uleb128 0x42
 10175 3092 431A0000 		.4byte	.LASF530
 10176 3096 01       		.byte	0x1
 10177 3097 92       		.byte	0x92
 10178 3098 E4000000 		.4byte	0xe4
 10179 309c D32C0000 		.4byte	.LLST217
 10180 30a0 43       		.uleb128 0x43
 10181 30a1 6900     		.ascii	"i\000"
 10182 30a3 01       		.byte	0x1
 10183 30a4 93       		.byte	0x93
 10184 30a5 E4000000 		.4byte	0xe4
ARM GAS  C:\Users\haske\AppData\Local\Temp\ccydbpJh.s 			page 216


 10185 30a9 E62C0000 		.4byte	.LLST218
 10186 30ad 46       		.uleb128 0x46
 10187 30ae 28010000 		.4byte	.LVL648
 10188 30b2 7B320000 		.4byte	0x327b
 10189 30b6 00       		.byte	0
 10190 30b7 44       		.uleb128 0x44
 10191 30b8 031C0000 		.4byte	0x1c03
 10192 30bc 44010000 		.4byte	.LBB187
 10193 30c0 12000000 		.4byte	.LBE187-.LBB187
 10194 30c4 01       		.byte	0x1
 10195 30c5 99       		.byte	0x99
 10196 30c6 D4300000 		.4byte	0x30d4
 10197 30ca 33       		.uleb128 0x33
 10198 30cb 131C0000 		.4byte	0x1c13
 10199 30cf 052D0000 		.4byte	.LLST219
 10200 30d3 00       		.byte	0
 10201 30d4 4B       		.uleb128 0x4b
 10202 30d5 42000000 		.4byte	.LVL629
 10203 30d9 70320000 		.4byte	0x3270
 10204 30dd E8300000 		.4byte	0x30e8
 10205 30e1 36       		.uleb128 0x36
 10206 30e2 01       		.uleb128 0x1
 10207 30e3 50       		.byte	0x50
 10208 30e4 02       		.uleb128 0x2
 10209 30e5 91       		.byte	0x91
 10210 30e6 50       		.sleb128 -48
 10211 30e7 00       		.byte	0
 10212 30e8 46       		.uleb128 0x46
 10213 30e9 4C000000 		.4byte	.LVL630
 10214 30ed 4E320000 		.4byte	0x324e
 10215 30f1 4B       		.uleb128 0x4b
 10216 30f2 90010000 		.4byte	.LVL656
 10217 30f6 86320000 		.4byte	0x3286
 10218 30fa 05310000 		.4byte	0x3105
 10219 30fe 36       		.uleb128 0x36
 10220 30ff 01       		.uleb128 0x1
 10221 3100 50       		.byte	0x50
 10222 3101 02       		.uleb128 0x2
 10223 3102 91       		.byte	0x91
 10224 3103 50       		.sleb128 -48
 10225 3104 00       		.byte	0
 10226 3105 4B       		.uleb128 0x4b
 10227 3106 B6010000 		.4byte	.LVL657
 10228 310a 06230000 		.4byte	0x2306
 10229 310e 34310000 		.4byte	0x3134
 10230 3112 36       		.uleb128 0x36
 10231 3113 01       		.uleb128 0x1
 10232 3114 50       		.byte	0x50
 10233 3115 03       		.uleb128 0x3
 10234 3116 91       		.byte	0x91
 10235 3117 48       		.sleb128 -56
 10236 3118 06       		.byte	0x6
 10237 3119 36       		.uleb128 0x36
 10238 311a 01       		.uleb128 0x1
 10239 311b 51       		.byte	0x51
 10240 311c 02       		.uleb128 0x2
 10241 311d 91       		.byte	0x91
ARM GAS  C:\Users\haske\AppData\Local\Temp\ccydbpJh.s 			page 217


 10242 311e 50       		.sleb128 -48
 10243 311f 36       		.uleb128 0x36
 10244 3120 01       		.uleb128 0x1
 10245 3121 52       		.byte	0x52
 10246 3122 02       		.uleb128 0x2
 10247 3123 75       		.byte	0x75
 10248 3124 00       		.sleb128 0
 10249 3125 36       		.uleb128 0x36
 10250 3126 02       		.uleb128 0x2
 10251 3127 7D       		.byte	0x7d
 10252 3128 04       		.sleb128 4
 10253 3129 02       		.uleb128 0x2
 10254 312a 76       		.byte	0x76
 10255 312b 00       		.sleb128 0
 10256 312c 36       		.uleb128 0x36
 10257 312d 02       		.uleb128 0x2
 10258 312e 7D       		.byte	0x7d
 10259 312f 08       		.sleb128 8
 10260 3130 02       		.uleb128 0x2
 10261 3131 78       		.byte	0x78
 10262 3132 00       		.sleb128 0
 10263 3133 00       		.byte	0
 10264 3134 4B       		.uleb128 0x4b
 10265 3135 D2010000 		.4byte	.LVL658
 10266 3139 78240000 		.4byte	0x2478
 10267 313d 70310000 		.4byte	0x3170
 10268 3141 36       		.uleb128 0x36
 10269 3142 01       		.uleb128 0x1
 10270 3143 50       		.byte	0x50
 10271 3144 03       		.uleb128 0x3
 10272 3145 91       		.byte	0x91
 10273 3146 48       		.sleb128 -56
 10274 3147 06       		.byte	0x6
 10275 3148 36       		.uleb128 0x36
 10276 3149 01       		.uleb128 0x1
 10277 314a 51       		.byte	0x51
 10278 314b 02       		.uleb128 0x2
 10279 314c 91       		.byte	0x91
 10280 314d 50       		.sleb128 -48
 10281 314e 36       		.uleb128 0x36
 10282 314f 01       		.uleb128 0x1
 10283 3150 52       		.byte	0x52
 10284 3151 02       		.uleb128 0x2
 10285 3152 75       		.byte	0x75
 10286 3153 00       		.sleb128 0
 10287 3154 36       		.uleb128 0x36
 10288 3155 01       		.uleb128 0x1
 10289 3156 53       		.byte	0x53
 10290 3157 02       		.uleb128 0x2
 10291 3158 7A       		.byte	0x7a
 10292 3159 00       		.sleb128 0
 10293 315a 36       		.uleb128 0x36
 10294 315b 02       		.uleb128 0x2
 10295 315c 7D       		.byte	0x7d
 10296 315d 00       		.sleb128 0
 10297 315e 02       		.uleb128 0x2
 10298 315f 79       		.byte	0x79
ARM GAS  C:\Users\haske\AppData\Local\Temp\ccydbpJh.s 			page 218


 10299 3160 00       		.sleb128 0
 10300 3161 36       		.uleb128 0x36
 10301 3162 02       		.uleb128 0x2
 10302 3163 7D       		.byte	0x7d
 10303 3164 08       		.sleb128 8
 10304 3165 02       		.uleb128 0x2
 10305 3166 76       		.byte	0x76
 10306 3167 00       		.sleb128 0
 10307 3168 36       		.uleb128 0x36
 10308 3169 02       		.uleb128 0x2
 10309 316a 7D       		.byte	0x7d
 10310 316b 0C       		.sleb128 12
 10311 316c 02       		.uleb128 0x2
 10312 316d 78       		.byte	0x78
 10313 316e 00       		.sleb128 0
 10314 316f 00       		.byte	0
 10315 3170 4B       		.uleb128 0x4b
 10316 3171 F6010000 		.4byte	.LVL659
 10317 3175 D0250000 		.4byte	0x25d0
 10318 3179 9F310000 		.4byte	0x319f
 10319 317d 36       		.uleb128 0x36
 10320 317e 01       		.uleb128 0x1
 10321 317f 50       		.byte	0x50
 10322 3180 03       		.uleb128 0x3
 10323 3181 91       		.byte	0x91
 10324 3182 48       		.sleb128 -56
 10325 3183 06       		.byte	0x6
 10326 3184 36       		.uleb128 0x36
 10327 3185 01       		.uleb128 0x1
 10328 3186 51       		.byte	0x51
 10329 3187 02       		.uleb128 0x2
 10330 3188 91       		.byte	0x91
 10331 3189 50       		.sleb128 -48
 10332 318a 36       		.uleb128 0x36
 10333 318b 01       		.uleb128 0x1
 10334 318c 52       		.byte	0x52
 10335 318d 02       		.uleb128 0x2
 10336 318e 75       		.byte	0x75
 10337 318f 00       		.sleb128 0
 10338 3190 36       		.uleb128 0x36
 10339 3191 02       		.uleb128 0x2
 10340 3192 7D       		.byte	0x7d
 10341 3193 04       		.sleb128 4
 10342 3194 02       		.uleb128 0x2
 10343 3195 76       		.byte	0x76
 10344 3196 00       		.sleb128 0
 10345 3197 36       		.uleb128 0x36
 10346 3198 02       		.uleb128 0x2
 10347 3199 7D       		.byte	0x7d
 10348 319a 08       		.sleb128 8
 10349 319b 02       		.uleb128 0x2
 10350 319c 78       		.byte	0x78
 10351 319d 00       		.sleb128 0
 10352 319e 00       		.byte	0
 10353 319f 4B       		.uleb128 0x4b
 10354 31a0 12020000 		.4byte	.LVL660
 10355 31a4 FC2A0000 		.4byte	0x2afc
ARM GAS  C:\Users\haske\AppData\Local\Temp\ccydbpJh.s 			page 219


 10356 31a8 DB310000 		.4byte	0x31db
 10357 31ac 36       		.uleb128 0x36
 10358 31ad 01       		.uleb128 0x1
 10359 31ae 50       		.byte	0x50
 10360 31af 03       		.uleb128 0x3
 10361 31b0 91       		.byte	0x91
 10362 31b1 48       		.sleb128 -56
 10363 31b2 06       		.byte	0x6
 10364 31b3 36       		.uleb128 0x36
 10365 31b4 01       		.uleb128 0x1
 10366 31b5 51       		.byte	0x51
 10367 31b6 02       		.uleb128 0x2
 10368 31b7 91       		.byte	0x91
 10369 31b8 50       		.sleb128 -48
 10370 31b9 36       		.uleb128 0x36
 10371 31ba 01       		.uleb128 0x1
 10372 31bb 52       		.byte	0x52
 10373 31bc 02       		.uleb128 0x2
 10374 31bd 75       		.byte	0x75
 10375 31be 00       		.sleb128 0
 10376 31bf 36       		.uleb128 0x36
 10377 31c0 01       		.uleb128 0x1
 10378 31c1 53       		.byte	0x53
 10379 31c2 02       		.uleb128 0x2
 10380 31c3 7A       		.byte	0x7a
 10381 31c4 00       		.sleb128 0
 10382 31c5 36       		.uleb128 0x36
 10383 31c6 02       		.uleb128 0x2
 10384 31c7 7D       		.byte	0x7d
 10385 31c8 00       		.sleb128 0
 10386 31c9 02       		.uleb128 0x2
 10387 31ca 79       		.byte	0x79
 10388 31cb 00       		.sleb128 0
 10389 31cc 36       		.uleb128 0x36
 10390 31cd 02       		.uleb128 0x2
 10391 31ce 7D       		.byte	0x7d
 10392 31cf 08       		.sleb128 8
 10393 31d0 02       		.uleb128 0x2
 10394 31d1 76       		.byte	0x76
 10395 31d2 00       		.sleb128 0
 10396 31d3 36       		.uleb128 0x36
 10397 31d4 02       		.uleb128 0x2
 10398 31d5 7D       		.byte	0x7d
 10399 31d6 0C       		.sleb128 12
 10400 31d7 02       		.uleb128 0x2
 10401 31d8 78       		.byte	0x78
 10402 31d9 00       		.sleb128 0
 10403 31da 00       		.byte	0
 10404 31db 4B       		.uleb128 0x4b
 10405 31dc 32020000 		.4byte	.LVL661
 10406 31e0 FF1C0000 		.4byte	0x1cff
 10407 31e4 0A320000 		.4byte	0x320a
 10408 31e8 36       		.uleb128 0x36
 10409 31e9 01       		.uleb128 0x1
 10410 31ea 50       		.byte	0x50
 10411 31eb 03       		.uleb128 0x3
 10412 31ec 91       		.byte	0x91
ARM GAS  C:\Users\haske\AppData\Local\Temp\ccydbpJh.s 			page 220


 10413 31ed 48       		.sleb128 -56
 10414 31ee 06       		.byte	0x6
 10415 31ef 36       		.uleb128 0x36
 10416 31f0 01       		.uleb128 0x1
 10417 31f1 51       		.byte	0x51
 10418 31f2 02       		.uleb128 0x2
 10419 31f3 91       		.byte	0x91
 10420 31f4 50       		.sleb128 -48
 10421 31f5 36       		.uleb128 0x36
 10422 31f6 01       		.uleb128 0x1
 10423 31f7 52       		.byte	0x52
 10424 31f8 02       		.uleb128 0x2
 10425 31f9 75       		.byte	0x75
 10426 31fa 00       		.sleb128 0
 10427 31fb 36       		.uleb128 0x36
 10428 31fc 02       		.uleb128 0x2
 10429 31fd 7D       		.byte	0x7d
 10430 31fe 04       		.sleb128 4
 10431 31ff 02       		.uleb128 0x2
 10432 3200 76       		.byte	0x76
 10433 3201 00       		.sleb128 0
 10434 3202 36       		.uleb128 0x36
 10435 3203 02       		.uleb128 0x2
 10436 3204 7D       		.byte	0x7d
 10437 3205 08       		.sleb128 8
 10438 3206 02       		.uleb128 0x2
 10439 3207 78       		.byte	0x78
 10440 3208 00       		.sleb128 0
 10441 3209 00       		.byte	0
 10442 320a 47       		.uleb128 0x47
 10443 320b 50020000 		.4byte	.LVL662
 10444 320f 0A1F0000 		.4byte	0x1f0a
 10445 3213 36       		.uleb128 0x36
 10446 3214 01       		.uleb128 0x1
 10447 3215 50       		.byte	0x50
 10448 3216 03       		.uleb128 0x3
 10449 3217 91       		.byte	0x91
 10450 3218 48       		.sleb128 -56
 10451 3219 06       		.byte	0x6
 10452 321a 36       		.uleb128 0x36
 10453 321b 01       		.uleb128 0x1
 10454 321c 51       		.byte	0x51
 10455 321d 02       		.uleb128 0x2
 10456 321e 91       		.byte	0x91
 10457 321f 50       		.sleb128 -48
 10458 3220 36       		.uleb128 0x36
 10459 3221 01       		.uleb128 0x1
 10460 3222 52       		.byte	0x52
 10461 3223 02       		.uleb128 0x2
 10462 3224 75       		.byte	0x75
 10463 3225 00       		.sleb128 0
 10464 3226 36       		.uleb128 0x36
 10465 3227 01       		.uleb128 0x1
 10466 3228 53       		.byte	0x53
 10467 3229 02       		.uleb128 0x2
 10468 322a 7A       		.byte	0x7a
 10469 322b 00       		.sleb128 0
ARM GAS  C:\Users\haske\AppData\Local\Temp\ccydbpJh.s 			page 221


 10470 322c 36       		.uleb128 0x36
 10471 322d 02       		.uleb128 0x2
 10472 322e 7D       		.byte	0x7d
 10473 322f 00       		.sleb128 0
 10474 3230 02       		.uleb128 0x2
 10475 3231 79       		.byte	0x79
 10476 3232 00       		.sleb128 0
 10477 3233 36       		.uleb128 0x36
 10478 3234 02       		.uleb128 0x2
 10479 3235 7D       		.byte	0x7d
 10480 3236 08       		.sleb128 8
 10481 3237 02       		.uleb128 0x2
 10482 3238 76       		.byte	0x76
 10483 3239 00       		.sleb128 0
 10484 323a 36       		.uleb128 0x36
 10485 323b 02       		.uleb128 0x2
 10486 323c 7D       		.byte	0x7d
 10487 323d 0C       		.sleb128 12
 10488 323e 02       		.uleb128 0x2
 10489 323f 78       		.byte	0x78
 10490 3240 00       		.sleb128 0
 10491 3241 00       		.byte	0
 10492 3242 00       		.byte	0
 10493 3243 4D       		.uleb128 0x4d
 10494 3244 52190000 		.4byte	.LASF542
 10495 3248 08       		.byte	0x8
 10496 3249 94       		.byte	0x94
 10497 324a 040C0000 		.4byte	0xc04
 10498 324e 4E       		.uleb128 0x4e
 10499 324f 071C0000 		.4byte	.LASF531
 10500 3253 071C0000 		.4byte	.LASF531
 10501 3257 20       		.byte	0x20
 10502 3258 4E       		.byte	0x4e
 10503 3259 4F       		.uleb128 0x4f
 10504 325a 01160000 		.4byte	.LASF532
 10505 325e 01160000 		.4byte	.LASF532
 10506 3262 03       		.byte	0x3
 10507 3263 8002     		.2byte	0x280
 10508 3265 4E       		.uleb128 0x4e
 10509 3266 8A010000 		.4byte	.LASF533
 10510 326a 8A010000 		.4byte	.LASF533
 10511 326e 21       		.byte	0x21
 10512 326f BA       		.byte	0xba
 10513 3270 4E       		.uleb128 0x4e
 10514 3271 1B1B0000 		.4byte	.LASF534
 10515 3275 1B1B0000 		.4byte	.LASF534
 10516 3279 02       		.byte	0x2
 10517 327a B2       		.byte	0xb2
 10518 327b 4E       		.uleb128 0x4e
 10519 327c 22080000 		.4byte	.LASF535
 10520 3280 22080000 		.4byte	.LASF535
 10521 3284 02       		.byte	0x2
 10522 3285 A5       		.byte	0xa5
 10523 3286 4E       		.uleb128 0x4e
 10524 3287 4A100000 		.4byte	.LASF536
 10525 328b 4A100000 		.4byte	.LASF536
 10526 328f 02       		.byte	0x2
ARM GAS  C:\Users\haske\AppData\Local\Temp\ccydbpJh.s 			page 222


 10527 3290 A9       		.byte	0xa9
 10528 3291 00       		.byte	0
 10529              		.section	.debug_abbrev,"",%progbits
 10530              	.Ldebug_abbrev0:
 10531 0000 01       		.uleb128 0x1
 10532 0001 11       		.uleb128 0x11
 10533 0002 01       		.byte	0x1
 10534 0003 25       		.uleb128 0x25
 10535 0004 0E       		.uleb128 0xe
 10536 0005 13       		.uleb128 0x13
 10537 0006 0B       		.uleb128 0xb
 10538 0007 03       		.uleb128 0x3
 10539 0008 0E       		.uleb128 0xe
 10540 0009 1B       		.uleb128 0x1b
 10541 000a 0E       		.uleb128 0xe
 10542 000b 55       		.uleb128 0x55
 10543 000c 17       		.uleb128 0x17
 10544 000d 11       		.uleb128 0x11
 10545 000e 01       		.uleb128 0x1
 10546 000f 10       		.uleb128 0x10
 10547 0010 17       		.uleb128 0x17
 10548 0011 00       		.byte	0
 10549 0012 00       		.byte	0
 10550 0013 02       		.uleb128 0x2
 10551 0014 16       		.uleb128 0x16
 10552 0015 00       		.byte	0
 10553 0016 03       		.uleb128 0x3
 10554 0017 0E       		.uleb128 0xe
 10555 0018 3A       		.uleb128 0x3a
 10556 0019 0B       		.uleb128 0xb
 10557 001a 3B       		.uleb128 0x3b
 10558 001b 0B       		.uleb128 0xb
 10559 001c 49       		.uleb128 0x49
 10560 001d 13       		.uleb128 0x13
 10561 001e 00       		.byte	0
 10562 001f 00       		.byte	0
 10563 0020 03       		.uleb128 0x3
 10564 0021 24       		.uleb128 0x24
 10565 0022 00       		.byte	0
 10566 0023 0B       		.uleb128 0xb
 10567 0024 0B       		.uleb128 0xb
 10568 0025 3E       		.uleb128 0x3e
 10569 0026 0B       		.uleb128 0xb
 10570 0027 03       		.uleb128 0x3
 10571 0028 0E       		.uleb128 0xe
 10572 0029 00       		.byte	0
 10573 002a 00       		.byte	0
 10574 002b 04       		.uleb128 0x4
 10575 002c 24       		.uleb128 0x24
 10576 002d 00       		.byte	0
 10577 002e 0B       		.uleb128 0xb
 10578 002f 0B       		.uleb128 0xb
 10579 0030 3E       		.uleb128 0x3e
 10580 0031 0B       		.uleb128 0xb
 10581 0032 03       		.uleb128 0x3
 10582 0033 08       		.uleb128 0x8
 10583 0034 00       		.byte	0
ARM GAS  C:\Users\haske\AppData\Local\Temp\ccydbpJh.s 			page 223


 10584 0035 00       		.byte	0
 10585 0036 05       		.uleb128 0x5
 10586 0037 0F       		.uleb128 0xf
 10587 0038 00       		.byte	0
 10588 0039 0B       		.uleb128 0xb
 10589 003a 0B       		.uleb128 0xb
 10590 003b 00       		.byte	0
 10591 003c 00       		.byte	0
 10592 003d 06       		.uleb128 0x6
 10593 003e 04       		.uleb128 0x4
 10594 003f 01       		.byte	0x1
 10595 0040 0B       		.uleb128 0xb
 10596 0041 0B       		.uleb128 0xb
 10597 0042 49       		.uleb128 0x49
 10598 0043 13       		.uleb128 0x13
 10599 0044 3A       		.uleb128 0x3a
 10600 0045 0B       		.uleb128 0xb
 10601 0046 3B       		.uleb128 0x3b
 10602 0047 0B       		.uleb128 0xb
 10603 0048 01       		.uleb128 0x1
 10604 0049 13       		.uleb128 0x13
 10605 004a 00       		.byte	0
 10606 004b 00       		.byte	0
 10607 004c 07       		.uleb128 0x7
 10608 004d 28       		.uleb128 0x28
 10609 004e 00       		.byte	0
 10610 004f 03       		.uleb128 0x3
 10611 0050 0E       		.uleb128 0xe
 10612 0051 1C       		.uleb128 0x1c
 10613 0052 0B       		.uleb128 0xb
 10614 0053 00       		.byte	0
 10615 0054 00       		.byte	0
 10616 0055 08       		.uleb128 0x8
 10617 0056 13       		.uleb128 0x13
 10618 0057 01       		.byte	0x1
 10619 0058 0B       		.uleb128 0xb
 10620 0059 0B       		.uleb128 0xb
 10621 005a 3A       		.uleb128 0x3a
 10622 005b 0B       		.uleb128 0xb
 10623 005c 3B       		.uleb128 0x3b
 10624 005d 0B       		.uleb128 0xb
 10625 005e 01       		.uleb128 0x1
 10626 005f 13       		.uleb128 0x13
 10627 0060 00       		.byte	0
 10628 0061 00       		.byte	0
 10629 0062 09       		.uleb128 0x9
 10630 0063 0D       		.uleb128 0xd
 10631 0064 00       		.byte	0
 10632 0065 03       		.uleb128 0x3
 10633 0066 0E       		.uleb128 0xe
 10634 0067 3A       		.uleb128 0x3a
 10635 0068 0B       		.uleb128 0xb
 10636 0069 3B       		.uleb128 0x3b
 10637 006a 0B       		.uleb128 0xb
 10638 006b 49       		.uleb128 0x49
 10639 006c 13       		.uleb128 0x13
 10640 006d 0B       		.uleb128 0xb
ARM GAS  C:\Users\haske\AppData\Local\Temp\ccydbpJh.s 			page 224


 10641 006e 0B       		.uleb128 0xb
 10642 006f 0D       		.uleb128 0xd
 10643 0070 0B       		.uleb128 0xb
 10644 0071 0C       		.uleb128 0xc
 10645 0072 0B       		.uleb128 0xb
 10646 0073 38       		.uleb128 0x38
 10647 0074 0B       		.uleb128 0xb
 10648 0075 00       		.byte	0
 10649 0076 00       		.byte	0
 10650 0077 0A       		.uleb128 0xa
 10651 0078 0D       		.uleb128 0xd
 10652 0079 00       		.byte	0
 10653 007a 03       		.uleb128 0x3
 10654 007b 08       		.uleb128 0x8
 10655 007c 3A       		.uleb128 0x3a
 10656 007d 0B       		.uleb128 0xb
 10657 007e 3B       		.uleb128 0x3b
 10658 007f 0B       		.uleb128 0xb
 10659 0080 49       		.uleb128 0x49
 10660 0081 13       		.uleb128 0x13
 10661 0082 0B       		.uleb128 0xb
 10662 0083 0B       		.uleb128 0xb
 10663 0084 0D       		.uleb128 0xd
 10664 0085 0B       		.uleb128 0xb
 10665 0086 0C       		.uleb128 0xc
 10666 0087 0B       		.uleb128 0xb
 10667 0088 38       		.uleb128 0x38
 10668 0089 0B       		.uleb128 0xb
 10669 008a 00       		.byte	0
 10670 008b 00       		.byte	0
 10671 008c 0B       		.uleb128 0xb
 10672 008d 17       		.uleb128 0x17
 10673 008e 01       		.byte	0x1
 10674 008f 0B       		.uleb128 0xb
 10675 0090 0B       		.uleb128 0xb
 10676 0091 3A       		.uleb128 0x3a
 10677 0092 0B       		.uleb128 0xb
 10678 0093 3B       		.uleb128 0x3b
 10679 0094 0B       		.uleb128 0xb
 10680 0095 01       		.uleb128 0x1
 10681 0096 13       		.uleb128 0x13
 10682 0097 00       		.byte	0
 10683 0098 00       		.byte	0
 10684 0099 0C       		.uleb128 0xc
 10685 009a 0D       		.uleb128 0xd
 10686 009b 00       		.byte	0
 10687 009c 03       		.uleb128 0x3
 10688 009d 08       		.uleb128 0x8
 10689 009e 3A       		.uleb128 0x3a
 10690 009f 0B       		.uleb128 0xb
 10691 00a0 3B       		.uleb128 0x3b
 10692 00a1 0B       		.uleb128 0xb
 10693 00a2 49       		.uleb128 0x49
 10694 00a3 13       		.uleb128 0x13
 10695 00a4 00       		.byte	0
 10696 00a5 00       		.byte	0
 10697 00a6 0D       		.uleb128 0xd
ARM GAS  C:\Users\haske\AppData\Local\Temp\ccydbpJh.s 			page 225


 10698 00a7 0D       		.uleb128 0xd
 10699 00a8 00       		.byte	0
 10700 00a9 03       		.uleb128 0x3
 10701 00aa 0E       		.uleb128 0xe
 10702 00ab 3A       		.uleb128 0x3a
 10703 00ac 0B       		.uleb128 0xb
 10704 00ad 3B       		.uleb128 0x3b
 10705 00ae 0B       		.uleb128 0xb
 10706 00af 49       		.uleb128 0x49
 10707 00b0 13       		.uleb128 0x13
 10708 00b1 00       		.byte	0
 10709 00b2 00       		.byte	0
 10710 00b3 0E       		.uleb128 0xe
 10711 00b4 0D       		.uleb128 0xd
 10712 00b5 00       		.byte	0
 10713 00b6 03       		.uleb128 0x3
 10714 00b7 08       		.uleb128 0x8
 10715 00b8 3A       		.uleb128 0x3a
 10716 00b9 0B       		.uleb128 0xb
 10717 00ba 3B       		.uleb128 0x3b
 10718 00bb 0B       		.uleb128 0xb
 10719 00bc 49       		.uleb128 0x49
 10720 00bd 13       		.uleb128 0x13
 10721 00be 38       		.uleb128 0x38
 10722 00bf 0B       		.uleb128 0xb
 10723 00c0 00       		.byte	0
 10724 00c1 00       		.byte	0
 10725 00c2 0F       		.uleb128 0xf
 10726 00c3 0D       		.uleb128 0xd
 10727 00c4 00       		.byte	0
 10728 00c5 03       		.uleb128 0x3
 10729 00c6 0E       		.uleb128 0xe
 10730 00c7 3A       		.uleb128 0x3a
 10731 00c8 0B       		.uleb128 0xb
 10732 00c9 3B       		.uleb128 0x3b
 10733 00ca 0B       		.uleb128 0xb
 10734 00cb 49       		.uleb128 0x49
 10735 00cc 13       		.uleb128 0x13
 10736 00cd 38       		.uleb128 0x38
 10737 00ce 0B       		.uleb128 0xb
 10738 00cf 00       		.byte	0
 10739 00d0 00       		.byte	0
 10740 00d1 10       		.uleb128 0x10
 10741 00d2 13       		.uleb128 0x13
 10742 00d3 01       		.byte	0x1
 10743 00d4 03       		.uleb128 0x3
 10744 00d5 0E       		.uleb128 0xe
 10745 00d6 0B       		.uleb128 0xb
 10746 00d7 0B       		.uleb128 0xb
 10747 00d8 3A       		.uleb128 0x3a
 10748 00d9 0B       		.uleb128 0xb
 10749 00da 3B       		.uleb128 0x3b
 10750 00db 0B       		.uleb128 0xb
 10751 00dc 01       		.uleb128 0x1
 10752 00dd 13       		.uleb128 0x13
 10753 00de 00       		.byte	0
 10754 00df 00       		.byte	0
ARM GAS  C:\Users\haske\AppData\Local\Temp\ccydbpJh.s 			page 226


 10755 00e0 11       		.uleb128 0x11
 10756 00e1 0F       		.uleb128 0xf
 10757 00e2 00       		.byte	0
 10758 00e3 0B       		.uleb128 0xb
 10759 00e4 0B       		.uleb128 0xb
 10760 00e5 49       		.uleb128 0x49
 10761 00e6 13       		.uleb128 0x13
 10762 00e7 00       		.byte	0
 10763 00e8 00       		.byte	0
 10764 00e9 12       		.uleb128 0x12
 10765 00ea 26       		.uleb128 0x26
 10766 00eb 00       		.byte	0
 10767 00ec 49       		.uleb128 0x49
 10768 00ed 13       		.uleb128 0x13
 10769 00ee 00       		.byte	0
 10770 00ef 00       		.byte	0
 10771 00f0 13       		.uleb128 0x13
 10772 00f1 15       		.uleb128 0x15
 10773 00f2 01       		.byte	0x1
 10774 00f3 27       		.uleb128 0x27
 10775 00f4 19       		.uleb128 0x19
 10776 00f5 49       		.uleb128 0x49
 10777 00f6 13       		.uleb128 0x13
 10778 00f7 01       		.uleb128 0x1
 10779 00f8 13       		.uleb128 0x13
 10780 00f9 00       		.byte	0
 10781 00fa 00       		.byte	0
 10782 00fb 14       		.uleb128 0x14
 10783 00fc 05       		.uleb128 0x5
 10784 00fd 00       		.byte	0
 10785 00fe 49       		.uleb128 0x49
 10786 00ff 13       		.uleb128 0x13
 10787 0100 00       		.byte	0
 10788 0101 00       		.byte	0
 10789 0102 15       		.uleb128 0x15
 10790 0103 26       		.uleb128 0x26
 10791 0104 00       		.byte	0
 10792 0105 00       		.byte	0
 10793 0106 00       		.byte	0
 10794 0107 16       		.uleb128 0x16
 10795 0108 01       		.uleb128 0x1
 10796 0109 01       		.byte	0x1
 10797 010a 49       		.uleb128 0x49
 10798 010b 13       		.uleb128 0x13
 10799 010c 01       		.uleb128 0x1
 10800 010d 13       		.uleb128 0x13
 10801 010e 00       		.byte	0
 10802 010f 00       		.byte	0
 10803 0110 17       		.uleb128 0x17
 10804 0111 21       		.uleb128 0x21
 10805 0112 00       		.byte	0
 10806 0113 49       		.uleb128 0x49
 10807 0114 13       		.uleb128 0x13
 10808 0115 2F       		.uleb128 0x2f
 10809 0116 0B       		.uleb128 0xb
 10810 0117 00       		.byte	0
 10811 0118 00       		.byte	0
ARM GAS  C:\Users\haske\AppData\Local\Temp\ccydbpJh.s 			page 227


 10812 0119 18       		.uleb128 0x18
 10813 011a 28       		.uleb128 0x28
 10814 011b 00       		.byte	0
 10815 011c 03       		.uleb128 0x3
 10816 011d 0E       		.uleb128 0xe
 10817 011e 1C       		.uleb128 0x1c
 10818 011f 05       		.uleb128 0x5
 10819 0120 00       		.byte	0
 10820 0121 00       		.byte	0
 10821 0122 19       		.uleb128 0x19
 10822 0123 16       		.uleb128 0x16
 10823 0124 00       		.byte	0
 10824 0125 03       		.uleb128 0x3
 10825 0126 0E       		.uleb128 0xe
 10826 0127 3A       		.uleb128 0x3a
 10827 0128 0B       		.uleb128 0xb
 10828 0129 3B       		.uleb128 0x3b
 10829 012a 05       		.uleb128 0x5
 10830 012b 49       		.uleb128 0x49
 10831 012c 13       		.uleb128 0x13
 10832 012d 00       		.byte	0
 10833 012e 00       		.byte	0
 10834 012f 1A       		.uleb128 0x1a
 10835 0130 13       		.uleb128 0x13
 10836 0131 01       		.byte	0x1
 10837 0132 0B       		.uleb128 0xb
 10838 0133 0B       		.uleb128 0xb
 10839 0134 3A       		.uleb128 0x3a
 10840 0135 0B       		.uleb128 0xb
 10841 0136 3B       		.uleb128 0x3b
 10842 0137 05       		.uleb128 0x5
 10843 0138 01       		.uleb128 0x1
 10844 0139 13       		.uleb128 0x13
 10845 013a 00       		.byte	0
 10846 013b 00       		.byte	0
 10847 013c 1B       		.uleb128 0x1b
 10848 013d 0D       		.uleb128 0xd
 10849 013e 00       		.byte	0
 10850 013f 03       		.uleb128 0x3
 10851 0140 0E       		.uleb128 0xe
 10852 0141 3A       		.uleb128 0x3a
 10853 0142 0B       		.uleb128 0xb
 10854 0143 3B       		.uleb128 0x3b
 10855 0144 05       		.uleb128 0x5
 10856 0145 49       		.uleb128 0x49
 10857 0146 13       		.uleb128 0x13
 10858 0147 38       		.uleb128 0x38
 10859 0148 0B       		.uleb128 0xb
 10860 0149 00       		.byte	0
 10861 014a 00       		.byte	0
 10862 014b 1C       		.uleb128 0x1c
 10863 014c 17       		.uleb128 0x17
 10864 014d 01       		.byte	0x1
 10865 014e 0B       		.uleb128 0xb
 10866 014f 0B       		.uleb128 0xb
 10867 0150 3A       		.uleb128 0x3a
 10868 0151 0B       		.uleb128 0xb
ARM GAS  C:\Users\haske\AppData\Local\Temp\ccydbpJh.s 			page 228


 10869 0152 3B       		.uleb128 0x3b
 10870 0153 05       		.uleb128 0x5
 10871 0154 01       		.uleb128 0x1
 10872 0155 13       		.uleb128 0x13
 10873 0156 00       		.byte	0
 10874 0157 00       		.byte	0
 10875 0158 1D       		.uleb128 0x1d
 10876 0159 0D       		.uleb128 0xd
 10877 015a 00       		.byte	0
 10878 015b 03       		.uleb128 0x3
 10879 015c 0E       		.uleb128 0xe
 10880 015d 3A       		.uleb128 0x3a
 10881 015e 0B       		.uleb128 0xb
 10882 015f 3B       		.uleb128 0x3b
 10883 0160 05       		.uleb128 0x5
 10884 0161 49       		.uleb128 0x49
 10885 0162 13       		.uleb128 0x13
 10886 0163 00       		.byte	0
 10887 0164 00       		.byte	0
 10888 0165 1E       		.uleb128 0x1e
 10889 0166 0D       		.uleb128 0xd
 10890 0167 00       		.byte	0
 10891 0168 03       		.uleb128 0x3
 10892 0169 08       		.uleb128 0x8
 10893 016a 3A       		.uleb128 0x3a
 10894 016b 0B       		.uleb128 0xb
 10895 016c 3B       		.uleb128 0x3b
 10896 016d 05       		.uleb128 0x5
 10897 016e 49       		.uleb128 0x49
 10898 016f 13       		.uleb128 0x13
 10899 0170 38       		.uleb128 0x38
 10900 0171 0B       		.uleb128 0xb
 10901 0172 00       		.byte	0
 10902 0173 00       		.byte	0
 10903 0174 1F       		.uleb128 0x1f
 10904 0175 15       		.uleb128 0x15
 10905 0176 01       		.byte	0x1
 10906 0177 27       		.uleb128 0x27
 10907 0178 19       		.uleb128 0x19
 10908 0179 01       		.uleb128 0x1
 10909 017a 13       		.uleb128 0x13
 10910 017b 00       		.byte	0
 10911 017c 00       		.byte	0
 10912 017d 20       		.uleb128 0x20
 10913 017e 13       		.uleb128 0x13
 10914 017f 01       		.byte	0x1
 10915 0180 03       		.uleb128 0x3
 10916 0181 0E       		.uleb128 0xe
 10917 0182 0B       		.uleb128 0xb
 10918 0183 05       		.uleb128 0x5
 10919 0184 3A       		.uleb128 0x3a
 10920 0185 0B       		.uleb128 0xb
 10921 0186 3B       		.uleb128 0x3b
 10922 0187 0B       		.uleb128 0xb
 10923 0188 01       		.uleb128 0x1
 10924 0189 13       		.uleb128 0x13
 10925 018a 00       		.byte	0
ARM GAS  C:\Users\haske\AppData\Local\Temp\ccydbpJh.s 			page 229


 10926 018b 00       		.byte	0
 10927 018c 21       		.uleb128 0x21
 10928 018d 0D       		.uleb128 0xd
 10929 018e 00       		.byte	0
 10930 018f 03       		.uleb128 0x3
 10931 0190 0E       		.uleb128 0xe
 10932 0191 3A       		.uleb128 0x3a
 10933 0192 0B       		.uleb128 0xb
 10934 0193 3B       		.uleb128 0x3b
 10935 0194 0B       		.uleb128 0xb
 10936 0195 49       		.uleb128 0x49
 10937 0196 13       		.uleb128 0x13
 10938 0197 38       		.uleb128 0x38
 10939 0198 05       		.uleb128 0x5
 10940 0199 00       		.byte	0
 10941 019a 00       		.byte	0
 10942 019b 22       		.uleb128 0x22
 10943 019c 35       		.uleb128 0x35
 10944 019d 00       		.byte	0
 10945 019e 49       		.uleb128 0x49
 10946 019f 13       		.uleb128 0x13
 10947 01a0 00       		.byte	0
 10948 01a1 00       		.byte	0
 10949 01a2 23       		.uleb128 0x23
 10950 01a3 13       		.uleb128 0x13
 10951 01a4 00       		.byte	0
 10952 01a5 03       		.uleb128 0x3
 10953 01a6 0E       		.uleb128 0xe
 10954 01a7 3C       		.uleb128 0x3c
 10955 01a8 19       		.uleb128 0x19
 10956 01a9 00       		.byte	0
 10957 01aa 00       		.byte	0
 10958 01ab 24       		.uleb128 0x24
 10959 01ac 2E       		.uleb128 0x2e
 10960 01ad 01       		.byte	0x1
 10961 01ae 03       		.uleb128 0x3
 10962 01af 0E       		.uleb128 0xe
 10963 01b0 3A       		.uleb128 0x3a
 10964 01b1 0B       		.uleb128 0xb
 10965 01b2 3B       		.uleb128 0x3b
 10966 01b3 05       		.uleb128 0x5
 10967 01b4 27       		.uleb128 0x27
 10968 01b5 19       		.uleb128 0x19
 10969 01b6 49       		.uleb128 0x49
 10970 01b7 13       		.uleb128 0x13
 10971 01b8 20       		.uleb128 0x20
 10972 01b9 0B       		.uleb128 0xb
 10973 01ba 01       		.uleb128 0x1
 10974 01bb 13       		.uleb128 0x13
 10975 01bc 00       		.byte	0
 10976 01bd 00       		.byte	0
 10977 01be 25       		.uleb128 0x25
 10978 01bf 05       		.uleb128 0x5
 10979 01c0 00       		.byte	0
 10980 01c1 03       		.uleb128 0x3
 10981 01c2 08       		.uleb128 0x8
 10982 01c3 3A       		.uleb128 0x3a
ARM GAS  C:\Users\haske\AppData\Local\Temp\ccydbpJh.s 			page 230


 10983 01c4 0B       		.uleb128 0xb
 10984 01c5 3B       		.uleb128 0x3b
 10985 01c6 05       		.uleb128 0x5
 10986 01c7 49       		.uleb128 0x49
 10987 01c8 13       		.uleb128 0x13
 10988 01c9 00       		.byte	0
 10989 01ca 00       		.byte	0
 10990 01cb 26       		.uleb128 0x26
 10991 01cc 2E       		.uleb128 0x2e
 10992 01cd 01       		.byte	0x1
 10993 01ce 03       		.uleb128 0x3
 10994 01cf 0E       		.uleb128 0xe
 10995 01d0 3A       		.uleb128 0x3a
 10996 01d1 0B       		.uleb128 0xb
 10997 01d2 3B       		.uleb128 0x3b
 10998 01d3 0B       		.uleb128 0xb
 10999 01d4 27       		.uleb128 0x27
 11000 01d5 19       		.uleb128 0x19
 11001 01d6 49       		.uleb128 0x49
 11002 01d7 13       		.uleb128 0x13
 11003 01d8 20       		.uleb128 0x20
 11004 01d9 0B       		.uleb128 0xb
 11005 01da 01       		.uleb128 0x1
 11006 01db 13       		.uleb128 0x13
 11007 01dc 00       		.byte	0
 11008 01dd 00       		.byte	0
 11009 01de 27       		.uleb128 0x27
 11010 01df 05       		.uleb128 0x5
 11011 01e0 00       		.byte	0
 11012 01e1 03       		.uleb128 0x3
 11013 01e2 0E       		.uleb128 0xe
 11014 01e3 3A       		.uleb128 0x3a
 11015 01e4 0B       		.uleb128 0xb
 11016 01e5 3B       		.uleb128 0x3b
 11017 01e6 0B       		.uleb128 0xb
 11018 01e7 49       		.uleb128 0x49
 11019 01e8 13       		.uleb128 0x13
 11020 01e9 00       		.byte	0
 11021 01ea 00       		.byte	0
 11022 01eb 28       		.uleb128 0x28
 11023 01ec 34       		.uleb128 0x34
 11024 01ed 00       		.byte	0
 11025 01ee 03       		.uleb128 0x3
 11026 01ef 08       		.uleb128 0x8
 11027 01f0 3A       		.uleb128 0x3a
 11028 01f1 0B       		.uleb128 0xb
 11029 01f2 3B       		.uleb128 0x3b
 11030 01f3 05       		.uleb128 0x5
 11031 01f4 49       		.uleb128 0x49
 11032 01f5 13       		.uleb128 0x13
 11033 01f6 00       		.byte	0
 11034 01f7 00       		.byte	0
 11035 01f8 29       		.uleb128 0x29
 11036 01f9 34       		.uleb128 0x34
 11037 01fa 00       		.byte	0
 11038 01fb 03       		.uleb128 0x3
 11039 01fc 0E       		.uleb128 0xe
ARM GAS  C:\Users\haske\AppData\Local\Temp\ccydbpJh.s 			page 231


 11040 01fd 3A       		.uleb128 0x3a
 11041 01fe 0B       		.uleb128 0xb
 11042 01ff 3B       		.uleb128 0x3b
 11043 0200 05       		.uleb128 0x5
 11044 0201 49       		.uleb128 0x49
 11045 0202 13       		.uleb128 0x13
 11046 0203 00       		.byte	0
 11047 0204 00       		.byte	0
 11048 0205 2A       		.uleb128 0x2a
 11049 0206 2E       		.uleb128 0x2e
 11050 0207 01       		.byte	0x1
 11051 0208 03       		.uleb128 0x3
 11052 0209 0E       		.uleb128 0xe
 11053 020a 3A       		.uleb128 0x3a
 11054 020b 0B       		.uleb128 0xb
 11055 020c 3B       		.uleb128 0x3b
 11056 020d 05       		.uleb128 0x5
 11057 020e 27       		.uleb128 0x27
 11058 020f 19       		.uleb128 0x19
 11059 0210 20       		.uleb128 0x20
 11060 0211 0B       		.uleb128 0xb
 11061 0212 01       		.uleb128 0x1
 11062 0213 13       		.uleb128 0x13
 11063 0214 00       		.byte	0
 11064 0215 00       		.byte	0
 11065 0216 2B       		.uleb128 0x2b
 11066 0217 2E       		.uleb128 0x2e
 11067 0218 00       		.byte	0
 11068 0219 03       		.uleb128 0x3
 11069 021a 0E       		.uleb128 0xe
 11070 021b 3A       		.uleb128 0x3a
 11071 021c 0B       		.uleb128 0xb
 11072 021d 3B       		.uleb128 0x3b
 11073 021e 05       		.uleb128 0x5
 11074 021f 27       		.uleb128 0x27
 11075 0220 19       		.uleb128 0x19
 11076 0221 49       		.uleb128 0x49
 11077 0222 13       		.uleb128 0x13
 11078 0223 20       		.uleb128 0x20
 11079 0224 0B       		.uleb128 0xb
 11080 0225 00       		.byte	0
 11081 0226 00       		.byte	0
 11082 0227 2C       		.uleb128 0x2c
 11083 0228 05       		.uleb128 0x5
 11084 0229 00       		.byte	0
 11085 022a 03       		.uleb128 0x3
 11086 022b 0E       		.uleb128 0xe
 11087 022c 3A       		.uleb128 0x3a
 11088 022d 0B       		.uleb128 0xb
 11089 022e 3B       		.uleb128 0x3b
 11090 022f 05       		.uleb128 0x5
 11091 0230 49       		.uleb128 0x49
 11092 0231 13       		.uleb128 0x13
 11093 0232 00       		.byte	0
 11094 0233 00       		.byte	0
 11095 0234 2D       		.uleb128 0x2d
 11096 0235 2E       		.uleb128 0x2e
ARM GAS  C:\Users\haske\AppData\Local\Temp\ccydbpJh.s 			page 232


 11097 0236 01       		.byte	0x1
 11098 0237 03       		.uleb128 0x3
 11099 0238 0E       		.uleb128 0xe
 11100 0239 3A       		.uleb128 0x3a
 11101 023a 0B       		.uleb128 0xb
 11102 023b 3B       		.uleb128 0x3b
 11103 023c 05       		.uleb128 0x5
 11104 023d 27       		.uleb128 0x27
 11105 023e 19       		.uleb128 0x19
 11106 023f 11       		.uleb128 0x11
 11107 0240 01       		.uleb128 0x1
 11108 0241 12       		.uleb128 0x12
 11109 0242 06       		.uleb128 0x6
 11110 0243 40       		.uleb128 0x40
 11111 0244 18       		.uleb128 0x18
 11112 0245 9742     		.uleb128 0x2117
 11113 0247 19       		.uleb128 0x19
 11114 0248 01       		.uleb128 0x1
 11115 0249 13       		.uleb128 0x13
 11116 024a 00       		.byte	0
 11117 024b 00       		.byte	0
 11118 024c 2E       		.uleb128 0x2e
 11119 024d 05       		.uleb128 0x5
 11120 024e 00       		.byte	0
 11121 024f 03       		.uleb128 0x3
 11122 0250 0E       		.uleb128 0xe
 11123 0251 3A       		.uleb128 0x3a
 11124 0252 0B       		.uleb128 0xb
 11125 0253 3B       		.uleb128 0x3b
 11126 0254 05       		.uleb128 0x5
 11127 0255 49       		.uleb128 0x49
 11128 0256 13       		.uleb128 0x13
 11129 0257 02       		.uleb128 0x2
 11130 0258 17       		.uleb128 0x17
 11131 0259 00       		.byte	0
 11132 025a 00       		.byte	0
 11133 025b 2F       		.uleb128 0x2f
 11134 025c 05       		.uleb128 0x5
 11135 025d 00       		.byte	0
 11136 025e 03       		.uleb128 0x3
 11137 025f 08       		.uleb128 0x8
 11138 0260 3A       		.uleb128 0x3a
 11139 0261 0B       		.uleb128 0xb
 11140 0262 3B       		.uleb128 0x3b
 11141 0263 05       		.uleb128 0x5
 11142 0264 49       		.uleb128 0x49
 11143 0265 13       		.uleb128 0x13
 11144 0266 02       		.uleb128 0x2
 11145 0267 17       		.uleb128 0x17
 11146 0268 00       		.byte	0
 11147 0269 00       		.byte	0
 11148 026a 30       		.uleb128 0x30
 11149 026b 34       		.uleb128 0x34
 11150 026c 00       		.byte	0
 11151 026d 03       		.uleb128 0x3
 11152 026e 08       		.uleb128 0x8
 11153 026f 3A       		.uleb128 0x3a
ARM GAS  C:\Users\haske\AppData\Local\Temp\ccydbpJh.s 			page 233


 11154 0270 0B       		.uleb128 0xb
 11155 0271 3B       		.uleb128 0x3b
 11156 0272 05       		.uleb128 0x5
 11157 0273 49       		.uleb128 0x49
 11158 0274 13       		.uleb128 0x13
 11159 0275 02       		.uleb128 0x2
 11160 0276 17       		.uleb128 0x17
 11161 0277 00       		.byte	0
 11162 0278 00       		.byte	0
 11163 0279 31       		.uleb128 0x31
 11164 027a 34       		.uleb128 0x34
 11165 027b 00       		.byte	0
 11166 027c 03       		.uleb128 0x3
 11167 027d 0E       		.uleb128 0xe
 11168 027e 3A       		.uleb128 0x3a
 11169 027f 0B       		.uleb128 0xb
 11170 0280 3B       		.uleb128 0x3b
 11171 0281 05       		.uleb128 0x5
 11172 0282 49       		.uleb128 0x49
 11173 0283 13       		.uleb128 0x13
 11174 0284 02       		.uleb128 0x2
 11175 0285 17       		.uleb128 0x17
 11176 0286 00       		.byte	0
 11177 0287 00       		.byte	0
 11178 0288 32       		.uleb128 0x32
 11179 0289 1D       		.uleb128 0x1d
 11180 028a 01       		.byte	0x1
 11181 028b 31       		.uleb128 0x31
 11182 028c 13       		.uleb128 0x13
 11183 028d 11       		.uleb128 0x11
 11184 028e 01       		.uleb128 0x1
 11185 028f 12       		.uleb128 0x12
 11186 0290 06       		.uleb128 0x6
 11187 0291 58       		.uleb128 0x58
 11188 0292 0B       		.uleb128 0xb
 11189 0293 59       		.uleb128 0x59
 11190 0294 05       		.uleb128 0x5
 11191 0295 01       		.uleb128 0x1
 11192 0296 13       		.uleb128 0x13
 11193 0297 00       		.byte	0
 11194 0298 00       		.byte	0
 11195 0299 33       		.uleb128 0x33
 11196 029a 05       		.uleb128 0x5
 11197 029b 00       		.byte	0
 11198 029c 31       		.uleb128 0x31
 11199 029d 13       		.uleb128 0x13
 11200 029e 02       		.uleb128 0x2
 11201 029f 17       		.uleb128 0x17
 11202 02a0 00       		.byte	0
 11203 02a1 00       		.byte	0
 11204 02a2 34       		.uleb128 0x34
 11205 02a3 0B       		.uleb128 0xb
 11206 02a4 01       		.byte	0x1
 11207 02a5 11       		.uleb128 0x11
 11208 02a6 01       		.uleb128 0x1
 11209 02a7 12       		.uleb128 0x12
 11210 02a8 06       		.uleb128 0x6
ARM GAS  C:\Users\haske\AppData\Local\Temp\ccydbpJh.s 			page 234


 11211 02a9 01       		.uleb128 0x1
 11212 02aa 13       		.uleb128 0x13
 11213 02ab 00       		.byte	0
 11214 02ac 00       		.byte	0
 11215 02ad 35       		.uleb128 0x35
 11216 02ae 898201   		.uleb128 0x4109
 11217 02b1 01       		.byte	0x1
 11218 02b2 11       		.uleb128 0x11
 11219 02b3 01       		.uleb128 0x1
 11220 02b4 9342     		.uleb128 0x2113
 11221 02b6 18       		.uleb128 0x18
 11222 02b7 01       		.uleb128 0x1
 11223 02b8 13       		.uleb128 0x13
 11224 02b9 00       		.byte	0
 11225 02ba 00       		.byte	0
 11226 02bb 36       		.uleb128 0x36
 11227 02bc 8A8201   		.uleb128 0x410a
 11228 02bf 00       		.byte	0
 11229 02c0 02       		.uleb128 0x2
 11230 02c1 18       		.uleb128 0x18
 11231 02c2 9142     		.uleb128 0x2111
 11232 02c4 18       		.uleb128 0x18
 11233 02c5 00       		.byte	0
 11234 02c6 00       		.byte	0
 11235 02c7 37       		.uleb128 0x37
 11236 02c8 898201   		.uleb128 0x4109
 11237 02cb 01       		.byte	0x1
 11238 02cc 11       		.uleb128 0x11
 11239 02cd 01       		.uleb128 0x1
 11240 02ce 00       		.byte	0
 11241 02cf 00       		.byte	0
 11242 02d0 38       		.uleb128 0x38
 11243 02d1 0B       		.uleb128 0xb
 11244 02d2 01       		.byte	0x1
 11245 02d3 11       		.uleb128 0x11
 11246 02d4 01       		.uleb128 0x1
 11247 02d5 12       		.uleb128 0x12
 11248 02d6 06       		.uleb128 0x6
 11249 02d7 00       		.byte	0
 11250 02d8 00       		.byte	0
 11251 02d9 39       		.uleb128 0x39
 11252 02da 898201   		.uleb128 0x4109
 11253 02dd 01       		.byte	0x1
 11254 02de 11       		.uleb128 0x11
 11255 02df 01       		.uleb128 0x1
 11256 02e0 01       		.uleb128 0x1
 11257 02e1 13       		.uleb128 0x13
 11258 02e2 00       		.byte	0
 11259 02e3 00       		.byte	0
 11260 02e4 3A       		.uleb128 0x3a
 11261 02e5 2E       		.uleb128 0x2e
 11262 02e6 01       		.byte	0x1
 11263 02e7 03       		.uleb128 0x3
 11264 02e8 0E       		.uleb128 0xe
 11265 02e9 3A       		.uleb128 0x3a
 11266 02ea 0B       		.uleb128 0xb
 11267 02eb 3B       		.uleb128 0x3b
ARM GAS  C:\Users\haske\AppData\Local\Temp\ccydbpJh.s 			page 235


 11268 02ec 05       		.uleb128 0x5
 11269 02ed 27       		.uleb128 0x27
 11270 02ee 19       		.uleb128 0x19
 11271 02ef 49       		.uleb128 0x49
 11272 02f0 13       		.uleb128 0x13
 11273 02f1 11       		.uleb128 0x11
 11274 02f2 01       		.uleb128 0x1
 11275 02f3 12       		.uleb128 0x12
 11276 02f4 06       		.uleb128 0x6
 11277 02f5 40       		.uleb128 0x40
 11278 02f6 18       		.uleb128 0x18
 11279 02f7 9742     		.uleb128 0x2117
 11280 02f9 19       		.uleb128 0x19
 11281 02fa 01       		.uleb128 0x1
 11282 02fb 13       		.uleb128 0x13
 11283 02fc 00       		.byte	0
 11284 02fd 00       		.byte	0
 11285 02fe 3B       		.uleb128 0x3b
 11286 02ff 1D       		.uleb128 0x1d
 11287 0300 01       		.byte	0x1
 11288 0301 31       		.uleb128 0x31
 11289 0302 13       		.uleb128 0x13
 11290 0303 11       		.uleb128 0x11
 11291 0304 01       		.uleb128 0x1
 11292 0305 12       		.uleb128 0x12
 11293 0306 06       		.uleb128 0x6
 11294 0307 58       		.uleb128 0x58
 11295 0308 0B       		.uleb128 0xb
 11296 0309 59       		.uleb128 0x59
 11297 030a 05       		.uleb128 0x5
 11298 030b 00       		.byte	0
 11299 030c 00       		.byte	0
 11300 030d 3C       		.uleb128 0x3c
 11301 030e 05       		.uleb128 0x5
 11302 030f 00       		.byte	0
 11303 0310 31       		.uleb128 0x31
 11304 0311 13       		.uleb128 0x13
 11305 0312 00       		.byte	0
 11306 0313 00       		.byte	0
 11307 0314 3D       		.uleb128 0x3d
 11308 0315 34       		.uleb128 0x34
 11309 0316 00       		.byte	0
 11310 0317 31       		.uleb128 0x31
 11311 0318 13       		.uleb128 0x13
 11312 0319 00       		.byte	0
 11313 031a 00       		.byte	0
 11314 031b 3E       		.uleb128 0x3e
 11315 031c 34       		.uleb128 0x34
 11316 031d 00       		.byte	0
 11317 031e 31       		.uleb128 0x31
 11318 031f 13       		.uleb128 0x13
 11319 0320 02       		.uleb128 0x2
 11320 0321 17       		.uleb128 0x17
 11321 0322 00       		.byte	0
 11322 0323 00       		.byte	0
 11323 0324 3F       		.uleb128 0x3f
 11324 0325 2E       		.uleb128 0x2e
ARM GAS  C:\Users\haske\AppData\Local\Temp\ccydbpJh.s 			page 236


 11325 0326 01       		.byte	0x1
 11326 0327 03       		.uleb128 0x3
 11327 0328 0E       		.uleb128 0xe
 11328 0329 3A       		.uleb128 0x3a
 11329 032a 0B       		.uleb128 0xb
 11330 032b 3B       		.uleb128 0x3b
 11331 032c 0B       		.uleb128 0xb
 11332 032d 27       		.uleb128 0x27
 11333 032e 19       		.uleb128 0x19
 11334 032f 11       		.uleb128 0x11
 11335 0330 01       		.uleb128 0x1
 11336 0331 12       		.uleb128 0x12
 11337 0332 06       		.uleb128 0x6
 11338 0333 40       		.uleb128 0x40
 11339 0334 18       		.uleb128 0x18
 11340 0335 9742     		.uleb128 0x2117
 11341 0337 19       		.uleb128 0x19
 11342 0338 01       		.uleb128 0x1
 11343 0339 13       		.uleb128 0x13
 11344 033a 00       		.byte	0
 11345 033b 00       		.byte	0
 11346 033c 40       		.uleb128 0x40
 11347 033d 05       		.uleb128 0x5
 11348 033e 00       		.byte	0
 11349 033f 03       		.uleb128 0x3
 11350 0340 0E       		.uleb128 0xe
 11351 0341 3A       		.uleb128 0x3a
 11352 0342 0B       		.uleb128 0xb
 11353 0343 3B       		.uleb128 0x3b
 11354 0344 0B       		.uleb128 0xb
 11355 0345 49       		.uleb128 0x49
 11356 0346 13       		.uleb128 0x13
 11357 0347 02       		.uleb128 0x2
 11358 0348 17       		.uleb128 0x17
 11359 0349 00       		.byte	0
 11360 034a 00       		.byte	0
 11361 034b 41       		.uleb128 0x41
 11362 034c 05       		.uleb128 0x5
 11363 034d 00       		.byte	0
 11364 034e 03       		.uleb128 0x3
 11365 034f 08       		.uleb128 0x8
 11366 0350 3A       		.uleb128 0x3a
 11367 0351 0B       		.uleb128 0xb
 11368 0352 3B       		.uleb128 0x3b
 11369 0353 0B       		.uleb128 0xb
 11370 0354 49       		.uleb128 0x49
 11371 0355 13       		.uleb128 0x13
 11372 0356 02       		.uleb128 0x2
 11373 0357 17       		.uleb128 0x17
 11374 0358 00       		.byte	0
 11375 0359 00       		.byte	0
 11376 035a 42       		.uleb128 0x42
 11377 035b 34       		.uleb128 0x34
 11378 035c 00       		.byte	0
 11379 035d 03       		.uleb128 0x3
 11380 035e 0E       		.uleb128 0xe
 11381 035f 3A       		.uleb128 0x3a
ARM GAS  C:\Users\haske\AppData\Local\Temp\ccydbpJh.s 			page 237


 11382 0360 0B       		.uleb128 0xb
 11383 0361 3B       		.uleb128 0x3b
 11384 0362 0B       		.uleb128 0xb
 11385 0363 49       		.uleb128 0x49
 11386 0364 13       		.uleb128 0x13
 11387 0365 02       		.uleb128 0x2
 11388 0366 17       		.uleb128 0x17
 11389 0367 00       		.byte	0
 11390 0368 00       		.byte	0
 11391 0369 43       		.uleb128 0x43
 11392 036a 34       		.uleb128 0x34
 11393 036b 00       		.byte	0
 11394 036c 03       		.uleb128 0x3
 11395 036d 08       		.uleb128 0x8
 11396 036e 3A       		.uleb128 0x3a
 11397 036f 0B       		.uleb128 0xb
 11398 0370 3B       		.uleb128 0x3b
 11399 0371 0B       		.uleb128 0xb
 11400 0372 49       		.uleb128 0x49
 11401 0373 13       		.uleb128 0x13
 11402 0374 02       		.uleb128 0x2
 11403 0375 17       		.uleb128 0x17
 11404 0376 00       		.byte	0
 11405 0377 00       		.byte	0
 11406 0378 44       		.uleb128 0x44
 11407 0379 1D       		.uleb128 0x1d
 11408 037a 01       		.byte	0x1
 11409 037b 31       		.uleb128 0x31
 11410 037c 13       		.uleb128 0x13
 11411 037d 11       		.uleb128 0x11
 11412 037e 01       		.uleb128 0x1
 11413 037f 12       		.uleb128 0x12
 11414 0380 06       		.uleb128 0x6
 11415 0381 58       		.uleb128 0x58
 11416 0382 0B       		.uleb128 0xb
 11417 0383 59       		.uleb128 0x59
 11418 0384 0B       		.uleb128 0xb
 11419 0385 01       		.uleb128 0x1
 11420 0386 13       		.uleb128 0x13
 11421 0387 00       		.byte	0
 11422 0388 00       		.byte	0
 11423 0389 45       		.uleb128 0x45
 11424 038a 898201   		.uleb128 0x4109
 11425 038d 01       		.byte	0x1
 11426 038e 11       		.uleb128 0x11
 11427 038f 01       		.uleb128 0x1
 11428 0390 9342     		.uleb128 0x2113
 11429 0392 18       		.uleb128 0x18
 11430 0393 00       		.byte	0
 11431 0394 00       		.byte	0
 11432 0395 46       		.uleb128 0x46
 11433 0396 898201   		.uleb128 0x4109
 11434 0399 00       		.byte	0
 11435 039a 11       		.uleb128 0x11
 11436 039b 01       		.uleb128 0x1
 11437 039c 31       		.uleb128 0x31
 11438 039d 13       		.uleb128 0x13
ARM GAS  C:\Users\haske\AppData\Local\Temp\ccydbpJh.s 			page 238


 11439 039e 00       		.byte	0
 11440 039f 00       		.byte	0
 11441 03a0 47       		.uleb128 0x47
 11442 03a1 898201   		.uleb128 0x4109
 11443 03a4 01       		.byte	0x1
 11444 03a5 11       		.uleb128 0x11
 11445 03a6 01       		.uleb128 0x1
 11446 03a7 31       		.uleb128 0x31
 11447 03a8 13       		.uleb128 0x13
 11448 03a9 00       		.byte	0
 11449 03aa 00       		.byte	0
 11450 03ab 48       		.uleb128 0x48
 11451 03ac 0B       		.uleb128 0xb
 11452 03ad 01       		.byte	0x1
 11453 03ae 55       		.uleb128 0x55
 11454 03af 17       		.uleb128 0x17
 11455 03b0 00       		.byte	0
 11456 03b1 00       		.byte	0
 11457 03b2 49       		.uleb128 0x49
 11458 03b3 2E       		.uleb128 0x2e
 11459 03b4 01       		.byte	0x1
 11460 03b5 3F       		.uleb128 0x3f
 11461 03b6 19       		.uleb128 0x19
 11462 03b7 03       		.uleb128 0x3
 11463 03b8 0E       		.uleb128 0xe
 11464 03b9 3A       		.uleb128 0x3a
 11465 03ba 0B       		.uleb128 0xb
 11466 03bb 3B       		.uleb128 0x3b
 11467 03bc 0B       		.uleb128 0xb
 11468 03bd 27       		.uleb128 0x27
 11469 03be 19       		.uleb128 0x19
 11470 03bf 11       		.uleb128 0x11
 11471 03c0 01       		.uleb128 0x1
 11472 03c1 12       		.uleb128 0x12
 11473 03c2 06       		.uleb128 0x6
 11474 03c3 40       		.uleb128 0x40
 11475 03c4 18       		.uleb128 0x18
 11476 03c5 9742     		.uleb128 0x2117
 11477 03c7 19       		.uleb128 0x19
 11478 03c8 01       		.uleb128 0x1
 11479 03c9 13       		.uleb128 0x13
 11480 03ca 00       		.byte	0
 11481 03cb 00       		.byte	0
 11482 03cc 4A       		.uleb128 0x4a
 11483 03cd 34       		.uleb128 0x34
 11484 03ce 00       		.byte	0
 11485 03cf 03       		.uleb128 0x3
 11486 03d0 0E       		.uleb128 0xe
 11487 03d1 3A       		.uleb128 0x3a
 11488 03d2 0B       		.uleb128 0xb
 11489 03d3 3B       		.uleb128 0x3b
 11490 03d4 0B       		.uleb128 0xb
 11491 03d5 49       		.uleb128 0x49
 11492 03d6 13       		.uleb128 0x13
 11493 03d7 02       		.uleb128 0x2
 11494 03d8 18       		.uleb128 0x18
 11495 03d9 00       		.byte	0
ARM GAS  C:\Users\haske\AppData\Local\Temp\ccydbpJh.s 			page 239


 11496 03da 00       		.byte	0
 11497 03db 4B       		.uleb128 0x4b
 11498 03dc 898201   		.uleb128 0x4109
 11499 03df 01       		.byte	0x1
 11500 03e0 11       		.uleb128 0x11
 11501 03e1 01       		.uleb128 0x1
 11502 03e2 31       		.uleb128 0x31
 11503 03e3 13       		.uleb128 0x13
 11504 03e4 01       		.uleb128 0x1
 11505 03e5 13       		.uleb128 0x13
 11506 03e6 00       		.byte	0
 11507 03e7 00       		.byte	0
 11508 03e8 4C       		.uleb128 0x4c
 11509 03e9 34       		.uleb128 0x34
 11510 03ea 00       		.byte	0
 11511 03eb 03       		.uleb128 0x3
 11512 03ec 0E       		.uleb128 0xe
 11513 03ed 3A       		.uleb128 0x3a
 11514 03ee 0B       		.uleb128 0xb
 11515 03ef 3B       		.uleb128 0x3b
 11516 03f0 0B       		.uleb128 0xb
 11517 03f1 49       		.uleb128 0x49
 11518 03f2 13       		.uleb128 0x13
 11519 03f3 00       		.byte	0
 11520 03f4 00       		.byte	0
 11521 03f5 4D       		.uleb128 0x4d
 11522 03f6 34       		.uleb128 0x34
 11523 03f7 00       		.byte	0
 11524 03f8 03       		.uleb128 0x3
 11525 03f9 0E       		.uleb128 0xe
 11526 03fa 3A       		.uleb128 0x3a
 11527 03fb 0B       		.uleb128 0xb
 11528 03fc 3B       		.uleb128 0x3b
 11529 03fd 0B       		.uleb128 0xb
 11530 03fe 49       		.uleb128 0x49
 11531 03ff 13       		.uleb128 0x13
 11532 0400 3F       		.uleb128 0x3f
 11533 0401 19       		.uleb128 0x19
 11534 0402 3C       		.uleb128 0x3c
 11535 0403 19       		.uleb128 0x19
 11536 0404 00       		.byte	0
 11537 0405 00       		.byte	0
 11538 0406 4E       		.uleb128 0x4e
 11539 0407 2E       		.uleb128 0x2e
 11540 0408 00       		.byte	0
 11541 0409 3F       		.uleb128 0x3f
 11542 040a 19       		.uleb128 0x19
 11543 040b 3C       		.uleb128 0x3c
 11544 040c 19       		.uleb128 0x19
 11545 040d 6E       		.uleb128 0x6e
 11546 040e 0E       		.uleb128 0xe
 11547 040f 03       		.uleb128 0x3
 11548 0410 0E       		.uleb128 0xe
 11549 0411 3A       		.uleb128 0x3a
 11550 0412 0B       		.uleb128 0xb
 11551 0413 3B       		.uleb128 0x3b
 11552 0414 0B       		.uleb128 0xb
ARM GAS  C:\Users\haske\AppData\Local\Temp\ccydbpJh.s 			page 240


 11553 0415 00       		.byte	0
 11554 0416 00       		.byte	0
 11555 0417 4F       		.uleb128 0x4f
 11556 0418 2E       		.uleb128 0x2e
 11557 0419 00       		.byte	0
 11558 041a 3F       		.uleb128 0x3f
 11559 041b 19       		.uleb128 0x19
 11560 041c 3C       		.uleb128 0x3c
 11561 041d 19       		.uleb128 0x19
 11562 041e 6E       		.uleb128 0x6e
 11563 041f 0E       		.uleb128 0xe
 11564 0420 03       		.uleb128 0x3
 11565 0421 0E       		.uleb128 0xe
 11566 0422 3A       		.uleb128 0x3a
 11567 0423 0B       		.uleb128 0xb
 11568 0424 3B       		.uleb128 0x3b
 11569 0425 05       		.uleb128 0x5
 11570 0426 00       		.byte	0
 11571 0427 00       		.byte	0
 11572 0428 00       		.byte	0
 11573              		.section	.debug_loc,"",%progbits
 11574              	.Ldebug_loc0:
 11575              	.LLST0:
 11576 0000 00000000 		.4byte	.LVL0
 11577 0004 30000000 		.4byte	.LVL8
 11578 0008 0100     		.2byte	0x1
 11579 000a 50       		.byte	0x50
 11580 000b 30000000 		.4byte	.LVL8
 11581 000f 88000000 		.4byte	.LVL25
 11582 0013 0100     		.2byte	0x1
 11583 0015 58       		.byte	0x58
 11584 0016 88000000 		.4byte	.LVL25
 11585 001a C8000000 		.4byte	.LVL35
 11586 001e 0100     		.2byte	0x1
 11587 0020 54       		.byte	0x54
 11588 0021 C8000000 		.4byte	.LVL35
 11589 0025 F4000000 		.4byte	.LVL41
 11590 0029 0100     		.2byte	0x1
 11591 002b 58       		.byte	0x58
 11592 002c F4000000 		.4byte	.LVL41
 11593 0030 72010000 		.4byte	.LVL55
 11594 0034 0100     		.2byte	0x1
 11595 0036 57       		.byte	0x57
 11596 0037 00000000 		.4byte	0
 11597 003b 00000000 		.4byte	0
 11598              	.LLST1:
 11599 003f 00000000 		.4byte	.LVL0
 11600 0043 44000000 		.4byte	.LVL12
 11601 0047 0100     		.2byte	0x1
 11602 0049 51       		.byte	0x51
 11603 004a 44000000 		.4byte	.LVL12
 11604 004e 8C010000 		.4byte	.LFE163
 11605 0052 0400     		.2byte	0x4
 11606 0054 F3       		.byte	0xf3
 11607 0055 01       		.uleb128 0x1
 11608 0056 51       		.byte	0x51
 11609 0057 9F       		.byte	0x9f
ARM GAS  C:\Users\haske\AppData\Local\Temp\ccydbpJh.s 			page 241


 11610 0058 00000000 		.4byte	0
 11611 005c 00000000 		.4byte	0
 11612              	.LLST2:
 11613 0060 00000000 		.4byte	.LVL0
 11614 0064 14000000 		.4byte	.LVL1
 11615 0068 0100     		.2byte	0x1
 11616 006a 52       		.byte	0x52
 11617 006b 14000000 		.4byte	.LVL1
 11618 006f 8C010000 		.4byte	.LFE163
 11619 0073 0400     		.2byte	0x4
 11620 0075 F3       		.byte	0xf3
 11621 0076 01       		.uleb128 0x1
 11622 0077 52       		.byte	0x52
 11623 0078 9F       		.byte	0x9f
 11624 0079 00000000 		.4byte	0
 11625 007d 00000000 		.4byte	0
 11626              	.LLST3:
 11627 0081 00000000 		.4byte	.LVL0
 11628 0085 18000000 		.4byte	.LVL2
 11629 0089 0100     		.2byte	0x1
 11630 008b 53       		.byte	0x53
 11631 008c 00000000 		.4byte	0
 11632 0090 00000000 		.4byte	0
 11633              	.LLST4:
 11634 0094 00000000 		.4byte	.LVL0
 11635 0098 18000000 		.4byte	.LVL2
 11636 009c 0200     		.2byte	0x2
 11637 009e 91       		.byte	0x91
 11638 009f 00       		.sleb128 0
 11639 00a0 18000000 		.4byte	.LVL2
 11640 00a4 1A000000 		.4byte	.LVL3
 11641 00a8 0200     		.2byte	0x2
 11642 00aa 73       		.byte	0x73
 11643 00ab 00       		.sleb128 0
 11644 00ac 1A000000 		.4byte	.LVL3
 11645 00b0 8C010000 		.4byte	.LFE163
 11646 00b4 0200     		.2byte	0x2
 11647 00b6 91       		.byte	0x91
 11648 00b7 00       		.sleb128 0
 11649 00b8 00000000 		.4byte	0
 11650 00bc 00000000 		.4byte	0
 11651              	.LLST5:
 11652 00c0 00000000 		.4byte	.LVL0
 11653 00c4 18000000 		.4byte	.LVL2
 11654 00c8 0200     		.2byte	0x2
 11655 00ca 91       		.byte	0x91
 11656 00cb 04       		.sleb128 4
 11657 00cc 18000000 		.4byte	.LVL2
 11658 00d0 1A000000 		.4byte	.LVL3
 11659 00d4 0200     		.2byte	0x2
 11660 00d6 73       		.byte	0x73
 11661 00d7 04       		.sleb128 4
 11662 00d8 1A000000 		.4byte	.LVL3
 11663 00dc F4000000 		.4byte	.LVL41
 11664 00e0 0200     		.2byte	0x2
 11665 00e2 91       		.byte	0x91
 11666 00e3 04       		.sleb128 4
ARM GAS  C:\Users\haske\AppData\Local\Temp\ccydbpJh.s 			page 242


 11667 00e4 4E010000 		.4byte	.LVL50
 11668 00e8 52010000 		.4byte	.LVL51
 11669 00ec 0100     		.2byte	0x1
 11670 00ee 5A       		.byte	0x5a
 11671 00ef 64010000 		.4byte	.LVL53
 11672 00f3 72010000 		.4byte	.LVL55
 11673 00f7 0100     		.2byte	0x1
 11674 00f9 5A       		.byte	0x5a
 11675 00fa 00000000 		.4byte	0
 11676 00fe 00000000 		.4byte	0
 11677              	.LLST6:
 11678 0102 00000000 		.4byte	.LVL0
 11679 0106 18000000 		.4byte	.LVL2
 11680 010a 0200     		.2byte	0x2
 11681 010c 91       		.byte	0x91
 11682 010d 08       		.sleb128 8
 11683 010e 18000000 		.4byte	.LVL2
 11684 0112 1A000000 		.4byte	.LVL3
 11685 0116 0200     		.2byte	0x2
 11686 0118 73       		.byte	0x73
 11687 0119 08       		.sleb128 8
 11688 011a 1A000000 		.4byte	.LVL3
 11689 011e 22000000 		.4byte	.LVL4
 11690 0122 0200     		.2byte	0x2
 11691 0124 91       		.byte	0x91
 11692 0125 08       		.sleb128 8
 11693 0126 22000000 		.4byte	.LVL4
 11694 012a 26000000 		.4byte	.LVL5
 11695 012e 0200     		.2byte	0x2
 11696 0130 73       		.byte	0x73
 11697 0131 00       		.sleb128 0
 11698 0132 26000000 		.4byte	.LVL5
 11699 0136 8C010000 		.4byte	.LFE163
 11700 013a 0200     		.2byte	0x2
 11701 013c 91       		.byte	0x91
 11702 013d 08       		.sleb128 8
 11703 013e 00000000 		.4byte	0
 11704 0142 00000000 		.4byte	0
 11705              	.LLST7:
 11706 0146 00000000 		.4byte	.LVL0
 11707 014a 18000000 		.4byte	.LVL2
 11708 014e 0200     		.2byte	0x2
 11709 0150 91       		.byte	0x91
 11710 0151 0C       		.sleb128 12
 11711 0152 18000000 		.4byte	.LVL2
 11712 0156 1A000000 		.4byte	.LVL3
 11713 015a 0200     		.2byte	0x2
 11714 015c 73       		.byte	0x73
 11715 015d 0C       		.sleb128 12
 11716 015e 1A000000 		.4byte	.LVL3
 11717 0162 2A000000 		.4byte	.LVL6
 11718 0166 0200     		.2byte	0x2
 11719 0168 91       		.byte	0x91
 11720 0169 0C       		.sleb128 12
 11721 016a 2A000000 		.4byte	.LVL6
 11722 016e 30000000 		.4byte	.LVL8
 11723 0172 0200     		.2byte	0x2
ARM GAS  C:\Users\haske\AppData\Local\Temp\ccydbpJh.s 			page 243


 11724 0174 73       		.byte	0x73
 11725 0175 00       		.sleb128 0
 11726 0176 30000000 		.4byte	.LVL8
 11727 017a 8C010000 		.4byte	.LFE163
 11728 017e 0200     		.2byte	0x2
 11729 0180 91       		.byte	0x91
 11730 0181 0C       		.sleb128 12
 11731 0182 00000000 		.4byte	0
 11732 0186 00000000 		.4byte	0
 11733              	.LLST8:
 11734 018a 3C000000 		.4byte	.LVL10
 11735 018e 40000000 		.4byte	.LVL11
 11736 0192 0100     		.2byte	0x1
 11737 0194 53       		.byte	0x53
 11738 0195 40000000 		.4byte	.LVL11
 11739 0199 8C000000 		.4byte	.LVL26
 11740 019d 0100     		.2byte	0x1
 11741 019f 59       		.byte	0x59
 11742 01a0 8C000000 		.4byte	.LVL26
 11743 01a4 C8000000 		.4byte	.LVL35
 11744 01a8 0100     		.2byte	0x1
 11745 01aa 57       		.byte	0x57
 11746 01ab C8000000 		.4byte	.LVL35
 11747 01af 72010000 		.4byte	.LVL55
 11748 01b3 0100     		.2byte	0x1
 11749 01b5 59       		.byte	0x59
 11750 01b6 00000000 		.4byte	0
 11751 01ba 00000000 		.4byte	0
 11752              	.LLST9:
 11753 01be 4C000000 		.4byte	.LVL14
 11754 01c2 5C000000 		.4byte	.LVL15
 11755 01c6 0100     		.2byte	0x1
 11756 01c8 53       		.byte	0x53
 11757 01c9 5C000000 		.4byte	.LVL15
 11758 01cd 60000000 		.4byte	.LVL16
 11759 01d1 0200     		.2byte	0x2
 11760 01d3 91       		.byte	0x91
 11761 01d4 4C       		.sleb128 -52
 11762 01d5 60000000 		.4byte	.LVL16
 11763 01d9 62000000 		.4byte	.LVL17
 11764 01dd 0100     		.2byte	0x1
 11765 01df 53       		.byte	0x53
 11766 01e0 62000000 		.4byte	.LVL17
 11767 01e4 66000000 		.4byte	.LVL18
 11768 01e8 0200     		.2byte	0x2
 11769 01ea 91       		.byte	0x91
 11770 01eb 4C       		.sleb128 -52
 11771 01ec 66000000 		.4byte	.LVL18
 11772 01f0 68000000 		.4byte	.LVL19
 11773 01f4 0100     		.2byte	0x1
 11774 01f6 53       		.byte	0x53
 11775 01f7 68000000 		.4byte	.LVL19
 11776 01fb 8C010000 		.4byte	.LFE163
 11777 01ff 0200     		.2byte	0x2
 11778 0201 91       		.byte	0x91
 11779 0202 4C       		.sleb128 -52
 11780 0203 00000000 		.4byte	0
ARM GAS  C:\Users\haske\AppData\Local\Temp\ccydbpJh.s 			page 244


 11781 0207 00000000 		.4byte	0
 11782              	.LLST10:
 11783 020b 8E000000 		.4byte	.LVL27
 11784 020f AE000000 		.4byte	.LVL31
 11785 0213 0100     		.2byte	0x1
 11786 0215 56       		.byte	0x56
 11787 0216 B0000000 		.4byte	.LVL32
 11788 021a C0000000 		.4byte	.LVL34
 11789 021e 0100     		.2byte	0x1
 11790 0220 56       		.byte	0x56
 11791 0221 F4000000 		.4byte	.LVL41
 11792 0225 4E010000 		.4byte	.LVL50
 11793 0229 0100     		.2byte	0x1
 11794 022b 54       		.byte	0x54
 11795 022c 52010000 		.4byte	.LVL51
 11796 0230 6A010000 		.4byte	.LVL54
 11797 0234 0100     		.2byte	0x1
 11798 0236 54       		.byte	0x54
 11799 0237 00000000 		.4byte	0
 11800 023b 00000000 		.4byte	0
 11801              	.LLST11:
 11802 023f 7E000000 		.4byte	.LVL22
 11803 0243 8E000000 		.4byte	.LVL27
 11804 0247 0200     		.2byte	0x2
 11805 0249 30       		.byte	0x30
 11806 024a 9F       		.byte	0x9f
 11807 024b 8E000000 		.4byte	.LVL27
 11808 024f C8000000 		.4byte	.LVL35
 11809 0253 0100     		.2byte	0x1
 11810 0255 58       		.byte	0x58
 11811 0256 E8000000 		.4byte	.LVL38
 11812 025a F4000000 		.4byte	.LVL41
 11813 025e 0200     		.2byte	0x2
 11814 0260 30       		.byte	0x30
 11815 0261 9F       		.byte	0x9f
 11816 0262 F4000000 		.4byte	.LVL41
 11817 0266 4E010000 		.4byte	.LVL50
 11818 026a 0200     		.2byte	0x2
 11819 026c 91       		.byte	0x91
 11820 026d 44       		.sleb128 -60
 11821 026e 4E010000 		.4byte	.LVL50
 11822 0272 52010000 		.4byte	.LVL51
 11823 0276 0100     		.2byte	0x1
 11824 0278 52       		.byte	0x52
 11825 0279 52010000 		.4byte	.LVL51
 11826 027d 72010000 		.4byte	.LVL55
 11827 0281 0200     		.2byte	0x2
 11828 0283 91       		.byte	0x91
 11829 0284 44       		.sleb128 -60
 11830 0285 00000000 		.4byte	0
 11831 0289 00000000 		.4byte	0
 11832              	.LLST12:
 11833 028d 60000000 		.4byte	.LVL16
 11834 0291 66000000 		.4byte	.LVL18
 11835 0295 0600     		.2byte	0x6
 11836 0297 03       		.byte	0x3
 11837 0298 00000000 		.4byte	color_blend_true_color_multiply
ARM GAS  C:\Users\haske\AppData\Local\Temp\ccydbpJh.s 			page 245


 11838 029c 9F       		.byte	0x9f
 11839 029d 6A000000 		.4byte	.LVL20
 11840 02a1 72010000 		.4byte	.LVL55
 11841 02a5 0100     		.2byte	0x1
 11842 02a7 5B       		.byte	0x5b
 11843 02a8 00000000 		.4byte	0
 11844 02ac 00000000 		.4byte	0
 11845              	.LLST13:
 11846 02b0 2C000000 		.4byte	.LVL7
 11847 02b4 38000000 		.4byte	.LVL9
 11848 02b8 0100     		.2byte	0x1
 11849 02ba 51       		.byte	0x51
 11850 02bb 00000000 		.4byte	0
 11851 02bf 00000000 		.4byte	0
 11852              	.LLST14:
 11853 02c3 3C000000 		.4byte	.LVL10
 11854 02c7 44000000 		.4byte	.LVL12
 11855 02cb 0100     		.2byte	0x1
 11856 02cd 51       		.byte	0x51
 11857 02ce 44000000 		.4byte	.LVL12
 11858 02d2 48000000 		.4byte	.LVL13
 11859 02d6 0400     		.2byte	0x4
 11860 02d8 F3       		.byte	0xf3
 11861 02d9 01       		.uleb128 0x1
 11862 02da 51       		.byte	0x51
 11863 02db 9F       		.byte	0x9f
 11864 02dc 00000000 		.4byte	0
 11865 02e0 00000000 		.4byte	0
 11866              	.LLST15:
 11867 02e4 82000000 		.4byte	.LVL23
 11868 02e8 86000000 		.4byte	.LVL24
 11869 02ec 0100     		.2byte	0x1
 11870 02ee 54       		.byte	0x54
 11871 02ef 00000000 		.4byte	0
 11872 02f3 00000000 		.4byte	0
 11873              	.LLST16:
 11874 02f7 8E000000 		.4byte	.LVL27
 11875 02fb A6000000 		.4byte	.LVL28
 11876 02ff 0100     		.2byte	0x1
 11877 0301 50       		.byte	0x50
 11878 0302 A8000000 		.4byte	.LVL29
 11879 0306 C8000000 		.4byte	.LVL35
 11880 030a 0100     		.2byte	0x1
 11881 030c 50       		.byte	0x50
 11882 030d 72010000 		.4byte	.LVL55
 11883 0311 8C010000 		.4byte	.LFE163
 11884 0315 0100     		.2byte	0x1
 11885 0317 50       		.byte	0x50
 11886 0318 00000000 		.4byte	0
 11887 031c 00000000 		.4byte	0
 11888              	.LLST17:
 11889 0320 EE000000 		.4byte	.LVL39
 11890 0324 F2000000 		.4byte	.LVL40
 11891 0328 0100     		.2byte	0x1
 11892 032a 57       		.byte	0x57
 11893 032b F4000000 		.4byte	.LVL41
 11894 032f F8000000 		.4byte	.LVL42
ARM GAS  C:\Users\haske\AppData\Local\Temp\ccydbpJh.s 			page 246


 11895 0333 0100     		.2byte	0x1
 11896 0335 52       		.byte	0x52
 11897 0336 F8000000 		.4byte	.LVL42
 11898 033a 3B010000 		.4byte	.LVL45-1
 11899 033e 0100     		.2byte	0x1
 11900 0340 5C       		.byte	0x5c
 11901 0341 44010000 		.4byte	.LVL47
 11902 0345 4E010000 		.4byte	.LVL50
 11903 0349 0100     		.2byte	0x1
 11904 034b 52       		.byte	0x52
 11905 034c 4E010000 		.4byte	.LVL50
 11906 0350 8C010000 		.4byte	.LFE163
 11907 0354 0100     		.2byte	0x1
 11908 0356 5C       		.byte	0x5c
 11909 0357 00000000 		.4byte	0
 11910 035b 00000000 		.4byte	0
 11911              	.LLST18:
 11912 035f F4000000 		.4byte	.LVL41
 11913 0363 3A010000 		.4byte	.LVL44
 11914 0367 0100     		.2byte	0x1
 11915 0369 50       		.byte	0x50
 11916 036a 46010000 		.4byte	.LVL48
 11917 036e 8C010000 		.4byte	.LFE163
 11918 0372 0100     		.2byte	0x1
 11919 0374 50       		.byte	0x50
 11920 0375 00000000 		.4byte	0
 11921 0379 00000000 		.4byte	0
 11922              	.LLST19:
 11923 037d C8000000 		.4byte	.LVL35
 11924 0381 F4000000 		.4byte	.LVL41
 11925 0385 0200     		.2byte	0x2
 11926 0387 30       		.byte	0x30
 11927 0388 9F       		.byte	0x9f
 11928 0389 F4000000 		.4byte	.LVL41
 11929 038d 4E010000 		.4byte	.LVL50
 11930 0391 0200     		.2byte	0x2
 11931 0393 7D       		.byte	0x7d
 11932 0394 00       		.sleb128 0
 11933 0395 4E010000 		.4byte	.LVL50
 11934 0399 52010000 		.4byte	.LVL51
 11935 039d 0100     		.2byte	0x1
 11936 039f 53       		.byte	0x53
 11937 03a0 52010000 		.4byte	.LVL51
 11938 03a4 6A010000 		.4byte	.LVL54
 11939 03a8 0200     		.2byte	0x2
 11940 03aa 7D       		.byte	0x7d
 11941 03ab 00       		.sleb128 0
 11942 03ac 6A010000 		.4byte	.LVL54
 11943 03b0 72010000 		.4byte	.LVL55
 11944 03b4 0100     		.2byte	0x1
 11945 03b6 53       		.byte	0x53
 11946 03b7 00000000 		.4byte	0
 11947 03bb 00000000 		.4byte	0
 11948              	.LLST20:
 11949 03bf E2000000 		.4byte	.LVL37
 11950 03c3 E7000000 		.4byte	.LVL38-1
 11951 03c7 0100     		.2byte	0x1
ARM GAS  C:\Users\haske\AppData\Local\Temp\ccydbpJh.s 			page 247


 11952 03c9 52       		.byte	0x52
 11953 03ca 2C010000 		.4byte	.LVL43
 11954 03ce 3B010000 		.4byte	.LVL45-1
 11955 03d2 0100     		.2byte	0x1
 11956 03d4 52       		.byte	0x52
 11957 03d5 00000000 		.4byte	0
 11958 03d9 00000000 		.4byte	0
 11959              	.LLST21:
 11960 03dd 00000000 		.4byte	.LVL56
 11961 03e1 36000000 		.4byte	.LVL65
 11962 03e5 0100     		.2byte	0x1
 11963 03e7 50       		.byte	0x50
 11964 03e8 36000000 		.4byte	.LVL65
 11965 03ec A8010000 		.4byte	.LVL112
 11966 03f0 0100     		.2byte	0x1
 11967 03f2 57       		.byte	0x57
 11968 03f3 00000000 		.4byte	0
 11969 03f7 00000000 		.4byte	0
 11970              	.LLST22:
 11971 03fb 00000000 		.4byte	.LVL56
 11972 03ff 4A000000 		.4byte	.LVL69
 11973 0403 0100     		.2byte	0x1
 11974 0405 51       		.byte	0x51
 11975 0406 4A000000 		.4byte	.LVL69
 11976 040a C0010000 		.4byte	.LFE166
 11977 040e 0400     		.2byte	0x4
 11978 0410 F3       		.byte	0xf3
 11979 0411 01       		.uleb128 0x1
 11980 0412 51       		.byte	0x51
 11981 0413 9F       		.byte	0x9f
 11982 0414 00000000 		.4byte	0
 11983 0418 00000000 		.4byte	0
 11984              	.LLST23:
 11985 041c 00000000 		.4byte	.LVL56
 11986 0420 1A000000 		.4byte	.LVL58
 11987 0424 0100     		.2byte	0x1
 11988 0426 52       		.byte	0x52
 11989 0427 1A000000 		.4byte	.LVL58
 11990 042b C0010000 		.4byte	.LFE166
 11991 042f 0400     		.2byte	0x4
 11992 0431 F3       		.byte	0xf3
 11993 0432 01       		.uleb128 0x1
 11994 0433 52       		.byte	0x52
 11995 0434 9F       		.byte	0x9f
 11996 0435 00000000 		.4byte	0
 11997 0439 00000000 		.4byte	0
 11998              	.LLST24:
 11999 043d 00000000 		.4byte	.LVL56
 12000 0441 16000000 		.4byte	.LVL57
 12001 0445 0100     		.2byte	0x1
 12002 0447 53       		.byte	0x53
 12003 0448 16000000 		.4byte	.LVL57
 12004 044c A8010000 		.4byte	.LVL114
 12005 0450 0100     		.2byte	0x1
 12006 0452 5A       		.byte	0x5a
 12007 0453 00000000 		.4byte	0
 12008 0457 00000000 		.4byte	0
ARM GAS  C:\Users\haske\AppData\Local\Temp\ccydbpJh.s 			page 248


 12009              	.LLST25:
 12010 045b 00000000 		.4byte	.LVL56
 12011 045f 16000000 		.4byte	.LVL57
 12012 0463 0200     		.2byte	0x2
 12013 0465 91       		.byte	0x91
 12014 0466 00       		.sleb128 0
 12015 0467 16000000 		.4byte	.LVL57
 12016 046b 1A000000 		.4byte	.LVL58
 12017 046f 0200     		.2byte	0x2
 12018 0471 73       		.byte	0x73
 12019 0472 00       		.sleb128 0
 12020 0473 1A000000 		.4byte	.LVL58
 12021 0477 C0010000 		.4byte	.LFE166
 12022 047b 0200     		.2byte	0x2
 12023 047d 91       		.byte	0x91
 12024 047e 00       		.sleb128 0
 12025 047f 00000000 		.4byte	0
 12026 0483 00000000 		.4byte	0
 12027              	.LLST26:
 12028 0487 00000000 		.4byte	.LVL56
 12029 048b 16000000 		.4byte	.LVL57
 12030 048f 0200     		.2byte	0x2
 12031 0491 91       		.byte	0x91
 12032 0492 04       		.sleb128 4
 12033 0493 16000000 		.4byte	.LVL57
 12034 0497 1A000000 		.4byte	.LVL58
 12035 049b 0200     		.2byte	0x2
 12036 049d 73       		.byte	0x73
 12037 049e 04       		.sleb128 4
 12038 049f 1A000000 		.4byte	.LVL58
 12039 04a3 1E000000 		.4byte	.LVL59
 12040 04a7 0200     		.2byte	0x2
 12041 04a9 91       		.byte	0x91
 12042 04aa 04       		.sleb128 4
 12043 04ab 1E000000 		.4byte	.LVL59
 12044 04af 20000000 		.4byte	.LVL60
 12045 04b3 0200     		.2byte	0x2
 12046 04b5 73       		.byte	0x73
 12047 04b6 00       		.sleb128 0
 12048 04b7 20000000 		.4byte	.LVL60
 12049 04bb C0010000 		.4byte	.LFE166
 12050 04bf 0200     		.2byte	0x2
 12051 04c1 91       		.byte	0x91
 12052 04c2 04       		.sleb128 4
 12053 04c3 00000000 		.4byte	0
 12054 04c7 00000000 		.4byte	0
 12055              	.LLST27:
 12056 04cb 00000000 		.4byte	.LVL56
 12057 04cf 16000000 		.4byte	.LVL57
 12058 04d3 0200     		.2byte	0x2
 12059 04d5 91       		.byte	0x91
 12060 04d6 08       		.sleb128 8
 12061 04d7 16000000 		.4byte	.LVL57
 12062 04db 1A000000 		.4byte	.LVL58
 12063 04df 0200     		.2byte	0x2
 12064 04e1 73       		.byte	0x73
 12065 04e2 08       		.sleb128 8
ARM GAS  C:\Users\haske\AppData\Local\Temp\ccydbpJh.s 			page 249


 12066 04e3 1A000000 		.4byte	.LVL58
 12067 04e7 1A010000 		.4byte	.LVL95
 12068 04eb 0200     		.2byte	0x2
 12069 04ed 91       		.byte	0x91
 12070 04ee 08       		.sleb128 8
 12071 04ef 78010000 		.4byte	.LVL105
 12072 04f3 7E010000 		.4byte	.LVL106
 12073 04f7 0100     		.2byte	0x1
 12074 04f9 59       		.byte	0x59
 12075 04fa 98010000 		.4byte	.LVL109
 12076 04fe A6010000 		.4byte	.LVL111
 12077 0502 0100     		.2byte	0x1
 12078 0504 59       		.byte	0x59
 12079 0505 00000000 		.4byte	0
 12080 0509 00000000 		.4byte	0
 12081              	.LLST28:
 12082 050d 00000000 		.4byte	.LVL56
 12083 0511 16000000 		.4byte	.LVL57
 12084 0515 0200     		.2byte	0x2
 12085 0517 91       		.byte	0x91
 12086 0518 0C       		.sleb128 12
 12087 0519 16000000 		.4byte	.LVL57
 12088 051d 1A000000 		.4byte	.LVL58
 12089 0521 0200     		.2byte	0x2
 12090 0523 73       		.byte	0x73
 12091 0524 0C       		.sleb128 12
 12092 0525 1A000000 		.4byte	.LVL58
 12093 0529 28000000 		.4byte	.LVL61
 12094 052d 0200     		.2byte	0x2
 12095 052f 91       		.byte	0x91
 12096 0530 0C       		.sleb128 12
 12097 0531 28000000 		.4byte	.LVL61
 12098 0535 2C000000 		.4byte	.LVL62
 12099 0539 0200     		.2byte	0x2
 12100 053b 73       		.byte	0x73
 12101 053c 00       		.sleb128 0
 12102 053d 2C000000 		.4byte	.LVL62
 12103 0541 C0010000 		.4byte	.LFE166
 12104 0545 0200     		.2byte	0x2
 12105 0547 91       		.byte	0x91
 12106 0548 0C       		.sleb128 12
 12107 0549 00000000 		.4byte	0
 12108 054d 00000000 		.4byte	0
 12109              	.LLST29:
 12110 0551 00000000 		.4byte	.LVL56
 12111 0555 16000000 		.4byte	.LVL57
 12112 0559 0200     		.2byte	0x2
 12113 055b 91       		.byte	0x91
 12114 055c 10       		.sleb128 16
 12115 055d 16000000 		.4byte	.LVL57
 12116 0561 1A000000 		.4byte	.LVL58
 12117 0565 0200     		.2byte	0x2
 12118 0567 73       		.byte	0x73
 12119 0568 10       		.sleb128 16
 12120 0569 1A000000 		.4byte	.LVL58
 12121 056d 30000000 		.4byte	.LVL63
 12122 0571 0200     		.2byte	0x2
ARM GAS  C:\Users\haske\AppData\Local\Temp\ccydbpJh.s 			page 250


 12123 0573 91       		.byte	0x91
 12124 0574 10       		.sleb128 16
 12125 0575 30000000 		.4byte	.LVL63
 12126 0579 36000000 		.4byte	.LVL65
 12127 057d 0200     		.2byte	0x2
 12128 057f 73       		.byte	0x73
 12129 0580 00       		.sleb128 0
 12130 0581 36000000 		.4byte	.LVL65
 12131 0585 C0010000 		.4byte	.LFE166
 12132 0589 0200     		.2byte	0x2
 12133 058b 91       		.byte	0x91
 12134 058c 10       		.sleb128 16
 12135 058d 00000000 		.4byte	0
 12136 0591 00000000 		.4byte	0
 12137              	.LLST30:
 12138 0595 42000000 		.4byte	.LVL67
 12139 0599 46000000 		.4byte	.LVL68
 12140 059d 0100     		.2byte	0x1
 12141 059f 53       		.byte	0x53
 12142 05a0 46000000 		.4byte	.LVL68
 12143 05a4 90000000 		.4byte	.LVL79
 12144 05a8 0100     		.2byte	0x1
 12145 05aa 58       		.byte	0x58
 12146 05ab 90000000 		.4byte	.LVL79
 12147 05af BE000000 		.4byte	.LVL83
 12148 05b3 0100     		.2byte	0x1
 12149 05b5 56       		.byte	0x56
 12150 05b6 BE000000 		.4byte	.LVL83
 12151 05ba C4000000 		.4byte	.LVL84
 12152 05be 0100     		.2byte	0x1
 12153 05c0 58       		.byte	0x58
 12154 05c1 C4000000 		.4byte	.LVL84
 12155 05c5 C6000000 		.4byte	.LVL85
 12156 05c9 0100     		.2byte	0x1
 12157 05cb 53       		.byte	0x53
 12158 05cc C6000000 		.4byte	.LVL85
 12159 05d0 CE000000 		.4byte	.LVL86
 12160 05d4 0100     		.2byte	0x1
 12161 05d6 56       		.byte	0x56
 12162 05d7 CE000000 		.4byte	.LVL86
 12163 05db D2000000 		.4byte	.LVL88
 12164 05df 0100     		.2byte	0x1
 12165 05e1 53       		.byte	0x53
 12166 05e2 D2000000 		.4byte	.LVL88
 12167 05e6 1A010000 		.4byte	.LVL95
 12168 05ea 0100     		.2byte	0x1
 12169 05ec 58       		.byte	0x58
 12170 05ed 1A010000 		.4byte	.LVL95
 12171 05f1 78010000 		.4byte	.LVL105
 12172 05f5 0100     		.2byte	0x1
 12173 05f7 56       		.byte	0x56
 12174 05f8 78010000 		.4byte	.LVL105
 12175 05fc 7E010000 		.4byte	.LVL106
 12176 0600 0100     		.2byte	0x1
 12177 0602 58       		.byte	0x58
 12178 0603 7E010000 		.4byte	.LVL106
 12179 0607 9E010000 		.4byte	.LVL110
ARM GAS  C:\Users\haske\AppData\Local\Temp\ccydbpJh.s 			page 251


 12180 060b 0100     		.2byte	0x1
 12181 060d 56       		.byte	0x56
 12182 060e 9E010000 		.4byte	.LVL110
 12183 0612 A8010000 		.4byte	.LVL113
 12184 0616 0100     		.2byte	0x1
 12185 0618 58       		.byte	0x58
 12186 0619 00000000 		.4byte	0
 12187 061d 00000000 		.4byte	0
 12188              	.LLST31:
 12189 0621 52000000 		.4byte	.LVL71
 12190 0625 62000000 		.4byte	.LVL72
 12191 0629 0100     		.2byte	0x1
 12192 062b 53       		.byte	0x53
 12193 062c 62000000 		.4byte	.LVL72
 12194 0630 66000000 		.4byte	.LVL73
 12195 0634 0200     		.2byte	0x2
 12196 0636 91       		.byte	0x91
 12197 0637 48       		.sleb128 -56
 12198 0638 66000000 		.4byte	.LVL73
 12199 063c 68000000 		.4byte	.LVL74
 12200 0640 0100     		.2byte	0x1
 12201 0642 53       		.byte	0x53
 12202 0643 68000000 		.4byte	.LVL74
 12203 0647 6C000000 		.4byte	.LVL75
 12204 064b 0200     		.2byte	0x2
 12205 064d 91       		.byte	0x91
 12206 064e 48       		.sleb128 -56
 12207 064f 6C000000 		.4byte	.LVL75
 12208 0653 6E000000 		.4byte	.LVL76
 12209 0657 0100     		.2byte	0x1
 12210 0659 53       		.byte	0x53
 12211 065a 6E000000 		.4byte	.LVL76
 12212 065e C0010000 		.4byte	.LFE166
 12213 0662 0200     		.2byte	0x2
 12214 0664 91       		.byte	0x91
 12215 0665 48       		.sleb128 -56
 12216 0666 00000000 		.4byte	0
 12217 066a 00000000 		.4byte	0
 12218              	.LLST32:
 12219 066e 90000000 		.4byte	.LVL79
 12220 0672 BE000000 		.4byte	.LVL83
 12221 0676 0100     		.2byte	0x1
 12222 0678 55       		.byte	0x55
 12223 0679 C6000000 		.4byte	.LVL85
 12224 067d E2000000 		.4byte	.LVL91
 12225 0681 0100     		.2byte	0x1
 12226 0683 55       		.byte	0x55
 12227 0684 1A010000 		.4byte	.LVL95
 12228 0688 22010000 		.4byte	.LVL96
 12229 068c 0100     		.2byte	0x1
 12230 068e 55       		.byte	0x55
 12231 068f 22010000 		.4byte	.LVL96
 12232 0693 3C010000 		.4byte	.LVL98
 12233 0697 0100     		.2byte	0x1
 12234 0699 52       		.byte	0x52
 12235 069a 3C010000 		.4byte	.LVL98
 12236 069e 78010000 		.4byte	.LVL105
ARM GAS  C:\Users\haske\AppData\Local\Temp\ccydbpJh.s 			page 252


 12237 06a2 0100     		.2byte	0x1
 12238 06a4 55       		.byte	0x55
 12239 06a5 7E010000 		.4byte	.LVL106
 12240 06a9 9E010000 		.4byte	.LVL110
 12241 06ad 0100     		.2byte	0x1
 12242 06af 55       		.byte	0x55
 12243 06b0 00000000 		.4byte	0
 12244 06b4 00000000 		.4byte	0
 12245              	.LLST33:
 12246 06b8 88000000 		.4byte	.LVL78
 12247 06bc 90000000 		.4byte	.LVL79
 12248 06c0 0200     		.2byte	0x2
 12249 06c2 30       		.byte	0x30
 12250 06c3 9F       		.byte	0x9f
 12251 06c4 90000000 		.4byte	.LVL79
 12252 06c8 EA000000 		.4byte	.LVL92
 12253 06cc 0100     		.2byte	0x1
 12254 06ce 59       		.byte	0x59
 12255 06cf 14010000 		.4byte	.LVL94
 12256 06d3 1A010000 		.4byte	.LVL95
 12257 06d7 0200     		.2byte	0x2
 12258 06d9 30       		.byte	0x30
 12259 06da 9F       		.byte	0x9f
 12260 06db 1A010000 		.4byte	.LVL95
 12261 06df 78010000 		.4byte	.LVL105
 12262 06e3 0200     		.2byte	0x2
 12263 06e5 91       		.byte	0x91
 12264 06e6 44       		.sleb128 -60
 12265 06e7 78010000 		.4byte	.LVL105
 12266 06eb 7E010000 		.4byte	.LVL106
 12267 06ef 0100     		.2byte	0x1
 12268 06f1 53       		.byte	0x53
 12269 06f2 7E010000 		.4byte	.LVL106
 12270 06f6 A6010000 		.4byte	.LVL111
 12271 06fa 0200     		.2byte	0x2
 12272 06fc 91       		.byte	0x91
 12273 06fd 44       		.sleb128 -60
 12274 06fe 00000000 		.4byte	0
 12275 0702 00000000 		.4byte	0
 12276              	.LLST34:
 12277 0706 66000000 		.4byte	.LVL73
 12278 070a 6C000000 		.4byte	.LVL75
 12279 070e 0600     		.2byte	0x6
 12280 0710 03       		.byte	0x3
 12281 0711 00000000 		.4byte	color_blend_true_color_multiply
 12282 0715 9F       		.byte	0x9f
 12283 0716 70000000 		.4byte	.LVL77
 12284 071a 90000000 		.4byte	.LVL79
 12285 071e 0100     		.2byte	0x1
 12286 0720 5B       		.byte	0x5b
 12287 0721 90000000 		.4byte	.LVL79
 12288 0725 BE000000 		.4byte	.LVL83
 12289 0729 0100     		.2byte	0x1
 12290 072b 58       		.byte	0x58
 12291 072c BE000000 		.4byte	.LVL83
 12292 0730 C6000000 		.4byte	.LVL85
 12293 0734 0100     		.2byte	0x1
ARM GAS  C:\Users\haske\AppData\Local\Temp\ccydbpJh.s 			page 253


 12294 0736 56       		.byte	0x56
 12295 0737 C6000000 		.4byte	.LVL85
 12296 073b D0000000 		.4byte	.LVL87
 12297 073f 0100     		.2byte	0x1
 12298 0741 58       		.byte	0x58
 12299 0742 D0000000 		.4byte	.LVL87
 12300 0746 E2000000 		.4byte	.LVL91
 12301 074a 0100     		.2byte	0x1
 12302 074c 5B       		.byte	0x5b
 12303 074d E2000000 		.4byte	.LVL91
 12304 0751 EA000000 		.4byte	.LVL92
 12305 0755 0100     		.2byte	0x1
 12306 0757 56       		.byte	0x56
 12307 0758 EA000000 		.4byte	.LVL92
 12308 075c A6010000 		.4byte	.LVL111
 12309 0760 0100     		.2byte	0x1
 12310 0762 5B       		.byte	0x5b
 12311 0763 00000000 		.4byte	0
 12312 0767 00000000 		.4byte	0
 12313              	.LLST35:
 12314 076b 32000000 		.4byte	.LVL64
 12315 076f 3E000000 		.4byte	.LVL66
 12316 0773 0100     		.2byte	0x1
 12317 0775 51       		.byte	0x51
 12318 0776 00000000 		.4byte	0
 12319 077a 00000000 		.4byte	0
 12320              	.LLST36:
 12321 077e 42000000 		.4byte	.LVL67
 12322 0782 4A000000 		.4byte	.LVL69
 12323 0786 0100     		.2byte	0x1
 12324 0788 51       		.byte	0x51
 12325 0789 4A000000 		.4byte	.LVL69
 12326 078d 4E000000 		.4byte	.LVL70
 12327 0791 0400     		.2byte	0x4
 12328 0793 F3       		.byte	0xf3
 12329 0794 01       		.uleb128 0x1
 12330 0795 51       		.byte	0x51
 12331 0796 9F       		.byte	0x9f
 12332 0797 00000000 		.4byte	0
 12333 079b 00000000 		.4byte	0
 12334              	.LLST37:
 12335 079f 90000000 		.4byte	.LVL79
 12336 07a3 B2000000 		.4byte	.LVL80
 12337 07a7 0100     		.2byte	0x1
 12338 07a9 50       		.byte	0x50
 12339 07aa B8000000 		.4byte	.LVL81
 12340 07ae EA000000 		.4byte	.LVL92
 12341 07b2 0100     		.2byte	0x1
 12342 07b4 50       		.byte	0x50
 12343 07b5 A6010000 		.4byte	.LVL111
 12344 07b9 C0010000 		.4byte	.LFE166
 12345 07bd 0100     		.2byte	0x1
 12346 07bf 50       		.byte	0x50
 12347 07c0 00000000 		.4byte	0
 12348 07c4 00000000 		.4byte	0
 12349              	.LLST38:
 12350 07c8 10010000 		.4byte	.LVL93
ARM GAS  C:\Users\haske\AppData\Local\Temp\ccydbpJh.s 			page 254


 12351 07cc 68010000 		.4byte	.LVL100
 12352 07d0 0200     		.2byte	0x2
 12353 07d2 91       		.byte	0x91
 12354 07d3 40       		.sleb128 -64
 12355 07d4 68010000 		.4byte	.LVL100
 12356 07d8 70010000 		.4byte	.LVL102
 12357 07dc 0300     		.2byte	0x3
 12358 07de 91       		.byte	0x91
 12359 07df B47F     		.sleb128 -76
 12360 07e1 70010000 		.4byte	.LVL102
 12361 07e5 A6010000 		.4byte	.LVL111
 12362 07e9 0200     		.2byte	0x2
 12363 07eb 91       		.byte	0x91
 12364 07ec 40       		.sleb128 -64
 12365 07ed 00000000 		.4byte	0
 12366 07f1 00000000 		.4byte	0
 12367              	.LLST39:
 12368 07f5 1A010000 		.4byte	.LVL95
 12369 07f9 66010000 		.4byte	.LVL99
 12370 07fd 0100     		.2byte	0x1
 12371 07ff 50       		.byte	0x50
 12372 0800 70010000 		.4byte	.LVL102
 12373 0804 C0010000 		.4byte	.LFE166
 12374 0808 0100     		.2byte	0x1
 12375 080a 50       		.byte	0x50
 12376 080b 00000000 		.4byte	0
 12377 080f 00000000 		.4byte	0
 12378              	.LLST40:
 12379 0813 36010000 		.4byte	.LVL97
 12380 0817 74010000 		.4byte	.LVL103
 12381 081b 0300     		.2byte	0x3
 12382 081d 91       		.byte	0x91
 12383 081e B47F     		.sleb128 -76
 12384 0820 00000000 		.4byte	0
 12385 0824 00000000 		.4byte	0
 12386              	.LLST41:
 12387 0828 00000000 		.4byte	.LVL115
 12388 082c 08000000 		.4byte	.LVL116
 12389 0830 0100     		.2byte	0x1
 12390 0832 50       		.byte	0x50
 12391 0833 0A000000 		.4byte	.LVL117
 12392 0837 2A000000 		.4byte	.LVL122
 12393 083b 0100     		.2byte	0x1
 12394 083d 50       		.byte	0x50
 12395 083e 00000000 		.4byte	0
 12396 0842 00000000 		.4byte	0
 12397              	.LLST42:
 12398 0846 00000000 		.4byte	.LVL115
 12399 084a 88000000 		.4byte	.LVL141
 12400 084e 0100     		.2byte	0x1
 12401 0850 51       		.byte	0x51
 12402 0851 8C000000 		.4byte	.LVL142
 12403 0855 98000000 		.4byte	.LFE167
 12404 0859 0100     		.2byte	0x1
 12405 085b 51       		.byte	0x51
 12406 085c 00000000 		.4byte	0
 12407 0860 00000000 		.4byte	0
ARM GAS  C:\Users\haske\AppData\Local\Temp\ccydbpJh.s 			page 255


 12408              	.LLST43:
 12409 0864 00000000 		.4byte	.LVL115
 12410 0868 64000000 		.4byte	.LVL134
 12411 086c 0100     		.2byte	0x1
 12412 086e 52       		.byte	0x52
 12413 086f 64000000 		.4byte	.LVL134
 12414 0873 98000000 		.4byte	.LFE167
 12415 0877 0400     		.2byte	0x4
 12416 0879 F3       		.byte	0xf3
 12417 087a 01       		.uleb128 0x1
 12418 087b 52       		.byte	0x52
 12419 087c 9F       		.byte	0x9f
 12420 087d 00000000 		.4byte	0
 12421 0881 00000000 		.4byte	0
 12422              	.LLST44:
 12423 0885 12000000 		.4byte	.LVL118
 12424 0889 14000000 		.4byte	.LVL119
 12425 088d 0600     		.2byte	0x6
 12426 088f 74       		.byte	0x74
 12427 0890 00       		.sleb128 0
 12428 0891 73       		.byte	0x73
 12429 0892 00       		.sleb128 0
 12430 0893 22       		.byte	0x22
 12431 0894 9F       		.byte	0x9f
 12432 0895 14000000 		.4byte	.LVL119
 12433 0899 1A000000 		.4byte	.LVL120
 12434 089d 0100     		.2byte	0x1
 12435 089f 54       		.byte	0x54
 12436 08a0 1A000000 		.4byte	.LVL120
 12437 08a4 20000000 		.4byte	.LVL121
 12438 08a8 0A00     		.2byte	0xa
 12439 08aa 71       		.byte	0x71
 12440 08ab 00       		.sleb128 0
 12441 08ac 40       		.byte	0x40
 12442 08ad 24       		.byte	0x24
 12443 08ae 4B       		.byte	0x4b
 12444 08af 25       		.byte	0x25
 12445 08b0 73       		.byte	0x73
 12446 08b1 00       		.sleb128 0
 12447 08b2 22       		.byte	0x22
 12448 08b3 9F       		.byte	0x9f
 12449 08b4 20000000 		.4byte	.LVL121
 12450 08b8 2A000000 		.4byte	.LVL122
 12451 08bc 0E00     		.2byte	0xe
 12452 08be 71       		.byte	0x71
 12453 08bf 00       		.sleb128 0
 12454 08c0 40       		.byte	0x40
 12455 08c1 24       		.byte	0x24
 12456 08c2 4B       		.byte	0x4b
 12457 08c3 25       		.byte	0x25
 12458 08c4 70       		.byte	0x70
 12459 08c5 00       		.sleb128 0
 12460 08c6 40       		.byte	0x40
 12461 08c7 24       		.byte	0x24
 12462 08c8 4B       		.byte	0x4b
 12463 08c9 25       		.byte	0x25
 12464 08ca 22       		.byte	0x22
ARM GAS  C:\Users\haske\AppData\Local\Temp\ccydbpJh.s 			page 256


 12465 08cb 9F       		.byte	0x9f
 12466 08cc 2C000000 		.4byte	.LVL123
 12467 08d0 2E000000 		.4byte	.LVL124
 12468 08d4 0600     		.2byte	0x6
 12469 08d6 74       		.byte	0x74
 12470 08d7 00       		.sleb128 0
 12471 08d8 70       		.byte	0x70
 12472 08d9 00       		.sleb128 0
 12473 08da 22       		.byte	0x22
 12474 08db 9F       		.byte	0x9f
 12475 08dc 2E000000 		.4byte	.LVL124
 12476 08e0 34000000 		.4byte	.LVL125
 12477 08e4 0100     		.2byte	0x1
 12478 08e6 54       		.byte	0x54
 12479 08e7 34000000 		.4byte	.LVL125
 12480 08eb 36000000 		.4byte	.LVL126
 12481 08ef 0A00     		.2byte	0xa
 12482 08f1 71       		.byte	0x71
 12483 08f2 00       		.sleb128 0
 12484 08f3 45       		.byte	0x45
 12485 08f4 24       		.byte	0x24
 12486 08f5 4A       		.byte	0x4a
 12487 08f6 25       		.byte	0x25
 12488 08f7 70       		.byte	0x70
 12489 08f8 00       		.sleb128 0
 12490 08f9 22       		.byte	0x22
 12491 08fa 9F       		.byte	0x9f
 12492 08fb 36000000 		.4byte	.LVL126
 12493 08ff 3E000000 		.4byte	.LVL127
 12494 0903 0E00     		.2byte	0xe
 12495 0905 71       		.byte	0x71
 12496 0906 00       		.sleb128 0
 12497 0907 45       		.byte	0x45
 12498 0908 24       		.byte	0x24
 12499 0909 4A       		.byte	0x4a
 12500 090a 25       		.byte	0x25
 12501 090b 73       		.byte	0x73
 12502 090c 00       		.sleb128 0
 12503 090d 45       		.byte	0x45
 12504 090e 24       		.byte	0x24
 12505 090f 4A       		.byte	0x4a
 12506 0910 25       		.byte	0x25
 12507 0911 22       		.byte	0x22
 12508 0912 9F       		.byte	0x9f
 12509 0913 48000000 		.4byte	.LVL128
 12510 0917 4A000000 		.4byte	.LVL129
 12511 091b 0600     		.2byte	0x6
 12512 091d 75       		.byte	0x75
 12513 091e 00       		.sleb128 0
 12514 091f 70       		.byte	0x70
 12515 0920 00       		.sleb128 0
 12516 0921 22       		.byte	0x22
 12517 0922 9F       		.byte	0x9f
 12518 0923 4A000000 		.4byte	.LVL129
 12519 0927 50000000 		.4byte	.LVL130
 12520 092b 0100     		.2byte	0x1
 12521 092d 50       		.byte	0x50
ARM GAS  C:\Users\haske\AppData\Local\Temp\ccydbpJh.s 			page 257


 12522 092e 50000000 		.4byte	.LVL130
 12523 0932 52000000 		.4byte	.LVL131
 12524 0936 0A00     		.2byte	0xa
 12525 0938 73       		.byte	0x73
 12526 0939 00       		.sleb128 0
 12527 093a 4B       		.byte	0x4b
 12528 093b 24       		.byte	0x24
 12529 093c 4B       		.byte	0x4b
 12530 093d 25       		.byte	0x25
 12531 093e 75       		.byte	0x75
 12532 093f 00       		.sleb128 0
 12533 0940 22       		.byte	0x22
 12534 0941 9F       		.byte	0x9f
 12535 0942 52000000 		.4byte	.LVL131
 12536 0946 58000000 		.4byte	.LVL132
 12537 094a 0E00     		.2byte	0xe
 12538 094c 71       		.byte	0x71
 12539 094d 00       		.sleb128 0
 12540 094e 4B       		.byte	0x4b
 12541 094f 24       		.byte	0x24
 12542 0950 4B       		.byte	0x4b
 12543 0951 25       		.byte	0x25
 12544 0952 73       		.byte	0x73
 12545 0953 00       		.sleb128 0
 12546 0954 4B       		.byte	0x4b
 12547 0955 24       		.byte	0x24
 12548 0956 4B       		.byte	0x4b
 12549 0957 25       		.byte	0x25
 12550 0958 22       		.byte	0x22
 12551 0959 9F       		.byte	0x9f
 12552 095a 00000000 		.4byte	0
 12553 095e 00000000 		.4byte	0
 12554              	.LLST45:
 12555 0962 62000000 		.4byte	.LVL133
 12556 0966 64000000 		.4byte	.LVL134
 12557 096a 0100     		.2byte	0x1
 12558 096c 52       		.byte	0x52
 12559 096d 64000000 		.4byte	.LVL134
 12560 0971 66000000 		.4byte	.LVL135
 12561 0975 0400     		.2byte	0x4
 12562 0977 F3       		.byte	0xf3
 12563 0978 01       		.uleb128 0x1
 12564 0979 52       		.byte	0x52
 12565 097a 9F       		.byte	0x9f
 12566 097b 66000000 		.4byte	.LVL135
 12567 097f 7E000000 		.4byte	.LVL139
 12568 0983 0100     		.2byte	0x1
 12569 0985 52       		.byte	0x52
 12570 0986 00000000 		.4byte	0
 12571 098a 00000000 		.4byte	0
 12572              	.LLST46:
 12573 098e 70000000 		.4byte	.LVL136
 12574 0992 8C000000 		.4byte	.LVL142
 12575 0996 0100     		.2byte	0x1
 12576 0998 54       		.byte	0x54
 12577 0999 00000000 		.4byte	0
 12578 099d 00000000 		.4byte	0
ARM GAS  C:\Users\haske\AppData\Local\Temp\ccydbpJh.s 			page 258


 12579              	.LLST47:
 12580 09a1 78000000 		.4byte	.LVL137
 12581 09a5 7A000000 		.4byte	.LVL138
 12582 09a9 0100     		.2byte	0x1
 12583 09ab 55       		.byte	0x55
 12584 09ac 00000000 		.4byte	0
 12585 09b0 00000000 		.4byte	0
 12586              	.LLST48:
 12587 09b4 86000000 		.4byte	.LVL140
 12588 09b8 8C000000 		.4byte	.LVL142
 12589 09bc 0100     		.2byte	0x1
 12590 09be 53       		.byte	0x53
 12591 09bf 00000000 		.4byte	0
 12592 09c3 00000000 		.4byte	0
 12593              	.LLST49:
 12594 09c7 00000000 		.4byte	.LVL143
 12595 09cb 08000000 		.4byte	.LVL144
 12596 09cf 0100     		.2byte	0x1
 12597 09d1 50       		.byte	0x50
 12598 09d2 0A000000 		.4byte	.LVL145
 12599 09d6 26000000 		.4byte	.LVL146
 12600 09da 0100     		.2byte	0x1
 12601 09dc 50       		.byte	0x50
 12602 09dd 00000000 		.4byte	0
 12603 09e1 00000000 		.4byte	0
 12604              	.LLST50:
 12605 09e5 00000000 		.4byte	.LVL143
 12606 09e9 82000000 		.4byte	.LVL155
 12607 09ed 0100     		.2byte	0x1
 12608 09ef 51       		.byte	0x51
 12609 09f0 86000000 		.4byte	.LVL156
 12610 09f4 90000000 		.4byte	.LFE168
 12611 09f8 0100     		.2byte	0x1
 12612 09fa 51       		.byte	0x51
 12613 09fb 00000000 		.4byte	0
 12614 09ff 00000000 		.4byte	0
 12615              	.LLST51:
 12616 0a03 00000000 		.4byte	.LVL143
 12617 0a07 5E000000 		.4byte	.LVL148
 12618 0a0b 0100     		.2byte	0x1
 12619 0a0d 52       		.byte	0x52
 12620 0a0e 5E000000 		.4byte	.LVL148
 12621 0a12 90000000 		.4byte	.LFE168
 12622 0a16 0400     		.2byte	0x4
 12623 0a18 F3       		.byte	0xf3
 12624 0a19 01       		.uleb128 0x1
 12625 0a1a 52       		.byte	0x52
 12626 0a1b 9F       		.byte	0x9f
 12627 0a1c 00000000 		.4byte	0
 12628 0a20 00000000 		.4byte	0
 12629              	.LLST52:
 12630 0a24 5C000000 		.4byte	.LVL147
 12631 0a28 5E000000 		.4byte	.LVL148
 12632 0a2c 0100     		.2byte	0x1
 12633 0a2e 52       		.byte	0x52
 12634 0a2f 5E000000 		.4byte	.LVL148
 12635 0a33 60000000 		.4byte	.LVL149
ARM GAS  C:\Users\haske\AppData\Local\Temp\ccydbpJh.s 			page 259


 12636 0a37 0400     		.2byte	0x4
 12637 0a39 F3       		.byte	0xf3
 12638 0a3a 01       		.uleb128 0x1
 12639 0a3b 52       		.byte	0x52
 12640 0a3c 9F       		.byte	0x9f
 12641 0a3d 60000000 		.4byte	.LVL149
 12642 0a41 78000000 		.4byte	.LVL153
 12643 0a45 0100     		.2byte	0x1
 12644 0a47 52       		.byte	0x52
 12645 0a48 00000000 		.4byte	0
 12646 0a4c 00000000 		.4byte	0
 12647              	.LLST53:
 12648 0a50 6A000000 		.4byte	.LVL150
 12649 0a54 86000000 		.4byte	.LVL156
 12650 0a58 0100     		.2byte	0x1
 12651 0a5a 54       		.byte	0x54
 12652 0a5b 00000000 		.4byte	0
 12653 0a5f 00000000 		.4byte	0
 12654              	.LLST54:
 12655 0a63 72000000 		.4byte	.LVL151
 12656 0a67 74000000 		.4byte	.LVL152
 12657 0a6b 0100     		.2byte	0x1
 12658 0a6d 55       		.byte	0x55
 12659 0a6e 00000000 		.4byte	0
 12660 0a72 00000000 		.4byte	0
 12661              	.LLST55:
 12662 0a76 80000000 		.4byte	.LVL154
 12663 0a7a 86000000 		.4byte	.LVL156
 12664 0a7e 0100     		.2byte	0x1
 12665 0a80 53       		.byte	0x53
 12666 0a81 00000000 		.4byte	0
 12667 0a85 00000000 		.4byte	0
 12668              	.LLST56:
 12669 0a89 00000000 		.4byte	.LVL157
 12670 0a8d 08000000 		.4byte	.LVL158
 12671 0a91 0100     		.2byte	0x1
 12672 0a93 50       		.byte	0x50
 12673 0a94 0A000000 		.4byte	.LVL159
 12674 0a98 22000000 		.4byte	.LVL160
 12675 0a9c 0100     		.2byte	0x1
 12676 0a9e 50       		.byte	0x50
 12677 0a9f 00000000 		.4byte	0
 12678 0aa3 00000000 		.4byte	0
 12679              	.LLST57:
 12680 0aa7 00000000 		.4byte	.LVL157
 12681 0aab 78000000 		.4byte	.LVL169
 12682 0aaf 0100     		.2byte	0x1
 12683 0ab1 51       		.byte	0x51
 12684 0ab2 7C000000 		.4byte	.LVL170
 12685 0ab6 88000000 		.4byte	.LFE169
 12686 0aba 0100     		.2byte	0x1
 12687 0abc 51       		.byte	0x51
 12688 0abd 00000000 		.4byte	0
 12689 0ac1 00000000 		.4byte	0
 12690              	.LLST58:
 12691 0ac5 00000000 		.4byte	.LVL157
 12692 0ac9 54000000 		.4byte	.LVL162
ARM GAS  C:\Users\haske\AppData\Local\Temp\ccydbpJh.s 			page 260


 12693 0acd 0100     		.2byte	0x1
 12694 0acf 52       		.byte	0x52
 12695 0ad0 54000000 		.4byte	.LVL162
 12696 0ad4 88000000 		.4byte	.LFE169
 12697 0ad8 0400     		.2byte	0x4
 12698 0ada F3       		.byte	0xf3
 12699 0adb 01       		.uleb128 0x1
 12700 0adc 52       		.byte	0x52
 12701 0add 9F       		.byte	0x9f
 12702 0ade 00000000 		.4byte	0
 12703 0ae2 00000000 		.4byte	0
 12704              	.LLST59:
 12705 0ae6 52000000 		.4byte	.LVL161
 12706 0aea 54000000 		.4byte	.LVL162
 12707 0aee 0100     		.2byte	0x1
 12708 0af0 52       		.byte	0x52
 12709 0af1 54000000 		.4byte	.LVL162
 12710 0af5 56000000 		.4byte	.LVL163
 12711 0af9 0400     		.2byte	0x4
 12712 0afb F3       		.byte	0xf3
 12713 0afc 01       		.uleb128 0x1
 12714 0afd 52       		.byte	0x52
 12715 0afe 9F       		.byte	0x9f
 12716 0aff 56000000 		.4byte	.LVL163
 12717 0b03 7C000000 		.4byte	.LVL170
 12718 0b07 0100     		.2byte	0x1
 12719 0b09 52       		.byte	0x52
 12720 0b0a 00000000 		.4byte	0
 12721 0b0e 00000000 		.4byte	0
 12722              	.LLST60:
 12723 0b12 60000000 		.4byte	.LVL164
 12724 0b16 7C000000 		.4byte	.LVL170
 12725 0b1a 0100     		.2byte	0x1
 12726 0b1c 55       		.byte	0x55
 12727 0b1d 00000000 		.4byte	0
 12728 0b21 00000000 		.4byte	0
 12729              	.LLST61:
 12730 0b25 68000000 		.4byte	.LVL165
 12731 0b29 6A000000 		.4byte	.LVL166
 12732 0b2d 0100     		.2byte	0x1
 12733 0b2f 56       		.byte	0x56
 12734 0b30 6A000000 		.4byte	.LVL166
 12735 0b34 74000000 		.4byte	.LVL167
 12736 0b38 0B00     		.2byte	0xb
 12737 0b3a 70       		.byte	0x70
 12738 0b3b 00       		.sleb128 0
 12739 0b3c 40       		.byte	0x40
 12740 0b3d 24       		.byte	0x24
 12741 0b3e 70       		.byte	0x70
 12742 0b3f 00       		.sleb128 0
 12743 0b40 21       		.byte	0x21
 12744 0b41 74       		.byte	0x74
 12745 0b42 00       		.sleb128 0
 12746 0b43 1A       		.byte	0x1a
 12747 0b44 9F       		.byte	0x9f
 12748 0b45 00000000 		.4byte	0
 12749 0b49 00000000 		.4byte	0
ARM GAS  C:\Users\haske\AppData\Local\Temp\ccydbpJh.s 			page 261


 12750              	.LLST62:
 12751 0b4d 76000000 		.4byte	.LVL168
 12752 0b51 7C000000 		.4byte	.LVL170
 12753 0b55 0100     		.2byte	0x1
 12754 0b57 54       		.byte	0x54
 12755 0b58 00000000 		.4byte	0
 12756 0b5c 00000000 		.4byte	0
 12757              	.LLST63:
 12758 0b60 00000000 		.4byte	.LVL171
 12759 0b64 2B000000 		.4byte	.LVL177-1
 12760 0b68 0100     		.2byte	0x1
 12761 0b6a 50       		.byte	0x50
 12762 0b6b 2B000000 		.4byte	.LVL177-1
 12763 0b6f 1C010000 		.4byte	.LFE161
 12764 0b73 0200     		.2byte	0x2
 12765 0b75 91       		.byte	0x91
 12766 0b76 44       		.sleb128 -60
 12767 0b77 00000000 		.4byte	0
 12768 0b7b 00000000 		.4byte	0
 12769              	.LLST64:
 12770 0b7f 00000000 		.4byte	.LVL171
 12771 0b83 2B000000 		.4byte	.LVL177-1
 12772 0b87 0100     		.2byte	0x1
 12773 0b89 51       		.byte	0x51
 12774 0b8a 2B000000 		.4byte	.LVL177-1
 12775 0b8e 3C000000 		.4byte	.LVL181
 12776 0b92 0100     		.2byte	0x1
 12777 0b94 57       		.byte	0x57
 12778 0b95 3C000000 		.4byte	.LVL181
 12779 0b99 84000000 		.4byte	.LVL190
 12780 0b9d 0100     		.2byte	0x1
 12781 0b9f 54       		.byte	0x54
 12782 0ba0 84000000 		.4byte	.LVL190
 12783 0ba4 AA000000 		.4byte	.LVL196
 12784 0ba8 0100     		.2byte	0x1
 12785 0baa 57       		.byte	0x57
 12786 0bab AA000000 		.4byte	.LVL196
 12787 0baf AE000000 		.4byte	.LVL197
 12788 0bb3 0100     		.2byte	0x1
 12789 0bb5 53       		.byte	0x53
 12790 0bb6 AE000000 		.4byte	.LVL197
 12791 0bba F2000000 		.4byte	.LVL202
 12792 0bbe 0100     		.2byte	0x1
 12793 0bc0 57       		.byte	0x57
 12794 0bc1 F2000000 		.4byte	.LVL202
 12795 0bc5 F8000000 		.4byte	.LVL203
 12796 0bc9 0100     		.2byte	0x1
 12797 0bcb 58       		.byte	0x58
 12798 0bcc F8000000 		.4byte	.LVL203
 12799 0bd0 00010000 		.4byte	.LVL204
 12800 0bd4 0100     		.2byte	0x1
 12801 0bd6 57       		.byte	0x57
 12802 0bd7 00010000 		.4byte	.LVL204
 12803 0bdb 0E010000 		.4byte	.LVL207
 12804 0bdf 0100     		.2byte	0x1
 12805 0be1 58       		.byte	0x58
 12806 0be2 0E010000 		.4byte	.LVL207
ARM GAS  C:\Users\haske\AppData\Local\Temp\ccydbpJh.s 			page 262


 12807 0be6 1C010000 		.4byte	.LFE161
 12808 0bea 0400     		.2byte	0x4
 12809 0bec F3       		.byte	0xf3
 12810 0bed 01       		.uleb128 0x1
 12811 0bee 51       		.byte	0x51
 12812 0bef 9F       		.byte	0x9f
 12813 0bf0 00000000 		.4byte	0
 12814 0bf4 00000000 		.4byte	0
 12815              	.LLST65:
 12816 0bf8 00000000 		.4byte	.LVL171
 12817 0bfc 16000000 		.4byte	.LVL172
 12818 0c00 0100     		.2byte	0x1
 12819 0c02 52       		.byte	0x52
 12820 0c03 16000000 		.4byte	.LVL172
 12821 0c07 1C010000 		.4byte	.LFE161
 12822 0c0b 0400     		.2byte	0x4
 12823 0c0d F3       		.byte	0xf3
 12824 0c0e 01       		.uleb128 0x1
 12825 0c0f 52       		.byte	0x52
 12826 0c10 9F       		.byte	0x9f
 12827 0c11 00000000 		.4byte	0
 12828 0c15 00000000 		.4byte	0
 12829              	.LLST66:
 12830 0c19 00000000 		.4byte	.LVL171
 12831 0c1d 1A000000 		.4byte	.LVL173
 12832 0c21 0100     		.2byte	0x1
 12833 0c23 53       		.byte	0x53
 12834 0c24 40000000 		.4byte	.LVL182
 12835 0c28 44000000 		.4byte	.LVL183
 12836 0c2c 0100     		.2byte	0x1
 12837 0c2e 53       		.byte	0x53
 12838 0c2f 44000000 		.4byte	.LVL183
 12839 0c33 78000000 		.4byte	.LVL188
 12840 0c37 0100     		.2byte	0x1
 12841 0c39 59       		.byte	0x59
 12842 0c3a 78000000 		.4byte	.LVL188
 12843 0c3e 7C000000 		.4byte	.LVL189
 12844 0c42 0100     		.2byte	0x1
 12845 0c44 53       		.byte	0x53
 12846 0c45 7C000000 		.4byte	.LVL189
 12847 0c49 84000000 		.4byte	.LVL190
 12848 0c4d 0100     		.2byte	0x1
 12849 0c4f 59       		.byte	0x59
 12850 0c50 DE000000 		.4byte	.LVL198
 12851 0c54 EC000000 		.4byte	.LVL199
 12852 0c58 0100     		.2byte	0x1
 12853 0c5a 51       		.byte	0x51
 12854 0c5b 0E010000 		.4byte	.LVL207
 12855 0c5f 10010000 		.4byte	.LVL208
 12856 0c63 0100     		.2byte	0x1
 12857 0c65 59       		.byte	0x59
 12858 0c66 00000000 		.4byte	0
 12859 0c6a 00000000 		.4byte	0
 12860              	.LLST67:
 12861 0c6e 00000000 		.4byte	.LVL171
 12862 0c72 1A000000 		.4byte	.LVL173
 12863 0c76 0200     		.2byte	0x2
ARM GAS  C:\Users\haske\AppData\Local\Temp\ccydbpJh.s 			page 263


 12864 0c78 91       		.byte	0x91
 12865 0c79 00       		.sleb128 0
 12866 0c7a 1A000000 		.4byte	.LVL173
 12867 0c7e 1C000000 		.4byte	.LVL174
 12868 0c82 0200     		.2byte	0x2
 12869 0c84 73       		.byte	0x73
 12870 0c85 00       		.sleb128 0
 12871 0c86 1C000000 		.4byte	.LVL174
 12872 0c8a 1C010000 		.4byte	.LFE161
 12873 0c8e 0200     		.2byte	0x2
 12874 0c90 91       		.byte	0x91
 12875 0c91 00       		.sleb128 0
 12876 0c92 00000000 		.4byte	0
 12877 0c96 00000000 		.4byte	0
 12878              	.LLST68:
 12879 0c9a 00000000 		.4byte	.LVL171
 12880 0c9e 1A000000 		.4byte	.LVL173
 12881 0ca2 0200     		.2byte	0x2
 12882 0ca4 91       		.byte	0x91
 12883 0ca5 04       		.sleb128 4
 12884 0ca6 1A000000 		.4byte	.LVL173
 12885 0caa 1C000000 		.4byte	.LVL174
 12886 0cae 0200     		.2byte	0x2
 12887 0cb0 73       		.byte	0x73
 12888 0cb1 04       		.sleb128 4
 12889 0cb2 1C000000 		.4byte	.LVL174
 12890 0cb6 AE000000 		.4byte	.LVL197
 12891 0cba 0200     		.2byte	0x2
 12892 0cbc 91       		.byte	0x91
 12893 0cbd 04       		.sleb128 4
 12894 0cbe F2000000 		.4byte	.LVL202
 12895 0cc2 F8000000 		.4byte	.LVL203
 12896 0cc6 0100     		.2byte	0x1
 12897 0cc8 55       		.byte	0x55
 12898 0cc9 06010000 		.4byte	.LVL205
 12899 0ccd 0E010000 		.4byte	.LVL207
 12900 0cd1 0100     		.2byte	0x1
 12901 0cd3 55       		.byte	0x55
 12902 0cd4 00000000 		.4byte	0
 12903 0cd8 00000000 		.4byte	0
 12904              	.LLST69:
 12905 0cdc 00000000 		.4byte	.LVL171
 12906 0ce0 1A000000 		.4byte	.LVL173
 12907 0ce4 0200     		.2byte	0x2
 12908 0ce6 91       		.byte	0x91
 12909 0ce7 08       		.sleb128 8
 12910 0ce8 1A000000 		.4byte	.LVL173
 12911 0cec 1C000000 		.4byte	.LVL174
 12912 0cf0 0200     		.2byte	0x2
 12913 0cf2 73       		.byte	0x73
 12914 0cf3 08       		.sleb128 8
 12915 0cf4 1C000000 		.4byte	.LVL174
 12916 0cf8 22000000 		.4byte	.LVL175
 12917 0cfc 0200     		.2byte	0x2
 12918 0cfe 91       		.byte	0x91
 12919 0cff 08       		.sleb128 8
 12920 0d00 22000000 		.4byte	.LVL175
ARM GAS  C:\Users\haske\AppData\Local\Temp\ccydbpJh.s 			page 264


 12921 0d04 26000000 		.4byte	.LVL176
 12922 0d08 0200     		.2byte	0x2
 12923 0d0a 73       		.byte	0x73
 12924 0d0b 00       		.sleb128 0
 12925 0d0c 26000000 		.4byte	.LVL176
 12926 0d10 1C010000 		.4byte	.LFE161
 12927 0d14 0200     		.2byte	0x2
 12928 0d16 91       		.byte	0x91
 12929 0d17 08       		.sleb128 8
 12930 0d18 00000000 		.4byte	0
 12931 0d1c 00000000 		.4byte	0
 12932              	.LLST70:
 12933 0d20 2E000000 		.4byte	.LVL178
 12934 0d24 44000000 		.4byte	.LVL183
 12935 0d28 0100     		.2byte	0x1
 12936 0d2a 50       		.byte	0x50
 12937 0d2b 44000000 		.4byte	.LVL183
 12938 0d2f 84000000 		.4byte	.LVL190
 12939 0d33 0100     		.2byte	0x1
 12940 0d35 57       		.byte	0x57
 12941 0d36 84000000 		.4byte	.LVL190
 12942 0d3a AE000000 		.4byte	.LVL197
 12943 0d3e 0100     		.2byte	0x1
 12944 0d40 50       		.byte	0x50
 12945 0d41 AE000000 		.4byte	.LVL197
 12946 0d45 10010000 		.4byte	.LVL209
 12947 0d49 0100     		.2byte	0x1
 12948 0d4b 5A       		.byte	0x5a
 12949 0d4c 00000000 		.4byte	0
 12950 0d50 00000000 		.4byte	0
 12951              	.LLST71:
 12952 0d54 48000000 		.4byte	.LVL184
 12953 0d58 78000000 		.4byte	.LVL188
 12954 0d5c 0100     		.2byte	0x1
 12955 0d5e 55       		.byte	0x55
 12956 0d5f AE000000 		.4byte	.LVL197
 12957 0d63 F2000000 		.4byte	.LVL202
 12958 0d67 0100     		.2byte	0x1
 12959 0d69 54       		.byte	0x54
 12960 0d6a F8000000 		.4byte	.LVL203
 12961 0d6e 08010000 		.4byte	.LVL206
 12962 0d72 0100     		.2byte	0x1
 12963 0d74 54       		.byte	0x54
 12964 0d75 00000000 		.4byte	0
 12965 0d79 00000000 		.4byte	0
 12966              	.LLST72:
 12967 0d7d 36000000 		.4byte	.LVL179
 12968 0d81 3A000000 		.4byte	.LVL180
 12969 0d85 0100     		.2byte	0x1
 12970 0d87 54       		.byte	0x54
 12971 0d88 3A000000 		.4byte	.LVL180
 12972 0d8c 44000000 		.4byte	.LVL183
 12973 0d90 0200     		.2byte	0x2
 12974 0d92 91       		.byte	0x91
 12975 0d93 40       		.sleb128 -64
 12976 0d94 44000000 		.4byte	.LVL183
 12977 0d98 4A000000 		.4byte	.LVL185
ARM GAS  C:\Users\haske\AppData\Local\Temp\ccydbpJh.s 			page 265


 12978 0d9c 0100     		.2byte	0x1
 12979 0d9e 52       		.byte	0x52
 12980 0d9f 4A000000 		.4byte	.LVL185
 12981 0da3 84000000 		.4byte	.LVL190
 12982 0da7 0200     		.2byte	0x2
 12983 0da9 91       		.byte	0x91
 12984 0daa 40       		.sleb128 -64
 12985 0dab A2000000 		.4byte	.LVL194
 12986 0daf AE000000 		.4byte	.LVL197
 12987 0db3 0200     		.2byte	0x2
 12988 0db5 30       		.byte	0x30
 12989 0db6 9F       		.byte	0x9f
 12990 0db7 AE000000 		.4byte	.LVL197
 12991 0dbb F2000000 		.4byte	.LVL202
 12992 0dbf 0100     		.2byte	0x1
 12993 0dc1 59       		.byte	0x59
 12994 0dc2 F2000000 		.4byte	.LVL202
 12995 0dc6 F8000000 		.4byte	.LVL203
 12996 0dca 0100     		.2byte	0x1
 12997 0dcc 57       		.byte	0x57
 12998 0dcd F8000000 		.4byte	.LVL203
 12999 0dd1 08010000 		.4byte	.LVL206
 13000 0dd5 0100     		.2byte	0x1
 13001 0dd7 59       		.byte	0x59
 13002 0dd8 08010000 		.4byte	.LVL206
 13003 0ddc 0E010000 		.4byte	.LVL207
 13004 0de0 0100     		.2byte	0x1
 13005 0de2 57       		.byte	0x57
 13006 0de3 00000000 		.4byte	0
 13007 0de7 00000000 		.4byte	0
 13008              	.LLST73:
 13009 0deb 92000000 		.4byte	.LVL192
 13010 0def 0E010000 		.4byte	.LVL207
 13011 0df3 0100     		.2byte	0x1
 13012 0df5 56       		.byte	0x56
 13013 0df6 00000000 		.4byte	0
 13014 0dfa 00000000 		.4byte	0
 13015              	.LLST74:
 13016 0dfe A2000000 		.4byte	.LVL194
 13017 0e02 A4000000 		.4byte	.LVL195
 13018 0e06 0100     		.2byte	0x1
 13019 0e08 53       		.byte	0x53
 13020 0e09 A4000000 		.4byte	.LVL195
 13021 0e0d 0E010000 		.4byte	.LVL207
 13022 0e11 0200     		.2byte	0x2
 13023 0e13 91       		.byte	0x91
 13024 0e14 50       		.sleb128 -48
 13025 0e15 00000000 		.4byte	0
 13026 0e19 00000000 		.4byte	0
 13027              	.LLST75:
 13028 0e1d 84000000 		.4byte	.LVL190
 13029 0e21 90000000 		.4byte	.LVL191
 13030 0e25 0100     		.2byte	0x1
 13031 0e27 57       		.byte	0x57
 13032 0e28 00000000 		.4byte	0
 13033 0e2c 00000000 		.4byte	0
 13034              	.LLST76:
ARM GAS  C:\Users\haske\AppData\Local\Temp\ccydbpJh.s 			page 266


 13035 0e30 92000000 		.4byte	.LVL192
 13036 0e34 9E000000 		.4byte	.LVL193
 13037 0e38 0100     		.2byte	0x1
 13038 0e3a 57       		.byte	0x57
 13039 0e3b 00000000 		.4byte	0
 13040 0e3f 00000000 		.4byte	0
 13041              	.LLST77:
 13042 0e43 00000000 		.4byte	.LVL210
 13043 0e47 31000000 		.4byte	.LVL217-1
 13044 0e4b 0100     		.2byte	0x1
 13045 0e4d 50       		.byte	0x50
 13046 0e4e 31000000 		.4byte	.LVL217-1
 13047 0e52 42010000 		.4byte	.LFE164
 13048 0e56 0200     		.2byte	0x2
 13049 0e58 91       		.byte	0x91
 13050 0e59 40       		.sleb128 -64
 13051 0e5a 00000000 		.4byte	0
 13052 0e5e 00000000 		.4byte	0
 13053              	.LLST78:
 13054 0e62 00000000 		.4byte	.LVL210
 13055 0e66 31000000 		.4byte	.LVL217-1
 13056 0e6a 0100     		.2byte	0x1
 13057 0e6c 51       		.byte	0x51
 13058 0e6d 31000000 		.4byte	.LVL217-1
 13059 0e71 5E000000 		.4byte	.LVL224
 13060 0e75 0100     		.2byte	0x1
 13061 0e77 57       		.byte	0x57
 13062 0e78 5E000000 		.4byte	.LVL224
 13063 0e7c 62000000 		.4byte	.LVL225
 13064 0e80 0100     		.2byte	0x1
 13065 0e82 53       		.byte	0x53
 13066 0e83 62000000 		.4byte	.LVL225
 13067 0e87 C6000000 		.4byte	.LVL237
 13068 0e8b 0100     		.2byte	0x1
 13069 0e8d 57       		.byte	0x57
 13070 0e8e C6000000 		.4byte	.LVL237
 13071 0e92 42010000 		.4byte	.LFE164
 13072 0e96 0400     		.2byte	0x4
 13073 0e98 F3       		.byte	0xf3
 13074 0e99 01       		.uleb128 0x1
 13075 0e9a 51       		.byte	0x51
 13076 0e9b 9F       		.byte	0x9f
 13077 0e9c 00000000 		.4byte	0
 13078 0ea0 00000000 		.4byte	0
 13079              	.LLST79:
 13080 0ea4 00000000 		.4byte	.LVL210
 13081 0ea8 1C000000 		.4byte	.LVL212
 13082 0eac 0100     		.2byte	0x1
 13083 0eae 52       		.byte	0x52
 13084 0eaf 1C000000 		.4byte	.LVL212
 13085 0eb3 42010000 		.4byte	.LFE164
 13086 0eb7 0400     		.2byte	0x4
 13087 0eb9 F3       		.byte	0xf3
 13088 0eba 01       		.uleb128 0x1
 13089 0ebb 52       		.byte	0x52
 13090 0ebc 9F       		.byte	0x9f
 13091 0ebd 00000000 		.4byte	0
ARM GAS  C:\Users\haske\AppData\Local\Temp\ccydbpJh.s 			page 267


 13092 0ec1 00000000 		.4byte	0
 13093              	.LLST80:
 13094 0ec5 00000000 		.4byte	.LVL210
 13095 0ec9 18000000 		.4byte	.LVL211
 13096 0ecd 0100     		.2byte	0x1
 13097 0ecf 53       		.byte	0x53
 13098 0ed0 18000000 		.4byte	.LVL211
 13099 0ed4 36010000 		.4byte	.LVL246
 13100 0ed8 0100     		.2byte	0x1
 13101 0eda 58       		.byte	0x58
 13102 0edb 00000000 		.4byte	0
 13103 0edf 00000000 		.4byte	0
 13104              	.LLST81:
 13105 0ee3 00000000 		.4byte	.LVL210
 13106 0ee7 18000000 		.4byte	.LVL211
 13107 0eeb 0200     		.2byte	0x2
 13108 0eed 91       		.byte	0x91
 13109 0eee 00       		.sleb128 0
 13110 0eef 18000000 		.4byte	.LVL211
 13111 0ef3 1C000000 		.4byte	.LVL212
 13112 0ef7 0200     		.2byte	0x2
 13113 0ef9 73       		.byte	0x73
 13114 0efa 00       		.sleb128 0
 13115 0efb 1C000000 		.4byte	.LVL212
 13116 0eff 42010000 		.4byte	.LFE164
 13117 0f03 0200     		.2byte	0x2
 13118 0f05 91       		.byte	0x91
 13119 0f06 00       		.sleb128 0
 13120 0f07 00000000 		.4byte	0
 13121 0f0b 00000000 		.4byte	0
 13122              	.LLST82:
 13123 0f0f 00000000 		.4byte	.LVL210
 13124 0f13 18000000 		.4byte	.LVL211
 13125 0f17 0200     		.2byte	0x2
 13126 0f19 91       		.byte	0x91
 13127 0f1a 04       		.sleb128 4
 13128 0f1b 18000000 		.4byte	.LVL211
 13129 0f1f 1C000000 		.4byte	.LVL212
 13130 0f23 0200     		.2byte	0x2
 13131 0f25 73       		.byte	0x73
 13132 0f26 04       		.sleb128 4
 13133 0f27 1C000000 		.4byte	.LVL212
 13134 0f2b 20000000 		.4byte	.LVL213
 13135 0f2f 0200     		.2byte	0x2
 13136 0f31 91       		.byte	0x91
 13137 0f32 04       		.sleb128 4
 13138 0f33 20000000 		.4byte	.LVL213
 13139 0f37 22000000 		.4byte	.LVL214
 13140 0f3b 0200     		.2byte	0x2
 13141 0f3d 73       		.byte	0x73
 13142 0f3e 00       		.sleb128 0
 13143 0f3f 22000000 		.4byte	.LVL214
 13144 0f43 42010000 		.4byte	.LFE164
 13145 0f47 0200     		.2byte	0x2
 13146 0f49 91       		.byte	0x91
 13147 0f4a 04       		.sleb128 4
 13148 0f4b 00000000 		.4byte	0
ARM GAS  C:\Users\haske\AppData\Local\Temp\ccydbpJh.s 			page 268


 13149 0f4f 00000000 		.4byte	0
 13150              	.LLST83:
 13151 0f53 00000000 		.4byte	.LVL210
 13152 0f57 18000000 		.4byte	.LVL211
 13153 0f5b 0200     		.2byte	0x2
 13154 0f5d 91       		.byte	0x91
 13155 0f5e 08       		.sleb128 8
 13156 0f5f 18000000 		.4byte	.LVL211
 13157 0f63 1C000000 		.4byte	.LVL212
 13158 0f67 0200     		.2byte	0x2
 13159 0f69 73       		.byte	0x73
 13160 0f6a 08       		.sleb128 8
 13161 0f6b 1C000000 		.4byte	.LVL212
 13162 0f6f C6000000 		.4byte	.LVL237
 13163 0f73 0200     		.2byte	0x2
 13164 0f75 91       		.byte	0x91
 13165 0f76 08       		.sleb128 8
 13166 0f77 0E010000 		.4byte	.LVL240
 13167 0f7b 16010000 		.4byte	.LVL241
 13168 0f7f 0100     		.2byte	0x1
 13169 0f81 56       		.byte	0x56
 13170 0f82 26010000 		.4byte	.LVL242
 13171 0f86 34010000 		.4byte	.LVL245
 13172 0f8a 0100     		.2byte	0x1
 13173 0f8c 56       		.byte	0x56
 13174 0f8d 00000000 		.4byte	0
 13175 0f91 00000000 		.4byte	0
 13176              	.LLST84:
 13177 0f95 00000000 		.4byte	.LVL210
 13178 0f99 18000000 		.4byte	.LVL211
 13179 0f9d 0200     		.2byte	0x2
 13180 0f9f 91       		.byte	0x91
 13181 0fa0 0C       		.sleb128 12
 13182 0fa1 18000000 		.4byte	.LVL211
 13183 0fa5 1C000000 		.4byte	.LVL212
 13184 0fa9 0200     		.2byte	0x2
 13185 0fab 73       		.byte	0x73
 13186 0fac 0C       		.sleb128 12
 13187 0fad 1C000000 		.4byte	.LVL212
 13188 0fb1 28000000 		.4byte	.LVL215
 13189 0fb5 0200     		.2byte	0x2
 13190 0fb7 91       		.byte	0x91
 13191 0fb8 0C       		.sleb128 12
 13192 0fb9 28000000 		.4byte	.LVL215
 13193 0fbd 2C000000 		.4byte	.LVL216
 13194 0fc1 0200     		.2byte	0x2
 13195 0fc3 73       		.byte	0x73
 13196 0fc4 00       		.sleb128 0
 13197 0fc5 2C000000 		.4byte	.LVL216
 13198 0fc9 42010000 		.4byte	.LFE164
 13199 0fcd 0200     		.2byte	0x2
 13200 0fcf 91       		.byte	0x91
 13201 0fd0 0C       		.sleb128 12
 13202 0fd1 00000000 		.4byte	0
 13203 0fd5 00000000 		.4byte	0
 13204              	.LLST85:
 13205 0fd9 34000000 		.4byte	.LVL218
ARM GAS  C:\Users\haske\AppData\Local\Temp\ccydbpJh.s 			page 269


 13206 0fdd 62000000 		.4byte	.LVL225
 13207 0fe1 0100     		.2byte	0x1
 13208 0fe3 50       		.byte	0x50
 13209 0fe4 62000000 		.4byte	.LVL225
 13210 0fe8 B2000000 		.4byte	.LVL233
 13211 0fec 0100     		.2byte	0x1
 13212 0fee 5B       		.byte	0x5b
 13213 0fef B2000000 		.4byte	.LVL233
 13214 0ff3 BE000000 		.4byte	.LVL236
 13215 0ff7 0100     		.2byte	0x1
 13216 0ff9 50       		.byte	0x50
 13217 0ffa BE000000 		.4byte	.LVL236
 13218 0ffe 36010000 		.4byte	.LVL247
 13219 1002 0100     		.2byte	0x1
 13220 1004 5B       		.byte	0x5b
 13221 1005 00000000 		.4byte	0
 13222 1009 00000000 		.4byte	0
 13223              	.LLST86:
 13224 100d 42000000 		.4byte	.LVL220
 13225 1011 62000000 		.4byte	.LVL225
 13226 1015 0100     		.2byte	0x1
 13227 1017 55       		.byte	0x55
 13228 1018 B2000000 		.4byte	.LVL233
 13229 101c B8000000 		.4byte	.LVL235
 13230 1020 0100     		.2byte	0x1
 13231 1022 55       		.byte	0x55
 13232 1023 B8000000 		.4byte	.LVL235
 13233 1027 BE000000 		.4byte	.LVL236
 13234 102b 0100     		.2byte	0x1
 13235 102d 52       		.byte	0x52
 13236 102e C6000000 		.4byte	.LVL237
 13237 1032 34010000 		.4byte	.LVL245
 13238 1036 0100     		.2byte	0x1
 13239 1038 55       		.byte	0x55
 13240 1039 00000000 		.4byte	0
 13241 103d 00000000 		.4byte	0
 13242              	.LLST87:
 13243 1041 52000000 		.4byte	.LVL222
 13244 1045 58000000 		.4byte	.LVL223
 13245 1049 0100     		.2byte	0x1
 13246 104b 53       		.byte	0x53
 13247 104c 58000000 		.4byte	.LVL223
 13248 1050 B2000000 		.4byte	.LVL233
 13249 1054 0200     		.2byte	0x2
 13250 1056 91       		.byte	0x91
 13251 1057 4C       		.sleb128 -52
 13252 1058 B2000000 		.4byte	.LVL233
 13253 105c B4000000 		.4byte	.LVL234
 13254 1060 0100     		.2byte	0x1
 13255 1062 53       		.byte	0x53
 13256 1063 B4000000 		.4byte	.LVL234
 13257 1067 42010000 		.4byte	.LFE164
 13258 106b 0200     		.2byte	0x2
 13259 106d 91       		.byte	0x91
 13260 106e 4C       		.sleb128 -52
 13261 106f 00000000 		.4byte	0
 13262 1073 00000000 		.4byte	0
ARM GAS  C:\Users\haske\AppData\Local\Temp\ccydbpJh.s 			page 270


 13263              	.LLST88:
 13264 1077 62000000 		.4byte	.LVL225
 13265 107b 96000000 		.4byte	.LVL228
 13266 107f 0100     		.2byte	0x1
 13267 1081 54       		.byte	0x54
 13268 1082 9E000000 		.4byte	.LVL229
 13269 1086 B2000000 		.4byte	.LVL233
 13270 108a 0100     		.2byte	0x1
 13271 108c 54       		.byte	0x54
 13272 108d C6000000 		.4byte	.LVL237
 13273 1091 0E010000 		.4byte	.LVL240
 13274 1095 0100     		.2byte	0x1
 13275 1097 54       		.byte	0x54
 13276 1098 16010000 		.4byte	.LVL241
 13277 109c 2E010000 		.4byte	.LVL244
 13278 10a0 0100     		.2byte	0x1
 13279 10a2 54       		.byte	0x54
 13280 10a3 00000000 		.4byte	0
 13281 10a7 00000000 		.4byte	0
 13282              	.LLST89:
 13283 10ab 62000000 		.4byte	.LVL225
 13284 10af 96000000 		.4byte	.LVL228
 13285 10b3 0100     		.2byte	0x1
 13286 10b5 59       		.byte	0x59
 13287 10b6 96000000 		.4byte	.LVL228
 13288 10ba 9E000000 		.4byte	.LVL229
 13289 10be 0100     		.2byte	0x1
 13290 10c0 55       		.byte	0x55
 13291 10c1 9E000000 		.4byte	.LVL229
 13292 10c5 A8000000 		.4byte	.LVL230
 13293 10c9 0100     		.2byte	0x1
 13294 10cb 59       		.byte	0x59
 13295 10cc A8000000 		.4byte	.LVL230
 13296 10d0 B2000000 		.4byte	.LVL233
 13297 10d4 0100     		.2byte	0x1
 13298 10d6 55       		.byte	0x55
 13299 10d7 BE000000 		.4byte	.LVL236
 13300 10db C6000000 		.4byte	.LVL237
 13301 10df 0100     		.2byte	0x1
 13302 10e1 55       		.byte	0x55
 13303 10e2 C6000000 		.4byte	.LVL237
 13304 10e6 0E010000 		.4byte	.LVL240
 13305 10ea 0100     		.2byte	0x1
 13306 10ec 5A       		.byte	0x5a
 13307 10ed 0E010000 		.4byte	.LVL240
 13308 10f1 16010000 		.4byte	.LVL241
 13309 10f5 0100     		.2byte	0x1
 13310 10f7 57       		.byte	0x57
 13311 10f8 16010000 		.4byte	.LVL241
 13312 10fc 2E010000 		.4byte	.LVL244
 13313 1100 0100     		.2byte	0x1
 13314 1102 5A       		.byte	0x5a
 13315 1103 2E010000 		.4byte	.LVL244
 13316 1107 34010000 		.4byte	.LVL245
 13317 110b 0100     		.2byte	0x1
 13318 110d 57       		.byte	0x57
 13319 110e 00000000 		.4byte	0
ARM GAS  C:\Users\haske\AppData\Local\Temp\ccydbpJh.s 			page 271


 13320 1112 00000000 		.4byte	0
 13321              	.LLST90:
 13322 1116 34000000 		.4byte	.LVL218
 13323 111a 40000000 		.4byte	.LVL219
 13324 111e 0100     		.2byte	0x1
 13325 1120 57       		.byte	0x57
 13326 1121 00000000 		.4byte	0
 13327 1125 00000000 		.4byte	0
 13328              	.LLST91:
 13329 1129 42000000 		.4byte	.LVL220
 13330 112d 4E000000 		.4byte	.LVL221
 13331 1131 0100     		.2byte	0x1
 13332 1133 57       		.byte	0x57
 13333 1134 00000000 		.4byte	0
 13334 1138 00000000 		.4byte	0
 13335              	.LLST92:
 13336 113c 00000000 		.4byte	.LVL248
 13337 1140 52000000 		.4byte	.LVL260
 13338 1144 0100     		.2byte	0x1
 13339 1146 50       		.byte	0x50
 13340 1147 52000000 		.4byte	.LVL260
 13341 114b 66000000 		.4byte	.LVL264
 13342 114f 0100     		.2byte	0x1
 13343 1151 56       		.byte	0x56
 13344 1152 66000000 		.4byte	.LVL264
 13345 1156 72000000 		.4byte	.LVL267
 13346 115a 0100     		.2byte	0x1
 13347 115c 50       		.byte	0x50
 13348 115d 72000000 		.4byte	.LVL267
 13349 1161 78000000 		.4byte	.LVL268
 13350 1165 0100     		.2byte	0x1
 13351 1167 56       		.byte	0x56
 13352 1168 78000000 		.4byte	.LVL268
 13353 116c 86000000 		.4byte	.LVL273
 13354 1170 0100     		.2byte	0x1
 13355 1172 50       		.byte	0x50
 13356 1173 86000000 		.4byte	.LVL273
 13357 1177 CC000000 		.4byte	.LVL290
 13358 117b 0100     		.2byte	0x1
 13359 117d 56       		.byte	0x56
 13360 117e CC000000 		.4byte	.LVL290
 13361 1182 50010000 		.4byte	.LVL299
 13362 1186 0200     		.2byte	0x2
 13363 1188 91       		.byte	0x91
 13364 1189 44       		.sleb128 -60
 13365 118a 50010000 		.4byte	.LVL299
 13366 118e 5E010000 		.4byte	.LVL302
 13367 1192 0100     		.2byte	0x1
 13368 1194 56       		.byte	0x56
 13369 1195 5E010000 		.4byte	.LVL302
 13370 1199 74010000 		.4byte	.LVL306
 13371 119d 0200     		.2byte	0x2
 13372 119f 91       		.byte	0x91
 13373 11a0 44       		.sleb128 -60
 13374 11a1 74010000 		.4byte	.LVL306
 13375 11a5 82010000 		.4byte	.LVL309
 13376 11a9 0100     		.2byte	0x1
ARM GAS  C:\Users\haske\AppData\Local\Temp\ccydbpJh.s 			page 272


 13377 11ab 56       		.byte	0x56
 13378 11ac 82010000 		.4byte	.LVL309
 13379 11b0 A0010000 		.4byte	.LVL314
 13380 11b4 0100     		.2byte	0x1
 13381 11b6 50       		.byte	0x50
 13382 11b7 A0010000 		.4byte	.LVL314
 13383 11bb 6A020000 		.4byte	.LVL357
 13384 11bf 0100     		.2byte	0x1
 13385 11c1 56       		.byte	0x56
 13386 11c2 6A020000 		.4byte	.LVL357
 13387 11c6 A8020000 		.4byte	.LVL368
 13388 11ca 0300     		.2byte	0x3
 13389 11cc 76       		.byte	0x76
 13390 11cd 02       		.sleb128 2
 13391 11ce 9F       		.byte	0x9f
 13392 11cf A8020000 		.4byte	.LVL368
 13393 11d3 E6020000 		.4byte	.LVL379
 13394 11d7 0300     		.2byte	0x3
 13395 11d9 76       		.byte	0x76
 13396 11da 04       		.sleb128 4
 13397 11db 9F       		.byte	0x9f
 13398 11dc E6020000 		.4byte	.LVL379
 13399 11e0 28030000 		.4byte	.LVL391
 13400 11e4 0300     		.2byte	0x3
 13401 11e6 76       		.byte	0x76
 13402 11e7 06       		.sleb128 6
 13403 11e8 9F       		.byte	0x9f
 13404 11e9 28030000 		.4byte	.LVL391
 13405 11ed BC030000 		.4byte	.LVL416
 13406 11f1 0100     		.2byte	0x1
 13407 11f3 56       		.byte	0x56
 13408 11f4 BC030000 		.4byte	.LVL416
 13409 11f8 E0030000 		.4byte	.LVL423
 13410 11fc 0100     		.2byte	0x1
 13411 11fe 50       		.byte	0x50
 13412 11ff E0030000 		.4byte	.LVL423
 13413 1203 86040000 		.4byte	.LVL454
 13414 1207 0100     		.2byte	0x1
 13415 1209 56       		.byte	0x56
 13416 120a 00000000 		.4byte	0
 13417 120e 00000000 		.4byte	0
 13418              	.LLST93:
 13419 1212 00000000 		.4byte	.LVL248
 13420 1216 3C000000 		.4byte	.LVL256
 13421 121a 0100     		.2byte	0x1
 13422 121c 51       		.byte	0x51
 13423 121d 3C000000 		.4byte	.LVL256
 13424 1221 98040000 		.4byte	.LFE162
 13425 1225 0400     		.2byte	0x4
 13426 1227 F3       		.byte	0xf3
 13427 1228 01       		.uleb128 0x1
 13428 1229 51       		.byte	0x51
 13429 122a 9F       		.byte	0x9f
 13430 122b 00000000 		.4byte	0
 13431 122f 00000000 		.4byte	0
 13432              	.LLST94:
 13433 1233 00000000 		.4byte	.LVL248
ARM GAS  C:\Users\haske\AppData\Local\Temp\ccydbpJh.s 			page 273


 13434 1237 22000000 		.4byte	.LVL252
 13435 123b 0100     		.2byte	0x1
 13436 123d 52       		.byte	0x52
 13437 123e 22000000 		.4byte	.LVL252
 13438 1242 98040000 		.4byte	.LFE162
 13439 1246 0400     		.2byte	0x4
 13440 1248 F3       		.byte	0xf3
 13441 1249 01       		.uleb128 0x1
 13442 124a 52       		.byte	0x52
 13443 124b 9F       		.byte	0x9f
 13444 124c 00000000 		.4byte	0
 13445 1250 00000000 		.4byte	0
 13446              	.LLST95:
 13447 1254 00000000 		.4byte	.LVL248
 13448 1258 16000000 		.4byte	.LVL249
 13449 125c 0100     		.2byte	0x1
 13450 125e 53       		.byte	0x53
 13451 125f 6E000000 		.4byte	.LVL266
 13452 1263 72000000 		.4byte	.LVL267
 13453 1267 0100     		.2byte	0x1
 13454 1269 54       		.byte	0x54
 13455 126a 86000000 		.4byte	.LVL273
 13456 126e B4000000 		.4byte	.LVL284
 13457 1272 0100     		.2byte	0x1
 13458 1274 54       		.byte	0x54
 13459 1275 82010000 		.4byte	.LVL309
 13460 1279 AA010000 		.4byte	.LVL315
 13461 127d 0100     		.2byte	0x1
 13462 127f 54       		.byte	0x54
 13463 1280 AA010000 		.4byte	.LVL315
 13464 1284 AE010000 		.4byte	.LVL316
 13465 1288 0100     		.2byte	0x1
 13466 128a 53       		.byte	0x53
 13467 128b AE010000 		.4byte	.LVL316
 13468 128f BA010000 		.4byte	.LVL319
 13469 1293 0100     		.2byte	0x1
 13470 1295 54       		.byte	0x54
 13471 1296 DE010000 		.4byte	.LVL328
 13472 129a E6010000 		.4byte	.LVL332
 13473 129e 0100     		.2byte	0x1
 13474 12a0 53       		.byte	0x53
 13475 12a1 E6010000 		.4byte	.LVL332
 13476 12a5 FE010000 		.4byte	.LVL334
 13477 12a9 0100     		.2byte	0x1
 13478 12ab 54       		.byte	0x54
 13479 12ac 00020000 		.4byte	.LVL335
 13480 12b0 6E030000 		.4byte	.LVL400
 13481 12b4 0100     		.2byte	0x1
 13482 12b6 54       		.byte	0x54
 13483 12b7 92030000 		.4byte	.LVL409
 13484 12bb D2030000 		.4byte	.LVL420
 13485 12bf 0100     		.2byte	0x1
 13486 12c1 53       		.byte	0x53
 13487 12c2 84040000 		.4byte	.LVL452
 13488 12c6 86040000 		.4byte	.LVL453
 13489 12ca 0100     		.2byte	0x1
 13490 12cc 54       		.byte	0x54
ARM GAS  C:\Users\haske\AppData\Local\Temp\ccydbpJh.s 			page 274


 13491 12cd 00000000 		.4byte	0
 13492 12d1 00000000 		.4byte	0
 13493              	.LLST96:
 13494 12d5 00000000 		.4byte	.LVL248
 13495 12d9 16000000 		.4byte	.LVL249
 13496 12dd 0200     		.2byte	0x2
 13497 12df 91       		.byte	0x91
 13498 12e0 00       		.sleb128 0
 13499 12e1 16000000 		.4byte	.LVL249
 13500 12e5 18000000 		.4byte	.LVL250
 13501 12e9 0200     		.2byte	0x2
 13502 12eb 73       		.byte	0x73
 13503 12ec 00       		.sleb128 0
 13504 12ed 18000000 		.4byte	.LVL250
 13505 12f1 9E000000 		.4byte	.LVL280
 13506 12f5 0200     		.2byte	0x2
 13507 12f7 91       		.byte	0x91
 13508 12f8 00       		.sleb128 0
 13509 12f9 9E000000 		.4byte	.LVL280
 13510 12fd A0000000 		.4byte	.LVL281
 13511 1301 0100     		.2byte	0x1
 13512 1303 52       		.byte	0x52
 13513 1304 A0000000 		.4byte	.LVL281
 13514 1308 A2000000 		.4byte	.LVL282
 13515 130c 0500     		.2byte	0x5
 13516 130e 7A       		.byte	0x7a
 13517 130f 04       		.sleb128 4
 13518 1310 33       		.byte	0x33
 13519 1311 25       		.byte	0x25
 13520 1312 9F       		.byte	0x9f
 13521 1313 A2000000 		.4byte	.LVL282
 13522 1317 C0000000 		.4byte	.LVL287
 13523 131b 0100     		.2byte	0x1
 13524 131d 52       		.byte	0x52
 13525 131e C0000000 		.4byte	.LVL287
 13526 1322 C6000000 		.4byte	.LVL288
 13527 1326 0700     		.2byte	0x7
 13528 1328 7A       		.byte	0x7a
 13529 1329 04       		.sleb128 4
 13530 132a 33       		.byte	0x33
 13531 132b 25       		.byte	0x25
 13532 132c 33       		.byte	0x33
 13533 132d 24       		.byte	0x24
 13534 132e 9F       		.byte	0x9f
 13535 132f C6000000 		.4byte	.LVL288
 13536 1333 82010000 		.4byte	.LVL309
 13537 1337 0E00     		.2byte	0xe
 13538 1339 91       		.byte	0x91
 13539 133a 00       		.sleb128 0
 13540 133b 94       		.byte	0x94
 13541 133c 01       		.byte	0x1
 13542 133d 08       		.byte	0x8
 13543 133e FF       		.byte	0xff
 13544 133f 1A       		.byte	0x1a
 13545 1340 23       		.byte	0x23
 13546 1341 04       		.uleb128 0x4
 13547 1342 33       		.byte	0x33
ARM GAS  C:\Users\haske\AppData\Local\Temp\ccydbpJh.s 			page 275


 13548 1343 25       		.byte	0x25
 13549 1344 33       		.byte	0x33
 13550 1345 24       		.byte	0x24
 13551 1346 9F       		.byte	0x9f
 13552 1347 82010000 		.4byte	.LVL309
 13553 134b 84040000 		.4byte	.LVL452
 13554 134f 0200     		.2byte	0x2
 13555 1351 91       		.byte	0x91
 13556 1352 00       		.sleb128 0
 13557 1353 00000000 		.4byte	0
 13558 1357 00000000 		.4byte	0
 13559              	.LLST97:
 13560 135b 00000000 		.4byte	.LVL248
 13561 135f 16000000 		.4byte	.LVL249
 13562 1363 0200     		.2byte	0x2
 13563 1365 91       		.byte	0x91
 13564 1366 04       		.sleb128 4
 13565 1367 16000000 		.4byte	.LVL249
 13566 136b 18000000 		.4byte	.LVL250
 13567 136f 0200     		.2byte	0x2
 13568 1371 73       		.byte	0x73
 13569 1372 04       		.sleb128 4
 13570 1373 18000000 		.4byte	.LVL250
 13571 1377 A0010000 		.4byte	.LVL314
 13572 137b 0200     		.2byte	0x2
 13573 137d 91       		.byte	0x91
 13574 137e 04       		.sleb128 4
 13575 137f A0010000 		.4byte	.LVL314
 13576 1383 6A020000 		.4byte	.LVL357
 13577 1387 0100     		.2byte	0x1
 13578 1389 55       		.byte	0x55
 13579 138a 6A020000 		.4byte	.LVL357
 13580 138e A8020000 		.4byte	.LVL368
 13581 1392 0300     		.2byte	0x3
 13582 1394 75       		.byte	0x75
 13583 1395 01       		.sleb128 1
 13584 1396 9F       		.byte	0x9f
 13585 1397 A8020000 		.4byte	.LVL368
 13586 139b E6020000 		.4byte	.LVL379
 13587 139f 0300     		.2byte	0x3
 13588 13a1 75       		.byte	0x75
 13589 13a2 02       		.sleb128 2
 13590 13a3 9F       		.byte	0x9f
 13591 13a4 E6020000 		.4byte	.LVL379
 13592 13a8 26030000 		.4byte	.LVL390
 13593 13ac 0300     		.2byte	0x3
 13594 13ae 75       		.byte	0x75
 13595 13af 03       		.sleb128 3
 13596 13b0 9F       		.byte	0x9f
 13597 13b1 26030000 		.4byte	.LVL390
 13598 13b5 BC030000 		.4byte	.LVL416
 13599 13b9 0100     		.2byte	0x1
 13600 13bb 55       		.byte	0x55
 13601 13bc BC030000 		.4byte	.LVL416
 13602 13c0 E0030000 		.4byte	.LVL423
 13603 13c4 0200     		.2byte	0x2
 13604 13c6 91       		.byte	0x91
ARM GAS  C:\Users\haske\AppData\Local\Temp\ccydbpJh.s 			page 276


 13605 13c7 04       		.sleb128 4
 13606 13c8 E0030000 		.4byte	.LVL423
 13607 13cc 84040000 		.4byte	.LVL452
 13608 13d0 0100     		.2byte	0x1
 13609 13d2 55       		.byte	0x55
 13610 13d3 00000000 		.4byte	0
 13611 13d7 00000000 		.4byte	0
 13612              	.LLST98:
 13613 13db 00000000 		.4byte	.LVL248
 13614 13df 16000000 		.4byte	.LVL249
 13615 13e3 0200     		.2byte	0x2
 13616 13e5 91       		.byte	0x91
 13617 13e6 08       		.sleb128 8
 13618 13e7 16000000 		.4byte	.LVL249
 13619 13eb 18000000 		.4byte	.LVL250
 13620 13ef 0200     		.2byte	0x2
 13621 13f1 73       		.byte	0x73
 13622 13f2 08       		.sleb128 8
 13623 13f3 18000000 		.4byte	.LVL250
 13624 13f7 1E000000 		.4byte	.LVL251
 13625 13fb 0200     		.2byte	0x2
 13626 13fd 91       		.byte	0x91
 13627 13fe 08       		.sleb128 8
 13628 13ff 1E000000 		.4byte	.LVL251
 13629 1403 22000000 		.4byte	.LVL252
 13630 1407 0200     		.2byte	0x2
 13631 1409 73       		.byte	0x73
 13632 140a 00       		.sleb128 0
 13633 140b 22000000 		.4byte	.LVL252
 13634 140f 98040000 		.4byte	.LFE162
 13635 1413 0200     		.2byte	0x2
 13636 1415 91       		.byte	0x91
 13637 1416 08       		.sleb128 8
 13638 1417 00000000 		.4byte	0
 13639 141b 00000000 		.4byte	0
 13640              	.LLST99:
 13641 141f 34000000 		.4byte	.LVL255
 13642 1423 52000000 		.4byte	.LVL260
 13643 1427 0100     		.2byte	0x1
 13644 1429 57       		.byte	0x57
 13645 142a 52000000 		.4byte	.LVL260
 13646 142e 66000000 		.4byte	.LVL264
 13647 1432 0100     		.2byte	0x1
 13648 1434 58       		.byte	0x58
 13649 1435 66000000 		.4byte	.LVL264
 13650 1439 6C000000 		.4byte	.LVL265
 13651 143d 0100     		.2byte	0x1
 13652 143f 57       		.byte	0x57
 13653 1440 6C000000 		.4byte	.LVL265
 13654 1444 72000000 		.4byte	.LVL267
 13655 1448 0100     		.2byte	0x1
 13656 144a 5C       		.byte	0x5c
 13657 144b 72000000 		.4byte	.LVL267
 13658 144f 78000000 		.4byte	.LVL268
 13659 1453 0100     		.2byte	0x1
 13660 1455 58       		.byte	0x58
 13661 1456 78000000 		.4byte	.LVL268
ARM GAS  C:\Users\haske\AppData\Local\Temp\ccydbpJh.s 			page 277


 13662 145a A4000000 		.4byte	.LVL283
 13663 145e 0100     		.2byte	0x1
 13664 1460 57       		.byte	0x57
 13665 1461 A4000000 		.4byte	.LVL283
 13666 1465 CC000000 		.4byte	.LVL290
 13667 1469 0100     		.2byte	0x1
 13668 146b 5C       		.byte	0x5c
 13669 146c CC000000 		.4byte	.LVL290
 13670 1470 82010000 		.4byte	.LVL309
 13671 1474 0100     		.2byte	0x1
 13672 1476 55       		.byte	0x55
 13673 1477 82010000 		.4byte	.LVL309
 13674 147b A0010000 		.4byte	.LVL314
 13675 147f 0100     		.2byte	0x1
 13676 1481 57       		.byte	0x57
 13677 1482 A0010000 		.4byte	.LVL314
 13678 1486 BC030000 		.4byte	.LVL416
 13679 148a 0100     		.2byte	0x1
 13680 148c 5C       		.byte	0x5c
 13681 148d BC030000 		.4byte	.LVL416
 13682 1491 C2030000 		.4byte	.LVL418
 13683 1495 0100     		.2byte	0x1
 13684 1497 57       		.byte	0x57
 13685 1498 C2030000 		.4byte	.LVL418
 13686 149c D6030000 		.4byte	.LVL422
 13687 14a0 0100     		.2byte	0x1
 13688 14a2 5C       		.byte	0x5c
 13689 14a3 D6030000 		.4byte	.LVL422
 13690 14a7 E0030000 		.4byte	.LVL423
 13691 14ab 0100     		.2byte	0x1
 13692 14ad 54       		.byte	0x54
 13693 14ae 00000000 		.4byte	0
 13694 14b2 00000000 		.4byte	0
 13695              	.LLST100:
 13696 14b6 44000000 		.4byte	.LVL258
 13697 14ba 4C000000 		.4byte	.LVL259
 13698 14be 0100     		.2byte	0x1
 13699 14c0 53       		.byte	0x53
 13700 14c1 4C000000 		.4byte	.LVL259
 13701 14c5 82010000 		.4byte	.LVL309
 13702 14c9 0200     		.2byte	0x2
 13703 14cb 91       		.byte	0x91
 13704 14cc 4C       		.sleb128 -52
 13705 14cd 82010000 		.4byte	.LVL309
 13706 14d1 84010000 		.4byte	.LVL310
 13707 14d5 0100     		.2byte	0x1
 13708 14d7 53       		.byte	0x53
 13709 14d8 84010000 		.4byte	.LVL310
 13710 14dc E0030000 		.4byte	.LVL423
 13711 14e0 0200     		.2byte	0x2
 13712 14e2 91       		.byte	0x91
 13713 14e3 4C       		.sleb128 -52
 13714 14e4 00000000 		.4byte	0
 13715 14e8 00000000 		.4byte	0
 13716              	.LLST101:
 13717 14ec CC000000 		.4byte	.LVL290
 13718 14f0 50010000 		.4byte	.LVL299
ARM GAS  C:\Users\haske\AppData\Local\Temp\ccydbpJh.s 			page 278


 13719 14f4 0100     		.2byte	0x1
 13720 14f6 50       		.byte	0x50
 13721 14f7 5E010000 		.4byte	.LVL302
 13722 14fb 7A010000 		.4byte	.LVL307
 13723 14ff 0100     		.2byte	0x1
 13724 1501 50       		.byte	0x50
 13725 1502 A0010000 		.4byte	.LVL314
 13726 1506 E6010000 		.4byte	.LVL332
 13727 150a 0100     		.2byte	0x1
 13728 150c 57       		.byte	0x57
 13729 150d E8010000 		.4byte	.LVL333
 13730 1511 B2030000 		.4byte	.LVL415
 13731 1515 0100     		.2byte	0x1
 13732 1517 57       		.byte	0x57
 13733 1518 E0030000 		.4byte	.LVL423
 13734 151c 60040000 		.4byte	.LVL447
 13735 1520 0100     		.2byte	0x1
 13736 1522 50       		.byte	0x50
 13737 1523 64040000 		.4byte	.LVL448
 13738 1527 7E040000 		.4byte	.LVL451
 13739 152b 0100     		.2byte	0x1
 13740 152d 50       		.byte	0x50
 13741 152e 00000000 		.4byte	0
 13742 1532 00000000 		.4byte	0
 13743              	.LLST102:
 13744 1536 52000000 		.4byte	.LVL260
 13745 153a 66000000 		.4byte	.LVL264
 13746 153e 0100     		.2byte	0x1
 13747 1540 55       		.byte	0x55
 13748 1541 72000000 		.4byte	.LVL267
 13749 1545 78000000 		.4byte	.LVL268
 13750 1549 0100     		.2byte	0x1
 13751 154b 55       		.byte	0x55
 13752 154c BE000000 		.4byte	.LVL286
 13753 1550 CC000000 		.4byte	.LVL290
 13754 1554 0200     		.2byte	0x2
 13755 1556 30       		.byte	0x30
 13756 1557 9F       		.byte	0x9f
 13757 1558 CC000000 		.4byte	.LVL290
 13758 155c 50010000 		.4byte	.LVL299
 13759 1560 0200     		.2byte	0x2
 13760 1562 91       		.byte	0x91
 13761 1563 48       		.sleb128 -56
 13762 1564 50010000 		.4byte	.LVL299
 13763 1568 5E010000 		.4byte	.LVL302
 13764 156c 0100     		.2byte	0x1
 13765 156e 5B       		.byte	0x5b
 13766 156f 5E010000 		.4byte	.LVL302
 13767 1573 7A010000 		.4byte	.LVL307
 13768 1577 0200     		.2byte	0x2
 13769 1579 91       		.byte	0x91
 13770 157a 48       		.sleb128 -56
 13771 157b 7A010000 		.4byte	.LVL307
 13772 157f 82010000 		.4byte	.LVL309
 13773 1583 0100     		.2byte	0x1
 13774 1585 5B       		.byte	0x5b
 13775 1586 96010000 		.4byte	.LVL312
ARM GAS  C:\Users\haske\AppData\Local\Temp\ccydbpJh.s 			page 279


 13776 158a A0010000 		.4byte	.LVL314
 13777 158e 0200     		.2byte	0x2
 13778 1590 30       		.byte	0x30
 13779 1591 9F       		.byte	0x9f
 13780 1592 A0010000 		.4byte	.LVL314
 13781 1596 BC030000 		.4byte	.LVL416
 13782 159a 0100     		.2byte	0x1
 13783 159c 5A       		.byte	0x5a
 13784 159d C0030000 		.4byte	.LVL417
 13785 15a1 E0030000 		.4byte	.LVL423
 13786 15a5 0200     		.2byte	0x2
 13787 15a7 30       		.byte	0x30
 13788 15a8 9F       		.byte	0x9f
 13789 15a9 E0030000 		.4byte	.LVL423
 13790 15ad 60040000 		.4byte	.LVL447
 13791 15b1 0200     		.2byte	0x2
 13792 15b3 91       		.byte	0x91
 13793 15b4 48       		.sleb128 -56
 13794 15b5 60040000 		.4byte	.LVL447
 13795 15b9 64040000 		.4byte	.LVL448
 13796 15bd 0100     		.2byte	0x1
 13797 15bf 51       		.byte	0x51
 13798 15c0 64040000 		.4byte	.LVL448
 13799 15c4 84040000 		.4byte	.LVL452
 13800 15c8 0200     		.2byte	0x2
 13801 15ca 91       		.byte	0x91
 13802 15cb 48       		.sleb128 -56
 13803 15cc 00000000 		.4byte	0
 13804 15d0 00000000 		.4byte	0
 13805              	.LLST103:
 13806 15d4 24000000 		.4byte	.LVL253
 13807 15d8 32000000 		.4byte	.LVL254
 13808 15dc 0100     		.2byte	0x1
 13809 15de 51       		.byte	0x51
 13810 15df 00000000 		.4byte	0
 13811 15e3 00000000 		.4byte	0
 13812              	.LLST104:
 13813 15e7 34000000 		.4byte	.LVL255
 13814 15eb 3C000000 		.4byte	.LVL256
 13815 15ef 0100     		.2byte	0x1
 13816 15f1 51       		.byte	0x51
 13817 15f2 3C000000 		.4byte	.LVL256
 13818 15f6 40000000 		.4byte	.LVL257
 13819 15fa 0400     		.2byte	0x4
 13820 15fc F3       		.byte	0xf3
 13821 15fd 01       		.uleb128 0x1
 13822 15fe 51       		.byte	0x51
 13823 15ff 9F       		.byte	0x9f
 13824 1600 00000000 		.4byte	0
 13825 1604 00000000 		.4byte	0
 13826              	.LLST105:
 13827 1608 7C000000 		.4byte	.LVL270
 13828 160c 8A000000 		.4byte	.LVL274
 13829 1610 0100     		.2byte	0x1
 13830 1612 53       		.byte	0x53
 13831 1613 00000000 		.4byte	0
 13832 1617 00000000 		.4byte	0
ARM GAS  C:\Users\haske\AppData\Local\Temp\ccydbpJh.s 			page 280


 13833              	.LLST106:
 13834 161b C8000000 		.4byte	.LVL289
 13835 161f CE000000 		.4byte	.LVL291
 13836 1623 0100     		.2byte	0x1
 13837 1625 53       		.byte	0x53
 13838 1626 CE000000 		.4byte	.LVL291
 13839 162a DA000000 		.4byte	.LVL292
 13840 162e 0100     		.2byte	0x1
 13841 1630 57       		.byte	0x57
 13842 1631 DA000000 		.4byte	.LVL292
 13843 1635 EE000000 		.4byte	.LVL294
 13844 1639 0100     		.2byte	0x1
 13845 163b 59       		.byte	0x59
 13846 163c 48010000 		.4byte	.LVL297
 13847 1640 50010000 		.4byte	.LVL299
 13848 1644 0100     		.2byte	0x1
 13849 1646 59       		.byte	0x59
 13850 1647 5A010000 		.4byte	.LVL300
 13851 164b 5E010000 		.4byte	.LVL302
 13852 164f 0100     		.2byte	0x1
 13853 1651 57       		.byte	0x57
 13854 1652 5E010000 		.4byte	.LVL302
 13855 1656 64010000 		.4byte	.LVL303
 13856 165a 0100     		.2byte	0x1
 13857 165c 53       		.byte	0x53
 13858 165d 64010000 		.4byte	.LVL303
 13859 1661 6A010000 		.4byte	.LVL304
 13860 1665 0100     		.2byte	0x1
 13861 1667 57       		.byte	0x57
 13862 1668 6A010000 		.4byte	.LVL304
 13863 166c 6C010000 		.4byte	.LVL305
 13864 1670 0100     		.2byte	0x1
 13865 1672 59       		.byte	0x59
 13866 1673 7A010000 		.4byte	.LVL307
 13867 1677 7C010000 		.4byte	.LVL308
 13868 167b 0100     		.2byte	0x1
 13869 167d 53       		.byte	0x53
 13870 167e 00000000 		.4byte	0
 13871 1682 00000000 		.4byte	0
 13872              	.LLST107:
 13873 1686 BE000000 		.4byte	.LVL286
 13874 168a 82010000 		.4byte	.LVL309
 13875 168e 0100     		.2byte	0x1
 13876 1690 54       		.byte	0x54
 13877 1691 00000000 		.4byte	0
 13878 1695 00000000 		.4byte	0
 13879              	.LLST108:
 13880 1699 7E000000 		.4byte	.LVL271
 13881 169d 84000000 		.4byte	.LVL272
 13882 16a1 0100     		.2byte	0x1
 13883 16a3 5A       		.byte	0x5a
 13884 16a4 84000000 		.4byte	.LVL272
 13885 16a8 9C000000 		.4byte	.LVL279
 13886 16ac 0100     		.2byte	0x1
 13887 16ae 52       		.byte	0x52
 13888 16af 00000000 		.4byte	0
 13889 16b3 00000000 		.4byte	0
ARM GAS  C:\Users\haske\AppData\Local\Temp\ccydbpJh.s 			page 281


 13890              	.LLST109:
 13891 16b7 86000000 		.4byte	.LVL273
 13892 16bb 9C000000 		.4byte	.LVL279
 13893 16bf 0200     		.2byte	0x2
 13894 16c1 30       		.byte	0x30
 13895 16c2 9F       		.byte	0x9f
 13896 16c3 00000000 		.4byte	0
 13897 16c7 00000000 		.4byte	0
 13898              	.LLST110:
 13899 16cb 8C000000 		.4byte	.LVL275
 13900 16cf 8E000000 		.4byte	.LVL276
 13901 16d3 0600     		.2byte	0x6
 13902 16d5 71       		.byte	0x71
 13903 16d6 00       		.sleb128 0
 13904 16d7 70       		.byte	0x70
 13905 16d8 00       		.sleb128 0
 13906 16d9 1A       		.byte	0x1a
 13907 16da 9F       		.byte	0x9f
 13908 16db 8E000000 		.4byte	.LVL276
 13909 16df 9A000000 		.4byte	.LVL278
 13910 16e3 0100     		.2byte	0x1
 13911 16e5 51       		.byte	0x51
 13912 16e6 9A000000 		.4byte	.LVL278
 13913 16ea 9C000000 		.4byte	.LVL279
 13914 16ee 1300     		.2byte	0x13
 13915 16f0 74       		.byte	0x74
 13916 16f1 00       		.sleb128 0
 13917 16f2 0A       		.byte	0xa
 13918 16f3 FFFF     		.2byte	0xffff
 13919 16f5 1A       		.byte	0x1a
 13920 16f6 40       		.byte	0x40
 13921 16f7 24       		.byte	0x24
 13922 16f8 74       		.byte	0x74
 13923 16f9 00       		.sleb128 0
 13924 16fa 0A       		.byte	0xa
 13925 16fb FFFF     		.2byte	0xffff
 13926 16fd 1A       		.byte	0x1a
 13927 16fe 21       		.byte	0x21
 13928 16ff 70       		.byte	0x70
 13929 1700 00       		.sleb128 0
 13930 1701 1A       		.byte	0x1a
 13931 1702 9F       		.byte	0x9f
 13932 1703 00000000 		.4byte	0
 13933 1707 00000000 		.4byte	0
 13934              	.LLST111:
 13935 170b 98000000 		.4byte	.LVL277
 13936 170f 9C000000 		.4byte	.LVL279
 13937 1713 0100     		.2byte	0x1
 13938 1715 53       		.byte	0x53
 13939 1716 00000000 		.4byte	0
 13940 171a 00000000 		.4byte	0
 13941              	.LLST112:
 13942 171e A2000000 		.4byte	.LVL282
 13943 1722 BA000000 		.4byte	.LVL285
 13944 1726 0600     		.2byte	0x6
 13945 1728 F2       		.byte	0xf2
 13946 1729 E9260000 		.4byte	.Ldebug_info0+9961
ARM GAS  C:\Users\haske\AppData\Local\Temp\ccydbpJh.s 			page 282


 13947 172d 00       		.sleb128 0
 13948 172e 00000000 		.4byte	0
 13949 1732 00000000 		.4byte	0
 13950              	.LLST113:
 13951 1736 A2000000 		.4byte	.LVL282
 13952 173a BA000000 		.4byte	.LVL285
 13953 173e 0100     		.2byte	0x1
 13954 1740 52       		.byte	0x52
 13955 1741 00000000 		.4byte	0
 13956 1745 00000000 		.4byte	0
 13957              	.LLST114:
 13958 1749 E4000000 		.4byte	.LVL293
 13959 174d 48010000 		.4byte	.LVL297
 13960 1751 0100     		.2byte	0x1
 13961 1753 54       		.byte	0x54
 13962 1754 00000000 		.4byte	0
 13963 1758 00000000 		.4byte	0
 13964              	.LLST115:
 13965 175c E4000000 		.4byte	.LVL293
 13966 1760 48010000 		.4byte	.LVL297
 13967 1764 0600     		.2byte	0x6
 13968 1766 F2       		.byte	0xf2
 13969 1767 E9260000 		.4byte	.Ldebug_info0+9961
 13970 176b 00       		.sleb128 0
 13971 176c 00000000 		.4byte	0
 13972 1770 00000000 		.4byte	0
 13973              	.LLST116:
 13974 1774 FE000000 		.4byte	.LVL295
 13975 1778 00010000 		.4byte	.LVL296
 13976 177c 0100     		.2byte	0x1
 13977 177e 51       		.byte	0x51
 13978 177f 50010000 		.4byte	.LVL299
 13979 1783 5A010000 		.4byte	.LVL300
 13980 1787 0100     		.2byte	0x1
 13981 1789 51       		.byte	0x51
 13982 178a 5A010000 		.4byte	.LVL300
 13983 178e 5C010000 		.4byte	.LVL301
 13984 1792 0100     		.2byte	0x1
 13985 1794 59       		.byte	0x59
 13986 1795 6A010000 		.4byte	.LVL304
 13987 1799 82010000 		.4byte	.LVL309
 13988 179d 0100     		.2byte	0x1
 13989 179f 51       		.byte	0x51
 13990 17a0 84040000 		.4byte	.LVL452
 13991 17a4 98040000 		.4byte	.LFE162
 13992 17a8 0100     		.2byte	0x1
 13993 17aa 51       		.byte	0x51
 13994 17ab 00000000 		.4byte	0
 13995 17af 00000000 		.4byte	0
 13996              	.LLST117:
 13997 17b3 8A010000 		.4byte	.LVL311
 13998 17b7 A0010000 		.4byte	.LVL314
 13999 17bb 0100     		.2byte	0x1
 14000 17bd 59       		.byte	0x59
 14001 17be BC030000 		.4byte	.LVL416
 14002 17c2 C0030000 		.4byte	.LVL417
 14003 17c6 0100     		.2byte	0x1
ARM GAS  C:\Users\haske\AppData\Local\Temp\ccydbpJh.s 			page 283


 14004 17c8 59       		.byte	0x59
 14005 17c9 C0030000 		.4byte	.LVL417
 14006 17cd C4030000 		.4byte	.LVL419
 14007 17d1 0A00     		.2byte	0xa
 14008 17d3 74       		.byte	0x74
 14009 17d4 00       		.sleb128 0
 14010 17d5 0A       		.byte	0xa
 14011 17d6 FFFF     		.2byte	0xffff
 14012 17d8 1A       		.byte	0x1a
 14013 17d9 72       		.byte	0x72
 14014 17da 00       		.sleb128 0
 14015 17db 22       		.byte	0x22
 14016 17dc 9F       		.byte	0x9f
 14017 17dd C4030000 		.4byte	.LVL419
 14018 17e1 D2030000 		.4byte	.LVL420
 14019 17e5 1000     		.2byte	0x10
 14020 17e7 74       		.byte	0x74
 14021 17e8 00       		.sleb128 0
 14022 17e9 0A       		.byte	0xa
 14023 17ea FFFF     		.2byte	0xffff
 14024 17ec 1A       		.byte	0x1a
 14025 17ed 40       		.byte	0x40
 14026 17ee 24       		.byte	0x24
 14027 17ef 74       		.byte	0x74
 14028 17f0 00       		.sleb128 0
 14029 17f1 0A       		.byte	0xa
 14030 17f2 FFFF     		.2byte	0xffff
 14031 17f4 1A       		.byte	0x1a
 14032 17f5 22       		.byte	0x22
 14033 17f6 9F       		.byte	0x9f
 14034 17f7 D2030000 		.4byte	.LVL420
 14035 17fb D4030000 		.4byte	.LVL421
 14036 17ff 1400     		.2byte	0x14
 14037 1801 71       		.byte	0x71
 14038 1802 04       		.sleb128 4
 14039 1803 94       		.byte	0x94
 14040 1804 02       		.byte	0x2
 14041 1805 0A       		.byte	0xa
 14042 1806 FFFF     		.2byte	0xffff
 14043 1808 1A       		.byte	0x1a
 14044 1809 40       		.byte	0x40
 14045 180a 24       		.byte	0x24
 14046 180b 71       		.byte	0x71
 14047 180c 04       		.sleb128 4
 14048 180d 94       		.byte	0x94
 14049 180e 02       		.byte	0x2
 14050 180f 0A       		.byte	0xa
 14051 1810 FFFF     		.2byte	0xffff
 14052 1812 1A       		.byte	0x1a
 14053 1813 22       		.byte	0x22
 14054 1814 9F       		.byte	0x9f
 14055 1815 D4030000 		.4byte	.LVL421
 14056 1819 84040000 		.4byte	.LVL452
 14057 181d 1400     		.2byte	0x14
 14058 181f 7D       		.byte	0x7d
 14059 1820 04       		.sleb128 4
 14060 1821 94       		.byte	0x94
ARM GAS  C:\Users\haske\AppData\Local\Temp\ccydbpJh.s 			page 284


 14061 1822 02       		.byte	0x2
 14062 1823 0A       		.byte	0xa
 14063 1824 FFFF     		.2byte	0xffff
 14064 1826 1A       		.byte	0x1a
 14065 1827 40       		.byte	0x40
 14066 1828 24       		.byte	0x24
 14067 1829 7D       		.byte	0x7d
 14068 182a 04       		.sleb128 4
 14069 182b 94       		.byte	0x94
 14070 182c 02       		.byte	0x2
 14071 182d 0A       		.byte	0xa
 14072 182e FFFF     		.2byte	0xffff
 14073 1830 1A       		.byte	0x1a
 14074 1831 22       		.byte	0x22
 14075 1832 9F       		.byte	0x9f
 14076 1833 00000000 		.4byte	0
 14077 1837 00000000 		.4byte	0
 14078              	.LLST118:
 14079 183b 96010000 		.4byte	.LVL312
 14080 183f 98010000 		.4byte	.LVL313
 14081 1843 0100     		.2byte	0x1
 14082 1845 53       		.byte	0x53
 14083 1846 98010000 		.4byte	.LVL313
 14084 184a A0010000 		.4byte	.LVL314
 14085 184e 0100     		.2byte	0x1
 14086 1850 58       		.byte	0x58
 14087 1851 A0010000 		.4byte	.LVL314
 14088 1855 BC030000 		.4byte	.LVL416
 14089 1859 0300     		.2byte	0x3
 14090 185b 7C       		.byte	0x7c
 14091 185c 7C       		.sleb128 -4
 14092 185d 9F       		.byte	0x9f
 14093 185e 00000000 		.4byte	0
 14094 1862 00000000 		.4byte	0
 14095              	.LLST119:
 14096 1866 AE010000 		.4byte	.LVL316
 14097 186a B0010000 		.4byte	.LVL317
 14098 186e 0100     		.2byte	0x1
 14099 1870 52       		.byte	0x52
 14100 1871 B2010000 		.4byte	.LVL318
 14101 1875 D0010000 		.4byte	.LVL324
 14102 1879 0100     		.2byte	0x1
 14103 187b 52       		.byte	0x52
 14104 187c D0010000 		.4byte	.LVL324
 14105 1880 DC010000 		.4byte	.LVL327
 14106 1884 0C00     		.2byte	0xc
 14107 1886 75       		.byte	0x75
 14108 1887 00       		.sleb128 0
 14109 1888 94       		.byte	0x94
 14110 1889 01       		.byte	0x1
 14111 188a 08       		.byte	0x8
 14112 188b FF       		.byte	0xff
 14113 188c 1A       		.byte	0x1a
 14114 188d 23       		.byte	0x23
 14115 188e 04       		.uleb128 0x4
 14116 188f 33       		.byte	0x33
 14117 1890 25       		.byte	0x25
ARM GAS  C:\Users\haske\AppData\Local\Temp\ccydbpJh.s 			page 285


 14118 1891 9F       		.byte	0x9f
 14119 1892 00000000 		.4byte	0
 14120 1896 00000000 		.4byte	0
 14121              	.LLST120:
 14122 189a BC010000 		.4byte	.LVL320
 14123 189e D6010000 		.4byte	.LVL325
 14124 18a2 0100     		.2byte	0x1
 14125 18a4 53       		.byte	0x53
 14126 18a5 D6010000 		.4byte	.LVL325
 14127 18a9 DC010000 		.4byte	.LVL327
 14128 18ad 1700     		.2byte	0x17
 14129 18af 76       		.byte	0x76
 14130 18b0 00       		.sleb128 0
 14131 18b1 94       		.byte	0x94
 14132 18b2 02       		.byte	0x2
 14133 18b3 0A       		.byte	0xa
 14134 18b4 FFFF     		.2byte	0xffff
 14135 18b6 1A       		.byte	0x1a
 14136 18b7 40       		.byte	0x40
 14137 18b8 24       		.byte	0x24
 14138 18b9 76       		.byte	0x76
 14139 18ba 00       		.sleb128 0
 14140 18bb 94       		.byte	0x94
 14141 18bc 02       		.byte	0x2
 14142 18bd 0A       		.byte	0xa
 14143 18be FFFF     		.2byte	0xffff
 14144 18c0 1A       		.byte	0x1a
 14145 18c1 21       		.byte	0x21
 14146 18c2 74       		.byte	0x74
 14147 18c3 00       		.sleb128 0
 14148 18c4 1A       		.byte	0x1a
 14149 18c5 9F       		.byte	0x9f
 14150 18c6 00000000 		.4byte	0
 14151 18ca 00000000 		.4byte	0
 14152              	.LLST121:
 14153 18ce CA010000 		.4byte	.LVL321
 14154 18d2 CC010000 		.4byte	.LVL322
 14155 18d6 0100     		.2byte	0x1
 14156 18d8 50       		.byte	0x50
 14157 18d9 CC010000 		.4byte	.LVL322
 14158 18dd CE010000 		.4byte	.LVL323
 14159 18e1 0B00     		.2byte	0xb
 14160 18e3 71       		.byte	0x71
 14161 18e4 00       		.sleb128 0
 14162 18e5 40       		.byte	0x40
 14163 18e6 24       		.byte	0x24
 14164 18e7 71       		.byte	0x71
 14165 18e8 00       		.sleb128 0
 14166 18e9 21       		.byte	0x21
 14167 18ea 74       		.byte	0x74
 14168 18eb 00       		.sleb128 0
 14169 18ec 1A       		.byte	0x1a
 14170 18ed 9F       		.byte	0x9f
 14171 18ee CE010000 		.4byte	.LVL323
 14172 18f2 DC010000 		.4byte	.LVL327
 14173 18f6 0B00     		.2byte	0xb
 14174 18f8 7B       		.byte	0x7b
ARM GAS  C:\Users\haske\AppData\Local\Temp\ccydbpJh.s 			page 286


 14175 18f9 00       		.sleb128 0
 14176 18fa 40       		.byte	0x40
 14177 18fb 24       		.byte	0x24
 14178 18fc 7B       		.byte	0x7b
 14179 18fd 00       		.sleb128 0
 14180 18fe 21       		.byte	0x21
 14181 18ff 74       		.byte	0x74
 14182 1900 00       		.sleb128 0
 14183 1901 1A       		.byte	0x1a
 14184 1902 9F       		.byte	0x9f
 14185 1903 00000000 		.4byte	0
 14186 1907 00000000 		.4byte	0
 14187              	.LLST122:
 14188 190b D8010000 		.4byte	.LVL326
 14189 190f DC010000 		.4byte	.LVL327
 14190 1913 0100     		.2byte	0x1
 14191 1915 53       		.byte	0x53
 14192 1916 00000000 		.4byte	0
 14193 191a 00000000 		.4byte	0
 14194              	.LLST123:
 14195 191e 02020000 		.4byte	.LVL336
 14196 1922 0A020000 		.4byte	.LVL337
 14197 1926 0100     		.2byte	0x1
 14198 1928 53       		.byte	0x53
 14199 1929 0A020000 		.4byte	.LVL337
 14200 192d 0C020000 		.4byte	.LVL338
 14201 1931 0200     		.2byte	0x2
 14202 1933 75       		.byte	0x75
 14203 1934 00       		.sleb128 0
 14204 1935 16020000 		.4byte	.LVL340
 14205 1939 1A020000 		.4byte	.LVL341
 14206 193d 0200     		.2byte	0x2
 14207 193f 75       		.byte	0x75
 14208 1940 00       		.sleb128 0
 14209 1941 22020000 		.4byte	.LVL345
 14210 1945 36020000 		.4byte	.LVL348
 14211 1949 0100     		.2byte	0x1
 14212 194b 53       		.byte	0x53
 14213 194c 36020000 		.4byte	.LVL348
 14214 1950 6A020000 		.4byte	.LVL357
 14215 1954 0200     		.2byte	0x2
 14216 1956 75       		.byte	0x75
 14217 1957 00       		.sleb128 0
 14218 1958 2A030000 		.4byte	.LVL392
 14219 195c 2E030000 		.4byte	.LVL394
 14220 1960 0100     		.2byte	0x1
 14221 1962 53       		.byte	0x53
 14222 1963 00000000 		.4byte	0
 14223 1967 00000000 		.4byte	0
 14224              	.LLST124:
 14225 196b 0C020000 		.4byte	.LVL338
 14226 196f 0E020000 		.4byte	.LVL339
 14227 1973 0300     		.2byte	0x3
 14228 1975 76       		.byte	0x76
 14229 1976 02       		.sleb128 2
 14230 1977 9F       		.byte	0x9f
 14231 1978 0E020000 		.4byte	.LVL339
ARM GAS  C:\Users\haske\AppData\Local\Temp\ccydbpJh.s 			page 287


 14232 197c 16020000 		.4byte	.LVL340
 14233 1980 0100     		.2byte	0x1
 14234 1982 53       		.byte	0x53
 14235 1983 00000000 		.4byte	0
 14236 1987 00000000 		.4byte	0
 14237              	.LLST125:
 14238 198b 16020000 		.4byte	.LVL340
 14239 198f 1C020000 		.4byte	.LVL342
 14240 1993 0100     		.2byte	0x1
 14241 1995 56       		.byte	0x56
 14242 1996 00000000 		.4byte	0
 14243 199a 00000000 		.4byte	0
 14244              	.LLST126:
 14245 199e 32020000 		.4byte	.LVL346
 14246 19a2 34020000 		.4byte	.LVL347
 14247 19a6 0100     		.2byte	0x1
 14248 19a8 50       		.byte	0x50
 14249 19a9 38020000 		.4byte	.LVL349
 14250 19ad 68020000 		.4byte	.LVL356
 14251 19b1 0100     		.2byte	0x1
 14252 19b3 59       		.byte	0x59
 14253 19b4 00000000 		.4byte	0
 14254 19b8 00000000 		.4byte	0
 14255              	.LLST127:
 14256 19bc 44020000 		.4byte	.LVL350
 14257 19c0 60020000 		.4byte	.LVL354
 14258 19c4 0100     		.2byte	0x1
 14259 19c6 53       		.byte	0x53
 14260 19c7 60020000 		.4byte	.LVL354
 14261 19cb 68020000 		.4byte	.LVL356
 14262 19cf 1700     		.2byte	0x17
 14263 19d1 76       		.byte	0x76
 14264 19d2 00       		.sleb128 0
 14265 19d3 94       		.byte	0x94
 14266 19d4 02       		.byte	0x2
 14267 19d5 0A       		.byte	0xa
 14268 19d6 FFFF     		.2byte	0xffff
 14269 19d8 1A       		.byte	0x1a
 14270 19d9 40       		.byte	0x40
 14271 19da 24       		.byte	0x24
 14272 19db 76       		.byte	0x76
 14273 19dc 00       		.sleb128 0
 14274 19dd 94       		.byte	0x94
 14275 19de 02       		.byte	0x2
 14276 19df 0A       		.byte	0xa
 14277 19e0 FFFF     		.2byte	0xffff
 14278 19e2 1A       		.byte	0x1a
 14279 19e3 21       		.byte	0x21
 14280 19e4 78       		.byte	0x78
 14281 19e5 00       		.sleb128 0
 14282 19e6 1A       		.byte	0x1a
 14283 19e7 9F       		.byte	0x9f
 14284 19e8 00000000 		.4byte	0
 14285 19ec 00000000 		.4byte	0
 14286              	.LLST128:
 14287 19f0 4E020000 		.4byte	.LVL351
 14288 19f4 50020000 		.4byte	.LVL352
ARM GAS  C:\Users\haske\AppData\Local\Temp\ccydbpJh.s 			page 288


 14289 19f8 0100     		.2byte	0x1
 14290 19fa 50       		.byte	0x50
 14291 19fb 50020000 		.4byte	.LVL352
 14292 19ff 52020000 		.4byte	.LVL353
 14293 1a03 1300     		.2byte	0x13
 14294 1a05 74       		.byte	0x74
 14295 1a06 00       		.sleb128 0
 14296 1a07 0A       		.byte	0xa
 14297 1a08 FFFF     		.2byte	0xffff
 14298 1a0a 1A       		.byte	0x1a
 14299 1a0b 40       		.byte	0x40
 14300 1a0c 24       		.byte	0x24
 14301 1a0d 74       		.byte	0x74
 14302 1a0e 00       		.sleb128 0
 14303 1a0f 0A       		.byte	0xa
 14304 1a10 FFFF     		.2byte	0xffff
 14305 1a12 1A       		.byte	0x1a
 14306 1a13 21       		.byte	0x21
 14307 1a14 71       		.byte	0x71
 14308 1a15 00       		.sleb128 0
 14309 1a16 1A       		.byte	0x1a
 14310 1a17 9F       		.byte	0x9f
 14311 1a18 52020000 		.4byte	.LVL353
 14312 1a1c 68020000 		.4byte	.LVL356
 14313 1a20 1300     		.2byte	0x13
 14314 1a22 74       		.byte	0x74
 14315 1a23 00       		.sleb128 0
 14316 1a24 0A       		.byte	0xa
 14317 1a25 FFFF     		.2byte	0xffff
 14318 1a27 1A       		.byte	0x1a
 14319 1a28 40       		.byte	0x40
 14320 1a29 24       		.byte	0x24
 14321 1a2a 74       		.byte	0x74
 14322 1a2b 00       		.sleb128 0
 14323 1a2c 0A       		.byte	0xa
 14324 1a2d FFFF     		.2byte	0xffff
 14325 1a2f 1A       		.byte	0x1a
 14326 1a30 21       		.byte	0x21
 14327 1a31 78       		.byte	0x78
 14328 1a32 00       		.sleb128 0
 14329 1a33 1A       		.byte	0x1a
 14330 1a34 9F       		.byte	0x9f
 14331 1a35 00000000 		.4byte	0
 14332 1a39 00000000 		.4byte	0
 14333              	.LLST129:
 14334 1a3d 64020000 		.4byte	.LVL355
 14335 1a41 68020000 		.4byte	.LVL356
 14336 1a45 0100     		.2byte	0x1
 14337 1a47 53       		.byte	0x53
 14338 1a48 00000000 		.4byte	0
 14339 1a4c 00000000 		.4byte	0
 14340              	.LLST130:
 14341 1a50 74020000 		.4byte	.LVL358
 14342 1a54 76020000 		.4byte	.LVL359
 14343 1a58 0100     		.2byte	0x1
 14344 1a5a 50       		.byte	0x50
 14345 1a5b 7A020000 		.4byte	.LVL360
ARM GAS  C:\Users\haske\AppData\Local\Temp\ccydbpJh.s 			page 289


 14346 1a5f A6020000 		.4byte	.LVL367
 14347 1a63 0100     		.2byte	0x1
 14348 1a65 59       		.byte	0x59
 14349 1a66 00000000 		.4byte	0
 14350 1a6a 00000000 		.4byte	0
 14351              	.LLST131:
 14352 1a6e 86020000 		.4byte	.LVL361
 14353 1a72 9E020000 		.4byte	.LVL365
 14354 1a76 0100     		.2byte	0x1
 14355 1a78 53       		.byte	0x53
 14356 1a79 9E020000 		.4byte	.LVL365
 14357 1a7d A6020000 		.4byte	.LVL367
 14358 1a81 1700     		.2byte	0x17
 14359 1a83 76       		.byte	0x76
 14360 1a84 02       		.sleb128 2
 14361 1a85 94       		.byte	0x94
 14362 1a86 02       		.byte	0x2
 14363 1a87 0A       		.byte	0xa
 14364 1a88 FFFF     		.2byte	0xffff
 14365 1a8a 1A       		.byte	0x1a
 14366 1a8b 40       		.byte	0x40
 14367 1a8c 24       		.byte	0x24
 14368 1a8d 76       		.byte	0x76
 14369 1a8e 02       		.sleb128 2
 14370 1a8f 94       		.byte	0x94
 14371 1a90 02       		.byte	0x2
 14372 1a91 0A       		.byte	0xa
 14373 1a92 FFFF     		.2byte	0xffff
 14374 1a94 1A       		.byte	0x1a
 14375 1a95 21       		.byte	0x21
 14376 1a96 78       		.byte	0x78
 14377 1a97 00       		.sleb128 0
 14378 1a98 1A       		.byte	0x1a
 14379 1a99 9F       		.byte	0x9f
 14380 1a9a 00000000 		.4byte	0
 14381 1a9e 00000000 		.4byte	0
 14382              	.LLST132:
 14383 1aa2 90020000 		.4byte	.LVL362
 14384 1aa6 92020000 		.4byte	.LVL363
 14385 1aaa 0100     		.2byte	0x1
 14386 1aac 50       		.byte	0x50
 14387 1aad 92020000 		.4byte	.LVL363
 14388 1ab1 94020000 		.4byte	.LVL364
 14389 1ab5 1300     		.2byte	0x13
 14390 1ab7 74       		.byte	0x74
 14391 1ab8 00       		.sleb128 0
 14392 1ab9 0A       		.byte	0xa
 14393 1aba FFFF     		.2byte	0xffff
 14394 1abc 1A       		.byte	0x1a
 14395 1abd 40       		.byte	0x40
 14396 1abe 24       		.byte	0x24
 14397 1abf 74       		.byte	0x74
 14398 1ac0 00       		.sleb128 0
 14399 1ac1 0A       		.byte	0xa
 14400 1ac2 FFFF     		.2byte	0xffff
 14401 1ac4 1A       		.byte	0x1a
 14402 1ac5 21       		.byte	0x21
ARM GAS  C:\Users\haske\AppData\Local\Temp\ccydbpJh.s 			page 290


 14403 1ac6 72       		.byte	0x72
 14404 1ac7 00       		.sleb128 0
 14405 1ac8 1A       		.byte	0x1a
 14406 1ac9 9F       		.byte	0x9f
 14407 1aca 94020000 		.4byte	.LVL364
 14408 1ace A6020000 		.4byte	.LVL367
 14409 1ad2 1300     		.2byte	0x13
 14410 1ad4 74       		.byte	0x74
 14411 1ad5 00       		.sleb128 0
 14412 1ad6 0A       		.byte	0xa
 14413 1ad7 FFFF     		.2byte	0xffff
 14414 1ad9 1A       		.byte	0x1a
 14415 1ada 40       		.byte	0x40
 14416 1adb 24       		.byte	0x24
 14417 1adc 74       		.byte	0x74
 14418 1add 00       		.sleb128 0
 14419 1ade 0A       		.byte	0xa
 14420 1adf FFFF     		.2byte	0xffff
 14421 1ae1 1A       		.byte	0x1a
 14422 1ae2 21       		.byte	0x21
 14423 1ae3 78       		.byte	0x78
 14424 1ae4 00       		.sleb128 0
 14425 1ae5 1A       		.byte	0x1a
 14426 1ae6 9F       		.byte	0x9f
 14427 1ae7 00000000 		.4byte	0
 14428 1aeb 00000000 		.4byte	0
 14429              	.LLST133:
 14430 1aef A2020000 		.4byte	.LVL366
 14431 1af3 A6020000 		.4byte	.LVL367
 14432 1af7 0100     		.2byte	0x1
 14433 1af9 53       		.byte	0x53
 14434 1afa 00000000 		.4byte	0
 14435 1afe 00000000 		.4byte	0
 14436              	.LLST134:
 14437 1b02 B2020000 		.4byte	.LVL369
 14438 1b06 B4020000 		.4byte	.LVL370
 14439 1b0a 0100     		.2byte	0x1
 14440 1b0c 50       		.byte	0x50
 14441 1b0d B8020000 		.4byte	.LVL371
 14442 1b11 E4020000 		.4byte	.LVL378
 14443 1b15 0100     		.2byte	0x1
 14444 1b17 59       		.byte	0x59
 14445 1b18 00000000 		.4byte	0
 14446 1b1c 00000000 		.4byte	0
 14447              	.LLST135:
 14448 1b20 C4020000 		.4byte	.LVL372
 14449 1b24 DC020000 		.4byte	.LVL376
 14450 1b28 0100     		.2byte	0x1
 14451 1b2a 53       		.byte	0x53
 14452 1b2b DC020000 		.4byte	.LVL376
 14453 1b2f E4020000 		.4byte	.LVL378
 14454 1b33 1700     		.2byte	0x17
 14455 1b35 76       		.byte	0x76
 14456 1b36 04       		.sleb128 4
 14457 1b37 94       		.byte	0x94
 14458 1b38 02       		.byte	0x2
 14459 1b39 0A       		.byte	0xa
ARM GAS  C:\Users\haske\AppData\Local\Temp\ccydbpJh.s 			page 291


 14460 1b3a FFFF     		.2byte	0xffff
 14461 1b3c 1A       		.byte	0x1a
 14462 1b3d 40       		.byte	0x40
 14463 1b3e 24       		.byte	0x24
 14464 1b3f 76       		.byte	0x76
 14465 1b40 04       		.sleb128 4
 14466 1b41 94       		.byte	0x94
 14467 1b42 02       		.byte	0x2
 14468 1b43 0A       		.byte	0xa
 14469 1b44 FFFF     		.2byte	0xffff
 14470 1b46 1A       		.byte	0x1a
 14471 1b47 21       		.byte	0x21
 14472 1b48 78       		.byte	0x78
 14473 1b49 00       		.sleb128 0
 14474 1b4a 1A       		.byte	0x1a
 14475 1b4b 9F       		.byte	0x9f
 14476 1b4c 00000000 		.4byte	0
 14477 1b50 00000000 		.4byte	0
 14478              	.LLST136:
 14479 1b54 CE020000 		.4byte	.LVL373
 14480 1b58 D0020000 		.4byte	.LVL374
 14481 1b5c 0100     		.2byte	0x1
 14482 1b5e 50       		.byte	0x50
 14483 1b5f D0020000 		.4byte	.LVL374
 14484 1b63 D2020000 		.4byte	.LVL375
 14485 1b67 1300     		.2byte	0x13
 14486 1b69 74       		.byte	0x74
 14487 1b6a 00       		.sleb128 0
 14488 1b6b 0A       		.byte	0xa
 14489 1b6c FFFF     		.2byte	0xffff
 14490 1b6e 1A       		.byte	0x1a
 14491 1b6f 40       		.byte	0x40
 14492 1b70 24       		.byte	0x24
 14493 1b71 74       		.byte	0x74
 14494 1b72 00       		.sleb128 0
 14495 1b73 0A       		.byte	0xa
 14496 1b74 FFFF     		.2byte	0xffff
 14497 1b76 1A       		.byte	0x1a
 14498 1b77 21       		.byte	0x21
 14499 1b78 72       		.byte	0x72
 14500 1b79 00       		.sleb128 0
 14501 1b7a 1A       		.byte	0x1a
 14502 1b7b 9F       		.byte	0x9f
 14503 1b7c D2020000 		.4byte	.LVL375
 14504 1b80 E4020000 		.4byte	.LVL378
 14505 1b84 1300     		.2byte	0x13
 14506 1b86 74       		.byte	0x74
 14507 1b87 00       		.sleb128 0
 14508 1b88 0A       		.byte	0xa
 14509 1b89 FFFF     		.2byte	0xffff
 14510 1b8b 1A       		.byte	0x1a
 14511 1b8c 40       		.byte	0x40
 14512 1b8d 24       		.byte	0x24
 14513 1b8e 74       		.byte	0x74
 14514 1b8f 00       		.sleb128 0
 14515 1b90 0A       		.byte	0xa
 14516 1b91 FFFF     		.2byte	0xffff
ARM GAS  C:\Users\haske\AppData\Local\Temp\ccydbpJh.s 			page 292


 14517 1b93 1A       		.byte	0x1a
 14518 1b94 21       		.byte	0x21
 14519 1b95 78       		.byte	0x78
 14520 1b96 00       		.sleb128 0
 14521 1b97 1A       		.byte	0x1a
 14522 1b98 9F       		.byte	0x9f
 14523 1b99 00000000 		.4byte	0
 14524 1b9d 00000000 		.4byte	0
 14525              	.LLST137:
 14526 1ba1 E0020000 		.4byte	.LVL377
 14527 1ba5 E4020000 		.4byte	.LVL378
 14528 1ba9 0100     		.2byte	0x1
 14529 1bab 53       		.byte	0x53
 14530 1bac 00000000 		.4byte	0
 14531 1bb0 00000000 		.4byte	0
 14532              	.LLST138:
 14533 1bb4 F0020000 		.4byte	.LVL380
 14534 1bb8 F2020000 		.4byte	.LVL381
 14535 1bbc 0100     		.2byte	0x1
 14536 1bbe 50       		.byte	0x50
 14537 1bbf F6020000 		.4byte	.LVL382
 14538 1bc3 22030000 		.4byte	.LVL389
 14539 1bc7 0100     		.2byte	0x1
 14540 1bc9 59       		.byte	0x59
 14541 1bca 00000000 		.4byte	0
 14542 1bce 00000000 		.4byte	0
 14543              	.LLST139:
 14544 1bd2 02030000 		.4byte	.LVL383
 14545 1bd6 1A030000 		.4byte	.LVL387
 14546 1bda 0100     		.2byte	0x1
 14547 1bdc 53       		.byte	0x53
 14548 1bdd 1A030000 		.4byte	.LVL387
 14549 1be1 22030000 		.4byte	.LVL389
 14550 1be5 1700     		.2byte	0x17
 14551 1be7 76       		.byte	0x76
 14552 1be8 06       		.sleb128 6
 14553 1be9 94       		.byte	0x94
 14554 1bea 02       		.byte	0x2
 14555 1beb 0A       		.byte	0xa
 14556 1bec FFFF     		.2byte	0xffff
 14557 1bee 1A       		.byte	0x1a
 14558 1bef 40       		.byte	0x40
 14559 1bf0 24       		.byte	0x24
 14560 1bf1 76       		.byte	0x76
 14561 1bf2 06       		.sleb128 6
 14562 1bf3 94       		.byte	0x94
 14563 1bf4 02       		.byte	0x2
 14564 1bf5 0A       		.byte	0xa
 14565 1bf6 FFFF     		.2byte	0xffff
 14566 1bf8 1A       		.byte	0x1a
 14567 1bf9 21       		.byte	0x21
 14568 1bfa 78       		.byte	0x78
 14569 1bfb 00       		.sleb128 0
 14570 1bfc 1A       		.byte	0x1a
 14571 1bfd 9F       		.byte	0x9f
 14572 1bfe 00000000 		.4byte	0
 14573 1c02 00000000 		.4byte	0
ARM GAS  C:\Users\haske\AppData\Local\Temp\ccydbpJh.s 			page 293


 14574              	.LLST140:
 14575 1c06 0C030000 		.4byte	.LVL384
 14576 1c0a 0E030000 		.4byte	.LVL385
 14577 1c0e 0100     		.2byte	0x1
 14578 1c10 50       		.byte	0x50
 14579 1c11 0E030000 		.4byte	.LVL385
 14580 1c15 10030000 		.4byte	.LVL386
 14581 1c19 1300     		.2byte	0x13
 14582 1c1b 74       		.byte	0x74
 14583 1c1c 00       		.sleb128 0
 14584 1c1d 0A       		.byte	0xa
 14585 1c1e FFFF     		.2byte	0xffff
 14586 1c20 1A       		.byte	0x1a
 14587 1c21 40       		.byte	0x40
 14588 1c22 24       		.byte	0x24
 14589 1c23 74       		.byte	0x74
 14590 1c24 00       		.sleb128 0
 14591 1c25 0A       		.byte	0xa
 14592 1c26 FFFF     		.2byte	0xffff
 14593 1c28 1A       		.byte	0x1a
 14594 1c29 21       		.byte	0x21
 14595 1c2a 72       		.byte	0x72
 14596 1c2b 00       		.sleb128 0
 14597 1c2c 1A       		.byte	0x1a
 14598 1c2d 9F       		.byte	0x9f
 14599 1c2e 10030000 		.4byte	.LVL386
 14600 1c32 22030000 		.4byte	.LVL389
 14601 1c36 1300     		.2byte	0x13
 14602 1c38 74       		.byte	0x74
 14603 1c39 00       		.sleb128 0
 14604 1c3a 0A       		.byte	0xa
 14605 1c3b FFFF     		.2byte	0xffff
 14606 1c3d 1A       		.byte	0x1a
 14607 1c3e 40       		.byte	0x40
 14608 1c3f 24       		.byte	0x24
 14609 1c40 74       		.byte	0x74
 14610 1c41 00       		.sleb128 0
 14611 1c42 0A       		.byte	0xa
 14612 1c43 FFFF     		.2byte	0xffff
 14613 1c45 1A       		.byte	0x1a
 14614 1c46 21       		.byte	0x21
 14615 1c47 78       		.byte	0x78
 14616 1c48 00       		.sleb128 0
 14617 1c49 1A       		.byte	0x1a
 14618 1c4a 9F       		.byte	0x9f
 14619 1c4b 00000000 		.4byte	0
 14620 1c4f 00000000 		.4byte	0
 14621              	.LLST141:
 14622 1c53 1E030000 		.4byte	.LVL388
 14623 1c57 22030000 		.4byte	.LVL389
 14624 1c5b 0100     		.2byte	0x1
 14625 1c5d 53       		.byte	0x53
 14626 1c5e 00000000 		.4byte	0
 14627 1c62 00000000 		.4byte	0
 14628              	.LLST142:
 14629 1c66 62030000 		.4byte	.LVL397
 14630 1c6a 64030000 		.4byte	.LVL398
ARM GAS  C:\Users\haske\AppData\Local\Temp\ccydbpJh.s 			page 294


 14631 1c6e 0100     		.2byte	0x1
 14632 1c70 52       		.byte	0x52
 14633 1c71 66030000 		.4byte	.LVL399
 14634 1c75 84030000 		.4byte	.LVL405
 14635 1c79 0100     		.2byte	0x1
 14636 1c7b 52       		.byte	0x52
 14637 1c7c 84030000 		.4byte	.LVL405
 14638 1c80 90030000 		.4byte	.LVL408
 14639 1c84 0C00     		.2byte	0xc
 14640 1c86 75       		.byte	0x75
 14641 1c87 00       		.sleb128 0
 14642 1c88 94       		.byte	0x94
 14643 1c89 01       		.byte	0x1
 14644 1c8a 08       		.byte	0x8
 14645 1c8b FF       		.byte	0xff
 14646 1c8c 1A       		.byte	0x1a
 14647 1c8d 23       		.byte	0x23
 14648 1c8e 04       		.uleb128 0x4
 14649 1c8f 33       		.byte	0x33
 14650 1c90 25       		.byte	0x25
 14651 1c91 9F       		.byte	0x9f
 14652 1c92 00000000 		.4byte	0
 14653 1c96 00000000 		.4byte	0
 14654              	.LLST143:
 14655 1c9a 70030000 		.4byte	.LVL401
 14656 1c9e 8A030000 		.4byte	.LVL406
 14657 1ca2 0100     		.2byte	0x1
 14658 1ca4 53       		.byte	0x53
 14659 1ca5 8A030000 		.4byte	.LVL406
 14660 1ca9 90030000 		.4byte	.LVL408
 14661 1cad 1700     		.2byte	0x17
 14662 1caf 76       		.byte	0x76
 14663 1cb0 00       		.sleb128 0
 14664 1cb1 94       		.byte	0x94
 14665 1cb2 02       		.byte	0x2
 14666 1cb3 0A       		.byte	0xa
 14667 1cb4 FFFF     		.2byte	0xffff
 14668 1cb6 1A       		.byte	0x1a
 14669 1cb7 40       		.byte	0x40
 14670 1cb8 24       		.byte	0x24
 14671 1cb9 76       		.byte	0x76
 14672 1cba 00       		.sleb128 0
 14673 1cbb 94       		.byte	0x94
 14674 1cbc 02       		.byte	0x2
 14675 1cbd 0A       		.byte	0xa
 14676 1cbe FFFF     		.2byte	0xffff
 14677 1cc0 1A       		.byte	0x1a
 14678 1cc1 21       		.byte	0x21
 14679 1cc2 74       		.byte	0x74
 14680 1cc3 00       		.sleb128 0
 14681 1cc4 1A       		.byte	0x1a
 14682 1cc5 9F       		.byte	0x9f
 14683 1cc6 00000000 		.4byte	0
 14684 1cca 00000000 		.4byte	0
 14685              	.LLST144:
 14686 1cce 7E030000 		.4byte	.LVL402
 14687 1cd2 80030000 		.4byte	.LVL403
ARM GAS  C:\Users\haske\AppData\Local\Temp\ccydbpJh.s 			page 295


 14688 1cd6 0100     		.2byte	0x1
 14689 1cd8 50       		.byte	0x50
 14690 1cd9 80030000 		.4byte	.LVL403
 14691 1cdd 82030000 		.4byte	.LVL404
 14692 1ce1 0B00     		.2byte	0xb
 14693 1ce3 71       		.byte	0x71
 14694 1ce4 00       		.sleb128 0
 14695 1ce5 40       		.byte	0x40
 14696 1ce6 24       		.byte	0x24
 14697 1ce7 71       		.byte	0x71
 14698 1ce8 00       		.sleb128 0
 14699 1ce9 21       		.byte	0x21
 14700 1cea 74       		.byte	0x74
 14701 1ceb 00       		.sleb128 0
 14702 1cec 1A       		.byte	0x1a
 14703 1ced 9F       		.byte	0x9f
 14704 1cee 82030000 		.4byte	.LVL404
 14705 1cf2 90030000 		.4byte	.LVL408
 14706 1cf6 0B00     		.2byte	0xb
 14707 1cf8 7B       		.byte	0x7b
 14708 1cf9 00       		.sleb128 0
 14709 1cfa 40       		.byte	0x40
 14710 1cfb 24       		.byte	0x24
 14711 1cfc 7B       		.byte	0x7b
 14712 1cfd 00       		.sleb128 0
 14713 1cfe 21       		.byte	0x21
 14714 1cff 74       		.byte	0x74
 14715 1d00 00       		.sleb128 0
 14716 1d01 1A       		.byte	0x1a
 14717 1d02 9F       		.byte	0x9f
 14718 1d03 00000000 		.4byte	0
 14719 1d07 00000000 		.4byte	0
 14720              	.LLST145:
 14721 1d0b 8C030000 		.4byte	.LVL407
 14722 1d0f 90030000 		.4byte	.LVL408
 14723 1d13 0100     		.2byte	0x1
 14724 1d15 53       		.byte	0x53
 14725 1d16 00000000 		.4byte	0
 14726 1d1a 00000000 		.4byte	0
 14727              	.LLST146:
 14728 1d1e E0030000 		.4byte	.LVL423
 14729 1d22 28040000 		.4byte	.LVL433
 14730 1d26 0100     		.2byte	0x1
 14731 1d28 59       		.byte	0x59
 14732 1d29 4E040000 		.4byte	.LVL441
 14733 1d2d 56040000 		.4byte	.LVL443
 14734 1d31 0100     		.2byte	0x1
 14735 1d33 59       		.byte	0x59
 14736 1d34 56040000 		.4byte	.LVL443
 14737 1d38 58040000 		.4byte	.LVL444
 14738 1d3c 0100     		.2byte	0x1
 14739 1d3e 51       		.byte	0x51
 14740 1d3f 58040000 		.4byte	.LVL444
 14741 1d43 86040000 		.4byte	.LVL455
 14742 1d47 0100     		.2byte	0x1
 14743 1d49 59       		.byte	0x59
 14744 1d4a 00000000 		.4byte	0
ARM GAS  C:\Users\haske\AppData\Local\Temp\ccydbpJh.s 			page 296


 14745 1d4e 00000000 		.4byte	0
 14746              	.LLST147:
 14747 1d52 E0030000 		.4byte	.LVL423
 14748 1d56 14040000 		.4byte	.LVL427
 14749 1d5a 0100     		.2byte	0x1
 14750 1d5c 53       		.byte	0x53
 14751 1d5d 18040000 		.4byte	.LVL428
 14752 1d61 22040000 		.4byte	.LVL432
 14753 1d65 0100     		.2byte	0x1
 14754 1d67 53       		.byte	0x53
 14755 1d68 56040000 		.4byte	.LVL443
 14756 1d6c 98040000 		.4byte	.LFE162
 14757 1d70 0100     		.2byte	0x1
 14758 1d72 53       		.byte	0x53
 14759 1d73 00000000 		.4byte	0
 14760 1d77 00000000 		.4byte	0
 14761              	.LLST148:
 14762 1d7b BC030000 		.4byte	.LVL416
 14763 1d7f E0030000 		.4byte	.LVL423
 14764 1d83 0200     		.2byte	0x2
 14765 1d85 30       		.byte	0x30
 14766 1d86 9F       		.byte	0x9f
 14767 1d87 E0030000 		.4byte	.LVL423
 14768 1d8b 1C040000 		.4byte	.LVL430
 14769 1d8f 0100     		.2byte	0x1
 14770 1d91 52       		.byte	0x52
 14771 1d92 50040000 		.4byte	.LVL442
 14772 1d96 84040000 		.4byte	.LVL452
 14773 1d9a 0100     		.2byte	0x1
 14774 1d9c 52       		.byte	0x52
 14775 1d9d 00000000 		.4byte	0
 14776 1da1 00000000 		.4byte	0
 14777              	.LLST149:
 14778 1da5 C0030000 		.4byte	.LVL417
 14779 1da9 E0030000 		.4byte	.LVL423
 14780 1dad 0200     		.2byte	0x2
 14781 1daf 30       		.byte	0x30
 14782 1db0 9F       		.byte	0x9f
 14783 1db1 E0030000 		.4byte	.LVL423
 14784 1db5 F0030000 		.4byte	.LVL424
 14785 1db9 0100     		.2byte	0x1
 14786 1dbb 57       		.byte	0x57
 14787 1dbc F8030000 		.4byte	.LVL425
 14788 1dc0 84040000 		.4byte	.LVL452
 14789 1dc4 0100     		.2byte	0x1
 14790 1dc6 57       		.byte	0x57
 14791 1dc7 00000000 		.4byte	0
 14792 1dcb 00000000 		.4byte	0
 14793              	.LLST150:
 14794 1dcf 1A040000 		.4byte	.LVL429
 14795 1dd3 1E040000 		.4byte	.LVL431
 14796 1dd7 0100     		.2byte	0x1
 14797 1dd9 57       		.byte	0x57
 14798 1dda 1E040000 		.4byte	.LVL431
 14799 1dde 40040000 		.4byte	.LVL438
 14800 1de2 0100     		.2byte	0x1
 14801 1de4 52       		.byte	0x52
ARM GAS  C:\Users\haske\AppData\Local\Temp\ccydbpJh.s 			page 297


 14802 1de5 40040000 		.4byte	.LVL438
 14803 1de9 4E040000 		.4byte	.LVL441
 14804 1ded 0500     		.2byte	0x5
 14805 1def 77       		.byte	0x77
 14806 1df0 04       		.sleb128 4
 14807 1df1 33       		.byte	0x33
 14808 1df2 25       		.byte	0x25
 14809 1df3 9F       		.byte	0x9f
 14810 1df4 00000000 		.4byte	0
 14811 1df8 00000000 		.4byte	0
 14812              	.LLST151:
 14813 1dfc 2A040000 		.4byte	.LVL434
 14814 1e00 46040000 		.4byte	.LVL439
 14815 1e04 0100     		.2byte	0x1
 14816 1e06 53       		.byte	0x53
 14817 1e07 46040000 		.4byte	.LVL439
 14818 1e0b 4E040000 		.4byte	.LVL441
 14819 1e0f 2100     		.2byte	0x21
 14820 1e11 70       		.byte	0x70
 14821 1e12 00       		.sleb128 0
 14822 1e13 31       		.byte	0x31
 14823 1e14 24       		.byte	0x24
 14824 1e15 76       		.byte	0x76
 14825 1e16 00       		.sleb128 0
 14826 1e17 22       		.byte	0x22
 14827 1e18 94       		.byte	0x94
 14828 1e19 02       		.byte	0x2
 14829 1e1a 0A       		.byte	0xa
 14830 1e1b FFFF     		.2byte	0xffff
 14831 1e1d 1A       		.byte	0x1a
 14832 1e1e 40       		.byte	0x40
 14833 1e1f 24       		.byte	0x24
 14834 1e20 70       		.byte	0x70
 14835 1e21 00       		.sleb128 0
 14836 1e22 31       		.byte	0x31
 14837 1e23 24       		.byte	0x24
 14838 1e24 76       		.byte	0x76
 14839 1e25 00       		.sleb128 0
 14840 1e26 22       		.byte	0x22
 14841 1e27 94       		.byte	0x94
 14842 1e28 02       		.byte	0x2
 14843 1e29 0A       		.byte	0xa
 14844 1e2a FFFF     		.2byte	0xffff
 14845 1e2c 1A       		.byte	0x1a
 14846 1e2d 21       		.byte	0x21
 14847 1e2e 79       		.byte	0x79
 14848 1e2f 00       		.sleb128 0
 14849 1e30 1A       		.byte	0x1a
 14850 1e31 9F       		.byte	0x9f
 14851 1e32 00000000 		.4byte	0
 14852 1e36 00000000 		.4byte	0
 14853              	.LLST152:
 14854 1e3a 3A040000 		.4byte	.LVL435
 14855 1e3e 3C040000 		.4byte	.LVL436
 14856 1e42 0100     		.2byte	0x1
 14857 1e44 51       		.byte	0x51
 14858 1e45 3C040000 		.4byte	.LVL436
ARM GAS  C:\Users\haske\AppData\Local\Temp\ccydbpJh.s 			page 298


 14859 1e49 3E040000 		.4byte	.LVL437
 14860 1e4d 0B00     		.2byte	0xb
 14861 1e4f 7B       		.byte	0x7b
 14862 1e50 00       		.sleb128 0
 14863 1e51 40       		.byte	0x40
 14864 1e52 24       		.byte	0x24
 14865 1e53 7B       		.byte	0x7b
 14866 1e54 00       		.sleb128 0
 14867 1e55 21       		.byte	0x21
 14868 1e56 74       		.byte	0x74
 14869 1e57 00       		.sleb128 0
 14870 1e58 1A       		.byte	0x1a
 14871 1e59 9F       		.byte	0x9f
 14872 1e5a 3E040000 		.4byte	.LVL437
 14873 1e5e 4E040000 		.4byte	.LVL441
 14874 1e62 0B00     		.2byte	0xb
 14875 1e64 7B       		.byte	0x7b
 14876 1e65 00       		.sleb128 0
 14877 1e66 40       		.byte	0x40
 14878 1e67 24       		.byte	0x24
 14879 1e68 7B       		.byte	0x7b
 14880 1e69 00       		.sleb128 0
 14881 1e6a 21       		.byte	0x21
 14882 1e6b 79       		.byte	0x79
 14883 1e6c 00       		.sleb128 0
 14884 1e6d 1A       		.byte	0x1a
 14885 1e6e 9F       		.byte	0x9f
 14886 1e6f 00000000 		.4byte	0
 14887 1e73 00000000 		.4byte	0
 14888              	.LLST153:
 14889 1e77 4A040000 		.4byte	.LVL440
 14890 1e7b 4E040000 		.4byte	.LVL441
 14891 1e7f 0100     		.2byte	0x1
 14892 1e81 53       		.byte	0x53
 14893 1e82 00000000 		.4byte	0
 14894 1e86 00000000 		.4byte	0
 14895              	.LLST154:
 14896 1e8a 00000000 		.4byte	.LVL456
 14897 1e8e 66000000 		.4byte	.LVL470
 14898 1e92 0100     		.2byte	0x1
 14899 1e94 50       		.byte	0x50
 14900 1e95 66000000 		.4byte	.LVL470
 14901 1e99 82000000 		.4byte	.LVL475
 14902 1e9d 0100     		.2byte	0x1
 14903 1e9f 55       		.byte	0x55
 14904 1ea0 82000000 		.4byte	.LVL475
 14905 1ea4 90000000 		.4byte	.LVL477
 14906 1ea8 0100     		.2byte	0x1
 14907 1eaa 50       		.byte	0x50
 14908 1eab 90000000 		.4byte	.LVL477
 14909 1eaf 96000000 		.4byte	.LVL478
 14910 1eb3 0100     		.2byte	0x1
 14911 1eb5 55       		.byte	0x55
 14912 1eb6 96000000 		.4byte	.LVL478
 14913 1eba D6000000 		.4byte	.LVL489
 14914 1ebe 0100     		.2byte	0x1
 14915 1ec0 5C       		.byte	0x5c
ARM GAS  C:\Users\haske\AppData\Local\Temp\ccydbpJh.s 			page 299


 14916 1ec1 D6000000 		.4byte	.LVL489
 14917 1ec5 E0000000 		.4byte	.LVL491
 14918 1ec9 0100     		.2byte	0x1
 14919 1ecb 55       		.byte	0x55
 14920 1ecc E0000000 		.4byte	.LVL491
 14921 1ed0 E8000000 		.4byte	.LVL492
 14922 1ed4 0100     		.2byte	0x1
 14923 1ed6 5C       		.byte	0x5c
 14924 1ed7 E8000000 		.4byte	.LVL492
 14925 1edb 0C010000 		.4byte	.LVL498
 14926 1edf 0100     		.2byte	0x1
 14927 1ee1 55       		.byte	0x55
 14928 1ee2 0C010000 		.4byte	.LVL498
 14929 1ee6 22010000 		.4byte	.LVL502
 14930 1eea 0100     		.2byte	0x1
 14931 1eec 50       		.byte	0x50
 14932 1eed 22010000 		.4byte	.LVL502
 14933 1ef1 86010000 		.4byte	.LVL516
 14934 1ef5 0200     		.2byte	0x2
 14935 1ef7 91       		.byte	0x91
 14936 1ef8 40       		.sleb128 -64
 14937 1ef9 86010000 		.4byte	.LVL516
 14938 1efd 90010000 		.4byte	.LVL517
 14939 1f01 0100     		.2byte	0x1
 14940 1f03 55       		.byte	0x55
 14941 1f04 90010000 		.4byte	.LVL517
 14942 1f08 A6010000 		.4byte	.LVL518
 14943 1f0c 0200     		.2byte	0x2
 14944 1f0e 91       		.byte	0x91
 14945 1f0f 40       		.sleb128 -64
 14946 1f10 3C030000 		.4byte	.LVL566
 14947 1f14 46030000 		.4byte	.LVL567
 14948 1f18 0200     		.2byte	0x2
 14949 1f1a 91       		.byte	0x91
 14950 1f1b 40       		.sleb128 -64
 14951 1f1c CA030000 		.4byte	.LVL582
 14952 1f20 F0030000 		.4byte	.LVL588
 14953 1f24 0100     		.2byte	0x1
 14954 1f26 55       		.byte	0x55
 14955 1f27 F0030000 		.4byte	.LVL588
 14956 1f2b 50040000 		.4byte	.LVL603
 14957 1f2f 0300     		.2byte	0x3
 14958 1f31 91       		.byte	0x91
 14959 1f32 BC7F     		.sleb128 -68
 14960 1f34 50040000 		.4byte	.LVL603
 14961 1f38 5A040000 		.4byte	.LVL604
 14962 1f3c 0100     		.2byte	0x1
 14963 1f3e 5C       		.byte	0x5c
 14964 1f3f 5A040000 		.4byte	.LVL604
 14965 1f43 6C040000 		.4byte	.LVL605
 14966 1f47 0300     		.2byte	0x3
 14967 1f49 91       		.byte	0x91
 14968 1f4a BC7F     		.sleb128 -68
 14969 1f4c 6C040000 		.4byte	.LVL605
 14970 1f50 80040000 		.4byte	.LVL609
 14971 1f54 0100     		.2byte	0x1
 14972 1f56 5C       		.byte	0x5c
ARM GAS  C:\Users\haske\AppData\Local\Temp\ccydbpJh.s 			page 300


 14973 1f57 80040000 		.4byte	.LVL609
 14974 1f5b 94040000 		.4byte	.LVL612
 14975 1f5f 0100     		.2byte	0x1
 14976 1f61 50       		.byte	0x50
 14977 1f62 94040000 		.4byte	.LVL612
 14978 1f66 9A040000 		.4byte	.LVL613
 14979 1f6a 0100     		.2byte	0x1
 14980 1f6c 5C       		.byte	0x5c
 14981 1f6d 00000000 		.4byte	0
 14982 1f71 00000000 		.4byte	0
 14983              	.LLST155:
 14984 1f75 00000000 		.4byte	.LVL456
 14985 1f79 46000000 		.4byte	.LVL466
 14986 1f7d 0100     		.2byte	0x1
 14987 1f7f 51       		.byte	0x51
 14988 1f80 46000000 		.4byte	.LVL466
 14989 1f84 AC040000 		.4byte	.LFE165
 14990 1f88 0400     		.2byte	0x4
 14991 1f8a F3       		.byte	0xf3
 14992 1f8b 01       		.uleb128 0x1
 14993 1f8c 51       		.byte	0x51
 14994 1f8d 9F       		.byte	0x9f
 14995 1f8e 00000000 		.4byte	0
 14996 1f92 00000000 		.4byte	0
 14997              	.LLST156:
 14998 1f96 00000000 		.4byte	.LVL456
 14999 1f9a 1A000000 		.4byte	.LVL458
 15000 1f9e 0100     		.2byte	0x1
 15001 1fa0 52       		.byte	0x52
 15002 1fa1 1A000000 		.4byte	.LVL458
 15003 1fa5 AC040000 		.4byte	.LFE165
 15004 1fa9 0400     		.2byte	0x4
 15005 1fab F3       		.byte	0xf3
 15006 1fac 01       		.uleb128 0x1
 15007 1fad 52       		.byte	0x52
 15008 1fae 9F       		.byte	0x9f
 15009 1faf 00000000 		.4byte	0
 15010 1fb3 00000000 		.4byte	0
 15011              	.LLST157:
 15012 1fb7 00000000 		.4byte	.LVL456
 15013 1fbb 16000000 		.4byte	.LVL457
 15014 1fbf 0100     		.2byte	0x1
 15015 1fc1 53       		.byte	0x53
 15016 1fc2 16000000 		.4byte	.LVL457
 15017 1fc6 96000000 		.4byte	.LVL478
 15018 1fca 0100     		.2byte	0x1
 15019 1fcc 56       		.byte	0x56
 15020 1fcd 96000000 		.4byte	.LVL478
 15021 1fd1 00010000 		.4byte	.LVL494
 15022 1fd5 0300     		.2byte	0x3
 15023 1fd7 91       		.byte	0x91
 15024 1fd8 BC7F     		.sleb128 -68
 15025 1fda 00010000 		.4byte	.LVL494
 15026 1fde 02010000 		.4byte	.LVL495
 15027 1fe2 0100     		.2byte	0x1
 15028 1fe4 53       		.byte	0x53
 15029 1fe5 02010000 		.4byte	.LVL495
ARM GAS  C:\Users\haske\AppData\Local\Temp\ccydbpJh.s 			page 301


 15030 1fe9 04010000 		.4byte	.LVL496
 15031 1fed 0100     		.2byte	0x1
 15032 1fef 5B       		.byte	0x5b
 15033 1ff0 04010000 		.4byte	.LVL496
 15034 1ff4 0C010000 		.4byte	.LVL498
 15035 1ff8 0300     		.2byte	0x3
 15036 1ffa 91       		.byte	0x91
 15037 1ffb BC7F     		.sleb128 -68
 15038 1ffd 0C010000 		.4byte	.LVL498
 15039 2001 22010000 		.4byte	.LVL502
 15040 2005 0100     		.2byte	0x1
 15041 2007 56       		.byte	0x56
 15042 2008 22010000 		.4byte	.LVL502
 15043 200c 86010000 		.4byte	.LVL516
 15044 2010 0200     		.2byte	0x2
 15045 2012 91       		.byte	0x91
 15046 2013 44       		.sleb128 -60
 15047 2014 86010000 		.4byte	.LVL516
 15048 2018 90010000 		.4byte	.LVL517
 15049 201c 0100     		.2byte	0x1
 15050 201e 56       		.byte	0x56
 15051 201f 90010000 		.4byte	.LVL517
 15052 2023 D0030000 		.4byte	.LVL583
 15053 2027 0200     		.2byte	0x2
 15054 2029 91       		.byte	0x91
 15055 202a 44       		.sleb128 -60
 15056 202b D0030000 		.4byte	.LVL583
 15057 202f F0030000 		.4byte	.LVL588
 15058 2033 0100     		.2byte	0x1
 15059 2035 56       		.byte	0x56
 15060 2036 F0030000 		.4byte	.LVL588
 15061 203a 50040000 		.4byte	.LVL603
 15062 203e 0200     		.2byte	0x2
 15063 2040 91       		.byte	0x91
 15064 2041 40       		.sleb128 -64
 15065 2042 50040000 		.4byte	.LVL603
 15066 2046 5A040000 		.4byte	.LVL604
 15067 204a 0100     		.2byte	0x1
 15068 204c 58       		.byte	0x58
 15069 204d 5A040000 		.4byte	.LVL604
 15070 2051 72040000 		.4byte	.LVL606
 15071 2055 0200     		.2byte	0x2
 15072 2057 91       		.byte	0x91
 15073 2058 40       		.sleb128 -64
 15074 2059 72040000 		.4byte	.LVL606
 15075 205d 80040000 		.4byte	.LVL609
 15076 2061 0100     		.2byte	0x1
 15077 2063 58       		.byte	0x58
 15078 2064 80040000 		.4byte	.LVL609
 15079 2068 90040000 		.4byte	.LVL611
 15080 206c 0100     		.2byte	0x1
 15081 206e 56       		.byte	0x56
 15082 206f 90040000 		.4byte	.LVL611
 15083 2073 9A040000 		.4byte	.LVL613
 15084 2077 0100     		.2byte	0x1
 15085 2079 58       		.byte	0x58
 15086 207a 00000000 		.4byte	0
ARM GAS  C:\Users\haske\AppData\Local\Temp\ccydbpJh.s 			page 302


 15087 207e 00000000 		.4byte	0
 15088              	.LLST158:
 15089 2082 00000000 		.4byte	.LVL456
 15090 2086 16000000 		.4byte	.LVL457
 15091 208a 0200     		.2byte	0x2
 15092 208c 91       		.byte	0x91
 15093 208d 00       		.sleb128 0
 15094 208e 16000000 		.4byte	.LVL457
 15095 2092 1A000000 		.4byte	.LVL458
 15096 2096 0200     		.2byte	0x2
 15097 2098 73       		.byte	0x73
 15098 2099 00       		.sleb128 0
 15099 209a 1A000000 		.4byte	.LVL458
 15100 209e AC040000 		.4byte	.LFE165
 15101 20a2 0200     		.2byte	0x2
 15102 20a4 91       		.byte	0x91
 15103 20a5 00       		.sleb128 0
 15104 20a6 00000000 		.4byte	0
 15105 20aa 00000000 		.4byte	0
 15106              	.LLST159:
 15107 20ae 00000000 		.4byte	.LVL456
 15108 20b2 16000000 		.4byte	.LVL457
 15109 20b6 0200     		.2byte	0x2
 15110 20b8 91       		.byte	0x91
 15111 20b9 04       		.sleb128 4
 15112 20ba 16000000 		.4byte	.LVL457
 15113 20be 1A000000 		.4byte	.LVL458
 15114 20c2 0200     		.2byte	0x2
 15115 20c4 73       		.byte	0x73
 15116 20c5 04       		.sleb128 4
 15117 20c6 1A000000 		.4byte	.LVL458
 15118 20ca 1E000000 		.4byte	.LVL459
 15119 20ce 0200     		.2byte	0x2
 15120 20d0 91       		.byte	0x91
 15121 20d1 04       		.sleb128 4
 15122 20d2 1E000000 		.4byte	.LVL459
 15123 20d6 20000000 		.4byte	.LVL460
 15124 20da 0200     		.2byte	0x2
 15125 20dc 73       		.byte	0x73
 15126 20dd 00       		.sleb128 0
 15127 20de 20000000 		.4byte	.LVL460
 15128 20e2 AC040000 		.4byte	.LFE165
 15129 20e6 0200     		.2byte	0x2
 15130 20e8 91       		.byte	0x91
 15131 20e9 04       		.sleb128 4
 15132 20ea 00000000 		.4byte	0
 15133 20ee 00000000 		.4byte	0
 15134              	.LLST160:
 15135 20f2 00000000 		.4byte	.LVL456
 15136 20f6 16000000 		.4byte	.LVL457
 15137 20fa 0200     		.2byte	0x2
 15138 20fc 91       		.byte	0x91
 15139 20fd 08       		.sleb128 8
 15140 20fe 16000000 		.4byte	.LVL457
 15141 2102 1A000000 		.4byte	.LVL458
 15142 2106 0200     		.2byte	0x2
 15143 2108 73       		.byte	0x73
ARM GAS  C:\Users\haske\AppData\Local\Temp\ccydbpJh.s 			page 303


 15144 2109 08       		.sleb128 8
 15145 210a 1A000000 		.4byte	.LVL458
 15146 210e 20010000 		.4byte	.LVL501
 15147 2112 0200     		.2byte	0x2
 15148 2114 91       		.byte	0x91
 15149 2115 08       		.sleb128 8
 15150 2116 22010000 		.4byte	.LVL502
 15151 211a DA030000 		.4byte	.LVL585
 15152 211e 0200     		.2byte	0x2
 15153 2120 91       		.byte	0x91
 15154 2121 08       		.sleb128 8
 15155 2122 DA030000 		.4byte	.LVL585
 15156 2126 DC030000 		.4byte	.LVL586
 15157 212a 0100     		.2byte	0x1
 15158 212c 53       		.byte	0x53
 15159 212d DC030000 		.4byte	.LVL586
 15160 2131 F0030000 		.4byte	.LVL588
 15161 2135 0200     		.2byte	0x2
 15162 2137 91       		.byte	0x91
 15163 2138 08       		.sleb128 8
 15164 2139 F0030000 		.4byte	.LVL588
 15165 213d 80040000 		.4byte	.LVL609
 15166 2141 0100     		.2byte	0x1
 15167 2143 55       		.byte	0x55
 15168 2144 80040000 		.4byte	.LVL609
 15169 2148 8C040000 		.4byte	.LVL610
 15170 214c 0200     		.2byte	0x2
 15171 214e 91       		.byte	0x91
 15172 214f 08       		.sleb128 8
 15173 2150 94040000 		.4byte	.LVL612
 15174 2154 9A040000 		.4byte	.LVL613
 15175 2158 0100     		.2byte	0x1
 15176 215a 55       		.byte	0x55
 15177 215b 00000000 		.4byte	0
 15178 215f 00000000 		.4byte	0
 15179              	.LLST161:
 15180 2163 00000000 		.4byte	.LVL456
 15181 2167 16000000 		.4byte	.LVL457
 15182 216b 0200     		.2byte	0x2
 15183 216d 91       		.byte	0x91
 15184 216e 0C       		.sleb128 12
 15185 216f 16000000 		.4byte	.LVL457
 15186 2173 1A000000 		.4byte	.LVL458
 15187 2177 0200     		.2byte	0x2
 15188 2179 73       		.byte	0x73
 15189 217a 0C       		.sleb128 12
 15190 217b 1A000000 		.4byte	.LVL458
 15191 217f 28000000 		.4byte	.LVL461
 15192 2183 0200     		.2byte	0x2
 15193 2185 91       		.byte	0x91
 15194 2186 0C       		.sleb128 12
 15195 2187 28000000 		.4byte	.LVL461
 15196 218b 2C000000 		.4byte	.LVL462
 15197 218f 0200     		.2byte	0x2
 15198 2191 73       		.byte	0x73
 15199 2192 00       		.sleb128 0
 15200 2193 2C000000 		.4byte	.LVL462
ARM GAS  C:\Users\haske\AppData\Local\Temp\ccydbpJh.s 			page 304


 15201 2197 AC040000 		.4byte	.LFE165
 15202 219b 0200     		.2byte	0x2
 15203 219d 91       		.byte	0x91
 15204 219e 0C       		.sleb128 12
 15205 219f 00000000 		.4byte	0
 15206 21a3 00000000 		.4byte	0
 15207              	.LLST162:
 15208 21a7 3E000000 		.4byte	.LVL465
 15209 21ab 66000000 		.4byte	.LVL470
 15210 21af 0100     		.2byte	0x1
 15211 21b1 54       		.byte	0x54
 15212 21b2 66000000 		.4byte	.LVL470
 15213 21b6 82000000 		.4byte	.LVL475
 15214 21ba 0100     		.2byte	0x1
 15215 21bc 58       		.byte	0x58
 15216 21bd 82000000 		.4byte	.LVL475
 15217 21c1 88000000 		.4byte	.LVL476
 15218 21c5 0100     		.2byte	0x1
 15219 21c7 54       		.byte	0x54
 15220 21c8 88000000 		.4byte	.LVL476
 15221 21cc 90000000 		.4byte	.LVL477
 15222 21d0 0100     		.2byte	0x1
 15223 21d2 5C       		.byte	0x5c
 15224 21d3 90000000 		.4byte	.LVL477
 15225 21d7 96000000 		.4byte	.LVL478
 15226 21db 0100     		.2byte	0x1
 15227 21dd 58       		.byte	0x58
 15228 21de 96000000 		.4byte	.LVL478
 15229 21e2 D6000000 		.4byte	.LVL489
 15230 21e6 0100     		.2byte	0x1
 15231 21e8 50       		.byte	0x50
 15232 21e9 D6000000 		.4byte	.LVL489
 15233 21ed DC000000 		.4byte	.LVL490
 15234 21f1 0100     		.2byte	0x1
 15235 21f3 5C       		.byte	0x5c
 15236 21f4 DC000000 		.4byte	.LVL490
 15237 21f8 06010000 		.4byte	.LVL497
 15238 21fc 0100     		.2byte	0x1
 15239 21fe 50       		.byte	0x50
 15240 21ff 06010000 		.4byte	.LVL497
 15241 2203 0C010000 		.4byte	.LVL498
 15242 2207 0100     		.2byte	0x1
 15243 2209 5C       		.byte	0x5c
 15244 220a 0C010000 		.4byte	.LVL498
 15245 220e 22010000 		.4byte	.LVL502
 15246 2212 0100     		.2byte	0x1
 15247 2214 54       		.byte	0x54
 15248 2215 22010000 		.4byte	.LVL502
 15249 2219 86010000 		.4byte	.LVL516
 15250 221d 0100     		.2byte	0x1
 15251 221f 52       		.byte	0x52
 15252 2220 86010000 		.4byte	.LVL516
 15253 2224 90010000 		.4byte	.LVL517
 15254 2228 0100     		.2byte	0x1
 15255 222a 5C       		.byte	0x5c
 15256 222b 90010000 		.4byte	.LVL517
 15257 222f A6010000 		.4byte	.LVL518
ARM GAS  C:\Users\haske\AppData\Local\Temp\ccydbpJh.s 			page 305


 15258 2233 0100     		.2byte	0x1
 15259 2235 52       		.byte	0x52
 15260 2236 A6010000 		.4byte	.LVL518
 15261 223a 3C030000 		.4byte	.LVL566
 15262 223e 0100     		.2byte	0x1
 15263 2240 5C       		.byte	0x5c
 15264 2241 3C030000 		.4byte	.LVL566
 15265 2245 46030000 		.4byte	.LVL567
 15266 2249 0100     		.2byte	0x1
 15267 224b 52       		.byte	0x52
 15268 224c 46030000 		.4byte	.LVL567
 15269 2250 58030000 		.4byte	.LVL568
 15270 2254 0100     		.2byte	0x1
 15271 2256 5C       		.byte	0x5c
 15272 2257 58030000 		.4byte	.LVL568
 15273 225b D4030000 		.4byte	.LVL584
 15274 225f 0100     		.2byte	0x1
 15275 2261 52       		.byte	0x52
 15276 2262 D4030000 		.4byte	.LVL584
 15277 2266 F0030000 		.4byte	.LVL588
 15278 226a 0100     		.2byte	0x1
 15279 226c 5C       		.byte	0x5c
 15280 226d F0030000 		.4byte	.LVL588
 15281 2271 80040000 		.4byte	.LVL609
 15282 2275 0100     		.2byte	0x1
 15283 2277 56       		.byte	0x56
 15284 2278 80040000 		.4byte	.LVL609
 15285 227c 94040000 		.4byte	.LVL612
 15286 2280 0100     		.2byte	0x1
 15287 2282 54       		.byte	0x54
 15288 2283 94040000 		.4byte	.LVL612
 15289 2287 9A040000 		.4byte	.LVL613
 15290 228b 0100     		.2byte	0x1
 15291 228d 56       		.byte	0x56
 15292 228e 00000000 		.4byte	0
 15293 2292 00000000 		.4byte	0
 15294              	.LLST163:
 15295 2296 4E000000 		.4byte	.LVL468
 15296 229a 50000000 		.4byte	.LVL469
 15297 229e 0100     		.2byte	0x1
 15298 22a0 53       		.byte	0x53
 15299 22a1 50000000 		.4byte	.LVL469
 15300 22a5 96000000 		.4byte	.LVL478
 15301 22a9 0200     		.2byte	0x2
 15302 22ab 91       		.byte	0x91
 15303 22ac 48       		.sleb128 -56
 15304 22ad 96000000 		.4byte	.LVL478
 15305 22b1 0C010000 		.4byte	.LVL498
 15306 22b5 0100     		.2byte	0x1
 15307 22b7 59       		.byte	0x59
 15308 22b8 0C010000 		.4byte	.LVL498
 15309 22bc AC040000 		.4byte	.LFE165
 15310 22c0 0200     		.2byte	0x2
 15311 22c2 91       		.byte	0x91
 15312 22c3 48       		.sleb128 -56
 15313 22c4 00000000 		.4byte	0
 15314 22c8 00000000 		.4byte	0
ARM GAS  C:\Users\haske\AppData\Local\Temp\ccydbpJh.s 			page 306


 15315              	.LLST164:
 15316 22cc 96000000 		.4byte	.LVL478
 15317 22d0 D6000000 		.4byte	.LVL489
 15318 22d4 0100     		.2byte	0x1
 15319 22d6 54       		.byte	0x54
 15320 22d7 E0000000 		.4byte	.LVL491
 15321 22db 06010000 		.4byte	.LVL497
 15322 22df 0100     		.2byte	0x1
 15323 22e1 54       		.byte	0x54
 15324 22e2 22010000 		.4byte	.LVL502
 15325 22e6 86010000 		.4byte	.LVL516
 15326 22ea 0100     		.2byte	0x1
 15327 22ec 54       		.byte	0x54
 15328 22ed 90010000 		.4byte	.LVL517
 15329 22f1 E0030000 		.4byte	.LVL587
 15330 22f5 0100     		.2byte	0x1
 15331 22f7 54       		.byte	0x54
 15332 22f8 F0030000 		.4byte	.LVL588
 15333 22fc F8030000 		.4byte	.LVL589
 15334 2300 0100     		.2byte	0x1
 15335 2302 54       		.byte	0x54
 15336 2303 F8030000 		.4byte	.LVL589
 15337 2307 0A040000 		.4byte	.LVL591
 15338 230b 0100     		.2byte	0x1
 15339 230d 52       		.byte	0x52
 15340 230e 0A040000 		.4byte	.LVL591
 15341 2312 50040000 		.4byte	.LVL603
 15342 2316 0100     		.2byte	0x1
 15343 2318 54       		.byte	0x54
 15344 2319 5A040000 		.4byte	.LVL604
 15345 231d 80040000 		.4byte	.LVL609
 15346 2321 0100     		.2byte	0x1
 15347 2323 54       		.byte	0x54
 15348 2324 00000000 		.4byte	0
 15349 2328 00000000 		.4byte	0
 15350              	.LLST165:
 15351 232c 66000000 		.4byte	.LVL470
 15352 2330 82000000 		.4byte	.LVL475
 15353 2334 0100     		.2byte	0x1
 15354 2336 57       		.byte	0x57
 15355 2337 90000000 		.4byte	.LVL477
 15356 233b 96000000 		.4byte	.LVL478
 15357 233f 0100     		.2byte	0x1
 15358 2341 57       		.byte	0x57
 15359 2342 96000000 		.4byte	.LVL478
 15360 2346 0C010000 		.4byte	.LVL498
 15361 234a 0100     		.2byte	0x1
 15362 234c 58       		.byte	0x58
 15363 234d 18010000 		.4byte	.LVL499
 15364 2351 22010000 		.4byte	.LVL502
 15365 2355 0200     		.2byte	0x2
 15366 2357 30       		.byte	0x30
 15367 2358 9F       		.byte	0x9f
 15368 2359 22010000 		.4byte	.LVL502
 15369 235d F0030000 		.4byte	.LVL588
 15370 2361 0100     		.2byte	0x1
 15371 2363 5A       		.byte	0x5a
ARM GAS  C:\Users\haske\AppData\Local\Temp\ccydbpJh.s 			page 307


 15372 2364 F0030000 		.4byte	.LVL588
 15373 2368 80040000 		.4byte	.LVL609
 15374 236c 0100     		.2byte	0x1
 15375 236e 59       		.byte	0x59
 15376 236f 94040000 		.4byte	.LVL612
 15377 2373 9A040000 		.4byte	.LVL613
 15378 2377 0100     		.2byte	0x1
 15379 2379 59       		.byte	0x59
 15380 237a 00000000 		.4byte	0
 15381 237e 00000000 		.4byte	0
 15382              	.LLST166:
 15383 2382 2E000000 		.4byte	.LVL463
 15384 2386 3C000000 		.4byte	.LVL464
 15385 238a 0100     		.2byte	0x1
 15386 238c 51       		.byte	0x51
 15387 238d 00000000 		.4byte	0
 15388 2391 00000000 		.4byte	0
 15389              	.LLST167:
 15390 2395 3E000000 		.4byte	.LVL465
 15391 2399 46000000 		.4byte	.LVL466
 15392 239d 0100     		.2byte	0x1
 15393 239f 51       		.byte	0x51
 15394 23a0 46000000 		.4byte	.LVL466
 15395 23a4 4A000000 		.4byte	.LVL467
 15396 23a8 0400     		.2byte	0x4
 15397 23aa F3       		.byte	0xf3
 15398 23ab 01       		.uleb128 0x1
 15399 23ac 51       		.byte	0x51
 15400 23ad 9F       		.byte	0x9f
 15401 23ae 00000000 		.4byte	0
 15402 23b2 00000000 		.4byte	0
 15403              	.LLST168:
 15404 23b6 9C000000 		.4byte	.LVL479
 15405 23ba A4000000 		.4byte	.LVL480
 15406 23be 0200     		.2byte	0x2
 15407 23c0 91       		.byte	0x91
 15408 23c1 40       		.sleb128 -64
 15409 23c2 A4000000 		.4byte	.LVL480
 15410 23c6 D0000000 		.4byte	.LVL487
 15411 23ca 0100     		.2byte	0x1
 15412 23cc 5A       		.byte	0x5a
 15413 23cd 00000000 		.4byte	0
 15414 23d1 00000000 		.4byte	0
 15415              	.LLST169:
 15416 23d5 AE000000 		.4byte	.LVL481
 15417 23d9 CA000000 		.4byte	.LVL485
 15418 23dd 0100     		.2byte	0x1
 15419 23df 53       		.byte	0x53
 15420 23e0 CA000000 		.4byte	.LVL485
 15421 23e4 D0000000 		.4byte	.LVL487
 15422 23e8 1700     		.2byte	0x17
 15423 23ea 71       		.byte	0x71
 15424 23eb 00       		.sleb128 0
 15425 23ec 94       		.byte	0x94
 15426 23ed 02       		.byte	0x2
 15427 23ee 0A       		.byte	0xa
 15428 23ef FFFF     		.2byte	0xffff
ARM GAS  C:\Users\haske\AppData\Local\Temp\ccydbpJh.s 			page 308


 15429 23f1 1A       		.byte	0x1a
 15430 23f2 40       		.byte	0x40
 15431 23f3 24       		.byte	0x24
 15432 23f4 71       		.byte	0x71
 15433 23f5 00       		.sleb128 0
 15434 23f6 94       		.byte	0x94
 15435 23f7 02       		.byte	0x2
 15436 23f8 0A       		.byte	0xa
 15437 23f9 FFFF     		.2byte	0xffff
 15438 23fb 1A       		.byte	0x1a
 15439 23fc 21       		.byte	0x21
 15440 23fd 75       		.byte	0x75
 15441 23fe 00       		.sleb128 0
 15442 23ff 1A       		.byte	0x1a
 15443 2400 9F       		.byte	0x9f
 15444 2401 00000000 		.4byte	0
 15445 2405 00000000 		.4byte	0
 15446              	.LLST170:
 15447 2409 B8000000 		.4byte	.LVL482
 15448 240d BA000000 		.4byte	.LVL483
 15449 2411 0100     		.2byte	0x1
 15450 2413 52       		.byte	0x52
 15451 2414 BA000000 		.4byte	.LVL483
 15452 2418 BC000000 		.4byte	.LVL484
 15453 241c 0B00     		.2byte	0xb
 15454 241e 76       		.byte	0x76
 15455 241f 00       		.sleb128 0
 15456 2420 40       		.byte	0x40
 15457 2421 24       		.byte	0x24
 15458 2422 76       		.byte	0x76
 15459 2423 00       		.sleb128 0
 15460 2424 21       		.byte	0x21
 15461 2425 75       		.byte	0x75
 15462 2426 00       		.sleb128 0
 15463 2427 1A       		.byte	0x1a
 15464 2428 9F       		.byte	0x9f
 15465 2429 BC000000 		.4byte	.LVL484
 15466 242d D0000000 		.4byte	.LVL487
 15467 2431 2500     		.2byte	0x25
 15468 2433 74       		.byte	0x74
 15469 2434 00       		.sleb128 0
 15470 2435 31       		.byte	0x31
 15471 2436 24       		.byte	0x24
 15472 2437 91       		.byte	0x91
 15473 2438 BC7F     		.sleb128 -68
 15474 243a 06       		.byte	0x6
 15475 243b 22       		.byte	0x22
 15476 243c 94       		.byte	0x94
 15477 243d 02       		.byte	0x2
 15478 243e 0A       		.byte	0xa
 15479 243f FFFF     		.2byte	0xffff
 15480 2441 1A       		.byte	0x1a
 15481 2442 40       		.byte	0x40
 15482 2443 24       		.byte	0x24
 15483 2444 74       		.byte	0x74
 15484 2445 00       		.sleb128 0
 15485 2446 31       		.byte	0x31
ARM GAS  C:\Users\haske\AppData\Local\Temp\ccydbpJh.s 			page 309


 15486 2447 24       		.byte	0x24
 15487 2448 91       		.byte	0x91
 15488 2449 BC7F     		.sleb128 -68
 15489 244b 06       		.byte	0x6
 15490 244c 22       		.byte	0x22
 15491 244d 94       		.byte	0x94
 15492 244e 02       		.byte	0x2
 15493 244f 0A       		.byte	0xa
 15494 2450 FFFF     		.2byte	0xffff
 15495 2452 1A       		.byte	0x1a
 15496 2453 21       		.byte	0x21
 15497 2454 75       		.byte	0x75
 15498 2455 00       		.sleb128 0
 15499 2456 1A       		.byte	0x1a
 15500 2457 9F       		.byte	0x9f
 15501 2458 00000000 		.4byte	0
 15502 245c 00000000 		.4byte	0
 15503              	.LLST171:
 15504 2460 CC000000 		.4byte	.LVL486
 15505 2464 D0000000 		.4byte	.LVL487
 15506 2468 0100     		.2byte	0x1
 15507 246a 53       		.byte	0x53
 15508 246b 00000000 		.4byte	0
 15509 246f 00000000 		.4byte	0
 15510              	.LLST172:
 15511 2473 18010000 		.4byte	.LVL499
 15512 2477 1A010000 		.4byte	.LVL500
 15513 247b 0100     		.2byte	0x1
 15514 247d 53       		.byte	0x53
 15515 247e 1A010000 		.4byte	.LVL500
 15516 2482 22010000 		.4byte	.LVL502
 15517 2486 0100     		.2byte	0x1
 15518 2488 59       		.byte	0x59
 15519 2489 22010000 		.4byte	.LVL502
 15520 248d 86010000 		.4byte	.LVL516
 15521 2491 0300     		.2byte	0x3
 15522 2493 72       		.byte	0x72
 15523 2494 7C       		.sleb128 -4
 15524 2495 9F       		.byte	0x9f
 15525 2496 86010000 		.4byte	.LVL516
 15526 249a 90010000 		.4byte	.LVL517
 15527 249e 0300     		.2byte	0x3
 15528 24a0 7C       		.byte	0x7c
 15529 24a1 7C       		.sleb128 -4
 15530 24a2 9F       		.byte	0x9f
 15531 24a3 90010000 		.4byte	.LVL517
 15532 24a7 A6010000 		.4byte	.LVL518
 15533 24ab 0300     		.2byte	0x3
 15534 24ad 72       		.byte	0x72
 15535 24ae 7C       		.sleb128 -4
 15536 24af 9F       		.byte	0x9f
 15537 24b0 A6010000 		.4byte	.LVL518
 15538 24b4 3C030000 		.4byte	.LVL566
 15539 24b8 0300     		.2byte	0x3
 15540 24ba 7C       		.byte	0x7c
 15541 24bb 7C       		.sleb128 -4
 15542 24bc 9F       		.byte	0x9f
ARM GAS  C:\Users\haske\AppData\Local\Temp\ccydbpJh.s 			page 310


 15543 24bd 3C030000 		.4byte	.LVL566
 15544 24c1 46030000 		.4byte	.LVL567
 15545 24c5 0300     		.2byte	0x3
 15546 24c7 72       		.byte	0x72
 15547 24c8 7C       		.sleb128 -4
 15548 24c9 9F       		.byte	0x9f
 15549 24ca 46030000 		.4byte	.LVL567
 15550 24ce 58030000 		.4byte	.LVL568
 15551 24d2 0300     		.2byte	0x3
 15552 24d4 7C       		.byte	0x7c
 15553 24d5 7C       		.sleb128 -4
 15554 24d6 9F       		.byte	0x9f
 15555 24d7 58030000 		.4byte	.LVL568
 15556 24db D4030000 		.4byte	.LVL584
 15557 24df 0300     		.2byte	0x3
 15558 24e1 72       		.byte	0x72
 15559 24e2 7C       		.sleb128 -4
 15560 24e3 9F       		.byte	0x9f
 15561 24e4 D4030000 		.4byte	.LVL584
 15562 24e8 F0030000 		.4byte	.LVL588
 15563 24ec 0300     		.2byte	0x3
 15564 24ee 7C       		.byte	0x7c
 15565 24ef 7C       		.sleb128 -4
 15566 24f0 9F       		.byte	0x9f
 15567 24f1 00000000 		.4byte	0
 15568 24f5 00000000 		.4byte	0
 15569              	.LLST173:
 15570 24f9 22010000 		.4byte	.LVL502
 15571 24fd 86010000 		.4byte	.LVL516
 15572 2501 0100     		.2byte	0x1
 15573 2503 57       		.byte	0x57
 15574 2504 90010000 		.4byte	.LVL517
 15575 2508 A6010000 		.4byte	.LVL518
 15576 250c 0100     		.2byte	0x1
 15577 250e 57       		.byte	0x57
 15578 250f D2010000 		.4byte	.LVL519
 15579 2513 28020000 		.4byte	.LVL530
 15580 2517 0100     		.2byte	0x1
 15581 2519 57       		.byte	0x57
 15582 251a 28020000 		.4byte	.LVL530
 15583 251e 82020000 		.4byte	.LVL541
 15584 2522 0300     		.2byte	0x3
 15585 2524 77       		.byte	0x77
 15586 2525 01       		.sleb128 1
 15587 2526 9F       		.byte	0x9f
 15588 2527 82020000 		.4byte	.LVL541
 15589 252b DC020000 		.4byte	.LVL552
 15590 252f 0300     		.2byte	0x3
 15591 2531 77       		.byte	0x77
 15592 2532 02       		.sleb128 2
 15593 2533 9F       		.byte	0x9f
 15594 2534 DC020000 		.4byte	.LVL552
 15595 2538 36030000 		.4byte	.LVL563
 15596 253c 0300     		.2byte	0x3
 15597 253e 77       		.byte	0x77
 15598 253f 03       		.sleb128 3
 15599 2540 9F       		.byte	0x9f
ARM GAS  C:\Users\haske\AppData\Local\Temp\ccydbpJh.s 			page 311


 15600 2541 3C030000 		.4byte	.LVL566
 15601 2545 46030000 		.4byte	.LVL567
 15602 2549 0100     		.2byte	0x1
 15603 254b 57       		.byte	0x57
 15604 254c 58030000 		.4byte	.LVL568
 15605 2550 E0030000 		.4byte	.LVL587
 15606 2554 0100     		.2byte	0x1
 15607 2556 57       		.byte	0x57
 15608 2557 00000000 		.4byte	0
 15609 255b 00000000 		.4byte	0
 15610              	.LLST174:
 15611 255f A6010000 		.4byte	.LVL518
 15612 2563 3C030000 		.4byte	.LVL566
 15613 2567 0100     		.2byte	0x1
 15614 2569 57       		.byte	0x57
 15615 256a 46030000 		.4byte	.LVL567
 15616 256e 58030000 		.4byte	.LVL568
 15617 2572 0100     		.2byte	0x1
 15618 2574 57       		.byte	0x57
 15619 2575 00000000 		.4byte	0
 15620 2579 00000000 		.4byte	0
 15621              	.LLST175:
 15622 257d 3E010000 		.4byte	.LVL503
 15623 2581 40010000 		.4byte	.LVL504
 15624 2585 0100     		.2byte	0x1
 15625 2587 53       		.byte	0x53
 15626 2588 44010000 		.4byte	.LVL505
 15627 258c 7E010000 		.4byte	.LVL513
 15628 2590 0100     		.2byte	0x1
 15629 2592 58       		.byte	0x58
 15630 2593 00000000 		.4byte	0
 15631 2597 00000000 		.4byte	0
 15632              	.LLST176:
 15633 259b 54010000 		.4byte	.LVL506
 15634 259f 76010000 		.4byte	.LVL511
 15635 25a3 0100     		.2byte	0x1
 15636 25a5 53       		.byte	0x53
 15637 25a6 76010000 		.4byte	.LVL511
 15638 25aa 7E010000 		.4byte	.LVL513
 15639 25ae 1700     		.2byte	0x17
 15640 25b0 71       		.byte	0x71
 15641 25b1 00       		.sleb128 0
 15642 25b2 94       		.byte	0x94
 15643 25b3 02       		.byte	0x2
 15644 25b4 0A       		.byte	0xa
 15645 25b5 FFFF     		.2byte	0xffff
 15646 25b7 1A       		.byte	0x1a
 15647 25b8 40       		.byte	0x40
 15648 25b9 24       		.byte	0x24
 15649 25ba 71       		.byte	0x71
 15650 25bb 00       		.sleb128 0
 15651 25bc 94       		.byte	0x94
 15652 25bd 02       		.byte	0x2
 15653 25be 0A       		.byte	0xa
 15654 25bf FFFF     		.2byte	0xffff
 15655 25c1 1A       		.byte	0x1a
 15656 25c2 21       		.byte	0x21
ARM GAS  C:\Users\haske\AppData\Local\Temp\ccydbpJh.s 			page 312


 15657 25c3 7C       		.byte	0x7c
 15658 25c4 00       		.sleb128 0
 15659 25c5 1A       		.byte	0x1a
 15660 25c6 9F       		.byte	0x9f
 15661 25c7 00000000 		.4byte	0
 15662 25cb 00000000 		.4byte	0
 15663              	.LLST177:
 15664 25cf 64010000 		.4byte	.LVL507
 15665 25d3 66010000 		.4byte	.LVL508
 15666 25d7 0100     		.2byte	0x1
 15667 25d9 50       		.byte	0x50
 15668 25da 66010000 		.4byte	.LVL508
 15669 25de 68010000 		.4byte	.LVL509
 15670 25e2 0B00     		.2byte	0xb
 15671 25e4 7B       		.byte	0x7b
 15672 25e5 00       		.sleb128 0
 15673 25e6 40       		.byte	0x40
 15674 25e7 24       		.byte	0x24
 15675 25e8 7B       		.byte	0x7b
 15676 25e9 00       		.sleb128 0
 15677 25ea 21       		.byte	0x21
 15678 25eb 75       		.byte	0x75
 15679 25ec 00       		.sleb128 0
 15680 25ed 1A       		.byte	0x1a
 15681 25ee 9F       		.byte	0x9f
 15682 25ef 68010000 		.4byte	.LVL509
 15683 25f3 6A010000 		.4byte	.LVL510
 15684 25f7 0B00     		.2byte	0xb
 15685 25f9 7B       		.byte	0x7b
 15686 25fa 00       		.sleb128 0
 15687 25fb 40       		.byte	0x40
 15688 25fc 24       		.byte	0x24
 15689 25fd 7B       		.byte	0x7b
 15690 25fe 00       		.sleb128 0
 15691 25ff 21       		.byte	0x21
 15692 2600 7C       		.byte	0x7c
 15693 2601 00       		.sleb128 0
 15694 2602 1A       		.byte	0x1a
 15695 2603 9F       		.byte	0x9f
 15696 2604 6A010000 		.4byte	.LVL510
 15697 2608 7E010000 		.4byte	.LVL513
 15698 260c 2300     		.2byte	0x23
 15699 260e 74       		.byte	0x74
 15700 260f 00       		.sleb128 0
 15701 2610 31       		.byte	0x31
 15702 2611 24       		.byte	0x24
 15703 2612 91       		.byte	0x91
 15704 2613 44       		.sleb128 -60
 15705 2614 06       		.byte	0x6
 15706 2615 22       		.byte	0x22
 15707 2616 94       		.byte	0x94
 15708 2617 02       		.byte	0x2
 15709 2618 0A       		.byte	0xa
 15710 2619 FFFF     		.2byte	0xffff
 15711 261b 1A       		.byte	0x1a
 15712 261c 40       		.byte	0x40
 15713 261d 24       		.byte	0x24
ARM GAS  C:\Users\haske\AppData\Local\Temp\ccydbpJh.s 			page 313


 15714 261e 74       		.byte	0x74
 15715 261f 00       		.sleb128 0
 15716 2620 31       		.byte	0x31
 15717 2621 24       		.byte	0x24
 15718 2622 91       		.byte	0x91
 15719 2623 44       		.sleb128 -60
 15720 2624 06       		.byte	0x6
 15721 2625 22       		.byte	0x22
 15722 2626 94       		.byte	0x94
 15723 2627 02       		.byte	0x2
 15724 2628 0A       		.byte	0xa
 15725 2629 FFFF     		.2byte	0xffff
 15726 262b 1A       		.byte	0x1a
 15727 262c 21       		.byte	0x21
 15728 262d 7C       		.byte	0x7c
 15729 262e 00       		.sleb128 0
 15730 262f 1A       		.byte	0x1a
 15731 2630 9F       		.byte	0x9f
 15732 2631 00000000 		.4byte	0
 15733 2635 00000000 		.4byte	0
 15734              	.LLST178:
 15735 2639 7A010000 		.4byte	.LVL512
 15736 263d 7E010000 		.4byte	.LVL513
 15737 2641 0100     		.2byte	0x1
 15738 2643 53       		.byte	0x53
 15739 2644 00000000 		.4byte	0
 15740 2648 00000000 		.4byte	0
 15741              	.LLST179:
 15742 264c E8010000 		.4byte	.LVL520
 15743 2650 EA010000 		.4byte	.LVL521
 15744 2654 0100     		.2byte	0x1
 15745 2656 53       		.byte	0x53
 15746 2657 EE010000 		.4byte	.LVL522
 15747 265b 26020000 		.4byte	.LVL529
 15748 265f 0100     		.2byte	0x1
 15749 2661 59       		.byte	0x59
 15750 2662 00000000 		.4byte	0
 15751 2666 00000000 		.4byte	0
 15752              	.LLST180:
 15753 266a FE010000 		.4byte	.LVL523
 15754 266e 1E020000 		.4byte	.LVL527
 15755 2672 0100     		.2byte	0x1
 15756 2674 53       		.byte	0x53
 15757 2675 1E020000 		.4byte	.LVL527
 15758 2679 26020000 		.4byte	.LVL529
 15759 267d 1700     		.2byte	0x17
 15760 267f 71       		.byte	0x71
 15761 2680 00       		.sleb128 0
 15762 2681 94       		.byte	0x94
 15763 2682 02       		.byte	0x2
 15764 2683 0A       		.byte	0xa
 15765 2684 FFFF     		.2byte	0xffff
 15766 2686 1A       		.byte	0x1a
 15767 2687 40       		.byte	0x40
 15768 2688 24       		.byte	0x24
 15769 2689 71       		.byte	0x71
 15770 268a 00       		.sleb128 0
ARM GAS  C:\Users\haske\AppData\Local\Temp\ccydbpJh.s 			page 314


 15771 268b 94       		.byte	0x94
 15772 268c 02       		.byte	0x2
 15773 268d 0A       		.byte	0xa
 15774 268e FFFF     		.2byte	0xffff
 15775 2690 1A       		.byte	0x1a
 15776 2691 21       		.byte	0x21
 15777 2692 78       		.byte	0x78
 15778 2693 00       		.sleb128 0
 15779 2694 1A       		.byte	0x1a
 15780 2695 9F       		.byte	0x9f
 15781 2696 00000000 		.4byte	0
 15782 269a 00000000 		.4byte	0
 15783              	.LLST181:
 15784 269e 08020000 		.4byte	.LVL524
 15785 26a2 0A020000 		.4byte	.LVL525
 15786 26a6 0100     		.2byte	0x1
 15787 26a8 50       		.byte	0x50
 15788 26a9 0A020000 		.4byte	.LVL525
 15789 26ad 0E020000 		.4byte	.LVL526
 15790 26b1 2100     		.2byte	0x21
 15791 26b3 74       		.byte	0x74
 15792 26b4 00       		.sleb128 0
 15793 26b5 31       		.byte	0x31
 15794 26b6 24       		.byte	0x24
 15795 26b7 76       		.byte	0x76
 15796 26b8 00       		.sleb128 0
 15797 26b9 22       		.byte	0x22
 15798 26ba 94       		.byte	0x94
 15799 26bb 02       		.byte	0x2
 15800 26bc 0A       		.byte	0xa
 15801 26bd FFFF     		.2byte	0xffff
 15802 26bf 1A       		.byte	0x1a
 15803 26c0 40       		.byte	0x40
 15804 26c1 24       		.byte	0x24
 15805 26c2 74       		.byte	0x74
 15806 26c3 00       		.sleb128 0
 15807 26c4 31       		.byte	0x31
 15808 26c5 24       		.byte	0x24
 15809 26c6 76       		.byte	0x76
 15810 26c7 00       		.sleb128 0
 15811 26c8 22       		.byte	0x22
 15812 26c9 94       		.byte	0x94
 15813 26ca 02       		.byte	0x2
 15814 26cb 0A       		.byte	0xa
 15815 26cc FFFF     		.2byte	0xffff
 15816 26ce 1A       		.byte	0x1a
 15817 26cf 21       		.byte	0x21
 15818 26d0 72       		.byte	0x72
 15819 26d1 00       		.sleb128 0
 15820 26d2 1A       		.byte	0x1a
 15821 26d3 9F       		.byte	0x9f
 15822 26d4 0E020000 		.4byte	.LVL526
 15823 26d8 26020000 		.4byte	.LVL529
 15824 26dc 2100     		.2byte	0x21
 15825 26de 74       		.byte	0x74
 15826 26df 00       		.sleb128 0
 15827 26e0 31       		.byte	0x31
ARM GAS  C:\Users\haske\AppData\Local\Temp\ccydbpJh.s 			page 315


 15828 26e1 24       		.byte	0x24
 15829 26e2 76       		.byte	0x76
 15830 26e3 00       		.sleb128 0
 15831 26e4 22       		.byte	0x22
 15832 26e5 94       		.byte	0x94
 15833 26e6 02       		.byte	0x2
 15834 26e7 0A       		.byte	0xa
 15835 26e8 FFFF     		.2byte	0xffff
 15836 26ea 1A       		.byte	0x1a
 15837 26eb 40       		.byte	0x40
 15838 26ec 24       		.byte	0x24
 15839 26ed 74       		.byte	0x74
 15840 26ee 00       		.sleb128 0
 15841 26ef 31       		.byte	0x31
 15842 26f0 24       		.byte	0x24
 15843 26f1 76       		.byte	0x76
 15844 26f2 00       		.sleb128 0
 15845 26f3 22       		.byte	0x22
 15846 26f4 94       		.byte	0x94
 15847 26f5 02       		.byte	0x2
 15848 26f6 0A       		.byte	0xa
 15849 26f7 FFFF     		.2byte	0xffff
 15850 26f9 1A       		.byte	0x1a
 15851 26fa 21       		.byte	0x21
 15852 26fb 78       		.byte	0x78
 15853 26fc 00       		.sleb128 0
 15854 26fd 1A       		.byte	0x1a
 15855 26fe 9F       		.byte	0x9f
 15856 26ff 00000000 		.4byte	0
 15857 2703 00000000 		.4byte	0
 15858              	.LLST182:
 15859 2707 22020000 		.4byte	.LVL528
 15860 270b 26020000 		.4byte	.LVL529
 15861 270f 0100     		.2byte	0x1
 15862 2711 53       		.byte	0x53
 15863 2712 00000000 		.4byte	0
 15864 2716 00000000 		.4byte	0
 15865              	.LLST183:
 15866 271a 42020000 		.4byte	.LVL531
 15867 271e 44020000 		.4byte	.LVL532
 15868 2722 0100     		.2byte	0x1
 15869 2724 53       		.byte	0x53
 15870 2725 48020000 		.4byte	.LVL533
 15871 2729 80020000 		.4byte	.LVL540
 15872 272d 0100     		.2byte	0x1
 15873 272f 59       		.byte	0x59
 15874 2730 00000000 		.4byte	0
 15875 2734 00000000 		.4byte	0
 15876              	.LLST184:
 15877 2738 58020000 		.4byte	.LVL534
 15878 273c 78020000 		.4byte	.LVL538
 15879 2740 0100     		.2byte	0x1
 15880 2742 53       		.byte	0x53
 15881 2743 78020000 		.4byte	.LVL538
 15882 2747 80020000 		.4byte	.LVL540
 15883 274b 1700     		.2byte	0x17
 15884 274d 71       		.byte	0x71
ARM GAS  C:\Users\haske\AppData\Local\Temp\ccydbpJh.s 			page 316


 15885 274e 00       		.sleb128 0
 15886 274f 94       		.byte	0x94
 15887 2750 02       		.byte	0x2
 15888 2751 0A       		.byte	0xa
 15889 2752 FFFF     		.2byte	0xffff
 15890 2754 1A       		.byte	0x1a
 15891 2755 40       		.byte	0x40
 15892 2756 24       		.byte	0x24
 15893 2757 71       		.byte	0x71
 15894 2758 00       		.sleb128 0
 15895 2759 94       		.byte	0x94
 15896 275a 02       		.byte	0x2
 15897 275b 0A       		.byte	0xa
 15898 275c FFFF     		.2byte	0xffff
 15899 275e 1A       		.byte	0x1a
 15900 275f 21       		.byte	0x21
 15901 2760 78       		.byte	0x78
 15902 2761 00       		.sleb128 0
 15903 2762 1A       		.byte	0x1a
 15904 2763 9F       		.byte	0x9f
 15905 2764 00000000 		.4byte	0
 15906 2768 00000000 		.4byte	0
 15907              	.LLST185:
 15908 276c 62020000 		.4byte	.LVL535
 15909 2770 64020000 		.4byte	.LVL536
 15910 2774 0100     		.2byte	0x1
 15911 2776 50       		.byte	0x50
 15912 2777 64020000 		.4byte	.LVL536
 15913 277b 68020000 		.4byte	.LVL537
 15914 277f 2100     		.2byte	0x21
 15915 2781 74       		.byte	0x74
 15916 2782 01       		.sleb128 1
 15917 2783 31       		.byte	0x31
 15918 2784 24       		.byte	0x24
 15919 2785 76       		.byte	0x76
 15920 2786 00       		.sleb128 0
 15921 2787 22       		.byte	0x22
 15922 2788 94       		.byte	0x94
 15923 2789 02       		.byte	0x2
 15924 278a 0A       		.byte	0xa
 15925 278b FFFF     		.2byte	0xffff
 15926 278d 1A       		.byte	0x1a
 15927 278e 40       		.byte	0x40
 15928 278f 24       		.byte	0x24
 15929 2790 74       		.byte	0x74
 15930 2791 01       		.sleb128 1
 15931 2792 31       		.byte	0x31
 15932 2793 24       		.byte	0x24
 15933 2794 76       		.byte	0x76
 15934 2795 00       		.sleb128 0
 15935 2796 22       		.byte	0x22
 15936 2797 94       		.byte	0x94
 15937 2798 02       		.byte	0x2
 15938 2799 0A       		.byte	0xa
 15939 279a FFFF     		.2byte	0xffff
 15940 279c 1A       		.byte	0x1a
 15941 279d 21       		.byte	0x21
ARM GAS  C:\Users\haske\AppData\Local\Temp\ccydbpJh.s 			page 317


 15942 279e 72       		.byte	0x72
 15943 279f 00       		.sleb128 0
 15944 27a0 1A       		.byte	0x1a
 15945 27a1 9F       		.byte	0x9f
 15946 27a2 68020000 		.4byte	.LVL537
 15947 27a6 80020000 		.4byte	.LVL540
 15948 27aa 2100     		.2byte	0x21
 15949 27ac 74       		.byte	0x74
 15950 27ad 01       		.sleb128 1
 15951 27ae 31       		.byte	0x31
 15952 27af 24       		.byte	0x24
 15953 27b0 76       		.byte	0x76
 15954 27b1 00       		.sleb128 0
 15955 27b2 22       		.byte	0x22
 15956 27b3 94       		.byte	0x94
 15957 27b4 02       		.byte	0x2
 15958 27b5 0A       		.byte	0xa
 15959 27b6 FFFF     		.2byte	0xffff
 15960 27b8 1A       		.byte	0x1a
 15961 27b9 40       		.byte	0x40
 15962 27ba 24       		.byte	0x24
 15963 27bb 74       		.byte	0x74
 15964 27bc 01       		.sleb128 1
 15965 27bd 31       		.byte	0x31
 15966 27be 24       		.byte	0x24
 15967 27bf 76       		.byte	0x76
 15968 27c0 00       		.sleb128 0
 15969 27c1 22       		.byte	0x22
 15970 27c2 94       		.byte	0x94
 15971 27c3 02       		.byte	0x2
 15972 27c4 0A       		.byte	0xa
 15973 27c5 FFFF     		.2byte	0xffff
 15974 27c7 1A       		.byte	0x1a
 15975 27c8 21       		.byte	0x21
 15976 27c9 78       		.byte	0x78
 15977 27ca 00       		.sleb128 0
 15978 27cb 1A       		.byte	0x1a
 15979 27cc 9F       		.byte	0x9f
 15980 27cd 00000000 		.4byte	0
 15981 27d1 00000000 		.4byte	0
 15982              	.LLST186:
 15983 27d5 7C020000 		.4byte	.LVL539
 15984 27d9 80020000 		.4byte	.LVL540
 15985 27dd 0100     		.2byte	0x1
 15986 27df 53       		.byte	0x53
 15987 27e0 00000000 		.4byte	0
 15988 27e4 00000000 		.4byte	0
 15989              	.LLST187:
 15990 27e8 9C020000 		.4byte	.LVL542
 15991 27ec 9E020000 		.4byte	.LVL543
 15992 27f0 0100     		.2byte	0x1
 15993 27f2 53       		.byte	0x53
 15994 27f3 A2020000 		.4byte	.LVL544
 15995 27f7 DA020000 		.4byte	.LVL551
 15996 27fb 0100     		.2byte	0x1
 15997 27fd 59       		.byte	0x59
 15998 27fe 00000000 		.4byte	0
ARM GAS  C:\Users\haske\AppData\Local\Temp\ccydbpJh.s 			page 318


 15999 2802 00000000 		.4byte	0
 16000              	.LLST188:
 16001 2806 B2020000 		.4byte	.LVL545
 16002 280a D2020000 		.4byte	.LVL549
 16003 280e 0100     		.2byte	0x1
 16004 2810 53       		.byte	0x53
 16005 2811 D2020000 		.4byte	.LVL549
 16006 2815 DA020000 		.4byte	.LVL551
 16007 2819 1700     		.2byte	0x17
 16008 281b 71       		.byte	0x71
 16009 281c 00       		.sleb128 0
 16010 281d 94       		.byte	0x94
 16011 281e 02       		.byte	0x2
 16012 281f 0A       		.byte	0xa
 16013 2820 FFFF     		.2byte	0xffff
 16014 2822 1A       		.byte	0x1a
 16015 2823 40       		.byte	0x40
 16016 2824 24       		.byte	0x24
 16017 2825 71       		.byte	0x71
 16018 2826 00       		.sleb128 0
 16019 2827 94       		.byte	0x94
 16020 2828 02       		.byte	0x2
 16021 2829 0A       		.byte	0xa
 16022 282a FFFF     		.2byte	0xffff
 16023 282c 1A       		.byte	0x1a
 16024 282d 21       		.byte	0x21
 16025 282e 78       		.byte	0x78
 16026 282f 00       		.sleb128 0
 16027 2830 1A       		.byte	0x1a
 16028 2831 9F       		.byte	0x9f
 16029 2832 00000000 		.4byte	0
 16030 2836 00000000 		.4byte	0
 16031              	.LLST189:
 16032 283a BC020000 		.4byte	.LVL546
 16033 283e BE020000 		.4byte	.LVL547
 16034 2842 0100     		.2byte	0x1
 16035 2844 50       		.byte	0x50
 16036 2845 BE020000 		.4byte	.LVL547
 16037 2849 C2020000 		.4byte	.LVL548
 16038 284d 2100     		.2byte	0x21
 16039 284f 74       		.byte	0x74
 16040 2850 02       		.sleb128 2
 16041 2851 31       		.byte	0x31
 16042 2852 24       		.byte	0x24
 16043 2853 76       		.byte	0x76
 16044 2854 00       		.sleb128 0
 16045 2855 22       		.byte	0x22
 16046 2856 94       		.byte	0x94
 16047 2857 02       		.byte	0x2
 16048 2858 0A       		.byte	0xa
 16049 2859 FFFF     		.2byte	0xffff
 16050 285b 1A       		.byte	0x1a
 16051 285c 40       		.byte	0x40
 16052 285d 24       		.byte	0x24
 16053 285e 74       		.byte	0x74
 16054 285f 02       		.sleb128 2
 16055 2860 31       		.byte	0x31
ARM GAS  C:\Users\haske\AppData\Local\Temp\ccydbpJh.s 			page 319


 16056 2861 24       		.byte	0x24
 16057 2862 76       		.byte	0x76
 16058 2863 00       		.sleb128 0
 16059 2864 22       		.byte	0x22
 16060 2865 94       		.byte	0x94
 16061 2866 02       		.byte	0x2
 16062 2867 0A       		.byte	0xa
 16063 2868 FFFF     		.2byte	0xffff
 16064 286a 1A       		.byte	0x1a
 16065 286b 21       		.byte	0x21
 16066 286c 72       		.byte	0x72
 16067 286d 00       		.sleb128 0
 16068 286e 1A       		.byte	0x1a
 16069 286f 9F       		.byte	0x9f
 16070 2870 C2020000 		.4byte	.LVL548
 16071 2874 DA020000 		.4byte	.LVL551
 16072 2878 2100     		.2byte	0x21
 16073 287a 74       		.byte	0x74
 16074 287b 02       		.sleb128 2
 16075 287c 31       		.byte	0x31
 16076 287d 24       		.byte	0x24
 16077 287e 76       		.byte	0x76
 16078 287f 00       		.sleb128 0
 16079 2880 22       		.byte	0x22
 16080 2881 94       		.byte	0x94
 16081 2882 02       		.byte	0x2
 16082 2883 0A       		.byte	0xa
 16083 2884 FFFF     		.2byte	0xffff
 16084 2886 1A       		.byte	0x1a
 16085 2887 40       		.byte	0x40
 16086 2888 24       		.byte	0x24
 16087 2889 74       		.byte	0x74
 16088 288a 02       		.sleb128 2
 16089 288b 31       		.byte	0x31
 16090 288c 24       		.byte	0x24
 16091 288d 76       		.byte	0x76
 16092 288e 00       		.sleb128 0
 16093 288f 22       		.byte	0x22
 16094 2890 94       		.byte	0x94
 16095 2891 02       		.byte	0x2
 16096 2892 0A       		.byte	0xa
 16097 2893 FFFF     		.2byte	0xffff
 16098 2895 1A       		.byte	0x1a
 16099 2896 21       		.byte	0x21
 16100 2897 78       		.byte	0x78
 16101 2898 00       		.sleb128 0
 16102 2899 1A       		.byte	0x1a
 16103 289a 9F       		.byte	0x9f
 16104 289b 00000000 		.4byte	0
 16105 289f 00000000 		.4byte	0
 16106              	.LLST190:
 16107 28a3 D6020000 		.4byte	.LVL550
 16108 28a7 DA020000 		.4byte	.LVL551
 16109 28ab 0100     		.2byte	0x1
 16110 28ad 53       		.byte	0x53
 16111 28ae 00000000 		.4byte	0
 16112 28b2 00000000 		.4byte	0
ARM GAS  C:\Users\haske\AppData\Local\Temp\ccydbpJh.s 			page 320


 16113              	.LLST191:
 16114 28b6 F6020000 		.4byte	.LVL553
 16115 28ba F8020000 		.4byte	.LVL554
 16116 28be 0100     		.2byte	0x1
 16117 28c0 53       		.byte	0x53
 16118 28c1 FC020000 		.4byte	.LVL555
 16119 28c5 34030000 		.4byte	.LVL562
 16120 28c9 0100     		.2byte	0x1
 16121 28cb 59       		.byte	0x59
 16122 28cc 00000000 		.4byte	0
 16123 28d0 00000000 		.4byte	0
 16124              	.LLST192:
 16125 28d4 0C030000 		.4byte	.LVL556
 16126 28d8 2C030000 		.4byte	.LVL560
 16127 28dc 0100     		.2byte	0x1
 16128 28de 53       		.byte	0x53
 16129 28df 2C030000 		.4byte	.LVL560
 16130 28e3 34030000 		.4byte	.LVL562
 16131 28e7 1700     		.2byte	0x17
 16132 28e9 71       		.byte	0x71
 16133 28ea 00       		.sleb128 0
 16134 28eb 94       		.byte	0x94
 16135 28ec 02       		.byte	0x2
 16136 28ed 0A       		.byte	0xa
 16137 28ee FFFF     		.2byte	0xffff
 16138 28f0 1A       		.byte	0x1a
 16139 28f1 40       		.byte	0x40
 16140 28f2 24       		.byte	0x24
 16141 28f3 71       		.byte	0x71
 16142 28f4 00       		.sleb128 0
 16143 28f5 94       		.byte	0x94
 16144 28f6 02       		.byte	0x2
 16145 28f7 0A       		.byte	0xa
 16146 28f8 FFFF     		.2byte	0xffff
 16147 28fa 1A       		.byte	0x1a
 16148 28fb 21       		.byte	0x21
 16149 28fc 78       		.byte	0x78
 16150 28fd 00       		.sleb128 0
 16151 28fe 1A       		.byte	0x1a
 16152 28ff 9F       		.byte	0x9f
 16153 2900 00000000 		.4byte	0
 16154 2904 00000000 		.4byte	0
 16155              	.LLST193:
 16156 2908 16030000 		.4byte	.LVL557
 16157 290c 18030000 		.4byte	.LVL558
 16158 2910 0100     		.2byte	0x1
 16159 2912 50       		.byte	0x50
 16160 2913 18030000 		.4byte	.LVL558
 16161 2917 1C030000 		.4byte	.LVL559
 16162 291b 2100     		.2byte	0x21
 16163 291d 74       		.byte	0x74
 16164 291e 03       		.sleb128 3
 16165 291f 31       		.byte	0x31
 16166 2920 24       		.byte	0x24
 16167 2921 76       		.byte	0x76
 16168 2922 00       		.sleb128 0
 16169 2923 22       		.byte	0x22
ARM GAS  C:\Users\haske\AppData\Local\Temp\ccydbpJh.s 			page 321


 16170 2924 94       		.byte	0x94
 16171 2925 02       		.byte	0x2
 16172 2926 0A       		.byte	0xa
 16173 2927 FFFF     		.2byte	0xffff
 16174 2929 1A       		.byte	0x1a
 16175 292a 40       		.byte	0x40
 16176 292b 24       		.byte	0x24
 16177 292c 74       		.byte	0x74
 16178 292d 03       		.sleb128 3
 16179 292e 31       		.byte	0x31
 16180 292f 24       		.byte	0x24
 16181 2930 76       		.byte	0x76
 16182 2931 00       		.sleb128 0
 16183 2932 22       		.byte	0x22
 16184 2933 94       		.byte	0x94
 16185 2934 02       		.byte	0x2
 16186 2935 0A       		.byte	0xa
 16187 2936 FFFF     		.2byte	0xffff
 16188 2938 1A       		.byte	0x1a
 16189 2939 21       		.byte	0x21
 16190 293a 72       		.byte	0x72
 16191 293b 00       		.sleb128 0
 16192 293c 1A       		.byte	0x1a
 16193 293d 9F       		.byte	0x9f
 16194 293e 1C030000 		.4byte	.LVL559
 16195 2942 34030000 		.4byte	.LVL562
 16196 2946 2100     		.2byte	0x21
 16197 2948 74       		.byte	0x74
 16198 2949 03       		.sleb128 3
 16199 294a 31       		.byte	0x31
 16200 294b 24       		.byte	0x24
 16201 294c 76       		.byte	0x76
 16202 294d 00       		.sleb128 0
 16203 294e 22       		.byte	0x22
 16204 294f 94       		.byte	0x94
 16205 2950 02       		.byte	0x2
 16206 2951 0A       		.byte	0xa
 16207 2952 FFFF     		.2byte	0xffff
 16208 2954 1A       		.byte	0x1a
 16209 2955 40       		.byte	0x40
 16210 2956 24       		.byte	0x24
 16211 2957 74       		.byte	0x74
 16212 2958 03       		.sleb128 3
 16213 2959 31       		.byte	0x31
 16214 295a 24       		.byte	0x24
 16215 295b 76       		.byte	0x76
 16216 295c 00       		.sleb128 0
 16217 295d 22       		.byte	0x22
 16218 295e 94       		.byte	0x94
 16219 295f 02       		.byte	0x2
 16220 2960 0A       		.byte	0xa
 16221 2961 FFFF     		.2byte	0xffff
 16222 2963 1A       		.byte	0x1a
 16223 2964 21       		.byte	0x21
 16224 2965 78       		.byte	0x78
 16225 2966 00       		.sleb128 0
 16226 2967 1A       		.byte	0x1a
ARM GAS  C:\Users\haske\AppData\Local\Temp\ccydbpJh.s 			page 322


 16227 2968 9F       		.byte	0x9f
 16228 2969 00000000 		.4byte	0
 16229 296d 00000000 		.4byte	0
 16230              	.LLST194:
 16231 2971 30030000 		.4byte	.LVL561
 16232 2975 34030000 		.4byte	.LVL562
 16233 2979 0100     		.2byte	0x1
 16234 297b 53       		.byte	0x53
 16235 297c 00000000 		.4byte	0
 16236 2980 00000000 		.4byte	0
 16237              	.LLST195:
 16238 2984 74030000 		.4byte	.LVL569
 16239 2988 76030000 		.4byte	.LVL570
 16240 298c 0100     		.2byte	0x1
 16241 298e 53       		.byte	0x53
 16242 298f 7A030000 		.4byte	.LVL571
 16243 2993 B4030000 		.4byte	.LVL579
 16244 2997 0100     		.2byte	0x1
 16245 2999 58       		.byte	0x58
 16246 299a 00000000 		.4byte	0
 16247 299e 00000000 		.4byte	0
 16248              	.LLST196:
 16249 29a2 8A030000 		.4byte	.LVL572
 16250 29a6 AC030000 		.4byte	.LVL577
 16251 29aa 0100     		.2byte	0x1
 16252 29ac 53       		.byte	0x53
 16253 29ad AC030000 		.4byte	.LVL577
 16254 29b1 B4030000 		.4byte	.LVL579
 16255 29b5 1700     		.2byte	0x17
 16256 29b7 71       		.byte	0x71
 16257 29b8 00       		.sleb128 0
 16258 29b9 94       		.byte	0x94
 16259 29ba 02       		.byte	0x2
 16260 29bb 0A       		.byte	0xa
 16261 29bc FFFF     		.2byte	0xffff
 16262 29be 1A       		.byte	0x1a
 16263 29bf 40       		.byte	0x40
 16264 29c0 24       		.byte	0x24
 16265 29c1 71       		.byte	0x71
 16266 29c2 00       		.sleb128 0
 16267 29c3 94       		.byte	0x94
 16268 29c4 02       		.byte	0x2
 16269 29c5 0A       		.byte	0xa
 16270 29c6 FFFF     		.2byte	0xffff
 16271 29c8 1A       		.byte	0x1a
 16272 29c9 21       		.byte	0x21
 16273 29ca 7C       		.byte	0x7c
 16274 29cb 00       		.sleb128 0
 16275 29cc 1A       		.byte	0x1a
 16276 29cd 9F       		.byte	0x9f
 16277 29ce 00000000 		.4byte	0
 16278 29d2 00000000 		.4byte	0
 16279              	.LLST197:
 16280 29d6 9A030000 		.4byte	.LVL573
 16281 29da 9C030000 		.4byte	.LVL574
 16282 29de 0100     		.2byte	0x1
 16283 29e0 50       		.byte	0x50
ARM GAS  C:\Users\haske\AppData\Local\Temp\ccydbpJh.s 			page 323


 16284 29e1 9C030000 		.4byte	.LVL574
 16285 29e5 9E030000 		.4byte	.LVL575
 16286 29e9 0B00     		.2byte	0xb
 16287 29eb 7B       		.byte	0x7b
 16288 29ec 00       		.sleb128 0
 16289 29ed 40       		.byte	0x40
 16290 29ee 24       		.byte	0x24
 16291 29ef 7B       		.byte	0x7b
 16292 29f0 00       		.sleb128 0
 16293 29f1 21       		.byte	0x21
 16294 29f2 75       		.byte	0x75
 16295 29f3 00       		.sleb128 0
 16296 29f4 1A       		.byte	0x1a
 16297 29f5 9F       		.byte	0x9f
 16298 29f6 9E030000 		.4byte	.LVL575
 16299 29fa A0030000 		.4byte	.LVL576
 16300 29fe 0B00     		.2byte	0xb
 16301 2a00 7B       		.byte	0x7b
 16302 2a01 00       		.sleb128 0
 16303 2a02 40       		.byte	0x40
 16304 2a03 24       		.byte	0x24
 16305 2a04 7B       		.byte	0x7b
 16306 2a05 00       		.sleb128 0
 16307 2a06 21       		.byte	0x21
 16308 2a07 7C       		.byte	0x7c
 16309 2a08 00       		.sleb128 0
 16310 2a09 1A       		.byte	0x1a
 16311 2a0a 9F       		.byte	0x9f
 16312 2a0b A0030000 		.4byte	.LVL576
 16313 2a0f B4030000 		.4byte	.LVL579
 16314 2a13 2300     		.2byte	0x23
 16315 2a15 74       		.byte	0x74
 16316 2a16 00       		.sleb128 0
 16317 2a17 31       		.byte	0x31
 16318 2a18 24       		.byte	0x24
 16319 2a19 91       		.byte	0x91
 16320 2a1a 40       		.sleb128 -64
 16321 2a1b 06       		.byte	0x6
 16322 2a1c 22       		.byte	0x22
 16323 2a1d 94       		.byte	0x94
 16324 2a1e 02       		.byte	0x2
 16325 2a1f 0A       		.byte	0xa
 16326 2a20 FFFF     		.2byte	0xffff
 16327 2a22 1A       		.byte	0x1a
 16328 2a23 40       		.byte	0x40
 16329 2a24 24       		.byte	0x24
 16330 2a25 74       		.byte	0x74
 16331 2a26 00       		.sleb128 0
 16332 2a27 31       		.byte	0x31
 16333 2a28 24       		.byte	0x24
 16334 2a29 91       		.byte	0x91
 16335 2a2a 40       		.sleb128 -64
 16336 2a2b 06       		.byte	0x6
 16337 2a2c 22       		.byte	0x22
 16338 2a2d 94       		.byte	0x94
 16339 2a2e 02       		.byte	0x2
 16340 2a2f 0A       		.byte	0xa
ARM GAS  C:\Users\haske\AppData\Local\Temp\ccydbpJh.s 			page 324


 16341 2a30 FFFF     		.2byte	0xffff
 16342 2a32 1A       		.byte	0x1a
 16343 2a33 21       		.byte	0x21
 16344 2a34 7C       		.byte	0x7c
 16345 2a35 00       		.sleb128 0
 16346 2a36 1A       		.byte	0x1a
 16347 2a37 9F       		.byte	0x9f
 16348 2a38 00000000 		.4byte	0
 16349 2a3c 00000000 		.4byte	0
 16350              	.LLST198:
 16351 2a40 B0030000 		.4byte	.LVL578
 16352 2a44 B4030000 		.4byte	.LVL579
 16353 2a48 0100     		.2byte	0x1
 16354 2a4a 53       		.byte	0x53
 16355 2a4b 00000000 		.4byte	0
 16356 2a4f 00000000 		.4byte	0
 16357              	.LLST199:
 16358 2a53 08040000 		.4byte	.LVL590
 16359 2a57 14040000 		.4byte	.LVL593
 16360 2a5b 0100     		.2byte	0x1
 16361 2a5d 53       		.byte	0x53
 16362 2a5e 00000000 		.4byte	0
 16363 2a62 00000000 		.4byte	0
 16364              	.LLST200:
 16365 2a66 12040000 		.4byte	.LVL592
 16366 2a6a 14040000 		.4byte	.LVL593
 16367 2a6e 0100     		.2byte	0x1
 16368 2a70 53       		.byte	0x53
 16369 2a71 16040000 		.4byte	.LVL594
 16370 2a75 3C040000 		.4byte	.LVL599
 16371 2a79 0100     		.2byte	0x1
 16372 2a7b 53       		.byte	0x53
 16373 2a7c 00000000 		.4byte	0
 16374 2a80 00000000 		.4byte	0
 16375              	.LLST201:
 16376 2a84 22040000 		.4byte	.LVL595
 16377 2a88 24040000 		.4byte	.LVL596
 16378 2a8c 0100     		.2byte	0x1
 16379 2a8e 51       		.byte	0x51
 16380 2a8f 24040000 		.4byte	.LVL596
 16381 2a93 4A040000 		.4byte	.LVL601
 16382 2a97 0100     		.2byte	0x1
 16383 2a99 5A       		.byte	0x5a
 16384 2a9a 00000000 		.4byte	0
 16385 2a9e 00000000 		.4byte	0
 16386              	.LLST202:
 16387 2aa2 32040000 		.4byte	.LVL597
 16388 2aa6 36040000 		.4byte	.LVL598
 16389 2aaa 0100     		.2byte	0x1
 16390 2aac 51       		.byte	0x51
 16391 2aad 36040000 		.4byte	.LVL598
 16392 2ab1 4A040000 		.4byte	.LVL601
 16393 2ab5 0B00     		.2byte	0xb
 16394 2ab7 7B       		.byte	0x7b
 16395 2ab8 00       		.sleb128 0
 16396 2ab9 40       		.byte	0x40
 16397 2aba 24       		.byte	0x24
ARM GAS  C:\Users\haske\AppData\Local\Temp\ccydbpJh.s 			page 325


 16398 2abb 7B       		.byte	0x7b
 16399 2abc 00       		.sleb128 0
 16400 2abd 21       		.byte	0x21
 16401 2abe 77       		.byte	0x77
 16402 2abf 00       		.sleb128 0
 16403 2ac0 1A       		.byte	0x1a
 16404 2ac1 9F       		.byte	0x9f
 16405 2ac2 00000000 		.4byte	0
 16406 2ac6 00000000 		.4byte	0
 16407              	.LLST203:
 16408 2aca 46040000 		.4byte	.LVL600
 16409 2ace 4A040000 		.4byte	.LVL601
 16410 2ad2 0100     		.2byte	0x1
 16411 2ad4 53       		.byte	0x53
 16412 2ad5 00000000 		.4byte	0
 16413 2ad9 00000000 		.4byte	0
 16414              	.LLST204:
 16415 2add 00000000 		.4byte	.LVL614
 16416 2ae1 14000000 		.4byte	.LVL616
 16417 2ae5 0100     		.2byte	0x1
 16418 2ae7 50       		.byte	0x50
 16419 2ae8 14000000 		.4byte	.LVL616
 16420 2aec 30000000 		.4byte	.LVL621
 16421 2af0 0100     		.2byte	0x1
 16422 2af2 55       		.byte	0x55
 16423 2af3 30000000 		.4byte	.LVL621
 16424 2af7 32000000 		.4byte	.LFE159
 16425 2afb 0400     		.2byte	0x4
 16426 2afd F3       		.byte	0xf3
 16427 2afe 01       		.uleb128 0x1
 16428 2aff 50       		.byte	0x50
 16429 2b00 9F       		.byte	0x9f
 16430 2b01 00000000 		.4byte	0
 16431 2b05 00000000 		.4byte	0
 16432              	.LLST205:
 16433 2b09 00000000 		.4byte	.LVL614
 16434 2b0d 12000000 		.4byte	.LVL615
 16435 2b11 0100     		.2byte	0x1
 16436 2b13 51       		.byte	0x51
 16437 2b14 12000000 		.4byte	.LVL615
 16438 2b18 30000000 		.4byte	.LVL620
 16439 2b1c 0100     		.2byte	0x1
 16440 2b1e 54       		.byte	0x54
 16441 2b1f 30000000 		.4byte	.LVL620
 16442 2b23 32000000 		.4byte	.LFE159
 16443 2b27 0400     		.2byte	0x4
 16444 2b29 F3       		.byte	0xf3
 16445 2b2a 01       		.uleb128 0x1
 16446 2b2b 51       		.byte	0x51
 16447 2b2c 9F       		.byte	0x9f
 16448 2b2d 00000000 		.4byte	0
 16449 2b31 00000000 		.4byte	0
 16450              	.LLST206:
 16451 2b35 00000000 		.4byte	.LVL622
 16452 2b39 3E000000 		.4byte	.LVL628
 16453 2b3d 0100     		.2byte	0x1
 16454 2b3f 50       		.byte	0x50
ARM GAS  C:\Users\haske\AppData\Local\Temp\ccydbpJh.s 			page 326


 16455 2b40 3E000000 		.4byte	.LVL628
 16456 2b44 52020000 		.4byte	.LVL664
 16457 2b48 0100     		.2byte	0x1
 16458 2b4a 57       		.byte	0x57
 16459 2b4b 52020000 		.4byte	.LVL664
 16460 2b4f 5E020000 		.4byte	.LFE160
 16461 2b53 0400     		.2byte	0x4
 16462 2b55 F3       		.byte	0xf3
 16463 2b56 01       		.uleb128 0x1
 16464 2b57 50       		.byte	0x50
 16465 2b58 9F       		.byte	0x9f
 16466 2b59 00000000 		.4byte	0
 16467 2b5d 00000000 		.4byte	0
 16468              	.LLST207:
 16469 2b61 00000000 		.4byte	.LVL622
 16470 2b65 2E000000 		.4byte	.LVL625
 16471 2b69 0100     		.2byte	0x1
 16472 2b6b 51       		.byte	0x51
 16473 2b6c 2E000000 		.4byte	.LVL625
 16474 2b70 52020000 		.4byte	.LVL663
 16475 2b74 0100     		.2byte	0x1
 16476 2b76 54       		.byte	0x54
 16477 2b77 52020000 		.4byte	.LVL663
 16478 2b7b 5E020000 		.4byte	.LFE160
 16479 2b7f 0400     		.2byte	0x4
 16480 2b81 F3       		.byte	0xf3
 16481 2b82 01       		.uleb128 0x1
 16482 2b83 51       		.byte	0x51
 16483 2b84 9F       		.byte	0x9f
 16484 2b85 00000000 		.4byte	0
 16485 2b89 00000000 		.4byte	0
 16486              	.LLST208:
 16487 2b8d 28000000 		.4byte	.LVL623
 16488 2b91 50020000 		.4byte	.LVL662
 16489 2b95 0100     		.2byte	0x1
 16490 2b97 56       		.byte	0x56
 16491 2b98 00000000 		.4byte	0
 16492 2b9c 00000000 		.4byte	0
 16493              	.LLST209:
 16494 2ba0 4E000000 		.4byte	.LVL631
 16495 2ba4 66000000 		.4byte	.LVL634
 16496 2ba8 0100     		.2byte	0x1
 16497 2baa 50       		.byte	0x50
 16498 2bab 66000000 		.4byte	.LVL634
 16499 2baf 94000000 		.4byte	.LVL636
 16500 2bb3 0100     		.2byte	0x1
 16501 2bb5 5B       		.byte	0x5b
 16502 2bb6 94000000 		.4byte	.LVL636
 16503 2bba 9A000000 		.4byte	.LVL637
 16504 2bbe 0100     		.2byte	0x1
 16505 2bc0 50       		.byte	0x50
 16506 2bc1 9A000000 		.4byte	.LVL637
 16507 2bc5 50020000 		.4byte	.LVL662
 16508 2bc9 0100     		.2byte	0x1
 16509 2bcb 5B       		.byte	0x5b
 16510 2bcc 00000000 		.4byte	0
 16511 2bd0 00000000 		.4byte	0
ARM GAS  C:\Users\haske\AppData\Local\Temp\ccydbpJh.s 			page 327


 16512              	.LLST210:
 16513 2bd4 52000000 		.4byte	.LVL632
 16514 2bd8 56000000 		.4byte	.LVL633
 16515 2bdc 0100     		.2byte	0x1
 16516 2bde 53       		.byte	0x53
 16517 2bdf 56000000 		.4byte	.LVL633
 16518 2be3 92000000 		.4byte	.LVL635
 16519 2be7 0200     		.2byte	0x2
 16520 2be9 77       		.byte	0x77
 16521 2bea 00       		.sleb128 0
 16522 2beb 92000000 		.4byte	.LVL635
 16523 2bef 94000000 		.4byte	.LVL636
 16524 2bf3 0100     		.2byte	0x1
 16525 2bf5 53       		.byte	0x53
 16526 2bf6 94000000 		.4byte	.LVL636
 16527 2bfa CC000000 		.4byte	.LVL639
 16528 2bfe 0200     		.2byte	0x2
 16529 2c00 77       		.byte	0x77
 16530 2c01 00       		.sleb128 0
 16531 2c02 CC000000 		.4byte	.LVL639
 16532 2c06 50020000 		.4byte	.LVL662
 16533 2c0a 0200     		.2byte	0x2
 16534 2c0c 91       		.byte	0x91
 16535 2c0d 48       		.sleb128 -56
 16536 2c0e 00000000 		.4byte	0
 16537 2c12 00000000 		.4byte	0
 16538              	.LLST211:
 16539 2c16 D0000000 		.4byte	.LVL640
 16540 2c1a D6000000 		.4byte	.LVL641
 16541 2c1e 0100     		.2byte	0x1
 16542 2c20 53       		.byte	0x53
 16543 2c21 D6000000 		.4byte	.LVL641
 16544 2c25 10010000 		.4byte	.LVL645
 16545 2c29 0100     		.2byte	0x1
 16546 2c2b 5A       		.byte	0x5a
 16547 2c2c 10010000 		.4byte	.LVL645
 16548 2c30 12010000 		.4byte	.LVL646
 16549 2c34 0100     		.2byte	0x1
 16550 2c36 53       		.byte	0x53
 16551 2c37 12010000 		.4byte	.LVL646
 16552 2c3b 50020000 		.4byte	.LVL662
 16553 2c3f 0100     		.2byte	0x1
 16554 2c41 5A       		.byte	0x5a
 16555 2c42 00000000 		.4byte	0
 16556 2c46 00000000 		.4byte	0
 16557              	.LLST212:
 16558 2c4a 14010000 		.4byte	.LVL647
 16559 2c4e 50020000 		.4byte	.LVL662
 16560 2c52 0100     		.2byte	0x1
 16561 2c54 59       		.byte	0x59
 16562 2c55 00000000 		.4byte	0
 16563 2c59 00000000 		.4byte	0
 16564              	.LLST213:
 16565 2c5d 78010000 		.4byte	.LVL655
 16566 2c61 50020000 		.4byte	.LVL662
 16567 2c65 0100     		.2byte	0x1
 16568 2c67 58       		.byte	0x58
ARM GAS  C:\Users\haske\AppData\Local\Temp\ccydbpJh.s 			page 328


 16569 2c68 00000000 		.4byte	0
 16570 2c6c 00000000 		.4byte	0
 16571              	.LLST214:
 16572 2c70 2A000000 		.4byte	.LVL624
 16573 2c74 32000000 		.4byte	.LVL626
 16574 2c78 0100     		.2byte	0x1
 16575 2c7a 52       		.byte	0x52
 16576 2c7b 32000000 		.4byte	.LVL626
 16577 2c7f 38000000 		.4byte	.LVL627
 16578 2c83 0200     		.2byte	0x2
 16579 2c85 70       		.byte	0x70
 16580 2c86 04       		.sleb128 4
 16581 2c87 00000000 		.4byte	0
 16582 2c8b 00000000 		.4byte	0
 16583              	.LLST215:
 16584 2c8f 94000000 		.4byte	.LVL636
 16585 2c93 AC000000 		.4byte	.LVL638
 16586 2c97 0200     		.2byte	0x2
 16587 2c99 91       		.byte	0x91
 16588 2c9a 48       		.sleb128 -56
 16589 2c9b AC000000 		.4byte	.LVL638
 16590 2c9f CC000000 		.4byte	.LVL639
 16591 2ca3 0700     		.2byte	0x7
 16592 2ca5 91       		.byte	0x91
 16593 2ca6 48       		.sleb128 -56
 16594 2ca7 06       		.byte	0x6
 16595 2ca8 70       		.byte	0x70
 16596 2ca9 00       		.sleb128 0
 16597 2caa 22       		.byte	0x22
 16598 2cab 9F       		.byte	0x9f
 16599 2cac 00000000 		.4byte	0
 16600 2cb0 00000000 		.4byte	0
 16601              	.LLST216:
 16602 2cb4 D6000000 		.4byte	.LVL641
 16603 2cb8 E0000000 		.4byte	.LVL642
 16604 2cbc 0100     		.2byte	0x1
 16605 2cbe 53       		.byte	0x53
 16606 2cbf E0000000 		.4byte	.LVL642
 16607 2cc3 EA000000 		.4byte	.LVL643
 16608 2cc7 0200     		.2byte	0x2
 16609 2cc9 74       		.byte	0x74
 16610 2cca 00       		.sleb128 0
 16611 2ccb 00000000 		.4byte	0
 16612 2ccf 00000000 		.4byte	0
 16613              	.LLST217:
 16614 2cd3 28010000 		.4byte	.LVL648
 16615 2cd7 42010000 		.4byte	.LVL651
 16616 2cdb 0100     		.2byte	0x1
 16617 2cdd 50       		.byte	0x50
 16618 2cde 00000000 		.4byte	0
 16619 2ce2 00000000 		.4byte	0
 16620              	.LLST218:
 16621 2ce6 28010000 		.4byte	.LVL648
 16622 2cea 2C010000 		.4byte	.LVL649
 16623 2cee 0200     		.2byte	0x2
 16624 2cf0 30       		.byte	0x30
 16625 2cf1 9F       		.byte	0x9f
ARM GAS  C:\Users\haske\AppData\Local\Temp\ccydbpJh.s 			page 329


 16626 2cf2 2C010000 		.4byte	.LVL649
 16627 2cf6 42010000 		.4byte	.LVL651
 16628 2cfa 0100     		.2byte	0x1
 16629 2cfc 53       		.byte	0x53
 16630 2cfd 00000000 		.4byte	0
 16631 2d01 00000000 		.4byte	0
 16632              	.LLST219:
 16633 2d05 44010000 		.4byte	.LVL652
 16634 2d09 56010000 		.4byte	.LVL653
 16635 2d0d 0100     		.2byte	0x1
 16636 2d0f 50       		.byte	0x50
 16637 2d10 00000000 		.4byte	0
 16638 2d14 00000000 		.4byte	0
 16639              		.section	.debug_aranges,"",%progbits
 16640 0000 6C000000 		.4byte	0x6c
 16641 0004 0200     		.2byte	0x2
 16642 0006 00000000 		.4byte	.Ldebug_info0
 16643 000a 04       		.byte	0x4
 16644 000b 00       		.byte	0
 16645 000c 0000     		.2byte	0
 16646 000e 0000     		.2byte	0
 16647 0010 00000000 		.4byte	.LFB163
 16648 0014 8C010000 		.4byte	.LFE163-.LFB163
 16649 0018 00000000 		.4byte	.LFB166
 16650 001c C0010000 		.4byte	.LFE166-.LFB166
 16651 0020 00000000 		.4byte	.LFB167
 16652 0024 98000000 		.4byte	.LFE167-.LFB167
 16653 0028 00000000 		.4byte	.LFB168
 16654 002c 90000000 		.4byte	.LFE168-.LFB168
 16655 0030 00000000 		.4byte	.LFB169
 16656 0034 88000000 		.4byte	.LFE169-.LFB169
 16657 0038 00000000 		.4byte	.LFB161
 16658 003c 1C010000 		.4byte	.LFE161-.LFB161
 16659 0040 00000000 		.4byte	.LFB164
 16660 0044 42010000 		.4byte	.LFE164-.LFB164
 16661 0048 00000000 		.4byte	.LFB162
 16662 004c 98040000 		.4byte	.LFE162-.LFB162
 16663 0050 00000000 		.4byte	.LFB165
 16664 0054 AC040000 		.4byte	.LFE165-.LFB165
 16665 0058 00000000 		.4byte	.LFB159
 16666 005c 32000000 		.4byte	.LFE159-.LFB159
 16667 0060 00000000 		.4byte	.LFB160
 16668 0064 5E020000 		.4byte	.LFE160-.LFB160
 16669 0068 00000000 		.4byte	0
 16670 006c 00000000 		.4byte	0
 16671              		.section	.debug_ranges,"",%progbits
 16672              	.Ldebug_ranges0:
 16673 0000 22010000 		.4byte	.LBB164
 16674 0004 86010000 		.4byte	.LBE164
 16675 0008 90010000 		.4byte	.LBB177
 16676 000c DA030000 		.4byte	.LBE177
 16677 0010 00000000 		.4byte	0
 16678 0014 00000000 		.4byte	0
 16679 0018 00000000 		.4byte	.LFB163
 16680 001c 8C010000 		.4byte	.LFE163
 16681 0020 00000000 		.4byte	.LFB166
 16682 0024 C0010000 		.4byte	.LFE166
ARM GAS  C:\Users\haske\AppData\Local\Temp\ccydbpJh.s 			page 330


 16683 0028 00000000 		.4byte	.LFB167
 16684 002c 98000000 		.4byte	.LFE167
 16685 0030 00000000 		.4byte	.LFB168
 16686 0034 90000000 		.4byte	.LFE168
 16687 0038 00000000 		.4byte	.LFB169
 16688 003c 88000000 		.4byte	.LFE169
 16689 0040 00000000 		.4byte	.LFB161
 16690 0044 1C010000 		.4byte	.LFE161
 16691 0048 00000000 		.4byte	.LFB164
 16692 004c 42010000 		.4byte	.LFE164
 16693 0050 00000000 		.4byte	.LFB162
 16694 0054 98040000 		.4byte	.LFE162
 16695 0058 00000000 		.4byte	.LFB165
 16696 005c AC040000 		.4byte	.LFE165
 16697 0060 00000000 		.4byte	.LFB159
 16698 0064 32000000 		.4byte	.LFE159
 16699 0068 00000000 		.4byte	.LFB160
 16700 006c 5E020000 		.4byte	.LFE160
 16701 0070 00000000 		.4byte	0
 16702 0074 00000000 		.4byte	0
 16703              		.section	.debug_line,"",%progbits
 16704              	.Ldebug_line0:
 16705 0000 080E0000 		.section	.debug_str,"MS",%progbits,1
 16705      02000C05 
 16705      00000201 
 16705      FB0E0D00 
 16705      01010101 
 16706              	.LASF190:
 16707 0000 70726F70 		.ascii	"prop_cnt\000"
 16707      5F636E74 
 16707      00
 16708              	.LASF16:
 16709 0009 696E7438 		.ascii	"int8_t\000"
 16709      5F7400
 16710              	.LASF161:
 16711 0010 4C565F53 		.ascii	"LV_STYLE_OPA\000"
 16711      54594C45 
 16711      5F4F5041 
 16711      00
 16712              	.LASF385:
 16713 001d 636F6C6F 		.ascii	"color_chroma_key\000"
 16713      725F6368 
 16713      726F6D61 
 16713      5F6B6579 
 16713      00
 16714              	.LASF193:
 16715 002e 4C565F44 		.ascii	"LV_DRAW_MASK_RES_FULL_COVER\000"
 16715      5241575F 
 16715      4D41534B 
 16715      5F524553 
 16715      5F46554C 
 16716              	.LASF362:
 16717 004a 6C765F64 		.ascii	"lv_disp_draw_buf_t\000"
 16717      6973705F 
 16717      64726177 
 16717      5F627566 
 16717      5F7400
ARM GAS  C:\Users\haske\AppData\Local\Temp\ccydbpJh.s 			page 331


 16718              	.LASF25:
 16719 005d 73697A65 		.ascii	"size_t\000"
 16719      5F7400
 16720              	.LASF53:
 16721 0064 6164765F 		.ascii	"adv_w\000"
 16721      7700
 16722              	.LASF27:
 16723 006a 73697A65 		.ascii	"sizetype\000"
 16723      74797065 
 16723      00
 16724              	.LASF390:
 16725 0073 6C765F64 		.ascii	"lv_disp_t\000"
 16725      6973705F 
 16725      7400
 16726              	.LASF443:
 16727 007d 4C565F45 		.ascii	"LV_EVENT_DRAW_MAIN_BEGIN\000"
 16727      56454E54 
 16727      5F445241 
 16727      575F4D41 
 16727      494E5F42 
 16728              	.LASF145:
 16729 0096 4C565F53 		.ascii	"LV_STYLE_LINE_DASH_GAP\000"
 16729      54594C45 
 16729      5F4C494E 
 16729      455F4441 
 16729      53485F47 
 16730              	.LASF351:
 16731 00ad 7461696C 		.ascii	"tail\000"
 16731      00
 16732              	.LASF324:
 16733 00b2 6163745F 		.ascii	"act_scr\000"
 16733      73637200 
 16734              	.LASF329:
 16735 00ba 73637265 		.ascii	"screen_cnt\000"
 16735      656E5F63 
 16735      6E7400
 16736              	.LASF302:
 16737 00c5 64726177 		.ascii	"draw_bg\000"
 16737      5F626700 
 16738              	.LASF47:
 16739 00cd 6C765F6F 		.ascii	"lv_opa_t\000"
 16739      70615F74 
 16739      00
 16740              	.LASF152:
 16741 00d6 4C565F53 		.ascii	"LV_STYLE_ARC_OPA\000"
 16741      54594C45 
 16741      5F415243 
 16741      5F4F5041 
 16741      00
 16742              	.LASF271:
 16743 00e7 7261775F 		.ascii	"raw_end\000"
 16743      656E6400 
 16744              	.LASF20:
 16745 00ef 696E7433 		.ascii	"int32_t\000"
 16745      325F7400 
 16746              	.LASF396:
 16747 00f7 6C765F73 		.ascii	"lv_scrollbar_mode_t\000"
ARM GAS  C:\Users\haske\AppData\Local\Temp\ccydbpJh.s 			page 332


 16747      63726F6C 
 16747      6C626172 
 16747      5F6D6F64 
 16747      655F7400 
 16748              	.LASF189:
 16749 010b 6861735F 		.ascii	"has_group\000"
 16749      67726F75 
 16749      7000
 16750              	.LASF452:
 16751 0115 4C565F45 		.ascii	"LV_EVENT_INSERT\000"
 16751      56454E54 
 16751      5F494E53 
 16751      45525400 
 16752              	.LASF49:
 16753 0125 6C765F70 		.ascii	"lv_point_t\000"
 16753      6F696E74 
 16753      5F7400
 16754              	.LASF220:
 16755 0130 72616469 		.ascii	"radius\000"
 16755      757300
 16756              	.LASF222:
 16757 0137 62675F63 		.ascii	"bg_color\000"
 16757      6F6C6F72 
 16757      00
 16758              	.LASF61:
 16759 0140 6C696E65 		.ascii	"line_height\000"
 16759      5F686569 
 16759      67687400 
 16760              	.LASF79:
 16761 014c 6C765F62 		.ascii	"lv_blend_mode_t\000"
 16761      6C656E64 
 16761      5F6D6F64 
 16761      655F7400 
 16762              	.LASF253:
 16763 015c 62696469 		.ascii	"bidi_dir\000"
 16763      5F646972 
 16763      00
 16764              	.LASF77:
 16765 0165 4C565F42 		.ascii	"LV_BLEND_MODE_MULTIPLY\000"
 16765      4C454E44 
 16765      5F4D4F44 
 16765      455F4D55 
 16765      4C544950 
 16766              	.LASF389:
 16767 017c 64726177 		.ascii	"draw_ctx_size\000"
 16767      5F637478 
 16767      5F73697A 
 16767      6500
 16768              	.LASF533:
 16769 018a 6C765F6D 		.ascii	"lv_memcpy\000"
 16769      656D6370 
 16769      7900
 16770              	.LASF209:
 16771 0194 73706563 		.ascii	"spec_attr\000"
 16771      5F617474 
 16771      7200
 16772              	.LASF482:
ARM GAS  C:\Users\haske\AppData\Local\Temp\ccydbpJh.s 			page 333


 16773 019e 7363726F 		.ascii	"scroll_snap_x\000"
 16773      6C6C5F73 
 16773      6E61705F 
 16773      7800
 16774              	.LASF76:
 16775 01ac 4C565F42 		.ascii	"LV_BLEND_MODE_SUBTRACTIVE\000"
 16775      4C454E44 
 16775      5F4D4F44 
 16775      455F5355 
 16775      42545241 
 16776              	.LASF457:
 16777 01c6 4C565F45 		.ascii	"LV_EVENT_CHILD_CHANGED\000"
 16777      56454E54 
 16777      5F434849 
 16777      4C445F43 
 16777      48414E47 
 16778              	.LASF213:
 16779 01dd 73746174 		.ascii	"state\000"
 16779      6500
 16780              	.LASF96:
 16781 01e3 4C565F53 		.ascii	"LV_STYLE_HEIGHT\000"
 16781      54594C45 
 16781      5F484549 
 16781      47485400 
 16782              	.LASF316:
 16783 01f3 72657065 		.ascii	"repeat_count\000"
 16783      61745F63 
 16783      6F756E74 
 16783      00
 16784              	.LASF259:
 16785 0200 7A6F6F6D 		.ascii	"zoom\000"
 16785      00
 16786              	.LASF196:
 16787 0205 6C765F64 		.ascii	"lv_draw_mask_res_t\000"
 16787      7261775F 
 16787      6D61736B 
 16787      5F726573 
 16787      5F7400
 16788              	.LASF400:
 16789 0218 69735F6C 		.ascii	"is_local\000"
 16789      6F63616C 
 16789      00
 16790              	.LASF294:
 16791 0221 64726177 		.ascii	"draw_rect\000"
 16791      5F726563 
 16791      7400
 16792              	.LASF312:
 16793 022b 5F6C765F 		.ascii	"_lv_timer_t\000"
 16793      74696D65 
 16793      725F7400 
 16794              	.LASF203:
 16795 0237 6C765F64 		.ascii	"lv_draw_sw_blend_dsc_t\000"
 16795      7261775F 
 16795      73775F62 
 16795      6C656E64 
 16795      5F647363 
 16796              	.LASF116:
ARM GAS  C:\Users\haske\AppData\Local\Temp\ccydbpJh.s 			page 334


 16797 024e 4C565F53 		.ascii	"LV_STYLE_BG_MAIN_STOP\000"
 16797      54594C45 
 16797      5F42475F 
 16797      4D41494E 
 16797      5F53544F 
 16798              	.LASF527:
 16799 0264 6C765F64 		.ascii	"lv_draw_sw_blend\000"
 16799      7261775F 
 16799      73775F62 
 16799      6C656E64 
 16799      00
 16800              	.LASF293:
 16801 0275 696E6974 		.ascii	"init_buf\000"
 16801      5F627566 
 16801      00
 16802              	.LASF405:
 16803 027e 636F6E73 		.ascii	"constructor_cb\000"
 16803      74727563 
 16803      746F725F 
 16803      636200
 16804              	.LASF276:
 16805 028d 726F756E 		.ascii	"rounded\000"
 16805      64656400 
 16806              	.LASF177:
 16807 0295 5F4C565F 		.ascii	"_LV_STYLE_LAST_BUILT_IN_PROP\000"
 16807      5354594C 
 16807      455F4C41 
 16807      53545F42 
 16807      55494C54 
 16808              	.LASF292:
 16809 02b2 5F6C765F 		.ascii	"_lv_draw_ctx_t\000"
 16809      64726177 
 16809      5F637478 
 16809      5F7400
 16810              	.LASF435:
 16811 02c1 4C565F45 		.ascii	"LV_EVENT_GESTURE\000"
 16811      56454E54 
 16811      5F474553 
 16811      54555245 
 16811      00
 16812              	.LASF428:
 16813 02d2 4C565F45 		.ascii	"LV_EVENT_LONG_PRESSED\000"
 16813      56454E54 
 16813      5F4C4F4E 
 16813      475F5052 
 16813      45535345 
 16814              	.LASF511:
 16815 02e8 6C617374 		.ascii	"last_src_color\000"
 16815      5F737263 
 16815      5F636F6C 
 16815      6F7200
 16816              	.LASF510:
 16817 02f7 7372635F 		.ascii	"src_stride\000"
 16817      73747269 
 16817      646500
 16818              	.LASF224:
 16819 0302 62675F69 		.ascii	"bg_img_src\000"
ARM GAS  C:\Users\haske\AppData\Local\Temp\ccydbpJh.s 			page 335


 16819      6D675F73 
 16819      726300
 16820              	.LASF127:
 16821 030d 4C565F53 		.ascii	"LV_STYLE_BORDER_WIDTH\000"
 16821      54594C45 
 16821      5F424F52 
 16821      4445525F 
 16821      57494454 
 16822              	.LASF458:
 16823 0323 4C565F45 		.ascii	"LV_EVENT_CHILD_CREATED\000"
 16823      56454E54 
 16823      5F434849 
 16823      4C445F43 
 16823      52454154 
 16824              	.LASF524:
 16825 033a 6D61736B 		.ascii	"mask32\000"
 16825      333200
 16826              	.LASF109:
 16827 0341 4C565F53 		.ascii	"LV_STYLE_PAD_COLUMN\000"
 16827      54594C45 
 16827      5F504144 
 16827      5F434F4C 
 16827      554D4E00 
 16828              	.LASF474:
 16829 0355 6368696C 		.ascii	"children\000"
 16829      6472656E 
 16829      00
 16830              	.LASF427:
 16831 035e 4C565F45 		.ascii	"LV_EVENT_SHORT_CLICKED\000"
 16831      56454E54 
 16831      5F53484F 
 16831      52545F43 
 16831      4C49434B 
 16832              	.LASF119:
 16833 0375 4C565F53 		.ascii	"LV_STYLE_BG_DITHER_MODE\000"
 16833      54594C45 
 16833      5F42475F 
 16833      44495448 
 16833      45525F4D 
 16834              	.LASF234:
 16835 038d 626F7264 		.ascii	"border_side\000"
 16835      65725F73 
 16835      69646500 
 16836              	.LASF1:
 16837 0399 5F5F7569 		.ascii	"__uint8_t\000"
 16837      6E74385F 
 16837      7400
 16838              	.LASF219:
 16839 03a3 775F6C61 		.ascii	"w_layout\000"
 16839      796F7574 
 16839      00
 16840              	.LASF202:
 16841 03ac 626C656E 		.ascii	"blend_mode\000"
 16841      645F6D6F 
 16841      646500
 16842              	.LASF103:
 16843 03b7 4C565F53 		.ascii	"LV_STYLE_RADIUS\000"
ARM GAS  C:\Users\haske\AppData\Local\Temp\ccydbpJh.s 			page 336


 16843      54594C45 
 16843      5F524144 
 16843      49555300 
 16844              	.LASF365:
 16845 03c7 7665725F 		.ascii	"ver_res\000"
 16845      72657300 
 16846              	.LASF215:
 16847 03cf 7363725F 		.ascii	"scr_layout_inv\000"
 16847      6C61796F 
 16847      75745F69 
 16847      6E7600
 16848              	.LASF95:
 16849 03de 4C565F53 		.ascii	"LV_STYLE_MAX_WIDTH\000"
 16849      54594C45 
 16849      5F4D4158 
 16849      5F574944 
 16849      544800
 16850              	.LASF323:
 16851 03f1 73637265 		.ascii	"screens\000"
 16851      656E7300 
 16852              	.LASF122:
 16853 03f9 4C565F53 		.ascii	"LV_STYLE_BG_IMG_RECOLOR\000"
 16853      54594C45 
 16853      5F42475F 
 16853      494D475F 
 16853      5245434F 
 16854              	.LASF139:
 16855 0411 4C565F53 		.ascii	"LV_STYLE_SHADOW_OPA\000"
 16855      54594C45 
 16855      5F534841 
 16855      444F575F 
 16855      4F504100 
 16856              	.LASF516:
 16857 0425 66696C6C 		.ascii	"fill_set_px\000"
 16857      5F736574 
 16857      5F707800 
 16858              	.LASF170:
 16859 0431 4C565F53 		.ascii	"LV_STYLE_TRANSFORM_HEIGHT\000"
 16859      54594C45 
 16859      5F545241 
 16859      4E53464F 
 16859      524D5F48 
 16860              	.LASF107:
 16861 044b 4C565F53 		.ascii	"LV_STYLE_PAD_RIGHT\000"
 16861      54594C45 
 16861      5F504144 
 16861      5F524947 
 16861      485400
 16862              	.LASF423:
 16863 045e 4C565F45 		.ascii	"LV_EVENT_ALL\000"
 16863      56454E54 
 16863      5F414C4C 
 16863      00
 16864              	.LASF338:
 16865 046b 6C617374 		.ascii	"last_activity_time\000"
 16865      5F616374 
 16865      69766974 
ARM GAS  C:\Users\haske\AppData\Local\Temp\ccydbpJh.s 			page 337


 16865      795F7469 
 16865      6D6500
 16866              	.LASF9:
 16867 047e 6C6F6E67 		.ascii	"long int\000"
 16867      20696E74 
 16867      00
 16868              	.LASF167:
 16869 0487 4C565F53 		.ascii	"LV_STYLE_TRANSITION\000"
 16869      54594C45 
 16869      5F545241 
 16869      4E534954 
 16869      494F4E00 
 16870              	.LASF375:
 16871 049b 726F7461 		.ascii	"rotated\000"
 16871      74656400 
 16872              	.LASF484:
 16873 04a3 7363726F 		.ascii	"scroll_dir\000"
 16873      6C6C5F64 
 16873      697200
 16874              	.LASF411:
 16875 04ae 67726F75 		.ascii	"group_def\000"
 16875      705F6465 
 16875      6600
 16876              	.LASF388:
 16877 04b8 64726177 		.ascii	"draw_ctx_deinit\000"
 16877      5F637478 
 16877      5F646569 
 16877      6E697400 
 16878              	.LASF123:
 16879 04c8 4C565F53 		.ascii	"LV_STYLE_BG_IMG_RECOLOR_OPA\000"
 16879      54594C45 
 16879      5F42475F 
 16879      494D475F 
 16879      5245434F 
 16880              	.LASF221:
 16881 04e4 62675F6F 		.ascii	"bg_opa\000"
 16881      706100
 16882              	.LASF321:
 16883 04eb 72656672 		.ascii	"refr_timer\000"
 16883      5F74696D 
 16883      657200
 16884              	.LASF257:
 16885 04f6 6C765F64 		.ascii	"lv_draw_label_dsc_t\000"
 16885      7261775F 
 16885      6C616265 
 16885      6C5F6473 
 16885      635F7400 
 16886              	.LASF394:
 16887 050a 6C765F73 		.ascii	"lv_state_t\000"
 16887      74617465 
 16887      5F7400
 16888              	.LASF250:
 16889 0515 73656C5F 		.ascii	"sel_bg_color\000"
 16889      62675F63 
 16889      6F6C6F72 
 16889      00
 16890              	.LASF509:
ARM GAS  C:\Users\haske\AppData\Local\Temp\ccydbpJh.s 			page 338


 16891 0522 6D61705F 		.ascii	"map_blended\000"
 16891      626C656E 
 16891      64656400 
 16892              	.LASF343:
 16893 052e 65646765 		.ascii	"edge_cb\000"
 16893      5F636200 
 16894              	.LASF335:
 16895 0536 696E765F 		.ascii	"inv_area_joined\000"
 16895      61726561 
 16895      5F6A6F69 
 16895      6E656400 
 16896              	.LASF124:
 16897 0546 4C565F53 		.ascii	"LV_STYLE_BG_IMG_TILED\000"
 16897      54594C45 
 16897      5F42475F 
 16897      494D475F 
 16897      54494C45 
 16898              	.LASF391:
 16899 055c 62617365 		.ascii	"base_draw\000"
 16899      5F647261 
 16899      7700
 16900              	.LASF520:
 16901 0566 66696C6C 		.ascii	"fill_normal\000"
 16901      5F6E6F72 
 16901      6D616C00 
 16902              	.LASF326:
 16903 0572 7363725F 		.ascii	"scr_to_load\000"
 16903      746F5F6C 
 16903      6F616400 
 16904              	.LASF492:
 16905 057e 61726561 		.ascii	"area_p\000"
 16905      5F7000
 16906              	.LASF350:
 16907 0585 68656164 		.ascii	"head\000"
 16907      00
 16908              	.LASF126:
 16909 058a 4C565F53 		.ascii	"LV_STYLE_BORDER_OPA\000"
 16909      54594C45 
 16909      5F424F52 
 16909      4445525F 
 16909      4F504100 
 16910              	.LASF450:
 16911 059e 4C565F45 		.ascii	"LV_EVENT_DRAW_PART_END\000"
 16911      56454E54 
 16911      5F445241 
 16911      575F5041 
 16911      52545F45 
 16912              	.LASF344:
 16913 05b5 66726F7A 		.ascii	"frozen\000"
 16913      656E00
 16914              	.LASF304:
 16915 05bc 62756666 		.ascii	"buffer_copy\000"
 16915      65725F63 
 16915      6F707900 
 16916              	.LASF515:
 16917 05c8 636F6C6F 		.ascii	"color_blend_true_color_multiply\000"
 16917      725F626C 
ARM GAS  C:\Users\haske\AppData\Local\Temp\ccydbpJh.s 			page 339


 16917      656E645F 
 16917      74727565 
 16917      5F636F6C 
 16918              	.LASF235:
 16919 05e8 6F75746C 		.ascii	"outline_color\000"
 16919      696E655F 
 16919      636F6C6F 
 16919      7200
 16920              	.LASF138:
 16921 05f6 4C565F53 		.ascii	"LV_STYLE_SHADOW_COLOR\000"
 16921      54594C45 
 16921      5F534841 
 16921      444F575F 
 16921      434F4C4F 
 16922              	.LASF75:
 16923 060c 4C565F42 		.ascii	"LV_BLEND_MODE_ADDITIVE\000"
 16923      4C454E44 
 16923      5F4D4F44 
 16923      455F4144 
 16923      44495449 
 16924              	.LASF523:
 16925 0623 785F656E 		.ascii	"x_end4\000"
 16925      643400
 16926              	.LASF217:
 16927 062a 7374796C 		.ascii	"style_cnt\000"
 16927      655F636E 
 16927      7400
 16928              	.LASF313:
 16929 0634 70657269 		.ascii	"period\000"
 16929      6F6400
 16930              	.LASF214:
 16931 063b 6C61796F 		.ascii	"layout_inv\000"
 16931      75745F69 
 16931      6E7600
 16932              	.LASF399:
 16933 0646 73656C65 		.ascii	"selector\000"
 16933      63746F72 
 16933      00
 16934              	.LASF2:
 16935 064f 7369676E 		.ascii	"signed char\000"
 16935      65642063 
 16935      68617200 
 16936              	.LASF17:
 16937 065b 75696E74 		.ascii	"uint8_t\000"
 16937      385F7400 
 16938              	.LASF299:
 16939 0663 64726177 		.ascii	"draw_line\000"
 16939      5F6C696E 
 16939      6500
 16940              	.LASF364:
 16941 066d 686F725F 		.ascii	"hor_res\000"
 16941      72657300 
 16942              	.LASF200:
 16943 0675 6D61736B 		.ascii	"mask_res\000"
 16943      5F726573 
 16943      00
 16944              	.LASF229:
ARM GAS  C:\Users\haske\AppData\Local\Temp\ccydbpJh.s 			page 340


 16945 067e 62675F69 		.ascii	"bg_img_tiled\000"
 16945      6D675F74 
 16945      696C6564 
 16945      00
 16946              	.LASF115:
 16947 068b 4C565F53 		.ascii	"LV_STYLE_BG_GRAD_DIR\000"
 16947      54594C45 
 16947      5F42475F 
 16947      47524144 
 16947      5F444952 
 16948              	.LASF60:
 16949 06a0 6765745F 		.ascii	"get_glyph_bitmap\000"
 16949      676C7970 
 16949      685F6269 
 16949      746D6170 
 16949      00
 16950              	.LASF274:
 16951 06b1 656E645F 		.ascii	"end_angle\000"
 16951      616E676C 
 16951      6500
 16952              	.LASF42:
 16953 06bb 626C7565 		.ascii	"blue\000"
 16953      00
 16954              	.LASF227:
 16955 06c0 62675F69 		.ascii	"bg_img_opa\000"
 16955      6D675F6F 
 16955      706100
 16956              	.LASF101:
 16957 06cb 4C565F53 		.ascii	"LV_STYLE_ALIGN\000"
 16957      54594C45 
 16957      5F414C49 
 16957      474E00
 16958              	.LASF3:
 16959 06da 756E7369 		.ascii	"unsigned char\000"
 16959      676E6564 
 16959      20636861 
 16959      7200
 16960              	.LASF327:
 16961 06e8 746F705F 		.ascii	"top_layer\000"
 16961      6C617965 
 16961      7200
 16962              	.LASF467:
 16963 06f2 4C565F45 		.ascii	"LV_EVENT_GET_SELF_SIZE\000"
 16963      56454E54 
 16963      5F474554 
 16963      5F53454C 
 16963      465F5349 
 16964              	.LASF444:
 16965 0709 4C565F45 		.ascii	"LV_EVENT_DRAW_MAIN\000"
 16965      56454E54 
 16965      5F445241 
 16965      575F4D41 
 16965      494E00
 16966              	.LASF272:
 16967 071c 6C765F64 		.ascii	"lv_draw_line_dsc_t\000"
 16967      7261775F 
 16967      6C696E65 
ARM GAS  C:\Users\haske\AppData\Local\Temp\ccydbpJh.s 			page 341


 16967      5F647363 
 16967      5F7400
 16968              	.LASF175:
 16969 072f 4C565F53 		.ascii	"LV_STYLE_TRANSFORM_PIVOT_X\000"
 16969      54594C45 
 16969      5F545241 
 16969      4E53464F 
 16969      524D5F50 
 16970              	.LASF176:
 16971 074a 4C565F53 		.ascii	"LV_STYLE_TRANSFORM_PIVOT_Y\000"
 16971      54594C45 
 16971      5F545241 
 16971      4E53464F 
 16971      524D5F50 
 16972              	.LASF473:
 16973 0765 6C765F67 		.ascii	"lv_group_t\000"
 16973      726F7570 
 16973      5F7400
 16974              	.LASF489:
 16975 0770 5F6C765F 		.ascii	"_lv_obj_spec_attr_t\000"
 16975      6F626A5F 
 16975      73706563 
 16975      5F617474 
 16975      725F7400 
 16976              	.LASF141:
 16977 0784 4C565F53 		.ascii	"LV_STYLE_IMG_RECOLOR\000"
 16977      54594C45 
 16977      5F494D47 
 16977      5F524543 
 16977      4F4C4F52 
 16978              	.LASF287:
 16979 0799 61726561 		.ascii	"area_act\000"
 16979      5F616374 
 16979      00
 16980              	.LASF149:
 16981 07a2 4C565F53 		.ascii	"LV_STYLE_ARC_WIDTH\000"
 16981      54594C45 
 16981      5F415243 
 16981      5F574944 
 16981      544800
 16982              	.LASF56:
 16983 07b5 6F66735F 		.ascii	"ofs_x\000"
 16983      7800
 16984              	.LASF57:
 16985 07bb 6F66735F 		.ascii	"ofs_y\000"
 16985      7900
 16986              	.LASF73:
 16987 07c1 6C765F62 		.ascii	"lv_base_dir_t\000"
 16987      6173655F 
 16987      6469725F 
 16987      7400
 16988              	.LASF332:
 16989 07cf 72656E64 		.ascii	"rendering_in_progress\000"
 16989      6572696E 
 16989      675F696E 
 16989      5F70726F 
 16989      67726573 
ARM GAS  C:\Users\haske\AppData\Local\Temp\ccydbpJh.s 			page 342


 16990              	.LASF218:
 16991 07e5 685F6C61 		.ascii	"h_layout\000"
 16991      796F7574 
 16991      00
 16992              	.LASF359:
 16993 07ee 666C7573 		.ascii	"flushing_last\000"
 16993      68696E67 
 16993      5F6C6173 
 16993      7400
 16994              	.LASF69:
 16995 07fc 5F426F6F 		.ascii	"_Bool\000"
 16995      6C00
 16996              	.LASF481:
 16997 0802 7363726F 		.ascii	"scrollbar_mode\000"
 16997      6C6C6261 
 16997      725F6D6F 
 16997      646500
 16998              	.LASF367:
 16999 0811 70687973 		.ascii	"physical_ver_res\000"
 16999      6963616C 
 16999      5F766572 
 16999      5F726573 
 16999      00
 17000              	.LASF535:
 17001 0822 6C765F61 		.ascii	"lv_area_get_size\000"
 17001      7265615F 
 17001      6765745F 
 17001      73697A65 
 17001      00
 17002              	.LASF290:
 17003 0833 6F726967 		.ascii	"original\000"
 17003      696E616C 
 17003      00
 17004              	.LASF171:
 17005 083c 4C565F53 		.ascii	"LV_STYLE_TRANSLATE_X\000"
 17005      54594C45 
 17005      5F545241 
 17005      4E534C41 
 17005      54455F58 
 17006              	.LASF172:
 17007 0851 4C565F53 		.ascii	"LV_STYLE_TRANSLATE_Y\000"
 17007      54594C45 
 17007      5F545241 
 17007      4E534C41 
 17007      54455F59 
 17008              	.LASF537:
 17009 0866 474E5520 		.ascii	"GNU C11 5.4.1 20160609 (release) [ARM/embedded-5-br"
 17009      43313120 
 17009      352E342E 
 17009      31203230 
 17009      31363036 
 17010 0899 616E6368 		.ascii	"anch revision 237715] -mcpu=cortex-m0plus -mthumb -"
 17010      20726576 
 17010      6973696F 
 17010      6E203233 
 17010      37373135 
 17011 08cc 67202D4F 		.ascii	"g -Og -ffunction-sections -ffat-lto-objects\000"
ARM GAS  C:\Users\haske\AppData\Local\Temp\ccydbpJh.s 			page 343


 17011      67202D66 
 17011      66756E63 
 17011      74696F6E 
 17011      2D736563 
 17012              	.LASF498:
 17013 08f8 64657374 		.ascii	"dest_buf\000"
 17013      5F627566 
 17013      00
 17014              	.LASF420:
 17015 0901 73746F70 		.ascii	"stop_processing\000"
 17015      5F70726F 
 17015      63657373 
 17015      696E6700 
 17016              	.LASF183:
 17017 0911 76616C75 		.ascii	"value\000"
 17017      6500
 17018              	.LASF212:
 17019 0917 666C6167 		.ascii	"flags\000"
 17019      7300
 17020              	.LASF281:
 17021 091d 6C765F64 		.ascii	"lv_draw_layer_flags_t\000"
 17021      7261775F 
 17021      6C617965 
 17021      725F666C 
 17021      6167735F 
 17022              	.LASF28:
 17023 0933 63686172 		.ascii	"char\000"
 17023      00
 17024              	.LASF265:
 17025 0938 6C765F64 		.ascii	"lv_draw_img_dsc_t\000"
 17025      7261775F 
 17025      696D675F 
 17025      6473635F 
 17025      7400
 17026              	.LASF64:
 17027 094a 756E6465 		.ascii	"underline_position\000"
 17027      726C696E 
 17027      655F706F 
 17027      73697469 
 17027      6F6E00
 17028              	.LASF309:
 17029 095d 6C617965 		.ascii	"layer_instance_size\000"
 17029      725F696E 
 17029      7374616E 
 17029      63655F73 
 17029      697A6500 
 17030              	.LASF502:
 17031 0971 6D61736B 		.ascii	"mask_stride\000"
 17031      5F737472 
 17031      69646500 
 17032              	.LASF268:
 17033 097d 64617368 		.ascii	"dash_gap\000"
 17033      5F676170 
 17033      00
 17034              	.LASF519:
 17035 0986 6D61705F 		.ascii	"map_set_px\000"
 17035      7365745F 
ARM GAS  C:\Users\haske\AppData\Local\Temp\ccydbpJh.s 			page 344


 17035      707800
 17036              	.LASF301:
 17037 0991 64726177 		.ascii	"draw_transform\000"
 17037      5F747261 
 17037      6E73666F 
 17037      726D00
 17038              	.LASF371:
 17039 09a0 64697265 		.ascii	"direct_mode\000"
 17039      63745F6D 
 17039      6F646500 
 17040              	.LASF441:
 17041 09ac 4C565F45 		.ascii	"LV_EVENT_COVER_CHECK\000"
 17041      56454E54 
 17041      5F434F56 
 17041      45525F43 
 17041      4845434B 
 17042              	.LASF110:
 17043 09c1 4C565F53 		.ascii	"LV_STYLE_BASE_DIR\000"
 17043      54594C45 
 17043      5F424153 
 17043      455F4449 
 17043      5200
 17044              	.LASF132:
 17045 09d3 4C565F53 		.ascii	"LV_STYLE_OUTLINE_OPA\000"
 17045      54594C45 
 17045      5F4F5554 
 17045      4C494E45 
 17045      5F4F5041 
 17046              	.LASF88:
 17047 09e8 73746F70 		.ascii	"stops_count\000"
 17047      735F636F 
 17047      756E7400 
 17048              	.LASF374:
 17049 09f4 616E7469 		.ascii	"antialiasing\000"
 17049      616C6961 
 17049      73696E67 
 17049      00
 17050              	.LASF320:
 17051 0a01 64726976 		.ascii	"driver\000"
 17051      657200
 17052              	.LASF6:
 17053 0a08 5F5F7569 		.ascii	"__uint16_t\000"
 17053      6E743136 
 17053      5F7400
 17054              	.LASF440:
 17055 0a13 4C565F45 		.ascii	"LV_EVENT_HIT_TEST\000"
 17055      56454E54 
 17055      5F484954 
 17055      5F544553 
 17055      5400
 17056              	.LASF517:
 17057 0a25 6D61736B 		.ascii	"mask_stide\000"
 17057      5F737469 
 17057      646500
 17058              	.LASF237:
 17059 0a30 6F75746C 		.ascii	"outline_pad\000"
 17059      696E655F 
ARM GAS  C:\Users\haske\AppData\Local\Temp\ccydbpJh.s 			page 345


 17059      70616400 
 17060              	.LASF310:
 17061 0a3c 6C765F64 		.ascii	"lv_draw_ctx_t\000"
 17061      7261775F 
 17061      6374785F 
 17061      7400
 17062              	.LASF112:
 17063 0a4a 4C565F53 		.ascii	"LV_STYLE_BG_COLOR\000"
 17063      54594C45 
 17063      5F42475F 
 17063      434F4C4F 
 17063      5200
 17064              	.LASF142:
 17065 0a5c 4C565F53 		.ascii	"LV_STYLE_IMG_RECOLOR_OPA\000"
 17065      54594C45 
 17065      5F494D47 
 17065      5F524543 
 17065      4F4C4F52 
 17066              	.LASF230:
 17067 0a75 626F7264 		.ascii	"border_color\000"
 17067      65725F63 
 17067      6F6C6F72 
 17067      00
 17068              	.LASF168:
 17069 0a82 4C565F53 		.ascii	"LV_STYLE_BLEND_MODE\000"
 17069      54594C45 
 17069      5F424C45 
 17069      4E445F4D 
 17069      4F444500 
 17070              	.LASF51:
 17071 0a96 6C765F64 		.ascii	"lv_dir_t\000"
 17071      69725F74 
 17071      00
 17072              	.LASF462:
 17073 0a9f 4C565F45 		.ascii	"LV_EVENT_SCREEN_LOADED\000"
 17073      56454E54 
 17073      5F534352 
 17073      45454E5F 
 17073      4C4F4144 
 17074              	.LASF182:
 17075 0ab6 70726F70 		.ascii	"prop\000"
 17075      00
 17076              	.LASF187:
 17077 0abb 636F6E73 		.ascii	"const_props\000"
 17077      745F7072 
 17077      6F707300 
 17078              	.LASF402:
 17079 0ac7 5F6C765F 		.ascii	"_lv_obj_style_t\000"
 17079      6F626A5F 
 17079      7374796C 
 17079      655F7400 
 17080              	.LASF393:
 17081 0ad7 6C765F64 		.ascii	"lv_draw_sw_ctx_t\000"
 17081      7261775F 
 17081      73775F63 
 17081      74785F74 
 17081      00
ARM GAS  C:\Users\haske\AppData\Local\Temp\ccydbpJh.s 			page 346


 17082              	.LASF233:
 17083 0ae8 626F7264 		.ascii	"border_post\000"
 17083      65725F70 
 17083      6F737400 
 17084              	.LASF477:
 17085 0af4 6576656E 		.ascii	"event_dsc\000"
 17085      745F6473 
 17085      6300
 17086              	.LASF358:
 17087 0afe 666C7573 		.ascii	"flushing\000"
 17087      68696E67 
 17087      00
 17088              	.LASF144:
 17089 0b07 4C565F53 		.ascii	"LV_STYLE_LINE_DASH_WIDTH\000"
 17089      54594C45 
 17089      5F4C494E 
 17089      455F4441 
 17089      53485F57 
 17090              	.LASF241:
 17091 0b20 73686164 		.ascii	"shadow_ofs_x\000"
 17091      6F775F6F 
 17091      66735F78 
 17091      00
 17092              	.LASF169:
 17093 0b2d 4C565F53 		.ascii	"LV_STYLE_TRANSFORM_WIDTH\000"
 17093      54594C45 
 17093      5F545241 
 17093      4E53464F 
 17093      524D5F57 
 17094              	.LASF318:
 17095 0b46 6C765F74 		.ascii	"lv_timer_t\000"
 17095      696D6572 
 17095      5F7400
 17096              	.LASF476:
 17097 0b51 67726F75 		.ascii	"group_p\000"
 17097      705F7000 
 17098              	.LASF181:
 17099 0b59 6C765F73 		.ascii	"lv_style_prop_t\000"
 17099      74796C65 
 17099      5F70726F 
 17099      705F7400 
 17100              	.LASF269:
 17101 0b69 726F756E 		.ascii	"round_start\000"
 17101      645F7374 
 17101      61727400 
 17102              	.LASF478:
 17103 0b75 7363726F 		.ascii	"scroll\000"
 17103      6C6C00
 17104              	.LASF66:
 17105 0b7c 66616C6C 		.ascii	"fallback\000"
 17105      6261636B 
 17105      00
 17106              	.LASF186:
 17107 0b85 76616C75 		.ascii	"values_and_props\000"
 17107      65735F61 
 17107      6E645F70 
 17107      726F7073 
ARM GAS  C:\Users\haske\AppData\Local\Temp\ccydbpJh.s 			page 347


 17107      00
 17108              	.LASF500:
 17109 0b96 64657374 		.ascii	"dest_stride\000"
 17109      5F737472 
 17109      69646500 
 17110              	.LASF373:
 17111 0ba2 73775F72 		.ascii	"sw_rotate\000"
 17111      6F746174 
 17111      6500
 17112              	.LASF486:
 17113 0bac 6C617965 		.ascii	"layer_type\000"
 17113      725F7479 
 17113      706500
 17114              	.LASF166:
 17115 0bb7 4C565F53 		.ascii	"LV_STYLE_ANIM_SPEED\000"
 17115      54594C45 
 17115      5F414E49 
 17115      4D5F5350 
 17115      45454400 
 17116              	.LASF50:
 17117 0bcb 6C765F61 		.ascii	"lv_area_t\000"
 17117      7265615F 
 17117      7400
 17118              	.LASF305:
 17119 0bd5 6C617965 		.ascii	"layer_init\000"
 17119      725F696E 
 17119      697400
 17120              	.LASF130:
 17121 0be0 4C565F53 		.ascii	"LV_STYLE_OUTLINE_WIDTH\000"
 17121      54594C45 
 17121      5F4F5554 
 17121      4C494E45 
 17121      5F574944 
 17122              	.LASF480:
 17123 0bf7 6578745F 		.ascii	"ext_draw_size\000"
 17123      64726177 
 17123      5F73697A 
 17123      6500
 17124              	.LASF472:
 17125 0c05 6C765F67 		.ascii	"lv_group_edge_cb_t\000"
 17125      726F7570 
 17125      5F656467 
 17125      655F6362 
 17125      5F7400
 17126              	.LASF430:
 17127 0c18 4C565F45 		.ascii	"LV_EVENT_CLICKED\000"
 17127      56454E54 
 17127      5F434C49 
 17127      434B4544 
 17127      00
 17128              	.LASF92:
 17129 0c29 4C565F53 		.ascii	"LV_STYLE_PROP_INV\000"
 17129      54594C45 
 17129      5F50524F 
 17129      505F494E 
 17129      5600
 17130              	.LASF158:
ARM GAS  C:\Users\haske\AppData\Local\Temp\ccydbpJh.s 			page 348


 17131 0c3b 4C565F53 		.ascii	"LV_STYLE_TEXT_LINE_SPACE\000"
 17131      54594C45 
 17131      5F544558 
 17131      545F4C49 
 17131      4E455F53 
 17132              	.LASF422:
 17133 0c54 6C765F6F 		.ascii	"lv_obj_class_t\000"
 17133      626A5F63 
 17133      6C617373 
 17133      5F7400
 17134              	.LASF184:
 17135 0c63 6C765F73 		.ascii	"lv_style_const_prop_t\000"
 17135      74796C65 
 17135      5F636F6E 
 17135      73745F70 
 17135      726F705F 
 17136              	.LASF445:
 17137 0c79 4C565F45 		.ascii	"LV_EVENT_DRAW_MAIN_END\000"
 17137      56454E54 
 17137      5F445241 
 17137      575F4D41 
 17137      494E5F45 
 17138              	.LASF208:
 17139 0c90 70617265 		.ascii	"parent\000"
 17139      6E7400
 17140              	.LASF372:
 17141 0c97 66756C6C 		.ascii	"full_refresh\000"
 17141      5F726566 
 17141      72657368 
 17141      00
 17142              	.LASF270:
 17143 0ca4 726F756E 		.ascii	"round_end\000"
 17143      645F656E 
 17143      6400
 17144              	.LASF275:
 17145 0cae 696D675F 		.ascii	"img_src\000"
 17145      73726300 
 17146              	.LASF401:
 17147 0cb6 69735F74 		.ascii	"is_trans\000"
 17147      72616E73 
 17147      00
 17148              	.LASF243:
 17149 0cbf 73686164 		.ascii	"shadow_spread\000"
 17149      6F775F73 
 17149      70726561 
 17149      6400
 17150              	.LASF165:
 17151 0ccd 4C565F53 		.ascii	"LV_STYLE_ANIM_TIME\000"
 17151      54594C45 
 17151      5F414E49 
 17151      4D5F5449 
 17151      4D4500
 17152              	.LASF105:
 17153 0ce0 4C565F53 		.ascii	"LV_STYLE_PAD_BOTTOM\000"
 17153      54594C45 
 17153      5F504144 
 17153      5F424F54 
ARM GAS  C:\Users\haske\AppData\Local\Temp\ccydbpJh.s 			page 349


 17153      544F4D00 
 17154              	.LASF408:
 17155 0cf4 77696474 		.ascii	"width_def\000"
 17155      685F6465 
 17155      6600
 17156              	.LASF379:
 17157 0cfe 636C6561 		.ascii	"clear_cb\000"
 17157      725F6362 
 17157      00
 17158              	.LASF113:
 17159 0d07 4C565F53 		.ascii	"LV_STYLE_BG_OPA\000"
 17159      54594C45 
 17159      5F42475F 
 17159      4F504100 
 17160              	.LASF148:
 17161 0d17 4C565F53 		.ascii	"LV_STYLE_LINE_OPA\000"
 17161      54594C45 
 17161      5F4C494E 
 17161      455F4F50 
 17161      4100
 17162              	.LASF191:
 17163 0d29 6C765F73 		.ascii	"lv_style_t\000"
 17163      74796C65 
 17163      5F7400
 17164              	.LASF504:
 17165 0d34 6C617374 		.ascii	"last_dest_color\000"
 17165      5F646573 
 17165      745F636F 
 17165      6C6F7200 
 17166              	.LASF210:
 17167 0d44 7374796C 		.ascii	"styles\000"
 17167      657300
 17168              	.LASF475:
 17169 0d4b 6368696C 		.ascii	"child_cnt\000"
 17169      645F636E 
 17169      7400
 17170              	.LASF140:
 17171 0d55 4C565F53 		.ascii	"LV_STYLE_IMG_OPA\000"
 17171      54594C45 
 17171      5F494D47 
 17171      5F4F5041 
 17171      00
 17172              	.LASF173:
 17173 0d66 4C565F53 		.ascii	"LV_STYLE_TRANSFORM_ZOOM\000"
 17173      54594C45 
 17173      5F545241 
 17173      4E53464F 
 17173      524D5F5A 
 17174              	.LASF439:
 17175 0d7e 4C565F45 		.ascii	"LV_EVENT_LEAVE\000"
 17175      56454E54 
 17175      5F4C4541 
 17175      564500
 17176              	.LASF11:
 17177 0d8d 6C6F6E67 		.ascii	"long unsigned int\000"
 17177      20756E73 
 17177      69676E65 
ARM GAS  C:\Users\haske\AppData\Local\Temp\ccydbpJh.s 			page 350


 17177      6420696E 
 17177      7400
 17178              	.LASF483:
 17179 0d9f 7363726F 		.ascii	"scroll_snap_y\000"
 17179      6C6C5F73 
 17179      6E61705F 
 17179      7900
 17180              	.LASF204:
 17181 0dad 6C765F69 		.ascii	"lv_img_cf_t\000"
 17181      6D675F63 
 17181      665F7400 
 17182              	.LASF155:
 17183 0db9 4C565F53 		.ascii	"LV_STYLE_TEXT_OPA\000"
 17183      54594C45 
 17183      5F544558 
 17183      545F4F50 
 17183      4100
 17184              	.LASF273:
 17185 0dcb 73746172 		.ascii	"start_angle\000"
 17185      745F616E 
 17185      676C6500 
 17186              	.LASF417:
 17187 0dd7 70617261 		.ascii	"param\000"
 17187      6D00
 17188              	.LASF414:
 17189 0ddd 74617267 		.ascii	"target\000"
 17189      657400
 17190              	.LASF330:
 17191 0de4 64726177 		.ascii	"draw_prev_over_act\000"
 17191      5F707265 
 17191      765F6F76 
 17191      65725F61 
 17191      637400
 17192              	.LASF308:
 17193 0df7 6C617965 		.ascii	"layer_destroy\000"
 17193      725F6465 
 17193      7374726F 
 17193      7900
 17194              	.LASF267:
 17195 0e05 64617368 		.ascii	"dash_width\000"
 17195      5F776964 
 17195      746800
 17196              	.LASF361:
 17197 0e10 6C617374 		.ascii	"last_part\000"
 17197      5F706172 
 17197      7400
 17198              	.LASF410:
 17199 0e1a 65646974 		.ascii	"editable\000"
 17199      61626C65 
 17199      00
 17200              	.LASF194:
 17201 0e23 4C565F44 		.ascii	"LV_DRAW_MASK_RES_CHANGED\000"
 17201      5241575F 
 17201      4D41534B 
 17201      5F524553 
 17201      5F434841 
 17202              	.LASF322:
ARM GAS  C:\Users\haske\AppData\Local\Temp\ccydbpJh.s 			page 351


 17203 0e3c 7468656D 		.ascii	"theme\000"
 17203      6500
 17204              	.LASF368:
 17205 0e42 6F666673 		.ascii	"offset_x\000"
 17205      65745F78 
 17205      00
 17206              	.LASF369:
 17207 0e4b 6F666673 		.ascii	"offset_y\000"
 17207      65745F79 
 17207      00
 17208              	.LASF52:
 17209 0e54 7265736F 		.ascii	"resolved_font\000"
 17209      6C766564 
 17209      5F666F6E 
 17209      7400
 17210              	.LASF340:
 17211 0e62 6F626A5F 		.ascii	"obj_ll\000"
 17211      6C6C00
 17212              	.LASF295:
 17213 0e69 64726177 		.ascii	"draw_arc\000"
 17213      5F617263 
 17213      00
 17214              	.LASF147:
 17215 0e72 4C565F53 		.ascii	"LV_STYLE_LINE_COLOR\000"
 17215      54594C45 
 17215      5F4C494E 
 17215      455F434F 
 17215      4C4F5200 
 17216              	.LASF30:
 17217 0e86 4C565F4F 		.ascii	"LV_OPA_0\000"
 17217      50415F30 
 17217      00
 17218              	.LASF108:
 17219 0e8f 4C565F53 		.ascii	"LV_STYLE_PAD_ROW\000"
 17219      54594C45 
 17219      5F504144 
 17219      5F524F57 
 17219      00
 17220              	.LASF353:
 17221 0ea0 5F6C765F 		.ascii	"_lv_disp_draw_buf_t\000"
 17221      64697370 
 17221      5F647261 
 17221      775F6275 
 17221      665F7400 
 17222              	.LASF283:
 17223 0eb4 6275665F 		.ascii	"buf_area\000"
 17223      61726561 
 17223      00
 17224              	.LASF22:
 17225 0ebd 75696E74 		.ascii	"uintptr_t\000"
 17225      7074725F 
 17225      7400
 17226              	.LASF261:
 17227 0ec7 7265636F 		.ascii	"recolor\000"
 17227      6C6F7200 
 17228              	.LASF453:
 17229 0ecf 4C565F45 		.ascii	"LV_EVENT_REFRESH\000"
ARM GAS  C:\Users\haske\AppData\Local\Temp\ccydbpJh.s 			page 352


 17229      56454E54 
 17229      5F524546 
 17229      52455348 
 17229      00
 17230              	.LASF412:
 17231 0ee0 696E7374 		.ascii	"instance_size\000"
 17231      616E6365 
 17231      5F73697A 
 17231      6500
 17232              	.LASF258:
 17233 0eee 616E676C 		.ascii	"angle\000"
 17233      6500
 17234              	.LASF106:
 17235 0ef4 4C565F53 		.ascii	"LV_STYLE_PAD_LEFT\000"
 17235      54594C45 
 17235      5F504144 
 17235      5F4C4546 
 17235      5400
 17236              	.LASF387:
 17237 0f06 64726177 		.ascii	"draw_ctx_init\000"
 17237      5F637478 
 17237      5F696E69 
 17237      7400
 17238              	.LASF415:
 17239 0f14 63757272 		.ascii	"current_target\000"
 17239      656E745F 
 17239      74617267 
 17239      657400
 17240              	.LASF459:
 17241 0f23 4C565F45 		.ascii	"LV_EVENT_CHILD_DELETED\000"
 17241      56454E54 
 17241      5F434849 
 17241      4C445F44 
 17241      454C4554 
 17242              	.LASF442:
 17243 0f3a 4C565F45 		.ascii	"LV_EVENT_REFR_EXT_DRAW_SIZE\000"
 17243      56454E54 
 17243      5F524546 
 17243      525F4558 
 17243      545F4452 
 17244              	.LASF495:
 17245 0f56 72657375 		.ascii	"result\000"
 17245      6C7400
 17246              	.LASF296:
 17247 0f5d 64726177 		.ascii	"draw_img_decoded\000"
 17247      5F696D67 
 17247      5F646563 
 17247      6F646564 
 17247      00
 17248              	.LASF311:
 17249 0f6e 6C765F74 		.ascii	"lv_timer_cb_t\000"
 17249      696D6572 
 17249      5F63625F 
 17249      7400
 17250              	.LASF164:
 17251 0f7c 4C565F53 		.ascii	"LV_STYLE_ANIM\000"
 17251      54594C45 
ARM GAS  C:\Users\haske\AppData\Local\Temp\ccydbpJh.s 			page 353


 17251      5F414E49 
 17251      4D00
 17252              	.LASF99:
 17253 0f8a 4C565F53 		.ascii	"LV_STYLE_X\000"
 17253      54594C45 
 17253      5F5800
 17254              	.LASF160:
 17255 0f95 4C565F53 		.ascii	"LV_STYLE_TEXT_ALIGN\000"
 17255      54594C45 
 17255      5F544558 
 17255      545F414C 
 17255      49474E00 
 17256              	.LASF494:
 17257 0fa9 6C765F63 		.ascii	"lv_color_mix\000"
 17257      6F6C6F72 
 17257      5F6D6978 
 17257      00
 17258              	.LASF205:
 17259 0fb6 5F6C765F 		.ascii	"_lv_font_t\000"
 17259      666F6E74 
 17259      5F7400
 17260              	.LASF381:
 17261 0fc1 77616974 		.ascii	"wait_cb\000"
 17261      5F636200 
 17262              	.LASF10:
 17263 0fc9 5F5F7569 		.ascii	"__uint32_t\000"
 17263      6E743332 
 17263      5F7400
 17264              	.LASF407:
 17265 0fd4 6576656E 		.ascii	"event_cb\000"
 17265      745F6362 
 17265      00
 17266              	.LASF470:
 17267 0fdd 6C765F65 		.ascii	"lv_event_code_t\000"
 17267      76656E74 
 17267      5F636F64 
 17267      655F7400 
 17268              	.LASF80:
 17269 0fed 6C765F74 		.ascii	"lv_text_decor_t\000"
 17269      6578745F 
 17269      6465636F 
 17269      725F7400 
 17270              	.LASF413:
 17271 0ffd 5F6C765F 		.ascii	"_lv_event_t\000"
 17271      6576656E 
 17271      745F7400 
 17272              	.LASF12:
 17273 1009 6C6F6E67 		.ascii	"long long int\000"
 17273      206C6F6E 
 17273      6720696E 
 17273      7400
 17274              	.LASF239:
 17275 1017 73686164 		.ascii	"shadow_color\000"
 17275      6F775F63 
 17275      6F6C6F72 
 17275      00
 17276              	.LASF419:
ARM GAS  C:\Users\haske\AppData\Local\Temp\ccydbpJh.s 			page 354


 17277 1024 64656C65 		.ascii	"deleted\000"
 17277      74656400 
 17278              	.LASF266:
 17279 102c 77696474 		.ascii	"width\000"
 17279      6800
 17280              	.LASF541:
 17281 1032 6C765F63 		.ascii	"lv_color_black\000"
 17281      6F6C6F72 
 17281      5F626C61 
 17281      636B00
 17282              	.LASF199:
 17283 1041 6D61736B 		.ascii	"mask_buf\000"
 17283      5F627566 
 17283      00
 17284              	.LASF536:
 17285 104a 6C765F61 		.ascii	"lv_area_move\000"
 17285      7265615F 
 17285      6D6F7665 
 17285      00
 17286              	.LASF354:
 17287 1057 62756631 		.ascii	"buf1\000"
 17287      00
 17288              	.LASF355:
 17289 105c 62756632 		.ascii	"buf2\000"
 17289      00
 17290              	.LASF174:
 17291 1061 4C565F53 		.ascii	"LV_STYLE_TRANSFORM_ANGLE\000"
 17291      54594C45 
 17291      5F545241 
 17291      4E53464F 
 17291      524D5F41 
 17292              	.LASF278:
 17293 107a 4C565F44 		.ascii	"LV_DRAW_LAYER_FLAG_NONE\000"
 17293      5241575F 
 17293      4C415945 
 17293      525F464C 
 17293      41475F4E 
 17294              	.LASF162:
 17295 1092 4C565F53 		.ascii	"LV_STYLE_COLOR_FILTER_DSC\000"
 17295      54594C45 
 17295      5F434F4C 
 17295      4F525F46 
 17295      494C5445 
 17296              	.LASF72:
 17297 10ac 6C765F74 		.ascii	"lv_text_align_t\000"
 17297      6578745F 
 17297      616C6967 
 17297      6E5F7400 
 17298              	.LASF501:
 17299 10bc 6D61736B 		.ascii	"mask\000"
 17299      00
 17300              	.LASF360:
 17301 10c1 6C617374 		.ascii	"last_area\000"
 17301      5F617265 
 17301      6100
 17302              	.LASF65:
 17303 10cb 756E6465 		.ascii	"underline_thickness\000"
ARM GAS  C:\Users\haske\AppData\Local\Temp\ccydbpJh.s 			page 355


 17303      726C696E 
 17303      655F7468 
 17303      69636B6E 
 17303      65737300 
 17304              	.LASF159:
 17305 10df 4C565F53 		.ascii	"LV_STYLE_TEXT_DECOR\000"
 17305      54594C45 
 17305      5F544558 
 17305      545F4445 
 17305      434F5200 
 17306              	.LASF432:
 17307 10f3 4C565F45 		.ascii	"LV_EVENT_SCROLL_BEGIN\000"
 17307      56454E54 
 17307      5F534352 
 17307      4F4C4C5F 
 17307      42454749 
 17308              	.LASF254:
 17309 1109 616C6967 		.ascii	"align\000"
 17309      6E00
 17310              	.LASF29:
 17311 110f 4C565F4F 		.ascii	"LV_OPA_TRANSP\000"
 17311      50415F54 
 17311      52414E53 
 17311      5000
 17312              	.LASF150:
 17313 111d 4C565F53 		.ascii	"LV_STYLE_ARC_ROUNDED\000"
 17313      54594C45 
 17313      5F415243 
 17313      5F524F55 
 17313      4E444544 
 17314              	.LASF380:
 17315 1132 6D6F6E69 		.ascii	"monitor_cb\000"
 17315      746F725F 
 17315      636200
 17316              	.LASF216:
 17317 113d 736B6970 		.ascii	"skip_trans\000"
 17317      5F747261 
 17317      6E7300
 17318              	.LASF345:
 17319 1148 65646974 		.ascii	"editing\000"
 17319      696E6700 
 17320              	.LASF154:
 17321 1150 4C565F53 		.ascii	"LV_STYLE_TEXT_COLOR\000"
 17321      54594C45 
 17321      5F544558 
 17321      545F434F 
 17321      4C4F5200 
 17322              	.LASF201:
 17323 1164 6D61736B 		.ascii	"mask_area\000"
 17323      5F617265 
 17323      6100
 17324              	.LASF456:
 17325 116e 4C565F45 		.ascii	"LV_EVENT_DELETE\000"
 17325      56454E54 
 17325      5F44454C 
 17325      45544500 
 17326              	.LASF207:
ARM GAS  C:\Users\haske\AppData\Local\Temp\ccydbpJh.s 			page 356


 17327 117e 636C6173 		.ascii	"class_p\000"
 17327      735F7000 
 17328              	.LASF446:
 17329 1186 4C565F45 		.ascii	"LV_EVENT_DRAW_POST_BEGIN\000"
 17329      56454E54 
 17329      5F445241 
 17329      575F504F 
 17329      53545F42 
 17330              	.LASF15:
 17331 119f 756E7369 		.ascii	"unsigned int\000"
 17331      676E6564 
 17331      20696E74 
 17331      00
 17332              	.LASF518:
 17333 11ac 64697370 		.ascii	"disp\000"
 17333      00
 17334              	.LASF317:
 17335 11b1 70617573 		.ascii	"paused\000"
 17335      656400
 17336              	.LASF282:
 17337 11b8 636C6970 		.ascii	"clip_area\000"
 17337      5F617265 
 17337      6100
 17338              	.LASF91:
 17339 11c2 6C765F73 		.ascii	"lv_style_value_t\000"
 17339      74796C65 
 17339      5F76616C 
 17339      75655F74 
 17339      00
 17340              	.LASF248:
 17341 11d3 73656C5F 		.ascii	"sel_end\000"
 17341      656E6400 
 17342              	.LASF180:
 17343 11db 5F4C565F 		.ascii	"_LV_STYLE_PROP_CONST\000"
 17343      5354594C 
 17343      455F5052 
 17343      4F505F43 
 17343      4F4E5354 
 17344              	.LASF286:
 17345 11f0 61726561 		.ascii	"area_full\000"
 17345      5F66756C 
 17345      6C00
 17346              	.LASF255:
 17347 11fa 666C6167 		.ascii	"flag\000"
 17347      00
 17348              	.LASF319:
 17349 11ff 5F6C765F 		.ascii	"_lv_disp_t\000"
 17349      64697370 
 17349      5F7400
 17350              	.LASF451:
 17351 120a 4C565F45 		.ascii	"LV_EVENT_VALUE_CHANGED\000"
 17351      56454E54 
 17351      5F56414C 
 17351      55455F43 
 17351      48414E47 
 17352              	.LASF285:
 17353 1221 5F6C765F 		.ascii	"_lv_draw_layer_ctx_t\000"
ARM GAS  C:\Users\haske\AppData\Local\Temp\ccydbpJh.s 			page 357


 17353      64726177 
 17353      5F6C6179 
 17353      65725F63 
 17353      74785F74 
 17354              	.LASF238:
 17355 1236 6F75746C 		.ascii	"outline_opa\000"
 17355      696E655F 
 17355      6F706100 
 17356              	.LASF334:
 17357 1242 696E765F 		.ascii	"inv_areas\000"
 17357      61726561 
 17357      7300
 17358              	.LASF288:
 17359 124c 6D61785F 		.ascii	"max_row_with_alpha\000"
 17359      726F775F 
 17359      77697468 
 17359      5F616C70 
 17359      686100
 17360              	.LASF469:
 17361 125f 4C565F45 		.ascii	"LV_EVENT_PREPROCESS\000"
 17361      56454E54 
 17361      5F505245 
 17361      50524F43 
 17361      45535300 
 17362              	.LASF263:
 17363 1273 6672616D 		.ascii	"frame_id\000"
 17363      655F6964 
 17363      00
 17364              	.LASF262:
 17365 127c 7265636F 		.ascii	"recolor_opa\000"
 17365      6C6F725F 
 17365      6F706100 
 17366              	.LASF102:
 17367 1288 4C565F53 		.ascii	"LV_STYLE_LAYOUT\000"
 17367      54594C45 
 17367      5F4C4159 
 17367      4F555400 
 17368              	.LASF68:
 17369 1298 6C765F66 		.ascii	"lv_font_glyph_dsc_t\000"
 17369      6F6E745F 
 17369      676C7970 
 17369      685F6473 
 17369      635F7400 
 17370              	.LASF461:
 17371 12ac 4C565F45 		.ascii	"LV_EVENT_SCREEN_LOAD_START\000"
 17371      56454E54 
 17371      5F534352 
 17371      45454E5F 
 17371      4C4F4144 
 17372              	.LASF421:
 17373 12c7 73746F70 		.ascii	"stop_bubbling\000"
 17373      5F627562 
 17373      626C696E 
 17373      6700
 17374              	.LASF236:
 17375 12d5 6F75746C 		.ascii	"outline_width\000"
 17375      696E655F 
ARM GAS  C:\Users\haske\AppData\Local\Temp\ccydbpJh.s 			page 358


 17375      77696474 
 17375      6800
 17376              	.LASF134:
 17377 12e3 4C565F53 		.ascii	"LV_STYLE_SHADOW_WIDTH\000"
 17377      54594C45 
 17377      5F534841 
 17377      444F575F 
 17377      57494454 
 17378              	.LASF425:
 17379 12f9 4C565F45 		.ascii	"LV_EVENT_PRESSING\000"
 17379      56454E54 
 17379      5F505245 
 17379      5353494E 
 17379      4700
 17380              	.LASF111:
 17381 130b 4C565F53 		.ascii	"LV_STYLE_CLIP_CORNER\000"
 17381      54594C45 
 17381      5F434C49 
 17381      505F434F 
 17381      524E4552 
 17382              	.LASF499:
 17383 1320 64657374 		.ascii	"dest_area\000"
 17383      5F617265 
 17383      6100
 17384              	.LASF264:
 17385 132a 616E7469 		.ascii	"antialias\000"
 17385      616C6961 
 17385      7300
 17386              	.LASF404:
 17387 1334 62617365 		.ascii	"base_class\000"
 17387      5F636C61 
 17387      737300
 17388              	.LASF40:
 17389 133f 4C565F4F 		.ascii	"LV_OPA_100\000"
 17389      50415F31 
 17389      303000
 17390              	.LASF429:
 17391 134a 4C565F45 		.ascii	"LV_EVENT_LONG_PRESSED_REPEAT\000"
 17391      56454E54 
 17391      5F4C4F4E 
 17391      475F5052 
 17391      45535345 
 17392              	.LASF508:
 17393 1367 66696C6C 		.ascii	"fill_blended\000"
 17393      5F626C65 
 17393      6E646564 
 17393      00
 17394              	.LASF342:
 17395 1374 666F6375 		.ascii	"focus_cb\000"
 17395      735F6362 
 17395      00
 17396              	.LASF525:
 17397 137d 6D61705F 		.ascii	"map_normal\000"
 17397      6E6F726D 
 17397      616C00
 17398              	.LASF23:
 17399 1388 6C765F72 		.ascii	"lv_res_t\000"
ARM GAS  C:\Users\haske\AppData\Local\Temp\ccydbpJh.s 			page 359


 17399      65735F74 
 17399      00
 17400              	.LASF522:
 17401 1391 6F70615F 		.ascii	"opa_inv\000"
 17401      696E7600 
 17402              	.LASF163:
 17403 1399 4C565F53 		.ascii	"LV_STYLE_COLOR_FILTER_OPA\000"
 17403      54594C45 
 17403      5F434F4C 
 17403      4F525F46 
 17403      494C5445 
 17404              	.LASF356:
 17405 13b3 6275665F 		.ascii	"buf_act\000"
 17405      61637400 
 17406              	.LASF26:
 17407 13bb 6C6F6E67 		.ascii	"long double\000"
 17407      20646F75 
 17407      626C6500 
 17408              	.LASF398:
 17409 13c7 7374796C 		.ascii	"style\000"
 17409      6500
 17410              	.LASF83:
 17411 13cd 6C765F64 		.ascii	"lv_dither_mode_t\000"
 17411      69746865 
 17411      725F6D6F 
 17411      64655F74 
 17411      00
 17412              	.LASF397:
 17413 13de 6C765F73 		.ascii	"lv_scroll_snap_t\000"
 17413      63726F6C 
 17413      6C5F736E 
 17413      61705F74 
 17413      00
 17414              	.LASF195:
 17415 13ef 4C565F44 		.ascii	"LV_DRAW_MASK_RES_UNKNOWN\000"
 17415      5241575F 
 17415      4D41534B 
 17415      5F524553 
 17415      5F554E4B 
 17416              	.LASF416:
 17417 1408 636F6465 		.ascii	"code\000"
 17417      00
 17418              	.LASF63:
 17419 140d 73756270 		.ascii	"subpx\000"
 17419      7800
 17420              	.LASF41:
 17421 1413 4C565F4F 		.ascii	"LV_OPA_COVER\000"
 17421      50415F43 
 17421      4F564552 
 17421      00
 17422              	.LASF303:
 17423 1420 77616974 		.ascii	"wait_for_finish\000"
 17423      5F666F72 
 17423      5F66696E 
 17423      69736800 
 17424              	.LASF228:
 17425 1430 62675F69 		.ascii	"bg_img_recolor_opa\000"
ARM GAS  C:\Users\haske\AppData\Local\Temp\ccydbpJh.s 			page 360


 17425      6D675F72 
 17425      65636F6C 
 17425      6F725F6F 
 17425      706100
 17426              	.LASF280:
 17427 1443 4C565F44 		.ascii	"LV_DRAW_LAYER_FLAG_CAN_SUBDIVIDE\000"
 17427      5241575F 
 17427      4C415945 
 17427      525F464C 
 17427      41475F43 
 17428              	.LASF315:
 17429 1464 74696D65 		.ascii	"timer_cb\000"
 17429      725F6362 
 17429      00
 17430              	.LASF424:
 17431 146d 4C565F45 		.ascii	"LV_EVENT_PRESSED\000"
 17431      56454E54 
 17431      5F505245 
 17431      53534544 
 17431      00
 17432              	.LASF434:
 17433 147e 4C565F45 		.ascii	"LV_EVENT_SCROLL\000"
 17433      56454E54 
 17433      5F534352 
 17433      4F4C4C00 
 17434              	.LASF455:
 17435 148e 4C565F45 		.ascii	"LV_EVENT_CANCEL\000"
 17435      56454E54 
 17435      5F43414E 
 17435      43454C00 
 17436              	.LASF125:
 17437 149e 4C565F53 		.ascii	"LV_STYLE_BORDER_COLOR\000"
 17437      54594C45 
 17437      5F424F52 
 17437      4445525F 
 17437      434F4C4F 
 17438              	.LASF384:
 17439 14b4 72656E64 		.ascii	"render_start_cb\000"
 17439      65725F73 
 17439      74617274 
 17439      5F636200 
 17440              	.LASF383:
 17441 14c4 6472765F 		.ascii	"drv_update_cb\000"
 17441      75706461 
 17441      74655F63 
 17441      6200
 17442              	.LASF0:
 17443 14d2 5F5F696E 		.ascii	"__int8_t\000"
 17443      74385F74 
 17443      00
 17444              	.LASF468:
 17445 14db 5F4C565F 		.ascii	"_LV_EVENT_LAST\000"
 17445      4556454E 
 17445      545F4C41 
 17445      535400
 17446              	.LASF78:
 17447 14ea 4C565F42 		.ascii	"LV_BLEND_MODE_REPLACE\000"
ARM GAS  C:\Users\haske\AppData\Local\Temp\ccydbpJh.s 			page 361


 17447      4C454E44 
 17447      5F4D4F44 
 17447      455F5245 
 17447      504C4143 
 17448              	.LASF366:
 17449 1500 70687973 		.ascii	"physical_hor_res\000"
 17449      6963616C 
 17449      5F686F72 
 17449      5F726573 
 17449      00
 17450              	.LASF357:
 17451 1511 73697A65 		.ascii	"size\000"
 17451      00
 17452              	.LASF289:
 17453 1516 6D61785F 		.ascii	"max_row_with_no_alpha\000"
 17453      726F775F 
 17453      77697468 
 17453      5F6E6F5F 
 17453      616C7068 
 17454              	.LASF13:
 17455 152c 6C6F6E67 		.ascii	"long long unsigned int\000"
 17455      206C6F6E 
 17455      6720756E 
 17455      7369676E 
 17455      65642069 
 17456              	.LASF328:
 17457 1543 7379735F 		.ascii	"sys_layer\000"
 17457      6C617965 
 17457      7200
 17458              	.LASF117:
 17459 154d 4C565F53 		.ascii	"LV_STYLE_BG_GRAD_STOP\000"
 17459      54594C45 
 17459      5F42475F 
 17459      47524144 
 17459      5F53544F 
 17460              	.LASF128:
 17461 1563 4C565F53 		.ascii	"LV_STYLE_BORDER_SIDE\000"
 17461      54594C45 
 17461      5F424F52 
 17461      4445525F 
 17461      53494445 
 17462              	.LASF471:
 17463 1578 6C765F67 		.ascii	"lv_group_focus_cb_t\000"
 17463      726F7570 
 17463      5F666F63 
 17463      75735F63 
 17463      625F7400 
 17464              	.LASF403:
 17465 158c 5F6C765F 		.ascii	"_lv_obj_class_t\000"
 17465      6F626A5F 
 17465      636C6173 
 17465      735F7400 
 17466              	.LASF245:
 17467 159c 6C765F64 		.ascii	"lv_draw_rect_dsc_t\000"
 17467      7261775F 
 17467      72656374 
 17467      5F647363 
ARM GAS  C:\Users\haske\AppData\Local\Temp\ccydbpJh.s 			page 362


 17467      5F7400
 17468              	.LASF19:
 17469 15af 75696E74 		.ascii	"uint16_t\000"
 17469      31365F74 
 17469      00
 17470              	.LASF74:
 17471 15b8 4C565F42 		.ascii	"LV_BLEND_MODE_NORMAL\000"
 17471      4C454E44 
 17471      5F4D4F44 
 17471      455F4E4F 
 17471      524D414C 
 17472              	.LASF314:
 17473 15cd 6C617374 		.ascii	"last_run\000"
 17473      5F72756E 
 17473      00
 17474              	.LASF347:
 17475 15d6 77726170 		.ascii	"wrap\000"
 17475      00
 17476              	.LASF46:
 17477 15db 6C765F63 		.ascii	"lv_color_t\000"
 17477      6F6C6F72 
 17477      5F7400
 17478              	.LASF298:
 17479 15e6 64726177 		.ascii	"draw_letter\000"
 17479      5F6C6574 
 17479      74657200 
 17480              	.LASF93:
 17481 15f2 4C565F53 		.ascii	"LV_STYLE_WIDTH\000"
 17481      54594C45 
 17481      5F574944 
 17481      544800
 17482              	.LASF532:
 17483 1601 6C765F63 		.ascii	"lv_color_fill\000"
 17483      6F6C6F72 
 17483      5F66696C 
 17483      6C00
 17484              	.LASF491:
 17485 160f 6C765F61 		.ascii	"lv_area_get_height\000"
 17485      7265615F 
 17485      6765745F 
 17485      68656967 
 17485      687400
 17486              	.LASF231:
 17487 1622 626F7264 		.ascii	"border_width\000"
 17487      65725F77 
 17487      69647468 
 17487      00
 17488              	.LASF512:
 17489 162f 6C617374 		.ascii	"last_opa\000"
 17489      5F6F7061 
 17489      00
 17490              	.LASF94:
 17491 1638 4C565F53 		.ascii	"LV_STYLE_MIN_WIDTH\000"
 17491      54594C45 
 17491      5F4D494E 
 17491      5F574944 
 17491      544800
ARM GAS  C:\Users\haske\AppData\Local\Temp\ccydbpJh.s 			page 363


 17492              	.LASF529:
 17493 164b 64657374 		.ascii	"dest_buf8\000"
 17493      5F627566 
 17493      3800
 17494              	.LASF71:
 17495 1655 6C765F74 		.ascii	"lv_text_flag_t\000"
 17495      6578745F 
 17495      666C6167 
 17495      5F7400
 17496              	.LASF135:
 17497 1664 4C565F53 		.ascii	"LV_STYLE_SHADOW_OFS_X\000"
 17497      54594C45 
 17497      5F534841 
 17497      444F575F 
 17497      4F46535F 
 17498              	.LASF136:
 17499 167a 4C565F53 		.ascii	"LV_STYLE_SHADOW_OFS_Y\000"
 17499      54594C45 
 17499      5F534841 
 17499      444F575F 
 17499      4F46535F 
 17500              	.LASF24:
 17501 1690 6C765F75 		.ascii	"lv_uintptr_t\000"
 17501      696E7470 
 17501      74725F74 
 17501      00
 17502              	.LASF31:
 17503 169d 4C565F4F 		.ascii	"LV_OPA_10\000"
 17503      50415F31 
 17503      3000
 17504              	.LASF120:
 17505 16a7 4C565F53 		.ascii	"LV_STYLE_BG_IMG_SRC\000"
 17505      54594C45 
 17505      5F42475F 
 17505      494D475F 
 17505      53524300 
 17506              	.LASF260:
 17507 16bb 7069766F 		.ascii	"pivot\000"
 17507      7400
 17508              	.LASF153:
 17509 16c1 4C565F53 		.ascii	"LV_STYLE_ARC_IMG_SRC\000"
 17509      54594C45 
 17509      5F415243 
 17509      5F494D47 
 17509      5F535243 
 17510              	.LASF185:
 17511 16d6 76616C75 		.ascii	"value1\000"
 17511      653100
 17512              	.LASF197:
 17513 16dd 626C656E 		.ascii	"blend_area\000"
 17513      645F6172 
 17513      656100
 17514              	.LASF496:
 17515 16e8 6C765F63 		.ascii	"lv_color_mix_premult\000"
 17515      6F6C6F72 
 17515      5F6D6978 
 17515      5F707265 
ARM GAS  C:\Users\haske\AppData\Local\Temp\ccydbpJh.s 			page 364


 17515      6D756C74 
 17516              	.LASF370:
 17517 16fd 64726177 		.ascii	"draw_buf\000"
 17517      5F627566 
 17517      00
 17518              	.LASF198:
 17519 1706 7372635F 		.ascii	"src_buf\000"
 17519      62756600 
 17520              	.LASF490:
 17521 170e 6C765F63 		.ascii	"lv_color_make\000"
 17521      6F6C6F72 
 17521      5F6D616B 
 17521      6500
 17522              	.LASF377:
 17523 171c 726F756E 		.ascii	"rounder_cb\000"
 17523      6465725F 
 17523      636200
 17524              	.LASF256:
 17525 1727 6465636F 		.ascii	"decor\000"
 17525      7200
 17526              	.LASF4:
 17527 172d 5F5F696E 		.ascii	"__int16_t\000"
 17527      7431365F 
 17527      7400
 17528              	.LASF306:
 17529 1737 6C617965 		.ascii	"layer_adjust\000"
 17529      725F6164 
 17529      6A757374 
 17529      00
 17530              	.LASF156:
 17531 1744 4C565F53 		.ascii	"LV_STYLE_TEXT_FONT\000"
 17531      54594C45 
 17531      5F544558 
 17531      545F464F 
 17531      4E5400
 17532              	.LASF463:
 17533 1757 4C565F45 		.ascii	"LV_EVENT_SCREEN_UNLOADED\000"
 17533      56454E54 
 17533      5F534352 
 17533      45454E5F 
 17533      554E4C4F 
 17534              	.LASF179:
 17535 1770 4C565F53 		.ascii	"LV_STYLE_PROP_ANY\000"
 17535      54594C45 
 17535      5F50524F 
 17535      505F414E 
 17535      5900
 17536              	.LASF44:
 17537 1782 66756C6C 		.ascii	"full\000"
 17537      00
 17538              	.LASF291:
 17539 1787 6C765F64 		.ascii	"lv_draw_layer_ctx_t\000"
 17539      7261775F 
 17539      6C617965 
 17539      725F6374 
 17539      785F7400 
 17540              	.LASF32:
ARM GAS  C:\Users\haske\AppData\Local\Temp\ccydbpJh.s 			page 365


 17541 179b 4C565F4F 		.ascii	"LV_OPA_20\000"
 17541      50415F32 
 17541      3000
 17542              	.LASF84:
 17543 17a5 636F6C6F 		.ascii	"color\000"
 17543      7200
 17544              	.LASF14:
 17545 17ab 5F5F7569 		.ascii	"__uintptr_t\000"
 17545      6E747074 
 17545      725F7400 
 17546              	.LASF87:
 17547 17b7 73746F70 		.ascii	"stops\000"
 17547      7300
 17548              	.LASF251:
 17549 17bd 6C696E65 		.ascii	"line_space\000"
 17549      5F737061 
 17549      636500
 17550              	.LASF307:
 17551 17c8 6C617965 		.ascii	"layer_blend\000"
 17551      725F626C 
 17551      656E6400 
 17552              	.LASF503:
 17553 17d4 626C656E 		.ascii	"blend_fp\000"
 17553      645F6670 
 17553      00
 17554              	.LASF406:
 17555 17dd 64657374 		.ascii	"destructor_cb\000"
 17555      72756374 
 17555      6F725F63 
 17555      6200
 17556              	.LASF81:
 17557 17eb 6C765F62 		.ascii	"lv_border_side_t\000"
 17557      6F726465 
 17557      725F7369 
 17557      64655F74 
 17557      00
 17558              	.LASF85:
 17559 17fc 66726163 		.ascii	"frac\000"
 17559      00
 17560              	.LASF206:
 17561 1801 5F6C765F 		.ascii	"_lv_obj_t\000"
 17561      6F626A5F 
 17561      7400
 17562              	.LASF246:
 17563 180b 666F6E74 		.ascii	"font\000"
 17563      00
 17564              	.LASF252:
 17565 1810 6C657474 		.ascii	"letter_space\000"
 17565      65725F73 
 17565      70616365 
 17565      00
 17566              	.LASF98:
 17567 181d 4C565F53 		.ascii	"LV_STYLE_MAX_HEIGHT\000"
 17567      54594C45 
 17567      5F4D4158 
 17567      5F484549 
 17567      47485400 
ARM GAS  C:\Users\haske\AppData\Local\Temp\ccydbpJh.s 			page 366


 17568              	.LASF33:
 17569 1831 4C565F4F 		.ascii	"LV_OPA_30\000"
 17569      50415F33 
 17569      3000
 17570              	.LASF487:
 17571 183b 5F6C765F 		.ascii	"_lv_theme_t\000"
 17571      7468656D 
 17571      655F7400 
 17572              	.LASF277:
 17573 1847 6C765F64 		.ascii	"lv_draw_arc_dsc_t\000"
 17573      7261775F 
 17573      6172635F 
 17573      6473635F 
 17573      7400
 17574              	.LASF538:
 17575 1859 2E2E5C2E 		.ascii	"..\\..\\..\\arduinoLCD\\test\\Pain Drain\\libraries"
 17575      2E5C2E2E 
 17575      5C617264 
 17575      75696E6F 
 17575      4C43445C 
 17576 1886 5C6C7667 		.ascii	"\\lvgl\\src\\draw\\sw\\lv_draw_sw_blend.c\000"
 17576      6C5C7372 
 17576      635C6472 
 17576      61775C73 
 17576      775C6C76 
 17577              	.LASF114:
 17578 18ab 4C565F53 		.ascii	"LV_STYLE_BG_GRAD_COLOR\000"
 17578      54594C45 
 17578      5F42475F 
 17578      47524144 
 17578      5F434F4C 
 17579              	.LASF325:
 17580 18c2 70726576 		.ascii	"prev_scr\000"
 17580      5F736372 
 17580      00
 17581              	.LASF55:
 17582 18cb 626F785F 		.ascii	"box_h\000"
 17582      6800
 17583              	.LASF226:
 17584 18d1 62675F69 		.ascii	"bg_img_recolor\000"
 17584      6D675F72 
 17584      65636F6C 
 17584      6F7200
 17585              	.LASF279:
 17586 18e0 4C565F44 		.ascii	"LV_DRAW_LAYER_FLAG_HAS_ALPHA\000"
 17586      5241575F 
 17586      4C415945 
 17586      525F464C 
 17586      41475F48 
 17587              	.LASF45:
 17588 18fd 6C765F63 		.ascii	"lv_color16_t\000"
 17588      6F6C6F72 
 17588      31365F74 
 17588      00
 17589              	.LASF54:
 17590 190a 626F785F 		.ascii	"box_w\000"
 17590      7700
ARM GAS  C:\Users\haske\AppData\Local\Temp\ccydbpJh.s 			page 367


 17591              	.LASF5:
 17592 1910 73686F72 		.ascii	"short int\000"
 17592      7420696E 
 17592      7400
 17593              	.LASF513:
 17594 191a 636F6C6F 		.ascii	"color_blend_true_color_additive\000"
 17594      725F626C 
 17594      656E645F 
 17594      74727565 
 17594      5F636F6C 
 17595              	.LASF62:
 17596 193a 62617365 		.ascii	"base_line\000"
 17596      5F6C696E 
 17596      6500
 17597              	.LASF336:
 17598 1944 696E765F 		.ascii	"inv_p\000"
 17598      7000
 17599              	.LASF352:
 17600 194a 6C765F6C 		.ascii	"lv_ll_t\000"
 17600      6C5F7400 
 17601              	.LASF542:
 17602 1952 6C765F66 		.ascii	"lv_font_montserrat_14\000"
 17602      6F6E745F 
 17602      6D6F6E74 
 17602      73657272 
 17602      61745F31 
 17603              	.LASF507:
 17604 1968 6F70615F 		.ascii	"opa_tmp\000"
 17604      746D7000 
 17605              	.LASF448:
 17606 1970 4C565F45 		.ascii	"LV_EVENT_DRAW_POST_END\000"
 17606      56454E54 
 17606      5F445241 
 17606      575F504F 
 17606      53545F45 
 17607              	.LASF449:
 17608 1987 4C565F45 		.ascii	"LV_EVENT_DRAW_PART_BEGIN\000"
 17608      56454E54 
 17608      5F445241 
 17608      575F5041 
 17608      52545F42 
 17609              	.LASF244:
 17610 19a0 73686164 		.ascii	"shadow_opa\000"
 17610      6F775F6F 
 17610      706100
 17611              	.LASF151:
 17612 19ab 4C565F53 		.ascii	"LV_STYLE_ARC_COLOR\000"
 17612      54594C45 
 17612      5F415243 
 17612      5F434F4C 
 17612      4F5200
 17613              	.LASF34:
 17614 19be 4C565F4F 		.ascii	"LV_OPA_40\000"
 17614      50415F34 
 17614      3000
 17615              	.LASF18:
 17616 19c8 696E7431 		.ascii	"int16_t\000"
ARM GAS  C:\Users\haske\AppData\Local\Temp\ccydbpJh.s 			page 368


 17616      365F7400 
 17617              	.LASF337:
 17618 19d0 696E765F 		.ascii	"inv_en_cnt\000"
 17618      656E5F63 
 17618      6E7400
 17619              	.LASF284:
 17620 19db 73637265 		.ascii	"screen_transp\000"
 17620      656E5F74 
 17620      72616E73 
 17620      7000
 17621              	.LASF211:
 17622 19e9 636F6F72 		.ascii	"coords\000"
 17622      647300
 17623              	.LASF479:
 17624 19f0 6578745F 		.ascii	"ext_click_pad\000"
 17624      636C6963 
 17624      6B5F7061 
 17624      6400
 17625              	.LASF178:
 17626 19fe 5F4C565F 		.ascii	"_LV_STYLE_NUM_BUILT_IN_PROPS\000"
 17626      5354594C 
 17626      455F4E55 
 17626      4D5F4255 
 17626      494C545F 
 17627              	.LASF528:
 17628 1a1b 6C765F64 		.ascii	"lv_draw_sw_blend_basic\000"
 17628      7261775F 
 17628      73775F62 
 17628      6C656E64 
 17628      5F626173 
 17629              	.LASF104:
 17630 1a32 4C565F53 		.ascii	"LV_STYLE_PAD_TOP\000"
 17630      54594C45 
 17630      5F504144 
 17630      5F544F50 
 17630      00
 17631              	.LASF530:
 17632 1a43 6D61736B 		.ascii	"mask_size\000"
 17632      5F73697A 
 17632      6500
 17633              	.LASF348:
 17634 1a4d 6C765F6C 		.ascii	"lv_ll_node_t\000"
 17634      6C5F6E6F 
 17634      64655F74 
 17634      00
 17635              	.LASF331:
 17636 1a5a 64656C5F 		.ascii	"del_prev\000"
 17636      70726576 
 17636      00
 17637              	.LASF333:
 17638 1a63 62675F69 		.ascii	"bg_img\000"
 17638      6D6700
 17639              	.LASF526:
 17640 1a6a 6D61736B 		.ascii	"mask_tmp_x\000"
 17640      5F746D70 
 17640      5F7800
 17641              	.LASF121:
ARM GAS  C:\Users\haske\AppData\Local\Temp\ccydbpJh.s 			page 369


 17642 1a75 4C565F53 		.ascii	"LV_STYLE_BG_IMG_OPA\000"
 17642      54594C45 
 17642      5F42475F 
 17642      494D475F 
 17642      4F504100 
 17643              	.LASF143:
 17644 1a89 4C565F53 		.ascii	"LV_STYLE_LINE_WIDTH\000"
 17644      54594C45 
 17644      5F4C494E 
 17644      455F5749 
 17644      44544800 
 17645              	.LASF514:
 17646 1a9d 636F6C6F 		.ascii	"color_blend_true_color_subtractive\000"
 17646      725F626C 
 17646      656E645F 
 17646      74727565 
 17646      5F636F6C 
 17647              	.LASF35:
 17648 1ac0 4C565F4F 		.ascii	"LV_OPA_50\000"
 17648      50415F35 
 17648      3000
 17649              	.LASF493:
 17650 1aca 6C765F61 		.ascii	"lv_area_get_width\000"
 17650      7265615F 
 17650      6765745F 
 17650      77696474 
 17650      6800
 17651              	.LASF539:
 17652 1adc 433A5C50 		.ascii	"C:\\Projects\\PainDrain\\firmware\\PainDrain\\PainD"
 17652      726F6A65 
 17652      6374735C 
 17652      5061696E 
 17652      44726169 
 17653 1b0a 7261696E 		.ascii	"rain.cydsn\000"
 17653      2E637964 
 17653      736E00
 17654              	.LASF188:
 17655 1b15 70726F70 		.ascii	"prop1\000"
 17655      3100
 17656              	.LASF534:
 17657 1b1b 5F6C765F 		.ascii	"_lv_area_intersect\000"
 17657      61726561 
 17657      5F696E74 
 17657      65727365 
 17657      637400
 17658              	.LASF378:
 17659 1b2e 7365745F 		.ascii	"set_px_cb\000"
 17659      70785F63 
 17659      6200
 17660              	.LASF433:
 17661 1b38 4C565F45 		.ascii	"LV_EVENT_SCROLL_END\000"
 17661      56454E54 
 17661      5F534352 
 17661      4F4C4C5F 
 17661      454E4400 
 17662              	.LASF232:
 17663 1b4c 626F7264 		.ascii	"border_opa\000"
ARM GAS  C:\Users\haske\AppData\Local\Temp\ccydbpJh.s 			page 370


 17663      65725F6F 
 17663      706100
 17664              	.LASF497:
 17665 1b57 7072656D 		.ascii	"premult_c1\000"
 17665      756C745F 
 17665      633100
 17666              	.LASF97:
 17667 1b62 4C565F53 		.ascii	"LV_STYLE_MIN_HEIGHT\000"
 17667      54594C45 
 17667      5F4D494E 
 17667      5F484549 
 17667      47485400 
 17668              	.LASF438:
 17669 1b76 4C565F45 		.ascii	"LV_EVENT_DEFOCUSED\000"
 17669      56454E54 
 17669      5F444546 
 17669      4F435553 
 17669      454400
 17670              	.LASF223:
 17671 1b89 62675F67 		.ascii	"bg_grad\000"
 17671      72616400 
 17672              	.LASF129:
 17673 1b91 4C565F53 		.ascii	"LV_STYLE_BORDER_POST\000"
 17673      54594C45 
 17673      5F424F52 
 17673      4445525F 
 17673      504F5354 
 17674              	.LASF540:
 17675 1ba6 6C765F63 		.ascii	"lv_color_premult\000"
 17675      6F6C6F72 
 17675      5F707265 
 17675      6D756C74 
 17675      00
 17676              	.LASF386:
 17677 1bb7 64726177 		.ascii	"draw_ctx\000"
 17677      5F637478 
 17677      00
 17678              	.LASF297:
 17679 1bc0 64726177 		.ascii	"draw_img\000"
 17679      5F696D67 
 17679      00
 17680              	.LASF86:
 17681 1bc9 6C765F67 		.ascii	"lv_gradient_stop_t\000"
 17681      72616469 
 17681      656E745F 
 17681      73746F70 
 17681      5F7400
 17682              	.LASF100:
 17683 1bdc 4C565F53 		.ascii	"LV_STYLE_Y\000"
 17683      54594C45 
 17683      5F5900
 17684              	.LASF146:
 17685 1be7 4C565F53 		.ascii	"LV_STYLE_LINE_ROUNDED\000"
 17685      54594C45 
 17685      5F4C494E 
 17685      455F524F 
 17685      554E4445 
ARM GAS  C:\Users\haske\AppData\Local\Temp\ccydbpJh.s 			page 371


 17686              	.LASF36:
 17687 1bfd 4C565F4F 		.ascii	"LV_OPA_60\000"
 17687      50415F36 
 17687      3000
 17688              	.LASF531:
 17689 1c07 5F6C765F 		.ascii	"_lv_refr_get_disp_refreshing\000"
 17689      72656672 
 17689      5F676574 
 17689      5F646973 
 17689      705F7265 
 17690              	.LASF300:
 17691 1c24 64726177 		.ascii	"draw_polygon\000"
 17691      5F706F6C 
 17691      79676F6E 
 17691      00
 17692              	.LASF465:
 17693 1c31 4C565F45 		.ascii	"LV_EVENT_STYLE_CHANGED\000"
 17693      56454E54 
 17693      5F535459 
 17693      4C455F43 
 17693      48414E47 
 17694              	.LASF454:
 17695 1c48 4C565F45 		.ascii	"LV_EVENT_READY\000"
 17695      56454E54 
 17695      5F524541 
 17695      445900
 17696              	.LASF247:
 17697 1c57 73656C5F 		.ascii	"sel_start\000"
 17697      73746172 
 17697      7400
 17698              	.LASF447:
 17699 1c61 4C565F45 		.ascii	"LV_EVENT_DRAW_POST\000"
 17699      56454E54 
 17699      5F445241 
 17699      575F504F 
 17699      535400
 17700              	.LASF21:
 17701 1c74 75696E74 		.ascii	"uint32_t\000"
 17701      33325F74 
 17701      00
 17702              	.LASF395:
 17703 1c7d 6C765F6F 		.ascii	"lv_obj_flag_t\000"
 17703      626A5F66 
 17703      6C61675F 
 17703      7400
 17704              	.LASF464:
 17705 1c8b 4C565F45 		.ascii	"LV_EVENT_SIZE_CHANGED\000"
 17705      56454E54 
 17705      5F53495A 
 17705      455F4348 
 17705      414E4745 
 17706              	.LASF240:
 17707 1ca1 73686164 		.ascii	"shadow_width\000"
 17707      6F775F77 
 17707      69647468 
 17707      00
 17708              	.LASF43:
ARM GAS  C:\Users\haske\AppData\Local\Temp\ccydbpJh.s 			page 372


 17709 1cae 67726565 		.ascii	"green\000"
 17709      6E00
 17710              	.LASF70:
 17711 1cb4 6C765F66 		.ascii	"lv_font_t\000"
 17711      6F6E745F 
 17711      7400
 17712              	.LASF466:
 17713 1cbe 4C565F45 		.ascii	"LV_EVENT_LAYOUT_CHANGED\000"
 17713      56454E54 
 17713      5F4C4159 
 17713      4F55545F 
 17713      4348414E 
 17714              	.LASF89:
 17715 1cd6 64697468 		.ascii	"dither\000"
 17715      657200
 17716              	.LASF37:
 17717 1cdd 4C565F4F 		.ascii	"LV_OPA_70\000"
 17717      50415F37 
 17717      3000
 17718              	.LASF7:
 17719 1ce7 73686F72 		.ascii	"short unsigned int\000"
 17719      7420756E 
 17719      7369676E 
 17719      65642069 
 17719      6E7400
 17720              	.LASF436:
 17721 1cfa 4C565F45 		.ascii	"LV_EVENT_KEY\000"
 17721      56454E54 
 17721      5F4B4559 
 17721      00
 17722              	.LASF48:
 17723 1d07 6C765F63 		.ascii	"lv_coord_t\000"
 17723      6F6F7264 
 17723      5F7400
 17724              	.LASF192:
 17725 1d12 4C565F44 		.ascii	"LV_DRAW_MASK_RES_TRANSP\000"
 17725      5241575F 
 17725      4D41534B 
 17725      5F524553 
 17725      5F545241 
 17726              	.LASF376:
 17727 1d2a 666C7573 		.ascii	"flush_cb\000"
 17727      685F6362 
 17727      00
 17728              	.LASF131:
 17729 1d33 4C565F53 		.ascii	"LV_STYLE_OUTLINE_COLOR\000"
 17729      54594C45 
 17729      5F4F5554 
 17729      4C494E45 
 17729      5F434F4C 
 17730              	.LASF67:
 17731 1d4a 75736572 		.ascii	"user_data\000"
 17731      5F646174 
 17731      6100
 17732              	.LASF426:
 17733 1d54 4C565F45 		.ascii	"LV_EVENT_PRESS_LOST\000"
 17733      56454E54 
ARM GAS  C:\Users\haske\AppData\Local\Temp\ccydbpJh.s 			page 373


 17733      5F505245 
 17733      53535F4C 
 17733      4F535400 
 17734              	.LASF506:
 17735 1d68 6C617374 		.ascii	"last_mask\000"
 17735      5F6D6173 
 17735      6B00
 17736              	.LASF488:
 17737 1d72 5F6C765F 		.ascii	"_lv_event_dsc_t\000"
 17737      6576656E 
 17737      745F6473 
 17737      635F7400 
 17738              	.LASF137:
 17739 1d82 4C565F53 		.ascii	"LV_STYLE_SHADOW_SPREAD\000"
 17739      54594C45 
 17739      5F534841 
 17739      444F575F 
 17739      53505245 
 17740              	.LASF59:
 17741 1d99 6765745F 		.ascii	"get_glyph_dsc\000"
 17741      676C7970 
 17741      685F6473 
 17741      6300
 17742              	.LASF8:
 17743 1da7 5F5F696E 		.ascii	"__int32_t\000"
 17743      7433325F 
 17743      7400
 17744              	.LASF392:
 17745 1db1 626C656E 		.ascii	"blend\000"
 17745      6400
 17746              	.LASF437:
 17747 1db7 4C565F45 		.ascii	"LV_EVENT_FOCUSED\000"
 17747      56454E54 
 17747      5F464F43 
 17747      55534544 
 17747      00
 17748              	.LASF82:
 17749 1dc8 6C765F67 		.ascii	"lv_grad_dir_t\000"
 17749      7261645F 
 17749      6469725F 
 17749      7400
 17750              	.LASF346:
 17751 1dd6 7265666F 		.ascii	"refocus_policy\000"
 17751      6375735F 
 17751      706F6C69 
 17751      637900
 17752              	.LASF363:
 17753 1de5 5F6C765F 		.ascii	"_lv_disp_drv_t\000"
 17753      64697370 
 17753      5F647276 
 17753      5F7400
 17754              	.LASF38:
 17755 1df4 4C565F4F 		.ascii	"LV_OPA_80\000"
 17755      50415F38 
 17755      3000
 17756              	.LASF409:
 17757 1dfe 68656967 		.ascii	"height_def\000"
ARM GAS  C:\Users\haske\AppData\Local\Temp\ccydbpJh.s 			page 374


 17757      68745F64 
 17757      656600
 17758              	.LASF460:
 17759 1e09 4C565F45 		.ascii	"LV_EVENT_SCREEN_UNLOAD_START\000"
 17759      56454E54 
 17759      5F534352 
 17759      45454E5F 
 17759      554E4C4F 
 17760              	.LASF382:
 17761 1e26 636C6561 		.ascii	"clean_dcache_cb\000"
 17761      6E5F6463 
 17761      61636865 
 17761      5F636200 
 17762              	.LASF249:
 17763 1e36 73656C5F 		.ascii	"sel_color\000"
 17763      636F6C6F 
 17763      7200
 17764              	.LASF521:
 17765 1e40 636F6C6F 		.ascii	"color_premult\000"
 17765      725F7072 
 17765      656D756C 
 17765      7400
 17766              	.LASF225:
 17767 1e4e 62675F69 		.ascii	"bg_img_symbol_font\000"
 17767      6D675F73 
 17767      796D626F 
 17767      6C5F666F 
 17767      6E7400
 17768              	.LASF242:
 17769 1e61 73686164 		.ascii	"shadow_ofs_y\000"
 17769      6F775F6F 
 17769      66735F79 
 17769      00
 17770              	.LASF418:
 17771 1e6e 70726576 		.ascii	"prev\000"
 17771      00
 17772              	.LASF90:
 17773 1e73 6C765F67 		.ascii	"lv_grad_dsc_t\000"
 17773      7261645F 
 17773      6473635F 
 17773      7400
 17774              	.LASF349:
 17775 1e81 6E5F7369 		.ascii	"n_size\000"
 17775      7A6500
 17776              	.LASF339:
 17777 1e88 5F6C765F 		.ascii	"_lv_group_t\000"
 17777      67726F75 
 17777      705F7400 
 17778              	.LASF118:
 17779 1e94 4C565F53 		.ascii	"LV_STYLE_BG_GRAD\000"
 17779      54594C45 
 17779      5F42475F 
 17779      47524144 
 17779      00
 17780              	.LASF431:
 17781 1ea5 4C565F45 		.ascii	"LV_EVENT_RELEASED\000"
 17781      56454E54 
ARM GAS  C:\Users\haske\AppData\Local\Temp\ccydbpJh.s 			page 375


 17781      5F52454C 
 17781      45415345 
 17781      4400
 17782              	.LASF58:
 17783 1eb7 69735F70 		.ascii	"is_placeholder\000"
 17783      6C616365 
 17783      686F6C64 
 17783      657200
 17784              	.LASF133:
 17785 1ec6 4C565F53 		.ascii	"LV_STYLE_OUTLINE_PAD\000"
 17785      54594C45 
 17785      5F4F5554 
 17785      4C494E45 
 17785      5F504144 
 17786              	.LASF39:
 17787 1edb 4C565F4F 		.ascii	"LV_OPA_90\000"
 17787      50415F39 
 17787      3000
 17788              	.LASF505:
 17789 1ee5 6C617374 		.ascii	"last_res_color\000"
 17789      5F726573 
 17789      5F636F6C 
 17789      6F7200
 17790              	.LASF341:
 17791 1ef4 6F626A5F 		.ascii	"obj_focus\000"
 17791      666F6375 
 17791      7300
 17792              	.LASF157:
 17793 1efe 4C565F53 		.ascii	"LV_STYLE_TEXT_LETTER_SPACE\000"
 17793      54594C45 
 17793      5F544558 
 17793      545F4C45 
 17793      54544552 
 17794              	.LASF485:
 17795 1f19 6576656E 		.ascii	"event_dsc_cnt\000"
 17795      745F6473 
 17795      635F636E 
 17795      7400
 17796              		.ident	"GCC: (GNU Tools for ARM Embedded Processors) 5.4.1 20160609 (release) [ARM/embedded-5-bran
