ARM GAS  C:\Users\haske\AppData\Local\Temp\ccydbpJh.s 			page 1


   1              		.syntax unified
   2              		.cpu cortex-m0plus
   3              		.fpu softvfp
   4              		.eabi_attribute 20, 1
   5              		.eabi_attribute 21, 1
   6              		.eabi_attribute 23, 3
   7              		.eabi_attribute 24, 1
   8              		.eabi_attribute 25, 1
   9              		.eabi_attribute 26, 1
  10              		.eabi_attribute 30, 1
  11              		.eabi_attribute 34, 0
  12              		.eabi_attribute 18, 4
  13              		.thumb
  14              		.syntax unified
  15              		.file	"lv_draw_sw_blend.c"
  16              		.text
  17              	.Ltext0:
  18              		.cfi_sections	.debug_frame
  19              		.section	.text.fill_blended,"ax",%progbits
  20              		.align	2
  21              		.code	16
  22              		.thumb_func
  23              		.type	fill_blended, %function
  24              	fill_blended:
  25              	.LFB163:
  26              		.file 1 "..\\..\\..\\arduinoLCD\\test\\Pain Drain\\libraries\\lvgl\\src\\draw\\sw\\lv_draw_sw_blen
   1:..\..\..\arduinoLCD\test\Pain Drain\libraries\lvgl\src\draw\sw/lv_draw_sw_blend.c **** /**
   2:..\..\..\arduinoLCD\test\Pain Drain\libraries\lvgl\src\draw\sw/lv_draw_sw_blend.c ****  * @file lv_draw_sw_blend.c
   3:..\..\..\arduinoLCD\test\Pain Drain\libraries\lvgl\src\draw\sw/lv_draw_sw_blend.c ****  *
   4:..\..\..\arduinoLCD\test\Pain Drain\libraries\lvgl\src\draw\sw/lv_draw_sw_blend.c ****  */
   5:..\..\..\arduinoLCD\test\Pain Drain\libraries\lvgl\src\draw\sw/lv_draw_sw_blend.c **** 
   6:..\..\..\arduinoLCD\test\Pain Drain\libraries\lvgl\src\draw\sw/lv_draw_sw_blend.c **** /*********************
   7:..\..\..\arduinoLCD\test\Pain Drain\libraries\lvgl\src\draw\sw/lv_draw_sw_blend.c ****  *      INCLUDES
   8:..\..\..\arduinoLCD\test\Pain Drain\libraries\lvgl\src\draw\sw/lv_draw_sw_blend.c ****  *********************/
   9:..\..\..\arduinoLCD\test\Pain Drain\libraries\lvgl\src\draw\sw/lv_draw_sw_blend.c **** #include "lv_draw_sw.h"
  10:..\..\..\arduinoLCD\test\Pain Drain\libraries\lvgl\src\draw\sw/lv_draw_sw_blend.c **** #include "../../misc/lv_math.h"
  11:..\..\..\arduinoLCD\test\Pain Drain\libraries\lvgl\src\draw\sw/lv_draw_sw_blend.c **** #include "../../hal/lv_hal_disp.h"
  12:..\..\..\arduinoLCD\test\Pain Drain\libraries\lvgl\src\draw\sw/lv_draw_sw_blend.c **** #include "../../core/lv_refr.h"
  13:..\..\..\arduinoLCD\test\Pain Drain\libraries\lvgl\src\draw\sw/lv_draw_sw_blend.c **** 
  14:..\..\..\arduinoLCD\test\Pain Drain\libraries\lvgl\src\draw\sw/lv_draw_sw_blend.c **** /*********************
  15:..\..\..\arduinoLCD\test\Pain Drain\libraries\lvgl\src\draw\sw/lv_draw_sw_blend.c ****  *      DEFINES
  16:..\..\..\arduinoLCD\test\Pain Drain\libraries\lvgl\src\draw\sw/lv_draw_sw_blend.c ****  *********************/
  17:..\..\..\arduinoLCD\test\Pain Drain\libraries\lvgl\src\draw\sw/lv_draw_sw_blend.c **** 
  18:..\..\..\arduinoLCD\test\Pain Drain\libraries\lvgl\src\draw\sw/lv_draw_sw_blend.c **** /**********************
  19:..\..\..\arduinoLCD\test\Pain Drain\libraries\lvgl\src\draw\sw/lv_draw_sw_blend.c ****  *      TYPEDEFS
  20:..\..\..\arduinoLCD\test\Pain Drain\libraries\lvgl\src\draw\sw/lv_draw_sw_blend.c ****  **********************/
  21:..\..\..\arduinoLCD\test\Pain Drain\libraries\lvgl\src\draw\sw/lv_draw_sw_blend.c **** 
  22:..\..\..\arduinoLCD\test\Pain Drain\libraries\lvgl\src\draw\sw/lv_draw_sw_blend.c **** /**********************
  23:..\..\..\arduinoLCD\test\Pain Drain\libraries\lvgl\src\draw\sw/lv_draw_sw_blend.c ****  *  STATIC PROTOTYPES
  24:..\..\..\arduinoLCD\test\Pain Drain\libraries\lvgl\src\draw\sw/lv_draw_sw_blend.c ****  **********************/
  25:..\..\..\arduinoLCD\test\Pain Drain\libraries\lvgl\src\draw\sw/lv_draw_sw_blend.c **** 
  26:..\..\..\arduinoLCD\test\Pain Drain\libraries\lvgl\src\draw\sw/lv_draw_sw_blend.c **** static void fill_set_px(lv_color_t * dest_buf, const lv_area_t * blend_area, lv_coord_t dest_stride
  27:..\..\..\arduinoLCD\test\Pain Drain\libraries\lvgl\src\draw\sw/lv_draw_sw_blend.c ****                         lv_color_t color, lv_opa_t opa, const lv_opa_t * mask, lv_coord_t mask_stid
  28:..\..\..\arduinoLCD\test\Pain Drain\libraries\lvgl\src\draw\sw/lv_draw_sw_blend.c **** 
  29:..\..\..\arduinoLCD\test\Pain Drain\libraries\lvgl\src\draw\sw/lv_draw_sw_blend.c **** LV_ATTRIBUTE_FAST_MEM static void fill_normal(lv_color_t * dest_buf, const lv_area_t * dest_area,
  30:..\..\..\arduinoLCD\test\Pain Drain\libraries\lvgl\src\draw\sw/lv_draw_sw_blend.c ****                                               lv_coord_t dest_stride, lv_color_t color, lv_opa_t op
  31:..\..\..\arduinoLCD\test\Pain Drain\libraries\lvgl\src\draw\sw/lv_draw_sw_blend.c **** 
ARM GAS  C:\Users\haske\AppData\Local\Temp\ccydbpJh.s 			page 2


  32:..\..\..\arduinoLCD\test\Pain Drain\libraries\lvgl\src\draw\sw/lv_draw_sw_blend.c **** 
  33:..\..\..\arduinoLCD\test\Pain Drain\libraries\lvgl\src\draw\sw/lv_draw_sw_blend.c **** #if LV_COLOR_SCREEN_TRANSP
  34:..\..\..\arduinoLCD\test\Pain Drain\libraries\lvgl\src\draw\sw/lv_draw_sw_blend.c **** LV_ATTRIBUTE_FAST_MEM static void fill_argb(lv_color_t * dest_buf, const lv_area_t * dest_area,
  35:..\..\..\arduinoLCD\test\Pain Drain\libraries\lvgl\src\draw\sw/lv_draw_sw_blend.c ****                                             lv_coord_t dest_stride, lv_color_t color, lv_opa_t opa,
  36:..\..\..\arduinoLCD\test\Pain Drain\libraries\lvgl\src\draw\sw/lv_draw_sw_blend.c **** #endif /*LV_COLOR_SCREEN_TRANSP*/
  37:..\..\..\arduinoLCD\test\Pain Drain\libraries\lvgl\src\draw\sw/lv_draw_sw_blend.c **** 
  38:..\..\..\arduinoLCD\test\Pain Drain\libraries\lvgl\src\draw\sw/lv_draw_sw_blend.c **** #if LV_DRAW_COMPLEX
  39:..\..\..\arduinoLCD\test\Pain Drain\libraries\lvgl\src\draw\sw/lv_draw_sw_blend.c **** static void fill_blended(lv_color_t * dest_buf, const lv_area_t * dest_area, lv_coord_t dest_stride
  40:..\..\..\arduinoLCD\test\Pain Drain\libraries\lvgl\src\draw\sw/lv_draw_sw_blend.c ****                          lv_opa_t opa, const lv_opa_t * mask, lv_coord_t mask_stride, lv_blend_mode
  41:..\..\..\arduinoLCD\test\Pain Drain\libraries\lvgl\src\draw\sw/lv_draw_sw_blend.c **** #endif  /*LV_DRAW_COMPLEX*/
  42:..\..\..\arduinoLCD\test\Pain Drain\libraries\lvgl\src\draw\sw/lv_draw_sw_blend.c **** 
  43:..\..\..\arduinoLCD\test\Pain Drain\libraries\lvgl\src\draw\sw/lv_draw_sw_blend.c **** static void map_set_px(lv_color_t * dest_buf, const lv_area_t * dest_area, lv_coord_t dest_stride,
  44:..\..\..\arduinoLCD\test\Pain Drain\libraries\lvgl\src\draw\sw/lv_draw_sw_blend.c ****                        const lv_color_t * src_buf, lv_coord_t src_stride, lv_opa_t opa, const lv_op
  45:..\..\..\arduinoLCD\test\Pain Drain\libraries\lvgl\src\draw\sw/lv_draw_sw_blend.c **** 
  46:..\..\..\arduinoLCD\test\Pain Drain\libraries\lvgl\src\draw\sw/lv_draw_sw_blend.c **** LV_ATTRIBUTE_FAST_MEM static void map_normal(lv_color_t * dest_buf, const lv_area_t * dest_area, lv
  47:..\..\..\arduinoLCD\test\Pain Drain\libraries\lvgl\src\draw\sw/lv_draw_sw_blend.c ****                                              const lv_color_t * src_buf, lv_coord_t src_stride, lv_
  48:..\..\..\arduinoLCD\test\Pain Drain\libraries\lvgl\src\draw\sw/lv_draw_sw_blend.c **** 
  49:..\..\..\arduinoLCD\test\Pain Drain\libraries\lvgl\src\draw\sw/lv_draw_sw_blend.c **** #if LV_COLOR_SCREEN_TRANSP
  50:..\..\..\arduinoLCD\test\Pain Drain\libraries\lvgl\src\draw\sw/lv_draw_sw_blend.c **** LV_ATTRIBUTE_FAST_MEM static void map_argb(lv_color_t * dest_buf, const lv_area_t * dest_area, lv_c
  51:..\..\..\arduinoLCD\test\Pain Drain\libraries\lvgl\src\draw\sw/lv_draw_sw_blend.c ****                                            const lv_color_t * src_buf, lv_coord_t src_stride, lv_op
  52:..\..\..\arduinoLCD\test\Pain Drain\libraries\lvgl\src\draw\sw/lv_draw_sw_blend.c ****                                            const lv_opa_t * mask, lv_coord_t mask_stride, lv_blend_
  53:..\..\..\arduinoLCD\test\Pain Drain\libraries\lvgl\src\draw\sw/lv_draw_sw_blend.c **** 
  54:..\..\..\arduinoLCD\test\Pain Drain\libraries\lvgl\src\draw\sw/lv_draw_sw_blend.c **** #endif /*LV_COLOR_SCREEN_TRANSP*/
  55:..\..\..\arduinoLCD\test\Pain Drain\libraries\lvgl\src\draw\sw/lv_draw_sw_blend.c **** 
  56:..\..\..\arduinoLCD\test\Pain Drain\libraries\lvgl\src\draw\sw/lv_draw_sw_blend.c **** #if LV_DRAW_COMPLEX
  57:..\..\..\arduinoLCD\test\Pain Drain\libraries\lvgl\src\draw\sw/lv_draw_sw_blend.c **** static void map_blended(lv_color_t * dest_buf, const lv_area_t * dest_area, lv_coord_t dest_stride,
  58:..\..\..\arduinoLCD\test\Pain Drain\libraries\lvgl\src\draw\sw/lv_draw_sw_blend.c ****                         const lv_color_t * src_buf, lv_coord_t src_stride, lv_opa_t opa,
  59:..\..\..\arduinoLCD\test\Pain Drain\libraries\lvgl\src\draw\sw/lv_draw_sw_blend.c ****                         const lv_opa_t * mask, lv_coord_t mask_stride, lv_blend_mode_t blend_mode);
  60:..\..\..\arduinoLCD\test\Pain Drain\libraries\lvgl\src\draw\sw/lv_draw_sw_blend.c **** 
  61:..\..\..\arduinoLCD\test\Pain Drain\libraries\lvgl\src\draw\sw/lv_draw_sw_blend.c **** static inline lv_color_t color_blend_true_color_additive(lv_color_t fg, lv_color_t bg, lv_opa_t opa
  62:..\..\..\arduinoLCD\test\Pain Drain\libraries\lvgl\src\draw\sw/lv_draw_sw_blend.c **** static inline lv_color_t color_blend_true_color_subtractive(lv_color_t fg, lv_color_t bg, lv_opa_t 
  63:..\..\..\arduinoLCD\test\Pain Drain\libraries\lvgl\src\draw\sw/lv_draw_sw_blend.c **** static inline lv_color_t color_blend_true_color_multiply(lv_color_t fg, lv_color_t bg, lv_opa_t opa
  64:..\..\..\arduinoLCD\test\Pain Drain\libraries\lvgl\src\draw\sw/lv_draw_sw_blend.c **** #endif /*LV_DRAW_COMPLEX*/
  65:..\..\..\arduinoLCD\test\Pain Drain\libraries\lvgl\src\draw\sw/lv_draw_sw_blend.c **** 
  66:..\..\..\arduinoLCD\test\Pain Drain\libraries\lvgl\src\draw\sw/lv_draw_sw_blend.c **** /**********************
  67:..\..\..\arduinoLCD\test\Pain Drain\libraries\lvgl\src\draw\sw/lv_draw_sw_blend.c ****  *  STATIC VARIABLES
  68:..\..\..\arduinoLCD\test\Pain Drain\libraries\lvgl\src\draw\sw/lv_draw_sw_blend.c ****  **********************/
  69:..\..\..\arduinoLCD\test\Pain Drain\libraries\lvgl\src\draw\sw/lv_draw_sw_blend.c **** 
  70:..\..\..\arduinoLCD\test\Pain Drain\libraries\lvgl\src\draw\sw/lv_draw_sw_blend.c **** /**********************
  71:..\..\..\arduinoLCD\test\Pain Drain\libraries\lvgl\src\draw\sw/lv_draw_sw_blend.c ****  *      MACROS
  72:..\..\..\arduinoLCD\test\Pain Drain\libraries\lvgl\src\draw\sw/lv_draw_sw_blend.c ****  **********************/
  73:..\..\..\arduinoLCD\test\Pain Drain\libraries\lvgl\src\draw\sw/lv_draw_sw_blend.c **** #define FILL_NORMAL_MASK_PX(color)                                                          \
  74:..\..\..\arduinoLCD\test\Pain Drain\libraries\lvgl\src\draw\sw/lv_draw_sw_blend.c ****     if(*mask == LV_OPA_COVER) *dest_buf = color;                                 \
  75:..\..\..\arduinoLCD\test\Pain Drain\libraries\lvgl\src\draw\sw/lv_draw_sw_blend.c ****     else *dest_buf = lv_color_mix(color, *dest_buf, *mask);            \
  76:..\..\..\arduinoLCD\test\Pain Drain\libraries\lvgl\src\draw\sw/lv_draw_sw_blend.c ****     mask++;                                                         \
  77:..\..\..\arduinoLCD\test\Pain Drain\libraries\lvgl\src\draw\sw/lv_draw_sw_blend.c ****     dest_buf++;
  78:..\..\..\arduinoLCD\test\Pain Drain\libraries\lvgl\src\draw\sw/lv_draw_sw_blend.c **** 
  79:..\..\..\arduinoLCD\test\Pain Drain\libraries\lvgl\src\draw\sw/lv_draw_sw_blend.c **** #define MAP_NORMAL_MASK_PX(x)                                                          \
  80:..\..\..\arduinoLCD\test\Pain Drain\libraries\lvgl\src\draw\sw/lv_draw_sw_blend.c ****     if(*mask_tmp_x) {          \
  81:..\..\..\arduinoLCD\test\Pain Drain\libraries\lvgl\src\draw\sw/lv_draw_sw_blend.c ****         if(*mask_tmp_x == LV_OPA_COVER) dest_buf[x] = src_buf[x];                                 \
  82:..\..\..\arduinoLCD\test\Pain Drain\libraries\lvgl\src\draw\sw/lv_draw_sw_blend.c ****         else dest_buf[x] = lv_color_mix(src_buf[x], dest_buf[x], *mask_tmp_x);            \
  83:..\..\..\arduinoLCD\test\Pain Drain\libraries\lvgl\src\draw\sw/lv_draw_sw_blend.c ****     }                                                                                              
  84:..\..\..\arduinoLCD\test\Pain Drain\libraries\lvgl\src\draw\sw/lv_draw_sw_blend.c ****     mask_tmp_x++;
  85:..\..\..\arduinoLCD\test\Pain Drain\libraries\lvgl\src\draw\sw/lv_draw_sw_blend.c **** 
  86:..\..\..\arduinoLCD\test\Pain Drain\libraries\lvgl\src\draw\sw/lv_draw_sw_blend.c **** 
  87:..\..\..\arduinoLCD\test\Pain Drain\libraries\lvgl\src\draw\sw/lv_draw_sw_blend.c **** /**********************
  88:..\..\..\arduinoLCD\test\Pain Drain\libraries\lvgl\src\draw\sw/lv_draw_sw_blend.c ****  *   GLOBAL FUNCTIONS
ARM GAS  C:\Users\haske\AppData\Local\Temp\ccydbpJh.s 			page 3


  89:..\..\..\arduinoLCD\test\Pain Drain\libraries\lvgl\src\draw\sw/lv_draw_sw_blend.c ****  **********************/
  90:..\..\..\arduinoLCD\test\Pain Drain\libraries\lvgl\src\draw\sw/lv_draw_sw_blend.c **** 
  91:..\..\..\arduinoLCD\test\Pain Drain\libraries\lvgl\src\draw\sw/lv_draw_sw_blend.c **** void lv_draw_sw_blend(lv_draw_ctx_t * draw_ctx, const lv_draw_sw_blend_dsc_t * dsc)
  92:..\..\..\arduinoLCD\test\Pain Drain\libraries\lvgl\src\draw\sw/lv_draw_sw_blend.c **** {
  93:..\..\..\arduinoLCD\test\Pain Drain\libraries\lvgl\src\draw\sw/lv_draw_sw_blend.c ****     /*Do not draw transparent things*/
  94:..\..\..\arduinoLCD\test\Pain Drain\libraries\lvgl\src\draw\sw/lv_draw_sw_blend.c ****     if(dsc->opa <= LV_OPA_MIN) return;
  95:..\..\..\arduinoLCD\test\Pain Drain\libraries\lvgl\src\draw\sw/lv_draw_sw_blend.c **** 
  96:..\..\..\arduinoLCD\test\Pain Drain\libraries\lvgl\src\draw\sw/lv_draw_sw_blend.c ****     lv_area_t blend_area;
  97:..\..\..\arduinoLCD\test\Pain Drain\libraries\lvgl\src\draw\sw/lv_draw_sw_blend.c ****     if(!_lv_area_intersect(&blend_area, dsc->blend_area, draw_ctx->clip_area)) return;
  98:..\..\..\arduinoLCD\test\Pain Drain\libraries\lvgl\src\draw\sw/lv_draw_sw_blend.c **** 
  99:..\..\..\arduinoLCD\test\Pain Drain\libraries\lvgl\src\draw\sw/lv_draw_sw_blend.c ****     if(draw_ctx->wait_for_finish) draw_ctx->wait_for_finish(draw_ctx);
 100:..\..\..\arduinoLCD\test\Pain Drain\libraries\lvgl\src\draw\sw/lv_draw_sw_blend.c **** 
 101:..\..\..\arduinoLCD\test\Pain Drain\libraries\lvgl\src\draw\sw/lv_draw_sw_blend.c ****     ((lv_draw_sw_ctx_t *)draw_ctx)->blend(draw_ctx, dsc);
 102:..\..\..\arduinoLCD\test\Pain Drain\libraries\lvgl\src\draw\sw/lv_draw_sw_blend.c **** }
 103:..\..\..\arduinoLCD\test\Pain Drain\libraries\lvgl\src\draw\sw/lv_draw_sw_blend.c **** 
 104:..\..\..\arduinoLCD\test\Pain Drain\libraries\lvgl\src\draw\sw/lv_draw_sw_blend.c **** LV_ATTRIBUTE_FAST_MEM void lv_draw_sw_blend_basic(lv_draw_ctx_t * draw_ctx, const lv_draw_sw_blend_
 105:..\..\..\arduinoLCD\test\Pain Drain\libraries\lvgl\src\draw\sw/lv_draw_sw_blend.c **** {
 106:..\..\..\arduinoLCD\test\Pain Drain\libraries\lvgl\src\draw\sw/lv_draw_sw_blend.c ****     lv_opa_t * mask;
 107:..\..\..\arduinoLCD\test\Pain Drain\libraries\lvgl\src\draw\sw/lv_draw_sw_blend.c ****     if(dsc->mask_buf == NULL) mask = NULL;
 108:..\..\..\arduinoLCD\test\Pain Drain\libraries\lvgl\src\draw\sw/lv_draw_sw_blend.c ****     if(dsc->mask_buf && dsc->mask_res == LV_DRAW_MASK_RES_TRANSP) return;
 109:..\..\..\arduinoLCD\test\Pain Drain\libraries\lvgl\src\draw\sw/lv_draw_sw_blend.c ****     else if(dsc->mask_res == LV_DRAW_MASK_RES_FULL_COVER) mask = NULL;
 110:..\..\..\arduinoLCD\test\Pain Drain\libraries\lvgl\src\draw\sw/lv_draw_sw_blend.c ****     else mask = dsc->mask_buf;
 111:..\..\..\arduinoLCD\test\Pain Drain\libraries\lvgl\src\draw\sw/lv_draw_sw_blend.c **** 
 112:..\..\..\arduinoLCD\test\Pain Drain\libraries\lvgl\src\draw\sw/lv_draw_sw_blend.c ****     lv_coord_t dest_stride = lv_area_get_width(draw_ctx->buf_area);
 113:..\..\..\arduinoLCD\test\Pain Drain\libraries\lvgl\src\draw\sw/lv_draw_sw_blend.c **** 
 114:..\..\..\arduinoLCD\test\Pain Drain\libraries\lvgl\src\draw\sw/lv_draw_sw_blend.c ****     lv_area_t blend_area;
 115:..\..\..\arduinoLCD\test\Pain Drain\libraries\lvgl\src\draw\sw/lv_draw_sw_blend.c ****     if(!_lv_area_intersect(&blend_area, dsc->blend_area, draw_ctx->clip_area)) return;
 116:..\..\..\arduinoLCD\test\Pain Drain\libraries\lvgl\src\draw\sw/lv_draw_sw_blend.c **** 
 117:..\..\..\arduinoLCD\test\Pain Drain\libraries\lvgl\src\draw\sw/lv_draw_sw_blend.c ****     lv_disp_t * disp = _lv_refr_get_disp_refreshing();
 118:..\..\..\arduinoLCD\test\Pain Drain\libraries\lvgl\src\draw\sw/lv_draw_sw_blend.c ****     lv_color_t * dest_buf = draw_ctx->buf;
 119:..\..\..\arduinoLCD\test\Pain Drain\libraries\lvgl\src\draw\sw/lv_draw_sw_blend.c ****     if(disp->driver->set_px_cb == NULL) {
 120:..\..\..\arduinoLCD\test\Pain Drain\libraries\lvgl\src\draw\sw/lv_draw_sw_blend.c ****         if(disp->driver->screen_transp == 0) {
 121:..\..\..\arduinoLCD\test\Pain Drain\libraries\lvgl\src\draw\sw/lv_draw_sw_blend.c ****             dest_buf += dest_stride * (blend_area.y1 - draw_ctx->buf_area->y1) + (blend_area.x1 - d
 122:..\..\..\arduinoLCD\test\Pain Drain\libraries\lvgl\src\draw\sw/lv_draw_sw_blend.c ****         }
 123:..\..\..\arduinoLCD\test\Pain Drain\libraries\lvgl\src\draw\sw/lv_draw_sw_blend.c ****         else {
 124:..\..\..\arduinoLCD\test\Pain Drain\libraries\lvgl\src\draw\sw/lv_draw_sw_blend.c ****             /*With LV_COLOR_DEPTH 16 it means ARGB8565 (3 bytes format)*/
 125:..\..\..\arduinoLCD\test\Pain Drain\libraries\lvgl\src\draw\sw/lv_draw_sw_blend.c ****             uint8_t * dest_buf8 = (uint8_t *) dest_buf;
 126:..\..\..\arduinoLCD\test\Pain Drain\libraries\lvgl\src\draw\sw/lv_draw_sw_blend.c ****             dest_buf8 += dest_stride * (blend_area.y1 - draw_ctx->buf_area->y1) * LV_IMG_PX_SIZE_AL
 127:..\..\..\arduinoLCD\test\Pain Drain\libraries\lvgl\src\draw\sw/lv_draw_sw_blend.c ****             dest_buf8 += (blend_area.x1 - draw_ctx->buf_area->x1) * LV_IMG_PX_SIZE_ALPHA_BYTE;
 128:..\..\..\arduinoLCD\test\Pain Drain\libraries\lvgl\src\draw\sw/lv_draw_sw_blend.c ****             dest_buf = (lv_color_t *)dest_buf8;
 129:..\..\..\arduinoLCD\test\Pain Drain\libraries\lvgl\src\draw\sw/lv_draw_sw_blend.c ****         }
 130:..\..\..\arduinoLCD\test\Pain Drain\libraries\lvgl\src\draw\sw/lv_draw_sw_blend.c ****     }
 131:..\..\..\arduinoLCD\test\Pain Drain\libraries\lvgl\src\draw\sw/lv_draw_sw_blend.c **** 
 132:..\..\..\arduinoLCD\test\Pain Drain\libraries\lvgl\src\draw\sw/lv_draw_sw_blend.c ****     const lv_color_t * src_buf = dsc->src_buf;
 133:..\..\..\arduinoLCD\test\Pain Drain\libraries\lvgl\src\draw\sw/lv_draw_sw_blend.c ****     lv_coord_t src_stride;
 134:..\..\..\arduinoLCD\test\Pain Drain\libraries\lvgl\src\draw\sw/lv_draw_sw_blend.c ****     if(src_buf) {
 135:..\..\..\arduinoLCD\test\Pain Drain\libraries\lvgl\src\draw\sw/lv_draw_sw_blend.c ****         src_stride = lv_area_get_width(dsc->blend_area);
 136:..\..\..\arduinoLCD\test\Pain Drain\libraries\lvgl\src\draw\sw/lv_draw_sw_blend.c ****         src_buf += src_stride * (blend_area.y1 - dsc->blend_area->y1) + (blend_area.x1 - dsc->blend
 137:..\..\..\arduinoLCD\test\Pain Drain\libraries\lvgl\src\draw\sw/lv_draw_sw_blend.c ****     }
 138:..\..\..\arduinoLCD\test\Pain Drain\libraries\lvgl\src\draw\sw/lv_draw_sw_blend.c ****     else {
 139:..\..\..\arduinoLCD\test\Pain Drain\libraries\lvgl\src\draw\sw/lv_draw_sw_blend.c ****         src_stride = 0;
 140:..\..\..\arduinoLCD\test\Pain Drain\libraries\lvgl\src\draw\sw/lv_draw_sw_blend.c ****     }
 141:..\..\..\arduinoLCD\test\Pain Drain\libraries\lvgl\src\draw\sw/lv_draw_sw_blend.c **** 
 142:..\..\..\arduinoLCD\test\Pain Drain\libraries\lvgl\src\draw\sw/lv_draw_sw_blend.c ****     lv_coord_t mask_stride;
 143:..\..\..\arduinoLCD\test\Pain Drain\libraries\lvgl\src\draw\sw/lv_draw_sw_blend.c ****     if(mask) {
 144:..\..\..\arduinoLCD\test\Pain Drain\libraries\lvgl\src\draw\sw/lv_draw_sw_blend.c ****         /*Round the values in the mask if anti-aliasing is disabled*/
 145:..\..\..\arduinoLCD\test\Pain Drain\libraries\lvgl\src\draw\sw/lv_draw_sw_blend.c ****         if(disp->driver->antialiasing == 0) {
ARM GAS  C:\Users\haske\AppData\Local\Temp\ccydbpJh.s 			page 4


 146:..\..\..\arduinoLCD\test\Pain Drain\libraries\lvgl\src\draw\sw/lv_draw_sw_blend.c ****             int32_t mask_size = lv_area_get_size(dsc->mask_area);
 147:..\..\..\arduinoLCD\test\Pain Drain\libraries\lvgl\src\draw\sw/lv_draw_sw_blend.c ****             int32_t i;
 148:..\..\..\arduinoLCD\test\Pain Drain\libraries\lvgl\src\draw\sw/lv_draw_sw_blend.c ****             for(i = 0; i < mask_size; i++) {
 149:..\..\..\arduinoLCD\test\Pain Drain\libraries\lvgl\src\draw\sw/lv_draw_sw_blend.c ****                 mask[i] = mask[i] > 128 ? LV_OPA_COVER : LV_OPA_TRANSP;
 150:..\..\..\arduinoLCD\test\Pain Drain\libraries\lvgl\src\draw\sw/lv_draw_sw_blend.c ****             }
 151:..\..\..\arduinoLCD\test\Pain Drain\libraries\lvgl\src\draw\sw/lv_draw_sw_blend.c ****         }
 152:..\..\..\arduinoLCD\test\Pain Drain\libraries\lvgl\src\draw\sw/lv_draw_sw_blend.c **** 
 153:..\..\..\arduinoLCD\test\Pain Drain\libraries\lvgl\src\draw\sw/lv_draw_sw_blend.c ****         mask_stride = lv_area_get_width(dsc->mask_area);
 154:..\..\..\arduinoLCD\test\Pain Drain\libraries\lvgl\src\draw\sw/lv_draw_sw_blend.c ****         mask += mask_stride * (blend_area.y1 - dsc->mask_area->y1) + (blend_area.x1 - dsc->mask_are
 155:..\..\..\arduinoLCD\test\Pain Drain\libraries\lvgl\src\draw\sw/lv_draw_sw_blend.c **** 
 156:..\..\..\arduinoLCD\test\Pain Drain\libraries\lvgl\src\draw\sw/lv_draw_sw_blend.c ****     }
 157:..\..\..\arduinoLCD\test\Pain Drain\libraries\lvgl\src\draw\sw/lv_draw_sw_blend.c ****     else {
 158:..\..\..\arduinoLCD\test\Pain Drain\libraries\lvgl\src\draw\sw/lv_draw_sw_blend.c ****         mask_stride = 0;
 159:..\..\..\arduinoLCD\test\Pain Drain\libraries\lvgl\src\draw\sw/lv_draw_sw_blend.c ****     }
 160:..\..\..\arduinoLCD\test\Pain Drain\libraries\lvgl\src\draw\sw/lv_draw_sw_blend.c **** 
 161:..\..\..\arduinoLCD\test\Pain Drain\libraries\lvgl\src\draw\sw/lv_draw_sw_blend.c ****     lv_area_move(&blend_area, -draw_ctx->buf_area->x1, -draw_ctx->buf_area->y1);
 162:..\..\..\arduinoLCD\test\Pain Drain\libraries\lvgl\src\draw\sw/lv_draw_sw_blend.c **** 
 163:..\..\..\arduinoLCD\test\Pain Drain\libraries\lvgl\src\draw\sw/lv_draw_sw_blend.c **** 
 164:..\..\..\arduinoLCD\test\Pain Drain\libraries\lvgl\src\draw\sw/lv_draw_sw_blend.c ****     if(disp->driver->set_px_cb) {
 165:..\..\..\arduinoLCD\test\Pain Drain\libraries\lvgl\src\draw\sw/lv_draw_sw_blend.c ****         if(dsc->src_buf == NULL) {
 166:..\..\..\arduinoLCD\test\Pain Drain\libraries\lvgl\src\draw\sw/lv_draw_sw_blend.c ****             fill_set_px(dest_buf, &blend_area, dest_stride, dsc->color, dsc->opa, mask, mask_stride
 167:..\..\..\arduinoLCD\test\Pain Drain\libraries\lvgl\src\draw\sw/lv_draw_sw_blend.c ****         }
 168:..\..\..\arduinoLCD\test\Pain Drain\libraries\lvgl\src\draw\sw/lv_draw_sw_blend.c ****         else {
 169:..\..\..\arduinoLCD\test\Pain Drain\libraries\lvgl\src\draw\sw/lv_draw_sw_blend.c ****             map_set_px(dest_buf, &blend_area, dest_stride, src_buf, src_stride, dsc->opa, mask, mas
 170:..\..\..\arduinoLCD\test\Pain Drain\libraries\lvgl\src\draw\sw/lv_draw_sw_blend.c ****         }
 171:..\..\..\arduinoLCD\test\Pain Drain\libraries\lvgl\src\draw\sw/lv_draw_sw_blend.c ****     }
 172:..\..\..\arduinoLCD\test\Pain Drain\libraries\lvgl\src\draw\sw/lv_draw_sw_blend.c **** #if LV_COLOR_SCREEN_TRANSP
 173:..\..\..\arduinoLCD\test\Pain Drain\libraries\lvgl\src\draw\sw/lv_draw_sw_blend.c ****     else if(disp->driver->screen_transp) {
 174:..\..\..\arduinoLCD\test\Pain Drain\libraries\lvgl\src\draw\sw/lv_draw_sw_blend.c ****         if(dsc->src_buf == NULL) {
 175:..\..\..\arduinoLCD\test\Pain Drain\libraries\lvgl\src\draw\sw/lv_draw_sw_blend.c ****             fill_argb(dest_buf, &blend_area, dest_stride, dsc->color, dsc->opa, mask, mask_stride);
 176:..\..\..\arduinoLCD\test\Pain Drain\libraries\lvgl\src\draw\sw/lv_draw_sw_blend.c ****         }
 177:..\..\..\arduinoLCD\test\Pain Drain\libraries\lvgl\src\draw\sw/lv_draw_sw_blend.c ****         else {
 178:..\..\..\arduinoLCD\test\Pain Drain\libraries\lvgl\src\draw\sw/lv_draw_sw_blend.c ****             map_argb(dest_buf, &blend_area, dest_stride, src_buf, src_stride, dsc->opa, mask, mask_
 179:..\..\..\arduinoLCD\test\Pain Drain\libraries\lvgl\src\draw\sw/lv_draw_sw_blend.c ****         }
 180:..\..\..\arduinoLCD\test\Pain Drain\libraries\lvgl\src\draw\sw/lv_draw_sw_blend.c ****     }
 181:..\..\..\arduinoLCD\test\Pain Drain\libraries\lvgl\src\draw\sw/lv_draw_sw_blend.c **** #endif
 182:..\..\..\arduinoLCD\test\Pain Drain\libraries\lvgl\src\draw\sw/lv_draw_sw_blend.c ****     else if(dsc->blend_mode == LV_BLEND_MODE_NORMAL) {
 183:..\..\..\arduinoLCD\test\Pain Drain\libraries\lvgl\src\draw\sw/lv_draw_sw_blend.c ****         if(dsc->src_buf == NULL) {
 184:..\..\..\arduinoLCD\test\Pain Drain\libraries\lvgl\src\draw\sw/lv_draw_sw_blend.c ****             fill_normal(dest_buf, &blend_area, dest_stride, dsc->color, dsc->opa, mask, mask_stride
 185:..\..\..\arduinoLCD\test\Pain Drain\libraries\lvgl\src\draw\sw/lv_draw_sw_blend.c ****         }
 186:..\..\..\arduinoLCD\test\Pain Drain\libraries\lvgl\src\draw\sw/lv_draw_sw_blend.c ****         else {
 187:..\..\..\arduinoLCD\test\Pain Drain\libraries\lvgl\src\draw\sw/lv_draw_sw_blend.c ****             map_normal(dest_buf, &blend_area, dest_stride, src_buf, src_stride, dsc->opa, mask, mas
 188:..\..\..\arduinoLCD\test\Pain Drain\libraries\lvgl\src\draw\sw/lv_draw_sw_blend.c ****         }
 189:..\..\..\arduinoLCD\test\Pain Drain\libraries\lvgl\src\draw\sw/lv_draw_sw_blend.c ****     }
 190:..\..\..\arduinoLCD\test\Pain Drain\libraries\lvgl\src\draw\sw/lv_draw_sw_blend.c ****     else {
 191:..\..\..\arduinoLCD\test\Pain Drain\libraries\lvgl\src\draw\sw/lv_draw_sw_blend.c **** #if LV_DRAW_COMPLEX
 192:..\..\..\arduinoLCD\test\Pain Drain\libraries\lvgl\src\draw\sw/lv_draw_sw_blend.c ****         if(dsc->src_buf == NULL) {
 193:..\..\..\arduinoLCD\test\Pain Drain\libraries\lvgl\src\draw\sw/lv_draw_sw_blend.c ****             fill_blended(dest_buf, &blend_area, dest_stride, dsc->color, dsc->opa, mask, mask_strid
 194:..\..\..\arduinoLCD\test\Pain Drain\libraries\lvgl\src\draw\sw/lv_draw_sw_blend.c ****         }
 195:..\..\..\arduinoLCD\test\Pain Drain\libraries\lvgl\src\draw\sw/lv_draw_sw_blend.c ****         else {
 196:..\..\..\arduinoLCD\test\Pain Drain\libraries\lvgl\src\draw\sw/lv_draw_sw_blend.c ****             map_blended(dest_buf, &blend_area, dest_stride, src_buf, src_stride, dsc->opa, mask, ma
 197:..\..\..\arduinoLCD\test\Pain Drain\libraries\lvgl\src\draw\sw/lv_draw_sw_blend.c ****         }
 198:..\..\..\arduinoLCD\test\Pain Drain\libraries\lvgl\src\draw\sw/lv_draw_sw_blend.c **** #endif
 199:..\..\..\arduinoLCD\test\Pain Drain\libraries\lvgl\src\draw\sw/lv_draw_sw_blend.c ****     }
 200:..\..\..\arduinoLCD\test\Pain Drain\libraries\lvgl\src\draw\sw/lv_draw_sw_blend.c **** }
 201:..\..\..\arduinoLCD\test\Pain Drain\libraries\lvgl\src\draw\sw/lv_draw_sw_blend.c **** 
 202:..\..\..\arduinoLCD\test\Pain Drain\libraries\lvgl\src\draw\sw/lv_draw_sw_blend.c **** 
ARM GAS  C:\Users\haske\AppData\Local\Temp\ccydbpJh.s 			page 5


 203:..\..\..\arduinoLCD\test\Pain Drain\libraries\lvgl\src\draw\sw/lv_draw_sw_blend.c **** /**********************
 204:..\..\..\arduinoLCD\test\Pain Drain\libraries\lvgl\src\draw\sw/lv_draw_sw_blend.c ****  *   STATIC FUNCTIONS
 205:..\..\..\arduinoLCD\test\Pain Drain\libraries\lvgl\src\draw\sw/lv_draw_sw_blend.c ****  **********************/
 206:..\..\..\arduinoLCD\test\Pain Drain\libraries\lvgl\src\draw\sw/lv_draw_sw_blend.c **** 
 207:..\..\..\arduinoLCD\test\Pain Drain\libraries\lvgl\src\draw\sw/lv_draw_sw_blend.c **** static void fill_set_px(lv_color_t * dest_buf, const lv_area_t * blend_area, lv_coord_t dest_stride
 208:..\..\..\arduinoLCD\test\Pain Drain\libraries\lvgl\src\draw\sw/lv_draw_sw_blend.c ****                         lv_color_t color, lv_opa_t opa, const lv_opa_t * mask, lv_coord_t mask_stid
 209:..\..\..\arduinoLCD\test\Pain Drain\libraries\lvgl\src\draw\sw/lv_draw_sw_blend.c **** {
 210:..\..\..\arduinoLCD\test\Pain Drain\libraries\lvgl\src\draw\sw/lv_draw_sw_blend.c ****     lv_disp_t * disp = _lv_refr_get_disp_refreshing();
 211:..\..\..\arduinoLCD\test\Pain Drain\libraries\lvgl\src\draw\sw/lv_draw_sw_blend.c **** 
 212:..\..\..\arduinoLCD\test\Pain Drain\libraries\lvgl\src\draw\sw/lv_draw_sw_blend.c ****     int32_t x;
 213:..\..\..\arduinoLCD\test\Pain Drain\libraries\lvgl\src\draw\sw/lv_draw_sw_blend.c ****     int32_t y;
 214:..\..\..\arduinoLCD\test\Pain Drain\libraries\lvgl\src\draw\sw/lv_draw_sw_blend.c **** 
 215:..\..\..\arduinoLCD\test\Pain Drain\libraries\lvgl\src\draw\sw/lv_draw_sw_blend.c ****     if(mask == NULL) {
 216:..\..\..\arduinoLCD\test\Pain Drain\libraries\lvgl\src\draw\sw/lv_draw_sw_blend.c ****         for(y = blend_area->y1; y <= blend_area->y2; y++) {
 217:..\..\..\arduinoLCD\test\Pain Drain\libraries\lvgl\src\draw\sw/lv_draw_sw_blend.c ****             for(x = blend_area->x1; x <= blend_area->x2; x++) {
 218:..\..\..\arduinoLCD\test\Pain Drain\libraries\lvgl\src\draw\sw/lv_draw_sw_blend.c ****                 disp->driver->set_px_cb(disp->driver, (void *)dest_buf, dest_stride, x, y, color, o
 219:..\..\..\arduinoLCD\test\Pain Drain\libraries\lvgl\src\draw\sw/lv_draw_sw_blend.c ****             }
 220:..\..\..\arduinoLCD\test\Pain Drain\libraries\lvgl\src\draw\sw/lv_draw_sw_blend.c ****         }
 221:..\..\..\arduinoLCD\test\Pain Drain\libraries\lvgl\src\draw\sw/lv_draw_sw_blend.c ****     }
 222:..\..\..\arduinoLCD\test\Pain Drain\libraries\lvgl\src\draw\sw/lv_draw_sw_blend.c ****     else {
 223:..\..\..\arduinoLCD\test\Pain Drain\libraries\lvgl\src\draw\sw/lv_draw_sw_blend.c ****         int32_t w = lv_area_get_width(blend_area);
 224:..\..\..\arduinoLCD\test\Pain Drain\libraries\lvgl\src\draw\sw/lv_draw_sw_blend.c ****         int32_t h = lv_area_get_height(blend_area);
 225:..\..\..\arduinoLCD\test\Pain Drain\libraries\lvgl\src\draw\sw/lv_draw_sw_blend.c **** 
 226:..\..\..\arduinoLCD\test\Pain Drain\libraries\lvgl\src\draw\sw/lv_draw_sw_blend.c ****         for(y = 0; y < h; y++) {
 227:..\..\..\arduinoLCD\test\Pain Drain\libraries\lvgl\src\draw\sw/lv_draw_sw_blend.c ****             for(x = 0; x < w; x++) {
 228:..\..\..\arduinoLCD\test\Pain Drain\libraries\lvgl\src\draw\sw/lv_draw_sw_blend.c ****                 if(mask[x]) {
 229:..\..\..\arduinoLCD\test\Pain Drain\libraries\lvgl\src\draw\sw/lv_draw_sw_blend.c **** 
 230:..\..\..\arduinoLCD\test\Pain Drain\libraries\lvgl\src\draw\sw/lv_draw_sw_blend.c **** 
 231:..\..\..\arduinoLCD\test\Pain Drain\libraries\lvgl\src\draw\sw/lv_draw_sw_blend.c ****                     disp->driver->set_px_cb(disp->driver, (void *)dest_buf, dest_stride, blend_area
 232:..\..\..\arduinoLCD\test\Pain Drain\libraries\lvgl\src\draw\sw/lv_draw_sw_blend.c ****                                             (uint32_t)((uint32_t)opa * mask[x]) >> 8);
 233:..\..\..\arduinoLCD\test\Pain Drain\libraries\lvgl\src\draw\sw/lv_draw_sw_blend.c ****                 }
 234:..\..\..\arduinoLCD\test\Pain Drain\libraries\lvgl\src\draw\sw/lv_draw_sw_blend.c ****             }
 235:..\..\..\arduinoLCD\test\Pain Drain\libraries\lvgl\src\draw\sw/lv_draw_sw_blend.c ****             mask += mask_stide;
 236:..\..\..\arduinoLCD\test\Pain Drain\libraries\lvgl\src\draw\sw/lv_draw_sw_blend.c ****         }
 237:..\..\..\arduinoLCD\test\Pain Drain\libraries\lvgl\src\draw\sw/lv_draw_sw_blend.c ****     }
 238:..\..\..\arduinoLCD\test\Pain Drain\libraries\lvgl\src\draw\sw/lv_draw_sw_blend.c **** }
 239:..\..\..\arduinoLCD\test\Pain Drain\libraries\lvgl\src\draw\sw/lv_draw_sw_blend.c **** 
 240:..\..\..\arduinoLCD\test\Pain Drain\libraries\lvgl\src\draw\sw/lv_draw_sw_blend.c **** LV_ATTRIBUTE_FAST_MEM static void fill_normal(lv_color_t * dest_buf, const lv_area_t * dest_area,
 241:..\..\..\arduinoLCD\test\Pain Drain\libraries\lvgl\src\draw\sw/lv_draw_sw_blend.c ****                                               lv_coord_t dest_stride, lv_color_t color, lv_opa_t op
 242:..\..\..\arduinoLCD\test\Pain Drain\libraries\lvgl\src\draw\sw/lv_draw_sw_blend.c **** {
 243:..\..\..\arduinoLCD\test\Pain Drain\libraries\lvgl\src\draw\sw/lv_draw_sw_blend.c ****     int32_t w = lv_area_get_width(dest_area);
 244:..\..\..\arduinoLCD\test\Pain Drain\libraries\lvgl\src\draw\sw/lv_draw_sw_blend.c ****     int32_t h = lv_area_get_height(dest_area);
 245:..\..\..\arduinoLCD\test\Pain Drain\libraries\lvgl\src\draw\sw/lv_draw_sw_blend.c **** 
 246:..\..\..\arduinoLCD\test\Pain Drain\libraries\lvgl\src\draw\sw/lv_draw_sw_blend.c ****     int32_t x;
 247:..\..\..\arduinoLCD\test\Pain Drain\libraries\lvgl\src\draw\sw/lv_draw_sw_blend.c ****     int32_t y;
 248:..\..\..\arduinoLCD\test\Pain Drain\libraries\lvgl\src\draw\sw/lv_draw_sw_blend.c **** 
 249:..\..\..\arduinoLCD\test\Pain Drain\libraries\lvgl\src\draw\sw/lv_draw_sw_blend.c ****     /*No mask*/
 250:..\..\..\arduinoLCD\test\Pain Drain\libraries\lvgl\src\draw\sw/lv_draw_sw_blend.c ****     if(mask == NULL) {
 251:..\..\..\arduinoLCD\test\Pain Drain\libraries\lvgl\src\draw\sw/lv_draw_sw_blend.c ****         if(opa >= LV_OPA_MAX) {
 252:..\..\..\arduinoLCD\test\Pain Drain\libraries\lvgl\src\draw\sw/lv_draw_sw_blend.c ****             for(y = 0; y < h; y++) {
 253:..\..\..\arduinoLCD\test\Pain Drain\libraries\lvgl\src\draw\sw/lv_draw_sw_blend.c ****                 lv_color_fill(dest_buf, color, w);
 254:..\..\..\arduinoLCD\test\Pain Drain\libraries\lvgl\src\draw\sw/lv_draw_sw_blend.c ****                 dest_buf += dest_stride;
 255:..\..\..\arduinoLCD\test\Pain Drain\libraries\lvgl\src\draw\sw/lv_draw_sw_blend.c ****             }
 256:..\..\..\arduinoLCD\test\Pain Drain\libraries\lvgl\src\draw\sw/lv_draw_sw_blend.c ****         }
 257:..\..\..\arduinoLCD\test\Pain Drain\libraries\lvgl\src\draw\sw/lv_draw_sw_blend.c ****         /*Has opacity*/
 258:..\..\..\arduinoLCD\test\Pain Drain\libraries\lvgl\src\draw\sw/lv_draw_sw_blend.c ****         else {
 259:..\..\..\arduinoLCD\test\Pain Drain\libraries\lvgl\src\draw\sw/lv_draw_sw_blend.c ****             lv_color_t last_dest_color = lv_color_black();
ARM GAS  C:\Users\haske\AppData\Local\Temp\ccydbpJh.s 			page 6


 260:..\..\..\arduinoLCD\test\Pain Drain\libraries\lvgl\src\draw\sw/lv_draw_sw_blend.c ****             lv_color_t last_res_color = lv_color_mix(color, last_dest_color, opa);
 261:..\..\..\arduinoLCD\test\Pain Drain\libraries\lvgl\src\draw\sw/lv_draw_sw_blend.c **** 
 262:..\..\..\arduinoLCD\test\Pain Drain\libraries\lvgl\src\draw\sw/lv_draw_sw_blend.c **** #if LV_COLOR_MIX_ROUND_OFS == 0 && LV_COLOR_DEPTH == 16
 263:..\..\..\arduinoLCD\test\Pain Drain\libraries\lvgl\src\draw\sw/lv_draw_sw_blend.c ****             /*lv_color_mix work with an optimized algorithm with 16 bit color depth.
 264:..\..\..\arduinoLCD\test\Pain Drain\libraries\lvgl\src\draw\sw/lv_draw_sw_blend.c ****              *However, it introduces some rounded error on opa.
 265:..\..\..\arduinoLCD\test\Pain Drain\libraries\lvgl\src\draw\sw/lv_draw_sw_blend.c ****              *Introduce the same error here too to make lv_color_premult produces the same result *
 266:..\..\..\arduinoLCD\test\Pain Drain\libraries\lvgl\src\draw\sw/lv_draw_sw_blend.c ****             opa = (uint32_t)((uint32_t)opa + 4) >> 3;
 267:..\..\..\arduinoLCD\test\Pain Drain\libraries\lvgl\src\draw\sw/lv_draw_sw_blend.c ****             opa = opa << 3;
 268:..\..\..\arduinoLCD\test\Pain Drain\libraries\lvgl\src\draw\sw/lv_draw_sw_blend.c **** #endif
 269:..\..\..\arduinoLCD\test\Pain Drain\libraries\lvgl\src\draw\sw/lv_draw_sw_blend.c **** 
 270:..\..\..\arduinoLCD\test\Pain Drain\libraries\lvgl\src\draw\sw/lv_draw_sw_blend.c ****             uint16_t color_premult[3];
 271:..\..\..\arduinoLCD\test\Pain Drain\libraries\lvgl\src\draw\sw/lv_draw_sw_blend.c ****             lv_color_premult(color, opa, color_premult);
 272:..\..\..\arduinoLCD\test\Pain Drain\libraries\lvgl\src\draw\sw/lv_draw_sw_blend.c ****             lv_opa_t opa_inv = 255 - opa;
 273:..\..\..\arduinoLCD\test\Pain Drain\libraries\lvgl\src\draw\sw/lv_draw_sw_blend.c **** 
 274:..\..\..\arduinoLCD\test\Pain Drain\libraries\lvgl\src\draw\sw/lv_draw_sw_blend.c ****             for(y = 0; y < h; y++) {
 275:..\..\..\arduinoLCD\test\Pain Drain\libraries\lvgl\src\draw\sw/lv_draw_sw_blend.c ****                 for(x = 0; x < w; x++) {
 276:..\..\..\arduinoLCD\test\Pain Drain\libraries\lvgl\src\draw\sw/lv_draw_sw_blend.c ****                     if(last_dest_color.full != dest_buf[x].full) {
 277:..\..\..\arduinoLCD\test\Pain Drain\libraries\lvgl\src\draw\sw/lv_draw_sw_blend.c ****                         last_dest_color = dest_buf[x];
 278:..\..\..\arduinoLCD\test\Pain Drain\libraries\lvgl\src\draw\sw/lv_draw_sw_blend.c ****                         last_res_color = lv_color_mix_premult(color_premult, dest_buf[x], opa_inv);
 279:..\..\..\arduinoLCD\test\Pain Drain\libraries\lvgl\src\draw\sw/lv_draw_sw_blend.c ****                     }
 280:..\..\..\arduinoLCD\test\Pain Drain\libraries\lvgl\src\draw\sw/lv_draw_sw_blend.c ****                     dest_buf[x] = last_res_color;
 281:..\..\..\arduinoLCD\test\Pain Drain\libraries\lvgl\src\draw\sw/lv_draw_sw_blend.c ****                 }
 282:..\..\..\arduinoLCD\test\Pain Drain\libraries\lvgl\src\draw\sw/lv_draw_sw_blend.c ****                 dest_buf += dest_stride;
 283:..\..\..\arduinoLCD\test\Pain Drain\libraries\lvgl\src\draw\sw/lv_draw_sw_blend.c ****             }
 284:..\..\..\arduinoLCD\test\Pain Drain\libraries\lvgl\src\draw\sw/lv_draw_sw_blend.c ****         }
 285:..\..\..\arduinoLCD\test\Pain Drain\libraries\lvgl\src\draw\sw/lv_draw_sw_blend.c ****     }
 286:..\..\..\arduinoLCD\test\Pain Drain\libraries\lvgl\src\draw\sw/lv_draw_sw_blend.c ****     /*Masked*/
 287:..\..\..\arduinoLCD\test\Pain Drain\libraries\lvgl\src\draw\sw/lv_draw_sw_blend.c ****     else {
 288:..\..\..\arduinoLCD\test\Pain Drain\libraries\lvgl\src\draw\sw/lv_draw_sw_blend.c **** #if LV_COLOR_DEPTH == 16
 289:..\..\..\arduinoLCD\test\Pain Drain\libraries\lvgl\src\draw\sw/lv_draw_sw_blend.c ****         uint32_t c32 = color.full + ((uint32_t)color.full << 16);
 290:..\..\..\arduinoLCD\test\Pain Drain\libraries\lvgl\src\draw\sw/lv_draw_sw_blend.c **** #endif
 291:..\..\..\arduinoLCD\test\Pain Drain\libraries\lvgl\src\draw\sw/lv_draw_sw_blend.c ****         /*Only the mask matters*/
 292:..\..\..\arduinoLCD\test\Pain Drain\libraries\lvgl\src\draw\sw/lv_draw_sw_blend.c ****         if(opa >= LV_OPA_MAX) {
 293:..\..\..\arduinoLCD\test\Pain Drain\libraries\lvgl\src\draw\sw/lv_draw_sw_blend.c ****             int32_t x_end4 = w - 4;
 294:..\..\..\arduinoLCD\test\Pain Drain\libraries\lvgl\src\draw\sw/lv_draw_sw_blend.c ****             for(y = 0; y < h; y++) {
 295:..\..\..\arduinoLCD\test\Pain Drain\libraries\lvgl\src\draw\sw/lv_draw_sw_blend.c ****                 for(x = 0; x < w && ((lv_uintptr_t)(mask) & 0x3); x++) {
 296:..\..\..\arduinoLCD\test\Pain Drain\libraries\lvgl\src\draw\sw/lv_draw_sw_blend.c ****                     FILL_NORMAL_MASK_PX(color)
 297:..\..\..\arduinoLCD\test\Pain Drain\libraries\lvgl\src\draw\sw/lv_draw_sw_blend.c ****                 }
 298:..\..\..\arduinoLCD\test\Pain Drain\libraries\lvgl\src\draw\sw/lv_draw_sw_blend.c **** 
 299:..\..\..\arduinoLCD\test\Pain Drain\libraries\lvgl\src\draw\sw/lv_draw_sw_blend.c ****                 for(; x <= x_end4; x += 4) {
 300:..\..\..\arduinoLCD\test\Pain Drain\libraries\lvgl\src\draw\sw/lv_draw_sw_blend.c ****                     uint32_t mask32 = *((uint32_t *)mask);
 301:..\..\..\arduinoLCD\test\Pain Drain\libraries\lvgl\src\draw\sw/lv_draw_sw_blend.c ****                     if(mask32 == 0xFFFFFFFF) {
 302:..\..\..\arduinoLCD\test\Pain Drain\libraries\lvgl\src\draw\sw/lv_draw_sw_blend.c **** #if LV_COLOR_DEPTH == 16
 303:..\..\..\arduinoLCD\test\Pain Drain\libraries\lvgl\src\draw\sw/lv_draw_sw_blend.c ****                         if((lv_uintptr_t)dest_buf & 0x3) {
 304:..\..\..\arduinoLCD\test\Pain Drain\libraries\lvgl\src\draw\sw/lv_draw_sw_blend.c ****                             *(dest_buf + 0) = color;
 305:..\..\..\arduinoLCD\test\Pain Drain\libraries\lvgl\src\draw\sw/lv_draw_sw_blend.c ****                             uint32_t * d = (uint32_t *)(dest_buf + 1);
 306:..\..\..\arduinoLCD\test\Pain Drain\libraries\lvgl\src\draw\sw/lv_draw_sw_blend.c ****                             *d = c32;
 307:..\..\..\arduinoLCD\test\Pain Drain\libraries\lvgl\src\draw\sw/lv_draw_sw_blend.c ****                             *(dest_buf + 3) = color;
 308:..\..\..\arduinoLCD\test\Pain Drain\libraries\lvgl\src\draw\sw/lv_draw_sw_blend.c ****                         }
 309:..\..\..\arduinoLCD\test\Pain Drain\libraries\lvgl\src\draw\sw/lv_draw_sw_blend.c ****                         else {
 310:..\..\..\arduinoLCD\test\Pain Drain\libraries\lvgl\src\draw\sw/lv_draw_sw_blend.c ****                             uint32_t * d = (uint32_t *)dest_buf;
 311:..\..\..\arduinoLCD\test\Pain Drain\libraries\lvgl\src\draw\sw/lv_draw_sw_blend.c ****                             *d = c32;
 312:..\..\..\arduinoLCD\test\Pain Drain\libraries\lvgl\src\draw\sw/lv_draw_sw_blend.c ****                             *(d + 1) = c32;
 313:..\..\..\arduinoLCD\test\Pain Drain\libraries\lvgl\src\draw\sw/lv_draw_sw_blend.c ****                         }
 314:..\..\..\arduinoLCD\test\Pain Drain\libraries\lvgl\src\draw\sw/lv_draw_sw_blend.c **** #else
 315:..\..\..\arduinoLCD\test\Pain Drain\libraries\lvgl\src\draw\sw/lv_draw_sw_blend.c ****                         dest_buf[0] = color;
 316:..\..\..\arduinoLCD\test\Pain Drain\libraries\lvgl\src\draw\sw/lv_draw_sw_blend.c ****                         dest_buf[1] = color;
ARM GAS  C:\Users\haske\AppData\Local\Temp\ccydbpJh.s 			page 7


 317:..\..\..\arduinoLCD\test\Pain Drain\libraries\lvgl\src\draw\sw/lv_draw_sw_blend.c ****                         dest_buf[2] = color;
 318:..\..\..\arduinoLCD\test\Pain Drain\libraries\lvgl\src\draw\sw/lv_draw_sw_blend.c ****                         dest_buf[3] = color;
 319:..\..\..\arduinoLCD\test\Pain Drain\libraries\lvgl\src\draw\sw/lv_draw_sw_blend.c **** #endif
 320:..\..\..\arduinoLCD\test\Pain Drain\libraries\lvgl\src\draw\sw/lv_draw_sw_blend.c ****                         dest_buf += 4;
 321:..\..\..\arduinoLCD\test\Pain Drain\libraries\lvgl\src\draw\sw/lv_draw_sw_blend.c ****                         mask += 4;
 322:..\..\..\arduinoLCD\test\Pain Drain\libraries\lvgl\src\draw\sw/lv_draw_sw_blend.c ****                     }
 323:..\..\..\arduinoLCD\test\Pain Drain\libraries\lvgl\src\draw\sw/lv_draw_sw_blend.c ****                     else if(mask32) {
 324:..\..\..\arduinoLCD\test\Pain Drain\libraries\lvgl\src\draw\sw/lv_draw_sw_blend.c ****                         FILL_NORMAL_MASK_PX(color)
 325:..\..\..\arduinoLCD\test\Pain Drain\libraries\lvgl\src\draw\sw/lv_draw_sw_blend.c ****                         FILL_NORMAL_MASK_PX(color)
 326:..\..\..\arduinoLCD\test\Pain Drain\libraries\lvgl\src\draw\sw/lv_draw_sw_blend.c ****                         FILL_NORMAL_MASK_PX(color)
 327:..\..\..\arduinoLCD\test\Pain Drain\libraries\lvgl\src\draw\sw/lv_draw_sw_blend.c ****                         FILL_NORMAL_MASK_PX(color)
 328:..\..\..\arduinoLCD\test\Pain Drain\libraries\lvgl\src\draw\sw/lv_draw_sw_blend.c ****                     }
 329:..\..\..\arduinoLCD\test\Pain Drain\libraries\lvgl\src\draw\sw/lv_draw_sw_blend.c ****                     else {
 330:..\..\..\arduinoLCD\test\Pain Drain\libraries\lvgl\src\draw\sw/lv_draw_sw_blend.c ****                         mask += 4;
 331:..\..\..\arduinoLCD\test\Pain Drain\libraries\lvgl\src\draw\sw/lv_draw_sw_blend.c ****                         dest_buf += 4;
 332:..\..\..\arduinoLCD\test\Pain Drain\libraries\lvgl\src\draw\sw/lv_draw_sw_blend.c ****                     }
 333:..\..\..\arduinoLCD\test\Pain Drain\libraries\lvgl\src\draw\sw/lv_draw_sw_blend.c ****                 }
 334:..\..\..\arduinoLCD\test\Pain Drain\libraries\lvgl\src\draw\sw/lv_draw_sw_blend.c **** 
 335:..\..\..\arduinoLCD\test\Pain Drain\libraries\lvgl\src\draw\sw/lv_draw_sw_blend.c ****                 for(; x < w ; x++) {
 336:..\..\..\arduinoLCD\test\Pain Drain\libraries\lvgl\src\draw\sw/lv_draw_sw_blend.c ****                     FILL_NORMAL_MASK_PX(color)
 337:..\..\..\arduinoLCD\test\Pain Drain\libraries\lvgl\src\draw\sw/lv_draw_sw_blend.c ****                 }
 338:..\..\..\arduinoLCD\test\Pain Drain\libraries\lvgl\src\draw\sw/lv_draw_sw_blend.c ****                 dest_buf += (dest_stride - w);
 339:..\..\..\arduinoLCD\test\Pain Drain\libraries\lvgl\src\draw\sw/lv_draw_sw_blend.c ****                 mask += (mask_stride - w);
 340:..\..\..\arduinoLCD\test\Pain Drain\libraries\lvgl\src\draw\sw/lv_draw_sw_blend.c ****             }
 341:..\..\..\arduinoLCD\test\Pain Drain\libraries\lvgl\src\draw\sw/lv_draw_sw_blend.c ****         }
 342:..\..\..\arduinoLCD\test\Pain Drain\libraries\lvgl\src\draw\sw/lv_draw_sw_blend.c ****         /*With opacity*/
 343:..\..\..\arduinoLCD\test\Pain Drain\libraries\lvgl\src\draw\sw/lv_draw_sw_blend.c ****         else {
 344:..\..\..\arduinoLCD\test\Pain Drain\libraries\lvgl\src\draw\sw/lv_draw_sw_blend.c ****             /*Buffer the result color to avoid recalculating the same color*/
 345:..\..\..\arduinoLCD\test\Pain Drain\libraries\lvgl\src\draw\sw/lv_draw_sw_blend.c ****             lv_color_t last_dest_color;
 346:..\..\..\arduinoLCD\test\Pain Drain\libraries\lvgl\src\draw\sw/lv_draw_sw_blend.c ****             lv_color_t last_res_color;
 347:..\..\..\arduinoLCD\test\Pain Drain\libraries\lvgl\src\draw\sw/lv_draw_sw_blend.c ****             lv_opa_t last_mask = LV_OPA_TRANSP;
 348:..\..\..\arduinoLCD\test\Pain Drain\libraries\lvgl\src\draw\sw/lv_draw_sw_blend.c ****             last_dest_color.full = dest_buf[0].full;
 349:..\..\..\arduinoLCD\test\Pain Drain\libraries\lvgl\src\draw\sw/lv_draw_sw_blend.c ****             last_res_color.full = dest_buf[0].full;
 350:..\..\..\arduinoLCD\test\Pain Drain\libraries\lvgl\src\draw\sw/lv_draw_sw_blend.c ****             lv_opa_t opa_tmp = LV_OPA_TRANSP;
 351:..\..\..\arduinoLCD\test\Pain Drain\libraries\lvgl\src\draw\sw/lv_draw_sw_blend.c **** 
 352:..\..\..\arduinoLCD\test\Pain Drain\libraries\lvgl\src\draw\sw/lv_draw_sw_blend.c ****             for(y = 0; y < h; y++) {
 353:..\..\..\arduinoLCD\test\Pain Drain\libraries\lvgl\src\draw\sw/lv_draw_sw_blend.c ****                 for(x = 0; x < w; x++) {
 354:..\..\..\arduinoLCD\test\Pain Drain\libraries\lvgl\src\draw\sw/lv_draw_sw_blend.c ****                     if(*mask) {
 355:..\..\..\arduinoLCD\test\Pain Drain\libraries\lvgl\src\draw\sw/lv_draw_sw_blend.c ****                         if(*mask != last_mask) opa_tmp = *mask == LV_OPA_COVER ? opa :
 356:..\..\..\arduinoLCD\test\Pain Drain\libraries\lvgl\src\draw\sw/lv_draw_sw_blend.c ****                                                              (uint32_t)((uint32_t)(*mask) * opa) >>
 357:..\..\..\arduinoLCD\test\Pain Drain\libraries\lvgl\src\draw\sw/lv_draw_sw_blend.c ****                         if(*mask != last_mask || last_dest_color.full != dest_buf[x].full) {
 358:..\..\..\arduinoLCD\test\Pain Drain\libraries\lvgl\src\draw\sw/lv_draw_sw_blend.c ****                             if(opa_tmp == LV_OPA_COVER) last_res_color = color;
 359:..\..\..\arduinoLCD\test\Pain Drain\libraries\lvgl\src\draw\sw/lv_draw_sw_blend.c ****                             else last_res_color = lv_color_mix(color, dest_buf[x], opa_tmp);
 360:..\..\..\arduinoLCD\test\Pain Drain\libraries\lvgl\src\draw\sw/lv_draw_sw_blend.c ****                             last_mask = *mask;
 361:..\..\..\arduinoLCD\test\Pain Drain\libraries\lvgl\src\draw\sw/lv_draw_sw_blend.c ****                             last_dest_color.full = dest_buf[x].full;
 362:..\..\..\arduinoLCD\test\Pain Drain\libraries\lvgl\src\draw\sw/lv_draw_sw_blend.c ****                         }
 363:..\..\..\arduinoLCD\test\Pain Drain\libraries\lvgl\src\draw\sw/lv_draw_sw_blend.c ****                         dest_buf[x] = last_res_color;
 364:..\..\..\arduinoLCD\test\Pain Drain\libraries\lvgl\src\draw\sw/lv_draw_sw_blend.c ****                     }
 365:..\..\..\arduinoLCD\test\Pain Drain\libraries\lvgl\src\draw\sw/lv_draw_sw_blend.c ****                     mask++;
 366:..\..\..\arduinoLCD\test\Pain Drain\libraries\lvgl\src\draw\sw/lv_draw_sw_blend.c ****                 }
 367:..\..\..\arduinoLCD\test\Pain Drain\libraries\lvgl\src\draw\sw/lv_draw_sw_blend.c ****                 dest_buf += dest_stride;
 368:..\..\..\arduinoLCD\test\Pain Drain\libraries\lvgl\src\draw\sw/lv_draw_sw_blend.c ****                 mask += (mask_stride - w);
 369:..\..\..\arduinoLCD\test\Pain Drain\libraries\lvgl\src\draw\sw/lv_draw_sw_blend.c ****             }
 370:..\..\..\arduinoLCD\test\Pain Drain\libraries\lvgl\src\draw\sw/lv_draw_sw_blend.c ****         }
 371:..\..\..\arduinoLCD\test\Pain Drain\libraries\lvgl\src\draw\sw/lv_draw_sw_blend.c ****     }
 372:..\..\..\arduinoLCD\test\Pain Drain\libraries\lvgl\src\draw\sw/lv_draw_sw_blend.c **** }
 373:..\..\..\arduinoLCD\test\Pain Drain\libraries\lvgl\src\draw\sw/lv_draw_sw_blend.c **** 
ARM GAS  C:\Users\haske\AppData\Local\Temp\ccydbpJh.s 			page 8


 374:..\..\..\arduinoLCD\test\Pain Drain\libraries\lvgl\src\draw\sw/lv_draw_sw_blend.c **** #if LV_COLOR_SCREEN_TRANSP
 375:..\..\..\arduinoLCD\test\Pain Drain\libraries\lvgl\src\draw\sw/lv_draw_sw_blend.c **** static inline void set_px_argb(uint8_t * buf, lv_color_t color, lv_opa_t opa)
 376:..\..\..\arduinoLCD\test\Pain Drain\libraries\lvgl\src\draw\sw/lv_draw_sw_blend.c **** {
 377:..\..\..\arduinoLCD\test\Pain Drain\libraries\lvgl\src\draw\sw/lv_draw_sw_blend.c ****     lv_color_t bg_color;
 378:..\..\..\arduinoLCD\test\Pain Drain\libraries\lvgl\src\draw\sw/lv_draw_sw_blend.c ****     lv_color_t res_color;
 379:..\..\..\arduinoLCD\test\Pain Drain\libraries\lvgl\src\draw\sw/lv_draw_sw_blend.c ****     lv_opa_t bg_opa = buf[LV_IMG_PX_SIZE_ALPHA_BYTE - 1];
 380:..\..\..\arduinoLCD\test\Pain Drain\libraries\lvgl\src\draw\sw/lv_draw_sw_blend.c **** #if LV_COLOR_DEPTH == 8
 381:..\..\..\arduinoLCD\test\Pain Drain\libraries\lvgl\src\draw\sw/lv_draw_sw_blend.c ****     bg_color.full = buf[0];
 382:..\..\..\arduinoLCD\test\Pain Drain\libraries\lvgl\src\draw\sw/lv_draw_sw_blend.c ****     lv_color_mix_with_alpha(bg_color, bg_opa, color, opa, &res_color, &buf[1]);
 383:..\..\..\arduinoLCD\test\Pain Drain\libraries\lvgl\src\draw\sw/lv_draw_sw_blend.c ****     if(buf[1] <= LV_OPA_MIN) return;
 384:..\..\..\arduinoLCD\test\Pain Drain\libraries\lvgl\src\draw\sw/lv_draw_sw_blend.c ****     buf[0] = res_color.full;
 385:..\..\..\arduinoLCD\test\Pain Drain\libraries\lvgl\src\draw\sw/lv_draw_sw_blend.c **** #elif LV_COLOR_DEPTH == 16
 386:..\..\..\arduinoLCD\test\Pain Drain\libraries\lvgl\src\draw\sw/lv_draw_sw_blend.c ****     bg_color.full = buf[0] + (buf[1] << 8);
 387:..\..\..\arduinoLCD\test\Pain Drain\libraries\lvgl\src\draw\sw/lv_draw_sw_blend.c ****     lv_color_mix_with_alpha(bg_color, bg_opa, color, opa, &res_color, &buf[2]);
 388:..\..\..\arduinoLCD\test\Pain Drain\libraries\lvgl\src\draw\sw/lv_draw_sw_blend.c ****     if(buf[2] <= LV_OPA_MIN) return;
 389:..\..\..\arduinoLCD\test\Pain Drain\libraries\lvgl\src\draw\sw/lv_draw_sw_blend.c ****     buf[0] = res_color.full & 0xff;
 390:..\..\..\arduinoLCD\test\Pain Drain\libraries\lvgl\src\draw\sw/lv_draw_sw_blend.c ****     buf[1] = res_color.full >> 8;
 391:..\..\..\arduinoLCD\test\Pain Drain\libraries\lvgl\src\draw\sw/lv_draw_sw_blend.c **** #elif LV_COLOR_DEPTH == 32
 392:..\..\..\arduinoLCD\test\Pain Drain\libraries\lvgl\src\draw\sw/lv_draw_sw_blend.c ****     bg_color = *((lv_color_t *)buf);
 393:..\..\..\arduinoLCD\test\Pain Drain\libraries\lvgl\src\draw\sw/lv_draw_sw_blend.c ****     lv_color_mix_with_alpha(bg_color, bg_opa, color, opa, &res_color, &buf[3]);
 394:..\..\..\arduinoLCD\test\Pain Drain\libraries\lvgl\src\draw\sw/lv_draw_sw_blend.c ****     if(buf[3] <= LV_OPA_MIN) return;
 395:..\..\..\arduinoLCD\test\Pain Drain\libraries\lvgl\src\draw\sw/lv_draw_sw_blend.c ****     buf[0] = res_color.ch.blue;
 396:..\..\..\arduinoLCD\test\Pain Drain\libraries\lvgl\src\draw\sw/lv_draw_sw_blend.c ****     buf[1] = res_color.ch.green;
 397:..\..\..\arduinoLCD\test\Pain Drain\libraries\lvgl\src\draw\sw/lv_draw_sw_blend.c ****     buf[2] = res_color.ch.red;
 398:..\..\..\arduinoLCD\test\Pain Drain\libraries\lvgl\src\draw\sw/lv_draw_sw_blend.c **** #endif
 399:..\..\..\arduinoLCD\test\Pain Drain\libraries\lvgl\src\draw\sw/lv_draw_sw_blend.c **** }
 400:..\..\..\arduinoLCD\test\Pain Drain\libraries\lvgl\src\draw\sw/lv_draw_sw_blend.c **** 
 401:..\..\..\arduinoLCD\test\Pain Drain\libraries\lvgl\src\draw\sw/lv_draw_sw_blend.c **** static inline void set_px_argb_blend(uint8_t * buf, lv_color_t color, lv_opa_t opa, lv_color_t (*bl
 402:..\..\..\arduinoLCD\test\Pain Drain\libraries\lvgl\src\draw\sw/lv_draw_sw_blend.c ****                                                                                                    
 403:..\..\..\arduinoLCD\test\Pain Drain\libraries\lvgl\src\draw\sw/lv_draw_sw_blend.c **** {
 404:..\..\..\arduinoLCD\test\Pain Drain\libraries\lvgl\src\draw\sw/lv_draw_sw_blend.c ****     static lv_color_t last_dest_color;
 405:..\..\..\arduinoLCD\test\Pain Drain\libraries\lvgl\src\draw\sw/lv_draw_sw_blend.c ****     static lv_color_t last_src_color;
 406:..\..\..\arduinoLCD\test\Pain Drain\libraries\lvgl\src\draw\sw/lv_draw_sw_blend.c ****     static lv_color_t last_res_color;
 407:..\..\..\arduinoLCD\test\Pain Drain\libraries\lvgl\src\draw\sw/lv_draw_sw_blend.c ****     static uint32_t last_opa = 0xffff; /*Set to an invalid value for first*/
 408:..\..\..\arduinoLCD\test\Pain Drain\libraries\lvgl\src\draw\sw/lv_draw_sw_blend.c **** 
 409:..\..\..\arduinoLCD\test\Pain Drain\libraries\lvgl\src\draw\sw/lv_draw_sw_blend.c ****     lv_color_t bg_color;
 410:..\..\..\arduinoLCD\test\Pain Drain\libraries\lvgl\src\draw\sw/lv_draw_sw_blend.c **** 
 411:..\..\..\arduinoLCD\test\Pain Drain\libraries\lvgl\src\draw\sw/lv_draw_sw_blend.c ****     /*Get the BG color*/
 412:..\..\..\arduinoLCD\test\Pain Drain\libraries\lvgl\src\draw\sw/lv_draw_sw_blend.c **** #if LV_COLOR_DEPTH == 8
 413:..\..\..\arduinoLCD\test\Pain Drain\libraries\lvgl\src\draw\sw/lv_draw_sw_blend.c ****     if(buf[1] <= LV_OPA_MIN) return;
 414:..\..\..\arduinoLCD\test\Pain Drain\libraries\lvgl\src\draw\sw/lv_draw_sw_blend.c ****     bg_color.full = buf[0];
 415:..\..\..\arduinoLCD\test\Pain Drain\libraries\lvgl\src\draw\sw/lv_draw_sw_blend.c **** #elif LV_COLOR_DEPTH == 16
 416:..\..\..\arduinoLCD\test\Pain Drain\libraries\lvgl\src\draw\sw/lv_draw_sw_blend.c ****     if(buf[2] <= LV_OPA_MIN) return;
 417:..\..\..\arduinoLCD\test\Pain Drain\libraries\lvgl\src\draw\sw/lv_draw_sw_blend.c ****     bg_color.full = buf[0] + (buf[1] << 8);
 418:..\..\..\arduinoLCD\test\Pain Drain\libraries\lvgl\src\draw\sw/lv_draw_sw_blend.c **** #elif LV_COLOR_DEPTH == 32
 419:..\..\..\arduinoLCD\test\Pain Drain\libraries\lvgl\src\draw\sw/lv_draw_sw_blend.c ****     if(buf[3] <= LV_OPA_MIN) return;
 420:..\..\..\arduinoLCD\test\Pain Drain\libraries\lvgl\src\draw\sw/lv_draw_sw_blend.c ****     bg_color = *((lv_color_t *)buf);
 421:..\..\..\arduinoLCD\test\Pain Drain\libraries\lvgl\src\draw\sw/lv_draw_sw_blend.c **** #endif
 422:..\..\..\arduinoLCD\test\Pain Drain\libraries\lvgl\src\draw\sw/lv_draw_sw_blend.c **** 
 423:..\..\..\arduinoLCD\test\Pain Drain\libraries\lvgl\src\draw\sw/lv_draw_sw_blend.c ****     /*Get the result color*/
 424:..\..\..\arduinoLCD\test\Pain Drain\libraries\lvgl\src\draw\sw/lv_draw_sw_blend.c ****     if(last_dest_color.full != bg_color.full || last_src_color.full != color.full || last_opa != op
 425:..\..\..\arduinoLCD\test\Pain Drain\libraries\lvgl\src\draw\sw/lv_draw_sw_blend.c ****         last_dest_color = bg_color;
 426:..\..\..\arduinoLCD\test\Pain Drain\libraries\lvgl\src\draw\sw/lv_draw_sw_blend.c ****         last_src_color = color;
 427:..\..\..\arduinoLCD\test\Pain Drain\libraries\lvgl\src\draw\sw/lv_draw_sw_blend.c ****         last_opa = opa;
 428:..\..\..\arduinoLCD\test\Pain Drain\libraries\lvgl\src\draw\sw/lv_draw_sw_blend.c ****         last_res_color = blend_fp(last_src_color, last_dest_color, last_opa);
 429:..\..\..\arduinoLCD\test\Pain Drain\libraries\lvgl\src\draw\sw/lv_draw_sw_blend.c ****     }
 430:..\..\..\arduinoLCD\test\Pain Drain\libraries\lvgl\src\draw\sw/lv_draw_sw_blend.c **** 
ARM GAS  C:\Users\haske\AppData\Local\Temp\ccydbpJh.s 			page 9


 431:..\..\..\arduinoLCD\test\Pain Drain\libraries\lvgl\src\draw\sw/lv_draw_sw_blend.c ****     /*Set the result color*/
 432:..\..\..\arduinoLCD\test\Pain Drain\libraries\lvgl\src\draw\sw/lv_draw_sw_blend.c **** #if LV_COLOR_DEPTH == 8
 433:..\..\..\arduinoLCD\test\Pain Drain\libraries\lvgl\src\draw\sw/lv_draw_sw_blend.c ****     buf[0] = res_color.full;
 434:..\..\..\arduinoLCD\test\Pain Drain\libraries\lvgl\src\draw\sw/lv_draw_sw_blend.c **** #elif LV_COLOR_DEPTH == 16
 435:..\..\..\arduinoLCD\test\Pain Drain\libraries\lvgl\src\draw\sw/lv_draw_sw_blend.c ****     buf[0] = last_res_color.full & 0xff;
 436:..\..\..\arduinoLCD\test\Pain Drain\libraries\lvgl\src\draw\sw/lv_draw_sw_blend.c ****     buf[1] = last_res_color.full >> 8;
 437:..\..\..\arduinoLCD\test\Pain Drain\libraries\lvgl\src\draw\sw/lv_draw_sw_blend.c **** #elif LV_COLOR_DEPTH == 32
 438:..\..\..\arduinoLCD\test\Pain Drain\libraries\lvgl\src\draw\sw/lv_draw_sw_blend.c ****     buf[0] = last_res_color.ch.blue;
 439:..\..\..\arduinoLCD\test\Pain Drain\libraries\lvgl\src\draw\sw/lv_draw_sw_blend.c ****     buf[1] = last_res_color.ch.green;
 440:..\..\..\arduinoLCD\test\Pain Drain\libraries\lvgl\src\draw\sw/lv_draw_sw_blend.c ****     buf[2] = last_res_color.ch.red;
 441:..\..\..\arduinoLCD\test\Pain Drain\libraries\lvgl\src\draw\sw/lv_draw_sw_blend.c **** #endif
 442:..\..\..\arduinoLCD\test\Pain Drain\libraries\lvgl\src\draw\sw/lv_draw_sw_blend.c **** 
 443:..\..\..\arduinoLCD\test\Pain Drain\libraries\lvgl\src\draw\sw/lv_draw_sw_blend.c **** }
 444:..\..\..\arduinoLCD\test\Pain Drain\libraries\lvgl\src\draw\sw/lv_draw_sw_blend.c **** 
 445:..\..\..\arduinoLCD\test\Pain Drain\libraries\lvgl\src\draw\sw/lv_draw_sw_blend.c **** LV_ATTRIBUTE_FAST_MEM static void fill_argb(lv_color_t * dest_buf, const lv_area_t * dest_area,
 446:..\..\..\arduinoLCD\test\Pain Drain\libraries\lvgl\src\draw\sw/lv_draw_sw_blend.c ****                                             lv_coord_t dest_stride, lv_color_t color, lv_opa_t opa,
 447:..\..\..\arduinoLCD\test\Pain Drain\libraries\lvgl\src\draw\sw/lv_draw_sw_blend.c **** {
 448:..\..\..\arduinoLCD\test\Pain Drain\libraries\lvgl\src\draw\sw/lv_draw_sw_blend.c ****     uint8_t * dest_buf8 = (uint8_t *) dest_buf;
 449:..\..\..\arduinoLCD\test\Pain Drain\libraries\lvgl\src\draw\sw/lv_draw_sw_blend.c ****     int32_t w = lv_area_get_width(dest_area);
 450:..\..\..\arduinoLCD\test\Pain Drain\libraries\lvgl\src\draw\sw/lv_draw_sw_blend.c ****     int32_t h = lv_area_get_height(dest_area);
 451:..\..\..\arduinoLCD\test\Pain Drain\libraries\lvgl\src\draw\sw/lv_draw_sw_blend.c **** 
 452:..\..\..\arduinoLCD\test\Pain Drain\libraries\lvgl\src\draw\sw/lv_draw_sw_blend.c ****     int32_t x;
 453:..\..\..\arduinoLCD\test\Pain Drain\libraries\lvgl\src\draw\sw/lv_draw_sw_blend.c ****     int32_t y;
 454:..\..\..\arduinoLCD\test\Pain Drain\libraries\lvgl\src\draw\sw/lv_draw_sw_blend.c **** 
 455:..\..\..\arduinoLCD\test\Pain Drain\libraries\lvgl\src\draw\sw/lv_draw_sw_blend.c ****     uint8_t ctmp[LV_IMG_PX_SIZE_ALPHA_BYTE];
 456:..\..\..\arduinoLCD\test\Pain Drain\libraries\lvgl\src\draw\sw/lv_draw_sw_blend.c ****     lv_memcpy(ctmp, &color, sizeof(lv_color_t));
 457:..\..\..\arduinoLCD\test\Pain Drain\libraries\lvgl\src\draw\sw/lv_draw_sw_blend.c ****     ctmp[LV_IMG_PX_SIZE_ALPHA_BYTE - 1] = opa;
 458:..\..\..\arduinoLCD\test\Pain Drain\libraries\lvgl\src\draw\sw/lv_draw_sw_blend.c **** 
 459:..\..\..\arduinoLCD\test\Pain Drain\libraries\lvgl\src\draw\sw/lv_draw_sw_blend.c ****     /*No mask*/
 460:..\..\..\arduinoLCD\test\Pain Drain\libraries\lvgl\src\draw\sw/lv_draw_sw_blend.c ****     if(mask == NULL) {
 461:..\..\..\arduinoLCD\test\Pain Drain\libraries\lvgl\src\draw\sw/lv_draw_sw_blend.c ****         if(opa >= LV_OPA_MAX) {
 462:..\..\..\arduinoLCD\test\Pain Drain\libraries\lvgl\src\draw\sw/lv_draw_sw_blend.c ****             for(x = 0; x < w; x++) {
 463:..\..\..\arduinoLCD\test\Pain Drain\libraries\lvgl\src\draw\sw/lv_draw_sw_blend.c ****                 lv_memcpy(dest_buf8, ctmp, LV_IMG_PX_SIZE_ALPHA_BYTE);
 464:..\..\..\arduinoLCD\test\Pain Drain\libraries\lvgl\src\draw\sw/lv_draw_sw_blend.c ****                 dest_buf8 += LV_IMG_PX_SIZE_ALPHA_BYTE;
 465:..\..\..\arduinoLCD\test\Pain Drain\libraries\lvgl\src\draw\sw/lv_draw_sw_blend.c ****             }
 466:..\..\..\arduinoLCD\test\Pain Drain\libraries\lvgl\src\draw\sw/lv_draw_sw_blend.c **** 
 467:..\..\..\arduinoLCD\test\Pain Drain\libraries\lvgl\src\draw\sw/lv_draw_sw_blend.c ****             dest_buf8 += (dest_stride - w) * LV_IMG_PX_SIZE_ALPHA_BYTE;
 468:..\..\..\arduinoLCD\test\Pain Drain\libraries\lvgl\src\draw\sw/lv_draw_sw_blend.c **** 
 469:..\..\..\arduinoLCD\test\Pain Drain\libraries\lvgl\src\draw\sw/lv_draw_sw_blend.c ****             for(y = 1; y < h; y++) {
 470:..\..\..\arduinoLCD\test\Pain Drain\libraries\lvgl\src\draw\sw/lv_draw_sw_blend.c ****                 lv_memcpy(dest_buf8, (uint8_t *) dest_buf, w * LV_IMG_PX_SIZE_ALPHA_BYTE);
 471:..\..\..\arduinoLCD\test\Pain Drain\libraries\lvgl\src\draw\sw/lv_draw_sw_blend.c ****                 dest_buf8 += dest_stride * LV_IMG_PX_SIZE_ALPHA_BYTE;
 472:..\..\..\arduinoLCD\test\Pain Drain\libraries\lvgl\src\draw\sw/lv_draw_sw_blend.c ****             }
 473:..\..\..\arduinoLCD\test\Pain Drain\libraries\lvgl\src\draw\sw/lv_draw_sw_blend.c ****         }
 474:..\..\..\arduinoLCD\test\Pain Drain\libraries\lvgl\src\draw\sw/lv_draw_sw_blend.c ****         /*Has opacity*/
 475:..\..\..\arduinoLCD\test\Pain Drain\libraries\lvgl\src\draw\sw/lv_draw_sw_blend.c ****         else {
 476:..\..\..\arduinoLCD\test\Pain Drain\libraries\lvgl\src\draw\sw/lv_draw_sw_blend.c ****             uint8_t * dest_buf8_row = dest_buf8;
 477:..\..\..\arduinoLCD\test\Pain Drain\libraries\lvgl\src\draw\sw/lv_draw_sw_blend.c ****             for(y = 0; y < h; y++) {
 478:..\..\..\arduinoLCD\test\Pain Drain\libraries\lvgl\src\draw\sw/lv_draw_sw_blend.c ****                 for(x = 0; x < w; x++) {
 479:..\..\..\arduinoLCD\test\Pain Drain\libraries\lvgl\src\draw\sw/lv_draw_sw_blend.c ****                     set_px_argb(dest_buf8, color, opa);
 480:..\..\..\arduinoLCD\test\Pain Drain\libraries\lvgl\src\draw\sw/lv_draw_sw_blend.c ****                     dest_buf8 += LV_IMG_PX_SIZE_ALPHA_BYTE;
 481:..\..\..\arduinoLCD\test\Pain Drain\libraries\lvgl\src\draw\sw/lv_draw_sw_blend.c ****                 }
 482:..\..\..\arduinoLCD\test\Pain Drain\libraries\lvgl\src\draw\sw/lv_draw_sw_blend.c ****                 dest_buf8_row += dest_stride * LV_IMG_PX_SIZE_ALPHA_BYTE;
 483:..\..\..\arduinoLCD\test\Pain Drain\libraries\lvgl\src\draw\sw/lv_draw_sw_blend.c ****                 dest_buf8 = dest_buf8_row;
 484:..\..\..\arduinoLCD\test\Pain Drain\libraries\lvgl\src\draw\sw/lv_draw_sw_blend.c ****             }
 485:..\..\..\arduinoLCD\test\Pain Drain\libraries\lvgl\src\draw\sw/lv_draw_sw_blend.c ****         }
 486:..\..\..\arduinoLCD\test\Pain Drain\libraries\lvgl\src\draw\sw/lv_draw_sw_blend.c ****     }
 487:..\..\..\arduinoLCD\test\Pain Drain\libraries\lvgl\src\draw\sw/lv_draw_sw_blend.c ****     /*Masked*/
ARM GAS  C:\Users\haske\AppData\Local\Temp\ccydbpJh.s 			page 10


 488:..\..\..\arduinoLCD\test\Pain Drain\libraries\lvgl\src\draw\sw/lv_draw_sw_blend.c ****     else {
 489:..\..\..\arduinoLCD\test\Pain Drain\libraries\lvgl\src\draw\sw/lv_draw_sw_blend.c ****         /*Only the mask matters*/
 490:..\..\..\arduinoLCD\test\Pain Drain\libraries\lvgl\src\draw\sw/lv_draw_sw_blend.c ****         if(opa >= LV_OPA_MAX) {
 491:..\..\..\arduinoLCD\test\Pain Drain\libraries\lvgl\src\draw\sw/lv_draw_sw_blend.c ****             uint8_t * dest_buf8_row = dest_buf8;
 492:..\..\..\arduinoLCD\test\Pain Drain\libraries\lvgl\src\draw\sw/lv_draw_sw_blend.c ****             for(y = 0; y < h; y++) {
 493:..\..\..\arduinoLCD\test\Pain Drain\libraries\lvgl\src\draw\sw/lv_draw_sw_blend.c ****                 for(x = 0; x < w; x++) {
 494:..\..\..\arduinoLCD\test\Pain Drain\libraries\lvgl\src\draw\sw/lv_draw_sw_blend.c ****                     set_px_argb(dest_buf8, color,  *mask);
 495:..\..\..\arduinoLCD\test\Pain Drain\libraries\lvgl\src\draw\sw/lv_draw_sw_blend.c ****                     mask++;
 496:..\..\..\arduinoLCD\test\Pain Drain\libraries\lvgl\src\draw\sw/lv_draw_sw_blend.c ****                     dest_buf8 += LV_IMG_PX_SIZE_ALPHA_BYTE;
 497:..\..\..\arduinoLCD\test\Pain Drain\libraries\lvgl\src\draw\sw/lv_draw_sw_blend.c ****                 }
 498:..\..\..\arduinoLCD\test\Pain Drain\libraries\lvgl\src\draw\sw/lv_draw_sw_blend.c ****                 dest_buf8_row += dest_stride * LV_IMG_PX_SIZE_ALPHA_BYTE;
 499:..\..\..\arduinoLCD\test\Pain Drain\libraries\lvgl\src\draw\sw/lv_draw_sw_blend.c ****                 dest_buf8 = dest_buf8_row;
 500:..\..\..\arduinoLCD\test\Pain Drain\libraries\lvgl\src\draw\sw/lv_draw_sw_blend.c ****             }
 501:..\..\..\arduinoLCD\test\Pain Drain\libraries\lvgl\src\draw\sw/lv_draw_sw_blend.c ****         }
 502:..\..\..\arduinoLCD\test\Pain Drain\libraries\lvgl\src\draw\sw/lv_draw_sw_blend.c ****         /*With opacity*/
 503:..\..\..\arduinoLCD\test\Pain Drain\libraries\lvgl\src\draw\sw/lv_draw_sw_blend.c ****         else {
 504:..\..\..\arduinoLCD\test\Pain Drain\libraries\lvgl\src\draw\sw/lv_draw_sw_blend.c ****             /*Buffer the result color to avoid recalculating the same color*/
 505:..\..\..\arduinoLCD\test\Pain Drain\libraries\lvgl\src\draw\sw/lv_draw_sw_blend.c ****             lv_opa_t last_mask = LV_OPA_TRANSP;
 506:..\..\..\arduinoLCD\test\Pain Drain\libraries\lvgl\src\draw\sw/lv_draw_sw_blend.c ****             lv_opa_t opa_tmp = LV_OPA_TRANSP;
 507:..\..\..\arduinoLCD\test\Pain Drain\libraries\lvgl\src\draw\sw/lv_draw_sw_blend.c **** 
 508:..\..\..\arduinoLCD\test\Pain Drain\libraries\lvgl\src\draw\sw/lv_draw_sw_blend.c ****             uint8_t * dest_buf8_row = dest_buf8;
 509:..\..\..\arduinoLCD\test\Pain Drain\libraries\lvgl\src\draw\sw/lv_draw_sw_blend.c ****             for(y = 0; y < h; y++) {
 510:..\..\..\arduinoLCD\test\Pain Drain\libraries\lvgl\src\draw\sw/lv_draw_sw_blend.c ****                 for(x = 0; x < w; x++) {
 511:..\..\..\arduinoLCD\test\Pain Drain\libraries\lvgl\src\draw\sw/lv_draw_sw_blend.c ****                     if(*mask) {
 512:..\..\..\arduinoLCD\test\Pain Drain\libraries\lvgl\src\draw\sw/lv_draw_sw_blend.c ****                         if(*mask != last_mask) opa_tmp = *mask == LV_OPA_COVER ? opa :
 513:..\..\..\arduinoLCD\test\Pain Drain\libraries\lvgl\src\draw\sw/lv_draw_sw_blend.c ****                                                              (uint32_t)((uint32_t)(*mask) * opa) >>
 514:..\..\..\arduinoLCD\test\Pain Drain\libraries\lvgl\src\draw\sw/lv_draw_sw_blend.c **** 
 515:..\..\..\arduinoLCD\test\Pain Drain\libraries\lvgl\src\draw\sw/lv_draw_sw_blend.c ****                         set_px_argb(dest_buf8, color,  opa_tmp);
 516:..\..\..\arduinoLCD\test\Pain Drain\libraries\lvgl\src\draw\sw/lv_draw_sw_blend.c ****                     }
 517:..\..\..\arduinoLCD\test\Pain Drain\libraries\lvgl\src\draw\sw/lv_draw_sw_blend.c ****                     dest_buf8 += LV_IMG_PX_SIZE_ALPHA_BYTE;
 518:..\..\..\arduinoLCD\test\Pain Drain\libraries\lvgl\src\draw\sw/lv_draw_sw_blend.c ****                     mask++;
 519:..\..\..\arduinoLCD\test\Pain Drain\libraries\lvgl\src\draw\sw/lv_draw_sw_blend.c ****                 }
 520:..\..\..\arduinoLCD\test\Pain Drain\libraries\lvgl\src\draw\sw/lv_draw_sw_blend.c ****                 dest_buf8_row += dest_stride * LV_IMG_PX_SIZE_ALPHA_BYTE;
 521:..\..\..\arduinoLCD\test\Pain Drain\libraries\lvgl\src\draw\sw/lv_draw_sw_blend.c ****                 dest_buf8 = dest_buf8_row;
 522:..\..\..\arduinoLCD\test\Pain Drain\libraries\lvgl\src\draw\sw/lv_draw_sw_blend.c ****                 mask += (mask_stride - w);
 523:..\..\..\arduinoLCD\test\Pain Drain\libraries\lvgl\src\draw\sw/lv_draw_sw_blend.c ****             }
 524:..\..\..\arduinoLCD\test\Pain Drain\libraries\lvgl\src\draw\sw/lv_draw_sw_blend.c ****         }
 525:..\..\..\arduinoLCD\test\Pain Drain\libraries\lvgl\src\draw\sw/lv_draw_sw_blend.c ****     }
 526:..\..\..\arduinoLCD\test\Pain Drain\libraries\lvgl\src\draw\sw/lv_draw_sw_blend.c **** }
 527:..\..\..\arduinoLCD\test\Pain Drain\libraries\lvgl\src\draw\sw/lv_draw_sw_blend.c **** #endif
 528:..\..\..\arduinoLCD\test\Pain Drain\libraries\lvgl\src\draw\sw/lv_draw_sw_blend.c **** 
 529:..\..\..\arduinoLCD\test\Pain Drain\libraries\lvgl\src\draw\sw/lv_draw_sw_blend.c **** #if LV_DRAW_COMPLEX
 530:..\..\..\arduinoLCD\test\Pain Drain\libraries\lvgl\src\draw\sw/lv_draw_sw_blend.c **** static void fill_blended(lv_color_t * dest_buf, const lv_area_t * dest_area,
 531:..\..\..\arduinoLCD\test\Pain Drain\libraries\lvgl\src\draw\sw/lv_draw_sw_blend.c ****                          lv_coord_t dest_stride, lv_color_t color, lv_opa_t opa, const lv_opa_t * m
 532:..\..\..\arduinoLCD\test\Pain Drain\libraries\lvgl\src\draw\sw/lv_draw_sw_blend.c ****                          lv_blend_mode_t blend_mode)
 533:..\..\..\arduinoLCD\test\Pain Drain\libraries\lvgl\src\draw\sw/lv_draw_sw_blend.c **** {
  27              		.loc 1 533 0
  28              		.cfi_startproc
  29              		@ args = 16, pretend = 0, frame = 32
  30              		@ frame_needed = 0, uses_anonymous_args = 0
  31              	.LVL0:
  32 0000 F0B5     		push	{r4, r5, r6, r7, lr}
  33              		.cfi_def_cfa_offset 20
  34              		.cfi_offset 4, -20
  35              		.cfi_offset 5, -16
  36              		.cfi_offset 6, -12
  37              		.cfi_offset 7, -8
ARM GAS  C:\Users\haske\AppData\Local\Temp\ccydbpJh.s 			page 11


  38              		.cfi_offset 14, -4
  39 0002 5F46     		mov	r7, fp
  40 0004 5646     		mov	r6, r10
  41 0006 4D46     		mov	r5, r9
  42 0008 4446     		mov	r4, r8
  43 000a F0B4     		push	{r4, r5, r6, r7}
  44              		.cfi_def_cfa_offset 36
  45              		.cfi_offset 8, -36
  46              		.cfi_offset 9, -32
  47              		.cfi_offset 10, -28
  48              		.cfi_offset 11, -24
  49 000c 89B0     		sub	sp, sp, #36
  50              		.cfi_def_cfa_offset 72
  51 000e 8046     		mov	r8, r0
  52 0010 0692     		str	r2, [sp, #24]
  53 0012 6A46     		mov	r2, sp
  54              	.LVL1:
  55 0014 D380     		strh	r3, [r2, #6]
  56 0016 12AB     		add	r3, sp, #72
  57              	.LVL2:
  58 0018 1B78     		ldrb	r3, [r3]
  59              	.LVL3:
  60 001a 0293     		str	r3, [sp, #8]
  61 001c 139B     		ldr	r3, [sp, #76]
  62 001e 9A46     		mov	r10, r3
  63 0020 14AB     		add	r3, sp, #80
  64              	.LVL4:
  65 0022 0022     		movs	r2, #0
  66 0024 9B5E     		ldrsh	r3, [r3, r2]
  67              	.LVL5:
  68 0026 0793     		str	r3, [sp, #28]
  69 0028 15AB     		add	r3, sp, #84
  70              	.LVL6:
  71 002a 1A78     		ldrb	r2, [r3]
  72              	.LVL7:
  73              	.LBB98:
  74              	.LBB99:
  75              		.file 2 "c:\\projects\\paindrain\\arduinolcd\\test\\pain drain\\libraries\\lvgl\\src\\misc\\lv_are
   1:c:\projects\paindrain\arduinolcd\test\pain drain\libraries\lvgl\src\misc\lv_area.h **** /**
   2:c:\projects\paindrain\arduinolcd\test\pain drain\libraries\lvgl\src\misc\lv_area.h ****  * @file lv_area.h
   3:c:\projects\paindrain\arduinolcd\test\pain drain\libraries\lvgl\src\misc\lv_area.h ****  *
   4:c:\projects\paindrain\arduinolcd\test\pain drain\libraries\lvgl\src\misc\lv_area.h ****  */
   5:c:\projects\paindrain\arduinolcd\test\pain drain\libraries\lvgl\src\misc\lv_area.h **** 
   6:c:\projects\paindrain\arduinolcd\test\pain drain\libraries\lvgl\src\misc\lv_area.h **** #ifndef LV_AREA_H
   7:c:\projects\paindrain\arduinolcd\test\pain drain\libraries\lvgl\src\misc\lv_area.h **** #define LV_AREA_H
   8:c:\projects\paindrain\arduinolcd\test\pain drain\libraries\lvgl\src\misc\lv_area.h **** 
   9:c:\projects\paindrain\arduinolcd\test\pain drain\libraries\lvgl\src\misc\lv_area.h **** #ifdef __cplusplus
  10:c:\projects\paindrain\arduinolcd\test\pain drain\libraries\lvgl\src\misc\lv_area.h **** extern "C" {
  11:c:\projects\paindrain\arduinolcd\test\pain drain\libraries\lvgl\src\misc\lv_area.h **** #endif
  12:c:\projects\paindrain\arduinolcd\test\pain drain\libraries\lvgl\src\misc\lv_area.h **** 
  13:c:\projects\paindrain\arduinolcd\test\pain drain\libraries\lvgl\src\misc\lv_area.h **** /*********************
  14:c:\projects\paindrain\arduinolcd\test\pain drain\libraries\lvgl\src\misc\lv_area.h ****  *      INCLUDES
  15:c:\projects\paindrain\arduinolcd\test\pain drain\libraries\lvgl\src\misc\lv_area.h ****  *********************/
  16:c:\projects\paindrain\arduinolcd\test\pain drain\libraries\lvgl\src\misc\lv_area.h **** #include "../lv_conf_internal.h"
  17:c:\projects\paindrain\arduinolcd\test\pain drain\libraries\lvgl\src\misc\lv_area.h **** #include <stdbool.h>
  18:c:\projects\paindrain\arduinolcd\test\pain drain\libraries\lvgl\src\misc\lv_area.h **** #include <stdint.h>
  19:c:\projects\paindrain\arduinolcd\test\pain drain\libraries\lvgl\src\misc\lv_area.h **** 
ARM GAS  C:\Users\haske\AppData\Local\Temp\ccydbpJh.s 			page 12


  20:c:\projects\paindrain\arduinolcd\test\pain drain\libraries\lvgl\src\misc\lv_area.h **** /*********************
  21:c:\projects\paindrain\arduinolcd\test\pain drain\libraries\lvgl\src\misc\lv_area.h ****  *      DEFINES
  22:c:\projects\paindrain\arduinolcd\test\pain drain\libraries\lvgl\src\misc\lv_area.h ****  *********************/
  23:c:\projects\paindrain\arduinolcd\test\pain drain\libraries\lvgl\src\misc\lv_area.h **** 
  24:c:\projects\paindrain\arduinolcd\test\pain drain\libraries\lvgl\src\misc\lv_area.h **** #if LV_USE_LARGE_COORD
  25:c:\projects\paindrain\arduinolcd\test\pain drain\libraries\lvgl\src\misc\lv_area.h **** typedef int32_t lv_coord_t;
  26:c:\projects\paindrain\arduinolcd\test\pain drain\libraries\lvgl\src\misc\lv_area.h **** #else
  27:c:\projects\paindrain\arduinolcd\test\pain drain\libraries\lvgl\src\misc\lv_area.h **** typedef int16_t lv_coord_t;
  28:c:\projects\paindrain\arduinolcd\test\pain drain\libraries\lvgl\src\misc\lv_area.h **** #endif
  29:c:\projects\paindrain\arduinolcd\test\pain drain\libraries\lvgl\src\misc\lv_area.h **** 
  30:c:\projects\paindrain\arduinolcd\test\pain drain\libraries\lvgl\src\misc\lv_area.h **** /**********************
  31:c:\projects\paindrain\arduinolcd\test\pain drain\libraries\lvgl\src\misc\lv_area.h ****  *      TYPEDEFS
  32:c:\projects\paindrain\arduinolcd\test\pain drain\libraries\lvgl\src\misc\lv_area.h ****  **********************/
  33:c:\projects\paindrain\arduinolcd\test\pain drain\libraries\lvgl\src\misc\lv_area.h **** 
  34:c:\projects\paindrain\arduinolcd\test\pain drain\libraries\lvgl\src\misc\lv_area.h **** /**
  35:c:\projects\paindrain\arduinolcd\test\pain drain\libraries\lvgl\src\misc\lv_area.h ****  * Represents a point on the screen.
  36:c:\projects\paindrain\arduinolcd\test\pain drain\libraries\lvgl\src\misc\lv_area.h ****  */
  37:c:\projects\paindrain\arduinolcd\test\pain drain\libraries\lvgl\src\misc\lv_area.h **** typedef struct {
  38:c:\projects\paindrain\arduinolcd\test\pain drain\libraries\lvgl\src\misc\lv_area.h ****     lv_coord_t x;
  39:c:\projects\paindrain\arduinolcd\test\pain drain\libraries\lvgl\src\misc\lv_area.h ****     lv_coord_t y;
  40:c:\projects\paindrain\arduinolcd\test\pain drain\libraries\lvgl\src\misc\lv_area.h **** } lv_point_t;
  41:c:\projects\paindrain\arduinolcd\test\pain drain\libraries\lvgl\src\misc\lv_area.h **** 
  42:c:\projects\paindrain\arduinolcd\test\pain drain\libraries\lvgl\src\misc\lv_area.h **** /** Represents an area of the screen.*/
  43:c:\projects\paindrain\arduinolcd\test\pain drain\libraries\lvgl\src\misc\lv_area.h **** typedef struct {
  44:c:\projects\paindrain\arduinolcd\test\pain drain\libraries\lvgl\src\misc\lv_area.h ****     lv_coord_t x1;
  45:c:\projects\paindrain\arduinolcd\test\pain drain\libraries\lvgl\src\misc\lv_area.h ****     lv_coord_t y1;
  46:c:\projects\paindrain\arduinolcd\test\pain drain\libraries\lvgl\src\misc\lv_area.h ****     lv_coord_t x2;
  47:c:\projects\paindrain\arduinolcd\test\pain drain\libraries\lvgl\src\misc\lv_area.h ****     lv_coord_t y2;
  48:c:\projects\paindrain\arduinolcd\test\pain drain\libraries\lvgl\src\misc\lv_area.h **** } lv_area_t;
  49:c:\projects\paindrain\arduinolcd\test\pain drain\libraries\lvgl\src\misc\lv_area.h **** 
  50:c:\projects\paindrain\arduinolcd\test\pain drain\libraries\lvgl\src\misc\lv_area.h **** /** Alignments*/
  51:c:\projects\paindrain\arduinolcd\test\pain drain\libraries\lvgl\src\misc\lv_area.h **** enum {
  52:c:\projects\paindrain\arduinolcd\test\pain drain\libraries\lvgl\src\misc\lv_area.h ****     LV_ALIGN_DEFAULT = 0,
  53:c:\projects\paindrain\arduinolcd\test\pain drain\libraries\lvgl\src\misc\lv_area.h ****     LV_ALIGN_TOP_LEFT,
  54:c:\projects\paindrain\arduinolcd\test\pain drain\libraries\lvgl\src\misc\lv_area.h ****     LV_ALIGN_TOP_MID,
  55:c:\projects\paindrain\arduinolcd\test\pain drain\libraries\lvgl\src\misc\lv_area.h ****     LV_ALIGN_TOP_RIGHT,
  56:c:\projects\paindrain\arduinolcd\test\pain drain\libraries\lvgl\src\misc\lv_area.h ****     LV_ALIGN_BOTTOM_LEFT,
  57:c:\projects\paindrain\arduinolcd\test\pain drain\libraries\lvgl\src\misc\lv_area.h ****     LV_ALIGN_BOTTOM_MID,
  58:c:\projects\paindrain\arduinolcd\test\pain drain\libraries\lvgl\src\misc\lv_area.h ****     LV_ALIGN_BOTTOM_RIGHT,
  59:c:\projects\paindrain\arduinolcd\test\pain drain\libraries\lvgl\src\misc\lv_area.h ****     LV_ALIGN_LEFT_MID,
  60:c:\projects\paindrain\arduinolcd\test\pain drain\libraries\lvgl\src\misc\lv_area.h ****     LV_ALIGN_RIGHT_MID,
  61:c:\projects\paindrain\arduinolcd\test\pain drain\libraries\lvgl\src\misc\lv_area.h ****     LV_ALIGN_CENTER,
  62:c:\projects\paindrain\arduinolcd\test\pain drain\libraries\lvgl\src\misc\lv_area.h **** 
  63:c:\projects\paindrain\arduinolcd\test\pain drain\libraries\lvgl\src\misc\lv_area.h ****     LV_ALIGN_OUT_TOP_LEFT,
  64:c:\projects\paindrain\arduinolcd\test\pain drain\libraries\lvgl\src\misc\lv_area.h ****     LV_ALIGN_OUT_TOP_MID,
  65:c:\projects\paindrain\arduinolcd\test\pain drain\libraries\lvgl\src\misc\lv_area.h ****     LV_ALIGN_OUT_TOP_RIGHT,
  66:c:\projects\paindrain\arduinolcd\test\pain drain\libraries\lvgl\src\misc\lv_area.h ****     LV_ALIGN_OUT_BOTTOM_LEFT,
  67:c:\projects\paindrain\arduinolcd\test\pain drain\libraries\lvgl\src\misc\lv_area.h ****     LV_ALIGN_OUT_BOTTOM_MID,
  68:c:\projects\paindrain\arduinolcd\test\pain drain\libraries\lvgl\src\misc\lv_area.h ****     LV_ALIGN_OUT_BOTTOM_RIGHT,
  69:c:\projects\paindrain\arduinolcd\test\pain drain\libraries\lvgl\src\misc\lv_area.h ****     LV_ALIGN_OUT_LEFT_TOP,
  70:c:\projects\paindrain\arduinolcd\test\pain drain\libraries\lvgl\src\misc\lv_area.h ****     LV_ALIGN_OUT_LEFT_MID,
  71:c:\projects\paindrain\arduinolcd\test\pain drain\libraries\lvgl\src\misc\lv_area.h ****     LV_ALIGN_OUT_LEFT_BOTTOM,
  72:c:\projects\paindrain\arduinolcd\test\pain drain\libraries\lvgl\src\misc\lv_area.h ****     LV_ALIGN_OUT_RIGHT_TOP,
  73:c:\projects\paindrain\arduinolcd\test\pain drain\libraries\lvgl\src\misc\lv_area.h ****     LV_ALIGN_OUT_RIGHT_MID,
  74:c:\projects\paindrain\arduinolcd\test\pain drain\libraries\lvgl\src\misc\lv_area.h ****     LV_ALIGN_OUT_RIGHT_BOTTOM,
  75:c:\projects\paindrain\arduinolcd\test\pain drain\libraries\lvgl\src\misc\lv_area.h **** };
  76:c:\projects\paindrain\arduinolcd\test\pain drain\libraries\lvgl\src\misc\lv_area.h **** typedef uint8_t lv_align_t;
ARM GAS  C:\Users\haske\AppData\Local\Temp\ccydbpJh.s 			page 13


  77:c:\projects\paindrain\arduinolcd\test\pain drain\libraries\lvgl\src\misc\lv_area.h **** 
  78:c:\projects\paindrain\arduinolcd\test\pain drain\libraries\lvgl\src\misc\lv_area.h **** enum {
  79:c:\projects\paindrain\arduinolcd\test\pain drain\libraries\lvgl\src\misc\lv_area.h ****     LV_DIR_NONE     = 0x00,
  80:c:\projects\paindrain\arduinolcd\test\pain drain\libraries\lvgl\src\misc\lv_area.h ****     LV_DIR_LEFT     = (1 << 0),
  81:c:\projects\paindrain\arduinolcd\test\pain drain\libraries\lvgl\src\misc\lv_area.h ****     LV_DIR_RIGHT    = (1 << 1),
  82:c:\projects\paindrain\arduinolcd\test\pain drain\libraries\lvgl\src\misc\lv_area.h ****     LV_DIR_TOP      = (1 << 2),
  83:c:\projects\paindrain\arduinolcd\test\pain drain\libraries\lvgl\src\misc\lv_area.h ****     LV_DIR_BOTTOM   = (1 << 3),
  84:c:\projects\paindrain\arduinolcd\test\pain drain\libraries\lvgl\src\misc\lv_area.h ****     LV_DIR_HOR      = LV_DIR_LEFT | LV_DIR_RIGHT,
  85:c:\projects\paindrain\arduinolcd\test\pain drain\libraries\lvgl\src\misc\lv_area.h ****     LV_DIR_VER      = LV_DIR_TOP | LV_DIR_BOTTOM,
  86:c:\projects\paindrain\arduinolcd\test\pain drain\libraries\lvgl\src\misc\lv_area.h ****     LV_DIR_ALL      = LV_DIR_HOR | LV_DIR_VER,
  87:c:\projects\paindrain\arduinolcd\test\pain drain\libraries\lvgl\src\misc\lv_area.h **** };
  88:c:\projects\paindrain\arduinolcd\test\pain drain\libraries\lvgl\src\misc\lv_area.h **** 
  89:c:\projects\paindrain\arduinolcd\test\pain drain\libraries\lvgl\src\misc\lv_area.h **** typedef uint8_t lv_dir_t;
  90:c:\projects\paindrain\arduinolcd\test\pain drain\libraries\lvgl\src\misc\lv_area.h **** 
  91:c:\projects\paindrain\arduinolcd\test\pain drain\libraries\lvgl\src\misc\lv_area.h **** /**********************
  92:c:\projects\paindrain\arduinolcd\test\pain drain\libraries\lvgl\src\misc\lv_area.h ****  * GLOBAL PROTOTYPES
  93:c:\projects\paindrain\arduinolcd\test\pain drain\libraries\lvgl\src\misc\lv_area.h ****  **********************/
  94:c:\projects\paindrain\arduinolcd\test\pain drain\libraries\lvgl\src\misc\lv_area.h **** 
  95:c:\projects\paindrain\arduinolcd\test\pain drain\libraries\lvgl\src\misc\lv_area.h **** /**
  96:c:\projects\paindrain\arduinolcd\test\pain drain\libraries\lvgl\src\misc\lv_area.h ****  * Initialize an area
  97:c:\projects\paindrain\arduinolcd\test\pain drain\libraries\lvgl\src\misc\lv_area.h ****  * @param area_p pointer to an area
  98:c:\projects\paindrain\arduinolcd\test\pain drain\libraries\lvgl\src\misc\lv_area.h ****  * @param x1 left coordinate of the area
  99:c:\projects\paindrain\arduinolcd\test\pain drain\libraries\lvgl\src\misc\lv_area.h ****  * @param y1 top coordinate of the area
 100:c:\projects\paindrain\arduinolcd\test\pain drain\libraries\lvgl\src\misc\lv_area.h ****  * @param x2 right coordinate of the area
 101:c:\projects\paindrain\arduinolcd\test\pain drain\libraries\lvgl\src\misc\lv_area.h ****  * @param y2 bottom coordinate of the area
 102:c:\projects\paindrain\arduinolcd\test\pain drain\libraries\lvgl\src\misc\lv_area.h ****  */
 103:c:\projects\paindrain\arduinolcd\test\pain drain\libraries\lvgl\src\misc\lv_area.h **** void lv_area_set(lv_area_t * area_p, lv_coord_t x1, lv_coord_t y1, lv_coord_t x2, lv_coord_t y2);
 104:c:\projects\paindrain\arduinolcd\test\pain drain\libraries\lvgl\src\misc\lv_area.h **** 
 105:c:\projects\paindrain\arduinolcd\test\pain drain\libraries\lvgl\src\misc\lv_area.h **** /**
 106:c:\projects\paindrain\arduinolcd\test\pain drain\libraries\lvgl\src\misc\lv_area.h ****  * Copy an area
 107:c:\projects\paindrain\arduinolcd\test\pain drain\libraries\lvgl\src\misc\lv_area.h ****  * @param dest pointer to the destination area
 108:c:\projects\paindrain\arduinolcd\test\pain drain\libraries\lvgl\src\misc\lv_area.h ****  * @param src pointer to the source area
 109:c:\projects\paindrain\arduinolcd\test\pain drain\libraries\lvgl\src\misc\lv_area.h ****  */
 110:c:\projects\paindrain\arduinolcd\test\pain drain\libraries\lvgl\src\misc\lv_area.h **** inline static void lv_area_copy(lv_area_t * dest, const lv_area_t * src)
 111:c:\projects\paindrain\arduinolcd\test\pain drain\libraries\lvgl\src\misc\lv_area.h **** {
 112:c:\projects\paindrain\arduinolcd\test\pain drain\libraries\lvgl\src\misc\lv_area.h ****     dest->x1 = src->x1;
 113:c:\projects\paindrain\arduinolcd\test\pain drain\libraries\lvgl\src\misc\lv_area.h ****     dest->y1 = src->y1;
 114:c:\projects\paindrain\arduinolcd\test\pain drain\libraries\lvgl\src\misc\lv_area.h ****     dest->x2 = src->x2;
 115:c:\projects\paindrain\arduinolcd\test\pain drain\libraries\lvgl\src\misc\lv_area.h ****     dest->y2 = src->y2;
 116:c:\projects\paindrain\arduinolcd\test\pain drain\libraries\lvgl\src\misc\lv_area.h **** }
 117:c:\projects\paindrain\arduinolcd\test\pain drain\libraries\lvgl\src\misc\lv_area.h **** 
 118:c:\projects\paindrain\arduinolcd\test\pain drain\libraries\lvgl\src\misc\lv_area.h **** /**
 119:c:\projects\paindrain\arduinolcd\test\pain drain\libraries\lvgl\src\misc\lv_area.h ****  * Get the width of an area
 120:c:\projects\paindrain\arduinolcd\test\pain drain\libraries\lvgl\src\misc\lv_area.h ****  * @param area_p pointer to an area
 121:c:\projects\paindrain\arduinolcd\test\pain drain\libraries\lvgl\src\misc\lv_area.h ****  * @return the width of the area (if x1 == x2 -> width = 1)
 122:c:\projects\paindrain\arduinolcd\test\pain drain\libraries\lvgl\src\misc\lv_area.h ****  */
 123:c:\projects\paindrain\arduinolcd\test\pain drain\libraries\lvgl\src\misc\lv_area.h **** static inline lv_coord_t lv_area_get_width(const lv_area_t * area_p)
 124:c:\projects\paindrain\arduinolcd\test\pain drain\libraries\lvgl\src\misc\lv_area.h **** {
 125:c:\projects\paindrain\arduinolcd\test\pain drain\libraries\lvgl\src\misc\lv_area.h ****     return (lv_coord_t)(area_p->x2 - area_p->x1 + 1);
  76              		.loc 2 125 0
  77 002c 0420     		movs	r0, #4
  78 002e 0B5E     		ldrsh	r3, [r1, r0]
  79              	.LVL8:
  80 0030 0024     		movs	r4, #0
  81 0032 085F     		ldrsh	r0, [r1, r4]
  82 0034 1B1A     		subs	r3, r3, r0
  83 0036 0133     		adds	r3, r3, #1
ARM GAS  C:\Users\haske\AppData\Local\Temp\ccydbpJh.s 			page 14


  84              	.LVL9:
  85              	.LBE99:
  86              	.LBE98:
 534:..\..\..\arduinoLCD\test\Pain Drain\libraries\lvgl\src\draw\sw/lv_draw_sw_blend.c **** 
 535:..\..\..\arduinoLCD\test\Pain Drain\libraries\lvgl\src\draw\sw/lv_draw_sw_blend.c ****     int32_t w = lv_area_get_width(dest_area);
  87              		.loc 1 535 0
  88 0038 1BB2     		sxth	r3, r3
  89 003a 9946     		mov	r9, r3
  90              	.LVL10:
  91              	.LBB100:
  92              	.LBB101:
 126:c:\projects\paindrain\arduinolcd\test\pain drain\libraries\lvgl\src\misc\lv_area.h **** }
 127:c:\projects\paindrain\arduinolcd\test\pain drain\libraries\lvgl\src\misc\lv_area.h **** 
 128:c:\projects\paindrain\arduinolcd\test\pain drain\libraries\lvgl\src\misc\lv_area.h **** /**
 129:c:\projects\paindrain\arduinolcd\test\pain drain\libraries\lvgl\src\misc\lv_area.h ****  * Get the height of an area
 130:c:\projects\paindrain\arduinolcd\test\pain drain\libraries\lvgl\src\misc\lv_area.h ****  * @param area_p pointer to an area
 131:c:\projects\paindrain\arduinolcd\test\pain drain\libraries\lvgl\src\misc\lv_area.h ****  * @return the height of the area (if y1 == y2 -> height = 1)
 132:c:\projects\paindrain\arduinolcd\test\pain drain\libraries\lvgl\src\misc\lv_area.h ****  */
 133:c:\projects\paindrain\arduinolcd\test\pain drain\libraries\lvgl\src\misc\lv_area.h **** static inline lv_coord_t lv_area_get_height(const lv_area_t * area_p)
 134:c:\projects\paindrain\arduinolcd\test\pain drain\libraries\lvgl\src\misc\lv_area.h **** {
 135:c:\projects\paindrain\arduinolcd\test\pain drain\libraries\lvgl\src\misc\lv_area.h ****     return (lv_coord_t)(area_p->y2 - area_p->y1 + 1);
  93              		.loc 2 135 0
  94 003c 0620     		movs	r0, #6
  95 003e 0B5E     		ldrsh	r3, [r1, r0]
  96              	.LVL11:
  97 0040 0220     		movs	r0, #2
  98 0042 095E     		ldrsh	r1, [r1, r0]
  99              	.LVL12:
 100 0044 5B1A     		subs	r3, r3, r1
 101 0046 0133     		adds	r3, r3, #1
 102              	.LVL13:
 103              	.LBE101:
 104              	.LBE100:
 536:..\..\..\arduinoLCD\test\Pain Drain\libraries\lvgl\src\draw\sw/lv_draw_sw_blend.c ****     int32_t h = lv_area_get_height(dest_area);
 105              		.loc 1 536 0
 106 0048 1BB2     		sxth	r3, r3
 107 004a 0593     		str	r3, [sp, #20]
 108              	.LVL14:
 537:..\..\..\arduinoLCD\test\Pain Drain\libraries\lvgl\src\draw\sw/lv_draw_sw_blend.c **** 
 538:..\..\..\arduinoLCD\test\Pain Drain\libraries\lvgl\src\draw\sw/lv_draw_sw_blend.c ****     int32_t x;
 539:..\..\..\arduinoLCD\test\Pain Drain\libraries\lvgl\src\draw\sw/lv_draw_sw_blend.c ****     int32_t y;
 540:..\..\..\arduinoLCD\test\Pain Drain\libraries\lvgl\src\draw\sw/lv_draw_sw_blend.c **** 
 541:..\..\..\arduinoLCD\test\Pain Drain\libraries\lvgl\src\draw\sw/lv_draw_sw_blend.c ****     lv_color_t (*blend_fp)(lv_color_t, lv_color_t, lv_opa_t);
 542:..\..\..\arduinoLCD\test\Pain Drain\libraries\lvgl\src\draw\sw/lv_draw_sw_blend.c ****     switch(blend_mode) {
 109              		.loc 1 542 0
 110 004c 022A     		cmp	r2, #2
 111 004e 0AD0     		beq	.L19
 112 0050 032A     		cmp	r2, #3
 113 0052 05D0     		beq	.L4
 114 0054 012A     		cmp	r2, #1
 115 0056 00D0     		beq	.LCB96
 116 0058 8BE0     		b	.L1	@long jump
 117              	.LCB96:
 543:..\..\..\arduinoLCD\test\Pain Drain\libraries\lvgl\src\draw\sw/lv_draw_sw_blend.c ****         case LV_BLEND_MODE_ADDITIVE:
 544:..\..\..\arduinoLCD\test\Pain Drain\libraries\lvgl\src\draw\sw/lv_draw_sw_blend.c ****             blend_fp = color_blend_true_color_additive;
 118              		.loc 1 544 0
 119 005a 494B     		ldr	r3, .L24
ARM GAS  C:\Users\haske\AppData\Local\Temp\ccydbpJh.s 			page 15


 120              	.LVL15:
 121 005c 9B46     		mov	fp, r3
 122 005e 04E0     		b	.L3
 123              	.LVL16:
 124              	.L4:
 545:..\..\..\arduinoLCD\test\Pain Drain\libraries\lvgl\src\draw\sw/lv_draw_sw_blend.c ****             break;
 546:..\..\..\arduinoLCD\test\Pain Drain\libraries\lvgl\src\draw\sw/lv_draw_sw_blend.c ****         case LV_BLEND_MODE_SUBTRACTIVE:
 547:..\..\..\arduinoLCD\test\Pain Drain\libraries\lvgl\src\draw\sw/lv_draw_sw_blend.c ****             blend_fp = color_blend_true_color_subtractive;
 548:..\..\..\arduinoLCD\test\Pain Drain\libraries\lvgl\src\draw\sw/lv_draw_sw_blend.c ****             break;
 549:..\..\..\arduinoLCD\test\Pain Drain\libraries\lvgl\src\draw\sw/lv_draw_sw_blend.c ****         case LV_BLEND_MODE_MULTIPLY:
 550:..\..\..\arduinoLCD\test\Pain Drain\libraries\lvgl\src\draw\sw/lv_draw_sw_blend.c ****             blend_fp = color_blend_true_color_multiply;
 125              		.loc 1 550 0
 126 0060 484B     		ldr	r3, .L24+4
 127              	.LVL17:
 128 0062 9B46     		mov	fp, r3
 551:..\..\..\arduinoLCD\test\Pain Drain\libraries\lvgl\src\draw\sw/lv_draw_sw_blend.c ****             break;
 129              		.loc 1 551 0
 130 0064 01E0     		b	.L3
 131              	.LVL18:
 132              	.L19:
 547:..\..\..\arduinoLCD\test\Pain Drain\libraries\lvgl\src\draw\sw/lv_draw_sw_blend.c ****             break;
 133              		.loc 1 547 0
 134 0066 484B     		ldr	r3, .L24+8
 135              	.LVL19:
 136 0068 9B46     		mov	fp, r3
 137              	.L3:
 138              	.LVL20:
 552:..\..\..\arduinoLCD\test\Pain Drain\libraries\lvgl\src\draw\sw/lv_draw_sw_blend.c ****         default:
 553:..\..\..\arduinoLCD\test\Pain Drain\libraries\lvgl\src\draw\sw/lv_draw_sw_blend.c ****             LV_LOG_WARN("fill_blended: unsupported blend mode");
 554:..\..\..\arduinoLCD\test\Pain Drain\libraries\lvgl\src\draw\sw/lv_draw_sw_blend.c ****             return;
 555:..\..\..\arduinoLCD\test\Pain Drain\libraries\lvgl\src\draw\sw/lv_draw_sw_blend.c ****     }
 556:..\..\..\arduinoLCD\test\Pain Drain\libraries\lvgl\src\draw\sw/lv_draw_sw_blend.c **** 
 557:..\..\..\arduinoLCD\test\Pain Drain\libraries\lvgl\src\draw\sw/lv_draw_sw_blend.c ****     /*Simple fill (maybe with opacity), no masking*/
 558:..\..\..\arduinoLCD\test\Pain Drain\libraries\lvgl\src\draw\sw/lv_draw_sw_blend.c ****     if(mask == NULL) {
 139              		.loc 1 558 0
 140 006a 5346     		mov	r3, r10
 141 006c 002B     		cmp	r3, #0
 142 006e 2BD1     		bne	.L6
 143              	.LBB102:
 559:..\..\..\arduinoLCD\test\Pain Drain\libraries\lvgl\src\draw\sw/lv_draw_sw_blend.c ****         lv_color_t last_dest_color = dest_buf[0];
 144              		.loc 1 559 0
 145 0070 4346     		mov	r3, r8
 146 0072 1988     		ldrh	r1, [r3]
 147 0074 0C1C     		adds	r4, r1, #0
 148              	.LVL21:
 560:..\..\..\arduinoLCD\test\Pain Drain\libraries\lvgl\src\draw\sw/lv_draw_sw_blend.c ****         lv_color_t last_res_color = blend_fp(color, dest_buf[0], opa);
 149              		.loc 1 560 0
 150 0076 029A     		ldr	r2, [sp, #8]
 151 0078 6B46     		mov	r3, sp
 152 007a D888     		ldrh	r0, [r3, #6]
 153 007c D847     		blx	fp
 154              	.LVL22:
 561:..\..\..\arduinoLCD\test\Pain Drain\libraries\lvgl\src\draw\sw/lv_draw_sw_blend.c ****         for(y = 0; y < h; y++) {
 155              		.loc 1 561 0
 156 007e 0027     		movs	r7, #0
 157 0080 6B46     		mov	r3, sp
 158              	.LVL23:
ARM GAS  C:\Users\haske\AppData\Local\Temp\ccydbpJh.s 			page 16


 159 0082 9C81     		strh	r4, [r3, #12]
 160 0084 4446     		mov	r4, r8
 161              	.LVL24:
 162 0086 B846     		mov	r8, r7
 163              	.LVL25:
 164 0088 4F46     		mov	r7, r9
 165 008a D946     		mov	r9, fp
 166              	.LVL26:
 167 008c 18E0     		b	.L7
 168              	.LVL27:
 169              	.L9:
 562:..\..\..\arduinoLCD\test\Pain Drain\libraries\lvgl\src\draw\sw/lv_draw_sw_blend.c ****             for(x = 0; x < w; x++) {
 563:..\..\..\arduinoLCD\test\Pain Drain\libraries\lvgl\src\draw\sw/lv_draw_sw_blend.c ****                 if(last_dest_color.full != dest_buf[x].full) {
 170              		.loc 1 563 0
 171 008e 6B46     		mov	r3, sp
 172 0090 9B89     		ldrh	r3, [r3, #12]
 173 0092 7500     		lsls	r5, r6, #1
 174 0094 6519     		adds	r5, r4, r5
 175 0096 2A88     		ldrh	r2, [r5]
 176 0098 9342     		cmp	r3, r2
 177 009a 05D0     		beq	.L8
 564:..\..\..\arduinoLCD\test\Pain Drain\libraries\lvgl\src\draw\sw/lv_draw_sw_blend.c ****                     last_dest_color = dest_buf[x];
 178              		.loc 1 564 0
 179 009c 1100     		movs	r1, r2
 180 009e 6B46     		mov	r3, sp
 181 00a0 9A81     		strh	r2, [r3, #12]
 565:..\..\..\arduinoLCD\test\Pain Drain\libraries\lvgl\src\draw\sw/lv_draw_sw_blend.c ****                     last_res_color = blend_fp(color, dest_buf[x], opa);
 182              		.loc 1 565 0
 183 00a2 029A     		ldr	r2, [sp, #8]
 184 00a4 D888     		ldrh	r0, [r3, #6]
 185              	.LVL28:
 186 00a6 C847     		blx	r9
 187              	.LVL29:
 188              	.L8:
 566:..\..\..\arduinoLCD\test\Pain Drain\libraries\lvgl\src\draw\sw/lv_draw_sw_blend.c ****                 }
 567:..\..\..\arduinoLCD\test\Pain Drain\libraries\lvgl\src\draw\sw/lv_draw_sw_blend.c ****                 dest_buf[x] = last_res_color;
 189              		.loc 1 567 0 discriminator 2
 190 00a8 2880     		strh	r0, [r5]
 562:..\..\..\arduinoLCD\test\Pain Drain\libraries\lvgl\src\draw\sw/lv_draw_sw_blend.c ****                 if(last_dest_color.full != dest_buf[x].full) {
 191              		.loc 1 562 0 discriminator 2
 192 00aa 0136     		adds	r6, r6, #1
 193              	.LVL30:
 194 00ac 00E0     		b	.L10
 195              	.LVL31:
 196              	.L20:
 197 00ae 0026     		movs	r6, #0
 198              	.L10:
 199              	.LVL32:
 562:..\..\..\arduinoLCD\test\Pain Drain\libraries\lvgl\src\draw\sw/lv_draw_sw_blend.c ****                 if(last_dest_color.full != dest_buf[x].full) {
 200              		.loc 1 562 0 is_stmt 0 discriminator 1
 201 00b0 BE42     		cmp	r6, r7
 202 00b2 ECDB     		blt	.L9
 568:..\..\..\arduinoLCD\test\Pain Drain\libraries\lvgl\src\draw\sw/lv_draw_sw_blend.c ****             }
 569:..\..\..\arduinoLCD\test\Pain Drain\libraries\lvgl\src\draw\sw/lv_draw_sw_blend.c ****             dest_buf += dest_stride;
 203              		.loc 1 569 0 is_stmt 1 discriminator 2
 204 00b4 069B     		ldr	r3, [sp, #24]
 205 00b6 5B00     		lsls	r3, r3, #1
ARM GAS  C:\Users\haske\AppData\Local\Temp\ccydbpJh.s 			page 17


 206 00b8 E418     		adds	r4, r4, r3
 207              	.LVL33:
 561:..\..\..\arduinoLCD\test\Pain Drain\libraries\lvgl\src\draw\sw/lv_draw_sw_blend.c ****             for(x = 0; x < w; x++) {
 208              		.loc 1 561 0 discriminator 2
 209 00ba 0123     		movs	r3, #1
 210 00bc 9C46     		mov	ip, r3
 211 00be E044     		add	r8, r8, ip
 212              	.LVL34:
 213              	.L7:
 561:..\..\..\arduinoLCD\test\Pain Drain\libraries\lvgl\src\draw\sw/lv_draw_sw_blend.c ****             for(x = 0; x < w; x++) {
 214              		.loc 1 561 0 is_stmt 0 discriminator 1
 215 00c0 059B     		ldr	r3, [sp, #20]
 216 00c2 9845     		cmp	r8, r3
 217 00c4 F3DB     		blt	.L20
 218 00c6 54E0     		b	.L1
 219              	.LVL35:
 220              	.L6:
 221              	.LBE102:
 222              	.LBB103:
 570:..\..\..\arduinoLCD\test\Pain Drain\libraries\lvgl\src\draw\sw/lv_draw_sw_blend.c ****         }
 571:..\..\..\arduinoLCD\test\Pain Drain\libraries\lvgl\src\draw\sw/lv_draw_sw_blend.c ****     }
 572:..\..\..\arduinoLCD\test\Pain Drain\libraries\lvgl\src\draw\sw/lv_draw_sw_blend.c ****     /*Masked*/
 573:..\..\..\arduinoLCD\test\Pain Drain\libraries\lvgl\src\draw\sw/lv_draw_sw_blend.c ****     else {
 574:..\..\..\arduinoLCD\test\Pain Drain\libraries\lvgl\src\draw\sw/lv_draw_sw_blend.c ****         /*Buffer the result color to avoid recalculating the same color*/
 575:..\..\..\arduinoLCD\test\Pain Drain\libraries\lvgl\src\draw\sw/lv_draw_sw_blend.c ****         lv_color_t last_dest_color;
 576:..\..\..\arduinoLCD\test\Pain Drain\libraries\lvgl\src\draw\sw/lv_draw_sw_blend.c ****         lv_color_t last_res_color;
 577:..\..\..\arduinoLCD\test\Pain Drain\libraries\lvgl\src\draw\sw/lv_draw_sw_blend.c ****         lv_opa_t last_mask = LV_OPA_TRANSP;
 578:..\..\..\arduinoLCD\test\Pain Drain\libraries\lvgl\src\draw\sw/lv_draw_sw_blend.c ****         last_dest_color = dest_buf[0];
 223              		.loc 1 578 0 is_stmt 1
 224 00c8 4346     		mov	r3, r8
 225 00ca 1988     		ldrh	r1, [r3]
 226 00cc 0F1C     		adds	r7, r1, #0
 227              	.LVL36:
 579:..\..\..\arduinoLCD\test\Pain Drain\libraries\lvgl\src\draw\sw/lv_draw_sw_blend.c ****         lv_opa_t opa_tmp = mask[0] >= LV_OPA_MAX ? opa : (uint32_t)((uint32_t)mask[0] * opa) >> 8;
 228              		.loc 1 579 0
 229 00ce 5346     		mov	r3, r10
 230 00d0 1B78     		ldrb	r3, [r3]
 231 00d2 FC2B     		cmp	r3, #252
 232 00d4 04D8     		bhi	.L21
 233              		.loc 1 579 0 is_stmt 0 discriminator 1
 234 00d6 029A     		ldr	r2, [sp, #8]
 235 00d8 5343     		muls	r3, r2
 236 00da 1B0A     		lsrs	r3, r3, #8
 237 00dc DAB2     		uxtb	r2, r3
 238 00de 00E0     		b	.L11
 239              	.L21:
 240              		.loc 1 579 0
 241 00e0 029A     		ldr	r2, [sp, #8]
 242              	.L11:
 243              	.LVL37:
 580:..\..\..\arduinoLCD\test\Pain Drain\libraries\lvgl\src\draw\sw/lv_draw_sw_blend.c ****         last_res_color = blend_fp(color, last_dest_color, opa_tmp);
 244              		.loc 1 580 0 is_stmt 1 discriminator 4
 245 00e2 6B46     		mov	r3, sp
 246 00e4 D888     		ldrh	r0, [r3, #6]
 247 00e6 D847     		blx	fp
 248              	.LVL38:
 577:..\..\..\arduinoLCD\test\Pain Drain\libraries\lvgl\src\draw\sw/lv_draw_sw_blend.c ****         last_dest_color = dest_buf[0];
ARM GAS  C:\Users\haske\AppData\Local\Temp\ccydbpJh.s 			page 18


 249              		.loc 1 577 0 discriminator 4
 250 00e8 0023     		movs	r3, #0
 581:..\..\..\arduinoLCD\test\Pain Drain\libraries\lvgl\src\draw\sw/lv_draw_sw_blend.c **** 
 582:..\..\..\arduinoLCD\test\Pain Drain\libraries\lvgl\src\draw\sw/lv_draw_sw_blend.c ****         for(y = 0; y < h; y++) {
 251              		.loc 1 582 0 discriminator 4
 252 00ea 0022     		movs	r2, #0
 253 00ec 0392     		str	r2, [sp, #12]
 254              	.LVL39:
 255 00ee BC46     		mov	ip, r7
 256 00f0 4746     		mov	r7, r8
 257              	.LVL40:
 258 00f2 3AE0     		b	.L12
 259              	.LVL41:
 260              	.L17:
 583:..\..\..\arduinoLCD\test\Pain Drain\libraries\lvgl\src\draw\sw/lv_draw_sw_blend.c ****             for(x = 0; x < w; x++) {
 584:..\..\..\arduinoLCD\test\Pain Drain\libraries\lvgl\src\draw\sw/lv_draw_sw_blend.c ****                 if(mask[x] == 0) continue;
 261              		.loc 1 584 0
 262 00f4 2500     		movs	r5, r4
 263 00f6 5246     		mov	r2, r10
 264              	.LVL42:
 265 00f8 1619     		adds	r6, r2, r4
 266 00fa 3278     		ldrb	r2, [r6]
 267 00fc 002A     		cmp	r2, #0
 268 00fe 24D0     		beq	.L13
 585:..\..\..\arduinoLCD\test\Pain Drain\libraries\lvgl\src\draw\sw/lv_draw_sw_blend.c ****                 if(mask[x] != last_mask || last_dest_color.full != dest_buf[x].full) {
 269              		.loc 1 585 0
 270 0100 009B     		ldr	r3, [sp]
 271 0102 9342     		cmp	r3, r2
 272 0104 0AD1     		bne	.L14
 273              		.loc 1 585 0 is_stmt 0 discriminator 1
 274 0106 6146     		mov	r1, ip
 275 0108 6B46     		mov	r3, sp
 276 010a 1982     		strh	r1, [r3, #16]
 277 010c 198A     		ldrh	r1, [r3, #16]
 278 010e 0491     		str	r1, [sp, #16]
 279 0110 6100     		lsls	r1, r4, #1
 280 0112 795A     		ldrh	r1, [r7, r1]
 281 0114 8846     		mov	r8, r1
 282 0116 0499     		ldr	r1, [sp, #16]
 283 0118 4145     		cmp	r1, r8
 284 011a 14D0     		beq	.L15
 285              	.L14:
 586:..\..\..\arduinoLCD\test\Pain Drain\libraries\lvgl\src\draw\sw/lv_draw_sw_blend.c ****                     opa_tmp = mask[x] >= LV_OPA_MAX ? opa : (uint32_t)((uint32_t)mask[x] * opa) >> 
 286              		.loc 1 586 0 is_stmt 1
 287 011c FC2A     		cmp	r2, #252
 288 011e 04D8     		bhi	.L22
 289              		.loc 1 586 0 is_stmt 0 discriminator 1
 290 0120 029B     		ldr	r3, [sp, #8]
 291 0122 5A43     		muls	r2, r3
 292 0124 120A     		lsrs	r2, r2, #8
 293 0126 D2B2     		uxtb	r2, r2
 294 0128 00E0     		b	.L16
 295              	.L22:
 296              		.loc 1 586 0
 297 012a 029A     		ldr	r2, [sp, #8]
 298              	.L16:
 299              	.LVL43:
ARM GAS  C:\Users\haske\AppData\Local\Temp\ccydbpJh.s 			page 19


 587:..\..\..\arduinoLCD\test\Pain Drain\libraries\lvgl\src\draw\sw/lv_draw_sw_blend.c **** 
 588:..\..\..\arduinoLCD\test\Pain Drain\libraries\lvgl\src\draw\sw/lv_draw_sw_blend.c ****                     last_res_color = blend_fp(color, dest_buf[x], opa_tmp);
 300              		.loc 1 588 0 is_stmt 1 discriminator 4
 301 012c 6B00     		lsls	r3, r5, #1
 302 012e 9846     		mov	r8, r3
 303 0130 B844     		add	r8, r8, r7
 304 0132 4346     		mov	r3, r8
 305 0134 1988     		ldrh	r1, [r3]
 306 0136 6B46     		mov	r3, sp
 307 0138 D888     		ldrh	r0, [r3, #6]
 308              	.LVL44:
 309 013a D847     		blx	fp
 310              	.LVL45:
 589:..\..\..\arduinoLCD\test\Pain Drain\libraries\lvgl\src\draw\sw/lv_draw_sw_blend.c ****                     last_mask = mask[x];
 311              		.loc 1 589 0 discriminator 4
 312 013c 3378     		ldrb	r3, [r6]
 313 013e 0093     		str	r3, [sp]
 314              	.LVL46:
 590:..\..\..\arduinoLCD\test\Pain Drain\libraries\lvgl\src\draw\sw/lv_draw_sw_blend.c ****                     last_dest_color.full = dest_buf[x].full;
 315              		.loc 1 590 0 discriminator 4
 316 0140 4246     		mov	r2, r8
 317 0142 1288     		ldrh	r2, [r2]
 318              	.LVL47:
 319 0144 9446     		mov	ip, r2
 320              	.LVL48:
 321              	.L15:
 591:..\..\..\arduinoLCD\test\Pain Drain\libraries\lvgl\src\draw\sw/lv_draw_sw_blend.c ****                 }
 592:..\..\..\arduinoLCD\test\Pain Drain\libraries\lvgl\src\draw\sw/lv_draw_sw_blend.c ****                 dest_buf[x] = last_res_color;
 322              		.loc 1 592 0
 323 0146 6D00     		lsls	r5, r5, #1
 324 0148 7853     		strh	r0, [r7, r5]
 325              	.L13:
 583:..\..\..\arduinoLCD\test\Pain Drain\libraries\lvgl\src\draw\sw/lv_draw_sw_blend.c ****                 if(mask[x] == 0) continue;
 326              		.loc 1 583 0 discriminator 2
 327 014a 0134     		adds	r4, r4, #1
 328              	.LVL49:
 329 014c 01E0     		b	.L18
 330              	.LVL50:
 331              	.L23:
 332 014e 0024     		movs	r4, #0
 333 0150 0093     		str	r3, [sp]
 334              	.LVL51:
 335              	.L18:
 583:..\..\..\arduinoLCD\test\Pain Drain\libraries\lvgl\src\draw\sw/lv_draw_sw_blend.c ****                 if(mask[x] == 0) continue;
 336              		.loc 1 583 0 is_stmt 0 discriminator 1
 337 0152 4C45     		cmp	r4, r9
 338 0154 CEDB     		blt	.L17
 339 0156 009B     		ldr	r3, [sp]
 593:..\..\..\arduinoLCD\test\Pain Drain\libraries\lvgl\src\draw\sw/lv_draw_sw_blend.c ****             }
 594:..\..\..\arduinoLCD\test\Pain Drain\libraries\lvgl\src\draw\sw/lv_draw_sw_blend.c ****             dest_buf += dest_stride;
 340              		.loc 1 594 0 is_stmt 1 discriminator 2
 341 0158 069A     		ldr	r2, [sp, #24]
 342 015a 5200     		lsls	r2, r2, #1
 343 015c BF18     		adds	r7, r7, r2
 344              	.LVL52:
 595:..\..\..\arduinoLCD\test\Pain Drain\libraries\lvgl\src\draw\sw/lv_draw_sw_blend.c ****             mask += mask_stride;
 345              		.loc 1 595 0 discriminator 2
ARM GAS  C:\Users\haske\AppData\Local\Temp\ccydbpJh.s 			page 20


 346 015e 079A     		ldr	r2, [sp, #28]
 347 0160 9046     		mov	r8, r2
 348 0162 C244     		add	r10, r10, r8
 349              	.LVL53:
 582:..\..\..\arduinoLCD\test\Pain Drain\libraries\lvgl\src\draw\sw/lv_draw_sw_blend.c ****             for(x = 0; x < w; x++) {
 350              		.loc 1 582 0 discriminator 2
 351 0164 039A     		ldr	r2, [sp, #12]
 352 0166 0132     		adds	r2, r2, #1
 353 0168 0392     		str	r2, [sp, #12]
 354              	.LVL54:
 355              	.L12:
 582:..\..\..\arduinoLCD\test\Pain Drain\libraries\lvgl\src\draw\sw/lv_draw_sw_blend.c ****             for(x = 0; x < w; x++) {
 356              		.loc 1 582 0 is_stmt 0 discriminator 1
 357 016a 039A     		ldr	r2, [sp, #12]
 358 016c 0599     		ldr	r1, [sp, #20]
 359 016e 8A42     		cmp	r2, r1
 360 0170 EDDB     		blt	.L23
 361              	.LVL55:
 362              	.L1:
 363              	.LBE103:
 596:..\..\..\arduinoLCD\test\Pain Drain\libraries\lvgl\src\draw\sw/lv_draw_sw_blend.c ****         }
 597:..\..\..\arduinoLCD\test\Pain Drain\libraries\lvgl\src\draw\sw/lv_draw_sw_blend.c ****     }
 598:..\..\..\arduinoLCD\test\Pain Drain\libraries\lvgl\src\draw\sw/lv_draw_sw_blend.c **** }
 364              		.loc 1 598 0 is_stmt 1
 365 0172 09B0     		add	sp, sp, #36
 366              		@ sp needed
 367 0174 3CBC     		pop	{r2, r3, r4, r5}
 368 0176 9046     		mov	r8, r2
 369 0178 9946     		mov	r9, r3
 370 017a A246     		mov	r10, r4
 371 017c AB46     		mov	fp, r5
 372 017e F0BD     		pop	{r4, r5, r6, r7, pc}
 373              	.L25:
 374              		.align	2
 375              	.L24:
 376 0180 00000000 		.word	color_blend_true_color_additive
 377 0184 00000000 		.word	color_blend_true_color_multiply
 378 0188 00000000 		.word	color_blend_true_color_subtractive
 379              		.cfi_endproc
 380              	.LFE163:
 381              		.size	fill_blended, .-fill_blended
 382              		.section	.text.map_blended,"ax",%progbits
 383              		.align	2
 384              		.code	16
 385              		.thumb_func
 386              		.type	map_blended, %function
 387              	map_blended:
 388              	.LFB166:
 599:..\..\..\arduinoLCD\test\Pain Drain\libraries\lvgl\src\draw\sw/lv_draw_sw_blend.c **** #endif
 600:..\..\..\arduinoLCD\test\Pain Drain\libraries\lvgl\src\draw\sw/lv_draw_sw_blend.c **** 
 601:..\..\..\arduinoLCD\test\Pain Drain\libraries\lvgl\src\draw\sw/lv_draw_sw_blend.c **** static void map_set_px(lv_color_t * dest_buf, const lv_area_t * dest_area, lv_coord_t dest_stride,
 602:..\..\..\arduinoLCD\test\Pain Drain\libraries\lvgl\src\draw\sw/lv_draw_sw_blend.c ****                        const lv_color_t * src_buf, lv_coord_t src_stride, lv_opa_t opa, const lv_op
 603:..\..\..\arduinoLCD\test\Pain Drain\libraries\lvgl\src\draw\sw/lv_draw_sw_blend.c **** 
 604:..\..\..\arduinoLCD\test\Pain Drain\libraries\lvgl\src\draw\sw/lv_draw_sw_blend.c **** {
 605:..\..\..\arduinoLCD\test\Pain Drain\libraries\lvgl\src\draw\sw/lv_draw_sw_blend.c ****     lv_disp_t * disp = _lv_refr_get_disp_refreshing();
 606:..\..\..\arduinoLCD\test\Pain Drain\libraries\lvgl\src\draw\sw/lv_draw_sw_blend.c **** 
 607:..\..\..\arduinoLCD\test\Pain Drain\libraries\lvgl\src\draw\sw/lv_draw_sw_blend.c ****     int32_t w = lv_area_get_width(dest_area);
ARM GAS  C:\Users\haske\AppData\Local\Temp\ccydbpJh.s 			page 21


 608:..\..\..\arduinoLCD\test\Pain Drain\libraries\lvgl\src\draw\sw/lv_draw_sw_blend.c ****     int32_t h = lv_area_get_height(dest_area);
 609:..\..\..\arduinoLCD\test\Pain Drain\libraries\lvgl\src\draw\sw/lv_draw_sw_blend.c **** 
 610:..\..\..\arduinoLCD\test\Pain Drain\libraries\lvgl\src\draw\sw/lv_draw_sw_blend.c ****     int32_t x;
 611:..\..\..\arduinoLCD\test\Pain Drain\libraries\lvgl\src\draw\sw/lv_draw_sw_blend.c ****     int32_t y;
 612:..\..\..\arduinoLCD\test\Pain Drain\libraries\lvgl\src\draw\sw/lv_draw_sw_blend.c **** 
 613:..\..\..\arduinoLCD\test\Pain Drain\libraries\lvgl\src\draw\sw/lv_draw_sw_blend.c ****     if(mask == NULL) {
 614:..\..\..\arduinoLCD\test\Pain Drain\libraries\lvgl\src\draw\sw/lv_draw_sw_blend.c ****         for(y = 0; y < h; y++) {
 615:..\..\..\arduinoLCD\test\Pain Drain\libraries\lvgl\src\draw\sw/lv_draw_sw_blend.c ****             for(x = 0; x < w; x++) {
 616:..\..\..\arduinoLCD\test\Pain Drain\libraries\lvgl\src\draw\sw/lv_draw_sw_blend.c ****                 disp->driver->set_px_cb(disp->driver, (void *)dest_buf, dest_stride, dest_area->x1 
 617:..\..\..\arduinoLCD\test\Pain Drain\libraries\lvgl\src\draw\sw/lv_draw_sw_blend.c ****                                         opa);
 618:..\..\..\arduinoLCD\test\Pain Drain\libraries\lvgl\src\draw\sw/lv_draw_sw_blend.c ****             }
 619:..\..\..\arduinoLCD\test\Pain Drain\libraries\lvgl\src\draw\sw/lv_draw_sw_blend.c ****             src_buf += src_stride;
 620:..\..\..\arduinoLCD\test\Pain Drain\libraries\lvgl\src\draw\sw/lv_draw_sw_blend.c ****         }
 621:..\..\..\arduinoLCD\test\Pain Drain\libraries\lvgl\src\draw\sw/lv_draw_sw_blend.c ****     }
 622:..\..\..\arduinoLCD\test\Pain Drain\libraries\lvgl\src\draw\sw/lv_draw_sw_blend.c ****     else {
 623:..\..\..\arduinoLCD\test\Pain Drain\libraries\lvgl\src\draw\sw/lv_draw_sw_blend.c ****         for(y = 0; y < h; y++) {
 624:..\..\..\arduinoLCD\test\Pain Drain\libraries\lvgl\src\draw\sw/lv_draw_sw_blend.c ****             for(x = 0; x < w; x++) {
 625:..\..\..\arduinoLCD\test\Pain Drain\libraries\lvgl\src\draw\sw/lv_draw_sw_blend.c ****                 if(mask[x]) {
 626:..\..\..\arduinoLCD\test\Pain Drain\libraries\lvgl\src\draw\sw/lv_draw_sw_blend.c ****                     disp->driver->set_px_cb(disp->driver, (void *)dest_buf, dest_stride, dest_area-
 627:..\..\..\arduinoLCD\test\Pain Drain\libraries\lvgl\src\draw\sw/lv_draw_sw_blend.c ****                                             (uint32_t)((uint32_t)opa * mask[x]) >> 8);
 628:..\..\..\arduinoLCD\test\Pain Drain\libraries\lvgl\src\draw\sw/lv_draw_sw_blend.c ****                 }
 629:..\..\..\arduinoLCD\test\Pain Drain\libraries\lvgl\src\draw\sw/lv_draw_sw_blend.c ****             }
 630:..\..\..\arduinoLCD\test\Pain Drain\libraries\lvgl\src\draw\sw/lv_draw_sw_blend.c ****             mask += mask_stride;
 631:..\..\..\arduinoLCD\test\Pain Drain\libraries\lvgl\src\draw\sw/lv_draw_sw_blend.c ****             src_buf += src_stride;
 632:..\..\..\arduinoLCD\test\Pain Drain\libraries\lvgl\src\draw\sw/lv_draw_sw_blend.c ****         }
 633:..\..\..\arduinoLCD\test\Pain Drain\libraries\lvgl\src\draw\sw/lv_draw_sw_blend.c ****     }
 634:..\..\..\arduinoLCD\test\Pain Drain\libraries\lvgl\src\draw\sw/lv_draw_sw_blend.c **** }
 635:..\..\..\arduinoLCD\test\Pain Drain\libraries\lvgl\src\draw\sw/lv_draw_sw_blend.c **** 
 636:..\..\..\arduinoLCD\test\Pain Drain\libraries\lvgl\src\draw\sw/lv_draw_sw_blend.c **** LV_ATTRIBUTE_FAST_MEM static void map_normal(lv_color_t * dest_buf, const lv_area_t * dest_area, lv
 637:..\..\..\arduinoLCD\test\Pain Drain\libraries\lvgl\src\draw\sw/lv_draw_sw_blend.c ****                                              const lv_color_t * src_buf, lv_coord_t src_stride, lv_
 638:..\..\..\arduinoLCD\test\Pain Drain\libraries\lvgl\src\draw\sw/lv_draw_sw_blend.c **** 
 639:..\..\..\arduinoLCD\test\Pain Drain\libraries\lvgl\src\draw\sw/lv_draw_sw_blend.c **** {
 640:..\..\..\arduinoLCD\test\Pain Drain\libraries\lvgl\src\draw\sw/lv_draw_sw_blend.c ****     int32_t w = lv_area_get_width(dest_area);
 641:..\..\..\arduinoLCD\test\Pain Drain\libraries\lvgl\src\draw\sw/lv_draw_sw_blend.c ****     int32_t h = lv_area_get_height(dest_area);
 642:..\..\..\arduinoLCD\test\Pain Drain\libraries\lvgl\src\draw\sw/lv_draw_sw_blend.c **** 
 643:..\..\..\arduinoLCD\test\Pain Drain\libraries\lvgl\src\draw\sw/lv_draw_sw_blend.c ****     int32_t x;
 644:..\..\..\arduinoLCD\test\Pain Drain\libraries\lvgl\src\draw\sw/lv_draw_sw_blend.c ****     int32_t y;
 645:..\..\..\arduinoLCD\test\Pain Drain\libraries\lvgl\src\draw\sw/lv_draw_sw_blend.c **** 
 646:..\..\..\arduinoLCD\test\Pain Drain\libraries\lvgl\src\draw\sw/lv_draw_sw_blend.c ****     /*Simple fill (maybe with opacity), no masking*/
 647:..\..\..\arduinoLCD\test\Pain Drain\libraries\lvgl\src\draw\sw/lv_draw_sw_blend.c ****     if(mask == NULL) {
 648:..\..\..\arduinoLCD\test\Pain Drain\libraries\lvgl\src\draw\sw/lv_draw_sw_blend.c ****         if(opa >= LV_OPA_MAX) {
 649:..\..\..\arduinoLCD\test\Pain Drain\libraries\lvgl\src\draw\sw/lv_draw_sw_blend.c ****             for(y = 0; y < h; y++) {
 650:..\..\..\arduinoLCD\test\Pain Drain\libraries\lvgl\src\draw\sw/lv_draw_sw_blend.c ****                 lv_memcpy(dest_buf, src_buf, w * sizeof(lv_color_t));
 651:..\..\..\arduinoLCD\test\Pain Drain\libraries\lvgl\src\draw\sw/lv_draw_sw_blend.c ****                 dest_buf += dest_stride;
 652:..\..\..\arduinoLCD\test\Pain Drain\libraries\lvgl\src\draw\sw/lv_draw_sw_blend.c ****                 src_buf += src_stride;
 653:..\..\..\arduinoLCD\test\Pain Drain\libraries\lvgl\src\draw\sw/lv_draw_sw_blend.c ****             }
 654:..\..\..\arduinoLCD\test\Pain Drain\libraries\lvgl\src\draw\sw/lv_draw_sw_blend.c ****         }
 655:..\..\..\arduinoLCD\test\Pain Drain\libraries\lvgl\src\draw\sw/lv_draw_sw_blend.c ****         else {
 656:..\..\..\arduinoLCD\test\Pain Drain\libraries\lvgl\src\draw\sw/lv_draw_sw_blend.c ****             for(y = 0; y < h; y++) {
 657:..\..\..\arduinoLCD\test\Pain Drain\libraries\lvgl\src\draw\sw/lv_draw_sw_blend.c ****                 for(x = 0; x < w; x++) {
 658:..\..\..\arduinoLCD\test\Pain Drain\libraries\lvgl\src\draw\sw/lv_draw_sw_blend.c ****                     dest_buf[x] = lv_color_mix(src_buf[x], dest_buf[x], opa);
 659:..\..\..\arduinoLCD\test\Pain Drain\libraries\lvgl\src\draw\sw/lv_draw_sw_blend.c ****                 }
 660:..\..\..\arduinoLCD\test\Pain Drain\libraries\lvgl\src\draw\sw/lv_draw_sw_blend.c ****                 dest_buf += dest_stride;
 661:..\..\..\arduinoLCD\test\Pain Drain\libraries\lvgl\src\draw\sw/lv_draw_sw_blend.c ****                 src_buf += src_stride;
 662:..\..\..\arduinoLCD\test\Pain Drain\libraries\lvgl\src\draw\sw/lv_draw_sw_blend.c ****             }
 663:..\..\..\arduinoLCD\test\Pain Drain\libraries\lvgl\src\draw\sw/lv_draw_sw_blend.c ****         }
 664:..\..\..\arduinoLCD\test\Pain Drain\libraries\lvgl\src\draw\sw/lv_draw_sw_blend.c ****     }
ARM GAS  C:\Users\haske\AppData\Local\Temp\ccydbpJh.s 			page 22


 665:..\..\..\arduinoLCD\test\Pain Drain\libraries\lvgl\src\draw\sw/lv_draw_sw_blend.c ****     /*Masked*/
 666:..\..\..\arduinoLCD\test\Pain Drain\libraries\lvgl\src\draw\sw/lv_draw_sw_blend.c ****     else {
 667:..\..\..\arduinoLCD\test\Pain Drain\libraries\lvgl\src\draw\sw/lv_draw_sw_blend.c ****         /*Only the mask matters*/
 668:..\..\..\arduinoLCD\test\Pain Drain\libraries\lvgl\src\draw\sw/lv_draw_sw_blend.c ****         if(opa > LV_OPA_MAX) {
 669:..\..\..\arduinoLCD\test\Pain Drain\libraries\lvgl\src\draw\sw/lv_draw_sw_blend.c ****             int32_t x_end4 = w - 4;
 670:..\..\..\arduinoLCD\test\Pain Drain\libraries\lvgl\src\draw\sw/lv_draw_sw_blend.c **** 
 671:..\..\..\arduinoLCD\test\Pain Drain\libraries\lvgl\src\draw\sw/lv_draw_sw_blend.c ****             for(y = 0; y < h; y++) {
 672:..\..\..\arduinoLCD\test\Pain Drain\libraries\lvgl\src\draw\sw/lv_draw_sw_blend.c ****                 const lv_opa_t * mask_tmp_x = mask;
 673:..\..\..\arduinoLCD\test\Pain Drain\libraries\lvgl\src\draw\sw/lv_draw_sw_blend.c **** #if 0
 674:..\..\..\arduinoLCD\test\Pain Drain\libraries\lvgl\src\draw\sw/lv_draw_sw_blend.c ****                 for(x = 0; x < w; x++) {
 675:..\..\..\arduinoLCD\test\Pain Drain\libraries\lvgl\src\draw\sw/lv_draw_sw_blend.c ****                     MAP_NORMAL_MASK_PX(x);
 676:..\..\..\arduinoLCD\test\Pain Drain\libraries\lvgl\src\draw\sw/lv_draw_sw_blend.c ****                 }
 677:..\..\..\arduinoLCD\test\Pain Drain\libraries\lvgl\src\draw\sw/lv_draw_sw_blend.c **** #else
 678:..\..\..\arduinoLCD\test\Pain Drain\libraries\lvgl\src\draw\sw/lv_draw_sw_blend.c ****                 for(x = 0; x < w && ((lv_uintptr_t)mask_tmp_x & 0x3); x++) {
 679:..\..\..\arduinoLCD\test\Pain Drain\libraries\lvgl\src\draw\sw/lv_draw_sw_blend.c ****                     MAP_NORMAL_MASK_PX(x)
 680:..\..\..\arduinoLCD\test\Pain Drain\libraries\lvgl\src\draw\sw/lv_draw_sw_blend.c ****                 }
 681:..\..\..\arduinoLCD\test\Pain Drain\libraries\lvgl\src\draw\sw/lv_draw_sw_blend.c **** 
 682:..\..\..\arduinoLCD\test\Pain Drain\libraries\lvgl\src\draw\sw/lv_draw_sw_blend.c ****                 uint32_t * mask32 = (uint32_t *)mask_tmp_x;
 683:..\..\..\arduinoLCD\test\Pain Drain\libraries\lvgl\src\draw\sw/lv_draw_sw_blend.c ****                 for(; x < x_end4; x += 4) {
 684:..\..\..\arduinoLCD\test\Pain Drain\libraries\lvgl\src\draw\sw/lv_draw_sw_blend.c ****                     if(*mask32) {
 685:..\..\..\arduinoLCD\test\Pain Drain\libraries\lvgl\src\draw\sw/lv_draw_sw_blend.c ****                         if((*mask32) == 0xFFFFFFFF) {
 686:..\..\..\arduinoLCD\test\Pain Drain\libraries\lvgl\src\draw\sw/lv_draw_sw_blend.c ****                             dest_buf[x] = src_buf[x];
 687:..\..\..\arduinoLCD\test\Pain Drain\libraries\lvgl\src\draw\sw/lv_draw_sw_blend.c ****                             dest_buf[x + 1] = src_buf[x + 1];
 688:..\..\..\arduinoLCD\test\Pain Drain\libraries\lvgl\src\draw\sw/lv_draw_sw_blend.c ****                             dest_buf[x + 2] = src_buf[x + 2];
 689:..\..\..\arduinoLCD\test\Pain Drain\libraries\lvgl\src\draw\sw/lv_draw_sw_blend.c ****                             dest_buf[x + 3] = src_buf[x + 3];
 690:..\..\..\arduinoLCD\test\Pain Drain\libraries\lvgl\src\draw\sw/lv_draw_sw_blend.c ****                         }
 691:..\..\..\arduinoLCD\test\Pain Drain\libraries\lvgl\src\draw\sw/lv_draw_sw_blend.c ****                         else {
 692:..\..\..\arduinoLCD\test\Pain Drain\libraries\lvgl\src\draw\sw/lv_draw_sw_blend.c ****                             mask_tmp_x = (const lv_opa_t *)mask32;
 693:..\..\..\arduinoLCD\test\Pain Drain\libraries\lvgl\src\draw\sw/lv_draw_sw_blend.c ****                             MAP_NORMAL_MASK_PX(x)
 694:..\..\..\arduinoLCD\test\Pain Drain\libraries\lvgl\src\draw\sw/lv_draw_sw_blend.c ****                             MAP_NORMAL_MASK_PX(x + 1)
 695:..\..\..\arduinoLCD\test\Pain Drain\libraries\lvgl\src\draw\sw/lv_draw_sw_blend.c ****                             MAP_NORMAL_MASK_PX(x + 2)
 696:..\..\..\arduinoLCD\test\Pain Drain\libraries\lvgl\src\draw\sw/lv_draw_sw_blend.c ****                             MAP_NORMAL_MASK_PX(x + 3)
 697:..\..\..\arduinoLCD\test\Pain Drain\libraries\lvgl\src\draw\sw/lv_draw_sw_blend.c ****                         }
 698:..\..\..\arduinoLCD\test\Pain Drain\libraries\lvgl\src\draw\sw/lv_draw_sw_blend.c ****                     }
 699:..\..\..\arduinoLCD\test\Pain Drain\libraries\lvgl\src\draw\sw/lv_draw_sw_blend.c ****                     mask32++;
 700:..\..\..\arduinoLCD\test\Pain Drain\libraries\lvgl\src\draw\sw/lv_draw_sw_blend.c ****                 }
 701:..\..\..\arduinoLCD\test\Pain Drain\libraries\lvgl\src\draw\sw/lv_draw_sw_blend.c **** 
 702:..\..\..\arduinoLCD\test\Pain Drain\libraries\lvgl\src\draw\sw/lv_draw_sw_blend.c ****                 mask_tmp_x = (const lv_opa_t *)mask32;
 703:..\..\..\arduinoLCD\test\Pain Drain\libraries\lvgl\src\draw\sw/lv_draw_sw_blend.c ****                 for(; x < w ; x++) {
 704:..\..\..\arduinoLCD\test\Pain Drain\libraries\lvgl\src\draw\sw/lv_draw_sw_blend.c ****                     MAP_NORMAL_MASK_PX(x)
 705:..\..\..\arduinoLCD\test\Pain Drain\libraries\lvgl\src\draw\sw/lv_draw_sw_blend.c ****                 }
 706:..\..\..\arduinoLCD\test\Pain Drain\libraries\lvgl\src\draw\sw/lv_draw_sw_blend.c **** #endif
 707:..\..\..\arduinoLCD\test\Pain Drain\libraries\lvgl\src\draw\sw/lv_draw_sw_blend.c ****                 dest_buf += dest_stride;
 708:..\..\..\arduinoLCD\test\Pain Drain\libraries\lvgl\src\draw\sw/lv_draw_sw_blend.c ****                 src_buf += src_stride;
 709:..\..\..\arduinoLCD\test\Pain Drain\libraries\lvgl\src\draw\sw/lv_draw_sw_blend.c ****                 mask += mask_stride;
 710:..\..\..\arduinoLCD\test\Pain Drain\libraries\lvgl\src\draw\sw/lv_draw_sw_blend.c ****             }
 711:..\..\..\arduinoLCD\test\Pain Drain\libraries\lvgl\src\draw\sw/lv_draw_sw_blend.c ****         }
 712:..\..\..\arduinoLCD\test\Pain Drain\libraries\lvgl\src\draw\sw/lv_draw_sw_blend.c ****         /*Handle opa and mask values too*/
 713:..\..\..\arduinoLCD\test\Pain Drain\libraries\lvgl\src\draw\sw/lv_draw_sw_blend.c ****         else {
 714:..\..\..\arduinoLCD\test\Pain Drain\libraries\lvgl\src\draw\sw/lv_draw_sw_blend.c ****             for(y = 0; y < h; y++) {
 715:..\..\..\arduinoLCD\test\Pain Drain\libraries\lvgl\src\draw\sw/lv_draw_sw_blend.c ****                 for(x = 0; x < w; x++) {
 716:..\..\..\arduinoLCD\test\Pain Drain\libraries\lvgl\src\draw\sw/lv_draw_sw_blend.c ****                     if(mask[x]) {
 717:..\..\..\arduinoLCD\test\Pain Drain\libraries\lvgl\src\draw\sw/lv_draw_sw_blend.c ****                         lv_opa_t opa_tmp = mask[x] >= LV_OPA_MAX ? opa : ((opa * mask[x]) >> 8);
 718:..\..\..\arduinoLCD\test\Pain Drain\libraries\lvgl\src\draw\sw/lv_draw_sw_blend.c ****                         dest_buf[x] = lv_color_mix(src_buf[x], dest_buf[x], opa_tmp);
 719:..\..\..\arduinoLCD\test\Pain Drain\libraries\lvgl\src\draw\sw/lv_draw_sw_blend.c ****                     }
 720:..\..\..\arduinoLCD\test\Pain Drain\libraries\lvgl\src\draw\sw/lv_draw_sw_blend.c ****                 }
 721:..\..\..\arduinoLCD\test\Pain Drain\libraries\lvgl\src\draw\sw/lv_draw_sw_blend.c ****                 dest_buf += dest_stride;
ARM GAS  C:\Users\haske\AppData\Local\Temp\ccydbpJh.s 			page 23


 722:..\..\..\arduinoLCD\test\Pain Drain\libraries\lvgl\src\draw\sw/lv_draw_sw_blend.c ****                 src_buf += src_stride;
 723:..\..\..\arduinoLCD\test\Pain Drain\libraries\lvgl\src\draw\sw/lv_draw_sw_blend.c ****                 mask += mask_stride;
 724:..\..\..\arduinoLCD\test\Pain Drain\libraries\lvgl\src\draw\sw/lv_draw_sw_blend.c ****             }
 725:..\..\..\arduinoLCD\test\Pain Drain\libraries\lvgl\src\draw\sw/lv_draw_sw_blend.c ****         }
 726:..\..\..\arduinoLCD\test\Pain Drain\libraries\lvgl\src\draw\sw/lv_draw_sw_blend.c ****     }
 727:..\..\..\arduinoLCD\test\Pain Drain\libraries\lvgl\src\draw\sw/lv_draw_sw_blend.c **** }
 728:..\..\..\arduinoLCD\test\Pain Drain\libraries\lvgl\src\draw\sw/lv_draw_sw_blend.c **** 
 729:..\..\..\arduinoLCD\test\Pain Drain\libraries\lvgl\src\draw\sw/lv_draw_sw_blend.c **** 
 730:..\..\..\arduinoLCD\test\Pain Drain\libraries\lvgl\src\draw\sw/lv_draw_sw_blend.c **** 
 731:..\..\..\arduinoLCD\test\Pain Drain\libraries\lvgl\src\draw\sw/lv_draw_sw_blend.c **** #if LV_COLOR_SCREEN_TRANSP
 732:..\..\..\arduinoLCD\test\Pain Drain\libraries\lvgl\src\draw\sw/lv_draw_sw_blend.c **** LV_ATTRIBUTE_FAST_MEM static void map_argb(lv_color_t * dest_buf, const lv_area_t * dest_area, lv_c
 733:..\..\..\arduinoLCD\test\Pain Drain\libraries\lvgl\src\draw\sw/lv_draw_sw_blend.c ****                                            const lv_color_t * src_buf, lv_coord_t src_stride, lv_op
 734:..\..\..\arduinoLCD\test\Pain Drain\libraries\lvgl\src\draw\sw/lv_draw_sw_blend.c ****                                            const lv_opa_t * mask, lv_coord_t mask_stride, lv_blend_
 735:..\..\..\arduinoLCD\test\Pain Drain\libraries\lvgl\src\draw\sw/lv_draw_sw_blend.c **** 
 736:..\..\..\arduinoLCD\test\Pain Drain\libraries\lvgl\src\draw\sw/lv_draw_sw_blend.c **** {
 737:..\..\..\arduinoLCD\test\Pain Drain\libraries\lvgl\src\draw\sw/lv_draw_sw_blend.c ****     uint8_t * dest_buf8 = (uint8_t *) dest_buf;
 738:..\..\..\arduinoLCD\test\Pain Drain\libraries\lvgl\src\draw\sw/lv_draw_sw_blend.c **** 
 739:..\..\..\arduinoLCD\test\Pain Drain\libraries\lvgl\src\draw\sw/lv_draw_sw_blend.c ****     int32_t w = lv_area_get_width(dest_area);
 740:..\..\..\arduinoLCD\test\Pain Drain\libraries\lvgl\src\draw\sw/lv_draw_sw_blend.c ****     int32_t h = lv_area_get_height(dest_area);
 741:..\..\..\arduinoLCD\test\Pain Drain\libraries\lvgl\src\draw\sw/lv_draw_sw_blend.c **** 
 742:..\..\..\arduinoLCD\test\Pain Drain\libraries\lvgl\src\draw\sw/lv_draw_sw_blend.c ****     int32_t x;
 743:..\..\..\arduinoLCD\test\Pain Drain\libraries\lvgl\src\draw\sw/lv_draw_sw_blend.c ****     int32_t y;
 744:..\..\..\arduinoLCD\test\Pain Drain\libraries\lvgl\src\draw\sw/lv_draw_sw_blend.c **** 
 745:..\..\..\arduinoLCD\test\Pain Drain\libraries\lvgl\src\draw\sw/lv_draw_sw_blend.c ****     lv_color_t (*blend_fp)(lv_color_t, lv_color_t, lv_opa_t);
 746:..\..\..\arduinoLCD\test\Pain Drain\libraries\lvgl\src\draw\sw/lv_draw_sw_blend.c ****     switch(blend_mode) {
 747:..\..\..\arduinoLCD\test\Pain Drain\libraries\lvgl\src\draw\sw/lv_draw_sw_blend.c ****         case LV_BLEND_MODE_ADDITIVE:
 748:..\..\..\arduinoLCD\test\Pain Drain\libraries\lvgl\src\draw\sw/lv_draw_sw_blend.c ****             blend_fp = color_blend_true_color_additive;
 749:..\..\..\arduinoLCD\test\Pain Drain\libraries\lvgl\src\draw\sw/lv_draw_sw_blend.c ****             break;
 750:..\..\..\arduinoLCD\test\Pain Drain\libraries\lvgl\src\draw\sw/lv_draw_sw_blend.c ****         case LV_BLEND_MODE_SUBTRACTIVE:
 751:..\..\..\arduinoLCD\test\Pain Drain\libraries\lvgl\src\draw\sw/lv_draw_sw_blend.c ****             blend_fp = color_blend_true_color_subtractive;
 752:..\..\..\arduinoLCD\test\Pain Drain\libraries\lvgl\src\draw\sw/lv_draw_sw_blend.c ****             break;
 753:..\..\..\arduinoLCD\test\Pain Drain\libraries\lvgl\src\draw\sw/lv_draw_sw_blend.c ****         case LV_BLEND_MODE_MULTIPLY:
 754:..\..\..\arduinoLCD\test\Pain Drain\libraries\lvgl\src\draw\sw/lv_draw_sw_blend.c ****             blend_fp = color_blend_true_color_multiply;
 755:..\..\..\arduinoLCD\test\Pain Drain\libraries\lvgl\src\draw\sw/lv_draw_sw_blend.c ****             break;
 756:..\..\..\arduinoLCD\test\Pain Drain\libraries\lvgl\src\draw\sw/lv_draw_sw_blend.c ****         default:
 757:..\..\..\arduinoLCD\test\Pain Drain\libraries\lvgl\src\draw\sw/lv_draw_sw_blend.c ****             blend_fp = NULL;
 758:..\..\..\arduinoLCD\test\Pain Drain\libraries\lvgl\src\draw\sw/lv_draw_sw_blend.c ****     }
 759:..\..\..\arduinoLCD\test\Pain Drain\libraries\lvgl\src\draw\sw/lv_draw_sw_blend.c **** 
 760:..\..\..\arduinoLCD\test\Pain Drain\libraries\lvgl\src\draw\sw/lv_draw_sw_blend.c ****     /*Simple fill (maybe with opacity), no masking*/
 761:..\..\..\arduinoLCD\test\Pain Drain\libraries\lvgl\src\draw\sw/lv_draw_sw_blend.c ****     if(mask == NULL) {
 762:..\..\..\arduinoLCD\test\Pain Drain\libraries\lvgl\src\draw\sw/lv_draw_sw_blend.c ****         if(opa >= LV_OPA_MAX) {
 763:..\..\..\arduinoLCD\test\Pain Drain\libraries\lvgl\src\draw\sw/lv_draw_sw_blend.c ****             if(blend_fp == NULL && LV_COLOR_DEPTH == 32) {
 764:..\..\..\arduinoLCD\test\Pain Drain\libraries\lvgl\src\draw\sw/lv_draw_sw_blend.c ****                 for(y = 0; y < h; y++) {
 765:..\..\..\arduinoLCD\test\Pain Drain\libraries\lvgl\src\draw\sw/lv_draw_sw_blend.c ****                     lv_memcpy(dest_buf, src_buf, w * sizeof(lv_color_t));
 766:..\..\..\arduinoLCD\test\Pain Drain\libraries\lvgl\src\draw\sw/lv_draw_sw_blend.c ****                     dest_buf += dest_stride;
 767:..\..\..\arduinoLCD\test\Pain Drain\libraries\lvgl\src\draw\sw/lv_draw_sw_blend.c ****                     src_buf += src_stride;
 768:..\..\..\arduinoLCD\test\Pain Drain\libraries\lvgl\src\draw\sw/lv_draw_sw_blend.c ****                 }
 769:..\..\..\arduinoLCD\test\Pain Drain\libraries\lvgl\src\draw\sw/lv_draw_sw_blend.c ****             }
 770:..\..\..\arduinoLCD\test\Pain Drain\libraries\lvgl\src\draw\sw/lv_draw_sw_blend.c ****             else {
 771:..\..\..\arduinoLCD\test\Pain Drain\libraries\lvgl\src\draw\sw/lv_draw_sw_blend.c ****                 uint8_t * dest_buf8_row = dest_buf8;
 772:..\..\..\arduinoLCD\test\Pain Drain\libraries\lvgl\src\draw\sw/lv_draw_sw_blend.c ****                 for(y = 0; y < h; y++) {
 773:..\..\..\arduinoLCD\test\Pain Drain\libraries\lvgl\src\draw\sw/lv_draw_sw_blend.c ****                     if(blend_fp == NULL) {
 774:..\..\..\arduinoLCD\test\Pain Drain\libraries\lvgl\src\draw\sw/lv_draw_sw_blend.c ****                         for(x = 0; x < w; x++) {
 775:..\..\..\arduinoLCD\test\Pain Drain\libraries\lvgl\src\draw\sw/lv_draw_sw_blend.c ****                             set_px_argb(dest_buf8, src_buf[x], LV_OPA_COVER);
 776:..\..\..\arduinoLCD\test\Pain Drain\libraries\lvgl\src\draw\sw/lv_draw_sw_blend.c ****                             dest_buf8 += LV_IMG_PX_SIZE_ALPHA_BYTE;
 777:..\..\..\arduinoLCD\test\Pain Drain\libraries\lvgl\src\draw\sw/lv_draw_sw_blend.c ****                         }
 778:..\..\..\arduinoLCD\test\Pain Drain\libraries\lvgl\src\draw\sw/lv_draw_sw_blend.c ****                     }
ARM GAS  C:\Users\haske\AppData\Local\Temp\ccydbpJh.s 			page 24


 779:..\..\..\arduinoLCD\test\Pain Drain\libraries\lvgl\src\draw\sw/lv_draw_sw_blend.c ****                     else {
 780:..\..\..\arduinoLCD\test\Pain Drain\libraries\lvgl\src\draw\sw/lv_draw_sw_blend.c ****                         for(x = 0; x < w; x++) {
 781:..\..\..\arduinoLCD\test\Pain Drain\libraries\lvgl\src\draw\sw/lv_draw_sw_blend.c ****                             set_px_argb_blend(dest_buf8, src_buf[x], LV_OPA_COVER, blend_fp);
 782:..\..\..\arduinoLCD\test\Pain Drain\libraries\lvgl\src\draw\sw/lv_draw_sw_blend.c ****                             dest_buf8 += LV_IMG_PX_SIZE_ALPHA_BYTE;
 783:..\..\..\arduinoLCD\test\Pain Drain\libraries\lvgl\src\draw\sw/lv_draw_sw_blend.c ****                         }
 784:..\..\..\arduinoLCD\test\Pain Drain\libraries\lvgl\src\draw\sw/lv_draw_sw_blend.c ****                     }
 785:..\..\..\arduinoLCD\test\Pain Drain\libraries\lvgl\src\draw\sw/lv_draw_sw_blend.c **** 
 786:..\..\..\arduinoLCD\test\Pain Drain\libraries\lvgl\src\draw\sw/lv_draw_sw_blend.c ****                     dest_buf8_row += dest_stride * LV_IMG_PX_SIZE_ALPHA_BYTE;
 787:..\..\..\arduinoLCD\test\Pain Drain\libraries\lvgl\src\draw\sw/lv_draw_sw_blend.c ****                     dest_buf8 = dest_buf8_row;
 788:..\..\..\arduinoLCD\test\Pain Drain\libraries\lvgl\src\draw\sw/lv_draw_sw_blend.c ****                     src_buf += src_stride;
 789:..\..\..\arduinoLCD\test\Pain Drain\libraries\lvgl\src\draw\sw/lv_draw_sw_blend.c ****                 }
 790:..\..\..\arduinoLCD\test\Pain Drain\libraries\lvgl\src\draw\sw/lv_draw_sw_blend.c ****             }
 791:..\..\..\arduinoLCD\test\Pain Drain\libraries\lvgl\src\draw\sw/lv_draw_sw_blend.c ****         }
 792:..\..\..\arduinoLCD\test\Pain Drain\libraries\lvgl\src\draw\sw/lv_draw_sw_blend.c ****         /*No mask but opacity*/
 793:..\..\..\arduinoLCD\test\Pain Drain\libraries\lvgl\src\draw\sw/lv_draw_sw_blend.c ****         else {
 794:..\..\..\arduinoLCD\test\Pain Drain\libraries\lvgl\src\draw\sw/lv_draw_sw_blend.c ****             uint8_t * dest_buf8_row = dest_buf8;
 795:..\..\..\arduinoLCD\test\Pain Drain\libraries\lvgl\src\draw\sw/lv_draw_sw_blend.c ****             for(y = 0; y < h; y++) {
 796:..\..\..\arduinoLCD\test\Pain Drain\libraries\lvgl\src\draw\sw/lv_draw_sw_blend.c ****                 if(blend_fp == NULL) {
 797:..\..\..\arduinoLCD\test\Pain Drain\libraries\lvgl\src\draw\sw/lv_draw_sw_blend.c ****                     for(x = 0; x < w; x++) {
 798:..\..\..\arduinoLCD\test\Pain Drain\libraries\lvgl\src\draw\sw/lv_draw_sw_blend.c ****                         set_px_argb(dest_buf8, src_buf[x], opa);
 799:..\..\..\arduinoLCD\test\Pain Drain\libraries\lvgl\src\draw\sw/lv_draw_sw_blend.c ****                         dest_buf8 += LV_IMG_PX_SIZE_ALPHA_BYTE;
 800:..\..\..\arduinoLCD\test\Pain Drain\libraries\lvgl\src\draw\sw/lv_draw_sw_blend.c ****                     }
 801:..\..\..\arduinoLCD\test\Pain Drain\libraries\lvgl\src\draw\sw/lv_draw_sw_blend.c ****                 }
 802:..\..\..\arduinoLCD\test\Pain Drain\libraries\lvgl\src\draw\sw/lv_draw_sw_blend.c ****                 else {
 803:..\..\..\arduinoLCD\test\Pain Drain\libraries\lvgl\src\draw\sw/lv_draw_sw_blend.c ****                     for(x = 0; x < w; x++) {
 804:..\..\..\arduinoLCD\test\Pain Drain\libraries\lvgl\src\draw\sw/lv_draw_sw_blend.c ****                         set_px_argb_blend(dest_buf8, src_buf[x], opa, blend_fp);
 805:..\..\..\arduinoLCD\test\Pain Drain\libraries\lvgl\src\draw\sw/lv_draw_sw_blend.c ****                         dest_buf8 += LV_IMG_PX_SIZE_ALPHA_BYTE;
 806:..\..\..\arduinoLCD\test\Pain Drain\libraries\lvgl\src\draw\sw/lv_draw_sw_blend.c ****                     }
 807:..\..\..\arduinoLCD\test\Pain Drain\libraries\lvgl\src\draw\sw/lv_draw_sw_blend.c ****                 }
 808:..\..\..\arduinoLCD\test\Pain Drain\libraries\lvgl\src\draw\sw/lv_draw_sw_blend.c **** 
 809:..\..\..\arduinoLCD\test\Pain Drain\libraries\lvgl\src\draw\sw/lv_draw_sw_blend.c ****                 dest_buf8_row += dest_stride * LV_IMG_PX_SIZE_ALPHA_BYTE;
 810:..\..\..\arduinoLCD\test\Pain Drain\libraries\lvgl\src\draw\sw/lv_draw_sw_blend.c ****                 dest_buf8 = dest_buf8_row;
 811:..\..\..\arduinoLCD\test\Pain Drain\libraries\lvgl\src\draw\sw/lv_draw_sw_blend.c ****                 src_buf += src_stride;
 812:..\..\..\arduinoLCD\test\Pain Drain\libraries\lvgl\src\draw\sw/lv_draw_sw_blend.c ****             }
 813:..\..\..\arduinoLCD\test\Pain Drain\libraries\lvgl\src\draw\sw/lv_draw_sw_blend.c ****         }
 814:..\..\..\arduinoLCD\test\Pain Drain\libraries\lvgl\src\draw\sw/lv_draw_sw_blend.c ****     }
 815:..\..\..\arduinoLCD\test\Pain Drain\libraries\lvgl\src\draw\sw/lv_draw_sw_blend.c ****     /*Masked*/
 816:..\..\..\arduinoLCD\test\Pain Drain\libraries\lvgl\src\draw\sw/lv_draw_sw_blend.c ****     else {
 817:..\..\..\arduinoLCD\test\Pain Drain\libraries\lvgl\src\draw\sw/lv_draw_sw_blend.c ****         /*Only the mask matters*/
 818:..\..\..\arduinoLCD\test\Pain Drain\libraries\lvgl\src\draw\sw/lv_draw_sw_blend.c ****         if(opa > LV_OPA_MAX) {
 819:..\..\..\arduinoLCD\test\Pain Drain\libraries\lvgl\src\draw\sw/lv_draw_sw_blend.c ****             uint8_t * dest_buf8_row = dest_buf8;
 820:..\..\..\arduinoLCD\test\Pain Drain\libraries\lvgl\src\draw\sw/lv_draw_sw_blend.c ****             for(y = 0; y < h; y++) {
 821:..\..\..\arduinoLCD\test\Pain Drain\libraries\lvgl\src\draw\sw/lv_draw_sw_blend.c ****                 if(blend_fp == NULL) {
 822:..\..\..\arduinoLCD\test\Pain Drain\libraries\lvgl\src\draw\sw/lv_draw_sw_blend.c ****                     for(x = 0; x < w; x++) {
 823:..\..\..\arduinoLCD\test\Pain Drain\libraries\lvgl\src\draw\sw/lv_draw_sw_blend.c ****                         set_px_argb(dest_buf8, src_buf[x], mask[x]);
 824:..\..\..\arduinoLCD\test\Pain Drain\libraries\lvgl\src\draw\sw/lv_draw_sw_blend.c ****                         dest_buf8 += LV_IMG_PX_SIZE_ALPHA_BYTE;
 825:..\..\..\arduinoLCD\test\Pain Drain\libraries\lvgl\src\draw\sw/lv_draw_sw_blend.c ****                     }
 826:..\..\..\arduinoLCD\test\Pain Drain\libraries\lvgl\src\draw\sw/lv_draw_sw_blend.c ****                 }
 827:..\..\..\arduinoLCD\test\Pain Drain\libraries\lvgl\src\draw\sw/lv_draw_sw_blend.c ****                 else {
 828:..\..\..\arduinoLCD\test\Pain Drain\libraries\lvgl\src\draw\sw/lv_draw_sw_blend.c ****                     for(x = 0; x < w; x++) {
 829:..\..\..\arduinoLCD\test\Pain Drain\libraries\lvgl\src\draw\sw/lv_draw_sw_blend.c ****                         set_px_argb_blend(dest_buf8, src_buf[x], mask[x], blend_fp);
 830:..\..\..\arduinoLCD\test\Pain Drain\libraries\lvgl\src\draw\sw/lv_draw_sw_blend.c ****                         dest_buf8 += LV_IMG_PX_SIZE_ALPHA_BYTE;
 831:..\..\..\arduinoLCD\test\Pain Drain\libraries\lvgl\src\draw\sw/lv_draw_sw_blend.c ****                     }
 832:..\..\..\arduinoLCD\test\Pain Drain\libraries\lvgl\src\draw\sw/lv_draw_sw_blend.c ****                 }
 833:..\..\..\arduinoLCD\test\Pain Drain\libraries\lvgl\src\draw\sw/lv_draw_sw_blend.c ****                 dest_buf8_row += dest_stride * LV_IMG_PX_SIZE_ALPHA_BYTE;
 834:..\..\..\arduinoLCD\test\Pain Drain\libraries\lvgl\src\draw\sw/lv_draw_sw_blend.c ****                 dest_buf8 = dest_buf8_row;
 835:..\..\..\arduinoLCD\test\Pain Drain\libraries\lvgl\src\draw\sw/lv_draw_sw_blend.c ****                 src_buf += src_stride;
ARM GAS  C:\Users\haske\AppData\Local\Temp\ccydbpJh.s 			page 25


 836:..\..\..\arduinoLCD\test\Pain Drain\libraries\lvgl\src\draw\sw/lv_draw_sw_blend.c ****                 mask += mask_stride;
 837:..\..\..\arduinoLCD\test\Pain Drain\libraries\lvgl\src\draw\sw/lv_draw_sw_blend.c ****             }
 838:..\..\..\arduinoLCD\test\Pain Drain\libraries\lvgl\src\draw\sw/lv_draw_sw_blend.c ****         }
 839:..\..\..\arduinoLCD\test\Pain Drain\libraries\lvgl\src\draw\sw/lv_draw_sw_blend.c ****         /*Handle opa and mask values too*/
 840:..\..\..\arduinoLCD\test\Pain Drain\libraries\lvgl\src\draw\sw/lv_draw_sw_blend.c ****         else {
 841:..\..\..\arduinoLCD\test\Pain Drain\libraries\lvgl\src\draw\sw/lv_draw_sw_blend.c ****             uint8_t * dest_buf8_row = dest_buf8;
 842:..\..\..\arduinoLCD\test\Pain Drain\libraries\lvgl\src\draw\sw/lv_draw_sw_blend.c ****             for(y = 0; y < h; y++) {
 843:..\..\..\arduinoLCD\test\Pain Drain\libraries\lvgl\src\draw\sw/lv_draw_sw_blend.c ****                 if(blend_fp == NULL) {
 844:..\..\..\arduinoLCD\test\Pain Drain\libraries\lvgl\src\draw\sw/lv_draw_sw_blend.c ****                     for(x = 0; x < w; x++) {
 845:..\..\..\arduinoLCD\test\Pain Drain\libraries\lvgl\src\draw\sw/lv_draw_sw_blend.c ****                         if(mask[x]) {
 846:..\..\..\arduinoLCD\test\Pain Drain\libraries\lvgl\src\draw\sw/lv_draw_sw_blend.c ****                             lv_opa_t opa_tmp = mask[x] >= LV_OPA_MAX ? opa : ((opa * mask[x]) >> 8)
 847:..\..\..\arduinoLCD\test\Pain Drain\libraries\lvgl\src\draw\sw/lv_draw_sw_blend.c ****                             set_px_argb(dest_buf8, src_buf[x], opa_tmp);
 848:..\..\..\arduinoLCD\test\Pain Drain\libraries\lvgl\src\draw\sw/lv_draw_sw_blend.c ****                         }
 849:..\..\..\arduinoLCD\test\Pain Drain\libraries\lvgl\src\draw\sw/lv_draw_sw_blend.c ****                         dest_buf8 += LV_IMG_PX_SIZE_ALPHA_BYTE;
 850:..\..\..\arduinoLCD\test\Pain Drain\libraries\lvgl\src\draw\sw/lv_draw_sw_blend.c ****                     }
 851:..\..\..\arduinoLCD\test\Pain Drain\libraries\lvgl\src\draw\sw/lv_draw_sw_blend.c ****                 }
 852:..\..\..\arduinoLCD\test\Pain Drain\libraries\lvgl\src\draw\sw/lv_draw_sw_blend.c ****                 else {
 853:..\..\..\arduinoLCD\test\Pain Drain\libraries\lvgl\src\draw\sw/lv_draw_sw_blend.c ****                     for(x = 0; x < w; x++) {
 854:..\..\..\arduinoLCD\test\Pain Drain\libraries\lvgl\src\draw\sw/lv_draw_sw_blend.c ****                         if(mask[x]) {
 855:..\..\..\arduinoLCD\test\Pain Drain\libraries\lvgl\src\draw\sw/lv_draw_sw_blend.c ****                             lv_opa_t opa_tmp = mask[x] >= LV_OPA_MAX ? opa : ((opa * mask[x]) >> 8)
 856:..\..\..\arduinoLCD\test\Pain Drain\libraries\lvgl\src\draw\sw/lv_draw_sw_blend.c ****                             set_px_argb_blend(dest_buf8, src_buf[x], opa_tmp, blend_fp);
 857:..\..\..\arduinoLCD\test\Pain Drain\libraries\lvgl\src\draw\sw/lv_draw_sw_blend.c ****                         }
 858:..\..\..\arduinoLCD\test\Pain Drain\libraries\lvgl\src\draw\sw/lv_draw_sw_blend.c ****                         dest_buf8 += LV_IMG_PX_SIZE_ALPHA_BYTE;
 859:..\..\..\arduinoLCD\test\Pain Drain\libraries\lvgl\src\draw\sw/lv_draw_sw_blend.c ****                     }
 860:..\..\..\arduinoLCD\test\Pain Drain\libraries\lvgl\src\draw\sw/lv_draw_sw_blend.c ****                 }
 861:..\..\..\arduinoLCD\test\Pain Drain\libraries\lvgl\src\draw\sw/lv_draw_sw_blend.c ****                 dest_buf8_row += dest_stride * LV_IMG_PX_SIZE_ALPHA_BYTE;
 862:..\..\..\arduinoLCD\test\Pain Drain\libraries\lvgl\src\draw\sw/lv_draw_sw_blend.c ****                 dest_buf8 = dest_buf8_row;
 863:..\..\..\arduinoLCD\test\Pain Drain\libraries\lvgl\src\draw\sw/lv_draw_sw_blend.c ****                 src_buf += src_stride;
 864:..\..\..\arduinoLCD\test\Pain Drain\libraries\lvgl\src\draw\sw/lv_draw_sw_blend.c ****                 mask += mask_stride;
 865:..\..\..\arduinoLCD\test\Pain Drain\libraries\lvgl\src\draw\sw/lv_draw_sw_blend.c ****             }
 866:..\..\..\arduinoLCD\test\Pain Drain\libraries\lvgl\src\draw\sw/lv_draw_sw_blend.c ****         }
 867:..\..\..\arduinoLCD\test\Pain Drain\libraries\lvgl\src\draw\sw/lv_draw_sw_blend.c ****     }
 868:..\..\..\arduinoLCD\test\Pain Drain\libraries\lvgl\src\draw\sw/lv_draw_sw_blend.c **** }
 869:..\..\..\arduinoLCD\test\Pain Drain\libraries\lvgl\src\draw\sw/lv_draw_sw_blend.c **** #endif
 870:..\..\..\arduinoLCD\test\Pain Drain\libraries\lvgl\src\draw\sw/lv_draw_sw_blend.c **** 
 871:..\..\..\arduinoLCD\test\Pain Drain\libraries\lvgl\src\draw\sw/lv_draw_sw_blend.c **** 
 872:..\..\..\arduinoLCD\test\Pain Drain\libraries\lvgl\src\draw\sw/lv_draw_sw_blend.c **** #if LV_DRAW_COMPLEX
 873:..\..\..\arduinoLCD\test\Pain Drain\libraries\lvgl\src\draw\sw/lv_draw_sw_blend.c **** static void map_blended(lv_color_t * dest_buf, const lv_area_t * dest_area, lv_coord_t dest_stride,
 874:..\..\..\arduinoLCD\test\Pain Drain\libraries\lvgl\src\draw\sw/lv_draw_sw_blend.c ****                         const lv_color_t * src_buf, lv_coord_t src_stride, lv_opa_t opa,
 875:..\..\..\arduinoLCD\test\Pain Drain\libraries\lvgl\src\draw\sw/lv_draw_sw_blend.c ****                         const lv_opa_t * mask, lv_coord_t mask_stride, lv_blend_mode_t blend_mode)
 876:..\..\..\arduinoLCD\test\Pain Drain\libraries\lvgl\src\draw\sw/lv_draw_sw_blend.c **** {
 389              		.loc 1 876 0
 390              		.cfi_startproc
 391              		@ args = 20, pretend = 0, frame = 40
 392              		@ frame_needed = 0, uses_anonymous_args = 0
 393              	.LVL56:
 394 0000 F0B5     		push	{r4, r5, r6, r7, lr}
 395              		.cfi_def_cfa_offset 20
 396              		.cfi_offset 4, -20
 397              		.cfi_offset 5, -16
 398              		.cfi_offset 6, -12
 399              		.cfi_offset 7, -8
 400              		.cfi_offset 14, -4
 401 0002 5F46     		mov	r7, fp
 402 0004 5646     		mov	r6, r10
 403 0006 4D46     		mov	r5, r9
 404 0008 4446     		mov	r4, r8
ARM GAS  C:\Users\haske\AppData\Local\Temp\ccydbpJh.s 			page 26


 405 000a F0B4     		push	{r4, r5, r6, r7}
 406              		.cfi_def_cfa_offset 36
 407              		.cfi_offset 8, -36
 408              		.cfi_offset 9, -32
 409              		.cfi_offset 10, -28
 410              		.cfi_offset 11, -24
 411 000c 8BB0     		sub	sp, sp, #44
 412              		.cfi_def_cfa_offset 80
 413 000e 0700     		movs	r7, r0
 414 0010 0792     		str	r2, [sp, #28]
 415 0012 9A46     		mov	r10, r3
 416 0014 14AB     		add	r3, sp, #80
 417              	.LVL57:
 418 0016 0022     		movs	r2, #0
 419 0018 9B5E     		ldrsh	r3, [r3, r2]
 420              	.LVL58:
 421 001a 0893     		str	r3, [sp, #32]
 422 001c 15AB     		add	r3, sp, #84
 423              	.LVL59:
 424 001e 1B78     		ldrb	r3, [r3]
 425              	.LVL60:
 426 0020 0393     		str	r3, [sp, #12]
 427 0022 169B     		ldr	r3, [sp, #88]
 428 0024 9946     		mov	r9, r3
 429 0026 17AB     		add	r3, sp, #92
 430              	.LVL61:
 431 0028 0022     		movs	r2, #0
 432 002a 9B5E     		ldrsh	r3, [r3, r2]
 433              	.LVL62:
 434 002c 0993     		str	r3, [sp, #36]
 435 002e 18AB     		add	r3, sp, #96
 436              	.LVL63:
 437 0030 1A78     		ldrb	r2, [r3]
 438              	.LVL64:
 439              	.LBB104:
 440              	.LBB105:
 125:c:\projects\paindrain\arduinolcd\test\pain drain\libraries\lvgl\src\misc\lv_area.h **** }
 441              		.loc 2 125 0
 442 0032 0420     		movs	r0, #4
 443 0034 0B5E     		ldrsh	r3, [r1, r0]
 444              	.LVL65:
 445 0036 0024     		movs	r4, #0
 446 0038 085F     		ldrsh	r0, [r1, r4]
 447 003a 1B1A     		subs	r3, r3, r0
 448 003c 0133     		adds	r3, r3, #1
 449              	.LVL66:
 450              	.LBE105:
 451              	.LBE104:
 877:..\..\..\arduinoLCD\test\Pain Drain\libraries\lvgl\src\draw\sw/lv_draw_sw_blend.c **** 
 878:..\..\..\arduinoLCD\test\Pain Drain\libraries\lvgl\src\draw\sw/lv_draw_sw_blend.c ****     int32_t w = lv_area_get_width(dest_area);
 452              		.loc 1 878 0
 453 003e 1BB2     		sxth	r3, r3
 454 0040 9846     		mov	r8, r3
 455              	.LVL67:
 456              	.LBB106:
 457              	.LBB107:
 458              		.loc 2 135 0
ARM GAS  C:\Users\haske\AppData\Local\Temp\ccydbpJh.s 			page 27


 459 0042 0620     		movs	r0, #6
 460 0044 0B5E     		ldrsh	r3, [r1, r0]
 461              	.LVL68:
 462 0046 0220     		movs	r0, #2
 463 0048 095E     		ldrsh	r1, [r1, r0]
 464              	.LVL69:
 465 004a 5B1A     		subs	r3, r3, r1
 466 004c 0133     		adds	r3, r3, #1
 467              	.LVL70:
 468              	.LBE107:
 469              	.LBE106:
 879:..\..\..\arduinoLCD\test\Pain Drain\libraries\lvgl\src\draw\sw/lv_draw_sw_blend.c ****     int32_t h = lv_area_get_height(dest_area);
 470              		.loc 1 879 0
 471 004e 1BB2     		sxth	r3, r3
 472 0050 0693     		str	r3, [sp, #24]
 473              	.LVL71:
 880:..\..\..\arduinoLCD\test\Pain Drain\libraries\lvgl\src\draw\sw/lv_draw_sw_blend.c **** 
 881:..\..\..\arduinoLCD\test\Pain Drain\libraries\lvgl\src\draw\sw/lv_draw_sw_blend.c ****     int32_t x;
 882:..\..\..\arduinoLCD\test\Pain Drain\libraries\lvgl\src\draw\sw/lv_draw_sw_blend.c ****     int32_t y;
 883:..\..\..\arduinoLCD\test\Pain Drain\libraries\lvgl\src\draw\sw/lv_draw_sw_blend.c **** 
 884:..\..\..\arduinoLCD\test\Pain Drain\libraries\lvgl\src\draw\sw/lv_draw_sw_blend.c ****     lv_color_t (*blend_fp)(lv_color_t, lv_color_t, lv_opa_t);
 885:..\..\..\arduinoLCD\test\Pain Drain\libraries\lvgl\src\draw\sw/lv_draw_sw_blend.c ****     switch(blend_mode) {
 474              		.loc 1 885 0
 475 0052 022A     		cmp	r2, #2
 476 0054 0AD0     		beq	.L47
 477 0056 032A     		cmp	r2, #3
 478 0058 05D0     		beq	.L29
 479 005a 012A     		cmp	r2, #1
 480 005c 00D0     		beq	.LCB550
 481 005e A2E0     		b	.L26	@long jump
 482              	.LCB550:
 886:..\..\..\arduinoLCD\test\Pain Drain\libraries\lvgl\src\draw\sw/lv_draw_sw_blend.c ****         case LV_BLEND_MODE_ADDITIVE:
 887:..\..\..\arduinoLCD\test\Pain Drain\libraries\lvgl\src\draw\sw/lv_draw_sw_blend.c ****             blend_fp = color_blend_true_color_additive;
 483              		.loc 1 887 0
 484 0060 544B     		ldr	r3, .L52
 485              	.LVL72:
 486 0062 9B46     		mov	fp, r3
 487 0064 04E0     		b	.L28
 488              	.LVL73:
 489              	.L29:
 888:..\..\..\arduinoLCD\test\Pain Drain\libraries\lvgl\src\draw\sw/lv_draw_sw_blend.c ****             break;
 889:..\..\..\arduinoLCD\test\Pain Drain\libraries\lvgl\src\draw\sw/lv_draw_sw_blend.c ****         case LV_BLEND_MODE_SUBTRACTIVE:
 890:..\..\..\arduinoLCD\test\Pain Drain\libraries\lvgl\src\draw\sw/lv_draw_sw_blend.c ****             blend_fp = color_blend_true_color_subtractive;
 891:..\..\..\arduinoLCD\test\Pain Drain\libraries\lvgl\src\draw\sw/lv_draw_sw_blend.c ****             break;
 892:..\..\..\arduinoLCD\test\Pain Drain\libraries\lvgl\src\draw\sw/lv_draw_sw_blend.c ****         case LV_BLEND_MODE_MULTIPLY:
 893:..\..\..\arduinoLCD\test\Pain Drain\libraries\lvgl\src\draw\sw/lv_draw_sw_blend.c ****             blend_fp = color_blend_true_color_multiply;
 490              		.loc 1 893 0
 491 0066 544B     		ldr	r3, .L52+4
 492              	.LVL74:
 493 0068 9B46     		mov	fp, r3
 894:..\..\..\arduinoLCD\test\Pain Drain\libraries\lvgl\src\draw\sw/lv_draw_sw_blend.c ****             break;
 494              		.loc 1 894 0
 495 006a 01E0     		b	.L28
 496              	.LVL75:
 497              	.L47:
 890:..\..\..\arduinoLCD\test\Pain Drain\libraries\lvgl\src\draw\sw/lv_draw_sw_blend.c ****             break;
 498              		.loc 1 890 0
ARM GAS  C:\Users\haske\AppData\Local\Temp\ccydbpJh.s 			page 28


 499 006c 534B     		ldr	r3, .L52+8
 500              	.LVL76:
 501 006e 9B46     		mov	fp, r3
 502              	.L28:
 503              	.LVL77:
 895:..\..\..\arduinoLCD\test\Pain Drain\libraries\lvgl\src\draw\sw/lv_draw_sw_blend.c ****         default:
 896:..\..\..\arduinoLCD\test\Pain Drain\libraries\lvgl\src\draw\sw/lv_draw_sw_blend.c ****             LV_LOG_WARN("fill_blended: unsupported blend mode");
 897:..\..\..\arduinoLCD\test\Pain Drain\libraries\lvgl\src\draw\sw/lv_draw_sw_blend.c ****             return;
 898:..\..\..\arduinoLCD\test\Pain Drain\libraries\lvgl\src\draw\sw/lv_draw_sw_blend.c ****     }
 899:..\..\..\arduinoLCD\test\Pain Drain\libraries\lvgl\src\draw\sw/lv_draw_sw_blend.c **** 
 900:..\..\..\arduinoLCD\test\Pain Drain\libraries\lvgl\src\draw\sw/lv_draw_sw_blend.c ****     lv_color_t last_dest_color;
 901:..\..\..\arduinoLCD\test\Pain Drain\libraries\lvgl\src\draw\sw/lv_draw_sw_blend.c ****     lv_color_t last_src_color;
 902:..\..\..\arduinoLCD\test\Pain Drain\libraries\lvgl\src\draw\sw/lv_draw_sw_blend.c ****     /*Simple fill (maybe with opacity), no masking*/
 903:..\..\..\arduinoLCD\test\Pain Drain\libraries\lvgl\src\draw\sw/lv_draw_sw_blend.c ****     if(mask == NULL) {
 504              		.loc 1 903 0
 505 0070 4B46     		mov	r3, r9
 506 0072 002B     		cmp	r3, #0
 507 0074 39D1     		bne	.L31
 508              	.LBB108:
 904:..\..\..\arduinoLCD\test\Pain Drain\libraries\lvgl\src\draw\sw/lv_draw_sw_blend.c ****         last_dest_color = dest_buf[0];
 509              		.loc 1 904 0
 510 0076 3988     		ldrh	r1, [r7]
 511 0078 6B46     		mov	r3, sp
 512 007a 5981     		strh	r1, [r3, #10]
 905:..\..\..\arduinoLCD\test\Pain Drain\libraries\lvgl\src\draw\sw/lv_draw_sw_blend.c ****         last_src_color = src_buf[0];
 513              		.loc 1 905 0
 514 007c 5346     		mov	r3, r10
 515 007e 1888     		ldrh	r0, [r3]
 516 0080 6B46     		mov	r3, sp
 517 0082 1881     		strh	r0, [r3, #8]
 906:..\..\..\arduinoLCD\test\Pain Drain\libraries\lvgl\src\draw\sw/lv_draw_sw_blend.c ****         lv_color_t last_res_color = blend_fp(last_src_color, last_dest_color, opa);
 518              		.loc 1 906 0
 519 0084 039A     		ldr	r2, [sp, #12]
 520 0086 D847     		blx	fp
 521              	.LVL78:
 907:..\..\..\arduinoLCD\test\Pain Drain\libraries\lvgl\src\draw\sw/lv_draw_sw_blend.c ****         for(y = 0; y < h; y++) {
 522              		.loc 1 907 0
 523 0088 0026     		movs	r6, #0
 524 008a B146     		mov	r9, r6
 525 008c 5E46     		mov	r6, fp
 526 008e 28E0     		b	.L32
 527              	.LVL79:
 528              	.L35:
 908:..\..\..\arduinoLCD\test\Pain Drain\libraries\lvgl\src\draw\sw/lv_draw_sw_blend.c ****             for(x = 0; x < w; x++) {
 909:..\..\..\arduinoLCD\test\Pain Drain\libraries\lvgl\src\draw\sw/lv_draw_sw_blend.c ****                 if(last_src_color.full != src_buf[x].full || last_dest_color.full != dest_buf[x].fu
 529              		.loc 1 909 0
 530 0090 6B46     		mov	r3, sp
 531 0092 1B89     		ldrh	r3, [r3, #8]
 532 0094 6C00     		lsls	r4, r5, #1
 533 0096 5246     		mov	r2, r10
 534 0098 1219     		adds	r2, r2, r4
 535 009a 1188     		ldrh	r1, [r2]
 536 009c 8B42     		cmp	r3, r1
 537 009e 04D1     		bne	.L33
 538              		.loc 1 909 0 is_stmt 0 discriminator 1
 539 00a0 6B46     		mov	r3, sp
 540 00a2 5B89     		ldrh	r3, [r3, #10]
ARM GAS  C:\Users\haske\AppData\Local\Temp\ccydbpJh.s 			page 29


 541 00a4 395B     		ldrh	r1, [r7, r4]
 542 00a6 8B42     		cmp	r3, r1
 543 00a8 06D0     		beq	.L34
 544              	.L33:
 910:..\..\..\arduinoLCD\test\Pain Drain\libraries\lvgl\src\draw\sw/lv_draw_sw_blend.c ****                     last_dest_color = dest_buf[x];
 545              		.loc 1 910 0 is_stmt 1
 546 00aa 395B     		ldrh	r1, [r7, r4]
 547 00ac 6B46     		mov	r3, sp
 548 00ae 5981     		strh	r1, [r3, #10]
 911:..\..\..\arduinoLCD\test\Pain Drain\libraries\lvgl\src\draw\sw/lv_draw_sw_blend.c ****                     last_src_color = src_buf[x];
 549              		.loc 1 911 0
 550 00b0 1088     		ldrh	r0, [r2]
 551              	.LVL80:
 552 00b2 1881     		strh	r0, [r3, #8]
 912:..\..\..\arduinoLCD\test\Pain Drain\libraries\lvgl\src\draw\sw/lv_draw_sw_blend.c ****                     last_res_color = blend_fp(last_src_color, last_dest_color, opa);
 553              		.loc 1 912 0
 554 00b4 039A     		ldr	r2, [sp, #12]
 555 00b6 C047     		blx	r8
 556              	.LVL81:
 557              	.L34:
 913:..\..\..\arduinoLCD\test\Pain Drain\libraries\lvgl\src\draw\sw/lv_draw_sw_blend.c ****                 }
 914:..\..\..\arduinoLCD\test\Pain Drain\libraries\lvgl\src\draw\sw/lv_draw_sw_blend.c ****                 dest_buf[x] = last_res_color;
 558              		.loc 1 914 0 discriminator 2
 559 00b8 3853     		strh	r0, [r7, r4]
 908:..\..\..\arduinoLCD\test\Pain Drain\libraries\lvgl\src\draw\sw/lv_draw_sw_blend.c ****                 if(last_src_color.full != src_buf[x].full || last_dest_color.full != dest_buf[x].fu
 560              		.loc 1 908 0 discriminator 2
 561 00ba 0135     		adds	r5, r5, #1
 562              	.LVL82:
 563 00bc 03E0     		b	.L36
 564              	.LVL83:
 565              	.L48:
 566 00be 0025     		movs	r5, #0
 567 00c0 4346     		mov	r3, r8
 568 00c2 B046     		mov	r8, r6
 569              	.LVL84:
 570 00c4 1E00     		movs	r6, r3
 571              	.LVL85:
 572              	.L36:
 908:..\..\..\arduinoLCD\test\Pain Drain\libraries\lvgl\src\draw\sw/lv_draw_sw_blend.c ****                 if(last_src_color.full != src_buf[x].full || last_dest_color.full != dest_buf[x].fu
 573              		.loc 1 908 0 is_stmt 0 discriminator 1
 574 00c6 B542     		cmp	r5, r6
 575 00c8 E2DB     		blt	.L35
 576 00ca 3300     		movs	r3, r6
 577 00cc 4646     		mov	r6, r8
 578              	.LVL86:
 579 00ce 9846     		mov	r8, r3
 580              	.LVL87:
 915:..\..\..\arduinoLCD\test\Pain Drain\libraries\lvgl\src\draw\sw/lv_draw_sw_blend.c ****             }
 916:..\..\..\arduinoLCD\test\Pain Drain\libraries\lvgl\src\draw\sw/lv_draw_sw_blend.c ****             dest_buf += dest_stride;
 581              		.loc 1 916 0 is_stmt 1 discriminator 2
 582 00d0 079B     		ldr	r3, [sp, #28]
 583              	.LVL88:
 584 00d2 5B00     		lsls	r3, r3, #1
 585 00d4 FF18     		adds	r7, r7, r3
 586              	.LVL89:
 917:..\..\..\arduinoLCD\test\Pain Drain\libraries\lvgl\src\draw\sw/lv_draw_sw_blend.c ****             src_buf += src_stride;
 587              		.loc 1 917 0 discriminator 2
ARM GAS  C:\Users\haske\AppData\Local\Temp\ccydbpJh.s 			page 30


 588 00d6 089B     		ldr	r3, [sp, #32]
 589 00d8 5B00     		lsls	r3, r3, #1
 590 00da 9A44     		add	r10, r10, r3
 591              	.LVL90:
 907:..\..\..\arduinoLCD\test\Pain Drain\libraries\lvgl\src\draw\sw/lv_draw_sw_blend.c ****             for(x = 0; x < w; x++) {
 592              		.loc 1 907 0 discriminator 2
 593 00dc 0123     		movs	r3, #1
 594 00de 9C46     		mov	ip, r3
 595 00e0 E144     		add	r9, r9, ip
 596              	.LVL91:
 597              	.L32:
 907:..\..\..\arduinoLCD\test\Pain Drain\libraries\lvgl\src\draw\sw/lv_draw_sw_blend.c ****             for(x = 0; x < w; x++) {
 598              		.loc 1 907 0 is_stmt 0 discriminator 1
 599 00e2 069B     		ldr	r3, [sp, #24]
 600 00e4 9945     		cmp	r9, r3
 601 00e6 EADB     		blt	.L48
 602 00e8 5DE0     		b	.L26
 603              	.LVL92:
 604              	.L31:
 605              	.LBE108:
 606              	.LBB109:
 918:..\..\..\arduinoLCD\test\Pain Drain\libraries\lvgl\src\draw\sw/lv_draw_sw_blend.c ****         }
 919:..\..\..\arduinoLCD\test\Pain Drain\libraries\lvgl\src\draw\sw/lv_draw_sw_blend.c ****     }
 920:..\..\..\arduinoLCD\test\Pain Drain\libraries\lvgl\src\draw\sw/lv_draw_sw_blend.c ****     /*Masked*/
 921:..\..\..\arduinoLCD\test\Pain Drain\libraries\lvgl\src\draw\sw/lv_draw_sw_blend.c ****     else {
 922:..\..\..\arduinoLCD\test\Pain Drain\libraries\lvgl\src\draw\sw/lv_draw_sw_blend.c ****         last_dest_color = dest_buf[0];
 607              		.loc 1 922 0 is_stmt 1
 608 00ea 3988     		ldrh	r1, [r7]
 609 00ec 6B46     		mov	r3, sp
 610 00ee 5981     		strh	r1, [r3, #10]
 923:..\..\..\arduinoLCD\test\Pain Drain\libraries\lvgl\src\draw\sw/lv_draw_sw_blend.c ****         last_src_color = src_buf[0];
 611              		.loc 1 923 0
 612 00f0 5346     		mov	r3, r10
 613 00f2 1888     		ldrh	r0, [r3]
 614 00f4 6B46     		mov	r3, sp
 615 00f6 1881     		strh	r0, [r3, #8]
 924:..\..\..\arduinoLCD\test\Pain Drain\libraries\lvgl\src\draw\sw/lv_draw_sw_blend.c ****         lv_opa_t last_opa = mask[0] >= LV_OPA_MAX ? opa : ((opa * mask[0]) >> 8);
 616              		.loc 1 924 0
 617 00f8 4B46     		mov	r3, r9
 618 00fa 1B78     		ldrb	r3, [r3]
 619 00fc FC2B     		cmp	r3, #252
 620 00fe 05D8     		bhi	.L49
 621              		.loc 1 924 0 is_stmt 0 discriminator 1
 622 0100 039A     		ldr	r2, [sp, #12]
 623 0102 5343     		muls	r3, r2
 624 0104 1B12     		asrs	r3, r3, #8
 625 0106 DBB2     		uxtb	r3, r3
 626 0108 0493     		str	r3, [sp, #16]
 627 010a 01E0     		b	.L38
 628              	.L49:
 629              		.loc 1 924 0
 630 010c 039B     		ldr	r3, [sp, #12]
 631 010e 0493     		str	r3, [sp, #16]
 632              	.L38:
 633              	.LVL93:
 925:..\..\..\arduinoLCD\test\Pain Drain\libraries\lvgl\src\draw\sw/lv_draw_sw_blend.c ****         lv_color_t last_res_color = blend_fp(last_src_color, last_dest_color, last_opa);
 634              		.loc 1 925 0 is_stmt 1 discriminator 4
ARM GAS  C:\Users\haske\AppData\Local\Temp\ccydbpJh.s 			page 31


 635 0110 049A     		ldr	r2, [sp, #16]
 636 0112 D847     		blx	fp
 637              	.LVL94:
 926:..\..\..\arduinoLCD\test\Pain Drain\libraries\lvgl\src\draw\sw/lv_draw_sw_blend.c ****         for(y = 0; y < h; y++) {
 638              		.loc 1 926 0 discriminator 4
 639 0114 0023     		movs	r3, #0
 640 0116 0593     		str	r3, [sp, #20]
 641 0118 41E0     		b	.L39
 642              	.LVL95:
 643              	.L44:
 644              	.LBB110:
 927:..\..\..\arduinoLCD\test\Pain Drain\libraries\lvgl\src\draw\sw/lv_draw_sw_blend.c ****             for(x = 0; x < w; x++) {
 928:..\..\..\arduinoLCD\test\Pain Drain\libraries\lvgl\src\draw\sw/lv_draw_sw_blend.c ****                 if(mask[x] == 0) continue;
 645              		.loc 1 928 0
 646 011a 2A00     		movs	r2, r5
 647 011c 635D     		ldrb	r3, [r4, r5]
 648 011e 002B     		cmp	r3, #0
 649 0120 28D0     		beq	.L40
 650              	.LVL96:
 929:..\..\..\arduinoLCD\test\Pain Drain\libraries\lvgl\src\draw\sw/lv_draw_sw_blend.c ****                 lv_opa_t opa_tmp = mask[x] >= LV_OPA_MAX ? opa : ((opa * mask[x]) >> 8);
 651              		.loc 1 929 0
 652 0122 FC2B     		cmp	r3, #252
 653 0124 05D8     		bhi	.L50
 654              		.loc 1 929 0 is_stmt 0 discriminator 1
 655 0126 0399     		ldr	r1, [sp, #12]
 656 0128 4B43     		muls	r3, r1
 657 012a 1B12     		asrs	r3, r3, #8
 658 012c DBB2     		uxtb	r3, r3
 659 012e 0193     		str	r3, [sp, #4]
 660 0130 01E0     		b	.L41
 661              	.L50:
 662              		.loc 1 929 0
 663 0132 039B     		ldr	r3, [sp, #12]
 664 0134 0193     		str	r3, [sp, #4]
 665              	.L41:
 666              	.LVL97:
 930:..\..\..\arduinoLCD\test\Pain Drain\libraries\lvgl\src\draw\sw/lv_draw_sw_blend.c ****                 if(last_src_color.full != src_buf[x].full || last_dest_color.full != dest_buf[x].fu
 667              		.loc 1 930 0 is_stmt 1 discriminator 4
 668 0136 6B46     		mov	r3, sp
 669 0138 1B89     		ldrh	r3, [r3, #8]
 670 013a 5200     		lsls	r2, r2, #1
 671              	.LVL98:
 672 013c 9046     		mov	r8, r2
 673 013e 5246     		mov	r2, r10
 674 0140 4244     		add	r2, r2, r8
 675 0142 1188     		ldrh	r1, [r2]
 676 0144 8B42     		cmp	r3, r1
 677 0146 09D1     		bne	.L42
 678              		.loc 1 930 0 is_stmt 0 discriminator 1
 679 0148 6B46     		mov	r3, sp
 680 014a 5B89     		ldrh	r3, [r3, #10]
 681 014c 4146     		mov	r1, r8
 682 014e 795A     		ldrh	r1, [r7, r1]
 683 0150 8B42     		cmp	r3, r1
 684 0152 03D1     		bne	.L42
 685              		.loc 1 930 0 discriminator 2
 686 0154 049B     		ldr	r3, [sp, #16]
ARM GAS  C:\Users\haske\AppData\Local\Temp\ccydbpJh.s 			page 32


 687 0156 0199     		ldr	r1, [sp, #4]
 688 0158 8B42     		cmp	r3, r1
 689 015a 09D0     		beq	.L43
 690              	.L42:
 931:..\..\..\arduinoLCD\test\Pain Drain\libraries\lvgl\src\draw\sw/lv_draw_sw_blend.c ****                     last_dest_color = dest_buf[x];
 691              		.loc 1 931 0 is_stmt 1
 692 015c 4346     		mov	r3, r8
 693 015e F95A     		ldrh	r1, [r7, r3]
 694 0160 6B46     		mov	r3, sp
 695 0162 5981     		strh	r1, [r3, #10]
 932:..\..\..\arduinoLCD\test\Pain Drain\libraries\lvgl\src\draw\sw/lv_draw_sw_blend.c ****                     last_src_color = src_buf[x];
 696              		.loc 1 932 0
 697 0164 1088     		ldrh	r0, [r2]
 698              	.LVL99:
 699 0166 1881     		strh	r0, [r3, #8]
 700              	.LVL100:
 933:..\..\..\arduinoLCD\test\Pain Drain\libraries\lvgl\src\draw\sw/lv_draw_sw_blend.c ****                     last_opa = opa_tmp;
 934:..\..\..\arduinoLCD\test\Pain Drain\libraries\lvgl\src\draw\sw/lv_draw_sw_blend.c ****                     last_res_color = blend_fp(last_src_color, last_dest_color, last_opa);
 701              		.loc 1 934 0
 702 0168 019A     		ldr	r2, [sp, #4]
 703 016a D847     		blx	fp
 704              	.LVL101:
 933:..\..\..\arduinoLCD\test\Pain Drain\libraries\lvgl\src\draw\sw/lv_draw_sw_blend.c ****                     last_opa = opa_tmp;
 705              		.loc 1 933 0
 706 016c 019B     		ldr	r3, [sp, #4]
 707 016e 0493     		str	r3, [sp, #16]
 708              	.LVL102:
 709              	.L43:
 935:..\..\..\arduinoLCD\test\Pain Drain\libraries\lvgl\src\draw\sw/lv_draw_sw_blend.c ****                 }
 936:..\..\..\arduinoLCD\test\Pain Drain\libraries\lvgl\src\draw\sw/lv_draw_sw_blend.c ****                 dest_buf[x] = last_res_color;
 710              		.loc 1 936 0
 711 0170 4346     		mov	r3, r8
 712 0172 F852     		strh	r0, [r7, r3]
 713              	.LVL103:
 714              	.L40:
 715              	.LBE110:
 927:..\..\..\arduinoLCD\test\Pain Drain\libraries\lvgl\src\draw\sw/lv_draw_sw_blend.c ****                 if(mask[x] == 0) continue;
 716              		.loc 1 927 0 discriminator 2
 717 0174 0135     		adds	r5, r5, #1
 718              	.LVL104:
 719 0176 02E0     		b	.L45
 720              	.LVL105:
 721              	.L51:
 722 0178 0025     		movs	r5, #0
 723 017a 4646     		mov	r6, r8
 724 017c 4C46     		mov	r4, r9
 725              	.LVL106:
 726              	.L45:
 927:..\..\..\arduinoLCD\test\Pain Drain\libraries\lvgl\src\draw\sw/lv_draw_sw_blend.c ****                 if(mask[x] == 0) continue;
 727              		.loc 1 927 0 is_stmt 0 discriminator 1
 728 017e B542     		cmp	r5, r6
 729 0180 CBDB     		blt	.L44
 730 0182 B046     		mov	r8, r6
 731 0184 A146     		mov	r9, r4
 937:..\..\..\arduinoLCD\test\Pain Drain\libraries\lvgl\src\draw\sw/lv_draw_sw_blend.c ****             }
 938:..\..\..\arduinoLCD\test\Pain Drain\libraries\lvgl\src\draw\sw/lv_draw_sw_blend.c ****             dest_buf += dest_stride;
 732              		.loc 1 938 0 is_stmt 1 discriminator 2
ARM GAS  C:\Users\haske\AppData\Local\Temp\ccydbpJh.s 			page 33


 733 0186 079B     		ldr	r3, [sp, #28]
 734 0188 5A00     		lsls	r2, r3, #1
 735 018a BF18     		adds	r7, r7, r2
 736              	.LVL107:
 939:..\..\..\arduinoLCD\test\Pain Drain\libraries\lvgl\src\draw\sw/lv_draw_sw_blend.c ****             src_buf += src_stride;
 737              		.loc 1 939 0 discriminator 2
 738 018c 089B     		ldr	r3, [sp, #32]
 739 018e 5A00     		lsls	r2, r3, #1
 740 0190 9244     		add	r10, r10, r2
 741              	.LVL108:
 940:..\..\..\arduinoLCD\test\Pain Drain\libraries\lvgl\src\draw\sw/lv_draw_sw_blend.c ****             mask += mask_stride;
 742              		.loc 1 940 0 discriminator 2
 743 0192 099B     		ldr	r3, [sp, #36]
 744 0194 9C46     		mov	ip, r3
 745 0196 E144     		add	r9, r9, ip
 746              	.LVL109:
 926:..\..\..\arduinoLCD\test\Pain Drain\libraries\lvgl\src\draw\sw/lv_draw_sw_blend.c ****             for(x = 0; x < w; x++) {
 747              		.loc 1 926 0 discriminator 2
 748 0198 059B     		ldr	r3, [sp, #20]
 749 019a 0133     		adds	r3, r3, #1
 750 019c 0593     		str	r3, [sp, #20]
 751              	.LVL110:
 752              	.L39:
 926:..\..\..\arduinoLCD\test\Pain Drain\libraries\lvgl\src\draw\sw/lv_draw_sw_blend.c ****             for(x = 0; x < w; x++) {
 753              		.loc 1 926 0 is_stmt 0 discriminator 1
 754 019e 059B     		ldr	r3, [sp, #20]
 755 01a0 069A     		ldr	r2, [sp, #24]
 756 01a2 9342     		cmp	r3, r2
 757 01a4 E8DB     		blt	.L51
 758              	.LVL111:
 759              	.L26:
 760              	.LBE109:
 941:..\..\..\arduinoLCD\test\Pain Drain\libraries\lvgl\src\draw\sw/lv_draw_sw_blend.c ****         }
 942:..\..\..\arduinoLCD\test\Pain Drain\libraries\lvgl\src\draw\sw/lv_draw_sw_blend.c ****     }
 943:..\..\..\arduinoLCD\test\Pain Drain\libraries\lvgl\src\draw\sw/lv_draw_sw_blend.c **** }
 761              		.loc 1 943 0 is_stmt 1
 762 01a6 0BB0     		add	sp, sp, #44
 763              		@ sp needed
 764              	.LVL112:
 765              	.LVL113:
 766              	.LVL114:
 767 01a8 3CBC     		pop	{r2, r3, r4, r5}
 768 01aa 9046     		mov	r8, r2
 769 01ac 9946     		mov	r9, r3
 770 01ae A246     		mov	r10, r4
 771 01b0 AB46     		mov	fp, r5
 772 01b2 F0BD     		pop	{r4, r5, r6, r7, pc}
 773              	.L53:
 774              		.align	2
 775              	.L52:
 776 01b4 00000000 		.word	color_blend_true_color_additive
 777 01b8 00000000 		.word	color_blend_true_color_multiply
 778 01bc 00000000 		.word	color_blend_true_color_subtractive
 779              		.cfi_endproc
 780              	.LFE166:
 781              		.size	map_blended, .-map_blended
 782              		.section	.text.color_blend_true_color_additive,"ax",%progbits
ARM GAS  C:\Users\haske\AppData\Local\Temp\ccydbpJh.s 			page 34


 783              		.align	2
 784              		.code	16
 785              		.thumb_func
 786              		.type	color_blend_true_color_additive, %function
 787              	color_blend_true_color_additive:
 788              	.LFB167:
 944:..\..\..\arduinoLCD\test\Pain Drain\libraries\lvgl\src\draw\sw/lv_draw_sw_blend.c **** 
 945:..\..\..\arduinoLCD\test\Pain Drain\libraries\lvgl\src\draw\sw/lv_draw_sw_blend.c **** static inline lv_color_t color_blend_true_color_additive(lv_color_t fg, lv_color_t bg, lv_opa_t opa
 946:..\..\..\arduinoLCD\test\Pain Drain\libraries\lvgl\src\draw\sw/lv_draw_sw_blend.c **** {
 789              		.loc 1 946 0
 790              		.cfi_startproc
 791              		@ args = 0, pretend = 0, frame = 0
 792              		@ frame_needed = 0, uses_anonymous_args = 0
 793              	.LVL115:
 794 0000 70B5     		push	{r4, r5, r6, lr}
 795              		.cfi_def_cfa_offset 16
 796              		.cfi_offset 4, -16
 797              		.cfi_offset 5, -12
 798              		.cfi_offset 6, -8
 799              		.cfi_offset 14, -4
 947:..\..\..\arduinoLCD\test\Pain Drain\libraries\lvgl\src\draw\sw/lv_draw_sw_blend.c **** 
 948:..\..\..\arduinoLCD\test\Pain Drain\libraries\lvgl\src\draw\sw/lv_draw_sw_blend.c ****     if(opa <= LV_OPA_MIN) return bg;
 800              		.loc 1 948 0
 801 0002 022A     		cmp	r2, #2
 802 0004 01D8     		bhi	.L55
 803              		.loc 1 948 0 is_stmt 0 discriminator 1
 804 0006 081C     		adds	r0, r1, #0
 805              	.LVL116:
 806 0008 40E0     		b	.L56
 807              	.LVL117:
 808              	.L55:
 949:..\..\..\arduinoLCD\test\Pain Drain\libraries\lvgl\src\draw\sw/lv_draw_sw_blend.c **** 
 950:..\..\..\arduinoLCD\test\Pain Drain\libraries\lvgl\src\draw\sw/lv_draw_sw_blend.c ****     uint32_t tmp;
 951:..\..\..\arduinoLCD\test\Pain Drain\libraries\lvgl\src\draw\sw/lv_draw_sw_blend.c **** #if LV_COLOR_DEPTH == 1
 952:..\..\..\arduinoLCD\test\Pain Drain\libraries\lvgl\src\draw\sw/lv_draw_sw_blend.c ****     tmp = bg.full + fg.full;
 953:..\..\..\arduinoLCD\test\Pain Drain\libraries\lvgl\src\draw\sw/lv_draw_sw_blend.c ****     fg.full = LV_MIN(tmp, 1);
 954:..\..\..\arduinoLCD\test\Pain Drain\libraries\lvgl\src\draw\sw/lv_draw_sw_blend.c **** #else
 955:..\..\..\arduinoLCD\test\Pain Drain\libraries\lvgl\src\draw\sw/lv_draw_sw_blend.c ****     tmp = bg.ch.red + fg.ch.red;
 809              		.loc 1 955 0 is_stmt 1
 810 000a 0C04     		lsls	r4, r1, #16
 811 000c E40E     		lsrs	r4, r4, #27
 812 000e 0304     		lsls	r3, r0, #16
 813 0010 DB0E     		lsrs	r3, r3, #27
 814              	.LVL118:
 956:..\..\..\arduinoLCD\test\Pain Drain\libraries\lvgl\src\draw\sw/lv_draw_sw_blend.c **** #if LV_COLOR_DEPTH == 8
 957:..\..\..\arduinoLCD\test\Pain Drain\libraries\lvgl\src\draw\sw/lv_draw_sw_blend.c ****     fg.ch.red = LV_MIN(tmp, 7);
 958:..\..\..\arduinoLCD\test\Pain Drain\libraries\lvgl\src\draw\sw/lv_draw_sw_blend.c **** #elif LV_COLOR_DEPTH == 16
 959:..\..\..\arduinoLCD\test\Pain Drain\libraries\lvgl\src\draw\sw/lv_draw_sw_blend.c ****     fg.ch.red = LV_MIN(tmp, 31);
 815              		.loc 1 959 0
 816 0012 E418     		adds	r4, r4, r3
 817              	.LVL119:
 818 0014 1F2C     		cmp	r4, #31
 819 0016 00D9     		bls	.L57
 820 0018 1F24     		movs	r4, #31
 821              	.LVL120:
 822              	.L57:
 823 001a E4B2     		uxtb	r4, r4
ARM GAS  C:\Users\haske\AppData\Local\Temp\ccydbpJh.s 			page 35


 824 001c E402     		lsls	r4, r4, #11
 825 001e 4305     		lsls	r3, r0, #21
 826              	.LVL121:
 827 0020 5B0D     		lsrs	r3, r3, #21
 828 0022 2343     		orrs	r3, r4
 960:..\..\..\arduinoLCD\test\Pain Drain\libraries\lvgl\src\draw\sw/lv_draw_sw_blend.c **** #elif LV_COLOR_DEPTH == 32
 961:..\..\..\arduinoLCD\test\Pain Drain\libraries\lvgl\src\draw\sw/lv_draw_sw_blend.c ****     fg.ch.red = LV_MIN(tmp, 255);
 962:..\..\..\arduinoLCD\test\Pain Drain\libraries\lvgl\src\draw\sw/lv_draw_sw_blend.c **** #endif
 963:..\..\..\arduinoLCD\test\Pain Drain\libraries\lvgl\src\draw\sw/lv_draw_sw_blend.c **** 
 964:..\..\..\arduinoLCD\test\Pain Drain\libraries\lvgl\src\draw\sw/lv_draw_sw_blend.c **** #if LV_COLOR_DEPTH == 8
 965:..\..\..\arduinoLCD\test\Pain Drain\libraries\lvgl\src\draw\sw/lv_draw_sw_blend.c ****     tmp = bg.ch.green + fg.ch.green;
 966:..\..\..\arduinoLCD\test\Pain Drain\libraries\lvgl\src\draw\sw/lv_draw_sw_blend.c ****     fg.ch.green = LV_MIN(tmp, 7);
 967:..\..\..\arduinoLCD\test\Pain Drain\libraries\lvgl\src\draw\sw/lv_draw_sw_blend.c **** #elif LV_COLOR_DEPTH == 16
 968:..\..\..\arduinoLCD\test\Pain Drain\libraries\lvgl\src\draw\sw/lv_draw_sw_blend.c **** #if LV_COLOR_16_SWAP == 0
 969:..\..\..\arduinoLCD\test\Pain Drain\libraries\lvgl\src\draw\sw/lv_draw_sw_blend.c ****     tmp = bg.ch.green + fg.ch.green;
 829              		.loc 1 969 0
 830 0024 4C05     		lsls	r4, r1, #21
 831 0026 A40E     		lsrs	r4, r4, #26
 832 0028 5805     		lsls	r0, r3, #21
 833              	.LVL122:
 834 002a 800E     		lsrs	r0, r0, #26
 835              	.LVL123:
 970:..\..\..\arduinoLCD\test\Pain Drain\libraries\lvgl\src\draw\sw/lv_draw_sw_blend.c ****     fg.ch.green = LV_MIN(tmp, 63);
 836              		.loc 1 970 0
 837 002c 2418     		adds	r4, r4, r0
 838              	.LVL124:
 839 002e 3F2C     		cmp	r4, #63
 840 0030 00D9     		bls	.L58
 841 0032 3F24     		movs	r4, #63
 842              	.LVL125:
 843              	.L58:
 844 0034 3F20     		movs	r0, #63
 845              	.LVL126:
 846 0036 0440     		ands	r4, r0
 847 0038 6401     		lsls	r4, r4, #5
 848 003a 1548     		ldr	r0, .L61
 849 003c 0340     		ands	r3, r0
 850              	.LVL127:
 851 003e 2343     		orrs	r3, r4
 971:..\..\..\arduinoLCD\test\Pain Drain\libraries\lvgl\src\draw\sw/lv_draw_sw_blend.c **** #else
 972:..\..\..\arduinoLCD\test\Pain Drain\libraries\lvgl\src\draw\sw/lv_draw_sw_blend.c ****     tmp = (bg.ch.green_h << 3) + bg.ch.green_l + (fg.ch.green_h << 3) + fg.ch.green_l;
 973:..\..\..\arduinoLCD\test\Pain Drain\libraries\lvgl\src\draw\sw/lv_draw_sw_blend.c ****     tmp = LV_MIN(tmp, 63);
 974:..\..\..\arduinoLCD\test\Pain Drain\libraries\lvgl\src\draw\sw/lv_draw_sw_blend.c ****     fg.ch.green_h = tmp >> 3;
 975:..\..\..\arduinoLCD\test\Pain Drain\libraries\lvgl\src\draw\sw/lv_draw_sw_blend.c ****     fg.ch.green_l = tmp & 0x7;
 976:..\..\..\arduinoLCD\test\Pain Drain\libraries\lvgl\src\draw\sw/lv_draw_sw_blend.c **** #endif
 977:..\..\..\arduinoLCD\test\Pain Drain\libraries\lvgl\src\draw\sw/lv_draw_sw_blend.c **** 
 978:..\..\..\arduinoLCD\test\Pain Drain\libraries\lvgl\src\draw\sw/lv_draw_sw_blend.c **** #elif LV_COLOR_DEPTH == 32
 979:..\..\..\arduinoLCD\test\Pain Drain\libraries\lvgl\src\draw\sw/lv_draw_sw_blend.c ****     tmp = bg.ch.green + fg.ch.green;
 980:..\..\..\arduinoLCD\test\Pain Drain\libraries\lvgl\src\draw\sw/lv_draw_sw_blend.c ****     fg.ch.green = LV_MIN(tmp, 255);
 981:..\..\..\arduinoLCD\test\Pain Drain\libraries\lvgl\src\draw\sw/lv_draw_sw_blend.c **** #endif
 982:..\..\..\arduinoLCD\test\Pain Drain\libraries\lvgl\src\draw\sw/lv_draw_sw_blend.c **** 
 983:..\..\..\arduinoLCD\test\Pain Drain\libraries\lvgl\src\draw\sw/lv_draw_sw_blend.c ****     tmp = bg.ch.blue + fg.ch.blue;
 852              		.loc 1 983 0
 853 0040 C806     		lsls	r0, r1, #27
 854 0042 C50E     		lsrs	r5, r0, #27
 855 0044 D806     		lsls	r0, r3, #27
 856 0046 C00E     		lsrs	r0, r0, #27
ARM GAS  C:\Users\haske\AppData\Local\Temp\ccydbpJh.s 			page 36


 857              	.LVL128:
 984:..\..\..\arduinoLCD\test\Pain Drain\libraries\lvgl\src\draw\sw/lv_draw_sw_blend.c **** #if LV_COLOR_DEPTH == 8
 985:..\..\..\arduinoLCD\test\Pain Drain\libraries\lvgl\src\draw\sw/lv_draw_sw_blend.c ****     fg.ch.blue = LV_MIN(tmp, 4);
 986:..\..\..\arduinoLCD\test\Pain Drain\libraries\lvgl\src\draw\sw/lv_draw_sw_blend.c **** #elif LV_COLOR_DEPTH == 16
 987:..\..\..\arduinoLCD\test\Pain Drain\libraries\lvgl\src\draw\sw/lv_draw_sw_blend.c ****     fg.ch.blue = LV_MIN(tmp, 31);
 858              		.loc 1 987 0
 859 0048 2818     		adds	r0, r5, r0
 860              	.LVL129:
 861 004a 1F28     		cmp	r0, #31
 862 004c 00D9     		bls	.L59
 863 004e 1F20     		movs	r0, #31
 864              	.LVL130:
 865              	.L59:
 866 0050 1F25     		movs	r5, #31
 867              	.LVL131:
 868 0052 2840     		ands	r0, r5
 869 0054 1F24     		movs	r4, #31
 870 0056 A343     		bics	r3, r4
 871              	.LVL132:
 872 0058 0343     		orrs	r3, r0
 873 005a 1D00     		movs	r5, r3
 874 005c 181C     		adds	r0, r3, #0
 988:..\..\..\arduinoLCD\test\Pain Drain\libraries\lvgl\src\draw\sw/lv_draw_sw_blend.c **** #elif LV_COLOR_DEPTH == 32
 989:..\..\..\arduinoLCD\test\Pain Drain\libraries\lvgl\src\draw\sw/lv_draw_sw_blend.c ****     fg.ch.blue = LV_MIN(tmp, 255);
 990:..\..\..\arduinoLCD\test\Pain Drain\libraries\lvgl\src\draw\sw/lv_draw_sw_blend.c **** #endif
 991:..\..\..\arduinoLCD\test\Pain Drain\libraries\lvgl\src\draw\sw/lv_draw_sw_blend.c **** #endif
 992:..\..\..\arduinoLCD\test\Pain Drain\libraries\lvgl\src\draw\sw/lv_draw_sw_blend.c **** 
 993:..\..\..\arduinoLCD\test\Pain Drain\libraries\lvgl\src\draw\sw/lv_draw_sw_blend.c ****     if(opa == LV_OPA_COVER) return fg;
 875              		.loc 1 993 0
 876 005e FF2A     		cmp	r2, #255
 877 0060 14D0     		beq	.L56
 878              	.LVL133:
 879              	.LBB111:
 880              	.LBB112:
 881              		.file 3 "c:\\projects\\paindrain\\arduinolcd\\test\\pain drain\\libraries\\lvgl\\src\\misc\\lv_col
   1:c:\projects\paindrain\arduinolcd\test\pain drain\libraries\lvgl\src\misc\lv_color.h **** /**
   2:c:\projects\paindrain\arduinolcd\test\pain drain\libraries\lvgl\src\misc\lv_color.h ****  * @file lv_color.h
   3:c:\projects\paindrain\arduinolcd\test\pain drain\libraries\lvgl\src\misc\lv_color.h ****  *
   4:c:\projects\paindrain\arduinolcd\test\pain drain\libraries\lvgl\src\misc\lv_color.h ****  */
   5:c:\projects\paindrain\arduinolcd\test\pain drain\libraries\lvgl\src\misc\lv_color.h **** 
   6:c:\projects\paindrain\arduinolcd\test\pain drain\libraries\lvgl\src\misc\lv_color.h **** #ifndef LV_COLOR_H
   7:c:\projects\paindrain\arduinolcd\test\pain drain\libraries\lvgl\src\misc\lv_color.h **** #define LV_COLOR_H
   8:c:\projects\paindrain\arduinolcd\test\pain drain\libraries\lvgl\src\misc\lv_color.h **** 
   9:c:\projects\paindrain\arduinolcd\test\pain drain\libraries\lvgl\src\misc\lv_color.h **** #ifdef __cplusplus
  10:c:\projects\paindrain\arduinolcd\test\pain drain\libraries\lvgl\src\misc\lv_color.h **** extern "C" {
  11:c:\projects\paindrain\arduinolcd\test\pain drain\libraries\lvgl\src\misc\lv_color.h **** #endif
  12:c:\projects\paindrain\arduinolcd\test\pain drain\libraries\lvgl\src\misc\lv_color.h **** 
  13:c:\projects\paindrain\arduinolcd\test\pain drain\libraries\lvgl\src\misc\lv_color.h **** /*********************
  14:c:\projects\paindrain\arduinolcd\test\pain drain\libraries\lvgl\src\misc\lv_color.h ****  *      INCLUDES
  15:c:\projects\paindrain\arduinolcd\test\pain drain\libraries\lvgl\src\misc\lv_color.h ****  *********************/
  16:c:\projects\paindrain\arduinolcd\test\pain drain\libraries\lvgl\src\misc\lv_color.h **** #include "../lv_conf_internal.h"
  17:c:\projects\paindrain\arduinolcd\test\pain drain\libraries\lvgl\src\misc\lv_color.h **** #include "lv_assert.h"
  18:c:\projects\paindrain\arduinolcd\test\pain drain\libraries\lvgl\src\misc\lv_color.h **** #include "lv_math.h"
  19:c:\projects\paindrain\arduinolcd\test\pain drain\libraries\lvgl\src\misc\lv_color.h **** #include "lv_types.h"
  20:c:\projects\paindrain\arduinolcd\test\pain drain\libraries\lvgl\src\misc\lv_color.h **** 
  21:c:\projects\paindrain\arduinolcd\test\pain drain\libraries\lvgl\src\misc\lv_color.h **** /*Error checking*/
  22:c:\projects\paindrain\arduinolcd\test\pain drain\libraries\lvgl\src\misc\lv_color.h **** #if LV_COLOR_DEPTH == 24
ARM GAS  C:\Users\haske\AppData\Local\Temp\ccydbpJh.s 			page 37


  23:c:\projects\paindrain\arduinolcd\test\pain drain\libraries\lvgl\src\misc\lv_color.h **** #error "LV_COLOR_DEPTH 24 is deprecated. Use LV_COLOR_DEPTH 32 instead (lv_conf.h)"
  24:c:\projects\paindrain\arduinolcd\test\pain drain\libraries\lvgl\src\misc\lv_color.h **** #endif
  25:c:\projects\paindrain\arduinolcd\test\pain drain\libraries\lvgl\src\misc\lv_color.h **** 
  26:c:\projects\paindrain\arduinolcd\test\pain drain\libraries\lvgl\src\misc\lv_color.h **** #if LV_COLOR_DEPTH != 16 && LV_COLOR_16_SWAP != 0
  27:c:\projects\paindrain\arduinolcd\test\pain drain\libraries\lvgl\src\misc\lv_color.h **** #error "LV_COLOR_16_SWAP requires LV_COLOR_DEPTH == 16. Set it in lv_conf.h"
  28:c:\projects\paindrain\arduinolcd\test\pain drain\libraries\lvgl\src\misc\lv_color.h **** #endif
  29:c:\projects\paindrain\arduinolcd\test\pain drain\libraries\lvgl\src\misc\lv_color.h **** 
  30:c:\projects\paindrain\arduinolcd\test\pain drain\libraries\lvgl\src\misc\lv_color.h **** #include <stdint.h>
  31:c:\projects\paindrain\arduinolcd\test\pain drain\libraries\lvgl\src\misc\lv_color.h **** 
  32:c:\projects\paindrain\arduinolcd\test\pain drain\libraries\lvgl\src\misc\lv_color.h **** /*********************
  33:c:\projects\paindrain\arduinolcd\test\pain drain\libraries\lvgl\src\misc\lv_color.h ****  *      DEFINES
  34:c:\projects\paindrain\arduinolcd\test\pain drain\libraries\lvgl\src\misc\lv_color.h ****  *********************/
  35:c:\projects\paindrain\arduinolcd\test\pain drain\libraries\lvgl\src\misc\lv_color.h **** LV_EXPORT_CONST_INT(LV_COLOR_DEPTH);
  36:c:\projects\paindrain\arduinolcd\test\pain drain\libraries\lvgl\src\misc\lv_color.h **** LV_EXPORT_CONST_INT(LV_COLOR_16_SWAP);
  37:c:\projects\paindrain\arduinolcd\test\pain drain\libraries\lvgl\src\misc\lv_color.h **** 
  38:c:\projects\paindrain\arduinolcd\test\pain drain\libraries\lvgl\src\misc\lv_color.h **** /**
  39:c:\projects\paindrain\arduinolcd\test\pain drain\libraries\lvgl\src\misc\lv_color.h ****  * Opacity percentages.
  40:c:\projects\paindrain\arduinolcd\test\pain drain\libraries\lvgl\src\misc\lv_color.h ****  */
  41:c:\projects\paindrain\arduinolcd\test\pain drain\libraries\lvgl\src\misc\lv_color.h **** enum {
  42:c:\projects\paindrain\arduinolcd\test\pain drain\libraries\lvgl\src\misc\lv_color.h ****     LV_OPA_TRANSP = 0,
  43:c:\projects\paindrain\arduinolcd\test\pain drain\libraries\lvgl\src\misc\lv_color.h ****     LV_OPA_0      = 0,
  44:c:\projects\paindrain\arduinolcd\test\pain drain\libraries\lvgl\src\misc\lv_color.h ****     LV_OPA_10     = 25,
  45:c:\projects\paindrain\arduinolcd\test\pain drain\libraries\lvgl\src\misc\lv_color.h ****     LV_OPA_20     = 51,
  46:c:\projects\paindrain\arduinolcd\test\pain drain\libraries\lvgl\src\misc\lv_color.h ****     LV_OPA_30     = 76,
  47:c:\projects\paindrain\arduinolcd\test\pain drain\libraries\lvgl\src\misc\lv_color.h ****     LV_OPA_40     = 102,
  48:c:\projects\paindrain\arduinolcd\test\pain drain\libraries\lvgl\src\misc\lv_color.h ****     LV_OPA_50     = 127,
  49:c:\projects\paindrain\arduinolcd\test\pain drain\libraries\lvgl\src\misc\lv_color.h ****     LV_OPA_60     = 153,
  50:c:\projects\paindrain\arduinolcd\test\pain drain\libraries\lvgl\src\misc\lv_color.h ****     LV_OPA_70     = 178,
  51:c:\projects\paindrain\arduinolcd\test\pain drain\libraries\lvgl\src\misc\lv_color.h ****     LV_OPA_80     = 204,
  52:c:\projects\paindrain\arduinolcd\test\pain drain\libraries\lvgl\src\misc\lv_color.h ****     LV_OPA_90     = 229,
  53:c:\projects\paindrain\arduinolcd\test\pain drain\libraries\lvgl\src\misc\lv_color.h ****     LV_OPA_100    = 255,
  54:c:\projects\paindrain\arduinolcd\test\pain drain\libraries\lvgl\src\misc\lv_color.h ****     LV_OPA_COVER  = 255,
  55:c:\projects\paindrain\arduinolcd\test\pain drain\libraries\lvgl\src\misc\lv_color.h **** };
  56:c:\projects\paindrain\arduinolcd\test\pain drain\libraries\lvgl\src\misc\lv_color.h **** 
  57:c:\projects\paindrain\arduinolcd\test\pain drain\libraries\lvgl\src\misc\lv_color.h **** #define LV_OPA_MIN 2    /*Opacities below this will be transparent*/
  58:c:\projects\paindrain\arduinolcd\test\pain drain\libraries\lvgl\src\misc\lv_color.h **** #define LV_OPA_MAX 253  /*Opacities above this will fully cover*/
  59:c:\projects\paindrain\arduinolcd\test\pain drain\libraries\lvgl\src\misc\lv_color.h **** 
  60:c:\projects\paindrain\arduinolcd\test\pain drain\libraries\lvgl\src\misc\lv_color.h **** #if LV_COLOR_DEPTH == 1
  61:c:\projects\paindrain\arduinolcd\test\pain drain\libraries\lvgl\src\misc\lv_color.h **** #define LV_COLOR_SIZE 8
  62:c:\projects\paindrain\arduinolcd\test\pain drain\libraries\lvgl\src\misc\lv_color.h **** #elif LV_COLOR_DEPTH == 8
  63:c:\projects\paindrain\arduinolcd\test\pain drain\libraries\lvgl\src\misc\lv_color.h **** #define LV_COLOR_SIZE 8
  64:c:\projects\paindrain\arduinolcd\test\pain drain\libraries\lvgl\src\misc\lv_color.h **** #elif LV_COLOR_DEPTH == 16
  65:c:\projects\paindrain\arduinolcd\test\pain drain\libraries\lvgl\src\misc\lv_color.h **** #define LV_COLOR_SIZE 16
  66:c:\projects\paindrain\arduinolcd\test\pain drain\libraries\lvgl\src\misc\lv_color.h **** #elif LV_COLOR_DEPTH == 32
  67:c:\projects\paindrain\arduinolcd\test\pain drain\libraries\lvgl\src\misc\lv_color.h **** #define LV_COLOR_SIZE 32
  68:c:\projects\paindrain\arduinolcd\test\pain drain\libraries\lvgl\src\misc\lv_color.h **** #else
  69:c:\projects\paindrain\arduinolcd\test\pain drain\libraries\lvgl\src\misc\lv_color.h **** #error "Invalid LV_COLOR_DEPTH in lv_conf.h! Set it to 1, 8, 16 or 32!"
  70:c:\projects\paindrain\arduinolcd\test\pain drain\libraries\lvgl\src\misc\lv_color.h **** #endif
  71:c:\projects\paindrain\arduinolcd\test\pain drain\libraries\lvgl\src\misc\lv_color.h **** 
  72:c:\projects\paindrain\arduinolcd\test\pain drain\libraries\lvgl\src\misc\lv_color.h **** #if defined(__cplusplus) && !defined(_LV_COLOR_HAS_MODERN_CPP)
  73:c:\projects\paindrain\arduinolcd\test\pain drain\libraries\lvgl\src\misc\lv_color.h **** /**
  74:c:\projects\paindrain\arduinolcd\test\pain drain\libraries\lvgl\src\misc\lv_color.h **** * MSVC compiler's definition of the __cplusplus indicating 199711L regardless to C++ standard versi
  75:c:\projects\paindrain\arduinolcd\test\pain drain\libraries\lvgl\src\misc\lv_color.h **** * see https://devblogs.microsoft.com/cppblog/msvc-now-correctly-reports-cplusplus
  76:c:\projects\paindrain\arduinolcd\test\pain drain\libraries\lvgl\src\misc\lv_color.h **** * so we use _MSC_VER macro instead of __cplusplus
  77:c:\projects\paindrain\arduinolcd\test\pain drain\libraries\lvgl\src\misc\lv_color.h **** */
  78:c:\projects\paindrain\arduinolcd\test\pain drain\libraries\lvgl\src\misc\lv_color.h **** #ifdef _MSC_VER
  79:c:\projects\paindrain\arduinolcd\test\pain drain\libraries\lvgl\src\misc\lv_color.h **** #if _MSC_VER >= 1900 /*Visual Studio 2015*/
ARM GAS  C:\Users\haske\AppData\Local\Temp\ccydbpJh.s 			page 38


  80:c:\projects\paindrain\arduinolcd\test\pain drain\libraries\lvgl\src\misc\lv_color.h **** #define _LV_COLOR_HAS_MODERN_CPP 1
  81:c:\projects\paindrain\arduinolcd\test\pain drain\libraries\lvgl\src\misc\lv_color.h **** #endif
  82:c:\projects\paindrain\arduinolcd\test\pain drain\libraries\lvgl\src\misc\lv_color.h **** #else
  83:c:\projects\paindrain\arduinolcd\test\pain drain\libraries\lvgl\src\misc\lv_color.h **** #if __cplusplus >= 201103L
  84:c:\projects\paindrain\arduinolcd\test\pain drain\libraries\lvgl\src\misc\lv_color.h **** #define _LV_COLOR_HAS_MODERN_CPP 1
  85:c:\projects\paindrain\arduinolcd\test\pain drain\libraries\lvgl\src\misc\lv_color.h **** #endif
  86:c:\projects\paindrain\arduinolcd\test\pain drain\libraries\lvgl\src\misc\lv_color.h **** #endif
  87:c:\projects\paindrain\arduinolcd\test\pain drain\libraries\lvgl\src\misc\lv_color.h **** #endif /*__cplusplus*/
  88:c:\projects\paindrain\arduinolcd\test\pain drain\libraries\lvgl\src\misc\lv_color.h **** 
  89:c:\projects\paindrain\arduinolcd\test\pain drain\libraries\lvgl\src\misc\lv_color.h **** #ifndef _LV_COLOR_HAS_MODERN_CPP
  90:c:\projects\paindrain\arduinolcd\test\pain drain\libraries\lvgl\src\misc\lv_color.h **** #define _LV_COLOR_HAS_MODERN_CPP 0
  91:c:\projects\paindrain\arduinolcd\test\pain drain\libraries\lvgl\src\misc\lv_color.h **** #endif
  92:c:\projects\paindrain\arduinolcd\test\pain drain\libraries\lvgl\src\misc\lv_color.h **** 
  93:c:\projects\paindrain\arduinolcd\test\pain drain\libraries\lvgl\src\misc\lv_color.h **** #if _LV_COLOR_HAS_MODERN_CPP
  94:c:\projects\paindrain\arduinolcd\test\pain drain\libraries\lvgl\src\misc\lv_color.h **** /*Fix msvc compiler error C4576 inside C++ code*/
  95:c:\projects\paindrain\arduinolcd\test\pain drain\libraries\lvgl\src\misc\lv_color.h **** #define _LV_COLOR_MAKE_TYPE_HELPER lv_color_t
  96:c:\projects\paindrain\arduinolcd\test\pain drain\libraries\lvgl\src\misc\lv_color.h **** #else
  97:c:\projects\paindrain\arduinolcd\test\pain drain\libraries\lvgl\src\misc\lv_color.h **** #define _LV_COLOR_MAKE_TYPE_HELPER (lv_color_t)
  98:c:\projects\paindrain\arduinolcd\test\pain drain\libraries\lvgl\src\misc\lv_color.h **** #endif
  99:c:\projects\paindrain\arduinolcd\test\pain drain\libraries\lvgl\src\misc\lv_color.h **** 
 100:c:\projects\paindrain\arduinolcd\test\pain drain\libraries\lvgl\src\misc\lv_color.h **** /*---------------------------------------
 101:c:\projects\paindrain\arduinolcd\test\pain drain\libraries\lvgl\src\misc\lv_color.h ****  * Macros for all existing color depths
 102:c:\projects\paindrain\arduinolcd\test\pain drain\libraries\lvgl\src\misc\lv_color.h ****  * to set/get values of the color channels
 103:c:\projects\paindrain\arduinolcd\test\pain drain\libraries\lvgl\src\misc\lv_color.h ****  *------------------------------------------*/
 104:c:\projects\paindrain\arduinolcd\test\pain drain\libraries\lvgl\src\misc\lv_color.h **** # define LV_COLOR_SET_R1(c, v) (c).ch.red = (uint8_t)((v) & 0x1)
 105:c:\projects\paindrain\arduinolcd\test\pain drain\libraries\lvgl\src\misc\lv_color.h **** # define LV_COLOR_SET_G1(c, v) (c).ch.green = (uint8_t)((v) & 0x1)
 106:c:\projects\paindrain\arduinolcd\test\pain drain\libraries\lvgl\src\misc\lv_color.h **** # define LV_COLOR_SET_B1(c, v) (c).ch.blue = (uint8_t)((v) & 0x1)
 107:c:\projects\paindrain\arduinolcd\test\pain drain\libraries\lvgl\src\misc\lv_color.h **** # define LV_COLOR_SET_A1(c, v) do {} while(0)
 108:c:\projects\paindrain\arduinolcd\test\pain drain\libraries\lvgl\src\misc\lv_color.h **** 
 109:c:\projects\paindrain\arduinolcd\test\pain drain\libraries\lvgl\src\misc\lv_color.h **** # define LV_COLOR_GET_R1(c) (c).ch.red
 110:c:\projects\paindrain\arduinolcd\test\pain drain\libraries\lvgl\src\misc\lv_color.h **** # define LV_COLOR_GET_G1(c) (c).ch.green
 111:c:\projects\paindrain\arduinolcd\test\pain drain\libraries\lvgl\src\misc\lv_color.h **** # define LV_COLOR_GET_B1(c) (c).ch.blue
 112:c:\projects\paindrain\arduinolcd\test\pain drain\libraries\lvgl\src\misc\lv_color.h **** # define LV_COLOR_GET_A1(c) 0xFF
 113:c:\projects\paindrain\arduinolcd\test\pain drain\libraries\lvgl\src\misc\lv_color.h **** 
 114:c:\projects\paindrain\arduinolcd\test\pain drain\libraries\lvgl\src\misc\lv_color.h **** # define _LV_COLOR_ZERO_INITIALIZER1 {0x00}
 115:c:\projects\paindrain\arduinolcd\test\pain drain\libraries\lvgl\src\misc\lv_color.h **** # define LV_COLOR_MAKE1(r8, g8, b8)  {(uint8_t)((b8 >> 7) | (g8 >> 7) | (r8 >> 7))}
 116:c:\projects\paindrain\arduinolcd\test\pain drain\libraries\lvgl\src\misc\lv_color.h **** 
 117:c:\projects\paindrain\arduinolcd\test\pain drain\libraries\lvgl\src\misc\lv_color.h **** # define LV_COLOR_SET_R8(c, v) (c).ch.red = (uint8_t)((v) & 0x7U)
 118:c:\projects\paindrain\arduinolcd\test\pain drain\libraries\lvgl\src\misc\lv_color.h **** # define LV_COLOR_SET_G8(c, v) (c).ch.green = (uint8_t)((v) & 0x7U)
 119:c:\projects\paindrain\arduinolcd\test\pain drain\libraries\lvgl\src\misc\lv_color.h **** # define LV_COLOR_SET_B8(c, v) (c).ch.blue = (uint8_t)((v) & 0x3U)
 120:c:\projects\paindrain\arduinolcd\test\pain drain\libraries\lvgl\src\misc\lv_color.h **** # define LV_COLOR_SET_A8(c, v) do {} while(0)
 121:c:\projects\paindrain\arduinolcd\test\pain drain\libraries\lvgl\src\misc\lv_color.h **** 
 122:c:\projects\paindrain\arduinolcd\test\pain drain\libraries\lvgl\src\misc\lv_color.h **** # define LV_COLOR_GET_R8(c) (c).ch.red
 123:c:\projects\paindrain\arduinolcd\test\pain drain\libraries\lvgl\src\misc\lv_color.h **** # define LV_COLOR_GET_G8(c) (c).ch.green
 124:c:\projects\paindrain\arduinolcd\test\pain drain\libraries\lvgl\src\misc\lv_color.h **** # define LV_COLOR_GET_B8(c) (c).ch.blue
 125:c:\projects\paindrain\arduinolcd\test\pain drain\libraries\lvgl\src\misc\lv_color.h **** # define LV_COLOR_GET_A8(c) 0xFF
 126:c:\projects\paindrain\arduinolcd\test\pain drain\libraries\lvgl\src\misc\lv_color.h **** 
 127:c:\projects\paindrain\arduinolcd\test\pain drain\libraries\lvgl\src\misc\lv_color.h **** # define _LV_COLOR_ZERO_INITIALIZER8 {{0x00, 0x00, 0x00}}
 128:c:\projects\paindrain\arduinolcd\test\pain drain\libraries\lvgl\src\misc\lv_color.h **** # define LV_COLOR_MAKE8(r8, g8, b8) {{(uint8_t)((b8 >> 6) & 0x3U), (uint8_t)((g8 >> 5) & 0x7U), (ui
 129:c:\projects\paindrain\arduinolcd\test\pain drain\libraries\lvgl\src\misc\lv_color.h **** 
 130:c:\projects\paindrain\arduinolcd\test\pain drain\libraries\lvgl\src\misc\lv_color.h **** # define LV_COLOR_SET_R16(c, v) (c).ch.red = (uint8_t)((v) & 0x1FU)
 131:c:\projects\paindrain\arduinolcd\test\pain drain\libraries\lvgl\src\misc\lv_color.h **** #if LV_COLOR_16_SWAP == 0
 132:c:\projects\paindrain\arduinolcd\test\pain drain\libraries\lvgl\src\misc\lv_color.h **** # define LV_COLOR_SET_G16(c, v) (c).ch.green = (uint8_t)((v) & 0x3FU)
 133:c:\projects\paindrain\arduinolcd\test\pain drain\libraries\lvgl\src\misc\lv_color.h **** #else
 134:c:\projects\paindrain\arduinolcd\test\pain drain\libraries\lvgl\src\misc\lv_color.h **** # define LV_COLOR_SET_G16(c, v) {(c).ch.green_h = (uint8_t)(((v) >> 3) & 0x7); (c).ch.green_l = (ui
 135:c:\projects\paindrain\arduinolcd\test\pain drain\libraries\lvgl\src\misc\lv_color.h **** #endif
 136:c:\projects\paindrain\arduinolcd\test\pain drain\libraries\lvgl\src\misc\lv_color.h **** # define LV_COLOR_SET_B16(c, v) (c).ch.blue = (uint8_t)((v) & 0x1FU)
ARM GAS  C:\Users\haske\AppData\Local\Temp\ccydbpJh.s 			page 39


 137:c:\projects\paindrain\arduinolcd\test\pain drain\libraries\lvgl\src\misc\lv_color.h **** # define LV_COLOR_SET_A16(c, v) do {} while(0)
 138:c:\projects\paindrain\arduinolcd\test\pain drain\libraries\lvgl\src\misc\lv_color.h **** 
 139:c:\projects\paindrain\arduinolcd\test\pain drain\libraries\lvgl\src\misc\lv_color.h **** # define LV_COLOR_GET_R16(c) (c).ch.red
 140:c:\projects\paindrain\arduinolcd\test\pain drain\libraries\lvgl\src\misc\lv_color.h **** #if LV_COLOR_16_SWAP == 0
 141:c:\projects\paindrain\arduinolcd\test\pain drain\libraries\lvgl\src\misc\lv_color.h **** # define LV_COLOR_GET_G16(c) (c).ch.green
 142:c:\projects\paindrain\arduinolcd\test\pain drain\libraries\lvgl\src\misc\lv_color.h **** #else
 143:c:\projects\paindrain\arduinolcd\test\pain drain\libraries\lvgl\src\misc\lv_color.h **** # define LV_COLOR_GET_G16(c) (((c).ch.green_h << 3) + (c).ch.green_l)
 144:c:\projects\paindrain\arduinolcd\test\pain drain\libraries\lvgl\src\misc\lv_color.h **** #endif
 145:c:\projects\paindrain\arduinolcd\test\pain drain\libraries\lvgl\src\misc\lv_color.h **** # define LV_COLOR_GET_B16(c) (c).ch.blue
 146:c:\projects\paindrain\arduinolcd\test\pain drain\libraries\lvgl\src\misc\lv_color.h **** # define LV_COLOR_GET_A16(c) 0xFF
 147:c:\projects\paindrain\arduinolcd\test\pain drain\libraries\lvgl\src\misc\lv_color.h **** 
 148:c:\projects\paindrain\arduinolcd\test\pain drain\libraries\lvgl\src\misc\lv_color.h **** #if LV_COLOR_16_SWAP == 0
 149:c:\projects\paindrain\arduinolcd\test\pain drain\libraries\lvgl\src\misc\lv_color.h **** # define _LV_COLOR_ZERO_INITIALIZER16  {{0x00, 0x00, 0x00}}
 150:c:\projects\paindrain\arduinolcd\test\pain drain\libraries\lvgl\src\misc\lv_color.h **** # define LV_COLOR_MAKE16(r8, g8, b8) {{(uint8_t)((b8 >> 3) & 0x1FU), (uint8_t)((g8 >> 2) & 0x3FU), 
 151:c:\projects\paindrain\arduinolcd\test\pain drain\libraries\lvgl\src\misc\lv_color.h **** #else
 152:c:\projects\paindrain\arduinolcd\test\pain drain\libraries\lvgl\src\misc\lv_color.h **** # define _LV_COLOR_ZERO_INITIALIZER16 {{0x00, 0x00, 0x00, 0x00}}
 153:c:\projects\paindrain\arduinolcd\test\pain drain\libraries\lvgl\src\misc\lv_color.h **** # define LV_COLOR_MAKE16(r8, g8, b8) {{(uint8_t)((g8 >> 5) & 0x7U), (uint8_t)((r8 >> 3) & 0x1FU), (
 154:c:\projects\paindrain\arduinolcd\test\pain drain\libraries\lvgl\src\misc\lv_color.h **** #endif
 155:c:\projects\paindrain\arduinolcd\test\pain drain\libraries\lvgl\src\misc\lv_color.h **** 
 156:c:\projects\paindrain\arduinolcd\test\pain drain\libraries\lvgl\src\misc\lv_color.h **** # define LV_COLOR_SET_R32(c, v) (c).ch.red = (uint8_t)((v) & 0xFF)
 157:c:\projects\paindrain\arduinolcd\test\pain drain\libraries\lvgl\src\misc\lv_color.h **** # define LV_COLOR_SET_G32(c, v) (c).ch.green = (uint8_t)((v) & 0xFF)
 158:c:\projects\paindrain\arduinolcd\test\pain drain\libraries\lvgl\src\misc\lv_color.h **** # define LV_COLOR_SET_B32(c, v) (c).ch.blue = (uint8_t)((v) & 0xFF)
 159:c:\projects\paindrain\arduinolcd\test\pain drain\libraries\lvgl\src\misc\lv_color.h **** # define LV_COLOR_SET_A32(c, v) (c).ch.alpha = (uint8_t)((v) & 0xFF)
 160:c:\projects\paindrain\arduinolcd\test\pain drain\libraries\lvgl\src\misc\lv_color.h **** 
 161:c:\projects\paindrain\arduinolcd\test\pain drain\libraries\lvgl\src\misc\lv_color.h **** # define LV_COLOR_GET_R32(c) (c).ch.red
 162:c:\projects\paindrain\arduinolcd\test\pain drain\libraries\lvgl\src\misc\lv_color.h **** # define LV_COLOR_GET_G32(c) (c).ch.green
 163:c:\projects\paindrain\arduinolcd\test\pain drain\libraries\lvgl\src\misc\lv_color.h **** # define LV_COLOR_GET_B32(c) (c).ch.blue
 164:c:\projects\paindrain\arduinolcd\test\pain drain\libraries\lvgl\src\misc\lv_color.h **** # define LV_COLOR_GET_A32(c) (c).ch.alpha
 165:c:\projects\paindrain\arduinolcd\test\pain drain\libraries\lvgl\src\misc\lv_color.h **** 
 166:c:\projects\paindrain\arduinolcd\test\pain drain\libraries\lvgl\src\misc\lv_color.h **** # define _LV_COLOR_ZERO_INITIALIZER32  {{0x00, 0x00, 0x00, 0x00}}
 167:c:\projects\paindrain\arduinolcd\test\pain drain\libraries\lvgl\src\misc\lv_color.h **** # define LV_COLOR_MAKE32(r8, g8, b8) {{b8, g8, r8, 0xff}} /*Fix 0xff alpha*/
 168:c:\projects\paindrain\arduinolcd\test\pain drain\libraries\lvgl\src\misc\lv_color.h **** 
 169:c:\projects\paindrain\arduinolcd\test\pain drain\libraries\lvgl\src\misc\lv_color.h **** /*---------------------------------------
 170:c:\projects\paindrain\arduinolcd\test\pain drain\libraries\lvgl\src\misc\lv_color.h ****  * Macros for the current color depth
 171:c:\projects\paindrain\arduinolcd\test\pain drain\libraries\lvgl\src\misc\lv_color.h ****  * to set/get values of the color channels
 172:c:\projects\paindrain\arduinolcd\test\pain drain\libraries\lvgl\src\misc\lv_color.h ****  *------------------------------------------*/
 173:c:\projects\paindrain\arduinolcd\test\pain drain\libraries\lvgl\src\misc\lv_color.h **** #define LV_COLOR_SET_R(c, v) LV_CONCAT(LV_COLOR_SET_R, LV_COLOR_DEPTH)(c, v)
 174:c:\projects\paindrain\arduinolcd\test\pain drain\libraries\lvgl\src\misc\lv_color.h **** #define LV_COLOR_SET_G(c, v) LV_CONCAT(LV_COLOR_SET_G, LV_COLOR_DEPTH)(c, v)
 175:c:\projects\paindrain\arduinolcd\test\pain drain\libraries\lvgl\src\misc\lv_color.h **** #define LV_COLOR_SET_B(c, v) LV_CONCAT(LV_COLOR_SET_B, LV_COLOR_DEPTH)(c, v)
 176:c:\projects\paindrain\arduinolcd\test\pain drain\libraries\lvgl\src\misc\lv_color.h **** #define LV_COLOR_SET_A(c, v) LV_CONCAT(LV_COLOR_SET_A, LV_COLOR_DEPTH)(c, v)
 177:c:\projects\paindrain\arduinolcd\test\pain drain\libraries\lvgl\src\misc\lv_color.h **** 
 178:c:\projects\paindrain\arduinolcd\test\pain drain\libraries\lvgl\src\misc\lv_color.h **** #define LV_COLOR_GET_R(c) LV_CONCAT(LV_COLOR_GET_R, LV_COLOR_DEPTH)(c)
 179:c:\projects\paindrain\arduinolcd\test\pain drain\libraries\lvgl\src\misc\lv_color.h **** #define LV_COLOR_GET_G(c) LV_CONCAT(LV_COLOR_GET_G, LV_COLOR_DEPTH)(c)
 180:c:\projects\paindrain\arduinolcd\test\pain drain\libraries\lvgl\src\misc\lv_color.h **** #define LV_COLOR_GET_B(c) LV_CONCAT(LV_COLOR_GET_B, LV_COLOR_DEPTH)(c)
 181:c:\projects\paindrain\arduinolcd\test\pain drain\libraries\lvgl\src\misc\lv_color.h **** #define LV_COLOR_GET_A(c) LV_CONCAT(LV_COLOR_GET_A, LV_COLOR_DEPTH)(c)
 182:c:\projects\paindrain\arduinolcd\test\pain drain\libraries\lvgl\src\misc\lv_color.h **** 
 183:c:\projects\paindrain\arduinolcd\test\pain drain\libraries\lvgl\src\misc\lv_color.h **** #define _LV_COLOR_ZERO_INITIALIZER LV_CONCAT(_LV_COLOR_ZERO_INITIALIZER, LV_COLOR_DEPTH)
 184:c:\projects\paindrain\arduinolcd\test\pain drain\libraries\lvgl\src\misc\lv_color.h **** #define LV_COLOR_MAKE(r8, g8, b8) LV_CONCAT(LV_COLOR_MAKE, LV_COLOR_DEPTH)(r8, g8, b8)
 185:c:\projects\paindrain\arduinolcd\test\pain drain\libraries\lvgl\src\misc\lv_color.h **** 
 186:c:\projects\paindrain\arduinolcd\test\pain drain\libraries\lvgl\src\misc\lv_color.h **** /**********************
 187:c:\projects\paindrain\arduinolcd\test\pain drain\libraries\lvgl\src\misc\lv_color.h ****  *      TYPEDEFS
 188:c:\projects\paindrain\arduinolcd\test\pain drain\libraries\lvgl\src\misc\lv_color.h ****  **********************/
 189:c:\projects\paindrain\arduinolcd\test\pain drain\libraries\lvgl\src\misc\lv_color.h **** 
 190:c:\projects\paindrain\arduinolcd\test\pain drain\libraries\lvgl\src\misc\lv_color.h **** typedef union {
 191:c:\projects\paindrain\arduinolcd\test\pain drain\libraries\lvgl\src\misc\lv_color.h ****     uint8_t full; /*must be declared first to set all bits of byte via initializer list*/
 192:c:\projects\paindrain\arduinolcd\test\pain drain\libraries\lvgl\src\misc\lv_color.h ****     union {
 193:c:\projects\paindrain\arduinolcd\test\pain drain\libraries\lvgl\src\misc\lv_color.h ****         uint8_t blue : 1;
ARM GAS  C:\Users\haske\AppData\Local\Temp\ccydbpJh.s 			page 40


 194:c:\projects\paindrain\arduinolcd\test\pain drain\libraries\lvgl\src\misc\lv_color.h ****         uint8_t green : 1;
 195:c:\projects\paindrain\arduinolcd\test\pain drain\libraries\lvgl\src\misc\lv_color.h ****         uint8_t red : 1;
 196:c:\projects\paindrain\arduinolcd\test\pain drain\libraries\lvgl\src\misc\lv_color.h ****     } ch;
 197:c:\projects\paindrain\arduinolcd\test\pain drain\libraries\lvgl\src\misc\lv_color.h **** } lv_color1_t;
 198:c:\projects\paindrain\arduinolcd\test\pain drain\libraries\lvgl\src\misc\lv_color.h **** 
 199:c:\projects\paindrain\arduinolcd\test\pain drain\libraries\lvgl\src\misc\lv_color.h **** typedef union {
 200:c:\projects\paindrain\arduinolcd\test\pain drain\libraries\lvgl\src\misc\lv_color.h ****     struct {
 201:c:\projects\paindrain\arduinolcd\test\pain drain\libraries\lvgl\src\misc\lv_color.h ****         uint8_t blue : 2;
 202:c:\projects\paindrain\arduinolcd\test\pain drain\libraries\lvgl\src\misc\lv_color.h ****         uint8_t green : 3;
 203:c:\projects\paindrain\arduinolcd\test\pain drain\libraries\lvgl\src\misc\lv_color.h ****         uint8_t red : 3;
 204:c:\projects\paindrain\arduinolcd\test\pain drain\libraries\lvgl\src\misc\lv_color.h ****     } ch;
 205:c:\projects\paindrain\arduinolcd\test\pain drain\libraries\lvgl\src\misc\lv_color.h ****     uint8_t full;
 206:c:\projects\paindrain\arduinolcd\test\pain drain\libraries\lvgl\src\misc\lv_color.h **** } lv_color8_t;
 207:c:\projects\paindrain\arduinolcd\test\pain drain\libraries\lvgl\src\misc\lv_color.h **** 
 208:c:\projects\paindrain\arduinolcd\test\pain drain\libraries\lvgl\src\misc\lv_color.h **** typedef union {
 209:c:\projects\paindrain\arduinolcd\test\pain drain\libraries\lvgl\src\misc\lv_color.h ****     struct {
 210:c:\projects\paindrain\arduinolcd\test\pain drain\libraries\lvgl\src\misc\lv_color.h **** #if LV_COLOR_16_SWAP == 0
 211:c:\projects\paindrain\arduinolcd\test\pain drain\libraries\lvgl\src\misc\lv_color.h ****         uint16_t blue : 5;
 212:c:\projects\paindrain\arduinolcd\test\pain drain\libraries\lvgl\src\misc\lv_color.h ****         uint16_t green : 6;
 213:c:\projects\paindrain\arduinolcd\test\pain drain\libraries\lvgl\src\misc\lv_color.h ****         uint16_t red : 5;
 214:c:\projects\paindrain\arduinolcd\test\pain drain\libraries\lvgl\src\misc\lv_color.h **** #else
 215:c:\projects\paindrain\arduinolcd\test\pain drain\libraries\lvgl\src\misc\lv_color.h ****         uint16_t green_h : 3;
 216:c:\projects\paindrain\arduinolcd\test\pain drain\libraries\lvgl\src\misc\lv_color.h ****         uint16_t red : 5;
 217:c:\projects\paindrain\arduinolcd\test\pain drain\libraries\lvgl\src\misc\lv_color.h ****         uint16_t blue : 5;
 218:c:\projects\paindrain\arduinolcd\test\pain drain\libraries\lvgl\src\misc\lv_color.h ****         uint16_t green_l : 3;
 219:c:\projects\paindrain\arduinolcd\test\pain drain\libraries\lvgl\src\misc\lv_color.h **** #endif
 220:c:\projects\paindrain\arduinolcd\test\pain drain\libraries\lvgl\src\misc\lv_color.h ****     } ch;
 221:c:\projects\paindrain\arduinolcd\test\pain drain\libraries\lvgl\src\misc\lv_color.h ****     uint16_t full;
 222:c:\projects\paindrain\arduinolcd\test\pain drain\libraries\lvgl\src\misc\lv_color.h **** } lv_color16_t;
 223:c:\projects\paindrain\arduinolcd\test\pain drain\libraries\lvgl\src\misc\lv_color.h **** 
 224:c:\projects\paindrain\arduinolcd\test\pain drain\libraries\lvgl\src\misc\lv_color.h **** typedef union {
 225:c:\projects\paindrain\arduinolcd\test\pain drain\libraries\lvgl\src\misc\lv_color.h ****     struct {
 226:c:\projects\paindrain\arduinolcd\test\pain drain\libraries\lvgl\src\misc\lv_color.h ****         uint8_t blue;
 227:c:\projects\paindrain\arduinolcd\test\pain drain\libraries\lvgl\src\misc\lv_color.h ****         uint8_t green;
 228:c:\projects\paindrain\arduinolcd\test\pain drain\libraries\lvgl\src\misc\lv_color.h ****         uint8_t red;
 229:c:\projects\paindrain\arduinolcd\test\pain drain\libraries\lvgl\src\misc\lv_color.h ****         uint8_t alpha;
 230:c:\projects\paindrain\arduinolcd\test\pain drain\libraries\lvgl\src\misc\lv_color.h ****     } ch;
 231:c:\projects\paindrain\arduinolcd\test\pain drain\libraries\lvgl\src\misc\lv_color.h ****     uint32_t full;
 232:c:\projects\paindrain\arduinolcd\test\pain drain\libraries\lvgl\src\misc\lv_color.h **** } lv_color32_t;
 233:c:\projects\paindrain\arduinolcd\test\pain drain\libraries\lvgl\src\misc\lv_color.h **** 
 234:c:\projects\paindrain\arduinolcd\test\pain drain\libraries\lvgl\src\misc\lv_color.h **** typedef LV_CONCAT3(uint, LV_COLOR_SIZE, _t) lv_color_int_t;
 235:c:\projects\paindrain\arduinolcd\test\pain drain\libraries\lvgl\src\misc\lv_color.h **** typedef LV_CONCAT3(lv_color, LV_COLOR_DEPTH, _t) lv_color_t;
 236:c:\projects\paindrain\arduinolcd\test\pain drain\libraries\lvgl\src\misc\lv_color.h **** 
 237:c:\projects\paindrain\arduinolcd\test\pain drain\libraries\lvgl\src\misc\lv_color.h **** typedef struct {
 238:c:\projects\paindrain\arduinolcd\test\pain drain\libraries\lvgl\src\misc\lv_color.h ****     uint16_t h;
 239:c:\projects\paindrain\arduinolcd\test\pain drain\libraries\lvgl\src\misc\lv_color.h ****     uint8_t s;
 240:c:\projects\paindrain\arduinolcd\test\pain drain\libraries\lvgl\src\misc\lv_color.h ****     uint8_t v;
 241:c:\projects\paindrain\arduinolcd\test\pain drain\libraries\lvgl\src\misc\lv_color.h **** } lv_color_hsv_t;
 242:c:\projects\paindrain\arduinolcd\test\pain drain\libraries\lvgl\src\misc\lv_color.h **** 
 243:c:\projects\paindrain\arduinolcd\test\pain drain\libraries\lvgl\src\misc\lv_color.h **** //! @cond Doxygen_Suppress
 244:c:\projects\paindrain\arduinolcd\test\pain drain\libraries\lvgl\src\misc\lv_color.h **** /*No idea where the guard is required but else throws warnings in the docs*/
 245:c:\projects\paindrain\arduinolcd\test\pain drain\libraries\lvgl\src\misc\lv_color.h **** typedef uint8_t lv_opa_t;
 246:c:\projects\paindrain\arduinolcd\test\pain drain\libraries\lvgl\src\misc\lv_color.h **** //! @endcond
 247:c:\projects\paindrain\arduinolcd\test\pain drain\libraries\lvgl\src\misc\lv_color.h **** 
 248:c:\projects\paindrain\arduinolcd\test\pain drain\libraries\lvgl\src\misc\lv_color.h **** struct _lv_color_filter_dsc_t;
 249:c:\projects\paindrain\arduinolcd\test\pain drain\libraries\lvgl\src\misc\lv_color.h **** 
 250:c:\projects\paindrain\arduinolcd\test\pain drain\libraries\lvgl\src\misc\lv_color.h **** typedef lv_color_t (*lv_color_filter_cb_t)(const struct _lv_color_filter_dsc_t *, lv_color_t, lv_op
ARM GAS  C:\Users\haske\AppData\Local\Temp\ccydbpJh.s 			page 41


 251:c:\projects\paindrain\arduinolcd\test\pain drain\libraries\lvgl\src\misc\lv_color.h **** 
 252:c:\projects\paindrain\arduinolcd\test\pain drain\libraries\lvgl\src\misc\lv_color.h **** typedef struct _lv_color_filter_dsc_t {
 253:c:\projects\paindrain\arduinolcd\test\pain drain\libraries\lvgl\src\misc\lv_color.h ****     lv_color_filter_cb_t filter_cb;
 254:c:\projects\paindrain\arduinolcd\test\pain drain\libraries\lvgl\src\misc\lv_color.h ****     void * user_data;
 255:c:\projects\paindrain\arduinolcd\test\pain drain\libraries\lvgl\src\misc\lv_color.h **** } lv_color_filter_dsc_t;
 256:c:\projects\paindrain\arduinolcd\test\pain drain\libraries\lvgl\src\misc\lv_color.h **** 
 257:c:\projects\paindrain\arduinolcd\test\pain drain\libraries\lvgl\src\misc\lv_color.h **** 
 258:c:\projects\paindrain\arduinolcd\test\pain drain\libraries\lvgl\src\misc\lv_color.h **** typedef enum {
 259:c:\projects\paindrain\arduinolcd\test\pain drain\libraries\lvgl\src\misc\lv_color.h ****     LV_PALETTE_RED,
 260:c:\projects\paindrain\arduinolcd\test\pain drain\libraries\lvgl\src\misc\lv_color.h ****     LV_PALETTE_PINK,
 261:c:\projects\paindrain\arduinolcd\test\pain drain\libraries\lvgl\src\misc\lv_color.h ****     LV_PALETTE_PURPLE,
 262:c:\projects\paindrain\arduinolcd\test\pain drain\libraries\lvgl\src\misc\lv_color.h ****     LV_PALETTE_DEEP_PURPLE,
 263:c:\projects\paindrain\arduinolcd\test\pain drain\libraries\lvgl\src\misc\lv_color.h ****     LV_PALETTE_INDIGO,
 264:c:\projects\paindrain\arduinolcd\test\pain drain\libraries\lvgl\src\misc\lv_color.h ****     LV_PALETTE_BLUE,
 265:c:\projects\paindrain\arduinolcd\test\pain drain\libraries\lvgl\src\misc\lv_color.h ****     LV_PALETTE_LIGHT_BLUE,
 266:c:\projects\paindrain\arduinolcd\test\pain drain\libraries\lvgl\src\misc\lv_color.h ****     LV_PALETTE_CYAN,
 267:c:\projects\paindrain\arduinolcd\test\pain drain\libraries\lvgl\src\misc\lv_color.h ****     LV_PALETTE_TEAL,
 268:c:\projects\paindrain\arduinolcd\test\pain drain\libraries\lvgl\src\misc\lv_color.h ****     LV_PALETTE_GREEN,
 269:c:\projects\paindrain\arduinolcd\test\pain drain\libraries\lvgl\src\misc\lv_color.h ****     LV_PALETTE_LIGHT_GREEN,
 270:c:\projects\paindrain\arduinolcd\test\pain drain\libraries\lvgl\src\misc\lv_color.h ****     LV_PALETTE_LIME,
 271:c:\projects\paindrain\arduinolcd\test\pain drain\libraries\lvgl\src\misc\lv_color.h ****     LV_PALETTE_YELLOW,
 272:c:\projects\paindrain\arduinolcd\test\pain drain\libraries\lvgl\src\misc\lv_color.h ****     LV_PALETTE_AMBER,
 273:c:\projects\paindrain\arduinolcd\test\pain drain\libraries\lvgl\src\misc\lv_color.h ****     LV_PALETTE_ORANGE,
 274:c:\projects\paindrain\arduinolcd\test\pain drain\libraries\lvgl\src\misc\lv_color.h ****     LV_PALETTE_DEEP_ORANGE,
 275:c:\projects\paindrain\arduinolcd\test\pain drain\libraries\lvgl\src\misc\lv_color.h ****     LV_PALETTE_BROWN,
 276:c:\projects\paindrain\arduinolcd\test\pain drain\libraries\lvgl\src\misc\lv_color.h ****     LV_PALETTE_BLUE_GREY,
 277:c:\projects\paindrain\arduinolcd\test\pain drain\libraries\lvgl\src\misc\lv_color.h ****     LV_PALETTE_GREY,
 278:c:\projects\paindrain\arduinolcd\test\pain drain\libraries\lvgl\src\misc\lv_color.h ****     _LV_PALETTE_LAST,
 279:c:\projects\paindrain\arduinolcd\test\pain drain\libraries\lvgl\src\misc\lv_color.h ****     LV_PALETTE_NONE = 0xff,
 280:c:\projects\paindrain\arduinolcd\test\pain drain\libraries\lvgl\src\misc\lv_color.h **** } lv_palette_t;
 281:c:\projects\paindrain\arduinolcd\test\pain drain\libraries\lvgl\src\misc\lv_color.h **** 
 282:c:\projects\paindrain\arduinolcd\test\pain drain\libraries\lvgl\src\misc\lv_color.h **** /**********************
 283:c:\projects\paindrain\arduinolcd\test\pain drain\libraries\lvgl\src\misc\lv_color.h ****  * GLOBAL PROTOTYPES
 284:c:\projects\paindrain\arduinolcd\test\pain drain\libraries\lvgl\src\misc\lv_color.h ****  **********************/
 285:c:\projects\paindrain\arduinolcd\test\pain drain\libraries\lvgl\src\misc\lv_color.h **** 
 286:c:\projects\paindrain\arduinolcd\test\pain drain\libraries\lvgl\src\misc\lv_color.h **** /*In color conversations:
 287:c:\projects\paindrain\arduinolcd\test\pain drain\libraries\lvgl\src\misc\lv_color.h ****  * - When converting to bigger color type the LSB weight of 1 LSB is calculated
 288:c:\projects\paindrain\arduinolcd\test\pain drain\libraries\lvgl\src\misc\lv_color.h ****  *   E.g. 16 bit Red has 5 bits
 289:c:\projects\paindrain\arduinolcd\test\pain drain\libraries\lvgl\src\misc\lv_color.h ****  *         8 bit Red has 3 bits
 290:c:\projects\paindrain\arduinolcd\test\pain drain\libraries\lvgl\src\misc\lv_color.h ****  *        ----------------------
 291:c:\projects\paindrain\arduinolcd\test\pain drain\libraries\lvgl\src\misc\lv_color.h ****  *        8 bit red LSB = (2^5 - 1) / (2^3 - 1) = 31 / 7 = 4
 292:c:\projects\paindrain\arduinolcd\test\pain drain\libraries\lvgl\src\misc\lv_color.h ****  *
 293:c:\projects\paindrain\arduinolcd\test\pain drain\libraries\lvgl\src\misc\lv_color.h ****  * - When calculating to smaller color type simply shift out the LSBs
 294:c:\projects\paindrain\arduinolcd\test\pain drain\libraries\lvgl\src\misc\lv_color.h ****  *   E.g.  8 bit Red has 3 bits
 295:c:\projects\paindrain\arduinolcd\test\pain drain\libraries\lvgl\src\misc\lv_color.h ****  *        16 bit Red has 5 bits
 296:c:\projects\paindrain\arduinolcd\test\pain drain\libraries\lvgl\src\misc\lv_color.h ****  *        ----------------------
 297:c:\projects\paindrain\arduinolcd\test\pain drain\libraries\lvgl\src\misc\lv_color.h ****  *         Shift right with 5 - 3 = 2
 298:c:\projects\paindrain\arduinolcd\test\pain drain\libraries\lvgl\src\misc\lv_color.h ****  */
 299:c:\projects\paindrain\arduinolcd\test\pain drain\libraries\lvgl\src\misc\lv_color.h **** static inline uint8_t lv_color_to1(lv_color_t color)
 300:c:\projects\paindrain\arduinolcd\test\pain drain\libraries\lvgl\src\misc\lv_color.h **** {
 301:c:\projects\paindrain\arduinolcd\test\pain drain\libraries\lvgl\src\misc\lv_color.h **** #if LV_COLOR_DEPTH == 1
 302:c:\projects\paindrain\arduinolcd\test\pain drain\libraries\lvgl\src\misc\lv_color.h ****     return color.full;
 303:c:\projects\paindrain\arduinolcd\test\pain drain\libraries\lvgl\src\misc\lv_color.h **** #elif LV_COLOR_DEPTH == 8
 304:c:\projects\paindrain\arduinolcd\test\pain drain\libraries\lvgl\src\misc\lv_color.h ****     if((LV_COLOR_GET_R(color) & 0x4) || (LV_COLOR_GET_G(color) & 0x4) || (LV_COLOR_GET_B(color) & 0
 305:c:\projects\paindrain\arduinolcd\test\pain drain\libraries\lvgl\src\misc\lv_color.h ****         return 1;
 306:c:\projects\paindrain\arduinolcd\test\pain drain\libraries\lvgl\src\misc\lv_color.h ****     }
 307:c:\projects\paindrain\arduinolcd\test\pain drain\libraries\lvgl\src\misc\lv_color.h ****     else {
ARM GAS  C:\Users\haske\AppData\Local\Temp\ccydbpJh.s 			page 42


 308:c:\projects\paindrain\arduinolcd\test\pain drain\libraries\lvgl\src\misc\lv_color.h ****         return 0;
 309:c:\projects\paindrain\arduinolcd\test\pain drain\libraries\lvgl\src\misc\lv_color.h ****     }
 310:c:\projects\paindrain\arduinolcd\test\pain drain\libraries\lvgl\src\misc\lv_color.h **** #elif LV_COLOR_DEPTH == 16
 311:c:\projects\paindrain\arduinolcd\test\pain drain\libraries\lvgl\src\misc\lv_color.h ****     if((LV_COLOR_GET_R(color) & 0x10) || (LV_COLOR_GET_G(color) & 0x20) || (LV_COLOR_GET_B(color) &
 312:c:\projects\paindrain\arduinolcd\test\pain drain\libraries\lvgl\src\misc\lv_color.h ****         return 1;
 313:c:\projects\paindrain\arduinolcd\test\pain drain\libraries\lvgl\src\misc\lv_color.h ****     }
 314:c:\projects\paindrain\arduinolcd\test\pain drain\libraries\lvgl\src\misc\lv_color.h ****     else {
 315:c:\projects\paindrain\arduinolcd\test\pain drain\libraries\lvgl\src\misc\lv_color.h ****         return 0;
 316:c:\projects\paindrain\arduinolcd\test\pain drain\libraries\lvgl\src\misc\lv_color.h ****     }
 317:c:\projects\paindrain\arduinolcd\test\pain drain\libraries\lvgl\src\misc\lv_color.h **** #elif LV_COLOR_DEPTH == 32
 318:c:\projects\paindrain\arduinolcd\test\pain drain\libraries\lvgl\src\misc\lv_color.h ****     if((LV_COLOR_GET_R(color) & 0x80) || (LV_COLOR_GET_G(color) & 0x80) || (LV_COLOR_GET_B(color) &
 319:c:\projects\paindrain\arduinolcd\test\pain drain\libraries\lvgl\src\misc\lv_color.h ****         return 1;
 320:c:\projects\paindrain\arduinolcd\test\pain drain\libraries\lvgl\src\misc\lv_color.h ****     }
 321:c:\projects\paindrain\arduinolcd\test\pain drain\libraries\lvgl\src\misc\lv_color.h ****     else {
 322:c:\projects\paindrain\arduinolcd\test\pain drain\libraries\lvgl\src\misc\lv_color.h ****         return 0;
 323:c:\projects\paindrain\arduinolcd\test\pain drain\libraries\lvgl\src\misc\lv_color.h ****     }
 324:c:\projects\paindrain\arduinolcd\test\pain drain\libraries\lvgl\src\misc\lv_color.h **** #endif
 325:c:\projects\paindrain\arduinolcd\test\pain drain\libraries\lvgl\src\misc\lv_color.h **** }
 326:c:\projects\paindrain\arduinolcd\test\pain drain\libraries\lvgl\src\misc\lv_color.h **** 
 327:c:\projects\paindrain\arduinolcd\test\pain drain\libraries\lvgl\src\misc\lv_color.h **** static inline uint8_t lv_color_to8(lv_color_t color)
 328:c:\projects\paindrain\arduinolcd\test\pain drain\libraries\lvgl\src\misc\lv_color.h **** {
 329:c:\projects\paindrain\arduinolcd\test\pain drain\libraries\lvgl\src\misc\lv_color.h **** #if LV_COLOR_DEPTH == 1
 330:c:\projects\paindrain\arduinolcd\test\pain drain\libraries\lvgl\src\misc\lv_color.h ****     if(color.full == 0)
 331:c:\projects\paindrain\arduinolcd\test\pain drain\libraries\lvgl\src\misc\lv_color.h ****         return 0;
 332:c:\projects\paindrain\arduinolcd\test\pain drain\libraries\lvgl\src\misc\lv_color.h ****     else
 333:c:\projects\paindrain\arduinolcd\test\pain drain\libraries\lvgl\src\misc\lv_color.h ****         return 0xFF;
 334:c:\projects\paindrain\arduinolcd\test\pain drain\libraries\lvgl\src\misc\lv_color.h **** #elif LV_COLOR_DEPTH == 8
 335:c:\projects\paindrain\arduinolcd\test\pain drain\libraries\lvgl\src\misc\lv_color.h ****     return color.full;
 336:c:\projects\paindrain\arduinolcd\test\pain drain\libraries\lvgl\src\misc\lv_color.h **** #elif LV_COLOR_DEPTH == 16
 337:c:\projects\paindrain\arduinolcd\test\pain drain\libraries\lvgl\src\misc\lv_color.h ****     lv_color8_t ret;
 338:c:\projects\paindrain\arduinolcd\test\pain drain\libraries\lvgl\src\misc\lv_color.h ****     LV_COLOR_SET_R8(ret, LV_COLOR_GET_R(color) >> 2); /*5 - 3  = 2*/
 339:c:\projects\paindrain\arduinolcd\test\pain drain\libraries\lvgl\src\misc\lv_color.h ****     LV_COLOR_SET_G8(ret, LV_COLOR_GET_G(color) >> 3); /*6 - 3  = 3*/
 340:c:\projects\paindrain\arduinolcd\test\pain drain\libraries\lvgl\src\misc\lv_color.h ****     LV_COLOR_SET_B8(ret, LV_COLOR_GET_B(color) >> 3); /*5 - 2  = 3*/
 341:c:\projects\paindrain\arduinolcd\test\pain drain\libraries\lvgl\src\misc\lv_color.h ****     return ret.full;
 342:c:\projects\paindrain\arduinolcd\test\pain drain\libraries\lvgl\src\misc\lv_color.h **** #elif LV_COLOR_DEPTH == 32
 343:c:\projects\paindrain\arduinolcd\test\pain drain\libraries\lvgl\src\misc\lv_color.h ****     lv_color8_t ret;
 344:c:\projects\paindrain\arduinolcd\test\pain drain\libraries\lvgl\src\misc\lv_color.h ****     LV_COLOR_SET_R8(ret, LV_COLOR_GET_R(color) >> 5); /*8 - 3  = 5*/
 345:c:\projects\paindrain\arduinolcd\test\pain drain\libraries\lvgl\src\misc\lv_color.h ****     LV_COLOR_SET_G8(ret, LV_COLOR_GET_G(color) >> 5); /*8 - 3  = 5*/
 346:c:\projects\paindrain\arduinolcd\test\pain drain\libraries\lvgl\src\misc\lv_color.h ****     LV_COLOR_SET_B8(ret, LV_COLOR_GET_B(color) >> 6); /*8 - 2  = 6*/
 347:c:\projects\paindrain\arduinolcd\test\pain drain\libraries\lvgl\src\misc\lv_color.h ****     return ret.full;
 348:c:\projects\paindrain\arduinolcd\test\pain drain\libraries\lvgl\src\misc\lv_color.h **** #endif
 349:c:\projects\paindrain\arduinolcd\test\pain drain\libraries\lvgl\src\misc\lv_color.h **** }
 350:c:\projects\paindrain\arduinolcd\test\pain drain\libraries\lvgl\src\misc\lv_color.h **** 
 351:c:\projects\paindrain\arduinolcd\test\pain drain\libraries\lvgl\src\misc\lv_color.h **** static inline uint16_t lv_color_to16(lv_color_t color)
 352:c:\projects\paindrain\arduinolcd\test\pain drain\libraries\lvgl\src\misc\lv_color.h **** {
 353:c:\projects\paindrain\arduinolcd\test\pain drain\libraries\lvgl\src\misc\lv_color.h **** #if LV_COLOR_DEPTH == 1
 354:c:\projects\paindrain\arduinolcd\test\pain drain\libraries\lvgl\src\misc\lv_color.h ****     if(color.full == 0)
 355:c:\projects\paindrain\arduinolcd\test\pain drain\libraries\lvgl\src\misc\lv_color.h ****         return 0;
 356:c:\projects\paindrain\arduinolcd\test\pain drain\libraries\lvgl\src\misc\lv_color.h ****     else
 357:c:\projects\paindrain\arduinolcd\test\pain drain\libraries\lvgl\src\misc\lv_color.h ****         return 0xFFFF;
 358:c:\projects\paindrain\arduinolcd\test\pain drain\libraries\lvgl\src\misc\lv_color.h **** #elif LV_COLOR_DEPTH == 8
 359:c:\projects\paindrain\arduinolcd\test\pain drain\libraries\lvgl\src\misc\lv_color.h ****     lv_color16_t ret;
 360:c:\projects\paindrain\arduinolcd\test\pain drain\libraries\lvgl\src\misc\lv_color.h ****     LV_COLOR_SET_R16(ret, LV_COLOR_GET_R(color) * 4);  /*(2^5 - 1)/(2^3 - 1) = 31/7 = 4*/
 361:c:\projects\paindrain\arduinolcd\test\pain drain\libraries\lvgl\src\misc\lv_color.h ****     LV_COLOR_SET_G16(ret, LV_COLOR_GET_G(color) * 9);  /*(2^6 - 1)/(2^3 - 1) = 63/7 = 9*/
 362:c:\projects\paindrain\arduinolcd\test\pain drain\libraries\lvgl\src\misc\lv_color.h ****     LV_COLOR_SET_B16(ret, LV_COLOR_GET_B(color) * 10); /*(2^5 - 1)/(2^2 - 1) = 31/3 = 10*/
 363:c:\projects\paindrain\arduinolcd\test\pain drain\libraries\lvgl\src\misc\lv_color.h ****     return ret.full;
 364:c:\projects\paindrain\arduinolcd\test\pain drain\libraries\lvgl\src\misc\lv_color.h **** #elif LV_COLOR_DEPTH == 16
ARM GAS  C:\Users\haske\AppData\Local\Temp\ccydbpJh.s 			page 43


 365:c:\projects\paindrain\arduinolcd\test\pain drain\libraries\lvgl\src\misc\lv_color.h ****     return color.full;
 366:c:\projects\paindrain\arduinolcd\test\pain drain\libraries\lvgl\src\misc\lv_color.h **** #elif LV_COLOR_DEPTH == 32
 367:c:\projects\paindrain\arduinolcd\test\pain drain\libraries\lvgl\src\misc\lv_color.h ****     lv_color16_t ret;
 368:c:\projects\paindrain\arduinolcd\test\pain drain\libraries\lvgl\src\misc\lv_color.h ****     LV_COLOR_SET_R16(ret, LV_COLOR_GET_R(color) >> 3); /*8 - 5  = 3*/
 369:c:\projects\paindrain\arduinolcd\test\pain drain\libraries\lvgl\src\misc\lv_color.h ****     LV_COLOR_SET_G16(ret, LV_COLOR_GET_G(color) >> 2); /*8 - 6  = 2*/
 370:c:\projects\paindrain\arduinolcd\test\pain drain\libraries\lvgl\src\misc\lv_color.h ****     LV_COLOR_SET_B16(ret, LV_COLOR_GET_B(color) >> 3); /*8 - 5  = 3*/
 371:c:\projects\paindrain\arduinolcd\test\pain drain\libraries\lvgl\src\misc\lv_color.h ****     return ret.full;
 372:c:\projects\paindrain\arduinolcd\test\pain drain\libraries\lvgl\src\misc\lv_color.h **** #endif
 373:c:\projects\paindrain\arduinolcd\test\pain drain\libraries\lvgl\src\misc\lv_color.h **** }
 374:c:\projects\paindrain\arduinolcd\test\pain drain\libraries\lvgl\src\misc\lv_color.h **** 
 375:c:\projects\paindrain\arduinolcd\test\pain drain\libraries\lvgl\src\misc\lv_color.h **** static inline uint32_t lv_color_to32(lv_color_t color)
 376:c:\projects\paindrain\arduinolcd\test\pain drain\libraries\lvgl\src\misc\lv_color.h **** {
 377:c:\projects\paindrain\arduinolcd\test\pain drain\libraries\lvgl\src\misc\lv_color.h **** #if LV_COLOR_DEPTH == 1
 378:c:\projects\paindrain\arduinolcd\test\pain drain\libraries\lvgl\src\misc\lv_color.h ****     if(color.full == 0)
 379:c:\projects\paindrain\arduinolcd\test\pain drain\libraries\lvgl\src\misc\lv_color.h ****         return 0xFF000000;
 380:c:\projects\paindrain\arduinolcd\test\pain drain\libraries\lvgl\src\misc\lv_color.h ****     else
 381:c:\projects\paindrain\arduinolcd\test\pain drain\libraries\lvgl\src\misc\lv_color.h ****         return 0xFFFFFFFF;
 382:c:\projects\paindrain\arduinolcd\test\pain drain\libraries\lvgl\src\misc\lv_color.h **** #elif LV_COLOR_DEPTH == 8
 383:c:\projects\paindrain\arduinolcd\test\pain drain\libraries\lvgl\src\misc\lv_color.h ****     lv_color32_t ret;
 384:c:\projects\paindrain\arduinolcd\test\pain drain\libraries\lvgl\src\misc\lv_color.h ****     LV_COLOR_SET_R32(ret, LV_COLOR_GET_R(color) * 36); /*(2^8 - 1)/(2^3 - 1) = 255/7 = 36*/
 385:c:\projects\paindrain\arduinolcd\test\pain drain\libraries\lvgl\src\misc\lv_color.h ****     LV_COLOR_SET_G32(ret, LV_COLOR_GET_G(color) * 36); /*(2^8 - 1)/(2^3 - 1) = 255/7 = 36*/
 386:c:\projects\paindrain\arduinolcd\test\pain drain\libraries\lvgl\src\misc\lv_color.h ****     LV_COLOR_SET_B32(ret, LV_COLOR_GET_B(color) * 85); /*(2^8 - 1)/(2^2 - 1) = 255/3 = 85*/
 387:c:\projects\paindrain\arduinolcd\test\pain drain\libraries\lvgl\src\misc\lv_color.h ****     LV_COLOR_SET_A32(ret, 0xFF);
 388:c:\projects\paindrain\arduinolcd\test\pain drain\libraries\lvgl\src\misc\lv_color.h ****     return ret.full;
 389:c:\projects\paindrain\arduinolcd\test\pain drain\libraries\lvgl\src\misc\lv_color.h **** #elif LV_COLOR_DEPTH == 16
 390:c:\projects\paindrain\arduinolcd\test\pain drain\libraries\lvgl\src\misc\lv_color.h ****     /**
 391:c:\projects\paindrain\arduinolcd\test\pain drain\libraries\lvgl\src\misc\lv_color.h ****      * The floating point math for conversion is:
 392:c:\projects\paindrain\arduinolcd\test\pain drain\libraries\lvgl\src\misc\lv_color.h ****      *  valueto = valuefrom * ( (2^bitsto - 1) / (float)(2^bitsfrom - 1) )
 393:c:\projects\paindrain\arduinolcd\test\pain drain\libraries\lvgl\src\misc\lv_color.h ****      * The faster integer math for conversion is:
 394:c:\projects\paindrain\arduinolcd\test\pain drain\libraries\lvgl\src\misc\lv_color.h ****      *  valueto = ( valuefrom * multiplier + adder ) >> divisor
 395:c:\projects\paindrain\arduinolcd\test\pain drain\libraries\lvgl\src\misc\lv_color.h ****      *   multiplier = FLOOR( ( (2^bitsto - 1) << divisor ) / (float)(2^bitsfrom - 1) )
 396:c:\projects\paindrain\arduinolcd\test\pain drain\libraries\lvgl\src\misc\lv_color.h ****      *
 397:c:\projects\paindrain\arduinolcd\test\pain drain\libraries\lvgl\src\misc\lv_color.h ****      * Find the first divisor where ( adder >> divisor ) <= 0
 398:c:\projects\paindrain\arduinolcd\test\pain drain\libraries\lvgl\src\misc\lv_color.h ****      *
 399:c:\projects\paindrain\arduinolcd\test\pain drain\libraries\lvgl\src\misc\lv_color.h ****      * 5-bit to 8-bit: ( 31 * multiplier + adder ) >> divisor = 255
 400:c:\projects\paindrain\arduinolcd\test\pain drain\libraries\lvgl\src\misc\lv_color.h ****      * divisor  multiplier  adder  min (0)  max (31)
 401:c:\projects\paindrain\arduinolcd\test\pain drain\libraries\lvgl\src\misc\lv_color.h ****      *       0           8      7        7       255
 402:c:\projects\paindrain\arduinolcd\test\pain drain\libraries\lvgl\src\misc\lv_color.h ****      *       1          16     14        7       255
 403:c:\projects\paindrain\arduinolcd\test\pain drain\libraries\lvgl\src\misc\lv_color.h ****      *       2          32     28        7       255
 404:c:\projects\paindrain\arduinolcd\test\pain drain\libraries\lvgl\src\misc\lv_color.h ****      *       3          65     25        3       255
 405:c:\projects\paindrain\arduinolcd\test\pain drain\libraries\lvgl\src\misc\lv_color.h ****      *       4         131     19        1       255
 406:c:\projects\paindrain\arduinolcd\test\pain drain\libraries\lvgl\src\misc\lv_color.h ****      *       5         263      7        0       255
 407:c:\projects\paindrain\arduinolcd\test\pain drain\libraries\lvgl\src\misc\lv_color.h ****      *
 408:c:\projects\paindrain\arduinolcd\test\pain drain\libraries\lvgl\src\misc\lv_color.h ****      * 6-bit to 8-bit: 255 = ( 63 * multiplier + adder ) >> divisor
 409:c:\projects\paindrain\arduinolcd\test\pain drain\libraries\lvgl\src\misc\lv_color.h ****      * divisor  multiplier  adder  min (0)  max (63)
 410:c:\projects\paindrain\arduinolcd\test\pain drain\libraries\lvgl\src\misc\lv_color.h ****      *       0           4      3        3       255
 411:c:\projects\paindrain\arduinolcd\test\pain drain\libraries\lvgl\src\misc\lv_color.h ****      *       1           8      6        3       255
 412:c:\projects\paindrain\arduinolcd\test\pain drain\libraries\lvgl\src\misc\lv_color.h ****      *       2          16     12        3       255
 413:c:\projects\paindrain\arduinolcd\test\pain drain\libraries\lvgl\src\misc\lv_color.h ****      *       3          32     24        3       255
 414:c:\projects\paindrain\arduinolcd\test\pain drain\libraries\lvgl\src\misc\lv_color.h ****      *       4          64     48        3       255
 415:c:\projects\paindrain\arduinolcd\test\pain drain\libraries\lvgl\src\misc\lv_color.h ****      *       5         129     33        1       255
 416:c:\projects\paindrain\arduinolcd\test\pain drain\libraries\lvgl\src\misc\lv_color.h ****      *       6         259      3        0       255
 417:c:\projects\paindrain\arduinolcd\test\pain drain\libraries\lvgl\src\misc\lv_color.h ****      */
 418:c:\projects\paindrain\arduinolcd\test\pain drain\libraries\lvgl\src\misc\lv_color.h **** 
 419:c:\projects\paindrain\arduinolcd\test\pain drain\libraries\lvgl\src\misc\lv_color.h ****     lv_color32_t ret;
 420:c:\projects\paindrain\arduinolcd\test\pain drain\libraries\lvgl\src\misc\lv_color.h ****     LV_COLOR_SET_R32(ret, (LV_COLOR_GET_R(color) * 263 + 7) >> 5);
 421:c:\projects\paindrain\arduinolcd\test\pain drain\libraries\lvgl\src\misc\lv_color.h ****     LV_COLOR_SET_G32(ret, (LV_COLOR_GET_G(color) * 259 + 3) >> 6);
ARM GAS  C:\Users\haske\AppData\Local\Temp\ccydbpJh.s 			page 44


 422:c:\projects\paindrain\arduinolcd\test\pain drain\libraries\lvgl\src\misc\lv_color.h ****     LV_COLOR_SET_B32(ret, (LV_COLOR_GET_B(color) * 263 + 7) >> 5);
 423:c:\projects\paindrain\arduinolcd\test\pain drain\libraries\lvgl\src\misc\lv_color.h ****     LV_COLOR_SET_A32(ret, 0xFF);
 424:c:\projects\paindrain\arduinolcd\test\pain drain\libraries\lvgl\src\misc\lv_color.h ****     return ret.full;
 425:c:\projects\paindrain\arduinolcd\test\pain drain\libraries\lvgl\src\misc\lv_color.h **** #elif LV_COLOR_DEPTH == 32
 426:c:\projects\paindrain\arduinolcd\test\pain drain\libraries\lvgl\src\misc\lv_color.h ****     return color.full;
 427:c:\projects\paindrain\arduinolcd\test\pain drain\libraries\lvgl\src\misc\lv_color.h **** #endif
 428:c:\projects\paindrain\arduinolcd\test\pain drain\libraries\lvgl\src\misc\lv_color.h **** }
 429:c:\projects\paindrain\arduinolcd\test\pain drain\libraries\lvgl\src\misc\lv_color.h **** 
 430:c:\projects\paindrain\arduinolcd\test\pain drain\libraries\lvgl\src\misc\lv_color.h **** //! @cond Doxygen_Suppress
 431:c:\projects\paindrain\arduinolcd\test\pain drain\libraries\lvgl\src\misc\lv_color.h **** 
 432:c:\projects\paindrain\arduinolcd\test\pain drain\libraries\lvgl\src\misc\lv_color.h **** /**
 433:c:\projects\paindrain\arduinolcd\test\pain drain\libraries\lvgl\src\misc\lv_color.h ****  * Mix two colors with a given ratio.
 434:c:\projects\paindrain\arduinolcd\test\pain drain\libraries\lvgl\src\misc\lv_color.h ****  * @param c1 the first color to mix (usually the foreground)
 435:c:\projects\paindrain\arduinolcd\test\pain drain\libraries\lvgl\src\misc\lv_color.h ****  * @param c2 the second color to mix (usually the background)
 436:c:\projects\paindrain\arduinolcd\test\pain drain\libraries\lvgl\src\misc\lv_color.h ****  * @param mix The ratio of the colors. 0: full `c2`, 255: full `c1`, 127: half `c1` and half`c2`
 437:c:\projects\paindrain\arduinolcd\test\pain drain\libraries\lvgl\src\misc\lv_color.h ****  * @return the mixed color
 438:c:\projects\paindrain\arduinolcd\test\pain drain\libraries\lvgl\src\misc\lv_color.h ****  */
 439:c:\projects\paindrain\arduinolcd\test\pain drain\libraries\lvgl\src\misc\lv_color.h **** LV_ATTRIBUTE_FAST_MEM static inline lv_color_t lv_color_mix(lv_color_t c1, lv_color_t c2, uint8_t m
 440:c:\projects\paindrain\arduinolcd\test\pain drain\libraries\lvgl\src\misc\lv_color.h **** {
 441:c:\projects\paindrain\arduinolcd\test\pain drain\libraries\lvgl\src\misc\lv_color.h ****     lv_color_t ret;
 442:c:\projects\paindrain\arduinolcd\test\pain drain\libraries\lvgl\src\misc\lv_color.h **** 
 443:c:\projects\paindrain\arduinolcd\test\pain drain\libraries\lvgl\src\misc\lv_color.h **** #if LV_COLOR_DEPTH == 16 && LV_COLOR_16_SWAP == 0 && LV_COLOR_MIX_ROUND_OFS == 0
 444:c:\projects\paindrain\arduinolcd\test\pain drain\libraries\lvgl\src\misc\lv_color.h ****     /*Source: https://stackoverflow.com/a/50012418/1999969*/
 445:c:\projects\paindrain\arduinolcd\test\pain drain\libraries\lvgl\src\misc\lv_color.h ****     mix = (uint32_t)((uint32_t)mix + 4) >> 3;
 882              		.loc 3 445 0
 883 0062 0432     		adds	r2, r2, #4
 884              	.LVL134:
 885 0064 D208     		lsrs	r2, r2, #3
 886              	.LVL135:
 446:c:\projects\paindrain\arduinolcd\test\pain drain\libraries\lvgl\src\misc\lv_color.h ****     uint32_t bg = (uint32_t)((uint32_t)c2.full | ((uint32_t)c2.full << 16)) &
 887              		.loc 3 446 0
 888 0066 8CB2     		uxth	r4, r1
 889 0068 2004     		lsls	r0, r4, #16
 890 006a 0443     		orrs	r4, r0
 891 006c 094B     		ldr	r3, .L61+4
 892 006e 1C40     		ands	r4, r3
 893              	.LVL136:
 447:c:\projects\paindrain\arduinolcd\test\pain drain\libraries\lvgl\src\misc\lv_color.h ****                   0x7E0F81F; /*0b00000111111000001111100000011111*/
 448:c:\projects\paindrain\arduinolcd\test\pain drain\libraries\lvgl\src\misc\lv_color.h ****     uint32_t fg = (uint32_t)((uint32_t)c1.full | ((uint32_t)c1.full << 16)) & 0x7E0F81F;
 894              		.loc 3 448 0
 895 0070 ADB2     		uxth	r5, r5
 896 0072 2E04     		lsls	r6, r5, #16
 897 0074 3543     		orrs	r5, r6
 898 0076 1D40     		ands	r5, r3
 899              	.LVL137:
 449:c:\projects\paindrain\arduinolcd\test\pain drain\libraries\lvgl\src\misc\lv_color.h ****     uint32_t result = ((((fg - bg) * mix) >> 5) + bg) & 0x7E0F81F;
 900              		.loc 3 449 0
 901 0078 2D1B     		subs	r5, r5, r4
 902              	.LVL138:
 903 007a FF20     		movs	r0, #255
 904 007c 0240     		ands	r2, r0
 905              	.LVL139:
 906 007e 6A43     		muls	r2, r5
 907 0080 5209     		lsrs	r2, r2, #5
 908 0082 A018     		adds	r0, r4, r2
 909 0084 0340     		ands	r3, r0
 910              	.LVL140:
ARM GAS  C:\Users\haske\AppData\Local\Temp\ccydbpJh.s 			page 45


 450:c:\projects\paindrain\arduinolcd\test\pain drain\libraries\lvgl\src\misc\lv_color.h ****     ret.full = (uint16_t)((result >> 16) | result);
 911              		.loc 3 450 0
 912 0086 190C     		lsrs	r1, r3, #16
 913              	.LVL141:
 914 0088 1943     		orrs	r1, r3
 915 008a 0800     		movs	r0, r1
 916              	.LVL142:
 917              	.L56:
 918              	.LBE112:
 919              	.LBE111:
 994:..\..\..\arduinoLCD\test\Pain Drain\libraries\lvgl\src\draw\sw/lv_draw_sw_blend.c **** 
 995:..\..\..\arduinoLCD\test\Pain Drain\libraries\lvgl\src\draw\sw/lv_draw_sw_blend.c ****     return lv_color_mix(fg, bg, opa);
 996:..\..\..\arduinoLCD\test\Pain Drain\libraries\lvgl\src\draw\sw/lv_draw_sw_blend.c **** }
 920              		.loc 1 996 0
 921              		@ sp needed
 922 008c 70BD     		pop	{r4, r5, r6, pc}
 923              	.L62:
 924 008e C046     		.align	2
 925              	.L61:
 926 0090 1FF8FFFF 		.word	-2017
 927 0094 1FF8E007 		.word	132184095
 928              		.cfi_endproc
 929              	.LFE167:
 930              		.size	color_blend_true_color_additive, .-color_blend_true_color_additive
 931              		.section	.text.color_blend_true_color_subtractive,"ax",%progbits
 932              		.align	2
 933              		.code	16
 934              		.thumb_func
 935              		.type	color_blend_true_color_subtractive, %function
 936              	color_blend_true_color_subtractive:
 937              	.LFB168:
 997:..\..\..\arduinoLCD\test\Pain Drain\libraries\lvgl\src\draw\sw/lv_draw_sw_blend.c **** 
 998:..\..\..\arduinoLCD\test\Pain Drain\libraries\lvgl\src\draw\sw/lv_draw_sw_blend.c **** static inline lv_color_t color_blend_true_color_subtractive(lv_color_t fg, lv_color_t bg, lv_opa_t 
 999:..\..\..\arduinoLCD\test\Pain Drain\libraries\lvgl\src\draw\sw/lv_draw_sw_blend.c **** {
 938              		.loc 1 999 0
 939              		.cfi_startproc
 940              		@ args = 0, pretend = 0, frame = 0
 941              		@ frame_needed = 0, uses_anonymous_args = 0
 942              	.LVL143:
 943 0000 70B5     		push	{r4, r5, r6, lr}
 944              		.cfi_def_cfa_offset 16
 945              		.cfi_offset 4, -16
 946              		.cfi_offset 5, -12
 947              		.cfi_offset 6, -8
 948              		.cfi_offset 14, -4
1000:..\..\..\arduinoLCD\test\Pain Drain\libraries\lvgl\src\draw\sw/lv_draw_sw_blend.c ****     if(opa <= LV_OPA_MIN) return bg;
 949              		.loc 1 1000 0
 950 0002 022A     		cmp	r2, #2
 951 0004 01D8     		bhi	.L64
 952              		.loc 1 1000 0 is_stmt 0 discriminator 1
 953 0006 081C     		adds	r0, r1, #0
 954              	.LVL144:
 955 0008 3DE0     		b	.L65
 956              	.LVL145:
 957              	.L64:
1001:..\..\..\arduinoLCD\test\Pain Drain\libraries\lvgl\src\draw\sw/lv_draw_sw_blend.c **** 
1002:..\..\..\arduinoLCD\test\Pain Drain\libraries\lvgl\src\draw\sw/lv_draw_sw_blend.c ****     int32_t tmp;
ARM GAS  C:\Users\haske\AppData\Local\Temp\ccydbpJh.s 			page 46


1003:..\..\..\arduinoLCD\test\Pain Drain\libraries\lvgl\src\draw\sw/lv_draw_sw_blend.c ****     tmp = bg.ch.red - fg.ch.red;
 958              		.loc 1 1003 0 is_stmt 1
 959 000a 0C04     		lsls	r4, r1, #16
 960 000c E50E     		lsrs	r5, r4, #27
 961 000e 0404     		lsls	r4, r0, #16
 962 0010 E40E     		lsrs	r4, r4, #27
 963 0012 2C1B     		subs	r4, r5, r4
1004:..\..\..\arduinoLCD\test\Pain Drain\libraries\lvgl\src\draw\sw/lv_draw_sw_blend.c ****     fg.ch.red = LV_MAX(tmp, 0);
 964              		.loc 1 1004 0
 965 0014 00D5     		bpl	.L66
 966 0016 0024     		movs	r4, #0
 967              	.L66:
 968 0018 E4B2     		uxtb	r4, r4
 969 001a E402     		lsls	r4, r4, #11
 970 001c 4305     		lsls	r3, r0, #21
 971 001e 5B0D     		lsrs	r3, r3, #21
 972 0020 2343     		orrs	r3, r4
1005:..\..\..\arduinoLCD\test\Pain Drain\libraries\lvgl\src\draw\sw/lv_draw_sw_blend.c **** 
1006:..\..\..\arduinoLCD\test\Pain Drain\libraries\lvgl\src\draw\sw/lv_draw_sw_blend.c **** #if LV_COLOR_16_SWAP == 0
1007:..\..\..\arduinoLCD\test\Pain Drain\libraries\lvgl\src\draw\sw/lv_draw_sw_blend.c ****     tmp = bg.ch.green - fg.ch.green;
 973              		.loc 1 1007 0
 974 0022 4C05     		lsls	r4, r1, #21
 975 0024 A00E     		lsrs	r0, r4, #26
 976              	.LVL146:
 977 0026 5C05     		lsls	r4, r3, #21
 978 0028 A40E     		lsrs	r4, r4, #26
 979 002a 041B     		subs	r4, r0, r4
1008:..\..\..\arduinoLCD\test\Pain Drain\libraries\lvgl\src\draw\sw/lv_draw_sw_blend.c ****     fg.ch.green = LV_MAX(tmp, 0);
 980              		.loc 1 1008 0
 981 002c 00D5     		bpl	.L67
 982 002e 0024     		movs	r4, #0
 983              	.L67:
 984 0030 3F20     		movs	r0, #63
 985 0032 0440     		ands	r4, r0
 986 0034 6401     		lsls	r4, r4, #5
 987 0036 1448     		ldr	r0, .L70
 988 0038 0340     		ands	r3, r0
 989 003a 2343     		orrs	r3, r4
1009:..\..\..\arduinoLCD\test\Pain Drain\libraries\lvgl\src\draw\sw/lv_draw_sw_blend.c **** #else
1010:..\..\..\arduinoLCD\test\Pain Drain\libraries\lvgl\src\draw\sw/lv_draw_sw_blend.c ****     tmp = (bg.ch.green_h << 3) + bg.ch.green_l + (fg.ch.green_h << 3) + fg.ch.green_l;
1011:..\..\..\arduinoLCD\test\Pain Drain\libraries\lvgl\src\draw\sw/lv_draw_sw_blend.c ****     tmp = LV_MAX(tmp, 0);
1012:..\..\..\arduinoLCD\test\Pain Drain\libraries\lvgl\src\draw\sw/lv_draw_sw_blend.c ****     fg.ch.green_h = tmp >> 3;
1013:..\..\..\arduinoLCD\test\Pain Drain\libraries\lvgl\src\draw\sw/lv_draw_sw_blend.c ****     fg.ch.green_l = tmp & 0x7;
1014:..\..\..\arduinoLCD\test\Pain Drain\libraries\lvgl\src\draw\sw/lv_draw_sw_blend.c **** #endif
1015:..\..\..\arduinoLCD\test\Pain Drain\libraries\lvgl\src\draw\sw/lv_draw_sw_blend.c **** 
1016:..\..\..\arduinoLCD\test\Pain Drain\libraries\lvgl\src\draw\sw/lv_draw_sw_blend.c ****     tmp = bg.ch.blue - fg.ch.blue;
 990              		.loc 1 1016 0
 991 003c C806     		lsls	r0, r1, #27
 992 003e C40E     		lsrs	r4, r0, #27
 993 0040 D806     		lsls	r0, r3, #27
 994 0042 C00E     		lsrs	r0, r0, #27
 995 0044 201A     		subs	r0, r4, r0
1017:..\..\..\arduinoLCD\test\Pain Drain\libraries\lvgl\src\draw\sw/lv_draw_sw_blend.c ****     fg.ch.blue = LV_MAX(tmp, 0);
 996              		.loc 1 1017 0
 997 0046 00D5     		bpl	.L68
 998 0048 0020     		movs	r0, #0
 999              	.L68:
ARM GAS  C:\Users\haske\AppData\Local\Temp\ccydbpJh.s 			page 47


 1000 004a 1F25     		movs	r5, #31
 1001 004c 2840     		ands	r0, r5
 1002 004e 1F24     		movs	r4, #31
 1003 0050 A343     		bics	r3, r4
 1004 0052 0343     		orrs	r3, r0
 1005 0054 1D00     		movs	r5, r3
 1006 0056 181C     		adds	r0, r3, #0
1018:..\..\..\arduinoLCD\test\Pain Drain\libraries\lvgl\src\draw\sw/lv_draw_sw_blend.c **** 
1019:..\..\..\arduinoLCD\test\Pain Drain\libraries\lvgl\src\draw\sw/lv_draw_sw_blend.c ****     if(opa == LV_OPA_COVER) return fg;
 1007              		.loc 1 1019 0
 1008 0058 FF2A     		cmp	r2, #255
 1009 005a 14D0     		beq	.L65
 1010              	.LVL147:
 1011              	.LBB113:
 1012              	.LBB114:
 445:c:\projects\paindrain\arduinolcd\test\pain drain\libraries\lvgl\src\misc\lv_color.h ****     uint32_t bg = (uint32_t)((uint32_t)c2.full | ((uint32_t)c2.full << 16)) &
 1013              		.loc 3 445 0
 1014 005c 0432     		adds	r2, r2, #4
 1015              	.LVL148:
 1016 005e D208     		lsrs	r2, r2, #3
 1017              	.LVL149:
 446:c:\projects\paindrain\arduinolcd\test\pain drain\libraries\lvgl\src\misc\lv_color.h ****                   0x7E0F81F; /*0b00000111111000001111100000011111*/
 1018              		.loc 3 446 0
 1019 0060 8CB2     		uxth	r4, r1
 1020 0062 2004     		lsls	r0, r4, #16
 1021 0064 0443     		orrs	r4, r0
 1022 0066 094B     		ldr	r3, .L70+4
 1023 0068 1C40     		ands	r4, r3
 1024              	.LVL150:
 448:c:\projects\paindrain\arduinolcd\test\pain drain\libraries\lvgl\src\misc\lv_color.h ****     uint32_t result = ((((fg - bg) * mix) >> 5) + bg) & 0x7E0F81F;
 1025              		.loc 3 448 0
 1026 006a ADB2     		uxth	r5, r5
 1027 006c 2E04     		lsls	r6, r5, #16
 1028 006e 3543     		orrs	r5, r6
 1029 0070 1D40     		ands	r5, r3
 1030              	.LVL151:
 449:c:\projects\paindrain\arduinolcd\test\pain drain\libraries\lvgl\src\misc\lv_color.h ****     ret.full = (uint16_t)((result >> 16) | result);
 1031              		.loc 3 449 0
 1032 0072 2D1B     		subs	r5, r5, r4
 1033              	.LVL152:
 1034 0074 FF20     		movs	r0, #255
 1035 0076 0240     		ands	r2, r0
 1036              	.LVL153:
 1037 0078 6A43     		muls	r2, r5
 1038 007a 5209     		lsrs	r2, r2, #5
 1039 007c A018     		adds	r0, r4, r2
 1040 007e 0340     		ands	r3, r0
 1041              	.LVL154:
 1042              		.loc 3 450 0
 1043 0080 190C     		lsrs	r1, r3, #16
 1044              	.LVL155:
 1045 0082 1943     		orrs	r1, r3
 1046 0084 0800     		movs	r0, r1
 1047              	.LVL156:
 1048              	.L65:
 1049              	.LBE114:
 1050              	.LBE113:
ARM GAS  C:\Users\haske\AppData\Local\Temp\ccydbpJh.s 			page 48


1020:..\..\..\arduinoLCD\test\Pain Drain\libraries\lvgl\src\draw\sw/lv_draw_sw_blend.c **** 
1021:..\..\..\arduinoLCD\test\Pain Drain\libraries\lvgl\src\draw\sw/lv_draw_sw_blend.c ****     return lv_color_mix(fg, bg, opa);
1022:..\..\..\arduinoLCD\test\Pain Drain\libraries\lvgl\src\draw\sw/lv_draw_sw_blend.c **** }
 1051              		.loc 1 1022 0
 1052              		@ sp needed
 1053 0086 70BD     		pop	{r4, r5, r6, pc}
 1054              	.L71:
 1055              		.align	2
 1056              	.L70:
 1057 0088 1FF8FFFF 		.word	-2017
 1058 008c 1FF8E007 		.word	132184095
 1059              		.cfi_endproc
 1060              	.LFE168:
 1061              		.size	color_blend_true_color_subtractive, .-color_blend_true_color_subtractive
 1062              		.section	.text.color_blend_true_color_multiply,"ax",%progbits
 1063              		.align	2
 1064              		.code	16
 1065              		.thumb_func
 1066              		.type	color_blend_true_color_multiply, %function
 1067              	color_blend_true_color_multiply:
 1068              	.LFB169:
1023:..\..\..\arduinoLCD\test\Pain Drain\libraries\lvgl\src\draw\sw/lv_draw_sw_blend.c **** 
1024:..\..\..\arduinoLCD\test\Pain Drain\libraries\lvgl\src\draw\sw/lv_draw_sw_blend.c **** static inline lv_color_t color_blend_true_color_multiply(lv_color_t fg, lv_color_t bg, lv_opa_t opa
1025:..\..\..\arduinoLCD\test\Pain Drain\libraries\lvgl\src\draw\sw/lv_draw_sw_blend.c **** {
 1069              		.loc 1 1025 0
 1070              		.cfi_startproc
 1071              		@ args = 0, pretend = 0, frame = 0
 1072              		@ frame_needed = 0, uses_anonymous_args = 0
 1073              	.LVL157:
 1074 0000 70B5     		push	{r4, r5, r6, lr}
 1075              		.cfi_def_cfa_offset 16
 1076              		.cfi_offset 4, -16
 1077              		.cfi_offset 5, -12
 1078              		.cfi_offset 6, -8
 1079              		.cfi_offset 14, -4
1026:..\..\..\arduinoLCD\test\Pain Drain\libraries\lvgl\src\draw\sw/lv_draw_sw_blend.c ****     if(opa <= LV_OPA_MIN) return bg;
 1080              		.loc 1 1026 0
 1081 0002 022A     		cmp	r2, #2
 1082 0004 01D8     		bhi	.L73
 1083              		.loc 1 1026 0 is_stmt 0 discriminator 1
 1084 0006 081C     		adds	r0, r1, #0
 1085              	.LVL158:
 1086 0008 38E0     		b	.L74
 1087              	.LVL159:
 1088              	.L73:
1027:..\..\..\arduinoLCD\test\Pain Drain\libraries\lvgl\src\draw\sw/lv_draw_sw_blend.c **** 
1028:..\..\..\arduinoLCD\test\Pain Drain\libraries\lvgl\src\draw\sw/lv_draw_sw_blend.c **** #if LV_COLOR_DEPTH == 32
1029:..\..\..\arduinoLCD\test\Pain Drain\libraries\lvgl\src\draw\sw/lv_draw_sw_blend.c ****     fg.ch.red = (fg.ch.red * bg.ch.red) >> 8;
1030:..\..\..\arduinoLCD\test\Pain Drain\libraries\lvgl\src\draw\sw/lv_draw_sw_blend.c ****     fg.ch.green = (fg.ch.green * bg.ch.green) >> 8;
1031:..\..\..\arduinoLCD\test\Pain Drain\libraries\lvgl\src\draw\sw/lv_draw_sw_blend.c ****     fg.ch.blue = (fg.ch.blue * bg.ch.blue) >> 8;
1032:..\..\..\arduinoLCD\test\Pain Drain\libraries\lvgl\src\draw\sw/lv_draw_sw_blend.c **** #elif LV_COLOR_DEPTH == 16
1033:..\..\..\arduinoLCD\test\Pain Drain\libraries\lvgl\src\draw\sw/lv_draw_sw_blend.c ****     fg.ch.red = (fg.ch.red * bg.ch.red) >> 5;
 1089              		.loc 1 1033 0 is_stmt 1
 1090 000a 0404     		lsls	r4, r0, #16
 1091 000c E30E     		lsrs	r3, r4, #27
 1092 000e 0C04     		lsls	r4, r1, #16
 1093 0010 E40E     		lsrs	r4, r4, #27
ARM GAS  C:\Users\haske\AppData\Local\Temp\ccydbpJh.s 			page 49


 1094 0012 5C43     		muls	r4, r3
 1095 0014 6411     		asrs	r4, r4, #5
 1096 0016 E3B2     		uxtb	r3, r4
 1097 0018 DC02     		lsls	r4, r3, #11
 1098 001a 4305     		lsls	r3, r0, #21
 1099 001c 5B0D     		lsrs	r3, r3, #21
 1100 001e 2343     		orrs	r3, r4
1034:..\..\..\arduinoLCD\test\Pain Drain\libraries\lvgl\src\draw\sw/lv_draw_sw_blend.c ****     fg.ch.blue = (fg.ch.blue * bg.ch.blue) >> 5;
 1101              		.loc 1 1034 0
 1102 0020 D806     		lsls	r0, r3, #27
 1103              	.LVL160:
 1104 0022 C40E     		lsrs	r4, r0, #27
 1105 0024 C806     		lsls	r0, r1, #27
 1106 0026 C00E     		lsrs	r0, r0, #27
 1107 0028 6043     		muls	r0, r4
 1108 002a 4011     		asrs	r0, r0, #5
 1109 002c 1F24     		movs	r4, #31
 1110 002e 2040     		ands	r0, r4
 1111 0030 A343     		bics	r3, r4
 1112 0032 0343     		orrs	r3, r0
1035:..\..\..\arduinoLCD\test\Pain Drain\libraries\lvgl\src\draw\sw/lv_draw_sw_blend.c ****     LV_COLOR_SET_G(fg, (LV_COLOR_GET_G(fg) * LV_COLOR_GET_G(bg)) >> 6);
 1113              		.loc 1 1035 0
 1114 0034 5C05     		lsls	r4, r3, #21
 1115 0036 A00E     		lsrs	r0, r4, #26
 1116 0038 4C05     		lsls	r4, r1, #21
 1117 003a A40E     		lsrs	r4, r4, #26
 1118 003c 4443     		muls	r4, r0
 1119 003e A411     		asrs	r4, r4, #6
 1120 0040 3F20     		movs	r0, #63
 1121 0042 0440     		ands	r4, r0
 1122 0044 6401     		lsls	r4, r4, #5
 1123 0046 0E48     		ldr	r0, .L76
 1124 0048 0340     		ands	r3, r0
 1125 004a 2343     		orrs	r3, r4
 1126 004c 181C     		adds	r0, r3, #0
1036:..\..\..\arduinoLCD\test\Pain Drain\libraries\lvgl\src\draw\sw/lv_draw_sw_blend.c **** #elif LV_COLOR_DEPTH == 8
