ARM GAS  C:\Users\haske\AppData\Local\Temp\ccinSyc3.s 			page 1


   1              		.syntax unified
   2              		.cpu cortex-m0plus
   3              		.fpu softvfp
   4              		.eabi_attribute 20, 1
   5              		.eabi_attribute 21, 1
   6              		.eabi_attribute 23, 3
   7              		.eabi_attribute 24, 1
   8              		.eabi_attribute 25, 1
   9              		.eabi_attribute 26, 1
  10              		.eabi_attribute 30, 1
  11              		.eabi_attribute 34, 0
  12              		.eabi_attribute 18, 4
  13              		.thumb
  14              		.syntax unified
  15              		.file	"lv_draw_sw_arc.c"
  16              		.text
  17              	.Ltext0:
  18              		.cfi_sections	.debug_frame
  19              		.section	.text.draw_quarter_0,"ax",%progbits
  20              		.align	2
  21              		.code	16
  22              		.thumb_func
  23              		.type	draw_quarter_0, %function
  24              	draw_quarter_0:
  25              	.LFB57:
  26              		.file 1 "..\\..\\..\\arduinoLCD\\test\\Pain Drain\\libraries\\lvgl\\src\\draw\\sw\\lv_draw_sw_arc.
   1:..\..\..\arduinoLCD\test\Pain Drain\libraries\lvgl\src\draw\sw/lv_draw_sw_arc.c **** /**
   2:..\..\..\arduinoLCD\test\Pain Drain\libraries\lvgl\src\draw\sw/lv_draw_sw_arc.c ****  * @file lv_draw_arc.c
   3:..\..\..\arduinoLCD\test\Pain Drain\libraries\lvgl\src\draw\sw/lv_draw_sw_arc.c ****  *
   4:..\..\..\arduinoLCD\test\Pain Drain\libraries\lvgl\src\draw\sw/lv_draw_sw_arc.c ****  */
   5:..\..\..\arduinoLCD\test\Pain Drain\libraries\lvgl\src\draw\sw/lv_draw_sw_arc.c **** 
   6:..\..\..\arduinoLCD\test\Pain Drain\libraries\lvgl\src\draw\sw/lv_draw_sw_arc.c **** /*********************
   7:..\..\..\arduinoLCD\test\Pain Drain\libraries\lvgl\src\draw\sw/lv_draw_sw_arc.c ****  *      INCLUDES
   8:..\..\..\arduinoLCD\test\Pain Drain\libraries\lvgl\src\draw\sw/lv_draw_sw_arc.c ****  *********************/
   9:..\..\..\arduinoLCD\test\Pain Drain\libraries\lvgl\src\draw\sw/lv_draw_sw_arc.c **** #include "lv_draw_sw.h"
  10:..\..\..\arduinoLCD\test\Pain Drain\libraries\lvgl\src\draw\sw/lv_draw_sw_arc.c **** #include "../../misc/lv_math.h"
  11:..\..\..\arduinoLCD\test\Pain Drain\libraries\lvgl\src\draw\sw/lv_draw_sw_arc.c **** #include "../../misc/lv_log.h"
  12:..\..\..\arduinoLCD\test\Pain Drain\libraries\lvgl\src\draw\sw/lv_draw_sw_arc.c **** #include "../../misc/lv_mem.h"
  13:..\..\..\arduinoLCD\test\Pain Drain\libraries\lvgl\src\draw\sw/lv_draw_sw_arc.c **** #include "../lv_draw.h"
  14:..\..\..\arduinoLCD\test\Pain Drain\libraries\lvgl\src\draw\sw/lv_draw_sw_arc.c **** 
  15:..\..\..\arduinoLCD\test\Pain Drain\libraries\lvgl\src\draw\sw/lv_draw_sw_arc.c **** /*********************
  16:..\..\..\arduinoLCD\test\Pain Drain\libraries\lvgl\src\draw\sw/lv_draw_sw_arc.c ****  *      DEFINES
  17:..\..\..\arduinoLCD\test\Pain Drain\libraries\lvgl\src\draw\sw/lv_draw_sw_arc.c ****  *********************/
  18:..\..\..\arduinoLCD\test\Pain Drain\libraries\lvgl\src\draw\sw/lv_draw_sw_arc.c **** #define SPLIT_RADIUS_LIMIT 10  /*With radius greater than this the arc will drawn in quarters. A qu
  19:..\..\..\arduinoLCD\test\Pain Drain\libraries\lvgl\src\draw\sw/lv_draw_sw_arc.c **** #define SPLIT_ANGLE_GAP_LIMIT 60  /*With small gaps in the arc don't bother with splitting because 
  20:..\..\..\arduinoLCD\test\Pain Drain\libraries\lvgl\src\draw\sw/lv_draw_sw_arc.c **** 
  21:..\..\..\arduinoLCD\test\Pain Drain\libraries\lvgl\src\draw\sw/lv_draw_sw_arc.c **** /**********************
  22:..\..\..\arduinoLCD\test\Pain Drain\libraries\lvgl\src\draw\sw/lv_draw_sw_arc.c ****  *      TYPEDEFS
  23:..\..\..\arduinoLCD\test\Pain Drain\libraries\lvgl\src\draw\sw/lv_draw_sw_arc.c ****  **********************/
  24:..\..\..\arduinoLCD\test\Pain Drain\libraries\lvgl\src\draw\sw/lv_draw_sw_arc.c **** typedef struct {
  25:..\..\..\arduinoLCD\test\Pain Drain\libraries\lvgl\src\draw\sw/lv_draw_sw_arc.c ****     const lv_point_t * center;
  26:..\..\..\arduinoLCD\test\Pain Drain\libraries\lvgl\src\draw\sw/lv_draw_sw_arc.c ****     lv_coord_t radius;
  27:..\..\..\arduinoLCD\test\Pain Drain\libraries\lvgl\src\draw\sw/lv_draw_sw_arc.c ****     uint16_t start_angle;
  28:..\..\..\arduinoLCD\test\Pain Drain\libraries\lvgl\src\draw\sw/lv_draw_sw_arc.c ****     uint16_t end_angle;
  29:..\..\..\arduinoLCD\test\Pain Drain\libraries\lvgl\src\draw\sw/lv_draw_sw_arc.c ****     uint16_t start_quarter;
  30:..\..\..\arduinoLCD\test\Pain Drain\libraries\lvgl\src\draw\sw/lv_draw_sw_arc.c ****     uint16_t end_quarter;
  31:..\..\..\arduinoLCD\test\Pain Drain\libraries\lvgl\src\draw\sw/lv_draw_sw_arc.c ****     lv_coord_t width;
ARM GAS  C:\Users\haske\AppData\Local\Temp\ccinSyc3.s 			page 2


  32:..\..\..\arduinoLCD\test\Pain Drain\libraries\lvgl\src\draw\sw/lv_draw_sw_arc.c ****     lv_draw_rect_dsc_t * draw_dsc;
  33:..\..\..\arduinoLCD\test\Pain Drain\libraries\lvgl\src\draw\sw/lv_draw_sw_arc.c ****     const lv_area_t * draw_area;
  34:..\..\..\arduinoLCD\test\Pain Drain\libraries\lvgl\src\draw\sw/lv_draw_sw_arc.c ****     lv_draw_ctx_t * draw_ctx;
  35:..\..\..\arduinoLCD\test\Pain Drain\libraries\lvgl\src\draw\sw/lv_draw_sw_arc.c **** } quarter_draw_dsc_t;
  36:..\..\..\arduinoLCD\test\Pain Drain\libraries\lvgl\src\draw\sw/lv_draw_sw_arc.c **** 
  37:..\..\..\arduinoLCD\test\Pain Drain\libraries\lvgl\src\draw\sw/lv_draw_sw_arc.c **** /**********************
  38:..\..\..\arduinoLCD\test\Pain Drain\libraries\lvgl\src\draw\sw/lv_draw_sw_arc.c ****  *  STATIC PROTOTYPES
  39:..\..\..\arduinoLCD\test\Pain Drain\libraries\lvgl\src\draw\sw/lv_draw_sw_arc.c ****  **********************/
  40:..\..\..\arduinoLCD\test\Pain Drain\libraries\lvgl\src\draw\sw/lv_draw_sw_arc.c **** #if LV_DRAW_COMPLEX
  41:..\..\..\arduinoLCD\test\Pain Drain\libraries\lvgl\src\draw\sw/lv_draw_sw_arc.c ****     static void draw_quarter_0(quarter_draw_dsc_t * q);
  42:..\..\..\arduinoLCD\test\Pain Drain\libraries\lvgl\src\draw\sw/lv_draw_sw_arc.c ****     static void draw_quarter_1(quarter_draw_dsc_t * q);
  43:..\..\..\arduinoLCD\test\Pain Drain\libraries\lvgl\src\draw\sw/lv_draw_sw_arc.c ****     static void draw_quarter_2(quarter_draw_dsc_t * q);
  44:..\..\..\arduinoLCD\test\Pain Drain\libraries\lvgl\src\draw\sw/lv_draw_sw_arc.c ****     static void draw_quarter_3(quarter_draw_dsc_t * q);
  45:..\..\..\arduinoLCD\test\Pain Drain\libraries\lvgl\src\draw\sw/lv_draw_sw_arc.c ****     static void get_rounded_area(int16_t angle, lv_coord_t radius, uint8_t thickness, lv_area_t * r
  46:..\..\..\arduinoLCD\test\Pain Drain\libraries\lvgl\src\draw\sw/lv_draw_sw_arc.c **** #endif /*LV_DRAW_COMPLEX*/
  47:..\..\..\arduinoLCD\test\Pain Drain\libraries\lvgl\src\draw\sw/lv_draw_sw_arc.c **** 
  48:..\..\..\arduinoLCD\test\Pain Drain\libraries\lvgl\src\draw\sw/lv_draw_sw_arc.c **** /**********************
  49:..\..\..\arduinoLCD\test\Pain Drain\libraries\lvgl\src\draw\sw/lv_draw_sw_arc.c ****  *  STATIC VARIABLES
  50:..\..\..\arduinoLCD\test\Pain Drain\libraries\lvgl\src\draw\sw/lv_draw_sw_arc.c ****  **********************/
  51:..\..\..\arduinoLCD\test\Pain Drain\libraries\lvgl\src\draw\sw/lv_draw_sw_arc.c **** 
  52:..\..\..\arduinoLCD\test\Pain Drain\libraries\lvgl\src\draw\sw/lv_draw_sw_arc.c **** /**********************
  53:..\..\..\arduinoLCD\test\Pain Drain\libraries\lvgl\src\draw\sw/lv_draw_sw_arc.c ****  *      MACROS
  54:..\..\..\arduinoLCD\test\Pain Drain\libraries\lvgl\src\draw\sw/lv_draw_sw_arc.c ****  **********************/
  55:..\..\..\arduinoLCD\test\Pain Drain\libraries\lvgl\src\draw\sw/lv_draw_sw_arc.c **** 
  56:..\..\..\arduinoLCD\test\Pain Drain\libraries\lvgl\src\draw\sw/lv_draw_sw_arc.c **** /**********************
  57:..\..\..\arduinoLCD\test\Pain Drain\libraries\lvgl\src\draw\sw/lv_draw_sw_arc.c ****  *   GLOBAL FUNCTIONS
  58:..\..\..\arduinoLCD\test\Pain Drain\libraries\lvgl\src\draw\sw/lv_draw_sw_arc.c ****  **********************/
  59:..\..\..\arduinoLCD\test\Pain Drain\libraries\lvgl\src\draw\sw/lv_draw_sw_arc.c **** 
  60:..\..\..\arduinoLCD\test\Pain Drain\libraries\lvgl\src\draw\sw/lv_draw_sw_arc.c **** void lv_draw_sw_arc(lv_draw_ctx_t * draw_ctx, const lv_draw_arc_dsc_t * dsc, const lv_point_t * cen
  61:..\..\..\arduinoLCD\test\Pain Drain\libraries\lvgl\src\draw\sw/lv_draw_sw_arc.c ****                     uint16_t start_angle, uint16_t end_angle)
  62:..\..\..\arduinoLCD\test\Pain Drain\libraries\lvgl\src\draw\sw/lv_draw_sw_arc.c **** {
  63:..\..\..\arduinoLCD\test\Pain Drain\libraries\lvgl\src\draw\sw/lv_draw_sw_arc.c **** #if LV_DRAW_COMPLEX
  64:..\..\..\arduinoLCD\test\Pain Drain\libraries\lvgl\src\draw\sw/lv_draw_sw_arc.c ****     if(dsc->opa <= LV_OPA_MIN) return;
  65:..\..\..\arduinoLCD\test\Pain Drain\libraries\lvgl\src\draw\sw/lv_draw_sw_arc.c ****     if(dsc->width == 0) return;
  66:..\..\..\arduinoLCD\test\Pain Drain\libraries\lvgl\src\draw\sw/lv_draw_sw_arc.c ****     if(start_angle == end_angle) return;
  67:..\..\..\arduinoLCD\test\Pain Drain\libraries\lvgl\src\draw\sw/lv_draw_sw_arc.c **** 
  68:..\..\..\arduinoLCD\test\Pain Drain\libraries\lvgl\src\draw\sw/lv_draw_sw_arc.c ****     lv_coord_t width = dsc->width;
  69:..\..\..\arduinoLCD\test\Pain Drain\libraries\lvgl\src\draw\sw/lv_draw_sw_arc.c ****     if(width > radius) width = radius;
  70:..\..\..\arduinoLCD\test\Pain Drain\libraries\lvgl\src\draw\sw/lv_draw_sw_arc.c **** 
  71:..\..\..\arduinoLCD\test\Pain Drain\libraries\lvgl\src\draw\sw/lv_draw_sw_arc.c ****     lv_draw_rect_dsc_t cir_dsc;
  72:..\..\..\arduinoLCD\test\Pain Drain\libraries\lvgl\src\draw\sw/lv_draw_sw_arc.c ****     lv_draw_rect_dsc_init(&cir_dsc);
  73:..\..\..\arduinoLCD\test\Pain Drain\libraries\lvgl\src\draw\sw/lv_draw_sw_arc.c ****     cir_dsc.blend_mode = dsc->blend_mode;
  74:..\..\..\arduinoLCD\test\Pain Drain\libraries\lvgl\src\draw\sw/lv_draw_sw_arc.c ****     if(dsc->img_src) {
  75:..\..\..\arduinoLCD\test\Pain Drain\libraries\lvgl\src\draw\sw/lv_draw_sw_arc.c ****         cir_dsc.bg_opa = LV_OPA_TRANSP;
  76:..\..\..\arduinoLCD\test\Pain Drain\libraries\lvgl\src\draw\sw/lv_draw_sw_arc.c ****         cir_dsc.bg_img_src = dsc->img_src;
  77:..\..\..\arduinoLCD\test\Pain Drain\libraries\lvgl\src\draw\sw/lv_draw_sw_arc.c ****         cir_dsc.bg_img_opa = dsc->opa;
  78:..\..\..\arduinoLCD\test\Pain Drain\libraries\lvgl\src\draw\sw/lv_draw_sw_arc.c ****     }
  79:..\..\..\arduinoLCD\test\Pain Drain\libraries\lvgl\src\draw\sw/lv_draw_sw_arc.c ****     else {
  80:..\..\..\arduinoLCD\test\Pain Drain\libraries\lvgl\src\draw\sw/lv_draw_sw_arc.c ****         cir_dsc.bg_opa = dsc->opa;
  81:..\..\..\arduinoLCD\test\Pain Drain\libraries\lvgl\src\draw\sw/lv_draw_sw_arc.c ****         cir_dsc.bg_color = dsc->color;
  82:..\..\..\arduinoLCD\test\Pain Drain\libraries\lvgl\src\draw\sw/lv_draw_sw_arc.c ****     }
  83:..\..\..\arduinoLCD\test\Pain Drain\libraries\lvgl\src\draw\sw/lv_draw_sw_arc.c **** 
  84:..\..\..\arduinoLCD\test\Pain Drain\libraries\lvgl\src\draw\sw/lv_draw_sw_arc.c ****     lv_area_t area_out;
  85:..\..\..\arduinoLCD\test\Pain Drain\libraries\lvgl\src\draw\sw/lv_draw_sw_arc.c ****     area_out.x1 = center->x - radius;
  86:..\..\..\arduinoLCD\test\Pain Drain\libraries\lvgl\src\draw\sw/lv_draw_sw_arc.c ****     area_out.y1 = center->y - radius;
  87:..\..\..\arduinoLCD\test\Pain Drain\libraries\lvgl\src\draw\sw/lv_draw_sw_arc.c ****     area_out.x2 = center->x + radius - 1;  /*-1 because the center already belongs to the left/bott
  88:..\..\..\arduinoLCD\test\Pain Drain\libraries\lvgl\src\draw\sw/lv_draw_sw_arc.c ****     area_out.y2 = center->y + radius - 1;
ARM GAS  C:\Users\haske\AppData\Local\Temp\ccinSyc3.s 			page 3


  89:..\..\..\arduinoLCD\test\Pain Drain\libraries\lvgl\src\draw\sw/lv_draw_sw_arc.c **** 
  90:..\..\..\arduinoLCD\test\Pain Drain\libraries\lvgl\src\draw\sw/lv_draw_sw_arc.c ****     lv_area_t area_in;
  91:..\..\..\arduinoLCD\test\Pain Drain\libraries\lvgl\src\draw\sw/lv_draw_sw_arc.c ****     lv_area_copy(&area_in, &area_out);
  92:..\..\..\arduinoLCD\test\Pain Drain\libraries\lvgl\src\draw\sw/lv_draw_sw_arc.c ****     area_in.x1 += dsc->width;
  93:..\..\..\arduinoLCD\test\Pain Drain\libraries\lvgl\src\draw\sw/lv_draw_sw_arc.c ****     area_in.y1 += dsc->width;
  94:..\..\..\arduinoLCD\test\Pain Drain\libraries\lvgl\src\draw\sw/lv_draw_sw_arc.c ****     area_in.x2 -= dsc->width;
  95:..\..\..\arduinoLCD\test\Pain Drain\libraries\lvgl\src\draw\sw/lv_draw_sw_arc.c ****     area_in.y2 -= dsc->width;
  96:..\..\..\arduinoLCD\test\Pain Drain\libraries\lvgl\src\draw\sw/lv_draw_sw_arc.c **** 
  97:..\..\..\arduinoLCD\test\Pain Drain\libraries\lvgl\src\draw\sw/lv_draw_sw_arc.c ****     /*Create inner the mask*/
  98:..\..\..\arduinoLCD\test\Pain Drain\libraries\lvgl\src\draw\sw/lv_draw_sw_arc.c ****     int16_t mask_in_id = LV_MASK_ID_INV;
  99:..\..\..\arduinoLCD\test\Pain Drain\libraries\lvgl\src\draw\sw/lv_draw_sw_arc.c ****     lv_draw_mask_radius_param_t mask_in_param;
 100:..\..\..\arduinoLCD\test\Pain Drain\libraries\lvgl\src\draw\sw/lv_draw_sw_arc.c ****     bool mask_in_param_valid = false;
 101:..\..\..\arduinoLCD\test\Pain Drain\libraries\lvgl\src\draw\sw/lv_draw_sw_arc.c ****     if(lv_area_get_width(&area_in) > 0 && lv_area_get_height(&area_in) > 0) {
 102:..\..\..\arduinoLCD\test\Pain Drain\libraries\lvgl\src\draw\sw/lv_draw_sw_arc.c ****         lv_draw_mask_radius_init(&mask_in_param, &area_in, LV_RADIUS_CIRCLE, true);
 103:..\..\..\arduinoLCD\test\Pain Drain\libraries\lvgl\src\draw\sw/lv_draw_sw_arc.c ****         mask_in_param_valid = true;
 104:..\..\..\arduinoLCD\test\Pain Drain\libraries\lvgl\src\draw\sw/lv_draw_sw_arc.c ****         mask_in_id = lv_draw_mask_add(&mask_in_param, NULL);
 105:..\..\..\arduinoLCD\test\Pain Drain\libraries\lvgl\src\draw\sw/lv_draw_sw_arc.c ****     }
 106:..\..\..\arduinoLCD\test\Pain Drain\libraries\lvgl\src\draw\sw/lv_draw_sw_arc.c **** 
 107:..\..\..\arduinoLCD\test\Pain Drain\libraries\lvgl\src\draw\sw/lv_draw_sw_arc.c ****     lv_draw_mask_radius_param_t mask_out_param;
 108:..\..\..\arduinoLCD\test\Pain Drain\libraries\lvgl\src\draw\sw/lv_draw_sw_arc.c ****     lv_draw_mask_radius_init(&mask_out_param, &area_out, LV_RADIUS_CIRCLE, false);
 109:..\..\..\arduinoLCD\test\Pain Drain\libraries\lvgl\src\draw\sw/lv_draw_sw_arc.c ****     int16_t mask_out_id = lv_draw_mask_add(&mask_out_param, NULL);
 110:..\..\..\arduinoLCD\test\Pain Drain\libraries\lvgl\src\draw\sw/lv_draw_sw_arc.c **** 
 111:..\..\..\arduinoLCD\test\Pain Drain\libraries\lvgl\src\draw\sw/lv_draw_sw_arc.c ****     /*Draw a full ring*/
 112:..\..\..\arduinoLCD\test\Pain Drain\libraries\lvgl\src\draw\sw/lv_draw_sw_arc.c ****     if(start_angle + 360 == end_angle || start_angle == end_angle + 360) {
 113:..\..\..\arduinoLCD\test\Pain Drain\libraries\lvgl\src\draw\sw/lv_draw_sw_arc.c ****         cir_dsc.radius = LV_RADIUS_CIRCLE;
 114:..\..\..\arduinoLCD\test\Pain Drain\libraries\lvgl\src\draw\sw/lv_draw_sw_arc.c ****         lv_draw_rect(draw_ctx, &cir_dsc, &area_out);
 115:..\..\..\arduinoLCD\test\Pain Drain\libraries\lvgl\src\draw\sw/lv_draw_sw_arc.c **** 
 116:..\..\..\arduinoLCD\test\Pain Drain\libraries\lvgl\src\draw\sw/lv_draw_sw_arc.c ****         lv_draw_mask_remove_id(mask_out_id);
 117:..\..\..\arduinoLCD\test\Pain Drain\libraries\lvgl\src\draw\sw/lv_draw_sw_arc.c ****         if(mask_in_id != LV_MASK_ID_INV) lv_draw_mask_remove_id(mask_in_id);
 118:..\..\..\arduinoLCD\test\Pain Drain\libraries\lvgl\src\draw\sw/lv_draw_sw_arc.c **** 
 119:..\..\..\arduinoLCD\test\Pain Drain\libraries\lvgl\src\draw\sw/lv_draw_sw_arc.c ****         lv_draw_mask_free_param(&mask_out_param);
 120:..\..\..\arduinoLCD\test\Pain Drain\libraries\lvgl\src\draw\sw/lv_draw_sw_arc.c ****         if(mask_in_param_valid) {
 121:..\..\..\arduinoLCD\test\Pain Drain\libraries\lvgl\src\draw\sw/lv_draw_sw_arc.c ****             lv_draw_mask_free_param(&mask_in_param);
 122:..\..\..\arduinoLCD\test\Pain Drain\libraries\lvgl\src\draw\sw/lv_draw_sw_arc.c ****         }
 123:..\..\..\arduinoLCD\test\Pain Drain\libraries\lvgl\src\draw\sw/lv_draw_sw_arc.c **** 
 124:..\..\..\arduinoLCD\test\Pain Drain\libraries\lvgl\src\draw\sw/lv_draw_sw_arc.c ****         return;
 125:..\..\..\arduinoLCD\test\Pain Drain\libraries\lvgl\src\draw\sw/lv_draw_sw_arc.c ****     }
 126:..\..\..\arduinoLCD\test\Pain Drain\libraries\lvgl\src\draw\sw/lv_draw_sw_arc.c **** 
 127:..\..\..\arduinoLCD\test\Pain Drain\libraries\lvgl\src\draw\sw/lv_draw_sw_arc.c ****     while(start_angle >= 360) start_angle -= 360;
 128:..\..\..\arduinoLCD\test\Pain Drain\libraries\lvgl\src\draw\sw/lv_draw_sw_arc.c ****     while(end_angle >= 360) end_angle -= 360;
 129:..\..\..\arduinoLCD\test\Pain Drain\libraries\lvgl\src\draw\sw/lv_draw_sw_arc.c **** 
 130:..\..\..\arduinoLCD\test\Pain Drain\libraries\lvgl\src\draw\sw/lv_draw_sw_arc.c ****     lv_draw_mask_angle_param_t mask_angle_param;
 131:..\..\..\arduinoLCD\test\Pain Drain\libraries\lvgl\src\draw\sw/lv_draw_sw_arc.c ****     lv_draw_mask_angle_init(&mask_angle_param, center->x, center->y, start_angle, end_angle);
 132:..\..\..\arduinoLCD\test\Pain Drain\libraries\lvgl\src\draw\sw/lv_draw_sw_arc.c ****     int16_t mask_angle_id = lv_draw_mask_add(&mask_angle_param, NULL);
 133:..\..\..\arduinoLCD\test\Pain Drain\libraries\lvgl\src\draw\sw/lv_draw_sw_arc.c **** 
 134:..\..\..\arduinoLCD\test\Pain Drain\libraries\lvgl\src\draw\sw/lv_draw_sw_arc.c ****     int32_t angle_gap;
 135:..\..\..\arduinoLCD\test\Pain Drain\libraries\lvgl\src\draw\sw/lv_draw_sw_arc.c ****     if(end_angle > start_angle) {
 136:..\..\..\arduinoLCD\test\Pain Drain\libraries\lvgl\src\draw\sw/lv_draw_sw_arc.c ****         angle_gap = 360 - (end_angle - start_angle);
 137:..\..\..\arduinoLCD\test\Pain Drain\libraries\lvgl\src\draw\sw/lv_draw_sw_arc.c ****     }
 138:..\..\..\arduinoLCD\test\Pain Drain\libraries\lvgl\src\draw\sw/lv_draw_sw_arc.c ****     else {
 139:..\..\..\arduinoLCD\test\Pain Drain\libraries\lvgl\src\draw\sw/lv_draw_sw_arc.c ****         angle_gap = start_angle - end_angle;
 140:..\..\..\arduinoLCD\test\Pain Drain\libraries\lvgl\src\draw\sw/lv_draw_sw_arc.c ****     }
 141:..\..\..\arduinoLCD\test\Pain Drain\libraries\lvgl\src\draw\sw/lv_draw_sw_arc.c **** 
 142:..\..\..\arduinoLCD\test\Pain Drain\libraries\lvgl\src\draw\sw/lv_draw_sw_arc.c ****     const lv_area_t * clip_area_ori = draw_ctx->clip_area;
 143:..\..\..\arduinoLCD\test\Pain Drain\libraries\lvgl\src\draw\sw/lv_draw_sw_arc.c **** 
 144:..\..\..\arduinoLCD\test\Pain Drain\libraries\lvgl\src\draw\sw/lv_draw_sw_arc.c ****     if(angle_gap > SPLIT_ANGLE_GAP_LIMIT && radius > SPLIT_RADIUS_LIMIT) {
 145:..\..\..\arduinoLCD\test\Pain Drain\libraries\lvgl\src\draw\sw/lv_draw_sw_arc.c ****         /*Handle each quarter individually and skip which is empty*/
ARM GAS  C:\Users\haske\AppData\Local\Temp\ccinSyc3.s 			page 4


 146:..\..\..\arduinoLCD\test\Pain Drain\libraries\lvgl\src\draw\sw/lv_draw_sw_arc.c ****         quarter_draw_dsc_t q_dsc;
 147:..\..\..\arduinoLCD\test\Pain Drain\libraries\lvgl\src\draw\sw/lv_draw_sw_arc.c ****         q_dsc.center = center;
 148:..\..\..\arduinoLCD\test\Pain Drain\libraries\lvgl\src\draw\sw/lv_draw_sw_arc.c ****         q_dsc.radius = radius;
 149:..\..\..\arduinoLCD\test\Pain Drain\libraries\lvgl\src\draw\sw/lv_draw_sw_arc.c ****         q_dsc.start_angle = start_angle;
 150:..\..\..\arduinoLCD\test\Pain Drain\libraries\lvgl\src\draw\sw/lv_draw_sw_arc.c ****         q_dsc.end_angle = end_angle;
 151:..\..\..\arduinoLCD\test\Pain Drain\libraries\lvgl\src\draw\sw/lv_draw_sw_arc.c ****         q_dsc.start_quarter = (start_angle / 90) & 0x3;
 152:..\..\..\arduinoLCD\test\Pain Drain\libraries\lvgl\src\draw\sw/lv_draw_sw_arc.c ****         q_dsc.end_quarter = (end_angle / 90) & 0x3;
 153:..\..\..\arduinoLCD\test\Pain Drain\libraries\lvgl\src\draw\sw/lv_draw_sw_arc.c ****         q_dsc.width = width;
 154:..\..\..\arduinoLCD\test\Pain Drain\libraries\lvgl\src\draw\sw/lv_draw_sw_arc.c ****         q_dsc.draw_dsc = &cir_dsc;
 155:..\..\..\arduinoLCD\test\Pain Drain\libraries\lvgl\src\draw\sw/lv_draw_sw_arc.c ****         q_dsc.draw_area = &area_out;
 156:..\..\..\arduinoLCD\test\Pain Drain\libraries\lvgl\src\draw\sw/lv_draw_sw_arc.c ****         q_dsc.draw_ctx = draw_ctx;
 157:..\..\..\arduinoLCD\test\Pain Drain\libraries\lvgl\src\draw\sw/lv_draw_sw_arc.c **** 
 158:..\..\..\arduinoLCD\test\Pain Drain\libraries\lvgl\src\draw\sw/lv_draw_sw_arc.c ****         draw_quarter_0(&q_dsc);
 159:..\..\..\arduinoLCD\test\Pain Drain\libraries\lvgl\src\draw\sw/lv_draw_sw_arc.c ****         draw_quarter_1(&q_dsc);
 160:..\..\..\arduinoLCD\test\Pain Drain\libraries\lvgl\src\draw\sw/lv_draw_sw_arc.c ****         draw_quarter_2(&q_dsc);
 161:..\..\..\arduinoLCD\test\Pain Drain\libraries\lvgl\src\draw\sw/lv_draw_sw_arc.c ****         draw_quarter_3(&q_dsc);
 162:..\..\..\arduinoLCD\test\Pain Drain\libraries\lvgl\src\draw\sw/lv_draw_sw_arc.c ****     }
 163:..\..\..\arduinoLCD\test\Pain Drain\libraries\lvgl\src\draw\sw/lv_draw_sw_arc.c ****     else {
 164:..\..\..\arduinoLCD\test\Pain Drain\libraries\lvgl\src\draw\sw/lv_draw_sw_arc.c ****         lv_draw_rect(draw_ctx, &cir_dsc, &area_out);
 165:..\..\..\arduinoLCD\test\Pain Drain\libraries\lvgl\src\draw\sw/lv_draw_sw_arc.c ****     }
 166:..\..\..\arduinoLCD\test\Pain Drain\libraries\lvgl\src\draw\sw/lv_draw_sw_arc.c **** 
 167:..\..\..\arduinoLCD\test\Pain Drain\libraries\lvgl\src\draw\sw/lv_draw_sw_arc.c ****     lv_draw_mask_free_param(&mask_angle_param);
 168:..\..\..\arduinoLCD\test\Pain Drain\libraries\lvgl\src\draw\sw/lv_draw_sw_arc.c ****     lv_draw_mask_free_param(&mask_out_param);
 169:..\..\..\arduinoLCD\test\Pain Drain\libraries\lvgl\src\draw\sw/lv_draw_sw_arc.c ****     if(mask_in_param_valid) {
 170:..\..\..\arduinoLCD\test\Pain Drain\libraries\lvgl\src\draw\sw/lv_draw_sw_arc.c ****         lv_draw_mask_free_param(&mask_in_param);
 171:..\..\..\arduinoLCD\test\Pain Drain\libraries\lvgl\src\draw\sw/lv_draw_sw_arc.c ****     }
 172:..\..\..\arduinoLCD\test\Pain Drain\libraries\lvgl\src\draw\sw/lv_draw_sw_arc.c **** 
 173:..\..\..\arduinoLCD\test\Pain Drain\libraries\lvgl\src\draw\sw/lv_draw_sw_arc.c ****     lv_draw_mask_remove_id(mask_angle_id);
 174:..\..\..\arduinoLCD\test\Pain Drain\libraries\lvgl\src\draw\sw/lv_draw_sw_arc.c ****     lv_draw_mask_remove_id(mask_out_id);
 175:..\..\..\arduinoLCD\test\Pain Drain\libraries\lvgl\src\draw\sw/lv_draw_sw_arc.c ****     if(mask_in_id != LV_MASK_ID_INV) lv_draw_mask_remove_id(mask_in_id);
 176:..\..\..\arduinoLCD\test\Pain Drain\libraries\lvgl\src\draw\sw/lv_draw_sw_arc.c **** 
 177:..\..\..\arduinoLCD\test\Pain Drain\libraries\lvgl\src\draw\sw/lv_draw_sw_arc.c ****     if(dsc->rounded) {
 178:..\..\..\arduinoLCD\test\Pain Drain\libraries\lvgl\src\draw\sw/lv_draw_sw_arc.c **** 
 179:..\..\..\arduinoLCD\test\Pain Drain\libraries\lvgl\src\draw\sw/lv_draw_sw_arc.c ****         lv_draw_mask_radius_param_t mask_end_param;
 180:..\..\..\arduinoLCD\test\Pain Drain\libraries\lvgl\src\draw\sw/lv_draw_sw_arc.c **** 
 181:..\..\..\arduinoLCD\test\Pain Drain\libraries\lvgl\src\draw\sw/lv_draw_sw_arc.c ****         lv_area_t round_area;
 182:..\..\..\arduinoLCD\test\Pain Drain\libraries\lvgl\src\draw\sw/lv_draw_sw_arc.c ****         get_rounded_area(start_angle, radius, width, &round_area);
 183:..\..\..\arduinoLCD\test\Pain Drain\libraries\lvgl\src\draw\sw/lv_draw_sw_arc.c ****         round_area.x1 += center->x;
 184:..\..\..\arduinoLCD\test\Pain Drain\libraries\lvgl\src\draw\sw/lv_draw_sw_arc.c ****         round_area.x2 += center->x;
 185:..\..\..\arduinoLCD\test\Pain Drain\libraries\lvgl\src\draw\sw/lv_draw_sw_arc.c ****         round_area.y1 += center->y;
 186:..\..\..\arduinoLCD\test\Pain Drain\libraries\lvgl\src\draw\sw/lv_draw_sw_arc.c ****         round_area.y2 += center->y;
 187:..\..\..\arduinoLCD\test\Pain Drain\libraries\lvgl\src\draw\sw/lv_draw_sw_arc.c ****         lv_area_t clip_area2;
 188:..\..\..\arduinoLCD\test\Pain Drain\libraries\lvgl\src\draw\sw/lv_draw_sw_arc.c ****         if(_lv_area_intersect(&clip_area2, clip_area_ori, &round_area)) {
 189:..\..\..\arduinoLCD\test\Pain Drain\libraries\lvgl\src\draw\sw/lv_draw_sw_arc.c ****             lv_draw_mask_radius_init(&mask_end_param, &round_area, LV_RADIUS_CIRCLE, false);
 190:..\..\..\arduinoLCD\test\Pain Drain\libraries\lvgl\src\draw\sw/lv_draw_sw_arc.c ****             int16_t mask_end_id = lv_draw_mask_add(&mask_end_param, NULL);
 191:..\..\..\arduinoLCD\test\Pain Drain\libraries\lvgl\src\draw\sw/lv_draw_sw_arc.c **** 
 192:..\..\..\arduinoLCD\test\Pain Drain\libraries\lvgl\src\draw\sw/lv_draw_sw_arc.c ****             draw_ctx->clip_area = &clip_area2;
 193:..\..\..\arduinoLCD\test\Pain Drain\libraries\lvgl\src\draw\sw/lv_draw_sw_arc.c ****             lv_draw_rect(draw_ctx, &cir_dsc, &area_out);
 194:..\..\..\arduinoLCD\test\Pain Drain\libraries\lvgl\src\draw\sw/lv_draw_sw_arc.c ****             lv_draw_mask_remove_id(mask_end_id);
 195:..\..\..\arduinoLCD\test\Pain Drain\libraries\lvgl\src\draw\sw/lv_draw_sw_arc.c ****             lv_draw_mask_free_param(&mask_end_param);
 196:..\..\..\arduinoLCD\test\Pain Drain\libraries\lvgl\src\draw\sw/lv_draw_sw_arc.c ****         }
 197:..\..\..\arduinoLCD\test\Pain Drain\libraries\lvgl\src\draw\sw/lv_draw_sw_arc.c **** 
 198:..\..\..\arduinoLCD\test\Pain Drain\libraries\lvgl\src\draw\sw/lv_draw_sw_arc.c ****         get_rounded_area(end_angle, radius, width, &round_area);
 199:..\..\..\arduinoLCD\test\Pain Drain\libraries\lvgl\src\draw\sw/lv_draw_sw_arc.c ****         round_area.x1 += center->x;
 200:..\..\..\arduinoLCD\test\Pain Drain\libraries\lvgl\src\draw\sw/lv_draw_sw_arc.c ****         round_area.x2 += center->x;
 201:..\..\..\arduinoLCD\test\Pain Drain\libraries\lvgl\src\draw\sw/lv_draw_sw_arc.c ****         round_area.y1 += center->y;
 202:..\..\..\arduinoLCD\test\Pain Drain\libraries\lvgl\src\draw\sw/lv_draw_sw_arc.c ****         round_area.y2 += center->y;
ARM GAS  C:\Users\haske\AppData\Local\Temp\ccinSyc3.s 			page 5


 203:..\..\..\arduinoLCD\test\Pain Drain\libraries\lvgl\src\draw\sw/lv_draw_sw_arc.c ****         if(_lv_area_intersect(&clip_area2, clip_area_ori, &round_area)) {
 204:..\..\..\arduinoLCD\test\Pain Drain\libraries\lvgl\src\draw\sw/lv_draw_sw_arc.c ****             lv_draw_mask_radius_init(&mask_end_param, &round_area, LV_RADIUS_CIRCLE, false);
 205:..\..\..\arduinoLCD\test\Pain Drain\libraries\lvgl\src\draw\sw/lv_draw_sw_arc.c ****             int16_t mask_end_id = lv_draw_mask_add(&mask_end_param, NULL);
 206:..\..\..\arduinoLCD\test\Pain Drain\libraries\lvgl\src\draw\sw/lv_draw_sw_arc.c **** 
 207:..\..\..\arduinoLCD\test\Pain Drain\libraries\lvgl\src\draw\sw/lv_draw_sw_arc.c ****             draw_ctx->clip_area = &clip_area2;
 208:..\..\..\arduinoLCD\test\Pain Drain\libraries\lvgl\src\draw\sw/lv_draw_sw_arc.c ****             lv_draw_rect(draw_ctx, &cir_dsc, &area_out);
 209:..\..\..\arduinoLCD\test\Pain Drain\libraries\lvgl\src\draw\sw/lv_draw_sw_arc.c ****             lv_draw_mask_remove_id(mask_end_id);
 210:..\..\..\arduinoLCD\test\Pain Drain\libraries\lvgl\src\draw\sw/lv_draw_sw_arc.c ****             lv_draw_mask_free_param(&mask_end_param);
 211:..\..\..\arduinoLCD\test\Pain Drain\libraries\lvgl\src\draw\sw/lv_draw_sw_arc.c ****         }
 212:..\..\..\arduinoLCD\test\Pain Drain\libraries\lvgl\src\draw\sw/lv_draw_sw_arc.c ****         draw_ctx->clip_area = clip_area_ori;
 213:..\..\..\arduinoLCD\test\Pain Drain\libraries\lvgl\src\draw\sw/lv_draw_sw_arc.c ****     }
 214:..\..\..\arduinoLCD\test\Pain Drain\libraries\lvgl\src\draw\sw/lv_draw_sw_arc.c **** #else
 215:..\..\..\arduinoLCD\test\Pain Drain\libraries\lvgl\src\draw\sw/lv_draw_sw_arc.c ****     LV_LOG_WARN("Can't draw arc with LV_DRAW_COMPLEX == 0");
 216:..\..\..\arduinoLCD\test\Pain Drain\libraries\lvgl\src\draw\sw/lv_draw_sw_arc.c ****     LV_UNUSED(center);
 217:..\..\..\arduinoLCD\test\Pain Drain\libraries\lvgl\src\draw\sw/lv_draw_sw_arc.c ****     LV_UNUSED(radius);
 218:..\..\..\arduinoLCD\test\Pain Drain\libraries\lvgl\src\draw\sw/lv_draw_sw_arc.c ****     LV_UNUSED(start_angle);
 219:..\..\..\arduinoLCD\test\Pain Drain\libraries\lvgl\src\draw\sw/lv_draw_sw_arc.c ****     LV_UNUSED(end_angle);
 220:..\..\..\arduinoLCD\test\Pain Drain\libraries\lvgl\src\draw\sw/lv_draw_sw_arc.c ****     LV_UNUSED(draw_ctx);
 221:..\..\..\arduinoLCD\test\Pain Drain\libraries\lvgl\src\draw\sw/lv_draw_sw_arc.c ****     LV_UNUSED(dsc);
 222:..\..\..\arduinoLCD\test\Pain Drain\libraries\lvgl\src\draw\sw/lv_draw_sw_arc.c **** #endif /*LV_DRAW_COMPLEX*/
 223:..\..\..\arduinoLCD\test\Pain Drain\libraries\lvgl\src\draw\sw/lv_draw_sw_arc.c **** }
 224:..\..\..\arduinoLCD\test\Pain Drain\libraries\lvgl\src\draw\sw/lv_draw_sw_arc.c **** 
 225:..\..\..\arduinoLCD\test\Pain Drain\libraries\lvgl\src\draw\sw/lv_draw_sw_arc.c **** /**********************
 226:..\..\..\arduinoLCD\test\Pain Drain\libraries\lvgl\src\draw\sw/lv_draw_sw_arc.c ****  *   STATIC FUNCTIONS
 227:..\..\..\arduinoLCD\test\Pain Drain\libraries\lvgl\src\draw\sw/lv_draw_sw_arc.c ****  **********************/
 228:..\..\..\arduinoLCD\test\Pain Drain\libraries\lvgl\src\draw\sw/lv_draw_sw_arc.c **** 
 229:..\..\..\arduinoLCD\test\Pain Drain\libraries\lvgl\src\draw\sw/lv_draw_sw_arc.c **** #if LV_DRAW_COMPLEX
 230:..\..\..\arduinoLCD\test\Pain Drain\libraries\lvgl\src\draw\sw/lv_draw_sw_arc.c **** static void draw_quarter_0(quarter_draw_dsc_t * q)
 231:..\..\..\arduinoLCD\test\Pain Drain\libraries\lvgl\src\draw\sw/lv_draw_sw_arc.c **** {
  27              		.loc 1 231 0
  28              		.cfi_startproc
  29              		@ args = 0, pretend = 0, frame = 8
  30              		@ frame_needed = 0, uses_anonymous_args = 0
  31              	.LVL0:
  32 0000 70B5     		push	{r4, r5, r6, lr}
  33              		.cfi_def_cfa_offset 16
  34              		.cfi_offset 4, -16
  35              		.cfi_offset 5, -12
  36              		.cfi_offset 6, -8
  37              		.cfi_offset 14, -4
  38 0002 82B0     		sub	sp, sp, #8
  39              		.cfi_def_cfa_offset 24
  40 0004 0400     		movs	r4, r0
 232:..\..\..\arduinoLCD\test\Pain Drain\libraries\lvgl\src\draw\sw/lv_draw_sw_arc.c ****     const lv_area_t * clip_area_ori = q->draw_ctx->clip_area;
  41              		.loc 1 232 0
  42 0006 8369     		ldr	r3, [r0, #24]
  43 0008 9D68     		ldr	r5, [r3, #8]
  44              	.LVL1:
 233:..\..\..\arduinoLCD\test\Pain Drain\libraries\lvgl\src\draw\sw/lv_draw_sw_arc.c ****     lv_area_t quarter_area;
 234:..\..\..\arduinoLCD\test\Pain Drain\libraries\lvgl\src\draw\sw/lv_draw_sw_arc.c **** 
 235:..\..\..\arduinoLCD\test\Pain Drain\libraries\lvgl\src\draw\sw/lv_draw_sw_arc.c ****     if(q->start_quarter == 0 && q->end_quarter == 0 && q->start_angle < q->end_angle) {
  45              		.loc 1 235 0
  46 000a 4389     		ldrh	r3, [r0, #10]
  47 000c 002B     		cmp	r3, #0
  48 000e 56D1     		bne	.L2
  49              		.loc 1 235 0 is_stmt 0 discriminator 1
  50 0010 8289     		ldrh	r2, [r0, #12]
ARM GAS  C:\Users\haske\AppData\Local\Temp\ccinSyc3.s 			page 6


  51 0012 002A     		cmp	r2, #0
  52 0014 53D1     		bne	.L2
  53              		.loc 1 235 0 discriminator 2
  54 0016 C088     		ldrh	r0, [r0, #6]
  55              	.LVL2:
  56 0018 2289     		ldrh	r2, [r4, #8]
  57 001a 9042     		cmp	r0, r2
  58 001c 4FD2     		bcs	.L2
  59              	.LBB12:
 236:..\..\..\arduinoLCD\test\Pain Drain\libraries\lvgl\src\draw\sw/lv_draw_sw_arc.c ****         /*Small arc here*/
 237:..\..\..\arduinoLCD\test\Pain Drain\libraries\lvgl\src\draw\sw/lv_draw_sw_arc.c ****         quarter_area.y1 = q->center->y + ((lv_trigo_sin(q->start_angle) * (q->radius - q->width)) >
  60              		.loc 1 237 0 is_stmt 1
  61 001e 2368     		ldr	r3, [r4]
  62 0020 0226     		movs	r6, #2
  63 0022 9E5F     		ldrsh	r6, [r3, r6]
  64 0024 00B2     		sxth	r0, r0
  65 0026 FFF7FEFF 		bl	lv_trigo_sin
  66              	.LVL3:
  67 002a 0422     		movs	r2, #4
  68 002c A35E     		ldrsh	r3, [r4, r2]
  69 002e 0E21     		movs	r1, #14
  70 0030 625E     		ldrsh	r2, [r4, r1]
  71 0032 9B1A     		subs	r3, r3, r2
  72 0034 5843     		muls	r0, r3
  73 0036 C013     		asrs	r0, r0, #15
  74 0038 3018     		adds	r0, r6, r0
  75 003a 6B46     		mov	r3, sp
  76 003c 5880     		strh	r0, [r3, #2]
 238:..\..\..\arduinoLCD\test\Pain Drain\libraries\lvgl\src\draw\sw/lv_draw_sw_arc.c ****         quarter_area.x2 = q->center->x + ((lv_trigo_sin(q->start_angle + 90) * (q->radius)) >> LV_T
  77              		.loc 1 238 0
  78 003e 2368     		ldr	r3, [r4]
  79 0040 0026     		movs	r6, #0
  80 0042 9E5F     		ldrsh	r6, [r3, r6]
  81 0044 E088     		ldrh	r0, [r4, #6]
  82 0046 5A30     		adds	r0, r0, #90
  83 0048 00B2     		sxth	r0, r0
  84 004a FFF7FEFF 		bl	lv_trigo_sin
  85              	.LVL4:
  86 004e 0422     		movs	r2, #4
  87 0050 A35E     		ldrsh	r3, [r4, r2]
  88 0052 5843     		muls	r0, r3
  89 0054 C013     		asrs	r0, r0, #15
  90 0056 3018     		adds	r0, r6, r0
  91 0058 6B46     		mov	r3, sp
  92 005a 9880     		strh	r0, [r3, #4]
 239:..\..\..\arduinoLCD\test\Pain Drain\libraries\lvgl\src\draw\sw/lv_draw_sw_arc.c **** 
 240:..\..\..\arduinoLCD\test\Pain Drain\libraries\lvgl\src\draw\sw/lv_draw_sw_arc.c ****         quarter_area.y2 = q->center->y + ((lv_trigo_sin(q->end_angle) * q->radius) >> LV_TRIGO_SHIF
  93              		.loc 1 240 0
  94 005c 2368     		ldr	r3, [r4]
  95 005e 0226     		movs	r6, #2
  96 0060 9E5F     		ldrsh	r6, [r3, r6]
  97 0062 0823     		movs	r3, #8
  98 0064 E05E     		ldrsh	r0, [r4, r3]
  99 0066 FFF7FEFF 		bl	lv_trigo_sin
 100              	.LVL5:
 101 006a 0422     		movs	r2, #4
 102 006c A35E     		ldrsh	r3, [r4, r2]
ARM GAS  C:\Users\haske\AppData\Local\Temp\ccinSyc3.s 			page 7


 103 006e 5843     		muls	r0, r3
 104 0070 C013     		asrs	r0, r0, #15
 105 0072 3018     		adds	r0, r6, r0
 106 0074 6B46     		mov	r3, sp
 107 0076 D880     		strh	r0, [r3, #6]
 241:..\..\..\arduinoLCD\test\Pain Drain\libraries\lvgl\src\draw\sw/lv_draw_sw_arc.c ****         quarter_area.x1 = q->center->x + ((lv_trigo_sin(q->end_angle + 90) * (q->radius - q->width)
 108              		.loc 1 241 0
 109 0078 2368     		ldr	r3, [r4]
 110 007a 0026     		movs	r6, #0
 111 007c 9E5F     		ldrsh	r6, [r3, r6]
 112 007e 2089     		ldrh	r0, [r4, #8]
 113 0080 5A30     		adds	r0, r0, #90
 114 0082 00B2     		sxth	r0, r0
 115 0084 FFF7FEFF 		bl	lv_trigo_sin
 116              	.LVL6:
 117 0088 0422     		movs	r2, #4
 118 008a A35E     		ldrsh	r3, [r4, r2]
 119 008c 0E21     		movs	r1, #14
 120 008e 625E     		ldrsh	r2, [r4, r1]
 121 0090 9B1A     		subs	r3, r3, r2
 122 0092 5843     		muls	r0, r3
 123 0094 C013     		asrs	r0, r0, #15
 124 0096 3018     		adds	r0, r6, r0
 125 0098 6B46     		mov	r3, sp
 126 009a 1880     		strh	r0, [r3]
 242:..\..\..\arduinoLCD\test\Pain Drain\libraries\lvgl\src\draw\sw/lv_draw_sw_arc.c **** 
 243:..\..\..\arduinoLCD\test\Pain Drain\libraries\lvgl\src\draw\sw/lv_draw_sw_arc.c ****         bool ok = _lv_area_intersect(&quarter_area, &quarter_area, clip_area_ori);
 127              		.loc 1 243 0
 128 009c 2A00     		movs	r2, r5
 129 009e 6946     		mov	r1, sp
 130 00a0 6846     		mov	r0, sp
 131 00a2 FFF7FEFF 		bl	_lv_area_intersect
 132              	.LVL7:
 244:..\..\..\arduinoLCD\test\Pain Drain\libraries\lvgl\src\draw\sw/lv_draw_sw_arc.c ****         if(ok) {
 133              		.loc 1 244 0
 134 00a6 0028     		cmp	r0, #0
 135 00a8 00D1     		bne	.LCB94
 136 00aa BDE0     		b	.L3	@long jump
 137              	.LCB94:
 245:..\..\..\arduinoLCD\test\Pain Drain\libraries\lvgl\src\draw\sw/lv_draw_sw_arc.c ****             q->draw_ctx->clip_area = &quarter_area;
 138              		.loc 1 245 0
 139 00ac A369     		ldr	r3, [r4, #24]
 140 00ae 6A46     		mov	r2, sp
 141 00b0 9A60     		str	r2, [r3, #8]
 246:..\..\..\arduinoLCD\test\Pain Drain\libraries\lvgl\src\draw\sw/lv_draw_sw_arc.c ****             lv_draw_rect(q->draw_ctx, q->draw_dsc, q->draw_area);
 142              		.loc 1 246 0
 143 00b2 6269     		ldr	r2, [r4, #20]
 144 00b4 2169     		ldr	r1, [r4, #16]
 145 00b6 A069     		ldr	r0, [r4, #24]
 146              	.LVL8:
 147 00b8 FFF7FEFF 		bl	lv_draw_rect
 148              	.LVL9:
 149 00bc B4E0     		b	.L3
 150              	.L2:
 151              	.LBE12:
 247:..\..\..\arduinoLCD\test\Pain Drain\libraries\lvgl\src\draw\sw/lv_draw_sw_arc.c ****         }
 248:..\..\..\arduinoLCD\test\Pain Drain\libraries\lvgl\src\draw\sw/lv_draw_sw_arc.c ****     }
ARM GAS  C:\Users\haske\AppData\Local\Temp\ccinSyc3.s 			page 8


 249:..\..\..\arduinoLCD\test\Pain Drain\libraries\lvgl\src\draw\sw/lv_draw_sw_arc.c ****     else if(q->start_quarter == 0 || q->end_quarter == 0) {
 152              		.loc 1 249 0
 153 00be 002B     		cmp	r3, #0
 154 00c0 02D0     		beq	.L4
 155              		.loc 1 249 0 is_stmt 0 discriminator 1
 156 00c2 A289     		ldrh	r2, [r4, #12]
 157 00c4 002A     		cmp	r2, #0
 158 00c6 79D1     		bne	.L5
 159              	.L4:
 250:..\..\..\arduinoLCD\test\Pain Drain\libraries\lvgl\src\draw\sw/lv_draw_sw_arc.c ****         /*Start and/or end arcs here*/
 251:..\..\..\arduinoLCD\test\Pain Drain\libraries\lvgl\src\draw\sw/lv_draw_sw_arc.c ****         if(q->start_quarter == 0) {
 160              		.loc 1 251 0 is_stmt 1
 161 00c8 002B     		cmp	r3, #0
 162 00ca 39D1     		bne	.L6
 163              	.LBB13:
 252:..\..\..\arduinoLCD\test\Pain Drain\libraries\lvgl\src\draw\sw/lv_draw_sw_arc.c ****             quarter_area.x1 = q->center->x;
 164              		.loc 1 252 0
 165 00cc 2368     		ldr	r3, [r4]
 166 00ce 0021     		movs	r1, #0
 167 00d0 5A5E     		ldrsh	r2, [r3, r1]
 168 00d2 6946     		mov	r1, sp
 169 00d4 0A80     		strh	r2, [r1]
 253:..\..\..\arduinoLCD\test\Pain Drain\libraries\lvgl\src\draw\sw/lv_draw_sw_arc.c ****             quarter_area.y2 = q->center->y + q->radius;
 170              		.loc 1 253 0
 171 00d6 0222     		movs	r2, #2
 172 00d8 995E     		ldrsh	r1, [r3, r2]
 173 00da 0420     		movs	r0, #4
 174 00dc 225E     		ldrsh	r2, [r4, r0]
 175 00de 8A18     		adds	r2, r1, r2
 176 00e0 6946     		mov	r1, sp
 177 00e2 CA80     		strh	r2, [r1, #6]
 254:..\..\..\arduinoLCD\test\Pain Drain\libraries\lvgl\src\draw\sw/lv_draw_sw_arc.c **** 
 255:..\..\..\arduinoLCD\test\Pain Drain\libraries\lvgl\src\draw\sw/lv_draw_sw_arc.c ****             quarter_area.y1 = q->center->y + ((lv_trigo_sin(q->start_angle) * (q->radius - q->width
 178              		.loc 1 255 0
 179 00e4 0226     		movs	r6, #2
 180 00e6 9E5F     		ldrsh	r6, [r3, r6]
 181 00e8 0623     		movs	r3, #6
 182 00ea E05E     		ldrsh	r0, [r4, r3]
 183 00ec FFF7FEFF 		bl	lv_trigo_sin
 184              	.LVL10:
 185 00f0 0422     		movs	r2, #4
 186 00f2 A35E     		ldrsh	r3, [r4, r2]
 187 00f4 0E21     		movs	r1, #14
 188 00f6 625E     		ldrsh	r2, [r4, r1]
 189 00f8 9B1A     		subs	r3, r3, r2
 190 00fa 5843     		muls	r0, r3
 191 00fc C013     		asrs	r0, r0, #15
 192 00fe 3018     		adds	r0, r6, r0
 193 0100 6B46     		mov	r3, sp
 194 0102 5880     		strh	r0, [r3, #2]
 256:..\..\..\arduinoLCD\test\Pain Drain\libraries\lvgl\src\draw\sw/lv_draw_sw_arc.c ****             quarter_area.x2 = q->center->x + ((lv_trigo_sin(q->start_angle + 90) * (q->radius)) >> 
 195              		.loc 1 256 0
 196 0104 2368     		ldr	r3, [r4]
 197 0106 0026     		movs	r6, #0
 198 0108 9E5F     		ldrsh	r6, [r3, r6]
 199 010a E088     		ldrh	r0, [r4, #6]
 200 010c 5A30     		adds	r0, r0, #90
ARM GAS  C:\Users\haske\AppData\Local\Temp\ccinSyc3.s 			page 9


 201 010e 00B2     		sxth	r0, r0
 202 0110 FFF7FEFF 		bl	lv_trigo_sin
 203              	.LVL11:
 204 0114 0422     		movs	r2, #4
 205 0116 A35E     		ldrsh	r3, [r4, r2]
 206 0118 5843     		muls	r0, r3
 207 011a C013     		asrs	r0, r0, #15
 208 011c 3018     		adds	r0, r6, r0
 209 011e 6B46     		mov	r3, sp
 210 0120 9880     		strh	r0, [r3, #4]
 257:..\..\..\arduinoLCD\test\Pain Drain\libraries\lvgl\src\draw\sw/lv_draw_sw_arc.c **** 
 258:..\..\..\arduinoLCD\test\Pain Drain\libraries\lvgl\src\draw\sw/lv_draw_sw_arc.c ****             bool ok = _lv_area_intersect(&quarter_area, &quarter_area, clip_area_ori);
 211              		.loc 1 258 0
 212 0122 2A00     		movs	r2, r5
 213 0124 6946     		mov	r1, sp
 214 0126 6846     		mov	r0, sp
 215 0128 FFF7FEFF 		bl	_lv_area_intersect
 216              	.LVL12:
 259:..\..\..\arduinoLCD\test\Pain Drain\libraries\lvgl\src\draw\sw/lv_draw_sw_arc.c ****             if(ok) {
 217              		.loc 1 259 0
 218 012c 0028     		cmp	r0, #0
 219 012e 07D0     		beq	.L6
 260:..\..\..\arduinoLCD\test\Pain Drain\libraries\lvgl\src\draw\sw/lv_draw_sw_arc.c ****                 q->draw_ctx->clip_area = &quarter_area;
 220              		.loc 1 260 0
 221 0130 A369     		ldr	r3, [r4, #24]
 222 0132 6A46     		mov	r2, sp
 223 0134 9A60     		str	r2, [r3, #8]
 261:..\..\..\arduinoLCD\test\Pain Drain\libraries\lvgl\src\draw\sw/lv_draw_sw_arc.c ****                 lv_draw_rect(q->draw_ctx, q->draw_dsc, q->draw_area);
 224              		.loc 1 261 0
 225 0136 6269     		ldr	r2, [r4, #20]
 226 0138 2169     		ldr	r1, [r4, #16]
 227 013a A069     		ldr	r0, [r4, #24]
 228              	.LVL13:
 229 013c FFF7FEFF 		bl	lv_draw_rect
 230              	.LVL14:
 231              	.L6:
 232              	.LBE13:
 262:..\..\..\arduinoLCD\test\Pain Drain\libraries\lvgl\src\draw\sw/lv_draw_sw_arc.c ****             }
 263:..\..\..\arduinoLCD\test\Pain Drain\libraries\lvgl\src\draw\sw/lv_draw_sw_arc.c ****         }
 264:..\..\..\arduinoLCD\test\Pain Drain\libraries\lvgl\src\draw\sw/lv_draw_sw_arc.c ****         if(q->end_quarter == 0) {
 233              		.loc 1 264 0
 234 0140 A389     		ldrh	r3, [r4, #12]
 235 0142 002B     		cmp	r3, #0
 236 0144 70D1     		bne	.L3
 237              	.LBB14:
 265:..\..\..\arduinoLCD\test\Pain Drain\libraries\lvgl\src\draw\sw/lv_draw_sw_arc.c ****             quarter_area.x2 = q->center->x + q->radius;
 238              		.loc 1 265 0
 239 0146 2368     		ldr	r3, [r4]
 240 0148 0022     		movs	r2, #0
 241 014a 995E     		ldrsh	r1, [r3, r2]
 242 014c 0420     		movs	r0, #4
 243 014e 225E     		ldrsh	r2, [r4, r0]
 244 0150 8A18     		adds	r2, r1, r2
 245 0152 6946     		mov	r1, sp
 246 0154 8A80     		strh	r2, [r1, #4]
 266:..\..\..\arduinoLCD\test\Pain Drain\libraries\lvgl\src\draw\sw/lv_draw_sw_arc.c ****             quarter_area.y1 = q->center->y;
 247              		.loc 1 266 0
ARM GAS  C:\Users\haske\AppData\Local\Temp\ccinSyc3.s 			page 10


 248 0156 0221     		movs	r1, #2
 249 0158 5A5E     		ldrsh	r2, [r3, r1]
 250 015a 6946     		mov	r1, sp
 251 015c 4A80     		strh	r2, [r1, #2]
 267:..\..\..\arduinoLCD\test\Pain Drain\libraries\lvgl\src\draw\sw/lv_draw_sw_arc.c **** 
 268:..\..\..\arduinoLCD\test\Pain Drain\libraries\lvgl\src\draw\sw/lv_draw_sw_arc.c ****             quarter_area.y2 = q->center->y + ((lv_trigo_sin(q->end_angle) * q->radius) >> LV_TRIGO_
 252              		.loc 1 268 0
 253 015e 0226     		movs	r6, #2
 254 0160 9E5F     		ldrsh	r6, [r3, r6]
 255 0162 0823     		movs	r3, #8
 256 0164 E05E     		ldrsh	r0, [r4, r3]
 257 0166 FFF7FEFF 		bl	lv_trigo_sin
 258              	.LVL15:
 259 016a 0422     		movs	r2, #4
 260 016c A35E     		ldrsh	r3, [r4, r2]
 261 016e 5843     		muls	r0, r3
 262 0170 C013     		asrs	r0, r0, #15
 263 0172 3018     		adds	r0, r6, r0
 264 0174 6B46     		mov	r3, sp
 265 0176 D880     		strh	r0, [r3, #6]
 269:..\..\..\arduinoLCD\test\Pain Drain\libraries\lvgl\src\draw\sw/lv_draw_sw_arc.c ****             quarter_area.x1 = q->center->x + ((lv_trigo_sin(q->end_angle + 90) * (q->radius - q->wi
 266              		.loc 1 269 0
 267 0178 2368     		ldr	r3, [r4]
 268 017a 0026     		movs	r6, #0
 269 017c 9E5F     		ldrsh	r6, [r3, r6]
 270 017e 2089     		ldrh	r0, [r4, #8]
 271 0180 5A30     		adds	r0, r0, #90
 272 0182 00B2     		sxth	r0, r0
 273 0184 FFF7FEFF 		bl	lv_trigo_sin
 274              	.LVL16:
 275 0188 0422     		movs	r2, #4
 276 018a A35E     		ldrsh	r3, [r4, r2]
 277 018c 0E21     		movs	r1, #14
 278 018e 625E     		ldrsh	r2, [r4, r1]
 279 0190 9B1A     		subs	r3, r3, r2
 280 0192 5843     		muls	r0, r3
 281 0194 C013     		asrs	r0, r0, #15
 282 0196 3018     		adds	r0, r6, r0
 283 0198 6B46     		mov	r3, sp
 284 019a 1880     		strh	r0, [r3]
 270:..\..\..\arduinoLCD\test\Pain Drain\libraries\lvgl\src\draw\sw/lv_draw_sw_arc.c **** 
 271:..\..\..\arduinoLCD\test\Pain Drain\libraries\lvgl\src\draw\sw/lv_draw_sw_arc.c ****             bool ok = _lv_area_intersect(&quarter_area, &quarter_area, clip_area_ori);
 285              		.loc 1 271 0
 286 019c 2A00     		movs	r2, r5
 287 019e 6946     		mov	r1, sp
 288 01a0 6846     		mov	r0, sp
 289 01a2 FFF7FEFF 		bl	_lv_area_intersect
 290              	.LVL17:
 272:..\..\..\arduinoLCD\test\Pain Drain\libraries\lvgl\src\draw\sw/lv_draw_sw_arc.c ****             if(ok) {
 291              		.loc 1 272 0
 292 01a6 0028     		cmp	r0, #0
 293 01a8 3ED0     		beq	.L3
 273:..\..\..\arduinoLCD\test\Pain Drain\libraries\lvgl\src\draw\sw/lv_draw_sw_arc.c ****                 q->draw_ctx->clip_area = &quarter_area;
 294              		.loc 1 273 0
 295 01aa A369     		ldr	r3, [r4, #24]
 296 01ac 6A46     		mov	r2, sp
 297 01ae 9A60     		str	r2, [r3, #8]
ARM GAS  C:\Users\haske\AppData\Local\Temp\ccinSyc3.s 			page 11


 274:..\..\..\arduinoLCD\test\Pain Drain\libraries\lvgl\src\draw\sw/lv_draw_sw_arc.c ****                 lv_draw_rect(q->draw_ctx, q->draw_dsc, q->draw_area);
 298              		.loc 1 274 0
 299 01b0 6269     		ldr	r2, [r4, #20]
 300 01b2 2169     		ldr	r1, [r4, #16]
 301 01b4 A069     		ldr	r0, [r4, #24]
 302              	.LVL18:
 303 01b6 FFF7FEFF 		bl	lv_draw_rect
 304              	.LVL19:
 305 01ba 35E0     		b	.L3
 306              	.L5:
 307              	.LBE14:
 275:..\..\..\arduinoLCD\test\Pain Drain\libraries\lvgl\src\draw\sw/lv_draw_sw_arc.c ****             }
 276:..\..\..\arduinoLCD\test\Pain Drain\libraries\lvgl\src\draw\sw/lv_draw_sw_arc.c ****         }
 277:..\..\..\arduinoLCD\test\Pain Drain\libraries\lvgl\src\draw\sw/lv_draw_sw_arc.c ****     }
 278:..\..\..\arduinoLCD\test\Pain Drain\libraries\lvgl\src\draw\sw/lv_draw_sw_arc.c ****     else if((q->start_quarter == q->end_quarter && q->start_quarter != 0 && q->end_angle < q->start
 308              		.loc 1 278 0
 309 01bc 9342     		cmp	r3, r2
 310 01be 05D1     		bne	.L7
 311              		.loc 1 278 0 is_stmt 0 discriminator 1
 312 01c0 002B     		cmp	r3, #0
 313 01c2 03D0     		beq	.L7
 314              		.loc 1 278 0 discriminator 3
 315 01c4 2089     		ldrh	r0, [r4, #8]
 316 01c6 E188     		ldrh	r1, [r4, #6]
 317 01c8 8842     		cmp	r0, r1
 318 01ca 0BD3     		bcc	.L8
 319              	.L7:
 320              		.loc 1 278 0 discriminator 5
 321 01cc 022B     		cmp	r3, #2
 322 01ce 01D1     		bne	.L9
 279:..\..\..\arduinoLCD\test\Pain Drain\libraries\lvgl\src\draw\sw/lv_draw_sw_arc.c ****             (q->start_quarter == 2 && q->end_quarter == 1) ||
 323              		.loc 1 279 0 is_stmt 1
 324 01d0 012A     		cmp	r2, #1
 325 01d2 07D0     		beq	.L8
 326              	.L9:
 327              		.loc 1 279 0 is_stmt 0 discriminator 1
 328 01d4 032B     		cmp	r3, #3
 329 01d6 01D1     		bne	.L10
 280:..\..\..\arduinoLCD\test\Pain Drain\libraries\lvgl\src\draw\sw/lv_draw_sw_arc.c ****             (q->start_quarter == 3 && q->end_quarter == 2) ||
 330              		.loc 1 280 0 is_stmt 1
 331 01d8 022A     		cmp	r2, #2
 332 01da 03D0     		beq	.L8
 333              	.L10:
 334              		.loc 1 280 0 is_stmt 0 discriminator 1
 335 01dc 032B     		cmp	r3, #3
 336 01de 23D1     		bne	.L3
 281:..\..\..\arduinoLCD\test\Pain Drain\libraries\lvgl\src\draw\sw/lv_draw_sw_arc.c ****             (q->start_quarter == 3 && q->end_quarter == 1)) {
 337              		.loc 1 281 0 is_stmt 1
 338 01e0 012A     		cmp	r2, #1
 339 01e2 21D1     		bne	.L3
 340              	.L8:
 341              	.LBB15:
 282:..\..\..\arduinoLCD\test\Pain Drain\libraries\lvgl\src\draw\sw/lv_draw_sw_arc.c ****         /*Arc crosses here*/
 283:..\..\..\arduinoLCD\test\Pain Drain\libraries\lvgl\src\draw\sw/lv_draw_sw_arc.c ****         quarter_area.x1 = q->center->x;
 342              		.loc 1 283 0
 343 01e4 2368     		ldr	r3, [r4]
 344 01e6 0021     		movs	r1, #0
ARM GAS  C:\Users\haske\AppData\Local\Temp\ccinSyc3.s 			page 12


 345 01e8 5A5E     		ldrsh	r2, [r3, r1]
 346 01ea 6946     		mov	r1, sp
 347 01ec 0A80     		strh	r2, [r1]
 284:..\..\..\arduinoLCD\test\Pain Drain\libraries\lvgl\src\draw\sw/lv_draw_sw_arc.c ****         quarter_area.y1 = q->center->y;
 348              		.loc 1 284 0
 349 01ee 0221     		movs	r1, #2
 350 01f0 5A5E     		ldrsh	r2, [r3, r1]
 351 01f2 6946     		mov	r1, sp
 352 01f4 4A80     		strh	r2, [r1, #2]
 285:..\..\..\arduinoLCD\test\Pain Drain\libraries\lvgl\src\draw\sw/lv_draw_sw_arc.c ****         quarter_area.x2 = q->center->x + q->radius;
 353              		.loc 1 285 0
 354 01f6 0021     		movs	r1, #0
 355 01f8 5A5E     		ldrsh	r2, [r3, r1]
 356 01fa 0420     		movs	r0, #4
 357 01fc 215E     		ldrsh	r1, [r4, r0]
 358 01fe 5218     		adds	r2, r2, r1
 359 0200 6846     		mov	r0, sp
 360 0202 8280     		strh	r2, [r0, #4]
 286:..\..\..\arduinoLCD\test\Pain Drain\libraries\lvgl\src\draw\sw/lv_draw_sw_arc.c ****         quarter_area.y2 = q->center->y + q->radius;
 361              		.loc 1 286 0
 362 0204 0222     		movs	r2, #2
 363 0206 9B5E     		ldrsh	r3, [r3, r2]
 364 0208 CB18     		adds	r3, r1, r3
 365 020a C380     		strh	r3, [r0, #6]
 287:..\..\..\arduinoLCD\test\Pain Drain\libraries\lvgl\src\draw\sw/lv_draw_sw_arc.c **** 
 288:..\..\..\arduinoLCD\test\Pain Drain\libraries\lvgl\src\draw\sw/lv_draw_sw_arc.c ****         bool ok = _lv_area_intersect(&quarter_area, &quarter_area, clip_area_ori);
 366              		.loc 1 288 0
 367 020c 2A00     		movs	r2, r5
 368 020e 6946     		mov	r1, sp
 369 0210 FFF7FEFF 		bl	_lv_area_intersect
 370              	.LVL20:
 289:..\..\..\arduinoLCD\test\Pain Drain\libraries\lvgl\src\draw\sw/lv_draw_sw_arc.c ****         if(ok) {
 371              		.loc 1 289 0
 372 0214 0028     		cmp	r0, #0
 373 0216 07D0     		beq	.L3
 290:..\..\..\arduinoLCD\test\Pain Drain\libraries\lvgl\src\draw\sw/lv_draw_sw_arc.c ****             q->draw_ctx->clip_area = &quarter_area;
 374              		.loc 1 290 0
 375 0218 A369     		ldr	r3, [r4, #24]
 376 021a 6A46     		mov	r2, sp
 377 021c 9A60     		str	r2, [r3, #8]
 291:..\..\..\arduinoLCD\test\Pain Drain\libraries\lvgl\src\draw\sw/lv_draw_sw_arc.c ****             lv_draw_rect(q->draw_ctx, q->draw_dsc, q->draw_area);
 378              		.loc 1 291 0
 379 021e 6269     		ldr	r2, [r4, #20]
 380 0220 2169     		ldr	r1, [r4, #16]
 381 0222 A069     		ldr	r0, [r4, #24]
 382              	.LVL21:
 383 0224 FFF7FEFF 		bl	lv_draw_rect
 384              	.LVL22:
 385              	.L3:
 386              	.LBE15:
 292:..\..\..\arduinoLCD\test\Pain Drain\libraries\lvgl\src\draw\sw/lv_draw_sw_arc.c ****         }
 293:..\..\..\arduinoLCD\test\Pain Drain\libraries\lvgl\src\draw\sw/lv_draw_sw_arc.c ****     }
 294:..\..\..\arduinoLCD\test\Pain Drain\libraries\lvgl\src\draw\sw/lv_draw_sw_arc.c ****     q->draw_ctx->clip_area = clip_area_ori;
 387              		.loc 1 294 0
 388 0228 A369     		ldr	r3, [r4, #24]
 389 022a 9D60     		str	r5, [r3, #8]
 295:..\..\..\arduinoLCD\test\Pain Drain\libraries\lvgl\src\draw\sw/lv_draw_sw_arc.c **** }
ARM GAS  C:\Users\haske\AppData\Local\Temp\ccinSyc3.s 			page 13


 390              		.loc 1 295 0
 391 022c 02B0     		add	sp, sp, #8
 392              		@ sp needed
 393              	.LVL23:
 394              	.LVL24:
 395 022e 70BD     		pop	{r4, r5, r6, pc}
 396              		.cfi_endproc
 397              	.LFE57:
 398              		.size	draw_quarter_0, .-draw_quarter_0
 399              		.section	.text.draw_quarter_1,"ax",%progbits
 400              		.align	2
 401              		.code	16
 402              		.thumb_func
 403              		.type	draw_quarter_1, %function
 404              	draw_quarter_1:
 405              	.LFB58:
 296:..\..\..\arduinoLCD\test\Pain Drain\libraries\lvgl\src\draw\sw/lv_draw_sw_arc.c **** 
 297:..\..\..\arduinoLCD\test\Pain Drain\libraries\lvgl\src\draw\sw/lv_draw_sw_arc.c **** static void draw_quarter_1(quarter_draw_dsc_t * q)
 298:..\..\..\arduinoLCD\test\Pain Drain\libraries\lvgl\src\draw\sw/lv_draw_sw_arc.c **** {
 406              		.loc 1 298 0
 407              		.cfi_startproc
 408              		@ args = 0, pretend = 0, frame = 8
 409              		@ frame_needed = 0, uses_anonymous_args = 0
 410              	.LVL25:
 411 0000 70B5     		push	{r4, r5, r6, lr}
 412              		.cfi_def_cfa_offset 16
 413              		.cfi_offset 4, -16
 414              		.cfi_offset 5, -12
 415              		.cfi_offset 6, -8
 416              		.cfi_offset 14, -4
 417 0002 82B0     		sub	sp, sp, #8
 418              		.cfi_def_cfa_offset 24
 419 0004 0400     		movs	r4, r0
 299:..\..\..\arduinoLCD\test\Pain Drain\libraries\lvgl\src\draw\sw/lv_draw_sw_arc.c ****     const lv_area_t * clip_area_ori = q->draw_ctx->clip_area;
 420              		.loc 1 299 0
 421 0006 8369     		ldr	r3, [r0, #24]
 422 0008 9D68     		ldr	r5, [r3, #8]
 423              	.LVL26:
 300:..\..\..\arduinoLCD\test\Pain Drain\libraries\lvgl\src\draw\sw/lv_draw_sw_arc.c ****     lv_area_t quarter_area;
 301:..\..\..\arduinoLCD\test\Pain Drain\libraries\lvgl\src\draw\sw/lv_draw_sw_arc.c **** 
 302:..\..\..\arduinoLCD\test\Pain Drain\libraries\lvgl\src\draw\sw/lv_draw_sw_arc.c ****     if(q->start_quarter == 1 && q->end_quarter == 1 && q->start_angle < q->end_angle) {
 424              		.loc 1 302 0
 425 000a 4389     		ldrh	r3, [r0, #10]
 426 000c 012B     		cmp	r3, #1
 427 000e 56D1     		bne	.L12
 428              		.loc 1 302 0 is_stmt 0 discriminator 1
 429 0010 8289     		ldrh	r2, [r0, #12]
 430 0012 012A     		cmp	r2, #1
 431 0014 53D1     		bne	.L12
 432              		.loc 1 302 0 discriminator 2
 433 0016 C088     		ldrh	r0, [r0, #6]
 434              	.LVL27:
 435 0018 2289     		ldrh	r2, [r4, #8]
 436 001a 9042     		cmp	r0, r2
 437 001c 4FD2     		bcs	.L12
 438              	.LBB16:
 303:..\..\..\arduinoLCD\test\Pain Drain\libraries\lvgl\src\draw\sw/lv_draw_sw_arc.c ****         /*Small arc here*/
ARM GAS  C:\Users\haske\AppData\Local\Temp\ccinSyc3.s 			page 14


 304:..\..\..\arduinoLCD\test\Pain Drain\libraries\lvgl\src\draw\sw/lv_draw_sw_arc.c ****         quarter_area.y2 = q->center->y + ((lv_trigo_sin(q->start_angle) * (q->radius)) >> LV_TRIGO_
 439              		.loc 1 304 0 is_stmt 1
 440 001e 2368     		ldr	r3, [r4]
 441 0020 0226     		movs	r6, #2
 442 0022 9E5F     		ldrsh	r6, [r3, r6]
 443 0024 00B2     		sxth	r0, r0
 444 0026 FFF7FEFF 		bl	lv_trigo_sin
 445              	.LVL28:
 446 002a 0422     		movs	r2, #4
 447 002c A35E     		ldrsh	r3, [r4, r2]
 448 002e 5843     		muls	r0, r3
 449 0030 C013     		asrs	r0, r0, #15
 450 0032 3018     		adds	r0, r6, r0
 451 0034 6B46     		mov	r3, sp
 452 0036 D880     		strh	r0, [r3, #6]
 305:..\..\..\arduinoLCD\test\Pain Drain\libraries\lvgl\src\draw\sw/lv_draw_sw_arc.c ****         quarter_area.x2 = q->center->x + ((lv_trigo_sin(q->start_angle + 90) * (q->radius - q->widt
 453              		.loc 1 305 0
 454 0038 2368     		ldr	r3, [r4]
 455 003a 0026     		movs	r6, #0
 456 003c 9E5F     		ldrsh	r6, [r3, r6]
 457 003e E088     		ldrh	r0, [r4, #6]
 458 0040 5A30     		adds	r0, r0, #90
 459 0042 00B2     		sxth	r0, r0
 460 0044 FFF7FEFF 		bl	lv_trigo_sin
 461              	.LVL29:
 462 0048 0422     		movs	r2, #4
 463 004a A35E     		ldrsh	r3, [r4, r2]
 464 004c 0E21     		movs	r1, #14
 465 004e 625E     		ldrsh	r2, [r4, r1]
 466 0050 9B1A     		subs	r3, r3, r2
 467 0052 5843     		muls	r0, r3
 468 0054 C013     		asrs	r0, r0, #15
 469 0056 3018     		adds	r0, r6, r0
 470 0058 6B46     		mov	r3, sp
 471 005a 9880     		strh	r0, [r3, #4]
 306:..\..\..\arduinoLCD\test\Pain Drain\libraries\lvgl\src\draw\sw/lv_draw_sw_arc.c **** 
 307:..\..\..\arduinoLCD\test\Pain Drain\libraries\lvgl\src\draw\sw/lv_draw_sw_arc.c ****         quarter_area.y1 = q->center->y + ((lv_trigo_sin(q->end_angle) * (q->radius - q->width)) >> 
 472              		.loc 1 307 0
 473 005c 2368     		ldr	r3, [r4]
 474 005e 0226     		movs	r6, #2
 475 0060 9E5F     		ldrsh	r6, [r3, r6]
 476 0062 0823     		movs	r3, #8
 477 0064 E05E     		ldrsh	r0, [r4, r3]
 478 0066 FFF7FEFF 		bl	lv_trigo_sin
 479              	.LVL30:
 480 006a 0422     		movs	r2, #4
 481 006c A35E     		ldrsh	r3, [r4, r2]
 482 006e 0E21     		movs	r1, #14
 483 0070 625E     		ldrsh	r2, [r4, r1]
 484 0072 9B1A     		subs	r3, r3, r2
 485 0074 5843     		muls	r0, r3
 486 0076 C013     		asrs	r0, r0, #15
 487 0078 3018     		adds	r0, r6, r0
 488 007a 6B46     		mov	r3, sp
 489 007c 5880     		strh	r0, [r3, #2]
 308:..\..\..\arduinoLCD\test\Pain Drain\libraries\lvgl\src\draw\sw/lv_draw_sw_arc.c ****         quarter_area.x1 = q->center->x + ((lv_trigo_sin(q->end_angle + 90) * (q->radius)) >> LV_TRI
 490              		.loc 1 308 0
ARM GAS  C:\Users\haske\AppData\Local\Temp\ccinSyc3.s 			page 15


 491 007e 2368     		ldr	r3, [r4]
 492 0080 0026     		movs	r6, #0
 493 0082 9E5F     		ldrsh	r6, [r3, r6]
 494 0084 2089     		ldrh	r0, [r4, #8]
 495 0086 5A30     		adds	r0, r0, #90
 496 0088 00B2     		sxth	r0, r0
 497 008a FFF7FEFF 		bl	lv_trigo_sin
 498              	.LVL31:
 499 008e 0422     		movs	r2, #4
 500 0090 A35E     		ldrsh	r3, [r4, r2]
 501 0092 5843     		muls	r0, r3
 502 0094 C013     		asrs	r0, r0, #15
 503 0096 3018     		adds	r0, r6, r0
 504 0098 6B46     		mov	r3, sp
 505 009a 1880     		strh	r0, [r3]
 309:..\..\..\arduinoLCD\test\Pain Drain\libraries\lvgl\src\draw\sw/lv_draw_sw_arc.c **** 
 310:..\..\..\arduinoLCD\test\Pain Drain\libraries\lvgl\src\draw\sw/lv_draw_sw_arc.c ****         bool ok = _lv_area_intersect(&quarter_area, &quarter_area, clip_area_ori);
 506              		.loc 1 310 0
 507 009c 2A00     		movs	r2, r5
 508 009e 6946     		mov	r1, sp
 509 00a0 6846     		mov	r0, sp
 510 00a2 FFF7FEFF 		bl	_lv_area_intersect
 511              	.LVL32:
 311:..\..\..\arduinoLCD\test\Pain Drain\libraries\lvgl\src\draw\sw/lv_draw_sw_arc.c ****         if(ok) {
 512              		.loc 1 311 0
 513 00a6 0028     		cmp	r0, #0
 514 00a8 00D1     		bne	.LCB435
 515 00aa BFE0     		b	.L13	@long jump
 516              	.LCB435:
 312:..\..\..\arduinoLCD\test\Pain Drain\libraries\lvgl\src\draw\sw/lv_draw_sw_arc.c ****             q->draw_ctx->clip_area = &quarter_area;
 517              		.loc 1 312 0
 518 00ac A369     		ldr	r3, [r4, #24]
 519 00ae 6A46     		mov	r2, sp
 520 00b0 9A60     		str	r2, [r3, #8]
 313:..\..\..\arduinoLCD\test\Pain Drain\libraries\lvgl\src\draw\sw/lv_draw_sw_arc.c ****             lv_draw_rect(q->draw_ctx, q->draw_dsc, q->draw_area);
 521              		.loc 1 313 0
 522 00b2 6269     		ldr	r2, [r4, #20]
 523 00b4 2169     		ldr	r1, [r4, #16]
 524 00b6 A069     		ldr	r0, [r4, #24]
 525              	.LVL33:
 526 00b8 FFF7FEFF 		bl	lv_draw_rect
 527              	.LVL34:
 528 00bc B6E0     		b	.L13
 529              	.L12:
 530              	.LBE16:
 314:..\..\..\arduinoLCD\test\Pain Drain\libraries\lvgl\src\draw\sw/lv_draw_sw_arc.c ****         }
 315:..\..\..\arduinoLCD\test\Pain Drain\libraries\lvgl\src\draw\sw/lv_draw_sw_arc.c ****     }
 316:..\..\..\arduinoLCD\test\Pain Drain\libraries\lvgl\src\draw\sw/lv_draw_sw_arc.c ****     else if(q->start_quarter == 1 || q->end_quarter == 1) {
 531              		.loc 1 316 0
 532 00be 012B     		cmp	r3, #1
 533 00c0 02D0     		beq	.L14
 534              		.loc 1 316 0 is_stmt 0 discriminator 1
 535 00c2 A289     		ldrh	r2, [r4, #12]
 536 00c4 012A     		cmp	r2, #1
 537 00c6 7AD1     		bne	.L15
 538              	.L14:
 317:..\..\..\arduinoLCD\test\Pain Drain\libraries\lvgl\src\draw\sw/lv_draw_sw_arc.c ****         /*Start and/or end arcs here*/
ARM GAS  C:\Users\haske\AppData\Local\Temp\ccinSyc3.s 			page 16


 318:..\..\..\arduinoLCD\test\Pain Drain\libraries\lvgl\src\draw\sw/lv_draw_sw_arc.c ****         if(q->start_quarter == 1) {
 539              		.loc 1 318 0 is_stmt 1
 540 00c8 012B     		cmp	r3, #1
 541 00ca 39D1     		bne	.L16
 542              	.LBB17:
 319:..\..\..\arduinoLCD\test\Pain Drain\libraries\lvgl\src\draw\sw/lv_draw_sw_arc.c ****             quarter_area.x1 = q->center->x - q->radius;
 543              		.loc 1 319 0
 544 00cc 2368     		ldr	r3, [r4]
 545 00ce 0021     		movs	r1, #0
 546 00d0 5A5E     		ldrsh	r2, [r3, r1]
 547 00d2 0420     		movs	r0, #4
 548 00d4 215E     		ldrsh	r1, [r4, r0]
 549 00d6 521A     		subs	r2, r2, r1
 550 00d8 6946     		mov	r1, sp
 551 00da 0A80     		strh	r2, [r1]
 320:..\..\..\arduinoLCD\test\Pain Drain\libraries\lvgl\src\draw\sw/lv_draw_sw_arc.c ****             quarter_area.y1 = q->center->y;
 552              		.loc 1 320 0
 553 00dc 0221     		movs	r1, #2
 554 00de 5A5E     		ldrsh	r2, [r3, r1]
 555 00e0 6946     		mov	r1, sp
 556 00e2 4A80     		strh	r2, [r1, #2]
 321:..\..\..\arduinoLCD\test\Pain Drain\libraries\lvgl\src\draw\sw/lv_draw_sw_arc.c **** 
 322:..\..\..\arduinoLCD\test\Pain Drain\libraries\lvgl\src\draw\sw/lv_draw_sw_arc.c ****             quarter_area.y2 = q->center->y + ((lv_trigo_sin(q->start_angle) * (q->radius)) >> LV_TR
 557              		.loc 1 322 0
 558 00e4 0226     		movs	r6, #2
 559 00e6 9E5F     		ldrsh	r6, [r3, r6]
 560 00e8 0623     		movs	r3, #6
 561 00ea E05E     		ldrsh	r0, [r4, r3]
 562 00ec FFF7FEFF 		bl	lv_trigo_sin
 563              	.LVL35:
 564 00f0 0422     		movs	r2, #4
 565 00f2 A35E     		ldrsh	r3, [r4, r2]
 566 00f4 5843     		muls	r0, r3
 567 00f6 C013     		asrs	r0, r0, #15
 568 00f8 3018     		adds	r0, r6, r0
 569 00fa 6B46     		mov	r3, sp
 570 00fc D880     		strh	r0, [r3, #6]
 323:..\..\..\arduinoLCD\test\Pain Drain\libraries\lvgl\src\draw\sw/lv_draw_sw_arc.c ****             quarter_area.x2 = q->center->x + ((lv_trigo_sin(q->start_angle + 90) * (q->radius - q->
 571              		.loc 1 323 0
 572 00fe 2368     		ldr	r3, [r4]
 573 0100 0026     		movs	r6, #0
 574 0102 9E5F     		ldrsh	r6, [r3, r6]
 575 0104 E088     		ldrh	r0, [r4, #6]
 576 0106 5A30     		adds	r0, r0, #90
 577 0108 00B2     		sxth	r0, r0
 578 010a FFF7FEFF 		bl	lv_trigo_sin
 579              	.LVL36:
 580 010e 0422     		movs	r2, #4
 581 0110 A35E     		ldrsh	r3, [r4, r2]
 582 0112 0E21     		movs	r1, #14
 583 0114 625E     		ldrsh	r2, [r4, r1]
 584 0116 9B1A     		subs	r3, r3, r2
 585 0118 5843     		muls	r0, r3
 586 011a C013     		asrs	r0, r0, #15
 587 011c 3018     		adds	r0, r6, r0
 588 011e 6B46     		mov	r3, sp
 589 0120 9880     		strh	r0, [r3, #4]
ARM GAS  C:\Users\haske\AppData\Local\Temp\ccinSyc3.s 			page 17


 324:..\..\..\arduinoLCD\test\Pain Drain\libraries\lvgl\src\draw\sw/lv_draw_sw_arc.c **** 
 325:..\..\..\arduinoLCD\test\Pain Drain\libraries\lvgl\src\draw\sw/lv_draw_sw_arc.c ****             bool ok = _lv_area_intersect(&quarter_area, &quarter_area, clip_area_ori);
 590              		.loc 1 325 0
 591 0122 2A00     		movs	r2, r5
 592 0124 6946     		mov	r1, sp
 593 0126 6846     		mov	r0, sp
 594 0128 FFF7FEFF 		bl	_lv_area_intersect
 595              	.LVL37:
 326:..\..\..\arduinoLCD\test\Pain Drain\libraries\lvgl\src\draw\sw/lv_draw_sw_arc.c ****             if(ok) {
 596              		.loc 1 326 0
 597 012c 0028     		cmp	r0, #0
 598 012e 07D0     		beq	.L16
 327:..\..\..\arduinoLCD\test\Pain Drain\libraries\lvgl\src\draw\sw/lv_draw_sw_arc.c ****                 q->draw_ctx->clip_area = &quarter_area;
 599              		.loc 1 327 0
 600 0130 A369     		ldr	r3, [r4, #24]
 601 0132 6A46     		mov	r2, sp
 602 0134 9A60     		str	r2, [r3, #8]
 328:..\..\..\arduinoLCD\test\Pain Drain\libraries\lvgl\src\draw\sw/lv_draw_sw_arc.c ****                 lv_draw_rect(q->draw_ctx, q->draw_dsc, q->draw_area);
 603              		.loc 1 328 0
 604 0136 6269     		ldr	r2, [r4, #20]
 605 0138 2169     		ldr	r1, [r4, #16]
 606 013a A069     		ldr	r0, [r4, #24]
 607              	.LVL38:
 608 013c FFF7FEFF 		bl	lv_draw_rect
 609              	.LVL39:
 610              	.L16:
 611              	.LBE17:
 329:..\..\..\arduinoLCD\test\Pain Drain\libraries\lvgl\src\draw\sw/lv_draw_sw_arc.c ****             }
 330:..\..\..\arduinoLCD\test\Pain Drain\libraries\lvgl\src\draw\sw/lv_draw_sw_arc.c ****         }
 331:..\..\..\arduinoLCD\test\Pain Drain\libraries\lvgl\src\draw\sw/lv_draw_sw_arc.c ****         if(q->end_quarter == 1) {
 612              		.loc 1 331 0
 613 0140 A389     		ldrh	r3, [r4, #12]
 614 0142 012B     		cmp	r3, #1
 615 0144 72D1     		bne	.L13
 616              	.LBB18:
 332:..\..\..\arduinoLCD\test\Pain Drain\libraries\lvgl\src\draw\sw/lv_draw_sw_arc.c ****             quarter_area.x2 = q->center->x - 1;
 617              		.loc 1 332 0
 618 0146 2368     		ldr	r3, [r4]
 619 0148 0021     		movs	r1, #0
 620 014a 5A5E     		ldrsh	r2, [r3, r1]
 621 014c 013A     		subs	r2, r2, #1
 622 014e 6946     		mov	r1, sp
 623 0150 8A80     		strh	r2, [r1, #4]
 333:..\..\..\arduinoLCD\test\Pain Drain\libraries\lvgl\src\draw\sw/lv_draw_sw_arc.c ****             quarter_area.y2 = q->center->y + q->radius;
 624              		.loc 1 333 0
 625 0152 0222     		movs	r2, #2
 626 0154 995E     		ldrsh	r1, [r3, r2]
 627 0156 0420     		movs	r0, #4
 628 0158 225E     		ldrsh	r2, [r4, r0]
 629 015a 8A18     		adds	r2, r1, r2
 630 015c 6946     		mov	r1, sp
 631 015e CA80     		strh	r2, [r1, #6]
 334:..\..\..\arduinoLCD\test\Pain Drain\libraries\lvgl\src\draw\sw/lv_draw_sw_arc.c **** 
 335:..\..\..\arduinoLCD\test\Pain Drain\libraries\lvgl\src\draw\sw/lv_draw_sw_arc.c ****             quarter_area.y1 = q->center->y + ((lv_trigo_sin(q->end_angle) * (q->radius - q->width))
 632              		.loc 1 335 0
 633 0160 0226     		movs	r6, #2
 634 0162 9E5F     		ldrsh	r6, [r3, r6]
ARM GAS  C:\Users\haske\AppData\Local\Temp\ccinSyc3.s 			page 18


 635 0164 0823     		movs	r3, #8
 636 0166 E05E     		ldrsh	r0, [r4, r3]
 637 0168 FFF7FEFF 		bl	lv_trigo_sin
 638              	.LVL40:
 639 016c 0422     		movs	r2, #4
 640 016e A35E     		ldrsh	r3, [r4, r2]
 641 0170 0E21     		movs	r1, #14
 642 0172 625E     		ldrsh	r2, [r4, r1]
 643 0174 9B1A     		subs	r3, r3, r2
 644 0176 5843     		muls	r0, r3
 645 0178 C013     		asrs	r0, r0, #15
 646 017a 3018     		adds	r0, r6, r0
 647 017c 6B46     		mov	r3, sp
 648 017e 5880     		strh	r0, [r3, #2]
 336:..\..\..\arduinoLCD\test\Pain Drain\libraries\lvgl\src\draw\sw/lv_draw_sw_arc.c ****             quarter_area.x1 = q->center->x + ((lv_trigo_sin(q->end_angle + 90) * (q->radius)) >> LV
 649              		.loc 1 336 0
 650 0180 2368     		ldr	r3, [r4]
 651 0182 0026     		movs	r6, #0
 652 0184 9E5F     		ldrsh	r6, [r3, r6]
 653 0186 2089     		ldrh	r0, [r4, #8]
 654 0188 5A30     		adds	r0, r0, #90
 655 018a 00B2     		sxth	r0, r0
 656 018c FFF7FEFF 		bl	lv_trigo_sin
 657              	.LVL41:
 658 0190 0422     		movs	r2, #4
 659 0192 A35E     		ldrsh	r3, [r4, r2]
 660 0194 5843     		muls	r0, r3
 661 0196 C013     		asrs	r0, r0, #15
 662 0198 3018     		adds	r0, r6, r0
 663 019a 6B46     		mov	r3, sp
 664 019c 1880     		strh	r0, [r3]
 337:..\..\..\arduinoLCD\test\Pain Drain\libraries\lvgl\src\draw\sw/lv_draw_sw_arc.c **** 
 338:..\..\..\arduinoLCD\test\Pain Drain\libraries\lvgl\src\draw\sw/lv_draw_sw_arc.c ****             bool ok = _lv_area_intersect(&quarter_area, &quarter_area, clip_area_ori);
 665              		.loc 1 338 0
 666 019e 2A00     		movs	r2, r5
 667 01a0 6946     		mov	r1, sp
 668 01a2 6846     		mov	r0, sp
 669 01a4 FFF7FEFF 		bl	_lv_area_intersect
 670              	.LVL42:
 339:..\..\..\arduinoLCD\test\Pain Drain\libraries\lvgl\src\draw\sw/lv_draw_sw_arc.c ****             if(ok) {
 671              		.loc 1 339 0
 672 01a8 0028     		cmp	r0, #0
 673 01aa 3FD0     		beq	.L13
 340:..\..\..\arduinoLCD\test\Pain Drain\libraries\lvgl\src\draw\sw/lv_draw_sw_arc.c ****                 q->draw_ctx->clip_area = &quarter_area;
 674              		.loc 1 340 0
 675 01ac A369     		ldr	r3, [r4, #24]
 676 01ae 6A46     		mov	r2, sp
 677 01b0 9A60     		str	r2, [r3, #8]
 341:..\..\..\arduinoLCD\test\Pain Drain\libraries\lvgl\src\draw\sw/lv_draw_sw_arc.c ****                 lv_draw_rect(q->draw_ctx, q->draw_dsc, q->draw_area);
 678              		.loc 1 341 0
 679 01b2 6269     		ldr	r2, [r4, #20]
 680 01b4 2169     		ldr	r1, [r4, #16]
 681 01b6 A069     		ldr	r0, [r4, #24]
 682              	.LVL43:
 683 01b8 FFF7FEFF 		bl	lv_draw_rect
 684              	.LVL44:
 685 01bc 36E0     		b	.L13
ARM GAS  C:\Users\haske\AppData\Local\Temp\ccinSyc3.s 			page 19


 686              	.L15:
 687              	.LBE18:
 342:..\..\..\arduinoLCD\test\Pain Drain\libraries\lvgl\src\draw\sw/lv_draw_sw_arc.c ****             }
 343:..\..\..\arduinoLCD\test\Pain Drain\libraries\lvgl\src\draw\sw/lv_draw_sw_arc.c ****         }
 344:..\..\..\arduinoLCD\test\Pain Drain\libraries\lvgl\src\draw\sw/lv_draw_sw_arc.c ****     }
 345:..\..\..\arduinoLCD\test\Pain Drain\libraries\lvgl\src\draw\sw/lv_draw_sw_arc.c ****     else if((q->start_quarter == q->end_quarter && q->start_quarter != 1 && q->end_angle < q->start
 688              		.loc 1 345 0
 689 01be 9342     		cmp	r3, r2
 690 01c0 05D1     		bne	.L17
 691              		.loc 1 345 0 is_stmt 0 discriminator 1
 692 01c2 012B     		cmp	r3, #1
 693 01c4 03D0     		beq	.L17
 694              		.loc 1 345 0 discriminator 3
 695 01c6 2089     		ldrh	r0, [r4, #8]
 696 01c8 E188     		ldrh	r1, [r4, #6]
 697 01ca 8842     		cmp	r0, r1
 698 01cc 0BD3     		bcc	.L18
 699              	.L17:
 700              		.loc 1 345 0 discriminator 5
 701 01ce 002B     		cmp	r3, #0
 702 01d0 01D1     		bne	.L19
 346:..\..\..\arduinoLCD\test\Pain Drain\libraries\lvgl\src\draw\sw/lv_draw_sw_arc.c ****             (q->start_quarter == 0 && q->end_quarter == 2) ||
 703              		.loc 1 346 0 is_stmt 1
 704 01d2 022A     		cmp	r2, #2
 705 01d4 07D0     		beq	.L18
 706              	.L19:
 707              		.loc 1 346 0 is_stmt 0 discriminator 1
 708 01d6 002B     		cmp	r3, #0
 709 01d8 01D1     		bne	.L20
 347:..\..\..\arduinoLCD\test\Pain Drain\libraries\lvgl\src\draw\sw/lv_draw_sw_arc.c ****             (q->start_quarter == 0 && q->end_quarter == 3) ||
 710              		.loc 1 347 0 is_stmt 1
 711 01da 032A     		cmp	r2, #3
 712 01dc 03D0     		beq	.L18
 713              	.L20:
 714              		.loc 1 347 0 is_stmt 0 discriminator 1
 715 01de 032B     		cmp	r3, #3
 716 01e0 24D1     		bne	.L13
 348:..\..\..\arduinoLCD\test\Pain Drain\libraries\lvgl\src\draw\sw/lv_draw_sw_arc.c ****             (q->start_quarter == 3 && q->end_quarter == 2)) {
 717              		.loc 1 348 0 is_stmt 1
 718 01e2 022A     		cmp	r2, #2
 719 01e4 22D1     		bne	.L13
 720              	.L18:
 721              	.LBB19:
 349:..\..\..\arduinoLCD\test\Pain Drain\libraries\lvgl\src\draw\sw/lv_draw_sw_arc.c ****         /*Arc crosses here*/
 350:..\..\..\arduinoLCD\test\Pain Drain\libraries\lvgl\src\draw\sw/lv_draw_sw_arc.c ****         quarter_area.x1 = q->center->x - q->radius;
 722              		.loc 1 350 0
 723 01e6 2368     		ldr	r3, [r4]
 724 01e8 0021     		movs	r1, #0
 725 01ea 5A5E     		ldrsh	r2, [r3, r1]
 726 01ec 0420     		movs	r0, #4
 727 01ee 215E     		ldrsh	r1, [r4, r0]
 728 01f0 521A     		subs	r2, r2, r1
 729 01f2 6846     		mov	r0, sp
 730 01f4 0280     		strh	r2, [r0]
 351:..\..\..\arduinoLCD\test\Pain Drain\libraries\lvgl\src\draw\sw/lv_draw_sw_arc.c ****         quarter_area.y1 = q->center->y;
 731              		.loc 1 351 0
 732 01f6 0220     		movs	r0, #2
ARM GAS  C:\Users\haske\AppData\Local\Temp\ccinSyc3.s 			page 20


 733 01f8 1A5E     		ldrsh	r2, [r3, r0]
 734 01fa 6846     		mov	r0, sp
 735 01fc 4280     		strh	r2, [r0, #2]
 352:..\..\..\arduinoLCD\test\Pain Drain\libraries\lvgl\src\draw\sw/lv_draw_sw_arc.c ****         quarter_area.x2 = q->center->x - 1;
 736              		.loc 1 352 0
 737 01fe 0020     		movs	r0, #0
 738 0200 1A5E     		ldrsh	r2, [r3, r0]
 739 0202 013A     		subs	r2, r2, #1
 740 0204 6846     		mov	r0, sp
 741 0206 8280     		strh	r2, [r0, #4]
 353:..\..\..\arduinoLCD\test\Pain Drain\libraries\lvgl\src\draw\sw/lv_draw_sw_arc.c ****         quarter_area.y2 = q->center->y + q->radius;
 742              		.loc 1 353 0
 743 0208 0222     		movs	r2, #2
 744 020a 9B5E     		ldrsh	r3, [r3, r2]
 745 020c CB18     		adds	r3, r1, r3
 746 020e C380     		strh	r3, [r0, #6]
 354:..\..\..\arduinoLCD\test\Pain Drain\libraries\lvgl\src\draw\sw/lv_draw_sw_arc.c **** 
 355:..\..\..\arduinoLCD\test\Pain Drain\libraries\lvgl\src\draw\sw/lv_draw_sw_arc.c ****         bool ok = _lv_area_intersect(&quarter_area, &quarter_area, clip_area_ori);
 747              		.loc 1 355 0
 748 0210 2A00     		movs	r2, r5
 749 0212 6946     		mov	r1, sp
 750 0214 FFF7FEFF 		bl	_lv_area_intersect
 751              	.LVL45:
 356:..\..\..\arduinoLCD\test\Pain Drain\libraries\lvgl\src\draw\sw/lv_draw_sw_arc.c ****         if(ok) {
 752              		.loc 1 356 0
 753 0218 0028     		cmp	r0, #0
 754 021a 07D0     		beq	.L13
 357:..\..\..\arduinoLCD\test\Pain Drain\libraries\lvgl\src\draw\sw/lv_draw_sw_arc.c ****             q->draw_ctx->clip_area = &quarter_area;
 755              		.loc 1 357 0
 756 021c A369     		ldr	r3, [r4, #24]
 757 021e 6A46     		mov	r2, sp
 758 0220 9A60     		str	r2, [r3, #8]
 358:..\..\..\arduinoLCD\test\Pain Drain\libraries\lvgl\src\draw\sw/lv_draw_sw_arc.c ****             lv_draw_rect(q->draw_ctx, q->draw_dsc, q->draw_area);
 759              		.loc 1 358 0
 760 0222 6269     		ldr	r2, [r4, #20]
 761 0224 2169     		ldr	r1, [r4, #16]
 762 0226 A069     		ldr	r0, [r4, #24]
 763              	.LVL46:
 764 0228 FFF7FEFF 		bl	lv_draw_rect
 765              	.LVL47:
 766              	.L13:
 767              	.LBE19:
 359:..\..\..\arduinoLCD\test\Pain Drain\libraries\lvgl\src\draw\sw/lv_draw_sw_arc.c ****         }
 360:..\..\..\arduinoLCD\test\Pain Drain\libraries\lvgl\src\draw\sw/lv_draw_sw_arc.c ****     }
 361:..\..\..\arduinoLCD\test\Pain Drain\libraries\lvgl\src\draw\sw/lv_draw_sw_arc.c ****     q->draw_ctx->clip_area = clip_area_ori;
 768              		.loc 1 361 0
 769 022c A369     		ldr	r3, [r4, #24]
 770 022e 9D60     		str	r5, [r3, #8]
 362:..\..\..\arduinoLCD\test\Pain Drain\libraries\lvgl\src\draw\sw/lv_draw_sw_arc.c **** }
 771              		.loc 1 362 0
 772 0230 02B0     		add	sp, sp, #8
 773              		@ sp needed
 774              	.LVL48:
 775              	.LVL49:
 776 0232 70BD     		pop	{r4, r5, r6, pc}
 777              		.cfi_endproc
 778              	.LFE58:
ARM GAS  C:\Users\haske\AppData\Local\Temp\ccinSyc3.s 			page 21


 779              		.size	draw_quarter_1, .-draw_quarter_1
 780              		.section	.text.draw_quarter_2,"ax",%progbits
 781              		.align	2
 782              		.code	16
 783              		.thumb_func
 784              		.type	draw_quarter_2, %function
 785              	draw_quarter_2:
 786              	.LFB59:
 363:..\..\..\arduinoLCD\test\Pain Drain\libraries\lvgl\src\draw\sw/lv_draw_sw_arc.c **** 
 364:..\..\..\arduinoLCD\test\Pain Drain\libraries\lvgl\src\draw\sw/lv_draw_sw_arc.c **** static void draw_quarter_2(quarter_draw_dsc_t * q)
 365:..\..\..\arduinoLCD\test\Pain Drain\libraries\lvgl\src\draw\sw/lv_draw_sw_arc.c **** {
 787              		.loc 1 365 0
 788              		.cfi_startproc
 789              		@ args = 0, pretend = 0, frame = 8
 790              		@ frame_needed = 0, uses_anonymous_args = 0
 791              	.LVL50:
 792 0000 70B5     		push	{r4, r5, r6, lr}
 793              		.cfi_def_cfa_offset 16
 794              		.cfi_offset 4, -16
 795              		.cfi_offset 5, -12
 796              		.cfi_offset 6, -8
 797              		.cfi_offset 14, -4
 798 0002 82B0     		sub	sp, sp, #8
 799              		.cfi_def_cfa_offset 24
 800 0004 0400     		movs	r4, r0
 366:..\..\..\arduinoLCD\test\Pain Drain\libraries\lvgl\src\draw\sw/lv_draw_sw_arc.c ****     const lv_area_t * clip_area_ori = q->draw_ctx->clip_area;
 801              		.loc 1 366 0
 802 0006 8369     		ldr	r3, [r0, #24]
 803 0008 9D68     		ldr	r5, [r3, #8]
 804              	.LVL51:
 367:..\..\..\arduinoLCD\test\Pain Drain\libraries\lvgl\src\draw\sw/lv_draw_sw_arc.c ****     lv_area_t quarter_area;
 368:..\..\..\arduinoLCD\test\Pain Drain\libraries\lvgl\src\draw\sw/lv_draw_sw_arc.c **** 
 369:..\..\..\arduinoLCD\test\Pain Drain\libraries\lvgl\src\draw\sw/lv_draw_sw_arc.c ****     if(q->start_quarter == 2 && q->end_quarter == 2 && q->start_angle < q->end_angle) {
 805              		.loc 1 369 0
 806 000a 4389     		ldrh	r3, [r0, #10]
 807 000c 022B     		cmp	r3, #2
 808 000e 56D1     		bne	.L22
 809              		.loc 1 369 0 is_stmt 0 discriminator 1
 810 0010 8289     		ldrh	r2, [r0, #12]
 811 0012 022A     		cmp	r2, #2
 812 0014 53D1     		bne	.L22
 813              		.loc 1 369 0 discriminator 2
 814 0016 C088     		ldrh	r0, [r0, #6]
 815              	.LVL52:
 816 0018 2289     		ldrh	r2, [r4, #8]
 817 001a 9042     		cmp	r0, r2
 818 001c 4FD2     		bcs	.L22
 819              	.LBB20:
 370:..\..\..\arduinoLCD\test\Pain Drain\libraries\lvgl\src\draw\sw/lv_draw_sw_arc.c ****         /*Small arc here*/
 371:..\..\..\arduinoLCD\test\Pain Drain\libraries\lvgl\src\draw\sw/lv_draw_sw_arc.c ****         quarter_area.x1 = q->center->x + ((lv_trigo_sin(q->start_angle + 90) * (q->radius)) >> LV_T
 820              		.loc 1 371 0 is_stmt 1
 821 001e 2368     		ldr	r3, [r4]
 822 0020 0026     		movs	r6, #0
 823 0022 9E5F     		ldrsh	r6, [r3, r6]
 824 0024 5A30     		adds	r0, r0, #90
 825 0026 00B2     		sxth	r0, r0
 826 0028 FFF7FEFF 		bl	lv_trigo_sin
ARM GAS  C:\Users\haske\AppData\Local\Temp\ccinSyc3.s 			page 22


 827              	.LVL53:
 828 002c 0422     		movs	r2, #4
 829 002e A35E     		ldrsh	r3, [r4, r2]
 830 0030 5843     		muls	r0, r3
 831 0032 C013     		asrs	r0, r0, #15
 832 0034 3018     		adds	r0, r6, r0
 833 0036 6B46     		mov	r3, sp
 834 0038 1880     		strh	r0, [r3]
 372:..\..\..\arduinoLCD\test\Pain Drain\libraries\lvgl\src\draw\sw/lv_draw_sw_arc.c ****         quarter_area.y2 = q->center->y + ((lv_trigo_sin(q->start_angle) * (q->radius - q->width)) >
 835              		.loc 1 372 0
 836 003a 2368     		ldr	r3, [r4]
 837 003c 0226     		movs	r6, #2
 838 003e 9E5F     		ldrsh	r6, [r3, r6]
 839 0040 0623     		movs	r3, #6
 840 0042 E05E     		ldrsh	r0, [r4, r3]
 841 0044 FFF7FEFF 		bl	lv_trigo_sin
 842              	.LVL54:
 843 0048 0422     		movs	r2, #4
 844 004a A35E     		ldrsh	r3, [r4, r2]
 845 004c 0E21     		movs	r1, #14
 846 004e 625E     		ldrsh	r2, [r4, r1]
 847 0050 9B1A     		subs	r3, r3, r2
 848 0052 5843     		muls	r0, r3
 849 0054 C013     		asrs	r0, r0, #15
 850 0056 3018     		adds	r0, r6, r0
 851 0058 6B46     		mov	r3, sp
 852 005a D880     		strh	r0, [r3, #6]
 373:..\..\..\arduinoLCD\test\Pain Drain\libraries\lvgl\src\draw\sw/lv_draw_sw_arc.c **** 
 374:..\..\..\arduinoLCD\test\Pain Drain\libraries\lvgl\src\draw\sw/lv_draw_sw_arc.c ****         quarter_area.y1 = q->center->y + ((lv_trigo_sin(q->end_angle) * q->radius) >> LV_TRIGO_SHIF
 853              		.loc 1 374 0
 854 005c 2368     		ldr	r3, [r4]
 855 005e 0226     		movs	r6, #2
 856 0060 9E5F     		ldrsh	r6, [r3, r6]
 857 0062 0823     		movs	r3, #8
 858 0064 E05E     		ldrsh	r0, [r4, r3]
 859 0066 FFF7FEFF 		bl	lv_trigo_sin
 860              	.LVL55:
 861 006a 0422     		movs	r2, #4
 862 006c A35E     		ldrsh	r3, [r4, r2]
 863 006e 5843     		muls	r0, r3
 864 0070 C013     		asrs	r0, r0, #15
 865 0072 3018     		adds	r0, r6, r0
 866 0074 6B46     		mov	r3, sp
 867 0076 5880     		strh	r0, [r3, #2]
 375:..\..\..\arduinoLCD\test\Pain Drain\libraries\lvgl\src\draw\sw/lv_draw_sw_arc.c ****         quarter_area.x2 = q->center->x + ((lv_trigo_sin(q->end_angle + 90) * (q->radius - q->width)
 868              		.loc 1 375 0
 869 0078 2368     		ldr	r3, [r4]
 870 007a 0026     		movs	r6, #0
 871 007c 9E5F     		ldrsh	r6, [r3, r6]
 872 007e 2089     		ldrh	r0, [r4, #8]
 873 0080 5A30     		adds	r0, r0, #90
 874 0082 00B2     		sxth	r0, r0
 875 0084 FFF7FEFF 		bl	lv_trigo_sin
 876              	.LVL56:
 877 0088 0422     		movs	r2, #4
 878 008a A35E     		ldrsh	r3, [r4, r2]
 879 008c 0E21     		movs	r1, #14
ARM GAS  C:\Users\haske\AppData\Local\Temp\ccinSyc3.s 			page 23


 880 008e 625E     		ldrsh	r2, [r4, r1]
 881 0090 9B1A     		subs	r3, r3, r2
 882 0092 5843     		muls	r0, r3
 883 0094 C013     		asrs	r0, r0, #15
 884 0096 3018     		adds	r0, r6, r0
 885 0098 6B46     		mov	r3, sp
 886 009a 9880     		strh	r0, [r3, #4]
 376:..\..\..\arduinoLCD\test\Pain Drain\libraries\lvgl\src\draw\sw/lv_draw_sw_arc.c **** 
 377:..\..\..\arduinoLCD\test\Pain Drain\libraries\lvgl\src\draw\sw/lv_draw_sw_arc.c ****         bool ok = _lv_area_intersect(&quarter_area, &quarter_area, clip_area_ori);
 887              		.loc 1 377 0
 888 009c 2A00     		movs	r2, r5
 889 009e 6946     		mov	r1, sp
 890 00a0 6846     		mov	r0, sp
 891 00a2 FFF7FEFF 		bl	_lv_area_intersect
 892              	.LVL57:
 378:..\..\..\arduinoLCD\test\Pain Drain\libraries\lvgl\src\draw\sw/lv_draw_sw_arc.c ****         if(ok) {
 893              		.loc 1 378 0
 894 00a6 0028     		cmp	r0, #0
 895 00a8 00D1     		bne	.LCB778
 896 00aa C0E0     		b	.L23	@long jump
 897              	.LCB778:
 379:..\..\..\arduinoLCD\test\Pain Drain\libraries\lvgl\src\draw\sw/lv_draw_sw_arc.c ****             q->draw_ctx->clip_area = &quarter_area;
 898              		.loc 1 379 0
 899 00ac A369     		ldr	r3, [r4, #24]
 900 00ae 6A46     		mov	r2, sp
 901 00b0 9A60     		str	r2, [r3, #8]
 380:..\..\..\arduinoLCD\test\Pain Drain\libraries\lvgl\src\draw\sw/lv_draw_sw_arc.c ****             lv_draw_rect(q->draw_ctx, q->draw_dsc, q->draw_area);
 902              		.loc 1 380 0
 903 00b2 6269     		ldr	r2, [r4, #20]
 904 00b4 2169     		ldr	r1, [r4, #16]
 905 00b6 A069     		ldr	r0, [r4, #24]
 906              	.LVL58:
 907 00b8 FFF7FEFF 		bl	lv_draw_rect
 908              	.LVL59:
 909 00bc B7E0     		b	.L23
 910              	.L22:
 911              	.LBE20:
 381:..\..\..\arduinoLCD\test\Pain Drain\libraries\lvgl\src\draw\sw/lv_draw_sw_arc.c ****         }
 382:..\..\..\arduinoLCD\test\Pain Drain\libraries\lvgl\src\draw\sw/lv_draw_sw_arc.c ****     }
 383:..\..\..\arduinoLCD\test\Pain Drain\libraries\lvgl\src\draw\sw/lv_draw_sw_arc.c ****     else if(q->start_quarter == 2 || q->end_quarter == 2) {
 912              		.loc 1 383 0
 913 00be 022B     		cmp	r3, #2
 914 00c0 02D0     		beq	.L24
 915              		.loc 1 383 0 is_stmt 0 discriminator 1
 916 00c2 A289     		ldrh	r2, [r4, #12]
 917 00c4 022A     		cmp	r2, #2
 918 00c6 7BD1     		bne	.L25
 919              	.L24:
 384:..\..\..\arduinoLCD\test\Pain Drain\libraries\lvgl\src\draw\sw/lv_draw_sw_arc.c ****         /*Start and/or end arcs here*/
 385:..\..\..\arduinoLCD\test\Pain Drain\libraries\lvgl\src\draw\sw/lv_draw_sw_arc.c ****         if(q->start_quarter == 2) {
 920              		.loc 1 385 0 is_stmt 1
 921 00c8 022B     		cmp	r3, #2
 922 00ca 3AD1     		bne	.L26
 923              	.LBB21:
 386:..\..\..\arduinoLCD\test\Pain Drain\libraries\lvgl\src\draw\sw/lv_draw_sw_arc.c ****             quarter_area.x2 = q->center->x - 1;
 924              		.loc 1 386 0
 925 00cc 2368     		ldr	r3, [r4]
ARM GAS  C:\Users\haske\AppData\Local\Temp\ccinSyc3.s 			page 24


 926 00ce 0021     		movs	r1, #0
 927 00d0 5A5E     		ldrsh	r2, [r3, r1]
 928 00d2 013A     		subs	r2, r2, #1
 929 00d4 6946     		mov	r1, sp
 930 00d6 8A80     		strh	r2, [r1, #4]
 387:..\..\..\arduinoLCD\test\Pain Drain\libraries\lvgl\src\draw\sw/lv_draw_sw_arc.c ****             quarter_area.y1 = q->center->y - q->radius;
 931              		.loc 1 387 0
 932 00d8 0221     		movs	r1, #2
 933 00da 5A5E     		ldrsh	r2, [r3, r1]
 934 00dc 0420     		movs	r0, #4
 935 00de 215E     		ldrsh	r1, [r4, r0]
 936 00e0 521A     		subs	r2, r2, r1
 937 00e2 6946     		mov	r1, sp
 938 00e4 4A80     		strh	r2, [r1, #2]
 388:..\..\..\arduinoLCD\test\Pain Drain\libraries\lvgl\src\draw\sw/lv_draw_sw_arc.c **** 
 389:..\..\..\arduinoLCD\test\Pain Drain\libraries\lvgl\src\draw\sw/lv_draw_sw_arc.c ****             quarter_area.x1 = q->center->x + ((lv_trigo_sin(q->start_angle + 90) * (q->radius)) >> 
 939              		.loc 1 389 0
 940 00e6 0026     		movs	r6, #0
 941 00e8 9E5F     		ldrsh	r6, [r3, r6]
 942 00ea E088     		ldrh	r0, [r4, #6]
 943 00ec 5A30     		adds	r0, r0, #90
 944 00ee 00B2     		sxth	r0, r0
 945 00f0 FFF7FEFF 		bl	lv_trigo_sin
 946              	.LVL60:
 947 00f4 0422     		movs	r2, #4
 948 00f6 A35E     		ldrsh	r3, [r4, r2]
 949 00f8 5843     		muls	r0, r3
 950 00fa C013     		asrs	r0, r0, #15
 951 00fc 3018     		adds	r0, r6, r0
 952 00fe 6B46     		mov	r3, sp
 953 0100 1880     		strh	r0, [r3]
 390:..\..\..\arduinoLCD\test\Pain Drain\libraries\lvgl\src\draw\sw/lv_draw_sw_arc.c ****             quarter_area.y2 = q->center->y + ((lv_trigo_sin(q->start_angle) * (q->radius - q->width
 954              		.loc 1 390 0
 955 0102 2368     		ldr	r3, [r4]
 956 0104 0226     		movs	r6, #2
 957 0106 9E5F     		ldrsh	r6, [r3, r6]
 958 0108 0623     		movs	r3, #6
 959 010a E05E     		ldrsh	r0, [r4, r3]
 960 010c FFF7FEFF 		bl	lv_trigo_sin
 961              	.LVL61:
 962 0110 0422     		movs	r2, #4
 963 0112 A35E     		ldrsh	r3, [r4, r2]
 964 0114 0E21     		movs	r1, #14
 965 0116 625E     		ldrsh	r2, [r4, r1]
 966 0118 9B1A     		subs	r3, r3, r2
 967 011a 5843     		muls	r0, r3
 968 011c C013     		asrs	r0, r0, #15
 969 011e 3018     		adds	r0, r6, r0
 970 0120 6B46     		mov	r3, sp
 971 0122 D880     		strh	r0, [r3, #6]
 391:..\..\..\arduinoLCD\test\Pain Drain\libraries\lvgl\src\draw\sw/lv_draw_sw_arc.c **** 
 392:..\..\..\arduinoLCD\test\Pain Drain\libraries\lvgl\src\draw\sw/lv_draw_sw_arc.c ****             bool ok = _lv_area_intersect(&quarter_area, &quarter_area, clip_area_ori);
 972              		.loc 1 392 0
 973 0124 2A00     		movs	r2, r5
 974 0126 6946     		mov	r1, sp
 975 0128 6846     		mov	r0, sp
 976 012a FFF7FEFF 		bl	_lv_area_intersect
ARM GAS  C:\Users\haske\AppData\Local\Temp\ccinSyc3.s 			page 25


 977              	.LVL62:
 393:..\..\..\arduinoLCD\test\Pain Drain\libraries\lvgl\src\draw\sw/lv_draw_sw_arc.c ****             if(ok) {
 978              		.loc 1 393 0
 979 012e 0028     		cmp	r0, #0
 980 0130 07D0     		beq	.L26
 394:..\..\..\arduinoLCD\test\Pain Drain\libraries\lvgl\src\draw\sw/lv_draw_sw_arc.c ****                 q->draw_ctx->clip_area = &quarter_area;
 981              		.loc 1 394 0
 982 0132 A369     		ldr	r3, [r4, #24]
 983 0134 6A46     		mov	r2, sp
 984 0136 9A60     		str	r2, [r3, #8]
 395:..\..\..\arduinoLCD\test\Pain Drain\libraries\lvgl\src\draw\sw/lv_draw_sw_arc.c ****                 lv_draw_rect(q->draw_ctx, q->draw_dsc, q->draw_area);
 985              		.loc 1 395 0
 986 0138 6269     		ldr	r2, [r4, #20]
 987 013a 2169     		ldr	r1, [r4, #16]
 988 013c A069     		ldr	r0, [r4, #24]
 989              	.LVL63:
 990 013e FFF7FEFF 		bl	lv_draw_rect
 991              	.LVL64:
 992              	.L26:
 993              	.LBE21:
 396:..\..\..\arduinoLCD\test\Pain Drain\libraries\lvgl\src\draw\sw/lv_draw_sw_arc.c ****             }
 397:..\..\..\arduinoLCD\test\Pain Drain\libraries\lvgl\src\draw\sw/lv_draw_sw_arc.c ****         }
 398:..\..\..\arduinoLCD\test\Pain Drain\libraries\lvgl\src\draw\sw/lv_draw_sw_arc.c ****         if(q->end_quarter == 2) {
 994              		.loc 1 398 0
 995 0142 A389     		ldrh	r3, [r4, #12]
 996 0144 022B     		cmp	r3, #2
 997 0146 72D1     		bne	.L23
 998              	.LBB22:
 399:..\..\..\arduinoLCD\test\Pain Drain\libraries\lvgl\src\draw\sw/lv_draw_sw_arc.c ****             quarter_area.x1 = q->center->x - q->radius;
 999              		.loc 1 399 0
 1000 0148 2368     		ldr	r3, [r4]
 1001 014a 0021     		movs	r1, #0
 1002 014c 5A5E     		ldrsh	r2, [r3, r1]
 1003 014e 0420     		movs	r0, #4
 1004 0150 215E     		ldrsh	r1, [r4, r0]
 1005 0152 521A     		subs	r2, r2, r1
 1006 0154 6946     		mov	r1, sp
 1007 0156 0A80     		strh	r2, [r1]
 400:..\..\..\arduinoLCD\test\Pain Drain\libraries\lvgl\src\draw\sw/lv_draw_sw_arc.c ****             quarter_area.y2 = q->center->y - 1;
 1008              		.loc 1 400 0
 1009 0158 0221     		movs	r1, #2
 1010 015a 5A5E     		ldrsh	r2, [r3, r1]
 1011 015c 013A     		subs	r2, r2, #1
 1012 015e 6946     		mov	r1, sp
 1013 0160 CA80     		strh	r2, [r1, #6]
 401:..\..\..\arduinoLCD\test\Pain Drain\libraries\lvgl\src\draw\sw/lv_draw_sw_arc.c **** 
 402:..\..\..\arduinoLCD\test\Pain Drain\libraries\lvgl\src\draw\sw/lv_draw_sw_arc.c ****             quarter_area.x2 = q->center->x + ((lv_trigo_sin(q->end_angle + 90) * (q->radius - q->wi
 1014              		.loc 1 402 0
 1015 0162 0026     		movs	r6, #0
 1016 0164 9E5F     		ldrsh	r6, [r3, r6]
 1017 0166 2089     		ldrh	r0, [r4, #8]
 1018 0168 5A30     		adds	r0, r0, #90
 1019 016a 00B2     		sxth	r0, r0
 1020 016c FFF7FEFF 		bl	lv_trigo_sin
 1021              	.LVL65:
 1022 0170 0422     		movs	r2, #4
 1023 0172 A35E     		ldrsh	r3, [r4, r2]
ARM GAS  C:\Users\haske\AppData\Local\Temp\ccinSyc3.s 			page 26


 1024 0174 0E21     		movs	r1, #14
 1025 0176 625E     		ldrsh	r2, [r4, r1]
 1026 0178 9B1A     		subs	r3, r3, r2
 1027 017a 5843     		muls	r0, r3
 1028 017c C013     		asrs	r0, r0, #15
 1029 017e 3018     		adds	r0, r6, r0
 1030 0180 6B46     		mov	r3, sp
 1031 0182 9880     		strh	r0, [r3, #4]
 403:..\..\..\arduinoLCD\test\Pain Drain\libraries\lvgl\src\draw\sw/lv_draw_sw_arc.c ****             quarter_area.y1 = q->center->y + ((lv_trigo_sin(q->end_angle) * (q->radius)) >> LV_TRIG
 1032              		.loc 1 403 0
 1033 0184 2368     		ldr	r3, [r4]
 1034 0186 0226     		movs	r6, #2
 1035 0188 9E5F     		ldrsh	r6, [r3, r6]
 1036 018a 0823     		movs	r3, #8
 1037 018c E05E     		ldrsh	r0, [r4, r3]
 1038 018e FFF7FEFF 		bl	lv_trigo_sin
 1039              	.LVL66:
 1040 0192 0422     		movs	r2, #4
 1041 0194 A35E     		ldrsh	r3, [r4, r2]
 1042 0196 5843     		muls	r0, r3
 1043 0198 C013     		asrs	r0, r0, #15
 1044 019a 3018     		adds	r0, r6, r0
 1045 019c 6B46     		mov	r3, sp
 1046 019e 5880     		strh	r0, [r3, #2]
 404:..\..\..\arduinoLCD\test\Pain Drain\libraries\lvgl\src\draw\sw/lv_draw_sw_arc.c **** 
 405:..\..\..\arduinoLCD\test\Pain Drain\libraries\lvgl\src\draw\sw/lv_draw_sw_arc.c ****             bool ok = _lv_area_intersect(&quarter_area, &quarter_area, clip_area_ori);
 1047              		.loc 1 405 0
 1048 01a0 2A00     		movs	r2, r5
 1049 01a2 6946     		mov	r1, sp
 1050 01a4 6846     		mov	r0, sp
 1051 01a6 FFF7FEFF 		bl	_lv_area_intersect
 1052              	.LVL67:
 406:..\..\..\arduinoLCD\test\Pain Drain\libraries\lvgl\src\draw\sw/lv_draw_sw_arc.c ****             if(ok) {
 1053              		.loc 1 406 0
 1054 01aa 0028     		cmp	r0, #0
 1055 01ac 3FD0     		beq	.L23
 407:..\..\..\arduinoLCD\test\Pain Drain\libraries\lvgl\src\draw\sw/lv_draw_sw_arc.c ****                 q->draw_ctx->clip_area = &quarter_area;
 1056              		.loc 1 407 0
 1057 01ae A369     		ldr	r3, [r4, #24]
 1058 01b0 6A46     		mov	r2, sp
 1059 01b2 9A60     		str	r2, [r3, #8]
 408:..\..\..\arduinoLCD\test\Pain Drain\libraries\lvgl\src\draw\sw/lv_draw_sw_arc.c ****                 lv_draw_rect(q->draw_ctx, q->draw_dsc, q->draw_area);
 1060              		.loc 1 408 0
 1061 01b4 6269     		ldr	r2, [r4, #20]
 1062 01b6 2169     		ldr	r1, [r4, #16]
 1063 01b8 A069     		ldr	r0, [r4, #24]
 1064              	.LVL68:
 1065 01ba FFF7FEFF 		bl	lv_draw_rect
 1066              	.LVL69:
 1067 01be 36E0     		b	.L23
 1068              	.L25:
 1069              	.LBE22:
 409:..\..\..\arduinoLCD\test\Pain Drain\libraries\lvgl\src\draw\sw/lv_draw_sw_arc.c ****             }
 410:..\..\..\arduinoLCD\test\Pain Drain\libraries\lvgl\src\draw\sw/lv_draw_sw_arc.c ****         }
 411:..\..\..\arduinoLCD\test\Pain Drain\libraries\lvgl\src\draw\sw/lv_draw_sw_arc.c ****     }
 412:..\..\..\arduinoLCD\test\Pain Drain\libraries\lvgl\src\draw\sw/lv_draw_sw_arc.c ****     else if((q->start_quarter == q->end_quarter && q->start_quarter != 2 && q->end_angle < q->start
 1070              		.loc 1 412 0
ARM GAS  C:\Users\haske\AppData\Local\Temp\ccinSyc3.s 			page 27


 1071 01c0 9342     		cmp	r3, r2
 1072 01c2 05D1     		bne	.L27
 1073              		.loc 1 412 0 is_stmt 0 discriminator 1
 1074 01c4 022B     		cmp	r3, #2
 1075 01c6 03D0     		beq	.L27
 1076              		.loc 1 412 0 discriminator 3
 1077 01c8 2089     		ldrh	r0, [r4, #8]
 1078 01ca E188     		ldrh	r1, [r4, #6]
 1079 01cc 8842     		cmp	r0, r1
 1080 01ce 0BD3     		bcc	.L28
 1081              	.L27:
 1082              		.loc 1 412 0 discriminator 5
 1083 01d0 002B     		cmp	r3, #0
 1084 01d2 01D1     		bne	.L29
 413:..\..\..\arduinoLCD\test\Pain Drain\libraries\lvgl\src\draw\sw/lv_draw_sw_arc.c ****             (q->start_quarter == 0 && q->end_quarter == 3) ||
 1085              		.loc 1 413 0 is_stmt 1
 1086 01d4 032A     		cmp	r2, #3
 1087 01d6 07D0     		beq	.L28
 1088              	.L29:
 1089              		.loc 1 413 0 is_stmt 0 discriminator 1
 1090 01d8 012B     		cmp	r3, #1
 1091 01da 01D1     		bne	.L30
 414:..\..\..\arduinoLCD\test\Pain Drain\libraries\lvgl\src\draw\sw/lv_draw_sw_arc.c ****             (q->start_quarter == 1 && q->end_quarter == 3) ||
 1092              		.loc 1 414 0 is_stmt 1
 1093 01dc 032A     		cmp	r2, #3
 1094 01de 03D0     		beq	.L28
 1095              	.L30:
 1096              		.loc 1 414 0 is_stmt 0 discriminator 1
 1097 01e0 012B     		cmp	r3, #1
 1098 01e2 24D1     		bne	.L23
 415:..\..\..\arduinoLCD\test\Pain Drain\libraries\lvgl\src\draw\sw/lv_draw_sw_arc.c ****             (q->start_quarter == 1 && q->end_quarter == 0)) {
 1099              		.loc 1 415 0 is_stmt 1
 1100 01e4 002A     		cmp	r2, #0
 1101 01e6 22D1     		bne	.L23
 1102              	.L28:
 1103              	.LBB23:
 416:..\..\..\arduinoLCD\test\Pain Drain\libraries\lvgl\src\draw\sw/lv_draw_sw_arc.c ****         /*Arc crosses here*/
 417:..\..\..\arduinoLCD\test\Pain Drain\libraries\lvgl\src\draw\sw/lv_draw_sw_arc.c ****         quarter_area.x1 = q->center->x - q->radius;
 1104              		.loc 1 417 0
 1105 01e8 2368     		ldr	r3, [r4]
 1106 01ea 0022     		movs	r2, #0
 1107 01ec 995E     		ldrsh	r1, [r3, r2]
 1108 01ee A088     		ldrh	r0, [r4, #4]
 1109 01f0 091A     		subs	r1, r1, r0
 1110 01f2 6A46     		mov	r2, sp
 1111 01f4 1180     		strh	r1, [r2]
 418:..\..\..\arduinoLCD\test\Pain Drain\libraries\lvgl\src\draw\sw/lv_draw_sw_arc.c ****         quarter_area.y1 = q->center->y - q->radius;
 1112              		.loc 1 418 0
 1113 01f6 0221     		movs	r1, #2
 1114 01f8 5A5E     		ldrsh	r2, [r3, r1]
 1115 01fa 121A     		subs	r2, r2, r0
 1116 01fc 6946     		mov	r1, sp
 1117 01fe 4A80     		strh	r2, [r1, #2]
 419:..\..\..\arduinoLCD\test\Pain Drain\libraries\lvgl\src\draw\sw/lv_draw_sw_arc.c ****         quarter_area.x2 = q->center->x - 1;
 1118              		.loc 1 419 0
 1119 0200 0021     		movs	r1, #0
 1120 0202 5A5E     		ldrsh	r2, [r3, r1]
ARM GAS  C:\Users\haske\AppData\Local\Temp\ccinSyc3.s 			page 28


 1121 0204 013A     		subs	r2, r2, #1
 1122 0206 6946     		mov	r1, sp
 1123 0208 8A80     		strh	r2, [r1, #4]
 420:..\..\..\arduinoLCD\test\Pain Drain\libraries\lvgl\src\draw\sw/lv_draw_sw_arc.c ****         quarter_area.y2 = q->center->y - 1;
 1124              		.loc 1 420 0
 1125 020a 0222     		movs	r2, #2
 1126 020c 9B5E     		ldrsh	r3, [r3, r2]
 1127 020e 013B     		subs	r3, r3, #1
 1128 0210 CB80     		strh	r3, [r1, #6]
 421:..\..\..\arduinoLCD\test\Pain Drain\libraries\lvgl\src\draw\sw/lv_draw_sw_arc.c **** 
 422:..\..\..\arduinoLCD\test\Pain Drain\libraries\lvgl\src\draw\sw/lv_draw_sw_arc.c ****         bool ok = _lv_area_intersect(&quarter_area, &quarter_area, clip_area_ori);
 1129              		.loc 1 422 0
 1130 0212 2A00     		movs	r2, r5
 1131 0214 6846     		mov	r0, sp
 1132 0216 FFF7FEFF 		bl	_lv_area_intersect
 1133              	.LVL70:
 423:..\..\..\arduinoLCD\test\Pain Drain\libraries\lvgl\src\draw\sw/lv_draw_sw_arc.c ****         if(ok) {
 1134              		.loc 1 423 0
 1135 021a 0028     		cmp	r0, #0
 1136 021c 07D0     		beq	.L23
 424:..\..\..\arduinoLCD\test\Pain Drain\libraries\lvgl\src\draw\sw/lv_draw_sw_arc.c ****             q->draw_ctx->clip_area = &quarter_area;
 1137              		.loc 1 424 0
 1138 021e A369     		ldr	r3, [r4, #24]
 1139 0220 6A46     		mov	r2, sp
 1140 0222 9A60     		str	r2, [r3, #8]
 425:..\..\..\arduinoLCD\test\Pain Drain\libraries\lvgl\src\draw\sw/lv_draw_sw_arc.c ****             lv_draw_rect(q->draw_ctx, q->draw_dsc, q->draw_area);
 1141              		.loc 1 425 0
 1142 0224 6269     		ldr	r2, [r4, #20]
 1143 0226 2169     		ldr	r1, [r4, #16]
 1144 0228 A069     		ldr	r0, [r4, #24]
 1145              	.LVL71:
 1146 022a FFF7FEFF 		bl	lv_draw_rect
 1147              	.LVL72:
 1148              	.L23:
 1149              	.LBE23:
 426:..\..\..\arduinoLCD\test\Pain Drain\libraries\lvgl\src\draw\sw/lv_draw_sw_arc.c ****         }
 427:..\..\..\arduinoLCD\test\Pain Drain\libraries\lvgl\src\draw\sw/lv_draw_sw_arc.c ****     }
 428:..\..\..\arduinoLCD\test\Pain Drain\libraries\lvgl\src\draw\sw/lv_draw_sw_arc.c ****     q->draw_ctx->clip_area = clip_area_ori;
 1150              		.loc 1 428 0
 1151 022e A369     		ldr	r3, [r4, #24]
 1152 0230 9D60     		str	r5, [r3, #8]
 429:..\..\..\arduinoLCD\test\Pain Drain\libraries\lvgl\src\draw\sw/lv_draw_sw_arc.c **** }
 1153              		.loc 1 429 0
 1154 0232 02B0     		add	sp, sp, #8
 1155              		@ sp needed
 1156              	.LVL73:
 1157              	.LVL74:
 1158 0234 70BD     		pop	{r4, r5, r6, pc}
 1159              		.cfi_endproc
 1160              	.LFE59:
 1161              		.size	draw_quarter_2, .-draw_quarter_2
 1162 0236 C046     		.section	.text.draw_quarter_3,"ax",%progbits
 1163              		.align	2
 1164              		.code	16
 1165              		.thumb_func
 1166              		.type	draw_quarter_3, %function
 1167              	draw_quarter_3:
ARM GAS  C:\Users\haske\AppData\Local\Temp\ccinSyc3.s 			page 29


 1168              	.LFB60:
 430:..\..\..\arduinoLCD\test\Pain Drain\libraries\lvgl\src\draw\sw/lv_draw_sw_arc.c **** 
 431:..\..\..\arduinoLCD\test\Pain Drain\libraries\lvgl\src\draw\sw/lv_draw_sw_arc.c **** static void draw_quarter_3(quarter_draw_dsc_t * q)
 432:..\..\..\arduinoLCD\test\Pain Drain\libraries\lvgl\src\draw\sw/lv_draw_sw_arc.c **** {
 1169              		.loc 1 432 0
 1170              		.cfi_startproc
 1171              		@ args = 0, pretend = 0, frame = 8
 1172              		@ frame_needed = 0, uses_anonymous_args = 0
 1173              	.LVL75:
 1174 0000 70B5     		push	{r4, r5, r6, lr}
 1175              		.cfi_def_cfa_offset 16
 1176              		.cfi_offset 4, -16
 1177              		.cfi_offset 5, -12
 1178              		.cfi_offset 6, -8
 1179              		.cfi_offset 14, -4
 1180 0002 82B0     		sub	sp, sp, #8
 1181              		.cfi_def_cfa_offset 24
 1182 0004 0400     		movs	r4, r0
 433:..\..\..\arduinoLCD\test\Pain Drain\libraries\lvgl\src\draw\sw/lv_draw_sw_arc.c ****     const lv_area_t * clip_area_ori = q->draw_ctx->clip_area;
 1183              		.loc 1 433 0
 1184 0006 8369     		ldr	r3, [r0, #24]
 1185 0008 9D68     		ldr	r5, [r3, #8]
 1186              	.LVL76:
 434:..\..\..\arduinoLCD\test\Pain Drain\libraries\lvgl\src\draw\sw/lv_draw_sw_arc.c ****     lv_area_t quarter_area;
 435:..\..\..\arduinoLCD\test\Pain Drain\libraries\lvgl\src\draw\sw/lv_draw_sw_arc.c **** 
 436:..\..\..\arduinoLCD\test\Pain Drain\libraries\lvgl\src\draw\sw/lv_draw_sw_arc.c ****     if(q->start_quarter == 3 && q->end_quarter == 3 && q->start_angle < q->end_angle) {
 1187              		.loc 1 436 0
 1188 000a 4389     		ldrh	r3, [r0, #10]
 1189 000c 032B     		cmp	r3, #3
 1190 000e 56D1     		bne	.L32
 1191              		.loc 1 436 0 is_stmt 0 discriminator 1
 1192 0010 8289     		ldrh	r2, [r0, #12]
 1193 0012 032A     		cmp	r2, #3
 1194 0014 53D1     		bne	.L32
 1195              		.loc 1 436 0 discriminator 2
 1196 0016 C088     		ldrh	r0, [r0, #6]
 1197              	.LVL77:
 1198 0018 2289     		ldrh	r2, [r4, #8]
 1199 001a 9042     		cmp	r0, r2
 1200 001c 4FD2     		bcs	.L32
 1201              	.LBB24:
 437:..\..\..\arduinoLCD\test\Pain Drain\libraries\lvgl\src\draw\sw/lv_draw_sw_arc.c ****         /*Small arc here*/
 438:..\..\..\arduinoLCD\test\Pain Drain\libraries\lvgl\src\draw\sw/lv_draw_sw_arc.c ****         quarter_area.x1 = q->center->x + ((lv_trigo_sin(q->start_angle + 90) * (q->radius - q->widt
 1202              		.loc 1 438 0 is_stmt 1
 1203 001e 2368     		ldr	r3, [r4]
 1204 0020 0026     		movs	r6, #0
 1205 0022 9E5F     		ldrsh	r6, [r3, r6]
 1206 0024 5A30     		adds	r0, r0, #90
 1207 0026 00B2     		sxth	r0, r0
 1208 0028 FFF7FEFF 		bl	lv_trigo_sin
 1209              	.LVL78:
 1210 002c 0422     		movs	r2, #4
 1211 002e A35E     		ldrsh	r3, [r4, r2]
 1212 0030 0E21     		movs	r1, #14
 1213 0032 625E     		ldrsh	r2, [r4, r1]
 1214 0034 9B1A     		subs	r3, r3, r2
 1215 0036 5843     		muls	r0, r3
ARM GAS  C:\Users\haske\AppData\Local\Temp\ccinSyc3.s 			page 30


 1216 0038 C013     		asrs	r0, r0, #15
 1217 003a 3018     		adds	r0, r6, r0
 1218 003c 6B46     		mov	r3, sp
 1219 003e 1880     		strh	r0, [r3]
 439:..\..\..\arduinoLCD\test\Pain Drain\libraries\lvgl\src\draw\sw/lv_draw_sw_arc.c ****         quarter_area.y1 = q->center->y + ((lv_trigo_sin(q->start_angle) * (q->radius)) >> LV_TRIGO_
 1220              		.loc 1 439 0
 1221 0040 2368     		ldr	r3, [r4]
 1222 0042 0226     		movs	r6, #2
 1223 0044 9E5F     		ldrsh	r6, [r3, r6]
 1224 0046 0623     		movs	r3, #6
 1225 0048 E05E     		ldrsh	r0, [r4, r3]
 1226 004a FFF7FEFF 		bl	lv_trigo_sin
 1227              	.LVL79:
 1228 004e 0422     		movs	r2, #4
 1229 0050 A35E     		ldrsh	r3, [r4, r2]
 1230 0052 5843     		muls	r0, r3
 1231 0054 C013     		asrs	r0, r0, #15
 1232 0056 3018     		adds	r0, r6, r0
 1233 0058 6B46     		mov	r3, sp
 1234 005a 5880     		strh	r0, [r3, #2]
 440:..\..\..\arduinoLCD\test\Pain Drain\libraries\lvgl\src\draw\sw/lv_draw_sw_arc.c **** 
 441:..\..\..\arduinoLCD\test\Pain Drain\libraries\lvgl\src\draw\sw/lv_draw_sw_arc.c ****         quarter_area.x2 = q->center->x + ((lv_trigo_sin(q->end_angle + 90) * (q->radius)) >> LV_TRI
 1235              		.loc 1 441 0
 1236 005c 2368     		ldr	r3, [r4]
 1237 005e 0026     		movs	r6, #0
 1238 0060 9E5F     		ldrsh	r6, [r3, r6]
 1239 0062 2089     		ldrh	r0, [r4, #8]
 1240 0064 5A30     		adds	r0, r0, #90
 1241 0066 00B2     		sxth	r0, r0
 1242 0068 FFF7FEFF 		bl	lv_trigo_sin
 1243              	.LVL80:
 1244 006c 0422     		movs	r2, #4
 1245 006e A35E     		ldrsh	r3, [r4, r2]
 1246 0070 5843     		muls	r0, r3
 1247 0072 C013     		asrs	r0, r0, #15
 1248 0074 3018     		adds	r0, r6, r0
 1249 0076 6B46     		mov	r3, sp
 1250 0078 9880     		strh	r0, [r3, #4]
 442:..\..\..\arduinoLCD\test\Pain Drain\libraries\lvgl\src\draw\sw/lv_draw_sw_arc.c ****         quarter_area.y2 = q->center->y + ((lv_trigo_sin(q->end_angle) * (q->radius - q->width)) >> 
 1251              		.loc 1 442 0
 1252 007a 2368     		ldr	r3, [r4]
 1253 007c 0226     		movs	r6, #2
 1254 007e 9E5F     		ldrsh	r6, [r3, r6]
 1255 0080 0823     		movs	r3, #8
 1256 0082 E05E     		ldrsh	r0, [r4, r3]
 1257 0084 FFF7FEFF 		bl	lv_trigo_sin
 1258              	.LVL81:
 1259 0088 0422     		movs	r2, #4
 1260 008a A35E     		ldrsh	r3, [r4, r2]
 1261 008c 0E21     		movs	r1, #14
 1262 008e 625E     		ldrsh	r2, [r4, r1]
 1263 0090 9B1A     		subs	r3, r3, r2
 1264 0092 5843     		muls	r0, r3
 1265 0094 C013     		asrs	r0, r0, #15
 1266 0096 3018     		adds	r0, r6, r0
 1267 0098 6B46     		mov	r3, sp
 1268 009a D880     		strh	r0, [r3, #6]
ARM GAS  C:\Users\haske\AppData\Local\Temp\ccinSyc3.s 			page 31


 443:..\..\..\arduinoLCD\test\Pain Drain\libraries\lvgl\src\draw\sw/lv_draw_sw_arc.c **** 
 444:..\..\..\arduinoLCD\test\Pain Drain\libraries\lvgl\src\draw\sw/lv_draw_sw_arc.c ****         bool ok = _lv_area_intersect(&quarter_area, &quarter_area, clip_area_ori);
 1269              		.loc 1 444 0
 1270 009c 2A00     		movs	r2, r5
 1271 009e 6946     		mov	r1, sp
 1272 00a0 6846     		mov	r0, sp
 1273 00a2 FFF7FEFF 		bl	_lv_area_intersect
 1274              	.LVL82:
 445:..\..\..\arduinoLCD\test\Pain Drain\libraries\lvgl\src\draw\sw/lv_draw_sw_arc.c ****         if(ok) {
 1275              		.loc 1 445 0
 1276 00a6 0028     		cmp	r0, #0
 1277 00a8 00D1     		bne	.LCB1124
 1278 00aa BEE0     		b	.L33	@long jump
 1279              	.LCB1124:
 446:..\..\..\arduinoLCD\test\Pain Drain\libraries\lvgl\src\draw\sw/lv_draw_sw_arc.c ****             q->draw_ctx->clip_area = &quarter_area;
 1280              		.loc 1 446 0
 1281 00ac A369     		ldr	r3, [r4, #24]
 1282 00ae 6A46     		mov	r2, sp
 1283 00b0 9A60     		str	r2, [r3, #8]
 447:..\..\..\arduinoLCD\test\Pain Drain\libraries\lvgl\src\draw\sw/lv_draw_sw_arc.c ****             lv_draw_rect(q->draw_ctx, q->draw_dsc, q->draw_area);
 1284              		.loc 1 447 0
 1285 00b2 6269     		ldr	r2, [r4, #20]
 1286 00b4 2169     		ldr	r1, [r4, #16]
 1287 00b6 A069     		ldr	r0, [r4, #24]
 1288              	.LVL83:
 1289 00b8 FFF7FEFF 		bl	lv_draw_rect
 1290              	.LVL84:
 1291 00bc B5E0     		b	.L33
 1292              	.L32:
 1293              	.LBE24:
 448:..\..\..\arduinoLCD\test\Pain Drain\libraries\lvgl\src\draw\sw/lv_draw_sw_arc.c ****         }
 449:..\..\..\arduinoLCD\test\Pain Drain\libraries\lvgl\src\draw\sw/lv_draw_sw_arc.c ****     }
 450:..\..\..\arduinoLCD\test\Pain Drain\libraries\lvgl\src\draw\sw/lv_draw_sw_arc.c ****     else if(q->start_quarter == 3 || q->end_quarter == 3) {
 1294              		.loc 1 450 0
 1295 00be 032B     		cmp	r3, #3
 1296 00c0 02D0     		beq	.L34
 1297              		.loc 1 450 0 is_stmt 0 discriminator 1
 1298 00c2 A289     		ldrh	r2, [r4, #12]
 1299 00c4 032A     		cmp	r2, #3
 1300 00c6 7AD1     		bne	.L35
 1301              	.L34:
 451:..\..\..\arduinoLCD\test\Pain Drain\libraries\lvgl\src\draw\sw/lv_draw_sw_arc.c ****         /*Start and/or end arcs here*/
 452:..\..\..\arduinoLCD\test\Pain Drain\libraries\lvgl\src\draw\sw/lv_draw_sw_arc.c ****         if(q->start_quarter == 3) {
 1302              		.loc 1 452 0 is_stmt 1
 1303 00c8 032B     		cmp	r3, #3
 1304 00ca 3AD1     		bne	.L36
 1305              	.LBB25:
 453:..\..\..\arduinoLCD\test\Pain Drain\libraries\lvgl\src\draw\sw/lv_draw_sw_arc.c ****             quarter_area.x2 = q->center->x + q->radius;
 1306              		.loc 1 453 0
 1307 00cc 2368     		ldr	r3, [r4]
 1308 00ce 0022     		movs	r2, #0
 1309 00d0 995E     		ldrsh	r1, [r3, r2]
 1310 00d2 0420     		movs	r0, #4
 1311 00d4 225E     		ldrsh	r2, [r4, r0]
 1312 00d6 8A18     		adds	r2, r1, r2
 1313 00d8 6946     		mov	r1, sp
 1314 00da 8A80     		strh	r2, [r1, #4]
ARM GAS  C:\Users\haske\AppData\Local\Temp\ccinSyc3.s 			page 32


 454:..\..\..\arduinoLCD\test\Pain Drain\libraries\lvgl\src\draw\sw/lv_draw_sw_arc.c ****             quarter_area.y2 = q->center->y - 1;
 1315              		.loc 1 454 0
 1316 00dc 0221     		movs	r1, #2
 1317 00de 5A5E     		ldrsh	r2, [r3, r1]
 1318 00e0 013A     		subs	r2, r2, #1
 1319 00e2 6946     		mov	r1, sp
 1320 00e4 CA80     		strh	r2, [r1, #6]
 455:..\..\..\arduinoLCD\test\Pain Drain\libraries\lvgl\src\draw\sw/lv_draw_sw_arc.c **** 
 456:..\..\..\arduinoLCD\test\Pain Drain\libraries\lvgl\src\draw\sw/lv_draw_sw_arc.c ****             quarter_area.x1 = q->center->x + ((lv_trigo_sin(q->start_angle + 90) * (q->radius - q->
 1321              		.loc 1 456 0
 1322 00e6 0026     		movs	r6, #0
 1323 00e8 9E5F     		ldrsh	r6, [r3, r6]
 1324 00ea E088     		ldrh	r0, [r4, #6]
 1325 00ec 5A30     		adds	r0, r0, #90
 1326 00ee 00B2     		sxth	r0, r0
 1327 00f0 FFF7FEFF 		bl	lv_trigo_sin
 1328              	.LVL85:
 1329 00f4 0422     		movs	r2, #4
 1330 00f6 A35E     		ldrsh	r3, [r4, r2]
 1331 00f8 0E21     		movs	r1, #14
 1332 00fa 625E     		ldrsh	r2, [r4, r1]
 1333 00fc 9B1A     		subs	r3, r3, r2
 1334 00fe 5843     		muls	r0, r3
 1335 0100 C013     		asrs	r0, r0, #15
 1336 0102 3018     		adds	r0, r6, r0
 1337 0104 6B46     		mov	r3, sp
 1338 0106 1880     		strh	r0, [r3]
 457:..\..\..\arduinoLCD\test\Pain Drain\libraries\lvgl\src\draw\sw/lv_draw_sw_arc.c ****             quarter_area.y1 = q->center->y + ((lv_trigo_sin(q->start_angle) * (q->radius)) >> LV_TR
 1339              		.loc 1 457 0
 1340 0108 2368     		ldr	r3, [r4]
 1341 010a 0226     		movs	r6, #2
 1342 010c 9E5F     		ldrsh	r6, [r3, r6]
 1343 010e 0623     		movs	r3, #6
 1344 0110 E05E     		ldrsh	r0, [r4, r3]
 1345 0112 FFF7FEFF 		bl	lv_trigo_sin
 1346              	.LVL86:
 1347 0116 0422     		movs	r2, #4
 1348 0118 A35E     		ldrsh	r3, [r4, r2]
 1349 011a 5843     		muls	r0, r3
 1350 011c C013     		asrs	r0, r0, #15
 1351 011e 3018     		adds	r0, r6, r0
 1352 0120 6B46     		mov	r3, sp
 1353 0122 5880     		strh	r0, [r3, #2]
 458:..\..\..\arduinoLCD\test\Pain Drain\libraries\lvgl\src\draw\sw/lv_draw_sw_arc.c **** 
 459:..\..\..\arduinoLCD\test\Pain Drain\libraries\lvgl\src\draw\sw/lv_draw_sw_arc.c ****             bool ok = _lv_area_intersect(&quarter_area, &quarter_area, clip_area_ori);
 1354              		.loc 1 459 0
 1355 0124 2A00     		movs	r2, r5
 1356 0126 6946     		mov	r1, sp
 1357 0128 6846     		mov	r0, sp
 1358 012a FFF7FEFF 		bl	_lv_area_intersect
 1359              	.LVL87:
 460:..\..\..\arduinoLCD\test\Pain Drain\libraries\lvgl\src\draw\sw/lv_draw_sw_arc.c ****             if(ok) {
 1360              		.loc 1 460 0
 1361 012e 0028     		cmp	r0, #0
 1362 0130 07D0     		beq	.L36
 461:..\..\..\arduinoLCD\test\Pain Drain\libraries\lvgl\src\draw\sw/lv_draw_sw_arc.c ****                 q->draw_ctx->clip_area = &quarter_area;
 1363              		.loc 1 461 0
ARM GAS  C:\Users\haske\AppData\Local\Temp\ccinSyc3.s 			page 33


 1364 0132 A369     		ldr	r3, [r4, #24]
 1365 0134 6A46     		mov	r2, sp
 1366 0136 9A60     		str	r2, [r3, #8]
 462:..\..\..\arduinoLCD\test\Pain Drain\libraries\lvgl\src\draw\sw/lv_draw_sw_arc.c ****                 lv_draw_rect(q->draw_ctx, q->draw_dsc, q->draw_area);
 1367              		.loc 1 462 0
 1368 0138 6269     		ldr	r2, [r4, #20]
 1369 013a 2169     		ldr	r1, [r4, #16]
 1370 013c A069     		ldr	r0, [r4, #24]
 1371              	.LVL88:
 1372 013e FFF7FEFF 		bl	lv_draw_rect
 1373              	.LVL89:
 1374              	.L36:
 1375              	.LBE25:
 463:..\..\..\arduinoLCD\test\Pain Drain\libraries\lvgl\src\draw\sw/lv_draw_sw_arc.c ****             }
 464:..\..\..\arduinoLCD\test\Pain Drain\libraries\lvgl\src\draw\sw/lv_draw_sw_arc.c ****         }
 465:..\..\..\arduinoLCD\test\Pain Drain\libraries\lvgl\src\draw\sw/lv_draw_sw_arc.c ****         if(q->end_quarter == 3) {
 1376              		.loc 1 465 0
 1377 0142 A389     		ldrh	r3, [r4, #12]
 1378 0144 032B     		cmp	r3, #3
 1379 0146 70D1     		bne	.L33
 1380              	.LBB26:
 466:..\..\..\arduinoLCD\test\Pain Drain\libraries\lvgl\src\draw\sw/lv_draw_sw_arc.c ****             quarter_area.x1 = q->center->x;
 1381              		.loc 1 466 0
 1382 0148 2368     		ldr	r3, [r4]
 1383 014a 0021     		movs	r1, #0
 1384 014c 5A5E     		ldrsh	r2, [r3, r1]
 1385 014e 6946     		mov	r1, sp
 1386 0150 0A80     		strh	r2, [r1]
 467:..\..\..\arduinoLCD\test\Pain Drain\libraries\lvgl\src\draw\sw/lv_draw_sw_arc.c ****             quarter_area.y1 = q->center->y - q->radius;
 1387              		.loc 1 467 0
 1388 0152 0221     		movs	r1, #2
 1389 0154 5A5E     		ldrsh	r2, [r3, r1]
 1390 0156 0420     		movs	r0, #4
 1391 0158 215E     		ldrsh	r1, [r4, r0]
 1392 015a 521A     		subs	r2, r2, r1
 1393 015c 6946     		mov	r1, sp
 1394 015e 4A80     		strh	r2, [r1, #2]
 468:..\..\..\arduinoLCD\test\Pain Drain\libraries\lvgl\src\draw\sw/lv_draw_sw_arc.c **** 
 469:..\..\..\arduinoLCD\test\Pain Drain\libraries\lvgl\src\draw\sw/lv_draw_sw_arc.c ****             quarter_area.x2 = q->center->x + ((lv_trigo_sin(q->end_angle + 90) * (q->radius)) >> LV
 1395              		.loc 1 469 0
 1396 0160 0026     		movs	r6, #0
 1397 0162 9E5F     		ldrsh	r6, [r3, r6]
 1398 0164 2089     		ldrh	r0, [r4, #8]
 1399 0166 5A30     		adds	r0, r0, #90
 1400 0168 00B2     		sxth	r0, r0
 1401 016a FFF7FEFF 		bl	lv_trigo_sin
 1402              	.LVL90:
 1403 016e 0422     		movs	r2, #4
 1404 0170 A35E     		ldrsh	r3, [r4, r2]
 1405 0172 5843     		muls	r0, r3
 1406 0174 C013     		asrs	r0, r0, #15
 1407 0176 3018     		adds	r0, r6, r0
 1408 0178 6B46     		mov	r3, sp
 1409 017a 9880     		strh	r0, [r3, #4]
 470:..\..\..\arduinoLCD\test\Pain Drain\libraries\lvgl\src\draw\sw/lv_draw_sw_arc.c ****             quarter_area.y2 = q->center->y + ((lv_trigo_sin(q->end_angle) * (q->radius - q->width))
 1410              		.loc 1 470 0
 1411 017c 2368     		ldr	r3, [r4]
ARM GAS  C:\Users\haske\AppData\Local\Temp\ccinSyc3.s 			page 34


 1412 017e 0226     		movs	r6, #2
 1413 0180 9E5F     		ldrsh	r6, [r3, r6]
 1414 0182 0823     		movs	r3, #8
 1415 0184 E05E     		ldrsh	r0, [r4, r3]
 1416 0186 FFF7FEFF 		bl	lv_trigo_sin
 1417              	.LVL91:
 1418 018a 0422     		movs	r2, #4
 1419 018c A35E     		ldrsh	r3, [r4, r2]
 1420 018e 0E21     		movs	r1, #14
 1421 0190 625E     		ldrsh	r2, [r4, r1]
 1422 0192 9B1A     		subs	r3, r3, r2
 1423 0194 5843     		muls	r0, r3
 1424 0196 C013     		asrs	r0, r0, #15
 1425 0198 3018     		adds	r0, r6, r0
 1426 019a 6B46     		mov	r3, sp
 1427 019c D880     		strh	r0, [r3, #6]
 471:..\..\..\arduinoLCD\test\Pain Drain\libraries\lvgl\src\draw\sw/lv_draw_sw_arc.c **** 
 472:..\..\..\arduinoLCD\test\Pain Drain\libraries\lvgl\src\draw\sw/lv_draw_sw_arc.c ****             bool ok = _lv_area_intersect(&quarter_area, &quarter_area, clip_area_ori);
 1428              		.loc 1 472 0
 1429 019e 2A00     		movs	r2, r5
 1430 01a0 6946     		mov	r1, sp
 1431 01a2 6846     		mov	r0, sp
 1432 01a4 FFF7FEFF 		bl	_lv_area_intersect
 1433              	.LVL92:
 473:..\..\..\arduinoLCD\test\Pain Drain\libraries\lvgl\src\draw\sw/lv_draw_sw_arc.c ****             if(ok) {
 1434              		.loc 1 473 0
 1435 01a8 0028     		cmp	r0, #0
 1436 01aa 3ED0     		beq	.L33
 474:..\..\..\arduinoLCD\test\Pain Drain\libraries\lvgl\src\draw\sw/lv_draw_sw_arc.c ****                 q->draw_ctx->clip_area = &quarter_area;
 1437              		.loc 1 474 0
 1438 01ac A369     		ldr	r3, [r4, #24]
 1439 01ae 6A46     		mov	r2, sp
 1440 01b0 9A60     		str	r2, [r3, #8]
 475:..\..\..\arduinoLCD\test\Pain Drain\libraries\lvgl\src\draw\sw/lv_draw_sw_arc.c ****                 lv_draw_rect(q->draw_ctx, q->draw_dsc, q->draw_area);
 1441              		.loc 1 475 0
 1442 01b2 6269     		ldr	r2, [r4, #20]
 1443 01b4 2169     		ldr	r1, [r4, #16]
 1444 01b6 A069     		ldr	r0, [r4, #24]
 1445              	.LVL93:
 1446 01b8 FFF7FEFF 		bl	lv_draw_rect
 1447              	.LVL94:
 1448 01bc 35E0     		b	.L33
 1449              	.L35:
 1450              	.LBE26:
 476:..\..\..\arduinoLCD\test\Pain Drain\libraries\lvgl\src\draw\sw/lv_draw_sw_arc.c ****             }
 477:..\..\..\arduinoLCD\test\Pain Drain\libraries\lvgl\src\draw\sw/lv_draw_sw_arc.c ****         }
 478:..\..\..\arduinoLCD\test\Pain Drain\libraries\lvgl\src\draw\sw/lv_draw_sw_arc.c ****     }
 479:..\..\..\arduinoLCD\test\Pain Drain\libraries\lvgl\src\draw\sw/lv_draw_sw_arc.c ****     else if((q->start_quarter == q->end_quarter && q->start_quarter != 3 && q->end_angle < q->start
 1451              		.loc 1 479 0
 1452 01be 9342     		cmp	r3, r2
 1453 01c0 05D1     		bne	.L37
 1454              		.loc 1 479 0 is_stmt 0 discriminator 1
 1455 01c2 032B     		cmp	r3, #3
 1456 01c4 03D0     		beq	.L37
 1457              		.loc 1 479 0 discriminator 3
 1458 01c6 2089     		ldrh	r0, [r4, #8]
 1459 01c8 E188     		ldrh	r1, [r4, #6]
ARM GAS  C:\Users\haske\AppData\Local\Temp\ccinSyc3.s 			page 35


 1460 01ca 8842     		cmp	r0, r1
 1461 01cc 0BD3     		bcc	.L38
 1462              	.L37:
 1463              		.loc 1 479 0 discriminator 5
 1464 01ce 022B     		cmp	r3, #2
 1465 01d0 01D1     		bne	.L39
 480:..\..\..\arduinoLCD\test\Pain Drain\libraries\lvgl\src\draw\sw/lv_draw_sw_arc.c ****             (q->start_quarter == 2 && q->end_quarter == 0) ||
 1466              		.loc 1 480 0 is_stmt 1
 1467 01d2 002A     		cmp	r2, #0
 1468 01d4 07D0     		beq	.L38
 1469              	.L39:
 1470              		.loc 1 480 0 is_stmt 0 discriminator 1
 1471 01d6 012B     		cmp	r3, #1
 1472 01d8 01D1     		bne	.L40
 481:..\..\..\arduinoLCD\test\Pain Drain\libraries\lvgl\src\draw\sw/lv_draw_sw_arc.c ****             (q->start_quarter == 1 && q->end_quarter == 0) ||
 1473              		.loc 1 481 0 is_stmt 1
 1474 01da 002A     		cmp	r2, #0
 1475 01dc 03D0     		beq	.L38
 1476              	.L40:
 1477              		.loc 1 481 0 is_stmt 0 discriminator 1
 1478 01de 022B     		cmp	r3, #2
 1479 01e0 23D1     		bne	.L33
 482:..\..\..\arduinoLCD\test\Pain Drain\libraries\lvgl\src\draw\sw/lv_draw_sw_arc.c ****             (q->start_quarter == 2 && q->end_quarter == 1)) {
 1480              		.loc 1 482 0 is_stmt 1
 1481 01e2 012A     		cmp	r2, #1
 1482 01e4 21D1     		bne	.L33
 1483              	.L38:
 1484              	.LBB27:
 483:..\..\..\arduinoLCD\test\Pain Drain\libraries\lvgl\src\draw\sw/lv_draw_sw_arc.c ****         /*Arc crosses here*/
 484:..\..\..\arduinoLCD\test\Pain Drain\libraries\lvgl\src\draw\sw/lv_draw_sw_arc.c ****         quarter_area.x1 = q->center->x;
 1485              		.loc 1 484 0
 1486 01e6 2368     		ldr	r3, [r4]
 1487 01e8 0021     		movs	r1, #0
 1488 01ea 5A5E     		ldrsh	r2, [r3, r1]
 1489 01ec 6946     		mov	r1, sp
 1490 01ee 0A80     		strh	r2, [r1]
 485:..\..\..\arduinoLCD\test\Pain Drain\libraries\lvgl\src\draw\sw/lv_draw_sw_arc.c ****         quarter_area.y1 = q->center->y - q->radius;
 1491              		.loc 1 485 0
 1492 01f0 0222     		movs	r2, #2
 1493 01f2 995E     		ldrsh	r1, [r3, r2]
 1494 01f4 A088     		ldrh	r0, [r4, #4]
 1495 01f6 091A     		subs	r1, r1, r0
 1496 01f8 6A46     		mov	r2, sp
 1497 01fa 5180     		strh	r1, [r2, #2]
 486:..\..\..\arduinoLCD\test\Pain Drain\libraries\lvgl\src\draw\sw/lv_draw_sw_arc.c ****         quarter_area.x2 = q->center->x + q->radius;
 1498              		.loc 1 486 0
 1499 01fc 0021     		movs	r1, #0
 1500 01fe 5A5E     		ldrsh	r2, [r3, r1]
 1501 0200 8218     		adds	r2, r0, r2
 1502 0202 6946     		mov	r1, sp
 1503 0204 8A80     		strh	r2, [r1, #4]
 487:..\..\..\arduinoLCD\test\Pain Drain\libraries\lvgl\src\draw\sw/lv_draw_sw_arc.c ****         quarter_area.y2 = q->center->y - 1;
 1504              		.loc 1 487 0
 1505 0206 0222     		movs	r2, #2
 1506 0208 9B5E     		ldrsh	r3, [r3, r2]
 1507 020a 013B     		subs	r3, r3, #1
 1508 020c CB80     		strh	r3, [r1, #6]
ARM GAS  C:\Users\haske\AppData\Local\Temp\ccinSyc3.s 			page 36


 488:..\..\..\arduinoLCD\test\Pain Drain\libraries\lvgl\src\draw\sw/lv_draw_sw_arc.c **** 
 489:..\..\..\arduinoLCD\test\Pain Drain\libraries\lvgl\src\draw\sw/lv_draw_sw_arc.c ****         bool ok = _lv_area_intersect(&quarter_area, &quarter_area, clip_area_ori);
 1509              		.loc 1 489 0
 1510 020e 2A00     		movs	r2, r5
 1511 0210 6846     		mov	r0, sp
 1512 0212 FFF7FEFF 		bl	_lv_area_intersect
 1513              	.LVL95:
 490:..\..\..\arduinoLCD\test\Pain Drain\libraries\lvgl\src\draw\sw/lv_draw_sw_arc.c ****         if(ok) {
 1514              		.loc 1 490 0
 1515 0216 0028     		cmp	r0, #0
 1516 0218 07D0     		beq	.L33
 491:..\..\..\arduinoLCD\test\Pain Drain\libraries\lvgl\src\draw\sw/lv_draw_sw_arc.c ****             q->draw_ctx->clip_area = &quarter_area;
 1517              		.loc 1 491 0
 1518 021a A369     		ldr	r3, [r4, #24]
 1519 021c 6A46     		mov	r2, sp
 1520 021e 9A60     		str	r2, [r3, #8]
 492:..\..\..\arduinoLCD\test\Pain Drain\libraries\lvgl\src\draw\sw/lv_draw_sw_arc.c ****             lv_draw_rect(q->draw_ctx, q->draw_dsc, q->draw_area);
 1521              		.loc 1 492 0
 1522 0220 6269     		ldr	r2, [r4, #20]
 1523 0222 2169     		ldr	r1, [r4, #16]
 1524 0224 A069     		ldr	r0, [r4, #24]
 1525              	.LVL96:
 1526 0226 FFF7FEFF 		bl	lv_draw_rect
 1527              	.LVL97:
 1528              	.L33:
 1529              	.LBE27:
 493:..\..\..\arduinoLCD\test\Pain Drain\libraries\lvgl\src\draw\sw/lv_draw_sw_arc.c ****         }
 494:..\..\..\arduinoLCD\test\Pain Drain\libraries\lvgl\src\draw\sw/lv_draw_sw_arc.c ****     }
 495:..\..\..\arduinoLCD\test\Pain Drain\libraries\lvgl\src\draw\sw/lv_draw_sw_arc.c **** 
 496:..\..\..\arduinoLCD\test\Pain Drain\libraries\lvgl\src\draw\sw/lv_draw_sw_arc.c ****     q->draw_ctx->clip_area = clip_area_ori;
 1530              		.loc 1 496 0
 1531 022a A369     		ldr	r3, [r4, #24]
 1532 022c 9D60     		str	r5, [r3, #8]
 497:..\..\..\arduinoLCD\test\Pain Drain\libraries\lvgl\src\draw\sw/lv_draw_sw_arc.c **** }
 1533              		.loc 1 497 0
 1534 022e 02B0     		add	sp, sp, #8
 1535              		@ sp needed
 1536              	.LVL98:
 1537              	.LVL99:
 1538 0230 70BD     		pop	{r4, r5, r6, pc}
 1539              		.cfi_endproc
 1540              	.LFE60:
 1541              		.size	draw_quarter_3, .-draw_quarter_3
 1542 0232 C046     		.section	.text.get_rounded_area,"ax",%progbits
 1543              		.align	2
 1544              		.code	16
 1545              		.thumb_func
 1546              		.type	get_rounded_area, %function
 1547              	get_rounded_area:
 1548              	.LFB61:
 498:..\..\..\arduinoLCD\test\Pain Drain\libraries\lvgl\src\draw\sw/lv_draw_sw_arc.c **** 
 499:..\..\..\arduinoLCD\test\Pain Drain\libraries\lvgl\src\draw\sw/lv_draw_sw_arc.c **** static void get_rounded_area(int16_t angle, lv_coord_t radius, uint8_t thickness, lv_area_t * res_a
 500:..\..\..\arduinoLCD\test\Pain Drain\libraries\lvgl\src\draw\sw/lv_draw_sw_arc.c **** {
 1549              		.loc 1 500 0
 1550              		.cfi_startproc
 1551              		@ args = 0, pretend = 0, frame = 8
 1552              		@ frame_needed = 0, uses_anonymous_args = 0
ARM GAS  C:\Users\haske\AppData\Local\Temp\ccinSyc3.s 			page 37


 1553              	.LVL100:
 1554 0000 F0B5     		push	{r4, r5, r6, r7, lr}
 1555              		.cfi_def_cfa_offset 20
 1556              		.cfi_offset 4, -20
 1557              		.cfi_offset 5, -16
 1558              		.cfi_offset 6, -12
 1559              		.cfi_offset 7, -8
 1560              		.cfi_offset 14, -4
 1561 0002 4F46     		mov	r7, r9
 1562 0004 80B4     		push	{r7}
 1563              		.cfi_def_cfa_offset 24
 1564              		.cfi_offset 9, -24
 1565 0006 82B0     		sub	sp, sp, #8
 1566              		.cfi_def_cfa_offset 32
 1567 0008 0500     		movs	r5, r0
 1568 000a 1F00     		movs	r7, r3
 1569              	.LVL101:
 501:..\..\..\arduinoLCD\test\Pain Drain\libraries\lvgl\src\draw\sw/lv_draw_sw_arc.c ****     const uint8_t ps = 8;
 502:..\..\..\arduinoLCD\test\Pain Drain\libraries\lvgl\src\draw\sw/lv_draw_sw_arc.c ****     const uint8_t pa = 127;
 503:..\..\..\arduinoLCD\test\Pain Drain\libraries\lvgl\src\draw\sw/lv_draw_sw_arc.c **** 
 504:..\..\..\arduinoLCD\test\Pain Drain\libraries\lvgl\src\draw\sw/lv_draw_sw_arc.c ****     int32_t thick_half = thickness / 2;
 1570              		.loc 1 504 0
 1571 000c 5608     		lsrs	r6, r2, #1
 1572              	.LVL102:
 505:..\..\..\arduinoLCD\test\Pain Drain\libraries\lvgl\src\draw\sw/lv_draw_sw_arc.c ****     uint8_t thick_corr = (thickness & 0x01) ? 0 : 1;
 1573              		.loc 1 505 0
 1574 000e 0123     		movs	r3, #1
 1575              	.LVL103:
 1576 0010 5A40     		eors	r2, r3
 1577              	.LVL104:
 1578 0012 0123     		movs	r3, #1
 1579 0014 1340     		ands	r3, r2
 1580 0016 9946     		mov	r9, r3
 1581              	.LVL105:
 506:..\..\..\arduinoLCD\test\Pain Drain\libraries\lvgl\src\draw\sw/lv_draw_sw_arc.c **** 
 507:..\..\..\arduinoLCD\test\Pain Drain\libraries\lvgl\src\draw\sw/lv_draw_sw_arc.c ****     int32_t cir_x;
 508:..\..\..\arduinoLCD\test\Pain Drain\libraries\lvgl\src\draw\sw/lv_draw_sw_arc.c ****     int32_t cir_y;
 509:..\..\..\arduinoLCD\test\Pain Drain\libraries\lvgl\src\draw\sw/lv_draw_sw_arc.c **** 
 510:..\..\..\arduinoLCD\test\Pain Drain\libraries\lvgl\src\draw\sw/lv_draw_sw_arc.c ****     cir_x = ((radius - thick_half) * lv_trigo_sin(90 - angle)) >> (LV_TRIGO_SHIFT - ps);
 1582              		.loc 1 510 0
 1583 0018 8C1B     		subs	r4, r1, r6
 1584 001a 5A20     		movs	r0, #90
 1585              	.LVL106:
 1586 001c 0195     		str	r5, [sp, #4]
 1587 001e 401B     		subs	r0, r0, r5
 1588 0020 00B2     		sxth	r0, r0
 1589 0022 FFF7FEFF 		bl	lv_trigo_sin
 1590              	.LVL107:
 1591 0026 0500     		movs	r5, r0
 1592 0028 6543     		muls	r5, r4
 1593 002a ED11     		asrs	r5, r5, #7
 1594              	.LVL108:
 511:..\..\..\arduinoLCD\test\Pain Drain\libraries\lvgl\src\draw\sw/lv_draw_sw_arc.c ****     cir_y = ((radius - thick_half) * lv_trigo_sin(angle)) >> (LV_TRIGO_SHIFT - ps);
 1595              		.loc 1 511 0
 1596 002c 0198     		ldr	r0, [sp, #4]
 1597 002e FFF7FEFF 		bl	lv_trigo_sin
 1598              	.LVL109:
ARM GAS  C:\Users\haske\AppData\Local\Temp\ccinSyc3.s 			page 38


 1599 0032 4443     		muls	r4, r0
 1600 0034 E411     		asrs	r4, r4, #7
 1601              	.LVL110:
 512:..\..\..\arduinoLCD\test\Pain Drain\libraries\lvgl\src\draw\sw/lv_draw_sw_arc.c **** 
 513:..\..\..\arduinoLCD\test\Pain Drain\libraries\lvgl\src\draw\sw/lv_draw_sw_arc.c ****     /*Actually the center of the pixel need to be calculated so apply 1/2 px offset*/
 514:..\..\..\arduinoLCD\test\Pain Drain\libraries\lvgl\src\draw\sw/lv_draw_sw_arc.c ****     if(cir_x > 0) {
 1602              		.loc 1 514 0
 1603 0036 002D     		cmp	r5, #0
 1604 0038 09DD     		ble	.L42
 515:..\..\..\arduinoLCD\test\Pain Drain\libraries\lvgl\src\draw\sw/lv_draw_sw_arc.c ****         cir_x = (cir_x - pa) >> ps;
 1605              		.loc 1 515 0
 1606 003a 7F3D     		subs	r5, r5, #127
 1607              	.LVL111:
 1608 003c 2D12     		asrs	r5, r5, #8
 1609              	.LVL112:
 516:..\..\..\arduinoLCD\test\Pain Drain\libraries\lvgl\src\draw\sw/lv_draw_sw_arc.c ****         res_area->x1 = cir_x - thick_half + thick_corr;
 1610              		.loc 1 516 0
 1611 003e ADB2     		uxth	r5, r5
 1612              	.LVL113:
 1613 0040 B3B2     		uxth	r3, r6
 1614 0042 EA1A     		subs	r2, r5, r3
 1615 0044 4A44     		add	r2, r2, r9
 1616 0046 3A80     		strh	r2, [r7]
 517:..\..\..\arduinoLCD\test\Pain Drain\libraries\lvgl\src\draw\sw/lv_draw_sw_arc.c ****         res_area->x2 = cir_x + thick_half;
 1617              		.loc 1 517 0
 1618 0048 ED18     		adds	r5, r5, r3
 1619 004a BD80     		strh	r5, [r7, #4]
 1620 004c 09E0     		b	.L43
 1621              	.LVL114:
 1622              	.L42:
 518:..\..\..\arduinoLCD\test\Pain Drain\libraries\lvgl\src\draw\sw/lv_draw_sw_arc.c ****     }
 519:..\..\..\arduinoLCD\test\Pain Drain\libraries\lvgl\src\draw\sw/lv_draw_sw_arc.c ****     else {
 520:..\..\..\arduinoLCD\test\Pain Drain\libraries\lvgl\src\draw\sw/lv_draw_sw_arc.c ****         cir_x = (cir_x + pa) >> ps;
 1623              		.loc 1 520 0
 1624 004e 7F35     		adds	r5, r5, #127
 1625              	.LVL115:
 1626 0050 2D12     		asrs	r5, r5, #8
 1627              	.LVL116:
 521:..\..\..\arduinoLCD\test\Pain Drain\libraries\lvgl\src\draw\sw/lv_draw_sw_arc.c ****         res_area->x1 = cir_x - thick_half;
 1628              		.loc 1 521 0
 1629 0052 ADB2     		uxth	r5, r5
 1630              	.LVL117:
 1631 0054 B3B2     		uxth	r3, r6
 1632 0056 EA1A     		subs	r2, r5, r3
 1633 0058 3A80     		strh	r2, [r7]
 522:..\..\..\arduinoLCD\test\Pain Drain\libraries\lvgl\src\draw\sw/lv_draw_sw_arc.c ****         res_area->x2 = cir_x + thick_half - thick_corr;
 1634              		.loc 1 522 0
 1635 005a ED18     		adds	r5, r5, r3
 1636 005c 4B46     		mov	r3, r9
 1637 005e ED1A     		subs	r5, r5, r3
 1638 0060 BD80     		strh	r5, [r7, #4]
 1639              	.L43:
 523:..\..\..\arduinoLCD\test\Pain Drain\libraries\lvgl\src\draw\sw/lv_draw_sw_arc.c ****     }
 524:..\..\..\arduinoLCD\test\Pain Drain\libraries\lvgl\src\draw\sw/lv_draw_sw_arc.c **** 
 525:..\..\..\arduinoLCD\test\Pain Drain\libraries\lvgl\src\draw\sw/lv_draw_sw_arc.c ****     if(cir_y > 0) {
 1640              		.loc 1 525 0
 1641 0062 002C     		cmp	r4, #0
ARM GAS  C:\Users\haske\AppData\Local\Temp\ccinSyc3.s 			page 39


 1642 0064 09DD     		ble	.L44
 526:..\..\..\arduinoLCD\test\Pain Drain\libraries\lvgl\src\draw\sw/lv_draw_sw_arc.c ****         cir_y = (cir_y - pa) >> ps;
 1643              		.loc 1 526 0
 1644 0066 7F3C     		subs	r4, r4, #127
 1645              	.LVL118:
 1646 0068 2412     		asrs	r4, r4, #8
 1647              	.LVL119:
 527:..\..\..\arduinoLCD\test\Pain Drain\libraries\lvgl\src\draw\sw/lv_draw_sw_arc.c ****         res_area->y1 = cir_y - thick_half + thick_corr;
 1648              		.loc 1 527 0
 1649 006a A4B2     		uxth	r4, r4
 1650              	.LVL120:
 1651 006c B3B2     		uxth	r3, r6
 1652 006e E61A     		subs	r6, r4, r3
 1653              	.LVL121:
 1654 0070 4E44     		add	r6, r6, r9
 1655 0072 7E80     		strh	r6, [r7, #2]
 528:..\..\..\arduinoLCD\test\Pain Drain\libraries\lvgl\src\draw\sw/lv_draw_sw_arc.c ****         res_area->y2 = cir_y + thick_half;
 1656              		.loc 1 528 0
 1657 0074 E418     		adds	r4, r4, r3
 1658 0076 FC80     		strh	r4, [r7, #6]
 1659 0078 09E0     		b	.L41
 1660              	.LVL122:
 1661              	.L44:
 529:..\..\..\arduinoLCD\test\Pain Drain\libraries\lvgl\src\draw\sw/lv_draw_sw_arc.c ****     }
 530:..\..\..\arduinoLCD\test\Pain Drain\libraries\lvgl\src\draw\sw/lv_draw_sw_arc.c ****     else {
 531:..\..\..\arduinoLCD\test\Pain Drain\libraries\lvgl\src\draw\sw/lv_draw_sw_arc.c ****         cir_y = (cir_y + pa) >> ps;
 1662              		.loc 1 531 0
 1663 007a 7F34     		adds	r4, r4, #127
 1664              	.LVL123:
 1665 007c 2412     		asrs	r4, r4, #8
 1666              	.LVL124:
 532:..\..\..\arduinoLCD\test\Pain Drain\libraries\lvgl\src\draw\sw/lv_draw_sw_arc.c ****         res_area->y1 = cir_y - thick_half;
 1667              		.loc 1 532 0
 1668 007e A4B2     		uxth	r4, r4
 1669              	.LVL125:
 1670 0080 B6B2     		uxth	r6, r6
 1671              	.LVL126:
 1672 0082 A31B     		subs	r3, r4, r6
 1673 0084 7B80     		strh	r3, [r7, #2]
 533:..\..\..\arduinoLCD\test\Pain Drain\libraries\lvgl\src\draw\sw/lv_draw_sw_arc.c ****         res_area->y2 = cir_y + thick_half - thick_corr;
 1674              		.loc 1 533 0
 1675 0086 A619     		adds	r6, r4, r6
 1676 0088 4B46     		mov	r3, r9
 1677 008a F61A     		subs	r6, r6, r3
 1678 008c FE80     		strh	r6, [r7, #6]
 1679              	.L41:
 534:..\..\..\arduinoLCD\test\Pain Drain\libraries\lvgl\src\draw\sw/lv_draw_sw_arc.c ****     }
 535:..\..\..\arduinoLCD\test\Pain Drain\libraries\lvgl\src\draw\sw/lv_draw_sw_arc.c **** }
 1680              		.loc 1 535 0
 1681 008e 02B0     		add	sp, sp, #8
 1682              		@ sp needed
 1683              	.LVL127:
 1684              	.LVL128:
 1685 0090 04BC     		pop	{r2}
 1686 0092 9146     		mov	r9, r2
 1687 0094 F0BD     		pop	{r4, r5, r6, r7, pc}
 1688              		.cfi_endproc
ARM GAS  C:\Users\haske\AppData\Local\Temp\ccinSyc3.s 			page 40


 1689              	.LFE61:
 1690              		.size	get_rounded_area, .-get_rounded_area
 1691              		.global	__aeabi_uidiv
 1692 0096 C046     		.section	.text.lv_draw_sw_arc,"ax",%progbits
 1693              		.align	2
 1694              		.global	lv_draw_sw_arc
 1695              		.code	16
 1696              		.thumb_func
 1697              		.type	lv_draw_sw_arc, %function
 1698              	lv_draw_sw_arc:
 1699              	.LFB56:
  62:..\..\..\arduinoLCD\test\Pain Drain\libraries\lvgl\src\draw\sw/lv_draw_sw_arc.c **** #if LV_DRAW_COMPLEX
 1700              		.loc 1 62 0
 1701              		.cfi_startproc
 1702              		@ args = 8, pretend = 0, frame = 304
 1703              		@ frame_needed = 0, uses_anonymous_args = 0
 1704              	.LVL129:
 1705 0000 F0B5     		push	{r4, r5, r6, r7, lr}
 1706              		.cfi_def_cfa_offset 20
 1707              		.cfi_offset 4, -20
 1708              		.cfi_offset 5, -16
 1709              		.cfi_offset 6, -12
 1710              		.cfi_offset 7, -8
 1711              		.cfi_offset 14, -4
 1712 0002 5F46     		mov	r7, fp
 1713 0004 5646     		mov	r6, r10
 1714 0006 4D46     		mov	r5, r9
 1715 0008 4446     		mov	r4, r8
 1716 000a F0B4     		push	{r4, r5, r6, r7}
 1717              		.cfi_def_cfa_offset 36
 1718              		.cfi_offset 8, -36
 1719              		.cfi_offset 9, -32
 1720              		.cfi_offset 10, -28
 1721              		.cfi_offset 11, -24
 1722 000c CFB0     		sub	sp, sp, #316
 1723              		.cfi_def_cfa_offset 352
 1724 000e 0490     		str	r0, [sp, #16]
 1725 0010 0E00     		movs	r6, r1
 1726 0012 0392     		str	r2, [sp, #12]
 1727 0014 9846     		mov	r8, r3
 1728 0016 58AB     		add	r3, sp, #352
 1729              	.LVL130:
 1730 0018 1C88     		ldrh	r4, [r3]
 1731 001a 59AB     		add	r3, sp, #356
 1732              	.LVL131:
 1733 001c 1D88     		ldrh	r5, [r3]
  64:..\..\..\arduinoLCD\test\Pain Drain\libraries\lvgl\src\draw\sw/lv_draw_sw_arc.c ****     if(dsc->width == 0) return;
 1734              		.loc 1 64 0
 1735 001e 0B7B     		ldrb	r3, [r1, #12]
 1736              	.LVL132:
 1737 0020 022B     		cmp	r3, #2
 1738 0022 00D8     		bhi	.LCB1570
 1739 0024 9BE1     		b	.L46	@long jump
 1740              	.LCB1570:
  65:..\..\..\arduinoLCD\test\Pain Drain\libraries\lvgl\src\draw\sw/lv_draw_sw_arc.c ****     if(start_angle == end_angle) return;
 1741              		.loc 1 65 0
 1742 0026 0222     		movs	r2, #2
ARM GAS  C:\Users\haske\AppData\Local\Temp\ccinSyc3.s 			page 41


 1743 0028 8B5E     		ldrsh	r3, [r1, r2]
 1744              	.LVL133:
 1745 002a 9A46     		mov	r10, r3
 1746 002c 002B     		cmp	r3, #0
 1747 002e 00D1     		bne	.LCB1575
 1748 0030 95E1     		b	.L46	@long jump
 1749              	.LCB1575:
  66:..\..\..\arduinoLCD\test\Pain Drain\libraries\lvgl\src\draw\sw/lv_draw_sw_arc.c **** 
 1750              		.loc 1 66 0
 1751 0032 AC42     		cmp	r4, r5
 1752 0034 00D1     		bne	.LCB1577
 1753 0036 92E1     		b	.L46	@long jump
 1754              	.LCB1577:
 1755              	.LVL134:
  69:..\..\..\arduinoLCD\test\Pain Drain\libraries\lvgl\src\draw\sw/lv_draw_sw_arc.c **** 
 1756              		.loc 1 69 0
 1757 0038 4345     		cmp	r3, r8
 1758 003a 02DD     		ble	.L48
  69:..\..\..\arduinoLCD\test\Pain Drain\libraries\lvgl\src\draw\sw/lv_draw_sw_arc.c **** 
 1759              		.loc 1 69 0 is_stmt 0 discriminator 1
 1760 003c 4346     		mov	r3, r8
 1761              	.LVL135:
 1762 003e 1BB2     		sxth	r3, r3
 1763 0040 9A46     		mov	r10, r3
 1764              	.LVL136:
 1765              	.L48:
  72:..\..\..\arduinoLCD\test\Pain Drain\libraries\lvgl\src\draw\sw/lv_draw_sw_arc.c ****     cir_dsc.blend_mode = dsc->blend_mode;
 1766              		.loc 1 72 0 is_stmt 1
 1767 0042 40AF     		add	r7, sp, #256
 1768 0044 3800     		movs	r0, r7
 1769              	.LVL137:
 1770 0046 FFF7FEFF 		bl	lv_draw_rect_dsc_init
 1771              	.LVL138:
  73:..\..\..\arduinoLCD\test\Pain Drain\libraries\lvgl\src\draw\sw/lv_draw_sw_arc.c ****     if(dsc->img_src) {
 1772              		.loc 1 73 0
 1773 004a 737B     		ldrb	r3, [r6, #13]
 1774 004c 9B07     		lsls	r3, r3, #30
 1775 004e 9B0F     		lsrs	r3, r3, #30
 1776 0050 BB70     		strb	r3, [r7, #2]
  74:..\..\..\arduinoLCD\test\Pain Drain\libraries\lvgl\src\draw\sw/lv_draw_sw_arc.c ****         cir_dsc.bg_opa = LV_OPA_TRANSP;
 1777              		.loc 1 74 0
 1778 0052 B268     		ldr	r2, [r6, #8]
 1779 0054 002A     		cmp	r2, #0
 1780 0056 06D0     		beq	.L49
  75:..\..\..\arduinoLCD\test\Pain Drain\libraries\lvgl\src\draw\sw/lv_draw_sw_arc.c ****         cir_dsc.bg_img_src = dsc->img_src;
 1781              		.loc 1 75 0
 1782 0058 40AB     		add	r3, sp, #256
 1783 005a 0021     		movs	r1, #0
 1784 005c D970     		strb	r1, [r3, #3]
  76:..\..\..\arduinoLCD\test\Pain Drain\libraries\lvgl\src\draw\sw/lv_draw_sw_arc.c ****         cir_dsc.bg_img_opa = dsc->opa;
 1785              		.loc 1 76 0
 1786 005e 4492     		str	r2, [sp, #272]
  77:..\..\..\arduinoLCD\test\Pain Drain\libraries\lvgl\src\draw\sw/lv_draw_sw_arc.c ****     }
 1787              		.loc 1 77 0
 1788 0060 327B     		ldrb	r2, [r6, #12]
 1789 0062 9A76     		strb	r2, [r3, #26]
 1790 0064 04E0     		b	.L50
ARM GAS  C:\Users\haske\AppData\Local\Temp\ccinSyc3.s 			page 42


 1791              	.L49:
  80:..\..\..\arduinoLCD\test\Pain Drain\libraries\lvgl\src\draw\sw/lv_draw_sw_arc.c ****         cir_dsc.bg_color = dsc->color;
 1792              		.loc 1 80 0
 1793 0066 327B     		ldrb	r2, [r6, #12]
 1794 0068 40AB     		add	r3, sp, #256
 1795 006a DA70     		strb	r2, [r3, #3]
  81:..\..\..\arduinoLCD\test\Pain Drain\libraries\lvgl\src\draw\sw/lv_draw_sw_arc.c ****     }
 1796              		.loc 1 81 0
 1797 006c 3288     		ldrh	r2, [r6]
 1798 006e 9A80     		strh	r2, [r3, #4]
 1799              	.L50:
  85:..\..\..\arduinoLCD\test\Pain Drain\libraries\lvgl\src\draw\sw/lv_draw_sw_arc.c ****     area_out.y1 = center->y - radius;
 1800              		.loc 1 85 0
 1801 0070 039A     		ldr	r2, [sp, #12]
 1802 0072 0021     		movs	r1, #0
 1803 0074 535E     		ldrsh	r3, [r2, r1]
 1804 0076 4146     		mov	r1, r8
 1805 0078 591A     		subs	r1, r3, r1
 1806 007a 89B2     		uxth	r1, r1
 1807 007c 3EA8     		add	r0, sp, #248
 1808 007e 0180     		strh	r1, [r0]
  86:..\..\..\arduinoLCD\test\Pain Drain\libraries\lvgl\src\draw\sw/lv_draw_sw_arc.c ****     area_out.x2 = center->x + radius - 1;  /*-1 because the center already belongs to the left/bott
 1809              		.loc 1 86 0
 1810 0080 0227     		movs	r7, #2
 1811 0082 D25F     		ldrsh	r2, [r2, r7]
 1812 0084 4746     		mov	r7, r8
 1813 0086 D71B     		subs	r7, r2, r7
 1814 0088 BFB2     		uxth	r7, r7
 1815 008a BC46     		mov	ip, r7
 1816 008c 4780     		strh	r7, [r0, #2]
  87:..\..\..\arduinoLCD\test\Pain Drain\libraries\lvgl\src\draw\sw/lv_draw_sw_arc.c ****     area_out.y2 = center->y + radius - 1;
 1817              		.loc 1 87 0
 1818 008e 4344     		add	r3, r3, r8
 1819 0090 013B     		subs	r3, r3, #1
 1820 0092 9BB2     		uxth	r3, r3
 1821 0094 8380     		strh	r3, [r0, #4]
  88:..\..\..\arduinoLCD\test\Pain Drain\libraries\lvgl\src\draw\sw/lv_draw_sw_arc.c **** 
 1822              		.loc 1 88 0
 1823 0096 4244     		add	r2, r2, r8
 1824 0098 013A     		subs	r2, r2, #1
 1825 009a 92B2     		uxth	r2, r2
 1826 009c 9146     		mov	r9, r2
 1827 009e C280     		strh	r2, [r0, #6]
 1828              	.LVL139:
 1829              	.LBB28:
 1830              	.LBB29:
 1831              		.file 2 "c:\\projects\\paindrain\\arduinolcd\\test\\pain drain\\libraries\\lvgl\\src\\misc\\lv_are
   1:c:\projects\paindrain\arduinolcd\test\pain drain\libraries\lvgl\src\misc\lv_area.h **** /**
   2:c:\projects\paindrain\arduinolcd\test\pain drain\libraries\lvgl\src\misc\lv_area.h ****  * @file lv_area.h
   3:c:\projects\paindrain\arduinolcd\test\pain drain\libraries\lvgl\src\misc\lv_area.h ****  *
   4:c:\projects\paindrain\arduinolcd\test\pain drain\libraries\lvgl\src\misc\lv_area.h ****  */
   5:c:\projects\paindrain\arduinolcd\test\pain drain\libraries\lvgl\src\misc\lv_area.h **** 
   6:c:\projects\paindrain\arduinolcd\test\pain drain\libraries\lvgl\src\misc\lv_area.h **** #ifndef LV_AREA_H
   7:c:\projects\paindrain\arduinolcd\test\pain drain\libraries\lvgl\src\misc\lv_area.h **** #define LV_AREA_H
   8:c:\projects\paindrain\arduinolcd\test\pain drain\libraries\lvgl\src\misc\lv_area.h **** 
   9:c:\projects\paindrain\arduinolcd\test\pain drain\libraries\lvgl\src\misc\lv_area.h **** #ifdef __cplusplus
  10:c:\projects\paindrain\arduinolcd\test\pain drain\libraries\lvgl\src\misc\lv_area.h **** extern "C" {
ARM GAS  C:\Users\haske\AppData\Local\Temp\ccinSyc3.s 			page 43


  11:c:\projects\paindrain\arduinolcd\test\pain drain\libraries\lvgl\src\misc\lv_area.h **** #endif
  12:c:\projects\paindrain\arduinolcd\test\pain drain\libraries\lvgl\src\misc\lv_area.h **** 
  13:c:\projects\paindrain\arduinolcd\test\pain drain\libraries\lvgl\src\misc\lv_area.h **** /*********************
  14:c:\projects\paindrain\arduinolcd\test\pain drain\libraries\lvgl\src\misc\lv_area.h ****  *      INCLUDES
  15:c:\projects\paindrain\arduinolcd\test\pain drain\libraries\lvgl\src\misc\lv_area.h ****  *********************/
  16:c:\projects\paindrain\arduinolcd\test\pain drain\libraries\lvgl\src\misc\lv_area.h **** #include "../lv_conf_internal.h"
  17:c:\projects\paindrain\arduinolcd\test\pain drain\libraries\lvgl\src\misc\lv_area.h **** #include <stdbool.h>
  18:c:\projects\paindrain\arduinolcd\test\pain drain\libraries\lvgl\src\misc\lv_area.h **** #include <stdint.h>
  19:c:\projects\paindrain\arduinolcd\test\pain drain\libraries\lvgl\src\misc\lv_area.h **** 
  20:c:\projects\paindrain\arduinolcd\test\pain drain\libraries\lvgl\src\misc\lv_area.h **** /*********************
  21:c:\projects\paindrain\arduinolcd\test\pain drain\libraries\lvgl\src\misc\lv_area.h ****  *      DEFINES
  22:c:\projects\paindrain\arduinolcd\test\pain drain\libraries\lvgl\src\misc\lv_area.h ****  *********************/
  23:c:\projects\paindrain\arduinolcd\test\pain drain\libraries\lvgl\src\misc\lv_area.h **** 
  24:c:\projects\paindrain\arduinolcd\test\pain drain\libraries\lvgl\src\misc\lv_area.h **** #if LV_USE_LARGE_COORD
  25:c:\projects\paindrain\arduinolcd\test\pain drain\libraries\lvgl\src\misc\lv_area.h **** typedef int32_t lv_coord_t;
  26:c:\projects\paindrain\arduinolcd\test\pain drain\libraries\lvgl\src\misc\lv_area.h **** #else
  27:c:\projects\paindrain\arduinolcd\test\pain drain\libraries\lvgl\src\misc\lv_area.h **** typedef int16_t lv_coord_t;
  28:c:\projects\paindrain\arduinolcd\test\pain drain\libraries\lvgl\src\misc\lv_area.h **** #endif
  29:c:\projects\paindrain\arduinolcd\test\pain drain\libraries\lvgl\src\misc\lv_area.h **** 
  30:c:\projects\paindrain\arduinolcd\test\pain drain\libraries\lvgl\src\misc\lv_area.h **** /**********************
  31:c:\projects\paindrain\arduinolcd\test\pain drain\libraries\lvgl\src\misc\lv_area.h ****  *      TYPEDEFS
  32:c:\projects\paindrain\arduinolcd\test\pain drain\libraries\lvgl\src\misc\lv_area.h ****  **********************/
  33:c:\projects\paindrain\arduinolcd\test\pain drain\libraries\lvgl\src\misc\lv_area.h **** 
  34:c:\projects\paindrain\arduinolcd\test\pain drain\libraries\lvgl\src\misc\lv_area.h **** /**
  35:c:\projects\paindrain\arduinolcd\test\pain drain\libraries\lvgl\src\misc\lv_area.h ****  * Represents a point on the screen.
  36:c:\projects\paindrain\arduinolcd\test\pain drain\libraries\lvgl\src\misc\lv_area.h ****  */
  37:c:\projects\paindrain\arduinolcd\test\pain drain\libraries\lvgl\src\misc\lv_area.h **** typedef struct {
  38:c:\projects\paindrain\arduinolcd\test\pain drain\libraries\lvgl\src\misc\lv_area.h ****     lv_coord_t x;
  39:c:\projects\paindrain\arduinolcd\test\pain drain\libraries\lvgl\src\misc\lv_area.h ****     lv_coord_t y;
  40:c:\projects\paindrain\arduinolcd\test\pain drain\libraries\lvgl\src\misc\lv_area.h **** } lv_point_t;
  41:c:\projects\paindrain\arduinolcd\test\pain drain\libraries\lvgl\src\misc\lv_area.h **** 
  42:c:\projects\paindrain\arduinolcd\test\pain drain\libraries\lvgl\src\misc\lv_area.h **** /** Represents an area of the screen.*/
  43:c:\projects\paindrain\arduinolcd\test\pain drain\libraries\lvgl\src\misc\lv_area.h **** typedef struct {
  44:c:\projects\paindrain\arduinolcd\test\pain drain\libraries\lvgl\src\misc\lv_area.h ****     lv_coord_t x1;
  45:c:\projects\paindrain\arduinolcd\test\pain drain\libraries\lvgl\src\misc\lv_area.h ****     lv_coord_t y1;
  46:c:\projects\paindrain\arduinolcd\test\pain drain\libraries\lvgl\src\misc\lv_area.h ****     lv_coord_t x2;
  47:c:\projects\paindrain\arduinolcd\test\pain drain\libraries\lvgl\src\misc\lv_area.h ****     lv_coord_t y2;
  48:c:\projects\paindrain\arduinolcd\test\pain drain\libraries\lvgl\src\misc\lv_area.h **** } lv_area_t;
  49:c:\projects\paindrain\arduinolcd\test\pain drain\libraries\lvgl\src\misc\lv_area.h **** 
  50:c:\projects\paindrain\arduinolcd\test\pain drain\libraries\lvgl\src\misc\lv_area.h **** /** Alignments*/
  51:c:\projects\paindrain\arduinolcd\test\pain drain\libraries\lvgl\src\misc\lv_area.h **** enum {
  52:c:\projects\paindrain\arduinolcd\test\pain drain\libraries\lvgl\src\misc\lv_area.h ****     LV_ALIGN_DEFAULT = 0,
  53:c:\projects\paindrain\arduinolcd\test\pain drain\libraries\lvgl\src\misc\lv_area.h ****     LV_ALIGN_TOP_LEFT,
  54:c:\projects\paindrain\arduinolcd\test\pain drain\libraries\lvgl\src\misc\lv_area.h ****     LV_ALIGN_TOP_MID,
  55:c:\projects\paindrain\arduinolcd\test\pain drain\libraries\lvgl\src\misc\lv_area.h ****     LV_ALIGN_TOP_RIGHT,
  56:c:\projects\paindrain\arduinolcd\test\pain drain\libraries\lvgl\src\misc\lv_area.h ****     LV_ALIGN_BOTTOM_LEFT,
  57:c:\projects\paindrain\arduinolcd\test\pain drain\libraries\lvgl\src\misc\lv_area.h ****     LV_ALIGN_BOTTOM_MID,
  58:c:\projects\paindrain\arduinolcd\test\pain drain\libraries\lvgl\src\misc\lv_area.h ****     LV_ALIGN_BOTTOM_RIGHT,
  59:c:\projects\paindrain\arduinolcd\test\pain drain\libraries\lvgl\src\misc\lv_area.h ****     LV_ALIGN_LEFT_MID,
  60:c:\projects\paindrain\arduinolcd\test\pain drain\libraries\lvgl\src\misc\lv_area.h ****     LV_ALIGN_RIGHT_MID,
  61:c:\projects\paindrain\arduinolcd\test\pain drain\libraries\lvgl\src\misc\lv_area.h ****     LV_ALIGN_CENTER,
  62:c:\projects\paindrain\arduinolcd\test\pain drain\libraries\lvgl\src\misc\lv_area.h **** 
  63:c:\projects\paindrain\arduinolcd\test\pain drain\libraries\lvgl\src\misc\lv_area.h ****     LV_ALIGN_OUT_TOP_LEFT,
  64:c:\projects\paindrain\arduinolcd\test\pain drain\libraries\lvgl\src\misc\lv_area.h ****     LV_ALIGN_OUT_TOP_MID,
  65:c:\projects\paindrain\arduinolcd\test\pain drain\libraries\lvgl\src\misc\lv_area.h ****     LV_ALIGN_OUT_TOP_RIGHT,
  66:c:\projects\paindrain\arduinolcd\test\pain drain\libraries\lvgl\src\misc\lv_area.h ****     LV_ALIGN_OUT_BOTTOM_LEFT,
  67:c:\projects\paindrain\arduinolcd\test\pain drain\libraries\lvgl\src\misc\lv_area.h ****     LV_ALIGN_OUT_BOTTOM_MID,
ARM GAS  C:\Users\haske\AppData\Local\Temp\ccinSyc3.s 			page 44


  68:c:\projects\paindrain\arduinolcd\test\pain drain\libraries\lvgl\src\misc\lv_area.h ****     LV_ALIGN_OUT_BOTTOM_RIGHT,
  69:c:\projects\paindrain\arduinolcd\test\pain drain\libraries\lvgl\src\misc\lv_area.h ****     LV_ALIGN_OUT_LEFT_TOP,
  70:c:\projects\paindrain\arduinolcd\test\pain drain\libraries\lvgl\src\misc\lv_area.h ****     LV_ALIGN_OUT_LEFT_MID,
  71:c:\projects\paindrain\arduinolcd\test\pain drain\libraries\lvgl\src\misc\lv_area.h ****     LV_ALIGN_OUT_LEFT_BOTTOM,
  72:c:\projects\paindrain\arduinolcd\test\pain drain\libraries\lvgl\src\misc\lv_area.h ****     LV_ALIGN_OUT_RIGHT_TOP,
  73:c:\projects\paindrain\arduinolcd\test\pain drain\libraries\lvgl\src\misc\lv_area.h ****     LV_ALIGN_OUT_RIGHT_MID,
  74:c:\projects\paindrain\arduinolcd\test\pain drain\libraries\lvgl\src\misc\lv_area.h ****     LV_ALIGN_OUT_RIGHT_BOTTOM,
  75:c:\projects\paindrain\arduinolcd\test\pain drain\libraries\lvgl\src\misc\lv_area.h **** };
  76:c:\projects\paindrain\arduinolcd\test\pain drain\libraries\lvgl\src\misc\lv_area.h **** typedef uint8_t lv_align_t;
  77:c:\projects\paindrain\arduinolcd\test\pain drain\libraries\lvgl\src\misc\lv_area.h **** 
  78:c:\projects\paindrain\arduinolcd\test\pain drain\libraries\lvgl\src\misc\lv_area.h **** enum {
  79:c:\projects\paindrain\arduinolcd\test\pain drain\libraries\lvgl\src\misc\lv_area.h ****     LV_DIR_NONE     = 0x00,
  80:c:\projects\paindrain\arduinolcd\test\pain drain\libraries\lvgl\src\misc\lv_area.h ****     LV_DIR_LEFT     = (1 << 0),
  81:c:\projects\paindrain\arduinolcd\test\pain drain\libraries\lvgl\src\misc\lv_area.h ****     LV_DIR_RIGHT    = (1 << 1),
  82:c:\projects\paindrain\arduinolcd\test\pain drain\libraries\lvgl\src\misc\lv_area.h ****     LV_DIR_TOP      = (1 << 2),
  83:c:\projects\paindrain\arduinolcd\test\pain drain\libraries\lvgl\src\misc\lv_area.h ****     LV_DIR_BOTTOM   = (1 << 3),
  84:c:\projects\paindrain\arduinolcd\test\pain drain\libraries\lvgl\src\misc\lv_area.h ****     LV_DIR_HOR      = LV_DIR_LEFT | LV_DIR_RIGHT,
  85:c:\projects\paindrain\arduinolcd\test\pain drain\libraries\lvgl\src\misc\lv_area.h ****     LV_DIR_VER      = LV_DIR_TOP | LV_DIR_BOTTOM,
  86:c:\projects\paindrain\arduinolcd\test\pain drain\libraries\lvgl\src\misc\lv_area.h ****     LV_DIR_ALL      = LV_DIR_HOR | LV_DIR_VER,
  87:c:\projects\paindrain\arduinolcd\test\pain drain\libraries\lvgl\src\misc\lv_area.h **** };
  88:c:\projects\paindrain\arduinolcd\test\pain drain\libraries\lvgl\src\misc\lv_area.h **** 
  89:c:\projects\paindrain\arduinolcd\test\pain drain\libraries\lvgl\src\misc\lv_area.h **** typedef uint8_t lv_dir_t;
  90:c:\projects\paindrain\arduinolcd\test\pain drain\libraries\lvgl\src\misc\lv_area.h **** 
  91:c:\projects\paindrain\arduinolcd\test\pain drain\libraries\lvgl\src\misc\lv_area.h **** /**********************
  92:c:\projects\paindrain\arduinolcd\test\pain drain\libraries\lvgl\src\misc\lv_area.h ****  * GLOBAL PROTOTYPES
  93:c:\projects\paindrain\arduinolcd\test\pain drain\libraries\lvgl\src\misc\lv_area.h ****  **********************/
  94:c:\projects\paindrain\arduinolcd\test\pain drain\libraries\lvgl\src\misc\lv_area.h **** 
  95:c:\projects\paindrain\arduinolcd\test\pain drain\libraries\lvgl\src\misc\lv_area.h **** /**
  96:c:\projects\paindrain\arduinolcd\test\pain drain\libraries\lvgl\src\misc\lv_area.h ****  * Initialize an area
  97:c:\projects\paindrain\arduinolcd\test\pain drain\libraries\lvgl\src\misc\lv_area.h ****  * @param area_p pointer to an area
  98:c:\projects\paindrain\arduinolcd\test\pain drain\libraries\lvgl\src\misc\lv_area.h ****  * @param x1 left coordinate of the area
  99:c:\projects\paindrain\arduinolcd\test\pain drain\libraries\lvgl\src\misc\lv_area.h ****  * @param y1 top coordinate of the area
 100:c:\projects\paindrain\arduinolcd\test\pain drain\libraries\lvgl\src\misc\lv_area.h ****  * @param x2 right coordinate of the area
 101:c:\projects\paindrain\arduinolcd\test\pain drain\libraries\lvgl\src\misc\lv_area.h ****  * @param y2 bottom coordinate of the area
 102:c:\projects\paindrain\arduinolcd\test\pain drain\libraries\lvgl\src\misc\lv_area.h ****  */
 103:c:\projects\paindrain\arduinolcd\test\pain drain\libraries\lvgl\src\misc\lv_area.h **** void lv_area_set(lv_area_t * area_p, lv_coord_t x1, lv_coord_t y1, lv_coord_t x2, lv_coord_t y2);
 104:c:\projects\paindrain\arduinolcd\test\pain drain\libraries\lvgl\src\misc\lv_area.h **** 
 105:c:\projects\paindrain\arduinolcd\test\pain drain\libraries\lvgl\src\misc\lv_area.h **** /**
 106:c:\projects\paindrain\arduinolcd\test\pain drain\libraries\lvgl\src\misc\lv_area.h ****  * Copy an area
 107:c:\projects\paindrain\arduinolcd\test\pain drain\libraries\lvgl\src\misc\lv_area.h ****  * @param dest pointer to the destination area
 108:c:\projects\paindrain\arduinolcd\test\pain drain\libraries\lvgl\src\misc\lv_area.h ****  * @param src pointer to the source area
 109:c:\projects\paindrain\arduinolcd\test\pain drain\libraries\lvgl\src\misc\lv_area.h ****  */
 110:c:\projects\paindrain\arduinolcd\test\pain drain\libraries\lvgl\src\misc\lv_area.h **** inline static void lv_area_copy(lv_area_t * dest, const lv_area_t * src)
 111:c:\projects\paindrain\arduinolcd\test\pain drain\libraries\lvgl\src\misc\lv_area.h **** {
 112:c:\projects\paindrain\arduinolcd\test\pain drain\libraries\lvgl\src\misc\lv_area.h ****     dest->x1 = src->x1;
 1832              		.loc 2 112 0
 1833 00a0 3CA8     		add	r0, sp, #240
 1834              	.LVL140:
 1835              	.LBE29:
 1836              	.LBE28:
  92:..\..\..\arduinoLCD\test\Pain Drain\libraries\lvgl\src\draw\sw/lv_draw_sw_arc.c ****     area_in.y1 += dsc->width;
 1837              		.loc 1 92 0
 1838 00a2 0222     		movs	r2, #2
 1839 00a4 B75E     		ldrsh	r7, [r6, r2]
 1840 00a6 BB46     		mov	fp, r7
 1841 00a8 6A46     		mov	r2, sp
 1842 00aa 9782     		strh	r7, [r2, #20]
ARM GAS  C:\Users\haske\AppData\Local\Temp\ccinSyc3.s 			page 45


 1843 00ac BFB2     		uxth	r7, r7
 1844 00ae C919     		adds	r1, r1, r7
 1845 00b0 89B2     		uxth	r1, r1
 1846 00b2 0180     		strh	r1, [r0]
  93:..\..\..\arduinoLCD\test\Pain Drain\libraries\lvgl\src\draw\sw/lv_draw_sw_arc.c ****     area_in.x2 -= dsc->width;
 1847              		.loc 1 93 0
 1848 00b4 6744     		add	r7, r7, ip
 1849 00b6 BAB2     		uxth	r2, r7
 1850 00b8 9446     		mov	ip, r2
 1851 00ba 4280     		strh	r2, [r0, #2]
  94:..\..\..\arduinoLCD\test\Pain Drain\libraries\lvgl\src\draw\sw/lv_draw_sw_arc.c ****     area_in.y2 -= dsc->width;
 1852              		.loc 1 94 0
 1853 00bc 5A46     		mov	r2, fp
 1854 00be 9B1A     		subs	r3, r3, r2
 1855 00c0 9BB2     		uxth	r3, r3
 1856 00c2 8380     		strh	r3, [r0, #4]
  95:..\..\..\arduinoLCD\test\Pain Drain\libraries\lvgl\src\draw\sw/lv_draw_sw_arc.c **** 
 1857              		.loc 1 95 0
 1858 00c4 4F46     		mov	r7, r9
 1859 00c6 BA1A     		subs	r2, r7, r2
 1860 00c8 92B2     		uxth	r2, r2
 1861 00ca C280     		strh	r2, [r0, #6]
 1862              	.LVL141:
 1863              	.LBB30:
 1864              	.LBB31:
 113:c:\projects\paindrain\arduinolcd\test\pain drain\libraries\lvgl\src\misc\lv_area.h ****     dest->y1 = src->y1;
 114:c:\projects\paindrain\arduinolcd\test\pain drain\libraries\lvgl\src\misc\lv_area.h ****     dest->x2 = src->x2;
 115:c:\projects\paindrain\arduinolcd\test\pain drain\libraries\lvgl\src\misc\lv_area.h ****     dest->y2 = src->y2;
 116:c:\projects\paindrain\arduinolcd\test\pain drain\libraries\lvgl\src\misc\lv_area.h **** }
 117:c:\projects\paindrain\arduinolcd\test\pain drain\libraries\lvgl\src\misc\lv_area.h **** 
 118:c:\projects\paindrain\arduinolcd\test\pain drain\libraries\lvgl\src\misc\lv_area.h **** /**
 119:c:\projects\paindrain\arduinolcd\test\pain drain\libraries\lvgl\src\misc\lv_area.h ****  * Get the width of an area
 120:c:\projects\paindrain\arduinolcd\test\pain drain\libraries\lvgl\src\misc\lv_area.h ****  * @param area_p pointer to an area
 121:c:\projects\paindrain\arduinolcd\test\pain drain\libraries\lvgl\src\misc\lv_area.h ****  * @return the width of the area (if x1 == x2 -> width = 1)
 122:c:\projects\paindrain\arduinolcd\test\pain drain\libraries\lvgl\src\misc\lv_area.h ****  */
 123:c:\projects\paindrain\arduinolcd\test\pain drain\libraries\lvgl\src\misc\lv_area.h **** static inline lv_coord_t lv_area_get_width(const lv_area_t * area_p)
 124:c:\projects\paindrain\arduinolcd\test\pain drain\libraries\lvgl\src\misc\lv_area.h **** {
 125:c:\projects\paindrain\arduinolcd\test\pain drain\libraries\lvgl\src\misc\lv_area.h ****     return (lv_coord_t)(area_p->x2 - area_p->x1 + 1);
 1865              		.loc 2 125 0
 1866 00cc 591A     		subs	r1, r3, r1
 1867 00ce 0131     		adds	r1, r1, #1
 1868 00d0 09B2     		sxth	r1, r1
 1869              	.LVL142:
 1870              	.LBE31:
 1871              	.LBE30:
 101:..\..\..\arduinoLCD\test\Pain Drain\libraries\lvgl\src\draw\sw/lv_draw_sw_arc.c ****         lv_draw_mask_radius_init(&mask_in_param, &area_in, LV_RADIUS_CIRCLE, true);
 1872              		.loc 1 101 0
 1873 00d2 0029     		cmp	r1, #0
 1874 00d4 13DD     		ble	.L68
 1875              	.LVL143:
 1876              	.LBB32:
 1877              	.LBB33:
 126:c:\projects\paindrain\arduinolcd\test\pain drain\libraries\lvgl\src\misc\lv_area.h **** }
 127:c:\projects\paindrain\arduinolcd\test\pain drain\libraries\lvgl\src\misc\lv_area.h **** 
 128:c:\projects\paindrain\arduinolcd\test\pain drain\libraries\lvgl\src\misc\lv_area.h **** /**
 129:c:\projects\paindrain\arduinolcd\test\pain drain\libraries\lvgl\src\misc\lv_area.h ****  * Get the height of an area
 130:c:\projects\paindrain\arduinolcd\test\pain drain\libraries\lvgl\src\misc\lv_area.h ****  * @param area_p pointer to an area
ARM GAS  C:\Users\haske\AppData\Local\Temp\ccinSyc3.s 			page 46


 131:c:\projects\paindrain\arduinolcd\test\pain drain\libraries\lvgl\src\misc\lv_area.h ****  * @return the height of the area (if y1 == y2 -> height = 1)
 132:c:\projects\paindrain\arduinolcd\test\pain drain\libraries\lvgl\src\misc\lv_area.h ****  */
 133:c:\projects\paindrain\arduinolcd\test\pain drain\libraries\lvgl\src\misc\lv_area.h **** static inline lv_coord_t lv_area_get_height(const lv_area_t * area_p)
 134:c:\projects\paindrain\arduinolcd\test\pain drain\libraries\lvgl\src\misc\lv_area.h **** {
 135:c:\projects\paindrain\arduinolcd\test\pain drain\libraries\lvgl\src\misc\lv_area.h ****     return (lv_coord_t)(area_p->y2 - area_p->y1 + 1);
 1878              		.loc 2 135 0
 1879 00d6 6346     		mov	r3, ip
 1880 00d8 D71A     		subs	r7, r2, r3
 1881 00da 0137     		adds	r7, r7, #1
 1882 00dc 3FB2     		sxth	r7, r7
 1883              	.LVL144:
 1884              	.LBE33:
 1885              	.LBE32:
 101:..\..\..\arduinoLCD\test\Pain Drain\libraries\lvgl\src\draw\sw/lv_draw_sw_arc.c ****         lv_draw_mask_radius_init(&mask_in_param, &area_in, LV_RADIUS_CIRCLE, true);
 1886              		.loc 1 101 0
 1887 00de 002F     		cmp	r7, #0
 1888 00e0 12DD     		ble	.L69
 102:..\..\..\arduinoLCD\test\Pain Drain\libraries\lvgl\src\draw\sw/lv_draw_sw_arc.c ****         mask_in_param_valid = true;
 1889              		.loc 1 102 0
 1890 00e2 0123     		movs	r3, #1
 1891 00e4 A14A     		ldr	r2, .L71
 1892 00e6 0100     		movs	r1, r0
 1893 00e8 36A8     		add	r0, sp, #216
 1894 00ea FFF7FEFF 		bl	lv_draw_mask_radius_init
 1895              	.LVL145:
 104:..\..\..\arduinoLCD\test\Pain Drain\libraries\lvgl\src\draw\sw/lv_draw_sw_arc.c ****     }
 1896              		.loc 1 104 0
 1897 00ee 0021     		movs	r1, #0
 1898 00f0 36A8     		add	r0, sp, #216
 1899 00f2 FFF7FEFF 		bl	lv_draw_mask_add
 1900              	.LVL146:
 1901 00f6 0590     		str	r0, [sp, #20]
 1902              	.LVL147:
 103:..\..\..\arduinoLCD\test\Pain Drain\libraries\lvgl\src\draw\sw/lv_draw_sw_arc.c ****         mask_in_id = lv_draw_mask_add(&mask_in_param, NULL);
 1903              		.loc 1 103 0
 1904 00f8 0123     		movs	r3, #1
 1905 00fa 9946     		mov	r9, r3
 1906 00fc 08E0     		b	.L51
 1907              	.LVL148:
 1908              	.L68:
 100:..\..\..\arduinoLCD\test\Pain Drain\libraries\lvgl\src\draw\sw/lv_draw_sw_arc.c ****     if(lv_area_get_width(&area_in) > 0 && lv_area_get_height(&area_in) > 0) {
 1909              		.loc 1 100 0
 1910 00fe 0023     		movs	r3, #0
 1911 0100 9946     		mov	r9, r3
  98:..\..\..\arduinoLCD\test\Pain Drain\libraries\lvgl\src\draw\sw/lv_draw_sw_arc.c ****     lv_draw_mask_radius_param_t mask_in_param;
 1912              		.loc 1 98 0
 1913 0102 013B     		subs	r3, r3, #1
 1914 0104 0593     		str	r3, [sp, #20]
 1915 0106 03E0     		b	.L51
 1916              	.L69:
 100:..\..\..\arduinoLCD\test\Pain Drain\libraries\lvgl\src\draw\sw/lv_draw_sw_arc.c ****     if(lv_area_get_width(&area_in) > 0 && lv_area_get_height(&area_in) > 0) {
 1917              		.loc 1 100 0
 1918 0108 0023     		movs	r3, #0
 1919 010a 9946     		mov	r9, r3
  98:..\..\..\arduinoLCD\test\Pain Drain\libraries\lvgl\src\draw\sw/lv_draw_sw_arc.c ****     lv_draw_mask_radius_param_t mask_in_param;
 1920              		.loc 1 98 0
 1921 010c 013B     		subs	r3, r3, #1
ARM GAS  C:\Users\haske\AppData\Local\Temp\ccinSyc3.s 			page 47


 1922 010e 0593     		str	r3, [sp, #20]
 1923              	.LVL149:
 1924              	.L51:
 108:..\..\..\arduinoLCD\test\Pain Drain\libraries\lvgl\src\draw\sw/lv_draw_sw_arc.c ****     int16_t mask_out_id = lv_draw_mask_add(&mask_out_param, NULL);
 1925              		.loc 1 108 0
 1926 0110 0023     		movs	r3, #0
 1927 0112 964A     		ldr	r2, .L71
 1928 0114 3EA9     		add	r1, sp, #248
 1929 0116 30A8     		add	r0, sp, #192
 1930 0118 FFF7FEFF 		bl	lv_draw_mask_radius_init
 1931              	.LVL150:
 109:..\..\..\arduinoLCD\test\Pain Drain\libraries\lvgl\src\draw\sw/lv_draw_sw_arc.c **** 
 1932              		.loc 1 109 0
 1933 011c 0021     		movs	r1, #0
 1934 011e 30A8     		add	r0, sp, #192
 1935 0120 FFF7FEFF 		bl	lv_draw_mask_add
 1936              	.LVL151:
 1937 0124 0690     		str	r0, [sp, #24]
 1938              	.LVL152:
 112:..\..\..\arduinoLCD\test\Pain Drain\libraries\lvgl\src\draw\sw/lv_draw_sw_arc.c ****         cir_dsc.radius = LV_RADIUS_CIRCLE;
 1939              		.loc 1 112 0
 1940 0126 2300     		movs	r3, r4
 1941 0128 6933     		adds	r3, r3, #105
 1942 012a FF33     		adds	r3, r3, #255
 1943 012c AB42     		cmp	r3, r5
 1944 012e 04D0     		beq	.L52
 112:..\..\..\arduinoLCD\test\Pain Drain\libraries\lvgl\src\draw\sw/lv_draw_sw_arc.c ****         cir_dsc.radius = LV_RADIUS_CIRCLE;
 1945              		.loc 1 112 0 is_stmt 0 discriminator 1
 1946 0130 2B00     		movs	r3, r5
 1947 0132 6933     		adds	r3, r3, #105
 1948 0134 FF33     		adds	r3, r3, #255
 1949 0136 9C42     		cmp	r4, r3
 1950 0138 1DD1     		bne	.L53
 1951              	.L52:
 113:..\..\..\arduinoLCD\test\Pain Drain\libraries\lvgl\src\draw\sw/lv_draw_sw_arc.c ****         lv_draw_rect(draw_ctx, &cir_dsc, &area_out);
 1952              		.loc 1 113 0 is_stmt 1
 1953 013a 40A9     		add	r1, sp, #256
 1954 013c 8B4B     		ldr	r3, .L71
 1955 013e 0B80     		strh	r3, [r1]
 114:..\..\..\arduinoLCD\test\Pain Drain\libraries\lvgl\src\draw\sw/lv_draw_sw_arc.c **** 
 1956              		.loc 1 114 0
 1957 0140 3EAA     		add	r2, sp, #248
 1958 0142 0498     		ldr	r0, [sp, #16]
 1959 0144 FFF7FEFF 		bl	lv_draw_rect
 1960              	.LVL153:
 116:..\..\..\arduinoLCD\test\Pain Drain\libraries\lvgl\src\draw\sw/lv_draw_sw_arc.c ****         if(mask_in_id != LV_MASK_ID_INV) lv_draw_mask_remove_id(mask_in_id);
 1961              		.loc 1 116 0
 1962 0148 0698     		ldr	r0, [sp, #24]
 1963 014a FFF7FEFF 		bl	lv_draw_mask_remove_id
 1964              	.LVL154:
 117:..\..\..\arduinoLCD\test\Pain Drain\libraries\lvgl\src\draw\sw/lv_draw_sw_arc.c **** 
 1965              		.loc 1 117 0
 1966 014e 059B     		ldr	r3, [sp, #20]
 1967 0150 5A1C     		adds	r2, r3, #1
 1968 0152 02D0     		beq	.L54
 117:..\..\..\arduinoLCD\test\Pain Drain\libraries\lvgl\src\draw\sw/lv_draw_sw_arc.c **** 
 1969              		.loc 1 117 0 is_stmt 0 discriminator 1
ARM GAS  C:\Users\haske\AppData\Local\Temp\ccinSyc3.s 			page 48


 1970 0154 1800     		movs	r0, r3
 1971 0156 FFF7FEFF 		bl	lv_draw_mask_remove_id
 1972              	.LVL155:
 1973              	.L54:
 119:..\..\..\arduinoLCD\test\Pain Drain\libraries\lvgl\src\draw\sw/lv_draw_sw_arc.c ****         if(mask_in_param_valid) {
 1974              		.loc 1 119 0 is_stmt 1
 1975 015a 30A8     		add	r0, sp, #192
 1976 015c FFF7FEFF 		bl	lv_draw_mask_free_param
 1977              	.LVL156:
 120:..\..\..\arduinoLCD\test\Pain Drain\libraries\lvgl\src\draw\sw/lv_draw_sw_arc.c ****             lv_draw_mask_free_param(&mask_in_param);
 1978              		.loc 1 120 0
 1979 0160 4B46     		mov	r3, r9
 1980 0162 002B     		cmp	r3, #0
 1981 0164 00D1     		bne	.LCB1791
 1982 0166 FAE0     		b	.L46	@long jump
 1983              	.LCB1791:
 121:..\..\..\arduinoLCD\test\Pain Drain\libraries\lvgl\src\draw\sw/lv_draw_sw_arc.c ****         }
 1984              		.loc 1 121 0
 1985 0168 36A8     		add	r0, sp, #216
 1986 016a FFF7FEFF 		bl	lv_draw_mask_free_param
 1987              	.LVL157:
 1988 016e F6E0     		b	.L46
 1989              	.LVL158:
 1990              	.L55:
 127:..\..\..\arduinoLCD\test\Pain Drain\libraries\lvgl\src\draw\sw/lv_draw_sw_arc.c ****     while(end_angle >= 360) end_angle -= 360;
 1991              		.loc 1 127 0 discriminator 2
 1992 0170 693C     		subs	r4, r4, #105
 1993              	.LVL159:
 1994 0172 FF3C     		subs	r4, r4, #255
 1995 0174 A4B2     		uxth	r4, r4
 1996              	.LVL160:
 1997              	.L53:
 127:..\..\..\arduinoLCD\test\Pain Drain\libraries\lvgl\src\draw\sw/lv_draw_sw_arc.c ****     while(end_angle >= 360) end_angle -= 360;
 1998              		.loc 1 127 0 is_stmt 0 discriminator 1
 1999 0176 6823     		movs	r3, #104
 2000 0178 FF33     		adds	r3, r3, #255
 2001 017a 9C42     		cmp	r4, r3
 2002 017c F8D8     		bhi	.L55
 2003 017e 02E0     		b	.L56
 2004              	.LVL161:
 2005              	.L57:
 128:..\..\..\arduinoLCD\test\Pain Drain\libraries\lvgl\src\draw\sw/lv_draw_sw_arc.c **** 
 2006              		.loc 1 128 0 is_stmt 1 discriminator 2
 2007 0180 693D     		subs	r5, r5, #105
 2008              	.LVL162:
 2009 0182 FF3D     		subs	r5, r5, #255
 2010 0184 ADB2     		uxth	r5, r5
 2011              	.LVL163:
 2012              	.L56:
 128:..\..\..\arduinoLCD\test\Pain Drain\libraries\lvgl\src\draw\sw/lv_draw_sw_arc.c **** 
 2013              		.loc 1 128 0 is_stmt 0 discriminator 1
 2014 0186 6823     		movs	r3, #104
 2015 0188 FF33     		adds	r3, r3, #255
 2016 018a 9D42     		cmp	r5, r3
 2017 018c F8D8     		bhi	.L57
 131:..\..\..\arduinoLCD\test\Pain Drain\libraries\lvgl\src\draw\sw/lv_draw_sw_arc.c ****     int16_t mask_angle_id = lv_draw_mask_add(&mask_angle_param, NULL);
 2018              		.loc 1 131 0 is_stmt 1
ARM GAS  C:\Users\haske\AppData\Local\Temp\ccinSyc3.s 			page 49


 2019 018e 23B2     		sxth	r3, r4
 2020 0190 0993     		str	r3, [sp, #36]
 2021 0192 2AB2     		sxth	r2, r5
 2022 0194 9346     		mov	fp, r2
 2023 0196 0399     		ldr	r1, [sp, #12]
 2024 0198 0220     		movs	r0, #2
 2025 019a 0A5E     		ldrsh	r2, [r1, r0]
 2026 019c 0020     		movs	r0, #0
 2027 019e 095E     		ldrsh	r1, [r1, r0]
 2028 01a0 5846     		mov	r0, fp
 2029 01a2 0090     		str	r0, [sp]
 2030 01a4 15A8     		add	r0, sp, #84
 2031 01a6 FFF7FEFF 		bl	lv_draw_mask_angle_init
 2032              	.LVL164:
 132:..\..\..\arduinoLCD\test\Pain Drain\libraries\lvgl\src\draw\sw/lv_draw_sw_arc.c **** 
 2033              		.loc 1 132 0
 2034 01aa 0021     		movs	r1, #0
 2035 01ac 15A8     		add	r0, sp, #84
 2036 01ae FFF7FEFF 		bl	lv_draw_mask_add
 2037              	.LVL165:
 2038 01b2 0890     		str	r0, [sp, #32]
 2039              	.LVL166:
 135:..\..\..\arduinoLCD\test\Pain Drain\libraries\lvgl\src\draw\sw/lv_draw_sw_arc.c ****         angle_gap = 360 - (end_angle - start_angle);
 2040              		.loc 1 135 0
 2041 01b4 AC42     		cmp	r4, r5
 2042 01b6 04D2     		bcs	.L58
 136:..\..\..\arduinoLCD\test\Pain Drain\libraries\lvgl\src\draw\sw/lv_draw_sw_arc.c ****     }
 2043              		.loc 1 136 0
 2044 01b8 2A1B     		subs	r2, r5, r4
 2045 01ba B423     		movs	r3, #180
 2046 01bc 5B00     		lsls	r3, r3, #1
 2047 01be 9B1A     		subs	r3, r3, r2
 2048              	.LVL167:
 2049 01c0 00E0     		b	.L59
 2050              	.LVL168:
 2051              	.L58:
 139:..\..\..\arduinoLCD\test\Pain Drain\libraries\lvgl\src\draw\sw/lv_draw_sw_arc.c ****     }
 2052              		.loc 1 139 0
 2053 01c2 631B     		subs	r3, r4, r5
 2054              	.LVL169:
 2055              	.L59:
 142:..\..\..\arduinoLCD\test\Pain Drain\libraries\lvgl\src\draw\sw/lv_draw_sw_arc.c **** 
 2056              		.loc 1 142 0
 2057 01c4 049A     		ldr	r2, [sp, #16]
 2058 01c6 9268     		ldr	r2, [r2, #8]
 2059 01c8 0792     		str	r2, [sp, #28]
 2060              	.LVL170:
 144:..\..\..\arduinoLCD\test\Pain Drain\libraries\lvgl\src\draw\sw/lv_draw_sw_arc.c ****         /*Handle each quarter individually and skip which is empty*/
 2061              		.loc 1 144 0
 2062 01ca 3C2B     		cmp	r3, #60
 2063 01cc 2BDD     		ble	.L60
 144:..\..\..\arduinoLCD\test\Pain Drain\libraries\lvgl\src\draw\sw/lv_draw_sw_arc.c ****         /*Handle each quarter individually and skip which is empty*/
 2064              		.loc 1 144 0 is_stmt 0 discriminator 1
 2065 01ce 4346     		mov	r3, r8
 2066              	.LVL171:
 2067 01d0 0A2B     		cmp	r3, #10
 2068 01d2 28D9     		bls	.L60
ARM GAS  C:\Users\haske\AppData\Local\Temp\ccinSyc3.s 			page 50


 2069              	.LBB34:
 147:..\..\..\arduinoLCD\test\Pain Drain\libraries\lvgl\src\draw\sw/lv_draw_sw_arc.c ****         q_dsc.radius = radius;
 2070              		.loc 1 147 0 is_stmt 1
 2071 01d4 0EAF     		add	r7, sp, #56
 2072 01d6 039B     		ldr	r3, [sp, #12]
 2073 01d8 0E93     		str	r3, [sp, #56]
 148:..\..\..\arduinoLCD\test\Pain Drain\libraries\lvgl\src\draw\sw/lv_draw_sw_arc.c ****         q_dsc.start_angle = start_angle;
 2074              		.loc 1 148 0
 2075 01da 4346     		mov	r3, r8
 2076 01dc BB80     		strh	r3, [r7, #4]
 149:..\..\..\arduinoLCD\test\Pain Drain\libraries\lvgl\src\draw\sw/lv_draw_sw_arc.c ****         q_dsc.end_angle = end_angle;
 2077              		.loc 1 149 0
 2078 01de FC80     		strh	r4, [r7, #6]
 150:..\..\..\arduinoLCD\test\Pain Drain\libraries\lvgl\src\draw\sw/lv_draw_sw_arc.c ****         q_dsc.start_quarter = (start_angle / 90) & 0x3;
 2079              		.loc 1 150 0
 2080 01e0 3D81     		strh	r5, [r7, #8]
 151:..\..\..\arduinoLCD\test\Pain Drain\libraries\lvgl\src\draw\sw/lv_draw_sw_arc.c ****         q_dsc.end_quarter = (end_angle / 90) & 0x3;
 2081              		.loc 1 151 0
 2082 01e2 5A21     		movs	r1, #90
 2083 01e4 2000     		movs	r0, r4
 2084 01e6 FFF7FEFF 		bl	__aeabi_uidiv
 2085              	.LVL172:
 2086 01ea 0324     		movs	r4, #3
 2087              	.LVL173:
 2088 01ec 2040     		ands	r0, r4
 2089 01ee 7881     		strh	r0, [r7, #10]
 152:..\..\..\arduinoLCD\test\Pain Drain\libraries\lvgl\src\draw\sw/lv_draw_sw_arc.c ****         q_dsc.width = width;
 2090              		.loc 1 152 0
 2091 01f0 5A21     		movs	r1, #90
 2092 01f2 2800     		movs	r0, r5
 2093 01f4 FFF7FEFF 		bl	__aeabi_uidiv
 2094              	.LVL174:
 2095 01f8 0440     		ands	r4, r0
 2096 01fa BC81     		strh	r4, [r7, #12]
 153:..\..\..\arduinoLCD\test\Pain Drain\libraries\lvgl\src\draw\sw/lv_draw_sw_arc.c ****         q_dsc.draw_dsc = &cir_dsc;
 2097              		.loc 1 153 0
 2098 01fc 5346     		mov	r3, r10
 2099 01fe FB81     		strh	r3, [r7, #14]
 154:..\..\..\arduinoLCD\test\Pain Drain\libraries\lvgl\src\draw\sw/lv_draw_sw_arc.c ****         q_dsc.draw_area = &area_out;
 2100              		.loc 1 154 0
 2101 0200 40AB     		add	r3, sp, #256
 2102 0202 3B61     		str	r3, [r7, #16]
 155:..\..\..\arduinoLCD\test\Pain Drain\libraries\lvgl\src\draw\sw/lv_draw_sw_arc.c ****         q_dsc.draw_ctx = draw_ctx;
 2103              		.loc 1 155 0
 2104 0204 3EAB     		add	r3, sp, #248
 2105 0206 7B61     		str	r3, [r7, #20]
 156:..\..\..\arduinoLCD\test\Pain Drain\libraries\lvgl\src\draw\sw/lv_draw_sw_arc.c **** 
 2106              		.loc 1 156 0
 2107 0208 049B     		ldr	r3, [sp, #16]
 2108 020a BB61     		str	r3, [r7, #24]
 158:..\..\..\arduinoLCD\test\Pain Drain\libraries\lvgl\src\draw\sw/lv_draw_sw_arc.c ****         draw_quarter_1(&q_dsc);
 2109              		.loc 1 158 0
 2110 020c 0EA8     		add	r0, sp, #56
 2111 020e FFF7FEFF 		bl	draw_quarter_0
 2112              	.LVL175:
 159:..\..\..\arduinoLCD\test\Pain Drain\libraries\lvgl\src\draw\sw/lv_draw_sw_arc.c ****         draw_quarter_2(&q_dsc);
 2113              		.loc 1 159 0
ARM GAS  C:\Users\haske\AppData\Local\Temp\ccinSyc3.s 			page 51


 2114 0212 0EA8     		add	r0, sp, #56
 2115 0214 FFF7FEFF 		bl	draw_quarter_1
 2116              	.LVL176:
 160:..\..\..\arduinoLCD\test\Pain Drain\libraries\lvgl\src\draw\sw/lv_draw_sw_arc.c ****         draw_quarter_3(&q_dsc);
 2117              		.loc 1 160 0
 2118 0218 0EA8     		add	r0, sp, #56
 2119 021a FFF7FEFF 		bl	draw_quarter_2
 2120              	.LVL177:
 161:..\..\..\arduinoLCD\test\Pain Drain\libraries\lvgl\src\draw\sw/lv_draw_sw_arc.c ****     }
 2121              		.loc 1 161 0
 2122 021e 0EA8     		add	r0, sp, #56
 2123 0220 FFF7FEFF 		bl	draw_quarter_3
 2124              	.LVL178:
 2125              	.LBE34:
 144:..\..\..\arduinoLCD\test\Pain Drain\libraries\lvgl\src\draw\sw/lv_draw_sw_arc.c ****         /*Handle each quarter individually and skip which is empty*/
 2126              		.loc 1 144 0
 2127 0224 04E0     		b	.L61
 2128              	.LVL179:
 2129              	.L60:
 164:..\..\..\arduinoLCD\test\Pain Drain\libraries\lvgl\src\draw\sw/lv_draw_sw_arc.c ****     }
 2130              		.loc 1 164 0
 2131 0226 3EAA     		add	r2, sp, #248
 2132              	.LVL180:
 2133 0228 40A9     		add	r1, sp, #256
 2134 022a 0498     		ldr	r0, [sp, #16]
 2135 022c FFF7FEFF 		bl	lv_draw_rect
 2136              	.LVL181:
 2137              	.L61:
 167:..\..\..\arduinoLCD\test\Pain Drain\libraries\lvgl\src\draw\sw/lv_draw_sw_arc.c ****     lv_draw_mask_free_param(&mask_out_param);
 2138              		.loc 1 167 0
 2139 0230 15A8     		add	r0, sp, #84
 2140 0232 FFF7FEFF 		bl	lv_draw_mask_free_param
 2141              	.LVL182:
 168:..\..\..\arduinoLCD\test\Pain Drain\libraries\lvgl\src\draw\sw/lv_draw_sw_arc.c ****     if(mask_in_param_valid) {
 2142              		.loc 1 168 0
 2143 0236 30A8     		add	r0, sp, #192
 2144 0238 FFF7FEFF 		bl	lv_draw_mask_free_param
 2145              	.LVL183:
 169:..\..\..\arduinoLCD\test\Pain Drain\libraries\lvgl\src\draw\sw/lv_draw_sw_arc.c ****         lv_draw_mask_free_param(&mask_in_param);
 2146              		.loc 1 169 0
 2147 023c 4B46     		mov	r3, r9
 2148 023e 002B     		cmp	r3, #0
 2149 0240 02D0     		beq	.L62
 170:..\..\..\arduinoLCD\test\Pain Drain\libraries\lvgl\src\draw\sw/lv_draw_sw_arc.c ****     }
 2150              		.loc 1 170 0
 2151 0242 36A8     		add	r0, sp, #216
 2152 0244 FFF7FEFF 		bl	lv_draw_mask_free_param
 2153              	.LVL184:
 2154              	.L62:
 173:..\..\..\arduinoLCD\test\Pain Drain\libraries\lvgl\src\draw\sw/lv_draw_sw_arc.c ****     lv_draw_mask_remove_id(mask_out_id);
 2155              		.loc 1 173 0
 2156 0248 0898     		ldr	r0, [sp, #32]
 2157 024a FFF7FEFF 		bl	lv_draw_mask_remove_id
 2158              	.LVL185:
 174:..\..\..\arduinoLCD\test\Pain Drain\libraries\lvgl\src\draw\sw/lv_draw_sw_arc.c ****     if(mask_in_id != LV_MASK_ID_INV) lv_draw_mask_remove_id(mask_in_id);
 2159              		.loc 1 174 0
 2160 024e 0698     		ldr	r0, [sp, #24]
ARM GAS  C:\Users\haske\AppData\Local\Temp\ccinSyc3.s 			page 52


 2161 0250 FFF7FEFF 		bl	lv_draw_mask_remove_id
 2162              	.LVL186:
 175:..\..\..\arduinoLCD\test\Pain Drain\libraries\lvgl\src\draw\sw/lv_draw_sw_arc.c **** 
 2163              		.loc 1 175 0
 2164 0254 059B     		ldr	r3, [sp, #20]
 2165 0256 5A1C     		adds	r2, r3, #1
 2166 0258 02D0     		beq	.L63
 175:..\..\..\arduinoLCD\test\Pain Drain\libraries\lvgl\src\draw\sw/lv_draw_sw_arc.c **** 
 2167              		.loc 1 175 0 is_stmt 0 discriminator 1
 2168 025a 1800     		movs	r0, r3
 2169 025c FFF7FEFF 		bl	lv_draw_mask_remove_id
 2170              	.LVL187:
 2171              	.L63:
 177:..\..\..\arduinoLCD\test\Pain Drain\libraries\lvgl\src\draw\sw/lv_draw_sw_arc.c **** 
 2172              		.loc 1 177 0 is_stmt 1
 2173 0260 737B     		ldrb	r3, [r6, #13]
 2174 0262 5B07     		lsls	r3, r3, #29
 2175 0264 00D4     		bmi	.LCB1975
 2176 0266 7AE0     		b	.L46	@long jump
 2177              	.LCB1975:
 2178              	.LBB35:
 182:..\..\..\arduinoLCD\test\Pain Drain\libraries\lvgl\src\draw\sw/lv_draw_sw_arc.c ****         round_area.x1 += center->x;
 2179              		.loc 1 182 0
 2180 0268 4346     		mov	r3, r8
 2181 026a 1DB2     		sxth	r5, r3
 2182              	.LVL188:
 2183 026c 5346     		mov	r3, r10
 2184 026e 6A46     		mov	r2, sp
 2185 0270 1375     		strb	r3, [r2, #20]
 2186              	.LVL189:
 2187 0272 147D     		ldrb	r4, [r2, #20]
 2188 0274 0AAB     		add	r3, sp, #40
 2189 0276 2200     		movs	r2, r4
 2190 0278 2900     		movs	r1, r5
 2191 027a 0998     		ldr	r0, [sp, #36]
 2192 027c FFF7FEFF 		bl	get_rounded_area
 2193              	.LVL190:
 183:..\..\..\arduinoLCD\test\Pain Drain\libraries\lvgl\src\draw\sw/lv_draw_sw_arc.c ****         round_area.x2 += center->x;
 2194              		.loc 1 183 0
 2195 0280 039E     		ldr	r6, [sp, #12]
 2196              	.LVL191:
 2197 0282 3300     		movs	r3, r6
 2198 0284 0020     		movs	r0, #0
 2199 0286 185E     		ldrsh	r0, [r3, r0]
 2200 0288 0AAB     		add	r3, sp, #40
 2201 028a 1988     		ldrh	r1, [r3]
 2202 028c 0918     		adds	r1, r1, r0
 2203 028e 1980     		strh	r1, [r3]
 184:..\..\..\arduinoLCD\test\Pain Drain\libraries\lvgl\src\draw\sw/lv_draw_sw_arc.c ****         round_area.y1 += center->y;
 2204              		.loc 1 184 0
 2205 0290 9A88     		ldrh	r2, [r3, #4]
 2206 0292 8218     		adds	r2, r0, r2
 2207 0294 9A80     		strh	r2, [r3, #4]
 185:..\..\..\arduinoLCD\test\Pain Drain\libraries\lvgl\src\draw\sw/lv_draw_sw_arc.c ****         round_area.y2 += center->y;
 2208              		.loc 1 185 0
 2209 0296 3200     		movs	r2, r6
 2210 0298 0220     		movs	r0, #2
ARM GAS  C:\Users\haske\AppData\Local\Temp\ccinSyc3.s 			page 53


 2211 029a 105E     		ldrsh	r0, [r2, r0]
 2212 029c 5988     		ldrh	r1, [r3, #2]
 2213 029e 0918     		adds	r1, r1, r0
 2214 02a0 5980     		strh	r1, [r3, #2]
 186:..\..\..\arduinoLCD\test\Pain Drain\libraries\lvgl\src\draw\sw/lv_draw_sw_arc.c ****         lv_area_t clip_area2;
 2215              		.loc 1 186 0
 2216 02a2 DA88     		ldrh	r2, [r3, #6]
 2217 02a4 8218     		adds	r2, r0, r2
 2218 02a6 DA80     		strh	r2, [r3, #6]
 188:..\..\..\arduinoLCD\test\Pain Drain\libraries\lvgl\src\draw\sw/lv_draw_sw_arc.c ****             lv_draw_mask_radius_init(&mask_end_param, &round_area, LV_RADIUS_CIRCLE, false);
 2219              		.loc 1 188 0
 2220 02a8 1A00     		movs	r2, r3
 2221 02aa 0799     		ldr	r1, [sp, #28]
 2222 02ac 0CA8     		add	r0, sp, #48
 2223 02ae FFF7FEFF 		bl	_lv_area_intersect
 2224              	.LVL192:
 2225 02b2 0028     		cmp	r0, #0
 2226 02b4 17D0     		beq	.L65
 2227              	.LBB36:
 189:..\..\..\arduinoLCD\test\Pain Drain\libraries\lvgl\src\draw\sw/lv_draw_sw_arc.c ****             int16_t mask_end_id = lv_draw_mask_add(&mask_end_param, NULL);
 2228              		.loc 1 189 0
 2229 02b6 0023     		movs	r3, #0
 2230 02b8 2C4A     		ldr	r2, .L71
 2231 02ba 0AA9     		add	r1, sp, #40
 2232 02bc 0EA8     		add	r0, sp, #56
 2233 02be FFF7FEFF 		bl	lv_draw_mask_radius_init
 2234              	.LVL193:
 190:..\..\..\arduinoLCD\test\Pain Drain\libraries\lvgl\src\draw\sw/lv_draw_sw_arc.c **** 
 2235              		.loc 1 190 0
 2236 02c2 0021     		movs	r1, #0
 2237 02c4 0EA8     		add	r0, sp, #56
 2238 02c6 FFF7FEFF 		bl	lv_draw_mask_add
 2239              	.LVL194:
 2240 02ca 0600     		movs	r6, r0
 2241              	.LVL195:
 192:..\..\..\arduinoLCD\test\Pain Drain\libraries\lvgl\src\draw\sw/lv_draw_sw_arc.c ****             lv_draw_rect(draw_ctx, &cir_dsc, &area_out);
 2242              		.loc 1 192 0
 2243 02cc 0CAB     		add	r3, sp, #48
 2244 02ce 0498     		ldr	r0, [sp, #16]
 2245 02d0 8360     		str	r3, [r0, #8]
 193:..\..\..\arduinoLCD\test\Pain Drain\libraries\lvgl\src\draw\sw/lv_draw_sw_arc.c ****             lv_draw_mask_remove_id(mask_end_id);
 2246              		.loc 1 193 0
 2247 02d2 3EAA     		add	r2, sp, #248
 2248 02d4 40A9     		add	r1, sp, #256
 2249 02d6 FFF7FEFF 		bl	lv_draw_rect
 2250              	.LVL196:
 194:..\..\..\arduinoLCD\test\Pain Drain\libraries\lvgl\src\draw\sw/lv_draw_sw_arc.c ****             lv_draw_mask_free_param(&mask_end_param);
 2251              		.loc 1 194 0
 2252 02da 3000     		movs	r0, r6
 2253 02dc FFF7FEFF 		bl	lv_draw_mask_remove_id
 2254              	.LVL197:
 195:..\..\..\arduinoLCD\test\Pain Drain\libraries\lvgl\src\draw\sw/lv_draw_sw_arc.c ****         }
 2255              		.loc 1 195 0
 2256 02e0 0EA8     		add	r0, sp, #56
 2257 02e2 FFF7FEFF 		bl	lv_draw_mask_free_param
 2258              	.LVL198:
 2259              	.L65:
ARM GAS  C:\Users\haske\AppData\Local\Temp\ccinSyc3.s 			page 54


 2260              	.LBE36:
 198:..\..\..\arduinoLCD\test\Pain Drain\libraries\lvgl\src\draw\sw/lv_draw_sw_arc.c ****         round_area.x1 += center->x;
 2261              		.loc 1 198 0
 2262 02e6 0AAB     		add	r3, sp, #40
 2263 02e8 2200     		movs	r2, r4
 2264 02ea 2900     		movs	r1, r5
 2265 02ec 5846     		mov	r0, fp
 2266 02ee FFF7FEFF 		bl	get_rounded_area
 2267              	.LVL199:
 199:..\..\..\arduinoLCD\test\Pain Drain\libraries\lvgl\src\draw\sw/lv_draw_sw_arc.c ****         round_area.x2 += center->x;
 2268              		.loc 1 199 0
 2269 02f2 039C     		ldr	r4, [sp, #12]
 2270 02f4 2300     		movs	r3, r4
 2271 02f6 0020     		movs	r0, #0
 2272 02f8 185E     		ldrsh	r0, [r3, r0]
 2273 02fa 0AAB     		add	r3, sp, #40
 2274 02fc 1988     		ldrh	r1, [r3]
 2275 02fe 0918     		adds	r1, r1, r0
 2276 0300 1980     		strh	r1, [r3]
 200:..\..\..\arduinoLCD\test\Pain Drain\libraries\lvgl\src\draw\sw/lv_draw_sw_arc.c ****         round_area.y1 += center->y;
 2277              		.loc 1 200 0
 2278 0302 9A88     		ldrh	r2, [r3, #4]
 2279 0304 8218     		adds	r2, r0, r2
 2280 0306 9A80     		strh	r2, [r3, #4]
 201:..\..\..\arduinoLCD\test\Pain Drain\libraries\lvgl\src\draw\sw/lv_draw_sw_arc.c ****         round_area.y2 += center->y;
 2281              		.loc 1 201 0
 2282 0308 2200     		movs	r2, r4
 2283 030a 0220     		movs	r0, #2
 2284 030c 105E     		ldrsh	r0, [r2, r0]
 2285 030e 5988     		ldrh	r1, [r3, #2]
 2286 0310 0918     		adds	r1, r1, r0
 2287 0312 5980     		strh	r1, [r3, #2]
 202:..\..\..\arduinoLCD\test\Pain Drain\libraries\lvgl\src\draw\sw/lv_draw_sw_arc.c ****         if(_lv_area_intersect(&clip_area2, clip_area_ori, &round_area)) {
 2288              		.loc 1 202 0
 2289 0314 DA88     		ldrh	r2, [r3, #6]
 2290 0316 8218     		adds	r2, r0, r2
 2291 0318 DA80     		strh	r2, [r3, #6]
 203:..\..\..\arduinoLCD\test\Pain Drain\libraries\lvgl\src\draw\sw/lv_draw_sw_arc.c ****             lv_draw_mask_radius_init(&mask_end_param, &round_area, LV_RADIUS_CIRCLE, false);
 2292              		.loc 1 203 0
 2293 031a 1A00     		movs	r2, r3
 2294 031c 0799     		ldr	r1, [sp, #28]
 2295 031e 0CA8     		add	r0, sp, #48
 2296 0320 FFF7FEFF 		bl	_lv_area_intersect
 2297              	.LVL200:
 2298 0324 0028     		cmp	r0, #0
 2299 0326 17D0     		beq	.L66
 2300              	.LBB37:
 204:..\..\..\arduinoLCD\test\Pain Drain\libraries\lvgl\src\draw\sw/lv_draw_sw_arc.c ****             int16_t mask_end_id = lv_draw_mask_add(&mask_end_param, NULL);
 2301              		.loc 1 204 0
 2302 0328 0023     		movs	r3, #0
 2303 032a 104A     		ldr	r2, .L71
 2304 032c 0AA9     		add	r1, sp, #40
 2305 032e 0EA8     		add	r0, sp, #56
 2306 0330 FFF7FEFF 		bl	lv_draw_mask_radius_init
 2307              	.LVL201:
 205:..\..\..\arduinoLCD\test\Pain Drain\libraries\lvgl\src\draw\sw/lv_draw_sw_arc.c **** 
 2308              		.loc 1 205 0
ARM GAS  C:\Users\haske\AppData\Local\Temp\ccinSyc3.s 			page 55


 2309 0334 0021     		movs	r1, #0
 2310 0336 0EA8     		add	r0, sp, #56
 2311 0338 FFF7FEFF 		bl	lv_draw_mask_add
 2312              	.LVL202:
 2313 033c 0400     		movs	r4, r0
 2314              	.LVL203:
 207:..\..\..\arduinoLCD\test\Pain Drain\libraries\lvgl\src\draw\sw/lv_draw_sw_arc.c ****             lv_draw_rect(draw_ctx, &cir_dsc, &area_out);
 2315              		.loc 1 207 0
 2316 033e 0CAB     		add	r3, sp, #48
 2317 0340 0498     		ldr	r0, [sp, #16]
 2318 0342 8360     		str	r3, [r0, #8]
 208:..\..\..\arduinoLCD\test\Pain Drain\libraries\lvgl\src\draw\sw/lv_draw_sw_arc.c ****             lv_draw_mask_remove_id(mask_end_id);
 2319              		.loc 1 208 0
 2320 0344 3EAA     		add	r2, sp, #248
 2321 0346 40A9     		add	r1, sp, #256
 2322 0348 FFF7FEFF 		bl	lv_draw_rect
 2323              	.LVL204:
 209:..\..\..\arduinoLCD\test\Pain Drain\libraries\lvgl\src\draw\sw/lv_draw_sw_arc.c ****             lv_draw_mask_free_param(&mask_end_param);
 2324              		.loc 1 209 0
 2325 034c 2000     		movs	r0, r4
 2326 034e FFF7FEFF 		bl	lv_draw_mask_remove_id
 2327              	.LVL205:
 210:..\..\..\arduinoLCD\test\Pain Drain\libraries\lvgl\src\draw\sw/lv_draw_sw_arc.c ****         }
 2328              		.loc 1 210 0
 2329 0352 0EA8     		add	r0, sp, #56
 2330 0354 FFF7FEFF 		bl	lv_draw_mask_free_param
 2331              	.LVL206:
 2332              	.L66:
 2333              	.LBE37:
 212:..\..\..\arduinoLCD\test\Pain Drain\libraries\lvgl\src\draw\sw/lv_draw_sw_arc.c ****     }
 2334              		.loc 1 212 0
 2335 0358 049B     		ldr	r3, [sp, #16]
 2336 035a 079A     		ldr	r2, [sp, #28]
 2337 035c 9A60     		str	r2, [r3, #8]
 2338              	.LVL207:
 2339              	.L46:
 2340              	.LBE35:
 223:..\..\..\arduinoLCD\test\Pain Drain\libraries\lvgl\src\draw\sw/lv_draw_sw_arc.c **** 
 2341              		.loc 1 223 0
 2342 035e 4FB0     		add	sp, sp, #316
 2343              		@ sp needed
 2344 0360 3CBC     		pop	{r2, r3, r4, r5}
 2345 0362 9046     		mov	r8, r2
 2346 0364 9946     		mov	r9, r3
 2347 0366 A246     		mov	r10, r4
 2348 0368 AB46     		mov	fp, r5
 2349 036a F0BD     		pop	{r4, r5, r6, r7, pc}
 2350              	.L72:
 2351              		.align	2
 2352              	.L71:
 2353 036c FF7F0000 		.word	32767
 2354              		.cfi_endproc
 2355              	.LFE56:
 2356              		.size	lv_draw_sw_arc, .-lv_draw_sw_arc
 2357              		.text
 2358              	.Letext0:
 2359              		.file 3 "c:\\program files (x86)\\cypress\\psoc creator\\4.4\\psoc creator\\import\\gnu\\arm\\5.4.
ARM GAS  C:\Users\haske\AppData\Local\Temp\ccinSyc3.s 			page 56


 2360              		.file 4 "c:\\program files (x86)\\cypress\\psoc creator\\4.4\\psoc creator\\import\\gnu\\arm\\5.4.
 2361              		.file 5 "c:\\projects\\paindrain\\arduinolcd\\test\\pain drain\\libraries\\lvgl\\src\\misc\\lv_typ
 2362              		.file 6 "c:\\program files (x86)\\cypress\\psoc creator\\4.4\\psoc creator\\import\\gnu\\arm\\5.4.
 2363              		.file 7 "c:\\projects\\paindrain\\arduinolcd\\test\\pain drain\\libraries\\lvgl\\src\\misc\\lv_col
 2364              		.file 8 "c:\\projects\\paindrain\\arduinolcd\\test\\pain drain\\libraries\\lvgl\\src\\font\\lv_fon
 2365              		.file 9 "c:\\projects\\paindrain\\arduinolcd\\test\\pain drain\\libraries\\lvgl\\src\\misc\\lv_txt
 2366              		.file 10 "c:\\projects\\paindrain\\arduinolcd\\test\\pain drain\\libraries\\lvgl\\src\\misc\\lv_bi
 2367              		.file 11 "c:\\projects\\paindrain\\arduinolcd\\test\\pain drain\\libraries\\lvgl\\src\\misc\\lv_st
 2368              		.file 12 "..\\..\\..\\arduinoLCD\\test\\Pain Drain\\libraries\\lvgl\\src\\draw\\sw\\../lv_draw_mas
 2369              		.file 13 "..\\..\\..\\arduinoLCD\\test\\Pain Drain\\libraries\\lvgl\\src\\draw\\sw\\../lv_img_buf.
 2370              		.file 14 "..\\..\\..\\arduinoLCD\\test\\Pain Drain\\libraries\\lvgl\\src\\draw\\sw\\../lv_draw_rec
 2371              		.file 15 "..\\..\\..\\arduinoLCD\\test\\Pain Drain\\libraries\\lvgl\\src\\draw\\sw\\../lv_draw_lab
 2372              		.file 16 "..\\..\\..\\arduinoLCD\\test\\Pain Drain\\libraries\\lvgl\\src\\draw\\sw\\../lv_draw_img
 2373              		.file 17 "..\\..\\..\\arduinoLCD\\test\\Pain Drain\\libraries\\lvgl\\src\\draw\\sw\\../lv_draw_lin
 2374              		.file 18 "..\\..\\..\\arduinoLCD\\test\\Pain Drain\\libraries\\lvgl\\src\\draw\\sw\\../lv_draw_arc
 2375              		.file 19 "..\\..\\..\\arduinoLCD\\test\\Pain Drain\\libraries\\lvgl\\src\\draw\\sw\\../lv_draw_lay
 2376              		.file 20 "..\\..\\..\\arduinoLCD\\test\\Pain Drain\\libraries\\lvgl\\src\\draw\\sw\\../lv_draw.h"
 2377              		.file 21 "c:\\projects\\paindrain\\arduinolcd\\test\\pain drain\\libraries\\lvgl\\src\\misc\\lv_ma