ARM GAS  C:\Users\haske\AppData\Local\Temp\ccC3L1zV.s 			page 1


   1              		.syntax unified
   2              		.cpu cortex-m0plus
   3              		.fpu softvfp
   4              		.eabi_attribute 20, 1
   5              		.eabi_attribute 21, 1
   6              		.eabi_attribute 23, 3
   7              		.eabi_attribute 24, 1
   8              		.eabi_attribute 25, 1
   9              		.eabi_attribute 26, 1
  10              		.eabi_attribute 30, 1
  11              		.eabi_attribute 34, 0
  12              		.eabi_attribute 18, 4
  13              		.thumb
  14              		.syntax unified
  15              		.file	"lv_draw_sw.c"
  16              		.text
  17              	.Ltext0:
  18              		.cfi_sections	.debug_frame
  19              		.section	.text.lv_draw_sw_wait_for_finish,"ax",%progbits
  20              		.align	2
  21              		.global	lv_draw_sw_wait_for_finish
  22              		.code	16
  23              		.thumb_func
  24              		.type	lv_draw_sw_wait_for_finish, %function
  25              	lv_draw_sw_wait_for_finish:
  26              	.LFB58:
  27              		.file 1 "..\\..\\..\\arduinoLCD\\test\\Pain Drain\\libraries\\lvgl\\src\\draw\\sw\\lv_draw_sw.c"
   1:..\..\..\arduinoLCD\test\Pain Drain\libraries\lvgl\src\draw\sw/lv_draw_sw.c **** /**
   2:..\..\..\arduinoLCD\test\Pain Drain\libraries\lvgl\src\draw\sw/lv_draw_sw.c ****  * @file lv_draw_sw.c
   3:..\..\..\arduinoLCD\test\Pain Drain\libraries\lvgl\src\draw\sw/lv_draw_sw.c ****  *
   4:..\..\..\arduinoLCD\test\Pain Drain\libraries\lvgl\src\draw\sw/lv_draw_sw.c ****  */
   5:..\..\..\arduinoLCD\test\Pain Drain\libraries\lvgl\src\draw\sw/lv_draw_sw.c **** 
   6:..\..\..\arduinoLCD\test\Pain Drain\libraries\lvgl\src\draw\sw/lv_draw_sw.c **** /*********************
   7:..\..\..\arduinoLCD\test\Pain Drain\libraries\lvgl\src\draw\sw/lv_draw_sw.c ****  *      INCLUDES
   8:..\..\..\arduinoLCD\test\Pain Drain\libraries\lvgl\src\draw\sw/lv_draw_sw.c ****  *********************/
   9:..\..\..\arduinoLCD\test\Pain Drain\libraries\lvgl\src\draw\sw/lv_draw_sw.c **** #include "../lv_draw.h"
  10:..\..\..\arduinoLCD\test\Pain Drain\libraries\lvgl\src\draw\sw/lv_draw_sw.c **** #include "lv_draw_sw.h"
  11:..\..\..\arduinoLCD\test\Pain Drain\libraries\lvgl\src\draw\sw/lv_draw_sw.c **** 
  12:..\..\..\arduinoLCD\test\Pain Drain\libraries\lvgl\src\draw\sw/lv_draw_sw.c **** /*********************
  13:..\..\..\arduinoLCD\test\Pain Drain\libraries\lvgl\src\draw\sw/lv_draw_sw.c ****  *      DEFINES
  14:..\..\..\arduinoLCD\test\Pain Drain\libraries\lvgl\src\draw\sw/lv_draw_sw.c ****  *********************/
  15:..\..\..\arduinoLCD\test\Pain Drain\libraries\lvgl\src\draw\sw/lv_draw_sw.c **** 
  16:..\..\..\arduinoLCD\test\Pain Drain\libraries\lvgl\src\draw\sw/lv_draw_sw.c **** /**********************
  17:..\..\..\arduinoLCD\test\Pain Drain\libraries\lvgl\src\draw\sw/lv_draw_sw.c ****  *      TYPEDEFS
  18:..\..\..\arduinoLCD\test\Pain Drain\libraries\lvgl\src\draw\sw/lv_draw_sw.c ****  **********************/
  19:..\..\..\arduinoLCD\test\Pain Drain\libraries\lvgl\src\draw\sw/lv_draw_sw.c **** 
  20:..\..\..\arduinoLCD\test\Pain Drain\libraries\lvgl\src\draw\sw/lv_draw_sw.c **** /**********************
  21:..\..\..\arduinoLCD\test\Pain Drain\libraries\lvgl\src\draw\sw/lv_draw_sw.c ****  *  STATIC PROTOTYPES
  22:..\..\..\arduinoLCD\test\Pain Drain\libraries\lvgl\src\draw\sw/lv_draw_sw.c ****  **********************/
  23:..\..\..\arduinoLCD\test\Pain Drain\libraries\lvgl\src\draw\sw/lv_draw_sw.c **** 
  24:..\..\..\arduinoLCD\test\Pain Drain\libraries\lvgl\src\draw\sw/lv_draw_sw.c **** /**********************
  25:..\..\..\arduinoLCD\test\Pain Drain\libraries\lvgl\src\draw\sw/lv_draw_sw.c ****  *  GLOBAL PROTOTYPES
  26:..\..\..\arduinoLCD\test\Pain Drain\libraries\lvgl\src\draw\sw/lv_draw_sw.c ****  **********************/
  27:..\..\..\arduinoLCD\test\Pain Drain\libraries\lvgl\src\draw\sw/lv_draw_sw.c **** 
  28:..\..\..\arduinoLCD\test\Pain Drain\libraries\lvgl\src\draw\sw/lv_draw_sw.c **** /**********************
  29:..\..\..\arduinoLCD\test\Pain Drain\libraries\lvgl\src\draw\sw/lv_draw_sw.c ****  *  STATIC VARIABLES
  30:..\..\..\arduinoLCD\test\Pain Drain\libraries\lvgl\src\draw\sw/lv_draw_sw.c ****  **********************/
ARM GAS  C:\Users\haske\AppData\Local\Temp\ccC3L1zV.s 			page 2


  31:..\..\..\arduinoLCD\test\Pain Drain\libraries\lvgl\src\draw\sw/lv_draw_sw.c **** 
  32:..\..\..\arduinoLCD\test\Pain Drain\libraries\lvgl\src\draw\sw/lv_draw_sw.c **** /**********************
  33:..\..\..\arduinoLCD\test\Pain Drain\libraries\lvgl\src\draw\sw/lv_draw_sw.c ****  *      MACROS
  34:..\..\..\arduinoLCD\test\Pain Drain\libraries\lvgl\src\draw\sw/lv_draw_sw.c ****  **********************/
  35:..\..\..\arduinoLCD\test\Pain Drain\libraries\lvgl\src\draw\sw/lv_draw_sw.c **** 
  36:..\..\..\arduinoLCD\test\Pain Drain\libraries\lvgl\src\draw\sw/lv_draw_sw.c **** /**********************
  37:..\..\..\arduinoLCD\test\Pain Drain\libraries\lvgl\src\draw\sw/lv_draw_sw.c ****  *   GLOBAL FUNCTIONS
  38:..\..\..\arduinoLCD\test\Pain Drain\libraries\lvgl\src\draw\sw/lv_draw_sw.c ****  **********************/
  39:..\..\..\arduinoLCD\test\Pain Drain\libraries\lvgl\src\draw\sw/lv_draw_sw.c **** 
  40:..\..\..\arduinoLCD\test\Pain Drain\libraries\lvgl\src\draw\sw/lv_draw_sw.c **** void lv_draw_sw_init_ctx(lv_disp_drv_t * drv, lv_draw_ctx_t * draw_ctx)
  41:..\..\..\arduinoLCD\test\Pain Drain\libraries\lvgl\src\draw\sw/lv_draw_sw.c **** {
  42:..\..\..\arduinoLCD\test\Pain Drain\libraries\lvgl\src\draw\sw/lv_draw_sw.c ****     LV_UNUSED(drv);
  43:..\..\..\arduinoLCD\test\Pain Drain\libraries\lvgl\src\draw\sw/lv_draw_sw.c **** 
  44:..\..\..\arduinoLCD\test\Pain Drain\libraries\lvgl\src\draw\sw/lv_draw_sw.c ****     lv_draw_sw_ctx_t * draw_sw_ctx = (lv_draw_sw_ctx_t *) draw_ctx;
  45:..\..\..\arduinoLCD\test\Pain Drain\libraries\lvgl\src\draw\sw/lv_draw_sw.c ****     lv_memset_00(draw_sw_ctx, sizeof(lv_draw_sw_ctx_t));
  46:..\..\..\arduinoLCD\test\Pain Drain\libraries\lvgl\src\draw\sw/lv_draw_sw.c **** 
  47:..\..\..\arduinoLCD\test\Pain Drain\libraries\lvgl\src\draw\sw/lv_draw_sw.c ****     draw_sw_ctx->base_draw.draw_arc = lv_draw_sw_arc;
  48:..\..\..\arduinoLCD\test\Pain Drain\libraries\lvgl\src\draw\sw/lv_draw_sw.c ****     draw_sw_ctx->base_draw.draw_rect = lv_draw_sw_rect;
  49:..\..\..\arduinoLCD\test\Pain Drain\libraries\lvgl\src\draw\sw/lv_draw_sw.c ****     draw_sw_ctx->base_draw.draw_bg = lv_draw_sw_bg;
  50:..\..\..\arduinoLCD\test\Pain Drain\libraries\lvgl\src\draw\sw/lv_draw_sw.c ****     draw_sw_ctx->base_draw.draw_letter = lv_draw_sw_letter;
  51:..\..\..\arduinoLCD\test\Pain Drain\libraries\lvgl\src\draw\sw/lv_draw_sw.c ****     draw_sw_ctx->base_draw.draw_img_decoded = lv_draw_sw_img_decoded;
  52:..\..\..\arduinoLCD\test\Pain Drain\libraries\lvgl\src\draw\sw/lv_draw_sw.c ****     draw_sw_ctx->base_draw.draw_line = lv_draw_sw_line;
  53:..\..\..\arduinoLCD\test\Pain Drain\libraries\lvgl\src\draw\sw/lv_draw_sw.c ****     draw_sw_ctx->base_draw.draw_polygon = lv_draw_sw_polygon;
  54:..\..\..\arduinoLCD\test\Pain Drain\libraries\lvgl\src\draw\sw/lv_draw_sw.c **** #if LV_DRAW_COMPLEX
  55:..\..\..\arduinoLCD\test\Pain Drain\libraries\lvgl\src\draw\sw/lv_draw_sw.c ****     draw_sw_ctx->base_draw.draw_transform = lv_draw_sw_transform;
  56:..\..\..\arduinoLCD\test\Pain Drain\libraries\lvgl\src\draw\sw/lv_draw_sw.c **** #endif
  57:..\..\..\arduinoLCD\test\Pain Drain\libraries\lvgl\src\draw\sw/lv_draw_sw.c ****     draw_sw_ctx->base_draw.wait_for_finish = lv_draw_sw_wait_for_finish;
  58:..\..\..\arduinoLCD\test\Pain Drain\libraries\lvgl\src\draw\sw/lv_draw_sw.c ****     draw_sw_ctx->base_draw.buffer_copy = lv_draw_sw_buffer_copy;
  59:..\..\..\arduinoLCD\test\Pain Drain\libraries\lvgl\src\draw\sw/lv_draw_sw.c ****     draw_sw_ctx->base_draw.layer_init = lv_draw_sw_layer_create;
  60:..\..\..\arduinoLCD\test\Pain Drain\libraries\lvgl\src\draw\sw/lv_draw_sw.c ****     draw_sw_ctx->base_draw.layer_adjust = lv_draw_sw_layer_adjust;
  61:..\..\..\arduinoLCD\test\Pain Drain\libraries\lvgl\src\draw\sw/lv_draw_sw.c ****     draw_sw_ctx->base_draw.layer_blend = lv_draw_sw_layer_blend;
  62:..\..\..\arduinoLCD\test\Pain Drain\libraries\lvgl\src\draw\sw/lv_draw_sw.c ****     draw_sw_ctx->base_draw.layer_destroy = lv_draw_sw_layer_destroy;
  63:..\..\..\arduinoLCD\test\Pain Drain\libraries\lvgl\src\draw\sw/lv_draw_sw.c ****     draw_sw_ctx->blend = lv_draw_sw_blend_basic;
  64:..\..\..\arduinoLCD\test\Pain Drain\libraries\lvgl\src\draw\sw/lv_draw_sw.c ****     draw_ctx->layer_instance_size = sizeof(lv_draw_sw_layer_ctx_t);
  65:..\..\..\arduinoLCD\test\Pain Drain\libraries\lvgl\src\draw\sw/lv_draw_sw.c **** }
  66:..\..\..\arduinoLCD\test\Pain Drain\libraries\lvgl\src\draw\sw/lv_draw_sw.c **** 
  67:..\..\..\arduinoLCD\test\Pain Drain\libraries\lvgl\src\draw\sw/lv_draw_sw.c **** void lv_draw_sw_deinit_ctx(lv_disp_drv_t * drv, lv_draw_ctx_t * draw_ctx)
  68:..\..\..\arduinoLCD\test\Pain Drain\libraries\lvgl\src\draw\sw/lv_draw_sw.c **** {
  69:..\..\..\arduinoLCD\test\Pain Drain\libraries\lvgl\src\draw\sw/lv_draw_sw.c ****     LV_UNUSED(drv);
  70:..\..\..\arduinoLCD\test\Pain Drain\libraries\lvgl\src\draw\sw/lv_draw_sw.c **** 
  71:..\..\..\arduinoLCD\test\Pain Drain\libraries\lvgl\src\draw\sw/lv_draw_sw.c ****     lv_draw_sw_ctx_t * draw_sw_ctx = (lv_draw_sw_ctx_t *) draw_ctx;
  72:..\..\..\arduinoLCD\test\Pain Drain\libraries\lvgl\src\draw\sw/lv_draw_sw.c ****     lv_memset_00(draw_sw_ctx, sizeof(lv_draw_sw_ctx_t));
  73:..\..\..\arduinoLCD\test\Pain Drain\libraries\lvgl\src\draw\sw/lv_draw_sw.c **** }
  74:..\..\..\arduinoLCD\test\Pain Drain\libraries\lvgl\src\draw\sw/lv_draw_sw.c **** 
  75:..\..\..\arduinoLCD\test\Pain Drain\libraries\lvgl\src\draw\sw/lv_draw_sw.c **** void lv_draw_sw_wait_for_finish(lv_draw_ctx_t * draw_ctx)
  76:..\..\..\arduinoLCD\test\Pain Drain\libraries\lvgl\src\draw\sw/lv_draw_sw.c **** {
  28              		.loc 1 76 0
  29              		.cfi_startproc
  30              		@ args = 0, pretend = 0, frame = 0
  31              		@ frame_needed = 0, uses_anonymous_args = 0
  32              		@ link register save eliminated.
  33              	.LVL0:
  77:..\..\..\arduinoLCD\test\Pain Drain\libraries\lvgl\src\draw\sw/lv_draw_sw.c ****     LV_UNUSED(draw_ctx);
  78:..\..\..\arduinoLCD\test\Pain Drain\libraries\lvgl\src\draw\sw/lv_draw_sw.c ****     /*Nothing to wait for*/
  79:..\..\..\arduinoLCD\test\Pain Drain\libraries\lvgl\src\draw\sw/lv_draw_sw.c **** }
  34              		.loc 1 79 0
  35              		@ sp needed
ARM GAS  C:\Users\haske\AppData\Local\Temp\ccC3L1zV.s 			page 3


  36 0000 7047     		bx	lr
  37              		.cfi_endproc
  38              	.LFE58:
  39              		.size	lv_draw_sw_wait_for_finish, .-lv_draw_sw_wait_for_finish
  40 0002 C046     		.section	.text.lv_draw_sw_buffer_copy,"ax",%progbits
  41              		.align	2
  42              		.global	lv_draw_sw_buffer_copy
  43              		.code	16
  44              		.thumb_func
  45              		.type	lv_draw_sw_buffer_copy, %function
  46              	lv_draw_sw_buffer_copy:
  47              	.LFB59:
  80:..\..\..\arduinoLCD\test\Pain Drain\libraries\lvgl\src\draw\sw/lv_draw_sw.c **** 
  81:..\..\..\arduinoLCD\test\Pain Drain\libraries\lvgl\src\draw\sw/lv_draw_sw.c **** void lv_draw_sw_buffer_copy(lv_draw_ctx_t * draw_ctx,
  82:..\..\..\arduinoLCD\test\Pain Drain\libraries\lvgl\src\draw\sw/lv_draw_sw.c ****                             void * dest_buf, lv_coord_t dest_stride, const lv_area_t * dest_area,
  83:..\..\..\arduinoLCD\test\Pain Drain\libraries\lvgl\src\draw\sw/lv_draw_sw.c ****                             void * src_buf, lv_coord_t src_stride, const lv_area_t * src_area)
  84:..\..\..\arduinoLCD\test\Pain Drain\libraries\lvgl\src\draw\sw/lv_draw_sw.c **** {
  48              		.loc 1 84 0
  49              		.cfi_startproc
  50              		@ args = 12, pretend = 0, frame = 0
  51              		@ frame_needed = 0, uses_anonymous_args = 0
  52              	.LVL1:
  53 0000 F0B5     		push	{r4, r5, r6, r7, lr}
  54              		.cfi_def_cfa_offset 20
  55              		.cfi_offset 4, -20
  56              		.cfi_offset 5, -16
  57              		.cfi_offset 6, -12
  58              		.cfi_offset 7, -8
  59              		.cfi_offset 14, -4
  60 0002 5746     		mov	r7, r10
  61 0004 4E46     		mov	r6, r9
  62 0006 4546     		mov	r5, r8
  63 0008 E0B4     		push	{r5, r6, r7}
  64              		.cfi_def_cfa_offset 32
  65              		.cfi_offset 8, -32
  66              		.cfi_offset 9, -28
  67              		.cfi_offset 10, -24
  68 000a 9246     		mov	r10, r2
  69 000c 9846     		mov	r8, r3
  70 000e 08AB     		add	r3, sp, #32
  71              	.LVL2:
  72 0010 04CB     		ldmia	r3!, {r2}
  73              	.LVL3:
  74 0012 0020     		movs	r0, #0
  75 0014 1B5E     		ldrsh	r3, [r3, r0]
  76              	.LVL4:
  77 0016 9946     		mov	r9, r3
  78 0018 0A9B     		ldr	r3, [sp, #40]
  79              	.LVL5:
  85:..\..\..\arduinoLCD\test\Pain Drain\libraries\lvgl\src\draw\sw/lv_draw_sw.c ****     LV_UNUSED(draw_ctx);
  86:..\..\..\arduinoLCD\test\Pain Drain\libraries\lvgl\src\draw\sw/lv_draw_sw.c **** 
  87:..\..\..\arduinoLCD\test\Pain Drain\libraries\lvgl\src\draw\sw/lv_draw_sw.c ****     lv_color_t * dest_bufc =  dest_buf;
  88:..\..\..\arduinoLCD\test\Pain Drain\libraries\lvgl\src\draw\sw/lv_draw_sw.c ****     lv_color_t * src_bufc =  src_buf;
  89:..\..\..\arduinoLCD\test\Pain Drain\libraries\lvgl\src\draw\sw/lv_draw_sw.c **** 
  90:..\..\..\arduinoLCD\test\Pain Drain\libraries\lvgl\src\draw\sw/lv_draw_sw.c ****     /*Got the first pixel of each buffer*/
  91:..\..\..\arduinoLCD\test\Pain Drain\libraries\lvgl\src\draw\sw/lv_draw_sw.c ****     dest_bufc += dest_stride * dest_area->y1;
  80              		.loc 1 91 0
ARM GAS  C:\Users\haske\AppData\Local\Temp\ccC3L1zV.s 			page 4


  81 001a 4046     		mov	r0, r8
  82 001c 0224     		movs	r4, #2
  83 001e 045F     		ldrsh	r4, [r0, r4]
  84 0020 5646     		mov	r6, r10
  85 0022 6643     		muls	r6, r4
  86 0024 7600     		lsls	r6, r6, #1
  87              	.LVL6:
  92:..\..\..\arduinoLCD\test\Pain Drain\libraries\lvgl\src\draw\sw/lv_draw_sw.c ****     dest_bufc += dest_area->x1;
  88              		.loc 1 92 0
  89 0026 4046     		mov	r0, r8
  90 0028 0027     		movs	r7, #0
  91 002a C75F     		ldrsh	r7, [r0, r7]
  92 002c 7800     		lsls	r0, r7, #1
  93 002e 3618     		adds	r6, r6, r0
  94              	.LVL7:
  95 0030 8E19     		adds	r6, r1, r6
  96              	.LVL8:
  93:..\..\..\arduinoLCD\test\Pain Drain\libraries\lvgl\src\draw\sw/lv_draw_sw.c **** 
  94:..\..\..\arduinoLCD\test\Pain Drain\libraries\lvgl\src\draw\sw/lv_draw_sw.c ****     src_bufc += src_stride * src_area->y1;
  97              		.loc 1 94 0
  98 0032 0221     		movs	r1, #2
  99 0034 5D5E     		ldrsh	r5, [r3, r1]
 100              	.LVL9:
 101 0036 4946     		mov	r1, r9
 102 0038 4D43     		muls	r5, r1
 103 003a 6D00     		lsls	r5, r5, #1
 104              	.LVL10:
  95:..\..\..\arduinoLCD\test\Pain Drain\libraries\lvgl\src\draw\sw/lv_draw_sw.c ****     src_bufc += src_area->x1;
 105              		.loc 1 95 0
 106 003c 0021     		movs	r1, #0
 107 003e 5B5E     		ldrsh	r3, [r3, r1]
 108 0040 5B00     		lsls	r3, r3, #1
 109 0042 ED18     		adds	r5, r5, r3
 110              	.LVL11:
 111 0044 5519     		adds	r5, r2, r5
 112              	.LVL12:
 113              	.LBB4:
 114              	.LBB5:
 115              		.file 2 "c:\\projects\\paindrain\\arduinolcd\\test\\pain drain\\libraries\\lvgl\\src\\misc\\lv_are
   1:c:\projects\paindrain\arduinolcd\test\pain drain\libraries\lvgl\src\misc\lv_area.h **** /**
   2:c:\projects\paindrain\arduinolcd\test\pain drain\libraries\lvgl\src\misc\lv_area.h ****  * @file lv_area.h
   3:c:\projects\paindrain\arduinolcd\test\pain drain\libraries\lvgl\src\misc\lv_area.h ****  *
   4:c:\projects\paindrain\arduinolcd\test\pain drain\libraries\lvgl\src\misc\lv_area.h ****  */
   5:c:\projects\paindrain\arduinolcd\test\pain drain\libraries\lvgl\src\misc\lv_area.h **** 
   6:c:\projects\paindrain\arduinolcd\test\pain drain\libraries\lvgl\src\misc\lv_area.h **** #ifndef LV_AREA_H
   7:c:\projects\paindrain\arduinolcd\test\pain drain\libraries\lvgl\src\misc\lv_area.h **** #define LV_AREA_H
   8:c:\projects\paindrain\arduinolcd\test\pain drain\libraries\lvgl\src\misc\lv_area.h **** 
   9:c:\projects\paindrain\arduinolcd\test\pain drain\libraries\lvgl\src\misc\lv_area.h **** #ifdef __cplusplus
  10:c:\projects\paindrain\arduinolcd\test\pain drain\libraries\lvgl\src\misc\lv_area.h **** extern "C" {
  11:c:\projects\paindrain\arduinolcd\test\pain drain\libraries\lvgl\src\misc\lv_area.h **** #endif
  12:c:\projects\paindrain\arduinolcd\test\pain drain\libraries\lvgl\src\misc\lv_area.h **** 
  13:c:\projects\paindrain\arduinolcd\test\pain drain\libraries\lvgl\src\misc\lv_area.h **** /*********************
  14:c:\projects\paindrain\arduinolcd\test\pain drain\libraries\lvgl\src\misc\lv_area.h ****  *      INCLUDES
  15:c:\projects\paindrain\arduinolcd\test\pain drain\libraries\lvgl\src\misc\lv_area.h ****  *********************/
  16:c:\projects\paindrain\arduinolcd\test\pain drain\libraries\lvgl\src\misc\lv_area.h **** #include "../lv_conf_internal.h"
  17:c:\projects\paindrain\arduinolcd\test\pain drain\libraries\lvgl\src\misc\lv_area.h **** #include <stdbool.h>
  18:c:\projects\paindrain\arduinolcd\test\pain drain\libraries\lvgl\src\misc\lv_area.h **** #include <stdint.h>
ARM GAS  C:\Users\haske\AppData\Local\Temp\ccC3L1zV.s 			page 5


  19:c:\projects\paindrain\arduinolcd\test\pain drain\libraries\lvgl\src\misc\lv_area.h **** 
  20:c:\projects\paindrain\arduinolcd\test\pain drain\libraries\lvgl\src\misc\lv_area.h **** /*********************
  21:c:\projects\paindrain\arduinolcd\test\pain drain\libraries\lvgl\src\misc\lv_area.h ****  *      DEFINES
  22:c:\projects\paindrain\arduinolcd\test\pain drain\libraries\lvgl\src\misc\lv_area.h ****  *********************/
  23:c:\projects\paindrain\arduinolcd\test\pain drain\libraries\lvgl\src\misc\lv_area.h **** 
  24:c:\projects\paindrain\arduinolcd\test\pain drain\libraries\lvgl\src\misc\lv_area.h **** #if LV_USE_LARGE_COORD
  25:c:\projects\paindrain\arduinolcd\test\pain drain\libraries\lvgl\src\misc\lv_area.h **** typedef int32_t lv_coord_t;
  26:c:\projects\paindrain\arduinolcd\test\pain drain\libraries\lvgl\src\misc\lv_area.h **** #else
  27:c:\projects\paindrain\arduinolcd\test\pain drain\libraries\lvgl\src\misc\lv_area.h **** typedef int16_t lv_coord_t;
  28:c:\projects\paindrain\arduinolcd\test\pain drain\libraries\lvgl\src\misc\lv_area.h **** #endif
  29:c:\projects\paindrain\arduinolcd\test\pain drain\libraries\lvgl\src\misc\lv_area.h **** 
  30:c:\projects\paindrain\arduinolcd\test\pain drain\libraries\lvgl\src\misc\lv_area.h **** /**********************
  31:c:\projects\paindrain\arduinolcd\test\pain drain\libraries\lvgl\src\misc\lv_area.h ****  *      TYPEDEFS
  32:c:\projects\paindrain\arduinolcd\test\pain drain\libraries\lvgl\src\misc\lv_area.h ****  **********************/
  33:c:\projects\paindrain\arduinolcd\test\pain drain\libraries\lvgl\src\misc\lv_area.h **** 
  34:c:\projects\paindrain\arduinolcd\test\pain drain\libraries\lvgl\src\misc\lv_area.h **** /**
  35:c:\projects\paindrain\arduinolcd\test\pain drain\libraries\lvgl\src\misc\lv_area.h ****  * Represents a point on the screen.
  36:c:\projects\paindrain\arduinolcd\test\pain drain\libraries\lvgl\src\misc\lv_area.h ****  */
  37:c:\projects\paindrain\arduinolcd\test\pain drain\libraries\lvgl\src\misc\lv_area.h **** typedef struct {
  38:c:\projects\paindrain\arduinolcd\test\pain drain\libraries\lvgl\src\misc\lv_area.h ****     lv_coord_t x;
  39:c:\projects\paindrain\arduinolcd\test\pain drain\libraries\lvgl\src\misc\lv_area.h ****     lv_coord_t y;
  40:c:\projects\paindrain\arduinolcd\test\pain drain\libraries\lvgl\src\misc\lv_area.h **** } lv_point_t;
  41:c:\projects\paindrain\arduinolcd\test\pain drain\libraries\lvgl\src\misc\lv_area.h **** 
  42:c:\projects\paindrain\arduinolcd\test\pain drain\libraries\lvgl\src\misc\lv_area.h **** /** Represents an area of the screen.*/
  43:c:\projects\paindrain\arduinolcd\test\pain drain\libraries\lvgl\src\misc\lv_area.h **** typedef struct {
  44:c:\projects\paindrain\arduinolcd\test\pain drain\libraries\lvgl\src\misc\lv_area.h ****     lv_coord_t x1;
  45:c:\projects\paindrain\arduinolcd\test\pain drain\libraries\lvgl\src\misc\lv_area.h ****     lv_coord_t y1;
  46:c:\projects\paindrain\arduinolcd\test\pain drain\libraries\lvgl\src\misc\lv_area.h ****     lv_coord_t x2;
  47:c:\projects\paindrain\arduinolcd\test\pain drain\libraries\lvgl\src\misc\lv_area.h ****     lv_coord_t y2;
  48:c:\projects\paindrain\arduinolcd\test\pain drain\libraries\lvgl\src\misc\lv_area.h **** } lv_area_t;
  49:c:\projects\paindrain\arduinolcd\test\pain drain\libraries\lvgl\src\misc\lv_area.h **** 
  50:c:\projects\paindrain\arduinolcd\test\pain drain\libraries\lvgl\src\misc\lv_area.h **** /** Alignments*/
  51:c:\projects\paindrain\arduinolcd\test\pain drain\libraries\lvgl\src\misc\lv_area.h **** enum {
  52:c:\projects\paindrain\arduinolcd\test\pain drain\libraries\lvgl\src\misc\lv_area.h ****     LV_ALIGN_DEFAULT = 0,
  53:c:\projects\paindrain\arduinolcd\test\pain drain\libraries\lvgl\src\misc\lv_area.h ****     LV_ALIGN_TOP_LEFT,
  54:c:\projects\paindrain\arduinolcd\test\pain drain\libraries\lvgl\src\misc\lv_area.h ****     LV_ALIGN_TOP_MID,
  55:c:\projects\paindrain\arduinolcd\test\pain drain\libraries\lvgl\src\misc\lv_area.h ****     LV_ALIGN_TOP_RIGHT,
  56:c:\projects\paindrain\arduinolcd\test\pain drain\libraries\lvgl\src\misc\lv_area.h ****     LV_ALIGN_BOTTOM_LEFT,
  57:c:\projects\paindrain\arduinolcd\test\pain drain\libraries\lvgl\src\misc\lv_area.h ****     LV_ALIGN_BOTTOM_MID,
  58:c:\projects\paindrain\arduinolcd\test\pain drain\libraries\lvgl\src\misc\lv_area.h ****     LV_ALIGN_BOTTOM_RIGHT,
  59:c:\projects\paindrain\arduinolcd\test\pain drain\libraries\lvgl\src\misc\lv_area.h ****     LV_ALIGN_LEFT_MID,
  60:c:\projects\paindrain\arduinolcd\test\pain drain\libraries\lvgl\src\misc\lv_area.h ****     LV_ALIGN_RIGHT_MID,
  61:c:\projects\paindrain\arduinolcd\test\pain drain\libraries\lvgl\src\misc\lv_area.h ****     LV_ALIGN_CENTER,
  62:c:\projects\paindrain\arduinolcd\test\pain drain\libraries\lvgl\src\misc\lv_area.h **** 
  63:c:\projects\paindrain\arduinolcd\test\pain drain\libraries\lvgl\src\misc\lv_area.h ****     LV_ALIGN_OUT_TOP_LEFT,
  64:c:\projects\paindrain\arduinolcd\test\pain drain\libraries\lvgl\src\misc\lv_area.h ****     LV_ALIGN_OUT_TOP_MID,
  65:c:\projects\paindrain\arduinolcd\test\pain drain\libraries\lvgl\src\misc\lv_area.h ****     LV_ALIGN_OUT_TOP_RIGHT,
  66:c:\projects\paindrain\arduinolcd\test\pain drain\libraries\lvgl\src\misc\lv_area.h ****     LV_ALIGN_OUT_BOTTOM_LEFT,
  67:c:\projects\paindrain\arduinolcd\test\pain drain\libraries\lvgl\src\misc\lv_area.h ****     LV_ALIGN_OUT_BOTTOM_MID,
  68:c:\projects\paindrain\arduinolcd\test\pain drain\libraries\lvgl\src\misc\lv_area.h ****     LV_ALIGN_OUT_BOTTOM_RIGHT,
  69:c:\projects\paindrain\arduinolcd\test\pain drain\libraries\lvgl\src\misc\lv_area.h ****     LV_ALIGN_OUT_LEFT_TOP,
  70:c:\projects\paindrain\arduinolcd\test\pain drain\libraries\lvgl\src\misc\lv_area.h ****     LV_ALIGN_OUT_LEFT_MID,
  71:c:\projects\paindrain\arduinolcd\test\pain drain\libraries\lvgl\src\misc\lv_area.h ****     LV_ALIGN_OUT_LEFT_BOTTOM,
  72:c:\projects\paindrain\arduinolcd\test\pain drain\libraries\lvgl\src\misc\lv_area.h ****     LV_ALIGN_OUT_RIGHT_TOP,
  73:c:\projects\paindrain\arduinolcd\test\pain drain\libraries\lvgl\src\misc\lv_area.h ****     LV_ALIGN_OUT_RIGHT_MID,
  74:c:\projects\paindrain\arduinolcd\test\pain drain\libraries\lvgl\src\misc\lv_area.h ****     LV_ALIGN_OUT_RIGHT_BOTTOM,
  75:c:\projects\paindrain\arduinolcd\test\pain drain\libraries\lvgl\src\misc\lv_area.h **** };
ARM GAS  C:\Users\haske\AppData\Local\Temp\ccC3L1zV.s 			page 6


  76:c:\projects\paindrain\arduinolcd\test\pain drain\libraries\lvgl\src\misc\lv_area.h **** typedef uint8_t lv_align_t;
  77:c:\projects\paindrain\arduinolcd\test\pain drain\libraries\lvgl\src\misc\lv_area.h **** 
  78:c:\projects\paindrain\arduinolcd\test\pain drain\libraries\lvgl\src\misc\lv_area.h **** enum {
  79:c:\projects\paindrain\arduinolcd\test\pain drain\libraries\lvgl\src\misc\lv_area.h ****     LV_DIR_NONE     = 0x00,
  80:c:\projects\paindrain\arduinolcd\test\pain drain\libraries\lvgl\src\misc\lv_area.h ****     LV_DIR_LEFT     = (1 << 0),
  81:c:\projects\paindrain\arduinolcd\test\pain drain\libraries\lvgl\src\misc\lv_area.h ****     LV_DIR_RIGHT    = (1 << 1),
  82:c:\projects\paindrain\arduinolcd\test\pain drain\libraries\lvgl\src\misc\lv_area.h ****     LV_DIR_TOP      = (1 << 2),
  83:c:\projects\paindrain\arduinolcd\test\pain drain\libraries\lvgl\src\misc\lv_area.h ****     LV_DIR_BOTTOM   = (1 << 3),
  84:c:\projects\paindrain\arduinolcd\test\pain drain\libraries\lvgl\src\misc\lv_area.h ****     LV_DIR_HOR      = LV_DIR_LEFT | LV_DIR_RIGHT,
  85:c:\projects\paindrain\arduinolcd\test\pain drain\libraries\lvgl\src\misc\lv_area.h ****     LV_DIR_VER      = LV_DIR_TOP | LV_DIR_BOTTOM,
  86:c:\projects\paindrain\arduinolcd\test\pain drain\libraries\lvgl\src\misc\lv_area.h ****     LV_DIR_ALL      = LV_DIR_HOR | LV_DIR_VER,
  87:c:\projects\paindrain\arduinolcd\test\pain drain\libraries\lvgl\src\misc\lv_area.h **** };
  88:c:\projects\paindrain\arduinolcd\test\pain drain\libraries\lvgl\src\misc\lv_area.h **** 
  89:c:\projects\paindrain\arduinolcd\test\pain drain\libraries\lvgl\src\misc\lv_area.h **** typedef uint8_t lv_dir_t;
  90:c:\projects\paindrain\arduinolcd\test\pain drain\libraries\lvgl\src\misc\lv_area.h **** 
  91:c:\projects\paindrain\arduinolcd\test\pain drain\libraries\lvgl\src\misc\lv_area.h **** /**********************
  92:c:\projects\paindrain\arduinolcd\test\pain drain\libraries\lvgl\src\misc\lv_area.h ****  * GLOBAL PROTOTYPES
  93:c:\projects\paindrain\arduinolcd\test\pain drain\libraries\lvgl\src\misc\lv_area.h ****  **********************/
  94:c:\projects\paindrain\arduinolcd\test\pain drain\libraries\lvgl\src\misc\lv_area.h **** 
  95:c:\projects\paindrain\arduinolcd\test\pain drain\libraries\lvgl\src\misc\lv_area.h **** /**
  96:c:\projects\paindrain\arduinolcd\test\pain drain\libraries\lvgl\src\misc\lv_area.h ****  * Initialize an area
  97:c:\projects\paindrain\arduinolcd\test\pain drain\libraries\lvgl\src\misc\lv_area.h ****  * @param area_p pointer to an area
  98:c:\projects\paindrain\arduinolcd\test\pain drain\libraries\lvgl\src\misc\lv_area.h ****  * @param x1 left coordinate of the area
  99:c:\projects\paindrain\arduinolcd\test\pain drain\libraries\lvgl\src\misc\lv_area.h ****  * @param y1 top coordinate of the area
 100:c:\projects\paindrain\arduinolcd\test\pain drain\libraries\lvgl\src\misc\lv_area.h ****  * @param x2 right coordinate of the area
 101:c:\projects\paindrain\arduinolcd\test\pain drain\libraries\lvgl\src\misc\lv_area.h ****  * @param y2 bottom coordinate of the area
 102:c:\projects\paindrain\arduinolcd\test\pain drain\libraries\lvgl\src\misc\lv_area.h ****  */
 103:c:\projects\paindrain\arduinolcd\test\pain drain\libraries\lvgl\src\misc\lv_area.h **** void lv_area_set(lv_area_t * area_p, lv_coord_t x1, lv_coord_t y1, lv_coord_t x2, lv_coord_t y2);
 104:c:\projects\paindrain\arduinolcd\test\pain drain\libraries\lvgl\src\misc\lv_area.h **** 
 105:c:\projects\paindrain\arduinolcd\test\pain drain\libraries\lvgl\src\misc\lv_area.h **** /**
 106:c:\projects\paindrain\arduinolcd\test\pain drain\libraries\lvgl\src\misc\lv_area.h ****  * Copy an area
 107:c:\projects\paindrain\arduinolcd\test\pain drain\libraries\lvgl\src\misc\lv_area.h ****  * @param dest pointer to the destination area
 108:c:\projects\paindrain\arduinolcd\test\pain drain\libraries\lvgl\src\misc\lv_area.h ****  * @param src pointer to the source area
 109:c:\projects\paindrain\arduinolcd\test\pain drain\libraries\lvgl\src\misc\lv_area.h ****  */
 110:c:\projects\paindrain\arduinolcd\test\pain drain\libraries\lvgl\src\misc\lv_area.h **** inline static void lv_area_copy(lv_area_t * dest, const lv_area_t * src)
 111:c:\projects\paindrain\arduinolcd\test\pain drain\libraries\lvgl\src\misc\lv_area.h **** {
 112:c:\projects\paindrain\arduinolcd\test\pain drain\libraries\lvgl\src\misc\lv_area.h ****     dest->x1 = src->x1;
 113:c:\projects\paindrain\arduinolcd\test\pain drain\libraries\lvgl\src\misc\lv_area.h ****     dest->y1 = src->y1;
 114:c:\projects\paindrain\arduinolcd\test\pain drain\libraries\lvgl\src\misc\lv_area.h ****     dest->x2 = src->x2;
 115:c:\projects\paindrain\arduinolcd\test\pain drain\libraries\lvgl\src\misc\lv_area.h ****     dest->y2 = src->y2;
 116:c:\projects\paindrain\arduinolcd\test\pain drain\libraries\lvgl\src\misc\lv_area.h **** }
 117:c:\projects\paindrain\arduinolcd\test\pain drain\libraries\lvgl\src\misc\lv_area.h **** 
 118:c:\projects\paindrain\arduinolcd\test\pain drain\libraries\lvgl\src\misc\lv_area.h **** /**
 119:c:\projects\paindrain\arduinolcd\test\pain drain\libraries\lvgl\src\misc\lv_area.h ****  * Get the width of an area
 120:c:\projects\paindrain\arduinolcd\test\pain drain\libraries\lvgl\src\misc\lv_area.h ****  * @param area_p pointer to an area
 121:c:\projects\paindrain\arduinolcd\test\pain drain\libraries\lvgl\src\misc\lv_area.h ****  * @return the width of the area (if x1 == x2 -> width = 1)
 122:c:\projects\paindrain\arduinolcd\test\pain drain\libraries\lvgl\src\misc\lv_area.h ****  */
 123:c:\projects\paindrain\arduinolcd\test\pain drain\libraries\lvgl\src\misc\lv_area.h **** static inline lv_coord_t lv_area_get_width(const lv_area_t * area_p)
 124:c:\projects\paindrain\arduinolcd\test\pain drain\libraries\lvgl\src\misc\lv_area.h **** {
 125:c:\projects\paindrain\arduinolcd\test\pain drain\libraries\lvgl\src\misc\lv_area.h ****     return (lv_coord_t)(area_p->x2 - area_p->x1 + 1);
 116              		.loc 2 125 0
 117 0046 4346     		mov	r3, r8
 118 0048 0422     		movs	r2, #4
 119 004a 9B5E     		ldrsh	r3, [r3, r2]
 120 004c DF1B     		subs	r7, r3, r7
 121 004e 0137     		adds	r7, r7, #1
 122 0050 3FB2     		sxth	r7, r7
ARM GAS  C:\Users\haske\AppData\Local\Temp\ccC3L1zV.s 			page 7


 123              	.LVL13:
 124              	.LBE5:
 125              	.LBE4:
  96:..\..\..\arduinoLCD\test\Pain Drain\libraries\lvgl\src\draw\sw/lv_draw_sw.c **** 
  97:..\..\..\arduinoLCD\test\Pain Drain\libraries\lvgl\src\draw\sw/lv_draw_sw.c ****     uint32_t line_length = lv_area_get_width(dest_area) * sizeof(lv_color_t);
 126              		.loc 1 97 0
 127 0052 7F00     		lsls	r7, r7, #1
 128              	.LVL14:
  98:..\..\..\arduinoLCD\test\Pain Drain\libraries\lvgl\src\draw\sw/lv_draw_sw.c ****     lv_coord_t y;
  99:..\..\..\arduinoLCD\test\Pain Drain\libraries\lvgl\src\draw\sw/lv_draw_sw.c ****     for(y = dest_area->y1; y <= dest_area->y2; y++) {
 129              		.loc 1 99 0
 130 0054 0CE0     		b	.L3
 131              	.L4:
 100:..\..\..\arduinoLCD\test\Pain Drain\libraries\lvgl\src\draw\sw/lv_draw_sw.c ****         lv_memcpy(dest_bufc, src_bufc, line_length);
 132              		.loc 1 100 0 discriminator 3
 133 0056 3A00     		movs	r2, r7
 134 0058 2900     		movs	r1, r5
 135 005a 3000     		movs	r0, r6
 136 005c FFF7FEFF 		bl	lv_memcpy
 137              	.LVL15:
 101:..\..\..\arduinoLCD\test\Pain Drain\libraries\lvgl\src\draw\sw/lv_draw_sw.c ****         dest_bufc += dest_stride;
 138              		.loc 1 101 0 discriminator 3
 139 0060 5346     		mov	r3, r10
 140 0062 5B00     		lsls	r3, r3, #1
 141 0064 F618     		adds	r6, r6, r3
 142              	.LVL16:
 102:..\..\..\arduinoLCD\test\Pain Drain\libraries\lvgl\src\draw\sw/lv_draw_sw.c ****         src_bufc += src_stride;
 143              		.loc 1 102 0 discriminator 3
 144 0066 4B46     		mov	r3, r9
 145 0068 5B00     		lsls	r3, r3, #1
 146 006a ED18     		adds	r5, r5, r3
 147              	.LVL17:
  99:..\..\..\arduinoLCD\test\Pain Drain\libraries\lvgl\src\draw\sw/lv_draw_sw.c ****         lv_memcpy(dest_bufc, src_bufc, line_length);
 148              		.loc 1 99 0 discriminator 3
 149 006c 0134     		adds	r4, r4, #1
 150              	.LVL18:
 151 006e 24B2     		sxth	r4, r4
 152              	.LVL19:
 153              	.L3:
  99:..\..\..\arduinoLCD\test\Pain Drain\libraries\lvgl\src\draw\sw/lv_draw_sw.c ****         lv_memcpy(dest_bufc, src_bufc, line_length);
 154              		.loc 1 99 0 is_stmt 0 discriminator 1
 155 0070 4346     		mov	r3, r8
 156 0072 0622     		movs	r2, #6
 157 0074 9B5E     		ldrsh	r3, [r3, r2]
 158 0076 9C42     		cmp	r4, r3
 159 0078 EDDD     		ble	.L4
 103:..\..\..\arduinoLCD\test\Pain Drain\libraries\lvgl\src\draw\sw/lv_draw_sw.c ****     }
 104:..\..\..\arduinoLCD\test\Pain Drain\libraries\lvgl\src\draw\sw/lv_draw_sw.c **** }
 160              		.loc 1 104 0 is_stmt 1
 161              		@ sp needed
 162              	.LVL20:
 163              	.LVL21:
 164              	.LVL22:
 165              	.LVL23:
 166              	.LVL24:
 167 007a 1CBC     		pop	{r2, r3, r4}
 168 007c 9046     		mov	r8, r2
ARM GAS  C:\Users\haske\AppData\Local\Temp\ccC3L1zV.s 			page 8


 169 007e 9946     		mov	r9, r3
 170 0080 A246     		mov	r10, r4
 171 0082 F0BD     		pop	{r4, r5, r6, r7, pc}
 172              		.cfi_endproc
 173              	.LFE59:
 174              		.size	lv_draw_sw_buffer_copy, .-lv_draw_sw_buffer_copy
 175              		.section	.text.lv_draw_sw_init_ctx,"ax",%progbits
 176              		.align	2
 177              		.global	lv_draw_sw_init_ctx
 178              		.code	16
 179              		.thumb_func
 180              		.type	lv_draw_sw_init_ctx, %function
 181              	lv_draw_sw_init_ctx:
 182              	.LFB56:
  41:..\..\..\arduinoLCD\test\Pain Drain\libraries\lvgl\src\draw\sw/lv_draw_sw.c ****     LV_UNUSED(drv);
 183              		.loc 1 41 0
 184              		.cfi_startproc
 185              		@ args = 0, pretend = 0, frame = 0
 186              		@ frame_needed = 0, uses_anonymous_args = 0
 187              	.LVL25:
 188 0000 10B5     		push	{r4, lr}
 189              		.cfi_def_cfa_offset 8
 190              		.cfi_offset 4, -8
 191              		.cfi_offset 14, -4
 192 0002 0C00     		movs	r4, r1
 193              	.LVL26:
  45:..\..\..\arduinoLCD\test\Pain Drain\libraries\lvgl\src\draw\sw/lv_draw_sw.c **** 
 194              		.loc 1 45 0
 195 0004 5821     		movs	r1, #88
 196              	.LVL27:
 197 0006 2000     		movs	r0, r4
 198              	.LVL28:
 199 0008 FFF7FEFF 		bl	lv_memset_00
 200              	.LVL29:
  47:..\..\..\arduinoLCD\test\Pain Drain\libraries\lvgl\src\draw\sw/lv_draw_sw.c ****     draw_sw_ctx->base_draw.draw_rect = lv_draw_sw_rect;
 201              		.loc 1 47 0
 202 000c 104B     		ldr	r3, .L6
 203 000e 6361     		str	r3, [r4, #20]
  48:..\..\..\arduinoLCD\test\Pain Drain\libraries\lvgl\src\draw\sw/lv_draw_sw.c ****     draw_sw_ctx->base_draw.draw_bg = lv_draw_sw_bg;
 204              		.loc 1 48 0
 205 0010 104B     		ldr	r3, .L6+4
 206 0012 2361     		str	r3, [r4, #16]
  49:..\..\..\arduinoLCD\test\Pain Drain\libraries\lvgl\src\draw\sw/lv_draw_sw.c ****     draw_sw_ctx->base_draw.draw_letter = lv_draw_sw_letter;
 207              		.loc 1 49 0
 208 0014 104B     		ldr	r3, .L6+8
 209 0016 2363     		str	r3, [r4, #48]
  50:..\..\..\arduinoLCD\test\Pain Drain\libraries\lvgl\src\draw\sw/lv_draw_sw.c ****     draw_sw_ctx->base_draw.draw_img_decoded = lv_draw_sw_img_decoded;
 210              		.loc 1 50 0
 211 0018 104B     		ldr	r3, .L6+12
 212 001a 2362     		str	r3, [r4, #32]
  51:..\..\..\arduinoLCD\test\Pain Drain\libraries\lvgl\src\draw\sw/lv_draw_sw.c ****     draw_sw_ctx->base_draw.draw_line = lv_draw_sw_line;
 213              		.loc 1 51 0
 214 001c 104B     		ldr	r3, .L6+16
 215 001e A361     		str	r3, [r4, #24]
  52:..\..\..\arduinoLCD\test\Pain Drain\libraries\lvgl\src\draw\sw/lv_draw_sw.c ****     draw_sw_ctx->base_draw.draw_polygon = lv_draw_sw_polygon;
 216              		.loc 1 52 0
 217 0020 104B     		ldr	r3, .L6+20
ARM GAS  C:\Users\haske\AppData\Local\Temp\ccC3L1zV.s 			page 9


 218 0022 6362     		str	r3, [r4, #36]
  53:..\..\..\arduinoLCD\test\Pain Drain\libraries\lvgl\src\draw\sw/lv_draw_sw.c **** #if LV_DRAW_COMPLEX
 219              		.loc 1 53 0
 220 0024 104B     		ldr	r3, .L6+24
 221 0026 A362     		str	r3, [r4, #40]
  55:..\..\..\arduinoLCD\test\Pain Drain\libraries\lvgl\src\draw\sw/lv_draw_sw.c **** #endif
 222              		.loc 1 55 0
 223 0028 104B     		ldr	r3, .L6+28
 224 002a E362     		str	r3, [r4, #44]
  57:..\..\..\arduinoLCD\test\Pain Drain\libraries\lvgl\src\draw\sw/lv_draw_sw.c ****     draw_sw_ctx->base_draw.buffer_copy = lv_draw_sw_buffer_copy;
 225              		.loc 1 57 0
 226 002c 104B     		ldr	r3, .L6+32
 227 002e 6363     		str	r3, [r4, #52]
  58:..\..\..\arduinoLCD\test\Pain Drain\libraries\lvgl\src\draw\sw/lv_draw_sw.c ****     draw_sw_ctx->base_draw.layer_init = lv_draw_sw_layer_create;
 228              		.loc 1 58 0
 229 0030 104B     		ldr	r3, .L6+36
 230 0032 A363     		str	r3, [r4, #56]
  59:..\..\..\arduinoLCD\test\Pain Drain\libraries\lvgl\src\draw\sw/lv_draw_sw.c ****     draw_sw_ctx->base_draw.layer_adjust = lv_draw_sw_layer_adjust;
 231              		.loc 1 59 0
 232 0034 104B     		ldr	r3, .L6+40
 233 0036 E363     		str	r3, [r4, #60]
  60:..\..\..\arduinoLCD\test\Pain Drain\libraries\lvgl\src\draw\sw/lv_draw_sw.c ****     draw_sw_ctx->base_draw.layer_blend = lv_draw_sw_layer_blend;
 234              		.loc 1 60 0
 235 0038 104B     		ldr	r3, .L6+44
 236 003a 2364     		str	r3, [r4, #64]
  61:..\..\..\arduinoLCD\test\Pain Drain\libraries\lvgl\src\draw\sw/lv_draw_sw.c ****     draw_sw_ctx->base_draw.layer_destroy = lv_draw_sw_layer_destroy;
 237              		.loc 1 61 0
 238 003c 104B     		ldr	r3, .L6+48
 239 003e 6364     		str	r3, [r4, #68]
  62:..\..\..\arduinoLCD\test\Pain Drain\libraries\lvgl\src\draw\sw/lv_draw_sw.c ****     draw_sw_ctx->blend = lv_draw_sw_blend_basic;
 240              		.loc 1 62 0
 241 0040 104B     		ldr	r3, .L6+52
 242 0042 A364     		str	r3, [r4, #72]
  63:..\..\..\arduinoLCD\test\Pain Drain\libraries\lvgl\src\draw\sw/lv_draw_sw.c ****     draw_ctx->layer_instance_size = sizeof(lv_draw_sw_layer_ctx_t);
 243              		.loc 1 63 0
 244 0044 104B     		ldr	r3, .L6+56
 245 0046 6365     		str	r3, [r4, #84]
  64:..\..\..\arduinoLCD\test\Pain Drain\libraries\lvgl\src\draw\sw/lv_draw_sw.c **** }
 246              		.loc 1 64 0
 247 0048 2C23     		movs	r3, #44
 248 004a E364     		str	r3, [r4, #76]
  65:..\..\..\arduinoLCD\test\Pain Drain\libraries\lvgl\src\draw\sw/lv_draw_sw.c **** 
 249              		.loc 1 65 0
 250              		@ sp needed
 251              	.LVL30:
 252 004c 10BD     		pop	{r4, pc}
 253              	.L7:
 254 004e C046     		.align	2
 255              	.L6:
 256 0050 00000000 		.word	lv_draw_sw_arc
 257 0054 00000000 		.word	lv_draw_sw_rect
 258 0058 00000000 		.word	lv_draw_sw_bg
 259 005c 00000000 		.word	lv_draw_sw_letter
 260 0060 00000000 		.word	lv_draw_sw_img_decoded
 261 0064 00000000 		.word	lv_draw_sw_line
 262 0068 00000000 		.word	lv_draw_sw_polygon
 263 006c 00000000 		.word	lv_draw_sw_transform
ARM GAS  C:\Users\haske\AppData\Local\Temp\ccC3L1zV.s 			page 10


 264 0070 00000000 		.word	lv_draw_sw_wait_for_finish
 265 0074 00000000 		.word	lv_draw_sw_buffer_copy
 266 0078 00000000 		.word	lv_draw_sw_layer_create
 267 007c 00000000 		.word	lv_draw_sw_layer_adjust
 268 0080 00000000 		.word	lv_draw_sw_layer_blend
 269 0084 00000000 		.word	lv_draw_sw_layer_destroy
 270 0088 00000000 		.word	lv_draw_sw_blend_basic
 271              		.cfi_endproc
 272              	.LFE56:
 273              		.size	lv_draw_sw_init_ctx, .-lv_draw_sw_init_ctx
 274              		.section	.text.lv_draw_sw_deinit_ctx,"ax",%progbits
 275              		.align	2
 276              		.global	lv_draw_sw_deinit_ctx
 277              		.code	16
 278              		.thumb_func
 279              		.type	lv_draw_sw_deinit_ctx, %function
 280              	lv_draw_sw_deinit_ctx:
 281              	.LFB57:
  68:..\..\..\arduinoLCD\test\Pain Drain\libraries\lvgl\src\draw\sw/lv_draw_sw.c ****     LV_UNUSED(drv);
 282              		.loc 1 68 0
 283              		.cfi_startproc
 284              		@ args = 0, pretend = 0, frame = 0
 285              		@ frame_needed = 0, uses_anonymous_args = 0
 286              	.LVL31:
 287 0000 10B5     		push	{r4, lr}
 288              		.cfi_def_cfa_offset 8
 289              		.cfi_offset 4, -8
 290              		.cfi_offset 14, -4
 291 0002 0800     		movs	r0, r1
 292              	.LVL32:
  72:..\..\..\arduinoLCD\test\Pain Drain\libraries\lvgl\src\draw\sw/lv_draw_sw.c **** }
 293              		.loc 1 72 0
 294 0004 5821     		movs	r1, #88
 295              	.LVL33:
 296 0006 FFF7FEFF 		bl	lv_memset_00
 297              	.LVL34:
  73:..\..\..\arduinoLCD\test\Pain Drain\libraries\lvgl\src\draw\sw/lv_draw_sw.c **** 
 298              		.loc 1 73 0
 299              		@ sp needed
 300 000a 10BD     		pop	{r4, pc}
 301              		.cfi_endproc
 302              	.LFE57:
 303              		.size	lv_draw_sw_deinit_ctx, .-lv_draw_sw_deinit_ctx
 304              		.text
 305              	.Letext0:
 306              		.file 3 "c:\\program files (x86)\\cypress\\psoc creator\\4.4\\psoc creator\\import\\gnu\\arm\\5.4.
 307              		.file 4 "c:\\program files (x86)\\cypress\\psoc creator\\4.4\\psoc creator\\import\\gnu\\arm\\5.4.
 308              		.file 5 "c:\\program files (x86)\\cypress\\psoc creator\\4.4\\psoc creator\\import\\gnu\\arm\\5.4.
 309              		.file 6 "c:\\projects\\paindrain\\arduinolcd\\test\\pain drain\\libraries\\lvgl\\src\\font\\lv_fon
 310              		.file 7 "c:\\projects\\paindrain\\arduinolcd\\test\\pain drain\\libraries\\lvgl\\src\\misc\\lv_typ
 311              		.file 8 "c:\\projects\\paindrain\\arduinolcd\\test\\pain drain\\libraries\\lvgl\\src\\misc\\lv_col
 312              		.file 9 "c:\\projects\\paindrain\\arduinolcd\\test\\pain drain\\libraries\\lvgl\\src\\misc\\lv_txt
 313              		.file 10 "c:\\projects\\paindrain\\arduinolcd\\test\\pain drain\\libraries\\lvgl\\src\\misc\\lv_bi
 314              		.file 11 "c:\\projects\\paindrain\\arduinolcd\\test\\pain drain\\libraries\\lvgl\\src\\misc\\lv_st
 315              		.file 12 "..\\..\\..\\arduinoLCD\\test\\Pain Drain\\libraries\\lvgl\\src\\draw\\sw\\../lv_img_buf.
 316              		.file 13 "..\\..\\..\\arduinoLCD\\test\\Pain Drain\\libraries\\lvgl\\src\\draw\\sw\\../lv_draw_rec
 317              		.file 14 "..\\..\\..\\arduinoLCD\\test\\Pain Drain\\libraries\\lvgl\\src\\draw\\sw\\../lv_draw_lab
ARM GAS  C:\Users\haske\AppData\Local\Temp\ccC3L1zV.s 			page 11


 318              		.file 15 "..\\..\\..\\arduinoLCD\\test\\Pain Drain\\libraries\\lvgl\\src\\draw\\sw\\../lv_draw_img
 319              		.file 16 "..\\..\\..\\arduinoLCD\\test\\Pain Drain\\libraries\\lvgl\\src\\draw\\sw\\../lv_draw_lin
 320              		.file 17 "..\\..\\..\\arduinoLCD\\test\\Pain Drain\\libraries\\lvgl\\src\\draw\\sw\\../lv_draw_arc
 321              		.file 18 "..\\..\\..\\arduinoLCD\\test\\Pain Drain\\libraries\\lvgl\\src\\draw\\sw\\../lv_draw_mas
 322              		.file 19 "..\\..\\..\\arduinoLCD\\test\\Pain Drain\\libraries\\lvgl\\src\\draw\\sw\\../lv_draw_lay
 323              		.file 20 "..\\..\\..\\arduinoLCD\\test\\Pain Drain\\libraries\\lvgl\\src\\draw\\sw\\../lv_draw.h"
 324              		.file 21 "..\\..\\..\\arduinoLCD\\test\\Pain Drain\\libraries\\lvgl\\src\\draw\\sw\\lv_draw_sw_ble
 325              		.file 22 "c:\\projects\\paindrain\\arduinolcd\\test\\pain drain\\libraries\\lvgl\\src\\hal\\lv_hal
 326              		.file 23 "..\\..\\..\\arduinoLCD\\test\\Pain Drain\\libraries\\lvgl\\src\\draw\\sw\\lv_draw_sw.h"
 327              		.file 24 "c:\\projects\\paindrain\\arduinolcd\\test\\pain drain\\libraries\\lvgl\\src\\misc\\lv_me