ARM GAS  C:\Users\haske\AppData\Local\Temp\ccLw7Foe.s 			page 1


   1              		.syntax unified
   2              		.cpu cortex-m0plus
   3              		.fpu softvfp
   4              		.eabi_attribute 20, 1
   5              		.eabi_attribute 21, 1
   6              		.eabi_attribute 23, 3
   7              		.eabi_attribute 24, 1
   8              		.eabi_attribute 25, 1
   9              		.eabi_attribute 26, 1
  10              		.eabi_attribute 30, 1
  11              		.eabi_attribute 34, 0
  12              		.eabi_attribute 18, 4
  13              		.thumb
  14              		.syntax unified
  15              		.file	"lv_disp.c"
  16              		.text
  17              	.Ltext0:
  18              		.cfi_sections	.debug_frame
  19              		.section	.text.is_out_anim,"ax",%progbits
  20              		.align	2
  21              		.code	16
  22              		.thumb_func
  23              		.type	is_out_anim, %function
  24              	is_out_anim:
  25              	.LFB188:
  26              		.file 1 "..\\..\\..\\arduinoLCD\\test\\Pain Drain\\libraries\\lvgl\\src\\core\\lv_disp.c"
   1:..\..\..\arduinoLCD\test\Pain Drain\libraries\lvgl\src\core/lv_disp.c **** /**
   2:..\..\..\arduinoLCD\test\Pain Drain\libraries\lvgl\src\core/lv_disp.c ****  * @file lv_disp.c
   3:..\..\..\arduinoLCD\test\Pain Drain\libraries\lvgl\src\core/lv_disp.c ****  *
   4:..\..\..\arduinoLCD\test\Pain Drain\libraries\lvgl\src\core/lv_disp.c ****  */
   5:..\..\..\arduinoLCD\test\Pain Drain\libraries\lvgl\src\core/lv_disp.c **** 
   6:..\..\..\arduinoLCD\test\Pain Drain\libraries\lvgl\src\core/lv_disp.c **** /*********************
   7:..\..\..\arduinoLCD\test\Pain Drain\libraries\lvgl\src\core/lv_disp.c ****  *      INCLUDES
   8:..\..\..\arduinoLCD\test\Pain Drain\libraries\lvgl\src\core/lv_disp.c ****  *********************/
   9:..\..\..\arduinoLCD\test\Pain Drain\libraries\lvgl\src\core/lv_disp.c **** #include "lv_disp.h"
  10:..\..\..\arduinoLCD\test\Pain Drain\libraries\lvgl\src\core/lv_disp.c **** #include "../misc/lv_math.h"
  11:..\..\..\arduinoLCD\test\Pain Drain\libraries\lvgl\src\core/lv_disp.c **** #include "../core/lv_refr.h"
  12:..\..\..\arduinoLCD\test\Pain Drain\libraries\lvgl\src\core/lv_disp.c **** 
  13:..\..\..\arduinoLCD\test\Pain Drain\libraries\lvgl\src\core/lv_disp.c **** /*********************
  14:..\..\..\arduinoLCD\test\Pain Drain\libraries\lvgl\src\core/lv_disp.c ****  *      DEFINES
  15:..\..\..\arduinoLCD\test\Pain Drain\libraries\lvgl\src\core/lv_disp.c ****  *********************/
  16:..\..\..\arduinoLCD\test\Pain Drain\libraries\lvgl\src\core/lv_disp.c **** 
  17:..\..\..\arduinoLCD\test\Pain Drain\libraries\lvgl\src\core/lv_disp.c **** /**********************
  18:..\..\..\arduinoLCD\test\Pain Drain\libraries\lvgl\src\core/lv_disp.c ****  *      TYPEDEFS
  19:..\..\..\arduinoLCD\test\Pain Drain\libraries\lvgl\src\core/lv_disp.c ****  **********************/
  20:..\..\..\arduinoLCD\test\Pain Drain\libraries\lvgl\src\core/lv_disp.c **** 
  21:..\..\..\arduinoLCD\test\Pain Drain\libraries\lvgl\src\core/lv_disp.c **** /**********************
  22:..\..\..\arduinoLCD\test\Pain Drain\libraries\lvgl\src\core/lv_disp.c ****  *  STATIC PROTOTYPES
  23:..\..\..\arduinoLCD\test\Pain Drain\libraries\lvgl\src\core/lv_disp.c ****  **********************/
  24:..\..\..\arduinoLCD\test\Pain Drain\libraries\lvgl\src\core/lv_disp.c **** static void scr_load_internal(lv_obj_t * scr);
  25:..\..\..\arduinoLCD\test\Pain Drain\libraries\lvgl\src\core/lv_disp.c **** static void scr_load_anim_start(lv_anim_t * a);
  26:..\..\..\arduinoLCD\test\Pain Drain\libraries\lvgl\src\core/lv_disp.c **** static void opa_scale_anim(void * obj, int32_t v);
  27:..\..\..\arduinoLCD\test\Pain Drain\libraries\lvgl\src\core/lv_disp.c **** static void set_x_anim(void * obj, int32_t v);
  28:..\..\..\arduinoLCD\test\Pain Drain\libraries\lvgl\src\core/lv_disp.c **** static void set_y_anim(void * obj, int32_t v);
  29:..\..\..\arduinoLCD\test\Pain Drain\libraries\lvgl\src\core/lv_disp.c **** static void scr_anim_ready(lv_anim_t * a);
  30:..\..\..\arduinoLCD\test\Pain Drain\libraries\lvgl\src\core/lv_disp.c **** static bool is_out_anim(lv_scr_load_anim_t a);
  31:..\..\..\arduinoLCD\test\Pain Drain\libraries\lvgl\src\core/lv_disp.c **** 
ARM GAS  C:\Users\haske\AppData\Local\Temp\ccLw7Foe.s 			page 2


  32:..\..\..\arduinoLCD\test\Pain Drain\libraries\lvgl\src\core/lv_disp.c **** /**********************
  33:..\..\..\arduinoLCD\test\Pain Drain\libraries\lvgl\src\core/lv_disp.c ****  *  STATIC VARIABLES
  34:..\..\..\arduinoLCD\test\Pain Drain\libraries\lvgl\src\core/lv_disp.c ****  **********************/
  35:..\..\..\arduinoLCD\test\Pain Drain\libraries\lvgl\src\core/lv_disp.c **** 
  36:..\..\..\arduinoLCD\test\Pain Drain\libraries\lvgl\src\core/lv_disp.c **** /**********************
  37:..\..\..\arduinoLCD\test\Pain Drain\libraries\lvgl\src\core/lv_disp.c ****  *      MACROS
  38:..\..\..\arduinoLCD\test\Pain Drain\libraries\lvgl\src\core/lv_disp.c ****  **********************/
  39:..\..\..\arduinoLCD\test\Pain Drain\libraries\lvgl\src\core/lv_disp.c **** 
  40:..\..\..\arduinoLCD\test\Pain Drain\libraries\lvgl\src\core/lv_disp.c **** /**********************
  41:..\..\..\arduinoLCD\test\Pain Drain\libraries\lvgl\src\core/lv_disp.c ****  *   GLOBAL FUNCTIONS
  42:..\..\..\arduinoLCD\test\Pain Drain\libraries\lvgl\src\core/lv_disp.c ****  **********************/
  43:..\..\..\arduinoLCD\test\Pain Drain\libraries\lvgl\src\core/lv_disp.c **** 
  44:..\..\..\arduinoLCD\test\Pain Drain\libraries\lvgl\src\core/lv_disp.c **** /**
  45:..\..\..\arduinoLCD\test\Pain Drain\libraries\lvgl\src\core/lv_disp.c ****  * Return with a pointer to the active screen
  46:..\..\..\arduinoLCD\test\Pain Drain\libraries\lvgl\src\core/lv_disp.c ****  * @param disp pointer to display which active screen should be get. (NULL to use the default
  47:..\..\..\arduinoLCD\test\Pain Drain\libraries\lvgl\src\core/lv_disp.c ****  * screen)
  48:..\..\..\arduinoLCD\test\Pain Drain\libraries\lvgl\src\core/lv_disp.c ****  * @return pointer to the active screen object (loaded by 'lv_scr_load()')
  49:..\..\..\arduinoLCD\test\Pain Drain\libraries\lvgl\src\core/lv_disp.c ****  */
  50:..\..\..\arduinoLCD\test\Pain Drain\libraries\lvgl\src\core/lv_disp.c **** lv_obj_t * lv_disp_get_scr_act(lv_disp_t * disp)
  51:..\..\..\arduinoLCD\test\Pain Drain\libraries\lvgl\src\core/lv_disp.c **** {
  52:..\..\..\arduinoLCD\test\Pain Drain\libraries\lvgl\src\core/lv_disp.c ****     if(!disp) disp = lv_disp_get_default();
  53:..\..\..\arduinoLCD\test\Pain Drain\libraries\lvgl\src\core/lv_disp.c ****     if(!disp) {
  54:..\..\..\arduinoLCD\test\Pain Drain\libraries\lvgl\src\core/lv_disp.c ****         LV_LOG_WARN("no display registered to get its active screen");
  55:..\..\..\arduinoLCD\test\Pain Drain\libraries\lvgl\src\core/lv_disp.c ****         return NULL;
  56:..\..\..\arduinoLCD\test\Pain Drain\libraries\lvgl\src\core/lv_disp.c ****     }
  57:..\..\..\arduinoLCD\test\Pain Drain\libraries\lvgl\src\core/lv_disp.c **** 
  58:..\..\..\arduinoLCD\test\Pain Drain\libraries\lvgl\src\core/lv_disp.c ****     return disp->act_scr;
  59:..\..\..\arduinoLCD\test\Pain Drain\libraries\lvgl\src\core/lv_disp.c **** }
  60:..\..\..\arduinoLCD\test\Pain Drain\libraries\lvgl\src\core/lv_disp.c **** 
  61:..\..\..\arduinoLCD\test\Pain Drain\libraries\lvgl\src\core/lv_disp.c **** /**
  62:..\..\..\arduinoLCD\test\Pain Drain\libraries\lvgl\src\core/lv_disp.c ****  * Return with a pointer to the previous screen. Only used during screen transitions.
  63:..\..\..\arduinoLCD\test\Pain Drain\libraries\lvgl\src\core/lv_disp.c ****  * @param disp pointer to display which previous screen should be get. (NULL to use the default
  64:..\..\..\arduinoLCD\test\Pain Drain\libraries\lvgl\src\core/lv_disp.c ****  * screen)
  65:..\..\..\arduinoLCD\test\Pain Drain\libraries\lvgl\src\core/lv_disp.c ****  * @return pointer to the previous screen object or NULL if not used now
  66:..\..\..\arduinoLCD\test\Pain Drain\libraries\lvgl\src\core/lv_disp.c ****  */
  67:..\..\..\arduinoLCD\test\Pain Drain\libraries\lvgl\src\core/lv_disp.c **** lv_obj_t * lv_disp_get_scr_prev(lv_disp_t * disp)
  68:..\..\..\arduinoLCD\test\Pain Drain\libraries\lvgl\src\core/lv_disp.c **** {
  69:..\..\..\arduinoLCD\test\Pain Drain\libraries\lvgl\src\core/lv_disp.c ****     if(!disp) disp = lv_disp_get_default();
  70:..\..\..\arduinoLCD\test\Pain Drain\libraries\lvgl\src\core/lv_disp.c ****     if(!disp) {
  71:..\..\..\arduinoLCD\test\Pain Drain\libraries\lvgl\src\core/lv_disp.c ****         LV_LOG_WARN("no display registered to get its previous screen");
  72:..\..\..\arduinoLCD\test\Pain Drain\libraries\lvgl\src\core/lv_disp.c ****         return NULL;
  73:..\..\..\arduinoLCD\test\Pain Drain\libraries\lvgl\src\core/lv_disp.c ****     }
  74:..\..\..\arduinoLCD\test\Pain Drain\libraries\lvgl\src\core/lv_disp.c **** 
  75:..\..\..\arduinoLCD\test\Pain Drain\libraries\lvgl\src\core/lv_disp.c ****     return disp->prev_scr;
  76:..\..\..\arduinoLCD\test\Pain Drain\libraries\lvgl\src\core/lv_disp.c **** }
  77:..\..\..\arduinoLCD\test\Pain Drain\libraries\lvgl\src\core/lv_disp.c **** 
  78:..\..\..\arduinoLCD\test\Pain Drain\libraries\lvgl\src\core/lv_disp.c **** /**
  79:..\..\..\arduinoLCD\test\Pain Drain\libraries\lvgl\src\core/lv_disp.c ****  * Make a screen active
  80:..\..\..\arduinoLCD\test\Pain Drain\libraries\lvgl\src\core/lv_disp.c ****  * @param scr pointer to a screen
  81:..\..\..\arduinoLCD\test\Pain Drain\libraries\lvgl\src\core/lv_disp.c ****  */
  82:..\..\..\arduinoLCD\test\Pain Drain\libraries\lvgl\src\core/lv_disp.c **** void lv_disp_load_scr(lv_obj_t * scr)
  83:..\..\..\arduinoLCD\test\Pain Drain\libraries\lvgl\src\core/lv_disp.c **** {
  84:..\..\..\arduinoLCD\test\Pain Drain\libraries\lvgl\src\core/lv_disp.c ****     lv_scr_load_anim(scr, LV_SCR_LOAD_ANIM_NONE, 0, 0, false);
  85:..\..\..\arduinoLCD\test\Pain Drain\libraries\lvgl\src\core/lv_disp.c **** }
  86:..\..\..\arduinoLCD\test\Pain Drain\libraries\lvgl\src\core/lv_disp.c **** 
  87:..\..\..\arduinoLCD\test\Pain Drain\libraries\lvgl\src\core/lv_disp.c **** /**
  88:..\..\..\arduinoLCD\test\Pain Drain\libraries\lvgl\src\core/lv_disp.c ****  * Return with the top layer. (Same on every screen and it is above the normal screen layer)
ARM GAS  C:\Users\haske\AppData\Local\Temp\ccLw7Foe.s 			page 3


  89:..\..\..\arduinoLCD\test\Pain Drain\libraries\lvgl\src\core/lv_disp.c ****  * @param disp pointer to display which top layer should be get. (NULL to use the default screen)
  90:..\..\..\arduinoLCD\test\Pain Drain\libraries\lvgl\src\core/lv_disp.c ****  * @return pointer to the top layer object (transparent screen sized lv_obj)
  91:..\..\..\arduinoLCD\test\Pain Drain\libraries\lvgl\src\core/lv_disp.c ****  */
  92:..\..\..\arduinoLCD\test\Pain Drain\libraries\lvgl\src\core/lv_disp.c **** lv_obj_t * lv_disp_get_layer_top(lv_disp_t * disp)
  93:..\..\..\arduinoLCD\test\Pain Drain\libraries\lvgl\src\core/lv_disp.c **** {
  94:..\..\..\arduinoLCD\test\Pain Drain\libraries\lvgl\src\core/lv_disp.c ****     if(!disp) disp = lv_disp_get_default();
  95:..\..\..\arduinoLCD\test\Pain Drain\libraries\lvgl\src\core/lv_disp.c ****     if(!disp) {
  96:..\..\..\arduinoLCD\test\Pain Drain\libraries\lvgl\src\core/lv_disp.c ****         LV_LOG_WARN("lv_layer_top: no display registered to get its top layer");
  97:..\..\..\arduinoLCD\test\Pain Drain\libraries\lvgl\src\core/lv_disp.c ****         return NULL;
  98:..\..\..\arduinoLCD\test\Pain Drain\libraries\lvgl\src\core/lv_disp.c ****     }
  99:..\..\..\arduinoLCD\test\Pain Drain\libraries\lvgl\src\core/lv_disp.c **** 
 100:..\..\..\arduinoLCD\test\Pain Drain\libraries\lvgl\src\core/lv_disp.c ****     return disp->top_layer;
 101:..\..\..\arduinoLCD\test\Pain Drain\libraries\lvgl\src\core/lv_disp.c **** }
 102:..\..\..\arduinoLCD\test\Pain Drain\libraries\lvgl\src\core/lv_disp.c **** 
 103:..\..\..\arduinoLCD\test\Pain Drain\libraries\lvgl\src\core/lv_disp.c **** /**
 104:..\..\..\arduinoLCD\test\Pain Drain\libraries\lvgl\src\core/lv_disp.c ****  * Return with the sys. layer. (Same on every screen and it is above the normal screen and the top
 105:..\..\..\arduinoLCD\test\Pain Drain\libraries\lvgl\src\core/lv_disp.c ****  * layer)
 106:..\..\..\arduinoLCD\test\Pain Drain\libraries\lvgl\src\core/lv_disp.c ****  * @param disp pointer to display which sys. layer should be retrieved. (NULL to use the default sc
 107:..\..\..\arduinoLCD\test\Pain Drain\libraries\lvgl\src\core/lv_disp.c ****  * @return pointer to the sys layer object (transparent screen sized lv_obj)
 108:..\..\..\arduinoLCD\test\Pain Drain\libraries\lvgl\src\core/lv_disp.c ****  */
 109:..\..\..\arduinoLCD\test\Pain Drain\libraries\lvgl\src\core/lv_disp.c **** lv_obj_t * lv_disp_get_layer_sys(lv_disp_t * disp)
 110:..\..\..\arduinoLCD\test\Pain Drain\libraries\lvgl\src\core/lv_disp.c **** {
 111:..\..\..\arduinoLCD\test\Pain Drain\libraries\lvgl\src\core/lv_disp.c ****     if(!disp) disp = lv_disp_get_default();
 112:..\..\..\arduinoLCD\test\Pain Drain\libraries\lvgl\src\core/lv_disp.c ****     if(!disp) {
 113:..\..\..\arduinoLCD\test\Pain Drain\libraries\lvgl\src\core/lv_disp.c ****         LV_LOG_WARN("lv_layer_sys: no display registered to get its sys. layer");
 114:..\..\..\arduinoLCD\test\Pain Drain\libraries\lvgl\src\core/lv_disp.c ****         return NULL;
 115:..\..\..\arduinoLCD\test\Pain Drain\libraries\lvgl\src\core/lv_disp.c ****     }
 116:..\..\..\arduinoLCD\test\Pain Drain\libraries\lvgl\src\core/lv_disp.c **** 
 117:..\..\..\arduinoLCD\test\Pain Drain\libraries\lvgl\src\core/lv_disp.c ****     return disp->sys_layer;
 118:..\..\..\arduinoLCD\test\Pain Drain\libraries\lvgl\src\core/lv_disp.c **** }
 119:..\..\..\arduinoLCD\test\Pain Drain\libraries\lvgl\src\core/lv_disp.c **** 
 120:..\..\..\arduinoLCD\test\Pain Drain\libraries\lvgl\src\core/lv_disp.c **** /**
 121:..\..\..\arduinoLCD\test\Pain Drain\libraries\lvgl\src\core/lv_disp.c ****  * Set the theme of a display
 122:..\..\..\arduinoLCD\test\Pain Drain\libraries\lvgl\src\core/lv_disp.c ****  * @param disp pointer to a display
 123:..\..\..\arduinoLCD\test\Pain Drain\libraries\lvgl\src\core/lv_disp.c ****  */
 124:..\..\..\arduinoLCD\test\Pain Drain\libraries\lvgl\src\core/lv_disp.c **** void lv_disp_set_theme(lv_disp_t * disp, lv_theme_t * th)
 125:..\..\..\arduinoLCD\test\Pain Drain\libraries\lvgl\src\core/lv_disp.c **** {
 126:..\..\..\arduinoLCD\test\Pain Drain\libraries\lvgl\src\core/lv_disp.c ****     if(!disp) disp = lv_disp_get_default();
 127:..\..\..\arduinoLCD\test\Pain Drain\libraries\lvgl\src\core/lv_disp.c ****     if(!disp) {
 128:..\..\..\arduinoLCD\test\Pain Drain\libraries\lvgl\src\core/lv_disp.c ****         LV_LOG_WARN("no display registered");
 129:..\..\..\arduinoLCD\test\Pain Drain\libraries\lvgl\src\core/lv_disp.c ****         return;
 130:..\..\..\arduinoLCD\test\Pain Drain\libraries\lvgl\src\core/lv_disp.c ****     }
 131:..\..\..\arduinoLCD\test\Pain Drain\libraries\lvgl\src\core/lv_disp.c **** 
 132:..\..\..\arduinoLCD\test\Pain Drain\libraries\lvgl\src\core/lv_disp.c ****     disp->theme = th;
 133:..\..\..\arduinoLCD\test\Pain Drain\libraries\lvgl\src\core/lv_disp.c **** 
 134:..\..\..\arduinoLCD\test\Pain Drain\libraries\lvgl\src\core/lv_disp.c ****     if(disp->screen_cnt == 3 &&
 135:..\..\..\arduinoLCD\test\Pain Drain\libraries\lvgl\src\core/lv_disp.c ****        lv_obj_get_child_cnt(disp->screens[0]) == 0 &&
 136:..\..\..\arduinoLCD\test\Pain Drain\libraries\lvgl\src\core/lv_disp.c ****        lv_obj_get_child_cnt(disp->screens[1]) == 0 &&
 137:..\..\..\arduinoLCD\test\Pain Drain\libraries\lvgl\src\core/lv_disp.c ****        lv_obj_get_child_cnt(disp->screens[2]) == 0) {
 138:..\..\..\arduinoLCD\test\Pain Drain\libraries\lvgl\src\core/lv_disp.c ****         lv_theme_apply(disp->screens[0]);
 139:..\..\..\arduinoLCD\test\Pain Drain\libraries\lvgl\src\core/lv_disp.c ****     }
 140:..\..\..\arduinoLCD\test\Pain Drain\libraries\lvgl\src\core/lv_disp.c **** }
 141:..\..\..\arduinoLCD\test\Pain Drain\libraries\lvgl\src\core/lv_disp.c **** /**
 142:..\..\..\arduinoLCD\test\Pain Drain\libraries\lvgl\src\core/lv_disp.c ****  * Get the theme of a display
 143:..\..\..\arduinoLCD\test\Pain Drain\libraries\lvgl\src\core/lv_disp.c ****  * @param disp pointer to a display
 144:..\..\..\arduinoLCD\test\Pain Drain\libraries\lvgl\src\core/lv_disp.c ****  * @return the display's theme (can be NULL)
 145:..\..\..\arduinoLCD\test\Pain Drain\libraries\lvgl\src\core/lv_disp.c ****  */
ARM GAS  C:\Users\haske\AppData\Local\Temp\ccLw7Foe.s 			page 4


 146:..\..\..\arduinoLCD\test\Pain Drain\libraries\lvgl\src\core/lv_disp.c **** lv_theme_t * lv_disp_get_theme(lv_disp_t * disp)
 147:..\..\..\arduinoLCD\test\Pain Drain\libraries\lvgl\src\core/lv_disp.c **** {
 148:..\..\..\arduinoLCD\test\Pain Drain\libraries\lvgl\src\core/lv_disp.c ****     if(disp == NULL) disp = lv_disp_get_default();
 149:..\..\..\arduinoLCD\test\Pain Drain\libraries\lvgl\src\core/lv_disp.c ****     return disp->theme;
 150:..\..\..\arduinoLCD\test\Pain Drain\libraries\lvgl\src\core/lv_disp.c **** }
 151:..\..\..\arduinoLCD\test\Pain Drain\libraries\lvgl\src\core/lv_disp.c **** 
 152:..\..\..\arduinoLCD\test\Pain Drain\libraries\lvgl\src\core/lv_disp.c **** /**
 153:..\..\..\arduinoLCD\test\Pain Drain\libraries\lvgl\src\core/lv_disp.c ****  * Set the background color of a display
 154:..\..\..\arduinoLCD\test\Pain Drain\libraries\lvgl\src\core/lv_disp.c ****  * @param disp pointer to a display
 155:..\..\..\arduinoLCD\test\Pain Drain\libraries\lvgl\src\core/lv_disp.c ****  * @param color color of the background
 156:..\..\..\arduinoLCD\test\Pain Drain\libraries\lvgl\src\core/lv_disp.c ****  */
 157:..\..\..\arduinoLCD\test\Pain Drain\libraries\lvgl\src\core/lv_disp.c **** void lv_disp_set_bg_color(lv_disp_t * disp, lv_color_t color)
 158:..\..\..\arduinoLCD\test\Pain Drain\libraries\lvgl\src\core/lv_disp.c **** {
 159:..\..\..\arduinoLCD\test\Pain Drain\libraries\lvgl\src\core/lv_disp.c ****     if(!disp) disp = lv_disp_get_default();
 160:..\..\..\arduinoLCD\test\Pain Drain\libraries\lvgl\src\core/lv_disp.c ****     if(!disp) {
 161:..\..\..\arduinoLCD\test\Pain Drain\libraries\lvgl\src\core/lv_disp.c ****         LV_LOG_WARN("no display registered");
 162:..\..\..\arduinoLCD\test\Pain Drain\libraries\lvgl\src\core/lv_disp.c ****         return;
 163:..\..\..\arduinoLCD\test\Pain Drain\libraries\lvgl\src\core/lv_disp.c ****     }
 164:..\..\..\arduinoLCD\test\Pain Drain\libraries\lvgl\src\core/lv_disp.c **** 
 165:..\..\..\arduinoLCD\test\Pain Drain\libraries\lvgl\src\core/lv_disp.c ****     disp->bg_color = color;
 166:..\..\..\arduinoLCD\test\Pain Drain\libraries\lvgl\src\core/lv_disp.c **** 
 167:..\..\..\arduinoLCD\test\Pain Drain\libraries\lvgl\src\core/lv_disp.c ****     lv_area_t a;
 168:..\..\..\arduinoLCD\test\Pain Drain\libraries\lvgl\src\core/lv_disp.c ****     lv_area_set(&a, 0, 0, lv_disp_get_hor_res(disp) - 1, lv_disp_get_ver_res(disp) - 1);
 169:..\..\..\arduinoLCD\test\Pain Drain\libraries\lvgl\src\core/lv_disp.c ****     _lv_inv_area(disp, &a);
 170:..\..\..\arduinoLCD\test\Pain Drain\libraries\lvgl\src\core/lv_disp.c **** 
 171:..\..\..\arduinoLCD\test\Pain Drain\libraries\lvgl\src\core/lv_disp.c **** }
 172:..\..\..\arduinoLCD\test\Pain Drain\libraries\lvgl\src\core/lv_disp.c **** 
 173:..\..\..\arduinoLCD\test\Pain Drain\libraries\lvgl\src\core/lv_disp.c **** /**
 174:..\..\..\arduinoLCD\test\Pain Drain\libraries\lvgl\src\core/lv_disp.c ****  * Set the background image of a display
 175:..\..\..\arduinoLCD\test\Pain Drain\libraries\lvgl\src\core/lv_disp.c ****  * @param disp pointer to a display
 176:..\..\..\arduinoLCD\test\Pain Drain\libraries\lvgl\src\core/lv_disp.c ****  * @param img_src path to file or pointer to an `lv_img_dsc_t` variable
 177:..\..\..\arduinoLCD\test\Pain Drain\libraries\lvgl\src\core/lv_disp.c ****  */
 178:..\..\..\arduinoLCD\test\Pain Drain\libraries\lvgl\src\core/lv_disp.c **** void lv_disp_set_bg_image(lv_disp_t * disp, const void  * img_src)
 179:..\..\..\arduinoLCD\test\Pain Drain\libraries\lvgl\src\core/lv_disp.c **** {
 180:..\..\..\arduinoLCD\test\Pain Drain\libraries\lvgl\src\core/lv_disp.c ****     if(!disp) disp = lv_disp_get_default();
 181:..\..\..\arduinoLCD\test\Pain Drain\libraries\lvgl\src\core/lv_disp.c ****     if(!disp) {
 182:..\..\..\arduinoLCD\test\Pain Drain\libraries\lvgl\src\core/lv_disp.c ****         LV_LOG_WARN("no display registered");
 183:..\..\..\arduinoLCD\test\Pain Drain\libraries\lvgl\src\core/lv_disp.c ****         return;
 184:..\..\..\arduinoLCD\test\Pain Drain\libraries\lvgl\src\core/lv_disp.c ****     }
 185:..\..\..\arduinoLCD\test\Pain Drain\libraries\lvgl\src\core/lv_disp.c **** 
 186:..\..\..\arduinoLCD\test\Pain Drain\libraries\lvgl\src\core/lv_disp.c ****     disp->bg_img = img_src;
 187:..\..\..\arduinoLCD\test\Pain Drain\libraries\lvgl\src\core/lv_disp.c **** 
 188:..\..\..\arduinoLCD\test\Pain Drain\libraries\lvgl\src\core/lv_disp.c ****     lv_area_t a;
 189:..\..\..\arduinoLCD\test\Pain Drain\libraries\lvgl\src\core/lv_disp.c ****     lv_area_set(&a, 0, 0, lv_disp_get_hor_res(disp) - 1, lv_disp_get_ver_res(disp) - 1);
 190:..\..\..\arduinoLCD\test\Pain Drain\libraries\lvgl\src\core/lv_disp.c ****     _lv_inv_area(disp, &a);
 191:..\..\..\arduinoLCD\test\Pain Drain\libraries\lvgl\src\core/lv_disp.c **** }
 192:..\..\..\arduinoLCD\test\Pain Drain\libraries\lvgl\src\core/lv_disp.c **** 
 193:..\..\..\arduinoLCD\test\Pain Drain\libraries\lvgl\src\core/lv_disp.c **** /**
 194:..\..\..\arduinoLCD\test\Pain Drain\libraries\lvgl\src\core/lv_disp.c ****  * Set opacity of the background
 195:..\..\..\arduinoLCD\test\Pain Drain\libraries\lvgl\src\core/lv_disp.c ****  * @param disp pointer to a display
 196:..\..\..\arduinoLCD\test\Pain Drain\libraries\lvgl\src\core/lv_disp.c ****  * @param opa opacity (0..255)
 197:..\..\..\arduinoLCD\test\Pain Drain\libraries\lvgl\src\core/lv_disp.c ****  */
 198:..\..\..\arduinoLCD\test\Pain Drain\libraries\lvgl\src\core/lv_disp.c **** void lv_disp_set_bg_opa(lv_disp_t * disp, lv_opa_t opa)
 199:..\..\..\arduinoLCD\test\Pain Drain\libraries\lvgl\src\core/lv_disp.c **** {
 200:..\..\..\arduinoLCD\test\Pain Drain\libraries\lvgl\src\core/lv_disp.c ****     if(!disp) disp = lv_disp_get_default();
 201:..\..\..\arduinoLCD\test\Pain Drain\libraries\lvgl\src\core/lv_disp.c ****     if(!disp) {
 202:..\..\..\arduinoLCD\test\Pain Drain\libraries\lvgl\src\core/lv_disp.c ****         LV_LOG_WARN("no display registered");
ARM GAS  C:\Users\haske\AppData\Local\Temp\ccLw7Foe.s 			page 5


 203:..\..\..\arduinoLCD\test\Pain Drain\libraries\lvgl\src\core/lv_disp.c ****         return;
 204:..\..\..\arduinoLCD\test\Pain Drain\libraries\lvgl\src\core/lv_disp.c ****     }
 205:..\..\..\arduinoLCD\test\Pain Drain\libraries\lvgl\src\core/lv_disp.c **** 
 206:..\..\..\arduinoLCD\test\Pain Drain\libraries\lvgl\src\core/lv_disp.c ****     disp->bg_opa = opa;
 207:..\..\..\arduinoLCD\test\Pain Drain\libraries\lvgl\src\core/lv_disp.c **** 
 208:..\..\..\arduinoLCD\test\Pain Drain\libraries\lvgl\src\core/lv_disp.c ****     lv_area_t a;
 209:..\..\..\arduinoLCD\test\Pain Drain\libraries\lvgl\src\core/lv_disp.c ****     lv_area_set(&a, 0, 0, lv_disp_get_hor_res(disp) - 1, lv_disp_get_ver_res(disp) - 1);
 210:..\..\..\arduinoLCD\test\Pain Drain\libraries\lvgl\src\core/lv_disp.c ****     _lv_inv_area(disp, &a);
 211:..\..\..\arduinoLCD\test\Pain Drain\libraries\lvgl\src\core/lv_disp.c **** }
 212:..\..\..\arduinoLCD\test\Pain Drain\libraries\lvgl\src\core/lv_disp.c **** 
 213:..\..\..\arduinoLCD\test\Pain Drain\libraries\lvgl\src\core/lv_disp.c **** /**
 214:..\..\..\arduinoLCD\test\Pain Drain\libraries\lvgl\src\core/lv_disp.c ****  * Switch screen with animation
 215:..\..\..\arduinoLCD\test\Pain Drain\libraries\lvgl\src\core/lv_disp.c ****  * @param scr pointer to the new screen to load
 216:..\..\..\arduinoLCD\test\Pain Drain\libraries\lvgl\src\core/lv_disp.c ****  * @param anim_type type of the animation from `lv_scr_load_anim_t`, e.g. `LV_SCR_LOAD_ANIM_MOVE_LE
 217:..\..\..\arduinoLCD\test\Pain Drain\libraries\lvgl\src\core/lv_disp.c ****  * @param time time of the animation
 218:..\..\..\arduinoLCD\test\Pain Drain\libraries\lvgl\src\core/lv_disp.c ****  * @param delay delay before the transition
 219:..\..\..\arduinoLCD\test\Pain Drain\libraries\lvgl\src\core/lv_disp.c ****  * @param auto_del true: automatically delete the old screen
 220:..\..\..\arduinoLCD\test\Pain Drain\libraries\lvgl\src\core/lv_disp.c ****  */
 221:..\..\..\arduinoLCD\test\Pain Drain\libraries\lvgl\src\core/lv_disp.c **** void lv_scr_load_anim(lv_obj_t * new_scr, lv_scr_load_anim_t anim_type, uint32_t time, uint32_t del
 222:..\..\..\arduinoLCD\test\Pain Drain\libraries\lvgl\src\core/lv_disp.c **** {
 223:..\..\..\arduinoLCD\test\Pain Drain\libraries\lvgl\src\core/lv_disp.c **** 
 224:..\..\..\arduinoLCD\test\Pain Drain\libraries\lvgl\src\core/lv_disp.c ****     lv_disp_t * d = lv_obj_get_disp(new_scr);
 225:..\..\..\arduinoLCD\test\Pain Drain\libraries\lvgl\src\core/lv_disp.c ****     lv_obj_t * act_scr = lv_scr_act();
 226:..\..\..\arduinoLCD\test\Pain Drain\libraries\lvgl\src\core/lv_disp.c **** 
 227:..\..\..\arduinoLCD\test\Pain Drain\libraries\lvgl\src\core/lv_disp.c ****     /*If an other screen load animation is in progress
 228:..\..\..\arduinoLCD\test\Pain Drain\libraries\lvgl\src\core/lv_disp.c ****      *make target screen loaded immediately. */
 229:..\..\..\arduinoLCD\test\Pain Drain\libraries\lvgl\src\core/lv_disp.c ****     if(d->scr_to_load && act_scr != d->scr_to_load) {
 230:..\..\..\arduinoLCD\test\Pain Drain\libraries\lvgl\src\core/lv_disp.c ****         scr_load_internal(d->scr_to_load);
 231:..\..\..\arduinoLCD\test\Pain Drain\libraries\lvgl\src\core/lv_disp.c ****         lv_anim_del(d->scr_to_load, NULL);
 232:..\..\..\arduinoLCD\test\Pain Drain\libraries\lvgl\src\core/lv_disp.c ****         lv_obj_set_pos(d->scr_to_load, 0, 0);
 233:..\..\..\arduinoLCD\test\Pain Drain\libraries\lvgl\src\core/lv_disp.c ****         lv_obj_remove_local_style_prop(d->scr_to_load, LV_STYLE_OPA, 0);
 234:..\..\..\arduinoLCD\test\Pain Drain\libraries\lvgl\src\core/lv_disp.c **** 
 235:..\..\..\arduinoLCD\test\Pain Drain\libraries\lvgl\src\core/lv_disp.c ****         if(d->del_prev) {
 236:..\..\..\arduinoLCD\test\Pain Drain\libraries\lvgl\src\core/lv_disp.c ****             lv_obj_del(act_scr);
 237:..\..\..\arduinoLCD\test\Pain Drain\libraries\lvgl\src\core/lv_disp.c ****         }
 238:..\..\..\arduinoLCD\test\Pain Drain\libraries\lvgl\src\core/lv_disp.c ****         act_scr = d->scr_to_load;
 239:..\..\..\arduinoLCD\test\Pain Drain\libraries\lvgl\src\core/lv_disp.c ****     }
 240:..\..\..\arduinoLCD\test\Pain Drain\libraries\lvgl\src\core/lv_disp.c **** 
 241:..\..\..\arduinoLCD\test\Pain Drain\libraries\lvgl\src\core/lv_disp.c ****     d->scr_to_load = new_scr;
 242:..\..\..\arduinoLCD\test\Pain Drain\libraries\lvgl\src\core/lv_disp.c **** 
 243:..\..\..\arduinoLCD\test\Pain Drain\libraries\lvgl\src\core/lv_disp.c ****     if(d->prev_scr && d->del_prev) {
 244:..\..\..\arduinoLCD\test\Pain Drain\libraries\lvgl\src\core/lv_disp.c ****         lv_obj_del(d->prev_scr);
 245:..\..\..\arduinoLCD\test\Pain Drain\libraries\lvgl\src\core/lv_disp.c ****         d->prev_scr = NULL;
 246:..\..\..\arduinoLCD\test\Pain Drain\libraries\lvgl\src\core/lv_disp.c ****     }
 247:..\..\..\arduinoLCD\test\Pain Drain\libraries\lvgl\src\core/lv_disp.c **** 
 248:..\..\..\arduinoLCD\test\Pain Drain\libraries\lvgl\src\core/lv_disp.c ****     d->draw_prev_over_act = is_out_anim(anim_type);
 249:..\..\..\arduinoLCD\test\Pain Drain\libraries\lvgl\src\core/lv_disp.c ****     d->del_prev = auto_del;
 250:..\..\..\arduinoLCD\test\Pain Drain\libraries\lvgl\src\core/lv_disp.c **** 
 251:..\..\..\arduinoLCD\test\Pain Drain\libraries\lvgl\src\core/lv_disp.c ****     /*Be sure there is no other animation on the screens*/
 252:..\..\..\arduinoLCD\test\Pain Drain\libraries\lvgl\src\core/lv_disp.c ****     lv_anim_del(new_scr, NULL);
 253:..\..\..\arduinoLCD\test\Pain Drain\libraries\lvgl\src\core/lv_disp.c ****     lv_anim_del(lv_scr_act(), NULL);
 254:..\..\..\arduinoLCD\test\Pain Drain\libraries\lvgl\src\core/lv_disp.c **** 
 255:..\..\..\arduinoLCD\test\Pain Drain\libraries\lvgl\src\core/lv_disp.c ****     /*Be sure both screens are in a normal position*/
 256:..\..\..\arduinoLCD\test\Pain Drain\libraries\lvgl\src\core/lv_disp.c ****     lv_obj_set_pos(new_scr, 0, 0);
 257:..\..\..\arduinoLCD\test\Pain Drain\libraries\lvgl\src\core/lv_disp.c ****     lv_obj_set_pos(lv_scr_act(), 0, 0);
 258:..\..\..\arduinoLCD\test\Pain Drain\libraries\lvgl\src\core/lv_disp.c ****     lv_obj_remove_local_style_prop(new_scr, LV_STYLE_OPA, 0);
 259:..\..\..\arduinoLCD\test\Pain Drain\libraries\lvgl\src\core/lv_disp.c ****     lv_obj_remove_local_style_prop(lv_scr_act(), LV_STYLE_OPA, 0);
ARM GAS  C:\Users\haske\AppData\Local\Temp\ccLw7Foe.s 			page 6


 260:..\..\..\arduinoLCD\test\Pain Drain\libraries\lvgl\src\core/lv_disp.c **** 
 261:..\..\..\arduinoLCD\test\Pain Drain\libraries\lvgl\src\core/lv_disp.c **** 
 262:..\..\..\arduinoLCD\test\Pain Drain\libraries\lvgl\src\core/lv_disp.c ****     /*Shortcut for immediate load*/
 263:..\..\..\arduinoLCD\test\Pain Drain\libraries\lvgl\src\core/lv_disp.c ****     if(time == 0 && delay == 0) {
 264:..\..\..\arduinoLCD\test\Pain Drain\libraries\lvgl\src\core/lv_disp.c ****         scr_load_internal(new_scr);
 265:..\..\..\arduinoLCD\test\Pain Drain\libraries\lvgl\src\core/lv_disp.c ****         return;
 266:..\..\..\arduinoLCD\test\Pain Drain\libraries\lvgl\src\core/lv_disp.c ****     }
 267:..\..\..\arduinoLCD\test\Pain Drain\libraries\lvgl\src\core/lv_disp.c **** 
 268:..\..\..\arduinoLCD\test\Pain Drain\libraries\lvgl\src\core/lv_disp.c ****     lv_anim_t a_new;
 269:..\..\..\arduinoLCD\test\Pain Drain\libraries\lvgl\src\core/lv_disp.c ****     lv_anim_init(&a_new);
 270:..\..\..\arduinoLCD\test\Pain Drain\libraries\lvgl\src\core/lv_disp.c ****     lv_anim_set_var(&a_new, new_scr);
 271:..\..\..\arduinoLCD\test\Pain Drain\libraries\lvgl\src\core/lv_disp.c ****     lv_anim_set_start_cb(&a_new, scr_load_anim_start);
 272:..\..\..\arduinoLCD\test\Pain Drain\libraries\lvgl\src\core/lv_disp.c ****     lv_anim_set_ready_cb(&a_new, scr_anim_ready);
 273:..\..\..\arduinoLCD\test\Pain Drain\libraries\lvgl\src\core/lv_disp.c ****     lv_anim_set_time(&a_new, time);
 274:..\..\..\arduinoLCD\test\Pain Drain\libraries\lvgl\src\core/lv_disp.c ****     lv_anim_set_delay(&a_new, delay);
 275:..\..\..\arduinoLCD\test\Pain Drain\libraries\lvgl\src\core/lv_disp.c **** 
 276:..\..\..\arduinoLCD\test\Pain Drain\libraries\lvgl\src\core/lv_disp.c ****     lv_anim_t a_old;
 277:..\..\..\arduinoLCD\test\Pain Drain\libraries\lvgl\src\core/lv_disp.c ****     lv_anim_init(&a_old);
 278:..\..\..\arduinoLCD\test\Pain Drain\libraries\lvgl\src\core/lv_disp.c ****     lv_anim_set_var(&a_old, d->act_scr);
 279:..\..\..\arduinoLCD\test\Pain Drain\libraries\lvgl\src\core/lv_disp.c ****     lv_anim_set_time(&a_old, time);
 280:..\..\..\arduinoLCD\test\Pain Drain\libraries\lvgl\src\core/lv_disp.c ****     lv_anim_set_delay(&a_old, delay);
 281:..\..\..\arduinoLCD\test\Pain Drain\libraries\lvgl\src\core/lv_disp.c **** 
 282:..\..\..\arduinoLCD\test\Pain Drain\libraries\lvgl\src\core/lv_disp.c ****     switch(anim_type) {
 283:..\..\..\arduinoLCD\test\Pain Drain\libraries\lvgl\src\core/lv_disp.c ****         case LV_SCR_LOAD_ANIM_NONE:
 284:..\..\..\arduinoLCD\test\Pain Drain\libraries\lvgl\src\core/lv_disp.c ****             /*Create a dummy animation to apply the delay*/
 285:..\..\..\arduinoLCD\test\Pain Drain\libraries\lvgl\src\core/lv_disp.c ****             lv_anim_set_exec_cb(&a_new, set_x_anim);
 286:..\..\..\arduinoLCD\test\Pain Drain\libraries\lvgl\src\core/lv_disp.c ****             lv_anim_set_values(&a_new, 0, 0);
 287:..\..\..\arduinoLCD\test\Pain Drain\libraries\lvgl\src\core/lv_disp.c ****             break;
 288:..\..\..\arduinoLCD\test\Pain Drain\libraries\lvgl\src\core/lv_disp.c ****         case LV_SCR_LOAD_ANIM_OVER_LEFT:
 289:..\..\..\arduinoLCD\test\Pain Drain\libraries\lvgl\src\core/lv_disp.c ****             lv_anim_set_exec_cb(&a_new, set_x_anim);
 290:..\..\..\arduinoLCD\test\Pain Drain\libraries\lvgl\src\core/lv_disp.c ****             lv_anim_set_values(&a_new, lv_disp_get_hor_res(d), 0);
 291:..\..\..\arduinoLCD\test\Pain Drain\libraries\lvgl\src\core/lv_disp.c ****             break;
 292:..\..\..\arduinoLCD\test\Pain Drain\libraries\lvgl\src\core/lv_disp.c ****         case LV_SCR_LOAD_ANIM_OVER_RIGHT:
 293:..\..\..\arduinoLCD\test\Pain Drain\libraries\lvgl\src\core/lv_disp.c ****             lv_anim_set_exec_cb(&a_new, set_x_anim);
 294:..\..\..\arduinoLCD\test\Pain Drain\libraries\lvgl\src\core/lv_disp.c ****             lv_anim_set_values(&a_new, -lv_disp_get_hor_res(d), 0);
 295:..\..\..\arduinoLCD\test\Pain Drain\libraries\lvgl\src\core/lv_disp.c ****             break;
 296:..\..\..\arduinoLCD\test\Pain Drain\libraries\lvgl\src\core/lv_disp.c ****         case LV_SCR_LOAD_ANIM_OVER_TOP:
 297:..\..\..\arduinoLCD\test\Pain Drain\libraries\lvgl\src\core/lv_disp.c ****             lv_anim_set_exec_cb(&a_new, set_y_anim);
 298:..\..\..\arduinoLCD\test\Pain Drain\libraries\lvgl\src\core/lv_disp.c ****             lv_anim_set_values(&a_new, lv_disp_get_ver_res(d), 0);
 299:..\..\..\arduinoLCD\test\Pain Drain\libraries\lvgl\src\core/lv_disp.c ****             break;
 300:..\..\..\arduinoLCD\test\Pain Drain\libraries\lvgl\src\core/lv_disp.c ****         case LV_SCR_LOAD_ANIM_OVER_BOTTOM:
 301:..\..\..\arduinoLCD\test\Pain Drain\libraries\lvgl\src\core/lv_disp.c ****             lv_anim_set_exec_cb(&a_new, set_y_anim);
 302:..\..\..\arduinoLCD\test\Pain Drain\libraries\lvgl\src\core/lv_disp.c ****             lv_anim_set_values(&a_new, -lv_disp_get_ver_res(d), 0);
 303:..\..\..\arduinoLCD\test\Pain Drain\libraries\lvgl\src\core/lv_disp.c ****             break;
 304:..\..\..\arduinoLCD\test\Pain Drain\libraries\lvgl\src\core/lv_disp.c ****         case LV_SCR_LOAD_ANIM_MOVE_LEFT:
 305:..\..\..\arduinoLCD\test\Pain Drain\libraries\lvgl\src\core/lv_disp.c ****             lv_anim_set_exec_cb(&a_new, set_x_anim);
 306:..\..\..\arduinoLCD\test\Pain Drain\libraries\lvgl\src\core/lv_disp.c ****             lv_anim_set_values(&a_new, lv_disp_get_hor_res(d), 0);
 307:..\..\..\arduinoLCD\test\Pain Drain\libraries\lvgl\src\core/lv_disp.c **** 
 308:..\..\..\arduinoLCD\test\Pain Drain\libraries\lvgl\src\core/lv_disp.c ****             lv_anim_set_exec_cb(&a_old, set_x_anim);
 309:..\..\..\arduinoLCD\test\Pain Drain\libraries\lvgl\src\core/lv_disp.c ****             lv_anim_set_values(&a_old, 0, -lv_disp_get_hor_res(d));
 310:..\..\..\arduinoLCD\test\Pain Drain\libraries\lvgl\src\core/lv_disp.c ****             break;
 311:..\..\..\arduinoLCD\test\Pain Drain\libraries\lvgl\src\core/lv_disp.c ****         case LV_SCR_LOAD_ANIM_MOVE_RIGHT:
 312:..\..\..\arduinoLCD\test\Pain Drain\libraries\lvgl\src\core/lv_disp.c ****             lv_anim_set_exec_cb(&a_new, set_x_anim);
 313:..\..\..\arduinoLCD\test\Pain Drain\libraries\lvgl\src\core/lv_disp.c ****             lv_anim_set_values(&a_new, -lv_disp_get_hor_res(d), 0);
 314:..\..\..\arduinoLCD\test\Pain Drain\libraries\lvgl\src\core/lv_disp.c **** 
 315:..\..\..\arduinoLCD\test\Pain Drain\libraries\lvgl\src\core/lv_disp.c ****             lv_anim_set_exec_cb(&a_old, set_x_anim);
 316:..\..\..\arduinoLCD\test\Pain Drain\libraries\lvgl\src\core/lv_disp.c ****             lv_anim_set_values(&a_old, 0, lv_disp_get_hor_res(d));
ARM GAS  C:\Users\haske\AppData\Local\Temp\ccLw7Foe.s 			page 7


 317:..\..\..\arduinoLCD\test\Pain Drain\libraries\lvgl\src\core/lv_disp.c ****             break;
 318:..\..\..\arduinoLCD\test\Pain Drain\libraries\lvgl\src\core/lv_disp.c ****         case LV_SCR_LOAD_ANIM_MOVE_TOP:
 319:..\..\..\arduinoLCD\test\Pain Drain\libraries\lvgl\src\core/lv_disp.c ****             lv_anim_set_exec_cb(&a_new, set_y_anim);
 320:..\..\..\arduinoLCD\test\Pain Drain\libraries\lvgl\src\core/lv_disp.c ****             lv_anim_set_values(&a_new, lv_disp_get_ver_res(d), 0);
 321:..\..\..\arduinoLCD\test\Pain Drain\libraries\lvgl\src\core/lv_disp.c **** 
 322:..\..\..\arduinoLCD\test\Pain Drain\libraries\lvgl\src\core/lv_disp.c ****             lv_anim_set_exec_cb(&a_old, set_y_anim);
 323:..\..\..\arduinoLCD\test\Pain Drain\libraries\lvgl\src\core/lv_disp.c ****             lv_anim_set_values(&a_old, 0, -lv_disp_get_ver_res(d));
 324:..\..\..\arduinoLCD\test\Pain Drain\libraries\lvgl\src\core/lv_disp.c ****             break;
 325:..\..\..\arduinoLCD\test\Pain Drain\libraries\lvgl\src\core/lv_disp.c ****         case LV_SCR_LOAD_ANIM_MOVE_BOTTOM:
 326:..\..\..\arduinoLCD\test\Pain Drain\libraries\lvgl\src\core/lv_disp.c ****             lv_anim_set_exec_cb(&a_new, set_y_anim);
 327:..\..\..\arduinoLCD\test\Pain Drain\libraries\lvgl\src\core/lv_disp.c ****             lv_anim_set_values(&a_new, -lv_disp_get_ver_res(d), 0);
 328:..\..\..\arduinoLCD\test\Pain Drain\libraries\lvgl\src\core/lv_disp.c **** 
 329:..\..\..\arduinoLCD\test\Pain Drain\libraries\lvgl\src\core/lv_disp.c ****             lv_anim_set_exec_cb(&a_old, set_y_anim);
 330:..\..\..\arduinoLCD\test\Pain Drain\libraries\lvgl\src\core/lv_disp.c ****             lv_anim_set_values(&a_old, 0, lv_disp_get_ver_res(d));
 331:..\..\..\arduinoLCD\test\Pain Drain\libraries\lvgl\src\core/lv_disp.c ****             break;
 332:..\..\..\arduinoLCD\test\Pain Drain\libraries\lvgl\src\core/lv_disp.c ****         case LV_SCR_LOAD_ANIM_FADE_IN:
 333:..\..\..\arduinoLCD\test\Pain Drain\libraries\lvgl\src\core/lv_disp.c ****             lv_anim_set_exec_cb(&a_new, opa_scale_anim);
 334:..\..\..\arduinoLCD\test\Pain Drain\libraries\lvgl\src\core/lv_disp.c ****             lv_anim_set_values(&a_new, LV_OPA_TRANSP, LV_OPA_COVER);
 335:..\..\..\arduinoLCD\test\Pain Drain\libraries\lvgl\src\core/lv_disp.c ****             break;
 336:..\..\..\arduinoLCD\test\Pain Drain\libraries\lvgl\src\core/lv_disp.c ****         case LV_SCR_LOAD_ANIM_FADE_OUT:
 337:..\..\..\arduinoLCD\test\Pain Drain\libraries\lvgl\src\core/lv_disp.c ****             lv_anim_set_exec_cb(&a_old, opa_scale_anim);
 338:..\..\..\arduinoLCD\test\Pain Drain\libraries\lvgl\src\core/lv_disp.c ****             lv_anim_set_values(&a_old, LV_OPA_COVER, LV_OPA_TRANSP);
 339:..\..\..\arduinoLCD\test\Pain Drain\libraries\lvgl\src\core/lv_disp.c ****             break;
 340:..\..\..\arduinoLCD\test\Pain Drain\libraries\lvgl\src\core/lv_disp.c ****         case LV_SCR_LOAD_ANIM_OUT_LEFT:
 341:..\..\..\arduinoLCD\test\Pain Drain\libraries\lvgl\src\core/lv_disp.c ****             lv_anim_set_exec_cb(&a_old, set_x_anim);
 342:..\..\..\arduinoLCD\test\Pain Drain\libraries\lvgl\src\core/lv_disp.c ****             lv_anim_set_values(&a_old, 0, -lv_disp_get_hor_res(d));
 343:..\..\..\arduinoLCD\test\Pain Drain\libraries\lvgl\src\core/lv_disp.c ****             break;
 344:..\..\..\arduinoLCD\test\Pain Drain\libraries\lvgl\src\core/lv_disp.c ****         case LV_SCR_LOAD_ANIM_OUT_RIGHT:
 345:..\..\..\arduinoLCD\test\Pain Drain\libraries\lvgl\src\core/lv_disp.c ****             lv_anim_set_exec_cb(&a_old, set_x_anim);
 346:..\..\..\arduinoLCD\test\Pain Drain\libraries\lvgl\src\core/lv_disp.c ****             lv_anim_set_values(&a_old, 0, lv_disp_get_hor_res(d));
 347:..\..\..\arduinoLCD\test\Pain Drain\libraries\lvgl\src\core/lv_disp.c ****             break;
 348:..\..\..\arduinoLCD\test\Pain Drain\libraries\lvgl\src\core/lv_disp.c ****         case LV_SCR_LOAD_ANIM_OUT_TOP:
 349:..\..\..\arduinoLCD\test\Pain Drain\libraries\lvgl\src\core/lv_disp.c ****             lv_anim_set_exec_cb(&a_old, set_y_anim);
 350:..\..\..\arduinoLCD\test\Pain Drain\libraries\lvgl\src\core/lv_disp.c ****             lv_anim_set_values(&a_old, 0, -lv_disp_get_ver_res(d));
 351:..\..\..\arduinoLCD\test\Pain Drain\libraries\lvgl\src\core/lv_disp.c ****             break;
 352:..\..\..\arduinoLCD\test\Pain Drain\libraries\lvgl\src\core/lv_disp.c ****         case LV_SCR_LOAD_ANIM_OUT_BOTTOM:
 353:..\..\..\arduinoLCD\test\Pain Drain\libraries\lvgl\src\core/lv_disp.c ****             lv_anim_set_exec_cb(&a_old, set_y_anim);
 354:..\..\..\arduinoLCD\test\Pain Drain\libraries\lvgl\src\core/lv_disp.c ****             lv_anim_set_values(&a_old, 0, lv_disp_get_ver_res(d));
 355:..\..\..\arduinoLCD\test\Pain Drain\libraries\lvgl\src\core/lv_disp.c ****             break;
 356:..\..\..\arduinoLCD\test\Pain Drain\libraries\lvgl\src\core/lv_disp.c ****     }
 357:..\..\..\arduinoLCD\test\Pain Drain\libraries\lvgl\src\core/lv_disp.c **** 
 358:..\..\..\arduinoLCD\test\Pain Drain\libraries\lvgl\src\core/lv_disp.c ****     lv_event_send(act_scr, LV_EVENT_SCREEN_UNLOAD_START, NULL);
 359:..\..\..\arduinoLCD\test\Pain Drain\libraries\lvgl\src\core/lv_disp.c **** 
 360:..\..\..\arduinoLCD\test\Pain Drain\libraries\lvgl\src\core/lv_disp.c ****     lv_anim_start(&a_new);
 361:..\..\..\arduinoLCD\test\Pain Drain\libraries\lvgl\src\core/lv_disp.c ****     lv_anim_start(&a_old);
 362:..\..\..\arduinoLCD\test\Pain Drain\libraries\lvgl\src\core/lv_disp.c **** }
 363:..\..\..\arduinoLCD\test\Pain Drain\libraries\lvgl\src\core/lv_disp.c **** 
 364:..\..\..\arduinoLCD\test\Pain Drain\libraries\lvgl\src\core/lv_disp.c **** /**
 365:..\..\..\arduinoLCD\test\Pain Drain\libraries\lvgl\src\core/lv_disp.c ****  * Get elapsed time since last user activity on a display (e.g. click)
 366:..\..\..\arduinoLCD\test\Pain Drain\libraries\lvgl\src\core/lv_disp.c ****  * @param disp pointer to a display (NULL to get the overall smallest inactivity)
 367:..\..\..\arduinoLCD\test\Pain Drain\libraries\lvgl\src\core/lv_disp.c ****  * @return elapsed ticks (milliseconds) since the last activity
 368:..\..\..\arduinoLCD\test\Pain Drain\libraries\lvgl\src\core/lv_disp.c ****  */
 369:..\..\..\arduinoLCD\test\Pain Drain\libraries\lvgl\src\core/lv_disp.c **** uint32_t lv_disp_get_inactive_time(const lv_disp_t * disp)
 370:..\..\..\arduinoLCD\test\Pain Drain\libraries\lvgl\src\core/lv_disp.c **** {
 371:..\..\..\arduinoLCD\test\Pain Drain\libraries\lvgl\src\core/lv_disp.c ****     if(disp) return lv_tick_elaps(disp->last_activity_time);
 372:..\..\..\arduinoLCD\test\Pain Drain\libraries\lvgl\src\core/lv_disp.c **** 
 373:..\..\..\arduinoLCD\test\Pain Drain\libraries\lvgl\src\core/lv_disp.c ****     lv_disp_t * d;
ARM GAS  C:\Users\haske\AppData\Local\Temp\ccLw7Foe.s 			page 8


 374:..\..\..\arduinoLCD\test\Pain Drain\libraries\lvgl\src\core/lv_disp.c ****     uint32_t t = UINT32_MAX;
 375:..\..\..\arduinoLCD\test\Pain Drain\libraries\lvgl\src\core/lv_disp.c ****     d          = lv_disp_get_next(NULL);
 376:..\..\..\arduinoLCD\test\Pain Drain\libraries\lvgl\src\core/lv_disp.c ****     while(d) {
 377:..\..\..\arduinoLCD\test\Pain Drain\libraries\lvgl\src\core/lv_disp.c ****         uint32_t elaps = lv_tick_elaps(d->last_activity_time);
 378:..\..\..\arduinoLCD\test\Pain Drain\libraries\lvgl\src\core/lv_disp.c ****         t = LV_MIN(t, elaps);
 379:..\..\..\arduinoLCD\test\Pain Drain\libraries\lvgl\src\core/lv_disp.c ****         d = lv_disp_get_next(d);
 380:..\..\..\arduinoLCD\test\Pain Drain\libraries\lvgl\src\core/lv_disp.c ****     }
 381:..\..\..\arduinoLCD\test\Pain Drain\libraries\lvgl\src\core/lv_disp.c **** 
 382:..\..\..\arduinoLCD\test\Pain Drain\libraries\lvgl\src\core/lv_disp.c ****     return t;
 383:..\..\..\arduinoLCD\test\Pain Drain\libraries\lvgl\src\core/lv_disp.c **** }
 384:..\..\..\arduinoLCD\test\Pain Drain\libraries\lvgl\src\core/lv_disp.c **** 
 385:..\..\..\arduinoLCD\test\Pain Drain\libraries\lvgl\src\core/lv_disp.c **** /**
 386:..\..\..\arduinoLCD\test\Pain Drain\libraries\lvgl\src\core/lv_disp.c ****  * Manually trigger an activity on a display
 387:..\..\..\arduinoLCD\test\Pain Drain\libraries\lvgl\src\core/lv_disp.c ****  * @param disp pointer to a display (NULL to use the default display)
 388:..\..\..\arduinoLCD\test\Pain Drain\libraries\lvgl\src\core/lv_disp.c ****  */
 389:..\..\..\arduinoLCD\test\Pain Drain\libraries\lvgl\src\core/lv_disp.c **** void lv_disp_trig_activity(lv_disp_t * disp)
 390:..\..\..\arduinoLCD\test\Pain Drain\libraries\lvgl\src\core/lv_disp.c **** {
 391:..\..\..\arduinoLCD\test\Pain Drain\libraries\lvgl\src\core/lv_disp.c ****     if(!disp) disp = lv_disp_get_default();
 392:..\..\..\arduinoLCD\test\Pain Drain\libraries\lvgl\src\core/lv_disp.c ****     if(!disp) {
 393:..\..\..\arduinoLCD\test\Pain Drain\libraries\lvgl\src\core/lv_disp.c ****         LV_LOG_WARN("lv_disp_trig_activity: no display registered");
 394:..\..\..\arduinoLCD\test\Pain Drain\libraries\lvgl\src\core/lv_disp.c ****         return;
 395:..\..\..\arduinoLCD\test\Pain Drain\libraries\lvgl\src\core/lv_disp.c ****     }
 396:..\..\..\arduinoLCD\test\Pain Drain\libraries\lvgl\src\core/lv_disp.c **** 
 397:..\..\..\arduinoLCD\test\Pain Drain\libraries\lvgl\src\core/lv_disp.c ****     disp->last_activity_time = lv_tick_get();
 398:..\..\..\arduinoLCD\test\Pain Drain\libraries\lvgl\src\core/lv_disp.c **** }
 399:..\..\..\arduinoLCD\test\Pain Drain\libraries\lvgl\src\core/lv_disp.c **** 
 400:..\..\..\arduinoLCD\test\Pain Drain\libraries\lvgl\src\core/lv_disp.c **** /**
 401:..\..\..\arduinoLCD\test\Pain Drain\libraries\lvgl\src\core/lv_disp.c ****  * Clean any CPU cache that is related to the display.
 402:..\..\..\arduinoLCD\test\Pain Drain\libraries\lvgl\src\core/lv_disp.c ****  * @param disp pointer to a display (NULL to use the default display)
 403:..\..\..\arduinoLCD\test\Pain Drain\libraries\lvgl\src\core/lv_disp.c ****  */
 404:..\..\..\arduinoLCD\test\Pain Drain\libraries\lvgl\src\core/lv_disp.c **** void lv_disp_clean_dcache(lv_disp_t * disp)
 405:..\..\..\arduinoLCD\test\Pain Drain\libraries\lvgl\src\core/lv_disp.c **** {
 406:..\..\..\arduinoLCD\test\Pain Drain\libraries\lvgl\src\core/lv_disp.c ****     if(!disp) disp = lv_disp_get_default();
 407:..\..\..\arduinoLCD\test\Pain Drain\libraries\lvgl\src\core/lv_disp.c ****     if(!disp) {
 408:..\..\..\arduinoLCD\test\Pain Drain\libraries\lvgl\src\core/lv_disp.c ****         LV_LOG_WARN("lv_disp_clean_dcache: no display registered");
 409:..\..\..\arduinoLCD\test\Pain Drain\libraries\lvgl\src\core/lv_disp.c ****         return;
 410:..\..\..\arduinoLCD\test\Pain Drain\libraries\lvgl\src\core/lv_disp.c ****     }
 411:..\..\..\arduinoLCD\test\Pain Drain\libraries\lvgl\src\core/lv_disp.c **** 
 412:..\..\..\arduinoLCD\test\Pain Drain\libraries\lvgl\src\core/lv_disp.c ****     if(disp->driver->clean_dcache_cb)
 413:..\..\..\arduinoLCD\test\Pain Drain\libraries\lvgl\src\core/lv_disp.c ****         disp->driver->clean_dcache_cb(disp->driver);
 414:..\..\..\arduinoLCD\test\Pain Drain\libraries\lvgl\src\core/lv_disp.c **** }
 415:..\..\..\arduinoLCD\test\Pain Drain\libraries\lvgl\src\core/lv_disp.c **** 
 416:..\..\..\arduinoLCD\test\Pain Drain\libraries\lvgl\src\core/lv_disp.c **** /**
 417:..\..\..\arduinoLCD\test\Pain Drain\libraries\lvgl\src\core/lv_disp.c ****  * Temporarily enable and disable the invalidation of the display.
 418:..\..\..\arduinoLCD\test\Pain Drain\libraries\lvgl\src\core/lv_disp.c ****  * @param disp pointer to a display (NULL to use the default display)
 419:..\..\..\arduinoLCD\test\Pain Drain\libraries\lvgl\src\core/lv_disp.c ****  * @param en true: enable invalidation; false: invalidation
 420:..\..\..\arduinoLCD\test\Pain Drain\libraries\lvgl\src\core/lv_disp.c ****  */
 421:..\..\..\arduinoLCD\test\Pain Drain\libraries\lvgl\src\core/lv_disp.c **** void lv_disp_enable_invalidation(lv_disp_t * disp, bool en)
 422:..\..\..\arduinoLCD\test\Pain Drain\libraries\lvgl\src\core/lv_disp.c **** {
 423:..\..\..\arduinoLCD\test\Pain Drain\libraries\lvgl\src\core/lv_disp.c ****     if(!disp) disp = lv_disp_get_default();
 424:..\..\..\arduinoLCD\test\Pain Drain\libraries\lvgl\src\core/lv_disp.c ****     if(!disp) {
 425:..\..\..\arduinoLCD\test\Pain Drain\libraries\lvgl\src\core/lv_disp.c ****         LV_LOG_WARN("no display registered");
 426:..\..\..\arduinoLCD\test\Pain Drain\libraries\lvgl\src\core/lv_disp.c ****         return;
 427:..\..\..\arduinoLCD\test\Pain Drain\libraries\lvgl\src\core/lv_disp.c ****     }
 428:..\..\..\arduinoLCD\test\Pain Drain\libraries\lvgl\src\core/lv_disp.c **** 
 429:..\..\..\arduinoLCD\test\Pain Drain\libraries\lvgl\src\core/lv_disp.c ****     disp->inv_en_cnt += en ? 1 : -1;
 430:..\..\..\arduinoLCD\test\Pain Drain\libraries\lvgl\src\core/lv_disp.c **** }
ARM GAS  C:\Users\haske\AppData\Local\Temp\ccLw7Foe.s 			page 9


 431:..\..\..\arduinoLCD\test\Pain Drain\libraries\lvgl\src\core/lv_disp.c **** 
 432:..\..\..\arduinoLCD\test\Pain Drain\libraries\lvgl\src\core/lv_disp.c **** /**
 433:..\..\..\arduinoLCD\test\Pain Drain\libraries\lvgl\src\core/lv_disp.c ****  * Get display invalidation is enabled.
 434:..\..\..\arduinoLCD\test\Pain Drain\libraries\lvgl\src\core/lv_disp.c ****  * @param disp pointer to a display (NULL to use the default display)
 435:..\..\..\arduinoLCD\test\Pain Drain\libraries\lvgl\src\core/lv_disp.c ****  * @return return true if invalidation is enabled
 436:..\..\..\arduinoLCD\test\Pain Drain\libraries\lvgl\src\core/lv_disp.c ****  */
 437:..\..\..\arduinoLCD\test\Pain Drain\libraries\lvgl\src\core/lv_disp.c **** bool lv_disp_is_invalidation_enabled(lv_disp_t * disp)
 438:..\..\..\arduinoLCD\test\Pain Drain\libraries\lvgl\src\core/lv_disp.c **** {
 439:..\..\..\arduinoLCD\test\Pain Drain\libraries\lvgl\src\core/lv_disp.c ****     if(!disp) disp = lv_disp_get_default();
 440:..\..\..\arduinoLCD\test\Pain Drain\libraries\lvgl\src\core/lv_disp.c ****     if(!disp) {
 441:..\..\..\arduinoLCD\test\Pain Drain\libraries\lvgl\src\core/lv_disp.c ****         LV_LOG_WARN("no display registered");
 442:..\..\..\arduinoLCD\test\Pain Drain\libraries\lvgl\src\core/lv_disp.c ****         return false;
 443:..\..\..\arduinoLCD\test\Pain Drain\libraries\lvgl\src\core/lv_disp.c ****     }
 444:..\..\..\arduinoLCD\test\Pain Drain\libraries\lvgl\src\core/lv_disp.c **** 
 445:..\..\..\arduinoLCD\test\Pain Drain\libraries\lvgl\src\core/lv_disp.c ****     return (disp->inv_en_cnt > 0);
 446:..\..\..\arduinoLCD\test\Pain Drain\libraries\lvgl\src\core/lv_disp.c **** }
 447:..\..\..\arduinoLCD\test\Pain Drain\libraries\lvgl\src\core/lv_disp.c **** 
 448:..\..\..\arduinoLCD\test\Pain Drain\libraries\lvgl\src\core/lv_disp.c **** /**
 449:..\..\..\arduinoLCD\test\Pain Drain\libraries\lvgl\src\core/lv_disp.c ****  * Get a pointer to the screen refresher timer to
 450:..\..\..\arduinoLCD\test\Pain Drain\libraries\lvgl\src\core/lv_disp.c ****  * modify its parameters with `lv_timer_...` functions.
 451:..\..\..\arduinoLCD\test\Pain Drain\libraries\lvgl\src\core/lv_disp.c ****  * @param disp pointer to a display
 452:..\..\..\arduinoLCD\test\Pain Drain\libraries\lvgl\src\core/lv_disp.c ****  * @return pointer to the display refresher timer. (NULL on error)
 453:..\..\..\arduinoLCD\test\Pain Drain\libraries\lvgl\src\core/lv_disp.c ****  */
 454:..\..\..\arduinoLCD\test\Pain Drain\libraries\lvgl\src\core/lv_disp.c **** lv_timer_t * _lv_disp_get_refr_timer(lv_disp_t * disp)
 455:..\..\..\arduinoLCD\test\Pain Drain\libraries\lvgl\src\core/lv_disp.c **** {
 456:..\..\..\arduinoLCD\test\Pain Drain\libraries\lvgl\src\core/lv_disp.c ****     if(!disp) disp = lv_disp_get_default();
 457:..\..\..\arduinoLCD\test\Pain Drain\libraries\lvgl\src\core/lv_disp.c ****     if(!disp) {
 458:..\..\..\arduinoLCD\test\Pain Drain\libraries\lvgl\src\core/lv_disp.c ****         LV_LOG_WARN("lv_disp_get_refr_timer: no display registered");
 459:..\..\..\arduinoLCD\test\Pain Drain\libraries\lvgl\src\core/lv_disp.c ****         return NULL;
 460:..\..\..\arduinoLCD\test\Pain Drain\libraries\lvgl\src\core/lv_disp.c ****     }
 461:..\..\..\arduinoLCD\test\Pain Drain\libraries\lvgl\src\core/lv_disp.c **** 
 462:..\..\..\arduinoLCD\test\Pain Drain\libraries\lvgl\src\core/lv_disp.c ****     return disp->refr_timer;
 463:..\..\..\arduinoLCD\test\Pain Drain\libraries\lvgl\src\core/lv_disp.c **** }
 464:..\..\..\arduinoLCD\test\Pain Drain\libraries\lvgl\src\core/lv_disp.c **** 
 465:..\..\..\arduinoLCD\test\Pain Drain\libraries\lvgl\src\core/lv_disp.c **** /**********************
 466:..\..\..\arduinoLCD\test\Pain Drain\libraries\lvgl\src\core/lv_disp.c ****  *   STATIC FUNCTIONS
 467:..\..\..\arduinoLCD\test\Pain Drain\libraries\lvgl\src\core/lv_disp.c ****  **********************/
 468:..\..\..\arduinoLCD\test\Pain Drain\libraries\lvgl\src\core/lv_disp.c **** 
 469:..\..\..\arduinoLCD\test\Pain Drain\libraries\lvgl\src\core/lv_disp.c **** static void scr_load_internal(lv_obj_t * scr)
 470:..\..\..\arduinoLCD\test\Pain Drain\libraries\lvgl\src\core/lv_disp.c **** {
 471:..\..\..\arduinoLCD\test\Pain Drain\libraries\lvgl\src\core/lv_disp.c ****     lv_disp_t * d = lv_obj_get_disp(scr);
 472:..\..\..\arduinoLCD\test\Pain Drain\libraries\lvgl\src\core/lv_disp.c ****     if(!d) return;  /*Shouldn't happen, just to be sure*/
 473:..\..\..\arduinoLCD\test\Pain Drain\libraries\lvgl\src\core/lv_disp.c **** 
 474:..\..\..\arduinoLCD\test\Pain Drain\libraries\lvgl\src\core/lv_disp.c ****     lv_obj_t * old_scr = d->act_scr;
 475:..\..\..\arduinoLCD\test\Pain Drain\libraries\lvgl\src\core/lv_disp.c **** 
 476:..\..\..\arduinoLCD\test\Pain Drain\libraries\lvgl\src\core/lv_disp.c ****     if(d->act_scr) lv_event_send(old_scr, LV_EVENT_SCREEN_UNLOAD_START, NULL);
 477:..\..\..\arduinoLCD\test\Pain Drain\libraries\lvgl\src\core/lv_disp.c ****     if(d->act_scr) lv_event_send(scr, LV_EVENT_SCREEN_LOAD_START, NULL);
 478:..\..\..\arduinoLCD\test\Pain Drain\libraries\lvgl\src\core/lv_disp.c **** 
 479:..\..\..\arduinoLCD\test\Pain Drain\libraries\lvgl\src\core/lv_disp.c ****     d->act_scr = scr;
 480:..\..\..\arduinoLCD\test\Pain Drain\libraries\lvgl\src\core/lv_disp.c **** 
 481:..\..\..\arduinoLCD\test\Pain Drain\libraries\lvgl\src\core/lv_disp.c ****     if(d->act_scr) lv_event_send(scr, LV_EVENT_SCREEN_LOADED, NULL);
 482:..\..\..\arduinoLCD\test\Pain Drain\libraries\lvgl\src\core/lv_disp.c ****     if(d->act_scr) lv_event_send(old_scr, LV_EVENT_SCREEN_UNLOADED, NULL);
 483:..\..\..\arduinoLCD\test\Pain Drain\libraries\lvgl\src\core/lv_disp.c **** 
 484:..\..\..\arduinoLCD\test\Pain Drain\libraries\lvgl\src\core/lv_disp.c ****     lv_obj_invalidate(scr);
 485:..\..\..\arduinoLCD\test\Pain Drain\libraries\lvgl\src\core/lv_disp.c **** }
 486:..\..\..\arduinoLCD\test\Pain Drain\libraries\lvgl\src\core/lv_disp.c **** 
 487:..\..\..\arduinoLCD\test\Pain Drain\libraries\lvgl\src\core/lv_disp.c **** static void scr_load_anim_start(lv_anim_t * a)
ARM GAS  C:\Users\haske\AppData\Local\Temp\ccLw7Foe.s 			page 10


 488:..\..\..\arduinoLCD\test\Pain Drain\libraries\lvgl\src\core/lv_disp.c **** {
 489:..\..\..\arduinoLCD\test\Pain Drain\libraries\lvgl\src\core/lv_disp.c ****     lv_disp_t * d = lv_obj_get_disp(a->var);
 490:..\..\..\arduinoLCD\test\Pain Drain\libraries\lvgl\src\core/lv_disp.c **** 
 491:..\..\..\arduinoLCD\test\Pain Drain\libraries\lvgl\src\core/lv_disp.c ****     d->prev_scr = lv_scr_act();
 492:..\..\..\arduinoLCD\test\Pain Drain\libraries\lvgl\src\core/lv_disp.c ****     d->act_scr = a->var;
 493:..\..\..\arduinoLCD\test\Pain Drain\libraries\lvgl\src\core/lv_disp.c **** 
 494:..\..\..\arduinoLCD\test\Pain Drain\libraries\lvgl\src\core/lv_disp.c ****     lv_event_send(d->act_scr, LV_EVENT_SCREEN_LOAD_START, NULL);
 495:..\..\..\arduinoLCD\test\Pain Drain\libraries\lvgl\src\core/lv_disp.c **** }
 496:..\..\..\arduinoLCD\test\Pain Drain\libraries\lvgl\src\core/lv_disp.c **** 
 497:..\..\..\arduinoLCD\test\Pain Drain\libraries\lvgl\src\core/lv_disp.c **** static void opa_scale_anim(void * obj, int32_t v)
 498:..\..\..\arduinoLCD\test\Pain Drain\libraries\lvgl\src\core/lv_disp.c **** {
 499:..\..\..\arduinoLCD\test\Pain Drain\libraries\lvgl\src\core/lv_disp.c ****     lv_obj_set_style_opa(obj, v, 0);
 500:..\..\..\arduinoLCD\test\Pain Drain\libraries\lvgl\src\core/lv_disp.c **** }
 501:..\..\..\arduinoLCD\test\Pain Drain\libraries\lvgl\src\core/lv_disp.c **** 
 502:..\..\..\arduinoLCD\test\Pain Drain\libraries\lvgl\src\core/lv_disp.c **** static void set_x_anim(void * obj, int32_t v)
 503:..\..\..\arduinoLCD\test\Pain Drain\libraries\lvgl\src\core/lv_disp.c **** {
 504:..\..\..\arduinoLCD\test\Pain Drain\libraries\lvgl\src\core/lv_disp.c ****     lv_obj_set_x(obj, v);
 505:..\..\..\arduinoLCD\test\Pain Drain\libraries\lvgl\src\core/lv_disp.c **** }
 506:..\..\..\arduinoLCD\test\Pain Drain\libraries\lvgl\src\core/lv_disp.c **** 
 507:..\..\..\arduinoLCD\test\Pain Drain\libraries\lvgl\src\core/lv_disp.c **** static void set_y_anim(void * obj, int32_t v)
 508:..\..\..\arduinoLCD\test\Pain Drain\libraries\lvgl\src\core/lv_disp.c **** {
 509:..\..\..\arduinoLCD\test\Pain Drain\libraries\lvgl\src\core/lv_disp.c ****     lv_obj_set_y(obj, v);
 510:..\..\..\arduinoLCD\test\Pain Drain\libraries\lvgl\src\core/lv_disp.c **** }
 511:..\..\..\arduinoLCD\test\Pain Drain\libraries\lvgl\src\core/lv_disp.c **** 
 512:..\..\..\arduinoLCD\test\Pain Drain\libraries\lvgl\src\core/lv_disp.c **** static void scr_anim_ready(lv_anim_t * a)
 513:..\..\..\arduinoLCD\test\Pain Drain\libraries\lvgl\src\core/lv_disp.c **** {
 514:..\..\..\arduinoLCD\test\Pain Drain\libraries\lvgl\src\core/lv_disp.c ****     lv_disp_t * d = lv_obj_get_disp(a->var);
 515:..\..\..\arduinoLCD\test\Pain Drain\libraries\lvgl\src\core/lv_disp.c **** 
 516:..\..\..\arduinoLCD\test\Pain Drain\libraries\lvgl\src\core/lv_disp.c ****     lv_event_send(d->act_scr, LV_EVENT_SCREEN_LOADED, NULL);
 517:..\..\..\arduinoLCD\test\Pain Drain\libraries\lvgl\src\core/lv_disp.c ****     lv_event_send(d->prev_scr, LV_EVENT_SCREEN_UNLOADED, NULL);
 518:..\..\..\arduinoLCD\test\Pain Drain\libraries\lvgl\src\core/lv_disp.c **** 
 519:..\..\..\arduinoLCD\test\Pain Drain\libraries\lvgl\src\core/lv_disp.c ****     if(d->prev_scr && d->del_prev) lv_obj_del(d->prev_scr);
 520:..\..\..\arduinoLCD\test\Pain Drain\libraries\lvgl\src\core/lv_disp.c ****     d->prev_scr = NULL;
 521:..\..\..\arduinoLCD\test\Pain Drain\libraries\lvgl\src\core/lv_disp.c ****     d->draw_prev_over_act = false;
 522:..\..\..\arduinoLCD\test\Pain Drain\libraries\lvgl\src\core/lv_disp.c ****     d->scr_to_load = NULL;
 523:..\..\..\arduinoLCD\test\Pain Drain\libraries\lvgl\src\core/lv_disp.c ****     lv_obj_remove_local_style_prop(a->var, LV_STYLE_OPA, 0);
 524:..\..\..\arduinoLCD\test\Pain Drain\libraries\lvgl\src\core/lv_disp.c ****     lv_obj_invalidate(d->act_scr);
 525:..\..\..\arduinoLCD\test\Pain Drain\libraries\lvgl\src\core/lv_disp.c **** }
 526:..\..\..\arduinoLCD\test\Pain Drain\libraries\lvgl\src\core/lv_disp.c **** 
 527:..\..\..\arduinoLCD\test\Pain Drain\libraries\lvgl\src\core/lv_disp.c **** static bool is_out_anim(lv_scr_load_anim_t anim_type)
 528:..\..\..\arduinoLCD\test\Pain Drain\libraries\lvgl\src\core/lv_disp.c **** {
  27              		.loc 1 528 0
  28              		.cfi_startproc
  29              		@ args = 0, pretend = 0, frame = 0
  30              		@ frame_needed = 0, uses_anonymous_args = 0
  31              		@ link register save eliminated.
  32              	.LVL0:
 529:..\..\..\arduinoLCD\test\Pain Drain\libraries\lvgl\src\core/lv_disp.c ****     return anim_type == LV_SCR_LOAD_ANIM_FADE_OUT  ||
 530:..\..\..\arduinoLCD\test\Pain Drain\libraries\lvgl\src\core/lv_disp.c ****            anim_type == LV_SCR_LOAD_ANIM_OUT_LEFT  ||
 531:..\..\..\arduinoLCD\test\Pain Drain\libraries\lvgl\src\core/lv_disp.c ****            anim_type == LV_SCR_LOAD_ANIM_OUT_RIGHT ||
 532:..\..\..\arduinoLCD\test\Pain Drain\libraries\lvgl\src\core/lv_disp.c ****            anim_type == LV_SCR_LOAD_ANIM_OUT_TOP   ||
  33              		.loc 1 532 0
  34 0000 0A38     		subs	r0, r0, #10
  35              	.LVL1:
  36 0002 C3B2     		uxtb	r3, r0
 529:..\..\..\arduinoLCD\test\Pain Drain\libraries\lvgl\src\core/lv_disp.c ****     return anim_type == LV_SCR_LOAD_ANIM_FADE_OUT  ||
  37              		.loc 1 529 0
ARM GAS  C:\Users\haske\AppData\Local\Temp\ccLw7Foe.s 			page 11


  38 0004 0020     		movs	r0, #0
  39 0006 0422     		movs	r2, #4
  40 0008 9A42     		cmp	r2, r3
  41 000a 4041     		adcs	r0, r0, r0
  42 000c C0B2     		uxtb	r0, r0
 533:..\..\..\arduinoLCD\test\Pain Drain\libraries\lvgl\src\core/lv_disp.c ****            anim_type == LV_SCR_LOAD_ANIM_OUT_BOTTOM;
 534:..\..\..\arduinoLCD\test\Pain Drain\libraries\lvgl\src\core/lv_disp.c **** }
  43              		.loc 1 534 0
  44              		@ sp needed
  45 000e 7047     		bx	lr
  46              		.cfi_endproc
  47              	.LFE188:
  48              		.size	is_out_anim, .-is_out_anim
  49              		.section	.text.opa_scale_anim,"ax",%progbits
  50              		.align	2
  51              		.code	16
  52              		.thumb_func
  53              		.type	opa_scale_anim, %function
  54              	opa_scale_anim:
  55              	.LFB184:
 498:..\..\..\arduinoLCD\test\Pain Drain\libraries\lvgl\src\core/lv_disp.c ****     lv_obj_set_style_opa(obj, v, 0);
  56              		.loc 1 498 0
  57              		.cfi_startproc
  58              		@ args = 0, pretend = 0, frame = 0
  59              		@ frame_needed = 0, uses_anonymous_args = 0
  60              	.LVL2:
  61 0000 10B5     		push	{r4, lr}
  62              		.cfi_def_cfa_offset 8
  63              		.cfi_offset 4, -8
  64              		.cfi_offset 14, -4
 499:..\..\..\arduinoLCD\test\Pain Drain\libraries\lvgl\src\core/lv_disp.c **** }
  65              		.loc 1 499 0
  66 0002 C9B2     		uxtb	r1, r1
  67              	.LVL3:
  68 0004 0022     		movs	r2, #0
  69 0006 FFF7FEFF 		bl	lv_obj_set_style_opa
  70              	.LVL4:
 500:..\..\..\arduinoLCD\test\Pain Drain\libraries\lvgl\src\core/lv_disp.c **** 
  71              		.loc 1 500 0
  72              		@ sp needed
  73 000a 10BD     		pop	{r4, pc}
  74              		.cfi_endproc
  75              	.LFE184:
  76              		.size	opa_scale_anim, .-opa_scale_anim
  77              		.section	.text.set_y_anim,"ax",%progbits
  78              		.align	2
  79              		.code	16
  80              		.thumb_func
  81              		.type	set_y_anim, %function
  82              	set_y_anim:
  83              	.LFB186:
 508:..\..\..\arduinoLCD\test\Pain Drain\libraries\lvgl\src\core/lv_disp.c ****     lv_obj_set_y(obj, v);
  84              		.loc 1 508 0
  85              		.cfi_startproc
  86              		@ args = 0, pretend = 0, frame = 0
  87              		@ frame_needed = 0, uses_anonymous_args = 0
  88              	.LVL5:
ARM GAS  C:\Users\haske\AppData\Local\Temp\ccLw7Foe.s 			page 12


  89 0000 10B5     		push	{r4, lr}
  90              		.cfi_def_cfa_offset 8
  91              		.cfi_offset 4, -8
  92              		.cfi_offset 14, -4
 509:..\..\..\arduinoLCD\test\Pain Drain\libraries\lvgl\src\core/lv_disp.c **** }
  93              		.loc 1 509 0
  94 0002 09B2     		sxth	r1, r1
  95              	.LVL6:
  96 0004 FFF7FEFF 		bl	lv_obj_set_y
  97              	.LVL7:
 510:..\..\..\arduinoLCD\test\Pain Drain\libraries\lvgl\src\core/lv_disp.c **** 
  98              		.loc 1 510 0
  99              		@ sp needed
 100 0008 10BD     		pop	{r4, pc}
 101              		.cfi_endproc
 102              	.LFE186:
 103              		.size	set_y_anim, .-set_y_anim
 104 000a C046     		.section	.text.set_x_anim,"ax",%progbits
 105              		.align	2
 106              		.code	16
 107              		.thumb_func
 108              		.type	set_x_anim, %function
 109              	set_x_anim:
 110              	.LFB185:
 503:..\..\..\arduinoLCD\test\Pain Drain\libraries\lvgl\src\core/lv_disp.c ****     lv_obj_set_x(obj, v);
 111              		.loc 1 503 0
 112              		.cfi_startproc
 113              		@ args = 0, pretend = 0, frame = 0
 114              		@ frame_needed = 0, uses_anonymous_args = 0
 115              	.LVL8:
 116 0000 10B5     		push	{r4, lr}
 117              		.cfi_def_cfa_offset 8
 118              		.cfi_offset 4, -8
 119              		.cfi_offset 14, -4
 504:..\..\..\arduinoLCD\test\Pain Drain\libraries\lvgl\src\core/lv_disp.c **** }
 120              		.loc 1 504 0
 121 0002 09B2     		sxth	r1, r1
 122              	.LVL9:
 123 0004 FFF7FEFF 		bl	lv_obj_set_x
 124              	.LVL10:
 505:..\..\..\arduinoLCD\test\Pain Drain\libraries\lvgl\src\core/lv_disp.c **** 
 125              		.loc 1 505 0
 126              		@ sp needed
 127 0008 10BD     		pop	{r4, pc}
 128              		.cfi_endproc
 129              	.LFE185:
 130              		.size	set_x_anim, .-set_x_anim
 131 000a C046     		.section	.text.scr_anim_ready,"ax",%progbits
 132              		.align	2
 133              		.code	16
 134              		.thumb_func
 135              		.type	scr_anim_ready, %function
 136              	scr_anim_ready:
 137              	.LFB187:
 513:..\..\..\arduinoLCD\test\Pain Drain\libraries\lvgl\src\core/lv_disp.c ****     lv_disp_t * d = lv_obj_get_disp(a->var);
 138              		.loc 1 513 0
 139              		.cfi_startproc
ARM GAS  C:\Users\haske\AppData\Local\Temp\ccLw7Foe.s 			page 13


 140              		@ args = 0, pretend = 0, frame = 0
 141              		@ frame_needed = 0, uses_anonymous_args = 0
 142              	.LVL11:
 143 0000 70B5     		push	{r4, r5, r6, lr}
 144              		.cfi_def_cfa_offset 16
 145              		.cfi_offset 4, -16
 146              		.cfi_offset 5, -12
 147              		.cfi_offset 6, -8
 148              		.cfi_offset 14, -4
 149 0002 0500     		movs	r5, r0
 514:..\..\..\arduinoLCD\test\Pain Drain\libraries\lvgl\src\core/lv_disp.c **** 
 150              		.loc 1 514 0
 151 0004 0068     		ldr	r0, [r0]
 152              	.LVL12:
 153 0006 FFF7FEFF 		bl	lv_obj_get_disp
 154              	.LVL13:
 155 000a 0400     		movs	r4, r0
 156              	.LVL14:
 516:..\..\..\arduinoLCD\test\Pain Drain\libraries\lvgl\src\core/lv_disp.c ****     lv_event_send(d->prev_scr, LV_EVENT_SCREEN_UNLOADED, NULL);
 157              		.loc 1 516 0
 158 000c 0022     		movs	r2, #0
 159 000e 2721     		movs	r1, #39
 160 0010 0069     		ldr	r0, [r0, #16]
 161              	.LVL15:
 162 0012 FFF7FEFF 		bl	lv_event_send
 163              	.LVL16:
 517:..\..\..\arduinoLCD\test\Pain Drain\libraries\lvgl\src\core/lv_disp.c **** 
 164              		.loc 1 517 0
 165 0016 0022     		movs	r2, #0
 166 0018 2821     		movs	r1, #40
 167 001a 6069     		ldr	r0, [r4, #20]
 168 001c FFF7FEFF 		bl	lv_event_send
 169              	.LVL17:
 519:..\..\..\arduinoLCD\test\Pain Drain\libraries\lvgl\src\core/lv_disp.c ****     d->prev_scr = NULL;
 170              		.loc 1 519 0
 171 0020 6069     		ldr	r0, [r4, #20]
 172 0022 0028     		cmp	r0, #0
 173 0024 05D0     		beq	.L6
 519:..\..\..\arduinoLCD\test\Pain Drain\libraries\lvgl\src\core/lv_disp.c ****     d->prev_scr = NULL;
 174              		.loc 1 519 0 is_stmt 0 discriminator 1
 175 0026 2823     		movs	r3, #40
 176 0028 E35C     		ldrb	r3, [r4, r3]
 177 002a 9B07     		lsls	r3, r3, #30
 178 002c 01D5     		bpl	.L6
 519:..\..\..\arduinoLCD\test\Pain Drain\libraries\lvgl\src\core/lv_disp.c ****     d->prev_scr = NULL;
 179              		.loc 1 519 0 discriminator 2
 180 002e FFF7FEFF 		bl	lv_obj_del
 181              	.LVL18:
 182              	.L6:
 520:..\..\..\arduinoLCD\test\Pain Drain\libraries\lvgl\src\core/lv_disp.c ****     d->draw_prev_over_act = false;
 183              		.loc 1 520 0 is_stmt 1
 184 0032 0022     		movs	r2, #0
 185 0034 6261     		str	r2, [r4, #20]
 521:..\..\..\arduinoLCD\test\Pain Drain\libraries\lvgl\src\core/lv_disp.c ****     d->scr_to_load = NULL;
 186              		.loc 1 521 0
 187 0036 2821     		movs	r1, #40
 188 0038 635C     		ldrb	r3, [r4, r1]
ARM GAS  C:\Users\haske\AppData\Local\Temp\ccLw7Foe.s 			page 14


 189 003a 0120     		movs	r0, #1
 190 003c 8343     		bics	r3, r0
 191 003e 6354     		strb	r3, [r4, r1]
 522:..\..\..\arduinoLCD\test\Pain Drain\libraries\lvgl\src\core/lv_disp.c ****     lv_obj_remove_local_style_prop(a->var, LV_STYLE_OPA, 0);
 192              		.loc 1 522 0
 193 0040 A261     		str	r2, [r4, #24]
 523:..\..\..\arduinoLCD\test\Pain Drain\libraries\lvgl\src\core/lv_disp.c ****     lv_obj_invalidate(d->act_scr);
 194              		.loc 1 523 0
 195 0042 2868     		ldr	r0, [r5]
 196 0044 3831     		adds	r1, r1, #56
 197 0046 FFF7FEFF 		bl	lv_obj_remove_local_style_prop
 198              	.LVL19:
 524:..\..\..\arduinoLCD\test\Pain Drain\libraries\lvgl\src\core/lv_disp.c **** }
 199              		.loc 1 524 0
 200 004a 2069     		ldr	r0, [r4, #16]
 201 004c FFF7FEFF 		bl	lv_obj_invalidate
 202              	.LVL20:
 525:..\..\..\arduinoLCD\test\Pain Drain\libraries\lvgl\src\core/lv_disp.c **** 
 203              		.loc 1 525 0
 204              		@ sp needed
 205              	.LVL21:
 206              	.LVL22:
 207 0050 70BD     		pop	{r4, r5, r6, pc}
 208              		.cfi_endproc
 209              	.LFE187:
 210              		.size	scr_anim_ready, .-scr_anim_ready
 211 0052 C046     		.section	.text.scr_load_internal,"ax",%progbits
 212              		.align	2
 213              		.code	16
 214              		.thumb_func
 215              		.type	scr_load_internal, %function
 216              	scr_load_internal:
 217              	.LFB182:
 470:..\..\..\arduinoLCD\test\Pain Drain\libraries\lvgl\src\core/lv_disp.c ****     lv_disp_t * d = lv_obj_get_disp(scr);
 218              		.loc 1 470 0
 219              		.cfi_startproc
 220              		@ args = 0, pretend = 0, frame = 0
 221              		@ frame_needed = 0, uses_anonymous_args = 0
 222              	.LVL23:
 223 0000 70B5     		push	{r4, r5, r6, lr}
 224              		.cfi_def_cfa_offset 16
 225              		.cfi_offset 4, -16
 226              		.cfi_offset 5, -12
 227              		.cfi_offset 6, -8
 228              		.cfi_offset 14, -4
 229 0002 0400     		movs	r4, r0
 471:..\..\..\arduinoLCD\test\Pain Drain\libraries\lvgl\src\core/lv_disp.c ****     if(!d) return;  /*Shouldn't happen, just to be sure*/
 230              		.loc 1 471 0
 231 0004 FFF7FEFF 		bl	lv_obj_get_disp
 232              	.LVL24:
 233 0008 051E     		subs	r5, r0, #0
 234              	.LVL25:
 472:..\..\..\arduinoLCD\test\Pain Drain\libraries\lvgl\src\core/lv_disp.c **** 
 235              		.loc 1 472 0
 236 000a 22D0     		beq	.L7
 474:..\..\..\arduinoLCD\test\Pain Drain\libraries\lvgl\src\core/lv_disp.c **** 
 237              		.loc 1 474 0
ARM GAS  C:\Users\haske\AppData\Local\Temp\ccLw7Foe.s 			page 15


 238 000c 0669     		ldr	r6, [r0, #16]
 239              	.LVL26:
 476:..\..\..\arduinoLCD\test\Pain Drain\libraries\lvgl\src\core/lv_disp.c ****     if(d->act_scr) lv_event_send(scr, LV_EVENT_SCREEN_LOAD_START, NULL);
 240              		.loc 1 476 0
 241 000e 002E     		cmp	r6, #0
 242 0010 04D0     		beq	.L9
 476:..\..\..\arduinoLCD\test\Pain Drain\libraries\lvgl\src\core/lv_disp.c ****     if(d->act_scr) lv_event_send(scr, LV_EVENT_SCREEN_LOAD_START, NULL);
 243              		.loc 1 476 0 is_stmt 0 discriminator 1
 244 0012 0022     		movs	r2, #0
 245 0014 2521     		movs	r1, #37
 246 0016 3000     		movs	r0, r6
 247              	.LVL27:
 248 0018 FFF7FEFF 		bl	lv_event_send
 249              	.LVL28:
 250              	.L9:
 477:..\..\..\arduinoLCD\test\Pain Drain\libraries\lvgl\src\core/lv_disp.c **** 
 251              		.loc 1 477 0 is_stmt 1
 252 001c 2B69     		ldr	r3, [r5, #16]
 253 001e 002B     		cmp	r3, #0
 254 0020 04D0     		beq	.L10
 477:..\..\..\arduinoLCD\test\Pain Drain\libraries\lvgl\src\core/lv_disp.c **** 
 255              		.loc 1 477 0 is_stmt 0 discriminator 1
 256 0022 0022     		movs	r2, #0
 257 0024 2621     		movs	r1, #38
 258 0026 2000     		movs	r0, r4
 259 0028 FFF7FEFF 		bl	lv_event_send
 260              	.LVL29:
 261              	.L10:
 479:..\..\..\arduinoLCD\test\Pain Drain\libraries\lvgl\src\core/lv_disp.c **** 
 262              		.loc 1 479 0 is_stmt 1
 263 002c 2C61     		str	r4, [r5, #16]
 481:..\..\..\arduinoLCD\test\Pain Drain\libraries\lvgl\src\core/lv_disp.c ****     if(d->act_scr) lv_event_send(old_scr, LV_EVENT_SCREEN_UNLOADED, NULL);
 264              		.loc 1 481 0
 265 002e 002C     		cmp	r4, #0
 266 0030 04D0     		beq	.L11
 481:..\..\..\arduinoLCD\test\Pain Drain\libraries\lvgl\src\core/lv_disp.c ****     if(d->act_scr) lv_event_send(old_scr, LV_EVENT_SCREEN_UNLOADED, NULL);
 267              		.loc 1 481 0 is_stmt 0 discriminator 1
 268 0032 0022     		movs	r2, #0
 269 0034 2721     		movs	r1, #39
 270 0036 2000     		movs	r0, r4
 271 0038 FFF7FEFF 		bl	lv_event_send
 272              	.LVL30:
 273              	.L11:
 482:..\..\..\arduinoLCD\test\Pain Drain\libraries\lvgl\src\core/lv_disp.c **** 
 274              		.loc 1 482 0 is_stmt 1
 275 003c 2B69     		ldr	r3, [r5, #16]
 276 003e 002B     		cmp	r3, #0
 277 0040 04D0     		beq	.L12
 482:..\..\..\arduinoLCD\test\Pain Drain\libraries\lvgl\src\core/lv_disp.c **** 
 278              		.loc 1 482 0 is_stmt 0 discriminator 1
 279 0042 0022     		movs	r2, #0
 280 0044 2821     		movs	r1, #40
 281 0046 3000     		movs	r0, r6
 282 0048 FFF7FEFF 		bl	lv_event_send
 283              	.LVL31:
 284              	.L12:
 484:..\..\..\arduinoLCD\test\Pain Drain\libraries\lvgl\src\core/lv_disp.c **** }
ARM GAS  C:\Users\haske\AppData\Local\Temp\ccLw7Foe.s 			page 16


 285              		.loc 1 484 0 is_stmt 1
 286 004c 2000     		movs	r0, r4
 287 004e FFF7FEFF 		bl	lv_obj_invalidate
 288              	.LVL32:
 289              	.L7:
 485:..\..\..\arduinoLCD\test\Pain Drain\libraries\lvgl\src\core/lv_disp.c **** 
 290              		.loc 1 485 0
 291              		@ sp needed
 292              	.LVL33:
 293              	.LVL34:
 294 0052 70BD     		pop	{r4, r5, r6, pc}
 295              		.cfi_endproc
 296              	.LFE182:
 297              		.size	scr_load_internal, .-scr_load_internal
 298              		.section	.text.lv_disp_get_scr_act,"ax",%progbits
 299              		.align	2
 300              		.global	lv_disp_get_scr_act
 301              		.code	16
 302              		.thumb_func
 303              		.type	lv_disp_get_scr_act, %function
 304              	lv_disp_get_scr_act:
 305              	.LFB165:
  51:..\..\..\arduinoLCD\test\Pain Drain\libraries\lvgl\src\core/lv_disp.c ****     if(!disp) disp = lv_disp_get_default();
 306              		.loc 1 51 0
 307              		.cfi_startproc
 308              		@ args = 0, pretend = 0, frame = 0
 309              		@ frame_needed = 0, uses_anonymous_args = 0
 310              	.LVL35:
 311 0000 10B5     		push	{r4, lr}
 312              		.cfi_def_cfa_offset 8
 313              		.cfi_offset 4, -8
 314              		.cfi_offset 14, -4
  52:..\..\..\arduinoLCD\test\Pain Drain\libraries\lvgl\src\core/lv_disp.c ****     if(!disp) {
 315              		.loc 1 52 0
 316 0002 0028     		cmp	r0, #0
 317 0004 01D1     		bne	.L14
  52:..\..\..\arduinoLCD\test\Pain Drain\libraries\lvgl\src\core/lv_disp.c ****     if(!disp) {
 318              		.loc 1 52 0 is_stmt 0 discriminator 1
 319 0006 FFF7FEFF 		bl	lv_disp_get_default
 320              	.LVL36:
 321              	.L14:
  53:..\..\..\arduinoLCD\test\Pain Drain\libraries\lvgl\src\core/lv_disp.c ****         LV_LOG_WARN("no display registered to get its active screen");
 322              		.loc 1 53 0 is_stmt 1
 323 000a 0028     		cmp	r0, #0
 324 000c 01D0     		beq	.L16
  58:..\..\..\arduinoLCD\test\Pain Drain\libraries\lvgl\src\core/lv_disp.c **** }
 325              		.loc 1 58 0
 326 000e 0069     		ldr	r0, [r0, #16]
 327              	.LVL37:
 328 0010 00E0     		b	.L15
 329              	.LVL38:
 330              	.L16:
  55:..\..\..\arduinoLCD\test\Pain Drain\libraries\lvgl\src\core/lv_disp.c ****     }
 331              		.loc 1 55 0
 332 0012 0020     		movs	r0, #0
 333              	.LVL39:
 334              	.L15:
ARM GAS  C:\Users\haske\AppData\Local\Temp\ccLw7Foe.s 			page 17


  59:..\..\..\arduinoLCD\test\Pain Drain\libraries\lvgl\src\core/lv_disp.c **** 
 335              		.loc 1 59 0
 336              		@ sp needed
 337 0014 10BD     		pop	{r4, pc}
 338              		.cfi_endproc
 339              	.LFE165:
 340              		.size	lv_disp_get_scr_act, .-lv_disp_get_scr_act
 341 0016 C046     		.section	.text.scr_load_anim_start,"ax",%progbits
 342              		.align	2
 343              		.code	16
 344              		.thumb_func
 345              		.type	scr_load_anim_start, %function
 346              	scr_load_anim_start:
 347              	.LFB183:
 488:..\..\..\arduinoLCD\test\Pain Drain\libraries\lvgl\src\core/lv_disp.c ****     lv_disp_t * d = lv_obj_get_disp(a->var);
 348              		.loc 1 488 0
 349              		.cfi_startproc
 350              		@ args = 0, pretend = 0, frame = 0
 351              		@ frame_needed = 0, uses_anonymous_args = 0
 352              	.LVL40:
 353 0000 70B5     		push	{r4, r5, r6, lr}
 354              		.cfi_def_cfa_offset 16
 355              		.cfi_offset 4, -16
 356              		.cfi_offset 5, -12
 357              		.cfi_offset 6, -8
 358              		.cfi_offset 14, -4
 359 0002 0500     		movs	r5, r0
 489:..\..\..\arduinoLCD\test\Pain Drain\libraries\lvgl\src\core/lv_disp.c **** 
 360              		.loc 1 489 0
 361 0004 0068     		ldr	r0, [r0]
 362              	.LVL41:
 363 0006 FFF7FEFF 		bl	lv_obj_get_disp
 364              	.LVL42:
 365 000a 0400     		movs	r4, r0
 366              	.LVL43:
 367              	.LBB104:
 368              	.LBB105:
 369              		.file 2 "..\\..\\..\\arduinoLCD\\test\\Pain Drain\\libraries\\lvgl\\src\\core\\lv_disp.h"
   1:..\..\..\arduinoLCD\test\Pain Drain\libraries\lvgl\src\core/lv_disp.h **** /**
   2:..\..\..\arduinoLCD\test\Pain Drain\libraries\lvgl\src\core/lv_disp.h ****  * @file lv_disp.h
   3:..\..\..\arduinoLCD\test\Pain Drain\libraries\lvgl\src\core/lv_disp.h ****  *
   4:..\..\..\arduinoLCD\test\Pain Drain\libraries\lvgl\src\core/lv_disp.h ****  */
   5:..\..\..\arduinoLCD\test\Pain Drain\libraries\lvgl\src\core/lv_disp.h **** 
   6:..\..\..\arduinoLCD\test\Pain Drain\libraries\lvgl\src\core/lv_disp.h **** #ifndef LV_DISP_H
   7:..\..\..\arduinoLCD\test\Pain Drain\libraries\lvgl\src\core/lv_disp.h **** #define LV_DISP_H
   8:..\..\..\arduinoLCD\test\Pain Drain\libraries\lvgl\src\core/lv_disp.h **** 
   9:..\..\..\arduinoLCD\test\Pain Drain\libraries\lvgl\src\core/lv_disp.h **** #ifdef __cplusplus
  10:..\..\..\arduinoLCD\test\Pain Drain\libraries\lvgl\src\core/lv_disp.h **** extern "C" {
  11:..\..\..\arduinoLCD\test\Pain Drain\libraries\lvgl\src\core/lv_disp.h **** #endif
  12:..\..\..\arduinoLCD\test\Pain Drain\libraries\lvgl\src\core/lv_disp.h **** 
  13:..\..\..\arduinoLCD\test\Pain Drain\libraries\lvgl\src\core/lv_disp.h **** /*********************
  14:..\..\..\arduinoLCD\test\Pain Drain\libraries\lvgl\src\core/lv_disp.h ****  *      INCLUDES
  15:..\..\..\arduinoLCD\test\Pain Drain\libraries\lvgl\src\core/lv_disp.h ****  *********************/
  16:..\..\..\arduinoLCD\test\Pain Drain\libraries\lvgl\src\core/lv_disp.h **** #include "../hal/lv_hal.h"
  17:..\..\..\arduinoLCD\test\Pain Drain\libraries\lvgl\src\core/lv_disp.h **** #include "lv_obj.h"
  18:..\..\..\arduinoLCD\test\Pain Drain\libraries\lvgl\src\core/lv_disp.h **** #include "lv_theme.h"
  19:..\..\..\arduinoLCD\test\Pain Drain\libraries\lvgl\src\core/lv_disp.h **** 
ARM GAS  C:\Users\haske\AppData\Local\Temp\ccLw7Foe.s 			page 18


  20:..\..\..\arduinoLCD\test\Pain Drain\libraries\lvgl\src\core/lv_disp.h **** /*********************
  21:..\..\..\arduinoLCD\test\Pain Drain\libraries\lvgl\src\core/lv_disp.h ****  *      DEFINES
  22:..\..\..\arduinoLCD\test\Pain Drain\libraries\lvgl\src\core/lv_disp.h ****  *********************/
  23:..\..\..\arduinoLCD\test\Pain Drain\libraries\lvgl\src\core/lv_disp.h **** 
  24:..\..\..\arduinoLCD\test\Pain Drain\libraries\lvgl\src\core/lv_disp.h **** /**********************
  25:..\..\..\arduinoLCD\test\Pain Drain\libraries\lvgl\src\core/lv_disp.h ****  *      TYPEDEFS
  26:..\..\..\arduinoLCD\test\Pain Drain\libraries\lvgl\src\core/lv_disp.h ****  **********************/
  27:..\..\..\arduinoLCD\test\Pain Drain\libraries\lvgl\src\core/lv_disp.h **** 
  28:..\..\..\arduinoLCD\test\Pain Drain\libraries\lvgl\src\core/lv_disp.h **** typedef enum {
  29:..\..\..\arduinoLCD\test\Pain Drain\libraries\lvgl\src\core/lv_disp.h ****     LV_SCR_LOAD_ANIM_NONE,
  30:..\..\..\arduinoLCD\test\Pain Drain\libraries\lvgl\src\core/lv_disp.h ****     LV_SCR_LOAD_ANIM_OVER_LEFT,
  31:..\..\..\arduinoLCD\test\Pain Drain\libraries\lvgl\src\core/lv_disp.h ****     LV_SCR_LOAD_ANIM_OVER_RIGHT,
  32:..\..\..\arduinoLCD\test\Pain Drain\libraries\lvgl\src\core/lv_disp.h ****     LV_SCR_LOAD_ANIM_OVER_TOP,
  33:..\..\..\arduinoLCD\test\Pain Drain\libraries\lvgl\src\core/lv_disp.h ****     LV_SCR_LOAD_ANIM_OVER_BOTTOM,
  34:..\..\..\arduinoLCD\test\Pain Drain\libraries\lvgl\src\core/lv_disp.h ****     LV_SCR_LOAD_ANIM_MOVE_LEFT,
  35:..\..\..\arduinoLCD\test\Pain Drain\libraries\lvgl\src\core/lv_disp.h ****     LV_SCR_LOAD_ANIM_MOVE_RIGHT,
  36:..\..\..\arduinoLCD\test\Pain Drain\libraries\lvgl\src\core/lv_disp.h ****     LV_SCR_LOAD_ANIM_MOVE_TOP,
  37:..\..\..\arduinoLCD\test\Pain Drain\libraries\lvgl\src\core/lv_disp.h ****     LV_SCR_LOAD_ANIM_MOVE_BOTTOM,
  38:..\..\..\arduinoLCD\test\Pain Drain\libraries\lvgl\src\core/lv_disp.h ****     LV_SCR_LOAD_ANIM_FADE_IN,
  39:..\..\..\arduinoLCD\test\Pain Drain\libraries\lvgl\src\core/lv_disp.h ****     LV_SCR_LOAD_ANIM_FADE_ON = LV_SCR_LOAD_ANIM_FADE_IN, /*For backward compatibility*/
  40:..\..\..\arduinoLCD\test\Pain Drain\libraries\lvgl\src\core/lv_disp.h ****     LV_SCR_LOAD_ANIM_FADE_OUT,
  41:..\..\..\arduinoLCD\test\Pain Drain\libraries\lvgl\src\core/lv_disp.h ****     LV_SCR_LOAD_ANIM_OUT_LEFT,
  42:..\..\..\arduinoLCD\test\Pain Drain\libraries\lvgl\src\core/lv_disp.h ****     LV_SCR_LOAD_ANIM_OUT_RIGHT,
  43:..\..\..\arduinoLCD\test\Pain Drain\libraries\lvgl\src\core/lv_disp.h ****     LV_SCR_LOAD_ANIM_OUT_TOP,
  44:..\..\..\arduinoLCD\test\Pain Drain\libraries\lvgl\src\core/lv_disp.h ****     LV_SCR_LOAD_ANIM_OUT_BOTTOM,
  45:..\..\..\arduinoLCD\test\Pain Drain\libraries\lvgl\src\core/lv_disp.h **** } lv_scr_load_anim_t;
  46:..\..\..\arduinoLCD\test\Pain Drain\libraries\lvgl\src\core/lv_disp.h **** 
  47:..\..\..\arduinoLCD\test\Pain Drain\libraries\lvgl\src\core/lv_disp.h **** /**********************
  48:..\..\..\arduinoLCD\test\Pain Drain\libraries\lvgl\src\core/lv_disp.h ****  * GLOBAL PROTOTYPES
  49:..\..\..\arduinoLCD\test\Pain Drain\libraries\lvgl\src\core/lv_disp.h ****  **********************/
  50:..\..\..\arduinoLCD\test\Pain Drain\libraries\lvgl\src\core/lv_disp.h **** 
  51:..\..\..\arduinoLCD\test\Pain Drain\libraries\lvgl\src\core/lv_disp.h **** /**
  52:..\..\..\arduinoLCD\test\Pain Drain\libraries\lvgl\src\core/lv_disp.h ****  * Return with a pointer to the active screen
  53:..\..\..\arduinoLCD\test\Pain Drain\libraries\lvgl\src\core/lv_disp.h ****  * @param disp pointer to display which active screen should be get. (NULL to use the default
  54:..\..\..\arduinoLCD\test\Pain Drain\libraries\lvgl\src\core/lv_disp.h ****  * screen)
  55:..\..\..\arduinoLCD\test\Pain Drain\libraries\lvgl\src\core/lv_disp.h ****  * @return pointer to the active screen object (loaded by 'lv_scr_load()')
  56:..\..\..\arduinoLCD\test\Pain Drain\libraries\lvgl\src\core/lv_disp.h ****  */
  57:..\..\..\arduinoLCD\test\Pain Drain\libraries\lvgl\src\core/lv_disp.h **** lv_obj_t * lv_disp_get_scr_act(lv_disp_t * disp);
  58:..\..\..\arduinoLCD\test\Pain Drain\libraries\lvgl\src\core/lv_disp.h **** 
  59:..\..\..\arduinoLCD\test\Pain Drain\libraries\lvgl\src\core/lv_disp.h **** /**
  60:..\..\..\arduinoLCD\test\Pain Drain\libraries\lvgl\src\core/lv_disp.h ****  * Return with a pointer to the previous screen. Only used during screen transitions.
  61:..\..\..\arduinoLCD\test\Pain Drain\libraries\lvgl\src\core/lv_disp.h ****  * @param disp pointer to display which previous screen should be get. (NULL to use the default
  62:..\..\..\arduinoLCD\test\Pain Drain\libraries\lvgl\src\core/lv_disp.h ****  * screen)
  63:..\..\..\arduinoLCD\test\Pain Drain\libraries\lvgl\src\core/lv_disp.h ****  * @return pointer to the previous screen object or NULL if not used now
  64:..\..\..\arduinoLCD\test\Pain Drain\libraries\lvgl\src\core/lv_disp.h ****  */
  65:..\..\..\arduinoLCD\test\Pain Drain\libraries\lvgl\src\core/lv_disp.h **** lv_obj_t * lv_disp_get_scr_prev(lv_disp_t * disp);
  66:..\..\..\arduinoLCD\test\Pain Drain\libraries\lvgl\src\core/lv_disp.h **** 
  67:..\..\..\arduinoLCD\test\Pain Drain\libraries\lvgl\src\core/lv_disp.h **** /**
  68:..\..\..\arduinoLCD\test\Pain Drain\libraries\lvgl\src\core/lv_disp.h ****  * Make a screen active
  69:..\..\..\arduinoLCD\test\Pain Drain\libraries\lvgl\src\core/lv_disp.h ****  * @param scr pointer to a screen
  70:..\..\..\arduinoLCD\test\Pain Drain\libraries\lvgl\src\core/lv_disp.h ****  */
  71:..\..\..\arduinoLCD\test\Pain Drain\libraries\lvgl\src\core/lv_disp.h **** void lv_disp_load_scr(lv_obj_t * scr);
  72:..\..\..\arduinoLCD\test\Pain Drain\libraries\lvgl\src\core/lv_disp.h **** 
  73:..\..\..\arduinoLCD\test\Pain Drain\libraries\lvgl\src\core/lv_disp.h **** /**
  74:..\..\..\arduinoLCD\test\Pain Drain\libraries\lvgl\src\core/lv_disp.h ****  * Return with the top layer. (Same on every screen and it is above the normal screen layer)
  75:..\..\..\arduinoLCD\test\Pain Drain\libraries\lvgl\src\core/lv_disp.h ****  * @param disp pointer to display which top layer should be get. (NULL to use the default screen)
  76:..\..\..\arduinoLCD\test\Pain Drain\libraries\lvgl\src\core/lv_disp.h ****  * @return pointer to the top layer object (transparent screen sized lv_obj)
ARM GAS  C:\Users\haske\AppData\Local\Temp\ccLw7Foe.s 			page 19


  77:..\..\..\arduinoLCD\test\Pain Drain\libraries\lvgl\src\core/lv_disp.h ****  */
  78:..\..\..\arduinoLCD\test\Pain Drain\libraries\lvgl\src\core/lv_disp.h **** lv_obj_t * lv_disp_get_layer_top(lv_disp_t * disp);
  79:..\..\..\arduinoLCD\test\Pain Drain\libraries\lvgl\src\core/lv_disp.h **** 
  80:..\..\..\arduinoLCD\test\Pain Drain\libraries\lvgl\src\core/lv_disp.h **** /**
  81:..\..\..\arduinoLCD\test\Pain Drain\libraries\lvgl\src\core/lv_disp.h ****  * Return with the sys. layer. (Same on every screen and it is above the normal screen and the top
  82:..\..\..\arduinoLCD\test\Pain Drain\libraries\lvgl\src\core/lv_disp.h ****  * layer)
  83:..\..\..\arduinoLCD\test\Pain Drain\libraries\lvgl\src\core/lv_disp.h ****  * @param disp pointer to display which sys. layer should be retrieved. (NULL to use the default sc
  84:..\..\..\arduinoLCD\test\Pain Drain\libraries\lvgl\src\core/lv_disp.h ****  * @return pointer to the sys layer object (transparent screen sized lv_obj)
  85:..\..\..\arduinoLCD\test\Pain Drain\libraries\lvgl\src\core/lv_disp.h ****  */
  86:..\..\..\arduinoLCD\test\Pain Drain\libraries\lvgl\src\core/lv_disp.h **** lv_obj_t * lv_disp_get_layer_sys(lv_disp_t * disp);
  87:..\..\..\arduinoLCD\test\Pain Drain\libraries\lvgl\src\core/lv_disp.h **** 
  88:..\..\..\arduinoLCD\test\Pain Drain\libraries\lvgl\src\core/lv_disp.h **** /**
  89:..\..\..\arduinoLCD\test\Pain Drain\libraries\lvgl\src\core/lv_disp.h ****  * Set the theme of a display
  90:..\..\..\arduinoLCD\test\Pain Drain\libraries\lvgl\src\core/lv_disp.h ****  * @param disp pointer to a display
  91:..\..\..\arduinoLCD\test\Pain Drain\libraries\lvgl\src\core/lv_disp.h ****  */
  92:..\..\..\arduinoLCD\test\Pain Drain\libraries\lvgl\src\core/lv_disp.h **** void lv_disp_set_theme(lv_disp_t * disp, lv_theme_t * th);
  93:..\..\..\arduinoLCD\test\Pain Drain\libraries\lvgl\src\core/lv_disp.h **** 
  94:..\..\..\arduinoLCD\test\Pain Drain\libraries\lvgl\src\core/lv_disp.h **** /**
  95:..\..\..\arduinoLCD\test\Pain Drain\libraries\lvgl\src\core/lv_disp.h ****  * Get the theme of a display
  96:..\..\..\arduinoLCD\test\Pain Drain\libraries\lvgl\src\core/lv_disp.h ****  * @param disp pointer to a display
  97:..\..\..\arduinoLCD\test\Pain Drain\libraries\lvgl\src\core/lv_disp.h ****  * @return the display's theme (can be NULL)
  98:..\..\..\arduinoLCD\test\Pain Drain\libraries\lvgl\src\core/lv_disp.h ****  */
  99:..\..\..\arduinoLCD\test\Pain Drain\libraries\lvgl\src\core/lv_disp.h **** lv_theme_t * lv_disp_get_theme(lv_disp_t * disp);
 100:..\..\..\arduinoLCD\test\Pain Drain\libraries\lvgl\src\core/lv_disp.h **** 
 101:..\..\..\arduinoLCD\test\Pain Drain\libraries\lvgl\src\core/lv_disp.h **** /**
 102:..\..\..\arduinoLCD\test\Pain Drain\libraries\lvgl\src\core/lv_disp.h ****  * Set the background color of a display
 103:..\..\..\arduinoLCD\test\Pain Drain\libraries\lvgl\src\core/lv_disp.h ****  * @param disp pointer to a display
 104:..\..\..\arduinoLCD\test\Pain Drain\libraries\lvgl\src\core/lv_disp.h ****  * @param color color of the background
 105:..\..\..\arduinoLCD\test\Pain Drain\libraries\lvgl\src\core/lv_disp.h ****  */
 106:..\..\..\arduinoLCD\test\Pain Drain\libraries\lvgl\src\core/lv_disp.h **** void lv_disp_set_bg_color(lv_disp_t * disp, lv_color_t color);
 107:..\..\..\arduinoLCD\test\Pain Drain\libraries\lvgl\src\core/lv_disp.h **** 
 108:..\..\..\arduinoLCD\test\Pain Drain\libraries\lvgl\src\core/lv_disp.h **** /**
 109:..\..\..\arduinoLCD\test\Pain Drain\libraries\lvgl\src\core/lv_disp.h ****  * Set the background image of a display
 110:..\..\..\arduinoLCD\test\Pain Drain\libraries\lvgl\src\core/lv_disp.h ****  * @param disp pointer to a display
 111:..\..\..\arduinoLCD\test\Pain Drain\libraries\lvgl\src\core/lv_disp.h ****  * @param img_src path to file or pointer to an `lv_img_dsc_t` variable
 112:..\..\..\arduinoLCD\test\Pain Drain\libraries\lvgl\src\core/lv_disp.h ****  */
 113:..\..\..\arduinoLCD\test\Pain Drain\libraries\lvgl\src\core/lv_disp.h **** void lv_disp_set_bg_image(lv_disp_t * disp, const void  * img_src);
 114:..\..\..\arduinoLCD\test\Pain Drain\libraries\lvgl\src\core/lv_disp.h **** 
 115:..\..\..\arduinoLCD\test\Pain Drain\libraries\lvgl\src\core/lv_disp.h **** /**
 116:..\..\..\arduinoLCD\test\Pain Drain\libraries\lvgl\src\core/lv_disp.h ****  * Set opacity of the background
 117:..\..\..\arduinoLCD\test\Pain Drain\libraries\lvgl\src\core/lv_disp.h ****  * @param disp pointer to a display
 118:..\..\..\arduinoLCD\test\Pain Drain\libraries\lvgl\src\core/lv_disp.h ****  * @param opa opacity (0..255)
 119:..\..\..\arduinoLCD\test\Pain Drain\libraries\lvgl\src\core/lv_disp.h ****  */
 120:..\..\..\arduinoLCD\test\Pain Drain\libraries\lvgl\src\core/lv_disp.h **** void lv_disp_set_bg_opa(lv_disp_t * disp, lv_opa_t opa);
 121:..\..\..\arduinoLCD\test\Pain Drain\libraries\lvgl\src\core/lv_disp.h **** 
 122:..\..\..\arduinoLCD\test\Pain Drain\libraries\lvgl\src\core/lv_disp.h **** /**
 123:..\..\..\arduinoLCD\test\Pain Drain\libraries\lvgl\src\core/lv_disp.h ****  * Switch screen with animation
 124:..\..\..\arduinoLCD\test\Pain Drain\libraries\lvgl\src\core/lv_disp.h ****  * @param scr pointer to the new screen to load
 125:..\..\..\arduinoLCD\test\Pain Drain\libraries\lvgl\src\core/lv_disp.h ****  * @param anim_type type of the animation from `lv_scr_load_anim_t`, e.g. `LV_SCR_LOAD_ANIM_MOVE_LE
 126:..\..\..\arduinoLCD\test\Pain Drain\libraries\lvgl\src\core/lv_disp.h ****  * @param time time of the animation
 127:..\..\..\arduinoLCD\test\Pain Drain\libraries\lvgl\src\core/lv_disp.h ****  * @param delay delay before the transition
 128:..\..\..\arduinoLCD\test\Pain Drain\libraries\lvgl\src\core/lv_disp.h ****  * @param auto_del true: automatically delete the old screen
 129:..\..\..\arduinoLCD\test\Pain Drain\libraries\lvgl\src\core/lv_disp.h ****  */
 130:..\..\..\arduinoLCD\test\Pain Drain\libraries\lvgl\src\core/lv_disp.h **** void lv_scr_load_anim(lv_obj_t * scr, lv_scr_load_anim_t anim_type, uint32_t time, uint32_t delay, 
 131:..\..\..\arduinoLCD\test\Pain Drain\libraries\lvgl\src\core/lv_disp.h **** 
 132:..\..\..\arduinoLCD\test\Pain Drain\libraries\lvgl\src\core/lv_disp.h **** /**
 133:..\..\..\arduinoLCD\test\Pain Drain\libraries\lvgl\src\core/lv_disp.h ****  * Get elapsed time since last user activity on a display (e.g. click)
ARM GAS  C:\Users\haske\AppData\Local\Temp\ccLw7Foe.s 			page 20


 134:..\..\..\arduinoLCD\test\Pain Drain\libraries\lvgl\src\core/lv_disp.h ****  * @param disp pointer to a display (NULL to get the overall smallest inactivity)
 135:..\..\..\arduinoLCD\test\Pain Drain\libraries\lvgl\src\core/lv_disp.h ****  * @return elapsed ticks (milliseconds) since the last activity
 136:..\..\..\arduinoLCD\test\Pain Drain\libraries\lvgl\src\core/lv_disp.h ****  */
 137:..\..\..\arduinoLCD\test\Pain Drain\libraries\lvgl\src\core/lv_disp.h **** uint32_t lv_disp_get_inactive_time(const lv_disp_t * disp);
 138:..\..\..\arduinoLCD\test\Pain Drain\libraries\lvgl\src\core/lv_disp.h **** 
 139:..\..\..\arduinoLCD\test\Pain Drain\libraries\lvgl\src\core/lv_disp.h **** /**
 140:..\..\..\arduinoLCD\test\Pain Drain\libraries\lvgl\src\core/lv_disp.h ****  * Manually trigger an activity on a display
 141:..\..\..\arduinoLCD\test\Pain Drain\libraries\lvgl\src\core/lv_disp.h ****  * @param disp pointer to a display (NULL to use the default display)
 142:..\..\..\arduinoLCD\test\Pain Drain\libraries\lvgl\src\core/lv_disp.h ****  */
 143:..\..\..\arduinoLCD\test\Pain Drain\libraries\lvgl\src\core/lv_disp.h **** void lv_disp_trig_activity(lv_disp_t * disp);
 144:..\..\..\arduinoLCD\test\Pain Drain\libraries\lvgl\src\core/lv_disp.h **** 
 145:..\..\..\arduinoLCD\test\Pain Drain\libraries\lvgl\src\core/lv_disp.h **** /**
 146:..\..\..\arduinoLCD\test\Pain Drain\libraries\lvgl\src\core/lv_disp.h ****  * Clean any CPU cache that is related to the display.
 147:..\..\..\arduinoLCD\test\Pain Drain\libraries\lvgl\src\core/lv_disp.h ****  * @param disp pointer to a display (NULL to use the default display)
 148:..\..\..\arduinoLCD\test\Pain Drain\libraries\lvgl\src\core/lv_disp.h ****  */
 149:..\..\..\arduinoLCD\test\Pain Drain\libraries\lvgl\src\core/lv_disp.h **** void lv_disp_clean_dcache(lv_disp_t * disp);
 150:..\..\..\arduinoLCD\test\Pain Drain\libraries\lvgl\src\core/lv_disp.h **** 
 151:..\..\..\arduinoLCD\test\Pain Drain\libraries\lvgl\src\core/lv_disp.h **** /**
 152:..\..\..\arduinoLCD\test\Pain Drain\libraries\lvgl\src\core/lv_disp.h ****  * Temporarily enable and disable the invalidation of the display.
 153:..\..\..\arduinoLCD\test\Pain Drain\libraries\lvgl\src\core/lv_disp.h ****  * @param disp pointer to a display (NULL to use the default display)
 154:..\..\..\arduinoLCD\test\Pain Drain\libraries\lvgl\src\core/lv_disp.h ****  * @param en true: enable invalidation; false: invalidation
 155:..\..\..\arduinoLCD\test\Pain Drain\libraries\lvgl\src\core/lv_disp.h ****  */
 156:..\..\..\arduinoLCD\test\Pain Drain\libraries\lvgl\src\core/lv_disp.h **** void lv_disp_enable_invalidation(lv_disp_t * disp, bool en);
 157:..\..\..\arduinoLCD\test\Pain Drain\libraries\lvgl\src\core/lv_disp.h **** 
 158:..\..\..\arduinoLCD\test\Pain Drain\libraries\lvgl\src\core/lv_disp.h **** /**
 159:..\..\..\arduinoLCD\test\Pain Drain\libraries\lvgl\src\core/lv_disp.h ****  * Get display invalidation is enabled.
 160:..\..\..\arduinoLCD\test\Pain Drain\libraries\lvgl\src\core/lv_disp.h ****  * @param disp pointer to a display (NULL to use the default display)
 161:..\..\..\arduinoLCD\test\Pain Drain\libraries\lvgl\src\core/lv_disp.h ****  * @return return true if invalidation is enabled
 162:..\..\..\arduinoLCD\test\Pain Drain\libraries\lvgl\src\core/lv_disp.h ****  */
 163:..\..\..\arduinoLCD\test\Pain Drain\libraries\lvgl\src\core/lv_disp.h **** bool lv_disp_is_invalidation_enabled(lv_disp_t * disp);
 164:..\..\..\arduinoLCD\test\Pain Drain\libraries\lvgl\src\core/lv_disp.h **** 
 165:..\..\..\arduinoLCD\test\Pain Drain\libraries\lvgl\src\core/lv_disp.h **** /**
 166:..\..\..\arduinoLCD\test\Pain Drain\libraries\lvgl\src\core/lv_disp.h ****  * Get a pointer to the screen refresher timer to
 167:..\..\..\arduinoLCD\test\Pain Drain\libraries\lvgl\src\core/lv_disp.h ****  * modify its parameters with `lv_timer_...` functions.
 168:..\..\..\arduinoLCD\test\Pain Drain\libraries\lvgl\src\core/lv_disp.h ****  * @param disp pointer to a display
 169:..\..\..\arduinoLCD\test\Pain Drain\libraries\lvgl\src\core/lv_disp.h ****  * @return pointer to the display refresher timer. (NULL on error)
 170:..\..\..\arduinoLCD\test\Pain Drain\libraries\lvgl\src\core/lv_disp.h ****  */
 171:..\..\..\arduinoLCD\test\Pain Drain\libraries\lvgl\src\core/lv_disp.h **** lv_timer_t * _lv_disp_get_refr_timer(lv_disp_t * disp);
 172:..\..\..\arduinoLCD\test\Pain Drain\libraries\lvgl\src\core/lv_disp.h **** 
 173:..\..\..\arduinoLCD\test\Pain Drain\libraries\lvgl\src\core/lv_disp.h **** /*------------------------------------------------
 174:..\..\..\arduinoLCD\test\Pain Drain\libraries\lvgl\src\core/lv_disp.h ****  * To improve backward compatibility
 175:..\..\..\arduinoLCD\test\Pain Drain\libraries\lvgl\src\core/lv_disp.h ****  * Recommended only if you have one display
 176:..\..\..\arduinoLCD\test\Pain Drain\libraries\lvgl\src\core/lv_disp.h ****  *------------------------------------------------*/
 177:..\..\..\arduinoLCD\test\Pain Drain\libraries\lvgl\src\core/lv_disp.h **** 
 178:..\..\..\arduinoLCD\test\Pain Drain\libraries\lvgl\src\core/lv_disp.h **** /**
 179:..\..\..\arduinoLCD\test\Pain Drain\libraries\lvgl\src\core/lv_disp.h ****  * Get the active screen of the default display
 180:..\..\..\arduinoLCD\test\Pain Drain\libraries\lvgl\src\core/lv_disp.h ****  * @return pointer to the active screen
 181:..\..\..\arduinoLCD\test\Pain Drain\libraries\lvgl\src\core/lv_disp.h ****  */
 182:..\..\..\arduinoLCD\test\Pain Drain\libraries\lvgl\src\core/lv_disp.h **** static inline lv_obj_t * lv_scr_act(void)
 183:..\..\..\arduinoLCD\test\Pain Drain\libraries\lvgl\src\core/lv_disp.h **** {
 184:..\..\..\arduinoLCD\test\Pain Drain\libraries\lvgl\src\core/lv_disp.h ****     return lv_disp_get_scr_act(lv_disp_get_default());
 370              		.loc 2 184 0
 371 000c FFF7FEFF 		bl	lv_disp_get_default
 372              	.LVL44:
 373 0010 FFF7FEFF 		bl	lv_disp_get_scr_act
 374              	.LVL45:
 375              	.LBE105:
ARM GAS  C:\Users\haske\AppData\Local\Temp\ccLw7Foe.s 			page 21


 376              	.LBE104:
 491:..\..\..\arduinoLCD\test\Pain Drain\libraries\lvgl\src\core/lv_disp.c ****     d->act_scr = a->var;
 377              		.loc 1 491 0
 378 0014 6061     		str	r0, [r4, #20]
 492:..\..\..\arduinoLCD\test\Pain Drain\libraries\lvgl\src\core/lv_disp.c **** 
 379              		.loc 1 492 0
 380 0016 2868     		ldr	r0, [r5]
 381 0018 2061     		str	r0, [r4, #16]
 494:..\..\..\arduinoLCD\test\Pain Drain\libraries\lvgl\src\core/lv_disp.c **** }
 382              		.loc 1 494 0
 383 001a 0022     		movs	r2, #0
 384 001c 2621     		movs	r1, #38
 385 001e FFF7FEFF 		bl	lv_event_send
 386              	.LVL46:
 495:..\..\..\arduinoLCD\test\Pain Drain\libraries\lvgl\src\core/lv_disp.c **** 
 387              		.loc 1 495 0
 388              		@ sp needed
 389              	.LVL47:
 390              	.LVL48:
 391 0022 70BD     		pop	{r4, r5, r6, pc}
 392              		.cfi_endproc
 393              	.LFE183:
 394              		.size	scr_load_anim_start, .-scr_load_anim_start
 395              		.section	.text.lv_disp_get_scr_prev,"ax",%progbits
 396              		.align	2
 397              		.global	lv_disp_get_scr_prev
 398              		.code	16
 399              		.thumb_func
 400              		.type	lv_disp_get_scr_prev, %function
 401              	lv_disp_get_scr_prev:
 402              	.LFB166:
  68:..\..\..\arduinoLCD\test\Pain Drain\libraries\lvgl\src\core/lv_disp.c ****     if(!disp) disp = lv_disp_get_default();
 403              		.loc 1 68 0
 404              		.cfi_startproc
 405              		@ args = 0, pretend = 0, frame = 0
 406              		@ frame_needed = 0, uses_anonymous_args = 0
 407              	.LVL49:
 408 0000 10B5     		push	{r4, lr}
 409              		.cfi_def_cfa_offset 8
 410              		.cfi_offset 4, -8
 411              		.cfi_offset 14, -4
  69:..\..\..\arduinoLCD\test\Pain Drain\libraries\lvgl\src\core/lv_disp.c ****     if(!disp) {
 412              		.loc 1 69 0
 413 0002 0028     		cmp	r0, #0
 414 0004 01D1     		bne	.L19
  69:..\..\..\arduinoLCD\test\Pain Drain\libraries\lvgl\src\core/lv_disp.c ****     if(!disp) {
 415              		.loc 1 69 0 is_stmt 0 discriminator 1
 416 0006 FFF7FEFF 		bl	lv_disp_get_default
 417              	.LVL50:
 418              	.L19:
  70:..\..\..\arduinoLCD\test\Pain Drain\libraries\lvgl\src\core/lv_disp.c ****         LV_LOG_WARN("no display registered to get its previous screen");
 419              		.loc 1 70 0 is_stmt 1
 420 000a 0028     		cmp	r0, #0
 421 000c 01D0     		beq	.L21
  75:..\..\..\arduinoLCD\test\Pain Drain\libraries\lvgl\src\core/lv_disp.c **** }
 422              		.loc 1 75 0
 423 000e 4069     		ldr	r0, [r0, #20]
ARM GAS  C:\Users\haske\AppData\Local\Temp\ccLw7Foe.s 			page 22


 424              	.LVL51:
 425 0010 00E0     		b	.L20
 426              	.LVL52:
 427              	.L21:
  72:..\..\..\arduinoLCD\test\Pain Drain\libraries\lvgl\src\core/lv_disp.c ****     }
 428              		.loc 1 72 0
 429 0012 0020     		movs	r0, #0
 430              	.LVL53:
 431              	.L20:
  76:..\..\..\arduinoLCD\test\Pain Drain\libraries\lvgl\src\core/lv_disp.c **** 
 432              		.loc 1 76 0
 433              		@ sp needed
 434 0014 10BD     		pop	{r4, pc}
 435              		.cfi_endproc
 436              	.LFE166:
 437              		.size	lv_disp_get_scr_prev, .-lv_disp_get_scr_prev
 438 0016 C046     		.section	.text.lv_disp_get_layer_top,"ax",%progbits
 439              		.align	2
 440              		.global	lv_disp_get_layer_top
 441              		.code	16
 442              		.thumb_func
 443              		.type	lv_disp_get_layer_top, %function
 444              	lv_disp_get_layer_top:
 445              	.LFB168:
  93:..\..\..\arduinoLCD\test\Pain Drain\libraries\lvgl\src\core/lv_disp.c ****     if(!disp) disp = lv_disp_get_default();
 446              		.loc 1 93 0
 447              		.cfi_startproc
 448              		@ args = 0, pretend = 0, frame = 0
 449              		@ frame_needed = 0, uses_anonymous_args = 0
 450              	.LVL54:
 451 0000 10B5     		push	{r4, lr}
 452              		.cfi_def_cfa_offset 8
 453              		.cfi_offset 4, -8
 454              		.cfi_offset 14, -4
  94:..\..\..\arduinoLCD\test\Pain Drain\libraries\lvgl\src\core/lv_disp.c ****     if(!disp) {
 455              		.loc 1 94 0
 456 0002 0028     		cmp	r0, #0
 457 0004 01D1     		bne	.L23
  94:..\..\..\arduinoLCD\test\Pain Drain\libraries\lvgl\src\core/lv_disp.c ****     if(!disp) {
 458              		.loc 1 94 0 is_stmt 0 discriminator 1
 459 0006 FFF7FEFF 		bl	lv_disp_get_default
 460              	.LVL55:
 461              	.L23:
  95:..\..\..\arduinoLCD\test\Pain Drain\libraries\lvgl\src\core/lv_disp.c ****         LV_LOG_WARN("lv_layer_top: no display registered to get its top layer");
 462              		.loc 1 95 0 is_stmt 1
 463 000a 0028     		cmp	r0, #0
 464 000c 01D0     		beq	.L25
 100:..\..\..\arduinoLCD\test\Pain Drain\libraries\lvgl\src\core/lv_disp.c **** }
 465              		.loc 1 100 0
 466 000e C069     		ldr	r0, [r0, #28]
 467              	.LVL56:
 468 0010 00E0     		b	.L24
 469              	.LVL57:
 470              	.L25:
  97:..\..\..\arduinoLCD\test\Pain Drain\libraries\lvgl\src\core/lv_disp.c ****     }
 471              		.loc 1 97 0
 472 0012 0020     		movs	r0, #0
ARM GAS  C:\Users\haske\AppData\Local\Temp\ccLw7Foe.s 			page 23


 473              	.LVL58:
 474              	.L24:
 101:..\..\..\arduinoLCD\test\Pain Drain\libraries\lvgl\src\core/lv_disp.c **** 
 475              		.loc 1 101 0
 476              		@ sp needed
 477 0014 10BD     		pop	{r4, pc}
 478              		.cfi_endproc
 479              	.LFE168:
 480              		.size	lv_disp_get_layer_top, .-lv_disp_get_layer_top
 481 0016 C046     		.section	.text.lv_disp_get_layer_sys,"ax",%progbits
 482              		.align	2
 483              		.global	lv_disp_get_layer_sys
 484              		.code	16
 485              		.thumb_func
 486              		.type	lv_disp_get_layer_sys, %function
 487              	lv_disp_get_layer_sys:
 488              	.LFB169:
 110:..\..\..\arduinoLCD\test\Pain Drain\libraries\lvgl\src\core/lv_disp.c ****     if(!disp) disp = lv_disp_get_default();
 489              		.loc 1 110 0
 490              		.cfi_startproc
 491              		@ args = 0, pretend = 0, frame = 0
 492              		@ frame_needed = 0, uses_anonymous_args = 0
 493              	.LVL59:
 494 0000 10B5     		push	{r4, lr}
 495              		.cfi_def_cfa_offset 8
 496              		.cfi_offset 4, -8
 497              		.cfi_offset 14, -4
 111:..\..\..\arduinoLCD\test\Pain Drain\libraries\lvgl\src\core/lv_disp.c ****     if(!disp) {
 498              		.loc 1 111 0
 499 0002 0028     		cmp	r0, #0
 500 0004 01D1     		bne	.L27
 111:..\..\..\arduinoLCD\test\Pain Drain\libraries\lvgl\src\core/lv_disp.c ****     if(!disp) {
 501              		.loc 1 111 0 is_stmt 0 discriminator 1
 502 0006 FFF7FEFF 		bl	lv_disp_get_default
 503              	.LVL60:
 504              	.L27:
 112:..\..\..\arduinoLCD\test\Pain Drain\libraries\lvgl\src\core/lv_disp.c ****         LV_LOG_WARN("lv_layer_sys: no display registered to get its sys. layer");
 505              		.loc 1 112 0 is_stmt 1
 506 000a 0028     		cmp	r0, #0
 507 000c 01D0     		beq	.L29
 117:..\..\..\arduinoLCD\test\Pain Drain\libraries\lvgl\src\core/lv_disp.c **** }
 508              		.loc 1 117 0
 509 000e 006A     		ldr	r0, [r0, #32]
 510              	.LVL61:
 511 0010 00E0     		b	.L28
 512              	.LVL62:
 513              	.L29:
 114:..\..\..\arduinoLCD\test\Pain Drain\libraries\lvgl\src\core/lv_disp.c ****     }
 514              		.loc 1 114 0
 515 0012 0020     		movs	r0, #0
 516              	.LVL63:
 517              	.L28:
 118:..\..\..\arduinoLCD\test\Pain Drain\libraries\lvgl\src\core/lv_disp.c **** 
 518              		.loc 1 118 0
 519              		@ sp needed
 520 0014 10BD     		pop	{r4, pc}
 521              		.cfi_endproc
ARM GAS  C:\Users\haske\AppData\Local\Temp\ccLw7Foe.s 			page 24


 522              	.LFE169:
 523              		.size	lv_disp_get_layer_sys, .-lv_disp_get_layer_sys
 524 0016 C046     		.section	.text.lv_disp_set_theme,"ax",%progbits
 525              		.align	2
 526              		.global	lv_disp_set_theme
 527              		.code	16
 528              		.thumb_func
 529              		.type	lv_disp_set_theme, %function
 530              	lv_disp_set_theme:
 531              	.LFB170:
 125:..\..\..\arduinoLCD\test\Pain Drain\libraries\lvgl\src\core/lv_disp.c ****     if(!disp) disp = lv_disp_get_default();
 532              		.loc 1 125 0
 533              		.cfi_startproc
 534              		@ args = 0, pretend = 0, frame = 0
 535              		@ frame_needed = 0, uses_anonymous_args = 0
 536              	.LVL64:
 537 0000 70B5     		push	{r4, r5, r6, lr}
 538              		.cfi_def_cfa_offset 16
 539              		.cfi_offset 4, -16
 540              		.cfi_offset 5, -12
 541              		.cfi_offset 6, -8
 542              		.cfi_offset 14, -4
 543 0002 0400     		movs	r4, r0
 544 0004 0D00     		movs	r5, r1
 126:..\..\..\arduinoLCD\test\Pain Drain\libraries\lvgl\src\core/lv_disp.c ****     if(!disp) {
 545              		.loc 1 126 0
 546 0006 0028     		cmp	r0, #0
 547 0008 02D1     		bne	.L31
 126:..\..\..\arduinoLCD\test\Pain Drain\libraries\lvgl\src\core/lv_disp.c ****     if(!disp) {
 548              		.loc 1 126 0 is_stmt 0 discriminator 1
 549 000a FFF7FEFF 		bl	lv_disp_get_default
 550              	.LVL65:
 551 000e 0400     		movs	r4, r0
 552              	.LVL66:
 553              	.L31:
 127:..\..\..\arduinoLCD\test\Pain Drain\libraries\lvgl\src\core/lv_disp.c ****         LV_LOG_WARN("no display registered");
 554              		.loc 1 127 0 is_stmt 1
 555 0010 002C     		cmp	r4, #0
 556 0012 19D0     		beq	.L30
 132:..\..\..\arduinoLCD\test\Pain Drain\libraries\lvgl\src\core/lv_disp.c **** 
 557              		.loc 1 132 0
 558 0014 A560     		str	r5, [r4, #8]
 134:..\..\..\arduinoLCD\test\Pain Drain\libraries\lvgl\src\core/lv_disp.c ****        lv_obj_get_child_cnt(disp->screens[0]) == 0 &&
 559              		.loc 1 134 0
 560 0016 636A     		ldr	r3, [r4, #36]
 561 0018 032B     		cmp	r3, #3
 562 001a 15D1     		bne	.L30
 135:..\..\..\arduinoLCD\test\Pain Drain\libraries\lvgl\src\core/lv_disp.c ****        lv_obj_get_child_cnt(disp->screens[1]) == 0 &&
 563              		.loc 1 135 0 discriminator 1
 564 001c E368     		ldr	r3, [r4, #12]
 565 001e 1868     		ldr	r0, [r3]
 566              	.LVL67:
 567 0020 FFF7FEFF 		bl	lv_obj_get_child_cnt
 568              	.LVL68:
 134:..\..\..\arduinoLCD\test\Pain Drain\libraries\lvgl\src\core/lv_disp.c ****        lv_obj_get_child_cnt(disp->screens[0]) == 0 &&
 569              		.loc 1 134 0 discriminator 1
 570 0024 0028     		cmp	r0, #0
ARM GAS  C:\Users\haske\AppData\Local\Temp\ccLw7Foe.s 			page 25


 571 0026 0FD1     		bne	.L30
 136:..\..\..\arduinoLCD\test\Pain Drain\libraries\lvgl\src\core/lv_disp.c ****        lv_obj_get_child_cnt(disp->screens[2]) == 0) {
 572              		.loc 1 136 0
 573 0028 E368     		ldr	r3, [r4, #12]
 574 002a 5868     		ldr	r0, [r3, #4]
 575 002c FFF7FEFF 		bl	lv_obj_get_child_cnt
 576              	.LVL69:
 135:..\..\..\arduinoLCD\test\Pain Drain\libraries\lvgl\src\core/lv_disp.c ****        lv_obj_get_child_cnt(disp->screens[1]) == 0 &&
 577              		.loc 1 135 0
 578 0030 0028     		cmp	r0, #0
 579 0032 09D1     		bne	.L30
 137:..\..\..\arduinoLCD\test\Pain Drain\libraries\lvgl\src\core/lv_disp.c ****         lv_theme_apply(disp->screens[0]);
 580              		.loc 1 137 0
 581 0034 E368     		ldr	r3, [r4, #12]
 582 0036 9868     		ldr	r0, [r3, #8]
 583 0038 FFF7FEFF 		bl	lv_obj_get_child_cnt
 584              	.LVL70:
 136:..\..\..\arduinoLCD\test\Pain Drain\libraries\lvgl\src\core/lv_disp.c ****        lv_obj_get_child_cnt(disp->screens[2]) == 0) {
 585              		.loc 1 136 0
 586 003c 0028     		cmp	r0, #0
 587 003e 03D1     		bne	.L30
 138:..\..\..\arduinoLCD\test\Pain Drain\libraries\lvgl\src\core/lv_disp.c ****     }
 588              		.loc 1 138 0
 589 0040 E368     		ldr	r3, [r4, #12]
 590 0042 1868     		ldr	r0, [r3]
 591 0044 FFF7FEFF 		bl	lv_theme_apply
 592              	.LVL71:
 593              	.L30:
 140:..\..\..\arduinoLCD\test\Pain Drain\libraries\lvgl\src\core/lv_disp.c **** /**
 594              		.loc 1 140 0
 595              		@ sp needed
 596              	.LVL72:
 597              	.LVL73:
 598 0048 70BD     		pop	{r4, r5, r6, pc}
 599              		.cfi_endproc
 600              	.LFE170:
 601              		.size	lv_disp_set_theme, .-lv_disp_set_theme
 602 004a C046     		.section	.text.lv_disp_get_theme,"ax",%progbits
 603              		.align	2
 604              		.global	lv_disp_get_theme
 605              		.code	16
 606              		.thumb_func
 607              		.type	lv_disp_get_theme, %function
 608              	lv_disp_get_theme:
 609              	.LFB171:
 147:..\..\..\arduinoLCD\test\Pain Drain\libraries\lvgl\src\core/lv_disp.c ****     if(disp == NULL) disp = lv_disp_get_default();
 610              		.loc 1 147 0
 611              		.cfi_startproc
 612              		@ args = 0, pretend = 0, frame = 0
 613              		@ frame_needed = 0, uses_anonymous_args = 0
 614              	.LVL74:
 615 0000 10B5     		push	{r4, lr}
 616              		.cfi_def_cfa_offset 8
 617              		.cfi_offset 4, -8
 618              		.cfi_offset 14, -4
 148:..\..\..\arduinoLCD\test\Pain Drain\libraries\lvgl\src\core/lv_disp.c ****     return disp->theme;
 619              		.loc 1 148 0
ARM GAS  C:\Users\haske\AppData\Local\Temp\ccLw7Foe.s 			page 26


 620 0002 0028     		cmp	r0, #0
 621 0004 01D1     		bne	.L34
 148:..\..\..\arduinoLCD\test\Pain Drain\libraries\lvgl\src\core/lv_disp.c ****     return disp->theme;
 622              		.loc 1 148 0 is_stmt 0 discriminator 1
 623 0006 FFF7FEFF 		bl	lv_disp_get_default
 624              	.LVL75:
 625              	.L34:
 149:..\..\..\arduinoLCD\test\Pain Drain\libraries\lvgl\src\core/lv_disp.c **** }
 626              		.loc 1 149 0 is_stmt 1
 627 000a 8068     		ldr	r0, [r0, #8]
 628              	.LVL76:
 150:..\..\..\arduinoLCD\test\Pain Drain\libraries\lvgl\src\core/lv_disp.c **** 
 629              		.loc 1 150 0
 630              		@ sp needed
 631 000c 10BD     		pop	{r4, pc}
 632              		.cfi_endproc
 633              	.LFE171:
 634              		.size	lv_disp_get_theme, .-lv_disp_get_theme
 635 000e C046     		.section	.text.lv_disp_set_bg_color,"ax",%progbits
 636              		.align	2
 637              		.global	lv_disp_set_bg_color
 638              		.code	16
 639              		.thumb_func
 640              		.type	lv_disp_set_bg_color, %function
 641              	lv_disp_set_bg_color:
 642              	.LFB172:
 158:..\..\..\arduinoLCD\test\Pain Drain\libraries\lvgl\src\core/lv_disp.c ****     if(!disp) disp = lv_disp_get_default();
 643              		.loc 1 158 0
 644              		.cfi_startproc
 645              		@ args = 0, pretend = 0, frame = 8
 646              		@ frame_needed = 0, uses_anonymous_args = 0
 647              	.LVL77:
 648 0000 30B5     		push	{r4, r5, lr}
 649              		.cfi_def_cfa_offset 12
 650              		.cfi_offset 4, -12
 651              		.cfi_offset 5, -8
 652              		.cfi_offset 14, -4
 653 0002 85B0     		sub	sp, sp, #20
 654              		.cfi_def_cfa_offset 32
 655 0004 0400     		movs	r4, r0
 656 0006 0D1C     		adds	r5, r1, #0
 159:..\..\..\arduinoLCD\test\Pain Drain\libraries\lvgl\src\core/lv_disp.c ****     if(!disp) {
 657              		.loc 1 159 0
 658 0008 0028     		cmp	r0, #0
 659 000a 02D1     		bne	.L36
 159:..\..\..\arduinoLCD\test\Pain Drain\libraries\lvgl\src\core/lv_disp.c ****     if(!disp) {
 660              		.loc 1 159 0 is_stmt 0 discriminator 1
 661 000c FFF7FEFF 		bl	lv_disp_get_default
 662              	.LVL78:
 663 0010 0400     		movs	r4, r0
 664              	.LVL79:
 665              	.L36:
 160:..\..\..\arduinoLCD\test\Pain Drain\libraries\lvgl\src\core/lv_disp.c ****         LV_LOG_WARN("no display registered");
 666              		.loc 1 160 0 is_stmt 1
 667 0012 002C     		cmp	r4, #0
 668 0014 15D0     		beq	.L35
 165:..\..\..\arduinoLCD\test\Pain Drain\libraries\lvgl\src\core/lv_disp.c **** 
ARM GAS  C:\Users\haske\AppData\Local\Temp\ccLw7Foe.s 			page 27


 669              		.loc 1 165 0
 670 0016 6585     		strh	r5, [r4, #42]
 168:..\..\..\arduinoLCD\test\Pain Drain\libraries\lvgl\src\core/lv_disp.c ****     _lv_inv_area(disp, &a);
 671              		.loc 1 168 0
 672 0018 2000     		movs	r0, r4
 673 001a FFF7FEFF 		bl	lv_disp_get_hor_res
 674              	.LVL80:
 675 001e 0500     		movs	r5, r0
 676              	.LVL81:
 677 0020 2000     		movs	r0, r4
 678 0022 FFF7FEFF 		bl	lv_disp_get_ver_res
 679              	.LVL82:
 680 0026 013D     		subs	r5, r5, #1
 681 0028 2BB2     		sxth	r3, r5
 682 002a 0138     		subs	r0, r0, #1
 683 002c 00B2     		sxth	r0, r0
 684 002e 0090     		str	r0, [sp]
 685 0030 0022     		movs	r2, #0
 686 0032 0021     		movs	r1, #0
 687 0034 02A8     		add	r0, sp, #8
 688 0036 FFF7FEFF 		bl	lv_area_set
 689              	.LVL83:
 169:..\..\..\arduinoLCD\test\Pain Drain\libraries\lvgl\src\core/lv_disp.c **** 
 690              		.loc 1 169 0
 691 003a 02A9     		add	r1, sp, #8
 692 003c 2000     		movs	r0, r4
 693 003e FFF7FEFF 		bl	_lv_inv_area
 694              	.LVL84:
 695              	.L35:
 171:..\..\..\arduinoLCD\test\Pain Drain\libraries\lvgl\src\core/lv_disp.c **** 
 696              		.loc 1 171 0
 697 0042 05B0     		add	sp, sp, #20
 698              		@ sp needed
 699              	.LVL85:
 700 0044 30BD     		pop	{r4, r5, pc}
 701              		.cfi_endproc
 702              	.LFE172:
 703              		.size	lv_disp_set_bg_color, .-lv_disp_set_bg_color
 704 0046 C046     		.section	.text.lv_disp_set_bg_image,"ax",%progbits
 705              		.align	2
 706              		.global	lv_disp_set_bg_image
 707              		.code	16
 708              		.thumb_func
 709              		.type	lv_disp_set_bg_image, %function
 710              	lv_disp_set_bg_image:
 711              	.LFB173:
 179:..\..\..\arduinoLCD\test\Pain Drain\libraries\lvgl\src\core/lv_disp.c ****     if(!disp) disp = lv_disp_get_default();
 712              		.loc 1 179 0
 713              		.cfi_startproc
 714              		@ args = 0, pretend = 0, frame = 8
 715              		@ frame_needed = 0, uses_anonymous_args = 0
 716              	.LVL86:
 717 0000 30B5     		push	{r4, r5, lr}
 718              		.cfi_def_cfa_offset 12
 719              		.cfi_offset 4, -12
 720              		.cfi_offset 5, -8
 721              		.cfi_offset 14, -4
ARM GAS  C:\Users\haske\AppData\Local\Temp\ccLw7Foe.s 			page 28


 722 0002 85B0     		sub	sp, sp, #20
 723              		.cfi_def_cfa_offset 32
 724 0004 0400     		movs	r4, r0
 725 0006 0D00     		movs	r5, r1
 180:..\..\..\arduinoLCD\test\Pain Drain\libraries\lvgl\src\core/lv_disp.c ****     if(!disp) {
 726              		.loc 1 180 0
 727 0008 0028     		cmp	r0, #0
 728 000a 02D1     		bne	.L40
 180:..\..\..\arduinoLCD\test\Pain Drain\libraries\lvgl\src\core/lv_disp.c ****     if(!disp) {
 729              		.loc 1 180 0 is_stmt 0 discriminator 1
 730 000c FFF7FEFF 		bl	lv_disp_get_default
 731              	.LVL87:
 732 0010 0400     		movs	r4, r0
 733              	.LVL88:
 734              	.L40:
 181:..\..\..\arduinoLCD\test\Pain Drain\libraries\lvgl\src\core/lv_disp.c ****         LV_LOG_WARN("no display registered");
 735              		.loc 1 181 0 is_stmt 1
 736 0012 002C     		cmp	r4, #0
 737 0014 15D0     		beq	.L39
 186:..\..\..\arduinoLCD\test\Pain Drain\libraries\lvgl\src\core/lv_disp.c **** 
 738              		.loc 1 186 0
 739 0016 E562     		str	r5, [r4, #44]
 189:..\..\..\arduinoLCD\test\Pain Drain\libraries\lvgl\src\core/lv_disp.c ****     _lv_inv_area(disp, &a);
 740              		.loc 1 189 0
 741 0018 2000     		movs	r0, r4
 742 001a FFF7FEFF 		bl	lv_disp_get_hor_res
 743              	.LVL89:
 744 001e 0500     		movs	r5, r0
 745              	.LVL90:
 746 0020 2000     		movs	r0, r4
 747 0022 FFF7FEFF 		bl	lv_disp_get_ver_res
 748              	.LVL91:
 749 0026 013D     		subs	r5, r5, #1
 750 0028 2BB2     		sxth	r3, r5
 751 002a 0138     		subs	r0, r0, #1
 752 002c 00B2     		sxth	r0, r0
 753 002e 0090     		str	r0, [sp]
 754 0030 0022     		movs	r2, #0
 755 0032 0021     		movs	r1, #0
 756 0034 02A8     		add	r0, sp, #8
 757 0036 FFF7FEFF 		bl	lv_area_set
 758              	.LVL92:
 190:..\..\..\arduinoLCD\test\Pain Drain\libraries\lvgl\src\core/lv_disp.c **** }
 759              		.loc 1 190 0
 760 003a 02A9     		add	r1, sp, #8
 761 003c 2000     		movs	r0, r4
 762 003e FFF7FEFF 		bl	_lv_inv_area
 763              	.LVL93:
 764              	.L39:
 191:..\..\..\arduinoLCD\test\Pain Drain\libraries\lvgl\src\core/lv_disp.c **** 
 765              		.loc 1 191 0
 766 0042 05B0     		add	sp, sp, #20
 767              		@ sp needed
 768              	.LVL94:
 769 0044 30BD     		pop	{r4, r5, pc}
 770              		.cfi_endproc
 771              	.LFE173:
ARM GAS  C:\Users\haske\AppData\Local\Temp\ccLw7Foe.s 			page 29


 772              		.size	lv_disp_set_bg_image, .-lv_disp_set_bg_image
 773 0046 C046     		.section	.text.lv_disp_set_bg_opa,"ax",%progbits
 774              		.align	2
 775              		.global	lv_disp_set_bg_opa
 776              		.code	16
 777              		.thumb_func
 778              		.type	lv_disp_set_bg_opa, %function
 779              	lv_disp_set_bg_opa:
 780              	.LFB174:
 199:..\..\..\arduinoLCD\test\Pain Drain\libraries\lvgl\src\core/lv_disp.c ****     if(!disp) disp = lv_disp_get_default();
 781              		.loc 1 199 0
 782              		.cfi_startproc
 783              		@ args = 0, pretend = 0, frame = 8
 784              		@ frame_needed = 0, uses_anonymous_args = 0
 785              	.LVL95:
 786 0000 30B5     		push	{r4, r5, lr}
 787              		.cfi_def_cfa_offset 12
 788              		.cfi_offset 4, -12
 789              		.cfi_offset 5, -8
 790              		.cfi_offset 14, -4
 791 0002 85B0     		sub	sp, sp, #20
 792              		.cfi_def_cfa_offset 32
 793 0004 0400     		movs	r4, r0
 794 0006 0D00     		movs	r5, r1
 200:..\..\..\arduinoLCD\test\Pain Drain\libraries\lvgl\src\core/lv_disp.c ****     if(!disp) {
 795              		.loc 1 200 0
 796 0008 0028     		cmp	r0, #0
 797 000a 02D1     		bne	.L44
 200:..\..\..\arduinoLCD\test\Pain Drain\libraries\lvgl\src\core/lv_disp.c ****     if(!disp) {
 798              		.loc 1 200 0 is_stmt 0 discriminator 1
 799 000c FFF7FEFF 		bl	lv_disp_get_default
 800              	.LVL96:
 801 0010 0400     		movs	r4, r0
 802              	.LVL97:
 803              	.L44:
 201:..\..\..\arduinoLCD\test\Pain Drain\libraries\lvgl\src\core/lv_disp.c ****         LV_LOG_WARN("no display registered");
 804              		.loc 1 201 0 is_stmt 1
 805 0012 002C     		cmp	r4, #0
 806 0014 16D0     		beq	.L43
 206:..\..\..\arduinoLCD\test\Pain Drain\libraries\lvgl\src\core/lv_disp.c **** 
 807              		.loc 1 206 0
 808 0016 2923     		movs	r3, #41
 809 0018 E554     		strb	r5, [r4, r3]
 209:..\..\..\arduinoLCD\test\Pain Drain\libraries\lvgl\src\core/lv_disp.c ****     _lv_inv_area(disp, &a);
 810              		.loc 1 209 0
 811 001a 2000     		movs	r0, r4
 812 001c FFF7FEFF 		bl	lv_disp_get_hor_res
 813              	.LVL98:
 814 0020 0500     		movs	r5, r0
 815 0022 2000     		movs	r0, r4
 816 0024 FFF7FEFF 		bl	lv_disp_get_ver_res
 817              	.LVL99:
 818 0028 013D     		subs	r5, r5, #1
 819 002a 2BB2     		sxth	r3, r5
 820 002c 0138     		subs	r0, r0, #1
 821 002e 00B2     		sxth	r0, r0
 822 0030 0090     		str	r0, [sp]
ARM GAS  C:\Users\haske\AppData\Local\Temp\ccLw7Foe.s 			page 30


 823 0032 0022     		movs	r2, #0
 824 0034 0021     		movs	r1, #0
 825 0036 02A8     		add	r0, sp, #8
 826 0038 FFF7FEFF 		bl	lv_area_set
 827              	.LVL100:
 210:..\..\..\arduinoLCD\test\Pain Drain\libraries\lvgl\src\core/lv_disp.c **** }
 828              		.loc 1 210 0
 829 003c 02A9     		add	r1, sp, #8
 830 003e 2000     		movs	r0, r4
 831 0040 FFF7FEFF 		bl	_lv_inv_area
 832              	.LVL101:
 833              	.L43:
 211:..\..\..\arduinoLCD\test\Pain Drain\libraries\lvgl\src\core/lv_disp.c **** 
 834              		.loc 1 211 0
 835 0044 05B0     		add	sp, sp, #20
 836              		@ sp needed
 837              	.LVL102:
 838 0046 30BD     		pop	{r4, r5, pc}
 839              		.cfi_endproc
 840              	.LFE174:
 841              		.size	lv_disp_set_bg_opa, .-lv_disp_set_bg_opa
 842              		.section	.text.lv_scr_load_anim,"ax",%progbits
 843              		.align	2
 844              		.global	lv_scr_load_anim
 845              		.code	16
 846              		.thumb_func
 847              		.type	lv_scr_load_anim, %function
 848              	lv_scr_load_anim:
 849              	.LFB175:
 222:..\..\..\arduinoLCD\test\Pain Drain\libraries\lvgl\src\core/lv_disp.c **** 
 850              		.loc 1 222 0
 851              		.cfi_startproc
 852              		@ args = 4, pretend = 0, frame = 144
 853              		@ frame_needed = 0, uses_anonymous_args = 0
 854              	.LVL103:
 855 0000 F0B5     		push	{r4, r5, r6, r7, lr}
 856              		.cfi_def_cfa_offset 20
 857              		.cfi_offset 4, -20
 858              		.cfi_offset 5, -16
 859              		.cfi_offset 6, -12
 860              		.cfi_offset 7, -8
 861              		.cfi_offset 14, -4
 862 0002 5746     		mov	r7, r10
 863 0004 4E46     		mov	r6, r9
 864 0006 4546     		mov	r5, r8
 865 0008 E0B4     		push	{r5, r6, r7}
 866              		.cfi_def_cfa_offset 32
 867              		.cfi_offset 8, -32
 868              		.cfi_offset 9, -28
 869              		.cfi_offset 10, -24
 870 000a A4B0     		sub	sp, sp, #144
 871              		.cfi_def_cfa_offset 176
 872 000c 0600     		movs	r6, r0
 873 000e 0191     		str	r1, [sp, #4]
 874 0010 1700     		movs	r7, r2
 875 0012 9846     		mov	r8, r3
 876 0014 2CAB     		add	r3, sp, #176
ARM GAS  C:\Users\haske\AppData\Local\Temp\ccLw7Foe.s 			page 31


 877              	.LVL104:
 878 0016 1D78     		ldrb	r5, [r3]
 224:..\..\..\arduinoLCD\test\Pain Drain\libraries\lvgl\src\core/lv_disp.c ****     lv_obj_t * act_scr = lv_scr_act();
 879              		.loc 1 224 0
 880 0018 FFF7FEFF 		bl	lv_obj_get_disp
 881              	.LVL105:
 882 001c 0400     		movs	r4, r0
 883              	.LVL106:
 884              	.LBB106:
 885              	.LBB107:
 886              		.loc 2 184 0
 887 001e FFF7FEFF 		bl	lv_disp_get_default
 888              	.LVL107:
 889 0022 FFF7FEFF 		bl	lv_disp_get_scr_act
 890              	.LVL108:
 891 0026 8146     		mov	r9, r0
 892              	.LBE107:
 893              	.LBE106:
 229:..\..\..\arduinoLCD\test\Pain Drain\libraries\lvgl\src\core/lv_disp.c ****         scr_load_internal(d->scr_to_load);
 894              		.loc 1 229 0
 895 0028 A069     		ldr	r0, [r4, #24]
 896 002a 0028     		cmp	r0, #0
 897 002c 1AD0     		beq	.L48
 229:..\..\..\arduinoLCD\test\Pain Drain\libraries\lvgl\src\core/lv_disp.c ****         scr_load_internal(d->scr_to_load);
 898              		.loc 1 229 0 is_stmt 0 discriminator 1
 899 002e 4845     		cmp	r0, r9
 900 0030 18D0     		beq	.L48
 230:..\..\..\arduinoLCD\test\Pain Drain\libraries\lvgl\src\core/lv_disp.c ****         lv_anim_del(d->scr_to_load, NULL);
 901              		.loc 1 230 0 is_stmt 1
 902 0032 FFF7FEFF 		bl	scr_load_internal
 903              	.LVL109:
 231:..\..\..\arduinoLCD\test\Pain Drain\libraries\lvgl\src\core/lv_disp.c ****         lv_obj_set_pos(d->scr_to_load, 0, 0);
 904              		.loc 1 231 0
 905 0036 0021     		movs	r1, #0
 906 0038 A069     		ldr	r0, [r4, #24]
 907 003a FFF7FEFF 		bl	lv_anim_del
 908              	.LVL110:
 232:..\..\..\arduinoLCD\test\Pain Drain\libraries\lvgl\src\core/lv_disp.c ****         lv_obj_remove_local_style_prop(d->scr_to_load, LV_STYLE_OPA, 0);
 909              		.loc 1 232 0
 910 003e 0022     		movs	r2, #0
 911 0040 0021     		movs	r1, #0
 912 0042 A069     		ldr	r0, [r4, #24]
 913 0044 FFF7FEFF 		bl	lv_obj_set_pos
 914              	.LVL111:
 233:..\..\..\arduinoLCD\test\Pain Drain\libraries\lvgl\src\core/lv_disp.c **** 
 915              		.loc 1 233 0
 916 0048 0022     		movs	r2, #0
 917 004a 6021     		movs	r1, #96
 918 004c A069     		ldr	r0, [r4, #24]
 919 004e FFF7FEFF 		bl	lv_obj_remove_local_style_prop
 920              	.LVL112:
 235:..\..\..\arduinoLCD\test\Pain Drain\libraries\lvgl\src\core/lv_disp.c ****             lv_obj_del(act_scr);
 921              		.loc 1 235 0
 922 0052 2823     		movs	r3, #40
 923 0054 E35C     		ldrb	r3, [r4, r3]
 924 0056 9B07     		lsls	r3, r3, #30
 925 0058 02D5     		bpl	.L49
ARM GAS  C:\Users\haske\AppData\Local\Temp\ccLw7Foe.s 			page 32


 236:..\..\..\arduinoLCD\test\Pain Drain\libraries\lvgl\src\core/lv_disp.c ****         }
 926              		.loc 1 236 0
 927 005a 4846     		mov	r0, r9
 928 005c FFF7FEFF 		bl	lv_obj_del
 929              	.LVL113:
 930              	.L49:
 238:..\..\..\arduinoLCD\test\Pain Drain\libraries\lvgl\src\core/lv_disp.c ****     }
 931              		.loc 1 238 0
 932 0060 A369     		ldr	r3, [r4, #24]
 933 0062 9946     		mov	r9, r3
 934              	.LVL114:
 935              	.L48:
 241:..\..\..\arduinoLCD\test\Pain Drain\libraries\lvgl\src\core/lv_disp.c **** 
 936              		.loc 1 241 0
 937 0064 A661     		str	r6, [r4, #24]
 243:..\..\..\arduinoLCD\test\Pain Drain\libraries\lvgl\src\core/lv_disp.c ****         lv_obj_del(d->prev_scr);
 938              		.loc 1 243 0
 939 0066 6069     		ldr	r0, [r4, #20]
 940 0068 0028     		cmp	r0, #0
 941 006a 07D0     		beq	.L50
 243:..\..\..\arduinoLCD\test\Pain Drain\libraries\lvgl\src\core/lv_disp.c ****         lv_obj_del(d->prev_scr);
 942              		.loc 1 243 0 is_stmt 0 discriminator 1
 943 006c 2823     		movs	r3, #40
 944 006e E35C     		ldrb	r3, [r4, r3]
 945 0070 9B07     		lsls	r3, r3, #30
 946 0072 03D5     		bpl	.L50
 244:..\..\..\arduinoLCD\test\Pain Drain\libraries\lvgl\src\core/lv_disp.c ****         d->prev_scr = NULL;
 947              		.loc 1 244 0 is_stmt 1
 948 0074 FFF7FEFF 		bl	lv_obj_del
 949              	.LVL115:
 245:..\..\..\arduinoLCD\test\Pain Drain\libraries\lvgl\src\core/lv_disp.c ****     }
 950              		.loc 1 245 0
 951 0078 0023     		movs	r3, #0
 952 007a 6361     		str	r3, [r4, #20]
 953              	.L50:
 248:..\..\..\arduinoLCD\test\Pain Drain\libraries\lvgl\src\core/lv_disp.c ****     d->del_prev = auto_del;
 954              		.loc 1 248 0
 955 007c 0198     		ldr	r0, [sp, #4]
 956 007e FFF7FEFF 		bl	is_out_anim
 957              	.LVL116:
 958 0082 2822     		movs	r2, #40
 959 0084 0123     		movs	r3, #1
 960 0086 1840     		ands	r0, r3
 961 0088 A15C     		ldrb	r1, [r4, r2]
 962 008a 9943     		bics	r1, r3
 249:..\..\..\arduinoLCD\test\Pain Drain\libraries\lvgl\src\core/lv_disp.c **** 
 963              		.loc 1 249 0
 964 008c 1D40     		ands	r5, r3
 965 008e 6B00     		lsls	r3, r5, #1
 966 0090 0143     		orrs	r1, r0
 967 0092 0D00     		movs	r5, r1
 968 0094 0221     		movs	r1, #2
 969 0096 8D43     		bics	r5, r1
 970 0098 1D43     		orrs	r5, r3
 971 009a A554     		strb	r5, [r4, r2]
 252:..\..\..\arduinoLCD\test\Pain Drain\libraries\lvgl\src\core/lv_disp.c ****     lv_anim_del(lv_scr_act(), NULL);
 972              		.loc 1 252 0
ARM GAS  C:\Users\haske\AppData\Local\Temp\ccLw7Foe.s 			page 33


 973 009c 0021     		movs	r1, #0
 974 009e 3000     		movs	r0, r6
 975 00a0 FFF7FEFF 		bl	lv_anim_del
 976              	.LVL117:
 977              	.LBB108:
 978              	.LBB109:
 979              		.loc 2 184 0
 980 00a4 FFF7FEFF 		bl	lv_disp_get_default
 981              	.LVL118:
 982 00a8 FFF7FEFF 		bl	lv_disp_get_scr_act
 983              	.LVL119:
 984              	.LBE109:
 985              	.LBE108:
 253:..\..\..\arduinoLCD\test\Pain Drain\libraries\lvgl\src\core/lv_disp.c **** 
 986              		.loc 1 253 0
 987 00ac 0021     		movs	r1, #0
 988 00ae FFF7FEFF 		bl	lv_anim_del
 989              	.LVL120:
 256:..\..\..\arduinoLCD\test\Pain Drain\libraries\lvgl\src\core/lv_disp.c ****     lv_obj_set_pos(lv_scr_act(), 0, 0);
 990              		.loc 1 256 0
 991 00b2 0022     		movs	r2, #0
 992 00b4 0021     		movs	r1, #0
 993 00b6 3000     		movs	r0, r6
 994 00b8 FFF7FEFF 		bl	lv_obj_set_pos
 995              	.LVL121:
 996              	.LBB110:
 997              	.LBB111:
 998              		.loc 2 184 0
 999 00bc FFF7FEFF 		bl	lv_disp_get_default
 1000              	.LVL122:
 1001 00c0 FFF7FEFF 		bl	lv_disp_get_scr_act
 1002              	.LVL123:
 1003              	.LBE111:
 1004              	.LBE110:
 257:..\..\..\arduinoLCD\test\Pain Drain\libraries\lvgl\src\core/lv_disp.c ****     lv_obj_remove_local_style_prop(new_scr, LV_STYLE_OPA, 0);
 1005              		.loc 1 257 0
 1006 00c4 0022     		movs	r2, #0
 1007 00c6 0021     		movs	r1, #0
 1008 00c8 FFF7FEFF 		bl	lv_obj_set_pos
 1009              	.LVL124:
 258:..\..\..\arduinoLCD\test\Pain Drain\libraries\lvgl\src\core/lv_disp.c ****     lv_obj_remove_local_style_prop(lv_scr_act(), LV_STYLE_OPA, 0);
 1010              		.loc 1 258 0
 1011 00cc 0022     		movs	r2, #0
 1012 00ce 6021     		movs	r1, #96
 1013 00d0 3000     		movs	r0, r6
 1014 00d2 FFF7FEFF 		bl	lv_obj_remove_local_style_prop
 1015              	.LVL125:
 1016              	.LBB112:
 1017              	.LBB113:
 1018              		.loc 2 184 0
 1019 00d6 FFF7FEFF 		bl	lv_disp_get_default
 1020              	.LVL126:
 1021 00da FFF7FEFF 		bl	lv_disp_get_scr_act
 1022              	.LVL127:
 1023              	.LBE113:
 1024              	.LBE112:
 259:..\..\..\arduinoLCD\test\Pain Drain\libraries\lvgl\src\core/lv_disp.c **** 
ARM GAS  C:\Users\haske\AppData\Local\Temp\ccLw7Foe.s 			page 34


 1025              		.loc 1 259 0
 1026 00de 0022     		movs	r2, #0
 1027 00e0 6021     		movs	r1, #96
 1028 00e2 FFF7FEFF 		bl	lv_obj_remove_local_style_prop
 1029              	.LVL128:
 263:..\..\..\arduinoLCD\test\Pain Drain\libraries\lvgl\src\core/lv_disp.c ****         scr_load_internal(new_scr);
 1030              		.loc 1 263 0
 1031 00e6 4346     		mov	r3, r8
 1032 00e8 3B43     		orrs	r3, r7
 1033 00ea 03D1     		bne	.L51
 264:..\..\..\arduinoLCD\test\Pain Drain\libraries\lvgl\src\core/lv_disp.c ****         return;
 1034              		.loc 1 264 0
 1035 00ec 3000     		movs	r0, r6
 1036 00ee FFF7FEFF 		bl	scr_load_internal
 1037              	.LVL129:
 1038 00f2 D7E0     		b	.L47
 1039              	.L51:
 269:..\..\..\arduinoLCD\test\Pain Drain\libraries\lvgl\src\core/lv_disp.c ****     lv_anim_set_var(&a_new, new_scr);
 1040              		.loc 1 269 0
 1041 00f4 13A8     		add	r0, sp, #76
 1042 00f6 FFF7FEFF 		bl	lv_anim_init
 1043              	.LVL130:
 1044              	.LBB114:
 1045              	.LBB115:
 1046              		.file 3 "c:\\projects\\paindrain\\arduinolcd\\test\\pain drain\\libraries\\lvgl\\src\\misc\\lv_ani
   1:c:\projects\paindrain\arduinolcd\test\pain drain\libraries\lvgl\src\misc\lv_anim.h **** /**
   2:c:\projects\paindrain\arduinolcd\test\pain drain\libraries\lvgl\src\misc\lv_anim.h ****  * @file lv_anim.h
   3:c:\projects\paindrain\arduinolcd\test\pain drain\libraries\lvgl\src\misc\lv_anim.h ****  *
   4:c:\projects\paindrain\arduinolcd\test\pain drain\libraries\lvgl\src\misc\lv_anim.h ****  */
   5:c:\projects\paindrain\arduinolcd\test\pain drain\libraries\lvgl\src\misc\lv_anim.h **** 
   6:c:\projects\paindrain\arduinolcd\test\pain drain\libraries\lvgl\src\misc\lv_anim.h **** #ifndef LV_ANIM_H
   7:c:\projects\paindrain\arduinolcd\test\pain drain\libraries\lvgl\src\misc\lv_anim.h **** #define LV_ANIM_H
   8:c:\projects\paindrain\arduinolcd\test\pain drain\libraries\lvgl\src\misc\lv_anim.h **** 
   9:c:\projects\paindrain\arduinolcd\test\pain drain\libraries\lvgl\src\misc\lv_anim.h **** #ifdef __cplusplus
  10:c:\projects\paindrain\arduinolcd\test\pain drain\libraries\lvgl\src\misc\lv_anim.h **** extern "C" {
  11:c:\projects\paindrain\arduinolcd\test\pain drain\libraries\lvgl\src\misc\lv_anim.h **** #endif
  12:c:\projects\paindrain\arduinolcd\test\pain drain\libraries\lvgl\src\misc\lv_anim.h **** 
  13:c:\projects\paindrain\arduinolcd\test\pain drain\libraries\lvgl\src\misc\lv_anim.h **** /*********************
  14:c:\projects\paindrain\arduinolcd\test\pain drain\libraries\lvgl\src\misc\lv_anim.h ****  *      INCLUDES
  15:c:\projects\paindrain\arduinolcd\test\pain drain\libraries\lvgl\src\misc\lv_anim.h ****  *********************/
  16:c:\projects\paindrain\arduinolcd\test\pain drain\libraries\lvgl\src\misc\lv_anim.h **** #include "../lv_conf_internal.h"
  17:c:\projects\paindrain\arduinolcd\test\pain drain\libraries\lvgl\src\misc\lv_anim.h **** 
  18:c:\projects\paindrain\arduinolcd\test\pain drain\libraries\lvgl\src\misc\lv_anim.h **** #include <stdint.h>
  19:c:\projects\paindrain\arduinolcd\test\pain drain\libraries\lvgl\src\misc\lv_anim.h **** #include <stdbool.h>
  20:c:\projects\paindrain\arduinolcd\test\pain drain\libraries\lvgl\src\misc\lv_anim.h **** #include <stddef.h>
  21:c:\projects\paindrain\arduinolcd\test\pain drain\libraries\lvgl\src\misc\lv_anim.h **** 
  22:c:\projects\paindrain\arduinolcd\test\pain drain\libraries\lvgl\src\misc\lv_anim.h **** /*********************
  23:c:\projects\paindrain\arduinolcd\test\pain drain\libraries\lvgl\src\misc\lv_anim.h ****  *      DEFINES
  24:c:\projects\paindrain\arduinolcd\test\pain drain\libraries\lvgl\src\misc\lv_anim.h ****  *********************/
  25:c:\projects\paindrain\arduinolcd\test\pain drain\libraries\lvgl\src\misc\lv_anim.h **** 
  26:c:\projects\paindrain\arduinolcd\test\pain drain\libraries\lvgl\src\misc\lv_anim.h **** #define LV_ANIM_REPEAT_INFINITE      0xFFFF
  27:c:\projects\paindrain\arduinolcd\test\pain drain\libraries\lvgl\src\misc\lv_anim.h **** #define LV_ANIM_PLAYTIME_INFINITE    0xFFFFFFFF
  28:c:\projects\paindrain\arduinolcd\test\pain drain\libraries\lvgl\src\misc\lv_anim.h **** 
  29:c:\projects\paindrain\arduinolcd\test\pain drain\libraries\lvgl\src\misc\lv_anim.h **** LV_EXPORT_CONST_INT(LV_ANIM_REPEAT_INFINITE);
  30:c:\projects\paindrain\arduinolcd\test\pain drain\libraries\lvgl\src\misc\lv_anim.h **** LV_EXPORT_CONST_INT(LV_ANIM_PLAYTIME_INFINITE);
  31:c:\projects\paindrain\arduinolcd\test\pain drain\libraries\lvgl\src\misc\lv_anim.h **** 
  32:c:\projects\paindrain\arduinolcd\test\pain drain\libraries\lvgl\src\misc\lv_anim.h **** /**********************
ARM GAS  C:\Users\haske\AppData\Local\Temp\ccLw7Foe.s 			page 35


  33:c:\projects\paindrain\arduinolcd\test\pain drain\libraries\lvgl\src\misc\lv_anim.h ****  *      TYPEDEFS
  34:c:\projects\paindrain\arduinolcd\test\pain drain\libraries\lvgl\src\misc\lv_anim.h ****  **********************/
  35:c:\projects\paindrain\arduinolcd\test\pain drain\libraries\lvgl\src\misc\lv_anim.h **** 
  36:c:\projects\paindrain\arduinolcd\test\pain drain\libraries\lvgl\src\misc\lv_anim.h **** /** Can be used to indicate if animations are enabled or disabled in a case*/
  37:c:\projects\paindrain\arduinolcd\test\pain drain\libraries\lvgl\src\misc\lv_anim.h **** typedef enum {
  38:c:\projects\paindrain\arduinolcd\test\pain drain\libraries\lvgl\src\misc\lv_anim.h ****     LV_ANIM_OFF,
  39:c:\projects\paindrain\arduinolcd\test\pain drain\libraries\lvgl\src\misc\lv_anim.h ****     LV_ANIM_ON,
  40:c:\projects\paindrain\arduinolcd\test\pain drain\libraries\lvgl\src\misc\lv_anim.h **** } lv_anim_enable_t;
  41:c:\projects\paindrain\arduinolcd\test\pain drain\libraries\lvgl\src\misc\lv_anim.h **** 
  42:c:\projects\paindrain\arduinolcd\test\pain drain\libraries\lvgl\src\misc\lv_anim.h **** struct _lv_anim_t;
  43:c:\projects\paindrain\arduinolcd\test\pain drain\libraries\lvgl\src\misc\lv_anim.h **** struct _lv_timer_t;
  44:c:\projects\paindrain\arduinolcd\test\pain drain\libraries\lvgl\src\misc\lv_anim.h **** 
  45:c:\projects\paindrain\arduinolcd\test\pain drain\libraries\lvgl\src\misc\lv_anim.h **** /** Get the current value during an animation*/
  46:c:\projects\paindrain\arduinolcd\test\pain drain\libraries\lvgl\src\misc\lv_anim.h **** typedef int32_t (*lv_anim_path_cb_t)(const struct _lv_anim_t *);
  47:c:\projects\paindrain\arduinolcd\test\pain drain\libraries\lvgl\src\misc\lv_anim.h **** 
  48:c:\projects\paindrain\arduinolcd\test\pain drain\libraries\lvgl\src\misc\lv_anim.h **** /** Generic prototype of "animator" functions.
  49:c:\projects\paindrain\arduinolcd\test\pain drain\libraries\lvgl\src\misc\lv_anim.h ****  * First parameter is the variable to animate.
  50:c:\projects\paindrain\arduinolcd\test\pain drain\libraries\lvgl\src\misc\lv_anim.h ****  * Second parameter is the value to set.
  51:c:\projects\paindrain\arduinolcd\test\pain drain\libraries\lvgl\src\misc\lv_anim.h ****  * Compatible with `lv_xxx_set_yyy(obj, value)` functions
  52:c:\projects\paindrain\arduinolcd\test\pain drain\libraries\lvgl\src\misc\lv_anim.h ****  * The `x` in `_xcb_t` means it's not a fully generic prototype because
  53:c:\projects\paindrain\arduinolcd\test\pain drain\libraries\lvgl\src\misc\lv_anim.h ****  * it doesn't receive `lv_anim_t *` as its first argument*/
  54:c:\projects\paindrain\arduinolcd\test\pain drain\libraries\lvgl\src\misc\lv_anim.h **** typedef void (*lv_anim_exec_xcb_t)(void *, int32_t);
  55:c:\projects\paindrain\arduinolcd\test\pain drain\libraries\lvgl\src\misc\lv_anim.h **** 
  56:c:\projects\paindrain\arduinolcd\test\pain drain\libraries\lvgl\src\misc\lv_anim.h **** /** Same as `lv_anim_exec_xcb_t` but receives `lv_anim_t *` as the first parameter.
  57:c:\projects\paindrain\arduinolcd\test\pain drain\libraries\lvgl\src\misc\lv_anim.h ****  * It's more consistent but less convenient. Might be used by binding generator functions.*/
  58:c:\projects\paindrain\arduinolcd\test\pain drain\libraries\lvgl\src\misc\lv_anim.h **** typedef void (*lv_anim_custom_exec_cb_t)(struct _lv_anim_t *, int32_t);
  59:c:\projects\paindrain\arduinolcd\test\pain drain\libraries\lvgl\src\misc\lv_anim.h **** 
  60:c:\projects\paindrain\arduinolcd\test\pain drain\libraries\lvgl\src\misc\lv_anim.h **** /** Callback to call when the animation is ready*/
  61:c:\projects\paindrain\arduinolcd\test\pain drain\libraries\lvgl\src\misc\lv_anim.h **** typedef void (*lv_anim_ready_cb_t)(struct _lv_anim_t *);
  62:c:\projects\paindrain\arduinolcd\test\pain drain\libraries\lvgl\src\misc\lv_anim.h **** 
  63:c:\projects\paindrain\arduinolcd\test\pain drain\libraries\lvgl\src\misc\lv_anim.h **** /** Callback to call when the animation really stars (considering `delay`)*/
  64:c:\projects\paindrain\arduinolcd\test\pain drain\libraries\lvgl\src\misc\lv_anim.h **** typedef void (*lv_anim_start_cb_t)(struct _lv_anim_t *);
  65:c:\projects\paindrain\arduinolcd\test\pain drain\libraries\lvgl\src\misc\lv_anim.h **** 
  66:c:\projects\paindrain\arduinolcd\test\pain drain\libraries\lvgl\src\misc\lv_anim.h **** /** Callback used when the animation values are relative to get the current value*/
  67:c:\projects\paindrain\arduinolcd\test\pain drain\libraries\lvgl\src\misc\lv_anim.h **** typedef int32_t (*lv_anim_get_value_cb_t)(struct _lv_anim_t *);
  68:c:\projects\paindrain\arduinolcd\test\pain drain\libraries\lvgl\src\misc\lv_anim.h **** 
  69:c:\projects\paindrain\arduinolcd\test\pain drain\libraries\lvgl\src\misc\lv_anim.h **** /** Callback used when the animation is deleted*/
  70:c:\projects\paindrain\arduinolcd\test\pain drain\libraries\lvgl\src\misc\lv_anim.h **** typedef void (*lv_anim_deleted_cb_t)(struct _lv_anim_t *);
  71:c:\projects\paindrain\arduinolcd\test\pain drain\libraries\lvgl\src\misc\lv_anim.h **** 
  72:c:\projects\paindrain\arduinolcd\test\pain drain\libraries\lvgl\src\misc\lv_anim.h **** /** Describes an animation*/
  73:c:\projects\paindrain\arduinolcd\test\pain drain\libraries\lvgl\src\misc\lv_anim.h **** typedef struct _lv_anim_t {
  74:c:\projects\paindrain\arduinolcd\test\pain drain\libraries\lvgl\src\misc\lv_anim.h ****     void * var;                          /**<Variable to animate*/
  75:c:\projects\paindrain\arduinolcd\test\pain drain\libraries\lvgl\src\misc\lv_anim.h ****     lv_anim_exec_xcb_t exec_cb;          /**< Function to execute to animate*/
  76:c:\projects\paindrain\arduinolcd\test\pain drain\libraries\lvgl\src\misc\lv_anim.h ****     lv_anim_start_cb_t start_cb;         /**< Call it when the animation is starts (considering `de
  77:c:\projects\paindrain\arduinolcd\test\pain drain\libraries\lvgl\src\misc\lv_anim.h ****     lv_anim_ready_cb_t ready_cb;         /**< Call it when the animation is ready*/
  78:c:\projects\paindrain\arduinolcd\test\pain drain\libraries\lvgl\src\misc\lv_anim.h ****     lv_anim_deleted_cb_t deleted_cb;     /**< Call it when the animation is deleted*/
  79:c:\projects\paindrain\arduinolcd\test\pain drain\libraries\lvgl\src\misc\lv_anim.h ****     lv_anim_get_value_cb_t get_value_cb; /**< Get the current value in relative mode*/
  80:c:\projects\paindrain\arduinolcd\test\pain drain\libraries\lvgl\src\misc\lv_anim.h **** #if LV_USE_USER_DATA
  81:c:\projects\paindrain\arduinolcd\test\pain drain\libraries\lvgl\src\misc\lv_anim.h ****     void * user_data; /**< Custom user data*/
  82:c:\projects\paindrain\arduinolcd\test\pain drain\libraries\lvgl\src\misc\lv_anim.h **** #endif
  83:c:\projects\paindrain\arduinolcd\test\pain drain\libraries\lvgl\src\misc\lv_anim.h ****     lv_anim_path_cb_t path_cb;         /**< Describe the path (curve) of animations*/
  84:c:\projects\paindrain\arduinolcd\test\pain drain\libraries\lvgl\src\misc\lv_anim.h ****     int32_t start_value;               /**< Start value*/
  85:c:\projects\paindrain\arduinolcd\test\pain drain\libraries\lvgl\src\misc\lv_anim.h ****     int32_t current_value;             /**< Current value*/
  86:c:\projects\paindrain\arduinolcd\test\pain drain\libraries\lvgl\src\misc\lv_anim.h ****     int32_t end_value;                 /**< End value*/
  87:c:\projects\paindrain\arduinolcd\test\pain drain\libraries\lvgl\src\misc\lv_anim.h ****     int32_t time;                /**< Animation time in ms*/
  88:c:\projects\paindrain\arduinolcd\test\pain drain\libraries\lvgl\src\misc\lv_anim.h ****     int32_t act_time;            /**< Current time in animation. Set to negative to make delay.*/
  89:c:\projects\paindrain\arduinolcd\test\pain drain\libraries\lvgl\src\misc\lv_anim.h ****     uint32_t playback_delay;     /**< Wait before play back*/
ARM GAS  C:\Users\haske\AppData\Local\Temp\ccLw7Foe.s 			page 36


  90:c:\projects\paindrain\arduinolcd\test\pain drain\libraries\lvgl\src\misc\lv_anim.h ****     uint32_t playback_time;      /**< Duration of playback animation*/
  91:c:\projects\paindrain\arduinolcd\test\pain drain\libraries\lvgl\src\misc\lv_anim.h ****     uint32_t repeat_delay;       /**< Wait before repeat*/
  92:c:\projects\paindrain\arduinolcd\test\pain drain\libraries\lvgl\src\misc\lv_anim.h ****     uint16_t repeat_cnt;         /**< Repeat count for the animation*/
  93:c:\projects\paindrain\arduinolcd\test\pain drain\libraries\lvgl\src\misc\lv_anim.h ****     uint8_t early_apply  : 1;    /**< 1: Apply start value immediately even is there is `delay`*/
  94:c:\projects\paindrain\arduinolcd\test\pain drain\libraries\lvgl\src\misc\lv_anim.h **** 
  95:c:\projects\paindrain\arduinolcd\test\pain drain\libraries\lvgl\src\misc\lv_anim.h ****     /*Animation system use these - user shouldn't set*/
  96:c:\projects\paindrain\arduinolcd\test\pain drain\libraries\lvgl\src\misc\lv_anim.h ****     uint8_t playback_now : 1; /**< Play back is in progress*/
  97:c:\projects\paindrain\arduinolcd\test\pain drain\libraries\lvgl\src\misc\lv_anim.h ****     uint8_t run_round : 1;    /**< Indicates the animation has run in this round*/
  98:c:\projects\paindrain\arduinolcd\test\pain drain\libraries\lvgl\src\misc\lv_anim.h ****     uint8_t start_cb_called : 1;    /**< Indicates that the `start_cb` was already called*/
  99:c:\projects\paindrain\arduinolcd\test\pain drain\libraries\lvgl\src\misc\lv_anim.h **** } lv_anim_t;
 100:c:\projects\paindrain\arduinolcd\test\pain drain\libraries\lvgl\src\misc\lv_anim.h **** 
 101:c:\projects\paindrain\arduinolcd\test\pain drain\libraries\lvgl\src\misc\lv_anim.h **** /**********************
 102:c:\projects\paindrain\arduinolcd\test\pain drain\libraries\lvgl\src\misc\lv_anim.h ****  * GLOBAL PROTOTYPES
 103:c:\projects\paindrain\arduinolcd\test\pain drain\libraries\lvgl\src\misc\lv_anim.h ****  **********************/
 104:c:\projects\paindrain\arduinolcd\test\pain drain\libraries\lvgl\src\misc\lv_anim.h **** 
 105:c:\projects\paindrain\arduinolcd\test\pain drain\libraries\lvgl\src\misc\lv_anim.h **** /**
 106:c:\projects\paindrain\arduinolcd\test\pain drain\libraries\lvgl\src\misc\lv_anim.h ****  * Init. the animation module
 107:c:\projects\paindrain\arduinolcd\test\pain drain\libraries\lvgl\src\misc\lv_anim.h ****  */
 108:c:\projects\paindrain\arduinolcd\test\pain drain\libraries\lvgl\src\misc\lv_anim.h **** void _lv_anim_core_init(void);
 109:c:\projects\paindrain\arduinolcd\test\pain drain\libraries\lvgl\src\misc\lv_anim.h **** 
 110:c:\projects\paindrain\arduinolcd\test\pain drain\libraries\lvgl\src\misc\lv_anim.h **** /**
 111:c:\projects\paindrain\arduinolcd\test\pain drain\libraries\lvgl\src\misc\lv_anim.h ****  * Initialize an animation variable.
 112:c:\projects\paindrain\arduinolcd\test\pain drain\libraries\lvgl\src\misc\lv_anim.h ****  * E.g.:
 113:c:\projects\paindrain\arduinolcd\test\pain drain\libraries\lvgl\src\misc\lv_anim.h ****  * lv_anim_t a;
 114:c:\projects\paindrain\arduinolcd\test\pain drain\libraries\lvgl\src\misc\lv_anim.h ****  * lv_anim_init(&a);
 115:c:\projects\paindrain\arduinolcd\test\pain drain\libraries\lvgl\src\misc\lv_anim.h ****  * lv_anim_set_...(&a);
 116:c:\projects\paindrain\arduinolcd\test\pain drain\libraries\lvgl\src\misc\lv_anim.h ****  * lv_anim_start(&a);
 117:c:\projects\paindrain\arduinolcd\test\pain drain\libraries\lvgl\src\misc\lv_anim.h ****  * @param a     pointer to an `lv_anim_t` variable to initialize
 118:c:\projects\paindrain\arduinolcd\test\pain drain\libraries\lvgl\src\misc\lv_anim.h ****  */
 119:c:\projects\paindrain\arduinolcd\test\pain drain\libraries\lvgl\src\misc\lv_anim.h **** void lv_anim_init(lv_anim_t * a);
 120:c:\projects\paindrain\arduinolcd\test\pain drain\libraries\lvgl\src\misc\lv_anim.h **** 
 121:c:\projects\paindrain\arduinolcd\test\pain drain\libraries\lvgl\src\misc\lv_anim.h **** /**
 122:c:\projects\paindrain\arduinolcd\test\pain drain\libraries\lvgl\src\misc\lv_anim.h ****  * Set a variable to animate
 123:c:\projects\paindrain\arduinolcd\test\pain drain\libraries\lvgl\src\misc\lv_anim.h ****  * @param a     pointer to an initialized `lv_anim_t` variable
 124:c:\projects\paindrain\arduinolcd\test\pain drain\libraries\lvgl\src\misc\lv_anim.h ****  * @param var   pointer to a variable to animate
 125:c:\projects\paindrain\arduinolcd\test\pain drain\libraries\lvgl\src\misc\lv_anim.h ****  */
 126:c:\projects\paindrain\arduinolcd\test\pain drain\libraries\lvgl\src\misc\lv_anim.h **** static inline void lv_anim_set_var(lv_anim_t * a, void * var)
 127:c:\projects\paindrain\arduinolcd\test\pain drain\libraries\lvgl\src\misc\lv_anim.h **** {
 128:c:\projects\paindrain\arduinolcd\test\pain drain\libraries\lvgl\src\misc\lv_anim.h ****     a->var = var;
 1047              		.loc 3 128 0
 1048 00fa 1396     		str	r6, [sp, #76]
 1049              	.LVL131:
 1050              	.LBE115:
 1051              	.LBE114:
 1052              	.LBB116:
 1053              	.LBB117:
 129:c:\projects\paindrain\arduinolcd\test\pain drain\libraries\lvgl\src\misc\lv_anim.h **** }
 130:c:\projects\paindrain\arduinolcd\test\pain drain\libraries\lvgl\src\misc\lv_anim.h **** 
 131:c:\projects\paindrain\arduinolcd\test\pain drain\libraries\lvgl\src\misc\lv_anim.h **** /**
 132:c:\projects\paindrain\arduinolcd\test\pain drain\libraries\lvgl\src\misc\lv_anim.h ****  * Set a function to animate `var`
 133:c:\projects\paindrain\arduinolcd\test\pain drain\libraries\lvgl\src\misc\lv_anim.h ****  * @param a         pointer to an initialized `lv_anim_t` variable
 134:c:\projects\paindrain\arduinolcd\test\pain drain\libraries\lvgl\src\misc\lv_anim.h ****  * @param exec_cb   a function to execute during animation
 135:c:\projects\paindrain\arduinolcd\test\pain drain\libraries\lvgl\src\misc\lv_anim.h ****  *                  LVGL's built-in functions can be used.
 136:c:\projects\paindrain\arduinolcd\test\pain drain\libraries\lvgl\src\misc\lv_anim.h ****  *                  E.g. lv_obj_set_x
 137:c:\projects\paindrain\arduinolcd\test\pain drain\libraries\lvgl\src\misc\lv_anim.h ****  */
 138:c:\projects\paindrain\arduinolcd\test\pain drain\libraries\lvgl\src\misc\lv_anim.h **** static inline void lv_anim_set_exec_cb(lv_anim_t * a, lv_anim_exec_xcb_t exec_cb)
 139:c:\projects\paindrain\arduinolcd\test\pain drain\libraries\lvgl\src\misc\lv_anim.h **** {
ARM GAS  C:\Users\haske\AppData\Local\Temp\ccLw7Foe.s 			page 37


 140:c:\projects\paindrain\arduinolcd\test\pain drain\libraries\lvgl\src\misc\lv_anim.h ****     a->exec_cb = exec_cb;
 141:c:\projects\paindrain\arduinolcd\test\pain drain\libraries\lvgl\src\misc\lv_anim.h **** }
 142:c:\projects\paindrain\arduinolcd\test\pain drain\libraries\lvgl\src\misc\lv_anim.h **** 
 143:c:\projects\paindrain\arduinolcd\test\pain drain\libraries\lvgl\src\misc\lv_anim.h **** /**
 144:c:\projects\paindrain\arduinolcd\test\pain drain\libraries\lvgl\src\misc\lv_anim.h ****  * Set the duration of an animation
 145:c:\projects\paindrain\arduinolcd\test\pain drain\libraries\lvgl\src\misc\lv_anim.h ****  * @param a         pointer to an initialized `lv_anim_t` variable
 146:c:\projects\paindrain\arduinolcd\test\pain drain\libraries\lvgl\src\misc\lv_anim.h ****  * @param duration  duration of the animation in milliseconds
 147:c:\projects\paindrain\arduinolcd\test\pain drain\libraries\lvgl\src\misc\lv_anim.h ****  */
 148:c:\projects\paindrain\arduinolcd\test\pain drain\libraries\lvgl\src\misc\lv_anim.h **** static inline void lv_anim_set_time(lv_anim_t * a, uint32_t duration)
 149:c:\projects\paindrain\arduinolcd\test\pain drain\libraries\lvgl\src\misc\lv_anim.h **** {
 150:c:\projects\paindrain\arduinolcd\test\pain drain\libraries\lvgl\src\misc\lv_anim.h ****     a->time = duration;
 151:c:\projects\paindrain\arduinolcd\test\pain drain\libraries\lvgl\src\misc\lv_anim.h **** }
 152:c:\projects\paindrain\arduinolcd\test\pain drain\libraries\lvgl\src\misc\lv_anim.h **** 
 153:c:\projects\paindrain\arduinolcd\test\pain drain\libraries\lvgl\src\misc\lv_anim.h **** /**
 154:c:\projects\paindrain\arduinolcd\test\pain drain\libraries\lvgl\src\misc\lv_anim.h ****  * Set a delay before starting the animation
 155:c:\projects\paindrain\arduinolcd\test\pain drain\libraries\lvgl\src\misc\lv_anim.h ****  * @param a         pointer to an initialized `lv_anim_t` variable
 156:c:\projects\paindrain\arduinolcd\test\pain drain\libraries\lvgl\src\misc\lv_anim.h ****  * @param delay     delay before the animation in milliseconds
 157:c:\projects\paindrain\arduinolcd\test\pain drain\libraries\lvgl\src\misc\lv_anim.h ****  */
 158:c:\projects\paindrain\arduinolcd\test\pain drain\libraries\lvgl\src\misc\lv_anim.h **** static inline void lv_anim_set_delay(lv_anim_t * a, uint32_t delay)
 159:c:\projects\paindrain\arduinolcd\test\pain drain\libraries\lvgl\src\misc\lv_anim.h **** {
 160:c:\projects\paindrain\arduinolcd\test\pain drain\libraries\lvgl\src\misc\lv_anim.h ****     a->act_time = -(int32_t)(delay);
 161:c:\projects\paindrain\arduinolcd\test\pain drain\libraries\lvgl\src\misc\lv_anim.h **** }
 162:c:\projects\paindrain\arduinolcd\test\pain drain\libraries\lvgl\src\misc\lv_anim.h **** 
 163:c:\projects\paindrain\arduinolcd\test\pain drain\libraries\lvgl\src\misc\lv_anim.h **** /**
 164:c:\projects\paindrain\arduinolcd\test\pain drain\libraries\lvgl\src\misc\lv_anim.h ****  * Set the start and end values of an animation
 165:c:\projects\paindrain\arduinolcd\test\pain drain\libraries\lvgl\src\misc\lv_anim.h ****  * @param a         pointer to an initialized `lv_anim_t` variable
 166:c:\projects\paindrain\arduinolcd\test\pain drain\libraries\lvgl\src\misc\lv_anim.h ****  * @param start     the start value
 167:c:\projects\paindrain\arduinolcd\test\pain drain\libraries\lvgl\src\misc\lv_anim.h ****  * @param end       the end value
 168:c:\projects\paindrain\arduinolcd\test\pain drain\libraries\lvgl\src\misc\lv_anim.h ****  */
 169:c:\projects\paindrain\arduinolcd\test\pain drain\libraries\lvgl\src\misc\lv_anim.h **** static inline void lv_anim_set_values(lv_anim_t * a, int32_t start, int32_t end)
 170:c:\projects\paindrain\arduinolcd\test\pain drain\libraries\lvgl\src\misc\lv_anim.h **** {
 171:c:\projects\paindrain\arduinolcd\test\pain drain\libraries\lvgl\src\misc\lv_anim.h ****     a->start_value = start;
 172:c:\projects\paindrain\arduinolcd\test\pain drain\libraries\lvgl\src\misc\lv_anim.h ****     a->current_value = start;
 173:c:\projects\paindrain\arduinolcd\test\pain drain\libraries\lvgl\src\misc\lv_anim.h ****     a->end_value = end;
 174:c:\projects\paindrain\arduinolcd\test\pain drain\libraries\lvgl\src\misc\lv_anim.h **** }
 175:c:\projects\paindrain\arduinolcd\test\pain drain\libraries\lvgl\src\misc\lv_anim.h **** 
 176:c:\projects\paindrain\arduinolcd\test\pain drain\libraries\lvgl\src\misc\lv_anim.h **** /**
 177:c:\projects\paindrain\arduinolcd\test\pain drain\libraries\lvgl\src\misc\lv_anim.h ****  * Similar to `lv_anim_set_exec_cb` but `lv_anim_custom_exec_cb_t` receives
 178:c:\projects\paindrain\arduinolcd\test\pain drain\libraries\lvgl\src\misc\lv_anim.h ****  * `lv_anim_t * ` as its first parameter instead of `void *`.
 179:c:\projects\paindrain\arduinolcd\test\pain drain\libraries\lvgl\src\misc\lv_anim.h ****  * This function might be used when LVGL is bound to other languages because
 180:c:\projects\paindrain\arduinolcd\test\pain drain\libraries\lvgl\src\misc\lv_anim.h ****  * it's more consistent to have `lv_anim_t *` as first parameter.
 181:c:\projects\paindrain\arduinolcd\test\pain drain\libraries\lvgl\src\misc\lv_anim.h ****  * The variable to animate can be stored in the animation's `user_data`
 182:c:\projects\paindrain\arduinolcd\test\pain drain\libraries\lvgl\src\misc\lv_anim.h ****  * @param a         pointer to an initialized `lv_anim_t` variable
 183:c:\projects\paindrain\arduinolcd\test\pain drain\libraries\lvgl\src\misc\lv_anim.h ****  * @param exec_cb   a function to execute.
 184:c:\projects\paindrain\arduinolcd\test\pain drain\libraries\lvgl\src\misc\lv_anim.h ****  */
 185:c:\projects\paindrain\arduinolcd\test\pain drain\libraries\lvgl\src\misc\lv_anim.h **** static inline void lv_anim_set_custom_exec_cb(lv_anim_t * a, lv_anim_custom_exec_cb_t exec_cb)
 186:c:\projects\paindrain\arduinolcd\test\pain drain\libraries\lvgl\src\misc\lv_anim.h **** {
 187:c:\projects\paindrain\arduinolcd\test\pain drain\libraries\lvgl\src\misc\lv_anim.h ****     a->var     = a;
 188:c:\projects\paindrain\arduinolcd\test\pain drain\libraries\lvgl\src\misc\lv_anim.h ****     a->exec_cb = (lv_anim_exec_xcb_t)exec_cb;
 189:c:\projects\paindrain\arduinolcd\test\pain drain\libraries\lvgl\src\misc\lv_anim.h **** }
 190:c:\projects\paindrain\arduinolcd\test\pain drain\libraries\lvgl\src\misc\lv_anim.h **** 
 191:c:\projects\paindrain\arduinolcd\test\pain drain\libraries\lvgl\src\misc\lv_anim.h **** /**
 192:c:\projects\paindrain\arduinolcd\test\pain drain\libraries\lvgl\src\misc\lv_anim.h ****  * Set the path (curve) of the animation.
 193:c:\projects\paindrain\arduinolcd\test\pain drain\libraries\lvgl\src\misc\lv_anim.h ****  * @param a         pointer to an initialized `lv_anim_t` variable
 194:c:\projects\paindrain\arduinolcd\test\pain drain\libraries\lvgl\src\misc\lv_anim.h ****  * @param path_cb a function to set the current value of the animation.
 195:c:\projects\paindrain\arduinolcd\test\pain drain\libraries\lvgl\src\misc\lv_anim.h ****  */
 196:c:\projects\paindrain\arduinolcd\test\pain drain\libraries\lvgl\src\misc\lv_anim.h **** static inline void lv_anim_set_path_cb(lv_anim_t * a, lv_anim_path_cb_t path_cb)
ARM GAS  C:\Users\haske\AppData\Local\Temp\ccLw7Foe.s 			page 38


 197:c:\projects\paindrain\arduinolcd\test\pain drain\libraries\lvgl\src\misc\lv_anim.h **** {
 198:c:\projects\paindrain\arduinolcd\test\pain drain\libraries\lvgl\src\misc\lv_anim.h ****     a->path_cb = path_cb;
 199:c:\projects\paindrain\arduinolcd\test\pain drain\libraries\lvgl\src\misc\lv_anim.h **** }
 200:c:\projects\paindrain\arduinolcd\test\pain drain\libraries\lvgl\src\misc\lv_anim.h **** 
 201:c:\projects\paindrain\arduinolcd\test\pain drain\libraries\lvgl\src\misc\lv_anim.h **** /**
 202:c:\projects\paindrain\arduinolcd\test\pain drain\libraries\lvgl\src\misc\lv_anim.h ****  * Set a function call when the animation really starts (considering `delay`)
 203:c:\projects\paindrain\arduinolcd\test\pain drain\libraries\lvgl\src\misc\lv_anim.h ****  * @param a         pointer to an initialized `lv_anim_t` variable
 204:c:\projects\paindrain\arduinolcd\test\pain drain\libraries\lvgl\src\misc\lv_anim.h ****  * @param start_cb  a function call when the animation starts
 205:c:\projects\paindrain\arduinolcd\test\pain drain\libraries\lvgl\src\misc\lv_anim.h ****  */
 206:c:\projects\paindrain\arduinolcd\test\pain drain\libraries\lvgl\src\misc\lv_anim.h **** static inline void lv_anim_set_start_cb(lv_anim_t * a, lv_anim_start_cb_t start_cb)
 207:c:\projects\paindrain\arduinolcd\test\pain drain\libraries\lvgl\src\misc\lv_anim.h **** {
 208:c:\projects\paindrain\arduinolcd\test\pain drain\libraries\lvgl\src\misc\lv_anim.h ****     a->start_cb = start_cb;
 1054              		.loc 3 208 0
 1055 00fc 6C4B     		ldr	r3, .L70
 1056 00fe 1593     		str	r3, [sp, #84]
 1057              	.LVL132:
 1058              	.LBE117:
 1059              	.LBE116:
 1060              	.LBB118:
 1061              	.LBB119:
 209:c:\projects\paindrain\arduinolcd\test\pain drain\libraries\lvgl\src\misc\lv_anim.h **** }
 210:c:\projects\paindrain\arduinolcd\test\pain drain\libraries\lvgl\src\misc\lv_anim.h **** 
 211:c:\projects\paindrain\arduinolcd\test\pain drain\libraries\lvgl\src\misc\lv_anim.h **** /**
 212:c:\projects\paindrain\arduinolcd\test\pain drain\libraries\lvgl\src\misc\lv_anim.h ****  * Set a function to use the current value of the variable and make start and end value
 213:c:\projects\paindrain\arduinolcd\test\pain drain\libraries\lvgl\src\misc\lv_anim.h ****  * relative to the returned current value.
 214:c:\projects\paindrain\arduinolcd\test\pain drain\libraries\lvgl\src\misc\lv_anim.h ****  * @param a             pointer to an initialized `lv_anim_t` variable
 215:c:\projects\paindrain\arduinolcd\test\pain drain\libraries\lvgl\src\misc\lv_anim.h ****  * @param get_value_cb  a function call when the animation starts
 216:c:\projects\paindrain\arduinolcd\test\pain drain\libraries\lvgl\src\misc\lv_anim.h ****  */
 217:c:\projects\paindrain\arduinolcd\test\pain drain\libraries\lvgl\src\misc\lv_anim.h **** static inline void lv_anim_set_get_value_cb(lv_anim_t * a, lv_anim_get_value_cb_t get_value_cb)
 218:c:\projects\paindrain\arduinolcd\test\pain drain\libraries\lvgl\src\misc\lv_anim.h **** {
 219:c:\projects\paindrain\arduinolcd\test\pain drain\libraries\lvgl\src\misc\lv_anim.h ****     a->get_value_cb = get_value_cb;
 220:c:\projects\paindrain\arduinolcd\test\pain drain\libraries\lvgl\src\misc\lv_anim.h **** }
 221:c:\projects\paindrain\arduinolcd\test\pain drain\libraries\lvgl\src\misc\lv_anim.h **** 
 222:c:\projects\paindrain\arduinolcd\test\pain drain\libraries\lvgl\src\misc\lv_anim.h **** /**
 223:c:\projects\paindrain\arduinolcd\test\pain drain\libraries\lvgl\src\misc\lv_anim.h ****  * Set a function call when the animation is ready
 224:c:\projects\paindrain\arduinolcd\test\pain drain\libraries\lvgl\src\misc\lv_anim.h ****  * @param a         pointer to an initialized `lv_anim_t` variable
 225:c:\projects\paindrain\arduinolcd\test\pain drain\libraries\lvgl\src\misc\lv_anim.h ****  * @param ready_cb  a function call when the animation is ready
 226:c:\projects\paindrain\arduinolcd\test\pain drain\libraries\lvgl\src\misc\lv_anim.h ****  */
 227:c:\projects\paindrain\arduinolcd\test\pain drain\libraries\lvgl\src\misc\lv_anim.h **** static inline void lv_anim_set_ready_cb(lv_anim_t * a, lv_anim_ready_cb_t ready_cb)
 228:c:\projects\paindrain\arduinolcd\test\pain drain\libraries\lvgl\src\misc\lv_anim.h **** {
 229:c:\projects\paindrain\arduinolcd\test\pain drain\libraries\lvgl\src\misc\lv_anim.h ****     a->ready_cb = ready_cb;
 1062              		.loc 3 229 0
 1063 0100 6C4B     		ldr	r3, .L70+4
 1064 0102 1693     		str	r3, [sp, #88]
 1065              	.LVL133:
 1066              	.LBE119:
 1067              	.LBE118:
 1068              	.LBB120:
 1069              	.LBB121:
 150:c:\projects\paindrain\arduinolcd\test\pain drain\libraries\lvgl\src\misc\lv_anim.h **** }
 1070              		.loc 3 150 0
 1071 0104 1E97     		str	r7, [sp, #120]
 1072              	.LVL134:
 1073              	.LBE121:
 1074              	.LBE120:
 1075              	.LBB122:
 1076              	.LBB123:
ARM GAS  C:\Users\haske\AppData\Local\Temp\ccLw7Foe.s 			page 39


 160:c:\projects\paindrain\arduinolcd\test\pain drain\libraries\lvgl\src\misc\lv_anim.h **** }
 1077              		.loc 3 160 0
 1078 0106 4346     		mov	r3, r8
 1079 0108 5D42     		rsbs	r5, r3, #0
 1080 010a 1F95     		str	r5, [sp, #124]
 1081              	.LVL135:
 1082              	.LBE123:
 1083              	.LBE122:
 277:..\..\..\arduinoLCD\test\Pain Drain\libraries\lvgl\src\core/lv_disp.c ****     lv_anim_set_var(&a_old, d->act_scr);
 1084              		.loc 1 277 0
 1085 010c 02A8     		add	r0, sp, #8
 1086 010e FFF7FEFF 		bl	lv_anim_init
 1087              	.LVL136:
 1088              	.LBB124:
 1089              	.LBB125:
 128:c:\projects\paindrain\arduinolcd\test\pain drain\libraries\lvgl\src\misc\lv_anim.h **** }
 1090              		.loc 3 128 0
 1091 0112 2369     		ldr	r3, [r4, #16]
 1092 0114 0293     		str	r3, [sp, #8]
 1093              	.LVL137:
 1094              	.LBE125:
 1095              	.LBE124:
 1096              	.LBB126:
 1097              	.LBB127:
 150:c:\projects\paindrain\arduinolcd\test\pain drain\libraries\lvgl\src\misc\lv_anim.h **** }
 1098              		.loc 3 150 0
 1099 0116 0D97     		str	r7, [sp, #52]
 1100              	.LVL138:
 1101              	.LBE127:
 1102              	.LBE126:
 1103              	.LBB128:
 1104              	.LBB129:
 160:c:\projects\paindrain\arduinolcd\test\pain drain\libraries\lvgl\src\misc\lv_anim.h **** }
 1105              		.loc 3 160 0
 1106 0118 0E95     		str	r5, [sp, #56]
 1107              	.LVL139:
 1108              	.LBE129:
 1109              	.LBE128:
 282:..\..\..\arduinoLCD\test\Pain Drain\libraries\lvgl\src\core/lv_disp.c ****         case LV_SCR_LOAD_ANIM_NONE:
 1110              		.loc 1 282 0
 1111 011a 019B     		ldr	r3, [sp, #4]
 1112 011c 0E2B     		cmp	r3, #14
 1113 011e 00D9     		bls	.LCB1022
 1114 0120 B5E0     		b	.L53	@long jump
 1115              	.LCB1022:
 1116 0122 9F00     		lsls	r7, r3, #2
 1117              	.LVL140:
 1118 0124 644B     		ldr	r3, .L70+8
 1119 0126 DB59     		ldr	r3, [r3, r7]
 1120 0128 9F46     		mov	pc, r3
 1121              		.section	.rodata
 1122              		.align	2
 1123              	.L55:
 1124 0000 2A010000 		.word	.L54
 1125 0004 38010000 		.word	.L56
 1126 0008 4C010000 		.word	.L57
 1127 000c 62010000 		.word	.L58
ARM GAS  C:\Users\haske\AppData\Local\Temp\ccLw7Foe.s 			page 40


 1128 0010 76010000 		.word	.L59
 1129 0014 8C010000 		.word	.L60
 1130 0018 B0010000 		.word	.L61
 1131 001c D4010000 		.word	.L62
 1132 0020 F8010000 		.word	.L63
 1133 0024 1C020000 		.word	.L64
 1134 0028 2C020000 		.word	.L65
 1135 002c 3C020000 		.word	.L66
 1136 0030 52020000 		.word	.L67
 1137 0034 66020000 		.word	.L68
 1138 0038 7C020000 		.word	.L69
 1139              		.section	.text.lv_scr_load_anim
 1140              	.L54:
 1141              	.LVL141:
 1142              	.LBB130:
 1143              	.LBB131:
 140:c:\projects\paindrain\arduinolcd\test\pain drain\libraries\lvgl\src\misc\lv_anim.h **** }
 1144              		.loc 3 140 0
 1145 012a 644B     		ldr	r3, .L70+12
 1146 012c 1493     		str	r3, [sp, #80]
 1147              	.LVL142:
 1148              	.LBE131:
 1149              	.LBE130:
 1150              	.LBB132:
 1151              	.LBB133:
 171:c:\projects\paindrain\arduinolcd\test\pain drain\libraries\lvgl\src\misc\lv_anim.h ****     a->current_value = start;
 1152              		.loc 3 171 0
 1153 012e 0023     		movs	r3, #0
 1154 0130 1B93     		str	r3, [sp, #108]
 172:c:\projects\paindrain\arduinolcd\test\pain drain\libraries\lvgl\src\misc\lv_anim.h ****     a->end_value = end;
 1155              		.loc 3 172 0
 1156 0132 1C93     		str	r3, [sp, #112]
 173:c:\projects\paindrain\arduinolcd\test\pain drain\libraries\lvgl\src\misc\lv_anim.h **** }
 1157              		.loc 3 173 0
 1158 0134 1D93     		str	r3, [sp, #116]
 1159 0136 AAE0     		b	.L53
 1160              	.LVL143:
 1161              	.L56:
 1162              	.LBE133:
 1163              	.LBE132:
 1164              	.LBB134:
 1165              	.LBB135:
 140:c:\projects\paindrain\arduinolcd\test\pain drain\libraries\lvgl\src\misc\lv_anim.h **** }
 1166              		.loc 3 140 0
 1167 0138 604B     		ldr	r3, .L70+12
 1168 013a 1493     		str	r3, [sp, #80]
 1169              	.LVL144:
 1170              	.LBE135:
 1171              	.LBE134:
 290:..\..\..\arduinoLCD\test\Pain Drain\libraries\lvgl\src\core/lv_disp.c ****             break;
 1172              		.loc 1 290 0
 1173 013c 2000     		movs	r0, r4
 1174 013e FFF7FEFF 		bl	lv_disp_get_hor_res
 1175              	.LVL145:
 1176              	.LBB136:
 1177              	.LBB137:
 171:c:\projects\paindrain\arduinolcd\test\pain drain\libraries\lvgl\src\misc\lv_anim.h ****     a->current_value = start;
ARM GAS  C:\Users\haske\AppData\Local\Temp\ccLw7Foe.s 			page 41


 1178              		.loc 3 171 0
 1179 0142 1B90     		str	r0, [sp, #108]
 172:c:\projects\paindrain\arduinolcd\test\pain drain\libraries\lvgl\src\misc\lv_anim.h ****     a->end_value = end;
 1180              		.loc 3 172 0
 1181 0144 1C90     		str	r0, [sp, #112]
 173:c:\projects\paindrain\arduinolcd\test\pain drain\libraries\lvgl\src\misc\lv_anim.h **** }
 1182              		.loc 3 173 0
 1183 0146 0023     		movs	r3, #0
 1184 0148 1D93     		str	r3, [sp, #116]
 1185 014a A0E0     		b	.L53
 1186              	.LVL146:
 1187              	.L57:
 1188              	.LBE137:
 1189              	.LBE136:
 1190              	.LBB138:
 1191              	.LBB139:
 140:c:\projects\paindrain\arduinolcd\test\pain drain\libraries\lvgl\src\misc\lv_anim.h **** }
 1192              		.loc 3 140 0
 1193 014c 5B4B     		ldr	r3, .L70+12
 1194 014e 1493     		str	r3, [sp, #80]
 1195              	.LVL147:
 1196              	.LBE139:
 1197              	.LBE138:
 294:..\..\..\arduinoLCD\test\Pain Drain\libraries\lvgl\src\core/lv_disp.c ****             break;
 1198              		.loc 1 294 0
 1199 0150 2000     		movs	r0, r4
 1200 0152 FFF7FEFF 		bl	lv_disp_get_hor_res
 1201              	.LVL148:
 1202 0156 4042     		rsbs	r0, r0, #0
 1203              	.LVL149:
 1204              	.LBB140:
 1205              	.LBB141:
 171:c:\projects\paindrain\arduinolcd\test\pain drain\libraries\lvgl\src\misc\lv_anim.h ****     a->current_value = start;
 1206              		.loc 3 171 0
 1207 0158 1B90     		str	r0, [sp, #108]
 172:c:\projects\paindrain\arduinolcd\test\pain drain\libraries\lvgl\src\misc\lv_anim.h ****     a->end_value = end;
 1208              		.loc 3 172 0
 1209 015a 1C90     		str	r0, [sp, #112]
 173:c:\projects\paindrain\arduinolcd\test\pain drain\libraries\lvgl\src\misc\lv_anim.h **** }
 1210              		.loc 3 173 0
 1211 015c 0023     		movs	r3, #0
 1212 015e 1D93     		str	r3, [sp, #116]
 1213 0160 95E0     		b	.L53
 1214              	.LVL150:
 1215              	.L58:
 1216              	.LBE141:
 1217              	.LBE140:
 1218              	.LBB142:
 1219              	.LBB143:
 140:c:\projects\paindrain\arduinolcd\test\pain drain\libraries\lvgl\src\misc\lv_anim.h **** }
 1220              		.loc 3 140 0
 1221 0162 574B     		ldr	r3, .L70+16
 1222 0164 1493     		str	r3, [sp, #80]
 1223              	.LVL151:
 1224              	.LBE143:
 1225              	.LBE142:
 298:..\..\..\arduinoLCD\test\Pain Drain\libraries\lvgl\src\core/lv_disp.c ****             break;
ARM GAS  C:\Users\haske\AppData\Local\Temp\ccLw7Foe.s 			page 42


 1226              		.loc 1 298 0
 1227 0166 2000     		movs	r0, r4
 1228 0168 FFF7FEFF 		bl	lv_disp_get_ver_res
 1229              	.LVL152:
 1230              	.LBB144:
 1231              	.LBB145:
 171:c:\projects\paindrain\arduinolcd\test\pain drain\libraries\lvgl\src\misc\lv_anim.h ****     a->current_value = start;
 1232              		.loc 3 171 0
 1233 016c 1B90     		str	r0, [sp, #108]
 172:c:\projects\paindrain\arduinolcd\test\pain drain\libraries\lvgl\src\misc\lv_anim.h ****     a->end_value = end;
 1234              		.loc 3 172 0
 1235 016e 1C90     		str	r0, [sp, #112]
 173:c:\projects\paindrain\arduinolcd\test\pain drain\libraries\lvgl\src\misc\lv_anim.h **** }
 1236              		.loc 3 173 0
 1237 0170 0023     		movs	r3, #0
 1238 0172 1D93     		str	r3, [sp, #116]
 1239 0174 8BE0     		b	.L53
 1240              	.LVL153:
 1241              	.L59:
 1242              	.LBE145:
 1243              	.LBE144:
 1244              	.LBB146:
 1245              	.LBB147:
 140:c:\projects\paindrain\arduinolcd\test\pain drain\libraries\lvgl\src\misc\lv_anim.h **** }
 1246              		.loc 3 140 0
 1247 0176 524B     		ldr	r3, .L70+16
 1248 0178 1493     		str	r3, [sp, #80]
 1249              	.LVL154:
 1250              	.LBE147:
 1251              	.LBE146:
 302:..\..\..\arduinoLCD\test\Pain Drain\libraries\lvgl\src\core/lv_disp.c ****             break;
 1252              		.loc 1 302 0
 1253 017a 2000     		movs	r0, r4
 1254 017c FFF7FEFF 		bl	lv_disp_get_ver_res
 1255              	.LVL155:
 1256 0180 4042     		rsbs	r0, r0, #0
 1257              	.LVL156:
 1258              	.LBB148:
 1259              	.LBB149:
 171:c:\projects\paindrain\arduinolcd\test\pain drain\libraries\lvgl\src\misc\lv_anim.h ****     a->current_value = start;
 1260              		.loc 3 171 0
 1261 0182 1B90     		str	r0, [sp, #108]
 172:c:\projects\paindrain\arduinolcd\test\pain drain\libraries\lvgl\src\misc\lv_anim.h ****     a->end_value = end;
 1262              		.loc 3 172 0
 1263 0184 1C90     		str	r0, [sp, #112]
 173:c:\projects\paindrain\arduinolcd\test\pain drain\libraries\lvgl\src\misc\lv_anim.h **** }
 1264              		.loc 3 173 0
 1265 0186 0023     		movs	r3, #0
 1266 0188 1D93     		str	r3, [sp, #116]
 1267 018a 80E0     		b	.L53
 1268              	.LVL157:
 1269              	.L60:
 1270              	.LBE149:
 1271              	.LBE148:
 1272              	.LBB150:
 1273              	.LBB151:
 140:c:\projects\paindrain\arduinolcd\test\pain drain\libraries\lvgl\src\misc\lv_anim.h **** }
ARM GAS  C:\Users\haske\AppData\Local\Temp\ccLw7Foe.s 			page 43


 1274              		.loc 3 140 0
 1275 018c 4B4E     		ldr	r6, .L70+12
 1276              	.LVL158:
 1277 018e 1496     		str	r6, [sp, #80]
 1278              	.LVL159:
 1279              	.LBE151:
 1280              	.LBE150:
 306:..\..\..\arduinoLCD\test\Pain Drain\libraries\lvgl\src\core/lv_disp.c **** 
 1281              		.loc 1 306 0
 1282 0190 2000     		movs	r0, r4
 1283 0192 FFF7FEFF 		bl	lv_disp_get_hor_res
 1284              	.LVL160:
 1285              	.LBB152:
 1286              	.LBB153:
 171:c:\projects\paindrain\arduinolcd\test\pain drain\libraries\lvgl\src\misc\lv_anim.h ****     a->current_value = start;
 1287              		.loc 3 171 0
 1288 0196 1B90     		str	r0, [sp, #108]
 172:c:\projects\paindrain\arduinolcd\test\pain drain\libraries\lvgl\src\misc\lv_anim.h ****     a->end_value = end;
 1289              		.loc 3 172 0
 1290 0198 1C90     		str	r0, [sp, #112]
 173:c:\projects\paindrain\arduinolcd\test\pain drain\libraries\lvgl\src\misc\lv_anim.h **** }
 1291              		.loc 3 173 0
 1292 019a 0025     		movs	r5, #0
 1293 019c 1D95     		str	r5, [sp, #116]
 1294              	.LVL161:
 1295              	.LBE153:
 1296              	.LBE152:
 1297              	.LBB154:
 1298              	.LBB155:
 140:c:\projects\paindrain\arduinolcd\test\pain drain\libraries\lvgl\src\misc\lv_anim.h **** }
 1299              		.loc 3 140 0
 1300 019e 0396     		str	r6, [sp, #12]
 1301              	.LVL162:
 1302              	.LBE155:
 1303              	.LBE154:
 309:..\..\..\arduinoLCD\test\Pain Drain\libraries\lvgl\src\core/lv_disp.c ****             break;
 1304              		.loc 1 309 0
 1305 01a0 2000     		movs	r0, r4
 1306 01a2 FFF7FEFF 		bl	lv_disp_get_hor_res
 1307              	.LVL163:
 1308 01a6 4042     		rsbs	r0, r0, #0
 1309              	.LVL164:
 1310              	.LBB156:
 1311              	.LBB157:
 171:c:\projects\paindrain\arduinolcd\test\pain drain\libraries\lvgl\src\misc\lv_anim.h ****     a->current_value = start;
 1312              		.loc 3 171 0
 1313 01a8 0A95     		str	r5, [sp, #40]
 172:c:\projects\paindrain\arduinolcd\test\pain drain\libraries\lvgl\src\misc\lv_anim.h ****     a->end_value = end;
 1314              		.loc 3 172 0
 1315 01aa 0B95     		str	r5, [sp, #44]
 173:c:\projects\paindrain\arduinolcd\test\pain drain\libraries\lvgl\src\misc\lv_anim.h **** }
 1316              		.loc 3 173 0
 1317 01ac 0C90     		str	r0, [sp, #48]
 1318 01ae 6EE0     		b	.L53
 1319              	.LVL165:
 1320              	.L61:
 1321              	.LBE157:
ARM GAS  C:\Users\haske\AppData\Local\Temp\ccLw7Foe.s 			page 44


 1322              	.LBE156:
 1323              	.LBB158:
 1324              	.LBB159:
 140:c:\projects\paindrain\arduinolcd\test\pain drain\libraries\lvgl\src\misc\lv_anim.h **** }
 1325              		.loc 3 140 0
 1326 01b0 424E     		ldr	r6, .L70+12
 1327              	.LVL166:
 1328 01b2 1496     		str	r6, [sp, #80]
 1329              	.LVL167:
 1330              	.LBE159:
 1331              	.LBE158:
 313:..\..\..\arduinoLCD\test\Pain Drain\libraries\lvgl\src\core/lv_disp.c **** 
 1332              		.loc 1 313 0
 1333 01b4 2000     		movs	r0, r4
 1334 01b6 FFF7FEFF 		bl	lv_disp_get_hor_res
 1335              	.LVL168:
 1336 01ba 4042     		rsbs	r0, r0, #0
 1337              	.LVL169:
 1338              	.LBB160:
 1339              	.LBB161:
 171:c:\projects\paindrain\arduinolcd\test\pain drain\libraries\lvgl\src\misc\lv_anim.h ****     a->current_value = start;
 1340              		.loc 3 171 0
 1341 01bc 1B90     		str	r0, [sp, #108]
 172:c:\projects\paindrain\arduinolcd\test\pain drain\libraries\lvgl\src\misc\lv_anim.h ****     a->end_value = end;
 1342              		.loc 3 172 0
 1343 01be 1C90     		str	r0, [sp, #112]
 173:c:\projects\paindrain\arduinolcd\test\pain drain\libraries\lvgl\src\misc\lv_anim.h **** }
 1344              		.loc 3 173 0
 1345 01c0 0025     		movs	r5, #0
 1346 01c2 1D95     		str	r5, [sp, #116]
 1347              	.LVL170:
 1348              	.LBE161:
 1349              	.LBE160:
 1350              	.LBB162:
 1351              	.LBB163:
 140:c:\projects\paindrain\arduinolcd\test\pain drain\libraries\lvgl\src\misc\lv_anim.h **** }
 1352              		.loc 3 140 0
 1353 01c4 0396     		str	r6, [sp, #12]
 1354              	.LVL171:
 1355              	.LBE163:
 1356              	.LBE162:
 316:..\..\..\arduinoLCD\test\Pain Drain\libraries\lvgl\src\core/lv_disp.c ****             break;
 1357              		.loc 1 316 0
 1358 01c6 2000     		movs	r0, r4
 1359 01c8 FFF7FEFF 		bl	lv_disp_get_hor_res
 1360              	.LVL172:
 1361              	.LBB164:
 1362              	.LBB165:
 171:c:\projects\paindrain\arduinolcd\test\pain drain\libraries\lvgl\src\misc\lv_anim.h ****     a->current_value = start;
 1363              		.loc 3 171 0
 1364 01cc 0A95     		str	r5, [sp, #40]
 172:c:\projects\paindrain\arduinolcd\test\pain drain\libraries\lvgl\src\misc\lv_anim.h ****     a->end_value = end;
 1365              		.loc 3 172 0
 1366 01ce 0B95     		str	r5, [sp, #44]
 173:c:\projects\paindrain\arduinolcd\test\pain drain\libraries\lvgl\src\misc\lv_anim.h **** }
 1367              		.loc 3 173 0
 1368 01d0 0C90     		str	r0, [sp, #48]
ARM GAS  C:\Users\haske\AppData\Local\Temp\ccLw7Foe.s 			page 45


 1369 01d2 5CE0     		b	.L53
 1370              	.LVL173:
 1371              	.L62:
 1372              	.LBE165:
 1373              	.LBE164:
 1374              	.LBB166:
 1375              	.LBB167:
 140:c:\projects\paindrain\arduinolcd\test\pain drain\libraries\lvgl\src\misc\lv_anim.h **** }
 1376              		.loc 3 140 0
 1377 01d4 3A4E     		ldr	r6, .L70+16
 1378              	.LVL174:
 1379 01d6 1496     		str	r6, [sp, #80]
 1380              	.LVL175:
 1381              	.LBE167:
 1382              	.LBE166:
 320:..\..\..\arduinoLCD\test\Pain Drain\libraries\lvgl\src\core/lv_disp.c **** 
 1383              		.loc 1 320 0
 1384 01d8 2000     		movs	r0, r4
 1385 01da FFF7FEFF 		bl	lv_disp_get_ver_res
 1386              	.LVL176:
 1387              	.LBB168:
 1388              	.LBB169:
 171:c:\projects\paindrain\arduinolcd\test\pain drain\libraries\lvgl\src\misc\lv_anim.h ****     a->current_value = start;
 1389              		.loc 3 171 0
 1390 01de 1B90     		str	r0, [sp, #108]
 172:c:\projects\paindrain\arduinolcd\test\pain drain\libraries\lvgl\src\misc\lv_anim.h ****     a->end_value = end;
 1391              		.loc 3 172 0
 1392 01e0 1C90     		str	r0, [sp, #112]
 173:c:\projects\paindrain\arduinolcd\test\pain drain\libraries\lvgl\src\misc\lv_anim.h **** }
 1393              		.loc 3 173 0
 1394 01e2 0025     		movs	r5, #0
 1395 01e4 1D95     		str	r5, [sp, #116]
 1396              	.LVL177:
 1397              	.LBE169:
 1398              	.LBE168:
 1399              	.LBB170:
 1400              	.LBB171:
 140:c:\projects\paindrain\arduinolcd\test\pain drain\libraries\lvgl\src\misc\lv_anim.h **** }
 1401              		.loc 3 140 0
 1402 01e6 0396     		str	r6, [sp, #12]
 1403              	.LVL178:
 1404              	.LBE171:
 1405              	.LBE170:
 323:..\..\..\arduinoLCD\test\Pain Drain\libraries\lvgl\src\core/lv_disp.c ****             break;
 1406              		.loc 1 323 0
 1407 01e8 2000     		movs	r0, r4
 1408 01ea FFF7FEFF 		bl	lv_disp_get_ver_res
 1409              	.LVL179:
 1410 01ee 4042     		rsbs	r0, r0, #0
 1411              	.LVL180:
 1412              	.LBB172:
 1413              	.LBB173:
 171:c:\projects\paindrain\arduinolcd\test\pain drain\libraries\lvgl\src\misc\lv_anim.h ****     a->current_value = start;
 1414              		.loc 3 171 0
 1415 01f0 0A95     		str	r5, [sp, #40]
 172:c:\projects\paindrain\arduinolcd\test\pain drain\libraries\lvgl\src\misc\lv_anim.h ****     a->end_value = end;
 1416              		.loc 3 172 0
ARM GAS  C:\Users\haske\AppData\Local\Temp\ccLw7Foe.s 			page 46


 1417 01f2 0B95     		str	r5, [sp, #44]
 173:c:\projects\paindrain\arduinolcd\test\pain drain\libraries\lvgl\src\misc\lv_anim.h **** }
 1418              		.loc 3 173 0
 1419 01f4 0C90     		str	r0, [sp, #48]
 1420 01f6 4AE0     		b	.L53
 1421              	.LVL181:
 1422              	.L63:
 1423              	.LBE173:
 1424              	.LBE172:
 1425              	.LBB174:
 1426              	.LBB175:
 140:c:\projects\paindrain\arduinolcd\test\pain drain\libraries\lvgl\src\misc\lv_anim.h **** }
 1427              		.loc 3 140 0
 1428 01f8 314E     		ldr	r6, .L70+16
 1429              	.LVL182:
 1430 01fa 1496     		str	r6, [sp, #80]
 1431              	.LVL183:
 1432              	.LBE175:
 1433              	.LBE174:
 327:..\..\..\arduinoLCD\test\Pain Drain\libraries\lvgl\src\core/lv_disp.c **** 
 1434              		.loc 1 327 0
 1435 01fc 2000     		movs	r0, r4
 1436 01fe FFF7FEFF 		bl	lv_disp_get_ver_res
 1437              	.LVL184:
 1438 0202 4042     		rsbs	r0, r0, #0
 1439              	.LVL185:
 1440              	.LBB176:
 1441              	.LBB177:
 171:c:\projects\paindrain\arduinolcd\test\pain drain\libraries\lvgl\src\misc\lv_anim.h ****     a->current_value = start;
 1442              		.loc 3 171 0
 1443 0204 1B90     		str	r0, [sp, #108]
 172:c:\projects\paindrain\arduinolcd\test\pain drain\libraries\lvgl\src\misc\lv_anim.h ****     a->end_value = end;
 1444              		.loc 3 172 0
 1445 0206 1C90     		str	r0, [sp, #112]
 173:c:\projects\paindrain\arduinolcd\test\pain drain\libraries\lvgl\src\misc\lv_anim.h **** }
 1446              		.loc 3 173 0
 1447 0208 0025     		movs	r5, #0
 1448 020a 1D95     		str	r5, [sp, #116]
 1449              	.LVL186:
 1450              	.LBE177:
 1451              	.LBE176:
 1452              	.LBB178:
 1453              	.LBB179:
 140:c:\projects\paindrain\arduinolcd\test\pain drain\libraries\lvgl\src\misc\lv_anim.h **** }
 1454              		.loc 3 140 0
 1455 020c 0396     		str	r6, [sp, #12]
 1456              	.LVL187:
 1457              	.LBE179:
 1458              	.LBE178:
 330:..\..\..\arduinoLCD\test\Pain Drain\libraries\lvgl\src\core/lv_disp.c ****             break;
 1459              		.loc 1 330 0
 1460 020e 2000     		movs	r0, r4
 1461 0210 FFF7FEFF 		bl	lv_disp_get_ver_res
 1462              	.LVL188:
 1463              	.LBB180:
 1464              	.LBB181:
 171:c:\projects\paindrain\arduinolcd\test\pain drain\libraries\lvgl\src\misc\lv_anim.h ****     a->current_value = start;
ARM GAS  C:\Users\haske\AppData\Local\Temp\ccLw7Foe.s 			page 47


 1465              		.loc 3 171 0
 1466 0214 0A95     		str	r5, [sp, #40]
 172:c:\projects\paindrain\arduinolcd\test\pain drain\libraries\lvgl\src\misc\lv_anim.h ****     a->end_value = end;
 1467              		.loc 3 172 0
 1468 0216 0B95     		str	r5, [sp, #44]
 173:c:\projects\paindrain\arduinolcd\test\pain drain\libraries\lvgl\src\misc\lv_anim.h **** }
 1469              		.loc 3 173 0
 1470 0218 0C90     		str	r0, [sp, #48]
 1471 021a 38E0     		b	.L53
 1472              	.LVL189:
 1473              	.L64:
 1474              	.LBE181:
 1475              	.LBE180:
 1476              	.LBB182:
 1477              	.LBB183:
 140:c:\projects\paindrain\arduinolcd\test\pain drain\libraries\lvgl\src\misc\lv_anim.h **** }
 1478              		.loc 3 140 0
 1479 021c 294B     		ldr	r3, .L70+20
 1480 021e 1493     		str	r3, [sp, #80]
 1481              	.LVL190:
 1482              	.LBE183:
 1483              	.LBE182:
 1484              	.LBB184:
 1485              	.LBB185:
 171:c:\projects\paindrain\arduinolcd\test\pain drain\libraries\lvgl\src\misc\lv_anim.h ****     a->current_value = start;
 1486              		.loc 3 171 0
 1487 0220 0023     		movs	r3, #0
 1488 0222 1B93     		str	r3, [sp, #108]
 172:c:\projects\paindrain\arduinolcd\test\pain drain\libraries\lvgl\src\misc\lv_anim.h ****     a->end_value = end;
 1489              		.loc 3 172 0
 1490 0224 1C93     		str	r3, [sp, #112]
 173:c:\projects\paindrain\arduinolcd\test\pain drain\libraries\lvgl\src\misc\lv_anim.h **** }
 1491              		.loc 3 173 0
 1492 0226 FF33     		adds	r3, r3, #255
 1493 0228 1D93     		str	r3, [sp, #116]
 1494 022a 30E0     		b	.L53
 1495              	.LVL191:
 1496              	.L65:
 1497              	.LBE185:
 1498              	.LBE184:
 1499              	.LBB186:
 1500              	.LBB187:
 140:c:\projects\paindrain\arduinolcd\test\pain drain\libraries\lvgl\src\misc\lv_anim.h **** }
 1501              		.loc 3 140 0
 1502 022c 254B     		ldr	r3, .L70+20
 1503 022e 0393     		str	r3, [sp, #12]
 1504              	.LVL192:
 1505              	.LBE187:
 1506              	.LBE186:
 1507              	.LBB188:
 1508              	.LBB189:
 171:c:\projects\paindrain\arduinolcd\test\pain drain\libraries\lvgl\src\misc\lv_anim.h ****     a->current_value = start;
 1509              		.loc 3 171 0
 1510 0230 FF23     		movs	r3, #255
 1511 0232 0A93     		str	r3, [sp, #40]
 172:c:\projects\paindrain\arduinolcd\test\pain drain\libraries\lvgl\src\misc\lv_anim.h ****     a->end_value = end;
 1512              		.loc 3 172 0
ARM GAS  C:\Users\haske\AppData\Local\Temp\ccLw7Foe.s 			page 48


 1513 0234 0B93     		str	r3, [sp, #44]
 173:c:\projects\paindrain\arduinolcd\test\pain drain\libraries\lvgl\src\misc\lv_anim.h **** }
 1514              		.loc 3 173 0
 1515 0236 0023     		movs	r3, #0
 1516 0238 0C93     		str	r3, [sp, #48]
 1517 023a 28E0     		b	.L53
 1518              	.LVL193:
 1519              	.L66:
 1520              	.LBE189:
 1521              	.LBE188:
 1522              	.LBB190:
 1523              	.LBB191:
 140:c:\projects\paindrain\arduinolcd\test\pain drain\libraries\lvgl\src\misc\lv_anim.h **** }
 1524              		.loc 3 140 0
 1525 023c 1F4B     		ldr	r3, .L70+12
 1526 023e 0393     		str	r3, [sp, #12]
 1527              	.LVL194:
 1528              	.LBE191:
 1529              	.LBE190:
 342:..\..\..\arduinoLCD\test\Pain Drain\libraries\lvgl\src\core/lv_disp.c ****             break;
 1530              		.loc 1 342 0
 1531 0240 2000     		movs	r0, r4
 1532 0242 FFF7FEFF 		bl	lv_disp_get_hor_res
 1533              	.LVL195:
 1534 0246 4042     		rsbs	r0, r0, #0
 1535              	.LVL196:
 1536              	.LBB192:
 1537              	.LBB193:
 171:c:\projects\paindrain\arduinolcd\test\pain drain\libraries\lvgl\src\misc\lv_anim.h ****     a->current_value = start;
 1538              		.loc 3 171 0
 1539 0248 0023     		movs	r3, #0
 1540 024a 0A93     		str	r3, [sp, #40]
 172:c:\projects\paindrain\arduinolcd\test\pain drain\libraries\lvgl\src\misc\lv_anim.h ****     a->end_value = end;
 1541              		.loc 3 172 0
 1542 024c 0B93     		str	r3, [sp, #44]
 173:c:\projects\paindrain\arduinolcd\test\pain drain\libraries\lvgl\src\misc\lv_anim.h **** }
 1543              		.loc 3 173 0
 1544 024e 0C90     		str	r0, [sp, #48]
 1545 0250 1DE0     		b	.L53
 1546              	.LVL197:
 1547              	.L67:
 1548              	.LBE193:
 1549              	.LBE192:
 1550              	.LBB194:
 1551              	.LBB195:
 140:c:\projects\paindrain\arduinolcd\test\pain drain\libraries\lvgl\src\misc\lv_anim.h **** }
 1552              		.loc 3 140 0
 1553 0252 1A4B     		ldr	r3, .L70+12
 1554 0254 0393     		str	r3, [sp, #12]
 1555              	.LVL198:
 1556              	.LBE195:
 1557              	.LBE194:
 346:..\..\..\arduinoLCD\test\Pain Drain\libraries\lvgl\src\core/lv_disp.c ****             break;
 1558              		.loc 1 346 0
 1559 0256 2000     		movs	r0, r4
 1560 0258 FFF7FEFF 		bl	lv_disp_get_hor_res
 1561              	.LVL199:
ARM GAS  C:\Users\haske\AppData\Local\Temp\ccLw7Foe.s 			page 49


 1562              	.LBB196:
 1563              	.LBB197:
 171:c:\projects\paindrain\arduinolcd\test\pain drain\libraries\lvgl\src\misc\lv_anim.h ****     a->current_value = start;
 1564              		.loc 3 171 0
 1565 025c 0023     		movs	r3, #0
 1566 025e 0A93     		str	r3, [sp, #40]
 172:c:\projects\paindrain\arduinolcd\test\pain drain\libraries\lvgl\src\misc\lv_anim.h ****     a->end_value = end;
 1567              		.loc 3 172 0
 1568 0260 0B93     		str	r3, [sp, #44]
 173:c:\projects\paindrain\arduinolcd\test\pain drain\libraries\lvgl\src\misc\lv_anim.h **** }
 1569              		.loc 3 173 0
 1570 0262 0C90     		str	r0, [sp, #48]
 1571 0264 13E0     		b	.L53
 1572              	.LVL200:
 1573              	.L68:
 1574              	.LBE197:
 1575              	.LBE196:
 1576              	.LBB198:
 1577              	.LBB199:
 140:c:\projects\paindrain\arduinolcd\test\pain drain\libraries\lvgl\src\misc\lv_anim.h **** }
 1578              		.loc 3 140 0
 1579 0266 164B     		ldr	r3, .L70+16
 1580 0268 0393     		str	r3, [sp, #12]
 1581              	.LVL201:
 1582              	.LBE199:
 1583              	.LBE198:
 350:..\..\..\arduinoLCD\test\Pain Drain\libraries\lvgl\src\core/lv_disp.c ****             break;
 1584              		.loc 1 350 0
 1585 026a 2000     		movs	r0, r4
 1586 026c FFF7FEFF 		bl	lv_disp_get_ver_res
 1587              	.LVL202:
 1588 0270 4042     		rsbs	r0, r0, #0
 1589              	.LVL203:
 1590              	.LBB200:
 1591              	.LBB201:
 171:c:\projects\paindrain\arduinolcd\test\pain drain\libraries\lvgl\src\misc\lv_anim.h ****     a->current_value = start;
 1592              		.loc 3 171 0
 1593 0272 0023     		movs	r3, #0
 1594 0274 0A93     		str	r3, [sp, #40]
 172:c:\projects\paindrain\arduinolcd\test\pain drain\libraries\lvgl\src\misc\lv_anim.h ****     a->end_value = end;
 1595              		.loc 3 172 0
 1596 0276 0B93     		str	r3, [sp, #44]
 173:c:\projects\paindrain\arduinolcd\test\pain drain\libraries\lvgl\src\misc\lv_anim.h **** }
 1597              		.loc 3 173 0
 1598 0278 0C90     		str	r0, [sp, #48]
 1599 027a 08E0     		b	.L53
 1600              	.LVL204:
 1601              	.L69:
 1602              	.LBE201:
 1603              	.LBE200:
 1604              	.LBB202:
 1605              	.LBB203:
 140:c:\projects\paindrain\arduinolcd\test\pain drain\libraries\lvgl\src\misc\lv_anim.h **** }
 1606              		.loc 3 140 0
 1607 027c 104B     		ldr	r3, .L70+16
 1608 027e 0393     		str	r3, [sp, #12]
 1609              	.LVL205:
ARM GAS  C:\Users\haske\AppData\Local\Temp\ccLw7Foe.s 			page 50


 1610              	.LBE203:
 1611              	.LBE202:
 354:..\..\..\arduinoLCD\test\Pain Drain\libraries\lvgl\src\core/lv_disp.c ****             break;
 1612              		.loc 1 354 0
 1613 0280 2000     		movs	r0, r4
 1614 0282 FFF7FEFF 		bl	lv_disp_get_ver_res
 1615              	.LVL206:
 1616              	.LBB204:
 1617              	.LBB205:
 171:c:\projects\paindrain\arduinolcd\test\pain drain\libraries\lvgl\src\misc\lv_anim.h ****     a->current_value = start;
 1618              		.loc 3 171 0
 1619 0286 0023     		movs	r3, #0
 1620 0288 0A93     		str	r3, [sp, #40]
 172:c:\projects\paindrain\arduinolcd\test\pain drain\libraries\lvgl\src\misc\lv_anim.h ****     a->end_value = end;
 1621              		.loc 3 172 0
 1622 028a 0B93     		str	r3, [sp, #44]
 173:c:\projects\paindrain\arduinolcd\test\pain drain\libraries\lvgl\src\misc\lv_anim.h **** }
 1623              		.loc 3 173 0
 1624 028c 0C90     		str	r0, [sp, #48]
 1625              	.LVL207:
 1626              	.L53:
 1627              	.LBE205:
 1628              	.LBE204:
 358:..\..\..\arduinoLCD\test\Pain Drain\libraries\lvgl\src\core/lv_disp.c **** 
 1629              		.loc 1 358 0
 1630 028e 0022     		movs	r2, #0
 1631 0290 2521     		movs	r1, #37
 1632 0292 4846     		mov	r0, r9
 1633 0294 FFF7FEFF 		bl	lv_event_send
 1634              	.LVL208:
 360:..\..\..\arduinoLCD\test\Pain Drain\libraries\lvgl\src\core/lv_disp.c ****     lv_anim_start(&a_old);
 1635              		.loc 1 360 0
 1636 0298 13A8     		add	r0, sp, #76
 1637 029a FFF7FEFF 		bl	lv_anim_start
 1638              	.LVL209:
 361:..\..\..\arduinoLCD\test\Pain Drain\libraries\lvgl\src\core/lv_disp.c **** }
 1639              		.loc 1 361 0
 1640 029e 02A8     		add	r0, sp, #8
 1641 02a0 FFF7FEFF 		bl	lv_anim_start
 1642              	.LVL210:
 1643              	.L47:
 362:..\..\..\arduinoLCD\test\Pain Drain\libraries\lvgl\src\core/lv_disp.c **** 
 1644              		.loc 1 362 0
 1645 02a4 24B0     		add	sp, sp, #144
 1646              		@ sp needed
 1647              	.LVL211:
 1648              	.LVL212:
 1649              	.LVL213:
 1650 02a6 1CBC     		pop	{r2, r3, r4}
 1651 02a8 9046     		mov	r8, r2
 1652 02aa 9946     		mov	r9, r3
 1653 02ac A246     		mov	r10, r4
 1654 02ae F0BD     		pop	{r4, r5, r6, r7, pc}
 1655              	.L71:
 1656              		.align	2
 1657              	.L70:
 1658 02b0 00000000 		.word	scr_load_anim_start
ARM GAS  C:\Users\haske\AppData\Local\Temp\ccLw7Foe.s 			page 51


 1659 02b4 00000000 		.word	scr_anim_ready
 1660 02b8 00000000 		.word	.L55
 1661 02bc 00000000 		.word	set_x_anim
 1662 02c0 00000000 		.word	set_y_anim
 1663 02c4 00000000 		.word	opa_scale_anim
 1664              		.cfi_endproc
 1665              	.LFE175:
 1666              		.size	lv_scr_load_anim, .-lv_scr_load_anim
 1667              		.section	.text.lv_disp_load_scr,"ax",%progbits
 1668              		.align	2
 1669              		.global	lv_disp_load_scr
 1670              		.code	16
 1671              		.thumb_func
 1672              		.type	lv_disp_load_scr, %function
 1673              	lv_disp_load_scr:
 1674              	.LFB167:
  83:..\..\..\arduinoLCD\test\Pain Drain\libraries\lvgl\src\core/lv_disp.c ****     lv_scr_load_anim(scr, LV_SCR_LOAD_ANIM_NONE, 0, 0, false);
 1675              		.loc 1 83 0
 1676              		.cfi_startproc
 1677              		@ args = 0, pretend = 0, frame = 0
 1678              		@ frame_needed = 0, uses_anonymous_args = 0
 1679              	.LVL214:
 1680 0000 00B5     		push	{lr}
 1681              		.cfi_def_cfa_offset 4
 1682              		.cfi_offset 14, -4
 1683 0002 83B0     		sub	sp, sp, #12
 1684              		.cfi_def_cfa_offset 16
  84:..\..\..\arduinoLCD\test\Pain Drain\libraries\lvgl\src\core/lv_disp.c **** }
 1685              		.loc 1 84 0
 1686 0004 0023     		movs	r3, #0
 1687 0006 0093     		str	r3, [sp]
 1688 0008 0022     		movs	r2, #0
 1689 000a 0021     		movs	r1, #0
 1690 000c FFF7FEFF 		bl	lv_scr_load_anim
 1691              	.LVL215:
  85:..\..\..\arduinoLCD\test\Pain Drain\libraries\lvgl\src\core/lv_disp.c **** 
 1692              		.loc 1 85 0
 1693 0010 03B0     		add	sp, sp, #12
 1694              		@ sp needed
 1695 0012 00BD     		pop	{pc}
 1696              		.cfi_endproc
 1697              	.LFE167:
 1698              		.size	lv_disp_load_scr, .-lv_disp_load_scr
 1699              		.section	.text.lv_disp_get_inactive_time,"ax",%progbits
 1700              		.align	2
 1701              		.global	lv_disp_get_inactive_time
 1702              		.code	16
 1703              		.thumb_func
 1704              		.type	lv_disp_get_inactive_time, %function
 1705              	lv_disp_get_inactive_time:
 1706              	.LFB176:
 370:..\..\..\arduinoLCD\test\Pain Drain\libraries\lvgl\src\core/lv_disp.c ****     if(disp) return lv_tick_elaps(disp->last_activity_time);
 1707              		.loc 1 370 0
 1708              		.cfi_startproc
 1709              		@ args = 0, pretend = 0, frame = 0
 1710              		@ frame_needed = 0, uses_anonymous_args = 0
 1711              	.LVL216:
ARM GAS  C:\Users\haske\AppData\Local\Temp\ccLw7Foe.s 			page 52


 1712 0000 70B5     		push	{r4, r5, r6, lr}
 1713              		.cfi_def_cfa_offset 16
 1714              		.cfi_offset 4, -16
 1715              		.cfi_offset 5, -12
 1716              		.cfi_offset 6, -8
 1717              		.cfi_offset 14, -4
 371:..\..\..\arduinoLCD\test\Pain Drain\libraries\lvgl\src\core/lv_disp.c **** 
 1718              		.loc 1 371 0
 1719 0002 0028     		cmp	r0, #0
 1720 0004 05D0     		beq	.L74
 371:..\..\..\arduinoLCD\test\Pain Drain\libraries\lvgl\src\core/lv_disp.c **** 
 1721              		.loc 1 371 0 is_stmt 0 discriminator 1
 1722 0006 AC23     		movs	r3, #172
 1723 0008 5B00     		lsls	r3, r3, #1
 1724 000a C058     		ldr	r0, [r0, r3]
 1725              	.LVL217:
 1726 000c FFF7FEFF 		bl	lv_tick_elaps
 1727              	.LVL218:
 1728 0010 15E0     		b	.L75
 1729              	.LVL219:
 1730              	.L74:
 375:..\..\..\arduinoLCD\test\Pain Drain\libraries\lvgl\src\core/lv_disp.c ****     while(d) {
 1731              		.loc 1 375 0 is_stmt 1
 1732 0012 0020     		movs	r0, #0
 1733              	.LVL220:
 1734 0014 FFF7FEFF 		bl	lv_disp_get_next
 1735              	.LVL221:
 1736 0018 0400     		movs	r4, r0
 1737              	.LVL222:
 374:..\..\..\arduinoLCD\test\Pain Drain\libraries\lvgl\src\core/lv_disp.c ****     d          = lv_disp_get_next(NULL);
 1738              		.loc 1 374 0
 1739 001a 0125     		movs	r5, #1
 1740 001c 6D42     		rsbs	r5, r5, #0
 376:..\..\..\arduinoLCD\test\Pain Drain\libraries\lvgl\src\core/lv_disp.c ****         uint32_t elaps = lv_tick_elaps(d->last_activity_time);
 1741              		.loc 1 376 0
 1742 001e 0BE0     		b	.L76
 1743              	.LVL223:
 1744              	.L78:
 1745              	.LBB206:
 377:..\..\..\arduinoLCD\test\Pain Drain\libraries\lvgl\src\core/lv_disp.c ****         t = LV_MIN(t, elaps);
 1746              		.loc 1 377 0
 1747 0020 AC23     		movs	r3, #172
 1748 0022 5B00     		lsls	r3, r3, #1
 1749 0024 E058     		ldr	r0, [r4, r3]
 1750              	.LVL224:
 1751 0026 FFF7FEFF 		bl	lv_tick_elaps
 1752              	.LVL225:
 378:..\..\..\arduinoLCD\test\Pain Drain\libraries\lvgl\src\core/lv_disp.c ****         d = lv_disp_get_next(d);
 1753              		.loc 1 378 0
 1754 002a 8542     		cmp	r5, r0
 1755 002c 00D9     		bls	.L77
 1756 002e 0500     		movs	r5, r0
 1757              	.LVL226:
 1758              	.L77:
 379:..\..\..\arduinoLCD\test\Pain Drain\libraries\lvgl\src\core/lv_disp.c ****     }
 1759              		.loc 1 379 0
 1760 0030 2000     		movs	r0, r4
ARM GAS  C:\Users\haske\AppData\Local\Temp\ccLw7Foe.s 			page 53


 1761              	.LVL227:
 1762 0032 FFF7FEFF 		bl	lv_disp_get_next
 1763              	.LVL228:
 1764 0036 0400     		movs	r4, r0
 1765              	.LVL229:
 1766              	.L76:
 1767              	.LBE206:
 376:..\..\..\arduinoLCD\test\Pain Drain\libraries\lvgl\src\core/lv_disp.c ****         uint32_t elaps = lv_tick_elaps(d->last_activity_time);
 1768              		.loc 1 376 0
 1769 0038 002C     		cmp	r4, #0
 1770 003a F1D1     		bne	.L78
 382:..\..\..\arduinoLCD\test\Pain Drain\libraries\lvgl\src\core/lv_disp.c **** }
 1771              		.loc 1 382 0
 1772 003c 2800     		movs	r0, r5
 1773              	.LVL230:
 1774              	.L75:
 383:..\..\..\arduinoLCD\test\Pain Drain\libraries\lvgl\src\core/lv_disp.c **** 
 1775              		.loc 1 383 0
 1776              		@ sp needed
 1777 003e 70BD     		pop	{r4, r5, r6, pc}
 1778              		.cfi_endproc
 1779              	.LFE176:
 1780              		.size	lv_disp_get_inactive_time, .-lv_disp_get_inactive_time
 1781              		.section	.text.lv_disp_trig_activity,"ax",%progbits
 1782              		.align	2
 1783              		.global	lv_disp_trig_activity
 1784              		.code	16
 1785              		.thumb_func
 1786              		.type	lv_disp_trig_activity, %function
 1787              	lv_disp_trig_activity:
 1788              	.LFB177:
 390:..\..\..\arduinoLCD\test\Pain Drain\libraries\lvgl\src\core/lv_disp.c ****     if(!disp) disp = lv_disp_get_default();
 1789              		.loc 1 390 0
 1790              		.cfi_startproc
 1791              		@ args = 0, pretend = 0, frame = 0
 1792              		@ frame_needed = 0, uses_anonymous_args = 0
 1793              	.LVL231:
 1794 0000 10B5     		push	{r4, lr}
 1795              		.cfi_def_cfa_offset 8
 1796              		.cfi_offset 4, -8
 1797              		.cfi_offset 14, -4
 1798 0002 041E     		subs	r4, r0, #0
 391:..\..\..\arduinoLCD\test\Pain Drain\libraries\lvgl\src\core/lv_disp.c ****     if(!disp) {
 1799              		.loc 1 391 0
 1800 0004 02D1     		bne	.L80
 391:..\..\..\arduinoLCD\test\Pain Drain\libraries\lvgl\src\core/lv_disp.c ****     if(!disp) {
 1801              		.loc 1 391 0 is_stmt 0 discriminator 1
 1802 0006 FFF7FEFF 		bl	lv_disp_get_default
 1803              	.LVL232:
 1804 000a 0400     		movs	r4, r0
 1805              	.LVL233:
 1806              	.L80:
 392:..\..\..\arduinoLCD\test\Pain Drain\libraries\lvgl\src\core/lv_disp.c ****         LV_LOG_WARN("lv_disp_trig_activity: no display registered");
 1807              		.loc 1 392 0 is_stmt 1
 1808 000c 002C     		cmp	r4, #0
 1809 000e 04D0     		beq	.L79
 397:..\..\..\arduinoLCD\test\Pain Drain\libraries\lvgl\src\core/lv_disp.c **** }
ARM GAS  C:\Users\haske\AppData\Local\Temp\ccLw7Foe.s 			page 54


 1810              		.loc 1 397 0
 1811 0010 FFF7FEFF 		bl	lv_tick_get
 1812              	.LVL234:
 1813 0014 AC23     		movs	r3, #172
 1814 0016 5B00     		lsls	r3, r3, #1
 1815 0018 E050     		str	r0, [r4, r3]
 1816              	.L79:
 398:..\..\..\arduinoLCD\test\Pain Drain\libraries\lvgl\src\core/lv_disp.c **** 
 1817              		.loc 1 398 0
 1818              		@ sp needed
 1819              	.LVL235:
 1820 001a 10BD     		pop	{r4, pc}
 1821              		.cfi_endproc
 1822              	.LFE177:
 1823              		.size	lv_disp_trig_activity, .-lv_disp_trig_activity
 1824              		.section	.text.lv_disp_clean_dcache,"ax",%progbits
 1825              		.align	2
 1826              		.global	lv_disp_clean_dcache
 1827              		.code	16
 1828              		.thumb_func
 1829              		.type	lv_disp_clean_dcache, %function
 1830              	lv_disp_clean_dcache:
 1831              	.LFB178:
 405:..\..\..\arduinoLCD\test\Pain Drain\libraries\lvgl\src\core/lv_disp.c ****     if(!disp) disp = lv_disp_get_default();
 1832              		.loc 1 405 0
 1833              		.cfi_startproc
 1834              		@ args = 0, pretend = 0, frame = 0
 1835              		@ frame_needed = 0, uses_anonymous_args = 0
 1836              	.LVL236:
 1837 0000 10B5     		push	{r4, lr}
 1838              		.cfi_def_cfa_offset 8
 1839              		.cfi_offset 4, -8
 1840              		.cfi_offset 14, -4
 406:..\..\..\arduinoLCD\test\Pain Drain\libraries\lvgl\src\core/lv_disp.c ****     if(!disp) {
 1841              		.loc 1 406 0
 1842 0002 0028     		cmp	r0, #0
 1843 0004 01D1     		bne	.L83
 406:..\..\..\arduinoLCD\test\Pain Drain\libraries\lvgl\src\core/lv_disp.c ****     if(!disp) {
 1844              		.loc 1 406 0 is_stmt 0 discriminator 1
 1845 0006 FFF7FEFF 		bl	lv_disp_get_default
 1846              	.LVL237:
 1847              	.L83:
 407:..\..\..\arduinoLCD\test\Pain Drain\libraries\lvgl\src\core/lv_disp.c ****         LV_LOG_WARN("lv_disp_clean_dcache: no display registered");
 1848              		.loc 1 407 0 is_stmt 1
 1849 000a 0028     		cmp	r0, #0
 1850 000c 04D0     		beq	.L82
 412:..\..\..\arduinoLCD\test\Pain Drain\libraries\lvgl\src\core/lv_disp.c ****         disp->driver->clean_dcache_cb(disp->driver);
 1851              		.loc 1 412 0
 1852 000e 0068     		ldr	r0, [r0]
 1853              	.LVL238:
 1854 0010 C36A     		ldr	r3, [r0, #44]
 1855 0012 002B     		cmp	r3, #0
 1856 0014 00D0     		beq	.L82
 413:..\..\..\arduinoLCD\test\Pain Drain\libraries\lvgl\src\core/lv_disp.c **** }
 1857              		.loc 1 413 0
 1858 0016 9847     		blx	r3
 1859              	.LVL239:
ARM GAS  C:\Users\haske\AppData\Local\Temp\ccLw7Foe.s 			page 55


 1860              	.L82:
 414:..\..\..\arduinoLCD\test\Pain Drain\libraries\lvgl\src\core/lv_disp.c **** 
 1861              		.loc 1 414 0
 1862              		@ sp needed
 1863 0018 10BD     		pop	{r4, pc}
 1864              		.cfi_endproc
 1865              	.LFE178:
 1866              		.size	lv_disp_clean_dcache, .-lv_disp_clean_dcache
 1867 001a C046     		.section	.text.lv_disp_enable_invalidation,"ax",%progbits
 1868              		.align	2
 1869              		.global	lv_disp_enable_invalidation
 1870              		.code	16
 1871              		.thumb_func
 1872              		.type	lv_disp_enable_invalidation, %function
 1873              	lv_disp_enable_invalidation:
 1874              	.LFB179:
 422:..\..\..\arduinoLCD\test\Pain Drain\libraries\lvgl\src\core/lv_disp.c ****     if(!disp) disp = lv_disp_get_default();
 1875              		.loc 1 422 0
 1876              		.cfi_startproc
 1877              		@ args = 0, pretend = 0, frame = 0
 1878              		@ frame_needed = 0, uses_anonymous_args = 0
 1879              	.LVL240:
 1880 0000 10B5     		push	{r4, lr}
 1881              		.cfi_def_cfa_offset 8
 1882              		.cfi_offset 4, -8
 1883              		.cfi_offset 14, -4
 1884 0002 0C00     		movs	r4, r1
 423:..\..\..\arduinoLCD\test\Pain Drain\libraries\lvgl\src\core/lv_disp.c ****     if(!disp) {
 1885              		.loc 1 423 0
 1886 0004 0028     		cmp	r0, #0
 1887 0006 01D1     		bne	.L86
 423:..\..\..\arduinoLCD\test\Pain Drain\libraries\lvgl\src\core/lv_disp.c ****     if(!disp) {
 1888              		.loc 1 423 0 is_stmt 0 discriminator 1
 1889 0008 FFF7FEFF 		bl	lv_disp_get_default
 1890              	.LVL241:
 1891              	.L86:
 424:..\..\..\arduinoLCD\test\Pain Drain\libraries\lvgl\src\core/lv_disp.c ****         LV_LOG_WARN("no display registered");
 1892              		.loc 1 424 0 is_stmt 1
 1893 000c 0028     		cmp	r0, #0
 1894 000e 0CD0     		beq	.L85
 429:..\..\..\arduinoLCD\test\Pain Drain\libraries\lvgl\src\core/lv_disp.c **** }
 1895              		.loc 1 429 0
 1896 0010 AA23     		movs	r3, #170
 1897 0012 5B00     		lsls	r3, r3, #1
 1898 0014 C358     		ldr	r3, [r0, r3]
 1899 0016 002C     		cmp	r4, #0
 1900 0018 01D0     		beq	.L89
 1901 001a 0122     		movs	r2, #1
 1902 001c 01E0     		b	.L88
 1903              	.L89:
 1904 001e 0122     		movs	r2, #1
 1905 0020 5242     		rsbs	r2, r2, #0
 1906              	.L88:
 429:..\..\..\arduinoLCD\test\Pain Drain\libraries\lvgl\src\core/lv_disp.c **** }
 1907              		.loc 1 429 0 is_stmt 0 discriminator 4
 1908 0022 D318     		adds	r3, r2, r3
 1909 0024 AA22     		movs	r2, #170
ARM GAS  C:\Users\haske\AppData\Local\Temp\ccLw7Foe.s 			page 56


 1910 0026 5200     		lsls	r2, r2, #1
 1911 0028 8350     		str	r3, [r0, r2]
 1912              	.L85:
 430:..\..\..\arduinoLCD\test\Pain Drain\libraries\lvgl\src\core/lv_disp.c **** 
 1913              		.loc 1 430 0 is_stmt 1
 1914              		@ sp needed
 1915 002a 10BD     		pop	{r4, pc}
 1916              		.cfi_endproc
 1917              	.LFE179:
 1918              		.size	lv_disp_enable_invalidation, .-lv_disp_enable_invalidation
 1919              		.section	.text.lv_disp_is_invalidation_enabled,"ax",%progbits
 1920              		.align	2
 1921              		.global	lv_disp_is_invalidation_enabled
 1922              		.code	16
 1923              		.thumb_func
 1924              		.type	lv_disp_is_invalidation_enabled, %function
 1925              	lv_disp_is_invalidation_enabled:
 1926              	.LFB180:
 438:..\..\..\arduinoLCD\test\Pain Drain\libraries\lvgl\src\core/lv_disp.c ****     if(!disp) disp = lv_disp_get_default();
 1927              		.loc 1 438 0
 1928              		.cfi_startproc
 1929              		@ args = 0, pretend = 0, frame = 0
 1930              		@ frame_needed = 0, uses_anonymous_args = 0
 1931              	.LVL242:
 1932 0000 10B5     		push	{r4, lr}
 1933              		.cfi_def_cfa_offset 8
 1934              		.cfi_offset 4, -8
 1935              		.cfi_offset 14, -4
 439:..\..\..\arduinoLCD\test\Pain Drain\libraries\lvgl\src\core/lv_disp.c ****     if(!disp) {
 1936              		.loc 1 439 0
 1937 0002 0028     		cmp	r0, #0
 1938 0004 01D1     		bne	.L91
 439:..\..\..\arduinoLCD\test\Pain Drain\libraries\lvgl\src\core/lv_disp.c ****     if(!disp) {
 1939              		.loc 1 439 0 is_stmt 0 discriminator 1
 1940 0006 FFF7FEFF 		bl	lv_disp_get_default
 1941              	.LVL243:
 1942              	.L91:
 440:..\..\..\arduinoLCD\test\Pain Drain\libraries\lvgl\src\core/lv_disp.c ****         LV_LOG_WARN("no display registered");
 1943              		.loc 1 440 0 is_stmt 1
 1944 000a 0028     		cmp	r0, #0
 1945 000c 06D0     		beq	.L93
 445:..\..\..\arduinoLCD\test\Pain Drain\libraries\lvgl\src\core/lv_disp.c **** }
 1946              		.loc 1 445 0
 1947 000e AA23     		movs	r3, #170
 1948 0010 5B00     		lsls	r3, r3, #1
 1949 0012 C058     		ldr	r0, [r0, r3]
 1950              	.LVL244:
 1951 0014 C317     		asrs	r3, r0, #31
 1952 0016 181A     		subs	r0, r3, r0
 1953 0018 C00F     		lsrs	r0, r0, #31
 1954 001a 00E0     		b	.L92
 1955              	.LVL245:
 1956              	.L93:
 442:..\..\..\arduinoLCD\test\Pain Drain\libraries\lvgl\src\core/lv_disp.c ****     }
 1957              		.loc 1 442 0
 1958 001c 0020     		movs	r0, #0
 1959              	.LVL246:
ARM GAS  C:\Users\haske\AppData\Local\Temp\ccLw7Foe.s 			page 57


 1960              	.L92:
 446:..\..\..\arduinoLCD\test\Pain Drain\libraries\lvgl\src\core/lv_disp.c **** 
 1961              		.loc 1 446 0
 1962              		@ sp needed
 1963 001e 10BD     		pop	{r4, pc}
 1964              		.cfi_endproc
 1965              	.LFE180:
 1966              		.size	lv_disp_is_invalidation_enabled, .-lv_disp_is_invalidation_enabled
 1967              		.section	.text._lv_disp_get_refr_timer,"ax",%progbits
 1968              		.align	2
 1969              		.global	_lv_disp_get_refr_timer
 1970              		.code	16
 1971              		.thumb_func
 1972              		.type	_lv_disp_get_refr_timer, %function
 1973              	_lv_disp_get_refr_timer:
 1974              	.LFB181:
 455:..\..\..\arduinoLCD\test\Pain Drain\libraries\lvgl\src\core/lv_disp.c ****     if(!disp) disp = lv_disp_get_default();
 1975              		.loc 1 455 0
 1976              		.cfi_startproc
 1977              		@ args = 0, pretend = 0, frame = 0
 1978              		@ frame_needed = 0, uses_anonymous_args = 0
 1979              	.LVL247:
 1980 0000 10B5     		push	{r4, lr}
 1981              		.cfi_def_cfa_offset 8
 1982              		.cfi_offset 4, -8
 1983              		.cfi_offset 14, -4
 456:..\..\..\arduinoLCD\test\Pain Drain\libraries\lvgl\src\core/lv_disp.c ****     if(!disp) {
 1984              		.loc 1 456 0
 1985 0002 0028     		cmp	r0, #0
 1986 0004 01D1     		bne	.L95
 456:..\..\..\arduinoLCD\test\Pain Drain\libraries\lvgl\src\core/lv_disp.c ****     if(!disp) {
 1987              		.loc 1 456 0 is_stmt 0 discriminator 1
 1988 0006 FFF7FEFF 		bl	lv_disp_get_default
 1989              	.LVL248:
 1990              	.L95:
 457:..\..\..\arduinoLCD\test\Pain Drain\libraries\lvgl\src\core/lv_disp.c ****         LV_LOG_WARN("lv_disp_get_refr_timer: no display registered");
 1991              		.loc 1 457 0 is_stmt 1
 1992 000a 0028     		cmp	r0, #0
 1993 000c 01D0     		beq	.L97
 462:..\..\..\arduinoLCD\test\Pain Drain\libraries\lvgl\src\core/lv_disp.c **** }
 1994              		.loc 1 462 0
 1995 000e 4068     		ldr	r0, [r0, #4]
 1996              	.LVL249:
 1997 0010 00E0     		b	.L96
 1998              	.LVL250:
 1999              	.L97:
 459:..\..\..\arduinoLCD\test\Pain Drain\libraries\lvgl\src\core/lv_disp.c ****     }
 2000              		.loc 1 459 0
 2001 0012 0020     		movs	r0, #0
 2002              	.LVL251:
 2003              	.L96:
 463:..\..\..\arduinoLCD\test\Pain Drain\libraries\lvgl\src\core/lv_disp.c **** 
 2004              		.loc 1 463 0
 2005              		@ sp needed
 2006 0014 10BD     		pop	{r4, pc}
 2007              		.cfi_endproc
 2008              	.LFE181:
ARM GAS  C:\Users\haske\AppData\Local\Temp\ccLw7Foe.s 			page 58


 2009              		.size	_lv_disp_get_refr_timer, .-_lv_disp_get_refr_timer
 2010 0016 C046     		.text
 2011              	.Letext0:
 2012              		.file 4 "c:\\program files (x86)\\cypress\\psoc creator\\4.4\\psoc creator\\import\\gnu\\arm\\5.4.
 2013              		.file 5 "c:\\program files (x86)\\cypress\\psoc creator\\4.4\\psoc creator\\import\\gnu\\arm\\5.4.
 2014              		.file 6 "c:\\program files (x86)\\cypress\\psoc creator\\4.4\\psoc creator\\import\\gnu\\arm\\5.4.
 2015              		.file 7 "c:\\projects\\paindrain\\arduinolcd\\test\\pain drain\\libraries\\lvgl\\src\\misc\\lv_are
 2016              		.file 8 "c:\\projects\\paindrain\\arduinolcd\\test\\pain drain\\libraries\\lvgl\\src\\font\\lv_fon
 2017              		.file 9 "c:\\projects\\paindrain\\arduinolcd\\test\\pain drain\\libraries\\lvgl\\src\\misc\\lv_typ
 2018              		.file 10 "c:\\projects\\paindrain\\arduinolcd\\test\\pain drain\\libraries\\lvgl\\src\\misc\\lv_co
 2019              		.file 11 "c:\\projects\\paindrain\\arduinolcd\\test\\pain drain\\libraries\\lvgl\\src\\misc\\lv_tx
 2020              		.file 12 "c:\\projects\\paindrain\\arduinolcd\\test\\pain drain\\libraries\\lvgl\\src\\misc\\lv_bi
 2021              		.file 13 "c:\\projects\\paindrain\\arduinolcd\\test\\pain drain\\libraries\\lvgl\\src\\misc\\lv_st
 2022              		.file 14 "c:\\projects\\paindrain\\arduinolcd\\test\\pain drain\\libraries\\lvgl\\src\\draw\\lv_im
 2023              		.file 15 "..\\..\\..\\arduinoLCD\\test\\Pain Drain\\libraries\\lvgl\\src\\core\\lv_obj.h"
 2024              		.file 16 "c:\\projects\\paindrain\\arduinolcd\\test\\pain drain\\libraries\\lvgl\\src\\draw\\lv_dr
 2025              		.file 17 "c:\\projects\\paindrain\\arduinolcd\\test\\pain drain\\libraries\\lvgl\\src\\draw\\lv_dr
 2026              		.file 18 "c:\\projects\\paindrain\\arduinolcd\\test\\pain drain\\libraries\\lvgl\\src\\draw\\lv_dr
 2027              		.file 19 "c:\\projects\\paindrain\\arduinolcd\\test\\pain drain\\libraries\\lvgl\\src\\draw\\lv_dr
 2028              		.file 20 "c:\\projects\\paindrain\\arduinolcd\\test\\pain drain\\libraries\\lvgl\\src\\draw\\lv_dr
 2029              		.file 21 "c:\\projects\\paindrain\\arduinolcd\\test\\pain drain\\libraries\\lvgl\\src\\draw\\lv_dr
 2030              		.file 22 "c:\\projects\\paindrain\\arduinolcd\\test\\pain drain\\libraries\\lvgl\\src\\draw\\lv_dr
 2031              		.file 23 "c:\\projects\\paindrain\\arduinolcd\\test\\pain drain\\libraries\\lvgl\\src\\misc\\lv_ll
 2032              		.file 24 "c:\\projects\\paindrain\\arduinolcd\\test\\pain drain\\libraries\\lvgl\\src\\misc\\lv_ti
 2033              		.file 25 "..\\..\\..\\arduinoLCD\\test\\Pain Drain\\libraries\\lvgl\\src\\core\\../hal/lv_hal_disp
 2034              		.file 26 "..\\..\\..\\arduinoLCD\\test\\Pain Drain\\libraries\\lvgl\\src\\core\\lv_theme.h"
 2035              		.file 27 "..\\..\\..\\arduinoLCD\\test\\Pain Drain\\libraries\\lvgl\\src\\core\\lv_group.h"
 2036              		.file 28 "..\\..\\..\\arduinoLCD\\test\\Pain Drain\\libraries\\lvgl\\src\\core\\lv_obj_scroll.h"
 2037              		.file 29 "..\\..\\..\\arduinoLCD\\test\\Pain Drain\\libraries\\lvgl\\src\\core\\lv_obj_style.h"
 2038              		.file 30 "..\\..\\..\\arduinoLCD\\test\\Pain Drain\\libraries\\lvgl\\src\\core\\lv_obj_class.h"
 2039              		.file 31 "..\\..\\..\\arduinoLCD\\test\\Pain Drain\\libraries\\lvgl\\src\\core\\lv_event.h"
 2040              		.file 32 "..\\..\\..\\arduinoLCD\\test\\Pain Drain\\libraries\\lvgl\\src\\core\\lv_obj_style_gen.h
 2041              		.file 33 "c:\\projects\\paindrain\\arduinolcd\\test\\pain drain\\libraries\\lvgl\\src\\core\\lv_ob
 2042              		.file 34 "..\\..\\..\\arduinoLCD\\test\\Pain Drain\\libraries\\lvgl\\src\\core\\lv_obj_tree.h"
 2043              		.file 35 "..\\..\\..\\arduinoLCD\\test\\Pain Drain\\libraries\\lvgl\\src\\core\\../core/lv_refr.h"
 2044              		.file 36 "c:\\projects\\paindrain\\arduinolcd\\test\\pain drain\\libraries\\lvgl\\src\\hal\\lv_hal