ARM GAS  C:\Users\haske\AppData\Local\Temp\ccpEN9oH.s 			page 1


   1              		.syntax unified
   2              		.cpu cortex-m0plus
   3              		.fpu softvfp
   4              		.eabi_attribute 20, 1
   5              		.eabi_attribute 21, 1
   6              		.eabi_attribute 23, 3
   7              		.eabi_attribute 24, 1
   8              		.eabi_attribute 25, 1
   9              		.eabi_attribute 26, 1
  10              		.eabi_attribute 30, 1
  11              		.eabi_attribute 34, 0
  12              		.eabi_attribute 18, 4
  13              		.thumb
  14              		.syntax unified
  15              		.file	"lv_draw_sw_img.c"
  16              		.text
  17              	.Ltext0:
  18              		.cfi_sections	.debug_frame
  19              		.section	.text.convert_cb,"ax",%progbits
  20              		.align	2
  21              		.code	16
  22              		.thumb_func
  23              		.type	convert_cb, %function
  24              	convert_cb:
  25              	.LFB160:
  26              		.file 1 "..\\..\\..\\arduinoLCD\\test\\Pain Drain\\libraries\\lvgl\\src\\draw\\sw\\lv_draw_sw_img.
   1:..\..\..\arduinoLCD\test\Pain Drain\libraries\lvgl\src\draw\sw/lv_draw_sw_img.c **** /**
   2:..\..\..\arduinoLCD\test\Pain Drain\libraries\lvgl\src\draw\sw/lv_draw_sw_img.c ****  * @file lv_draw_img.c
   3:..\..\..\arduinoLCD\test\Pain Drain\libraries\lvgl\src\draw\sw/lv_draw_sw_img.c ****  *
   4:..\..\..\arduinoLCD\test\Pain Drain\libraries\lvgl\src\draw\sw/lv_draw_sw_img.c ****  */
   5:..\..\..\arduinoLCD\test\Pain Drain\libraries\lvgl\src\draw\sw/lv_draw_sw_img.c **** 
   6:..\..\..\arduinoLCD\test\Pain Drain\libraries\lvgl\src\draw\sw/lv_draw_sw_img.c **** /*********************
   7:..\..\..\arduinoLCD\test\Pain Drain\libraries\lvgl\src\draw\sw/lv_draw_sw_img.c ****  *      INCLUDES
   8:..\..\..\arduinoLCD\test\Pain Drain\libraries\lvgl\src\draw\sw/lv_draw_sw_img.c ****  *********************/
   9:..\..\..\arduinoLCD\test\Pain Drain\libraries\lvgl\src\draw\sw/lv_draw_sw_img.c **** #include "lv_draw_sw.h"
  10:..\..\..\arduinoLCD\test\Pain Drain\libraries\lvgl\src\draw\sw/lv_draw_sw_img.c **** #include "../lv_img_cache.h"
  11:..\..\..\arduinoLCD\test\Pain Drain\libraries\lvgl\src\draw\sw/lv_draw_sw_img.c **** #include "../../hal/lv_hal_disp.h"
  12:..\..\..\arduinoLCD\test\Pain Drain\libraries\lvgl\src\draw\sw/lv_draw_sw_img.c **** #include "../../misc/lv_log.h"
  13:..\..\..\arduinoLCD\test\Pain Drain\libraries\lvgl\src\draw\sw/lv_draw_sw_img.c **** #include "../../core/lv_refr.h"
  14:..\..\..\arduinoLCD\test\Pain Drain\libraries\lvgl\src\draw\sw/lv_draw_sw_img.c **** #include "../../misc/lv_mem.h"
  15:..\..\..\arduinoLCD\test\Pain Drain\libraries\lvgl\src\draw\sw/lv_draw_sw_img.c **** #include "../../misc/lv_math.h"
  16:..\..\..\arduinoLCD\test\Pain Drain\libraries\lvgl\src\draw\sw/lv_draw_sw_img.c **** 
  17:..\..\..\arduinoLCD\test\Pain Drain\libraries\lvgl\src\draw\sw/lv_draw_sw_img.c **** /*********************
  18:..\..\..\arduinoLCD\test\Pain Drain\libraries\lvgl\src\draw\sw/lv_draw_sw_img.c ****  *      DEFINES
  19:..\..\..\arduinoLCD\test\Pain Drain\libraries\lvgl\src\draw\sw/lv_draw_sw_img.c ****  *********************/
  20:..\..\..\arduinoLCD\test\Pain Drain\libraries\lvgl\src\draw\sw/lv_draw_sw_img.c **** #define MAX_BUF_SIZE (uint32_t) lv_disp_get_hor_res(_lv_refr_get_disp_refreshing())
  21:..\..\..\arduinoLCD\test\Pain Drain\libraries\lvgl\src\draw\sw/lv_draw_sw_img.c **** 
  22:..\..\..\arduinoLCD\test\Pain Drain\libraries\lvgl\src\draw\sw/lv_draw_sw_img.c **** /**********************
  23:..\..\..\arduinoLCD\test\Pain Drain\libraries\lvgl\src\draw\sw/lv_draw_sw_img.c ****  *      TYPEDEFS
  24:..\..\..\arduinoLCD\test\Pain Drain\libraries\lvgl\src\draw\sw/lv_draw_sw_img.c ****  **********************/
  25:..\..\..\arduinoLCD\test\Pain Drain\libraries\lvgl\src\draw\sw/lv_draw_sw_img.c **** 
  26:..\..\..\arduinoLCD\test\Pain Drain\libraries\lvgl\src\draw\sw/lv_draw_sw_img.c **** /**********************
  27:..\..\..\arduinoLCD\test\Pain Drain\libraries\lvgl\src\draw\sw/lv_draw_sw_img.c ****  *  STATIC PROTOTYPES
  28:..\..\..\arduinoLCD\test\Pain Drain\libraries\lvgl\src\draw\sw/lv_draw_sw_img.c ****  **********************/
  29:..\..\..\arduinoLCD\test\Pain Drain\libraries\lvgl\src\draw\sw/lv_draw_sw_img.c **** static void convert_cb(const lv_area_t * dest_area, const void * src_buf, lv_coord_t src_w, lv_coor
  30:..\..\..\arduinoLCD\test\Pain Drain\libraries\lvgl\src\draw\sw/lv_draw_sw_img.c ****                        lv_coord_t src_stride, const lv_draw_img_dsc_t * draw_dsc, lv_img_cf_t cf, l
  31:..\..\..\arduinoLCD\test\Pain Drain\libraries\lvgl\src\draw\sw/lv_draw_sw_img.c **** 
ARM GAS  C:\Users\haske\AppData\Local\Temp\ccpEN9oH.s 			page 2


  32:..\..\..\arduinoLCD\test\Pain Drain\libraries\lvgl\src\draw\sw/lv_draw_sw_img.c **** /**********************
  33:..\..\..\arduinoLCD\test\Pain Drain\libraries\lvgl\src\draw\sw/lv_draw_sw_img.c ****  *  STATIC VARIABLES
  34:..\..\..\arduinoLCD\test\Pain Drain\libraries\lvgl\src\draw\sw/lv_draw_sw_img.c ****  **********************/
  35:..\..\..\arduinoLCD\test\Pain Drain\libraries\lvgl\src\draw\sw/lv_draw_sw_img.c **** 
  36:..\..\..\arduinoLCD\test\Pain Drain\libraries\lvgl\src\draw\sw/lv_draw_sw_img.c **** /**********************
  37:..\..\..\arduinoLCD\test\Pain Drain\libraries\lvgl\src\draw\sw/lv_draw_sw_img.c ****  *      MACROS
  38:..\..\..\arduinoLCD\test\Pain Drain\libraries\lvgl\src\draw\sw/lv_draw_sw_img.c ****  **********************/
  39:..\..\..\arduinoLCD\test\Pain Drain\libraries\lvgl\src\draw\sw/lv_draw_sw_img.c **** 
  40:..\..\..\arduinoLCD\test\Pain Drain\libraries\lvgl\src\draw\sw/lv_draw_sw_img.c **** /**********************
  41:..\..\..\arduinoLCD\test\Pain Drain\libraries\lvgl\src\draw\sw/lv_draw_sw_img.c ****  *   GLOBAL FUNCTIONS
  42:..\..\..\arduinoLCD\test\Pain Drain\libraries\lvgl\src\draw\sw/lv_draw_sw_img.c ****  **********************/
  43:..\..\..\arduinoLCD\test\Pain Drain\libraries\lvgl\src\draw\sw/lv_draw_sw_img.c **** 
  44:..\..\..\arduinoLCD\test\Pain Drain\libraries\lvgl\src\draw\sw/lv_draw_sw_img.c **** 
  45:..\..\..\arduinoLCD\test\Pain Drain\libraries\lvgl\src\draw\sw/lv_draw_sw_img.c **** LV_ATTRIBUTE_FAST_MEM void lv_draw_sw_img_decoded(struct _lv_draw_ctx_t * draw_ctx, const lv_draw_i
  46:..\..\..\arduinoLCD\test\Pain Drain\libraries\lvgl\src\draw\sw/lv_draw_sw_img.c ****                                                   const lv_area_t * coords, const uint8_t * src_buf
  47:..\..\..\arduinoLCD\test\Pain Drain\libraries\lvgl\src\draw\sw/lv_draw_sw_img.c **** {
  48:..\..\..\arduinoLCD\test\Pain Drain\libraries\lvgl\src\draw\sw/lv_draw_sw_img.c ****     /*Use the clip area as draw area*/
  49:..\..\..\arduinoLCD\test\Pain Drain\libraries\lvgl\src\draw\sw/lv_draw_sw_img.c ****     lv_area_t draw_area;
  50:..\..\..\arduinoLCD\test\Pain Drain\libraries\lvgl\src\draw\sw/lv_draw_sw_img.c ****     lv_area_copy(&draw_area, draw_ctx->clip_area);
  51:..\..\..\arduinoLCD\test\Pain Drain\libraries\lvgl\src\draw\sw/lv_draw_sw_img.c **** 
  52:..\..\..\arduinoLCD\test\Pain Drain\libraries\lvgl\src\draw\sw/lv_draw_sw_img.c ****     bool mask_any = lv_draw_mask_is_any(&draw_area);
  53:..\..\..\arduinoLCD\test\Pain Drain\libraries\lvgl\src\draw\sw/lv_draw_sw_img.c ****     bool transform = draw_dsc->angle != 0 || draw_dsc->zoom != LV_IMG_ZOOM_NONE ? true : false;
  54:..\..\..\arduinoLCD\test\Pain Drain\libraries\lvgl\src\draw\sw/lv_draw_sw_img.c **** 
  55:..\..\..\arduinoLCD\test\Pain Drain\libraries\lvgl\src\draw\sw/lv_draw_sw_img.c ****     lv_area_t blend_area;
  56:..\..\..\arduinoLCD\test\Pain Drain\libraries\lvgl\src\draw\sw/lv_draw_sw_img.c ****     lv_draw_sw_blend_dsc_t blend_dsc;
  57:..\..\..\arduinoLCD\test\Pain Drain\libraries\lvgl\src\draw\sw/lv_draw_sw_img.c **** 
  58:..\..\..\arduinoLCD\test\Pain Drain\libraries\lvgl\src\draw\sw/lv_draw_sw_img.c ****     lv_memset_00(&blend_dsc, sizeof(lv_draw_sw_blend_dsc_t));
  59:..\..\..\arduinoLCD\test\Pain Drain\libraries\lvgl\src\draw\sw/lv_draw_sw_img.c ****     blend_dsc.opa = draw_dsc->opa;
  60:..\..\..\arduinoLCD\test\Pain Drain\libraries\lvgl\src\draw\sw/lv_draw_sw_img.c ****     blend_dsc.blend_mode = draw_dsc->blend_mode;
  61:..\..\..\arduinoLCD\test\Pain Drain\libraries\lvgl\src\draw\sw/lv_draw_sw_img.c ****     blend_dsc.blend_area = &blend_area;
  62:..\..\..\arduinoLCD\test\Pain Drain\libraries\lvgl\src\draw\sw/lv_draw_sw_img.c **** 
  63:..\..\..\arduinoLCD\test\Pain Drain\libraries\lvgl\src\draw\sw/lv_draw_sw_img.c ****     /*The simplest case just copy the pixels into the draw_buf*/
  64:..\..\..\arduinoLCD\test\Pain Drain\libraries\lvgl\src\draw\sw/lv_draw_sw_img.c ****     if(!mask_any && !transform && cf == LV_IMG_CF_TRUE_COLOR && draw_dsc->recolor_opa == LV_OPA_TRA
  65:..\..\..\arduinoLCD\test\Pain Drain\libraries\lvgl\src\draw\sw/lv_draw_sw_img.c ****         blend_dsc.src_buf = (const lv_color_t *)src_buf;
  66:..\..\..\arduinoLCD\test\Pain Drain\libraries\lvgl\src\draw\sw/lv_draw_sw_img.c **** 
  67:..\..\..\arduinoLCD\test\Pain Drain\libraries\lvgl\src\draw\sw/lv_draw_sw_img.c ****         blend_dsc.blend_area = coords;
  68:..\..\..\arduinoLCD\test\Pain Drain\libraries\lvgl\src\draw\sw/lv_draw_sw_img.c ****         lv_draw_sw_blend(draw_ctx, &blend_dsc);
  69:..\..\..\arduinoLCD\test\Pain Drain\libraries\lvgl\src\draw\sw/lv_draw_sw_img.c ****     }
  70:..\..\..\arduinoLCD\test\Pain Drain\libraries\lvgl\src\draw\sw/lv_draw_sw_img.c ****     else if(!mask_any && !transform && cf == LV_IMG_CF_ALPHA_8BIT) {
  71:..\..\..\arduinoLCD\test\Pain Drain\libraries\lvgl\src\draw\sw/lv_draw_sw_img.c ****         lv_area_t clipped_coords;
  72:..\..\..\arduinoLCD\test\Pain Drain\libraries\lvgl\src\draw\sw/lv_draw_sw_img.c ****         if(!_lv_area_intersect(&clipped_coords, coords, draw_ctx->clip_area)) return;
  73:..\..\..\arduinoLCD\test\Pain Drain\libraries\lvgl\src\draw\sw/lv_draw_sw_img.c **** 
  74:..\..\..\arduinoLCD\test\Pain Drain\libraries\lvgl\src\draw\sw/lv_draw_sw_img.c ****         blend_dsc.mask_buf = (lv_opa_t *)src_buf;
  75:..\..\..\arduinoLCD\test\Pain Drain\libraries\lvgl\src\draw\sw/lv_draw_sw_img.c ****         blend_dsc.mask_area = coords;
  76:..\..\..\arduinoLCD\test\Pain Drain\libraries\lvgl\src\draw\sw/lv_draw_sw_img.c ****         blend_dsc.src_buf = NULL;
  77:..\..\..\arduinoLCD\test\Pain Drain\libraries\lvgl\src\draw\sw/lv_draw_sw_img.c ****         blend_dsc.color = draw_dsc->recolor;
  78:..\..\..\arduinoLCD\test\Pain Drain\libraries\lvgl\src\draw\sw/lv_draw_sw_img.c ****         blend_dsc.mask_res = LV_DRAW_MASK_RES_CHANGED;
  79:..\..\..\arduinoLCD\test\Pain Drain\libraries\lvgl\src\draw\sw/lv_draw_sw_img.c **** 
  80:..\..\..\arduinoLCD\test\Pain Drain\libraries\lvgl\src\draw\sw/lv_draw_sw_img.c ****         blend_dsc.blend_area = coords;
  81:..\..\..\arduinoLCD\test\Pain Drain\libraries\lvgl\src\draw\sw/lv_draw_sw_img.c ****         lv_draw_sw_blend(draw_ctx, &blend_dsc);
  82:..\..\..\arduinoLCD\test\Pain Drain\libraries\lvgl\src\draw\sw/lv_draw_sw_img.c ****     }
  83:..\..\..\arduinoLCD\test\Pain Drain\libraries\lvgl\src\draw\sw/lv_draw_sw_img.c **** #if LV_COLOR_DEPTH == 16
  84:..\..\..\arduinoLCD\test\Pain Drain\libraries\lvgl\src\draw\sw/lv_draw_sw_img.c ****     else if(!mask_any && !transform && cf == LV_IMG_CF_RGB565A8 && draw_dsc->recolor_opa == LV_OPA_
  85:..\..\..\arduinoLCD\test\Pain Drain\libraries\lvgl\src\draw\sw/lv_draw_sw_img.c ****         lv_coord_t src_w = lv_area_get_width(coords);
  86:..\..\..\arduinoLCD\test\Pain Drain\libraries\lvgl\src\draw\sw/lv_draw_sw_img.c ****         lv_coord_t src_h = lv_area_get_height(coords);
  87:..\..\..\arduinoLCD\test\Pain Drain\libraries\lvgl\src\draw\sw/lv_draw_sw_img.c ****         blend_dsc.src_buf = (const lv_color_t *)src_buf;
  88:..\..\..\arduinoLCD\test\Pain Drain\libraries\lvgl\src\draw\sw/lv_draw_sw_img.c ****         blend_dsc.mask_buf = (lv_opa_t *)src_buf;
ARM GAS  C:\Users\haske\AppData\Local\Temp\ccpEN9oH.s 			page 3


  89:..\..\..\arduinoLCD\test\Pain Drain\libraries\lvgl\src\draw\sw/lv_draw_sw_img.c ****         blend_dsc.mask_buf += sizeof(lv_color_t) * src_w * src_h;
  90:..\..\..\arduinoLCD\test\Pain Drain\libraries\lvgl\src\draw\sw/lv_draw_sw_img.c ****         blend_dsc.blend_area = coords;
  91:..\..\..\arduinoLCD\test\Pain Drain\libraries\lvgl\src\draw\sw/lv_draw_sw_img.c ****         blend_dsc.mask_area = coords;
  92:..\..\..\arduinoLCD\test\Pain Drain\libraries\lvgl\src\draw\sw/lv_draw_sw_img.c ****         blend_dsc.mask_res = LV_DRAW_MASK_RES_CHANGED;
  93:..\..\..\arduinoLCD\test\Pain Drain\libraries\lvgl\src\draw\sw/lv_draw_sw_img.c ****         lv_draw_sw_blend(draw_ctx, &blend_dsc);
  94:..\..\..\arduinoLCD\test\Pain Drain\libraries\lvgl\src\draw\sw/lv_draw_sw_img.c ****     }
  95:..\..\..\arduinoLCD\test\Pain Drain\libraries\lvgl\src\draw\sw/lv_draw_sw_img.c **** #endif
  96:..\..\..\arduinoLCD\test\Pain Drain\libraries\lvgl\src\draw\sw/lv_draw_sw_img.c ****     /*In the other cases every pixel need to be checked one-by-one*/
  97:..\..\..\arduinoLCD\test\Pain Drain\libraries\lvgl\src\draw\sw/lv_draw_sw_img.c ****     else {
  98:..\..\..\arduinoLCD\test\Pain Drain\libraries\lvgl\src\draw\sw/lv_draw_sw_img.c ****         blend_area.x1 = draw_ctx->clip_area->x1;
  99:..\..\..\arduinoLCD\test\Pain Drain\libraries\lvgl\src\draw\sw/lv_draw_sw_img.c ****         blend_area.x2 = draw_ctx->clip_area->x2;
 100:..\..\..\arduinoLCD\test\Pain Drain\libraries\lvgl\src\draw\sw/lv_draw_sw_img.c ****         blend_area.y1 = draw_ctx->clip_area->y1;
 101:..\..\..\arduinoLCD\test\Pain Drain\libraries\lvgl\src\draw\sw/lv_draw_sw_img.c ****         blend_area.y2 = draw_ctx->clip_area->y2;
 102:..\..\..\arduinoLCD\test\Pain Drain\libraries\lvgl\src\draw\sw/lv_draw_sw_img.c **** 
 103:..\..\..\arduinoLCD\test\Pain Drain\libraries\lvgl\src\draw\sw/lv_draw_sw_img.c ****         lv_coord_t src_w = lv_area_get_width(coords);
 104:..\..\..\arduinoLCD\test\Pain Drain\libraries\lvgl\src\draw\sw/lv_draw_sw_img.c ****         lv_coord_t src_h = lv_area_get_height(coords);
 105:..\..\..\arduinoLCD\test\Pain Drain\libraries\lvgl\src\draw\sw/lv_draw_sw_img.c ****         lv_coord_t blend_h = lv_area_get_height(&blend_area);
 106:..\..\..\arduinoLCD\test\Pain Drain\libraries\lvgl\src\draw\sw/lv_draw_sw_img.c ****         lv_coord_t blend_w = lv_area_get_width(&blend_area);
 107:..\..\..\arduinoLCD\test\Pain Drain\libraries\lvgl\src\draw\sw/lv_draw_sw_img.c **** 
 108:..\..\..\arduinoLCD\test\Pain Drain\libraries\lvgl\src\draw\sw/lv_draw_sw_img.c ****         uint32_t max_buf_size = MAX_BUF_SIZE;
 109:..\..\..\arduinoLCD\test\Pain Drain\libraries\lvgl\src\draw\sw/lv_draw_sw_img.c ****         uint32_t blend_size = lv_area_get_size(&blend_area);
 110:..\..\..\arduinoLCD\test\Pain Drain\libraries\lvgl\src\draw\sw/lv_draw_sw_img.c ****         uint32_t buf_h;
 111:..\..\..\arduinoLCD\test\Pain Drain\libraries\lvgl\src\draw\sw/lv_draw_sw_img.c ****         uint32_t buf_w = blend_w;
 112:..\..\..\arduinoLCD\test\Pain Drain\libraries\lvgl\src\draw\sw/lv_draw_sw_img.c ****         if(blend_size <= max_buf_size) {
 113:..\..\..\arduinoLCD\test\Pain Drain\libraries\lvgl\src\draw\sw/lv_draw_sw_img.c ****             buf_h = blend_h;
 114:..\..\..\arduinoLCD\test\Pain Drain\libraries\lvgl\src\draw\sw/lv_draw_sw_img.c ****         }
 115:..\..\..\arduinoLCD\test\Pain Drain\libraries\lvgl\src\draw\sw/lv_draw_sw_img.c ****         else {
 116:..\..\..\arduinoLCD\test\Pain Drain\libraries\lvgl\src\draw\sw/lv_draw_sw_img.c ****             /*Round to full lines*/
 117:..\..\..\arduinoLCD\test\Pain Drain\libraries\lvgl\src\draw\sw/lv_draw_sw_img.c ****             buf_h = max_buf_size / blend_w;
 118:..\..\..\arduinoLCD\test\Pain Drain\libraries\lvgl\src\draw\sw/lv_draw_sw_img.c ****         }
 119:..\..\..\arduinoLCD\test\Pain Drain\libraries\lvgl\src\draw\sw/lv_draw_sw_img.c **** 
 120:..\..\..\arduinoLCD\test\Pain Drain\libraries\lvgl\src\draw\sw/lv_draw_sw_img.c ****         /*Create buffers and masks*/
 121:..\..\..\arduinoLCD\test\Pain Drain\libraries\lvgl\src\draw\sw/lv_draw_sw_img.c ****         uint32_t buf_size = buf_w * buf_h;
 122:..\..\..\arduinoLCD\test\Pain Drain\libraries\lvgl\src\draw\sw/lv_draw_sw_img.c **** 
 123:..\..\..\arduinoLCD\test\Pain Drain\libraries\lvgl\src\draw\sw/lv_draw_sw_img.c ****         lv_color_t * rgb_buf = lv_mem_buf_get(buf_size * sizeof(lv_color_t));
 124:..\..\..\arduinoLCD\test\Pain Drain\libraries\lvgl\src\draw\sw/lv_draw_sw_img.c ****         lv_opa_t * mask_buf = lv_mem_buf_get(buf_size);
 125:..\..\..\arduinoLCD\test\Pain Drain\libraries\lvgl\src\draw\sw/lv_draw_sw_img.c ****         blend_dsc.mask_buf = mask_buf;
 126:..\..\..\arduinoLCD\test\Pain Drain\libraries\lvgl\src\draw\sw/lv_draw_sw_img.c ****         blend_dsc.mask_area = &blend_area;
 127:..\..\..\arduinoLCD\test\Pain Drain\libraries\lvgl\src\draw\sw/lv_draw_sw_img.c ****         blend_dsc.mask_res = LV_DRAW_MASK_RES_CHANGED;
 128:..\..\..\arduinoLCD\test\Pain Drain\libraries\lvgl\src\draw\sw/lv_draw_sw_img.c ****         blend_dsc.src_buf = rgb_buf;
 129:..\..\..\arduinoLCD\test\Pain Drain\libraries\lvgl\src\draw\sw/lv_draw_sw_img.c ****         lv_coord_t y_last = blend_area.y2;
 130:..\..\..\arduinoLCD\test\Pain Drain\libraries\lvgl\src\draw\sw/lv_draw_sw_img.c ****         blend_area.y2 = blend_area.y1 + buf_h - 1;
 131:..\..\..\arduinoLCD\test\Pain Drain\libraries\lvgl\src\draw\sw/lv_draw_sw_img.c **** 
 132:..\..\..\arduinoLCD\test\Pain Drain\libraries\lvgl\src\draw\sw/lv_draw_sw_img.c ****         lv_draw_mask_res_t mask_res_def = (cf != LV_IMG_CF_TRUE_COLOR || draw_dsc->angle ||
 133:..\..\..\arduinoLCD\test\Pain Drain\libraries\lvgl\src\draw\sw/lv_draw_sw_img.c ****                                            draw_dsc->zoom != LV_IMG_ZOOM_NONE) ?
 134:..\..\..\arduinoLCD\test\Pain Drain\libraries\lvgl\src\draw\sw/lv_draw_sw_img.c ****                                           LV_DRAW_MASK_RES_CHANGED : LV_DRAW_MASK_RES_FULL_COVER;
 135:..\..\..\arduinoLCD\test\Pain Drain\libraries\lvgl\src\draw\sw/lv_draw_sw_img.c ****         blend_dsc.mask_res = mask_res_def;
 136:..\..\..\arduinoLCD\test\Pain Drain\libraries\lvgl\src\draw\sw/lv_draw_sw_img.c **** 
 137:..\..\..\arduinoLCD\test\Pain Drain\libraries\lvgl\src\draw\sw/lv_draw_sw_img.c ****         while(blend_area.y1 <= y_last) {
 138:..\..\..\arduinoLCD\test\Pain Drain\libraries\lvgl\src\draw\sw/lv_draw_sw_img.c ****             /*Apply transformations if any or separate the channels*/
 139:..\..\..\arduinoLCD\test\Pain Drain\libraries\lvgl\src\draw\sw/lv_draw_sw_img.c ****             lv_area_t transform_area;
 140:..\..\..\arduinoLCD\test\Pain Drain\libraries\lvgl\src\draw\sw/lv_draw_sw_img.c ****             lv_area_copy(&transform_area, &blend_area);
 141:..\..\..\arduinoLCD\test\Pain Drain\libraries\lvgl\src\draw\sw/lv_draw_sw_img.c ****             lv_area_move(&transform_area, -coords->x1, -coords->y1);
 142:..\..\..\arduinoLCD\test\Pain Drain\libraries\lvgl\src\draw\sw/lv_draw_sw_img.c ****             if(transform) {
 143:..\..\..\arduinoLCD\test\Pain Drain\libraries\lvgl\src\draw\sw/lv_draw_sw_img.c ****                 lv_draw_transform(draw_ctx, &transform_area, src_buf, src_w, src_h, src_w,
 144:..\..\..\arduinoLCD\test\Pain Drain\libraries\lvgl\src\draw\sw/lv_draw_sw_img.c ****                                   draw_dsc, cf, rgb_buf, mask_buf);
 145:..\..\..\arduinoLCD\test\Pain Drain\libraries\lvgl\src\draw\sw/lv_draw_sw_img.c ****             }
ARM GAS  C:\Users\haske\AppData\Local\Temp\ccpEN9oH.s 			page 4


 146:..\..\..\arduinoLCD\test\Pain Drain\libraries\lvgl\src\draw\sw/lv_draw_sw_img.c ****             else {
 147:..\..\..\arduinoLCD\test\Pain Drain\libraries\lvgl\src\draw\sw/lv_draw_sw_img.c ****                 convert_cb(&transform_area, src_buf, src_w, src_h, src_w, draw_dsc, cf, rgb_buf, ma
 148:..\..\..\arduinoLCD\test\Pain Drain\libraries\lvgl\src\draw\sw/lv_draw_sw_img.c ****             }
 149:..\..\..\arduinoLCD\test\Pain Drain\libraries\lvgl\src\draw\sw/lv_draw_sw_img.c **** 
 150:..\..\..\arduinoLCD\test\Pain Drain\libraries\lvgl\src\draw\sw/lv_draw_sw_img.c ****             /*Apply recolor*/
 151:..\..\..\arduinoLCD\test\Pain Drain\libraries\lvgl\src\draw\sw/lv_draw_sw_img.c ****             if(draw_dsc->recolor_opa > LV_OPA_MIN) {
 152:..\..\..\arduinoLCD\test\Pain Drain\libraries\lvgl\src\draw\sw/lv_draw_sw_img.c ****                 uint16_t premult_v[3];
 153:..\..\..\arduinoLCD\test\Pain Drain\libraries\lvgl\src\draw\sw/lv_draw_sw_img.c ****                 lv_opa_t recolor_opa = draw_dsc->recolor_opa;
 154:..\..\..\arduinoLCD\test\Pain Drain\libraries\lvgl\src\draw\sw/lv_draw_sw_img.c ****                 lv_color_t recolor = draw_dsc->recolor;
 155:..\..\..\arduinoLCD\test\Pain Drain\libraries\lvgl\src\draw\sw/lv_draw_sw_img.c ****                 lv_color_premult(recolor, recolor_opa, premult_v);
 156:..\..\..\arduinoLCD\test\Pain Drain\libraries\lvgl\src\draw\sw/lv_draw_sw_img.c ****                 recolor_opa = 255 - recolor_opa;
 157:..\..\..\arduinoLCD\test\Pain Drain\libraries\lvgl\src\draw\sw/lv_draw_sw_img.c ****                 uint32_t i;
 158:..\..\..\arduinoLCD\test\Pain Drain\libraries\lvgl\src\draw\sw/lv_draw_sw_img.c ****                 for(i = 0; i < buf_size; i++) {
 159:..\..\..\arduinoLCD\test\Pain Drain\libraries\lvgl\src\draw\sw/lv_draw_sw_img.c ****                     rgb_buf[i] = lv_color_mix_premult(premult_v, rgb_buf[i], recolor_opa);
 160:..\..\..\arduinoLCD\test\Pain Drain\libraries\lvgl\src\draw\sw/lv_draw_sw_img.c ****                 }
 161:..\..\..\arduinoLCD\test\Pain Drain\libraries\lvgl\src\draw\sw/lv_draw_sw_img.c ****             }
 162:..\..\..\arduinoLCD\test\Pain Drain\libraries\lvgl\src\draw\sw/lv_draw_sw_img.c **** #if LV_DRAW_COMPLEX
 163:..\..\..\arduinoLCD\test\Pain Drain\libraries\lvgl\src\draw\sw/lv_draw_sw_img.c ****             /*Apply the masks if any*/
 164:..\..\..\arduinoLCD\test\Pain Drain\libraries\lvgl\src\draw\sw/lv_draw_sw_img.c ****             if(mask_any) {
 165:..\..\..\arduinoLCD\test\Pain Drain\libraries\lvgl\src\draw\sw/lv_draw_sw_img.c ****                 lv_coord_t y;
 166:..\..\..\arduinoLCD\test\Pain Drain\libraries\lvgl\src\draw\sw/lv_draw_sw_img.c ****                 lv_opa_t * mask_buf_tmp = mask_buf;
 167:..\..\..\arduinoLCD\test\Pain Drain\libraries\lvgl\src\draw\sw/lv_draw_sw_img.c ****                 for(y = blend_area.y1; y <= blend_area.y2; y++) {
 168:..\..\..\arduinoLCD\test\Pain Drain\libraries\lvgl\src\draw\sw/lv_draw_sw_img.c ****                     lv_draw_mask_res_t mask_res_line;
 169:..\..\..\arduinoLCD\test\Pain Drain\libraries\lvgl\src\draw\sw/lv_draw_sw_img.c ****                     mask_res_line = lv_draw_mask_apply(mask_buf_tmp, blend_area.x1, y, blend_w);
 170:..\..\..\arduinoLCD\test\Pain Drain\libraries\lvgl\src\draw\sw/lv_draw_sw_img.c **** 
 171:..\..\..\arduinoLCD\test\Pain Drain\libraries\lvgl\src\draw\sw/lv_draw_sw_img.c ****                     if(mask_res_line == LV_DRAW_MASK_RES_TRANSP) {
 172:..\..\..\arduinoLCD\test\Pain Drain\libraries\lvgl\src\draw\sw/lv_draw_sw_img.c ****                         lv_memset_00(mask_buf_tmp, blend_w);
 173:..\..\..\arduinoLCD\test\Pain Drain\libraries\lvgl\src\draw\sw/lv_draw_sw_img.c ****                         blend_dsc.mask_res = LV_DRAW_MASK_RES_CHANGED;
 174:..\..\..\arduinoLCD\test\Pain Drain\libraries\lvgl\src\draw\sw/lv_draw_sw_img.c ****                     }
 175:..\..\..\arduinoLCD\test\Pain Drain\libraries\lvgl\src\draw\sw/lv_draw_sw_img.c ****                     else if(mask_res_line == LV_DRAW_MASK_RES_CHANGED) {
 176:..\..\..\arduinoLCD\test\Pain Drain\libraries\lvgl\src\draw\sw/lv_draw_sw_img.c ****                         blend_dsc.mask_res = LV_DRAW_MASK_RES_CHANGED;
 177:..\..\..\arduinoLCD\test\Pain Drain\libraries\lvgl\src\draw\sw/lv_draw_sw_img.c ****                     }
 178:..\..\..\arduinoLCD\test\Pain Drain\libraries\lvgl\src\draw\sw/lv_draw_sw_img.c ****                     mask_buf_tmp += blend_w;
 179:..\..\..\arduinoLCD\test\Pain Drain\libraries\lvgl\src\draw\sw/lv_draw_sw_img.c ****                 }
 180:..\..\..\arduinoLCD\test\Pain Drain\libraries\lvgl\src\draw\sw/lv_draw_sw_img.c ****             }
 181:..\..\..\arduinoLCD\test\Pain Drain\libraries\lvgl\src\draw\sw/lv_draw_sw_img.c **** #endif
 182:..\..\..\arduinoLCD\test\Pain Drain\libraries\lvgl\src\draw\sw/lv_draw_sw_img.c **** 
 183:..\..\..\arduinoLCD\test\Pain Drain\libraries\lvgl\src\draw\sw/lv_draw_sw_img.c ****             /*Blend*/
 184:..\..\..\arduinoLCD\test\Pain Drain\libraries\lvgl\src\draw\sw/lv_draw_sw_img.c ****             lv_draw_sw_blend(draw_ctx, &blend_dsc);
 185:..\..\..\arduinoLCD\test\Pain Drain\libraries\lvgl\src\draw\sw/lv_draw_sw_img.c **** 
 186:..\..\..\arduinoLCD\test\Pain Drain\libraries\lvgl\src\draw\sw/lv_draw_sw_img.c ****             /*Go the the next lines*/
 187:..\..\..\arduinoLCD\test\Pain Drain\libraries\lvgl\src\draw\sw/lv_draw_sw_img.c ****             blend_area.y1 = blend_area.y2 + 1;
 188:..\..\..\arduinoLCD\test\Pain Drain\libraries\lvgl\src\draw\sw/lv_draw_sw_img.c ****             blend_area.y2 = blend_area.y1 + buf_h - 1;
 189:..\..\..\arduinoLCD\test\Pain Drain\libraries\lvgl\src\draw\sw/lv_draw_sw_img.c ****             if(blend_area.y2 > y_last) blend_area.y2 = y_last;
 190:..\..\..\arduinoLCD\test\Pain Drain\libraries\lvgl\src\draw\sw/lv_draw_sw_img.c ****         }
 191:..\..\..\arduinoLCD\test\Pain Drain\libraries\lvgl\src\draw\sw/lv_draw_sw_img.c **** 
 192:..\..\..\arduinoLCD\test\Pain Drain\libraries\lvgl\src\draw\sw/lv_draw_sw_img.c ****         lv_mem_buf_release(mask_buf);
 193:..\..\..\arduinoLCD\test\Pain Drain\libraries\lvgl\src\draw\sw/lv_draw_sw_img.c ****         lv_mem_buf_release(rgb_buf);
 194:..\..\..\arduinoLCD\test\Pain Drain\libraries\lvgl\src\draw\sw/lv_draw_sw_img.c ****     }
 195:..\..\..\arduinoLCD\test\Pain Drain\libraries\lvgl\src\draw\sw/lv_draw_sw_img.c **** }
 196:..\..\..\arduinoLCD\test\Pain Drain\libraries\lvgl\src\draw\sw/lv_draw_sw_img.c **** 
 197:..\..\..\arduinoLCD\test\Pain Drain\libraries\lvgl\src\draw\sw/lv_draw_sw_img.c **** /**********************
 198:..\..\..\arduinoLCD\test\Pain Drain\libraries\lvgl\src\draw\sw/lv_draw_sw_img.c ****  *   STATIC FUNCTIONS
 199:..\..\..\arduinoLCD\test\Pain Drain\libraries\lvgl\src\draw\sw/lv_draw_sw_img.c ****  **********************/
 200:..\..\..\arduinoLCD\test\Pain Drain\libraries\lvgl\src\draw\sw/lv_draw_sw_img.c **** 
 201:..\..\..\arduinoLCD\test\Pain Drain\libraries\lvgl\src\draw\sw/lv_draw_sw_img.c **** /* Separate the image channels to RGB and Alpha to match LV_COLOR_DEPTH settings*/
 202:..\..\..\arduinoLCD\test\Pain Drain\libraries\lvgl\src\draw\sw/lv_draw_sw_img.c **** static void convert_cb(const lv_area_t * dest_area, const void * src_buf, lv_coord_t src_w, lv_coor
ARM GAS  C:\Users\haske\AppData\Local\Temp\ccpEN9oH.s 			page 5


 203:..\..\..\arduinoLCD\test\Pain Drain\libraries\lvgl\src\draw\sw/lv_draw_sw_img.c ****                        lv_coord_t src_stride, const lv_draw_img_dsc_t * draw_dsc, lv_img_cf_t cf, l
 204:..\..\..\arduinoLCD\test\Pain Drain\libraries\lvgl\src\draw\sw/lv_draw_sw_img.c **** {
  27              		.loc 1 204 0
  28              		.cfi_startproc
  29              		@ args = 20, pretend = 0, frame = 24
  30              		@ frame_needed = 0, uses_anonymous_args = 0
  31              	.LVL0:
  32 0000 F0B5     		push	{r4, r5, r6, r7, lr}
  33              		.cfi_def_cfa_offset 20
  34              		.cfi_offset 4, -20
  35              		.cfi_offset 5, -16
  36              		.cfi_offset 6, -12
  37              		.cfi_offset 7, -8
  38              		.cfi_offset 14, -4
  39 0002 5F46     		mov	r7, fp
  40 0004 5646     		mov	r6, r10
  41 0006 4D46     		mov	r5, r9
  42 0008 4446     		mov	r4, r8
  43 000a F0B4     		push	{r4, r5, r6, r7}
  44              		.cfi_def_cfa_offset 36
  45              		.cfi_offset 8, -36
  46              		.cfi_offset 9, -32
  47              		.cfi_offset 10, -28
  48              		.cfi_offset 11, -24
  49 000c 87B0     		sub	sp, sp, #28
  50              		.cfi_def_cfa_offset 64
  51 000e 8146     		mov	r9, r0
  52 0010 0291     		str	r1, [sp, #8]
  53 0012 0392     		str	r2, [sp, #12]
  54 0014 0493     		str	r3, [sp, #16]
  55 0016 10AB     		add	r3, sp, #64
  56              	.LVL1:
  57 0018 0022     		movs	r2, #0
  58 001a 9B5E     		ldrsh	r3, [r3, r2]
  59              	.LVL2:
  60 001c 9A46     		mov	r10, r3
  61 001e 12AB     		add	r3, sp, #72
  62              	.LVL3:
  63 0020 1B78     		ldrb	r3, [r3]
  64              	.LVL4:
  65 0022 9B46     		mov	fp, r3
  66 0024 139C     		ldr	r4, [sp, #76]
  67 0026 149D     		ldr	r5, [sp, #80]
  68              	.LVL5:
 205:..\..\..\arduinoLCD\test\Pain Drain\libraries\lvgl\src\draw\sw/lv_draw_sw_img.c ****     LV_UNUSED(draw_dsc);
 206:..\..\..\arduinoLCD\test\Pain Drain\libraries\lvgl\src\draw\sw/lv_draw_sw_img.c ****     LV_UNUSED(src_h);
 207:..\..\..\arduinoLCD\test\Pain Drain\libraries\lvgl\src\draw\sw/lv_draw_sw_img.c ****     LV_UNUSED(src_w);
 208:..\..\..\arduinoLCD\test\Pain Drain\libraries\lvgl\src\draw\sw/lv_draw_sw_img.c **** 
 209:..\..\..\arduinoLCD\test\Pain Drain\libraries\lvgl\src\draw\sw/lv_draw_sw_img.c ****     const uint8_t * src_tmp8 = (const uint8_t *)src_buf;
 210:..\..\..\arduinoLCD\test\Pain Drain\libraries\lvgl\src\draw\sw/lv_draw_sw_img.c ****     lv_coord_t y;
 211:..\..\..\arduinoLCD\test\Pain Drain\libraries\lvgl\src\draw\sw/lv_draw_sw_img.c ****     lv_coord_t x;
 212:..\..\..\arduinoLCD\test\Pain Drain\libraries\lvgl\src\draw\sw/lv_draw_sw_img.c **** 
 213:..\..\..\arduinoLCD\test\Pain Drain\libraries\lvgl\src\draw\sw/lv_draw_sw_img.c ****     if(cf == LV_IMG_CF_TRUE_COLOR || cf == LV_IMG_CF_TRUE_COLOR_CHROMA_KEYED) {
  69              		.loc 1 213 0
  70 0028 042B     		cmp	r3, #4
  71 002a 01D0     		beq	.L2
  72              		.loc 1 213 0 is_stmt 0 discriminator 1
ARM GAS  C:\Users\haske\AppData\Local\Temp\ccpEN9oH.s 			page 6


  73 002c 062B     		cmp	r3, #6
  74 002e 4DD1     		bne	.L3
  75              	.L2:
  76              	.LBB47:
 214:..\..\..\arduinoLCD\test\Pain Drain\libraries\lvgl\src\draw\sw/lv_draw_sw_img.c ****         uint32_t px_cnt = lv_area_get_size(dest_area);
  77              		.loc 1 214 0 is_stmt 1
  78 0030 4846     		mov	r0, r9
  79              	.LVL6:
  80 0032 FFF7FEFF 		bl	lv_area_get_size
  81              	.LVL7:
  82 0036 0100     		movs	r1, r0
  83 0038 0390     		str	r0, [sp, #12]
  84              	.LVL8:
 215:..\..\..\arduinoLCD\test\Pain Drain\libraries\lvgl\src\draw\sw/lv_draw_sw_img.c ****         lv_memset_ff(abuf, px_cnt);
  85              		.loc 1 215 0
  86 003a 2800     		movs	r0, r5
  87              	.LVL9:
  88 003c FFF7FEFF 		bl	lv_memset_ff
  89              	.LVL10:
 216:..\..\..\arduinoLCD\test\Pain Drain\libraries\lvgl\src\draw\sw/lv_draw_sw_img.c **** 
 217:..\..\..\arduinoLCD\test\Pain Drain\libraries\lvgl\src\draw\sw/lv_draw_sw_img.c ****         src_tmp8 += (src_stride * dest_area->y1 * sizeof(lv_color_t)) + dest_area->x1 * sizeof(lv_c
  90              		.loc 1 217 0
  91 0040 4B46     		mov	r3, r9
  92 0042 0226     		movs	r6, #2
  93 0044 9E5F     		ldrsh	r6, [r3, r6]
  94 0046 5746     		mov	r7, r10
  95 0048 7743     		muls	r7, r6
  96 004a 4B46     		mov	r3, r9
  97 004c 0022     		movs	r2, #0
  98 004e 9A5E     		ldrsh	r2, [r3, r2]
  99 0050 BF18     		adds	r7, r7, r2
 100 0052 7F00     		lsls	r7, r7, #1
 101 0054 029B     		ldr	r3, [sp, #8]
 102 0056 9C46     		mov	ip, r3
 103 0058 6744     		add	r7, r7, ip
 104              	.LVL11:
 105              	.LBB48:
 106              	.LBB49:
 107              		.file 2 "c:\\projects\\paindrain\\arduinolcd\\test\\pain drain\\libraries\\lvgl\\src\\misc\\lv_are
   1:c:\projects\paindrain\arduinolcd\test\pain drain\libraries\lvgl\src\misc\lv_area.h **** /**
   2:c:\projects\paindrain\arduinolcd\test\pain drain\libraries\lvgl\src\misc\lv_area.h ****  * @file lv_area.h
   3:c:\projects\paindrain\arduinolcd\test\pain drain\libraries\lvgl\src\misc\lv_area.h ****  *
   4:c:\projects\paindrain\arduinolcd\test\pain drain\libraries\lvgl\src\misc\lv_area.h ****  */
   5:c:\projects\paindrain\arduinolcd\test\pain drain\libraries\lvgl\src\misc\lv_area.h **** 
   6:c:\projects\paindrain\arduinolcd\test\pain drain\libraries\lvgl\src\misc\lv_area.h **** #ifndef LV_AREA_H
   7:c:\projects\paindrain\arduinolcd\test\pain drain\libraries\lvgl\src\misc\lv_area.h **** #define LV_AREA_H
   8:c:\projects\paindrain\arduinolcd\test\pain drain\libraries\lvgl\src\misc\lv_area.h **** 
   9:c:\projects\paindrain\arduinolcd\test\pain drain\libraries\lvgl\src\misc\lv_area.h **** #ifdef __cplusplus
  10:c:\projects\paindrain\arduinolcd\test\pain drain\libraries\lvgl\src\misc\lv_area.h **** extern "C" {
  11:c:\projects\paindrain\arduinolcd\test\pain drain\libraries\lvgl\src\misc\lv_area.h **** #endif
  12:c:\projects\paindrain\arduinolcd\test\pain drain\libraries\lvgl\src\misc\lv_area.h **** 
  13:c:\projects\paindrain\arduinolcd\test\pain drain\libraries\lvgl\src\misc\lv_area.h **** /*********************
  14:c:\projects\paindrain\arduinolcd\test\pain drain\libraries\lvgl\src\misc\lv_area.h ****  *      INCLUDES
  15:c:\projects\paindrain\arduinolcd\test\pain drain\libraries\lvgl\src\misc\lv_area.h ****  *********************/
  16:c:\projects\paindrain\arduinolcd\test\pain drain\libraries\lvgl\src\misc\lv_area.h **** #include "../lv_conf_internal.h"
  17:c:\projects\paindrain\arduinolcd\test\pain drain\libraries\lvgl\src\misc\lv_area.h **** #include <stdbool.h>
  18:c:\projects\paindrain\arduinolcd\test\pain drain\libraries\lvgl\src\misc\lv_area.h **** #include <stdint.h>
ARM GAS  C:\Users\haske\AppData\Local\Temp\ccpEN9oH.s 			page 7


  19:c:\projects\paindrain\arduinolcd\test\pain drain\libraries\lvgl\src\misc\lv_area.h **** 
  20:c:\projects\paindrain\arduinolcd\test\pain drain\libraries\lvgl\src\misc\lv_area.h **** /*********************
  21:c:\projects\paindrain\arduinolcd\test\pain drain\libraries\lvgl\src\misc\lv_area.h ****  *      DEFINES
  22:c:\projects\paindrain\arduinolcd\test\pain drain\libraries\lvgl\src\misc\lv_area.h ****  *********************/
  23:c:\projects\paindrain\arduinolcd\test\pain drain\libraries\lvgl\src\misc\lv_area.h **** 
  24:c:\projects\paindrain\arduinolcd\test\pain drain\libraries\lvgl\src\misc\lv_area.h **** #if LV_USE_LARGE_COORD
  25:c:\projects\paindrain\arduinolcd\test\pain drain\libraries\lvgl\src\misc\lv_area.h **** typedef int32_t lv_coord_t;
  26:c:\projects\paindrain\arduinolcd\test\pain drain\libraries\lvgl\src\misc\lv_area.h **** #else
  27:c:\projects\paindrain\arduinolcd\test\pain drain\libraries\lvgl\src\misc\lv_area.h **** typedef int16_t lv_coord_t;
  28:c:\projects\paindrain\arduinolcd\test\pain drain\libraries\lvgl\src\misc\lv_area.h **** #endif
  29:c:\projects\paindrain\arduinolcd\test\pain drain\libraries\lvgl\src\misc\lv_area.h **** 
  30:c:\projects\paindrain\arduinolcd\test\pain drain\libraries\lvgl\src\misc\lv_area.h **** /**********************
  31:c:\projects\paindrain\arduinolcd\test\pain drain\libraries\lvgl\src\misc\lv_area.h ****  *      TYPEDEFS
  32:c:\projects\paindrain\arduinolcd\test\pain drain\libraries\lvgl\src\misc\lv_area.h ****  **********************/
  33:c:\projects\paindrain\arduinolcd\test\pain drain\libraries\lvgl\src\misc\lv_area.h **** 
  34:c:\projects\paindrain\arduinolcd\test\pain drain\libraries\lvgl\src\misc\lv_area.h **** /**
  35:c:\projects\paindrain\arduinolcd\test\pain drain\libraries\lvgl\src\misc\lv_area.h ****  * Represents a point on the screen.
  36:c:\projects\paindrain\arduinolcd\test\pain drain\libraries\lvgl\src\misc\lv_area.h ****  */
  37:c:\projects\paindrain\arduinolcd\test\pain drain\libraries\lvgl\src\misc\lv_area.h **** typedef struct {
  38:c:\projects\paindrain\arduinolcd\test\pain drain\libraries\lvgl\src\misc\lv_area.h ****     lv_coord_t x;
  39:c:\projects\paindrain\arduinolcd\test\pain drain\libraries\lvgl\src\misc\lv_area.h ****     lv_coord_t y;
  40:c:\projects\paindrain\arduinolcd\test\pain drain\libraries\lvgl\src\misc\lv_area.h **** } lv_point_t;
  41:c:\projects\paindrain\arduinolcd\test\pain drain\libraries\lvgl\src\misc\lv_area.h **** 
  42:c:\projects\paindrain\arduinolcd\test\pain drain\libraries\lvgl\src\misc\lv_area.h **** /** Represents an area of the screen.*/
  43:c:\projects\paindrain\arduinolcd\test\pain drain\libraries\lvgl\src\misc\lv_area.h **** typedef struct {
  44:c:\projects\paindrain\arduinolcd\test\pain drain\libraries\lvgl\src\misc\lv_area.h ****     lv_coord_t x1;
  45:c:\projects\paindrain\arduinolcd\test\pain drain\libraries\lvgl\src\misc\lv_area.h ****     lv_coord_t y1;
  46:c:\projects\paindrain\arduinolcd\test\pain drain\libraries\lvgl\src\misc\lv_area.h ****     lv_coord_t x2;
  47:c:\projects\paindrain\arduinolcd\test\pain drain\libraries\lvgl\src\misc\lv_area.h ****     lv_coord_t y2;
  48:c:\projects\paindrain\arduinolcd\test\pain drain\libraries\lvgl\src\misc\lv_area.h **** } lv_area_t;
  49:c:\projects\paindrain\arduinolcd\test\pain drain\libraries\lvgl\src\misc\lv_area.h **** 
  50:c:\projects\paindrain\arduinolcd\test\pain drain\libraries\lvgl\src\misc\lv_area.h **** /** Alignments*/
  51:c:\projects\paindrain\arduinolcd\test\pain drain\libraries\lvgl\src\misc\lv_area.h **** enum {
  52:c:\projects\paindrain\arduinolcd\test\pain drain\libraries\lvgl\src\misc\lv_area.h ****     LV_ALIGN_DEFAULT = 0,
  53:c:\projects\paindrain\arduinolcd\test\pain drain\libraries\lvgl\src\misc\lv_area.h ****     LV_ALIGN_TOP_LEFT,
  54:c:\projects\paindrain\arduinolcd\test\pain drain\libraries\lvgl\src\misc\lv_area.h ****     LV_ALIGN_TOP_MID,
  55:c:\projects\paindrain\arduinolcd\test\pain drain\libraries\lvgl\src\misc\lv_area.h ****     LV_ALIGN_TOP_RIGHT,
  56:c:\projects\paindrain\arduinolcd\test\pain drain\libraries\lvgl\src\misc\lv_area.h ****     LV_ALIGN_BOTTOM_LEFT,
  57:c:\projects\paindrain\arduinolcd\test\pain drain\libraries\lvgl\src\misc\lv_area.h ****     LV_ALIGN_BOTTOM_MID,
  58:c:\projects\paindrain\arduinolcd\test\pain drain\libraries\lvgl\src\misc\lv_area.h ****     LV_ALIGN_BOTTOM_RIGHT,
  59:c:\projects\paindrain\arduinolcd\test\pain drain\libraries\lvgl\src\misc\lv_area.h ****     LV_ALIGN_LEFT_MID,
  60:c:\projects\paindrain\arduinolcd\test\pain drain\libraries\lvgl\src\misc\lv_area.h ****     LV_ALIGN_RIGHT_MID,
  61:c:\projects\paindrain\arduinolcd\test\pain drain\libraries\lvgl\src\misc\lv_area.h ****     LV_ALIGN_CENTER,
  62:c:\projects\paindrain\arduinolcd\test\pain drain\libraries\lvgl\src\misc\lv_area.h **** 
  63:c:\projects\paindrain\arduinolcd\test\pain drain\libraries\lvgl\src\misc\lv_area.h ****     LV_ALIGN_OUT_TOP_LEFT,
  64:c:\projects\paindrain\arduinolcd\test\pain drain\libraries\lvgl\src\misc\lv_area.h ****     LV_ALIGN_OUT_TOP_MID,
  65:c:\projects\paindrain\arduinolcd\test\pain drain\libraries\lvgl\src\misc\lv_area.h ****     LV_ALIGN_OUT_TOP_RIGHT,
  66:c:\projects\paindrain\arduinolcd\test\pain drain\libraries\lvgl\src\misc\lv_area.h ****     LV_ALIGN_OUT_BOTTOM_LEFT,
  67:c:\projects\paindrain\arduinolcd\test\pain drain\libraries\lvgl\src\misc\lv_area.h ****     LV_ALIGN_OUT_BOTTOM_MID,
  68:c:\projects\paindrain\arduinolcd\test\pain drain\libraries\lvgl\src\misc\lv_area.h ****     LV_ALIGN_OUT_BOTTOM_RIGHT,
  69:c:\projects\paindrain\arduinolcd\test\pain drain\libraries\lvgl\src\misc\lv_area.h ****     LV_ALIGN_OUT_LEFT_TOP,
  70:c:\projects\paindrain\arduinolcd\test\pain drain\libraries\lvgl\src\misc\lv_area.h ****     LV_ALIGN_OUT_LEFT_MID,
  71:c:\projects\paindrain\arduinolcd\test\pain drain\libraries\lvgl\src\misc\lv_area.h ****     LV_ALIGN_OUT_LEFT_BOTTOM,
  72:c:\projects\paindrain\arduinolcd\test\pain drain\libraries\lvgl\src\misc\lv_area.h ****     LV_ALIGN_OUT_RIGHT_TOP,
  73:c:\projects\paindrain\arduinolcd\test\pain drain\libraries\lvgl\src\misc\lv_area.h ****     LV_ALIGN_OUT_RIGHT_MID,
  74:c:\projects\paindrain\arduinolcd\test\pain drain\libraries\lvgl\src\misc\lv_area.h ****     LV_ALIGN_OUT_RIGHT_BOTTOM,
  75:c:\projects\paindrain\arduinolcd\test\pain drain\libraries\lvgl\src\misc\lv_area.h **** };
ARM GAS  C:\Users\haske\AppData\Local\Temp\ccpEN9oH.s 			page 8


  76:c:\projects\paindrain\arduinolcd\test\pain drain\libraries\lvgl\src\misc\lv_area.h **** typedef uint8_t lv_align_t;
  77:c:\projects\paindrain\arduinolcd\test\pain drain\libraries\lvgl\src\misc\lv_area.h **** 
  78:c:\projects\paindrain\arduinolcd\test\pain drain\libraries\lvgl\src\misc\lv_area.h **** enum {
  79:c:\projects\paindrain\arduinolcd\test\pain drain\libraries\lvgl\src\misc\lv_area.h ****     LV_DIR_NONE     = 0x00,
  80:c:\projects\paindrain\arduinolcd\test\pain drain\libraries\lvgl\src\misc\lv_area.h ****     LV_DIR_LEFT     = (1 << 0),
  81:c:\projects\paindrain\arduinolcd\test\pain drain\libraries\lvgl\src\misc\lv_area.h ****     LV_DIR_RIGHT    = (1 << 1),
  82:c:\projects\paindrain\arduinolcd\test\pain drain\libraries\lvgl\src\misc\lv_area.h ****     LV_DIR_TOP      = (1 << 2),
  83:c:\projects\paindrain\arduinolcd\test\pain drain\libraries\lvgl\src\misc\lv_area.h ****     LV_DIR_BOTTOM   = (1 << 3),
  84:c:\projects\paindrain\arduinolcd\test\pain drain\libraries\lvgl\src\misc\lv_area.h ****     LV_DIR_HOR      = LV_DIR_LEFT | LV_DIR_RIGHT,
  85:c:\projects\paindrain\arduinolcd\test\pain drain\libraries\lvgl\src\misc\lv_area.h ****     LV_DIR_VER      = LV_DIR_TOP | LV_DIR_BOTTOM,
  86:c:\projects\paindrain\arduinolcd\test\pain drain\libraries\lvgl\src\misc\lv_area.h ****     LV_DIR_ALL      = LV_DIR_HOR | LV_DIR_VER,
  87:c:\projects\paindrain\arduinolcd\test\pain drain\libraries\lvgl\src\misc\lv_area.h **** };
  88:c:\projects\paindrain\arduinolcd\test\pain drain\libraries\lvgl\src\misc\lv_area.h **** 
  89:c:\projects\paindrain\arduinolcd\test\pain drain\libraries\lvgl\src\misc\lv_area.h **** typedef uint8_t lv_dir_t;
  90:c:\projects\paindrain\arduinolcd\test\pain drain\libraries\lvgl\src\misc\lv_area.h **** 
  91:c:\projects\paindrain\arduinolcd\test\pain drain\libraries\lvgl\src\misc\lv_area.h **** /**********************
  92:c:\projects\paindrain\arduinolcd\test\pain drain\libraries\lvgl\src\misc\lv_area.h ****  * GLOBAL PROTOTYPES
  93:c:\projects\paindrain\arduinolcd\test\pain drain\libraries\lvgl\src\misc\lv_area.h ****  **********************/
  94:c:\projects\paindrain\arduinolcd\test\pain drain\libraries\lvgl\src\misc\lv_area.h **** 
  95:c:\projects\paindrain\arduinolcd\test\pain drain\libraries\lvgl\src\misc\lv_area.h **** /**
  96:c:\projects\paindrain\arduinolcd\test\pain drain\libraries\lvgl\src\misc\lv_area.h ****  * Initialize an area
  97:c:\projects\paindrain\arduinolcd\test\pain drain\libraries\lvgl\src\misc\lv_area.h ****  * @param area_p pointer to an area
  98:c:\projects\paindrain\arduinolcd\test\pain drain\libraries\lvgl\src\misc\lv_area.h ****  * @param x1 left coordinate of the area
  99:c:\projects\paindrain\arduinolcd\test\pain drain\libraries\lvgl\src\misc\lv_area.h ****  * @param y1 top coordinate of the area
 100:c:\projects\paindrain\arduinolcd\test\pain drain\libraries\lvgl\src\misc\lv_area.h ****  * @param x2 right coordinate of the area
 101:c:\projects\paindrain\arduinolcd\test\pain drain\libraries\lvgl\src\misc\lv_area.h ****  * @param y2 bottom coordinate of the area
 102:c:\projects\paindrain\arduinolcd\test\pain drain\libraries\lvgl\src\misc\lv_area.h ****  */
 103:c:\projects\paindrain\arduinolcd\test\pain drain\libraries\lvgl\src\misc\lv_area.h **** void lv_area_set(lv_area_t * area_p, lv_coord_t x1, lv_coord_t y1, lv_coord_t x2, lv_coord_t y2);
 104:c:\projects\paindrain\arduinolcd\test\pain drain\libraries\lvgl\src\misc\lv_area.h **** 
 105:c:\projects\paindrain\arduinolcd\test\pain drain\libraries\lvgl\src\misc\lv_area.h **** /**
 106:c:\projects\paindrain\arduinolcd\test\pain drain\libraries\lvgl\src\misc\lv_area.h ****  * Copy an area
 107:c:\projects\paindrain\arduinolcd\test\pain drain\libraries\lvgl\src\misc\lv_area.h ****  * @param dest pointer to the destination area
 108:c:\projects\paindrain\arduinolcd\test\pain drain\libraries\lvgl\src\misc\lv_area.h ****  * @param src pointer to the source area
 109:c:\projects\paindrain\arduinolcd\test\pain drain\libraries\lvgl\src\misc\lv_area.h ****  */
 110:c:\projects\paindrain\arduinolcd\test\pain drain\libraries\lvgl\src\misc\lv_area.h **** inline static void lv_area_copy(lv_area_t * dest, const lv_area_t * src)
 111:c:\projects\paindrain\arduinolcd\test\pain drain\libraries\lvgl\src\misc\lv_area.h **** {
 112:c:\projects\paindrain\arduinolcd\test\pain drain\libraries\lvgl\src\misc\lv_area.h ****     dest->x1 = src->x1;
 113:c:\projects\paindrain\arduinolcd\test\pain drain\libraries\lvgl\src\misc\lv_area.h ****     dest->y1 = src->y1;
 114:c:\projects\paindrain\arduinolcd\test\pain drain\libraries\lvgl\src\misc\lv_area.h ****     dest->x2 = src->x2;
 115:c:\projects\paindrain\arduinolcd\test\pain drain\libraries\lvgl\src\misc\lv_area.h ****     dest->y2 = src->y2;
 116:c:\projects\paindrain\arduinolcd\test\pain drain\libraries\lvgl\src\misc\lv_area.h **** }
 117:c:\projects\paindrain\arduinolcd\test\pain drain\libraries\lvgl\src\misc\lv_area.h **** 
 118:c:\projects\paindrain\arduinolcd\test\pain drain\libraries\lvgl\src\misc\lv_area.h **** /**
 119:c:\projects\paindrain\arduinolcd\test\pain drain\libraries\lvgl\src\misc\lv_area.h ****  * Get the width of an area
 120:c:\projects\paindrain\arduinolcd\test\pain drain\libraries\lvgl\src\misc\lv_area.h ****  * @param area_p pointer to an area
 121:c:\projects\paindrain\arduinolcd\test\pain drain\libraries\lvgl\src\misc\lv_area.h ****  * @return the width of the area (if x1 == x2 -> width = 1)
 122:c:\projects\paindrain\arduinolcd\test\pain drain\libraries\lvgl\src\misc\lv_area.h ****  */
 123:c:\projects\paindrain\arduinolcd\test\pain drain\libraries\lvgl\src\misc\lv_area.h **** static inline lv_coord_t lv_area_get_width(const lv_area_t * area_p)
 124:c:\projects\paindrain\arduinolcd\test\pain drain\libraries\lvgl\src\misc\lv_area.h **** {
 125:c:\projects\paindrain\arduinolcd\test\pain drain\libraries\lvgl\src\misc\lv_area.h ****     return (lv_coord_t)(area_p->x2 - area_p->x1 + 1);
 108              		.loc 2 125 0
 109 005a 4B46     		mov	r3, r9
 110 005c 0421     		movs	r1, #4
 111 005e 5B5E     		ldrsh	r3, [r3, r1]
 112 0060 9B1A     		subs	r3, r3, r2
 113 0062 0133     		adds	r3, r3, #1
 114 0064 1BB2     		sxth	r3, r3
ARM GAS  C:\Users\haske\AppData\Local\Temp\ccpEN9oH.s 			page 9


 115              	.LVL12:
 116              	.LBE49:
 117              	.LBE48:
 218:..\..\..\arduinoLCD\test\Pain Drain\libraries\lvgl\src\draw\sw/lv_draw_sw_img.c ****         uint32_t dest_w = lv_area_get_width(dest_area);
 219:..\..\..\arduinoLCD\test\Pain Drain\libraries\lvgl\src\draw\sw/lv_draw_sw_img.c ****         uint32_t dest_w_byte = dest_w * sizeof(lv_color_t);
 118              		.loc 1 219 0
 119 0066 5B00     		lsls	r3, r3, #1
 120              	.LVL13:
 121 0068 0193     		str	r3, [sp, #4]
 122              	.LVL14:
 220:..\..\..\arduinoLCD\test\Pain Drain\libraries\lvgl\src\draw\sw/lv_draw_sw_img.c **** 
 221:..\..\..\arduinoLCD\test\Pain Drain\libraries\lvgl\src\draw\sw/lv_draw_sw_img.c ****         lv_coord_t src_stride_byte = src_stride * sizeof(lv_color_t);
 123              		.loc 1 221 0
 124 006a 5346     		mov	r3, r10
 125              	.LVL15:
 126 006c 5B00     		lsls	r3, r3, #1
 127 006e 1BB2     		sxth	r3, r3
 128 0070 9A46     		mov	r10, r3
 129              	.LVL16:
 222:..\..\..\arduinoLCD\test\Pain Drain\libraries\lvgl\src\draw\sw/lv_draw_sw_img.c ****         lv_color_t * cbuf_tmp = cbuf;
 130              		.loc 1 222 0
 131 0072 A046     		mov	r8, r4
 132 0074 1394     		str	r4, [sp, #76]
 133 0076 1495     		str	r5, [sp, #80]
 134 0078 4D46     		mov	r5, r9
 135 007a 149B     		ldr	r3, [sp, #80]
 136 007c 9946     		mov	r9, r3
 137              	.LVL17:
 223:..\..\..\arduinoLCD\test\Pain Drain\libraries\lvgl\src\draw\sw/lv_draw_sw_img.c ****         for(y = dest_area->y1; y <= dest_area->y2; y++) {
 138              		.loc 1 223 0
 139 007e 0AE0     		b	.L4
 140              	.L5:
 224:..\..\..\arduinoLCD\test\Pain Drain\libraries\lvgl\src\draw\sw/lv_draw_sw_img.c ****             lv_memcpy(cbuf_tmp, src_tmp8, dest_w_byte);
 141              		.loc 1 224 0 discriminator 3
 142 0080 019A     		ldr	r2, [sp, #4]
 143 0082 3900     		movs	r1, r7
 144 0084 2000     		movs	r0, r4
 145 0086 FFF7FEFF 		bl	lv_memcpy
 146              	.LVL18:
 225:..\..\..\arduinoLCD\test\Pain Drain\libraries\lvgl\src\draw\sw/lv_draw_sw_img.c ****             src_tmp8 += src_stride_byte;
 147              		.loc 1 225 0 discriminator 3
 148 008a 5744     		add	r7, r7, r10
 149              	.LVL19:
 226:..\..\..\arduinoLCD\test\Pain Drain\libraries\lvgl\src\draw\sw/lv_draw_sw_img.c ****             cbuf_tmp += dest_w;
 150              		.loc 1 226 0 discriminator 3
 151 008c 019B     		ldr	r3, [sp, #4]
 152 008e 9C46     		mov	ip, r3
 153 0090 6444     		add	r4, r4, ip
 154              	.LVL20:
 223:..\..\..\arduinoLCD\test\Pain Drain\libraries\lvgl\src\draw\sw/lv_draw_sw_img.c ****             lv_memcpy(cbuf_tmp, src_tmp8, dest_w_byte);
 155              		.loc 1 223 0 discriminator 3
 156 0092 0136     		adds	r6, r6, #1
 157              	.LVL21:
 158 0094 36B2     		sxth	r6, r6
 159              	.LVL22:
 160              	.L4:
 223:..\..\..\arduinoLCD\test\Pain Drain\libraries\lvgl\src\draw\sw/lv_draw_sw_img.c ****             lv_memcpy(cbuf_tmp, src_tmp8, dest_w_byte);
ARM GAS  C:\Users\haske\AppData\Local\Temp\ccpEN9oH.s 			page 10


 161              		.loc 1 223 0 is_stmt 0 discriminator 1
 162 0096 0622     		movs	r2, #6
 163 0098 AB5E     		ldrsh	r3, [r5, r2]
 164 009a 9E42     		cmp	r6, r3
 165 009c F0DD     		ble	.L5
 166 009e 4446     		mov	r4, r8
 167              	.LVL23:
 168 00a0 4D46     		mov	r5, r9
 169              	.LVL24:
 227:..\..\..\arduinoLCD\test\Pain Drain\libraries\lvgl\src\draw\sw/lv_draw_sw_img.c ****         }
 228:..\..\..\arduinoLCD\test\Pain Drain\libraries\lvgl\src\draw\sw/lv_draw_sw_img.c **** 
 229:..\..\..\arduinoLCD\test\Pain Drain\libraries\lvgl\src\draw\sw/lv_draw_sw_img.c ****         /*Make "holes" for with Chroma keying*/
 230:..\..\..\arduinoLCD\test\Pain Drain\libraries\lvgl\src\draw\sw/lv_draw_sw_img.c ****         if(cf == LV_IMG_CF_TRUE_COLOR_CHROMA_KEYED) {
 170              		.loc 1 230 0 is_stmt 1
 171 00a2 5B46     		mov	r3, fp
 172 00a4 062B     		cmp	r3, #6
 173 00a6 00D0     		beq	.LCB173
 174 00a8 A8E0     		b	.L1	@long jump
 175              	.LCB173:
 176 00aa 0AE0     		b	.L18
 177              	.LVL25:
 178              	.L9:
 179              	.LBB50:
 231:..\..\..\arduinoLCD\test\Pain Drain\libraries\lvgl\src\draw\sw/lv_draw_sw_img.c ****             uint32_t i;
 232:..\..\..\arduinoLCD\test\Pain Drain\libraries\lvgl\src\draw\sw/lv_draw_sw_img.c ****             lv_color_t chk = LV_COLOR_CHROMA_KEY;
 233:..\..\..\arduinoLCD\test\Pain Drain\libraries\lvgl\src\draw\sw/lv_draw_sw_img.c **** #if LV_COLOR_DEPTH == 8 || LV_COLOR_DEPTH == 1
 234:..\..\..\arduinoLCD\test\Pain Drain\libraries\lvgl\src\draw\sw/lv_draw_sw_img.c ****             uint8_t * cbuf_uint = (uint8_t *)cbuf;
 235:..\..\..\arduinoLCD\test\Pain Drain\libraries\lvgl\src\draw\sw/lv_draw_sw_img.c ****             uint8_t chk_v = chk.full;
 236:..\..\..\arduinoLCD\test\Pain Drain\libraries\lvgl\src\draw\sw/lv_draw_sw_img.c **** #elif LV_COLOR_DEPTH == 16
 237:..\..\..\arduinoLCD\test\Pain Drain\libraries\lvgl\src\draw\sw/lv_draw_sw_img.c ****             uint16_t * cbuf_uint = (uint16_t *)cbuf;
 238:..\..\..\arduinoLCD\test\Pain Drain\libraries\lvgl\src\draw\sw/lv_draw_sw_img.c ****             uint16_t chk_v = chk.full;
 239:..\..\..\arduinoLCD\test\Pain Drain\libraries\lvgl\src\draw\sw/lv_draw_sw_img.c **** #elif LV_COLOR_DEPTH == 32
 240:..\..\..\arduinoLCD\test\Pain Drain\libraries\lvgl\src\draw\sw/lv_draw_sw_img.c ****             uint32_t * cbuf_uint = (uint32_t *)cbuf;
 241:..\..\..\arduinoLCD\test\Pain Drain\libraries\lvgl\src\draw\sw/lv_draw_sw_img.c ****             uint32_t chk_v = chk.full;
 242:..\..\..\arduinoLCD\test\Pain Drain\libraries\lvgl\src\draw\sw/lv_draw_sw_img.c **** #endif
 243:..\..\..\arduinoLCD\test\Pain Drain\libraries\lvgl\src\draw\sw/lv_draw_sw_img.c ****             for(i = 0; i < px_cnt; i++) {
 244:..\..\..\arduinoLCD\test\Pain Drain\libraries\lvgl\src\draw\sw/lv_draw_sw_img.c ****                 if(chk_v == cbuf_uint[i]) abuf[i] = 0x00;
 180              		.loc 1 244 0
 181 00ac 5A00     		lsls	r2, r3, #1
 182 00ae 115B     		ldrh	r1, [r2, r4]
 183 00b0 FC22     		movs	r2, #252
 184 00b2 D200     		lsls	r2, r2, #3
 185 00b4 9142     		cmp	r1, r2
 186 00b6 02D1     		bne	.L8
 187              		.loc 1 244 0 is_stmt 0 discriminator 1
 188 00b8 EA18     		adds	r2, r5, r3
 189 00ba 0021     		movs	r1, #0
 190 00bc 1170     		strb	r1, [r2]
 191              	.L8:
 243:..\..\..\arduinoLCD\test\Pain Drain\libraries\lvgl\src\draw\sw/lv_draw_sw_img.c ****                 if(chk_v == cbuf_uint[i]) abuf[i] = 0x00;
 192              		.loc 1 243 0 is_stmt 1 discriminator 2
 193 00be 0133     		adds	r3, r3, #1
 194              	.LVL26:
 195 00c0 01E0     		b	.L6
 196              	.LVL27:
 197              	.L18:
 243:..\..\..\arduinoLCD\test\Pain Drain\libraries\lvgl\src\draw\sw/lv_draw_sw_img.c ****                 if(chk_v == cbuf_uint[i]) abuf[i] = 0x00;
ARM GAS  C:\Users\haske\AppData\Local\Temp\ccpEN9oH.s 			page 11


 198              		.loc 1 243 0 is_stmt 0
 199 00c2 0023     		movs	r3, #0
 200 00c4 0398     		ldr	r0, [sp, #12]
 201              	.L6:
 202              	.LVL28:
 243:..\..\..\arduinoLCD\test\Pain Drain\libraries\lvgl\src\draw\sw/lv_draw_sw_img.c ****                 if(chk_v == cbuf_uint[i]) abuf[i] = 0x00;
 203              		.loc 1 243 0 discriminator 1
 204 00c6 8342     		cmp	r3, r0
 205 00c8 F0D3     		bcc	.L9
 206 00ca 97E0     		b	.L1
 207              	.LVL29:
 208              	.L3:
 209              	.LBE50:
 210              	.LBE47:
 245:..\..\..\arduinoLCD\test\Pain Drain\libraries\lvgl\src\draw\sw/lv_draw_sw_img.c ****             }
 246:..\..\..\arduinoLCD\test\Pain Drain\libraries\lvgl\src\draw\sw/lv_draw_sw_img.c ****         }
 247:..\..\..\arduinoLCD\test\Pain Drain\libraries\lvgl\src\draw\sw/lv_draw_sw_img.c ****     }
 248:..\..\..\arduinoLCD\test\Pain Drain\libraries\lvgl\src\draw\sw/lv_draw_sw_img.c ****     else if(cf == LV_IMG_CF_TRUE_COLOR_ALPHA) {
 211              		.loc 1 248 0 is_stmt 1
 212 00cc 052B     		cmp	r3, #5
 213 00ce 3FD1     		bne	.L10
 214              	.LBB51:
 249:..\..\..\arduinoLCD\test\Pain Drain\libraries\lvgl\src\draw\sw/lv_draw_sw_img.c ****         src_tmp8 += (src_stride * dest_area->y1 * LV_IMG_PX_SIZE_ALPHA_BYTE) + dest_area->x1 * LV_I
 215              		.loc 1 249 0
 216 00d0 0300     		movs	r3, r0
 217 00d2 0222     		movs	r2, #2
 218 00d4 9A5E     		ldrsh	r2, [r3, r2]
 219 00d6 5146     		mov	r1, r10
 220              	.LVL30:
 221 00d8 5143     		muls	r1, r2
 222 00da 0300     		movs	r3, r0
 223 00dc 0020     		movs	r0, #0
 224 00de 185E     		ldrsh	r0, [r3, r0]
 225              	.LVL31:
 226 00e0 4118     		adds	r1, r0, r1
 227 00e2 4F00     		lsls	r7, r1, #1
 228 00e4 7F18     		adds	r7, r7, r1
 229 00e6 029B     		ldr	r3, [sp, #8]
 230 00e8 9C46     		mov	ip, r3
 231 00ea 6744     		add	r7, r7, ip
 232              	.LVL32:
 233              	.LBB52:
 234              	.LBB53:
 235              		.loc 2 125 0
 236 00ec 4B46     		mov	r3, r9
 237 00ee 0421     		movs	r1, #4
 238 00f0 5B5E     		ldrsh	r3, [r3, r1]
 239 00f2 1B1A     		subs	r3, r3, r0
 240 00f4 0133     		adds	r3, r3, #1
 241 00f6 9BB2     		uxth	r3, r3
 242 00f8 18B2     		sxth	r0, r3
 243              	.LVL33:
 244              	.LBE53:
 245              	.LBE52:
 250:..\..\..\arduinoLCD\test\Pain Drain\libraries\lvgl\src\draw\sw/lv_draw_sw_img.c **** 
 251:..\..\..\arduinoLCD\test\Pain Drain\libraries\lvgl\src\draw\sw/lv_draw_sw_img.c ****         lv_coord_t src_new_line_step_px = (src_stride - lv_area_get_width(dest_area));
 246              		.loc 1 251 0
ARM GAS  C:\Users\haske\AppData\Local\Temp\ccpEN9oH.s 			page 12


 247 00fa 5146     		mov	r1, r10
 248 00fc CB1A     		subs	r3, r1, r3
 249 00fe 9BB2     		uxth	r3, r3
 250              	.LVL34:
 252:..\..\..\arduinoLCD\test\Pain Drain\libraries\lvgl\src\draw\sw/lv_draw_sw_img.c ****         lv_coord_t src_new_line_step_byte = src_new_line_step_px * LV_IMG_PX_SIZE_ALPHA_BYTE;
 251              		.loc 1 252 0
 252 0100 5900     		lsls	r1, r3, #1
 253 0102 5B18     		adds	r3, r3, r1
 254              	.LVL35:
 255 0104 1BB2     		sxth	r3, r3
 256 0106 9C46     		mov	ip, r3
 257              	.LVL36:
 258              	.LBB54:
 259              	.LBB55:
 126:c:\projects\paindrain\arduinolcd\test\pain drain\libraries\lvgl\src\misc\lv_area.h **** }
 127:c:\projects\paindrain\arduinolcd\test\pain drain\libraries\lvgl\src\misc\lv_area.h **** 
 128:c:\projects\paindrain\arduinolcd\test\pain drain\libraries\lvgl\src\misc\lv_area.h **** /**
 129:c:\projects\paindrain\arduinolcd\test\pain drain\libraries\lvgl\src\misc\lv_area.h ****  * Get the height of an area
 130:c:\projects\paindrain\arduinolcd\test\pain drain\libraries\lvgl\src\misc\lv_area.h ****  * @param area_p pointer to an area
 131:c:\projects\paindrain\arduinolcd\test\pain drain\libraries\lvgl\src\misc\lv_area.h ****  * @return the height of the area (if y1 == y2 -> height = 1)
 132:c:\projects\paindrain\arduinolcd\test\pain drain\libraries\lvgl\src\misc\lv_area.h ****  */
 133:c:\projects\paindrain\arduinolcd\test\pain drain\libraries\lvgl\src\misc\lv_area.h **** static inline lv_coord_t lv_area_get_height(const lv_area_t * area_p)
 134:c:\projects\paindrain\arduinolcd\test\pain drain\libraries\lvgl\src\misc\lv_area.h **** {
 135:c:\projects\paindrain\arduinolcd\test\pain drain\libraries\lvgl\src\misc\lv_area.h ****     return (lv_coord_t)(area_p->y2 - area_p->y1 + 1);
 260              		.loc 2 135 0
 261 0108 4B46     		mov	r3, r9
 262 010a 0621     		movs	r1, #6
 263 010c 5B5E     		ldrsh	r3, [r3, r1]
 264 010e 9A1A     		subs	r2, r3, r2
 265 0110 0132     		adds	r2, r2, #1
 266 0112 13B2     		sxth	r3, r2
 267 0114 9846     		mov	r8, r3
 268              	.LVL37:
 269              	.LBE55:
 270              	.LBE54:
 253:..\..\..\arduinoLCD\test\Pain Drain\libraries\lvgl\src\draw\sw/lv_draw_sw_img.c **** 
 254:..\..\..\arduinoLCD\test\Pain Drain\libraries\lvgl\src\draw\sw/lv_draw_sw_img.c ****         lv_coord_t dest_h = lv_area_get_height(dest_area);
 255:..\..\..\arduinoLCD\test\Pain Drain\libraries\lvgl\src\draw\sw/lv_draw_sw_img.c ****         lv_coord_t dest_w = lv_area_get_width(dest_area);
 256:..\..\..\arduinoLCD\test\Pain Drain\libraries\lvgl\src\draw\sw/lv_draw_sw_img.c ****         for(y = 0; y < dest_h; y++) {
 271              		.loc 1 256 0
 272 0116 0023     		movs	r3, #0
 273 0118 9946     		mov	r9, r3
 274              	.LVL38:
 275 011a 16E0     		b	.L11
 276              	.LVL39:
 277              	.L12:
 257:..\..\..\arduinoLCD\test\Pain Drain\libraries\lvgl\src\draw\sw/lv_draw_sw_img.c ****             for(x = 0; x < dest_w; x++) {
 258:..\..\..\arduinoLCD\test\Pain Drain\libraries\lvgl\src\draw\sw/lv_draw_sw_img.c ****                 abuf[x] = src_tmp8[LV_IMG_PX_SIZE_ALPHA_BYTE - 1];
 278              		.loc 1 258 0 discriminator 3
 279 011c BA78     		ldrb	r2, [r7, #2]
 280 011e EA54     		strb	r2, [r5, r3]
 259:..\..\..\arduinoLCD\test\Pain Drain\libraries\lvgl\src\draw\sw/lv_draw_sw_img.c **** #if LV_COLOR_DEPTH == 8 || LV_COLOR_DEPTH == 1
 260:..\..\..\arduinoLCD\test\Pain Drain\libraries\lvgl\src\draw\sw/lv_draw_sw_img.c ****                 cbuf[x].full = *src_tmp8;
 261:..\..\..\arduinoLCD\test\Pain Drain\libraries\lvgl\src\draw\sw/lv_draw_sw_img.c **** #elif LV_COLOR_DEPTH == 16
 262:..\..\..\arduinoLCD\test\Pain Drain\libraries\lvgl\src\draw\sw/lv_draw_sw_img.c ****                 cbuf[x].full = *src_tmp8 + ((*(src_tmp8 + 1)) << 8);
 281              		.loc 1 262 0 discriminator 3
 282 0120 5E00     		lsls	r6, r3, #1
ARM GAS  C:\Users\haske\AppData\Local\Temp\ccpEN9oH.s 			page 13


 283 0122 3978     		ldrb	r1, [r7]
 284 0124 7A78     		ldrb	r2, [r7, #1]
 285 0126 1202     		lsls	r2, r2, #8
 286 0128 5218     		adds	r2, r2, r1
 287 012a A253     		strh	r2, [r4, r6]
 263:..\..\..\arduinoLCD\test\Pain Drain\libraries\lvgl\src\draw\sw/lv_draw_sw_img.c **** #elif LV_COLOR_DEPTH == 32
 264:..\..\..\arduinoLCD\test\Pain Drain\libraries\lvgl\src\draw\sw/lv_draw_sw_img.c ****                 cbuf[x] = *((lv_color_t *) src_tmp8);
 265:..\..\..\arduinoLCD\test\Pain Drain\libraries\lvgl\src\draw\sw/lv_draw_sw_img.c ****                 cbuf[x].ch.alpha = 0xff;
 266:..\..\..\arduinoLCD\test\Pain Drain\libraries\lvgl\src\draw\sw/lv_draw_sw_img.c **** #endif
 267:..\..\..\arduinoLCD\test\Pain Drain\libraries\lvgl\src\draw\sw/lv_draw_sw_img.c ****                 src_tmp8 += LV_IMG_PX_SIZE_ALPHA_BYTE;
 288              		.loc 1 267 0 discriminator 3
 289 012c 0337     		adds	r7, r7, #3
 290              	.LVL40:
 257:..\..\..\arduinoLCD\test\Pain Drain\libraries\lvgl\src\draw\sw/lv_draw_sw_img.c ****                 abuf[x] = src_tmp8[LV_IMG_PX_SIZE_ALPHA_BYTE - 1];
 291              		.loc 1 257 0 discriminator 3
 292 012e 0133     		adds	r3, r3, #1
 293              	.LVL41:
 294 0130 1BB2     		sxth	r3, r3
 295              	.LVL42:
 296 0132 00E0     		b	.L13
 297              	.LVL43:
 298              	.L19:
 299 0134 0023     		movs	r3, #0
 300              	.L13:
 301              	.LVL44:
 257:..\..\..\arduinoLCD\test\Pain Drain\libraries\lvgl\src\draw\sw/lv_draw_sw_img.c ****                 abuf[x] = src_tmp8[LV_IMG_PX_SIZE_ALPHA_BYTE - 1];
 302              		.loc 1 257 0 is_stmt 0 discriminator 1
 303 0136 8342     		cmp	r3, r0
 304 0138 F0DB     		blt	.L12
 268:..\..\..\arduinoLCD\test\Pain Drain\libraries\lvgl\src\draw\sw/lv_draw_sw_img.c **** 
 269:..\..\..\arduinoLCD\test\Pain Drain\libraries\lvgl\src\draw\sw/lv_draw_sw_img.c ****             }
 270:..\..\..\arduinoLCD\test\Pain Drain\libraries\lvgl\src\draw\sw/lv_draw_sw_img.c ****             cbuf += dest_w;
 305              		.loc 1 270 0 is_stmt 1 discriminator 2
 306 013a 4300     		lsls	r3, r0, #1
 307              	.LVL45:
 308 013c E418     		adds	r4, r4, r3
 309              	.LVL46:
 271:..\..\..\arduinoLCD\test\Pain Drain\libraries\lvgl\src\draw\sw/lv_draw_sw_img.c ****             abuf += dest_w;
 310              		.loc 1 271 0 discriminator 2
 311 013e 2D18     		adds	r5, r5, r0
 312              	.LVL47:
 272:..\..\..\arduinoLCD\test\Pain Drain\libraries\lvgl\src\draw\sw/lv_draw_sw_img.c ****             src_tmp8 += src_new_line_step_byte;
 313              		.loc 1 272 0 discriminator 2
 314 0140 6744     		add	r7, r7, ip
 315              	.LVL48:
 256:..\..\..\arduinoLCD\test\Pain Drain\libraries\lvgl\src\draw\sw/lv_draw_sw_img.c ****             for(x = 0; x < dest_w; x++) {
 316              		.loc 1 256 0 discriminator 2
 317 0142 4E46     		mov	r6, r9
 318 0144 0136     		adds	r6, r6, #1
 319 0146 33B2     		sxth	r3, r6
 320 0148 9946     		mov	r9, r3
 321              	.LVL49:
 322              	.L11:
 256:..\..\..\arduinoLCD\test\Pain Drain\libraries\lvgl\src\draw\sw/lv_draw_sw_img.c ****             for(x = 0; x < dest_w; x++) {
 323              		.loc 1 256 0 is_stmt 0 discriminator 1
 324 014a C145     		cmp	r9, r8
 325 014c F2DB     		blt	.L19
ARM GAS  C:\Users\haske\AppData\Local\Temp\ccpEN9oH.s 			page 14


 326 014e 55E0     		b	.L1
 327              	.LVL50:
 328              	.L10:
 329              	.LBE51:
 273:..\..\..\arduinoLCD\test\Pain Drain\libraries\lvgl\src\draw\sw/lv_draw_sw_img.c ****         }
 274:..\..\..\arduinoLCD\test\Pain Drain\libraries\lvgl\src\draw\sw/lv_draw_sw_img.c ****     }
 275:..\..\..\arduinoLCD\test\Pain Drain\libraries\lvgl\src\draw\sw/lv_draw_sw_img.c ****     else if(cf == LV_IMG_CF_RGB565A8) {
 330              		.loc 1 275 0 is_stmt 1
 331 0150 142B     		cmp	r3, #20
 332 0152 53D1     		bne	.L1
 333              	.LBB56:
 276:..\..\..\arduinoLCD\test\Pain Drain\libraries\lvgl\src\draw\sw/lv_draw_sw_img.c ****         src_tmp8 += (src_stride * dest_area->y1 * sizeof(lv_color_t)) + dest_area->x1 * sizeof(lv_c
 334              		.loc 1 276 0
 335 0154 0222     		movs	r2, #2
 336 0156 835E     		ldrsh	r3, [r0, r2]
 337 0158 5746     		mov	r7, r10
 338 015a 5F43     		muls	r7, r3
 339 015c 0200     		movs	r2, r0
 340 015e 0021     		movs	r1, #0
 341 0160 515E     		ldrsh	r1, [r2, r1]
 342              	.LVL51:
 343 0162 7F18     		adds	r7, r7, r1
 344 0164 7F00     		lsls	r7, r7, #1
 345 0166 029A     		ldr	r2, [sp, #8]
 346 0168 9446     		mov	ip, r2
 347 016a 6744     		add	r7, r7, ip
 348              	.LVL52:
 277:..\..\..\arduinoLCD\test\Pain Drain\libraries\lvgl\src\draw\sw/lv_draw_sw_img.c **** 
 278:..\..\..\arduinoLCD\test\Pain Drain\libraries\lvgl\src\draw\sw/lv_draw_sw_img.c ****         lv_coord_t src_stride_byte = src_stride * sizeof(lv_color_t);
 349              		.loc 1 278 0
 350 016c 5246     		mov	r2, r10
 351 016e 5200     		lsls	r2, r2, #1
 352 0170 12B2     		sxth	r2, r2
 353 0172 0192     		str	r2, [sp, #4]
 354              	.LVL53:
 355              	.LBB57:
 356              	.LBB58:
 357              		.loc 2 135 0
 358 0174 0200     		movs	r2, r0
 359 0176 0620     		movs	r0, #6
 360 0178 125E     		ldrsh	r2, [r2, r0]
 361              	.LVL54:
 362 017a D21A     		subs	r2, r2, r3
 363 017c 0132     		adds	r2, r2, #1
 364 017e 13B2     		sxth	r3, r2
 365 0180 9846     		mov	r8, r3
 366              	.LVL55:
 367              	.LBE58:
 368              	.LBE57:
 369              	.LBB59:
 370              	.LBB60:
 125:c:\projects\paindrain\arduinolcd\test\pain drain\libraries\lvgl\src\misc\lv_area.h **** }
 371              		.loc 2 125 0
 372 0182 4B46     		mov	r3, r9
 373 0184 0422     		movs	r2, #4
 374 0186 9B5E     		ldrsh	r3, [r3, r2]
 375 0188 5B1A     		subs	r3, r3, r1
ARM GAS  C:\Users\haske\AppData\Local\Temp\ccpEN9oH.s 			page 15


 376 018a 0133     		adds	r3, r3, #1
 377 018c 1BB2     		sxth	r3, r3
 378 018e 9B46     		mov	fp, r3
 379              	.LVL56:
 380              	.LBE60:
 381              	.LBE59:
 279:..\..\..\arduinoLCD\test\Pain Drain\libraries\lvgl\src\draw\sw/lv_draw_sw_img.c **** 
 280:..\..\..\arduinoLCD\test\Pain Drain\libraries\lvgl\src\draw\sw/lv_draw_sw_img.c ****         lv_coord_t dest_h = lv_area_get_height(dest_area);
 281:..\..\..\arduinoLCD\test\Pain Drain\libraries\lvgl\src\draw\sw/lv_draw_sw_img.c ****         lv_coord_t dest_w = lv_area_get_width(dest_area);
 282:..\..\..\arduinoLCD\test\Pain Drain\libraries\lvgl\src\draw\sw/lv_draw_sw_img.c ****         for(y = 0; y < dest_h; y++) {
 382              		.loc 1 282 0
 383 0190 0026     		movs	r6, #0
 384 0192 4B46     		mov	r3, r9
 385 0194 0593     		str	r3, [sp, #20]
 386 0196 A946     		mov	r9, r5
 387              	.LVL57:
 388 0198 0CE0     		b	.L14
 389              	.LVL58:
 390              	.L15:
 283:..\..\..\arduinoLCD\test\Pain Drain\libraries\lvgl\src\draw\sw/lv_draw_sw_img.c ****             lv_memcpy(cbuf, src_tmp8, dest_w * sizeof(lv_color_t));
 391              		.loc 1 283 0 discriminator 3
 392 019a 5B46     		mov	r3, fp
 393 019c 5D00     		lsls	r5, r3, #1
 394 019e 2A00     		movs	r2, r5
 395 01a0 3900     		movs	r1, r7
 396 01a2 2000     		movs	r0, r4
 397 01a4 FFF7FEFF 		bl	lv_memcpy
 398              	.LVL59:
 284:..\..\..\arduinoLCD\test\Pain Drain\libraries\lvgl\src\draw\sw/lv_draw_sw_img.c ****             cbuf += dest_w;
 399              		.loc 1 284 0 discriminator 3
 400 01a8 6419     		adds	r4, r4, r5
 401              	.LVL60:
 285:..\..\..\arduinoLCD\test\Pain Drain\libraries\lvgl\src\draw\sw/lv_draw_sw_img.c ****             src_tmp8 += src_stride_byte;
 402              		.loc 1 285 0 discriminator 3
 403 01aa 019B     		ldr	r3, [sp, #4]
 404 01ac 9C46     		mov	ip, r3
 405 01ae 6744     		add	r7, r7, ip
 406              	.LVL61:
 282:..\..\..\arduinoLCD\test\Pain Drain\libraries\lvgl\src\draw\sw/lv_draw_sw_img.c ****             lv_memcpy(cbuf, src_tmp8, dest_w * sizeof(lv_color_t));
 407              		.loc 1 282 0 discriminator 3
 408 01b0 0136     		adds	r6, r6, #1
 409              	.LVL62:
 410 01b2 36B2     		sxth	r6, r6
 411              	.LVL63:
 412              	.L14:
 282:..\..\..\arduinoLCD\test\Pain Drain\libraries\lvgl\src\draw\sw/lv_draw_sw_img.c ****             lv_memcpy(cbuf, src_tmp8, dest_w * sizeof(lv_color_t));
 413              		.loc 1 282 0 is_stmt 0 discriminator 1
 414 01b4 4645     		cmp	r6, r8
 415 01b6 F0DB     		blt	.L15
 416 01b8 4D46     		mov	r5, r9
 417 01ba 059B     		ldr	r3, [sp, #20]
 418 01bc 9946     		mov	r9, r3
 419              	.LVL64:
 286:..\..\..\arduinoLCD\test\Pain Drain\libraries\lvgl\src\draw\sw/lv_draw_sw_img.c ****         }
 287:..\..\..\arduinoLCD\test\Pain Drain\libraries\lvgl\src\draw\sw/lv_draw_sw_img.c **** 
 288:..\..\..\arduinoLCD\test\Pain Drain\libraries\lvgl\src\draw\sw/lv_draw_sw_img.c ****         src_tmp8 = (const uint8_t *)src_buf;
 289:..\..\..\arduinoLCD\test\Pain Drain\libraries\lvgl\src\draw\sw/lv_draw_sw_img.c ****         src_tmp8 += sizeof(lv_color_t) * src_w * src_h;
ARM GAS  C:\Users\haske\AppData\Local\Temp\ccpEN9oH.s 			page 16


 420              		.loc 1 289 0 is_stmt 1
 421 01be 049F     		ldr	r7, [sp, #16]
 422 01c0 039B     		ldr	r3, [sp, #12]
 423 01c2 5F43     		muls	r7, r3
 424 01c4 7A00     		lsls	r2, r7, #1
 425              	.LVL65:
 290:..\..\..\arduinoLCD\test\Pain Drain\libraries\lvgl\src\draw\sw/lv_draw_sw_img.c ****         src_tmp8 += src_stride * dest_area->y1 + dest_area->x1;
 426              		.loc 1 290 0
 427 01c6 4B46     		mov	r3, r9
 428 01c8 0221     		movs	r1, #2
 429 01ca 5B5E     		ldrsh	r3, [r3, r1]
 430 01cc 5146     		mov	r1, r10
 431 01ce 4B43     		muls	r3, r1
 432 01d0 4946     		mov	r1, r9
 433 01d2 0027     		movs	r7, #0
 434 01d4 CF5F     		ldrsh	r7, [r1, r7]
 435 01d6 FF18     		adds	r7, r7, r3
 436 01d8 D719     		adds	r7, r2, r7
 437 01da 029B     		ldr	r3, [sp, #8]
 438 01dc 9C46     		mov	ip, r3
 439 01de 6744     		add	r7, r7, ip
 440              	.LVL66:
 291:..\..\..\arduinoLCD\test\Pain Drain\libraries\lvgl\src\draw\sw/lv_draw_sw_img.c ****         for(y = 0; y < dest_h; y++) {
 441              		.loc 1 291 0
 442 01e0 0024     		movs	r4, #0
 443              	.LVL67:
 444 01e2 5E46     		mov	r6, fp
 445 01e4 08E0     		b	.L16
 446              	.LVL68:
 447              	.L17:
 292:..\..\..\arduinoLCD\test\Pain Drain\libraries\lvgl\src\draw\sw/lv_draw_sw_img.c ****             lv_memcpy(abuf, src_tmp8, dest_w);
 448              		.loc 1 292 0 discriminator 3
 449 01e6 3200     		movs	r2, r6
 450 01e8 3900     		movs	r1, r7
 451 01ea 2800     		movs	r0, r5
 452 01ec FFF7FEFF 		bl	lv_memcpy
 453              	.LVL69:
 293:..\..\..\arduinoLCD\test\Pain Drain\libraries\lvgl\src\draw\sw/lv_draw_sw_img.c ****             abuf += dest_w;
 454              		.loc 1 293 0 discriminator 3
 455 01f0 AD19     		adds	r5, r5, r6
 456              	.LVL70:
 294:..\..\..\arduinoLCD\test\Pain Drain\libraries\lvgl\src\draw\sw/lv_draw_sw_img.c ****             src_tmp8 += src_stride;
 457              		.loc 1 294 0 discriminator 3
 458 01f2 5744     		add	r7, r7, r10
 459              	.LVL71:
 291:..\..\..\arduinoLCD\test\Pain Drain\libraries\lvgl\src\draw\sw/lv_draw_sw_img.c ****             lv_memcpy(abuf, src_tmp8, dest_w);
 460              		.loc 1 291 0 discriminator 3
 461 01f4 0134     		adds	r4, r4, #1
 462              	.LVL72:
 463 01f6 24B2     		sxth	r4, r4
 464              	.LVL73:
 465              	.L16:
 291:..\..\..\arduinoLCD\test\Pain Drain\libraries\lvgl\src\draw\sw/lv_draw_sw_img.c ****             lv_memcpy(abuf, src_tmp8, dest_w);
 466              		.loc 1 291 0 is_stmt 0 discriminator 1
 467 01f8 4445     		cmp	r4, r8
 468 01fa F4DB     		blt	.L17
 469              	.LVL74:
ARM GAS  C:\Users\haske\AppData\Local\Temp\ccpEN9oH.s 			page 17


 470              	.L1:
 471              	.LBE56:
 295:..\..\..\arduinoLCD\test\Pain Drain\libraries\lvgl\src\draw\sw/lv_draw_sw_img.c ****         }
 296:..\..\..\arduinoLCD\test\Pain Drain\libraries\lvgl\src\draw\sw/lv_draw_sw_img.c ****     }
 297:..\..\..\arduinoLCD\test\Pain Drain\libraries\lvgl\src\draw\sw/lv_draw_sw_img.c **** }
 472              		.loc 1 297 0 is_stmt 1
 473 01fc 07B0     		add	sp, sp, #28
 474              		@ sp needed
 475 01fe 3CBC     		pop	{r2, r3, r4, r5}
 476 0200 9046     		mov	r8, r2
 477 0202 9946     		mov	r9, r3
 478 0204 A246     		mov	r10, r4
 479 0206 AB46     		mov	fp, r5
 480 0208 F0BD     		pop	{r4, r5, r6, r7, pc}
 481              		.cfi_endproc
 482              	.LFE160:
 483              		.size	convert_cb, .-convert_cb
 484              		.global	__aeabi_uidiv
 485 020a C046     		.section	.text.lv_draw_sw_img_decoded,"ax",%progbits
 486              		.align	2
 487              		.global	lv_draw_sw_img_decoded
 488              		.code	16
 489              		.thumb_func
 490              		.type	lv_draw_sw_img_decoded, %function
 491              	lv_draw_sw_img_decoded:
 492              	.LFB159:
  47:..\..\..\arduinoLCD\test\Pain Drain\libraries\lvgl\src\draw\sw/lv_draw_sw_img.c ****     /*Use the clip area as draw area*/
 493              		.loc 1 47 0
 494              		.cfi_startproc
 495              		@ args = 4, pretend = 0, frame = 120
 496              		@ frame_needed = 0, uses_anonymous_args = 0
 497              	.LVL75:
 498 0000 F0B5     		push	{r4, r5, r6, r7, lr}
 499              		.cfi_def_cfa_offset 20
 500              		.cfi_offset 4, -20
 501              		.cfi_offset 5, -16
 502              		.cfi_offset 6, -12
 503              		.cfi_offset 7, -8
 504              		.cfi_offset 14, -4
 505 0002 5F46     		mov	r7, fp
 506 0004 5646     		mov	r6, r10
 507 0006 4D46     		mov	r5, r9
 508 0008 4446     		mov	r4, r8
 509 000a F0B4     		push	{r4, r5, r6, r7}
 510              		.cfi_def_cfa_offset 36
 511              		.cfi_offset 8, -36
 512              		.cfi_offset 9, -32
 513              		.cfi_offset 10, -28
 514              		.cfi_offset 11, -24
 515 000c A5B0     		sub	sp, sp, #148
 516              		.cfi_def_cfa_offset 184
 517 000e 0B90     		str	r0, [sp, #44]
 518 0010 0C00     		movs	r4, r1
 519 0012 0A91     		str	r1, [sp, #40]
 520 0014 1092     		str	r2, [sp, #64]
 521 0016 1193     		str	r3, [sp, #68]
 522 0018 2EAB     		add	r3, sp, #184
ARM GAS  C:\Users\haske\AppData\Local\Temp\ccpEN9oH.s 			page 18


 523              	.LVL76:
 524 001a 1B78     		ldrb	r3, [r3]
 525              	.LVL77:
 526 001c 0E93     		str	r3, [sp, #56]
  50:..\..\..\arduinoLCD\test\Pain Drain\libraries\lvgl\src\draw\sw/lv_draw_sw_img.c **** 
 527              		.loc 1 50 0
 528 001e 8368     		ldr	r3, [r0, #8]
 529              	.LVL78:
 530              	.LBB61:
 531              	.LBB62:
 112:c:\projects\paindrain\arduinolcd\test\pain drain\libraries\lvgl\src\misc\lv_area.h ****     dest->y1 = src->y1;
 532              		.loc 2 112 0
 533 0020 0020     		movs	r0, #0
 534 0022 1A5E     		ldrsh	r2, [r3, r0]
 535              	.LVL79:
 536 0024 22A8     		add	r0, sp, #136
 537              	.LVL80:
 538 0026 0280     		strh	r2, [r0]
 113:c:\projects\paindrain\arduinolcd\test\pain drain\libraries\lvgl\src\misc\lv_area.h ****     dest->x2 = src->x2;
 539              		.loc 2 113 0
 540 0028 0225     		movs	r5, #2
 541 002a 5A5F     		ldrsh	r2, [r3, r5]
 542 002c 4280     		strh	r2, [r0, #2]
 114:c:\projects\paindrain\arduinolcd\test\pain drain\libraries\lvgl\src\misc\lv_area.h ****     dest->y2 = src->y2;
 543              		.loc 2 114 0
 544 002e 0425     		movs	r5, #4
 545 0030 5A5F     		ldrsh	r2, [r3, r5]
 546 0032 8280     		strh	r2, [r0, #4]
 115:c:\projects\paindrain\arduinolcd\test\pain drain\libraries\lvgl\src\misc\lv_area.h **** }
 547              		.loc 2 115 0
 548 0034 0622     		movs	r2, #6
 549 0036 9B5E     		ldrsh	r3, [r3, r2]
 550              	.LVL81:
 551 0038 C380     		strh	r3, [r0, #6]
 552              	.LVL82:
 553              	.LBE62:
 554              	.LBE61:
  52:..\..\..\arduinoLCD\test\Pain Drain\libraries\lvgl\src\draw\sw/lv_draw_sw_img.c ****     bool transform = draw_dsc->angle != 0 || draw_dsc->zoom != LV_IMG_ZOOM_NONE ? true : false;
 555              		.loc 1 52 0
 556 003a FFF7FEFF 		bl	lv_draw_mask_is_any
 557              	.LVL83:
 558 003e 0700     		movs	r7, r0
 559 0040 0D90     		str	r0, [sp, #52]
 560              	.LVL84:
  53:..\..\..\arduinoLCD\test\Pain Drain\libraries\lvgl\src\draw\sw/lv_draw_sw_img.c **** 
 561              		.loc 1 53 0
 562 0042 2368     		ldr	r3, [r4]
 563 0044 1E00     		movs	r6, r3
 564 0046 0F93     		str	r3, [sp, #60]
 565              	.LVL85:
  58:..\..\..\arduinoLCD\test\Pain Drain\libraries\lvgl\src\draw\sw/lv_draw_sw_img.c ****     blend_dsc.opa = draw_dsc->opa;
 566              		.loc 1 58 0
 567 0048 19AD     		add	r5, sp, #100
 568 004a 1C21     		movs	r1, #28
 569 004c 2800     		movs	r0, r5
 570              	.LVL86:
 571 004e FFF7FEFF 		bl	lv_memset_00
ARM GAS  C:\Users\haske\AppData\Local\Temp\ccpEN9oH.s 			page 19


 572              	.LVL87:
  59:..\..\..\arduinoLCD\test\Pain Drain\libraries\lvgl\src\draw\sw/lv_draw_sw_img.c ****     blend_dsc.blend_mode = draw_dsc->blend_mode;
 573              		.loc 1 59 0
 574 0052 E37A     		ldrb	r3, [r4, #11]
 575 0054 2B76     		strb	r3, [r5, #24]
  60:..\..\..\arduinoLCD\test\Pain Drain\libraries\lvgl\src\draw\sw/lv_draw_sw_img.c ****     blend_dsc.blend_area = &blend_area;
 576              		.loc 1 60 0
 577 0056 237B     		ldrb	r3, [r4, #12]
 578 0058 1B07     		lsls	r3, r3, #28
 579 005a 1B0F     		lsrs	r3, r3, #28
 580 005c 6B76     		strb	r3, [r5, #25]
  61:..\..\..\arduinoLCD\test\Pain Drain\libraries\lvgl\src\draw\sw/lv_draw_sw_img.c **** 
 581              		.loc 1 61 0
 582 005e 20AB     		add	r3, sp, #128
 583 0060 1993     		str	r3, [sp, #100]
  64:..\..\..\arduinoLCD\test\Pain Drain\libraries\lvgl\src\draw\sw/lv_draw_sw_img.c ****         blend_dsc.src_buf = (const lv_color_t *)src_buf;
 584              		.loc 1 64 0
 585 0062 002F     		cmp	r7, #0
 586 0064 13D1     		bne	.L21
  64:..\..\..\arduinoLCD\test\Pain Drain\libraries\lvgl\src\draw\sw/lv_draw_sw_img.c ****         blend_dsc.src_buf = (const lv_color_t *)src_buf;
 587              		.loc 1 64 0 is_stmt 0 discriminator 1
 588 0066 8023     		movs	r3, #128
 589 0068 5B04     		lsls	r3, r3, #17
 590 006a 9E42     		cmp	r6, r3
 591 006c 0FD1     		bne	.L21
  64:..\..\..\arduinoLCD\test\Pain Drain\libraries\lvgl\src\draw\sw/lv_draw_sw_img.c ****         blend_dsc.src_buf = (const lv_color_t *)src_buf;
 592              		.loc 1 64 0 discriminator 2
 593 006e 0E9B     		ldr	r3, [sp, #56]
 594 0070 042B     		cmp	r3, #4
 595 0072 0CD1     		bne	.L21
  64:..\..\..\arduinoLCD\test\Pain Drain\libraries\lvgl\src\draw\sw/lv_draw_sw_img.c ****         blend_dsc.src_buf = (const lv_color_t *)src_buf;
 596              		.loc 1 64 0 discriminator 3
 597 0074 0A9B     		ldr	r3, [sp, #40]
 598 0076 9B7A     		ldrb	r3, [r3, #10]
 599 0078 002B     		cmp	r3, #0
 600 007a 08D1     		bne	.L21
  65:..\..\..\arduinoLCD\test\Pain Drain\libraries\lvgl\src\draw\sw/lv_draw_sw_img.c **** 
 601              		.loc 1 65 0 is_stmt 1
 602 007c 119B     		ldr	r3, [sp, #68]
 603 007e 1A93     		str	r3, [sp, #104]
  67:..\..\..\arduinoLCD\test\Pain Drain\libraries\lvgl\src\draw\sw/lv_draw_sw_img.c ****         lv_draw_sw_blend(draw_ctx, &blend_dsc);
 604              		.loc 1 67 0
 605 0080 109B     		ldr	r3, [sp, #64]
 606 0082 1993     		str	r3, [sp, #100]
  68:..\..\..\arduinoLCD\test\Pain Drain\libraries\lvgl\src\draw\sw/lv_draw_sw_img.c ****     }
 607              		.loc 1 68 0
 608 0084 19A9     		add	r1, sp, #100
 609 0086 0B98     		ldr	r0, [sp, #44]
 610 0088 FFF7FEFF 		bl	lv_draw_sw_blend
 611              	.LVL88:
 612 008c 9FE1     		b	.L20
 613              	.L21:
  70:..\..\..\arduinoLCD\test\Pain Drain\libraries\lvgl\src\draw\sw/lv_draw_sw_img.c ****         lv_area_t clipped_coords;
 614              		.loc 1 70 0
 615 008e 0D9B     		ldr	r3, [sp, #52]
 616 0090 002B     		cmp	r3, #0
 617 0092 23D1     		bne	.L23
ARM GAS  C:\Users\haske\AppData\Local\Temp\ccpEN9oH.s 			page 20


  70:..\..\..\arduinoLCD\test\Pain Drain\libraries\lvgl\src\draw\sw/lv_draw_sw_img.c ****         lv_area_t clipped_coords;
 618              		.loc 1 70 0 is_stmt 0 discriminator 1
 619 0094 8023     		movs	r3, #128
 620 0096 5B04     		lsls	r3, r3, #17
 621 0098 0F9A     		ldr	r2, [sp, #60]
 622 009a 9A42     		cmp	r2, r3
 623 009c 1ED1     		bne	.L23
  70:..\..\..\arduinoLCD\test\Pain Drain\libraries\lvgl\src\draw\sw/lv_draw_sw_img.c ****         lv_area_t clipped_coords;
 624              		.loc 1 70 0 discriminator 2
 625 009e 0E9B     		ldr	r3, [sp, #56]
 626 00a0 0E2B     		cmp	r3, #14
 627 00a2 1BD1     		bne	.L23
 628              	.LBB63:
  72:..\..\..\arduinoLCD\test\Pain Drain\libraries\lvgl\src\draw\sw/lv_draw_sw_img.c **** 
 629              		.loc 1 72 0 is_stmt 1
 630 00a4 0B9B     		ldr	r3, [sp, #44]
 631 00a6 9B68     		ldr	r3, [r3, #8]
 632 00a8 0693     		str	r3, [sp, #24]
 633 00aa 1A00     		movs	r2, r3
 634 00ac 1099     		ldr	r1, [sp, #64]
 635 00ae 17A8     		add	r0, sp, #92
 636 00b0 FFF7FEFF 		bl	_lv_area_intersect
 637              	.LVL89:
 638 00b4 0028     		cmp	r0, #0
 639 00b6 00D1     		bne	.LCB698
 640 00b8 89E1     		b	.L20	@long jump
 641              	.LCB698:
  74:..\..\..\arduinoLCD\test\Pain Drain\libraries\lvgl\src\draw\sw/lv_draw_sw_img.c ****         blend_dsc.mask_area = coords;
 642              		.loc 1 74 0
 643 00ba 19A9     		add	r1, sp, #100
 644 00bc 119B     		ldr	r3, [sp, #68]
 645 00be CB60     		str	r3, [r1, #12]
  75:..\..\..\arduinoLCD\test\Pain Drain\libraries\lvgl\src\draw\sw/lv_draw_sw_img.c ****         blend_dsc.src_buf = NULL;
 646              		.loc 1 75 0
 647 00c0 109A     		ldr	r2, [sp, #64]
 648 00c2 4A61     		str	r2, [r1, #20]
  76:..\..\..\arduinoLCD\test\Pain Drain\libraries\lvgl\src\draw\sw/lv_draw_sw_img.c ****         blend_dsc.color = draw_dsc->recolor;
 649              		.loc 1 76 0
 650 00c4 0023     		movs	r3, #0
 651 00c6 4B60     		str	r3, [r1, #4]
  77:..\..\..\arduinoLCD\test\Pain Drain\libraries\lvgl\src\draw\sw/lv_draw_sw_img.c ****         blend_dsc.mask_res = LV_DRAW_MASK_RES_CHANGED;
 652              		.loc 1 77 0
 653 00c8 0A9B     		ldr	r3, [sp, #40]
 654 00ca 1B89     		ldrh	r3, [r3, #8]
 655 00cc 0B81     		strh	r3, [r1, #8]
  78:..\..\..\arduinoLCD\test\Pain Drain\libraries\lvgl\src\draw\sw/lv_draw_sw_img.c **** 
 656              		.loc 1 78 0
 657 00ce 0223     		movs	r3, #2
 658 00d0 0B74     		strb	r3, [r1, #16]
  80:..\..\..\arduinoLCD\test\Pain Drain\libraries\lvgl\src\draw\sw/lv_draw_sw_img.c ****         lv_draw_sw_blend(draw_ctx, &blend_dsc);
 659              		.loc 1 80 0
 660 00d2 1992     		str	r2, [sp, #100]
  81:..\..\..\arduinoLCD\test\Pain Drain\libraries\lvgl\src\draw\sw/lv_draw_sw_img.c ****     }
 661              		.loc 1 81 0
 662 00d4 0B98     		ldr	r0, [sp, #44]
 663 00d6 FFF7FEFF 		bl	lv_draw_sw_blend
 664              	.LVL90:
ARM GAS  C:\Users\haske\AppData\Local\Temp\ccpEN9oH.s 			page 21


 665              	.LBE63:
  70:..\..\..\arduinoLCD\test\Pain Drain\libraries\lvgl\src\draw\sw/lv_draw_sw_img.c ****         lv_area_t clipped_coords;
 666              		.loc 1 70 0
 667 00da 78E1     		b	.L20
 668              	.L23:
  84:..\..\..\arduinoLCD\test\Pain Drain\libraries\lvgl\src\draw\sw/lv_draw_sw_img.c ****         lv_coord_t src_w = lv_area_get_width(coords);
 669              		.loc 1 84 0
 670 00dc 0D9B     		ldr	r3, [sp, #52]
 671 00de 002B     		cmp	r3, #0
 672 00e0 2AD1     		bne	.L26
  84:..\..\..\arduinoLCD\test\Pain Drain\libraries\lvgl\src\draw\sw/lv_draw_sw_img.c ****         lv_coord_t src_w = lv_area_get_width(coords);
 673              		.loc 1 84 0 is_stmt 0 discriminator 1
 674 00e2 8023     		movs	r3, #128
 675 00e4 5B04     		lsls	r3, r3, #17
 676 00e6 0F9A     		ldr	r2, [sp, #60]
 677 00e8 9A42     		cmp	r2, r3
 678 00ea 25D1     		bne	.L26
  84:..\..\..\arduinoLCD\test\Pain Drain\libraries\lvgl\src\draw\sw/lv_draw_sw_img.c ****         lv_coord_t src_w = lv_area_get_width(coords);
 679              		.loc 1 84 0 discriminator 2
 680 00ec 0E9B     		ldr	r3, [sp, #56]
 681 00ee 142B     		cmp	r3, #20
 682 00f0 22D1     		bne	.L26
  84:..\..\..\arduinoLCD\test\Pain Drain\libraries\lvgl\src\draw\sw/lv_draw_sw_img.c ****         lv_coord_t src_w = lv_area_get_width(coords);
 683              		.loc 1 84 0 discriminator 3
 684 00f2 0A9B     		ldr	r3, [sp, #40]
 685 00f4 9B7A     		ldrb	r3, [r3, #10]
 686 00f6 002B     		cmp	r3, #0
 687 00f8 1ED1     		bne	.L26
 688              	.LVL91:
 689              	.LBB64:
 690              	.LBB65:
 691              	.LBB66:
 125:c:\projects\paindrain\arduinolcd\test\pain drain\libraries\lvgl\src\misc\lv_area.h **** }
 692              		.loc 2 125 0 is_stmt 1
 693 00fa 109C     		ldr	r4, [sp, #64]
 694              	.LVL92:
 695 00fc 0421     		movs	r1, #4
 696 00fe 635E     		ldrsh	r3, [r4, r1]
 697 0100 0021     		movs	r1, #0
 698 0102 605E     		ldrsh	r0, [r4, r1]
 699 0104 1B1A     		subs	r3, r3, r0
 700 0106 0133     		adds	r3, r3, #1
 701 0108 18B2     		sxth	r0, r3
 702              	.LVL93:
 703              	.LBE66:
 704              	.LBE65:
 705              	.LBB67:
 706              	.LBB68:
 707              		.loc 2 135 0
 708 010a 0621     		movs	r1, #6
 709 010c 625E     		ldrsh	r2, [r4, r1]
 710 010e 0221     		movs	r1, #2
 711 0110 635E     		ldrsh	r3, [r4, r1]
 712 0112 D31A     		subs	r3, r2, r3
 713 0114 0133     		adds	r3, r3, #1
 714 0116 1BB2     		sxth	r3, r3
 715              	.LVL94:
ARM GAS  C:\Users\haske\AppData\Local\Temp\ccpEN9oH.s 			page 22


 716              	.LBE68:
 717              	.LBE67:
  87:..\..\..\arduinoLCD\test\Pain Drain\libraries\lvgl\src\draw\sw/lv_draw_sw_img.c ****         blend_dsc.mask_buf = (lv_opa_t *)src_buf;
 718              		.loc 1 87 0
 719 0118 19A9     		add	r1, sp, #100
 720 011a 119A     		ldr	r2, [sp, #68]
 721 011c 4A60     		str	r2, [r1, #4]
  89:..\..\..\arduinoLCD\test\Pain Drain\libraries\lvgl\src\draw\sw/lv_draw_sw_img.c ****         blend_dsc.blend_area = coords;
 722              		.loc 1 89 0
 723 011e 4343     		muls	r3, r0
 724 0120 5B00     		lsls	r3, r3, #1
 725 0122 9446     		mov	ip, r2
 726 0124 6344     		add	r3, r3, ip
 727 0126 CB60     		str	r3, [r1, #12]
  90:..\..\..\arduinoLCD\test\Pain Drain\libraries\lvgl\src\draw\sw/lv_draw_sw_img.c ****         blend_dsc.mask_area = coords;
 728              		.loc 1 90 0
 729 0128 1994     		str	r4, [sp, #100]
  91:..\..\..\arduinoLCD\test\Pain Drain\libraries\lvgl\src\draw\sw/lv_draw_sw_img.c ****         blend_dsc.mask_res = LV_DRAW_MASK_RES_CHANGED;
 730              		.loc 1 91 0
 731 012a 4C61     		str	r4, [r1, #20]
  92:..\..\..\arduinoLCD\test\Pain Drain\libraries\lvgl\src\draw\sw/lv_draw_sw_img.c ****         lv_draw_sw_blend(draw_ctx, &blend_dsc);
 732              		.loc 1 92 0
 733 012c 0223     		movs	r3, #2
 734 012e 0B74     		strb	r3, [r1, #16]
  93:..\..\..\arduinoLCD\test\Pain Drain\libraries\lvgl\src\draw\sw/lv_draw_sw_img.c ****     }
 735              		.loc 1 93 0
 736 0130 0B98     		ldr	r0, [sp, #44]
 737 0132 FFF7FEFF 		bl	lv_draw_sw_blend
 738              	.LVL95:
 739              	.LBE64:
  84:..\..\..\arduinoLCD\test\Pain Drain\libraries\lvgl\src\draw\sw/lv_draw_sw_img.c ****         lv_coord_t src_w = lv_area_get_width(coords);
 740              		.loc 1 84 0
 741 0136 4AE1     		b	.L20
 742              	.LVL96:
 743              	.L26:
 744              	.LBB69:
  98:..\..\..\arduinoLCD\test\Pain Drain\libraries\lvgl\src\draw\sw/lv_draw_sw_img.c ****         blend_area.x2 = draw_ctx->clip_area->x2;
 745              		.loc 1 98 0
 746 0138 0B9B     		ldr	r3, [sp, #44]
 747 013a 9A68     		ldr	r2, [r3, #8]
 748 013c 0023     		movs	r3, #0
 749 013e D05E     		ldrsh	r0, [r2, r3]
 750 0140 20AD     		add	r5, sp, #128
 751 0142 2880     		strh	r0, [r5]
  99:..\..\..\arduinoLCD\test\Pain Drain\libraries\lvgl\src\draw\sw/lv_draw_sw_img.c ****         blend_area.y1 = draw_ctx->clip_area->y1;
 752              		.loc 1 99 0
 753 0144 0421     		movs	r1, #4
 754 0146 535E     		ldrsh	r3, [r2, r1]
 755 0148 AB80     		strh	r3, [r5, #4]
 100:..\..\..\arduinoLCD\test\Pain Drain\libraries\lvgl\src\draw\sw/lv_draw_sw_img.c ****         blend_area.y2 = draw_ctx->clip_area->y2;
 756              		.loc 1 100 0
 757 014a 0221     		movs	r1, #2
 758 014c 565E     		ldrsh	r6, [r2, r1]
 759              	.LVL97:
 760 014e 6E80     		strh	r6, [r5, #2]
 101:..\..\..\arduinoLCD\test\Pain Drain\libraries\lvgl\src\draw\sw/lv_draw_sw_img.c **** 
 761              		.loc 1 101 0
ARM GAS  C:\Users\haske\AppData\Local\Temp\ccpEN9oH.s 			page 23


 762 0150 0621     		movs	r1, #6
 763 0152 525E     		ldrsh	r2, [r2, r1]
 764 0154 EA80     		strh	r2, [r5, #6]
 765              	.LVL98:
 766              	.LBB70:
 767              	.LBB71:
 125:c:\projects\paindrain\arduinolcd\test\pain drain\libraries\lvgl\src\misc\lv_area.h **** }
 768              		.loc 2 125 0
 769 0156 109C     		ldr	r4, [sp, #64]
 770              	.LVL99:
 771 0158 0427     		movs	r7, #4
 772 015a E15F     		ldrsh	r1, [r4, r7]
 773              	.LVL100:
 774 015c 8C46     		mov	ip, r1
 775 015e 0021     		movs	r1, #0
 776 0160 675E     		ldrsh	r7, [r4, r1]
 777 0162 6146     		mov	r1, ip
 778 0164 C91B     		subs	r1, r1, r7
 779 0166 0131     		adds	r1, r1, #1
 780 0168 09B2     		sxth	r1, r1
 781 016a 1491     		str	r1, [sp, #80]
 782              	.LVL101:
 783              	.LBE71:
 784              	.LBE70:
 785              	.LBB72:
 786              	.LBB73:
 787              		.loc 2 135 0
 788 016c 0627     		movs	r7, #6
 789 016e E15F     		ldrsh	r1, [r4, r7]
 790 0170 0227     		movs	r7, #2
 791 0172 E75F     		ldrsh	r7, [r4, r7]
 792 0174 C91B     		subs	r1, r1, r7
 793 0176 0131     		adds	r1, r1, #1
 794 0178 09B2     		sxth	r1, r1
 795 017a 1391     		str	r1, [sp, #76]
 796              	.LVL102:
 797              	.LBE73:
 798              	.LBE72:
 799              	.LBB74:
 800              	.LBB75:
 801 017c 921B     		subs	r2, r2, r6
 802 017e 0132     		adds	r2, r2, #1
 803 0180 17B2     		sxth	r7, r2
 804              	.LVL103:
 805              	.LBE75:
 806              	.LBE74:
 807              	.LBB76:
 808              	.LBB77:
 125:c:\projects\paindrain\arduinolcd\test\pain drain\libraries\lvgl\src\misc\lv_area.h **** }
 809              		.loc 2 125 0
 810 0182 1B1A     		subs	r3, r3, r0
 811 0184 0133     		adds	r3, r3, #1
 812 0186 1BB2     		sxth	r3, r3
 813 0188 0893     		str	r3, [sp, #32]
 814              	.LVL104:
 815              	.LBE77:
 816              	.LBE76:
ARM GAS  C:\Users\haske\AppData\Local\Temp\ccpEN9oH.s 			page 24


 108:..\..\..\arduinoLCD\test\Pain Drain\libraries\lvgl\src\draw\sw/lv_draw_sw_img.c ****         uint32_t blend_size = lv_area_get_size(&blend_area);
 817              		.loc 1 108 0
 818 018a FFF7FEFF 		bl	_lv_refr_get_disp_refreshing
 819              	.LVL105:
 820 018e FFF7FEFF 		bl	lv_disp_get_hor_res
 821              	.LVL106:
 822 0192 0400     		movs	r4, r0
 823              	.LVL107:
 109:..\..\..\arduinoLCD\test\Pain Drain\libraries\lvgl\src\draw\sw/lv_draw_sw_img.c ****         uint32_t buf_h;
 824              		.loc 1 109 0
 825 0194 2800     		movs	r0, r5
 826              	.LVL108:
 827 0196 FFF7FEFF 		bl	lv_area_get_size
 828              	.LVL109:
 111:..\..\..\arduinoLCD\test\Pain Drain\libraries\lvgl\src\draw\sw/lv_draw_sw_img.c ****         if(blend_size <= max_buf_size) {
 829              		.loc 1 111 0
 830 019a 089B     		ldr	r3, [sp, #32]
 831 019c 1593     		str	r3, [sp, #84]
 832              	.LVL110:
 112:..\..\..\arduinoLCD\test\Pain Drain\libraries\lvgl\src\draw\sw/lv_draw_sw_img.c ****             buf_h = blend_h;
 833              		.loc 1 112 0
 834 019e 8442     		cmp	r4, r0
 835 01a0 01D3     		bcc	.L27
 113:..\..\..\arduinoLCD\test\Pain Drain\libraries\lvgl\src\draw\sw/lv_draw_sw_img.c ****         }
 836              		.loc 1 113 0
 837 01a2 3B00     		movs	r3, r7
 838              	.LVL111:
 839 01a4 04E0     		b	.L28
 840              	.LVL112:
 841              	.L27:
 117:..\..\..\arduinoLCD\test\Pain Drain\libraries\lvgl\src\draw\sw/lv_draw_sw_img.c ****         }
 842              		.loc 1 117 0
 843 01a6 0899     		ldr	r1, [sp, #32]
 844 01a8 2000     		movs	r0, r4
 845              	.LVL113:
 846 01aa FFF7FEFF 		bl	__aeabi_uidiv
 847              	.LVL114:
 848 01ae 0300     		movs	r3, r0
 849              	.LVL115:
 850              	.L28:
 121:..\..\..\arduinoLCD\test\Pain Drain\libraries\lvgl\src\draw\sw/lv_draw_sw_img.c **** 
 851              		.loc 1 121 0
 852 01b0 089F     		ldr	r7, [sp, #32]
 853 01b2 1C00     		movs	r4, r3
 854              	.LVL116:
 855 01b4 5F43     		muls	r7, r3
 856              	.LVL117:
 123:..\..\..\arduinoLCD\test\Pain Drain\libraries\lvgl\src\draw\sw/lv_draw_sw_img.c ****         lv_opa_t * mask_buf = lv_mem_buf_get(buf_size);
 857              		.loc 1 123 0
 858 01b6 7800     		lsls	r0, r7, #1
 859 01b8 FFF7FEFF 		bl	lv_mem_buf_get
 860              	.LVL118:
 861 01bc 0600     		movs	r6, r0
 862              	.LVL119:
 124:..\..\..\arduinoLCD\test\Pain Drain\libraries\lvgl\src\draw\sw/lv_draw_sw_img.c ****         blend_dsc.mask_buf = mask_buf;
 863              		.loc 1 124 0
 864 01be 3800     		movs	r0, r7
ARM GAS  C:\Users\haske\AppData\Local\Temp\ccpEN9oH.s 			page 25


 865              	.LVL120:
 866 01c0 FFF7FEFF 		bl	lv_mem_buf_get
 867              	.LVL121:
 868 01c4 0C90     		str	r0, [sp, #48]
 869              	.LVL122:
 125:..\..\..\arduinoLCD\test\Pain Drain\libraries\lvgl\src\draw\sw/lv_draw_sw_img.c ****         blend_dsc.mask_area = &blend_area;
 870              		.loc 1 125 0
 871 01c6 1C90     		str	r0, [sp, #112]
 126:..\..\..\arduinoLCD\test\Pain Drain\libraries\lvgl\src\draw\sw/lv_draw_sw_img.c ****         blend_dsc.mask_res = LV_DRAW_MASK_RES_CHANGED;
 872              		.loc 1 126 0
 873 01c8 20AA     		add	r2, sp, #128
 874 01ca 1E92     		str	r2, [sp, #120]
 128:..\..\..\arduinoLCD\test\Pain Drain\libraries\lvgl\src\draw\sw/lv_draw_sw_img.c ****         lv_coord_t y_last = blend_area.y2;
 875              		.loc 1 128 0
 876 01cc 1A96     		str	r6, [sp, #104]
 129:..\..\..\arduinoLCD\test\Pain Drain\libraries\lvgl\src\draw\sw/lv_draw_sw_img.c ****         blend_area.y2 = blend_area.y1 + buf_h - 1;
 877              		.loc 1 129 0
 878 01ce 0621     		movs	r1, #6
 879 01d0 535E     		ldrsh	r3, [r2, r1]
 880 01d2 0993     		str	r3, [sp, #36]
 881              	.LVL123:
 130:..\..\..\arduinoLCD\test\Pain Drain\libraries\lvgl\src\draw\sw/lv_draw_sw_img.c **** 
 882              		.loc 1 130 0
 883 01d4 0221     		movs	r1, #2
 884 01d6 535E     		ldrsh	r3, [r2, r1]
 885 01d8 A1B2     		uxth	r1, r4
 886 01da 1291     		str	r1, [sp, #72]
 887 01dc 8C46     		mov	ip, r1
 888 01de 6344     		add	r3, r3, ip
 889 01e0 013B     		subs	r3, r3, #1
 890 01e2 D380     		strh	r3, [r2, #6]
 132:..\..\..\arduinoLCD\test\Pain Drain\libraries\lvgl\src\draw\sw/lv_draw_sw_img.c ****                                            draw_dsc->zoom != LV_IMG_ZOOM_NONE) ?
 891              		.loc 1 132 0
 892 01e4 0E9B     		ldr	r3, [sp, #56]
 893 01e6 042B     		cmp	r3, #4
 894 01e8 08D1     		bne	.L43
 132:..\..\..\arduinoLCD\test\Pain Drain\libraries\lvgl\src\draw\sw/lv_draw_sw_img.c ****                                            draw_dsc->zoom != LV_IMG_ZOOM_NONE) ?
 895              		.loc 1 132 0 is_stmt 0 discriminator 2
 896 01ea 8023     		movs	r3, #128
 897 01ec 5B04     		lsls	r3, r3, #17
 898 01ee 0A9A     		ldr	r2, [sp, #40]
 899 01f0 1268     		ldr	r2, [r2]
 900 01f2 0692     		str	r2, [sp, #24]
 901 01f4 9A42     		cmp	r2, r3
 902 01f6 03D0     		beq	.L44
 132:..\..\..\arduinoLCD\test\Pain Drain\libraries\lvgl\src\draw\sw/lv_draw_sw_img.c ****                                            draw_dsc->zoom != LV_IMG_ZOOM_NONE) ?
 903              		.loc 1 132 0
 904 01f8 0222     		movs	r2, #2
 905 01fa 02E0     		b	.L29
 906              	.L43:
 907 01fc 0222     		movs	r2, #2
 908 01fe 00E0     		b	.L29
 909              	.L44:
 910 0200 0122     		movs	r2, #1
 911              	.L29:
 912              	.LVL124:
 135:..\..\..\arduinoLCD\test\Pain Drain\libraries\lvgl\src\draw\sw/lv_draw_sw_img.c **** 
ARM GAS  C:\Users\haske\AppData\Local\Temp\ccpEN9oH.s 			page 26


 913              		.loc 1 135 0 is_stmt 1 discriminator 6
 914 0202 19AB     		add	r3, sp, #100
 915 0204 1A74     		strb	r2, [r3, #16]
 137:..\..\..\arduinoLCD\test\Pain Drain\libraries\lvgl\src\draw\sw/lv_draw_sw_img.c ****             /*Apply transformations if any or separate the channels*/
 916              		.loc 1 137 0 discriminator 6
 917 0206 D5E0     		b	.L30
 918              	.LVL125:
 919              	.L42:
 920              	.LBB78:
 921              	.LBB79:
 922              	.LBB80:
 112:c:\projects\paindrain\arduinolcd\test\pain drain\libraries\lvgl\src\misc\lv_area.h ****     dest->y1 = src->y1;
 923              		.loc 2 112 0
 924 0208 20AB     		add	r3, sp, #128
 925              	.LVL126:
 926 020a 0020     		movs	r0, #0
 927 020c 195E     		ldrsh	r1, [r3, r0]
 928 020e 17A8     		add	r0, sp, #92
 929              	.LVL127:
 930 0210 0180     		strh	r1, [r0]
 113:c:\projects\paindrain\arduinolcd\test\pain drain\libraries\lvgl\src\misc\lv_area.h ****     dest->x2 = src->x2;
 931              		.loc 2 113 0
 932 0212 4280     		strh	r2, [r0, #2]
 114:c:\projects\paindrain\arduinolcd\test\pain drain\libraries\lvgl\src\misc\lv_area.h ****     dest->y2 = src->y2;
 933              		.loc 2 114 0
 934 0214 0421     		movs	r1, #4
 935 0216 5A5E     		ldrsh	r2, [r3, r1]
 936 0218 8280     		strh	r2, [r0, #4]
 115:c:\projects\paindrain\arduinolcd\test\pain drain\libraries\lvgl\src\misc\lv_area.h **** }
 937              		.loc 2 115 0
 938 021a 0622     		movs	r2, #6
 939 021c 9B5E     		ldrsh	r3, [r3, r2]
 940              	.LVL128:
 941 021e C380     		strh	r3, [r0, #6]
 942              	.LVL129:
 943              	.LBE80:
 944              	.LBE79:
 141:..\..\..\arduinoLCD\test\Pain Drain\libraries\lvgl\src\draw\sw/lv_draw_sw_img.c ****             if(transform) {
 945              		.loc 1 141 0
 946 0220 109B     		ldr	r3, [sp, #64]
 947 0222 0022     		movs	r2, #0
 948 0224 995E     		ldrsh	r1, [r3, r2]
 949 0226 0222     		movs	r2, #2
 950 0228 9A5E     		ldrsh	r2, [r3, r2]
 951 022a 5242     		rsbs	r2, r2, #0
 952 022c 12B2     		sxth	r2, r2
 953 022e 4942     		rsbs	r1, r1, #0
 954 0230 09B2     		sxth	r1, r1
 955 0232 FFF7FEFF 		bl	lv_area_move
 956              	.LVL130:
 142:..\..\..\arduinoLCD\test\Pain Drain\libraries\lvgl\src\draw\sw/lv_draw_sw_img.c ****                 lv_draw_transform(draw_ctx, &transform_area, src_buf, src_w, src_h, src_w,
 957              		.loc 1 142 0
 958 0236 8023     		movs	r3, #128
 959 0238 5B04     		lsls	r3, r3, #17
 960 023a 0F9A     		ldr	r2, [sp, #60]
 961 023c 9A42     		cmp	r2, r3
 962 023e 10D0     		beq	.L31
ARM GAS  C:\Users\haske\AppData\Local\Temp\ccpEN9oH.s 			page 27


 143:..\..\..\arduinoLCD\test\Pain Drain\libraries\lvgl\src\draw\sw/lv_draw_sw_img.c ****                                   draw_dsc, cf, rgb_buf, mask_buf);
 963              		.loc 1 143 0
 964 0240 0C9B     		ldr	r3, [sp, #48]
 965 0242 0593     		str	r3, [sp, #20]
 966 0244 0496     		str	r6, [sp, #16]
 967 0246 0E9B     		ldr	r3, [sp, #56]
 968 0248 0393     		str	r3, [sp, #12]
 969 024a 0A9B     		ldr	r3, [sp, #40]
 970 024c 0293     		str	r3, [sp, #8]
 971 024e 149B     		ldr	r3, [sp, #80]
 972 0250 0193     		str	r3, [sp, #4]
 973 0252 139A     		ldr	r2, [sp, #76]
 974 0254 0092     		str	r2, [sp]
 975 0256 119A     		ldr	r2, [sp, #68]
 976 0258 17A9     		add	r1, sp, #92
 977 025a 0B98     		ldr	r0, [sp, #44]
 978 025c FFF7FEFF 		bl	lv_draw_transform
 979              	.LVL131:
 980 0260 0DE0     		b	.L32
 981              	.L31:
 147:..\..\..\arduinoLCD\test\Pain Drain\libraries\lvgl\src\draw\sw/lv_draw_sw_img.c ****             }
 982              		.loc 1 147 0
 983 0262 0C9B     		ldr	r3, [sp, #48]
 984 0264 0493     		str	r3, [sp, #16]
 985 0266 0396     		str	r6, [sp, #12]
 986 0268 0E9B     		ldr	r3, [sp, #56]
 987 026a 0293     		str	r3, [sp, #8]
 988 026c 0A9B     		ldr	r3, [sp, #40]
 989 026e 0193     		str	r3, [sp, #4]
 990 0270 149A     		ldr	r2, [sp, #80]
 991 0272 0092     		str	r2, [sp]
 992 0274 139B     		ldr	r3, [sp, #76]
 993 0276 1199     		ldr	r1, [sp, #68]
 994 0278 17A8     		add	r0, sp, #92
 995 027a FFF7FEFF 		bl	convert_cb
 996              	.LVL132:
 997              	.L32:
 151:..\..\..\arduinoLCD\test\Pain Drain\libraries\lvgl\src\draw\sw/lv_draw_sw_img.c ****                 uint16_t premult_v[3];
 998              		.loc 1 151 0
 999 027e 0A9A     		ldr	r2, [sp, #40]
 1000 0280 937A     		ldrb	r3, [r2, #10]
 1001 0282 022B     		cmp	r3, #2
 1002 0284 56D9     		bls	.L33
 1003              	.LVL133:
 1004              	.LBB81:
 154:..\..\..\arduinoLCD\test\Pain Drain\libraries\lvgl\src\draw\sw/lv_draw_sw_img.c ****                 lv_color_premult(recolor, recolor_opa, premult_v);
 1005              		.loc 1 154 0
 1006 0286 1289     		ldrh	r2, [r2, #8]
 1007              	.LVL134:
 1008              	.LBB82:
 1009              	.LBB83:
 1010              		.file 3 "c:\\projects\\paindrain\\arduinolcd\\test\\pain drain\\libraries\\lvgl\\src\\misc\\lv_col
   1:c:\projects\paindrain\arduinolcd\test\pain drain\libraries\lvgl\src\misc\lv_color.h **** /**
   2:c:\projects\paindrain\arduinolcd\test\pain drain\libraries\lvgl\src\misc\lv_color.h ****  * @file lv_color.h
   3:c:\projects\paindrain\arduinolcd\test\pain drain\libraries\lvgl\src\misc\lv_color.h ****  *
   4:c:\projects\paindrain\arduinolcd\test\pain drain\libraries\lvgl\src\misc\lv_color.h ****  */
   5:c:\projects\paindrain\arduinolcd\test\pain drain\libraries\lvgl\src\misc\lv_color.h **** 
ARM GAS  C:\Users\haske\AppData\Local\Temp\ccpEN9oH.s 			page 28


   6:c:\projects\paindrain\arduinolcd\test\pain drain\libraries\lvgl\src\misc\lv_color.h **** #ifndef LV_COLOR_H
   7:c:\projects\paindrain\arduinolcd\test\pain drain\libraries\lvgl\src\misc\lv_color.h **** #define LV_COLOR_H
   8:c:\projects\paindrain\arduinolcd\test\pain drain\libraries\lvgl\src\misc\lv_color.h **** 
   9:c:\projects\paindrain\arduinolcd\test\pain drain\libraries\lvgl\src\misc\lv_color.h **** #ifdef __cplusplus
  10:c:\projects\paindrain\arduinolcd\test\pain drain\libraries\lvgl\src\misc\lv_color.h **** extern "C" {
  11:c:\projects\paindrain\arduinolcd\test\pain drain\libraries\lvgl\src\misc\lv_color.h **** #endif
  12:c:\projects\paindrain\arduinolcd\test\pain drain\libraries\lvgl\src\misc\lv_color.h **** 
  13:c:\projects\paindrain\arduinolcd\test\pain drain\libraries\lvgl\src\misc\lv_color.h **** /*********************
  14:c:\projects\paindrain\arduinolcd\test\pain drain\libraries\lvgl\src\misc\lv_color.h ****  *      INCLUDES
  15:c:\projects\paindrain\arduinolcd\test\pain drain\libraries\lvgl\src\misc\lv_color.h ****  *********************/
  16:c:\projects\paindrain\arduinolcd\test\pain drain\libraries\lvgl\src\misc\lv_color.h **** #include "../lv_conf_internal.h"
  17:c:\projects\paindrain\arduinolcd\test\pain drain\libraries\lvgl\src\misc\lv_color.h **** #include "lv_assert.h"
  18:c:\projects\paindrain\arduinolcd\test\pain drain\libraries\lvgl\src\misc\lv_color.h **** #include "lv_math.h"
  19:c:\projects\paindrain\arduinolcd\test\pain drain\libraries\lvgl\src\misc\lv_color.h **** #include "lv_types.h"
  20:c:\projects\paindrain\arduinolcd\test\pain drain\libraries\lvgl\src\misc\lv_color.h **** 
  21:c:\projects\paindrain\arduinolcd\test\pain drain\libraries\lvgl\src\misc\lv_color.h **** /*Error checking*/
  22:c:\projects\paindrain\arduinolcd\test\pain drain\libraries\lvgl\src\misc\lv_color.h **** #if LV_COLOR_DEPTH == 24
  23:c:\projects\paindrain\arduinolcd\test\pain drain\libraries\lvgl\src\misc\lv_color.h **** #error "LV_COLOR_DEPTH 24 is deprecated. Use LV_COLOR_DEPTH 32 instead (lv_conf.h)"
  24:c:\projects\paindrain\arduinolcd\test\pain drain\libraries\lvgl\src\misc\lv_color.h **** #endif
  25:c:\projects\paindrain\arduinolcd\test\pain drain\libraries\lvgl\src\misc\lv_color.h **** 
  26:c:\projects\paindrain\arduinolcd\test\pain drain\libraries\lvgl\src\misc\lv_color.h **** #if LV_COLOR_DEPTH != 16 && LV_COLOR_16_SWAP != 0
  27:c:\projects\paindrain\arduinolcd\test\pain drain\libraries\lvgl\src\misc\lv_color.h **** #error "LV_COLOR_16_SWAP requires LV_COLOR_DEPTH == 16. Set it in lv_conf.h"
  28:c:\projects\paindrain\arduinolcd\test\pain drain\libraries\lvgl\src\misc\lv_color.h **** #endif
  29:c:\projects\paindrain\arduinolcd\test\pain drain\libraries\lvgl\src\misc\lv_color.h **** 
  30:c:\projects\paindrain\arduinolcd\test\pain drain\libraries\lvgl\src\misc\lv_color.h **** #include <stdint.h>
  31:c:\projects\paindrain\arduinolcd\test\pain drain\libraries\lvgl\src\misc\lv_color.h **** 
  32:c:\projects\paindrain\arduinolcd\test\pain drain\libraries\lvgl\src\misc\lv_color.h **** /*********************
  33:c:\projects\paindrain\arduinolcd\test\pain drain\libraries\lvgl\src\misc\lv_color.h ****  *      DEFINES
  34:c:\projects\paindrain\arduinolcd\test\pain drain\libraries\lvgl\src\misc\lv_color.h ****  *********************/
  35:c:\projects\paindrain\arduinolcd\test\pain drain\libraries\lvgl\src\misc\lv_color.h **** LV_EXPORT_CONST_INT(LV_COLOR_DEPTH);
  36:c:\projects\paindrain\arduinolcd\test\pain drain\libraries\lvgl\src\misc\lv_color.h **** LV_EXPORT_CONST_INT(LV_COLOR_16_SWAP);
  37:c:\projects\paindrain\arduinolcd\test\pain drain\libraries\lvgl\src\misc\lv_color.h **** 
  38:c:\projects\paindrain\arduinolcd\test\pain drain\libraries\lvgl\src\misc\lv_color.h **** /**
  39:c:\projects\paindrain\arduinolcd\test\pain drain\libraries\lvgl\src\misc\lv_color.h ****  * Opacity percentages.
  40:c:\projects\paindrain\arduinolcd\test\pain drain\libraries\lvgl\src\misc\lv_color.h ****  */
  41:c:\projects\paindrain\arduinolcd\test\pain drain\libraries\lvgl\src\misc\lv_color.h **** enum {
  42:c:\projects\paindrain\arduinolcd\test\pain drain\libraries\lvgl\src\misc\lv_color.h ****     LV_OPA_TRANSP = 0,
  43:c:\projects\paindrain\arduinolcd\test\pain drain\libraries\lvgl\src\misc\lv_color.h ****     LV_OPA_0      = 0,
  44:c:\projects\paindrain\arduinolcd\test\pain drain\libraries\lvgl\src\misc\lv_color.h ****     LV_OPA_10     = 25,
  45:c:\projects\paindrain\arduinolcd\test\pain drain\libraries\lvgl\src\misc\lv_color.h ****     LV_OPA_20     = 51,
  46:c:\projects\paindrain\arduinolcd\test\pain drain\libraries\lvgl\src\misc\lv_color.h ****     LV_OPA_30     = 76,
  47:c:\projects\paindrain\arduinolcd\test\pain drain\libraries\lvgl\src\misc\lv_color.h ****     LV_OPA_40     = 102,
  48:c:\projects\paindrain\arduinolcd\test\pain drain\libraries\lvgl\src\misc\lv_color.h ****     LV_OPA_50     = 127,
  49:c:\projects\paindrain\arduinolcd\test\pain drain\libraries\lvgl\src\misc\lv_color.h ****     LV_OPA_60     = 153,
  50:c:\projects\paindrain\arduinolcd\test\pain drain\libraries\lvgl\src\misc\lv_color.h ****     LV_OPA_70     = 178,
  51:c:\projects\paindrain\arduinolcd\test\pain drain\libraries\lvgl\src\misc\lv_color.h ****     LV_OPA_80     = 204,
  52:c:\projects\paindrain\arduinolcd\test\pain drain\libraries\lvgl\src\misc\lv_color.h ****     LV_OPA_90     = 229,
  53:c:\projects\paindrain\arduinolcd\test\pain drain\libraries\lvgl\src\misc\lv_color.h ****     LV_OPA_100    = 255,
  54:c:\projects\paindrain\arduinolcd\test\pain drain\libraries\lvgl\src\misc\lv_color.h ****     LV_OPA_COVER  = 255,
  55:c:\projects\paindrain\arduinolcd\test\pain drain\libraries\lvgl\src\misc\lv_color.h **** };
  56:c:\projects\paindrain\arduinolcd\test\pain drain\libraries\lvgl\src\misc\lv_color.h **** 
  57:c:\projects\paindrain\arduinolcd\test\pain drain\libraries\lvgl\src\misc\lv_color.h **** #define LV_OPA_MIN 2    /*Opacities below this will be transparent*/
  58:c:\projects\paindrain\arduinolcd\test\pain drain\libraries\lvgl\src\misc\lv_color.h **** #define LV_OPA_MAX 253  /*Opacities above this will fully cover*/
  59:c:\projects\paindrain\arduinolcd\test\pain drain\libraries\lvgl\src\misc\lv_color.h **** 
  60:c:\projects\paindrain\arduinolcd\test\pain drain\libraries\lvgl\src\misc\lv_color.h **** #if LV_COLOR_DEPTH == 1
  61:c:\projects\paindrain\arduinolcd\test\pain drain\libraries\lvgl\src\misc\lv_color.h **** #define LV_COLOR_SIZE 8
  62:c:\projects\paindrain\arduinolcd\test\pain drain\libraries\lvgl\src\misc\lv_color.h **** #elif LV_COLOR_DEPTH == 8
ARM GAS  C:\Users\haske\AppData\Local\Temp\ccpEN9oH.s 			page 29


  63:c:\projects\paindrain\arduinolcd\test\pain drain\libraries\lvgl\src\misc\lv_color.h **** #define LV_COLOR_SIZE 8
  64:c:\projects\paindrain\arduinolcd\test\pain drain\libraries\lvgl\src\misc\lv_color.h **** #elif LV_COLOR_DEPTH == 16
  65:c:\projects\paindrain\arduinolcd\test\pain drain\libraries\lvgl\src\misc\lv_color.h **** #define LV_COLOR_SIZE 16
  66:c:\projects\paindrain\arduinolcd\test\pain drain\libraries\lvgl\src\misc\lv_color.h **** #elif LV_COLOR_DEPTH == 32
  67:c:\projects\paindrain\arduinolcd\test\pain drain\libraries\lvgl\src\misc\lv_color.h **** #define LV_COLOR_SIZE 32
  68:c:\projects\paindrain\arduinolcd\test\pain drain\libraries\lvgl\src\misc\lv_color.h **** #else
  69:c:\projects\paindrain\arduinolcd\test\pain drain\libraries\lvgl\src\misc\lv_color.h **** #error "Invalid LV_COLOR_DEPTH in lv_conf.h! Set it to 1, 8, 16 or 32!"
  70:c:\projects\paindrain\arduinolcd\test\pain drain\libraries\lvgl\src\misc\lv_color.h **** #endif
  71:c:\projects\paindrain\arduinolcd\test\pain drain\libraries\lvgl\src\misc\lv_color.h **** 
  72:c:\projects\paindrain\arduinolcd\test\pain drain\libraries\lvgl\src\misc\lv_color.h **** #if defined(__cplusplus) && !defined(_LV_COLOR_HAS_MODERN_CPP)
  73:c:\projects\paindrain\arduinolcd\test\pain drain\libraries\lvgl\src\misc\lv_color.h **** /**
  74:c:\projects\paindrain\arduinolcd\test\pain drain\libraries\lvgl\src\misc\lv_color.h **** * MSVC compiler's definition of the __cplusplus indicating 199711L regardless to C++ standard versi
  75:c:\projects\paindrain\arduinolcd\test\pain drain\libraries\lvgl\src\misc\lv_color.h **** * see https://devblogs.microsoft.com/cppblog/msvc-now-correctly-reports-cplusplus
  76:c:\projects\paindrain\arduinolcd\test\pain drain\libraries\lvgl\src\misc\lv_color.h **** * so we use _MSC_VER macro instead of __cplusplus
  77:c:\projects\paindrain\arduinolcd\test\pain drain\libraries\lvgl\src\misc\lv_color.h **** */
  78:c:\projects\paindrain\arduinolcd\test\pain drain\libraries\lvgl\src\misc\lv_color.h **** #ifdef _MSC_VER
  79:c:\projects\paindrain\arduinolcd\test\pain drain\libraries\lvgl\src\misc\lv_color.h **** #if _MSC_VER >= 1900 /*Visual Studio 2015*/
  80:c:\projects\paindrain\arduinolcd\test\pain drain\libraries\lvgl\src\misc\lv_color.h **** #define _LV_COLOR_HAS_MODERN_CPP 1
  81:c:\projects\paindrain\arduinolcd\test\pain drain\libraries\lvgl\src\misc\lv_color.h **** #endif
  82:c:\projects\paindrain\arduinolcd\test\pain drain\libraries\lvgl\src\misc\lv_color.h **** #else
  83:c:\projects\paindrain\arduinolcd\test\pain drain\libraries\lvgl\src\misc\lv_color.h **** #if __cplusplus >= 201103L
  84:c:\projects\paindrain\arduinolcd\test\pain drain\libraries\lvgl\src\misc\lv_color.h **** #define _LV_COLOR_HAS_MODERN_CPP 1
  85:c:\projects\paindrain\arduinolcd\test\pain drain\libraries\lvgl\src\misc\lv_color.h **** #endif
  86:c:\projects\paindrain\arduinolcd\test\pain drain\libraries\lvgl\src\misc\lv_color.h **** #endif
  87:c:\projects\paindrain\arduinolcd\test\pain drain\libraries\lvgl\src\misc\lv_color.h **** #endif /*__cplusplus*/
  88:c:\projects\paindrain\arduinolcd\test\pain drain\libraries\lvgl\src\misc\lv_color.h **** 
  89:c:\projects\paindrain\arduinolcd\test\pain drain\libraries\lvgl\src\misc\lv_color.h **** #ifndef _LV_COLOR_HAS_MODERN_CPP
  90:c:\projects\paindrain\arduinolcd\test\pain drain\libraries\lvgl\src\misc\lv_color.h **** #define _LV_COLOR_HAS_MODERN_CPP 0
  91:c:\projects\paindrain\arduinolcd\test\pain drain\libraries\lvgl\src\misc\lv_color.h **** #endif
  92:c:\projects\paindrain\arduinolcd\test\pain drain\libraries\lvgl\src\misc\lv_color.h **** 
  93:c:\projects\paindrain\arduinolcd\test\pain drain\libraries\lvgl\src\misc\lv_color.h **** #if _LV_COLOR_HAS_MODERN_CPP
  94:c:\projects\paindrain\arduinolcd\test\pain drain\libraries\lvgl\src\misc\lv_color.h **** /*Fix msvc compiler error C4576 inside C++ code*/
  95:c:\projects\paindrain\arduinolcd\test\pain drain\libraries\lvgl\src\misc\lv_color.h **** #define _LV_COLOR_MAKE_TYPE_HELPER lv_color_t
  96:c:\projects\paindrain\arduinolcd\test\pain drain\libraries\lvgl\src\misc\lv_color.h **** #else
  97:c:\projects\paindrain\arduinolcd\test\pain drain\libraries\lvgl\src\misc\lv_color.h **** #define _LV_COLOR_MAKE_TYPE_HELPER (lv_color_t)
  98:c:\projects\paindrain\arduinolcd\test\pain drain\libraries\lvgl\src\misc\lv_color.h **** #endif
  99:c:\projects\paindrain\arduinolcd\test\pain drain\libraries\lvgl\src\misc\lv_color.h **** 
 100:c:\projects\paindrain\arduinolcd\test\pain drain\libraries\lvgl\src\misc\lv_color.h **** /*---------------------------------------
 101:c:\projects\paindrain\arduinolcd\test\pain drain\libraries\lvgl\src\misc\lv_color.h ****  * Macros for all existing color depths
 102:c:\projects\paindrain\arduinolcd\test\pain drain\libraries\lvgl\src\misc\lv_color.h ****  * to set/get values of the color channels
 103:c:\projects\paindrain\arduinolcd\test\pain drain\libraries\lvgl\src\misc\lv_color.h ****  *------------------------------------------*/
 104:c:\projects\paindrain\arduinolcd\test\pain drain\libraries\lvgl\src\misc\lv_color.h **** # define LV_COLOR_SET_R1(c, v) (c).ch.red = (uint8_t)((v) & 0x1)
 105:c:\projects\paindrain\arduinolcd\test\pain drain\libraries\lvgl\src\misc\lv_color.h **** # define LV_COLOR_SET_G1(c, v) (c).ch.green = (uint8_t)((v) & 0x1)
 106:c:\projects\paindrain\arduinolcd\test\pain drain\libraries\lvgl\src\misc\lv_color.h **** # define LV_COLOR_SET_B1(c, v) (c).ch.blue = (uint8_t)((v) & 0x1)
 107:c:\projects\paindrain\arduinolcd\test\pain drain\libraries\lvgl\src\misc\lv_color.h **** # define LV_COLOR_SET_A1(c, v) do {} while(0)
 108:c:\projects\paindrain\arduinolcd\test\pain drain\libraries\lvgl\src\misc\lv_color.h **** 
 109:c:\projects\paindrain\arduinolcd\test\pain drain\libraries\lvgl\src\misc\lv_color.h **** # define LV_COLOR_GET_R1(c) (c).ch.red
 110:c:\projects\paindrain\arduinolcd\test\pain drain\libraries\lvgl\src\misc\lv_color.h **** # define LV_COLOR_GET_G1(c) (c).ch.green
 111:c:\projects\paindrain\arduinolcd\test\pain drain\libraries\lvgl\src\misc\lv_color.h **** # define LV_COLOR_GET_B1(c) (c).ch.blue
 112:c:\projects\paindrain\arduinolcd\test\pain drain\libraries\lvgl\src\misc\lv_color.h **** # define LV_COLOR_GET_A1(c) 0xFF
 113:c:\projects\paindrain\arduinolcd\test\pain drain\libraries\lvgl\src\misc\lv_color.h **** 
 114:c:\projects\paindrain\arduinolcd\test\pain drain\libraries\lvgl\src\misc\lv_color.h **** # define _LV_COLOR_ZERO_INITIALIZER1 {0x00}
 115:c:\projects\paindrain\arduinolcd\test\pain drain\libraries\lvgl\src\misc\lv_color.h **** # define LV_COLOR_MAKE1(r8, g8, b8)  {(uint8_t)((b8 >> 7) | (g8 >> 7) | (r8 >> 7))}
 116:c:\projects\paindrain\arduinolcd\test\pain drain\libraries\lvgl\src\misc\lv_color.h **** 
 117:c:\projects\paindrain\arduinolcd\test\pain drain\libraries\lvgl\src\misc\lv_color.h **** # define LV_COLOR_SET_R8(c, v) (c).ch.red = (uint8_t)((v) & 0x7U)
 118:c:\projects\paindrain\arduinolcd\test\pain drain\libraries\lvgl\src\misc\lv_color.h **** # define LV_COLOR_SET_G8(c, v) (c).ch.green = (uint8_t)((v) & 0x7U)
 119:c:\projects\paindrain\arduinolcd\test\pain drain\libraries\lvgl\src\misc\lv_color.h **** # define LV_COLOR_SET_B8(c, v) (c).ch.blue = (uint8_t)((v) & 0x3U)
ARM GAS  C:\Users\haske\AppData\Local\Temp\ccpEN9oH.s 			page 30


 120:c:\projects\paindrain\arduinolcd\test\pain drain\libraries\lvgl\src\misc\lv_color.h **** # define LV_COLOR_SET_A8(c, v) do {} while(0)
 121:c:\projects\paindrain\arduinolcd\test\pain drain\libraries\lvgl\src\misc\lv_color.h **** 
 122:c:\projects\paindrain\arduinolcd\test\pain drain\libraries\lvgl\src\misc\lv_color.h **** # define LV_COLOR_GET_R8(c) (c).ch.red
 123:c:\projects\paindrain\arduinolcd\test\pain drain\libraries\lvgl\src\misc\lv_color.h **** # define LV_COLOR_GET_G8(c) (c).ch.green
 124:c:\projects\paindrain\arduinolcd\test\pain drain\libraries\lvgl\src\misc\lv_color.h **** # define LV_COLOR_GET_B8(c) (c).ch.blue
 125:c:\projects\paindrain\arduinolcd\test\pain drain\libraries\lvgl\src\misc\lv_color.h **** # define LV_COLOR_GET_A8(c) 0xFF
 126:c:\projects\paindrain\arduinolcd\test\pain drain\libraries\lvgl\src\misc\lv_color.h **** 
 127:c:\projects\paindrain\arduinolcd\test\pain drain\libraries\lvgl\src\misc\lv_color.h **** # define _LV_COLOR_ZERO_INITIALIZER8 {{0x00, 0x00, 0x00}}
 128:c:\projects\paindrain\arduinolcd\test\pain drain\libraries\lvgl\src\misc\lv_color.h **** # define LV_COLOR_MAKE8(r8, g8, b8) {{(uint8_t)((b8 >> 6) & 0x3U), (uint8_t)((g8 >> 5) & 0x7U), (ui
 129:c:\projects\paindrain\arduinolcd\test\pain drain\libraries\lvgl\src\misc\lv_color.h **** 
 130:c:\projects\paindrain\arduinolcd\test\pain drain\libraries\lvgl\src\misc\lv_color.h **** # define LV_COLOR_SET_R16(c, v) (c).ch.red = (uint8_t)((v) & 0x1FU)
 131:c:\projects\paindrain\arduinolcd\test\pain drain\libraries\lvgl\src\misc\lv_color.h **** #if LV_COLOR_16_SWAP == 0
 132:c:\projects\paindrain\arduinolcd\test\pain drain\libraries\lvgl\src\misc\lv_color.h **** # define LV_COLOR_SET_G16(c, v) (c).ch.green = (uint8_t)((v) & 0x3FU)
 133:c:\projects\paindrain\arduinolcd\test\pain drain\libraries\lvgl\src\misc\lv_color.h **** #else
 134:c:\projects\paindrain\arduinolcd\test\pain drain\libraries\lvgl\src\misc\lv_color.h **** # define LV_COLOR_SET_G16(c, v) {(c).ch.green_h = (uint8_t)(((v) >> 3) & 0x7); (c).ch.green_l = (ui
 135:c:\projects\paindrain\arduinolcd\test\pain drain\libraries\lvgl\src\misc\lv_color.h **** #endif
 136:c:\projects\paindrain\arduinolcd\test\pain drain\libraries\lvgl\src\misc\lv_color.h **** # define LV_COLOR_SET_B16(c, v) (c).ch.blue = (uint8_t)((v) & 0x1FU)
 137:c:\projects\paindrain\arduinolcd\test\pain drain\libraries\lvgl\src\misc\lv_color.h **** # define LV_COLOR_SET_A16(c, v) do {} while(0)
 138:c:\projects\paindrain\arduinolcd\test\pain drain\libraries\lvgl\src\misc\lv_color.h **** 
 139:c:\projects\paindrain\arduinolcd\test\pain drain\libraries\lvgl\src\misc\lv_color.h **** # define LV_COLOR_GET_R16(c) (c).ch.red
 140:c:\projects\paindrain\arduinolcd\test\pain drain\libraries\lvgl\src\misc\lv_color.h **** #if LV_COLOR_16_SWAP == 0
 141:c:\projects\paindrain\arduinolcd\test\pain drain\libraries\lvgl\src\misc\lv_color.h **** # define LV_COLOR_GET_G16(c) (c).ch.green
 142:c:\projects\paindrain\arduinolcd\test\pain drain\libraries\lvgl\src\misc\lv_color.h **** #else
 143:c:\projects\paindrain\arduinolcd\test\pain drain\libraries\lvgl\src\misc\lv_color.h **** # define LV_COLOR_GET_G16(c) (((c).ch.green_h << 3) + (c).ch.green_l)
 144:c:\projects\paindrain\arduinolcd\test\pain drain\libraries\lvgl\src\misc\lv_color.h **** #endif
 145:c:\projects\paindrain\arduinolcd\test\pain drain\libraries\lvgl\src\misc\lv_color.h **** # define LV_COLOR_GET_B16(c) (c).ch.blue
 146:c:\projects\paindrain\arduinolcd\test\pain drain\libraries\lvgl\src\misc\lv_color.h **** # define LV_COLOR_GET_A16(c) 0xFF
 147:c:\projects\paindrain\arduinolcd\test\pain drain\libraries\lvgl\src\misc\lv_color.h **** 
 148:c:\projects\paindrain\arduinolcd\test\pain drain\libraries\lvgl\src\misc\lv_color.h **** #if LV_COLOR_16_SWAP == 0
 149:c:\projects\paindrain\arduinolcd\test\pain drain\libraries\lvgl\src\misc\lv_color.h **** # define _LV_COLOR_ZERO_INITIALIZER16  {{0x00, 0x00, 0x00}}
 150:c:\projects\paindrain\arduinolcd\test\pain drain\libraries\lvgl\src\misc\lv_color.h **** # define LV_COLOR_MAKE16(r8, g8, b8) {{(uint8_t)((b8 >> 3) & 0x1FU), (uint8_t)((g8 >> 2) & 0x3FU), 
 151:c:\projects\paindrain\arduinolcd\test\pain drain\libraries\lvgl\src\misc\lv_color.h **** #else
 152:c:\projects\paindrain\arduinolcd\test\pain drain\libraries\lvgl\src\misc\lv_color.h **** # define _LV_COLOR_ZERO_INITIALIZER16 {{0x00, 0x00, 0x00, 0x00}}
 153:c:\projects\paindrain\arduinolcd\test\pain drain\libraries\lvgl\src\misc\lv_color.h **** # define LV_COLOR_MAKE16(r8, g8, b8) {{(uint8_t)((g8 >> 5) & 0x7U), (uint8_t)((r8 >> 3) & 0x1FU), (
 154:c:\projects\paindrain\arduinolcd\test\pain drain\libraries\lvgl\src\misc\lv_color.h **** #endif
 155:c:\projects\paindrain\arduinolcd\test\pain drain\libraries\lvgl\src\misc\lv_color.h **** 
 156:c:\projects\paindrain\arduinolcd\test\pain drain\libraries\lvgl\src\misc\lv_color.h **** # define LV_COLOR_SET_R32(c, v) (c).ch.red = (uint8_t)((v) & 0xFF)
 157:c:\projects\paindrain\arduinolcd\test\pain drain\libraries\lvgl\src\misc\lv_color.h **** # define LV_COLOR_SET_G32(c, v) (c).ch.green = (uint8_t)((v) & 0xFF)
 158:c:\projects\paindrain\arduinolcd\test\pain drain\libraries\lvgl\src\misc\lv_color.h **** # define LV_COLOR_SET_B32(c, v) (c).ch.blue = (uint8_t)((v) & 0xFF)
 159:c:\projects\paindrain\arduinolcd\test\pain drain\libraries\lvgl\src\misc\lv_color.h **** # define LV_COLOR_SET_A32(c, v) (c).ch.alpha = (uint8_t)((v) & 0xFF)
 160:c:\projects\paindrain\arduinolcd\test\pain drain\libraries\lvgl\src\misc\lv_color.h **** 
 161:c:\projects\paindrain\arduinolcd\test\pain drain\libraries\lvgl\src\misc\lv_color.h **** # define LV_COLOR_GET_R32(c) (c).ch.red
 162:c:\projects\paindrain\arduinolcd\test\pain drain\libraries\lvgl\src\misc\lv_color.h **** # define LV_COLOR_GET_G32(c) (c).ch.green
 163:c:\projects\paindrain\arduinolcd\test\pain drain\libraries\lvgl\src\misc\lv_color.h **** # define LV_COLOR_GET_B32(c) (c).ch.blue
 164:c:\projects\paindrain\arduinolcd\test\pain drain\libraries\lvgl\src\misc\lv_color.h **** # define LV_COLOR_GET_A32(c) (c).ch.alpha
 165:c:\projects\paindrain\arduinolcd\test\pain drain\libraries\lvgl\src\misc\lv_color.h **** 
 166:c:\projects\paindrain\arduinolcd\test\pain drain\libraries\lvgl\src\misc\lv_color.h **** # define _LV_COLOR_ZERO_INITIALIZER32  {{0x00, 0x00, 0x00, 0x00}}
 167:c:\projects\paindrain\arduinolcd\test\pain drain\libraries\lvgl\src\misc\lv_color.h **** # define LV_COLOR_MAKE32(r8, g8, b8) {{b8, g8, r8, 0xff}} /*Fix 0xff alpha*/
 168:c:\projects\paindrain\arduinolcd\test\pain drain\libraries\lvgl\src\misc\lv_color.h **** 
 169:c:\projects\paindrain\arduinolcd\test\pain drain\libraries\lvgl\src\misc\lv_color.h **** /*---------------------------------------
 170:c:\projects\paindrain\arduinolcd\test\pain drain\libraries\lvgl\src\misc\lv_color.h ****  * Macros for the current color depth
 171:c:\projects\paindrain\arduinolcd\test\pain drain\libraries\lvgl\src\misc\lv_color.h ****  * to set/get values of the color channels
 172:c:\projects\paindrain\arduinolcd\test\pain drain\libraries\lvgl\src\misc\lv_color.h ****  *------------------------------------------*/
 173:c:\projects\paindrain\arduinolcd\test\pain drain\libraries\lvgl\src\misc\lv_color.h **** #define LV_COLOR_SET_R(c, v) LV_CONCAT(LV_COLOR_SET_R, LV_COLOR_DEPTH)(c, v)
 174:c:\projects\paindrain\arduinolcd\test\pain drain\libraries\lvgl\src\misc\lv_color.h **** #define LV_COLOR_SET_G(c, v) LV_CONCAT(LV_COLOR_SET_G, LV_COLOR_DEPTH)(c, v)
 175:c:\projects\paindrain\arduinolcd\test\pain drain\libraries\lvgl\src\misc\lv_color.h **** #define LV_COLOR_SET_B(c, v) LV_CONCAT(LV_COLOR_SET_B, LV_COLOR_DEPTH)(c, v)
 176:c:\projects\paindrain\arduinolcd\test\pain drain\libraries\lvgl\src\misc\lv_color.h **** #define LV_COLOR_SET_A(c, v) LV_CONCAT(LV_COLOR_SET_A, LV_COLOR_DEPTH)(c, v)
ARM GAS  C:\Users\haske\AppData\Local\Temp\ccpEN9oH.s 			page 31


 177:c:\projects\paindrain\arduinolcd\test\pain drain\libraries\lvgl\src\misc\lv_color.h **** 
 178:c:\projects\paindrain\arduinolcd\test\pain drain\libraries\lvgl\src\misc\lv_color.h **** #define LV_COLOR_GET_R(c) LV_CONCAT(LV_COLOR_GET_R, LV_COLOR_DEPTH)(c)
 179:c:\projects\paindrain\arduinolcd\test\pain drain\libraries\lvgl\src\misc\lv_color.h **** #define LV_COLOR_GET_G(c) LV_CONCAT(LV_COLOR_GET_G, LV_COLOR_DEPTH)(c)
 180:c:\projects\paindrain\arduinolcd\test\pain drain\libraries\lvgl\src\misc\lv_color.h **** #define LV_COLOR_GET_B(c) LV_CONCAT(LV_COLOR_GET_B, LV_COLOR_DEPTH)(c)
 181:c:\projects\paindrain\arduinolcd\test\pain drain\libraries\lvgl\src\misc\lv_color.h **** #define LV_COLOR_GET_A(c) LV_CONCAT(LV_COLOR_GET_A, LV_COLOR_DEPTH)(c)
 182:c:\projects\paindrain\arduinolcd\test\pain drain\libraries\lvgl\src\misc\lv_color.h **** 
 183:c:\projects\paindrain\arduinolcd\test\pain drain\libraries\lvgl\src\misc\lv_color.h **** #define _LV_COLOR_ZERO_INITIALIZER LV_CONCAT(_LV_COLOR_ZERO_INITIALIZER, LV_COLOR_DEPTH)
 184:c:\projects\paindrain\arduinolcd\test\pain drain\libraries\lvgl\src\misc\lv_color.h **** #define LV_COLOR_MAKE(r8, g8, b8) LV_CONCAT(LV_COLOR_MAKE, LV_COLOR_DEPTH)(r8, g8, b8)
 185:c:\projects\paindrain\arduinolcd\test\pain drain\libraries\lvgl\src\misc\lv_color.h **** 
 186:c:\projects\paindrain\arduinolcd\test\pain drain\libraries\lvgl\src\misc\lv_color.h **** /**********************
 187:c:\projects\paindrain\arduinolcd\test\pain drain\libraries\lvgl\src\misc\lv_color.h ****  *      TYPEDEFS
 188:c:\projects\paindrain\arduinolcd\test\pain drain\libraries\lvgl\src\misc\lv_color.h ****  **********************/
 189:c:\projects\paindrain\arduinolcd\test\pain drain\libraries\lvgl\src\misc\lv_color.h **** 
 190:c:\projects\paindrain\arduinolcd\test\pain drain\libraries\lvgl\src\misc\lv_color.h **** typedef union {
 191:c:\projects\paindrain\arduinolcd\test\pain drain\libraries\lvgl\src\misc\lv_color.h ****     uint8_t full; /*must be declared first to set all bits of byte via initializer list*/
 192:c:\projects\paindrain\arduinolcd\test\pain drain\libraries\lvgl\src\misc\lv_color.h ****     union {
 193:c:\projects\paindrain\arduinolcd\test\pain drain\libraries\lvgl\src\misc\lv_color.h ****         uint8_t blue : 1;
 194:c:\projects\paindrain\arduinolcd\test\pain drain\libraries\lvgl\src\misc\lv_color.h ****         uint8_t green : 1;
 195:c:\projects\paindrain\arduinolcd\test\pain drain\libraries\lvgl\src\misc\lv_color.h ****         uint8_t red : 1;
 196:c:\projects\paindrain\arduinolcd\test\pain drain\libraries\lvgl\src\misc\lv_color.h ****     } ch;
 197:c:\projects\paindrain\arduinolcd\test\pain drain\libraries\lvgl\src\misc\lv_color.h **** } lv_color1_t;
 198:c:\projects\paindrain\arduinolcd\test\pain drain\libraries\lvgl\src\misc\lv_color.h **** 
 199:c:\projects\paindrain\arduinolcd\test\pain drain\libraries\lvgl\src\misc\lv_color.h **** typedef union {
 200:c:\projects\paindrain\arduinolcd\test\pain drain\libraries\lvgl\src\misc\lv_color.h ****     struct {
 201:c:\projects\paindrain\arduinolcd\test\pain drain\libraries\lvgl\src\misc\lv_color.h ****         uint8_t blue : 2;
 202:c:\projects\paindrain\arduinolcd\test\pain drain\libraries\lvgl\src\misc\lv_color.h ****         uint8_t green : 3;
 203:c:\projects\paindrain\arduinolcd\test\pain drain\libraries\lvgl\src\misc\lv_color.h ****         uint8_t red : 3;
 204:c:\projects\paindrain\arduinolcd\test\pain drain\libraries\lvgl\src\misc\lv_color.h ****     } ch;
 205:c:\projects\paindrain\arduinolcd\test\pain drain\libraries\lvgl\src\misc\lv_color.h ****     uint8_t full;
 206:c:\projects\paindrain\arduinolcd\test\pain drain\libraries\lvgl\src\misc\lv_color.h **** } lv_color8_t;
 207:c:\projects\paindrain\arduinolcd\test\pain drain\libraries\lvgl\src\misc\lv_color.h **** 
 208:c:\projects\paindrain\arduinolcd\test\pain drain\libraries\lvgl\src\misc\lv_color.h **** typedef union {
 209:c:\projects\paindrain\arduinolcd\test\pain drain\libraries\lvgl\src\misc\lv_color.h ****     struct {
 210:c:\projects\paindrain\arduinolcd\test\pain drain\libraries\lvgl\src\misc\lv_color.h **** #if LV_COLOR_16_SWAP == 0
 211:c:\projects\paindrain\arduinolcd\test\pain drain\libraries\lvgl\src\misc\lv_color.h ****         uint16_t blue : 5;
 212:c:\projects\paindrain\arduinolcd\test\pain drain\libraries\lvgl\src\misc\lv_color.h ****         uint16_t green : 6;
 213:c:\projects\paindrain\arduinolcd\test\pain drain\libraries\lvgl\src\misc\lv_color.h ****         uint16_t red : 5;
 214:c:\projects\paindrain\arduinolcd\test\pain drain\libraries\lvgl\src\misc\lv_color.h **** #else
 215:c:\projects\paindrain\arduinolcd\test\pain drain\libraries\lvgl\src\misc\lv_color.h ****         uint16_t green_h : 3;
 216:c:\projects\paindrain\arduinolcd\test\pain drain\libraries\lvgl\src\misc\lv_color.h ****         uint16_t red : 5;
 217:c:\projects\paindrain\arduinolcd\test\pain drain\libraries\lvgl\src\misc\lv_color.h ****         uint16_t blue : 5;
 218:c:\projects\paindrain\arduinolcd\test\pain drain\libraries\lvgl\src\misc\lv_color.h ****         uint16_t green_l : 3;
 219:c:\projects\paindrain\arduinolcd\test\pain drain\libraries\lvgl\src\misc\lv_color.h **** #endif
 220:c:\projects\paindrain\arduinolcd\test\pain drain\libraries\lvgl\src\misc\lv_color.h ****     } ch;
 221:c:\projects\paindrain\arduinolcd\test\pain drain\libraries\lvgl\src\misc\lv_color.h ****     uint16_t full;
 222:c:\projects\paindrain\arduinolcd\test\pain drain\libraries\lvgl\src\misc\lv_color.h **** } lv_color16_t;
 223:c:\projects\paindrain\arduinolcd\test\pain drain\libraries\lvgl\src\misc\lv_color.h **** 
 224:c:\projects\paindrain\arduinolcd\test\pain drain\libraries\lvgl\src\misc\lv_color.h **** typedef union {
 225:c:\projects\paindrain\arduinolcd\test\pain drain\libraries\lvgl\src\misc\lv_color.h ****     struct {
 226:c:\projects\paindrain\arduinolcd\test\pain drain\libraries\lvgl\src\misc\lv_color.h ****         uint8_t blue;
 227:c:\projects\paindrain\arduinolcd\test\pain drain\libraries\lvgl\src\misc\lv_color.h ****         uint8_t green;
 228:c:\projects\paindrain\arduinolcd\test\pain drain\libraries\lvgl\src\misc\lv_color.h ****         uint8_t red;
 229:c:\projects\paindrain\arduinolcd\test\pain drain\libraries\lvgl\src\misc\lv_color.h ****         uint8_t alpha;
 230:c:\projects\paindrain\arduinolcd\test\pain drain\libraries\lvgl\src\misc\lv_color.h ****     } ch;
 231:c:\projects\paindrain\arduinolcd\test\pain drain\libraries\lvgl\src\misc\lv_color.h ****     uint32_t full;
 232:c:\projects\paindrain\arduinolcd\test\pain drain\libraries\lvgl\src\misc\lv_color.h **** } lv_color32_t;
 233:c:\projects\paindrain\arduinolcd\test\pain drain\libraries\lvgl\src\misc\lv_color.h **** 
ARM GAS  C:\Users\haske\AppData\Local\Temp\ccpEN9oH.s 			page 32


 234:c:\projects\paindrain\arduinolcd\test\pain drain\libraries\lvgl\src\misc\lv_color.h **** typedef LV_CONCAT3(uint, LV_COLOR_SIZE, _t) lv_color_int_t;
 235:c:\projects\paindrain\arduinolcd\test\pain drain\libraries\lvgl\src\misc\lv_color.h **** typedef LV_CONCAT3(lv_color, LV_COLOR_DEPTH, _t) lv_color_t;
 236:c:\projects\paindrain\arduinolcd\test\pain drain\libraries\lvgl\src\misc\lv_color.h **** 
 237:c:\projects\paindrain\arduinolcd\test\pain drain\libraries\lvgl\src\misc\lv_color.h **** typedef struct {
 238:c:\projects\paindrain\arduinolcd\test\pain drain\libraries\lvgl\src\misc\lv_color.h ****     uint16_t h;
 239:c:\projects\paindrain\arduinolcd\test\pain drain\libraries\lvgl\src\misc\lv_color.h ****     uint8_t s;
 240:c:\projects\paindrain\arduinolcd\test\pain drain\libraries\lvgl\src\misc\lv_color.h ****     uint8_t v;
 241:c:\projects\paindrain\arduinolcd\test\pain drain\libraries\lvgl\src\misc\lv_color.h **** } lv_color_hsv_t;
 242:c:\projects\paindrain\arduinolcd\test\pain drain\libraries\lvgl\src\misc\lv_color.h **** 
 243:c:\projects\paindrain\arduinolcd\test\pain drain\libraries\lvgl\src\misc\lv_color.h **** //! @cond Doxygen_Suppress
 244:c:\projects\paindrain\arduinolcd\test\pain drain\libraries\lvgl\src\misc\lv_color.h **** /*No idea where the guard is required but else throws warnings in the docs*/
 245:c:\projects\paindrain\arduinolcd\test\pain drain\libraries\lvgl\src\misc\lv_color.h **** typedef uint8_t lv_opa_t;
 246:c:\projects\paindrain\arduinolcd\test\pain drain\libraries\lvgl\src\misc\lv_color.h **** //! @endcond
 247:c:\projects\paindrain\arduinolcd\test\pain drain\libraries\lvgl\src\misc\lv_color.h **** 
 248:c:\projects\paindrain\arduinolcd\test\pain drain\libraries\lvgl\src\misc\lv_color.h **** struct _lv_color_filter_dsc_t;
 249:c:\projects\paindrain\arduinolcd\test\pain drain\libraries\lvgl\src\misc\lv_color.h **** 
 250:c:\projects\paindrain\arduinolcd\test\pain drain\libraries\lvgl\src\misc\lv_color.h **** typedef lv_color_t (*lv_color_filter_cb_t)(const struct _lv_color_filter_dsc_t *, lv_color_t, lv_op
 251:c:\projects\paindrain\arduinolcd\test\pain drain\libraries\lvgl\src\misc\lv_color.h **** 
 252:c:\projects\paindrain\arduinolcd\test\pain drain\libraries\lvgl\src\misc\lv_color.h **** typedef struct _lv_color_filter_dsc_t {
 253:c:\projects\paindrain\arduinolcd\test\pain drain\libraries\lvgl\src\misc\lv_color.h ****     lv_color_filter_cb_t filter_cb;
 254:c:\projects\paindrain\arduinolcd\test\pain drain\libraries\lvgl\src\misc\lv_color.h ****     void * user_data;
 255:c:\projects\paindrain\arduinolcd\test\pain drain\libraries\lvgl\src\misc\lv_color.h **** } lv_color_filter_dsc_t;
 256:c:\projects\paindrain\arduinolcd\test\pain drain\libraries\lvgl\src\misc\lv_color.h **** 
 257:c:\projects\paindrain\arduinolcd\test\pain drain\libraries\lvgl\src\misc\lv_color.h **** 
 258:c:\projects\paindrain\arduinolcd\test\pain drain\libraries\lvgl\src\misc\lv_color.h **** typedef enum {
 259:c:\projects\paindrain\arduinolcd\test\pain drain\libraries\lvgl\src\misc\lv_color.h ****     LV_PALETTE_RED,
 260:c:\projects\paindrain\arduinolcd\test\pain drain\libraries\lvgl\src\misc\lv_color.h ****     LV_PALETTE_PINK,
 261:c:\projects\paindrain\arduinolcd\test\pain drain\libraries\lvgl\src\misc\lv_color.h ****     LV_PALETTE_PURPLE,
 262:c:\projects\paindrain\arduinolcd\test\pain drain\libraries\lvgl\src\misc\lv_color.h ****     LV_PALETTE_DEEP_PURPLE,
 263:c:\projects\paindrain\arduinolcd\test\pain drain\libraries\lvgl\src\misc\lv_color.h ****     LV_PALETTE_INDIGO,
 264:c:\projects\paindrain\arduinolcd\test\pain drain\libraries\lvgl\src\misc\lv_color.h ****     LV_PALETTE_BLUE,
 265:c:\projects\paindrain\arduinolcd\test\pain drain\libraries\lvgl\src\misc\lv_color.h ****     LV_PALETTE_LIGHT_BLUE,
 266:c:\projects\paindrain\arduinolcd\test\pain drain\libraries\lvgl\src\misc\lv_color.h ****     LV_PALETTE_CYAN,
 267:c:\projects\paindrain\arduinolcd\test\pain drain\libraries\lvgl\src\misc\lv_color.h ****     LV_PALETTE_TEAL,
 268:c:\projects\paindrain\arduinolcd\test\pain drain\libraries\lvgl\src\misc\lv_color.h ****     LV_PALETTE_GREEN,
 269:c:\projects\paindrain\arduinolcd\test\pain drain\libraries\lvgl\src\misc\lv_color.h ****     LV_PALETTE_LIGHT_GREEN,
 270:c:\projects\paindrain\arduinolcd\test\pain drain\libraries\lvgl\src\misc\lv_color.h ****     LV_PALETTE_LIME,
 271:c:\projects\paindrain\arduinolcd\test\pain drain\libraries\lvgl\src\misc\lv_color.h ****     LV_PALETTE_YELLOW,
 272:c:\projects\paindrain\arduinolcd\test\pain drain\libraries\lvgl\src\misc\lv_color.h ****     LV_PALETTE_AMBER,
 273:c:\projects\paindrain\arduinolcd\test\pain drain\libraries\lvgl\src\misc\lv_color.h ****     LV_PALETTE_ORANGE,
 274:c:\projects\paindrain\arduinolcd\test\pain drain\libraries\lvgl\src\misc\lv_color.h ****     LV_PALETTE_DEEP_ORANGE,
 275:c:\projects\paindrain\arduinolcd\test\pain drain\libraries\lvgl\src\misc\lv_color.h ****     LV_PALETTE_BROWN,
 276:c:\projects\paindrain\arduinolcd\test\pain drain\libraries\lvgl\src\misc\lv_color.h ****     LV_PALETTE_BLUE_GREY,
 277:c:\projects\paindrain\arduinolcd\test\pain drain\libraries\lvgl\src\misc\lv_color.h ****     LV_PALETTE_GREY,
 278:c:\projects\paindrain\arduinolcd\test\pain drain\libraries\lvgl\src\misc\lv_color.h ****     _LV_PALETTE_LAST,
 279:c:\projects\paindrain\arduinolcd\test\pain drain\libraries\lvgl\src\misc\lv_color.h ****     LV_PALETTE_NONE = 0xff,
 280:c:\projects\paindrain\arduinolcd\test\pain drain\libraries\lvgl\src\misc\lv_color.h **** } lv_palette_t;
 281:c:\projects\paindrain\arduinolcd\test\pain drain\libraries\lvgl\src\misc\lv_color.h **** 
 282:c:\projects\paindrain\arduinolcd\test\pain drain\libraries\lvgl\src\misc\lv_color.h **** /**********************
 283:c:\projects\paindrain\arduinolcd\test\pain drain\libraries\lvgl\src\misc\lv_color.h ****  * GLOBAL PROTOTYPES
 284:c:\projects\paindrain\arduinolcd\test\pain drain\libraries\lvgl\src\misc\lv_color.h ****  **********************/
 285:c:\projects\paindrain\arduinolcd\test\pain drain\libraries\lvgl\src\misc\lv_color.h **** 
 286:c:\projects\paindrain\arduinolcd\test\pain drain\libraries\lvgl\src\misc\lv_color.h **** /*In color conversations:
 287:c:\projects\paindrain\arduinolcd\test\pain drain\libraries\lvgl\src\misc\lv_color.h ****  * - When converting to bigger color type the LSB weight of 1 LSB is calculated
 288:c:\projects\paindrain\arduinolcd\test\pain drain\libraries\lvgl\src\misc\lv_color.h ****  *   E.g. 16 bit Red has 5 bits
 289:c:\projects\paindrain\arduinolcd\test\pain drain\libraries\lvgl\src\misc\lv_color.h ****  *         8 bit Red has 3 bits
 290:c:\projects\paindrain\arduinolcd\test\pain drain\libraries\lvgl\src\misc\lv_color.h ****  *        ----------------------
ARM GAS  C:\Users\haske\AppData\Local\Temp\ccpEN9oH.s 			page 33


 291:c:\projects\paindrain\arduinolcd\test\pain drain\libraries\lvgl\src\misc\lv_color.h ****  *        8 bit red LSB = (2^5 - 1) / (2^3 - 1) = 31 / 7 = 4
 292:c:\projects\paindrain\arduinolcd\test\pain drain\libraries\lvgl\src\misc\lv_color.h ****  *
 293:c:\projects\paindrain\arduinolcd\test\pain drain\libraries\lvgl\src\misc\lv_color.h ****  * - When calculating to smaller color type simply shift out the LSBs
 294:c:\projects\paindrain\arduinolcd\test\pain drain\libraries\lvgl\src\misc\lv_color.h ****  *   E.g.  8 bit Red has 3 bits
 295:c:\projects\paindrain\arduinolcd\test\pain drain\libraries\lvgl\src\misc\lv_color.h ****  *        16 bit Red has 5 bits
 296:c:\projects\paindrain\arduinolcd\test\pain drain\libraries\lvgl\src\misc\lv_color.h ****  *        ----------------------
 297:c:\projects\paindrain\arduinolcd\test\pain drain\libraries\lvgl\src\misc\lv_color.h ****  *         Shift right with 5 - 3 = 2
 298:c:\projects\paindrain\arduinolcd\test\pain drain\libraries\lvgl\src\misc\lv_color.h ****  */
 299:c:\projects\paindrain\arduinolcd\test\pain drain\libraries\lvgl\src\misc\lv_color.h **** static inline uint8_t lv_color_to1(lv_color_t color)
 300:c:\projects\paindrain\arduinolcd\test\pain drain\libraries\lvgl\src\misc\lv_color.h **** {
 301:c:\projects\paindrain\arduinolcd\test\pain drain\libraries\lvgl\src\misc\lv_color.h **** #if LV_COLOR_DEPTH == 1
 302:c:\projects\paindrain\arduinolcd\test\pain drain\libraries\lvgl\src\misc\lv_color.h ****     return color.full;
 303:c:\projects\paindrain\arduinolcd\test\pain drain\libraries\lvgl\src\misc\lv_color.h **** #elif LV_COLOR_DEPTH == 8
 304:c:\projects\paindrain\arduinolcd\test\pain drain\libraries\lvgl\src\misc\lv_color.h ****     if((LV_COLOR_GET_R(color) & 0x4) || (LV_COLOR_GET_G(color) & 0x4) || (LV_COLOR_GET_B(color) & 0
 305:c:\projects\paindrain\arduinolcd\test\pain drain\libraries\lvgl\src\misc\lv_color.h ****         return 1;
 306:c:\projects\paindrain\arduinolcd\test\pain drain\libraries\lvgl\src\misc\lv_color.h ****     }
 307:c:\projects\paindrain\arduinolcd\test\pain drain\libraries\lvgl\src\misc\lv_color.h ****     else {
 308:c:\projects\paindrain\arduinolcd\test\pain drain\libraries\lvgl\src\misc\lv_color.h ****         return 0;
 309:c:\projects\paindrain\arduinolcd\test\pain drain\libraries\lvgl\src\misc\lv_color.h ****     }
 310:c:\projects\paindrain\arduinolcd\test\pain drain\libraries\lvgl\src\misc\lv_color.h **** #elif LV_COLOR_DEPTH == 16
 311:c:\projects\paindrain\arduinolcd\test\pain drain\libraries\lvgl\src\misc\lv_color.h ****     if((LV_COLOR_GET_R(color) & 0x10) || (LV_COLOR_GET_G(color) & 0x20) || (LV_COLOR_GET_B(color) &
 312:c:\projects\paindrain\arduinolcd\test\pain drain\libraries\lvgl\src\misc\lv_color.h ****         return 1;
 313:c:\projects\paindrain\arduinolcd\test\pain drain\libraries\lvgl\src\misc\lv_color.h ****     }
 314:c:\projects\paindrain\arduinolcd\test\pain drain\libraries\lvgl\src\misc\lv_color.h ****     else {
 315:c:\projects\paindrain\arduinolcd\test\pain drain\libraries\lvgl\src\misc\lv_color.h ****         return 0;
 316:c:\projects\paindrain\arduinolcd\test\pain drain\libraries\lvgl\src\misc\lv_color.h ****     }
 317:c:\projects\paindrain\arduinolcd\test\pain drain\libraries\lvgl\src\misc\lv_color.h **** #elif LV_COLOR_DEPTH == 32
 318:c:\projects\paindrain\arduinolcd\test\pain drain\libraries\lvgl\src\misc\lv_color.h ****     if((LV_COLOR_GET_R(color) & 0x80) || (LV_COLOR_GET_G(color) & 0x80) || (LV_COLOR_GET_B(color) &
 319:c:\projects\paindrain\arduinolcd\test\pain drain\libraries\lvgl\src\misc\lv_color.h ****         return 1;
 320:c:\projects\paindrain\arduinolcd\test\pain drain\libraries\lvgl\src\misc\lv_color.h ****     }
 321:c:\projects\paindrain\arduinolcd\test\pain drain\libraries\lvgl\src\misc\lv_color.h ****     else {
 322:c:\projects\paindrain\arduinolcd\test\pain drain\libraries\lvgl\src\misc\lv_color.h ****         return 0;
 323:c:\projects\paindrain\arduinolcd\test\pain drain\libraries\lvgl\src\misc\lv_color.h ****     }
 324:c:\projects\paindrain\arduinolcd\test\pain drain\libraries\lvgl\src\misc\lv_color.h **** #endif
 325:c:\projects\paindrain\arduinolcd\test\pain drain\libraries\lvgl\src\misc\lv_color.h **** }
 326:c:\projects\paindrain\arduinolcd\test\pain drain\libraries\lvgl\src\misc\lv_color.h **** 
 327:c:\projects\paindrain\arduinolcd\test\pain drain\libraries\lvgl\src\misc\lv_color.h **** static inline uint8_t lv_color_to8(lv_color_t color)
 328:c:\projects\paindrain\arduinolcd\test\pain drain\libraries\lvgl\src\misc\lv_color.h **** {
 329:c:\projects\paindrain\arduinolcd\test\pain drain\libraries\lvgl\src\misc\lv_color.h **** #if LV_COLOR_DEPTH == 1
 330:c:\projects\paindrain\arduinolcd\test\pain drain\libraries\lvgl\src\misc\lv_color.h ****     if(color.full == 0)
 331:c:\projects\paindrain\arduinolcd\test\pain drain\libraries\lvgl\src\misc\lv_color.h ****         return 0;
 332:c:\projects\paindrain\arduinolcd\test\pain drain\libraries\lvgl\src\misc\lv_color.h ****     else
 333:c:\projects\paindrain\arduinolcd\test\pain drain\libraries\lvgl\src\misc\lv_color.h ****         return 0xFF;
 334:c:\projects\paindrain\arduinolcd\test\pain drain\libraries\lvgl\src\misc\lv_color.h **** #elif LV_COLOR_DEPTH == 8
 335:c:\projects\paindrain\arduinolcd\test\pain drain\libraries\lvgl\src\misc\lv_color.h ****     return color.full;
 336:c:\projects\paindrain\arduinolcd\test\pain drain\libraries\lvgl\src\misc\lv_color.h **** #elif LV_COLOR_DEPTH == 16
 337:c:\projects\paindrain\arduinolcd\test\pain drain\libraries\lvgl\src\misc\lv_color.h ****     lv_color8_t ret;
 338:c:\projects\paindrain\arduinolcd\test\pain drain\libraries\lvgl\src\misc\lv_color.h ****     LV_COLOR_SET_R8(ret, LV_COLOR_GET_R(color) >> 2); /*5 - 3  = 2*/
 339:c:\projects\paindrain\arduinolcd\test\pain drain\libraries\lvgl\src\misc\lv_color.h ****     LV_COLOR_SET_G8(ret, LV_COLOR_GET_G(color) >> 3); /*6 - 3  = 3*/
 340:c:\projects\paindrain\arduinolcd\test\pain drain\libraries\lvgl\src\misc\lv_color.h ****     LV_COLOR_SET_B8(ret, LV_COLOR_GET_B(color) >> 3); /*5 - 2  = 3*/
 341:c:\projects\paindrain\arduinolcd\test\pain drain\libraries\lvgl\src\misc\lv_color.h ****     return ret.full;
 342:c:\projects\paindrain\arduinolcd\test\pain drain\libraries\lvgl\src\misc\lv_color.h **** #elif LV_COLOR_DEPTH == 32
 343:c:\projects\paindrain\arduinolcd\test\pain drain\libraries\lvgl\src\misc\lv_color.h ****     lv_color8_t ret;
 344:c:\projects\paindrain\arduinolcd\test\pain drain\libraries\lvgl\src\misc\lv_color.h ****     LV_COLOR_SET_R8(ret, LV_COLOR_GET_R(color) >> 5); /*8 - 3  = 5*/
 345:c:\projects\paindrain\arduinolcd\test\pain drain\libraries\lvgl\src\misc\lv_color.h ****     LV_COLOR_SET_G8(ret, LV_COLOR_GET_G(color) >> 5); /*8 - 3  = 5*/
 346:c:\projects\paindrain\arduinolcd\test\pain drain\libraries\lvgl\src\misc\lv_color.h ****     LV_COLOR_SET_B8(ret, LV_COLOR_GET_B(color) >> 6); /*8 - 2  = 6*/
 347:c:\projects\paindrain\arduinolcd\test\pain drain\libraries\lvgl\src\misc\lv_color.h ****     return ret.full;
ARM GAS  C:\Users\haske\AppData\Local\Temp\ccpEN9oH.s 			page 34


 348:c:\projects\paindrain\arduinolcd\test\pain drain\libraries\lvgl\src\misc\lv_color.h **** #endif
 349:c:\projects\paindrain\arduinolcd\test\pain drain\libraries\lvgl\src\misc\lv_color.h **** }
 350:c:\projects\paindrain\arduinolcd\test\pain drain\libraries\lvgl\src\misc\lv_color.h **** 
 351:c:\projects\paindrain\arduinolcd\test\pain drain\libraries\lvgl\src\misc\lv_color.h **** static inline uint16_t lv_color_to16(lv_color_t color)
 352:c:\projects\paindrain\arduinolcd\test\pain drain\libraries\lvgl\src\misc\lv_color.h **** {
 353:c:\projects\paindrain\arduinolcd\test\pain drain\libraries\lvgl\src\misc\lv_color.h **** #if LV_COLOR_DEPTH == 1
 354:c:\projects\paindrain\arduinolcd\test\pain drain\libraries\lvgl\src\misc\lv_color.h ****     if(color.full == 0)
 355:c:\projects\paindrain\arduinolcd\test\pain drain\libraries\lvgl\src\misc\lv_color.h ****         return 0;
 356:c:\projects\paindrain\arduinolcd\test\pain drain\libraries\lvgl\src\misc\lv_color.h ****     else
 357:c:\projects\paindrain\arduinolcd\test\pain drain\libraries\lvgl\src\misc\lv_color.h ****         return 0xFFFF;
 358:c:\projects\paindrain\arduinolcd\test\pain drain\libraries\lvgl\src\misc\lv_color.h **** #elif LV_COLOR_DEPTH == 8
 359:c:\projects\paindrain\arduinolcd\test\pain drain\libraries\lvgl\src\misc\lv_color.h ****     lv_color16_t ret;
 360:c:\projects\paindrain\arduinolcd\test\pain drain\libraries\lvgl\src\misc\lv_color.h ****     LV_COLOR_SET_R16(ret, LV_COLOR_GET_R(color) * 4);  /*(2^5 - 1)/(2^3 - 1) = 31/7 = 4*/
 361:c:\projects\paindrain\arduinolcd\test\pain drain\libraries\lvgl\src\misc\lv_color.h ****     LV_COLOR_SET_G16(ret, LV_COLOR_GET_G(color) * 9);  /*(2^6 - 1)/(2^3 - 1) = 63/7 = 9*/
 362:c:\projects\paindrain\arduinolcd\test\pain drain\libraries\lvgl\src\misc\lv_color.h ****     LV_COLOR_SET_B16(ret, LV_COLOR_GET_B(color) * 10); /*(2^5 - 1)/(2^2 - 1) = 31/3 = 10*/
 363:c:\projects\paindrain\arduinolcd\test\pain drain\libraries\lvgl\src\misc\lv_color.h ****     return ret.full;
 364:c:\projects\paindrain\arduinolcd\test\pain drain\libraries\lvgl\src\misc\lv_color.h **** #elif LV_COLOR_DEPTH == 16
 365:c:\projects\paindrain\arduinolcd\test\pain drain\libraries\lvgl\src\misc\lv_color.h ****     return color.full;
 366:c:\projects\paindrain\arduinolcd\test\pain drain\libraries\lvgl\src\misc\lv_color.h **** #elif LV_COLOR_DEPTH == 32
 367:c:\projects\paindrain\arduinolcd\test\pain drain\libraries\lvgl\src\misc\lv_color.h ****     lv_color16_t ret;
 368:c:\projects\paindrain\arduinolcd\test\pain drain\libraries\lvgl\src\misc\lv_color.h ****     LV_COLOR_SET_R16(ret, LV_COLOR_GET_R(color) >> 3); /*8 - 5  = 3*/
 369:c:\projects\paindrain\arduinolcd\test\pain drain\libraries\lvgl\src\misc\lv_color.h ****     LV_COLOR_SET_G16(ret, LV_COLOR_GET_G(color) >> 2); /*8 - 6  = 2*/
 370:c:\projects\paindrain\arduinolcd\test\pain drain\libraries\lvgl\src\misc\lv_color.h ****     LV_COLOR_SET_B16(ret, LV_COLOR_GET_B(color) >> 3); /*8 - 5  = 3*/
 371:c:\projects\paindrain\arduinolcd\test\pain drain\libraries\lvgl\src\misc\lv_color.h ****     return ret.full;
 372:c:\projects\paindrain\arduinolcd\test\pain drain\libraries\lvgl\src\misc\lv_color.h **** #endif
 373:c:\projects\paindrain\arduinolcd\test\pain drain\libraries\lvgl\src\misc\lv_color.h **** }
 374:c:\projects\paindrain\arduinolcd\test\pain drain\libraries\lvgl\src\misc\lv_color.h **** 
 375:c:\projects\paindrain\arduinolcd\test\pain drain\libraries\lvgl\src\misc\lv_color.h **** static inline uint32_t lv_color_to32(lv_color_t color)
 376:c:\projects\paindrain\arduinolcd\test\pain drain\libraries\lvgl\src\misc\lv_color.h **** {
 377:c:\projects\paindrain\arduinolcd\test\pain drain\libraries\lvgl\src\misc\lv_color.h **** #if LV_COLOR_DEPTH == 1
 378:c:\projects\paindrain\arduinolcd\test\pain drain\libraries\lvgl\src\misc\lv_color.h ****     if(color.full == 0)
 379:c:\projects\paindrain\arduinolcd\test\pain drain\libraries\lvgl\src\misc\lv_color.h ****         return 0xFF000000;
 380:c:\projects\paindrain\arduinolcd\test\pain drain\libraries\lvgl\src\misc\lv_color.h ****     else
 381:c:\projects\paindrain\arduinolcd\test\pain drain\libraries\lvgl\src\misc\lv_color.h ****         return 0xFFFFFFFF;
 382:c:\projects\paindrain\arduinolcd\test\pain drain\libraries\lvgl\src\misc\lv_color.h **** #elif LV_COLOR_DEPTH == 8
 383:c:\projects\paindrain\arduinolcd\test\pain drain\libraries\lvgl\src\misc\lv_color.h ****     lv_color32_t ret;
 384:c:\projects\paindrain\arduinolcd\test\pain drain\libraries\lvgl\src\misc\lv_color.h ****     LV_COLOR_SET_R32(ret, LV_COLOR_GET_R(color) * 36); /*(2^8 - 1)/(2^3 - 1) = 255/7 = 36*/
 385:c:\projects\paindrain\arduinolcd\test\pain drain\libraries\lvgl\src\misc\lv_color.h ****     LV_COLOR_SET_G32(ret, LV_COLOR_GET_G(color) * 36); /*(2^8 - 1)/(2^3 - 1) = 255/7 = 36*/
 386:c:\projects\paindrain\arduinolcd\test\pain drain\libraries\lvgl\src\misc\lv_color.h ****     LV_COLOR_SET_B32(ret, LV_COLOR_GET_B(color) * 85); /*(2^8 - 1)/(2^2 - 1) = 255/3 = 85*/
 387:c:\projects\paindrain\arduinolcd\test\pain drain\libraries\lvgl\src\misc\lv_color.h ****     LV_COLOR_SET_A32(ret, 0xFF);
 388:c:\projects\paindrain\arduinolcd\test\pain drain\libraries\lvgl\src\misc\lv_color.h ****     return ret.full;
 389:c:\projects\paindrain\arduinolcd\test\pain drain\libraries\lvgl\src\misc\lv_color.h **** #elif LV_COLOR_DEPTH == 16
 390:c:\projects\paindrain\arduinolcd\test\pain drain\libraries\lvgl\src\misc\lv_color.h ****     /**
 391:c:\projects\paindrain\arduinolcd\test\pain drain\libraries\lvgl\src\misc\lv_color.h ****      * The floating point math for conversion is:
 392:c:\projects\paindrain\arduinolcd\test\pain drain\libraries\lvgl\src\misc\lv_color.h ****      *  valueto = valuefrom * ( (2^bitsto - 1) / (float)(2^bitsfrom - 1) )
 393:c:\projects\paindrain\arduinolcd\test\pain drain\libraries\lvgl\src\misc\lv_color.h ****      * The faster integer math for conversion is:
 394:c:\projects\paindrain\arduinolcd\test\pain drain\libraries\lvgl\src\misc\lv_color.h ****      *  valueto = ( valuefrom * multiplier + adder ) >> divisor
 395:c:\projects\paindrain\arduinolcd\test\pain drain\libraries\lvgl\src\misc\lv_color.h ****      *   multiplier = FLOOR( ( (2^bitsto - 1) << divisor ) / (float)(2^bitsfrom - 1) )
 396:c:\projects\paindrain\arduinolcd\test\pain drain\libraries\lvgl\src\misc\lv_color.h ****      *
 397:c:\projects\paindrain\arduinolcd\test\pain drain\libraries\lvgl\src\misc\lv_color.h ****      * Find the first divisor where ( adder >> divisor ) <= 0
 398:c:\projects\paindrain\arduinolcd\test\pain drain\libraries\lvgl\src\misc\lv_color.h ****      *
 399:c:\projects\paindrain\arduinolcd\test\pain drain\libraries\lvgl\src\misc\lv_color.h ****      * 5-bit to 8-bit: ( 31 * multiplier + adder ) >> divisor = 255
 400:c:\projects\paindrain\arduinolcd\test\pain drain\libraries\lvgl\src\misc\lv_color.h ****      * divisor  multiplier  adder  min (0)  max (31)
 401:c:\projects\paindrain\arduinolcd\test\pain drain\libraries\lvgl\src\misc\lv_color.h ****      *       0           8      7        7       255
 402:c:\projects\paindrain\arduinolcd\test\pain drain\libraries\lvgl\src\misc\lv_color.h ****      *       1          16     14        7       255
 403:c:\projects\paindrain\arduinolcd\test\pain drain\libraries\lvgl\src\misc\lv_color.h ****      *       2          32     28        7       255
 404:c:\projects\paindrain\arduinolcd\test\pain drain\libraries\lvgl\src\misc\lv_color.h ****      *       3          65     25        3       255
ARM GAS  C:\Users\haske\AppData\Local\Temp\ccpEN9oH.s 			page 35


 405:c:\projects\paindrain\arduinolcd\test\pain drain\libraries\lvgl\src\misc\lv_color.h ****      *       4         131     19        1       255
 406:c:\projects\paindrain\arduinolcd\test\pain drain\libraries\lvgl\src\misc\lv_color.h ****      *       5         263      7        0       255
 407:c:\projects\paindrain\arduinolcd\test\pain drain\libraries\lvgl\src\misc\lv_color.h ****      *
 408:c:\projects\paindrain\arduinolcd\test\pain drain\libraries\lvgl\src\misc\lv_color.h ****      * 6-bit to 8-bit: 255 = ( 63 * multiplier + adder ) >> divisor
 409:c:\projects\paindrain\arduinolcd\test\pain drain\libraries\lvgl\src\misc\lv_color.h ****      * divisor  multiplier  adder  min (0)  max (63)
 410:c:\projects\paindrain\arduinolcd\test\pain drain\libraries\lvgl\src\misc\lv_color.h ****      *       0           4      3        3       255
 411:c:\projects\paindrain\arduinolcd\test\pain drain\libraries\lvgl\src\misc\lv_color.h ****      *       1           8      6        3       255
 412:c:\projects\paindrain\arduinolcd\test\pain drain\libraries\lvgl\src\misc\lv_color.h ****      *       2          16     12        3       255
 413:c:\projects\paindrain\arduinolcd\test\pain drain\libraries\lvgl\src\misc\lv_color.h ****      *       3          32     24        3       255
 414:c:\projects\paindrain\arduinolcd\test\pain drain\libraries\lvgl\src\misc\lv_color.h ****      *       4          64     48        3       255
 415:c:\projects\paindrain\arduinolcd\test\pain drain\libraries\lvgl\src\misc\lv_color.h ****      *       5         129     33        1       255
 416:c:\projects\paindrain\arduinolcd\test\pain drain\libraries\lvgl\src\misc\lv_color.h ****      *       6         259      3        0       255
 417:c:\projects\paindrain\arduinolcd\test\pain drain\libraries\lvgl\src\misc\lv_color.h ****      */
 418:c:\projects\paindrain\arduinolcd\test\pain drain\libraries\lvgl\src\misc\lv_color.h **** 
 419:c:\projects\paindrain\arduinolcd\test\pain drain\libraries\lvgl\src\misc\lv_color.h ****     lv_color32_t ret;
 420:c:\projects\paindrain\arduinolcd\test\pain drain\libraries\lvgl\src\misc\lv_color.h ****     LV_COLOR_SET_R32(ret, (LV_COLOR_GET_R(color) * 263 + 7) >> 5);
 421:c:\projects\paindrain\arduinolcd\test\pain drain\libraries\lvgl\src\misc\lv_color.h ****     LV_COLOR_SET_G32(ret, (LV_COLOR_GET_G(color) * 259 + 3) >> 6);
 422:c:\projects\paindrain\arduinolcd\test\pain drain\libraries\lvgl\src\misc\lv_color.h ****     LV_COLOR_SET_B32(ret, (LV_COLOR_GET_B(color) * 263 + 7) >> 5);
 423:c:\projects\paindrain\arduinolcd\test\pain drain\libraries\lvgl\src\misc\lv_color.h ****     LV_COLOR_SET_A32(ret, 0xFF);
 424:c:\projects\paindrain\arduinolcd\test\pain drain\libraries\lvgl\src\misc\lv_color.h ****     return ret.full;
 425:c:\projects\paindrain\arduinolcd\test\pain drain\libraries\lvgl\src\misc\lv_color.h **** #elif LV_COLOR_DEPTH == 32
 426:c:\projects\paindrain\arduinolcd\test\pain drain\libraries\lvgl\src\misc\lv_color.h ****     return color.full;
 427:c:\projects\paindrain\arduinolcd\test\pain drain\libraries\lvgl\src\misc\lv_color.h **** #endif
 428:c:\projects\paindrain\arduinolcd\test\pain drain\libraries\lvgl\src\misc\lv_color.h **** }
 429:c:\projects\paindrain\arduinolcd\test\pain drain\libraries\lvgl\src\misc\lv_color.h **** 
 430:c:\projects\paindrain\arduinolcd\test\pain drain\libraries\lvgl\src\misc\lv_color.h **** //! @cond Doxygen_Suppress
 431:c:\projects\paindrain\arduinolcd\test\pain drain\libraries\lvgl\src\misc\lv_color.h **** 
 432:c:\projects\paindrain\arduinolcd\test\pain drain\libraries\lvgl\src\misc\lv_color.h **** /**
 433:c:\projects\paindrain\arduinolcd\test\pain drain\libraries\lvgl\src\misc\lv_color.h ****  * Mix two colors with a given ratio.
 434:c:\projects\paindrain\arduinolcd\test\pain drain\libraries\lvgl\src\misc\lv_color.h ****  * @param c1 the first color to mix (usually the foreground)
 435:c:\projects\paindrain\arduinolcd\test\pain drain\libraries\lvgl\src\misc\lv_color.h ****  * @param c2 the second color to mix (usually the background)
 436:c:\projects\paindrain\arduinolcd\test\pain drain\libraries\lvgl\src\misc\lv_color.h ****  * @param mix The ratio of the colors. 0: full `c2`, 255: full `c1`, 127: half `c1` and half`c2`
 437:c:\projects\paindrain\arduinolcd\test\pain drain\libraries\lvgl\src\misc\lv_color.h ****  * @return the mixed color
 438:c:\projects\paindrain\arduinolcd\test\pain drain\libraries\lvgl\src\misc\lv_color.h ****  */
 439:c:\projects\paindrain\arduinolcd\test\pain drain\libraries\lvgl\src\misc\lv_color.h **** LV_ATTRIBUTE_FAST_MEM static inline lv_color_t lv_color_mix(lv_color_t c1, lv_color_t c2, uint8_t m
 440:c:\projects\paindrain\arduinolcd\test\pain drain\libraries\lvgl\src\misc\lv_color.h **** {
 441:c:\projects\paindrain\arduinolcd\test\pain drain\libraries\lvgl\src\misc\lv_color.h ****     lv_color_t ret;
 442:c:\projects\paindrain\arduinolcd\test\pain drain\libraries\lvgl\src\misc\lv_color.h **** 
 443:c:\projects\paindrain\arduinolcd\test\pain drain\libraries\lvgl\src\misc\lv_color.h **** #if LV_COLOR_DEPTH == 16 && LV_COLOR_16_SWAP == 0 && LV_COLOR_MIX_ROUND_OFS == 0
 444:c:\projects\paindrain\arduinolcd\test\pain drain\libraries\lvgl\src\misc\lv_color.h ****     /*Source: https://stackoverflow.com/a/50012418/1999969*/
 445:c:\projects\paindrain\arduinolcd\test\pain drain\libraries\lvgl\src\misc\lv_color.h ****     mix = (uint32_t)((uint32_t)mix + 4) >> 3;
 446:c:\projects\paindrain\arduinolcd\test\pain drain\libraries\lvgl\src\misc\lv_color.h ****     uint32_t bg = (uint32_t)((uint32_t)c2.full | ((uint32_t)c2.full << 16)) &
 447:c:\projects\paindrain\arduinolcd\test\pain drain\libraries\lvgl\src\misc\lv_color.h ****                   0x7E0F81F; /*0b00000111111000001111100000011111*/
 448:c:\projects\paindrain\arduinolcd\test\pain drain\libraries\lvgl\src\misc\lv_color.h ****     uint32_t fg = (uint32_t)((uint32_t)c1.full | ((uint32_t)c1.full << 16)) & 0x7E0F81F;
 449:c:\projects\paindrain\arduinolcd\test\pain drain\libraries\lvgl\src\misc\lv_color.h ****     uint32_t result = ((((fg - bg) * mix) >> 5) + bg) & 0x7E0F81F;
 450:c:\projects\paindrain\arduinolcd\test\pain drain\libraries\lvgl\src\misc\lv_color.h ****     ret.full = (uint16_t)((result >> 16) | result);
 451:c:\projects\paindrain\arduinolcd\test\pain drain\libraries\lvgl\src\misc\lv_color.h **** #elif LV_COLOR_DEPTH != 1
 452:c:\projects\paindrain\arduinolcd\test\pain drain\libraries\lvgl\src\misc\lv_color.h ****     /*LV_COLOR_DEPTH == 8, 16 or 32*/
 453:c:\projects\paindrain\arduinolcd\test\pain drain\libraries\lvgl\src\misc\lv_color.h ****     LV_COLOR_SET_R(ret, LV_UDIV255((uint16_t)LV_COLOR_GET_R(c1) * mix + LV_COLOR_GET_R(c2) *
 454:c:\projects\paindrain\arduinolcd\test\pain drain\libraries\lvgl\src\misc\lv_color.h ****                                    (255 - mix) + LV_COLOR_MIX_ROUND_OFS));
 455:c:\projects\paindrain\arduinolcd\test\pain drain\libraries\lvgl\src\misc\lv_color.h ****     LV_COLOR_SET_G(ret, LV_UDIV255((uint16_t)LV_COLOR_GET_G(c1) * mix + LV_COLOR_GET_G(c2) *
 456:c:\projects\paindrain\arduinolcd\test\pain drain\libraries\lvgl\src\misc\lv_color.h ****                                    (255 - mix) + LV_COLOR_MIX_ROUND_OFS));
 457:c:\projects\paindrain\arduinolcd\test\pain drain\libraries\lvgl\src\misc\lv_color.h ****     LV_COLOR_SET_B(ret, LV_UDIV255((uint16_t)LV_COLOR_GET_B(c1) * mix + LV_COLOR_GET_B(c2) *
 458:c:\projects\paindrain\arduinolcd\test\pain drain\libraries\lvgl\src\misc\lv_color.h ****                                    (255 - mix) + LV_COLOR_MIX_ROUND_OFS));
 459:c:\projects\paindrain\arduinolcd\test\pain drain\libraries\lvgl\src\misc\lv_color.h ****     LV_COLOR_SET_A(ret, 0xFF);
 460:c:\projects\paindrain\arduinolcd\test\pain drain\libraries\lvgl\src\misc\lv_color.h **** #else
 461:c:\projects\paindrain\arduinolcd\test\pain drain\libraries\lvgl\src\misc\lv_color.h ****     /*LV_COLOR_DEPTH == 1*/
ARM GAS  C:\Users\haske\AppData\Local\Temp\ccpEN9oH.s 			page 36


 462:c:\projects\paindrain\arduinolcd\test\pain drain\libraries\lvgl\src\misc\lv_color.h ****     ret.full = mix > LV_OPA_50 ? c1.full : c2.full;
 463:c:\projects\paindrain\arduinolcd\test\pain drain\libraries\lvgl\src\misc\lv_color.h **** #endif
 464:c:\projects\paindrain\arduinolcd\test\pain drain\libraries\lvgl\src\misc\lv_color.h **** 
 465:c:\projects\paindrain\arduinolcd\test\pain drain\libraries\lvgl\src\misc\lv_color.h ****     return ret;
 466:c:\projects\paindrain\arduinolcd\test\pain drain\libraries\lvgl\src\misc\lv_color.h **** }
 467:c:\projects\paindrain\arduinolcd\test\pain drain\libraries\lvgl\src\misc\lv_color.h **** 
 468:c:\projects\paindrain\arduinolcd\test\pain drain\libraries\lvgl\src\misc\lv_color.h **** LV_ATTRIBUTE_FAST_MEM static inline void lv_color_premult(lv_color_t c, uint8_t mix, uint16_t * out
 469:c:\projects\paindrain\arduinolcd\test\pain drain\libraries\lvgl\src\misc\lv_color.h **** {
 470:c:\projects\paindrain\arduinolcd\test\pain drain\libraries\lvgl\src\misc\lv_color.h **** #if LV_COLOR_DEPTH != 1
 471:c:\projects\paindrain\arduinolcd\test\pain drain\libraries\lvgl\src\misc\lv_color.h ****     out[0] = (uint16_t)LV_COLOR_GET_R(c) * mix;
 1011              		.loc 3 471 0
 1012 0288 D00A     		lsrs	r0, r2, #11
 1013 028a 99B2     		uxth	r1, r3
 1014 028c 4843     		muls	r0, r1
 1015 028e 8246     		mov	r10, r0
 472:c:\projects\paindrain\arduinolcd\test\pain drain\libraries\lvgl\src\misc\lv_color.h ****     out[1] = (uint16_t)LV_COLOR_GET_G(c) * mix;
 1016              		.loc 3 472 0
 1017 0290 5005     		lsls	r0, r2, #21
 1018 0292 800E     		lsrs	r0, r0, #26
 1019 0294 4843     		muls	r0, r1
 1020 0296 8146     		mov	r9, r0
 473:c:\projects\paindrain\arduinolcd\test\pain drain\libraries\lvgl\src\misc\lv_color.h ****     out[2] = (uint16_t)LV_COLOR_GET_B(c) * mix;
 1021              		.loc 3 473 0
 1022 0298 D206     		lsls	r2, r2, #27
 1023 029a D20E     		lsrs	r2, r2, #27
 1024 029c 4A43     		muls	r2, r1
 1025 029e 9046     		mov	r8, r2
 1026              	.LVL135:
 1027              	.LBE83:
 1028              	.LBE82:
 156:..\..\..\arduinoLCD\test\Pain Drain\libraries\lvgl\src\draw\sw/lv_draw_sw_img.c ****                 uint32_t i;
 1029              		.loc 1 156 0
 1030 02a0 DB43     		mvns	r3, r3
 1031              	.LVL136:
 1032 02a2 DDB2     		uxtb	r5, r3
 1033              	.LVL137:
 158:..\..\..\arduinoLCD\test\Pain Drain\libraries\lvgl\src\draw\sw/lv_draw_sw_img.c ****                     rgb_buf[i] = lv_color_mix_premult(premult_v, rgb_buf[i], recolor_opa);
 1034              		.loc 1 158 0
 1035 02a4 0020     		movs	r0, #0
 1036 02a6 0696     		str	r6, [sp, #24]
 1037 02a8 5346     		mov	r3, r10
 1038 02aa 0793     		str	r3, [sp, #28]
 1039 02ac 3FE0     		b	.L34
 1040              	.LVL138:
 1041              	.L35:
 159:..\..\..\arduinoLCD\test\Pain Drain\libraries\lvgl\src\draw\sw/lv_draw_sw_img.c ****                 }
 1042              		.loc 1 159 0 discriminator 3
 1043 02ae 4100     		lsls	r1, r0, #1
 1044 02b0 069B     		ldr	r3, [sp, #24]
 1045 02b2 9C46     		mov	ip, r3
 1046 02b4 6144     		add	r1, r1, ip
 1047              	.LVL139:
 1048 02b6 0B88     		ldrh	r3, [r1]
 1049              	.LVL140:
 1050              	.LBB84:
 1051              	.LBB85:
 474:c:\projects\paindrain\arduinolcd\test\pain drain\libraries\lvgl\src\misc\lv_color.h **** #else
ARM GAS  C:\Users\haske\AppData\Local\Temp\ccpEN9oH.s 			page 37


 475:c:\projects\paindrain\arduinolcd\test\pain drain\libraries\lvgl\src\misc\lv_color.h ****     (void) mix;
 476:c:\projects\paindrain\arduinolcd\test\pain drain\libraries\lvgl\src\misc\lv_color.h ****     /*Pre-multiplication can't be used with 1 bpp*/
 477:c:\projects\paindrain\arduinolcd\test\pain drain\libraries\lvgl\src\misc\lv_color.h ****     out[0] = LV_COLOR_GET_R(c);
 478:c:\projects\paindrain\arduinolcd\test\pain drain\libraries\lvgl\src\misc\lv_color.h ****     out[1] = LV_COLOR_GET_G(c);
 479:c:\projects\paindrain\arduinolcd\test\pain drain\libraries\lvgl\src\misc\lv_color.h ****     out[2] = LV_COLOR_GET_B(c);
 480:c:\projects\paindrain\arduinolcd\test\pain drain\libraries\lvgl\src\misc\lv_color.h **** #endif
 481:c:\projects\paindrain\arduinolcd\test\pain drain\libraries\lvgl\src\misc\lv_color.h **** 
 482:c:\projects\paindrain\arduinolcd\test\pain drain\libraries\lvgl\src\misc\lv_color.h **** }
 483:c:\projects\paindrain\arduinolcd\test\pain drain\libraries\lvgl\src\misc\lv_color.h **** 
 484:c:\projects\paindrain\arduinolcd\test\pain drain\libraries\lvgl\src\misc\lv_color.h **** /**
 485:c:\projects\paindrain\arduinolcd\test\pain drain\libraries\lvgl\src\misc\lv_color.h ****  * Mix two colors with a given ratio. It runs faster then `lv_color_mix` but requires some pre comp
 486:c:\projects\paindrain\arduinolcd\test\pain drain\libraries\lvgl\src\misc\lv_color.h ****  * @param premult_c1 The first color. Should be preprocessed with `lv_color_premult(c1)`
 487:c:\projects\paindrain\arduinolcd\test\pain drain\libraries\lvgl\src\misc\lv_color.h ****  * @param c2 The second color. As it is no pre computation required on it
 488:c:\projects\paindrain\arduinolcd\test\pain drain\libraries\lvgl\src\misc\lv_color.h ****  * @param mix The ratio of the colors. 0: full `c1`, 255: full `c2`, 127: half `c1` and half `c2`.
 489:c:\projects\paindrain\arduinolcd\test\pain drain\libraries\lvgl\src\misc\lv_color.h ****  *            Should be modified like mix = `255 - mix`
 490:c:\projects\paindrain\arduinolcd\test\pain drain\libraries\lvgl\src\misc\lv_color.h ****  * @return the mixed color
 491:c:\projects\paindrain\arduinolcd\test\pain drain\libraries\lvgl\src\misc\lv_color.h ****  * @note 255 won't give clearly `c1`.
 492:c:\projects\paindrain\arduinolcd\test\pain drain\libraries\lvgl\src\misc\lv_color.h ****  */
 493:c:\projects\paindrain\arduinolcd\test\pain drain\libraries\lvgl\src\misc\lv_color.h **** LV_ATTRIBUTE_FAST_MEM static inline lv_color_t lv_color_mix_premult(uint16_t * premult_c1, lv_color
 494:c:\projects\paindrain\arduinolcd\test\pain drain\libraries\lvgl\src\misc\lv_color.h **** {
 495:c:\projects\paindrain\arduinolcd\test\pain drain\libraries\lvgl\src\misc\lv_color.h ****     lv_color_t ret;
 496:c:\projects\paindrain\arduinolcd\test\pain drain\libraries\lvgl\src\misc\lv_color.h **** #if LV_COLOR_DEPTH != 1
 497:c:\projects\paindrain\arduinolcd\test\pain drain\libraries\lvgl\src\misc\lv_color.h ****     /*LV_COLOR_DEPTH == 8 or 32*/
 498:c:\projects\paindrain\arduinolcd\test\pain drain\libraries\lvgl\src\misc\lv_color.h ****     LV_COLOR_SET_R(ret, LV_UDIV255(premult_c1[0] + LV_COLOR_GET_R(c2) * mix + LV_COLOR_MIX_ROUND_OF
 1052              		.loc 3 498 0 discriminator 3
 1053 02b8 DA0A     		lsrs	r2, r3, #11
 1054 02ba 6A43     		muls	r2, r5
 1055 02bc 079C     		ldr	r4, [sp, #28]
 1056 02be A446     		mov	ip, r4
 1057 02c0 6244     		add	r2, r2, ip
 1058 02c2 1402     		lsls	r4, r2, #8
 1059 02c4 A418     		adds	r4, r4, r2
 1060 02c6 E401     		lsls	r4, r4, #7
 1061 02c8 A218     		adds	r2, r4, r2
 1062 02ca D20D     		lsrs	r2, r2, #23
 1063 02cc D2B2     		uxtb	r2, r2
 1064 02ce D202     		lsls	r2, r2, #11
 1065              	.LVL141:
 1066 02d0 5C46     		mov	r4, fp
 1067 02d2 6405     		lsls	r4, r4, #21
 1068 02d4 640D     		lsrs	r4, r4, #21
 1069 02d6 2243     		orrs	r2, r4
 499:c:\projects\paindrain\arduinolcd\test\pain drain\libraries\lvgl\src\misc\lv_color.h ****     LV_COLOR_SET_G(ret, LV_UDIV255(premult_c1[1] + LV_COLOR_GET_G(c2) * mix + LV_COLOR_MIX_ROUND_OF
 1070              		.loc 3 499 0 discriminator 3
 1071 02d8 5C05     		lsls	r4, r3, #21
 1072 02da A40E     		lsrs	r4, r4, #26
 1073 02dc 6C43     		muls	r4, r5
 1074 02de 4C44     		add	r4, r4, r9
 1075 02e0 2602     		lsls	r6, r4, #8
 1076 02e2 B246     		mov	r10, r6
 1077 02e4 A244     		add	r10, r10, r4
 1078 02e6 5646     		mov	r6, r10
 1079 02e8 F601     		lsls	r6, r6, #7
 1080 02ea B246     		mov	r10, r6
 1081 02ec 5444     		add	r4, r4, r10
 1082 02ee E40D     		lsrs	r4, r4, #23
 1083 02f0 A446     		mov	ip, r4
ARM GAS  C:\Users\haske\AppData\Local\Temp\ccpEN9oH.s 			page 38


 1084 02f2 3F24     		movs	r4, #63
 1085 02f4 A246     		mov	r10, r4
 1086 02f6 6446     		mov	r4, ip
 1087 02f8 5646     		mov	r6, r10
 1088 02fa 3440     		ands	r4, r6
 1089 02fc 6401     		lsls	r4, r4, #5
 1090 02fe A446     		mov	ip, r4
 1091 0300 364C     		ldr	r4, .L45
 1092 0302 2240     		ands	r2, r4
 1093 0304 6446     		mov	r4, ip
 1094 0306 2243     		orrs	r2, r4
 500:c:\projects\paindrain\arduinolcd\test\pain drain\libraries\lvgl\src\misc\lv_color.h ****     LV_COLOR_SET_B(ret, LV_UDIV255(premult_c1[2] + LV_COLOR_GET_B(c2) * mix + LV_COLOR_MIX_ROUND_OF
 1095              		.loc 3 500 0 discriminator 3
 1096 0308 DB06     		lsls	r3, r3, #27
 1097 030a DB0E     		lsrs	r3, r3, #27
 1098 030c 6B43     		muls	r3, r5
 1099 030e 4344     		add	r3, r3, r8
 1100 0310 1C02     		lsls	r4, r3, #8
 1101 0312 A446     		mov	ip, r4
 1102 0314 9C44     		add	ip, ip, r3
 1103 0316 6446     		mov	r4, ip
 1104 0318 E401     		lsls	r4, r4, #7
 1105 031a A446     		mov	ip, r4
 1106 031c 6344     		add	r3, r3, ip
 1107 031e DB0D     		lsrs	r3, r3, #23
 1108 0320 1F24     		movs	r4, #31
 1109 0322 2340     		ands	r3, r4
 1110 0324 A243     		bics	r2, r4
 1111 0326 1343     		orrs	r3, r2
 1112 0328 9B46     		mov	fp, r3
 1113              	.LVL142:
 1114              	.LBE85:
 1115              	.LBE84:
 159:..\..\..\arduinoLCD\test\Pain Drain\libraries\lvgl\src\draw\sw/lv_draw_sw_img.c ****                 }
 1116              		.loc 1 159 0 discriminator 3
 1117 032a 0B80     		strh	r3, [r1]
 158:..\..\..\arduinoLCD\test\Pain Drain\libraries\lvgl\src\draw\sw/lv_draw_sw_img.c ****                     rgb_buf[i] = lv_color_mix_premult(premult_v, rgb_buf[i], recolor_opa);
 1118              		.loc 1 158 0 discriminator 3
 1119 032c 0130     		adds	r0, r0, #1
 1120              	.LVL143:
 1121              	.L34:
 158:..\..\..\arduinoLCD\test\Pain Drain\libraries\lvgl\src\draw\sw/lv_draw_sw_img.c ****                     rgb_buf[i] = lv_color_mix_premult(premult_v, rgb_buf[i], recolor_opa);
 1122              		.loc 1 158 0 is_stmt 0 discriminator 1
 1123 032e B842     		cmp	r0, r7
 1124 0330 BDD3     		bcc	.L35
 1125 0332 069E     		ldr	r6, [sp, #24]
 1126              	.LVL144:
 1127              	.L33:
 1128              	.LBE81:
 164:..\..\..\arduinoLCD\test\Pain Drain\libraries\lvgl\src\draw\sw/lv_draw_sw_img.c ****                 lv_coord_t y;
 1129              		.loc 1 164 0 is_stmt 1
 1130 0334 0D9B     		ldr	r3, [sp, #52]
 1131 0336 002B     		cmp	r3, #0
 1132 0338 27D0     		beq	.L36
 1133              	.LVL145:
 1134              	.LBB86:
 167:..\..\..\arduinoLCD\test\Pain Drain\libraries\lvgl\src\draw\sw/lv_draw_sw_img.c ****                     lv_draw_mask_res_t mask_res_line;
ARM GAS  C:\Users\haske\AppData\Local\Temp\ccpEN9oH.s 			page 39


 1135              		.loc 1 167 0
 1136 033a 20AB     		add	r3, sp, #128
 1137 033c 0224     		movs	r4, #2
 1138 033e 1C5F     		ldrsh	r4, [r3, r4]
 1139              	.LVL146:
 166:..\..\..\arduinoLCD\test\Pain Drain\libraries\lvgl\src\draw\sw/lv_draw_sw_img.c ****                 for(y = blend_area.y1; y <= blend_area.y2; y++) {
 1140              		.loc 1 166 0
 1141 0340 0C9D     		ldr	r5, [sp, #48]
 1142 0342 B046     		mov	r8, r6
 1143 0344 2E00     		movs	r6, r5
 1144 0346 159D     		ldr	r5, [sp, #84]
 167:..\..\..\arduinoLCD\test\Pain Drain\libraries\lvgl\src\draw\sw/lv_draw_sw_img.c ****                     lv_draw_mask_res_t mask_res_line;
 1145              		.loc 1 167 0
 1146 0348 19E0     		b	.L37
 1147              	.LVL147:
 1148              	.L40:
 1149              	.LBB87:
 169:..\..\..\arduinoLCD\test\Pain Drain\libraries\lvgl\src\draw\sw/lv_draw_sw_img.c **** 
 1150              		.loc 1 169 0
 1151 034a 20AB     		add	r3, sp, #128
 1152 034c 0021     		movs	r1, #0
 1153 034e 595E     		ldrsh	r1, [r3, r1]
 1154 0350 089B     		ldr	r3, [sp, #32]
 1155 0352 2200     		movs	r2, r4
 1156 0354 3000     		movs	r0, r6
 1157 0356 FFF7FEFF 		bl	lv_draw_mask_apply
 1158              	.LVL148:
 171:..\..\..\arduinoLCD\test\Pain Drain\libraries\lvgl\src\draw\sw/lv_draw_sw_img.c ****                         lv_memset_00(mask_buf_tmp, blend_w);
 1159              		.loc 1 171 0
 1160 035a 0028     		cmp	r0, #0
 1161 035c 07D1     		bne	.L38
 172:..\..\..\arduinoLCD\test\Pain Drain\libraries\lvgl\src\draw\sw/lv_draw_sw_img.c ****                         blend_dsc.mask_res = LV_DRAW_MASK_RES_CHANGED;
 1162              		.loc 1 172 0
 1163 035e 2900     		movs	r1, r5
 1164 0360 3000     		movs	r0, r6
 1165              	.LVL149:
 1166 0362 FFF7FEFF 		bl	lv_memset_00
 1167              	.LVL150:
 173:..\..\..\arduinoLCD\test\Pain Drain\libraries\lvgl\src\draw\sw/lv_draw_sw_img.c ****                     }
 1168              		.loc 1 173 0
 1169 0366 0222     		movs	r2, #2
 1170 0368 19AB     		add	r3, sp, #100
 1171 036a 1A74     		strb	r2, [r3, #16]
 1172 036c 04E0     		b	.L39
 1173              	.LVL151:
 1174              	.L38:
 175:..\..\..\arduinoLCD\test\Pain Drain\libraries\lvgl\src\draw\sw/lv_draw_sw_img.c ****                         blend_dsc.mask_res = LV_DRAW_MASK_RES_CHANGED;
 1175              		.loc 1 175 0
 1176 036e 0228     		cmp	r0, #2
 1177 0370 02D1     		bne	.L39
 176:..\..\..\arduinoLCD\test\Pain Drain\libraries\lvgl\src\draw\sw/lv_draw_sw_img.c ****                     }
 1178              		.loc 1 176 0
 1179 0372 0222     		movs	r2, #2
 1180 0374 19AB     		add	r3, sp, #100
 1181 0376 1A74     		strb	r2, [r3, #16]
 1182              	.LVL152:
 1183              	.L39:
ARM GAS  C:\Users\haske\AppData\Local\Temp\ccpEN9oH.s 			page 40


 178:..\..\..\arduinoLCD\test\Pain Drain\libraries\lvgl\src\draw\sw/lv_draw_sw_img.c ****                 }
 1184              		.loc 1 178 0 discriminator 2
 1185 0378 7619     		adds	r6, r6, r5
 1186              	.LVL153:
 1187              	.LBE87:
 167:..\..\..\arduinoLCD\test\Pain Drain\libraries\lvgl\src\draw\sw/lv_draw_sw_img.c ****                     lv_draw_mask_res_t mask_res_line;
 1188              		.loc 1 167 0 discriminator 2
 1189 037a 0134     		adds	r4, r4, #1
 1190              	.LVL154:
 1191 037c 24B2     		sxth	r4, r4
 1192              	.LVL155:
 1193              	.L37:
 167:..\..\..\arduinoLCD\test\Pain Drain\libraries\lvgl\src\draw\sw/lv_draw_sw_img.c ****                     lv_draw_mask_res_t mask_res_line;
 1194              		.loc 1 167 0 is_stmt 0 discriminator 1
 1195 037e 20AB     		add	r3, sp, #128
 1196 0380 0622     		movs	r2, #6
 1197 0382 9B5E     		ldrsh	r3, [r3, r2]
 1198 0384 9C42     		cmp	r4, r3
 1199 0386 E0DD     		ble	.L40
 1200 0388 4646     		mov	r6, r8
 1201              	.LVL156:
 1202              	.L36:
 1203              	.LBE86:
 184:..\..\..\arduinoLCD\test\Pain Drain\libraries\lvgl\src\draw\sw/lv_draw_sw_img.c **** 
 1204              		.loc 1 184 0 is_stmt 1
 1205 038a 19A9     		add	r1, sp, #100
 1206 038c 0B98     		ldr	r0, [sp, #44]
 1207 038e FFF7FEFF 		bl	lv_draw_sw_blend
 1208              	.LVL157:
 187:..\..\..\arduinoLCD\test\Pain Drain\libraries\lvgl\src\draw\sw/lv_draw_sw_img.c ****             blend_area.y2 = blend_area.y1 + buf_h - 1;
 1209              		.loc 1 187 0
 1210 0392 20AA     		add	r2, sp, #128
 1211 0394 0621     		movs	r1, #6
 1212 0396 535E     		ldrsh	r3, [r2, r1]
 1213 0398 0133     		adds	r3, r3, #1
 1214 039a 9BB2     		uxth	r3, r3
 1215 039c 5380     		strh	r3, [r2, #2]
 188:..\..\..\arduinoLCD\test\Pain Drain\libraries\lvgl\src\draw\sw/lv_draw_sw_img.c ****             if(blend_area.y2 > y_last) blend_area.y2 = y_last;
 1216              		.loc 1 188 0
 1217 039e 1299     		ldr	r1, [sp, #72]
 1218 03a0 8C46     		mov	ip, r1
 1219 03a2 6344     		add	r3, r3, ip
 1220 03a4 013B     		subs	r3, r3, #1
 1221 03a6 1BB2     		sxth	r3, r3
 1222 03a8 D380     		strh	r3, [r2, #6]
 189:..\..\..\arduinoLCD\test\Pain Drain\libraries\lvgl\src\draw\sw/lv_draw_sw_img.c ****         }
 1223              		.loc 1 189 0
 1224 03aa 0999     		ldr	r1, [sp, #36]
 1225 03ac 9942     		cmp	r1, r3
 1226 03ae 01DA     		bge	.L30
 189:..\..\..\arduinoLCD\test\Pain Drain\libraries\lvgl\src\draw\sw/lv_draw_sw_img.c ****         }
 1227              		.loc 1 189 0 is_stmt 0 discriminator 1
 1228 03b0 20AB     		add	r3, sp, #128
 1229 03b2 D980     		strh	r1, [r3, #6]
 1230              	.L30:
 1231              	.LBE78:
 137:..\..\..\arduinoLCD\test\Pain Drain\libraries\lvgl\src\draw\sw/lv_draw_sw_img.c ****             /*Apply transformations if any or separate the channels*/
ARM GAS  C:\Users\haske\AppData\Local\Temp\ccpEN9oH.s 			page 41


 1232              		.loc 1 137 0 is_stmt 1
 1233 03b4 20AB     		add	r3, sp, #128
 1234 03b6 0222     		movs	r2, #2
 1235 03b8 9A5E     		ldrsh	r2, [r3, r2]
 1236 03ba 099B     		ldr	r3, [sp, #36]
 1237 03bc 9342     		cmp	r3, r2
 1238 03be 00DB     		blt	.LCB1270
 1239 03c0 22E7     		b	.L42	@long jump
 1240              	.LCB1270:
 192:..\..\..\arduinoLCD\test\Pain Drain\libraries\lvgl\src\draw\sw/lv_draw_sw_img.c ****         lv_mem_buf_release(rgb_buf);
 1241              		.loc 1 192 0
 1242 03c2 0C98     		ldr	r0, [sp, #48]
 1243 03c4 FFF7FEFF 		bl	lv_mem_buf_release
 1244              	.LVL158:
 193:..\..\..\arduinoLCD\test\Pain Drain\libraries\lvgl\src\draw\sw/lv_draw_sw_img.c ****     }
 1245              		.loc 1 193 0
 1246 03c8 3000     		movs	r0, r6
 1247 03ca FFF7FEFF 		bl	lv_mem_buf_release
 1248              	.LVL159:
 1249              	.L20:
 1250              	.LBE69:
 195:..\..\..\arduinoLCD\test\Pain Drain\libraries\lvgl\src\draw\sw/lv_draw_sw_img.c **** 
 1251              		.loc 1 195 0
 1252 03ce 25B0     		add	sp, sp, #148
 1253              		@ sp needed
 1254 03d0 3CBC     		pop	{r2, r3, r4, r5}
 1255 03d2 9046     		mov	r8, r2
 1256 03d4 9946     		mov	r9, r3
 1257 03d6 A246     		mov	r10, r4
 1258 03d8 AB46     		mov	fp, r5
 1259 03da F0BD     		pop	{r4, r5, r6, r7, pc}
 1260              	.L46:
 1261              		.align	2
 1262              	.L45:
 1263 03dc 1FF8FFFF 		.word	-2017
 1264              		.cfi_endproc
 1265              	.LFE159:
 1266              		.size	lv_draw_sw_img_decoded, .-lv_draw_sw_img_decoded
 1267              		.text
 1268              	.Letext0:
 1269              		.file 4 "c:\\program files (x86)\\cypress\\psoc creator\\4.4\\psoc creator\\import\\gnu\\arm\\5.4.
 1270              		.file 5 "c:\\program files (x86)\\cypress\\psoc creator\\4.4\\psoc creator\\import\\gnu\\arm\\5.4.
 1271              		.file 6 "c:\\projects\\paindrain\\arduinolcd\\test\\pain drain\\libraries\\lvgl\\src\\misc\\lv_typ
 1272              		.file 7 "c:\\program files (x86)\\cypress\\psoc creator\\4.4\\psoc creator\\import\\gnu\\arm\\5.4.
 1273              		.file 8 "c:\\projects\\paindrain\\arduinolcd\\test\\pain drain\\libraries\\lvgl\\src\\font\\lv_fon
 1274              		.file 9 "c:\\projects\\paindrain\\arduinolcd\\test\\pain drain\\libraries\\lvgl\\src\\misc\\lv_txt
 1275              		.file 10 "c:\\projects\\paindrain\\arduinolcd\\test\\pain drain\\libraries\\lvgl\\src\\misc\\lv_bi
 1276              		.file 11 "c:\\projects\\paindrain\\arduinolcd\\test\\pain drain\\libraries\\lvgl\\src\\misc\\lv_st
 1277              		.file 12 "..\\..\\..\\arduinoLCD\\test\\Pain Drain\\libraries\\lvgl\\src\\draw\\sw\\../lv_draw_mas
 1278              		.file 13 "..\\..\\..\\arduinoLCD\\test\\Pain Drain\\libraries\\lvgl\\src\\draw\\sw\\lv_draw_sw_ble
 1279              		.file 14 "..\\..\\..\\arduinoLCD\\test\\Pain Drain\\libraries\\lvgl\\src\\draw\\sw\\../lv_img_buf.
 1280              		.file 15 "..\\..\\..\\arduinoLCD\\test\\Pain Drain\\libraries\\lvgl\\src\\draw\\sw\\../lv_draw_rec
 1281              		.file 16 "..\\..\\..\\arduinoLCD\\test\\Pain Drain\\libraries\\lvgl\\src\\draw\\sw\\../lv_draw_lab
 1282              		.file 17 "..\\..\\..\\arduinoLCD\\test\\Pain Drain\\libraries\\lvgl\\src\\draw\\sw\\../lv_draw_img
 1283              		.file 18 "..\\..\\..\\arduinoLCD\\test\\Pain Drain\\libraries\\lvgl\\src\\draw\\sw\\../lv_draw_lin
 1284              		.file 19 "..\\..\\..\\arduinoLCD\\test\\Pain Drain\\libraries\\lvgl\\src\\draw\\sw\\../lv_draw_arc
 1285              		.file 20 "..\\..\\..\\arduinoLCD\\test\\Pain Drain\\libraries\\lvgl\\src\\draw\\sw\\../lv_draw_lay
ARM GAS  C:\Users\haske\AppData\Local\Temp\ccpEN9oH.s 			page 42


 1286              		.file 21 "..\\..\\..\\arduinoLCD\\test\\Pain Drain\\libraries\\lvgl\\src\\draw\\sw\\../lv_draw.h"
 1287              		.file 22 "c:\\projects\\paindrain\\arduinolcd\\test\\pain drain\\libraries\\lvgl\\src\\misc\\lv_me
 1288              		.file 23 "..\\..\\..\\arduinoLCD\\test\\Pain Drain\\libraries\\lvgl\\src\\draw\\sw\\../lv_draw_tra
 1289              		.file 24 "c:\\projects\\paindrain\\arduinolcd\\test\\pain drain\\libraries\\lvgl\\src\\core\\lv_re
 1290              		.file 25 "c:\\projects\\paindrain\\arduinolcd\\test\\pain drain\\libraries\\lvgl\\src\\hal\\lv_hal
 1291              		.section	.debug_info,"",%progbits
 1292              	.Ldebug_info0:
 1293 0000 A7180000 		.4byte	0x18a7
 1294 0004 0400     		.2byte	0x4
 1295 0006 00000000 		.4byte	.Ldebug_abbrev0
 1296 000a 04       		.byte	0x4
 1297 000b 01       		.uleb128 0x1
 1298 000c AA030000 		.4byte	.LASF286
 1299 0010 0C       		.byte	0xc
 1300 0011 8B020000 		.4byte	.LASF287
 1301 0015 4E0E0000 		.4byte	.LASF288
 1302 0019 00000000 		.4byte	.Ldebug_ranges0+0
 1303 001d 00000000 		.4byte	0
 1304 0021 00000000 		.4byte	.Ldebug_line0
 1305 0025 02       		.uleb128 0x2
 1306 0026 B00B0000 		.4byte	.LASF0
 1307 002a 04       		.byte	0x4
 1308 002b 1B       		.byte	0x1b
 1309 002c 30000000 		.4byte	0x30
 1310 0030 03       		.uleb128 0x3
 1311 0031 01       		.byte	0x1
 1312 0032 06       		.byte	0x6
 1313 0033 6D020000 		.4byte	.LASF2
 1314 0037 02       		.uleb128 0x2
 1315 0038 C2010000 		.4byte	.LASF1
 1316 003c 04       		.byte	0x4
 1317 003d 1D       		.byte	0x1d
 1318 003e 42000000 		.4byte	0x42
 1319 0042 03       		.uleb128 0x3
 1320 0043 01       		.byte	0x1
 1321 0044 08       		.byte	0x8
 1322 0045 28030000 		.4byte	.LASF3
 1323 0049 02       		.uleb128 0x2
 1324 004a C40C0000 		.4byte	.LASF4
 1325 004e 04       		.byte	0x4
 1326 004f 29       		.byte	0x29
 1327 0050 54000000 		.4byte	0x54
 1328 0054 03       		.uleb128 0x3
 1329 0055 02       		.byte	0x2
 1330 0056 05       		.byte	0x5
 1331 0057 AE0D0000 		.4byte	.LASF5
 1332 005b 02       		.uleb128 0x2
 1333 005c D5040000 		.4byte	.LASF6
 1334 0060 04       		.byte	0x4
 1335 0061 2B       		.byte	0x2b
 1336 0062 66000000 		.4byte	0x66
 1337 0066 03       		.uleb128 0x3
 1338 0067 02       		.byte	0x2
 1339 0068 07       		.byte	0x7
 1340 0069 730F0000 		.4byte	.LASF7
 1341 006d 02       		.uleb128 0x2
 1342 006e E10F0000 		.4byte	.LASF8
ARM GAS  C:\Users\haske\AppData\Local\Temp\ccpEN9oH.s 			page 43


 1343 0072 04       		.byte	0x4
 1344 0073 3F       		.byte	0x3f
 1345 0074 78000000 		.4byte	0x78
 1346 0078 03       		.uleb128 0x3
 1347 0079 04       		.byte	0x4
 1348 007a 05       		.byte	0x5
 1349 007b F7010000 		.4byte	.LASF9
 1350 007f 02       		.uleb128 0x2
 1351 0080 9C070000 		.4byte	.LASF10
 1352 0084 04       		.byte	0x4
 1353 0085 41       		.byte	0x41
 1354 0086 8A000000 		.4byte	0x8a
 1355 008a 03       		.uleb128 0x3
 1356 008b 04       		.byte	0x4
 1357 008c 07       		.byte	0x7
 1358 008d B5060000 		.4byte	.LASF11
 1359 0091 03       		.uleb128 0x3
 1360 0092 08       		.byte	0x8
 1361 0093 05       		.byte	0x5
 1362 0094 B7070000 		.4byte	.LASF12
 1363 0098 03       		.uleb128 0x3
 1364 0099 08       		.byte	0x8
 1365 009a 07       		.byte	0x7
 1366 009b CF0B0000 		.4byte	.LASF13
 1367 009f 04       		.uleb128 0x4
 1368 00a0 04       		.byte	0x4
 1369 00a1 05       		.byte	0x5
 1370 00a2 696E7400 		.ascii	"int\000"
 1371 00a6 03       		.uleb128 0x3
 1372 00a7 04       		.byte	0x4
 1373 00a8 07       		.byte	0x7
 1374 00a9 A8080000 		.4byte	.LASF14
 1375 00ad 02       		.uleb128 0x2
 1376 00ae 00000000 		.4byte	.LASF15
 1377 00b2 05       		.byte	0x5
 1378 00b3 14       		.byte	0x14
 1379 00b4 25000000 		.4byte	0x25
 1380 00b8 02       		.uleb128 0x2
 1381 00b9 79020000 		.4byte	.LASF16
 1382 00bd 05       		.byte	0x5
 1383 00be 18       		.byte	0x18
 1384 00bf 37000000 		.4byte	0x37
 1385 00c3 02       		.uleb128 0x2
 1386 00c4 ED0D0000 		.4byte	.LASF17
 1387 00c8 05       		.byte	0x5
 1388 00c9 20       		.byte	0x20
 1389 00ca 49000000 		.4byte	0x49
 1390 00ce 02       		.uleb128 0x2
 1391 00cf F90B0000 		.4byte	.LASF18
 1392 00d3 05       		.byte	0x5
 1393 00d4 24       		.byte	0x24
 1394 00d5 5B000000 		.4byte	0x5b
 1395 00d9 02       		.uleb128 0x2
 1396 00da 62000000 		.4byte	.LASF19
 1397 00de 05       		.byte	0x5
 1398 00df 2C       		.byte	0x2c
 1399 00e0 6D000000 		.4byte	0x6d
ARM GAS  C:\Users\haske\AppData\Local\Temp\ccpEN9oH.s 			page 44


 1400 00e4 02       		.uleb128 0x2
 1401 00e5 2D0F0000 		.4byte	.LASF20
 1402 00e9 05       		.byte	0x5
 1403 00ea 30       		.byte	0x30
 1404 00eb 7F000000 		.4byte	0x7f
 1405 00ef 02       		.uleb128 0x2
 1406 00f0 180B0000 		.4byte	.LASF21
 1407 00f4 06       		.byte	0x6
 1408 00f5 2F       		.byte	0x2f
 1409 00f6 B8000000 		.4byte	0xb8
 1410 00fa 02       		.uleb128 0x2
 1411 00fb 33000000 		.4byte	.LASF22
 1412 00ff 07       		.byte	0x7
 1413 0100 D8       		.byte	0xd8
 1414 0101 A6000000 		.4byte	0xa6
 1415 0105 03       		.uleb128 0x3
 1416 0106 08       		.byte	0x8
 1417 0107 04       		.byte	0x4
 1418 0108 210B0000 		.4byte	.LASF23
 1419 010c 03       		.uleb128 0x3
 1420 010d 04       		.byte	0x4
 1421 010e 07       		.byte	0x7
 1422 010f 40000000 		.4byte	.LASF24
 1423 0113 05       		.uleb128 0x5
 1424 0114 04       		.byte	0x4
 1425 0115 03       		.uleb128 0x3
 1426 0116 01       		.byte	0x1
 1427 0117 08       		.byte	0x8
 1428 0118 66040000 		.4byte	.LASF25
 1429 011c 06       		.uleb128 0x6
 1430 011d 01       		.byte	0x1
 1431 011e 42000000 		.4byte	0x42
 1432 0122 03       		.byte	0x3
 1433 0123 29       		.byte	0x29
 1434 0124 77010000 		.4byte	0x177
 1435 0128 07       		.uleb128 0x7
 1436 0129 66080000 		.4byte	.LASF26
 1437 012d 00       		.byte	0
 1438 012e 07       		.uleb128 0x7
 1439 012f 44070000 		.4byte	.LASF27
 1440 0133 00       		.byte	0
 1441 0134 07       		.uleb128 0x7
 1442 0135 770C0000 		.4byte	.LASF28
 1443 0139 19       		.byte	0x19
 1444 013a 07       		.uleb128 0x7
 1445 013b F90C0000 		.4byte	.LASF29
 1446 013f 33       		.byte	0x33
 1447 0140 07       		.uleb128 0x7
 1448 0141 6A0D0000 		.4byte	.LASF30
 1449 0145 4C       		.byte	0x4c
 1450 0146 07       		.uleb128 0x7
 1451 0147 E30D0000 		.4byte	.LASF31
 1452 014b 66       		.byte	0x66
 1453 014c 07       		.uleb128 0x7
 1454 014d 250E0000 		.4byte	.LASF32
 1455 0151 7F       		.byte	0x7f
 1456 0152 07       		.uleb128 0x7
ARM GAS  C:\Users\haske\AppData\Local\Temp\ccpEN9oH.s 			page 45


 1457 0153 EF0E0000 		.4byte	.LASF33
 1458 0157 99       		.byte	0x99
 1459 0158 07       		.uleb128 0x7
 1460 0159 690F0000 		.4byte	.LASF34
 1461 015d B2       		.byte	0xb2
 1462 015e 07       		.uleb128 0x7
 1463 015f F90F0000 		.4byte	.LASF35
 1464 0163 CC       		.byte	0xcc
 1465 0164 07       		.uleb128 0x7
 1466 0165 5C100000 		.4byte	.LASF36
 1467 0169 E5       		.byte	0xe5
 1468 016a 07       		.uleb128 0x7
 1469 016b 450A0000 		.4byte	.LASF37
 1470 016f FF       		.byte	0xff
 1471 0170 07       		.uleb128 0x7
 1472 0171 5D0B0000 		.4byte	.LASF38
 1473 0175 FF       		.byte	0xff
 1474 0176 00       		.byte	0
 1475 0177 08       		.uleb128 0x8
 1476 0178 02       		.byte	0x2
 1477 0179 03       		.byte	0x3
 1478 017a D1       		.byte	0xd1
 1479 017b AD010000 		.4byte	0x1ad
 1480 017f 09       		.uleb128 0x9
 1481 0180 18030000 		.4byte	.LASF39
 1482 0184 03       		.byte	0x3
 1483 0185 D3       		.byte	0xd3
 1484 0186 CE000000 		.4byte	0xce
 1485 018a 02       		.byte	0x2
 1486 018b 05       		.byte	0x5
 1487 018c 0B       		.byte	0xb
 1488 018d 00       		.byte	0
 1489 018e 09       		.uleb128 0x9
 1490 018f 520F0000 		.4byte	.LASF40
 1491 0193 03       		.byte	0x3
 1492 0194 D4       		.byte	0xd4
 1493 0195 CE000000 		.4byte	0xce
 1494 0199 02       		.byte	0x2
 1495 019a 06       		.byte	0x6
 1496 019b 05       		.byte	0x5
 1497 019c 00       		.byte	0
 1498 019d 0A       		.uleb128 0xa
 1499 019e 72656400 		.ascii	"red\000"
 1500 01a2 03       		.byte	0x3
 1501 01a3 D5       		.byte	0xd5
 1502 01a4 CE000000 		.4byte	0xce
 1503 01a8 02       		.byte	0x2
 1504 01a9 05       		.byte	0x5
 1505 01aa 00       		.byte	0
 1506 01ab 00       		.byte	0
 1507 01ac 00       		.byte	0
 1508 01ad 0B       		.uleb128 0xb
 1509 01ae 02       		.byte	0x2
 1510 01af 03       		.byte	0x3
 1511 01b0 D0       		.byte	0xd0
 1512 01b1 CB010000 		.4byte	0x1cb
 1513 01b5 0C       		.uleb128 0xc
ARM GAS  C:\Users\haske\AppData\Local\Temp\ccpEN9oH.s 			page 46


 1514 01b6 636800   		.ascii	"ch\000"
 1515 01b9 03       		.byte	0x3
 1516 01ba DC       		.byte	0xdc
 1517 01bb 77010000 		.4byte	0x177
 1518 01bf 0D       		.uleb128 0xd
 1519 01c0 E00C0000 		.4byte	.LASF41
 1520 01c4 03       		.byte	0x3
 1521 01c5 DD       		.byte	0xdd
 1522 01c6 CE000000 		.4byte	0xce
 1523 01ca 00       		.byte	0
 1524 01cb 02       		.uleb128 0x2
 1525 01cc 9B0D0000 		.4byte	.LASF42
 1526 01d0 03       		.byte	0x3
 1527 01d1 DE       		.byte	0xde
 1528 01d2 AD010000 		.4byte	0x1ad
 1529 01d6 02       		.uleb128 0x2
 1530 01d7 1A0C0000 		.4byte	.LASF43
 1531 01db 03       		.byte	0x3
 1532 01dc EB       		.byte	0xeb
 1533 01dd CB010000 		.4byte	0x1cb
 1534 01e1 02       		.uleb128 0x2
 1535 01e2 51000000 		.4byte	.LASF44
 1536 01e6 03       		.byte	0x3
 1537 01e7 F5       		.byte	0xf5
 1538 01e8 B8000000 		.4byte	0xb8
 1539 01ec 02       		.uleb128 0x2
 1540 01ed 8E0F0000 		.4byte	.LASF45
 1541 01f1 02       		.byte	0x2
 1542 01f2 1B       		.byte	0x1b
 1543 01f3 C3000000 		.4byte	0xc3
 1544 01f7 08       		.uleb128 0x8
 1545 01f8 04       		.byte	0x4
 1546 01f9 02       		.byte	0x2
 1547 01fa 25       		.byte	0x25
 1548 01fb 14020000 		.4byte	0x214
 1549 01ff 0E       		.uleb128 0xe
 1550 0200 7800     		.ascii	"x\000"
 1551 0202 02       		.byte	0x2
 1552 0203 26       		.byte	0x26
 1553 0204 EC010000 		.4byte	0x1ec
 1554 0208 00       		.byte	0
 1555 0209 0E       		.uleb128 0xe
 1556 020a 7900     		.ascii	"y\000"
 1557 020c 02       		.byte	0x2
 1558 020d 27       		.byte	0x27
 1559 020e EC010000 		.4byte	0x1ec
 1560 0212 02       		.byte	0x2
 1561 0213 00       		.byte	0
 1562 0214 02       		.uleb128 0x2
 1563 0215 96000000 		.4byte	.LASF46
 1564 0219 02       		.byte	0x2
 1565 021a 28       		.byte	0x28
 1566 021b F7010000 		.4byte	0x1f7
 1567 021f 08       		.uleb128 0x8
 1568 0220 08       		.byte	0x8
 1569 0221 02       		.byte	0x2
 1570 0222 2B       		.byte	0x2b
ARM GAS  C:\Users\haske\AppData\Local\Temp\ccpEN9oH.s 			page 47


 1571 0223 54020000 		.4byte	0x254
 1572 0227 0E       		.uleb128 0xe
 1573 0228 783100   		.ascii	"x1\000"
 1574 022b 02       		.byte	0x2
 1575 022c 2C       		.byte	0x2c
 1576 022d EC010000 		.4byte	0x1ec
 1577 0231 00       		.byte	0
 1578 0232 0E       		.uleb128 0xe
 1579 0233 793100   		.ascii	"y1\000"
 1580 0236 02       		.byte	0x2
 1581 0237 2D       		.byte	0x2d
 1582 0238 EC010000 		.4byte	0x1ec
 1583 023c 02       		.byte	0x2
 1584 023d 0E       		.uleb128 0xe
 1585 023e 783200   		.ascii	"x2\000"
 1586 0241 02       		.byte	0x2
 1587 0242 2E       		.byte	0x2e
 1588 0243 EC010000 		.4byte	0x1ec
 1589 0247 04       		.byte	0x4
 1590 0248 0E       		.uleb128 0xe
 1591 0249 793200   		.ascii	"y2\000"
 1592 024c 02       		.byte	0x2
 1593 024d 2F       		.byte	0x2f
 1594 024e EC010000 		.4byte	0x1ec
 1595 0252 06       		.byte	0x6
 1596 0253 00       		.byte	0
 1597 0254 02       		.uleb128 0x2
 1598 0255 92050000 		.4byte	.LASF47
 1599 0259 02       		.byte	0x2
 1600 025a 30       		.byte	0x30
 1601 025b 1F020000 		.4byte	0x21f
 1602 025f 08       		.uleb128 0x8
 1603 0260 10       		.byte	0x10
 1604 0261 08       		.byte	0x8
 1605 0262 29       		.byte	0x29
 1606 0263 CE020000 		.4byte	0x2ce
 1607 0267 0F       		.uleb128 0xf
 1608 0268 1A070000 		.4byte	.LASF48
 1609 026c 08       		.byte	0x8
 1610 026d 2B       		.byte	0x2b
 1611 026e 56030000 		.4byte	0x356
 1612 0272 00       		.byte	0
 1613 0273 0F       		.uleb128 0xf
 1614 0274 3A000000 		.4byte	.LASF49
 1615 0278 08       		.byte	0x8
 1616 0279 2C       		.byte	0x2c
 1617 027a CE000000 		.4byte	0xce
 1618 027e 04       		.byte	0x4
 1619 027f 0F       		.uleb128 0xf
 1620 0280 A80D0000 		.4byte	.LASF50
 1621 0284 08       		.byte	0x8
 1622 0285 2D       		.byte	0x2d
 1623 0286 CE000000 		.4byte	0xce
 1624 028a 06       		.byte	0x6
 1625 028b 0F       		.uleb128 0xf
 1626 028c 860D0000 		.4byte	.LASF51
 1627 0290 08       		.byte	0x8
ARM GAS  C:\Users\haske\AppData\Local\Temp\ccpEN9oH.s 			page 48


 1628 0291 2E       		.byte	0x2e
 1629 0292 CE000000 		.4byte	0xce
 1630 0296 08       		.byte	0x8
 1631 0297 0F       		.uleb128 0xf
 1632 0298 69030000 		.4byte	.LASF52
 1633 029c 08       		.byte	0x8
 1634 029d 2F       		.byte	0x2f
 1635 029e C3000000 		.4byte	0xc3
 1636 02a2 0A       		.byte	0xa
 1637 02a3 0F       		.uleb128 0xf
 1638 02a4 6F030000 		.4byte	.LASF53
 1639 02a8 08       		.byte	0x8
 1640 02a9 30       		.byte	0x30
 1641 02aa C3000000 		.4byte	0xc3
 1642 02ae 0C       		.byte	0xc
 1643 02af 0A       		.uleb128 0xa
 1644 02b0 62707000 		.ascii	"bpp\000"
 1645 02b4 08       		.byte	0x8
 1646 02b5 31       		.byte	0x31
 1647 02b6 B8000000 		.4byte	0xb8
 1648 02ba 01       		.byte	0x1
 1649 02bb 04       		.byte	0x4
 1650 02bc 04       		.byte	0x4
 1651 02bd 0E       		.byte	0xe
 1652 02be 09       		.uleb128 0x9
 1653 02bf 40100000 		.4byte	.LASF54
 1654 02c3 08       		.byte	0x8
 1655 02c4 32       		.byte	0x32
 1656 02c5 B8000000 		.4byte	0xb8
 1657 02c9 01       		.byte	0x1
 1658 02ca 01       		.byte	0x1
 1659 02cb 03       		.byte	0x3
 1660 02cc 0E       		.byte	0xe
 1661 02cd 00       		.byte	0
 1662 02ce 10       		.uleb128 0x10
 1663 02cf 91070000 		.4byte	.LASF198
 1664 02d3 1C       		.byte	0x1c
 1665 02d4 08       		.byte	0x8
 1666 02d5 40       		.byte	0x40
 1667 02d6 56030000 		.4byte	0x356
 1668 02da 0F       		.uleb128 0xf
 1669 02db D30F0000 		.4byte	.LASF55
 1670 02df 08       		.byte	0x8
 1671 02e0 42       		.byte	0x42
 1672 02e1 97030000 		.4byte	0x397
 1673 02e5 00       		.byte	0
 1674 02e6 0F       		.uleb128 0xf
 1675 02e7 F7020000 		.4byte	.LASF56
 1676 02eb 08       		.byte	0x8
 1677 02ec 45       		.byte	0x45
 1678 02ed BC030000 		.4byte	0x3bc
 1679 02f1 04       		.byte	0x4
 1680 02f2 0F       		.uleb128 0xf
 1681 02f3 B1000000 		.4byte	.LASF57
 1682 02f7 08       		.byte	0x8
 1683 02f8 48       		.byte	0x48
 1684 02f9 EC010000 		.4byte	0x1ec
ARM GAS  C:\Users\haske\AppData\Local\Temp\ccpEN9oH.s 			page 49


 1685 02fd 08       		.byte	0x8
 1686 02fe 0F       		.uleb128 0xf
 1687 02ff B80D0000 		.4byte	.LASF58
 1688 0303 08       		.byte	0x8
 1689 0304 49       		.byte	0x49
 1690 0305 EC010000 		.4byte	0x1ec
 1691 0309 0A       		.byte	0xa
 1692 030a 09       		.uleb128 0x9
 1693 030b 570B0000 		.4byte	.LASF59
 1694 030f 08       		.byte	0x8
 1695 0310 4A       		.byte	0x4a
 1696 0311 B8000000 		.4byte	0xb8
 1697 0315 01       		.byte	0x1
 1698 0316 02       		.byte	0x2
 1699 0317 06       		.byte	0x6
 1700 0318 0C       		.byte	0xc
 1701 0319 0F       		.uleb128 0xf
 1702 031a 8A040000 		.4byte	.LASF60
 1703 031e 08       		.byte	0x8
 1704 031f 4C       		.byte	0x4c
 1705 0320 AD000000 		.4byte	0xad
 1706 0324 0D       		.byte	0xd
 1707 0325 0F       		.uleb128 0xf
 1708 0326 4C080000 		.4byte	.LASF61
 1709 032a 08       		.byte	0x8
 1710 032b 4D       		.byte	0x4d
 1711 032c AD000000 		.4byte	0xad
 1712 0330 0E       		.byte	0xe
 1713 0331 0E       		.uleb128 0xe
 1714 0332 64736300 		.ascii	"dsc\000"
 1715 0336 08       		.byte	0x8
 1716 0337 4F       		.byte	0x4f
 1717 0338 C2030000 		.4byte	0x3c2
 1718 033c 10       		.byte	0x10
 1719 033d 0F       		.uleb128 0xf
 1720 033e 76050000 		.4byte	.LASF62
 1721 0342 08       		.byte	0x8
 1722 0343 50       		.byte	0x50
 1723 0344 56030000 		.4byte	0x356
 1724 0348 14       		.byte	0x14
 1725 0349 0F       		.uleb128 0xf
 1726 034a BF0F0000 		.4byte	.LASF63
 1727 034e 08       		.byte	0x8
 1728 034f 52       		.byte	0x52
 1729 0350 13010000 		.4byte	0x113
 1730 0354 18       		.byte	0x18
 1731 0355 00       		.byte	0
 1732 0356 11       		.uleb128 0x11
 1733 0357 04       		.byte	0x4
 1734 0358 5C030000 		.4byte	0x35c
 1735 035c 12       		.uleb128 0x12
 1736 035d CE020000 		.4byte	0x2ce
 1737 0361 02       		.uleb128 0x2
 1738 0362 BB090000 		.4byte	.LASF64
 1739 0366 08       		.byte	0x8
 1740 0367 33       		.byte	0x33
 1741 0368 5F020000 		.4byte	0x25f
ARM GAS  C:\Users\haske\AppData\Local\Temp\ccpEN9oH.s 			page 50


 1742 036c 13       		.uleb128 0x13
 1743 036d 8A030000 		.4byte	0x38a
 1744 0371 8A030000 		.4byte	0x38a
 1745 0375 14       		.uleb128 0x14
 1746 0376 56030000 		.4byte	0x356
 1747 037a 14       		.uleb128 0x14
 1748 037b 91030000 		.4byte	0x391
 1749 037f 14       		.uleb128 0x14
 1750 0380 E4000000 		.4byte	0xe4
 1751 0384 14       		.uleb128 0x14
 1752 0385 E4000000 		.4byte	0xe4
 1753 0389 00       		.byte	0
 1754 038a 03       		.uleb128 0x3
 1755 038b 01       		.byte	0x1
 1756 038c 02       		.byte	0x2
 1757 038d 83030000 		.4byte	.LASF65
 1758 0391 11       		.uleb128 0x11
 1759 0392 04       		.byte	0x4
 1760 0393 61030000 		.4byte	0x361
 1761 0397 11       		.uleb128 0x11
 1762 0398 04       		.byte	0x4
 1763 0399 6C030000 		.4byte	0x36c
 1764 039d 13       		.uleb128 0x13
 1765 039e B1030000 		.4byte	0x3b1
 1766 03a2 B1030000 		.4byte	0x3b1
 1767 03a6 14       		.uleb128 0x14
 1768 03a7 56030000 		.4byte	0x356
 1769 03ab 14       		.uleb128 0x14
 1770 03ac E4000000 		.4byte	0xe4
 1771 03b0 00       		.byte	0
 1772 03b1 11       		.uleb128 0x11
 1773 03b2 04       		.byte	0x4
 1774 03b3 B7030000 		.4byte	0x3b7
 1775 03b7 12       		.uleb128 0x12
 1776 03b8 B8000000 		.4byte	0xb8
 1777 03bc 11       		.uleb128 0x11
 1778 03bd 04       		.byte	0x4
 1779 03be 9D030000 		.4byte	0x39d
 1780 03c2 11       		.uleb128 0x11
 1781 03c3 04       		.byte	0x4
 1782 03c4 C8030000 		.4byte	0x3c8
 1783 03c8 15       		.uleb128 0x15
 1784 03c9 02       		.uleb128 0x2
 1785 03ca 580F0000 		.4byte	.LASF66
 1786 03ce 08       		.byte	0x8
 1787 03cf 54       		.byte	0x54
 1788 03d0 CE020000 		.4byte	0x2ce
 1789 03d4 02       		.uleb128 0x2
 1790 03d5 680C0000 		.4byte	.LASF67
 1791 03d9 09       		.byte	0x9
 1792 03da 30       		.byte	0x30
 1793 03db B8000000 		.4byte	0xb8
 1794 03df 02       		.uleb128 0x2
 1795 03e0 3C080000 		.4byte	.LASF68
 1796 03e4 09       		.byte	0x9
 1797 03e5 42       		.byte	0x42
 1798 03e6 B8000000 		.4byte	0xb8
ARM GAS  C:\Users\haske\AppData\Local\Temp\ccpEN9oH.s 			page 51


 1799 03ea 02       		.uleb128 0x2
 1800 03eb 75030000 		.4byte	.LASF69
 1801 03ef 0A       		.byte	0xa
 1802 03f0 2A       		.byte	0x2a
 1803 03f1 B8000000 		.4byte	0xb8
 1804 03f5 02       		.uleb128 0x2
 1805 03f6 BD000000 		.4byte	.LASF70
 1806 03fa 0B       		.byte	0xb
 1807 03fb 5E       		.byte	0x5e
 1808 03fc B8000000 		.4byte	0xb8
 1809 0400 02       		.uleb128 0x2
 1810 0401 A7070000 		.4byte	.LASF71
 1811 0405 0B       		.byte	0xb
 1812 0406 6A       		.byte	0x6a
 1813 0407 B8000000 		.4byte	0xb8
 1814 040b 02       		.uleb128 0x2
 1815 040c 420D0000 		.4byte	.LASF72
 1816 0410 0B       		.byte	0xb
 1817 0411 79       		.byte	0x79
 1818 0412 B8000000 		.4byte	0xb8
 1819 0416 02       		.uleb128 0x2
 1820 0417 EB0F0000 		.4byte	.LASF73
 1821 041b 0B       		.byte	0xb
 1822 041c 84       		.byte	0x84
 1823 041d B8000000 		.4byte	0xb8
 1824 0421 02       		.uleb128 0x2
 1825 0422 2D0B0000 		.4byte	.LASF74
 1826 0426 0B       		.byte	0xb
 1827 0427 90       		.byte	0x90
 1828 0428 B8000000 		.4byte	0xb8
 1829 042c 08       		.uleb128 0x8
 1830 042d 04       		.byte	0x4
 1831 042e 0B       		.byte	0xb
 1832 042f 95       		.byte	0x95
 1833 0430 4D040000 		.4byte	0x44d
 1834 0434 0F       		.uleb128 0xf
 1835 0435 030D0000 		.4byte	.LASF75
 1836 0439 0B       		.byte	0xb
 1837 043a 96       		.byte	0x96
 1838 043b D6010000 		.4byte	0x1d6
 1839 043f 00       		.byte	0
 1840 0440 0F       		.uleb128 0xf
 1841 0441 530D0000 		.4byte	.LASF76
 1842 0445 0B       		.byte	0xb
 1843 0446 97       		.byte	0x97
 1844 0447 B8000000 		.4byte	0xb8
 1845 044b 02       		.byte	0x2
 1846 044c 00       		.byte	0
 1847 044d 02       		.uleb128 0x2
 1848 044e DC0E0000 		.4byte	.LASF77
 1849 0452 0B       		.byte	0xb
 1850 0453 98       		.byte	0x98
 1851 0454 2C040000 		.4byte	0x42c
 1852 0458 08       		.uleb128 0x8
 1853 0459 0A       		.byte	0xa
 1854 045a 0B       		.byte	0xb
 1855 045b 9B       		.byte	0x9b
ARM GAS  C:\Users\haske\AppData\Local\Temp\ccpEN9oH.s 			page 52


 1856 045c 97040000 		.4byte	0x497
 1857 0460 0F       		.uleb128 0xf
 1858 0461 190D0000 		.4byte	.LASF78
 1859 0465 0B       		.byte	0xb
 1860 0466 9C       		.byte	0x9c
 1861 0467 97040000 		.4byte	0x497
 1862 046b 00       		.byte	0
 1863 046c 0F       		.uleb128 0xf
 1864 046d C9040000 		.4byte	.LASF79
 1865 0471 0B       		.byte	0xb
 1866 0472 9D       		.byte	0x9d
 1867 0473 B8000000 		.4byte	0xb8
 1868 0477 08       		.byte	0x8
 1869 0478 0A       		.uleb128 0xa
 1870 0479 64697200 		.ascii	"dir\000"
 1871 047d 0B       		.byte	0xb
 1872 047e 9E       		.byte	0x9e
 1873 047f 16040000 		.4byte	0x416
 1874 0483 01       		.byte	0x1
 1875 0484 03       		.byte	0x3
 1876 0485 05       		.byte	0x5
 1877 0486 09       		.byte	0x9
 1878 0487 09       		.uleb128 0x9
 1879 0488 620F0000 		.4byte	.LASF80
 1880 048c 0B       		.byte	0xb
 1881 048d A0       		.byte	0xa0
 1882 048e 21040000 		.4byte	0x421
 1883 0492 01       		.byte	0x1
 1884 0493 03       		.byte	0x3
 1885 0494 02       		.byte	0x2
 1886 0495 09       		.byte	0x9
 1887 0496 00       		.byte	0
 1888 0497 16       		.uleb128 0x16
 1889 0498 4D040000 		.4byte	0x44d
 1890 049c A7040000 		.4byte	0x4a7
 1891 04a0 17       		.uleb128 0x17
 1892 04a1 0C010000 		.4byte	0x10c
 1893 04a5 01       		.byte	0x1
 1894 04a6 00       		.byte	0
 1895 04a7 02       		.uleb128 0x2
 1896 04a8 32100000 		.4byte	.LASF81
 1897 04ac 0B       		.byte	0xb
 1898 04ad A2       		.byte	0xa2
 1899 04ae 58040000 		.4byte	0x458
 1900 04b2 06       		.uleb128 0x6
 1901 04b3 01       		.byte	0x1
 1902 04b4 42000000 		.4byte	0x42
 1903 04b8 0C       		.byte	0xc
 1904 04b9 24       		.byte	0x24
 1905 04ba D7040000 		.4byte	0x4d7
 1906 04be 07       		.uleb128 0x7
 1907 04bf 990F0000 		.4byte	.LASF82
 1908 04c3 00       		.byte	0
 1909 04c4 07       		.uleb128 0x7
 1910 04c5 07000000 		.4byte	.LASF83
 1911 04c9 01       		.byte	0x1
 1912 04ca 07       		.uleb128 0x7
ARM GAS  C:\Users\haske\AppData\Local\Temp\ccpEN9oH.s 			page 53


 1913 04cb 01070000 		.4byte	.LASF84
 1914 04cf 02       		.byte	0x2
 1915 04d0 07       		.uleb128 0x7
 1916 04d1 3E0B0000 		.4byte	.LASF85
 1917 04d5 03       		.byte	0x3
 1918 04d6 00       		.byte	0
 1919 04d7 02       		.uleb128 0x2
 1920 04d8 14010000 		.4byte	.LASF86
 1921 04dc 0C       		.byte	0xc
 1922 04dd 2B       		.byte	0x2b
 1923 04de B8000000 		.4byte	0xb8
 1924 04e2 11       		.uleb128 0x11
 1925 04e3 04       		.byte	0x4
 1926 04e4 E1010000 		.4byte	0x1e1
 1927 04e8 11       		.uleb128 0x11
 1928 04e9 04       		.byte	0x4
 1929 04ea CE000000 		.4byte	0xce
 1930 04ee 08       		.uleb128 0x8
 1931 04ef 1C       		.byte	0x1c
 1932 04f0 0D       		.byte	0xd
 1933 04f1 1D       		.byte	0x1d
 1934 04f2 57050000 		.4byte	0x557
 1935 04f6 0F       		.uleb128 0xf
 1936 04f7 960C0000 		.4byte	.LASF87
 1937 04fb 0D       		.byte	0xd
 1938 04fc 1E       		.byte	0x1e
 1939 04fd 57050000 		.4byte	0x557
 1940 0501 00       		.byte	0
 1941 0502 0F       		.uleb128 0xf
 1942 0503 B60C0000 		.4byte	.LASF88
 1943 0507 0D       		.byte	0xd
 1944 0508 20       		.byte	0x20
 1945 0509 62050000 		.4byte	0x562
 1946 050d 04       		.byte	0x4
 1947 050e 0F       		.uleb128 0xf
 1948 050f 030D0000 		.4byte	.LASF75
 1949 0513 0D       		.byte	0xd
 1950 0514 21       		.byte	0x21
 1951 0515 D6010000 		.4byte	0x1d6
 1952 0519 08       		.byte	0x8
 1953 051a 0F       		.uleb128 0xf
 1954 051b DE070000 		.4byte	.LASF89
 1955 051f 0D       		.byte	0xd
 1956 0520 22       		.byte	0x22
 1957 0521 E2040000 		.4byte	0x4e2
 1958 0525 0C       		.byte	0xc
 1959 0526 0F       		.uleb128 0xf
 1960 0527 DB020000 		.4byte	.LASF90
 1961 052b 0D       		.byte	0xd
 1962 052c 23       		.byte	0x23
 1963 052d D7040000 		.4byte	0x4d7
 1964 0531 10       		.byte	0x10
 1965 0532 0F       		.uleb128 0xf
 1966 0533 9E080000 		.4byte	.LASF91
 1967 0537 0D       		.byte	0xd
 1968 0538 24       		.byte	0x24
 1969 0539 57050000 		.4byte	0x557
ARM GAS  C:\Users\haske\AppData\Local\Temp\ccpEN9oH.s 			page 54


 1970 053d 14       		.byte	0x14
 1971 053e 0E       		.uleb128 0xe
 1972 053f 6F706100 		.ascii	"opa\000"
 1973 0543 0D       		.byte	0xd
 1974 0544 25       		.byte	0x25
 1975 0545 E1010000 		.4byte	0x1e1
 1976 0549 18       		.byte	0x18
 1977 054a 0F       		.uleb128 0xf
 1978 054b CC010000 		.4byte	.LASF92
 1979 054f 0D       		.byte	0xd
 1980 0550 26       		.byte	0x26
 1981 0551 F5030000 		.4byte	0x3f5
 1982 0555 19       		.byte	0x19
 1983 0556 00       		.byte	0
 1984 0557 11       		.uleb128 0x11
 1985 0558 04       		.byte	0x4
 1986 0559 5D050000 		.4byte	0x55d
 1987 055d 12       		.uleb128 0x12
 1988 055e 54020000 		.4byte	0x254
 1989 0562 11       		.uleb128 0x11
 1990 0563 04       		.byte	0x4
 1991 0564 68050000 		.4byte	0x568
 1992 0568 12       		.uleb128 0x12
 1993 0569 D6010000 		.4byte	0x1d6
 1994 056d 02       		.uleb128 0x2
 1995 056e 3A010000 		.4byte	.LASF93
 1996 0572 0D       		.byte	0xd
 1997 0573 27       		.byte	0x27
 1998 0574 EE040000 		.4byte	0x4ee
 1999 0578 06       		.uleb128 0x6
 2000 0579 01       		.byte	0x1
 2001 057a 42000000 		.4byte	0x42
 2002 057e 0E       		.byte	0xe
 2003 057f 37       		.byte	0x37
 2004 0580 69060000 		.4byte	0x669
 2005 0584 07       		.uleb128 0x7
 2006 0585 360C0000 		.4byte	.LASF94
 2007 0589 00       		.byte	0
 2008 058a 07       		.uleb128 0x7
 2009 058b 49030000 		.4byte	.LASF95
 2010 058f 01       		.byte	0x1
 2011 0590 07       		.uleb128 0x7
 2012 0591 9D0E0000 		.4byte	.LASF96
 2013 0595 02       		.byte	0x2
 2014 0596 07       		.uleb128 0x7
 2015 0597 F4090000 		.4byte	.LASF97
 2016 059b 03       		.byte	0x3
 2017 059c 07       		.uleb128 0x7
 2018 059d 810C0000 		.4byte	.LASF98
 2019 05a1 04       		.byte	0x4
 2020 05a2 07       		.uleb128 0x7
 2021 05a3 B5080000 		.4byte	.LASF99
 2022 05a7 05       		.byte	0x5
 2023 05a8 07       		.uleb128 0x7
 2024 05a9 0F0A0000 		.4byte	.LASF100
 2025 05ad 06       		.byte	0x6
 2026 05ae 07       		.uleb128 0x7
ARM GAS  C:\Users\haske\AppData\Local\Temp\ccpEN9oH.s 			page 55


 2027 05af FD000000 		.4byte	.LASF101
 2028 05b3 07       		.byte	0x7
 2029 05b4 07       		.uleb128 0x7
 2030 05b5 1A090000 		.4byte	.LASF102
 2031 05b9 08       		.byte	0x8
 2032 05ba 07       		.uleb128 0x7
 2033 05bb 69090000 		.4byte	.LASF103
 2034 05bf 09       		.byte	0x9
 2035 05c0 07       		.uleb128 0x7
 2036 05c1 DD090000 		.4byte	.LASF104
 2037 05c5 0A       		.byte	0xa
 2038 05c6 07       		.uleb128 0x7
 2039 05c7 6A000000 		.4byte	.LASF105
 2040 05cb 0B       		.byte	0xb
 2041 05cc 07       		.uleb128 0x7
 2042 05cd 74080000 		.4byte	.LASF106
 2043 05d1 0C       		.byte	0xc
 2044 05d2 07       		.uleb128 0x7
 2045 05d3 89080000 		.4byte	.LASF107
 2046 05d7 0D       		.byte	0xd
 2047 05d8 07       		.uleb128 0x7
 2048 05d9 DA080000 		.4byte	.LASF108
 2049 05dd 0E       		.byte	0xe
 2050 05de 07       		.uleb128 0x7
 2051 05df 14100000 		.4byte	.LASF109
 2052 05e3 0F       		.byte	0xf
 2053 05e4 07       		.uleb128 0x7
 2054 05e5 1B020000 		.4byte	.LASF110
 2055 05e9 10       		.byte	0x10
 2056 05ea 07       		.uleb128 0x7
 2057 05eb 9C090000 		.4byte	.LASF111
 2058 05ef 11       		.byte	0x11
 2059 05f0 07       		.uleb128 0x7
 2060 05f1 0D050000 		.4byte	.LASF112
 2061 05f5 12       		.byte	0x12
 2062 05f6 07       		.uleb128 0x7
 2063 05f7 E4010000 		.4byte	.LASF113
 2064 05fb 13       		.byte	0x13
 2065 05fc 07       		.uleb128 0x7
 2066 05fd 070C0000 		.4byte	.LASF114
 2067 0601 14       		.byte	0x14
 2068 0602 07       		.uleb128 0x7
 2069 0603 A7050000 		.4byte	.LASF115
 2070 0607 15       		.byte	0x15
 2071 0608 07       		.uleb128 0x7
 2072 0609 BD050000 		.4byte	.LASF116
 2073 060d 16       		.byte	0x16
 2074 060e 07       		.uleb128 0x7
 2075 060f D3050000 		.4byte	.LASF117
 2076 0613 17       		.byte	0x17
 2077 0614 07       		.uleb128 0x7
 2078 0615 E9050000 		.4byte	.LASF118
 2079 0619 18       		.byte	0x18
 2080 061a 07       		.uleb128 0x7
 2081 061b FF050000 		.4byte	.LASF119
 2082 061f 19       		.byte	0x19
 2083 0620 07       		.uleb128 0x7
ARM GAS  C:\Users\haske\AppData\Local\Temp\ccpEN9oH.s 			page 56


 2084 0621 4A060000 		.4byte	.LASF120
 2085 0625 1A       		.byte	0x1a
 2086 0626 07       		.uleb128 0x7
 2087 0627 60060000 		.4byte	.LASF121
 2088 062b 1B       		.byte	0x1b
 2089 062c 07       		.uleb128 0x7
 2090 062d 76060000 		.4byte	.LASF122
 2091 0631 1C       		.byte	0x1c
 2092 0632 07       		.uleb128 0x7
 2093 0633 8C060000 		.4byte	.LASF123
 2094 0637 1D       		.byte	0x1d
 2095 0638 07       		.uleb128 0x7
 2096 0639 500A0000 		.4byte	.LASF124
 2097 063d 1E       		.byte	0x1e
 2098 063e 07       		.uleb128 0x7
 2099 063f 690A0000 		.4byte	.LASF125
 2100 0643 1F       		.byte	0x1f
 2101 0644 07       		.uleb128 0x7
 2102 0645 820A0000 		.4byte	.LASF126
 2103 0649 20       		.byte	0x20
 2104 064a 07       		.uleb128 0x7
 2105 064b 9B0A0000 		.4byte	.LASF127
 2106 064f 21       		.byte	0x21
 2107 0650 07       		.uleb128 0x7
 2108 0651 B40A0000 		.4byte	.LASF128
 2109 0655 22       		.byte	0x22
 2110 0656 07       		.uleb128 0x7
 2111 0657 CD0A0000 		.4byte	.LASF129
 2112 065b 23       		.byte	0x23
 2113 065c 07       		.uleb128 0x7
 2114 065d E60A0000 		.4byte	.LASF130
 2115 0661 24       		.byte	0x24
 2116 0662 07       		.uleb128 0x7
 2117 0663 FF0A0000 		.4byte	.LASF131
 2118 0667 25       		.byte	0x25
 2119 0668 00       		.byte	0
 2120 0669 02       		.uleb128 0x2
 2121 066a C7060000 		.4byte	.LASF132
 2122 066e 0E       		.byte	0xe
 2123 066f 69       		.byte	0x69
 2124 0670 B8000000 		.4byte	0xb8
 2125 0674 11       		.uleb128 0x11
 2126 0675 04       		.byte	0x4
 2127 0676 D6010000 		.4byte	0x1d6
 2128 067a 08       		.uleb128 0x8
 2129 067b 38       		.byte	0x38
 2130 067c 0F       		.byte	0xf
 2131 067d 20       		.byte	0x20
 2132 067e C1070000 		.4byte	0x7c1
 2133 0682 0F       		.uleb128 0xf
 2134 0683 A1000000 		.4byte	.LASF133
 2135 0687 0F       		.byte	0xf
 2136 0688 21       		.byte	0x21
 2137 0689 EC010000 		.4byte	0x1ec
 2138 068d 00       		.byte	0
 2139 068e 0F       		.uleb128 0xf
 2140 068f CC010000 		.4byte	.LASF92
ARM GAS  C:\Users\haske\AppData\Local\Temp\ccpEN9oH.s 			page 57


 2141 0693 0F       		.byte	0xf
 2142 0694 22       		.byte	0x22
 2143 0695 F5030000 		.4byte	0x3f5
 2144 0699 02       		.byte	0x2
 2145 069a 0F       		.uleb128 0xf
 2146 069b 00020000 		.4byte	.LASF134
 2147 069f 0F       		.byte	0xf
 2148 06a0 25       		.byte	0x25
 2149 06a1 E1010000 		.4byte	0x1e1
 2150 06a5 03       		.byte	0x3
 2151 06a6 0F       		.uleb128 0xf
 2152 06a7 A8000000 		.4byte	.LASF135
 2153 06ab 0F       		.byte	0xf
 2154 06ac 26       		.byte	0x26
 2155 06ad D6010000 		.4byte	0x1d6
 2156 06b1 04       		.byte	0x4
 2157 06b2 0F       		.uleb128 0xf
 2158 06b3 B10E0000 		.4byte	.LASF136
 2159 06b7 0F       		.byte	0xf
 2160 06b8 27       		.byte	0x27
 2161 06b9 A7040000 		.4byte	0x4a7
 2162 06bd 06       		.byte	0x6
 2163 06be 0F       		.uleb128 0xf
 2164 06bf 9E010000 		.4byte	.LASF137
 2165 06c3 0F       		.byte	0xf
 2166 06c4 2A       		.byte	0x2a
 2167 06c5 C2030000 		.4byte	0x3c2
 2168 06c9 10       		.byte	0x10
 2169 06ca 0F       		.uleb128 0xf
 2170 06cb A2060000 		.4byte	.LASF138
 2171 06cf 0F       		.byte	0xf
 2172 06d0 2B       		.byte	0x2b
 2173 06d1 C2030000 		.4byte	0x3c2
 2174 06d5 14       		.byte	0x14
 2175 06d6 0F       		.uleb128 0xf
 2176 06d7 8C0D0000 		.4byte	.LASF139
 2177 06db 0F       		.byte	0xf
 2178 06dc 2C       		.byte	0x2c
 2179 06dd D6010000 		.4byte	0x1d6
 2180 06e1 18       		.byte	0x18
 2181 06e2 0F       		.uleb128 0xf
 2182 06e3 1D030000 		.4byte	.LASF140
 2183 06e7 0F       		.byte	0xf
 2184 06e8 2D       		.byte	0x2d
 2185 06e9 E1010000 		.4byte	0x1e1
 2186 06ed 1A       		.byte	0x1a
 2187 06ee 0F       		.uleb128 0xf
 2188 06ef 6A0B0000 		.4byte	.LASF141
 2189 06f3 0F       		.byte	0xf
 2190 06f4 2E       		.byte	0x2e
 2191 06f5 E1010000 		.4byte	0x1e1
 2192 06f9 1B       		.byte	0x1b
 2193 06fa 0F       		.uleb128 0xf
 2194 06fb EA020000 		.4byte	.LASF142
 2195 06ff 0F       		.byte	0xf
 2196 0700 2F       		.byte	0x2f
 2197 0701 B8000000 		.4byte	0xb8
ARM GAS  C:\Users\haske\AppData\Local\Temp\ccpEN9oH.s 			page 58


 2198 0705 1C       		.byte	0x1c
 2199 0706 0F       		.uleb128 0xf
 2200 0707 EC040000 		.4byte	.LASF143
 2201 070b 0F       		.byte	0xf
 2202 070c 32       		.byte	0x32
 2203 070d D6010000 		.4byte	0x1d6
 2204 0711 1E       		.byte	0x1e
 2205 0712 0F       		.uleb128 0xf
 2206 0713 5B0C0000 		.4byte	.LASF144
 2207 0717 0F       		.byte	0xf
 2208 0718 33       		.byte	0x33
 2209 0719 EC010000 		.4byte	0x1ec
 2210 071d 20       		.byte	0x20
 2211 071e 0F       		.uleb128 0xf
 2212 071f 870E0000 		.4byte	.LASF145
 2213 0723 0F       		.byte	0xf
 2214 0724 34       		.byte	0x34
 2215 0725 E1010000 		.4byte	0x1e1
 2216 0729 22       		.byte	0x22
 2217 072a 09       		.uleb128 0x9
 2218 072b 29050000 		.4byte	.LASF146
 2219 072f 0F       		.byte	0xf
 2220 0730 35       		.byte	0x35
 2221 0731 B8000000 		.4byte	0xb8
 2222 0735 01       		.byte	0x1
 2223 0736 01       		.byte	0x1
 2224 0737 07       		.byte	0x7
 2225 0738 23       		.byte	0x23
 2226 0739 09       		.uleb128 0x9
 2227 073a B6010000 		.4byte	.LASF147
 2228 073e 0F       		.byte	0xf
 2229 073f 36       		.byte	0x36
 2230 0740 0B040000 		.4byte	0x40b
 2231 0744 01       		.byte	0x1
 2232 0745 05       		.byte	0x5
 2233 0746 02       		.byte	0x2
 2234 0747 23       		.byte	0x23
 2235 0748 0F       		.uleb128 0xf
 2236 0749 5F020000 		.4byte	.LASF148
 2237 074d 0F       		.byte	0xf
 2238 074e 39       		.byte	0x39
 2239 074f D6010000 		.4byte	0x1d6
 2240 0753 24       		.byte	0x24
 2241 0754 0F       		.uleb128 0xf
 2242 0755 CF090000 		.4byte	.LASF149
 2243 0759 0F       		.byte	0xf
 2244 075a 3A       		.byte	0x3a
 2245 075b EC010000 		.4byte	0x1ec
 2246 075f 26       		.byte	0x26
 2247 0760 0F       		.uleb128 0xf
 2248 0761 E0040000 		.4byte	.LASF150
 2249 0765 0F       		.byte	0xf
 2250 0766 3B       		.byte	0x3b
 2251 0767 EC010000 		.4byte	0x1ec
 2252 076b 28       		.byte	0x28
 2253 076c 0F       		.uleb128 0xf
 2254 076d 5D090000 		.4byte	.LASF151
ARM GAS  C:\Users\haske\AppData\Local\Temp\ccpEN9oH.s 			page 59


 2255 0771 0F       		.byte	0xf
 2256 0772 3C       		.byte	0x3c
 2257 0773 E1010000 		.4byte	0x1e1
 2258 0777 2A       		.byte	0x2a
 2259 0778 0F       		.uleb128 0xf
 2260 0779 C5070000 		.4byte	.LASF152
 2261 077d 0F       		.byte	0xf
 2262 077e 3F       		.byte	0x3f
 2263 077f D6010000 		.4byte	0x1d6
 2264 0783 2C       		.byte	0x2c
 2265 0784 0F       		.uleb128 0xf
 2266 0785 450F0000 		.4byte	.LASF153
 2267 0789 0F       		.byte	0xf
 2268 078a 40       		.byte	0x40
 2269 078b EC010000 		.4byte	0x1ec
 2270 078f 2E       		.byte	0x2e
 2271 0790 0F       		.uleb128 0xf
 2272 0791 4D050000 		.4byte	.LASF154
 2273 0795 0F       		.byte	0xf
 2274 0796 41       		.byte	0x41
 2275 0797 EC010000 		.4byte	0x1ec
 2276 079b 30       		.byte	0x30
 2277 079c 0F       		.uleb128 0xf
 2278 079d 25100000 		.4byte	.LASF155
 2279 07a1 0F       		.byte	0xf
 2280 07a2 42       		.byte	0x42
 2281 07a3 EC010000 		.4byte	0x1ec
 2282 07a7 32       		.byte	0x32
 2283 07a8 0F       		.uleb128 0xf
 2284 07a9 3C060000 		.4byte	.LASF156
 2285 07ad 0F       		.byte	0xf
 2286 07ae 43       		.byte	0x43
 2287 07af EC010000 		.4byte	0x1ec
 2288 07b3 34       		.byte	0x34
 2289 07b4 0F       		.uleb128 0xf
 2290 07b5 D80D0000 		.4byte	.LASF157
 2291 07b9 0F       		.byte	0xf
 2292 07ba 44       		.byte	0x44
 2293 07bb E1010000 		.4byte	0x1e1
 2294 07bf 36       		.byte	0x36
 2295 07c0 00       		.byte	0
 2296 07c1 02       		.uleb128 0x2
 2297 07c2 E60B0000 		.4byte	.LASF158
 2298 07c6 0F       		.byte	0xf
 2299 07c7 45       		.byte	0x45
 2300 07c8 7A060000 		.4byte	0x67a
 2301 07cc 08       		.uleb128 0x8
 2302 07cd 20       		.byte	0x20
 2303 07ce 10       		.byte	0x10
 2304 07cf 1E       		.byte	0x1e
 2305 07d0 9B080000 		.4byte	0x89b
 2306 07d4 0F       		.uleb128 0xf
 2307 07d5 580D0000 		.4byte	.LASF159
 2308 07d9 10       		.byte	0x10
 2309 07da 1F       		.byte	0x1f
 2310 07db 9B080000 		.4byte	0x89b
 2311 07df 00       		.byte	0
ARM GAS  C:\Users\haske\AppData\Local\Temp\ccpEN9oH.s 			page 60


 2312 07e0 0F       		.uleb128 0xf
 2313 07e1 230F0000 		.4byte	.LASF160
 2314 07e5 10       		.byte	0x10
 2315 07e6 20       		.byte	0x20
 2316 07e7 E4000000 		.4byte	0xe4
 2317 07eb 04       		.byte	0x4
 2318 07ec 0F       		.uleb128 0xf
 2319 07ed FE080000 		.4byte	.LASF161
 2320 07f1 10       		.byte	0x10
 2321 07f2 21       		.byte	0x21
 2322 07f3 E4000000 		.4byte	0xe4
 2323 07f7 08       		.byte	0x8
 2324 07f8 0F       		.uleb128 0xf
 2325 07f9 030D0000 		.4byte	.LASF75
 2326 07fd 10       		.byte	0x10
 2327 07fe 22       		.byte	0x22
 2328 07ff D6010000 		.4byte	0x1d6
 2329 0803 0C       		.byte	0xc
 2330 0804 0F       		.uleb128 0xf
 2331 0805 0A100000 		.4byte	.LASF162
 2332 0809 10       		.byte	0x10
 2333 080a 23       		.byte	0x23
 2334 080b D6010000 		.4byte	0x1d6
 2335 080f 0E       		.byte	0xe
 2336 0810 0F       		.uleb128 0xf
 2337 0811 A9010000 		.4byte	.LASF163
 2338 0815 10       		.byte	0x10
 2339 0816 24       		.byte	0x24
 2340 0817 D6010000 		.4byte	0x1d6
 2341 081b 10       		.byte	0x10
 2342 081c 0F       		.uleb128 0xf
 2343 081d 1F0D0000 		.4byte	.LASF164
 2344 0821 10       		.byte	0x10
 2345 0822 25       		.byte	0x25
 2346 0823 EC010000 		.4byte	0x1ec
 2347 0827 12       		.byte	0x12
 2348 0828 0F       		.uleb128 0xf
 2349 0829 5D0D0000 		.4byte	.LASF165
 2350 082d 10       		.byte	0x10
 2351 082e 26       		.byte	0x26
 2352 082f EC010000 		.4byte	0x1ec
 2353 0833 14       		.byte	0x14
 2354 0834 0F       		.uleb128 0xf
 2355 0835 69030000 		.4byte	.LASF52
 2356 0839 10       		.byte	0x10
 2357 083a 27       		.byte	0x27
 2358 083b EC010000 		.4byte	0x1ec
 2359 083f 16       		.byte	0x16
 2360 0840 0F       		.uleb128 0xf
 2361 0841 6F030000 		.4byte	.LASF53
 2362 0845 10       		.byte	0x10
 2363 0846 28       		.byte	0x28
 2364 0847 EC010000 		.4byte	0x1ec
 2365 084b 18       		.byte	0x18
 2366 084c 0E       		.uleb128 0xe
 2367 084d 6F706100 		.ascii	"opa\000"
 2368 0851 10       		.byte	0x10
ARM GAS  C:\Users\haske\AppData\Local\Temp\ccpEN9oH.s 			page 61


 2369 0852 29       		.byte	0x29
 2370 0853 E1010000 		.4byte	0x1e1
 2371 0857 1A       		.byte	0x1a
 2372 0858 0F       		.uleb128 0xf
 2373 0859 CD000000 		.4byte	.LASF166
 2374 085d 10       		.byte	0x10
 2375 085e 2A       		.byte	0x2a
 2376 085f EA030000 		.4byte	0x3ea
 2377 0863 1B       		.byte	0x1b
 2378 0864 0F       		.uleb128 0xf
 2379 0865 60080000 		.4byte	.LASF167
 2380 0869 10       		.byte	0x10
 2381 086a 2B       		.byte	0x2b
 2382 086b DF030000 		.4byte	0x3df
 2383 086f 1C       		.byte	0x1c
 2384 0870 0F       		.uleb128 0xf
 2385 0871 31090000 		.4byte	.LASF168
 2386 0875 10       		.byte	0x10
 2387 0876 2C       		.byte	0x2c
 2388 0877 D4030000 		.4byte	0x3d4
 2389 087b 1D       		.byte	0x1d
 2390 087c 09       		.uleb128 0x9
 2391 087d BE0C0000 		.4byte	.LASF169
 2392 0881 10       		.byte	0x10
 2393 0882 2D       		.byte	0x2d
 2394 0883 00040000 		.4byte	0x400
 2395 0887 01       		.byte	0x1
 2396 0888 03       		.byte	0x3
 2397 0889 05       		.byte	0x5
 2398 088a 1E       		.byte	0x1e
 2399 088b 09       		.uleb128 0x9
 2400 088c CC010000 		.4byte	.LASF92
 2401 0890 10       		.byte	0x10
 2402 0891 2E       		.byte	0x2e
 2403 0892 F5030000 		.4byte	0x3f5
 2404 0896 01       		.byte	0x1
 2405 0897 03       		.byte	0x3
 2406 0898 02       		.byte	0x2
 2407 0899 1E       		.byte	0x1e
 2408 089a 00       		.byte	0
 2409 089b 11       		.uleb128 0x11
 2410 089c 04       		.byte	0x4
 2411 089d A1080000 		.4byte	0x8a1
 2412 08a1 12       		.uleb128 0x12
 2413 08a2 C9030000 		.4byte	0x3c9
 2414 08a6 02       		.uleb128 0x2
 2415 08a7 07020000 		.4byte	.LASF170
 2416 08ab 10       		.byte	0x10
 2417 08ac 2F       		.byte	0x2f
 2418 08ad CC070000 		.4byte	0x7cc
 2419 08b1 08       		.uleb128 0x8
 2420 08b2 18       		.byte	0x18
 2421 08b3 11       		.byte	0x11
 2422 08b4 20       		.byte	0x20
 2423 08b5 2C090000 		.4byte	0x92c
 2424 08b9 0F       		.uleb128 0xf
 2425 08ba 6D070000 		.4byte	.LASF171
ARM GAS  C:\Users\haske\AppData\Local\Temp\ccpEN9oH.s 			page 62


 2426 08be 11       		.byte	0x11
 2427 08bf 22       		.byte	0x22
 2428 08c0 C3000000 		.4byte	0xc3
 2429 08c4 00       		.byte	0
 2430 08c5 0F       		.uleb128 0xf
 2431 08c6 60070000 		.4byte	.LASF172
 2432 08ca 11       		.byte	0x11
 2433 08cb 23       		.byte	0x23
 2434 08cc CE000000 		.4byte	0xce
 2435 08d0 02       		.byte	0x2
 2436 08d1 0F       		.uleb128 0xf
 2437 08d2 130D0000 		.4byte	.LASF173
 2438 08d6 11       		.byte	0x11
 2439 08d7 24       		.byte	0x24
 2440 08d8 14020000 		.4byte	0x214
 2441 08dc 04       		.byte	0x4
 2442 08dd 0F       		.uleb128 0xf
 2443 08de 65070000 		.4byte	.LASF174
 2444 08e2 11       		.byte	0x11
 2445 08e3 26       		.byte	0x26
 2446 08e4 D6010000 		.4byte	0x1d6
 2447 08e8 08       		.byte	0x8
 2448 08e9 0F       		.uleb128 0xf
 2449 08ea AF090000 		.4byte	.LASF175
 2450 08ee 11       		.byte	0x11
 2451 08ef 27       		.byte	0x27
 2452 08f0 E1010000 		.4byte	0x1e1
 2453 08f4 0A       		.byte	0xa
 2454 08f5 0E       		.uleb128 0xe
 2455 08f6 6F706100 		.ascii	"opa\000"
 2456 08fa 11       		.byte	0x11
 2457 08fb 29       		.byte	0x29
 2458 08fc E1010000 		.4byte	0x1e1
 2459 0900 0B       		.byte	0xb
 2460 0901 09       		.uleb128 0x9
 2461 0902 CC010000 		.4byte	.LASF92
 2462 0906 11       		.byte	0x11
 2463 0907 2A       		.byte	0x2a
 2464 0908 F5030000 		.4byte	0x3f5
 2465 090c 01       		.byte	0x1
 2466 090d 04       		.byte	0x4
 2467 090e 04       		.byte	0x4
 2468 090f 0C       		.byte	0xc
 2469 0910 0F       		.uleb128 0xf
 2470 0911 93090000 		.4byte	.LASF176
 2471 0915 11       		.byte	0x11
 2472 0916 2C       		.byte	0x2c
 2473 0917 D9000000 		.4byte	0xd9
 2474 091b 10       		.byte	0x10
 2475 091c 09       		.uleb128 0x9
 2476 091d 3B0A0000 		.4byte	.LASF177
 2477 0921 11       		.byte	0x11
 2478 0922 2D       		.byte	0x2d
 2479 0923 B8000000 		.4byte	0xb8
 2480 0927 01       		.byte	0x1
 2481 0928 01       		.byte	0x1
 2482 0929 07       		.byte	0x7
ARM GAS  C:\Users\haske\AppData\Local\Temp\ccpEN9oH.s 			page 63


 2483 092a 14       		.byte	0x14
 2484 092b 00       		.byte	0
 2485 092c 02       		.uleb128 0x2
 2486 092d 6B040000 		.4byte	.LASF178
 2487 0931 11       		.byte	0x11
 2488 0932 2E       		.byte	0x2e
 2489 0933 B1080000 		.4byte	0x8b1
 2490 0937 08       		.uleb128 0x8
 2491 0938 0A       		.byte	0xa
 2492 0939 12       		.byte	0x12
 2493 093a 1C       		.byte	0x1c
 2494 093b B8090000 		.4byte	0x9b8
 2495 093f 0F       		.uleb128 0xf
 2496 0940 030D0000 		.4byte	.LASF75
 2497 0944 12       		.byte	0x12
 2498 0945 1D       		.byte	0x1d
 2499 0946 D6010000 		.4byte	0x1d6
 2500 094a 00       		.byte	0
 2501 094b 0F       		.uleb128 0xf
 2502 094c D2070000 		.4byte	.LASF179
 2503 0950 12       		.byte	0x12
 2504 0951 1E       		.byte	0x1e
 2505 0952 EC010000 		.4byte	0x1ec
 2506 0956 02       		.byte	0x2
 2507 0957 0F       		.uleb128 0xf
 2508 0958 F6060000 		.4byte	.LASF180
 2509 095c 12       		.byte	0x12
 2510 095d 1F       		.byte	0x1f
 2511 095e EC010000 		.4byte	0x1ec
 2512 0962 04       		.byte	0x4
 2513 0963 0F       		.uleb128 0xf
 2514 0964 B1040000 		.4byte	.LASF181
 2515 0968 12       		.byte	0x12
 2516 0969 20       		.byte	0x20
 2517 096a EC010000 		.4byte	0x1ec
 2518 096e 06       		.byte	0x6
 2519 096f 0E       		.uleb128 0xe
 2520 0970 6F706100 		.ascii	"opa\000"
 2521 0974 12       		.byte	0x12
 2522 0975 21       		.byte	0x21
 2523 0976 E1010000 		.4byte	0x1e1
 2524 097a 08       		.byte	0x8
 2525 097b 09       		.uleb128 0x9
 2526 097c CC010000 		.4byte	.LASF92
 2527 0980 12       		.byte	0x12
 2528 0981 22       		.byte	0x22
 2529 0982 F5030000 		.4byte	0x3f5
 2530 0986 01       		.byte	0x1
 2531 0987 02       		.byte	0x2
 2532 0988 06       		.byte	0x6
 2533 0989 09       		.byte	0x9
 2534 098a 09       		.uleb128 0x9
 2535 098b 62050000 		.4byte	.LASF182
 2536 098f 12       		.byte	0x12
 2537 0990 23       		.byte	0x23
 2538 0991 B8000000 		.4byte	0xb8
 2539 0995 01       		.byte	0x1
ARM GAS  C:\Users\haske\AppData\Local\Temp\ccpEN9oH.s 			page 64


 2540 0996 01       		.byte	0x1
 2541 0997 05       		.byte	0x5
 2542 0998 09       		.byte	0x9
 2543 0999 09       		.uleb128 0x9
 2544 099a 15060000 		.4byte	.LASF183
 2545 099e 12       		.byte	0x12
 2546 099f 24       		.byte	0x24
 2547 09a0 B8000000 		.4byte	0xb8
 2548 09a4 01       		.byte	0x1
 2549 09a5 01       		.byte	0x1
 2550 09a6 04       		.byte	0x4
 2551 09a7 09       		.byte	0x9
 2552 09a8 09       		.uleb128 0x9
 2553 09a9 5A000000 		.4byte	.LASF184
 2554 09ad 12       		.byte	0x12
 2555 09ae 25       		.byte	0x25
 2556 09af B8000000 		.4byte	0xb8
 2557 09b3 01       		.byte	0x1
 2558 09b4 01       		.byte	0x1
 2559 09b5 03       		.byte	0x3
 2560 09b6 09       		.byte	0x9
 2561 09b7 00       		.byte	0
 2562 09b8 02       		.uleb128 0x2
 2563 09b9 36030000 		.4byte	.LASF185
 2564 09bd 12       		.byte	0x12
 2565 09be 26       		.byte	0x26
 2566 09bf 37090000 		.4byte	0x937
 2567 09c3 08       		.uleb128 0x8
 2568 09c4 10       		.byte	0x10
 2569 09c5 13       		.byte	0x13
 2570 09c6 1C       		.byte	0x1c
 2571 09c7 320A0000 		.4byte	0xa32
 2572 09cb 0F       		.uleb128 0xf
 2573 09cc 030D0000 		.4byte	.LASF75
 2574 09d0 13       		.byte	0x13
 2575 09d1 1D       		.byte	0x1d
 2576 09d2 D6010000 		.4byte	0x1d6
 2577 09d6 00       		.byte	0
 2578 09d7 0F       		.uleb128 0xf
 2579 09d8 D2070000 		.4byte	.LASF179
 2580 09dc 13       		.byte	0x13
 2581 09dd 1E       		.byte	0x1e
 2582 09de EC010000 		.4byte	0x1ec
 2583 09e2 02       		.byte	0x2
 2584 09e3 0F       		.uleb128 0xf
 2585 09e4 DC060000 		.4byte	.LASF186
 2586 09e8 13       		.byte	0x13
 2587 09e9 1F       		.byte	0x1f
 2588 09ea CE000000 		.4byte	0xce
 2589 09ee 04       		.byte	0x4
 2590 09ef 0F       		.uleb128 0xf
 2591 09f0 0E030000 		.4byte	.LASF187
 2592 09f4 13       		.byte	0x13
 2593 09f5 20       		.byte	0x20
 2594 09f6 CE000000 		.4byte	0xce
 2595 09fa 06       		.byte	0x6
 2596 09fb 0F       		.uleb128 0xf
ARM GAS  C:\Users\haske\AppData\Local\Temp\ccpEN9oH.s 			page 65


 2597 09fc 1F060000 		.4byte	.LASF188
 2598 0a00 13       		.byte	0x13
 2599 0a01 21       		.byte	0x21
 2600 0a02 C2030000 		.4byte	0x3c2
 2601 0a06 08       		.byte	0x8
 2602 0a07 0E       		.uleb128 0xe
 2603 0a08 6F706100 		.ascii	"opa\000"
 2604 0a0c 13       		.byte	0x13
 2605 0a0d 22       		.byte	0x22
 2606 0a0e E1010000 		.4byte	0x1e1
 2607 0a12 0C       		.byte	0xc
 2608 0a13 09       		.uleb128 0x9
 2609 0a14 CC010000 		.4byte	.LASF92
 2610 0a18 13       		.byte	0x13
 2611 0a19 23       		.byte	0x23
 2612 0a1a F5030000 		.4byte	0x3f5
 2613 0a1e 01       		.byte	0x1
 2614 0a1f 02       		.byte	0x2
 2615 0a20 06       		.byte	0x6
 2616 0a21 0D       		.byte	0xd
 2617 0a22 09       		.uleb128 0x9
 2618 0a23 74010000 		.4byte	.LASF189
 2619 0a27 13       		.byte	0x13
 2620 0a28 24       		.byte	0x24
 2621 0a29 B8000000 		.4byte	0xb8
 2622 0a2d 01       		.byte	0x1
 2623 0a2e 01       		.byte	0x1
 2624 0a2f 05       		.byte	0x5
 2625 0a30 0D       		.byte	0xd
 2626 0a31 00       		.byte	0
 2627 0a32 02       		.uleb128 0x2
 2628 0a33 740D0000 		.4byte	.LASF190
 2629 0a37 13       		.byte	0x13
 2630 0a38 25       		.byte	0x25
 2631 0a39 C3090000 		.4byte	0x9c3
 2632 0a3d 06       		.uleb128 0x6
 2633 0a3e 01       		.byte	0x1
 2634 0a3f 42000000 		.4byte	0x42
 2635 0a43 14       		.byte	0x14
 2636 0a44 1C       		.byte	0x1c
 2637 0a45 5C0A0000 		.4byte	0xa5c
 2638 0a49 07       		.uleb128 0x7
 2639 0a4a 04080000 		.4byte	.LASF191
 2640 0a4e 00       		.byte	0
 2641 0a4f 07       		.uleb128 0x7
 2642 0a50 E0000000 		.4byte	.LASF192
 2643 0a54 01       		.byte	0x1
 2644 0a55 07       		.uleb128 0x7
 2645 0a56 7D0B0000 		.4byte	.LASF193
 2646 0a5a 02       		.byte	0x2
 2647 0a5b 00       		.byte	0
 2648 0a5c 02       		.uleb128 0x2
 2649 0a5d 49040000 		.4byte	.LASF194
 2650 0a61 14       		.byte	0x14
 2651 0a62 20       		.byte	0x20
 2652 0a63 3D0A0000 		.4byte	0xa3d
 2653 0a67 08       		.uleb128 0x8
ARM GAS  C:\Users\haske\AppData\Local\Temp\ccpEN9oH.s 			page 66


 2654 0a68 10       		.byte	0x10
 2655 0a69 15       		.byte	0x15
 2656 0a6a 33       		.byte	0x33
 2657 0a6b A00A0000 		.4byte	0xaa0
 2658 0a6f 0F       		.uleb128 0xf
 2659 0a70 D0080000 		.4byte	.LASF195
 2660 0a74 15       		.byte	0x15
 2661 0a75 34       		.byte	0x34
 2662 0a76 57050000 		.4byte	0x557
 2663 0a7a 00       		.byte	0
 2664 0a7b 0F       		.uleb128 0xf
 2665 0a7c 57070000 		.4byte	.LASF196
 2666 0a80 15       		.byte	0x15
 2667 0a81 35       		.byte	0x35
 2668 0a82 A00A0000 		.4byte	0xaa0
 2669 0a86 04       		.byte	0x4
 2670 0a87 0E       		.uleb128 0xe
 2671 0a88 62756600 		.ascii	"buf\000"
 2672 0a8c 15       		.byte	0x15
 2673 0a8d 36       		.byte	0x36
 2674 0a8e 13010000 		.4byte	0x113
 2675 0a92 08       		.byte	0x8
 2676 0a93 0F       		.uleb128 0xf
 2677 0a94 F50D0000 		.4byte	.LASF197
 2678 0a98 15       		.byte	0x15
 2679 0a99 37       		.byte	0x37
 2680 0a9a 8A030000 		.4byte	0x38a
 2681 0a9e 0C       		.byte	0xc
 2682 0a9f 00       		.byte	0
 2683 0aa0 11       		.uleb128 0x11
 2684 0aa1 04       		.byte	0x4
 2685 0aa2 54020000 		.4byte	0x254
 2686 0aa6 10       		.uleb128 0x10
 2687 0aa7 48090000 		.4byte	.LASF199
 2688 0aab 28       		.byte	0x28
 2689 0aac 15       		.byte	0x15
 2690 0aad 2D       		.byte	0x2d
 2691 0aae FB0A0000 		.4byte	0xafb
 2692 0ab2 0F       		.uleb128 0xf
 2693 0ab3 10090000 		.4byte	.LASF200
 2694 0ab7 15       		.byte	0x15
 2695 0ab8 2E       		.byte	0x2e
 2696 0ab9 54020000 		.4byte	0x254
 2697 0abd 00       		.byte	0
 2698 0abe 0F       		.uleb128 0xf
 2699 0abf 57030000 		.4byte	.LASF201
 2700 0ac3 15       		.byte	0x15
 2701 0ac4 2F       		.byte	0x2f
 2702 0ac5 54020000 		.4byte	0x254
 2703 0ac9 08       		.byte	0x8
 2704 0aca 0F       		.uleb128 0xf
 2705 0acb 80090000 		.4byte	.LASF202
 2706 0acf 15       		.byte	0x15
 2707 0ad0 30       		.byte	0x30
 2708 0ad1 EC010000 		.4byte	0x1ec
 2709 0ad5 10       		.byte	0x10
 2710 0ad6 0F       		.uleb128 0xf
ARM GAS  C:\Users\haske\AppData\Local\Temp\ccpEN9oH.s 			page 67


 2711 0ad7 B90B0000 		.4byte	.LASF203
 2712 0adb 15       		.byte	0x15
 2713 0adc 31       		.byte	0x31
 2714 0add EC010000 		.4byte	0x1ec
 2715 0ae1 12       		.byte	0x12
 2716 0ae2 0E       		.uleb128 0xe
 2717 0ae3 62756600 		.ascii	"buf\000"
 2718 0ae7 15       		.byte	0x15
 2719 0ae8 32       		.byte	0x32
 2720 0ae9 13010000 		.4byte	0x113
 2721 0aed 14       		.byte	0x14
 2722 0aee 0F       		.uleb128 0xf
 2723 0aef 9A030000 		.4byte	.LASF204
 2724 0af3 15       		.byte	0x15
 2725 0af4 38       		.byte	0x38
 2726 0af5 670A0000 		.4byte	0xa67
 2727 0af9 18       		.byte	0x18
 2728 0afa 00       		.byte	0
 2729 0afb 02       		.uleb128 0x2
 2730 0afc E50C0000 		.4byte	.LASF205
 2731 0b00 15       		.byte	0x15
 2732 0b01 39       		.byte	0x39
 2733 0b02 A60A0000 		.4byte	0xaa6
 2734 0b06 10       		.uleb128 0x10
 2735 0b07 7C010000 		.4byte	.LASF206
 2736 0b0b 54       		.byte	0x54
 2737 0b0c 15       		.byte	0x15
 2738 0b0d 3B       		.byte	0x3b
 2739 0b0e 0F0C0000 		.4byte	0xc0f
 2740 0b12 0E       		.uleb128 0xe
 2741 0b13 62756600 		.ascii	"buf\000"
 2742 0b17 15       		.byte	0x15
 2743 0b18 3F       		.byte	0x3f
 2744 0b19 13010000 		.4byte	0x113
 2745 0b1d 00       		.byte	0
 2746 0b1e 0F       		.uleb128 0xf
 2747 0b1f 57070000 		.4byte	.LASF196
 2748 0b23 15       		.byte	0x15
 2749 0b24 44       		.byte	0x44
 2750 0b25 A00A0000 		.4byte	0xaa0
 2751 0b29 04       		.byte	0x4
 2752 0b2a 0F       		.uleb128 0xf
 2753 0b2b D0080000 		.4byte	.LASF195
 2754 0b2f 15       		.byte	0x15
 2755 0b30 49       		.byte	0x49
 2756 0b31 57050000 		.4byte	0x557
 2757 0b35 08       		.byte	0x8
 2758 0b36 0F       		.uleb128 0xf
 2759 0b37 6B010000 		.4byte	.LASF207
 2760 0b3b 15       		.byte	0x15
 2761 0b3c 4B       		.byte	0x4b
 2762 0b3d 200C0000 		.4byte	0xc20
 2763 0b41 0C       		.byte	0xc
 2764 0b42 0F       		.uleb128 0xf
 2765 0b43 27010000 		.4byte	.LASF208
 2766 0b47 15       		.byte	0x15
 2767 0b48 4D       		.byte	0x4d
ARM GAS  C:\Users\haske\AppData\Local\Temp\ccpEN9oH.s 			page 68


 2768 0b49 460C0000 		.4byte	0xc46
 2769 0b4d 10       		.byte	0x10
 2770 0b4e 0F       		.uleb128 0xf
 2771 0b4f 3B070000 		.4byte	.LASF209
 2772 0b53 15       		.byte	0x15
 2773 0b54 4F       		.byte	0x4f
 2774 0b55 860C0000 		.4byte	0xc86
 2775 0b59 14       		.byte	0x14
 2776 0b5a 0F       		.uleb128 0xf
 2777 0b5b 73070000 		.4byte	.LASF210
 2778 0b5f 15       		.byte	0x15
 2779 0b60 52       		.byte	0x52
 2780 0b61 B60C0000 		.4byte	0xcb6
 2781 0b65 18       		.byte	0x18
 2782 0b66 0F       		.uleb128 0xf
 2783 0b67 D30E0000 		.4byte	.LASF211
 2784 0b6b 15       		.byte	0x15
 2785 0b6c 55       		.byte	0x55
 2786 0b6d DA0C0000 		.4byte	0xcda
 2787 0b71 1C       		.byte	0x1c
 2788 0b72 0F       		.uleb128 0xf
 2789 0b73 2A0C0000 		.4byte	.LASF212
 2790 0b77 15       		.byte	0x15
 2791 0b78 58       		.byte	0x58
 2792 0b79 050D0000 		.4byte	0xd05
 2793 0b7d 20       		.byte	0x20
 2794 0b7e 0F       		.uleb128 0xf
 2795 0b7f 81020000 		.4byte	.LASF213
 2796 0b83 15       		.byte	0x15
 2797 0b84 5C       		.byte	0x5c
 2798 0b85 300D0000 		.4byte	0xd30
 2799 0b89 24       		.byte	0x24
 2800 0b8a 0F       		.uleb128 0xf
 2801 0b8b 160F0000 		.4byte	.LASF214
 2802 0b8f 15       		.byte	0x15
 2803 0b90 60       		.byte	0x60
 2804 0b91 500D0000 		.4byte	0xd50
 2805 0b95 28       		.byte	0x28
 2806 0b96 0F       		.uleb128 0xf
 2807 0b97 BA040000 		.4byte	.LASF215
 2808 0b9b 15       		.byte	0x15
 2809 0b9c 71       		.byte	0x71
 2810 0b9d 8E0D0000 		.4byte	0xd8e
 2811 0ba1 2C       		.byte	0x2c
 2812 0ba2 0F       		.uleb128 0xf
 2813 0ba3 49000000 		.4byte	.LASF216
 2814 0ba7 15       		.byte	0x15
 2815 0ba8 78       		.byte	0x78
 2816 0ba9 460C0000 		.4byte	0xc46
 2817 0bad 30       		.byte	0x30
 2818 0bae 0F       		.uleb128 0xf
 2819 0baf F4070000 		.4byte	.LASF217
 2820 0bb3 15       		.byte	0x15
 2821 0bb4 7D       		.byte	0x7d
 2822 0bb5 200C0000 		.4byte	0xc20
 2823 0bb9 34       		.byte	0x34
 2824 0bba 0F       		.uleb128 0xf
ARM GAS  C:\Users\haske\AppData\Local\Temp\ccpEN9oH.s 			page 69


 2825 0bbb 53020000 		.4byte	.LASF218
 2826 0bbf 15       		.byte	0x15
 2827 0bc0 8D       		.byte	0x8d
 2828 0bc1 BD0D0000 		.4byte	0xdbd
 2829 0bc5 38       		.byte	0x38
 2830 0bc6 0F       		.uleb128 0xf
 2831 0bc7 9C050000 		.4byte	.LASF219
 2832 0bcb 15       		.byte	0x15
 2833 0bcc 99       		.byte	0x99
 2834 0bcd E20D0000 		.4byte	0xde2
 2835 0bd1 3C       		.byte	0x3c
 2836 0bd2 0F       		.uleb128 0xf
 2837 0bd3 CE0C0000 		.4byte	.LASF220
 2838 0bd7 15       		.byte	0x15
 2839 0bd8 A3       		.byte	0xa3
 2840 0bd9 FD0D0000 		.4byte	0xdfd
 2841 0bdd 40       		.byte	0x40
 2842 0bde 0F       		.uleb128 0xf
 2843 0bdf 2A0D0000 		.4byte	.LASF221
 2844 0be3 15       		.byte	0x15
 2845 0be4 AC       		.byte	0xac
 2846 0be5 180E0000 		.4byte	0xe18
 2847 0be9 44       		.byte	0x44
 2848 0bea 0F       		.uleb128 0xf
 2849 0beb E8060000 		.4byte	.LASF222
 2850 0bef 15       		.byte	0x15
 2851 0bf0 B5       		.byte	0xb5
 2852 0bf1 340E0000 		.4byte	0xe34
 2853 0bf5 48       		.byte	0x48
 2854 0bf6 0F       		.uleb128 0xf
 2855 0bf7 9D040000 		.4byte	.LASF223
 2856 0bfb 15       		.byte	0x15
 2857 0bfc BA       		.byte	0xba
 2858 0bfd FA000000 		.4byte	0xfa
 2859 0c01 4C       		.byte	0x4c
 2860 0c02 0F       		.uleb128 0xf
 2861 0c03 BF0F0000 		.4byte	.LASF63
 2862 0c07 15       		.byte	0x15
 2863 0c08 BD       		.byte	0xbd
 2864 0c09 13010000 		.4byte	0x113
 2865 0c0d 50       		.byte	0x50
 2866 0c0e 00       		.byte	0
 2867 0c0f 18       		.uleb128 0x18
 2868 0c10 1A0C0000 		.4byte	0xc1a
 2869 0c14 14       		.uleb128 0x14
 2870 0c15 1A0C0000 		.4byte	0xc1a
 2871 0c19 00       		.byte	0
 2872 0c1a 11       		.uleb128 0x11
 2873 0c1b 04       		.byte	0x4
 2874 0c1c 060B0000 		.4byte	0xb06
 2875 0c20 11       		.uleb128 0x11
 2876 0c21 04       		.byte	0x4
 2877 0c22 0F0C0000 		.4byte	0xc0f
 2878 0c26 18       		.uleb128 0x18
 2879 0c27 3B0C0000 		.4byte	0xc3b
 2880 0c2b 14       		.uleb128 0x14
 2881 0c2c 1A0C0000 		.4byte	0xc1a
ARM GAS  C:\Users\haske\AppData\Local\Temp\ccpEN9oH.s 			page 70


 2882 0c30 14       		.uleb128 0x14
 2883 0c31 3B0C0000 		.4byte	0xc3b
 2884 0c35 14       		.uleb128 0x14
 2885 0c36 57050000 		.4byte	0x557
 2886 0c3a 00       		.byte	0
 2887 0c3b 11       		.uleb128 0x11
 2888 0c3c 04       		.byte	0x4
 2889 0c3d 410C0000 		.4byte	0xc41
 2890 0c41 12       		.uleb128 0x12
 2891 0c42 C1070000 		.4byte	0x7c1
 2892 0c46 11       		.uleb128 0x11
 2893 0c47 04       		.byte	0x4
 2894 0c48 260C0000 		.4byte	0xc26
 2895 0c4c 18       		.uleb128 0x18
 2896 0c4d 700C0000 		.4byte	0xc70
 2897 0c51 14       		.uleb128 0x14
 2898 0c52 1A0C0000 		.4byte	0xc1a
 2899 0c56 14       		.uleb128 0x14
 2900 0c57 700C0000 		.4byte	0xc70
 2901 0c5b 14       		.uleb128 0x14
 2902 0c5c 7B0C0000 		.4byte	0xc7b
 2903 0c60 14       		.uleb128 0x14
 2904 0c61 CE000000 		.4byte	0xce
 2905 0c65 14       		.uleb128 0x14
 2906 0c66 CE000000 		.4byte	0xce
 2907 0c6a 14       		.uleb128 0x14
 2908 0c6b CE000000 		.4byte	0xce
 2909 0c6f 00       		.byte	0
 2910 0c70 11       		.uleb128 0x11
 2911 0c71 04       		.byte	0x4
 2912 0c72 760C0000 		.4byte	0xc76
 2913 0c76 12       		.uleb128 0x12
 2914 0c77 320A0000 		.4byte	0xa32
 2915 0c7b 11       		.uleb128 0x11
 2916 0c7c 04       		.byte	0x4
 2917 0c7d 810C0000 		.4byte	0xc81
 2918 0c81 12       		.uleb128 0x12
 2919 0c82 14020000 		.4byte	0x214
 2920 0c86 11       		.uleb128 0x11
 2921 0c87 04       		.byte	0x4
 2922 0c88 4C0C0000 		.4byte	0xc4c
 2923 0c8c 18       		.uleb128 0x18
 2924 0c8d AB0C0000 		.4byte	0xcab
 2925 0c91 14       		.uleb128 0x14
 2926 0c92 1A0C0000 		.4byte	0xc1a
 2927 0c96 14       		.uleb128 0x14
 2928 0c97 AB0C0000 		.4byte	0xcab
 2929 0c9b 14       		.uleb128 0x14
 2930 0c9c 57050000 		.4byte	0x557
 2931 0ca0 14       		.uleb128 0x14
 2932 0ca1 B1030000 		.4byte	0x3b1
 2933 0ca5 14       		.uleb128 0x14
 2934 0ca6 69060000 		.4byte	0x669
 2935 0caa 00       		.byte	0
 2936 0cab 11       		.uleb128 0x11
 2937 0cac 04       		.byte	0x4
 2938 0cad B10C0000 		.4byte	0xcb1
ARM GAS  C:\Users\haske\AppData\Local\Temp\ccpEN9oH.s 			page 71


 2939 0cb1 12       		.uleb128 0x12
 2940 0cb2 2C090000 		.4byte	0x92c
 2941 0cb6 11       		.uleb128 0x11
 2942 0cb7 04       		.byte	0x4
 2943 0cb8 8C0C0000 		.4byte	0xc8c
 2944 0cbc 13       		.uleb128 0x13
 2945 0cbd EF000000 		.4byte	0xef
 2946 0cc1 DA0C0000 		.4byte	0xcda
 2947 0cc5 14       		.uleb128 0x14
 2948 0cc6 1A0C0000 		.4byte	0xc1a
 2949 0cca 14       		.uleb128 0x14
 2950 0ccb AB0C0000 		.4byte	0xcab
 2951 0ccf 14       		.uleb128 0x14
 2952 0cd0 57050000 		.4byte	0x557
 2953 0cd4 14       		.uleb128 0x14
 2954 0cd5 C2030000 		.4byte	0x3c2
 2955 0cd9 00       		.byte	0
 2956 0cda 11       		.uleb128 0x11
 2957 0cdb 04       		.byte	0x4
 2958 0cdc BC0C0000 		.4byte	0xcbc
 2959 0ce0 18       		.uleb128 0x18
 2960 0ce1 FA0C0000 		.4byte	0xcfa
 2961 0ce5 14       		.uleb128 0x14
 2962 0ce6 1A0C0000 		.4byte	0xc1a
 2963 0cea 14       		.uleb128 0x14
 2964 0ceb FA0C0000 		.4byte	0xcfa
 2965 0cef 14       		.uleb128 0x14
 2966 0cf0 7B0C0000 		.4byte	0xc7b
 2967 0cf4 14       		.uleb128 0x14
 2968 0cf5 E4000000 		.4byte	0xe4
 2969 0cf9 00       		.byte	0
 2970 0cfa 11       		.uleb128 0x11
 2971 0cfb 04       		.byte	0x4
 2972 0cfc 000D0000 		.4byte	0xd00
 2973 0d00 12       		.uleb128 0x12
 2974 0d01 A6080000 		.4byte	0x8a6
 2975 0d05 11       		.uleb128 0x11
 2976 0d06 04       		.byte	0x4
 2977 0d07 E00C0000 		.4byte	0xce0
 2978 0d0b 18       		.uleb128 0x18
 2979 0d0c 250D0000 		.4byte	0xd25
 2980 0d10 14       		.uleb128 0x14
 2981 0d11 1A0C0000 		.4byte	0xc1a
 2982 0d15 14       		.uleb128 0x14
 2983 0d16 250D0000 		.4byte	0xd25
 2984 0d1a 14       		.uleb128 0x14
 2985 0d1b 7B0C0000 		.4byte	0xc7b
 2986 0d1f 14       		.uleb128 0x14
 2987 0d20 7B0C0000 		.4byte	0xc7b
 2988 0d24 00       		.byte	0
 2989 0d25 11       		.uleb128 0x11
 2990 0d26 04       		.byte	0x4
 2991 0d27 2B0D0000 		.4byte	0xd2b
 2992 0d2b 12       		.uleb128 0x12
 2993 0d2c B8090000 		.4byte	0x9b8
 2994 0d30 11       		.uleb128 0x11
 2995 0d31 04       		.byte	0x4
ARM GAS  C:\Users\haske\AppData\Local\Temp\ccpEN9oH.s 			page 72


 2996 0d32 0B0D0000 		.4byte	0xd0b
 2997 0d36 18       		.uleb128 0x18
 2998 0d37 500D0000 		.4byte	0xd50
 2999 0d3b 14       		.uleb128 0x14
 3000 0d3c 1A0C0000 		.4byte	0xc1a
 3001 0d40 14       		.uleb128 0x14
 3002 0d41 3B0C0000 		.4byte	0xc3b
 3003 0d45 14       		.uleb128 0x14
 3004 0d46 7B0C0000 		.4byte	0xc7b
 3005 0d4a 14       		.uleb128 0x14
 3006 0d4b CE000000 		.4byte	0xce
 3007 0d4f 00       		.byte	0
 3008 0d50 11       		.uleb128 0x11
 3009 0d51 04       		.byte	0x4
 3010 0d52 360D0000 		.4byte	0xd36
 3011 0d56 18       		.uleb128 0x18
 3012 0d57 8E0D0000 		.4byte	0xd8e
 3013 0d5b 14       		.uleb128 0x14
 3014 0d5c 1A0C0000 		.4byte	0xc1a
 3015 0d60 14       		.uleb128 0x14
 3016 0d61 57050000 		.4byte	0x557
 3017 0d65 14       		.uleb128 0x14
 3018 0d66 C2030000 		.4byte	0x3c2
 3019 0d6a 14       		.uleb128 0x14
 3020 0d6b EC010000 		.4byte	0x1ec
 3021 0d6f 14       		.uleb128 0x14
 3022 0d70 EC010000 		.4byte	0x1ec
 3023 0d74 14       		.uleb128 0x14
 3024 0d75 EC010000 		.4byte	0x1ec
 3025 0d79 14       		.uleb128 0x14
 3026 0d7a AB0C0000 		.4byte	0xcab
 3027 0d7e 14       		.uleb128 0x14
 3028 0d7f 69060000 		.4byte	0x669
 3029 0d83 14       		.uleb128 0x14
 3030 0d84 74060000 		.4byte	0x674
 3031 0d88 14       		.uleb128 0x14
 3032 0d89 E2040000 		.4byte	0x4e2
 3033 0d8d 00       		.byte	0
 3034 0d8e 11       		.uleb128 0x11
 3035 0d8f 04       		.byte	0x4
 3036 0d90 560D0000 		.4byte	0xd56
 3037 0d94 18       		.uleb128 0x18
 3038 0d95 BD0D0000 		.4byte	0xdbd
 3039 0d99 14       		.uleb128 0x14
 3040 0d9a 1A0C0000 		.4byte	0xc1a
 3041 0d9e 14       		.uleb128 0x14
 3042 0d9f 13010000 		.4byte	0x113
 3043 0da3 14       		.uleb128 0x14
 3044 0da4 EC010000 		.4byte	0x1ec
 3045 0da8 14       		.uleb128 0x14
 3046 0da9 57050000 		.4byte	0x557
 3047 0dad 14       		.uleb128 0x14
 3048 0dae 13010000 		.4byte	0x113
 3049 0db2 14       		.uleb128 0x14
 3050 0db3 EC010000 		.4byte	0x1ec
 3051 0db7 14       		.uleb128 0x14
 3052 0db8 57050000 		.4byte	0x557
ARM GAS  C:\Users\haske\AppData\Local\Temp\ccpEN9oH.s 			page 73


 3053 0dbc 00       		.byte	0
 3054 0dbd 11       		.uleb128 0x11
 3055 0dbe 04       		.byte	0x4
 3056 0dbf 940D0000 		.4byte	0xd94
 3057 0dc3 13       		.uleb128 0x13
 3058 0dc4 DC0D0000 		.4byte	0xddc
 3059 0dc8 DC0D0000 		.4byte	0xddc
 3060 0dcc 14       		.uleb128 0x14
 3061 0dcd 1A0C0000 		.4byte	0xc1a
 3062 0dd1 14       		.uleb128 0x14
 3063 0dd2 DC0D0000 		.4byte	0xddc
 3064 0dd6 14       		.uleb128 0x14
 3065 0dd7 5C0A0000 		.4byte	0xa5c
 3066 0ddb 00       		.byte	0
 3067 0ddc 11       		.uleb128 0x11
 3068 0ddd 04       		.byte	0x4
 3069 0dde A60A0000 		.4byte	0xaa6
 3070 0de2 11       		.uleb128 0x11
 3071 0de3 04       		.byte	0x4
 3072 0de4 C30D0000 		.4byte	0xdc3
 3073 0de8 18       		.uleb128 0x18
 3074 0de9 FD0D0000 		.4byte	0xdfd
 3075 0ded 14       		.uleb128 0x14
 3076 0dee 1A0C0000 		.4byte	0xc1a
 3077 0df2 14       		.uleb128 0x14
 3078 0df3 DC0D0000 		.4byte	0xddc
 3079 0df7 14       		.uleb128 0x14
 3080 0df8 5C0A0000 		.4byte	0xa5c
 3081 0dfc 00       		.byte	0
 3082 0dfd 11       		.uleb128 0x11
 3083 0dfe 04       		.byte	0x4
 3084 0dff E80D0000 		.4byte	0xde8
 3085 0e03 18       		.uleb128 0x18
 3086 0e04 180E0000 		.4byte	0xe18
 3087 0e08 14       		.uleb128 0x14
 3088 0e09 1A0C0000 		.4byte	0xc1a
 3089 0e0d 14       		.uleb128 0x14
 3090 0e0e DC0D0000 		.4byte	0xddc
 3091 0e12 14       		.uleb128 0x14
 3092 0e13 AB0C0000 		.4byte	0xcab
 3093 0e17 00       		.byte	0
 3094 0e18 11       		.uleb128 0x11
 3095 0e19 04       		.byte	0x4
 3096 0e1a 030E0000 		.4byte	0xe03
 3097 0e1e 18       		.uleb128 0x18
 3098 0e1f 2E0E0000 		.4byte	0xe2e
 3099 0e23 14       		.uleb128 0x14
 3100 0e24 1A0C0000 		.4byte	0xc1a
 3101 0e28 14       		.uleb128 0x14
 3102 0e29 2E0E0000 		.4byte	0xe2e
 3103 0e2d 00       		.byte	0
 3104 0e2e 11       		.uleb128 0x11
 3105 0e2f 04       		.byte	0x4
 3106 0e30 FB0A0000 		.4byte	0xafb
 3107 0e34 11       		.uleb128 0x11
 3108 0e35 04       		.byte	0x4
 3109 0e36 1E0E0000 		.4byte	0xe1e
ARM GAS  C:\Users\haske\AppData\Local\Temp\ccpEN9oH.s 			page 74


 3110 0e3a 19       		.uleb128 0x19
 3111 0e3b 3C0E0000 		.4byte	.LASF224
 3112 0e3f 02       		.byte	0x2
 3113 0e40 7B       		.byte	0x7b
 3114 0e41 EC010000 		.4byte	0x1ec
 3115 0e45 03       		.byte	0x3
 3116 0e46 560E0000 		.4byte	0xe56
 3117 0e4a 1A       		.uleb128 0x1a
 3118 0e4b 38020000 		.4byte	.LASF226
 3119 0e4f 02       		.byte	0x2
 3120 0e50 7B       		.byte	0x7b
 3121 0e51 57050000 		.4byte	0x557
 3122 0e55 00       		.byte	0
 3123 0e56 1B       		.uleb128 0x1b
 3124 0e57 40050000 		.4byte	.LASF225
 3125 0e5b 03       		.byte	0x3
 3126 0e5c 5102     		.2byte	0x251
 3127 0e5e D6010000 		.4byte	0x1d6
 3128 0e62 03       		.byte	0x3
 3129 0e63 7C0E0000 		.4byte	0xe7c
 3130 0e67 1C       		.uleb128 0x1c
 3131 0e68 6300     		.ascii	"c\000"
 3132 0e6a 03       		.byte	0x3
 3133 0e6b 5102     		.2byte	0x251
 3134 0e6d E4000000 		.4byte	0xe4
 3135 0e71 1D       		.uleb128 0x1d
 3136 0e72 7200     		.ascii	"r\000"
 3137 0e74 03       		.byte	0x3
 3138 0e75 5402     		.2byte	0x254
 3139 0e77 D6010000 		.4byte	0x1d6
 3140 0e7b 00       		.byte	0
 3141 0e7c 19       		.uleb128 0x19
 3142 0e7d 480C0000 		.4byte	.LASF227
 3143 0e81 02       		.byte	0x2
 3144 0e82 85       		.byte	0x85
 3145 0e83 EC010000 		.4byte	0x1ec
 3146 0e87 03       		.byte	0x3
 3147 0e88 980E0000 		.4byte	0xe98
 3148 0e8c 1A       		.uleb128 0x1a
 3149 0e8d 38020000 		.4byte	.LASF226
 3150 0e91 02       		.byte	0x2
 3151 0e92 85       		.byte	0x85
 3152 0e93 57050000 		.4byte	0x557
 3153 0e97 00       		.byte	0
 3154 0e98 1E       		.uleb128 0x1e
 3155 0e99 7D040000 		.4byte	.LASF229
 3156 0e9d 02       		.byte	0x2
 3157 0e9e 6E       		.byte	0x6e
 3158 0e9f 03       		.byte	0x3
 3159 0ea0 BB0E0000 		.4byte	0xebb
 3160 0ea4 1A       		.uleb128 0x1a
 3161 0ea5 DB0C0000 		.4byte	.LASF228
 3162 0ea9 02       		.byte	0x2
 3163 0eaa 6E       		.byte	0x6e
 3164 0eab A00A0000 		.4byte	0xaa0
 3165 0eaf 1F       		.uleb128 0x1f
 3166 0eb0 73726300 		.ascii	"src\000"
ARM GAS  C:\Users\haske\AppData\Local\Temp\ccpEN9oH.s 			page 75


 3167 0eb4 02       		.byte	0x2
 3168 0eb5 6E       		.byte	0x6e
 3169 0eb6 57050000 		.4byte	0x557
 3170 0eba 00       		.byte	0
 3171 0ebb 20       		.uleb128 0x20
 3172 0ebc B90E0000 		.4byte	.LASF230
 3173 0ec0 03       		.byte	0x3
 3174 0ec1 D401     		.2byte	0x1d4
 3175 0ec3 03       		.byte	0x3
 3176 0ec4 EB0E0000 		.4byte	0xeeb
 3177 0ec8 1C       		.uleb128 0x1c
 3178 0ec9 6300     		.ascii	"c\000"
 3179 0ecb 03       		.byte	0x3
 3180 0ecc D401     		.2byte	0x1d4
 3181 0ece D6010000 		.4byte	0x1d6
 3182 0ed2 1C       		.uleb128 0x1c
 3183 0ed3 6D697800 		.ascii	"mix\000"
 3184 0ed7 03       		.byte	0x3
 3185 0ed8 D401     		.2byte	0x1d4
 3186 0eda B8000000 		.4byte	0xb8
 3187 0ede 1C       		.uleb128 0x1c
 3188 0edf 6F757400 		.ascii	"out\000"
 3189 0ee3 03       		.byte	0x3
 3190 0ee4 D401     		.2byte	0x1d4
 3191 0ee6 E8040000 		.4byte	0x4e8
 3192 0eea 00       		.byte	0
 3193 0eeb 1B       		.uleb128 0x1b
 3194 0eec A10C0000 		.4byte	.LASF231
 3195 0ef0 03       		.byte	0x3
 3196 0ef1 ED01     		.2byte	0x1ed
 3197 0ef3 D6010000 		.4byte	0x1d6
 3198 0ef7 03       		.byte	0x3
 3199 0ef8 2C0F0000 		.4byte	0xf2c
 3200 0efc 21       		.uleb128 0x21
 3201 0efd 920E0000 		.4byte	.LASF232
 3202 0f01 03       		.byte	0x3
 3203 0f02 ED01     		.2byte	0x1ed
 3204 0f04 E8040000 		.4byte	0x4e8
 3205 0f08 1C       		.uleb128 0x1c
 3206 0f09 633200   		.ascii	"c2\000"
 3207 0f0c 03       		.byte	0x3
 3208 0f0d ED01     		.2byte	0x1ed
 3209 0f0f D6010000 		.4byte	0x1d6
 3210 0f13 1C       		.uleb128 0x1c
 3211 0f14 6D697800 		.ascii	"mix\000"
 3212 0f18 03       		.byte	0x3
 3213 0f19 ED01     		.2byte	0x1ed
 3214 0f1b B8000000 		.4byte	0xb8
 3215 0f1f 1D       		.uleb128 0x1d
 3216 0f20 72657400 		.ascii	"ret\000"
 3217 0f24 03       		.byte	0x3
 3218 0f25 EF01     		.2byte	0x1ef
 3219 0f27 D6010000 		.4byte	0x1d6
 3220 0f2b 00       		.byte	0
 3221 0f2c 22       		.uleb128 0x22
 3222 0f2d 35050000 		.4byte	.LASF289
 3223 0f31 01       		.byte	0x1
ARM GAS  C:\Users\haske\AppData\Local\Temp\ccpEN9oH.s 			page 76


 3224 0f32 CA       		.byte	0xca
 3225 0f33 00000000 		.4byte	.LFB160
 3226 0f37 0A020000 		.4byte	.LFE160-.LFB160
 3227 0f3b 01       		.uleb128 0x1
 3228 0f3c 9C       		.byte	0x9c
 3229 0f3d 11120000 		.4byte	0x1211
 3230 0f41 23       		.uleb128 0x23
 3231 0f42 310A0000 		.4byte	.LASF233
 3232 0f46 01       		.byte	0x1
 3233 0f47 CA       		.byte	0xca
 3234 0f48 57050000 		.4byte	0x557
 3235 0f4c 00000000 		.4byte	.LLST0
 3236 0f50 23       		.uleb128 0x23
 3237 0f51 B60C0000 		.4byte	.LASF88
 3238 0f55 01       		.byte	0x1
 3239 0f56 CA       		.byte	0xca
 3240 0f57 C2030000 		.4byte	0x3c2
 3241 0f5b 96000000 		.4byte	.LLST1
 3242 0f5f 23       		.uleb128 0x23
 3243 0f60 3C0D0000 		.4byte	.LASF234
 3244 0f64 01       		.byte	0x1
 3245 0f65 CA       		.byte	0xca
 3246 0f66 EC010000 		.4byte	0x1ec
 3247 0f6a E3000000 		.4byte	.LLST2
 3248 0f6e 23       		.uleb128 0x23
 3249 0f6f 360D0000 		.4byte	.LASF235
 3250 0f73 01       		.byte	0x1
 3251 0f74 CA       		.byte	0xca
 3252 0f75 EC010000 		.4byte	0x1ec
 3253 0f79 04010000 		.4byte	.LLST3
 3254 0f7d 23       		.uleb128 0x23
 3255 0f7e 1E050000 		.4byte	.LASF236
 3256 0f82 01       		.byte	0x1
 3257 0f83 CB       		.byte	0xcb
 3258 0f84 EC010000 		.4byte	0x1ec
 3259 0f88 25010000 		.4byte	.LLST4
 3260 0f8c 23       		.uleb128 0x23
 3261 0f8d 31010000 		.4byte	.LASF237
 3262 0f91 01       		.byte	0x1
 3263 0f92 CB       		.byte	0xcb
 3264 0f93 AB0C0000 		.4byte	0xcab
 3265 0f97 51010000 		.4byte	.LLST5
 3266 0f9b 24       		.uleb128 0x24
 3267 0f9c 636600   		.ascii	"cf\000"
 3268 0f9f 01       		.byte	0x1
 3269 0fa0 CB       		.byte	0xcb
 3270 0fa1 69060000 		.4byte	0x669
 3271 0fa5 7D010000 		.4byte	.LLST6
 3272 0fa9 23       		.uleb128 0x23
 3273 0faa 250C0000 		.4byte	.LASF238
 3274 0fae 01       		.byte	0x1
 3275 0faf CB       		.byte	0xcb
 3276 0fb0 74060000 		.4byte	0x674
 3277 0fb4 C1010000 		.4byte	.LLST7
 3278 0fb8 23       		.uleb128 0x23
 3279 0fb9 020C0000 		.4byte	.LASF239
 3280 0fbd 01       		.byte	0x1
ARM GAS  C:\Users\haske\AppData\Local\Temp\ccpEN9oH.s 			page 77


 3281 0fbe CB       		.byte	0xcb
 3282 0fbf E2040000 		.4byte	0x4e2
 3283 0fc3 0F020000 		.4byte	.LLST8
 3284 0fc7 25       		.uleb128 0x25
 3285 0fc8 33080000 		.4byte	.LASF240
 3286 0fcc 01       		.byte	0x1
 3287 0fcd D1       		.byte	0xd1
 3288 0fce B1030000 		.4byte	0x3b1
 3289 0fd2 5D020000 		.4byte	.LLST9
 3290 0fd6 26       		.uleb128 0x26
 3291 0fd7 7900     		.ascii	"y\000"
 3292 0fd9 01       		.byte	0x1
 3293 0fda D2       		.byte	0xd2
 3294 0fdb EC010000 		.4byte	0x1ec
 3295 0fdf F3020000 		.4byte	.LLST10
 3296 0fe3 26       		.uleb128 0x26
 3297 0fe4 7800     		.ascii	"x\000"
 3298 0fe6 01       		.byte	0x1
 3299 0fe7 D3       		.byte	0xd3
 3300 0fe8 EC010000 		.4byte	0x1ec
 3301 0fec 6C030000 		.4byte	.LLST11
 3302 0ff0 27       		.uleb128 0x27
 3303 0ff1 30000000 		.4byte	.LBB47
 3304 0ff5 9C000000 		.4byte	.LBE47-.LBB47
 3305 0ff9 EE100000 		.4byte	0x10ee
 3306 0ffd 25       		.uleb128 0x25
 3307 0ffe 03100000 		.4byte	.LASF241
 3308 1002 01       		.byte	0x1
 3309 1003 D6       		.byte	0xd6
 3310 1004 E4000000 		.4byte	0xe4
 3311 1008 95030000 		.4byte	.LLST12
 3312 100c 25       		.uleb128 0x25
 3313 100d 5F040000 		.4byte	.LASF242
 3314 1011 01       		.byte	0x1
 3315 1012 DA       		.byte	0xda
 3316 1013 E4000000 		.4byte	0xe4
 3317 1017 BF030000 		.4byte	.LLST13
 3318 101b 25       		.uleb128 0x25
 3319 101c 0A0E0000 		.4byte	.LASF243
 3320 1020 01       		.byte	0x1
 3321 1021 DB       		.byte	0xdb
 3322 1022 E4000000 		.4byte	0xe4
 3323 1026 EE030000 		.4byte	.LLST14
 3324 102a 25       		.uleb128 0x25
 3325 102b 23000000 		.4byte	.LASF244
 3326 102f 01       		.byte	0x1
 3327 1030 DD       		.byte	0xdd
 3328 1031 EC010000 		.4byte	0x1ec
 3329 1035 0D040000 		.4byte	.LLST15
 3330 1039 25       		.uleb128 0x25
 3331 103a 60030000 		.4byte	.LASF245
 3332 103e 01       		.byte	0x1
 3333 103f DE       		.byte	0xde
 3334 1040 74060000 		.4byte	0x674
 3335 1044 20040000 		.4byte	.LLST16
 3336 1048 28       		.uleb128 0x28
 3337 1049 3A0E0000 		.4byte	0xe3a
ARM GAS  C:\Users\haske\AppData\Local\Temp\ccpEN9oH.s 			page 78


 3338 104d 5A000000 		.4byte	.LBB48
 3339 1051 0C000000 		.4byte	.LBE48-.LBB48
 3340 1055 01       		.byte	0x1
 3341 1056 DA       		.byte	0xda
 3342 1057 65100000 		.4byte	0x1065
 3343 105b 29       		.uleb128 0x29
 3344 105c 4A0E0000 		.4byte	0xe4a
 3345 1060 33040000 		.4byte	.LLST17
 3346 1064 00       		.byte	0
 3347 1065 27       		.uleb128 0x27
 3348 1066 AC000000 		.4byte	.LBB50
 3349 106a 20000000 		.4byte	.LBE50-.LBB50
 3350 106e A1100000 		.4byte	0x10a1
 3351 1072 26       		.uleb128 0x26
 3352 1073 6900     		.ascii	"i\000"
 3353 1075 01       		.byte	0x1
 3354 1076 E7       		.byte	0xe7
 3355 1077 E4000000 		.4byte	0xe4
 3356 107b 46040000 		.4byte	.LLST18
 3357 107f 2A       		.uleb128 0x2a
 3358 1080 63686B00 		.ascii	"chk\000"
 3359 1084 01       		.byte	0x1
 3360 1085 E8       		.byte	0xe8
 3361 1086 D6010000 		.4byte	0x1d6
 3362 108a 2B       		.uleb128 0x2b
 3363 108b C90F0000 		.4byte	.LASF246
 3364 108f 01       		.byte	0x1
 3365 1090 ED       		.byte	0xed
 3366 1091 E8040000 		.4byte	0x4e8
 3367 1095 2B       		.uleb128 0x2b
 3368 1096 D8070000 		.4byte	.LASF247
 3369 109a 01       		.byte	0x1
 3370 109b EE       		.byte	0xee
 3371 109c CE000000 		.4byte	0xce
 3372 10a0 00       		.byte	0
 3373 10a1 2C       		.uleb128 0x2c
 3374 10a2 36000000 		.4byte	.LVL7
 3375 10a6 0E180000 		.4byte	0x180e
 3376 10aa B5100000 		.4byte	0x10b5
 3377 10ae 2D       		.uleb128 0x2d
 3378 10af 01       		.uleb128 0x1
 3379 10b0 50       		.byte	0x50
 3380 10b1 02       		.uleb128 0x2
 3381 10b2 79       		.byte	0x79
 3382 10b3 00       		.sleb128 0
 3383 10b4 00       		.byte	0
 3384 10b5 2C       		.uleb128 0x2c
 3385 10b6 40000000 		.4byte	.LVL10
 3386 10ba 19180000 		.4byte	0x1819
 3387 10be D0100000 		.4byte	0x10d0
 3388 10c2 2D       		.uleb128 0x2d
 3389 10c3 01       		.uleb128 0x1
 3390 10c4 50       		.byte	0x50
 3391 10c5 02       		.uleb128 0x2
 3392 10c6 75       		.byte	0x75
 3393 10c7 00       		.sleb128 0
 3394 10c8 2D       		.uleb128 0x2d
ARM GAS  C:\Users\haske\AppData\Local\Temp\ccpEN9oH.s 			page 79


 3395 10c9 01       		.uleb128 0x1
 3396 10ca 51       		.byte	0x51
 3397 10cb 03       		.uleb128 0x3
 3398 10cc 91       		.byte	0x91
 3399 10cd 4C       		.sleb128 -52
 3400 10ce 06       		.byte	0x6
 3401 10cf 00       		.byte	0
 3402 10d0 2E       		.uleb128 0x2e
 3403 10d1 8A000000 		.4byte	.LVL18
 3404 10d5 24180000 		.4byte	0x1824
 3405 10d9 2D       		.uleb128 0x2d
 3406 10da 01       		.uleb128 0x1
 3407 10db 50       		.byte	0x50
 3408 10dc 02       		.uleb128 0x2
 3409 10dd 74       		.byte	0x74
 3410 10de 00       		.sleb128 0
 3411 10df 2D       		.uleb128 0x2d
 3412 10e0 01       		.uleb128 0x1
 3413 10e1 51       		.byte	0x51
 3414 10e2 02       		.uleb128 0x2
 3415 10e3 77       		.byte	0x77
 3416 10e4 00       		.sleb128 0
 3417 10e5 2D       		.uleb128 0x2d
 3418 10e6 01       		.uleb128 0x1
 3419 10e7 52       		.byte	0x52
 3420 10e8 03       		.uleb128 0x3
 3421 10e9 91       		.byte	0x91
 3422 10ea 44       		.sleb128 -60
 3423 10eb 06       		.byte	0x6
 3424 10ec 00       		.byte	0
 3425 10ed 00       		.byte	0
 3426 10ee 27       		.uleb128 0x27
 3427 10ef D0000000 		.4byte	.LBB51
 3428 10f3 80000000 		.4byte	.LBE51-.LBB51
 3429 10f7 66110000 		.4byte	0x1166
 3430 10fb 25       		.uleb128 0x25
 3431 10fc 27060000 		.4byte	.LASF248
 3432 1100 01       		.byte	0x1
 3433 1101 FB       		.byte	0xfb
 3434 1102 EC010000 		.4byte	0x1ec
 3435 1106 64040000 		.4byte	.LLST19
 3436 110a 25       		.uleb128 0x25
 3437 110b 7F000000 		.4byte	.LASF249
 3438 110f 01       		.byte	0x1
 3439 1110 FC       		.byte	0xfc
 3440 1111 EC010000 		.4byte	0x1ec
 3441 1115 C5040000 		.4byte	.LLST20
 3442 1119 2B       		.uleb128 0x2b
 3443 111a A3030000 		.4byte	.LASF250
 3444 111e 01       		.byte	0x1
 3445 111f FE       		.byte	0xfe
 3446 1120 EC010000 		.4byte	0x1ec
 3447 1124 2B       		.uleb128 0x2b
 3448 1125 5F040000 		.4byte	.LASF242
 3449 1129 01       		.byte	0x1
 3450 112a FF       		.byte	0xff
 3451 112b EC010000 		.4byte	0x1ec
ARM GAS  C:\Users\haske\AppData\Local\Temp\ccpEN9oH.s 			page 80


 3452 112f 28       		.uleb128 0x28
 3453 1130 3A0E0000 		.4byte	0xe3a
 3454 1134 EC000000 		.4byte	.LBB52
 3455 1138 0E000000 		.4byte	.LBE52-.LBB52
 3456 113c 01       		.byte	0x1
 3457 113d FB       		.byte	0xfb
 3458 113e 4C110000 		.4byte	0x114c
 3459 1142 29       		.uleb128 0x29
 3460 1143 4A0E0000 		.4byte	0xe4a
 3461 1147 D8040000 		.4byte	.LLST21
 3462 114b 00       		.byte	0
 3463 114c 2F       		.uleb128 0x2f
 3464 114d 7C0E0000 		.4byte	0xe7c
 3465 1151 08010000 		.4byte	.LBB54
 3466 1155 0E000000 		.4byte	.LBE54-.LBB54
 3467 1159 01       		.byte	0x1
 3468 115a FE       		.byte	0xfe
 3469 115b 29       		.uleb128 0x29
 3470 115c 8C0E0000 		.4byte	0xe8c
 3471 1160 EB040000 		.4byte	.LLST22
 3472 1164 00       		.byte	0
 3473 1165 00       		.byte	0
 3474 1166 30       		.uleb128 0x30
 3475 1167 54010000 		.4byte	.LBB56
 3476 116b A8000000 		.4byte	.LBE56-.LBB56
 3477 116f 31       		.uleb128 0x31
 3478 1170 23000000 		.4byte	.LASF244
 3479 1174 01       		.byte	0x1
 3480 1175 1601     		.2byte	0x116
 3481 1177 EC010000 		.4byte	0x1ec
 3482 117b FE040000 		.4byte	.LLST23
 3483 117f 32       		.uleb128 0x32
 3484 1180 A3030000 		.4byte	.LASF250
 3485 1184 01       		.byte	0x1
 3486 1185 1801     		.2byte	0x118
 3487 1187 EC010000 		.4byte	0x1ec
 3488 118b 32       		.uleb128 0x32
 3489 118c 5F040000 		.4byte	.LASF242
 3490 1190 01       		.byte	0x1
 3491 1191 1901     		.2byte	0x119
 3492 1193 EC010000 		.4byte	0x1ec
 3493 1197 33       		.uleb128 0x33
 3494 1198 7C0E0000 		.4byte	0xe7c
 3495 119c 74010000 		.4byte	.LBB57
 3496 11a0 0E000000 		.4byte	.LBE57-.LBB57
 3497 11a4 01       		.byte	0x1
 3498 11a5 1801     		.2byte	0x118
 3499 11a7 B5110000 		.4byte	0x11b5
 3500 11ab 29       		.uleb128 0x29
 3501 11ac 8C0E0000 		.4byte	0xe8c
 3502 11b0 12050000 		.4byte	.LLST24
 3503 11b4 00       		.byte	0
 3504 11b5 33       		.uleb128 0x33
 3505 11b6 3A0E0000 		.4byte	0xe3a
 3506 11ba 82010000 		.4byte	.LBB59
 3507 11be 0E000000 		.4byte	.LBE59-.LBB59
 3508 11c2 01       		.byte	0x1
ARM GAS  C:\Users\haske\AppData\Local\Temp\ccpEN9oH.s 			page 81


 3509 11c3 1901     		.2byte	0x119
 3510 11c5 D3110000 		.4byte	0x11d3
 3511 11c9 29       		.uleb128 0x29
 3512 11ca 4A0E0000 		.4byte	0xe4a
 3513 11ce 30050000 		.4byte	.LLST25
 3514 11d2 00       		.byte	0
 3515 11d3 2C       		.uleb128 0x2c
 3516 11d4 A8010000 		.4byte	.LVL59
 3517 11d8 24180000 		.4byte	0x1824
 3518 11dc F3110000 		.4byte	0x11f3
 3519 11e0 2D       		.uleb128 0x2d
 3520 11e1 01       		.uleb128 0x1
 3521 11e2 50       		.byte	0x50
 3522 11e3 02       		.uleb128 0x2
 3523 11e4 74       		.byte	0x74
 3524 11e5 00       		.sleb128 0
 3525 11e6 2D       		.uleb128 0x2d
 3526 11e7 01       		.uleb128 0x1
 3527 11e8 51       		.byte	0x51
 3528 11e9 02       		.uleb128 0x2
 3529 11ea 77       		.byte	0x77
 3530 11eb 00       		.sleb128 0
 3531 11ec 2D       		.uleb128 0x2d
 3532 11ed 01       		.uleb128 0x1
 3533 11ee 52       		.byte	0x52
 3534 11ef 02       		.uleb128 0x2
 3535 11f0 75       		.byte	0x75
 3536 11f1 00       		.sleb128 0
 3537 11f2 00       		.byte	0
 3538 11f3 2E       		.uleb128 0x2e
 3539 11f4 F0010000 		.4byte	.LVL69
 3540 11f8 24180000 		.4byte	0x1824
 3541 11fc 2D       		.uleb128 0x2d
 3542 11fd 01       		.uleb128 0x1
 3543 11fe 50       		.byte	0x50
 3544 11ff 02       		.uleb128 0x2
 3545 1200 75       		.byte	0x75
 3546 1201 00       		.sleb128 0
 3547 1202 2D       		.uleb128 0x2d
 3548 1203 01       		.uleb128 0x1
 3549 1204 51       		.byte	0x51
 3550 1205 02       		.uleb128 0x2
 3551 1206 77       		.byte	0x77
 3552 1207 00       		.sleb128 0
 3553 1208 2D       		.uleb128 0x2d
 3554 1209 01       		.uleb128 0x1
 3555 120a 52       		.byte	0x52
 3556 120b 02       		.uleb128 0x2
 3557 120c 76       		.byte	0x76
 3558 120d 00       		.sleb128 0
 3559 120e 00       		.byte	0
 3560 120f 00       		.byte	0
 3561 1210 00       		.byte	0
 3562 1211 34       		.uleb128 0x34
 3563 1212 1C080000 		.4byte	.LASF290
 3564 1216 01       		.byte	0x1
 3565 1217 2D       		.byte	0x2d
ARM GAS  C:\Users\haske\AppData\Local\Temp\ccpEN9oH.s 			page 82


 3566 1218 00000000 		.4byte	.LFB159
 3567 121c E0030000 		.4byte	.LFE159-.LFB159
 3568 1220 01       		.uleb128 0x1
 3569 1221 9C       		.byte	0x9c
 3570 1222 F3170000 		.4byte	0x17f3
 3571 1226 23       		.uleb128 0x23
 3572 1227 CA0E0000 		.4byte	.LASF251
 3573 122b 01       		.byte	0x1
 3574 122c 2D       		.byte	0x2d
 3575 122d 1A0C0000 		.4byte	0xc1a
 3576 1231 43050000 		.4byte	.LLST26
 3577 1235 23       		.uleb128 0x23
 3578 1236 31010000 		.4byte	.LASF237
 3579 123a 01       		.byte	0x1
 3580 123b 2D       		.byte	0x2d
 3581 123c AB0C0000 		.4byte	0xcab
 3582 1240 63050000 		.4byte	.LLST27
 3583 1244 23       		.uleb128 0x23
 3584 1245 030E0000 		.4byte	.LASF252
 3585 1249 01       		.byte	0x1
 3586 124a 2E       		.byte	0x2e
 3587 124b 57050000 		.4byte	0x557
 3588 124f A6050000 		.4byte	.LLST28
 3589 1253 23       		.uleb128 0x23
 3590 1254 B60C0000 		.4byte	.LASF88
 3591 1258 01       		.byte	0x1
 3592 1259 2E       		.byte	0x2e
 3593 125a B1030000 		.4byte	0x3b1
 3594 125e C6050000 		.4byte	.LLST29
 3595 1262 24       		.uleb128 0x24
 3596 1263 636600   		.ascii	"cf\000"
 3597 1266 01       		.byte	0x1
 3598 1267 2E       		.byte	0x2e
 3599 1268 69060000 		.4byte	0x669
 3600 126c F3050000 		.4byte	.LLST30
 3601 1270 35       		.uleb128 0x35
 3602 1271 2E020000 		.4byte	.LASF253
 3603 1275 01       		.byte	0x1
 3604 1276 31       		.byte	0x31
 3605 1277 54020000 		.4byte	0x254
 3606 127b 02       		.uleb128 0x2
 3607 127c 91       		.byte	0x91
 3608 127d 50       		.sleb128 -48
 3609 127e 25       		.uleb128 0x25
 3610 127f 51010000 		.4byte	.LASF254
 3611 1283 01       		.byte	0x1
 3612 1284 34       		.byte	0x34
 3613 1285 8A030000 		.4byte	0x38a
 3614 1289 1F060000 		.4byte	.LLST31
 3615 128d 25       		.uleb128 0x25
 3616 128e 090D0000 		.4byte	.LASF255
 3617 1292 01       		.byte	0x1
 3618 1293 35       		.byte	0x35
 3619 1294 8A030000 		.4byte	0x38a
 3620 1298 4A060000 		.4byte	.LLST32
 3621 129c 35       		.uleb128 0x35
 3622 129d 960C0000 		.4byte	.LASF87
ARM GAS  C:\Users\haske\AppData\Local\Temp\ccpEN9oH.s 			page 83


 3623 12a1 01       		.byte	0x1
 3624 12a2 37       		.byte	0x37
 3625 12a3 54020000 		.4byte	0x254
 3626 12a7 02       		.uleb128 0x2
 3627 12a8 91       		.byte	0x91
 3628 12a9 48       		.sleb128 -56
 3629 12aa 35       		.uleb128 0x35
 3630 12ab 4D070000 		.4byte	.LASF256
 3631 12af 01       		.byte	0x1
 3632 12b0 38       		.byte	0x38
 3633 12b1 6D050000 		.4byte	0x56d
 3634 12b5 03       		.uleb128 0x3
 3635 12b6 91       		.byte	0x91
 3636 12b7 AC7F     		.sleb128 -84
 3637 12b9 28       		.uleb128 0x28
 3638 12ba 980E0000 		.4byte	0xe98
 3639 12be 20000000 		.4byte	.LBB61
 3640 12c2 1A000000 		.4byte	.LBE61-.LBB61
 3641 12c6 01       		.byte	0x1
 3642 12c7 32       		.byte	0x32
 3643 12c8 DF120000 		.4byte	0x12df
 3644 12cc 29       		.uleb128 0x29
 3645 12cd AF0E0000 		.4byte	0xeaf
 3646 12d1 87060000 		.4byte	.LLST33
 3647 12d5 29       		.uleb128 0x29
 3648 12d6 A40E0000 		.4byte	0xea4
 3649 12da AA060000 		.4byte	.LLST34
 3650 12de 00       		.byte	0
 3651 12df 27       		.uleb128 0x27
 3652 12e0 A4000000 		.4byte	.LBB63
 3653 12e4 36000000 		.4byte	.LBE63-.LBB63
 3654 12e8 39130000 		.4byte	0x1339
 3655 12ec 35       		.uleb128 0x35
 3656 12ed 160E0000 		.4byte	.LASF257
 3657 12f1 01       		.byte	0x1
 3658 12f2 47       		.byte	0x47
 3659 12f3 54020000 		.4byte	0x254
 3660 12f7 03       		.uleb128 0x3
 3661 12f8 91       		.byte	0x91
 3662 12f9 A47F     		.sleb128 -92
 3663 12fb 2C       		.uleb128 0x2c
 3664 12fc B4000000 		.4byte	.LVL89
 3665 1300 2F180000 		.4byte	0x182f
 3666 1304 20130000 		.4byte	0x1320
 3667 1308 2D       		.uleb128 0x2d
 3668 1309 01       		.uleb128 0x1
 3669 130a 50       		.byte	0x50
 3670 130b 03       		.uleb128 0x3
 3671 130c 91       		.byte	0x91
 3672 130d A47F     		.sleb128 -92
 3673 130f 2D       		.uleb128 0x2d
 3674 1310 01       		.uleb128 0x1
 3675 1311 51       		.byte	0x51
 3676 1312 04       		.uleb128 0x4
 3677 1313 91       		.byte	0x91
 3678 1314 887F     		.sleb128 -120
 3679 1316 06       		.byte	0x6
ARM GAS  C:\Users\haske\AppData\Local\Temp\ccpEN9oH.s 			page 84


 3680 1317 2D       		.uleb128 0x2d
 3681 1318 01       		.uleb128 0x1
 3682 1319 52       		.byte	0x52
 3683 131a 04       		.uleb128 0x4
 3684 131b 91       		.byte	0x91
 3685 131c E07E     		.sleb128 -160
 3686 131e 06       		.byte	0x6
 3687 131f 00       		.byte	0
 3688 1320 2E       		.uleb128 0x2e
 3689 1321 DA000000 		.4byte	.LVL90
 3690 1325 3A180000 		.4byte	0x183a
 3691 1329 2D       		.uleb128 0x2d
 3692 132a 01       		.uleb128 0x1
 3693 132b 50       		.byte	0x50
 3694 132c 04       		.uleb128 0x4
 3695 132d 91       		.byte	0x91
 3696 132e F47E     		.sleb128 -140
 3697 1330 06       		.byte	0x6
 3698 1331 2D       		.uleb128 0x2d
 3699 1332 01       		.uleb128 0x1
 3700 1333 51       		.byte	0x51
 3701 1334 02       		.uleb128 0x2
 3702 1335 75       		.byte	0x75
 3703 1336 00       		.sleb128 0
 3704 1337 00       		.byte	0
 3705 1338 00       		.byte	0
 3706 1339 27       		.uleb128 0x27
 3707 133a FA000000 		.4byte	.LBB64
 3708 133e 3C000000 		.4byte	.LBE64-.LBB64
 3709 1342 AF130000 		.4byte	0x13af
 3710 1346 2B       		.uleb128 0x2b
 3711 1347 3C0D0000 		.4byte	.LASF234
 3712 134b 01       		.byte	0x1
 3713 134c 55       		.byte	0x55
 3714 134d EC010000 		.4byte	0x1ec
 3715 1351 2B       		.uleb128 0x2b
 3716 1352 360D0000 		.4byte	.LASF235
 3717 1356 01       		.byte	0x1
 3718 1357 56       		.byte	0x56
 3719 1358 EC010000 		.4byte	0x1ec
 3720 135c 28       		.uleb128 0x28
 3721 135d 3A0E0000 		.4byte	0xe3a
 3722 1361 FA000000 		.4byte	.LBB65
 3723 1365 10000000 		.4byte	.LBE65-.LBB65
 3724 1369 01       		.byte	0x1
 3725 136a 55       		.byte	0x55
 3726 136b 79130000 		.4byte	0x1379
 3727 136f 29       		.uleb128 0x29
 3728 1370 4A0E0000 		.4byte	0xe4a
 3729 1374 CA060000 		.4byte	.LLST35
 3730 1378 00       		.byte	0
 3731 1379 28       		.uleb128 0x28
 3732 137a 7C0E0000 		.4byte	0xe7c
 3733 137e 0A010000 		.4byte	.LBB67
 3734 1382 0E000000 		.4byte	.LBE67-.LBB67
 3735 1386 01       		.byte	0x1
 3736 1387 56       		.byte	0x56
ARM GAS  C:\Users\haske\AppData\Local\Temp\ccpEN9oH.s 			page 85


 3737 1388 96130000 		.4byte	0x1396
 3738 138c 29       		.uleb128 0x29
 3739 138d 8C0E0000 		.4byte	0xe8c
 3740 1391 DF060000 		.4byte	.LLST36
 3741 1395 00       		.byte	0
 3742 1396 2E       		.uleb128 0x2e
 3743 1397 36010000 		.4byte	.LVL95
 3744 139b 3A180000 		.4byte	0x183a
 3745 139f 2D       		.uleb128 0x2d
 3746 13a0 01       		.uleb128 0x1
 3747 13a1 50       		.byte	0x50
 3748 13a2 04       		.uleb128 0x4
 3749 13a3 91       		.byte	0x91
 3750 13a4 F47E     		.sleb128 -140
 3751 13a6 06       		.byte	0x6
 3752 13a7 2D       		.uleb128 0x2d
 3753 13a8 01       		.uleb128 0x1
 3754 13a9 51       		.byte	0x51
 3755 13aa 02       		.uleb128 0x2
 3756 13ab 75       		.byte	0x75
 3757 13ac 00       		.sleb128 0
 3758 13ad 00       		.byte	0
 3759 13ae 00       		.byte	0
 3760 13af 27       		.uleb128 0x27
 3761 13b0 38010000 		.4byte	.LBB69
 3762 13b4 96020000 		.4byte	.LBE69-.LBB69
 3763 13b8 AD170000 		.4byte	0x17ad
 3764 13bc 2B       		.uleb128 0x2b
 3765 13bd 3C0D0000 		.4byte	.LASF234
 3766 13c1 01       		.byte	0x1
 3767 13c2 67       		.byte	0x67
 3768 13c3 EC010000 		.4byte	0x1ec
 3769 13c7 2B       		.uleb128 0x2b
 3770 13c8 360D0000 		.4byte	.LASF235
 3771 13cc 01       		.byte	0x1
 3772 13cd 68       		.byte	0x68
 3773 13ce EC010000 		.4byte	0x1ec
 3774 13d2 2B       		.uleb128 0x2b
 3775 13d3 5A050000 		.4byte	.LASF258
 3776 13d7 01       		.byte	0x1
 3777 13d8 69       		.byte	0x69
 3778 13d9 EC010000 		.4byte	0x1ec
 3779 13dd 2B       		.uleb128 0x2b
 3780 13de 6E050000 		.4byte	.LASF259
 3781 13e2 01       		.byte	0x1
 3782 13e3 6A       		.byte	0x6a
 3783 13e4 EC010000 		.4byte	0x1ec
 3784 13e8 25       		.uleb128 0x25
 3785 13e9 84070000 		.4byte	.LASF260
 3786 13ed 01       		.byte	0x1
 3787 13ee 6C       		.byte	0x6c
 3788 13ef E4000000 		.4byte	0xe4
 3789 13f3 F4060000 		.4byte	.LLST37
 3790 13f7 25       		.uleb128 0x25
 3791 13f8 9E0B0000 		.4byte	.LASF261
 3792 13fc 01       		.byte	0x1
 3793 13fd 6D       		.byte	0x6d
ARM GAS  C:\Users\haske\AppData\Local\Temp\ccpEN9oH.s 			page 86


 3794 13fe E4000000 		.4byte	0xe4
 3795 1402 12070000 		.4byte	.LLST38
 3796 1406 25       		.uleb128 0x25
 3797 1407 E4020000 		.4byte	.LASF262
 3798 140b 01       		.byte	0x1
 3799 140c 6E       		.byte	0x6e
 3800 140d E4000000 		.4byte	0xe4
 3801 1411 25070000 		.4byte	.LLST39
 3802 1415 25       		.uleb128 0x25
 3803 1416 08030000 		.4byte	.LASF263
 3804 141a 01       		.byte	0x1
 3805 141b 6F       		.byte	0x6f
 3806 141c E4000000 		.4byte	0xe4
 3807 1420 4E070000 		.4byte	.LLST40
 3808 1424 25       		.uleb128 0x25
 3809 1425 D3060000 		.4byte	.LASF264
 3810 1429 01       		.byte	0x1
 3811 142a 79       		.byte	0x79
 3812 142b E4000000 		.4byte	0xe4
 3813 142f 86070000 		.4byte	.LLST41
 3814 1433 25       		.uleb128 0x25
 3815 1434 860F0000 		.4byte	.LASF265
 3816 1438 01       		.byte	0x1
 3817 1439 7B       		.byte	0x7b
 3818 143a 74060000 		.4byte	0x674
 3819 143e 99070000 		.4byte	.LLST42
 3820 1442 25       		.uleb128 0x25
 3821 1443 DE070000 		.4byte	.LASF89
 3822 1447 01       		.byte	0x1
 3823 1448 7C       		.byte	0x7c
 3824 1449 E2040000 		.4byte	0x4e2
 3825 144d B7070000 		.4byte	.LLST43
 3826 1451 25       		.uleb128 0x25
 3827 1452 A90B0000 		.4byte	.LASF266
 3828 1456 01       		.byte	0x1
 3829 1457 81       		.byte	0x81
 3830 1458 EC010000 		.4byte	0x1ec
 3831 145c D7070000 		.4byte	.LLST44
 3832 1460 25       		.uleb128 0x25
 3833 1461 D7010000 		.4byte	.LASF267
 3834 1465 01       		.byte	0x1
 3835 1466 84       		.byte	0x84
 3836 1467 D7040000 		.4byte	0x4d7
 3837 146b EC070000 		.4byte	.LLST45
 3838 146f 28       		.uleb128 0x28
 3839 1470 3A0E0000 		.4byte	0xe3a
 3840 1474 56010000 		.4byte	.LBB70
 3841 1478 16000000 		.4byte	.LBE70-.LBB70
 3842 147c 01       		.byte	0x1
 3843 147d 67       		.byte	0x67
 3844 147e 8C140000 		.4byte	0x148c
 3845 1482 29       		.uleb128 0x29
 3846 1483 4A0E0000 		.4byte	0xe4a
 3847 1487 FF070000 		.4byte	.LLST46
 3848 148b 00       		.byte	0
 3849 148c 28       		.uleb128 0x28
 3850 148d 7C0E0000 		.4byte	0xe7c
ARM GAS  C:\Users\haske\AppData\Local\Temp\ccpEN9oH.s 			page 87


 3851 1491 6C010000 		.4byte	.LBB72
 3852 1495 10000000 		.4byte	.LBE72-.LBB72
 3853 1499 01       		.byte	0x1
 3854 149a 68       		.byte	0x68
 3855 149b A9140000 		.4byte	0x14a9
 3856 149f 29       		.uleb128 0x29
 3857 14a0 8C0E0000 		.4byte	0xe8c
 3858 14a4 14080000 		.4byte	.LLST47
 3859 14a8 00       		.byte	0
 3860 14a9 28       		.uleb128 0x28
 3861 14aa 7C0E0000 		.4byte	0xe7c
 3862 14ae 7C010000 		.4byte	.LBB74
 3863 14b2 06000000 		.4byte	.LBE74-.LBB74
 3864 14b6 01       		.byte	0x1
 3865 14b7 69       		.byte	0x69
 3866 14b8 C6140000 		.4byte	0x14c6
 3867 14bc 29       		.uleb128 0x29
 3868 14bd 8C0E0000 		.4byte	0xe8c
 3869 14c1 29080000 		.4byte	.LLST48
 3870 14c5 00       		.byte	0
 3871 14c6 28       		.uleb128 0x28
 3872 14c7 3A0E0000 		.4byte	0xe3a
 3873 14cb 82010000 		.4byte	.LBB76
 3874 14cf 08000000 		.4byte	.LBE76-.LBB76
 3875 14d3 01       		.byte	0x1
 3876 14d4 6A       		.byte	0x6a
 3877 14d5 E3140000 		.4byte	0x14e3
 3878 14d9 29       		.uleb128 0x29
 3879 14da 4A0E0000 		.4byte	0xe4a
 3880 14de 3C080000 		.4byte	.LLST49
 3881 14e2 00       		.byte	0
 3882 14e3 27       		.uleb128 0x27
 3883 14e4 08020000 		.4byte	.LBB78
 3884 14e8 AC010000 		.4byte	.LBE78-.LBB78
 3885 14ec 36170000 		.4byte	0x1736
 3886 14f0 35       		.uleb128 0x35
 3887 14f1 360F0000 		.4byte	.LASF268
 3888 14f5 01       		.byte	0x1
 3889 14f6 8B       		.byte	0x8b
 3890 14f7 54020000 		.4byte	0x254
 3891 14fb 03       		.uleb128 0x3
 3892 14fc 91       		.byte	0x91
 3893 14fd A47F     		.sleb128 -92
 3894 14ff 28       		.uleb128 0x28
 3895 1500 980E0000 		.4byte	0xe98
 3896 1504 08020000 		.4byte	.LBB79
 3897 1508 18000000 		.4byte	.LBE79-.LBB79
 3898 150c 01       		.byte	0x1
 3899 150d 8C       		.byte	0x8c
 3900 150e 25150000 		.4byte	0x1525
 3901 1512 29       		.uleb128 0x29
 3902 1513 AF0E0000 		.4byte	0xeaf
 3903 1517 4F080000 		.4byte	.LLST50
 3904 151b 29       		.uleb128 0x29
 3905 151c A40E0000 		.4byte	0xea4
 3906 1520 7C080000 		.4byte	.LLST51
 3907 1524 00       		.byte	0
ARM GAS  C:\Users\haske\AppData\Local\Temp\ccpEN9oH.s 			page 88


 3908 1525 27       		.uleb128 0x27
 3909 1526 86020000 		.4byte	.LBB81
 3910 152a AE000000 		.4byte	.LBE81-.LBB81
 3911 152e CA150000 		.4byte	0x15ca
 3912 1532 2B       		.uleb128 0x2b
 3913 1533 06090000 		.4byte	.LASF269
 3914 1537 01       		.byte	0x1
 3915 1538 98       		.byte	0x98
 3916 1539 F3170000 		.4byte	0x17f3
 3917 153d 25       		.uleb128 0x25
 3918 153e AF090000 		.4byte	.LASF175
 3919 1542 01       		.byte	0x1
 3920 1543 99       		.byte	0x99
 3921 1544 E1010000 		.4byte	0x1e1
 3922 1548 9D080000 		.4byte	.LLST52
 3923 154c 2B       		.uleb128 0x2b
 3924 154d 65070000 		.4byte	.LASF174
 3925 1551 01       		.byte	0x1
 3926 1552 9A       		.byte	0x9a
 3927 1553 D6010000 		.4byte	0x1d6
 3928 1557 26       		.uleb128 0x26
 3929 1558 6900     		.ascii	"i\000"
 3930 155a 01       		.byte	0x1
 3931 155b 9D       		.byte	0x9d
 3932 155c E4000000 		.4byte	0xe4
 3933 1560 C9080000 		.4byte	.LLST53
 3934 1564 28       		.uleb128 0x28
 3935 1565 BB0E0000 		.4byte	0xebb
 3936 1569 88020000 		.4byte	.LBB82
 3937 156d 18000000 		.4byte	.LBE82-.LBB82
 3938 1571 01       		.byte	0x1
 3939 1572 9B       		.byte	0x9b
 3940 1573 8F150000 		.4byte	0x158f
 3941 1577 29       		.uleb128 0x29
 3942 1578 DE0E0000 		.4byte	0xede
 3943 157c E8080000 		.4byte	.LLST54
 3944 1580 29       		.uleb128 0x29
 3945 1581 D20E0000 		.4byte	0xed2
 3946 1585 00090000 		.4byte	.LLST55
 3947 1589 36       		.uleb128 0x36
 3948 158a C80E0000 		.4byte	0xec8
 3949 158e 00       		.byte	0
 3950 158f 2F       		.uleb128 0x2f
 3951 1590 EB0E0000 		.4byte	0xeeb
 3952 1594 B8020000 		.4byte	.LBB84
 3953 1598 72000000 		.4byte	.LBE84-.LBB84
 3954 159c 01       		.byte	0x1
 3955 159d 9F       		.byte	0x9f
 3956 159e 29       		.uleb128 0x29
 3957 159f 130F0000 		.4byte	0xf13
 3958 15a3 13090000 		.4byte	.LLST56
 3959 15a7 36       		.uleb128 0x36
 3960 15a8 080F0000 		.4byte	0xf08
 3961 15ac 29       		.uleb128 0x29
 3962 15ad FC0E0000 		.4byte	0xefc
 3963 15b1 26090000 		.4byte	.LLST57
 3964 15b5 30       		.uleb128 0x30
ARM GAS  C:\Users\haske\AppData\Local\Temp\ccpEN9oH.s 			page 89


 3965 15b6 B8020000 		.4byte	.LBB85
 3966 15ba 72000000 		.4byte	.LBE85-.LBB85
 3967 15be 37       		.uleb128 0x37
 3968 15bf 1F0F0000 		.4byte	0xf1f
 3969 15c3 3E090000 		.4byte	.LLST58
 3970 15c7 00       		.byte	0
 3971 15c8 00       		.byte	0
 3972 15c9 00       		.byte	0
 3973 15ca 27       		.uleb128 0x27
 3974 15cb 3A030000 		.4byte	.LBB86
 3975 15cf 50000000 		.4byte	.LBE86-.LBB86
 3976 15d3 46160000 		.4byte	0x1646
 3977 15d7 26       		.uleb128 0x26
 3978 15d8 7900     		.ascii	"y\000"
 3979 15da 01       		.byte	0x1
 3980 15db A5       		.byte	0xa5
 3981 15dc EC010000 		.4byte	0x1ec
 3982 15e0 51090000 		.4byte	.LLST59
 3983 15e4 25       		.uleb128 0x25
 3984 15e5 4F100000 		.4byte	.LASF270
 3985 15e9 01       		.byte	0x1
 3986 15ea A6       		.byte	0xa6
 3987 15eb E2040000 		.4byte	0x4e2
 3988 15ef 6F090000 		.4byte	.LLST60
 3989 15f3 30       		.uleb128 0x30
 3990 15f4 4A030000 		.4byte	.LBB87
 3991 15f8 30000000 		.4byte	.LBE87-.LBB87
 3992 15fc 25       		.uleb128 0x25
 3993 15fd B10F0000 		.4byte	.LASF271
 3994 1601 01       		.byte	0x1
 3995 1602 A8       		.byte	0xa8
 3996 1603 D7040000 		.4byte	0x4d7
 3997 1607 8F090000 		.4byte	.LLST61
 3998 160b 2C       		.uleb128 0x2c
 3999 160c 5A030000 		.4byte	.LVL148
 4000 1610 45180000 		.4byte	0x1845
 4001 1614 2E160000 		.4byte	0x162e
 4002 1618 2D       		.uleb128 0x2d
 4003 1619 01       		.uleb128 0x1
 4004 161a 50       		.byte	0x50
 4005 161b 02       		.uleb128 0x2
 4006 161c 76       		.byte	0x76
 4007 161d 00       		.sleb128 0
 4008 161e 2D       		.uleb128 0x2d
 4009 161f 01       		.uleb128 0x1
 4010 1620 52       		.byte	0x52
 4011 1621 02       		.uleb128 0x2
 4012 1622 74       		.byte	0x74
 4013 1623 00       		.sleb128 0
 4014 1624 2D       		.uleb128 0x2d
 4015 1625 01       		.uleb128 0x1
 4016 1626 53       		.byte	0x53
 4017 1627 05       		.uleb128 0x5
 4018 1628 91       		.byte	0x91
 4019 1629 E87E     		.sleb128 -152
 4020 162b 94       		.byte	0x94
 4021 162c 02       		.byte	0x2
ARM GAS  C:\Users\haske\AppData\Local\Temp\ccpEN9oH.s 			page 90


 4022 162d 00       		.byte	0
 4023 162e 2E       		.uleb128 0x2e
 4024 162f 66030000 		.4byte	.LVL150
 4025 1633 50180000 		.4byte	0x1850
 4026 1637 2D       		.uleb128 0x2d
 4027 1638 01       		.uleb128 0x1
 4028 1639 50       		.byte	0x50
 4029 163a 02       		.uleb128 0x2
 4030 163b 76       		.byte	0x76
 4031 163c 00       		.sleb128 0
 4032 163d 2D       		.uleb128 0x2d
 4033 163e 01       		.uleb128 0x1
 4034 163f 51       		.byte	0x51
 4035 1640 02       		.uleb128 0x2
 4036 1641 75       		.byte	0x75
 4037 1642 00       		.sleb128 0
 4038 1643 00       		.byte	0
 4039 1644 00       		.byte	0
 4040 1645 00       		.byte	0
 4041 1646 2C       		.uleb128 0x2c
 4042 1647 36020000 		.4byte	.LVL130
 4043 164b 5B180000 		.4byte	0x185b
 4044 164f 5B160000 		.4byte	0x165b
 4045 1653 2D       		.uleb128 0x2d
 4046 1654 01       		.uleb128 0x1
 4047 1655 50       		.byte	0x50
 4048 1656 03       		.uleb128 0x3
 4049 1657 91       		.byte	0x91
 4050 1658 A47F     		.sleb128 -92
 4051 165a 00       		.byte	0
 4052 165b 2C       		.uleb128 0x2c
 4053 165c 60020000 		.4byte	.LVL131
 4054 1660 66180000 		.4byte	0x1866
 4055 1664 C0160000 		.4byte	0x16c0
 4056 1668 2D       		.uleb128 0x2d
 4057 1669 01       		.uleb128 0x1
 4058 166a 50       		.byte	0x50
 4059 166b 04       		.uleb128 0x4
 4060 166c 91       		.byte	0x91
 4061 166d F47E     		.sleb128 -140
 4062 166f 06       		.byte	0x6
 4063 1670 2D       		.uleb128 0x2d
 4064 1671 01       		.uleb128 0x1
 4065 1672 51       		.byte	0x51
 4066 1673 03       		.uleb128 0x3
 4067 1674 91       		.byte	0x91
 4068 1675 A47F     		.sleb128 -92
 4069 1677 2D       		.uleb128 0x2d
 4070 1678 01       		.uleb128 0x1
 4071 1679 52       		.byte	0x52
 4072 167a 04       		.uleb128 0x4
 4073 167b 91       		.byte	0x91
 4074 167c 8C7F     		.sleb128 -116
 4075 167e 06       		.byte	0x6
 4076 167f 2D       		.uleb128 0x2d
 4077 1680 01       		.uleb128 0x1
 4078 1681 53       		.byte	0x53
ARM GAS  C:\Users\haske\AppData\Local\Temp\ccpEN9oH.s 			page 91


 4079 1682 05       		.uleb128 0x5
 4080 1683 91       		.byte	0x91
 4081 1684 987F     		.sleb128 -104
 4082 1686 94       		.byte	0x94
 4083 1687 02       		.byte	0x2
 4084 1688 2D       		.uleb128 0x2d
 4085 1689 02       		.uleb128 0x2
 4086 168a 7D       		.byte	0x7d
 4087 168b 00       		.sleb128 0
 4088 168c 05       		.uleb128 0x5
 4089 168d 91       		.byte	0x91
 4090 168e 947F     		.sleb128 -108
 4091 1690 94       		.byte	0x94
 4092 1691 02       		.byte	0x2
 4093 1692 2D       		.uleb128 0x2d
 4094 1693 02       		.uleb128 0x2
 4095 1694 7D       		.byte	0x7d
 4096 1695 04       		.sleb128 4
 4097 1696 05       		.uleb128 0x5
 4098 1697 91       		.byte	0x91
 4099 1698 987F     		.sleb128 -104
 4100 169a 94       		.byte	0x94
 4101 169b 02       		.byte	0x2
 4102 169c 2D       		.uleb128 0x2d
 4103 169d 02       		.uleb128 0x2
 4104 169e 7D       		.byte	0x7d
 4105 169f 08       		.sleb128 8
 4106 16a0 04       		.uleb128 0x4
 4107 16a1 91       		.byte	0x91
 4108 16a2 F07E     		.sleb128 -144
 4109 16a4 06       		.byte	0x6
 4110 16a5 2D       		.uleb128 0x2d
 4111 16a6 02       		.uleb128 0x2
 4112 16a7 7D       		.byte	0x7d
 4113 16a8 0C       		.sleb128 12
 4114 16a9 05       		.uleb128 0x5
 4115 16aa 91       		.byte	0x91
 4116 16ab 807F     		.sleb128 -128
 4117 16ad 94       		.byte	0x94
 4118 16ae 01       		.byte	0x1
 4119 16af 2D       		.uleb128 0x2d
 4120 16b0 02       		.uleb128 0x2
 4121 16b1 7D       		.byte	0x7d
 4122 16b2 10       		.sleb128 16
 4123 16b3 02       		.uleb128 0x2
 4124 16b4 76       		.byte	0x76
 4125 16b5 00       		.sleb128 0
 4126 16b6 2D       		.uleb128 0x2d
 4127 16b7 02       		.uleb128 0x2
 4128 16b8 7D       		.byte	0x7d
 4129 16b9 14       		.sleb128 20
 4130 16ba 04       		.uleb128 0x4
 4131 16bb 91       		.byte	0x91
 4132 16bc F87E     		.sleb128 -136
 4133 16be 06       		.byte	0x6
 4134 16bf 00       		.byte	0
 4135 16c0 2C       		.uleb128 0x2c
ARM GAS  C:\Users\haske\AppData\Local\Temp\ccpEN9oH.s 			page 92


 4136 16c1 7E020000 		.4byte	.LVL132
 4137 16c5 2C0F0000 		.4byte	0xf2c
 4138 16c9 1C170000 		.4byte	0x171c
 4139 16cd 2D       		.uleb128 0x2d
 4140 16ce 01       		.uleb128 0x1
 4141 16cf 50       		.byte	0x50
 4142 16d0 03       		.uleb128 0x3
 4143 16d1 91       		.byte	0x91
 4144 16d2 A47F     		.sleb128 -92
 4145 16d4 2D       		.uleb128 0x2d
 4146 16d5 01       		.uleb128 0x1
 4147 16d6 51       		.byte	0x51
 4148 16d7 04       		.uleb128 0x4
 4149 16d8 91       		.byte	0x91
 4150 16d9 8C7F     		.sleb128 -116
 4151 16db 06       		.byte	0x6
 4152 16dc 2D       		.uleb128 0x2d
 4153 16dd 01       		.uleb128 0x1
 4154 16de 52       		.byte	0x52
 4155 16df 05       		.uleb128 0x5
 4156 16e0 91       		.byte	0x91
 4157 16e1 987F     		.sleb128 -104
 4158 16e3 94       		.byte	0x94
 4159 16e4 02       		.byte	0x2
 4160 16e5 2D       		.uleb128 0x2d
 4161 16e6 01       		.uleb128 0x1
 4162 16e7 53       		.byte	0x53
 4163 16e8 05       		.uleb128 0x5
 4164 16e9 91       		.byte	0x91
 4165 16ea 947F     		.sleb128 -108
 4166 16ec 94       		.byte	0x94
 4167 16ed 02       		.byte	0x2
 4168 16ee 2D       		.uleb128 0x2d
 4169 16ef 02       		.uleb128 0x2
 4170 16f0 7D       		.byte	0x7d
 4171 16f1 00       		.sleb128 0
 4172 16f2 05       		.uleb128 0x5
 4173 16f3 91       		.byte	0x91
 4174 16f4 987F     		.sleb128 -104
 4175 16f6 94       		.byte	0x94
 4176 16f7 02       		.byte	0x2
 4177 16f8 2D       		.uleb128 0x2d
 4178 16f9 02       		.uleb128 0x2
 4179 16fa 7D       		.byte	0x7d
 4180 16fb 04       		.sleb128 4
 4181 16fc 04       		.uleb128 0x4
 4182 16fd 91       		.byte	0x91
 4183 16fe F07E     		.sleb128 -144
 4184 1700 06       		.byte	0x6
 4185 1701 2D       		.uleb128 0x2d
 4186 1702 02       		.uleb128 0x2
 4187 1703 7D       		.byte	0x7d
 4188 1704 08       		.sleb128 8
 4189 1705 05       		.uleb128 0x5
 4190 1706 91       		.byte	0x91
 4191 1707 807F     		.sleb128 -128
 4192 1709 94       		.byte	0x94
ARM GAS  C:\Users\haske\AppData\Local\Temp\ccpEN9oH.s 			page 93


 4193 170a 01       		.byte	0x1
 4194 170b 2D       		.uleb128 0x2d
 4195 170c 02       		.uleb128 0x2
 4196 170d 7D       		.byte	0x7d
 4197 170e 0C       		.sleb128 12
 4198 170f 02       		.uleb128 0x2
 4199 1710 76       		.byte	0x76
 4200 1711 00       		.sleb128 0
 4201 1712 2D       		.uleb128 0x2d
 4202 1713 02       		.uleb128 0x2
 4203 1714 7D       		.byte	0x7d
 4204 1715 10       		.sleb128 16
 4205 1716 04       		.uleb128 0x4
 4206 1717 91       		.byte	0x91
 4207 1718 F87E     		.sleb128 -136
 4208 171a 06       		.byte	0x6
 4209 171b 00       		.byte	0
 4210 171c 2E       		.uleb128 0x2e
 4211 171d 92030000 		.4byte	.LVL157
 4212 1721 3A180000 		.4byte	0x183a
 4213 1725 2D       		.uleb128 0x2d
 4214 1726 01       		.uleb128 0x1
 4215 1727 50       		.byte	0x50
 4216 1728 04       		.uleb128 0x4
 4217 1729 91       		.byte	0x91
 4218 172a F47E     		.sleb128 -140
 4219 172c 06       		.byte	0x6
 4220 172d 2D       		.uleb128 0x2d
 4221 172e 01       		.uleb128 0x1
 4222 172f 51       		.byte	0x51
 4223 1730 03       		.uleb128 0x3
 4224 1731 91       		.byte	0x91
 4225 1732 AC7F     		.sleb128 -84
 4226 1734 00       		.byte	0
 4227 1735 00       		.byte	0
 4228 1736 38       		.uleb128 0x38
 4229 1737 8E010000 		.4byte	.LVL105
 4230 173b 71180000 		.4byte	0x1871
 4231 173f 38       		.uleb128 0x38
 4232 1740 92010000 		.4byte	.LVL106
 4233 1744 7C180000 		.4byte	0x187c
 4234 1748 2C       		.uleb128 0x2c
 4235 1749 9A010000 		.4byte	.LVL109
 4236 174d 0E180000 		.4byte	0x180e
 4237 1751 5C170000 		.4byte	0x175c
 4238 1755 2D       		.uleb128 0x2d
 4239 1756 01       		.uleb128 0x1
 4240 1757 50       		.byte	0x50
 4241 1758 02       		.uleb128 0x2
 4242 1759 75       		.byte	0x75
 4243 175a 00       		.sleb128 0
 4244 175b 00       		.byte	0
 4245 175c 2C       		.uleb128 0x2c
 4246 175d BC010000 		.4byte	.LVL118
 4247 1761 88180000 		.4byte	0x1888
 4248 1765 72170000 		.4byte	0x1772
 4249 1769 2D       		.uleb128 0x2d
ARM GAS  C:\Users\haske\AppData\Local\Temp\ccpEN9oH.s 			page 94


 4250 176a 01       		.uleb128 0x1
 4251 176b 50       		.byte	0x50
 4252 176c 04       		.uleb128 0x4
 4253 176d 77       		.byte	0x77
 4254 176e 00       		.sleb128 0
 4255 176f 31       		.byte	0x31
 4256 1770 24       		.byte	0x24
 4257 1771 00       		.byte	0
 4258 1772 2C       		.uleb128 0x2c
 4259 1773 C4010000 		.4byte	.LVL121
 4260 1777 88180000 		.4byte	0x1888
 4261 177b 86170000 		.4byte	0x1786
 4262 177f 2D       		.uleb128 0x2d
 4263 1780 01       		.uleb128 0x1
 4264 1781 50       		.byte	0x50
 4265 1782 02       		.uleb128 0x2
 4266 1783 77       		.byte	0x77
 4267 1784 00       		.sleb128 0
 4268 1785 00       		.byte	0
 4269 1786 2C       		.uleb128 0x2c
 4270 1787 C8030000 		.4byte	.LVL158
 4271 178b 93180000 		.4byte	0x1893
 4272 178f 9C170000 		.4byte	0x179c
 4273 1793 2D       		.uleb128 0x2d
 4274 1794 01       		.uleb128 0x1
 4275 1795 50       		.byte	0x50
 4276 1796 04       		.uleb128 0x4
 4277 1797 91       		.byte	0x91
 4278 1798 F87E     		.sleb128 -136
 4279 179a 06       		.byte	0x6
 4280 179b 00       		.byte	0
 4281 179c 2E       		.uleb128 0x2e
 4282 179d CE030000 		.4byte	.LVL159
 4283 17a1 93180000 		.4byte	0x1893
 4284 17a5 2D       		.uleb128 0x2d
 4285 17a6 01       		.uleb128 0x1
 4286 17a7 50       		.byte	0x50
 4287 17a8 02       		.uleb128 0x2
 4288 17a9 76       		.byte	0x76
 4289 17aa 00       		.sleb128 0
 4290 17ab 00       		.byte	0
 4291 17ac 00       		.byte	0
 4292 17ad 2C       		.uleb128 0x2c
 4293 17ae 3E000000 		.4byte	.LVL83
 4294 17b2 9E180000 		.4byte	0x189e
 4295 17b6 C1170000 		.4byte	0x17c1
 4296 17ba 2D       		.uleb128 0x2d
 4297 17bb 01       		.uleb128 0x1
 4298 17bc 50       		.byte	0x50
 4299 17bd 02       		.uleb128 0x2
 4300 17be 91       		.byte	0x91
 4301 17bf 50       		.sleb128 -48
 4302 17c0 00       		.byte	0
 4303 17c1 2C       		.uleb128 0x2c
 4304 17c2 52000000 		.4byte	.LVL87
 4305 17c6 50180000 		.4byte	0x1850
 4306 17ca DA170000 		.4byte	0x17da
ARM GAS  C:\Users\haske\AppData\Local\Temp\ccpEN9oH.s 			page 95


 4307 17ce 2D       		.uleb128 0x2d
 4308 17cf 01       		.uleb128 0x1
 4309 17d0 50       		.byte	0x50
 4310 17d1 02       		.uleb128 0x2
 4311 17d2 75       		.byte	0x75
 4312 17d3 00       		.sleb128 0
 4313 17d4 2D       		.uleb128 0x2d
 4314 17d5 01       		.uleb128 0x1
 4315 17d6 51       		.byte	0x51
 4316 17d7 01       		.uleb128 0x1
 4317 17d8 4C       		.byte	0x4c
 4318 17d9 00       		.byte	0
 4319 17da 2E       		.uleb128 0x2e
 4320 17db 8C000000 		.4byte	.LVL88
 4321 17df 3A180000 		.4byte	0x183a
 4322 17e3 2D       		.uleb128 0x2d
 4323 17e4 01       		.uleb128 0x1
 4324 17e5 50       		.byte	0x50
 4325 17e6 04       		.uleb128 0x4
 4326 17e7 91       		.byte	0x91
 4327 17e8 F47E     		.sleb128 -140
 4328 17ea 06       		.byte	0x6
 4329 17eb 2D       		.uleb128 0x2d
 4330 17ec 01       		.uleb128 0x1
 4331 17ed 51       		.byte	0x51
 4332 17ee 02       		.uleb128 0x2
 4333 17ef 75       		.byte	0x75
 4334 17f0 00       		.sleb128 0
 4335 17f1 00       		.byte	0
 4336 17f2 00       		.byte	0
 4337 17f3 16       		.uleb128 0x16
 4338 17f4 CE000000 		.4byte	0xce
 4339 17f8 03180000 		.4byte	0x1803
 4340 17fc 17       		.uleb128 0x17
 4341 17fd 0C010000 		.4byte	0x10c
 4342 1801 02       		.byte	0x2
 4343 1802 00       		.byte	0
 4344 1803 39       		.uleb128 0x39
 4345 1804 C20D0000 		.4byte	.LASF291
 4346 1808 08       		.byte	0x8
 4347 1809 94       		.byte	0x94
 4348 180a A1080000 		.4byte	0x8a1
 4349 180e 3A       		.uleb128 0x3a
 4350 180f 89030000 		.4byte	.LASF272
 4351 1813 89030000 		.4byte	.LASF272
 4352 1817 02       		.byte	0x2
 4353 1818 A5       		.byte	0xa5
 4354 1819 3A       		.uleb128 0x3a
 4355 181a 2F0E0000 		.4byte	.LASF273
 4356 181e 2F0E0000 		.4byte	.LASF273
 4357 1822 16       		.byte	0x16
 4358 1823 E5       		.byte	0xe5
 4359 1824 3A       		.uleb128 0x3a
 4360 1825 D6000000 		.4byte	.LASF274
 4361 1829 D6000000 		.4byte	.LASF274
 4362 182d 16       		.byte	0x16
 4363 182e BA       		.byte	0xba
ARM GAS  C:\Users\haske\AppData\Local\Temp\ccpEN9oH.s 			page 96


 4364 182f 3A       		.uleb128 0x3a
 4365 1830 7F050000 		.4byte	.LASF275
 4366 1834 7F050000 		.4byte	.LASF275
 4367 1838 02       		.byte	0x2
 4368 1839 B2       		.byte	0xb2
 4369 183a 3A       		.uleb128 0x3a
 4370 183b 5A010000 		.4byte	.LASF276
 4371 183f 5A010000 		.4byte	.LASF276
 4372 1843 0D       		.byte	0xd
 4373 1844 34       		.byte	0x34
 4374 1845 3A       		.uleb128 0x3a
 4375 1846 8B010000 		.4byte	.LASF277
 4376 184a 8B010000 		.4byte	.LASF277
 4377 184e 0C       		.byte	0xc
 4378 184f F4       		.byte	0xf4
 4379 1850 3A       		.uleb128 0x3a
 4380 1851 3C040000 		.4byte	.LASF278
 4381 1855 3C040000 		.4byte	.LASF278
 4382 1859 16       		.byte	0x16
 4383 185a DE       		.byte	0xde
 4384 185b 3A       		.uleb128 0x3a
 4385 185c E7070000 		.4byte	.LASF279
 4386 1860 E7070000 		.4byte	.LASF279
 4387 1864 02       		.byte	0x2
 4388 1865 A9       		.byte	0xa9
 4389 1866 3A       		.uleb128 0x3a
 4390 1867 36090000 		.4byte	.LASF280
 4391 186b 36090000 		.4byte	.LASF280
 4392 186f 17       		.byte	0x17
 4393 1870 20       		.byte	0x20
 4394 1871 3A       		.uleb128 0x3a
 4395 1872 F90E0000 		.4byte	.LASF281
 4396 1876 F90E0000 		.4byte	.LASF281
 4397 187a 18       		.byte	0x18
 4398 187b 4E       		.byte	0x4e
 4399 187c 3B       		.uleb128 0x3b
 4400 187d F9040000 		.4byte	.LASF282
 4401 1881 F9040000 		.4byte	.LASF282
 4402 1885 19       		.byte	0x19
 4403 1886 0701     		.2byte	0x107
 4404 1888 3A       		.uleb128 0x3a
 4405 1889 EF080000 		.4byte	.LASF283
 4406 188d EF080000 		.4byte	.LASF283
 4407 1891 16       		.byte	0x16
 4408 1892 6D       		.byte	0x6d
 4409 1893 3A       		.uleb128 0x3a
 4410 1894 28070000 		.4byte	.LASF284
 4411 1898 28070000 		.4byte	.LASF284
 4412 189c 16       		.byte	0x16
 4413 189d 73       		.byte	0x73
 4414 189e 3B       		.uleb128 0x3b
 4415 189f 3F020000 		.4byte	.LASF285
 4416 18a3 3F020000 		.4byte	.LASF285
 4417 18a7 0C       		.byte	0xc
 4418 18a8 3601     		.2byte	0x136
 4419 18aa 00       		.byte	0
 4420              		.section	.debug_abbrev,"",%progbits
ARM GAS  C:\Users\haske\AppData\Local\Temp\ccpEN9oH.s 			page 97


 4421              	.Ldebug_abbrev0:
 4422 0000 01       		.uleb128 0x1
 4423 0001 11       		.uleb128 0x11
 4424 0002 01       		.byte	0x1
 4425 0003 25       		.uleb128 0x25
 4426 0004 0E       		.uleb128 0xe
 4427 0005 13       		.uleb128 0x13
 4428 0006 0B       		.uleb128 0xb
 4429 0007 03       		.uleb128 0x3
 4430 0008 0E       		.uleb128 0xe
 4431 0009 1B       		.uleb128 0x1b
 4432 000a 0E       		.uleb128 0xe
 4433 000b 55       		.uleb128 0x55
 4434 000c 17       		.uleb128 0x17
 4435 000d 11       		.uleb128 0x11
 4436 000e 01       		.uleb128 0x1
 4437 000f 10       		.uleb128 0x10
 4438 0010 17       		.uleb128 0x17
 4439 0011 00       		.byte	0
 4440 0012 00       		.byte	0
 4441 0013 02       		.uleb128 0x2
 4442 0014 16       		.uleb128 0x16
 4443 0015 00       		.byte	0
 4444 0016 03       		.uleb128 0x3
 4445 0017 0E       		.uleb128 0xe
 4446 0018 3A       		.uleb128 0x3a
 4447 0019 0B       		.uleb128 0xb
 4448 001a 3B       		.uleb128 0x3b
 4449 001b 0B       		.uleb128 0xb
 4450 001c 49       		.uleb128 0x49
 4451 001d 13       		.uleb128 0x13
 4452 001e 00       		.byte	0
 4453 001f 00       		.byte	0
 4454 0020 03       		.uleb128 0x3
 4455 0021 24       		.uleb128 0x24
 4456 0022 00       		.byte	0
 4457 0023 0B       		.uleb128 0xb
 4458 0024 0B       		.uleb128 0xb
 4459 0025 3E       		.uleb128 0x3e
 4460 0026 0B       		.uleb128 0xb
 4461 0027 03       		.uleb128 0x3
 4462 0028 0E       		.uleb128 0xe
 4463 0029 00       		.byte	0
 4464 002a 00       		.byte	0
 4465 002b 04       		.uleb128 0x4
 4466 002c 24       		.uleb128 0x24
 4467 002d 00       		.byte	0
 4468 002e 0B       		.uleb128 0xb
 4469 002f 0B       		.uleb128 0xb
 4470 0030 3E       		.uleb128 0x3e
 4471 0031 0B       		.uleb128 0xb
 4472 0032 03       		.uleb128 0x3
 4473 0033 08       		.uleb128 0x8
 4474 0034 00       		.byte	0
 4475 0035 00       		.byte	0
 4476 0036 05       		.uleb128 0x5
 4477 0037 0F       		.uleb128 0xf
ARM GAS  C:\Users\haske\AppData\Local\Temp\ccpEN9oH.s 			page 98


 4478 0038 00       		.byte	0
 4479 0039 0B       		.uleb128 0xb
 4480 003a 0B       		.uleb128 0xb
 4481 003b 00       		.byte	0
 4482 003c 00       		.byte	0
 4483 003d 06       		.uleb128 0x6
 4484 003e 04       		.uleb128 0x4
 4485 003f 01       		.byte	0x1
 4486 0040 0B       		.uleb128 0xb
 4487 0041 0B       		.uleb128 0xb
 4488 0042 49       		.uleb128 0x49
 4489 0043 13       		.uleb128 0x13
 4490 0044 3A       		.uleb128 0x3a
 4491 0045 0B       		.uleb128 0xb
 4492 0046 3B       		.uleb128 0x3b
 4493 0047 0B       		.uleb128 0xb
 4494 0048 01       		.uleb128 0x1
 4495 0049 13       		.uleb128 0x13
 4496 004a 00       		.byte	0
 4497 004b 00       		.byte	0
 4498 004c 07       		.uleb128 0x7
 4499 004d 28       		.uleb128 0x28
 4500 004e 00       		.byte	0
 4501 004f 03       		.uleb128 0x3
 4502 0050 0E       		.uleb128 0xe
 4503 0051 1C       		.uleb128 0x1c
 4504 0052 0B       		.uleb128 0xb
 4505 0053 00       		.byte	0
 4506 0054 00       		.byte	0
 4507 0055 08       		.uleb128 0x8
 4508 0056 13       		.uleb128 0x13
 4509 0057 01       		.byte	0x1
 4510 0058 0B       		.uleb128 0xb
 4511 0059 0B       		.uleb128 0xb
 4512 005a 3A       		.uleb128 0x3a
 4513 005b 0B       		.uleb128 0xb
 4514 005c 3B       		.uleb128 0x3b
 4515 005d 0B       		.uleb128 0xb
 4516 005e 01       		.uleb128 0x1
 4517 005f 13       		.uleb128 0x13
 4518 0060 00       		.byte	0
 4519 0061 00       		.byte	0
 4520 0062 09       		.uleb128 0x9
 4521 0063 0D       		.uleb128 0xd
 4522 0064 00       		.byte	0
 4523 0065 03       		.uleb128 0x3
 4524 0066 0E       		.uleb128 0xe
 4525 0067 3A       		.uleb128 0x3a
 4526 0068 0B       		.uleb128 0xb
 4527 0069 3B       		.uleb128 0x3b
 4528 006a 0B       		.uleb128 0xb
 4529 006b 49       		.uleb128 0x49
 4530 006c 13       		.uleb128 0x13
 4531 006d 0B       		.uleb128 0xb
 4532 006e 0B       		.uleb128 0xb
 4533 006f 0D       		.uleb128 0xd
 4534 0070 0B       		.uleb128 0xb
ARM GAS  C:\Users\haske\AppData\Local\Temp\ccpEN9oH.s 			page 99


 4535 0071 0C       		.uleb128 0xc
 4536 0072 0B       		.uleb128 0xb
 4537 0073 38       		.uleb128 0x38
 4538 0074 0B       		.uleb128 0xb
 4539 0075 00       		.byte	0
 4540 0076 00       		.byte	0
 4541 0077 0A       		.uleb128 0xa
 4542 0078 0D       		.uleb128 0xd
 4543 0079 00       		.byte	0
 4544 007a 03       		.uleb128 0x3
 4545 007b 08       		.uleb128 0x8
 4546 007c 3A       		.uleb128 0x3a
 4547 007d 0B       		.uleb128 0xb
 4548 007e 3B       		.uleb128 0x3b
 4549 007f 0B       		.uleb128 0xb
 4550 0080 49       		.uleb128 0x49
 4551 0081 13       		.uleb128 0x13
 4552 0082 0B       		.uleb128 0xb
 4553 0083 0B       		.uleb128 0xb
 4554 0084 0D       		.uleb128 0xd
 4555 0085 0B       		.uleb128 0xb
 4556 0086 0C       		.uleb128 0xc
 4557 0087 0B       		.uleb128 0xb
 4558 0088 38       		.uleb128 0x38
 4559 0089 0B       		.uleb128 0xb
 4560 008a 00       		.byte	0
 4561 008b 00       		.byte	0
 4562 008c 0B       		.uleb128 0xb
 4563 008d 17       		.uleb128 0x17
 4564 008e 01       		.byte	0x1
 4565 008f 0B       		.uleb128 0xb
 4566 0090 0B       		.uleb128 0xb
 4567 0091 3A       		.uleb128 0x3a
 4568 0092 0B       		.uleb128 0xb
 4569 0093 3B       		.uleb128 0x3b
 4570 0094 0B       		.uleb128 0xb
 4571 0095 01       		.uleb128 0x1
 4572 0096 13       		.uleb128 0x13
 4573 0097 00       		.byte	0
 4574 0098 00       		.byte	0
 4575 0099 0C       		.uleb128 0xc
 4576 009a 0D       		.uleb128 0xd
 4577 009b 00       		.byte	0
 4578 009c 03       		.uleb128 0x3
 4579 009d 08       		.uleb128 0x8
 4580 009e 3A       		.uleb128 0x3a
 4581 009f 0B       		.uleb128 0xb
 4582 00a0 3B       		.uleb128 0x3b
 4583 00a1 0B       		.uleb128 0xb
 4584 00a2 49       		.uleb128 0x49
 4585 00a3 13       		.uleb128 0x13
 4586 00a4 00       		.byte	0
 4587 00a5 00       		.byte	0
 4588 00a6 0D       		.uleb128 0xd
 4589 00a7 0D       		.uleb128 0xd
 4590 00a8 00       		.byte	0
 4591 00a9 03       		.uleb128 0x3
ARM GAS  C:\Users\haske\AppData\Local\Temp\ccpEN9oH.s 			page 100


 4592 00aa 0E       		.uleb128 0xe
 4593 00ab 3A       		.uleb128 0x3a
 4594 00ac 0B       		.uleb128 0xb
 4595 00ad 3B       		.uleb128 0x3b
 4596 00ae 0B       		.uleb128 0xb
 4597 00af 49       		.uleb128 0x49
 4598 00b0 13       		.uleb128 0x13
 4599 00b1 00       		.byte	0
 4600 00b2 00       		.byte	0
 4601 00b3 0E       		.uleb128 0xe
 4602 00b4 0D       		.uleb128 0xd
 4603 00b5 00       		.byte	0
 4604 00b6 03       		.uleb128 0x3
 4605 00b7 08       		.uleb128 0x8
 4606 00b8 3A       		.uleb128 0x3a
 4607 00b9 0B       		.uleb128 0xb
 4608 00ba 3B       		.uleb128 0x3b
 4609 00bb 0B       		.uleb128 0xb
 4610 00bc 49       		.uleb128 0x49
 4611 00bd 13       		.uleb128 0x13
 4612 00be 38       		.uleb128 0x38
 4613 00bf 0B       		.uleb128 0xb
 4614 00c0 00       		.byte	0
 4615 00c1 00       		.byte	0
 4616 00c2 0F       		.uleb128 0xf
 4617 00c3 0D       		.uleb128 0xd
 4618 00c4 00       		.byte	0
 4619 00c5 03       		.uleb128 0x3
 4620 00c6 0E       		.uleb128 0xe
 4621 00c7 3A       		.uleb128 0x3a
 4622 00c8 0B       		.uleb128 0xb
 4623 00c9 3B       		.uleb128 0x3b
 4624 00ca 0B       		.uleb128 0xb
 4625 00cb 49       		.uleb128 0x49
 4626 00cc 13       		.uleb128 0x13
 4627 00cd 38       		.uleb128 0x38
 4628 00ce 0B       		.uleb128 0xb
 4629 00cf 00       		.byte	0
 4630 00d0 00       		.byte	0
 4631 00d1 10       		.uleb128 0x10
 4632 00d2 13       		.uleb128 0x13
 4633 00d3 01       		.byte	0x1
 4634 00d4 03       		.uleb128 0x3
 4635 00d5 0E       		.uleb128 0xe
 4636 00d6 0B       		.uleb128 0xb
 4637 00d7 0B       		.uleb128 0xb
 4638 00d8 3A       		.uleb128 0x3a
 4639 00d9 0B       		.uleb128 0xb
 4640 00da 3B       		.uleb128 0x3b
 4641 00db 0B       		.uleb128 0xb
 4642 00dc 01       		.uleb128 0x1
 4643 00dd 13       		.uleb128 0x13
 4644 00de 00       		.byte	0
 4645 00df 00       		.byte	0
 4646 00e0 11       		.uleb128 0x11
 4647 00e1 0F       		.uleb128 0xf
 4648 00e2 00       		.byte	0
ARM GAS  C:\Users\haske\AppData\Local\Temp\ccpEN9oH.s 			page 101


 4649 00e3 0B       		.uleb128 0xb
 4650 00e4 0B       		.uleb128 0xb
 4651 00e5 49       		.uleb128 0x49
 4652 00e6 13       		.uleb128 0x13
 4653 00e7 00       		.byte	0
 4654 00e8 00       		.byte	0
 4655 00e9 12       		.uleb128 0x12
 4656 00ea 26       		.uleb128 0x26
 4657 00eb 00       		.byte	0
 4658 00ec 49       		.uleb128 0x49
 4659 00ed 13       		.uleb128 0x13
 4660 00ee 00       		.byte	0
 4661 00ef 00       		.byte	0
 4662 00f0 13       		.uleb128 0x13
 4663 00f1 15       		.uleb128 0x15
 4664 00f2 01       		.byte	0x1
 4665 00f3 27       		.uleb128 0x27
 4666 00f4 19       		.uleb128 0x19
 4667 00f5 49       		.uleb128 0x49
 4668 00f6 13       		.uleb128 0x13
 4669 00f7 01       		.uleb128 0x1
 4670 00f8 13       		.uleb128 0x13
 4671 00f9 00       		.byte	0
 4672 00fa 00       		.byte	0
 4673 00fb 14       		.uleb128 0x14
 4674 00fc 05       		.uleb128 0x5
 4675 00fd 00       		.byte	0
 4676 00fe 49       		.uleb128 0x49
 4677 00ff 13       		.uleb128 0x13
 4678 0100 00       		.byte	0
 4679 0101 00       		.byte	0
 4680 0102 15       		.uleb128 0x15
 4681 0103 26       		.uleb128 0x26
 4682 0104 00       		.byte	0
 4683 0105 00       		.byte	0
 4684 0106 00       		.byte	0
 4685 0107 16       		.uleb128 0x16
 4686 0108 01       		.uleb128 0x1
 4687 0109 01       		.byte	0x1
 4688 010a 49       		.uleb128 0x49
 4689 010b 13       		.uleb128 0x13
 4690 010c 01       		.uleb128 0x1
 4691 010d 13       		.uleb128 0x13
 4692 010e 00       		.byte	0
 4693 010f 00       		.byte	0
 4694 0110 17       		.uleb128 0x17
 4695 0111 21       		.uleb128 0x21
 4696 0112 00       		.byte	0
 4697 0113 49       		.uleb128 0x49
 4698 0114 13       		.uleb128 0x13
 4699 0115 2F       		.uleb128 0x2f
 4700 0116 0B       		.uleb128 0xb
 4701 0117 00       		.byte	0
 4702 0118 00       		.byte	0
 4703 0119 18       		.uleb128 0x18
 4704 011a 15       		.uleb128 0x15
 4705 011b 01       		.byte	0x1
ARM GAS  C:\Users\haske\AppData\Local\Temp\ccpEN9oH.s 			page 102


 4706 011c 27       		.uleb128 0x27
 4707 011d 19       		.uleb128 0x19
 4708 011e 01       		.uleb128 0x1
 4709 011f 13       		.uleb128 0x13
 4710 0120 00       		.byte	0
 4711 0121 00       		.byte	0
 4712 0122 19       		.uleb128 0x19
 4713 0123 2E       		.uleb128 0x2e
 4714 0124 01       		.byte	0x1
 4715 0125 03       		.uleb128 0x3
 4716 0126 0E       		.uleb128 0xe
 4717 0127 3A       		.uleb128 0x3a
 4718 0128 0B       		.uleb128 0xb
 4719 0129 3B       		.uleb128 0x3b
 4720 012a 0B       		.uleb128 0xb
 4721 012b 27       		.uleb128 0x27
 4722 012c 19       		.uleb128 0x19
 4723 012d 49       		.uleb128 0x49
 4724 012e 13       		.uleb128 0x13
 4725 012f 20       		.uleb128 0x20
 4726 0130 0B       		.uleb128 0xb
 4727 0131 01       		.uleb128 0x1
 4728 0132 13       		.uleb128 0x13
 4729 0133 00       		.byte	0
 4730 0134 00       		.byte	0
 4731 0135 1A       		.uleb128 0x1a
 4732 0136 05       		.uleb128 0x5
 4733 0137 00       		.byte	0
 4734 0138 03       		.uleb128 0x3
 4735 0139 0E       		.uleb128 0xe
 4736 013a 3A       		.uleb128 0x3a
 4737 013b 0B       		.uleb128 0xb
 4738 013c 3B       		.uleb128 0x3b
 4739 013d 0B       		.uleb128 0xb
 4740 013e 49       		.uleb128 0x49
 4741 013f 13       		.uleb128 0x13
 4742 0140 00       		.byte	0
 4743 0141 00       		.byte	0
 4744 0142 1B       		.uleb128 0x1b
 4745 0143 2E       		.uleb128 0x2e
 4746 0144 01       		.byte	0x1
 4747 0145 03       		.uleb128 0x3
 4748 0146 0E       		.uleb128 0xe
 4749 0147 3A       		.uleb128 0x3a
 4750 0148 0B       		.uleb128 0xb
 4751 0149 3B       		.uleb128 0x3b
 4752 014a 05       		.uleb128 0x5
 4753 014b 27       		.uleb128 0x27
 4754 014c 19       		.uleb128 0x19
 4755 014d 49       		.uleb128 0x49
 4756 014e 13       		.uleb128 0x13
 4757 014f 20       		.uleb128 0x20
 4758 0150 0B       		.uleb128 0xb
 4759 0151 01       		.uleb128 0x1
 4760 0152 13       		.uleb128 0x13
 4761 0153 00       		.byte	0
 4762 0154 00       		.byte	0
ARM GAS  C:\Users\haske\AppData\Local\Temp\ccpEN9oH.s 			page 103


 4763 0155 1C       		.uleb128 0x1c
 4764 0156 05       		.uleb128 0x5
 4765 0157 00       		.byte	0
 4766 0158 03       		.uleb128 0x3
 4767 0159 08       		.uleb128 0x8
 4768 015a 3A       		.uleb128 0x3a
 4769 015b 0B       		.uleb128 0xb
 4770 015c 3B       		.uleb128 0x3b
 4771 015d 05       		.uleb128 0x5
 4772 015e 49       		.uleb128 0x49
 4773 015f 13       		.uleb128 0x13
 4774 0160 00       		.byte	0
 4775 0161 00       		.byte	0
 4776 0162 1D       		.uleb128 0x1d
 4777 0163 34       		.uleb128 0x34
 4778 0164 00       		.byte	0
 4779 0165 03       		.uleb128 0x3
 4780 0166 08       		.uleb128 0x8
 4781 0167 3A       		.uleb128 0x3a
 4782 0168 0B       		.uleb128 0xb
 4783 0169 3B       		.uleb128 0x3b
 4784 016a 05       		.uleb128 0x5
 4785 016b 49       		.uleb128 0x49
 4786 016c 13       		.uleb128 0x13
 4787 016d 00       		.byte	0
 4788 016e 00       		.byte	0
 4789 016f 1E       		.uleb128 0x1e
 4790 0170 2E       		.uleb128 0x2e
 4791 0171 01       		.byte	0x1
 4792 0172 03       		.uleb128 0x3
 4793 0173 0E       		.uleb128 0xe
 4794 0174 3A       		.uleb128 0x3a
 4795 0175 0B       		.uleb128 0xb
 4796 0176 3B       		.uleb128 0x3b
 4797 0177 0B       		.uleb128 0xb
 4798 0178 27       		.uleb128 0x27
 4799 0179 19       		.uleb128 0x19
 4800 017a 20       		.uleb128 0x20
 4801 017b 0B       		.uleb128 0xb
 4802 017c 01       		.uleb128 0x1
 4803 017d 13       		.uleb128 0x13
 4804 017e 00       		.byte	0
 4805 017f 00       		.byte	0
 4806 0180 1F       		.uleb128 0x1f
 4807 0181 05       		.uleb128 0x5
 4808 0182 00       		.byte	0
 4809 0183 03       		.uleb128 0x3
 4810 0184 08       		.uleb128 0x8
 4811 0185 3A       		.uleb128 0x3a
 4812 0186 0B       		.uleb128 0xb
 4813 0187 3B       		.uleb128 0x3b
 4814 0188 0B       		.uleb128 0xb
 4815 0189 49       		.uleb128 0x49
 4816 018a 13       		.uleb128 0x13
 4817 018b 00       		.byte	0
 4818 018c 00       		.byte	0
 4819 018d 20       		.uleb128 0x20
ARM GAS  C:\Users\haske\AppData\Local\Temp\ccpEN9oH.s 			page 104


 4820 018e 2E       		.uleb128 0x2e
 4821 018f 01       		.byte	0x1
 4822 0190 03       		.uleb128 0x3
 4823 0191 0E       		.uleb128 0xe
 4824 0192 3A       		.uleb128 0x3a
 4825 0193 0B       		.uleb128 0xb
 4826 0194 3B       		.uleb128 0x3b
 4827 0195 05       		.uleb128 0x5
 4828 0196 27       		.uleb128 0x27
 4829 0197 19       		.uleb128 0x19
 4830 0198 20       		.uleb128 0x20
 4831 0199 0B       		.uleb128 0xb
 4832 019a 01       		.uleb128 0x1
 4833 019b 13       		.uleb128 0x13
 4834 019c 00       		.byte	0
 4835 019d 00       		.byte	0
 4836 019e 21       		.uleb128 0x21
 4837 019f 05       		.uleb128 0x5
 4838 01a0 00       		.byte	0
 4839 01a1 03       		.uleb128 0x3
 4840 01a2 0E       		.uleb128 0xe
 4841 01a3 3A       		.uleb128 0x3a
 4842 01a4 0B       		.uleb128 0xb
 4843 01a5 3B       		.uleb128 0x3b
 4844 01a6 05       		.uleb128 0x5
 4845 01a7 49       		.uleb128 0x49
 4846 01a8 13       		.uleb128 0x13
 4847 01a9 00       		.byte	0
 4848 01aa 00       		.byte	0
 4849 01ab 22       		.uleb128 0x22
 4850 01ac 2E       		.uleb128 0x2e
 4851 01ad 01       		.byte	0x1
 4852 01ae 03       		.uleb128 0x3
 4853 01af 0E       		.uleb128 0xe
 4854 01b0 3A       		.uleb128 0x3a
 4855 01b1 0B       		.uleb128 0xb
 4856 01b2 3B       		.uleb128 0x3b
 4857 01b3 0B       		.uleb128 0xb
 4858 01b4 27       		.uleb128 0x27
 4859 01b5 19       		.uleb128 0x19
 4860 01b6 11       		.uleb128 0x11
 4861 01b7 01       		.uleb128 0x1
 4862 01b8 12       		.uleb128 0x12
 4863 01b9 06       		.uleb128 0x6
 4864 01ba 40       		.uleb128 0x40
 4865 01bb 18       		.uleb128 0x18
 4866 01bc 9742     		.uleb128 0x2117
 4867 01be 19       		.uleb128 0x19
 4868 01bf 01       		.uleb128 0x1
 4869 01c0 13       		.uleb128 0x13
 4870 01c1 00       		.byte	0
 4871 01c2 00       		.byte	0
 4872 01c3 23       		.uleb128 0x23
 4873 01c4 05       		.uleb128 0x5
 4874 01c5 00       		.byte	0
 4875 01c6 03       		.uleb128 0x3
 4876 01c7 0E       		.uleb128 0xe
ARM GAS  C:\Users\haske\AppData\Local\Temp\ccpEN9oH.s 			page 105


 4877 01c8 3A       		.uleb128 0x3a
 4878 01c9 0B       		.uleb128 0xb
 4879 01ca 3B       		.uleb128 0x3b
 4880 01cb 0B       		.uleb128 0xb
 4881 01cc 49       		.uleb128 0x49
 4882 01cd 13       		.uleb128 0x13
 4883 01ce 02       		.uleb128 0x2
 4884 01cf 17       		.uleb128 0x17
 4885 01d0 00       		.byte	0
 4886 01d1 00       		.byte	0
 4887 01d2 24       		.uleb128 0x24
 4888 01d3 05       		.uleb128 0x5
 4889 01d4 00       		.byte	0
 4890 01d5 03       		.uleb128 0x3
 4891 01d6 08       		.uleb128 0x8
 4892 01d7 3A       		.uleb128 0x3a
 4893 01d8 0B       		.uleb128 0xb
 4894 01d9 3B       		.uleb128 0x3b
 4895 01da 0B       		.uleb128 0xb
 4896 01db 49       		.uleb128 0x49
 4897 01dc 13       		.uleb128 0x13
 4898 01dd 02       		.uleb128 0x2
 4899 01de 17       		.uleb128 0x17
 4900 01df 00       		.byte	0
 4901 01e0 00       		.byte	0
 4902 01e1 25       		.uleb128 0x25
 4903 01e2 34       		.uleb128 0x34
 4904 01e3 00       		.byte	0
 4905 01e4 03       		.uleb128 0x3
 4906 01e5 0E       		.uleb128 0xe
 4907 01e6 3A       		.uleb128 0x3a
 4908 01e7 0B       		.uleb128 0xb
 4909 01e8 3B       		.uleb128 0x3b
 4910 01e9 0B       		.uleb128 0xb
 4911 01ea 49       		.uleb128 0x49
 4912 01eb 13       		.uleb128 0x13
 4913 01ec 02       		.uleb128 0x2
 4914 01ed 17       		.uleb128 0x17
 4915 01ee 00       		.byte	0
 4916 01ef 00       		.byte	0
 4917 01f0 26       		.uleb128 0x26
 4918 01f1 34       		.uleb128 0x34
 4919 01f2 00       		.byte	0
 4920 01f3 03       		.uleb128 0x3
 4921 01f4 08       		.uleb128 0x8
 4922 01f5 3A       		.uleb128 0x3a
 4923 01f6 0B       		.uleb128 0xb
 4924 01f7 3B       		.uleb128 0x3b
 4925 01f8 0B       		.uleb128 0xb
 4926 01f9 49       		.uleb128 0x49
 4927 01fa 13       		.uleb128 0x13
 4928 01fb 02       		.uleb128 0x2
 4929 01fc 17       		.uleb128 0x17
 4930 01fd 00       		.byte	0
 4931 01fe 00       		.byte	0
 4932 01ff 27       		.uleb128 0x27
 4933 0200 0B       		.uleb128 0xb
ARM GAS  C:\Users\haske\AppData\Local\Temp\ccpEN9oH.s 			page 106


 4934 0201 01       		.byte	0x1
 4935 0202 11       		.uleb128 0x11
 4936 0203 01       		.uleb128 0x1
 4937 0204 12       		.uleb128 0x12
 4938 0205 06       		.uleb128 0x6
 4939 0206 01       		.uleb128 0x1
 4940 0207 13       		.uleb128 0x13
 4941 0208 00       		.byte	0
 4942 0209 00       		.byte	0
 4943 020a 28       		.uleb128 0x28
 4944 020b 1D       		.uleb128 0x1d
 4945 020c 01       		.byte	0x1
 4946 020d 31       		.uleb128 0x31
 4947 020e 13       		.uleb128 0x13
 4948 020f 11       		.uleb128 0x11
 4949 0210 01       		.uleb128 0x1
 4950 0211 12       		.uleb128 0x12
 4951 0212 06       		.uleb128 0x6
 4952 0213 58       		.uleb128 0x58
 4953 0214 0B       		.uleb128 0xb
 4954 0215 59       		.uleb128 0x59
 4955 0216 0B       		.uleb128 0xb
 4956 0217 01       		.uleb128 0x1
 4957 0218 13       		.uleb128 0x13
 4958 0219 00       		.byte	0
 4959 021a 00       		.byte	0
 4960 021b 29       		.uleb128 0x29
 4961 021c 05       		.uleb128 0x5
 4962 021d 00       		.byte	0
 4963 021e 31       		.uleb128 0x31
 4964 021f 13       		.uleb128 0x13
 4965 0220 02       		.uleb128 0x2
 4966 0221 17       		.uleb128 0x17
 4967 0222 00       		.byte	0
 4968 0223 00       		.byte	0
 4969 0224 2A       		.uleb128 0x2a
 4970 0225 34       		.uleb128 0x34
 4971 0226 00       		.byte	0
 4972 0227 03       		.uleb128 0x3
 4973 0228 08       		.uleb128 0x8
 4974 0229 3A       		.uleb128 0x3a
 4975 022a 0B       		.uleb128 0xb
 4976 022b 3B       		.uleb128 0x3b
 4977 022c 0B       		.uleb128 0xb
 4978 022d 49       		.uleb128 0x49
 4979 022e 13       		.uleb128 0x13
 4980 022f 00       		.byte	0
 4981 0230 00       		.byte	0
 4982 0231 2B       		.uleb128 0x2b
 4983 0232 34       		.uleb128 0x34
 4984 0233 00       		.byte	0
 4985 0234 03       		.uleb128 0x3
 4986 0235 0E       		.uleb128 0xe
 4987 0236 3A       		.uleb128 0x3a
 4988 0237 0B       		.uleb128 0xb
 4989 0238 3B       		.uleb128 0x3b
 4990 0239 0B       		.uleb128 0xb
ARM GAS  C:\Users\haske\AppData\Local\Temp\ccpEN9oH.s 			page 107


 4991 023a 49       		.uleb128 0x49
 4992 023b 13       		.uleb128 0x13
 4993 023c 00       		.byte	0
 4994 023d 00       		.byte	0
 4995 023e 2C       		.uleb128 0x2c
 4996 023f 898201   		.uleb128 0x4109
 4997 0242 01       		.byte	0x1
 4998 0243 11       		.uleb128 0x11
 4999 0244 01       		.uleb128 0x1
 5000 0245 31       		.uleb128 0x31
 5001 0246 13       		.uleb128 0x13
 5002 0247 01       		.uleb128 0x1
 5003 0248 13       		.uleb128 0x13
 5004 0249 00       		.byte	0
 5005 024a 00       		.byte	0
 5006 024b 2D       		.uleb128 0x2d
 5007 024c 8A8201   		.uleb128 0x410a
 5008 024f 00       		.byte	0
 5009 0250 02       		.uleb128 0x2
 5010 0251 18       		.uleb128 0x18
 5011 0252 9142     		.uleb128 0x2111
 5012 0254 18       		.uleb128 0x18
 5013 0255 00       		.byte	0
 5014 0256 00       		.byte	0
 5015 0257 2E       		.uleb128 0x2e
 5016 0258 898201   		.uleb128 0x4109
 5017 025b 01       		.byte	0x1
 5018 025c 11       		.uleb128 0x11
 5019 025d 01       		.uleb128 0x1
 5020 025e 31       		.uleb128 0x31
 5021 025f 13       		.uleb128 0x13
 5022 0260 00       		.byte	0
 5023 0261 00       		.byte	0
 5024 0262 2F       		.uleb128 0x2f
 5025 0263 1D       		.uleb128 0x1d
 5026 0264 01       		.byte	0x1
 5027 0265 31       		.uleb128 0x31
 5028 0266 13       		.uleb128 0x13
 5029 0267 11       		.uleb128 0x11
 5030 0268 01       		.uleb128 0x1
 5031 0269 12       		.uleb128 0x12
 5032 026a 06       		.uleb128 0x6
 5033 026b 58       		.uleb128 0x58
 5034 026c 0B       		.uleb128 0xb
 5035 026d 59       		.uleb128 0x59
 5036 026e 0B       		.uleb128 0xb
 5037 026f 00       		.byte	0
 5038 0270 00       		.byte	0
 5039 0271 30       		.uleb128 0x30
 5040 0272 0B       		.uleb128 0xb
 5041 0273 01       		.byte	0x1
 5042 0274 11       		.uleb128 0x11
 5043 0275 01       		.uleb128 0x1
 5044 0276 12       		.uleb128 0x12
 5045 0277 06       		.uleb128 0x6
 5046 0278 00       		.byte	0
 5047 0279 00       		.byte	0
ARM GAS  C:\Users\haske\AppData\Local\Temp\ccpEN9oH.s 			page 108


 5048 027a 31       		.uleb128 0x31
 5049 027b 34       		.uleb128 0x34
 5050 027c 00       		.byte	0
 5051 027d 03       		.uleb128 0x3
 5052 027e 0E       		.uleb128 0xe
 5053 027f 3A       		.uleb128 0x3a
 5054 0280 0B       		.uleb128 0xb
 5055 0281 3B       		.uleb128 0x3b
 5056 0282 05       		.uleb128 0x5
 5057 0283 49       		.uleb128 0x49
 5058 0284 13       		.uleb128 0x13
 5059 0285 02       		.uleb128 0x2
 5060 0286 17       		.uleb128 0x17
 5061 0287 00       		.byte	0
 5062 0288 00       		.byte	0
 5063 0289 32       		.uleb128 0x32
 5064 028a 34       		.uleb128 0x34
 5065 028b 00       		.byte	0
 5066 028c 03       		.uleb128 0x3
 5067 028d 0E       		.uleb128 0xe
 5068 028e 3A       		.uleb128 0x3a
 5069 028f 0B       		.uleb128 0xb
 5070 0290 3B       		.uleb128 0x3b
 5071 0291 05       		.uleb128 0x5
 5072 0292 49       		.uleb128 0x49
 5073 0293 13       		.uleb128 0x13
 5074 0294 00       		.byte	0
 5075 0295 00       		.byte	0
 5076 0296 33       		.uleb128 0x33
 5077 0297 1D       		.uleb128 0x1d
 5078 0298 01       		.byte	0x1
 5079 0299 31       		.uleb128 0x31
 5080 029a 13       		.uleb128 0x13
 5081 029b 11       		.uleb128 0x11
 5082 029c 01       		.uleb128 0x1
 5083 029d 12       		.uleb128 0x12
 5084 029e 06       		.uleb128 0x6
 5085 029f 58       		.uleb128 0x58
 5086 02a0 0B       		.uleb128 0xb
 5087 02a1 59       		.uleb128 0x59
 5088 02a2 05       		.uleb128 0x5
 5089 02a3 01       		.uleb128 0x1
 5090 02a4 13       		.uleb128 0x13
 5091 02a5 00       		.byte	0
 5092 02a6 00       		.byte	0
 5093 02a7 34       		.uleb128 0x34
 5094 02a8 2E       		.uleb128 0x2e
 5095 02a9 01       		.byte	0x1
 5096 02aa 3F       		.uleb128 0x3f
 5097 02ab 19       		.uleb128 0x19
 5098 02ac 03       		.uleb128 0x3
 5099 02ad 0E       		.uleb128 0xe
 5100 02ae 3A       		.uleb128 0x3a
 5101 02af 0B       		.uleb128 0xb
 5102 02b0 3B       		.uleb128 0x3b
 5103 02b1 0B       		.uleb128 0xb
 5104 02b2 27       		.uleb128 0x27
ARM GAS  C:\Users\haske\AppData\Local\Temp\ccpEN9oH.s 			page 109


 5105 02b3 19       		.uleb128 0x19
 5106 02b4 11       		.uleb128 0x11
 5107 02b5 01       		.uleb128 0x1
 5108 02b6 12       		.uleb128 0x12
 5109 02b7 06       		.uleb128 0x6
 5110 02b8 40       		.uleb128 0x40
 5111 02b9 18       		.uleb128 0x18
 5112 02ba 9642     		.uleb128 0x2116
 5113 02bc 19       		.uleb128 0x19
 5114 02bd 01       		.uleb128 0x1
 5115 02be 13       		.uleb128 0x13
 5116 02bf 00       		.byte	0
 5117 02c0 00       		.byte	0
 5118 02c1 35       		.uleb128 0x35
 5119 02c2 34       		.uleb128 0x34
 5120 02c3 00       		.byte	0
 5121 02c4 03       		.uleb128 0x3
 5122 02c5 0E       		.uleb128 0xe
 5123 02c6 3A       		.uleb128 0x3a
 5124 02c7 0B       		.uleb128 0xb
 5125 02c8 3B       		.uleb128 0x3b
 5126 02c9 0B       		.uleb128 0xb
 5127 02ca 49       		.uleb128 0x49
 5128 02cb 13       		.uleb128 0x13
 5129 02cc 02       		.uleb128 0x2
 5130 02cd 18       		.uleb128 0x18
 5131 02ce 00       		.byte	0
 5132 02cf 00       		.byte	0
 5133 02d0 36       		.uleb128 0x36
 5134 02d1 05       		.uleb128 0x5
 5135 02d2 00       		.byte	0
 5136 02d3 31       		.uleb128 0x31
 5137 02d4 13       		.uleb128 0x13
 5138 02d5 00       		.byte	0
 5139 02d6 00       		.byte	0
 5140 02d7 37       		.uleb128 0x37
 5141 02d8 34       		.uleb128 0x34
 5142 02d9 00       		.byte	0
 5143 02da 31       		.uleb128 0x31
 5144 02db 13       		.uleb128 0x13
 5145 02dc 02       		.uleb128 0x2
 5146 02dd 17       		.uleb128 0x17
 5147 02de 00       		.byte	0
 5148 02df 00       		.byte	0
 5149 02e0 38       		.uleb128 0x38
 5150 02e1 898201   		.uleb128 0x4109
 5151 02e4 00       		.byte	0
 5152 02e5 11       		.uleb128 0x11
 5153 02e6 01       		.uleb128 0x1
 5154 02e7 31       		.uleb128 0x31
 5155 02e8 13       		.uleb128 0x13
 5156 02e9 00       		.byte	0
 5157 02ea 00       		.byte	0
 5158 02eb 39       		.uleb128 0x39
 5159 02ec 34       		.uleb128 0x34
 5160 02ed 00       		.byte	0
 5161 02ee 03       		.uleb128 0x3
ARM GAS  C:\Users\haske\AppData\Local\Temp\ccpEN9oH.s 			page 110


 5162 02ef 0E       		.uleb128 0xe
 5163 02f0 3A       		.uleb128 0x3a
 5164 02f1 0B       		.uleb128 0xb
 5165 02f2 3B       		.uleb128 0x3b
 5166 02f3 0B       		.uleb128 0xb
 5167 02f4 49       		.uleb128 0x49
 5168 02f5 13       		.uleb128 0x13
 5169 02f6 3F       		.uleb128 0x3f
 5170 02f7 19       		.uleb128 0x19
 5171 02f8 3C       		.uleb128 0x3c
 5172 02f9 19       		.uleb128 0x19
 5173 02fa 00       		.byte	0
 5174 02fb 00       		.byte	0
 5175 02fc 3A       		.uleb128 0x3a
 5176 02fd 2E       		.uleb128 0x2e
 5177 02fe 00       		.byte	0
 5178 02ff 3F       		.uleb128 0x3f
 5179 0300 19       		.uleb128 0x19
 5180 0301 3C       		.uleb128 0x3c
 5181 0302 19       		.uleb128 0x19
 5182 0303 6E       		.uleb128 0x6e
 5183 0304 0E       		.uleb128 0xe
 5184 0305 03       		.uleb128 0x3
 5185 0306 0E       		.uleb128 0xe
 5186 0307 3A       		.uleb128 0x3a
 5187 0308 0B       		.uleb128 0xb
 5188 0309 3B       		.uleb128 0x3b
 5189 030a 0B       		.uleb128 0xb
 5190 030b 00       		.byte	0
 5191 030c 00       		.byte	0
 5192 030d 3B       		.uleb128 0x3b
 5193 030e 2E       		.uleb128 0x2e
 5194 030f 00       		.byte	0
 5195 0310 3F       		.uleb128 0x3f
 5196 0311 19       		.uleb128 0x19
 5197 0312 3C       		.uleb128 0x3c
 5198 0313 19       		.uleb128 0x19
 5199 0314 6E       		.uleb128 0x6e
 5200 0315 0E       		.uleb128 0xe
 5201 0316 03       		.uleb128 0x3
 5202 0317 0E       		.uleb128 0xe
 5203 0318 3A       		.uleb128 0x3a
 5204 0319 0B       		.uleb128 0xb
 5205 031a 3B       		.uleb128 0x3b
 5206 031b 05       		.uleb128 0x5
 5207 031c 00       		.byte	0
 5208 031d 00       		.byte	0
 5209 031e 00       		.byte	0
 5210              		.section	.debug_loc,"",%progbits
 5211              	.Ldebug_loc0:
 5212              	.LLST0:
 5213 0000 00000000 		.4byte	.LVL0
 5214 0004 32000000 		.4byte	.LVL6
 5215 0008 0100     		.2byte	0x1
 5216 000a 50       		.byte	0x50
 5217 000b 32000000 		.4byte	.LVL6
 5218 000f 7E000000 		.4byte	.LVL17
ARM GAS  C:\Users\haske\AppData\Local\Temp\ccpEN9oH.s 			page 111


 5219 0013 0100     		.2byte	0x1
 5220 0015 59       		.byte	0x59
 5221 0016 7E000000 		.4byte	.LVL17
 5222 001a A2000000 		.4byte	.LVL24
 5223 001e 0100     		.2byte	0x1
 5224 0020 55       		.byte	0x55
 5225 0021 A2000000 		.4byte	.LVL24
 5226 0025 CC000000 		.4byte	.LVL29
 5227 0029 0400     		.2byte	0x4
 5228 002b F3       		.byte	0xf3
 5229 002c 01       		.uleb128 0x1
 5230 002d 50       		.byte	0x50
 5231 002e 9F       		.byte	0x9f
 5232 002f CC000000 		.4byte	.LVL29
 5233 0033 E0000000 		.4byte	.LVL31
 5234 0037 0100     		.2byte	0x1
 5235 0039 50       		.byte	0x50
 5236 003a E0000000 		.4byte	.LVL31
 5237 003e 1A010000 		.4byte	.LVL38
 5238 0042 0100     		.2byte	0x1
 5239 0044 59       		.byte	0x59
 5240 0045 1A010000 		.4byte	.LVL38
 5241 0049 50010000 		.4byte	.LVL50
 5242 004d 0400     		.2byte	0x4
 5243 004f F3       		.byte	0xf3
 5244 0050 01       		.uleb128 0x1
 5245 0051 50       		.byte	0x50
 5246 0052 9F       		.byte	0x9f
 5247 0053 50010000 		.4byte	.LVL50
 5248 0057 7A010000 		.4byte	.LVL54
 5249 005b 0100     		.2byte	0x1
 5250 005d 50       		.byte	0x50
 5251 005e 7A010000 		.4byte	.LVL54
 5252 0062 98010000 		.4byte	.LVL57
 5253 0066 0100     		.2byte	0x1
 5254 0068 59       		.byte	0x59
 5255 0069 98010000 		.4byte	.LVL57
 5256 006d 9A010000 		.4byte	.LVL58
 5257 0071 0100     		.2byte	0x1
 5258 0073 53       		.byte	0x53
 5259 0074 9A010000 		.4byte	.LVL58
 5260 0078 FC010000 		.4byte	.LVL74
 5261 007c 0200     		.2byte	0x2
 5262 007e 91       		.byte	0x91
 5263 007f 54       		.sleb128 -44
 5264 0080 FC010000 		.4byte	.LVL74
 5265 0084 0A020000 		.4byte	.LFE160
 5266 0088 0400     		.2byte	0x4
 5267 008a F3       		.byte	0xf3
 5268 008b 01       		.uleb128 0x1
 5269 008c 50       		.byte	0x50
 5270 008d 9F       		.byte	0x9f
 5271 008e 00000000 		.4byte	0
 5272 0092 00000000 		.4byte	0
 5273              	.LLST1:
 5274 0096 00000000 		.4byte	.LVL0
 5275 009a 35000000 		.4byte	.LVL7-1
ARM GAS  C:\Users\haske\AppData\Local\Temp\ccpEN9oH.s 			page 112


 5276 009e 0100     		.2byte	0x1
 5277 00a0 51       		.byte	0x51
 5278 00a1 35000000 		.4byte	.LVL7-1
 5279 00a5 CC000000 		.4byte	.LVL29
 5280 00a9 0200     		.2byte	0x2
 5281 00ab 91       		.byte	0x91
 5282 00ac 48       		.sleb128 -56
 5283 00ad CC000000 		.4byte	.LVL29
 5284 00b1 D8000000 		.4byte	.LVL30
 5285 00b5 0100     		.2byte	0x1
 5286 00b7 51       		.byte	0x51
 5287 00b8 D8000000 		.4byte	.LVL30
 5288 00bc 50010000 		.4byte	.LVL50
 5289 00c0 0200     		.2byte	0x2
 5290 00c2 91       		.byte	0x91
 5291 00c3 48       		.sleb128 -56
 5292 00c4 50010000 		.4byte	.LVL50
 5293 00c8 62010000 		.4byte	.LVL51
 5294 00cc 0100     		.2byte	0x1
 5295 00ce 51       		.byte	0x51
 5296 00cf 62010000 		.4byte	.LVL51
 5297 00d3 0A020000 		.4byte	.LFE160
 5298 00d7 0200     		.2byte	0x2
 5299 00d9 91       		.byte	0x91
 5300 00da 48       		.sleb128 -56
 5301 00db 00000000 		.4byte	0
 5302 00df 00000000 		.4byte	0
 5303              	.LLST2:
 5304 00e3 00000000 		.4byte	.LVL0
 5305 00e7 1C000000 		.4byte	.LVL2
 5306 00eb 0100     		.2byte	0x1
 5307 00ed 52       		.byte	0x52
 5308 00ee 1C000000 		.4byte	.LVL2
 5309 00f2 0A020000 		.4byte	.LFE160
 5310 00f6 0400     		.2byte	0x4
 5311 00f8 F3       		.byte	0xf3
 5312 00f9 01       		.uleb128 0x1
 5313 00fa 52       		.byte	0x52
 5314 00fb 9F       		.byte	0x9f
 5315 00fc 00000000 		.4byte	0
 5316 0100 00000000 		.4byte	0
 5317              	.LLST3:
 5318 0104 00000000 		.4byte	.LVL0
 5319 0108 18000000 		.4byte	.LVL1
 5320 010c 0100     		.2byte	0x1
 5321 010e 53       		.byte	0x53
 5322 010f 18000000 		.4byte	.LVL1
 5323 0113 0A020000 		.4byte	.LFE160
 5324 0117 0400     		.2byte	0x4
 5325 0119 F3       		.byte	0xf3
 5326 011a 01       		.uleb128 0x1
 5327 011b 53       		.byte	0x53
 5328 011c 9F       		.byte	0x9f
 5329 011d 00000000 		.4byte	0
 5330 0121 00000000 		.4byte	0
 5331              	.LLST4:
 5332 0125 00000000 		.4byte	.LVL0
ARM GAS  C:\Users\haske\AppData\Local\Temp\ccpEN9oH.s 			page 113


 5333 0129 18000000 		.4byte	.LVL1
 5334 012d 0200     		.2byte	0x2
 5335 012f 91       		.byte	0x91
 5336 0130 00       		.sleb128 0
 5337 0131 18000000 		.4byte	.LVL1
 5338 0135 1C000000 		.4byte	.LVL2
 5339 0139 0200     		.2byte	0x2
 5340 013b 73       		.byte	0x73
 5341 013c 00       		.sleb128 0
 5342 013d 1C000000 		.4byte	.LVL2
 5343 0141 0A020000 		.4byte	.LFE160
 5344 0145 0200     		.2byte	0x2
 5345 0147 91       		.byte	0x91
 5346 0148 00       		.sleb128 0
 5347 0149 00000000 		.4byte	0
 5348 014d 00000000 		.4byte	0
 5349              	.LLST5:
 5350 0151 00000000 		.4byte	.LVL0
 5351 0155 18000000 		.4byte	.LVL1
 5352 0159 0200     		.2byte	0x2
 5353 015b 91       		.byte	0x91
 5354 015c 04       		.sleb128 4
 5355 015d 18000000 		.4byte	.LVL1
 5356 0161 1C000000 		.4byte	.LVL2
 5357 0165 0200     		.2byte	0x2
 5358 0167 73       		.byte	0x73
 5359 0168 04       		.sleb128 4
 5360 0169 1C000000 		.4byte	.LVL2
 5361 016d 0A020000 		.4byte	.LFE160
 5362 0171 0200     		.2byte	0x2
 5363 0173 91       		.byte	0x91
 5364 0174 04       		.sleb128 4
 5365 0175 00000000 		.4byte	0
 5366 0179 00000000 		.4byte	0
 5367              	.LLST6:
 5368 017d 00000000 		.4byte	.LVL0
 5369 0181 18000000 		.4byte	.LVL1
 5370 0185 0200     		.2byte	0x2
 5371 0187 91       		.byte	0x91
 5372 0188 08       		.sleb128 8
 5373 0189 18000000 		.4byte	.LVL1
 5374 018d 1C000000 		.4byte	.LVL2
 5375 0191 0200     		.2byte	0x2
 5376 0193 73       		.byte	0x73
 5377 0194 08       		.sleb128 8
 5378 0195 1C000000 		.4byte	.LVL2
 5379 0199 20000000 		.4byte	.LVL3
 5380 019d 0200     		.2byte	0x2
 5381 019f 91       		.byte	0x91
 5382 01a0 08       		.sleb128 8
 5383 01a1 20000000 		.4byte	.LVL3
 5384 01a5 22000000 		.4byte	.LVL4
 5385 01a9 0200     		.2byte	0x2
 5386 01ab 73       		.byte	0x73
 5387 01ac 00       		.sleb128 0
 5388 01ad 22000000 		.4byte	.LVL4
 5389 01b1 0A020000 		.4byte	.LFE160
ARM GAS  C:\Users\haske\AppData\Local\Temp\ccpEN9oH.s 			page 114


 5390 01b5 0200     		.2byte	0x2
 5391 01b7 91       		.byte	0x91
 5392 01b8 08       		.sleb128 8
 5393 01b9 00000000 		.4byte	0
 5394 01bd 00000000 		.4byte	0
 5395              	.LLST7:
 5396 01c1 00000000 		.4byte	.LVL0
 5397 01c5 18000000 		.4byte	.LVL1
 5398 01c9 0200     		.2byte	0x2
 5399 01cb 91       		.byte	0x91
 5400 01cc 0C       		.sleb128 12
 5401 01cd 18000000 		.4byte	.LVL1
 5402 01d1 1C000000 		.4byte	.LVL2
 5403 01d5 0200     		.2byte	0x2
 5404 01d7 73       		.byte	0x73
 5405 01d8 0C       		.sleb128 12
 5406 01d9 1C000000 		.4byte	.LVL2
 5407 01dd 1C010000 		.4byte	.LVL39
 5408 01e1 0200     		.2byte	0x2
 5409 01e3 91       		.byte	0x91
 5410 01e4 0C       		.sleb128 12
 5411 01e5 1C010000 		.4byte	.LVL39
 5412 01e9 50010000 		.4byte	.LVL50
 5413 01ed 0100     		.2byte	0x1
 5414 01ef 54       		.byte	0x54
 5415 01f0 50010000 		.4byte	.LVL50
 5416 01f4 9A010000 		.4byte	.LVL58
 5417 01f8 0200     		.2byte	0x2
 5418 01fa 91       		.byte	0x91
 5419 01fb 0C       		.sleb128 12
 5420 01fc 9A010000 		.4byte	.LVL58
 5421 0200 E2010000 		.4byte	.LVL67
 5422 0204 0100     		.2byte	0x1
 5423 0206 54       		.byte	0x54
 5424 0207 00000000 		.4byte	0
 5425 020b 00000000 		.4byte	0
 5426              	.LLST8:
 5427 020f 00000000 		.4byte	.LVL0
 5428 0213 18000000 		.4byte	.LVL1
 5429 0217 0200     		.2byte	0x2
 5430 0219 91       		.byte	0x91
 5431 021a 10       		.sleb128 16
 5432 021b 18000000 		.4byte	.LVL1
 5433 021f 1C000000 		.4byte	.LVL2
 5434 0223 0200     		.2byte	0x2
 5435 0225 73       		.byte	0x73
 5436 0226 10       		.sleb128 16
 5437 0227 1C000000 		.4byte	.LVL2
 5438 022b 1C010000 		.4byte	.LVL39
 5439 022f 0200     		.2byte	0x2
 5440 0231 91       		.byte	0x91
 5441 0232 10       		.sleb128 16
 5442 0233 1C010000 		.4byte	.LVL39
 5443 0237 50010000 		.4byte	.LVL50
 5444 023b 0100     		.2byte	0x1
 5445 023d 55       		.byte	0x55
 5446 023e 50010000 		.4byte	.LVL50
ARM GAS  C:\Users\haske\AppData\Local\Temp\ccpEN9oH.s 			page 115


 5447 0242 E6010000 		.4byte	.LVL68
 5448 0246 0200     		.2byte	0x2
 5449 0248 91       		.byte	0x91
 5450 0249 10       		.sleb128 16
 5451 024a E6010000 		.4byte	.LVL68
 5452 024e FC010000 		.4byte	.LVL74
 5453 0252 0100     		.2byte	0x1
 5454 0254 55       		.byte	0x55
 5455 0255 00000000 		.4byte	0
 5456 0259 00000000 		.4byte	0
 5457              	.LLST9:
 5458 025d 28000000 		.4byte	.LVL5
 5459 0261 35000000 		.4byte	.LVL7-1
 5460 0265 0100     		.2byte	0x1
 5461 0267 51       		.byte	0x51
 5462 0268 35000000 		.4byte	.LVL7-1
 5463 026c 5A000000 		.4byte	.LVL11
 5464 0270 0200     		.2byte	0x2
 5465 0272 91       		.byte	0x91
 5466 0273 48       		.sleb128 -56
 5467 0274 5A000000 		.4byte	.LVL11
 5468 0278 CC000000 		.4byte	.LVL29
 5469 027c 0100     		.2byte	0x1
 5470 027e 57       		.byte	0x57
 5471 027f CC000000 		.4byte	.LVL29
 5472 0283 D8000000 		.4byte	.LVL30
 5473 0287 0100     		.2byte	0x1
 5474 0289 51       		.byte	0x51
 5475 028a D8000000 		.4byte	.LVL30
 5476 028e EC000000 		.4byte	.LVL32
 5477 0292 0200     		.2byte	0x2
 5478 0294 91       		.byte	0x91
 5479 0295 48       		.sleb128 -56
 5480 0296 EC000000 		.4byte	.LVL32
 5481 029a 50010000 		.4byte	.LVL50
 5482 029e 0100     		.2byte	0x1
 5483 02a0 57       		.byte	0x57
 5484 02a1 50010000 		.4byte	.LVL50
 5485 02a5 62010000 		.4byte	.LVL51
 5486 02a9 0100     		.2byte	0x1
 5487 02ab 51       		.byte	0x51
 5488 02ac 62010000 		.4byte	.LVL51
 5489 02b0 6C010000 		.4byte	.LVL52
 5490 02b4 0200     		.2byte	0x2
 5491 02b6 91       		.byte	0x91
 5492 02b7 48       		.sleb128 -56
 5493 02b8 6C010000 		.4byte	.LVL52
 5494 02bc BE010000 		.4byte	.LVL64
 5495 02c0 0100     		.2byte	0x1
 5496 02c2 57       		.byte	0x57
 5497 02c3 BE010000 		.4byte	.LVL64
 5498 02c7 C6010000 		.4byte	.LVL65
 5499 02cb 0200     		.2byte	0x2
 5500 02cd 91       		.byte	0x91
 5501 02ce 48       		.sleb128 -56
 5502 02cf C6010000 		.4byte	.LVL65
 5503 02d3 E0010000 		.4byte	.LVL66
ARM GAS  C:\Users\haske\AppData\Local\Temp\ccpEN9oH.s 			page 116


 5504 02d7 0700     		.2byte	0x7
 5505 02d9 91       		.byte	0x91
 5506 02da 48       		.sleb128 -56
 5507 02db 06       		.byte	0x6
 5508 02dc 72       		.byte	0x72
 5509 02dd 00       		.sleb128 0
 5510 02de 22       		.byte	0x22
 5511 02df 9F       		.byte	0x9f
 5512 02e0 E0010000 		.4byte	.LVL66
 5513 02e4 FC010000 		.4byte	.LVL74
 5514 02e8 0100     		.2byte	0x1
 5515 02ea 57       		.byte	0x57
 5516 02eb 00000000 		.4byte	0
 5517 02ef 00000000 		.4byte	0
 5518              	.LLST10:
 5519 02f3 72000000 		.4byte	.LVL16
 5520 02f7 94000000 		.4byte	.LVL21
 5521 02fb 0100     		.2byte	0x1
 5522 02fd 56       		.byte	0x56
 5523 02fe 96000000 		.4byte	.LVL22
 5524 0302 CC000000 		.4byte	.LVL29
 5525 0306 0100     		.2byte	0x1
 5526 0308 56       		.byte	0x56
 5527 0309 16010000 		.4byte	.LVL37
 5528 030d 1C010000 		.4byte	.LVL39
 5529 0311 0200     		.2byte	0x2
 5530 0313 30       		.byte	0x30
 5531 0314 9F       		.byte	0x9f
 5532 0315 1C010000 		.4byte	.LVL39
 5533 0319 50010000 		.4byte	.LVL50
 5534 031d 0100     		.2byte	0x1
 5535 031f 59       		.byte	0x59
 5536 0320 90010000 		.4byte	.LVL56
 5537 0324 9A010000 		.4byte	.LVL58
 5538 0328 0200     		.2byte	0x2
 5539 032a 30       		.byte	0x30
 5540 032b 9F       		.byte	0x9f
 5541 032c 9A010000 		.4byte	.LVL58
 5542 0330 B2010000 		.4byte	.LVL62
 5543 0334 0100     		.2byte	0x1
 5544 0336 56       		.byte	0x56
 5545 0337 B4010000 		.4byte	.LVL63
 5546 033b E0010000 		.4byte	.LVL66
 5547 033f 0100     		.2byte	0x1
 5548 0341 56       		.byte	0x56
 5549 0342 E0010000 		.4byte	.LVL66
 5550 0346 E6010000 		.4byte	.LVL68
 5551 034a 0200     		.2byte	0x2
 5552 034c 30       		.byte	0x30
 5553 034d 9F       		.byte	0x9f
 5554 034e E6010000 		.4byte	.LVL68
 5555 0352 F6010000 		.4byte	.LVL72
 5556 0356 0100     		.2byte	0x1
 5557 0358 54       		.byte	0x54
 5558 0359 F8010000 		.4byte	.LVL73
 5559 035d FC010000 		.4byte	.LVL74
 5560 0361 0100     		.2byte	0x1
ARM GAS  C:\Users\haske\AppData\Local\Temp\ccpEN9oH.s 			page 117


 5561 0363 54       		.byte	0x54
 5562 0364 00000000 		.4byte	0
 5563 0368 00000000 		.4byte	0
 5564              	.LLST11:
 5565 036c 1C010000 		.4byte	.LVL39
 5566 0370 30010000 		.4byte	.LVL41
 5567 0374 0100     		.2byte	0x1
 5568 0376 53       		.byte	0x53
 5569 0377 32010000 		.4byte	.LVL42
 5570 037b 34010000 		.4byte	.LVL43
 5571 037f 0100     		.2byte	0x1
 5572 0381 53       		.byte	0x53
 5573 0382 36010000 		.4byte	.LVL44
 5574 0386 3C010000 		.4byte	.LVL45
 5575 038a 0100     		.2byte	0x1
 5576 038c 53       		.byte	0x53
 5577 038d 00000000 		.4byte	0
 5578 0391 00000000 		.4byte	0
 5579              	.LLST12:
 5580 0395 3A000000 		.4byte	.LVL8
 5581 0399 3C000000 		.4byte	.LVL9
 5582 039d 0100     		.2byte	0x1
 5583 039f 50       		.byte	0x50
 5584 03a0 3C000000 		.4byte	.LVL9
 5585 03a4 3F000000 		.4byte	.LVL10-1
 5586 03a8 0100     		.2byte	0x1
 5587 03aa 51       		.byte	0x51
 5588 03ab 3F000000 		.4byte	.LVL10-1
 5589 03af CC000000 		.4byte	.LVL29
 5590 03b3 0200     		.2byte	0x2
 5591 03b5 91       		.byte	0x91
 5592 03b6 4C       		.sleb128 -52
 5593 03b7 00000000 		.4byte	0
 5594 03bb 00000000 		.4byte	0
 5595              	.LLST13:
 5596 03bf 66000000 		.4byte	.LVL12
 5597 03c3 68000000 		.4byte	.LVL13
 5598 03c7 0100     		.2byte	0x1
 5599 03c9 53       		.byte	0x53
 5600 03ca 68000000 		.4byte	.LVL13
 5601 03ce 6A000000 		.4byte	.LVL14
 5602 03d2 1200     		.2byte	0x12
 5603 03d4 79       		.byte	0x79
 5604 03d5 04       		.sleb128 4
 5605 03d6 94       		.byte	0x94
 5606 03d7 02       		.byte	0x2
 5607 03d8 40       		.byte	0x40
 5608 03d9 24       		.byte	0x24
 5609 03da 40       		.byte	0x40
 5610 03db 26       		.byte	0x26
 5611 03dc 72       		.byte	0x72
 5612 03dd 00       		.sleb128 0
 5613 03de 1C       		.byte	0x1c
 5614 03df 23       		.byte	0x23
 5615 03e0 01       		.uleb128 0x1
 5616 03e1 40       		.byte	0x40
 5617 03e2 24       		.byte	0x24
ARM GAS  C:\Users\haske\AppData\Local\Temp\ccpEN9oH.s 			page 118


 5618 03e3 40       		.byte	0x40
 5619 03e4 26       		.byte	0x26
 5620 03e5 9F       		.byte	0x9f
 5621 03e6 00000000 		.4byte	0
 5622 03ea 00000000 		.4byte	0
 5623              	.LLST14:
 5624 03ee 6A000000 		.4byte	.LVL14
 5625 03f2 6C000000 		.4byte	.LVL15
 5626 03f6 0100     		.2byte	0x1
 5627 03f8 53       		.byte	0x53
 5628 03f9 6C000000 		.4byte	.LVL15
 5629 03fd CC000000 		.4byte	.LVL29
 5630 0401 0200     		.2byte	0x2
 5631 0403 91       		.byte	0x91
 5632 0404 44       		.sleb128 -60
 5633 0405 00000000 		.4byte	0
 5634 0409 00000000 		.4byte	0
 5635              	.LLST15:
 5636 040d 72000000 		.4byte	.LVL16
 5637 0411 CC000000 		.4byte	.LVL29
 5638 0415 0100     		.2byte	0x1
 5639 0417 5A       		.byte	0x5a
 5640 0418 00000000 		.4byte	0
 5641 041c 00000000 		.4byte	0
 5642              	.LLST16:
 5643 0420 72000000 		.4byte	.LVL16
 5644 0424 A0000000 		.4byte	.LVL23
 5645 0428 0100     		.2byte	0x1
 5646 042a 54       		.byte	0x54
 5647 042b 00000000 		.4byte	0
 5648 042f 00000000 		.4byte	0
 5649              	.LLST17:
 5650 0433 5A000000 		.4byte	.LVL11
 5651 0437 66000000 		.4byte	.LVL12
 5652 043b 0100     		.2byte	0x1
 5653 043d 59       		.byte	0x59
 5654 043e 00000000 		.4byte	0
 5655 0442 00000000 		.4byte	0
 5656              	.LLST18:
 5657 0446 AC000000 		.4byte	.LVL25
 5658 044a C2000000 		.4byte	.LVL27
 5659 044e 0100     		.2byte	0x1
 5660 0450 53       		.byte	0x53
 5661 0451 C6000000 		.4byte	.LVL28
 5662 0455 CC000000 		.4byte	.LVL29
 5663 0459 0100     		.2byte	0x1
 5664 045b 53       		.byte	0x53
 5665 045c 00000000 		.4byte	0
 5666 0460 00000000 		.4byte	0
 5667              	.LLST19:
 5668 0464 00010000 		.4byte	.LVL34
 5669 0468 04010000 		.4byte	.LVL35
 5670 046c 0100     		.2byte	0x1
 5671 046e 53       		.byte	0x53
 5672 046f 04010000 		.4byte	.LVL35
 5673 0473 1A010000 		.4byte	.LVL38
 5674 0477 1B00     		.2byte	0x1b
ARM GAS  C:\Users\haske\AppData\Local\Temp\ccpEN9oH.s 			page 119


 5675 0479 7A       		.byte	0x7a
 5676 047a 00       		.sleb128 0
 5677 047b 79       		.byte	0x79
 5678 047c 04       		.sleb128 4
 5679 047d 94       		.byte	0x94
 5680 047e 02       		.byte	0x2
 5681 047f 40       		.byte	0x40
 5682 0480 24       		.byte	0x24
 5683 0481 40       		.byte	0x40
 5684 0482 26       		.byte	0x26
 5685 0483 79       		.byte	0x79
 5686 0484 00       		.sleb128 0
 5687 0485 94       		.byte	0x94
 5688 0486 02       		.byte	0x2
 5689 0487 40       		.byte	0x40
 5690 0488 24       		.byte	0x24
 5691 0489 40       		.byte	0x40
 5692 048a 26       		.byte	0x26
 5693 048b 1C       		.byte	0x1c
 5694 048c 23       		.byte	0x23
 5695 048d 01       		.uleb128 0x1
 5696 048e 0A       		.byte	0xa
 5697 048f FFFF     		.2byte	0xffff
 5698 0491 1A       		.byte	0x1a
 5699 0492 1C       		.byte	0x1c
 5700 0493 9F       		.byte	0x9f
 5701 0494 1A010000 		.4byte	.LVL38
 5702 0498 1C010000 		.4byte	.LVL39
 5703 049c 1F00     		.2byte	0x1f
 5704 049e 7A       		.byte	0x7a
 5705 049f 00       		.sleb128 0
 5706 04a0 F3       		.byte	0xf3
 5707 04a1 01       		.uleb128 0x1
 5708 04a2 50       		.byte	0x50
 5709 04a3 23       		.byte	0x23
 5710 04a4 04       		.uleb128 0x4
 5711 04a5 94       		.byte	0x94
 5712 04a6 02       		.byte	0x2
 5713 04a7 40       		.byte	0x40
 5714 04a8 24       		.byte	0x24
 5715 04a9 40       		.byte	0x40
 5716 04aa 26       		.byte	0x26
 5717 04ab F3       		.byte	0xf3
 5718 04ac 01       		.uleb128 0x1
 5719 04ad 50       		.byte	0x50
 5720 04ae 94       		.byte	0x94
 5721 04af 02       		.byte	0x2
 5722 04b0 40       		.byte	0x40
 5723 04b1 24       		.byte	0x24
 5724 04b2 40       		.byte	0x40
 5725 04b3 26       		.byte	0x26
 5726 04b4 1C       		.byte	0x1c
 5727 04b5 23       		.byte	0x23
 5728 04b6 01       		.uleb128 0x1
 5729 04b7 0A       		.byte	0xa
 5730 04b8 FFFF     		.2byte	0xffff
 5731 04ba 1A       		.byte	0x1a
ARM GAS  C:\Users\haske\AppData\Local\Temp\ccpEN9oH.s 			page 120


 5732 04bb 1C       		.byte	0x1c
 5733 04bc 9F       		.byte	0x9f
 5734 04bd 00000000 		.4byte	0
 5735 04c1 00000000 		.4byte	0
 5736              	.LLST20:
 5737 04c5 08010000 		.4byte	.LVL36
 5738 04c9 50010000 		.4byte	.LVL50
 5739 04cd 0100     		.2byte	0x1
 5740 04cf 5C       		.byte	0x5c
 5741 04d0 00000000 		.4byte	0
 5742 04d4 00000000 		.4byte	0
 5743              	.LLST21:
 5744 04d8 EC000000 		.4byte	.LVL32
 5745 04dc FA000000 		.4byte	.LVL33
 5746 04e0 0100     		.2byte	0x1
 5747 04e2 59       		.byte	0x59
 5748 04e3 00000000 		.4byte	0
 5749 04e7 00000000 		.4byte	0
 5750              	.LLST22:
 5751 04eb 08010000 		.4byte	.LVL36
 5752 04ef 16010000 		.4byte	.LVL37
 5753 04f3 0100     		.2byte	0x1
 5754 04f5 59       		.byte	0x59
 5755 04f6 00000000 		.4byte	0
 5756 04fa 00000000 		.4byte	0
 5757              	.LLST23:
 5758 04fe 74010000 		.4byte	.LVL53
 5759 0502 FC010000 		.4byte	.LVL74
 5760 0506 0200     		.2byte	0x2
 5761 0508 91       		.byte	0x91
 5762 0509 44       		.sleb128 -60
 5763 050a 00000000 		.4byte	0
 5764 050e 00000000 		.4byte	0
 5765              	.LLST24:
 5766 0512 74010000 		.4byte	.LVL53
 5767 0516 7A010000 		.4byte	.LVL54
 5768 051a 0100     		.2byte	0x1
 5769 051c 50       		.byte	0x50
 5770 051d 7A010000 		.4byte	.LVL54
 5771 0521 82010000 		.4byte	.LVL55
 5772 0525 0100     		.2byte	0x1
 5773 0527 59       		.byte	0x59
 5774 0528 00000000 		.4byte	0
 5775 052c 00000000 		.4byte	0
 5776              	.LLST25:
 5777 0530 82010000 		.4byte	.LVL55
 5778 0534 90010000 		.4byte	.LVL56
 5779 0538 0100     		.2byte	0x1
 5780 053a 59       		.byte	0x59
 5781 053b 00000000 		.4byte	0
 5782 053f 00000000 		.4byte	0
 5783              	.LLST26:
 5784 0543 00000000 		.4byte	.LVL75
 5785 0547 24000000 		.4byte	.LVL79
 5786 054b 0100     		.2byte	0x1
 5787 054d 50       		.byte	0x50
 5788 054e 24000000 		.4byte	.LVL79
ARM GAS  C:\Users\haske\AppData\Local\Temp\ccpEN9oH.s 			page 121


 5789 0552 E0030000 		.4byte	.LFE159
 5790 0556 0300     		.2byte	0x3
 5791 0558 91       		.byte	0x91
 5792 0559 F47E     		.sleb128 -140
 5793 055b 00000000 		.4byte	0
 5794 055f 00000000 		.4byte	0
 5795              	.LLST27:
 5796 0563 00000000 		.4byte	.LVL75
 5797 0567 3D000000 		.4byte	.LVL83-1
 5798 056b 0100     		.2byte	0x1
 5799 056d 51       		.byte	0x51
 5800 056e 3D000000 		.4byte	.LVL83-1
 5801 0572 FC000000 		.4byte	.LVL92
 5802 0576 0100     		.2byte	0x1
 5803 0578 54       		.byte	0x54
 5804 0579 FC000000 		.4byte	.LVL92
 5805 057d 38010000 		.4byte	.LVL96
 5806 0581 0300     		.2byte	0x3
 5807 0583 91       		.byte	0x91
 5808 0584 F07E     		.sleb128 -144
 5809 0586 38010000 		.4byte	.LVL96
 5810 058a 58010000 		.4byte	.LVL99
 5811 058e 0100     		.2byte	0x1
 5812 0590 54       		.byte	0x54
 5813 0591 58010000 		.4byte	.LVL99
 5814 0595 E0030000 		.4byte	.LFE159
 5815 0599 0300     		.2byte	0x3
 5816 059b 91       		.byte	0x91
 5817 059c F07E     		.sleb128 -144
 5818 059e 00000000 		.4byte	0
 5819 05a2 00000000 		.4byte	0
 5820              	.LLST28:
 5821 05a6 00000000 		.4byte	.LVL75
 5822 05aa 24000000 		.4byte	.LVL79
 5823 05ae 0100     		.2byte	0x1
 5824 05b0 52       		.byte	0x52
 5825 05b1 24000000 		.4byte	.LVL79
 5826 05b5 E0030000 		.4byte	.LFE159
 5827 05b9 0300     		.2byte	0x3
 5828 05bb 91       		.byte	0x91
 5829 05bc 887F     		.sleb128 -120
 5830 05be 00000000 		.4byte	0
 5831 05c2 00000000 		.4byte	0
 5832              	.LLST29:
 5833 05c6 00000000 		.4byte	.LVL75
 5834 05ca 1A000000 		.4byte	.LVL76
 5835 05ce 0100     		.2byte	0x1
 5836 05d0 53       		.byte	0x53
 5837 05d1 1A000000 		.4byte	.LVL76
 5838 05d5 1C000000 		.4byte	.LVL77
 5839 05d9 0300     		.2byte	0x3
 5840 05db 73       		.byte	0x73
 5841 05dc 8C7F     		.sleb128 -116
 5842 05de 1C000000 		.4byte	.LVL77
 5843 05e2 E0030000 		.4byte	.LFE159
 5844 05e6 0300     		.2byte	0x3
 5845 05e8 91       		.byte	0x91
ARM GAS  C:\Users\haske\AppData\Local\Temp\ccpEN9oH.s 			page 122


 5846 05e9 8C7F     		.sleb128 -116
 5847 05eb 00000000 		.4byte	0
 5848 05ef 00000000 		.4byte	0
 5849              	.LLST30:
 5850 05f3 00000000 		.4byte	.LVL75
 5851 05f7 1A000000 		.4byte	.LVL76
 5852 05fb 0200     		.2byte	0x2
 5853 05fd 91       		.byte	0x91
 5854 05fe 00       		.sleb128 0
 5855 05ff 1A000000 		.4byte	.LVL76
 5856 0603 1C000000 		.4byte	.LVL77
 5857 0607 0200     		.2byte	0x2
 5858 0609 73       		.byte	0x73
 5859 060a 00       		.sleb128 0
 5860 060b 1C000000 		.4byte	.LVL77
 5861 060f E0030000 		.4byte	.LFE159
 5862 0613 0200     		.2byte	0x2
 5863 0615 91       		.byte	0x91
 5864 0616 00       		.sleb128 0
 5865 0617 00000000 		.4byte	0
 5866 061b 00000000 		.4byte	0
 5867              	.LLST31:
 5868 061f 42000000 		.4byte	.LVL84
 5869 0623 4E000000 		.4byte	.LVL86
 5870 0627 0100     		.2byte	0x1
 5871 0629 50       		.byte	0x50
 5872 062a 4E000000 		.4byte	.LVL86
 5873 062e 5C010000 		.4byte	.LVL100
 5874 0632 0100     		.2byte	0x1
 5875 0634 57       		.byte	0x57
 5876 0635 5C010000 		.4byte	.LVL100
 5877 0639 E0030000 		.4byte	.LFE159
 5878 063d 0300     		.2byte	0x3
 5879 063f 91       		.byte	0x91
 5880 0640 FC7E     		.sleb128 -132
 5881 0642 00000000 		.4byte	0
 5882 0646 00000000 		.4byte	0
 5883              	.LLST32:
 5884 064a 48000000 		.4byte	.LVL85
 5885 064e 51000000 		.4byte	.LVL87-1
 5886 0652 0700     		.2byte	0x7
 5887 0654 73       		.byte	0x73
 5888 0655 00       		.sleb128 0
 5889 0656 40       		.byte	0x40
 5890 0657 44       		.byte	0x44
 5891 0658 24       		.byte	0x24
 5892 0659 2E       		.byte	0x2e
 5893 065a 9F       		.byte	0x9f
 5894 065b 51000000 		.4byte	.LVL87-1
 5895 065f 4E010000 		.4byte	.LVL97
 5896 0663 0700     		.2byte	0x7
 5897 0665 76       		.byte	0x76
 5898 0666 00       		.sleb128 0
 5899 0667 40       		.byte	0x40
 5900 0668 44       		.byte	0x44
 5901 0669 24       		.byte	0x24
 5902 066a 2E       		.byte	0x2e
ARM GAS  C:\Users\haske\AppData\Local\Temp\ccpEN9oH.s 			page 123


 5903 066b 9F       		.byte	0x9f
 5904 066c 4E010000 		.4byte	.LVL97
 5905 0670 E0030000 		.4byte	.LFE159
 5906 0674 0900     		.2byte	0x9
 5907 0676 91       		.byte	0x91
 5908 0677 847F     		.sleb128 -124
 5909 0679 06       		.byte	0x6
 5910 067a 40       		.byte	0x40
 5911 067b 44       		.byte	0x44
 5912 067c 24       		.byte	0x24
 5913 067d 2E       		.byte	0x2e
 5914 067e 9F       		.byte	0x9f
 5915 067f 00000000 		.4byte	0
 5916 0683 00000000 		.4byte	0
 5917              	.LLST33:
 5918 0687 20000000 		.4byte	.LVL78
 5919 068b 38000000 		.4byte	.LVL81
 5920 068f 0100     		.2byte	0x1
 5921 0691 53       		.byte	0x53
 5922 0692 38000000 		.4byte	.LVL81
 5923 0696 3A000000 		.4byte	.LVL82
 5924 069a 0600     		.2byte	0x6
 5925 069c 91       		.byte	0x91
 5926 069d F47E     		.sleb128 -140
 5927 069f 06       		.byte	0x6
 5928 06a0 23       		.byte	0x23
 5929 06a1 08       		.uleb128 0x8
 5930 06a2 00000000 		.4byte	0
 5931 06a6 00000000 		.4byte	0
 5932              	.LLST34:
 5933 06aa 20000000 		.4byte	.LVL78
 5934 06ae 26000000 		.4byte	.LVL80
 5935 06b2 0300     		.2byte	0x3
 5936 06b4 91       		.byte	0x91
 5937 06b5 50       		.sleb128 -48
 5938 06b6 9F       		.byte	0x9f
 5939 06b7 26000000 		.4byte	.LVL80
 5940 06bb 3A000000 		.4byte	.LVL82
 5941 06bf 0100     		.2byte	0x1
 5942 06c1 50       		.byte	0x50
 5943 06c2 00000000 		.4byte	0
 5944 06c6 00000000 		.4byte	0
 5945              	.LLST35:
 5946 06ca FA000000 		.4byte	.LVL91
 5947 06ce 0A010000 		.4byte	.LVL93
 5948 06d2 0300     		.2byte	0x3
 5949 06d4 91       		.byte	0x91
 5950 06d5 887F     		.sleb128 -120
 5951 06d7 00000000 		.4byte	0
 5952 06db 00000000 		.4byte	0
 5953              	.LLST36:
 5954 06df 0A010000 		.4byte	.LVL93
 5955 06e3 18010000 		.4byte	.LVL94
 5956 06e7 0300     		.2byte	0x3
 5957 06e9 91       		.byte	0x91
 5958 06ea 887F     		.sleb128 -120
 5959 06ec 00000000 		.4byte	0
ARM GAS  C:\Users\haske\AppData\Local\Temp\ccpEN9oH.s 			page 124


 5960 06f0 00000000 		.4byte	0
 5961              	.LLST37:
 5962 06f4 94010000 		.4byte	.LVL107
 5963 06f8 96010000 		.4byte	.LVL108
 5964 06fc 0100     		.2byte	0x1
 5965 06fe 50       		.byte	0x50
 5966 06ff 96010000 		.4byte	.LVL108
 5967 0703 B4010000 		.4byte	.LVL116
 5968 0707 0100     		.2byte	0x1
 5969 0709 54       		.byte	0x54
 5970 070a 00000000 		.4byte	0
 5971 070e 00000000 		.4byte	0
 5972              	.LLST38:
 5973 0712 9A010000 		.4byte	.LVL109
 5974 0716 AA010000 		.4byte	.LVL113
 5975 071a 0100     		.2byte	0x1
 5976 071c 50       		.byte	0x50
 5977 071d 00000000 		.4byte	0
 5978 0721 00000000 		.4byte	0
 5979              	.LLST39:
 5980 0725 A4010000 		.4byte	.LVL111
 5981 0729 A6010000 		.4byte	.LVL112
 5982 072d 0100     		.2byte	0x1
 5983 072f 53       		.byte	0x53
 5984 0730 B0010000 		.4byte	.LVL115
 5985 0734 BB010000 		.4byte	.LVL118-1
 5986 0738 0100     		.2byte	0x1
 5987 073a 53       		.byte	0x53
 5988 073b BB010000 		.4byte	.LVL118-1
 5989 073f 08020000 		.4byte	.LVL125
 5990 0743 0100     		.2byte	0x1
 5991 0745 54       		.byte	0x54
 5992 0746 00000000 		.4byte	0
 5993 074a 00000000 		.4byte	0
 5994              	.LLST40:
 5995 074e 9E010000 		.4byte	.LVL110
 5996 0752 A4010000 		.4byte	.LVL111
 5997 0756 0100     		.2byte	0x1
 5998 0758 53       		.byte	0x53
 5999 0759 A4010000 		.4byte	.LVL111
 6000 075d A6010000 		.4byte	.LVL112
 6001 0761 0300     		.2byte	0x3
 6002 0763 91       		.byte	0x91
 6003 0764 E87E     		.sleb128 -152
 6004 0766 A6010000 		.4byte	.LVL112
 6005 076a AD010000 		.4byte	.LVL114-1
 6006 076e 0100     		.2byte	0x1
 6007 0770 53       		.byte	0x53
 6008 0771 AD010000 		.4byte	.LVL114-1
 6009 0775 CE030000 		.4byte	.LVL159
 6010 0779 0300     		.2byte	0x3
 6011 077b 91       		.byte	0x91
 6012 077c E87E     		.sleb128 -152
 6013 077e 00000000 		.4byte	0
 6014 0782 00000000 		.4byte	0
 6015              	.LLST41:
 6016 0786 B6010000 		.4byte	.LVL117
ARM GAS  C:\Users\haske\AppData\Local\Temp\ccpEN9oH.s 			page 125


 6017 078a CE030000 		.4byte	.LVL159
 6018 078e 0100     		.2byte	0x1
 6019 0790 57       		.byte	0x57
 6020 0791 00000000 		.4byte	0
 6021 0795 00000000 		.4byte	0
 6022              	.LLST42:
 6023 0799 BE010000 		.4byte	.LVL119
 6024 079d C0010000 		.4byte	.LVL120
 6025 07a1 0100     		.2byte	0x1
 6026 07a3 50       		.byte	0x50
 6027 07a4 C0010000 		.4byte	.LVL120
 6028 07a8 08020000 		.4byte	.LVL125
 6029 07ac 0100     		.2byte	0x1
 6030 07ae 56       		.byte	0x56
 6031 07af 00000000 		.4byte	0
 6032 07b3 00000000 		.4byte	0
 6033              	.LLST43:
 6034 07b7 C6010000 		.4byte	.LVL122
 6035 07bb 08020000 		.4byte	.LVL125
 6036 07bf 0100     		.2byte	0x1
 6037 07c1 50       		.byte	0x50
 6038 07c2 08020000 		.4byte	.LVL125
 6039 07c6 CE030000 		.4byte	.LVL159
 6040 07ca 0300     		.2byte	0x3
 6041 07cc 91       		.byte	0x91
 6042 07cd F87E     		.sleb128 -136
 6043 07cf 00000000 		.4byte	0
 6044 07d3 00000000 		.4byte	0
 6045              	.LLST44:
 6046 07d7 D4010000 		.4byte	.LVL123
 6047 07db CE030000 		.4byte	.LVL159
 6048 07df 0300     		.2byte	0x3
 6049 07e1 91       		.byte	0x91
 6050 07e2 EC7E     		.sleb128 -148
 6051 07e4 00000000 		.4byte	0
 6052 07e8 00000000 		.4byte	0
 6053              	.LLST45:
 6054 07ec 02020000 		.4byte	.LVL124
 6055 07f0 08020000 		.4byte	.LVL125
 6056 07f4 0100     		.2byte	0x1
 6057 07f6 52       		.byte	0x52
 6058 07f7 00000000 		.4byte	0
 6059 07fb 00000000 		.4byte	0
 6060              	.LLST46:
 6061 07ff 56010000 		.4byte	.LVL98
 6062 0803 6C010000 		.4byte	.LVL101
 6063 0807 0300     		.2byte	0x3
 6064 0809 91       		.byte	0x91
 6065 080a 887F     		.sleb128 -120
 6066 080c 00000000 		.4byte	0
 6067 0810 00000000 		.4byte	0
 6068              	.LLST47:
 6069 0814 6C010000 		.4byte	.LVL101
 6070 0818 7C010000 		.4byte	.LVL102
 6071 081c 0300     		.2byte	0x3
 6072 081e 91       		.byte	0x91
 6073 081f 887F     		.sleb128 -120
ARM GAS  C:\Users\haske\AppData\Local\Temp\ccpEN9oH.s 			page 126


 6074 0821 00000000 		.4byte	0
 6075 0825 00000000 		.4byte	0
 6076              	.LLST48:
 6077 0829 7C010000 		.4byte	.LVL102
 6078 082d 82010000 		.4byte	.LVL103
 6079 0831 0100     		.2byte	0x1
 6080 0833 55       		.byte	0x55
 6081 0834 00000000 		.4byte	0
 6082 0838 00000000 		.4byte	0
 6083              	.LLST49:
 6084 083c 82010000 		.4byte	.LVL103
 6085 0840 8A010000 		.4byte	.LVL104
 6086 0844 0100     		.2byte	0x1
 6087 0846 55       		.byte	0x55
 6088 0847 00000000 		.4byte	0
 6089 084b 00000000 		.4byte	0
 6090              	.LLST50:
 6091 084f 08020000 		.4byte	.LVL125
 6092 0853 0A020000 		.4byte	.LVL126
 6093 0857 0300     		.2byte	0x3
 6094 0859 91       		.byte	0x91
 6095 085a 48       		.sleb128 -56
 6096 085b 9F       		.byte	0x9f
 6097 085c 0A020000 		.4byte	.LVL126
 6098 0860 1E020000 		.4byte	.LVL128
 6099 0864 0100     		.2byte	0x1
 6100 0866 53       		.byte	0x53
 6101 0867 1E020000 		.4byte	.LVL128
 6102 086b 20020000 		.4byte	.LVL129
 6103 086f 0300     		.2byte	0x3
 6104 0871 91       		.byte	0x91
 6105 0872 48       		.sleb128 -56
 6106 0873 9F       		.byte	0x9f
 6107 0874 00000000 		.4byte	0
 6108 0878 00000000 		.4byte	0
 6109              	.LLST51:
 6110 087c 08020000 		.4byte	.LVL125
 6111 0880 10020000 		.4byte	.LVL127
 6112 0884 0400     		.2byte	0x4
 6113 0886 91       		.byte	0x91
 6114 0887 A47F     		.sleb128 -92
 6115 0889 9F       		.byte	0x9f
 6116 088a 10020000 		.4byte	.LVL127
 6117 088e 20020000 		.4byte	.LVL129
 6118 0892 0100     		.2byte	0x1
 6119 0894 50       		.byte	0x50
 6120 0895 00000000 		.4byte	0
 6121 0899 00000000 		.4byte	0
 6122              	.LLST52:
 6123 089d 86020000 		.4byte	.LVL133
 6124 08a1 A2020000 		.4byte	.LVL136
 6125 08a5 0100     		.2byte	0x1
 6126 08a7 53       		.byte	0x53
 6127 08a8 A2020000 		.4byte	.LVL136
 6128 08ac A4020000 		.4byte	.LVL137
 6129 08b0 0400     		.2byte	0x4
 6130 08b2 73       		.byte	0x73
ARM GAS  C:\Users\haske\AppData\Local\Temp\ccpEN9oH.s 			page 127


 6131 08b3 00       		.sleb128 0
 6132 08b4 20       		.byte	0x20
 6133 08b5 9F       		.byte	0x9f
 6134 08b6 A4020000 		.4byte	.LVL137
 6135 08ba 34030000 		.4byte	.LVL144
 6136 08be 0100     		.2byte	0x1
 6137 08c0 55       		.byte	0x55
 6138 08c1 00000000 		.4byte	0
 6139 08c5 00000000 		.4byte	0
 6140              	.LLST53:
 6141 08c9 A4020000 		.4byte	.LVL137
 6142 08cd AE020000 		.4byte	.LVL138
 6143 08d1 0200     		.2byte	0x2
 6144 08d3 30       		.byte	0x30
 6145 08d4 9F       		.byte	0x9f
 6146 08d5 AE020000 		.4byte	.LVL138
 6147 08d9 34030000 		.4byte	.LVL144
 6148 08dd 0100     		.2byte	0x1
 6149 08df 50       		.byte	0x50
 6150 08e0 00000000 		.4byte	0
 6151 08e4 00000000 		.4byte	0
 6152              	.LLST54:
 6153 08e8 88020000 		.4byte	.LVL134
 6154 08ec A0020000 		.4byte	.LVL135
 6155 08f0 0600     		.2byte	0x6
 6156 08f2 F2       		.byte	0xf2
 6157 08f3 32150000 		.4byte	.Ldebug_info0+5426
 6158 08f7 00       		.sleb128 0
 6159 08f8 00000000 		.4byte	0
 6160 08fc 00000000 		.4byte	0
 6161              	.LLST55:
 6162 0900 88020000 		.4byte	.LVL134
 6163 0904 A0020000 		.4byte	.LVL135
 6164 0908 0100     		.2byte	0x1
 6165 090a 53       		.byte	0x53
 6166 090b 00000000 		.4byte	0
 6167 090f 00000000 		.4byte	0
 6168              	.LLST56:
 6169 0913 B8020000 		.4byte	.LVL140
 6170 0917 2A030000 		.4byte	.LVL142
 6171 091b 0100     		.2byte	0x1
 6172 091d 55       		.byte	0x55
 6173 091e 00000000 		.4byte	0
 6174 0922 00000000 		.4byte	0
 6175              	.LLST57:
 6176 0926 B6020000 		.4byte	.LVL139
 6177 092a 2A030000 		.4byte	.LVL142
 6178 092e 0600     		.2byte	0x6
 6179 0930 F2       		.byte	0xf2
 6180 0931 32150000 		.4byte	.Ldebug_info0+5426
 6181 0935 00       		.sleb128 0
 6182 0936 00000000 		.4byte	0
 6183 093a 00000000 		.4byte	0
 6184              	.LLST58:
 6185 093e D0020000 		.4byte	.LVL141
 6186 0942 2A030000 		.4byte	.LVL142
 6187 0946 0100     		.2byte	0x1
ARM GAS  C:\Users\haske\AppData\Local\Temp\ccpEN9oH.s 			page 128


 6188 0948 5B       		.byte	0x5b
 6189 0949 00000000 		.4byte	0
 6190 094d 00000000 		.4byte	0
 6191              	.LLST59:
 6192 0951 40030000 		.4byte	.LVL146
 6193 0955 7C030000 		.4byte	.LVL154
 6194 0959 0100     		.2byte	0x1
 6195 095b 54       		.byte	0x54
 6196 095c 7E030000 		.4byte	.LVL155
 6197 0960 8A030000 		.4byte	.LVL156
 6198 0964 0100     		.2byte	0x1
 6199 0966 54       		.byte	0x54
 6200 0967 00000000 		.4byte	0
 6201 096b 00000000 		.4byte	0
 6202              	.LLST60:
 6203 096f 3A030000 		.4byte	.LVL145
 6204 0973 4A030000 		.4byte	.LVL147
 6205 0977 0300     		.2byte	0x3
 6206 0979 91       		.byte	0x91
 6207 097a F87E     		.sleb128 -136
 6208 097c 4A030000 		.4byte	.LVL147
 6209 0980 8A030000 		.4byte	.LVL156
 6210 0984 0100     		.2byte	0x1
 6211 0986 56       		.byte	0x56
 6212 0987 00000000 		.4byte	0
 6213 098b 00000000 		.4byte	0
 6214              	.LLST61:
 6215 098f 5A030000 		.4byte	.LVL148
 6216 0993 62030000 		.4byte	.LVL149
 6217 0997 0100     		.2byte	0x1
 6218 0999 50       		.byte	0x50
 6219 099a 6E030000 		.4byte	.LVL151
 6220 099e 78030000 		.4byte	.LVL152
 6221 09a2 0100     		.2byte	0x1
 6222 09a4 50       		.byte	0x50
 6223 09a5 00000000 		.4byte	0
 6224 09a9 00000000 		.4byte	0
 6225              		.section	.debug_aranges,"",%progbits
 6226 0000 24000000 		.4byte	0x24
 6227 0004 0200     		.2byte	0x2
 6228 0006 00000000 		.4byte	.Ldebug_info0
 6229 000a 04       		.byte	0x4
 6230 000b 00       		.byte	0
 6231 000c 0000     		.2byte	0
 6232 000e 0000     		.2byte	0
 6233 0010 00000000 		.4byte	.LFB160
 6234 0014 0A020000 		.4byte	.LFE160-.LFB160
 6235 0018 00000000 		.4byte	.LFB159
 6236 001c E0030000 		.4byte	.LFE159-.LFB159
 6237 0020 00000000 		.4byte	0
 6238 0024 00000000 		.4byte	0
 6239              		.section	.debug_ranges,"",%progbits
 6240              	.Ldebug_ranges0:
 6241 0000 00000000 		.4byte	.LFB160
 6242 0004 0A020000 		.4byte	.LFE160
 6243 0008 00000000 		.4byte	.LFB159
 6244 000c E0030000 		.4byte	.LFE159
ARM GAS  C:\Users\haske\AppData\Local\Temp\ccpEN9oH.s 			page 129


 6245 0010 00000000 		.4byte	0
 6246 0014 00000000 		.4byte	0
 6247              		.section	.debug_line,"",%progbits
 6248              	.Ldebug_line0:
 6249 0000 D7060000 		.section	.debug_str,"MS",%progbits,1
 6249      02009904 
 6249      00000201 
 6249      FB0E0D00 
 6249      01010101 
 6250              	.LASF15:
 6251 0000 696E7438 		.ascii	"int8_t\000"
 6251      5F7400
 6252              	.LASF83:
 6253 0007 4C565F44 		.ascii	"LV_DRAW_MASK_RES_FULL_COVER\000"
 6253      5241575F 
 6253      4D41534B 
 6253      5F524553 
 6253      5F46554C 
 6254              	.LASF244:
 6255 0023 7372635F 		.ascii	"src_stride_byte\000"
 6255      73747269 
 6255      64655F62 
 6255      79746500 
 6256              	.LASF22:
 6257 0033 73697A65 		.ascii	"size_t\000"
 6257      5F7400
 6258              	.LASF49:
 6259 003a 6164765F 		.ascii	"adv_w\000"
 6259      7700
 6260              	.LASF24:
 6261 0040 73697A65 		.ascii	"sizetype\000"
 6261      74797065 
 6261      00
 6262              	.LASF216:
 6263 0049 64726177 		.ascii	"draw_bg\000"
 6263      5F626700 
 6264              	.LASF44:
 6265 0051 6C765F6F 		.ascii	"lv_opa_t\000"
 6265      70615F74 
 6265      00
 6266              	.LASF184:
 6267 005a 7261775F 		.ascii	"raw_end\000"
 6267      656E6400 
 6268              	.LASF19:
 6269 0062 696E7433 		.ascii	"int32_t\000"
 6269      325F7400 
 6270              	.LASF105:
 6271 006a 4C565F49 		.ascii	"LV_IMG_CF_ALPHA_1BIT\000"
 6271      4D475F43 
 6271      465F414C 
 6271      5048415F 
 6271      31424954 
 6272              	.LASF249:
 6273 007f 7372635F 		.ascii	"src_new_line_step_byte\000"
 6273      6E65775F 
 6273      6C696E65 
 6273      5F737465 
ARM GAS  C:\Users\haske\AppData\Local\Temp\ccpEN9oH.s 			page 130


 6273      705F6279 
 6274              	.LASF46:
 6275 0096 6C765F70 		.ascii	"lv_point_t\000"
 6275      6F696E74 
 6275      5F7400
 6276              	.LASF133:
 6277 00a1 72616469 		.ascii	"radius\000"
 6277      757300
 6278              	.LASF135:
 6279 00a8 62675F63 		.ascii	"bg_color\000"
 6279      6F6C6F72 
 6279      00
 6280              	.LASF57:
 6281 00b1 6C696E65 		.ascii	"line_height\000"
 6281      5F686569 
 6281      67687400 
 6282              	.LASF70:
 6283 00bd 6C765F62 		.ascii	"lv_blend_mode_t\000"
 6283      6C656E64 
 6283      5F6D6F64 
 6283      655F7400 
 6284              	.LASF166:
 6285 00cd 62696469 		.ascii	"bidi_dir\000"
 6285      5F646972 
 6285      00
 6286              	.LASF274:
 6287 00d6 6C765F6D 		.ascii	"lv_memcpy\000"
 6287      656D6370 
 6287      7900
 6288              	.LASF192:
 6289 00e0 4C565F44 		.ascii	"LV_DRAW_LAYER_FLAG_HAS_ALPHA\000"
 6289      5241575F 
 6289      4C415945 
 6289      525F464C 
 6289      41475F48 
 6290              	.LASF101:
 6291 00fd 4C565F49 		.ascii	"LV_IMG_CF_INDEXED_1BIT\000"
 6291      4D475F43 
 6291      465F494E 
 6291      44455845 
 6291      445F3142 
 6292              	.LASF86:
 6293 0114 6C765F64 		.ascii	"lv_draw_mask_res_t\000"
 6293      7261775F 
 6293      6D61736B 
 6293      5F726573 
 6293      5F7400
 6294              	.LASF208:
 6295 0127 64726177 		.ascii	"draw_rect\000"
 6295      5F726563 
 6295      7400
 6296              	.LASF237:
 6297 0131 64726177 		.ascii	"draw_dsc\000"
 6297      5F647363 
 6297      00
 6298              	.LASF93:
 6299 013a 6C765F64 		.ascii	"lv_draw_sw_blend_dsc_t\000"
ARM GAS  C:\Users\haske\AppData\Local\Temp\ccpEN9oH.s 			page 131


 6299      7261775F 
 6299      73775F62 
 6299      6C656E64 
 6299      5F647363 
 6300              	.LASF254:
 6301 0151 6D61736B 		.ascii	"mask_any\000"
 6301      5F616E79 
 6301      00
 6302              	.LASF276:
 6303 015a 6C765F64 		.ascii	"lv_draw_sw_blend\000"
 6303      7261775F 
 6303      73775F62 
 6303      6C656E64 
 6303      00
 6304              	.LASF207:
 6305 016b 696E6974 		.ascii	"init_buf\000"
 6305      5F627566 
 6305      00
 6306              	.LASF189:
 6307 0174 726F756E 		.ascii	"rounded\000"
 6307      64656400 
 6308              	.LASF206:
 6309 017c 5F6C765F 		.ascii	"_lv_draw_ctx_t\000"
 6309      64726177 
 6309      5F637478 
 6309      5F7400
 6310              	.LASF277:
 6311 018b 6C765F64 		.ascii	"lv_draw_mask_apply\000"
 6311      7261775F 
 6311      6D61736B 
 6311      5F617070 
 6311      6C7900
 6312              	.LASF137:
 6313 019e 62675F69 		.ascii	"bg_img_src\000"
 6313      6D675F73 
 6313      726300
 6314              	.LASF163:
 6315 01a9 73656C5F 		.ascii	"sel_bg_color\000"
 6315      62675F63 
 6315      6F6C6F72 
 6315      00
 6316              	.LASF147:
 6317 01b6 626F7264 		.ascii	"border_side\000"
 6317      65725F73 
 6317      69646500 
 6318              	.LASF1:
 6319 01c2 5F5F7569 		.ascii	"__uint8_t\000"
 6319      6E74385F 
 6319      7400
 6320              	.LASF92:
 6321 01cc 626C656E 		.ascii	"blend_mode\000"
 6321      645F6D6F 
 6321      646500
 6322              	.LASF267:
 6323 01d7 6D61736B 		.ascii	"mask_res_def\000"
 6323      5F726573 
 6323      5F646566 
ARM GAS  C:\Users\haske\AppData\Local\Temp\ccpEN9oH.s 			page 132


 6323      00
 6324              	.LASF113:
 6325 01e4 4C565F49 		.ascii	"LV_IMG_CF_RGBA5658\000"
 6325      4D475F43 
 6325      465F5247 
 6325      42413536 
 6325      353800
 6326              	.LASF9:
 6327 01f7 6C6F6E67 		.ascii	"long int\000"
 6327      20696E74 
 6327      00
 6328              	.LASF134:
 6329 0200 62675F6F 		.ascii	"bg_opa\000"
 6329      706100
 6330              	.LASF170:
 6331 0207 6C765F64 		.ascii	"lv_draw_label_dsc_t\000"
 6331      7261775F 
 6331      6C616265 
 6331      6C5F6473 
 6331      635F7400 
 6332              	.LASF110:
 6333 021b 4C565F49 		.ascii	"LV_IMG_CF_RGBA8888\000"
 6333      4D475F43 
 6333      465F5247 
 6333      42413838 
 6333      383800
 6334              	.LASF253:
 6335 022e 64726177 		.ascii	"draw_area\000"
 6335      5F617265 
 6335      6100
 6336              	.LASF226:
 6337 0238 61726561 		.ascii	"area_p\000"
 6337      5F7000
 6338              	.LASF285:
 6339 023f 6C765F64 		.ascii	"lv_draw_mask_is_any\000"
 6339      7261775F 
 6339      6D61736B 
 6339      5F69735F 
 6339      616E7900 
 6340              	.LASF218:
 6341 0253 62756666 		.ascii	"buffer_copy\000"
 6341      65725F63 
 6341      6F707900 
 6342              	.LASF148:
 6343 025f 6F75746C 		.ascii	"outline_color\000"
 6343      696E655F 
 6343      636F6C6F 
 6343      7200
 6344              	.LASF2:
 6345 026d 7369676E 		.ascii	"signed char\000"
 6345      65642063 
 6345      68617200 
 6346              	.LASF16:
 6347 0279 75696E74 		.ascii	"uint8_t\000"
 6347      385F7400 
 6348              	.LASF213:
 6349 0281 64726177 		.ascii	"draw_line\000"
ARM GAS  C:\Users\haske\AppData\Local\Temp\ccpEN9oH.s 			page 133


 6349      5F6C696E 
 6349      6500
 6350              	.LASF287:
 6351 028b 2E2E5C2E 		.ascii	"..\\..\\..\\arduinoLCD\\test\\Pain Drain\\libraries"
 6351      2E5C2E2E 
 6351      5C617264 
 6351      75696E6F 
 6351      4C43445C 
 6352 02b8 5C6C7667 		.ascii	"\\lvgl\\src\\draw\\sw\\lv_draw_sw_img.c\000"
 6352      6C5C7372 
 6352      635C6472 
 6352      61775C73 
 6352      775C6C76 
 6353              	.LASF90:
 6354 02db 6D61736B 		.ascii	"mask_res\000"
 6354      5F726573 
 6354      00
 6355              	.LASF262:
 6356 02e4 6275665F 		.ascii	"buf_h\000"
 6356      6800
 6357              	.LASF142:
 6358 02ea 62675F69 		.ascii	"bg_img_tiled\000"
 6358      6D675F74 
 6358      696C6564 
 6358      00
 6359              	.LASF56:
 6360 02f7 6765745F 		.ascii	"get_glyph_bitmap\000"
 6360      676C7970 
 6360      685F6269 
 6360      746D6170 
 6360      00
 6361              	.LASF263:
 6362 0308 6275665F 		.ascii	"buf_w\000"
 6362      7700
 6363              	.LASF187:
 6364 030e 656E645F 		.ascii	"end_angle\000"
 6364      616E676C 
 6364      6500
 6365              	.LASF39:
 6366 0318 626C7565 		.ascii	"blue\000"
 6366      00
 6367              	.LASF140:
 6368 031d 62675F69 		.ascii	"bg_img_opa\000"
 6368      6D675F6F 
 6368      706100
 6369              	.LASF3:
 6370 0328 756E7369 		.ascii	"unsigned char\000"
 6370      676E6564 
 6370      20636861 
 6370      7200
 6371              	.LASF185:
 6372 0336 6C765F64 		.ascii	"lv_draw_line_dsc_t\000"
 6372      7261775F 
 6372      6C696E65 
 6372      5F647363 
 6372      5F7400
 6373              	.LASF95:
ARM GAS  C:\Users\haske\AppData\Local\Temp\ccpEN9oH.s 			page 134


 6374 0349 4C565F49 		.ascii	"LV_IMG_CF_RAW\000"
 6374      4D475F43 
 6374      465F5241 
 6374      5700
 6375              	.LASF201:
 6376 0357 61726561 		.ascii	"area_act\000"
 6376      5F616374 
 6376      00
 6377              	.LASF245:
 6378 0360 63627566 		.ascii	"cbuf_tmp\000"
 6378      5F746D70 
 6378      00
 6379              	.LASF52:
 6380 0369 6F66735F 		.ascii	"ofs_x\000"
 6380      7800
 6381              	.LASF53:
 6382 036f 6F66735F 		.ascii	"ofs_y\000"
 6382      7900
 6383              	.LASF69:
 6384 0375 6C765F62 		.ascii	"lv_base_dir_t\000"
 6384      6173655F 
 6384      6469725F 
 6384      7400
 6385              	.LASF65:
 6386 0383 5F426F6F 		.ascii	"_Bool\000"
 6386      6C00
 6387              	.LASF272:
 6388 0389 6C765F61 		.ascii	"lv_area_get_size\000"
 6388      7265615F 
 6388      6765745F 
 6388      73697A65 
 6388      00
 6389              	.LASF204:
 6390 039a 6F726967 		.ascii	"original\000"
 6390      696E616C 
 6390      00
 6391              	.LASF250:
 6392 03a3 64657374 		.ascii	"dest_h\000"
 6392      5F6800
 6393              	.LASF286:
 6394 03aa 474E5520 		.ascii	"GNU C11 5.4.1 20160609 (release) [ARM/embedded-5-br"
 6394      43313120 
 6394      352E342E 
 6394      31203230 
 6394      31363036 
 6395 03dd 616E6368 		.ascii	"anch revision 237715] -mcpu=cortex-m0plus -mthumb -"
 6395      20726576 
 6395      6973696F 
 6395      6E203233 
 6395      37373135 
 6396 0410 67202D4F 		.ascii	"g -Og -ffunction-sections -ffat-lto-objects\000"
 6396      67202D66 
 6396      66756E63 
 6396      74696F6E 
 6396      2D736563 
 6397              	.LASF278:
 6398 043c 6C765F6D 		.ascii	"lv_memset_00\000"
ARM GAS  C:\Users\haske\AppData\Local\Temp\ccpEN9oH.s 			page 135


 6398      656D7365 
 6398      745F3030 
 6398      00
 6399              	.LASF194:
 6400 0449 6C765F64 		.ascii	"lv_draw_layer_flags_t\000"
 6400      7261775F 
 6400      6C617965 
 6400      725F666C 
 6400      6167735F 
 6401              	.LASF242:
 6402 045f 64657374 		.ascii	"dest_w\000"
 6402      5F7700
 6403              	.LASF25:
 6404 0466 63686172 		.ascii	"char\000"
 6404      00
 6405              	.LASF178:
 6406 046b 6C765F64 		.ascii	"lv_draw_img_dsc_t\000"
 6406      7261775F 
 6406      696D675F 
 6406      6473635F 
 6406      7400
 6407              	.LASF229:
 6408 047d 6C765F61 		.ascii	"lv_area_copy\000"
 6408      7265615F 
 6408      636F7079 
 6408      00
 6409              	.LASF60:
 6410 048a 756E6465 		.ascii	"underline_position\000"
 6410      726C696E 
 6410      655F706F 
 6410      73697469 
 6410      6F6E00
 6411              	.LASF223:
 6412 049d 6C617965 		.ascii	"layer_instance_size\000"
 6412      725F696E 
 6412      7374616E 
 6412      63655F73 
 6412      697A6500 
 6413              	.LASF181:
 6414 04b1 64617368 		.ascii	"dash_gap\000"
 6414      5F676170 
 6414      00
 6415              	.LASF215:
 6416 04ba 64726177 		.ascii	"draw_transform\000"
 6416      5F747261 
 6416      6E73666F 
 6416      726D00
 6417              	.LASF79:
 6418 04c9 73746F70 		.ascii	"stops_count\000"
 6418      735F636F 
 6418      756E7400 
 6419              	.LASF6:
 6420 04d5 5F5F7569 		.ascii	"__uint16_t\000"
 6420      6E743136 
 6420      5F7400
 6421              	.LASF150:
 6422 04e0 6F75746C 		.ascii	"outline_pad\000"
ARM GAS  C:\Users\haske\AppData\Local\Temp\ccpEN9oH.s 			page 136


 6422      696E655F 
 6422      70616400 
 6423              	.LASF143:
 6424 04ec 626F7264 		.ascii	"border_color\000"
 6424      65725F63 
 6424      6F6C6F72 
 6424      00
 6425              	.LASF282:
 6426 04f9 6C765F64 		.ascii	"lv_disp_get_hor_res\000"
 6426      6973705F 
 6426      6765745F 
 6426      686F725F 
 6426      72657300 
 6427              	.LASF112:
 6428 050d 4C565F49 		.ascii	"LV_IMG_CF_RGB565\000"
 6428      4D475F43 
 6428      465F5247 
 6428      42353635 
 6428      00
 6429              	.LASF236:
 6430 051e 7372635F 		.ascii	"src_stride\000"
 6430      73747269 
 6430      646500
 6431              	.LASF146:
 6432 0529 626F7264 		.ascii	"border_post\000"
 6432      65725F70 
 6432      6F737400 
 6433              	.LASF289:
 6434 0535 636F6E76 		.ascii	"convert_cb\000"
 6434      6572745F 
 6434      636200
 6435              	.LASF225:
 6436 0540 6C765F63 		.ascii	"lv_color_hex\000"
 6436      6F6C6F72 
 6436      5F686578 
 6436      00
 6437              	.LASF154:
 6438 054d 73686164 		.ascii	"shadow_ofs_x\000"
 6438      6F775F6F 
 6438      66735F78 
 6438      00
 6439              	.LASF258:
 6440 055a 626C656E 		.ascii	"blend_h\000"
 6440      645F6800 
 6441              	.LASF182:
 6442 0562 726F756E 		.ascii	"round_start\000"
 6442      645F7374 
 6442      61727400 
 6443              	.LASF259:
 6444 056e 626C656E 		.ascii	"blend_w\000"
 6444      645F7700 
 6445              	.LASF62:
 6446 0576 66616C6C 		.ascii	"fallback\000"
 6446      6261636B 
 6446      00
 6447              	.LASF275:
 6448 057f 5F6C765F 		.ascii	"_lv_area_intersect\000"
ARM GAS  C:\Users\haske\AppData\Local\Temp\ccpEN9oH.s 			page 137


 6448      61726561 
 6448      5F696E74 
 6448      65727365 
 6448      637400
 6449              	.LASF47:
 6450 0592 6C765F61 		.ascii	"lv_area_t\000"
 6450      7265615F 
 6450      7400
 6451              	.LASF219:
 6452 059c 6C617965 		.ascii	"layer_init\000"
 6452      725F696E 
 6452      697400
 6453              	.LASF115:
 6454 05a7 4C565F49 		.ascii	"LV_IMG_CF_RESERVED_15\000"
 6454      4D475F43 
 6454      465F5245 
 6454      53455256 
 6454      45445F31 
 6455              	.LASF116:
 6456 05bd 4C565F49 		.ascii	"LV_IMG_CF_RESERVED_16\000"
 6456      4D475F43 
 6456      465F5245 
 6456      53455256 
 6456      45445F31 
 6457              	.LASF117:
 6458 05d3 4C565F49 		.ascii	"LV_IMG_CF_RESERVED_17\000"
 6458      4D475F43 
 6458      465F5245 
 6458      53455256 
 6458      45445F31 
 6459              	.LASF118:
 6460 05e9 4C565F49 		.ascii	"LV_IMG_CF_RESERVED_18\000"
 6460      4D475F43 
 6460      465F5245 
 6460      53455256 
 6460      45445F31 
 6461              	.LASF119:
 6462 05ff 4C565F49 		.ascii	"LV_IMG_CF_RESERVED_19\000"
 6462      4D475F43 
 6462      465F5245 
 6462      53455256 
 6462      45445F31 
 6463              	.LASF183:
 6464 0615 726F756E 		.ascii	"round_end\000"
 6464      645F656E 
 6464      6400
 6465              	.LASF188:
 6466 061f 696D675F 		.ascii	"img_src\000"
 6466      73726300 
 6467              	.LASF248:
 6468 0627 7372635F 		.ascii	"src_new_line_step_px\000"
 6468      6E65775F 
 6468      6C696E65 
 6468      5F737465 
 6468      705F7078 
 6469              	.LASF156:
 6470 063c 73686164 		.ascii	"shadow_spread\000"
ARM GAS  C:\Users\haske\AppData\Local\Temp\ccpEN9oH.s 			page 138


 6470      6F775F73 
 6470      70726561 
 6470      6400
 6471              	.LASF120:
 6472 064a 4C565F49 		.ascii	"LV_IMG_CF_RESERVED_20\000"
 6472      4D475F43 
 6472      465F5245 
 6472      53455256 
 6472      45445F32 
 6473              	.LASF121:
 6474 0660 4C565F49 		.ascii	"LV_IMG_CF_RESERVED_21\000"
 6474      4D475F43 
 6474      465F5245 
 6474      53455256 
 6474      45445F32 
 6475              	.LASF122:
 6476 0676 4C565F49 		.ascii	"LV_IMG_CF_RESERVED_22\000"
 6476      4D475F43 
 6476      465F5245 
 6476      53455256 
 6476      45445F32 
 6477              	.LASF123:
 6478 068c 4C565F49 		.ascii	"LV_IMG_CF_RESERVED_23\000"
 6478      4D475F43 
 6478      465F5245 
 6478      53455256 
 6478      45445F32 
 6479              	.LASF138:
 6480 06a2 62675F69 		.ascii	"bg_img_symbol_font\000"
 6480      6D675F73 
 6480      796D626F 
 6480      6C5F666F 
 6480      6E7400
 6481              	.LASF11:
 6482 06b5 6C6F6E67 		.ascii	"long unsigned int\000"
 6482      20756E73 
 6482      69676E65 
 6482      6420696E 
 6482      7400
 6483              	.LASF132:
 6484 06c7 6C765F69 		.ascii	"lv_img_cf_t\000"
 6484      6D675F63 
 6484      665F7400 
 6485              	.LASF264:
 6486 06d3 6275665F 		.ascii	"buf_size\000"
 6486      73697A65 
 6486      00
 6487              	.LASF186:
 6488 06dc 73746172 		.ascii	"start_angle\000"
 6488      745F616E 
 6488      676C6500 
 6489              	.LASF222:
 6490 06e8 6C617965 		.ascii	"layer_destroy\000"
 6490      725F6465 
 6490      7374726F 
 6490      7900
 6491              	.LASF180:
ARM GAS  C:\Users\haske\AppData\Local\Temp\ccpEN9oH.s 			page 139


 6492 06f6 64617368 		.ascii	"dash_width\000"
 6492      5F776964 
 6492      746800
 6493              	.LASF84:
 6494 0701 4C565F44 		.ascii	"LV_DRAW_MASK_RES_CHANGED\000"
 6494      5241575F 
 6494      4D41534B 
 6494      5F524553 
 6494      5F434841 
 6495              	.LASF48:
 6496 071a 7265736F 		.ascii	"resolved_font\000"
 6496      6C766564 
 6496      5F666F6E 
 6496      7400
 6497              	.LASF284:
 6498 0728 6C765F6D 		.ascii	"lv_mem_buf_release\000"
 6498      656D5F62 
 6498      75665F72 
 6498      656C6561 
 6498      736500
 6499              	.LASF209:
 6500 073b 64726177 		.ascii	"draw_arc\000"
 6500      5F617263 
 6500      00
 6501              	.LASF27:
 6502 0744 4C565F4F 		.ascii	"LV_OPA_0\000"
 6502      50415F30 
 6502      00
 6503              	.LASF256:
 6504 074d 626C656E 		.ascii	"blend_dsc\000"
 6504      645F6473 
 6504      6300
 6505              	.LASF196:
 6506 0757 6275665F 		.ascii	"buf_area\000"
 6506      61726561 
 6506      00
 6507              	.LASF172:
 6508 0760 7A6F6F6D 		.ascii	"zoom\000"
 6508      00
 6509              	.LASF174:
 6510 0765 7265636F 		.ascii	"recolor\000"
 6510      6C6F7200 
 6511              	.LASF171:
 6512 076d 616E676C 		.ascii	"angle\000"
 6512      6500
 6513              	.LASF210:
 6514 0773 64726177 		.ascii	"draw_img_decoded\000"
 6514      5F696D67 
 6514      5F646563 
 6514      6F646564 
 6514      00
 6515              	.LASF260:
 6516 0784 6D61785F 		.ascii	"max_buf_size\000"
 6516      6275665F 
 6516      73697A65 
 6516      00
 6517              	.LASF198:
ARM GAS  C:\Users\haske\AppData\Local\Temp\ccpEN9oH.s 			page 140


 6518 0791 5F6C765F 		.ascii	"_lv_font_t\000"
 6518      666F6E74 
 6518      5F7400
 6519              	.LASF10:
 6520 079c 5F5F7569 		.ascii	"__uint32_t\000"
 6520      6E743332 
 6520      5F7400
 6521              	.LASF71:
 6522 07a7 6C765F74 		.ascii	"lv_text_decor_t\000"
 6522      6578745F 
 6522      6465636F 
 6522      725F7400 
 6523              	.LASF12:
 6524 07b7 6C6F6E67 		.ascii	"long long int\000"
 6524      206C6F6E 
 6524      6720696E 
 6524      7400
 6525              	.LASF152:
 6526 07c5 73686164 		.ascii	"shadow_color\000"
 6526      6F775F63 
 6526      6F6C6F72 
 6526      00
 6527              	.LASF179:
 6528 07d2 77696474 		.ascii	"width\000"
 6528      6800
 6529              	.LASF247:
 6530 07d8 63686B5F 		.ascii	"chk_v\000"
 6530      7600
 6531              	.LASF89:
 6532 07de 6D61736B 		.ascii	"mask_buf\000"
 6532      5F627566 
 6532      00
 6533              	.LASF279:
 6534 07e7 6C765F61 		.ascii	"lv_area_move\000"
 6534      7265615F 
 6534      6D6F7665 
 6534      00
 6535              	.LASF217:
 6536 07f4 77616974 		.ascii	"wait_for_finish\000"
 6536      5F666F72 
 6536      5F66696E 
 6536      69736800 
 6537              	.LASF191:
 6538 0804 4C565F44 		.ascii	"LV_DRAW_LAYER_FLAG_NONE\000"
 6538      5241575F 
 6538      4C415945 
 6538      525F464C 
 6538      41475F4E 
 6539              	.LASF290:
 6540 081c 6C765F64 		.ascii	"lv_draw_sw_img_decoded\000"
 6540      7261775F 
 6540      73775F69 
 6540      6D675F64 
 6540      65636F64 
 6541              	.LASF240:
 6542 0833 7372635F 		.ascii	"src_tmp8\000"
 6542      746D7038 
ARM GAS  C:\Users\haske\AppData\Local\Temp\ccpEN9oH.s 			page 141


 6542      00
 6543              	.LASF68:
 6544 083c 6C765F74 		.ascii	"lv_text_align_t\000"
 6544      6578745F 
 6544      616C6967 
 6544      6E5F7400 
 6545              	.LASF61:
 6546 084c 756E6465 		.ascii	"underline_thickness\000"
 6546      726C696E 
 6546      655F7468 
 6546      69636B6E 
 6546      65737300 
 6547              	.LASF167:
 6548 0860 616C6967 		.ascii	"align\000"
 6548      6E00
 6549              	.LASF26:
 6550 0866 4C565F4F 		.ascii	"LV_OPA_TRANSP\000"
 6550      50415F54 
 6550      52414E53 
 6550      5000
 6551              	.LASF106:
 6552 0874 4C565F49 		.ascii	"LV_IMG_CF_ALPHA_2BIT\000"
 6552      4D475F43 
 6552      465F414C 
 6552      5048415F 
 6552      32424954 
 6553              	.LASF107:
 6554 0889 4C565F49 		.ascii	"LV_IMG_CF_ALPHA_4BIT\000"
 6554      4D475F43 
 6554      465F414C 
 6554      5048415F 
 6554      34424954 
 6555              	.LASF91:
 6556 089e 6D61736B 		.ascii	"mask_area\000"
 6556      5F617265 
 6556      6100
 6557              	.LASF14:
 6558 08a8 756E7369 		.ascii	"unsigned int\000"
 6558      676E6564 
 6558      20696E74 
 6558      00
 6559              	.LASF99:
 6560 08b5 4C565F49 		.ascii	"LV_IMG_CF_TRUE_COLOR_ALPHA\000"
 6560      4D475F43 
 6560      465F5452 
 6560      55455F43 
 6560      4F4C4F52 
 6561              	.LASF195:
 6562 08d0 636C6970 		.ascii	"clip_area\000"
 6562      5F617265 
 6562      6100
 6563              	.LASF108:
 6564 08da 4C565F49 		.ascii	"LV_IMG_CF_ALPHA_8BIT\000"
 6564      4D475F43 
 6564      465F414C 
 6564      5048415F 
 6564      38424954 
ARM GAS  C:\Users\haske\AppData\Local\Temp\ccpEN9oH.s 			page 142


 6565              	.LASF283:
 6566 08ef 6C765F6D 		.ascii	"lv_mem_buf_get\000"
 6566      656D5F62 
 6566      75665F67 
 6566      657400
 6567              	.LASF161:
 6568 08fe 73656C5F 		.ascii	"sel_end\000"
 6568      656E6400 
 6569              	.LASF269:
 6570 0906 7072656D 		.ascii	"premult_v\000"
 6570      756C745F 
 6570      7600
 6571              	.LASF200:
 6572 0910 61726561 		.ascii	"area_full\000"
 6572      5F66756C 
 6572      6C00
 6573              	.LASF102:
 6574 091a 4C565F49 		.ascii	"LV_IMG_CF_INDEXED_2BIT\000"
 6574      4D475F43 
 6574      465F494E 
 6574      44455845 
 6574      445F3242 
 6575              	.LASF168:
 6576 0931 666C6167 		.ascii	"flag\000"
 6576      00
 6577              	.LASF280:
 6578 0936 6C765F64 		.ascii	"lv_draw_transform\000"
 6578      7261775F 
 6578      7472616E 
 6578      73666F72 
 6578      6D00
 6579              	.LASF199:
 6580 0948 5F6C765F 		.ascii	"_lv_draw_layer_ctx_t\000"
 6580      64726177 
 6580      5F6C6179 
 6580      65725F63 
 6580      74785F74 
 6581              	.LASF151:
 6582 095d 6F75746C 		.ascii	"outline_opa\000"
 6582      696E655F 
 6582      6F706100 
 6583              	.LASF103:
 6584 0969 4C565F49 		.ascii	"LV_IMG_CF_INDEXED_4BIT\000"
 6584      4D475F43 
 6584      465F494E 
 6584      44455845 
 6584      445F3442 
 6585              	.LASF202:
 6586 0980 6D61785F 		.ascii	"max_row_with_alpha\000"
 6586      726F775F 
 6586      77697468 
 6586      5F616C70 
 6586      686100
 6587              	.LASF176:
 6588 0993 6672616D 		.ascii	"frame_id\000"
 6588      655F6964 
 6588      00
ARM GAS  C:\Users\haske\AppData\Local\Temp\ccpEN9oH.s 			page 143


 6589              	.LASF111:
 6590 099c 4C565F49 		.ascii	"LV_IMG_CF_RGBX8888\000"
 6590      4D475F43 
 6590      465F5247 
 6590      42583838 
 6590      383800
 6591              	.LASF175:
 6592 09af 7265636F 		.ascii	"recolor_opa\000"
 6592      6C6F725F 
 6592      6F706100 
 6593              	.LASF64:
 6594 09bb 6C765F66 		.ascii	"lv_font_glyph_dsc_t\000"
 6594      6F6E745F 
 6594      676C7970 
 6594      685F6473 
 6594      635F7400 
 6595              	.LASF149:
 6596 09cf 6F75746C 		.ascii	"outline_width\000"
 6596      696E655F 
 6596      77696474 
 6596      6800
 6597              	.LASF104:
 6598 09dd 4C565F49 		.ascii	"LV_IMG_CF_INDEXED_8BIT\000"
 6598      4D475F43 
 6598      465F494E 
 6598      44455845 
 6598      445F3842 
 6599              	.LASF97:
 6600 09f4 4C565F49 		.ascii	"LV_IMG_CF_RAW_CHROMA_KEYED\000"
 6600      4D475F43 
 6600      465F5241 
 6600      575F4348 
 6600      524F4D41 
 6601              	.LASF100:
 6602 0a0f 4C565F49 		.ascii	"LV_IMG_CF_TRUE_COLOR_CHROMA_KEYED\000"
 6602      4D475F43 
 6602      465F5452 
 6602      55455F43 
 6602      4F4C4F52 
 6603              	.LASF233:
 6604 0a31 64657374 		.ascii	"dest_area\000"
 6604      5F617265 
 6604      6100
 6605              	.LASF177:
 6606 0a3b 616E7469 		.ascii	"antialias\000"
 6606      616C6961 
 6606      7300
 6607              	.LASF37:
 6608 0a45 4C565F4F 		.ascii	"LV_OPA_100\000"
 6608      50415F31 
 6608      303000
 6609              	.LASF124:
 6610 0a50 4C565F49 		.ascii	"LV_IMG_CF_USER_ENCODED_0\000"
 6610      4D475F43 
 6610      465F5553 
 6610      45525F45 
 6610      4E434F44 
ARM GAS  C:\Users\haske\AppData\Local\Temp\ccpEN9oH.s 			page 144


 6611              	.LASF125:
 6612 0a69 4C565F49 		.ascii	"LV_IMG_CF_USER_ENCODED_1\000"
 6612      4D475F43 
 6612      465F5553 
 6612      45525F45 
 6612      4E434F44 
 6613              	.LASF126:
 6614 0a82 4C565F49 		.ascii	"LV_IMG_CF_USER_ENCODED_2\000"
 6614      4D475F43 
 6614      465F5553 
 6614      45525F45 
 6614      4E434F44 
 6615              	.LASF127:
 6616 0a9b 4C565F49 		.ascii	"LV_IMG_CF_USER_ENCODED_3\000"
 6616      4D475F43 
 6616      465F5553 
 6616      45525F45 
 6616      4E434F44 
 6617              	.LASF128:
 6618 0ab4 4C565F49 		.ascii	"LV_IMG_CF_USER_ENCODED_4\000"
 6618      4D475F43 
 6618      465F5553 
 6618      45525F45 
 6618      4E434F44 
 6619              	.LASF129:
 6620 0acd 4C565F49 		.ascii	"LV_IMG_CF_USER_ENCODED_5\000"
 6620      4D475F43 
 6620      465F5553 
 6620      45525F45 
 6620      4E434F44 
 6621              	.LASF130:
 6622 0ae6 4C565F49 		.ascii	"LV_IMG_CF_USER_ENCODED_6\000"
 6622      4D475F43 
 6622      465F5553 
 6622      45525F45 
 6622      4E434F44 
 6623              	.LASF131:
 6624 0aff 4C565F49 		.ascii	"LV_IMG_CF_USER_ENCODED_7\000"
 6624      4D475F43 
 6624      465F5553 
 6624      45525F45 
 6624      4E434F44 
 6625              	.LASF21:
 6626 0b18 6C765F72 		.ascii	"lv_res_t\000"
 6626      65735F74 
 6626      00
 6627              	.LASF23:
 6628 0b21 6C6F6E67 		.ascii	"long double\000"
 6628      20646F75 
 6628      626C6500 
 6629              	.LASF74:
 6630 0b2d 6C765F64 		.ascii	"lv_dither_mode_t\000"
 6630      69746865 
 6630      725F6D6F 
 6630      64655F74 
 6630      00
 6631              	.LASF85:
ARM GAS  C:\Users\haske\AppData\Local\Temp\ccpEN9oH.s 			page 145


 6632 0b3e 4C565F44 		.ascii	"LV_DRAW_MASK_RES_UNKNOWN\000"
 6632      5241575F 
 6632      4D41534B 
 6632      5F524553 
 6632      5F554E4B 
 6633              	.LASF59:
 6634 0b57 73756270 		.ascii	"subpx\000"
 6634      7800
 6635              	.LASF38:
 6636 0b5d 4C565F4F 		.ascii	"LV_OPA_COVER\000"
 6636      50415F43 
 6636      4F564552 
 6636      00
 6637              	.LASF141:
 6638 0b6a 62675F69 		.ascii	"bg_img_recolor_opa\000"
 6638      6D675F72 
 6638      65636F6C 
 6638      6F725F6F 
 6638      706100
 6639              	.LASF193:
 6640 0b7d 4C565F44 		.ascii	"LV_DRAW_LAYER_FLAG_CAN_SUBDIVIDE\000"
 6640      5241575F 
 6640      4C415945 
 6640      525F464C 
 6640      41475F43 
 6641              	.LASF261:
 6642 0b9e 626C656E 		.ascii	"blend_size\000"
 6642      645F7369 
 6642      7A6500
 6643              	.LASF266:
 6644 0ba9 795F6C61 		.ascii	"y_last\000"
 6644      737400
 6645              	.LASF0:
 6646 0bb0 5F5F696E 		.ascii	"__int8_t\000"
 6646      74385F74 
 6646      00
 6647              	.LASF203:
 6648 0bb9 6D61785F 		.ascii	"max_row_with_no_alpha\000"
 6648      726F775F 
 6648      77697468 
 6648      5F6E6F5F 
 6648      616C7068 
 6649              	.LASF13:
 6650 0bcf 6C6F6E67 		.ascii	"long long unsigned int\000"
 6650      206C6F6E 
 6650      6720756E 
 6650      7369676E 
 6650      65642069 
 6651              	.LASF158:
 6652 0be6 6C765F64 		.ascii	"lv_draw_rect_dsc_t\000"
 6652      7261775F 
 6652      72656374 
 6652      5F647363 
 6652      5F7400
 6653              	.LASF18:
 6654 0bf9 75696E74 		.ascii	"uint16_t\000"
 6654      31365F74 
ARM GAS  C:\Users\haske\AppData\Local\Temp\ccpEN9oH.s 			page 146


 6654      00
 6655              	.LASF239:
 6656 0c02 61627566 		.ascii	"abuf\000"
 6656      00
 6657              	.LASF114:
 6658 0c07 4C565F49 		.ascii	"LV_IMG_CF_RGB565A8\000"
 6658      4D475F43 
 6658      465F5247 
 6658      42353635 
 6658      413800
 6659              	.LASF43:
 6660 0c1a 6C765F63 		.ascii	"lv_color_t\000"
 6660      6F6C6F72 
 6660      5F7400
 6661              	.LASF238:
 6662 0c25 63627566 		.ascii	"cbuf\000"
 6662      00
 6663              	.LASF212:
 6664 0c2a 64726177 		.ascii	"draw_letter\000"
 6664      5F6C6574 
 6664      74657200 
 6665              	.LASF94:
 6666 0c36 4C565F49 		.ascii	"LV_IMG_CF_UNKNOWN\000"
 6666      4D475F43 
 6666      465F554E 
 6666      4B4E4F57 
 6666      4E00
 6667              	.LASF227:
 6668 0c48 6C765F61 		.ascii	"lv_area_get_height\000"
 6668      7265615F 
 6668      6765745F 
 6668      68656967 
 6668      687400
 6669              	.LASF144:
 6670 0c5b 626F7264 		.ascii	"border_width\000"
 6670      65725F77 
 6670      69647468 
 6670      00
 6671              	.LASF67:
 6672 0c68 6C765F74 		.ascii	"lv_text_flag_t\000"
 6672      6578745F 
 6672      666C6167 
 6672      5F7400
 6673              	.LASF28:
 6674 0c77 4C565F4F 		.ascii	"LV_OPA_10\000"
 6674      50415F31 
 6674      3000
 6675              	.LASF98:
 6676 0c81 4C565F49 		.ascii	"LV_IMG_CF_TRUE_COLOR\000"
 6676      4D475F43 
 6676      465F5452 
 6676      55455F43 
 6676      4F4C4F52 
 6677              	.LASF87:
 6678 0c96 626C656E 		.ascii	"blend_area\000"
 6678      645F6172 
 6678      656100
ARM GAS  C:\Users\haske\AppData\Local\Temp\ccpEN9oH.s 			page 147


 6679              	.LASF231:
 6680 0ca1 6C765F63 		.ascii	"lv_color_mix_premult\000"
 6680      6F6C6F72 
 6680      5F6D6978 
 6680      5F707265 
 6680      6D756C74 
 6681              	.LASF88:
 6682 0cb6 7372635F 		.ascii	"src_buf\000"
 6682      62756600 
 6683              	.LASF169:
 6684 0cbe 6465636F 		.ascii	"decor\000"
 6684      7200
 6685              	.LASF4:
 6686 0cc4 5F5F696E 		.ascii	"__int16_t\000"
 6686      7431365F 
 6686      7400
 6687              	.LASF220:
 6688 0cce 6C617965 		.ascii	"layer_adjust\000"
 6688      725F6164 
 6688      6A757374 
 6688      00
 6689              	.LASF228:
 6690 0cdb 64657374 		.ascii	"dest\000"
 6690      00
 6691              	.LASF41:
 6692 0ce0 66756C6C 		.ascii	"full\000"
 6692      00
 6693              	.LASF205:
 6694 0ce5 6C765F64 		.ascii	"lv_draw_layer_ctx_t\000"
 6694      7261775F 
 6694      6C617965 
 6694      725F6374 
 6694      785F7400 
 6695              	.LASF29:
 6696 0cf9 4C565F4F 		.ascii	"LV_OPA_20\000"
 6696      50415F32 
 6696      3000
 6697              	.LASF75:
 6698 0d03 636F6C6F 		.ascii	"color\000"
 6698      7200
 6699              	.LASF255:
 6700 0d09 7472616E 		.ascii	"transform\000"
 6700      73666F72 
 6700      6D00
 6701              	.LASF173:
 6702 0d13 7069766F 		.ascii	"pivot\000"
 6702      7400
 6703              	.LASF78:
 6704 0d19 73746F70 		.ascii	"stops\000"
 6704      7300
 6705              	.LASF164:
 6706 0d1f 6C696E65 		.ascii	"line_space\000"
 6706      5F737061 
 6706      636500
 6707              	.LASF221:
 6708 0d2a 6C617965 		.ascii	"layer_blend\000"
 6708      725F626C 
ARM GAS  C:\Users\haske\AppData\Local\Temp\ccpEN9oH.s 			page 148


 6708      656E6400 
 6709              	.LASF235:
 6710 0d36 7372635F 		.ascii	"src_h\000"
 6710      6800
 6711              	.LASF234:
 6712 0d3c 7372635F 		.ascii	"src_w\000"
 6712      7700
 6713              	.LASF72:
 6714 0d42 6C765F62 		.ascii	"lv_border_side_t\000"
 6714      6F726465 
 6714      725F7369 
 6714      64655F74 
 6714      00
 6715              	.LASF76:
 6716 0d53 66726163 		.ascii	"frac\000"
 6716      00
 6717              	.LASF159:
 6718 0d58 666F6E74 		.ascii	"font\000"
 6718      00
 6719              	.LASF165:
 6720 0d5d 6C657474 		.ascii	"letter_space\000"
 6720      65725F73 
 6720      70616365 
 6720      00
 6721              	.LASF30:
 6722 0d6a 4C565F4F 		.ascii	"LV_OPA_30\000"
 6722      50415F33 
 6722      3000
 6723              	.LASF190:
 6724 0d74 6C765F64 		.ascii	"lv_draw_arc_dsc_t\000"
 6724      7261775F 
 6724      6172635F 
 6724      6473635F 
 6724      7400
 6725              	.LASF51:
 6726 0d86 626F785F 		.ascii	"box_h\000"
 6726      6800
 6727              	.LASF139:
 6728 0d8c 62675F69 		.ascii	"bg_img_recolor\000"
 6728      6D675F72 
 6728      65636F6C 
 6728      6F7200
 6729              	.LASF42:
 6730 0d9b 6C765F63 		.ascii	"lv_color16_t\000"
 6730      6F6C6F72 
 6730      31365F74 
 6730      00
 6731              	.LASF50:
 6732 0da8 626F785F 		.ascii	"box_w\000"
 6732      7700
 6733              	.LASF5:
 6734 0dae 73686F72 		.ascii	"short int\000"
 6734      7420696E 
 6734      7400
 6735              	.LASF58:
 6736 0db8 62617365 		.ascii	"base_line\000"
 6736      5F6C696E 
ARM GAS  C:\Users\haske\AppData\Local\Temp\ccpEN9oH.s 			page 149


 6736      6500
 6737              	.LASF291:
 6738 0dc2 6C765F66 		.ascii	"lv_font_montserrat_14\000"
 6738      6F6E745F 
 6738      6D6F6E74 
 6738      73657272 
 6738      61745F31 
 6739              	.LASF157:
 6740 0dd8 73686164 		.ascii	"shadow_opa\000"
 6740      6F775F6F 
 6740      706100
 6741              	.LASF31:
 6742 0de3 4C565F4F 		.ascii	"LV_OPA_40\000"
 6742      50415F34 
 6742      3000
 6743              	.LASF17:
 6744 0ded 696E7431 		.ascii	"int16_t\000"
 6744      365F7400 
 6745              	.LASF197:
 6746 0df5 73637265 		.ascii	"screen_transp\000"
 6746      656E5F74 
 6746      72616E73 
 6746      7000
 6747              	.LASF252:
 6748 0e03 636F6F72 		.ascii	"coords\000"
 6748      647300
 6749              	.LASF243:
 6750 0e0a 64657374 		.ascii	"dest_w_byte\000"
 6750      5F775F62 
 6750      79746500 
 6751              	.LASF257:
 6752 0e16 636C6970 		.ascii	"clipped_coords\000"
 6752      7065645F 
 6752      636F6F72 
 6752      647300
 6753              	.LASF32:
 6754 0e25 4C565F4F 		.ascii	"LV_OPA_50\000"
 6754      50415F35 
 6754      3000
 6755              	.LASF273:
 6756 0e2f 6C765F6D 		.ascii	"lv_memset_ff\000"
 6756      656D7365 
 6756      745F6666 
 6756      00
 6757              	.LASF224:
 6758 0e3c 6C765F61 		.ascii	"lv_area_get_width\000"
 6758      7265615F 
 6758      6765745F 
 6758      77696474 
 6758      6800
 6759              	.LASF288:
 6760 0e4e 433A5C50 		.ascii	"C:\\Projects\\PainDrain\\firmware\\PainDrain\\PainD"
 6760      726F6A65 
 6760      6374735C 
 6760      5061696E 
 6760      44726169 
 6761 0e7c 7261696E 		.ascii	"rain.cydsn\000"
ARM GAS  C:\Users\haske\AppData\Local\Temp\ccpEN9oH.s 			page 150


 6761      2E637964 
 6761      736E00
 6762              	.LASF145:
 6763 0e87 626F7264 		.ascii	"border_opa\000"
 6763      65725F6F 
 6763      706100
 6764              	.LASF232:
 6765 0e92 7072656D 		.ascii	"premult_c1\000"
 6765      756C745F 
 6765      633100
 6766              	.LASF96:
 6767 0e9d 4C565F49 		.ascii	"LV_IMG_CF_RAW_ALPHA\000"
 6767      4D475F43 
 6767      465F5241 
 6767      575F414C 
 6767      50484100 
 6768              	.LASF136:
 6769 0eb1 62675F67 		.ascii	"bg_grad\000"
 6769      72616400 
 6770              	.LASF230:
 6771 0eb9 6C765F63 		.ascii	"lv_color_premult\000"
 6771      6F6C6F72 
 6771      5F707265 
 6771      6D756C74 
 6771      00
 6772              	.LASF251:
 6773 0eca 64726177 		.ascii	"draw_ctx\000"
 6773      5F637478 
 6773      00
 6774              	.LASF211:
 6775 0ed3 64726177 		.ascii	"draw_img\000"
 6775      5F696D67 
 6775      00
 6776              	.LASF77:
 6777 0edc 6C765F67 		.ascii	"lv_gradient_stop_t\000"
 6777      72616469 
 6777      656E745F 
 6777      73746F70 
 6777      5F7400
 6778              	.LASF33:
 6779 0eef 4C565F4F 		.ascii	"LV_OPA_60\000"
 6779      50415F36 
 6779      3000
 6780              	.LASF281:
 6781 0ef9 5F6C765F 		.ascii	"_lv_refr_get_disp_refreshing\000"
 6781      72656672 
 6781      5F676574 
 6781      5F646973 
 6781      705F7265 
 6782              	.LASF214:
 6783 0f16 64726177 		.ascii	"draw_polygon\000"
 6783      5F706F6C 
 6783      79676F6E 
 6783      00
 6784              	.LASF160:
 6785 0f23 73656C5F 		.ascii	"sel_start\000"
 6785      73746172 
ARM GAS  C:\Users\haske\AppData\Local\Temp\ccpEN9oH.s 			page 151


 6785      7400
 6786              	.LASF20:
 6787 0f2d 75696E74 		.ascii	"uint32_t\000"
 6787      33325F74 
 6787      00
 6788              	.LASF268:
 6789 0f36 7472616E 		.ascii	"transform_area\000"
 6789      73666F72 
 6789      6D5F6172 
 6789      656100
 6790              	.LASF153:
 6791 0f45 73686164 		.ascii	"shadow_width\000"
 6791      6F775F77 
 6791      69647468 
 6791      00
 6792              	.LASF40:
 6793 0f52 67726565 		.ascii	"green\000"
 6793      6E00
 6794              	.LASF66:
 6795 0f58 6C765F66 		.ascii	"lv_font_t\000"
 6795      6F6E745F 
 6795      7400
 6796              	.LASF80:
 6797 0f62 64697468 		.ascii	"dither\000"
 6797      657200
 6798              	.LASF34:
 6799 0f69 4C565F4F 		.ascii	"LV_OPA_70\000"
 6799      50415F37 
 6799      3000
 6800              	.LASF7:
 6801 0f73 73686F72 		.ascii	"short unsigned int\000"
 6801      7420756E 
 6801      7369676E 
 6801      65642069 
 6801      6E7400
 6802              	.LASF265:
 6803 0f86 7267625F 		.ascii	"rgb_buf\000"
 6803      62756600 
 6804              	.LASF45:
 6805 0f8e 6C765F63 		.ascii	"lv_coord_t\000"
 6805      6F6F7264 
 6805      5F7400
 6806              	.LASF82:
 6807 0f99 4C565F44 		.ascii	"LV_DRAW_MASK_RES_TRANSP\000"
 6807      5241575F 
 6807      4D41534B 
 6807      5F524553 
 6807      5F545241 
 6808              	.LASF271:
 6809 0fb1 6D61736B 		.ascii	"mask_res_line\000"
 6809      5F726573 
 6809      5F6C696E 
 6809      6500
 6810              	.LASF63:
 6811 0fbf 75736572 		.ascii	"user_data\000"
 6811      5F646174 
 6811      6100
ARM GAS  C:\Users\haske\AppData\Local\Temp\ccpEN9oH.s 			page 152


 6812              	.LASF246:
 6813 0fc9 63627566 		.ascii	"cbuf_uint\000"
 6813      5F75696E 
 6813      7400
 6814              	.LASF55:
 6815 0fd3 6765745F 		.ascii	"get_glyph_dsc\000"
 6815      676C7970 
 6815      685F6473 
 6815      6300
 6816              	.LASF8:
 6817 0fe1 5F5F696E 		.ascii	"__int32_t\000"
 6817      7433325F 
 6817      7400
 6818              	.LASF73:
 6819 0feb 6C765F67 		.ascii	"lv_grad_dir_t\000"
 6819      7261645F 
 6819      6469725F 
 6819      7400
 6820              	.LASF35:
 6821 0ff9 4C565F4F 		.ascii	"LV_OPA_80\000"
 6821      50415F38 
 6821      3000
 6822              	.LASF241:
 6823 1003 70785F63 		.ascii	"px_cnt\000"
 6823      6E7400
 6824              	.LASF162:
 6825 100a 73656C5F 		.ascii	"sel_color\000"
 6825      636F6C6F 
 6825      7200
 6826              	.LASF109:
 6827 1014 4C565F49 		.ascii	"LV_IMG_CF_RGB888\000"
 6827      4D475F43 
 6827      465F5247 
 6827      42383838 
 6827      00
 6828              	.LASF155:
 6829 1025 73686164 		.ascii	"shadow_ofs_y\000"
 6829      6F775F6F 
 6829      66735F79 
 6829      00
 6830              	.LASF81:
 6831 1032 6C765F67 		.ascii	"lv_grad_dsc_t\000"
 6831      7261645F 
 6831      6473635F 
 6831      7400
 6832              	.LASF54:
 6833 1040 69735F70 		.ascii	"is_placeholder\000"
 6833      6C616365 
 6833      686F6C64 
 6833      657200
 6834              	.LASF270:
 6835 104f 6D61736B 		.ascii	"mask_buf_tmp\000"
 6835      5F627566 
 6835      5F746D70 
 6835      00
 6836              	.LASF36:
 6837 105c 4C565F4F 		.ascii	"LV_OPA_90\000"
ARM GAS  C:\Users\haske\AppData\Local\Temp\ccpEN9oH.s 			page 153


 6837      50415F39 
 6837      3000
 6838              		.ident	"GCC: (GNU Tools for ARM Embedded Processors) 5.4.1 20160609 (release) [ARM/embedded-5-bran
