ARM GAS  C:\Users\haske\AppData\Local\Temp\ccz6azzs.s 			page 1


   1              		.syntax unified
   2              		.cpu cortex-m0plus
   3              		.fpu softvfp
   4              		.eabi_attribute 20, 1
   5              		.eabi_attribute 21, 1
   6              		.eabi_attribute 23, 3
   7              		.eabi_attribute 24, 1
   8              		.eabi_attribute 25, 1
   9              		.eabi_attribute 26, 1
  10              		.eabi_attribute 30, 1
  11              		.eabi_attribute 34, 0
  12              		.eabi_attribute 18, 4
  13              		.thumb
  14              		.syntax unified
  15              		.file	"lv_event.c"
  16              		.text
  17              	.Ltext0:
  18              		.cfi_sections	.debug_frame
  19              		.section	.text.lv_obj_get_event_dsc,"ax",%progbits
  20              		.align	2
  21              		.code	16
  22              		.thumb_func
  23              		.type	lv_obj_get_event_dsc, %function
  24              	lv_obj_get_event_dsc:
  25              	.LFB186:
  26              		.file 1 "..\\..\\..\\arduinoLCD\\test\\Pain Drain\\libraries\\lvgl\\src\\core\\lv_event.c"
   1:..\..\..\arduinoLCD\test\Pain Drain\libraries\lvgl\src\core/lv_event.c **** /**
   2:..\..\..\arduinoLCD\test\Pain Drain\libraries\lvgl\src\core/lv_event.c ****  * @file lv_event.c
   3:..\..\..\arduinoLCD\test\Pain Drain\libraries\lvgl\src\core/lv_event.c ****  *
   4:..\..\..\arduinoLCD\test\Pain Drain\libraries\lvgl\src\core/lv_event.c ****  */
   5:..\..\..\arduinoLCD\test\Pain Drain\libraries\lvgl\src\core/lv_event.c **** 
   6:..\..\..\arduinoLCD\test\Pain Drain\libraries\lvgl\src\core/lv_event.c **** /*********************
   7:..\..\..\arduinoLCD\test\Pain Drain\libraries\lvgl\src\core/lv_event.c ****  *      INCLUDES
   8:..\..\..\arduinoLCD\test\Pain Drain\libraries\lvgl\src\core/lv_event.c ****  *********************/
   9:..\..\..\arduinoLCD\test\Pain Drain\libraries\lvgl\src\core/lv_event.c **** #include "lv_obj.h"
  10:..\..\..\arduinoLCD\test\Pain Drain\libraries\lvgl\src\core/lv_event.c **** #include "lv_indev.h"
  11:..\..\..\arduinoLCD\test\Pain Drain\libraries\lvgl\src\core/lv_event.c **** 
  12:..\..\..\arduinoLCD\test\Pain Drain\libraries\lvgl\src\core/lv_event.c **** /*********************
  13:..\..\..\arduinoLCD\test\Pain Drain\libraries\lvgl\src\core/lv_event.c ****  *      DEFINES
  14:..\..\..\arduinoLCD\test\Pain Drain\libraries\lvgl\src\core/lv_event.c ****  *********************/
  15:..\..\..\arduinoLCD\test\Pain Drain\libraries\lvgl\src\core/lv_event.c **** #define MY_CLASS &lv_obj_class
  16:..\..\..\arduinoLCD\test\Pain Drain\libraries\lvgl\src\core/lv_event.c **** 
  17:..\..\..\arduinoLCD\test\Pain Drain\libraries\lvgl\src\core/lv_event.c **** /**********************
  18:..\..\..\arduinoLCD\test\Pain Drain\libraries\lvgl\src\core/lv_event.c ****  *      TYPEDEFS
  19:..\..\..\arduinoLCD\test\Pain Drain\libraries\lvgl\src\core/lv_event.c ****  **********************/
  20:..\..\..\arduinoLCD\test\Pain Drain\libraries\lvgl\src\core/lv_event.c **** typedef struct _lv_event_dsc_t {
  21:..\..\..\arduinoLCD\test\Pain Drain\libraries\lvgl\src\core/lv_event.c ****     lv_event_cb_t cb;
  22:..\..\..\arduinoLCD\test\Pain Drain\libraries\lvgl\src\core/lv_event.c ****     void * user_data;
  23:..\..\..\arduinoLCD\test\Pain Drain\libraries\lvgl\src\core/lv_event.c ****     lv_event_code_t filter : 8;
  24:..\..\..\arduinoLCD\test\Pain Drain\libraries\lvgl\src\core/lv_event.c **** } lv_event_dsc_t;
  25:..\..\..\arduinoLCD\test\Pain Drain\libraries\lvgl\src\core/lv_event.c **** 
  26:..\..\..\arduinoLCD\test\Pain Drain\libraries\lvgl\src\core/lv_event.c **** /**********************
  27:..\..\..\arduinoLCD\test\Pain Drain\libraries\lvgl\src\core/lv_event.c ****  *  STATIC PROTOTYPES
  28:..\..\..\arduinoLCD\test\Pain Drain\libraries\lvgl\src\core/lv_event.c ****  **********************/
  29:..\..\..\arduinoLCD\test\Pain Drain\libraries\lvgl\src\core/lv_event.c **** static lv_event_dsc_t * lv_obj_get_event_dsc(const lv_obj_t * obj, uint32_t id);
  30:..\..\..\arduinoLCD\test\Pain Drain\libraries\lvgl\src\core/lv_event.c **** static lv_res_t event_send_core(lv_event_t * e);
  31:..\..\..\arduinoLCD\test\Pain Drain\libraries\lvgl\src\core/lv_event.c **** static bool event_is_bubbled(lv_event_t * e);
ARM GAS  C:\Users\haske\AppData\Local\Temp\ccz6azzs.s 			page 2


  32:..\..\..\arduinoLCD\test\Pain Drain\libraries\lvgl\src\core/lv_event.c **** 
  33:..\..\..\arduinoLCD\test\Pain Drain\libraries\lvgl\src\core/lv_event.c **** 
  34:..\..\..\arduinoLCD\test\Pain Drain\libraries\lvgl\src\core/lv_event.c **** /**********************
  35:..\..\..\arduinoLCD\test\Pain Drain\libraries\lvgl\src\core/lv_event.c ****  *  STATIC VARIABLES
  36:..\..\..\arduinoLCD\test\Pain Drain\libraries\lvgl\src\core/lv_event.c ****  **********************/
  37:..\..\..\arduinoLCD\test\Pain Drain\libraries\lvgl\src\core/lv_event.c **** static lv_event_t * event_head;
  38:..\..\..\arduinoLCD\test\Pain Drain\libraries\lvgl\src\core/lv_event.c **** 
  39:..\..\..\arduinoLCD\test\Pain Drain\libraries\lvgl\src\core/lv_event.c **** /**********************
  40:..\..\..\arduinoLCD\test\Pain Drain\libraries\lvgl\src\core/lv_event.c ****  *      MACROS
  41:..\..\..\arduinoLCD\test\Pain Drain\libraries\lvgl\src\core/lv_event.c ****  **********************/
  42:..\..\..\arduinoLCD\test\Pain Drain\libraries\lvgl\src\core/lv_event.c **** #if LV_LOG_TRACE_EVENT
  43:..\..\..\arduinoLCD\test\Pain Drain\libraries\lvgl\src\core/lv_event.c ****     #define EVENT_TRACE(...) LV_LOG_TRACE(__VA_ARGS__)
  44:..\..\..\arduinoLCD\test\Pain Drain\libraries\lvgl\src\core/lv_event.c **** #else
  45:..\..\..\arduinoLCD\test\Pain Drain\libraries\lvgl\src\core/lv_event.c ****     #define EVENT_TRACE(...)
  46:..\..\..\arduinoLCD\test\Pain Drain\libraries\lvgl\src\core/lv_event.c **** #endif
  47:..\..\..\arduinoLCD\test\Pain Drain\libraries\lvgl\src\core/lv_event.c **** 
  48:..\..\..\arduinoLCD\test\Pain Drain\libraries\lvgl\src\core/lv_event.c **** /**********************
  49:..\..\..\arduinoLCD\test\Pain Drain\libraries\lvgl\src\core/lv_event.c ****  *   GLOBAL FUNCTIONS
  50:..\..\..\arduinoLCD\test\Pain Drain\libraries\lvgl\src\core/lv_event.c ****  **********************/
  51:..\..\..\arduinoLCD\test\Pain Drain\libraries\lvgl\src\core/lv_event.c **** 
  52:..\..\..\arduinoLCD\test\Pain Drain\libraries\lvgl\src\core/lv_event.c **** lv_res_t lv_event_send(lv_obj_t * obj, lv_event_code_t event_code, void * param)
  53:..\..\..\arduinoLCD\test\Pain Drain\libraries\lvgl\src\core/lv_event.c **** {
  54:..\..\..\arduinoLCD\test\Pain Drain\libraries\lvgl\src\core/lv_event.c ****     if(obj == NULL) return LV_RES_OK;
  55:..\..\..\arduinoLCD\test\Pain Drain\libraries\lvgl\src\core/lv_event.c **** 
  56:..\..\..\arduinoLCD\test\Pain Drain\libraries\lvgl\src\core/lv_event.c ****     LV_ASSERT_OBJ(obj, MY_CLASS);
  57:..\..\..\arduinoLCD\test\Pain Drain\libraries\lvgl\src\core/lv_event.c **** 
  58:..\..\..\arduinoLCD\test\Pain Drain\libraries\lvgl\src\core/lv_event.c ****     lv_event_t e;
  59:..\..\..\arduinoLCD\test\Pain Drain\libraries\lvgl\src\core/lv_event.c ****     e.target = obj;
  60:..\..\..\arduinoLCD\test\Pain Drain\libraries\lvgl\src\core/lv_event.c ****     e.current_target = obj;
  61:..\..\..\arduinoLCD\test\Pain Drain\libraries\lvgl\src\core/lv_event.c ****     e.code = event_code;
  62:..\..\..\arduinoLCD\test\Pain Drain\libraries\lvgl\src\core/lv_event.c ****     e.user_data = NULL;
  63:..\..\..\arduinoLCD\test\Pain Drain\libraries\lvgl\src\core/lv_event.c ****     e.param = param;
  64:..\..\..\arduinoLCD\test\Pain Drain\libraries\lvgl\src\core/lv_event.c ****     e.deleted = 0;
  65:..\..\..\arduinoLCD\test\Pain Drain\libraries\lvgl\src\core/lv_event.c ****     e.stop_bubbling = 0;
  66:..\..\..\arduinoLCD\test\Pain Drain\libraries\lvgl\src\core/lv_event.c ****     e.stop_processing = 0;
  67:..\..\..\arduinoLCD\test\Pain Drain\libraries\lvgl\src\core/lv_event.c **** 
  68:..\..\..\arduinoLCD\test\Pain Drain\libraries\lvgl\src\core/lv_event.c ****     /*Build a simple linked list from the objects used in the events
  69:..\..\..\arduinoLCD\test\Pain Drain\libraries\lvgl\src\core/lv_event.c ****      *It's important to know if this object was deleted by a nested event
  70:..\..\..\arduinoLCD\test\Pain Drain\libraries\lvgl\src\core/lv_event.c ****      *called from this `event_cb`.*/
  71:..\..\..\arduinoLCD\test\Pain Drain\libraries\lvgl\src\core/lv_event.c ****     e.prev = event_head;
  72:..\..\..\arduinoLCD\test\Pain Drain\libraries\lvgl\src\core/lv_event.c ****     event_head = &e;
  73:..\..\..\arduinoLCD\test\Pain Drain\libraries\lvgl\src\core/lv_event.c **** 
  74:..\..\..\arduinoLCD\test\Pain Drain\libraries\lvgl\src\core/lv_event.c ****     /*Send the event*/
  75:..\..\..\arduinoLCD\test\Pain Drain\libraries\lvgl\src\core/lv_event.c ****     lv_res_t res = event_send_core(&e);
  76:..\..\..\arduinoLCD\test\Pain Drain\libraries\lvgl\src\core/lv_event.c **** 
  77:..\..\..\arduinoLCD\test\Pain Drain\libraries\lvgl\src\core/lv_event.c ****     /*Remove this element from the list*/
  78:..\..\..\arduinoLCD\test\Pain Drain\libraries\lvgl\src\core/lv_event.c ****     event_head = e.prev;
  79:..\..\..\arduinoLCD\test\Pain Drain\libraries\lvgl\src\core/lv_event.c **** 
  80:..\..\..\arduinoLCD\test\Pain Drain\libraries\lvgl\src\core/lv_event.c ****     return res;
  81:..\..\..\arduinoLCD\test\Pain Drain\libraries\lvgl\src\core/lv_event.c **** }
  82:..\..\..\arduinoLCD\test\Pain Drain\libraries\lvgl\src\core/lv_event.c **** 
  83:..\..\..\arduinoLCD\test\Pain Drain\libraries\lvgl\src\core/lv_event.c **** 
  84:..\..\..\arduinoLCD\test\Pain Drain\libraries\lvgl\src\core/lv_event.c **** lv_res_t lv_obj_event_base(const lv_obj_class_t * class_p, lv_event_t * e)
  85:..\..\..\arduinoLCD\test\Pain Drain\libraries\lvgl\src\core/lv_event.c **** {
  86:..\..\..\arduinoLCD\test\Pain Drain\libraries\lvgl\src\core/lv_event.c ****     const lv_obj_class_t * base;
  87:..\..\..\arduinoLCD\test\Pain Drain\libraries\lvgl\src\core/lv_event.c ****     if(class_p == NULL) base = e->current_target->class_p;
  88:..\..\..\arduinoLCD\test\Pain Drain\libraries\lvgl\src\core/lv_event.c ****     else base = class_p->base_class;
ARM GAS  C:\Users\haske\AppData\Local\Temp\ccz6azzs.s 			page 3


  89:..\..\..\arduinoLCD\test\Pain Drain\libraries\lvgl\src\core/lv_event.c **** 
  90:..\..\..\arduinoLCD\test\Pain Drain\libraries\lvgl\src\core/lv_event.c ****     /*Find a base in which call the ancestor's event handler_cb if set*/
  91:..\..\..\arduinoLCD\test\Pain Drain\libraries\lvgl\src\core/lv_event.c ****     while(base && base->event_cb == NULL) base = base->base_class;
  92:..\..\..\arduinoLCD\test\Pain Drain\libraries\lvgl\src\core/lv_event.c **** 
  93:..\..\..\arduinoLCD\test\Pain Drain\libraries\lvgl\src\core/lv_event.c ****     if(base == NULL) return LV_RES_OK;
  94:..\..\..\arduinoLCD\test\Pain Drain\libraries\lvgl\src\core/lv_event.c ****     if(base->event_cb == NULL) return LV_RES_OK;
  95:..\..\..\arduinoLCD\test\Pain Drain\libraries\lvgl\src\core/lv_event.c **** 
  96:..\..\..\arduinoLCD\test\Pain Drain\libraries\lvgl\src\core/lv_event.c ****     /*Call the actual event callback*/
  97:..\..\..\arduinoLCD\test\Pain Drain\libraries\lvgl\src\core/lv_event.c ****     e->user_data = NULL;
  98:..\..\..\arduinoLCD\test\Pain Drain\libraries\lvgl\src\core/lv_event.c ****     base->event_cb(base, e);
  99:..\..\..\arduinoLCD\test\Pain Drain\libraries\lvgl\src\core/lv_event.c **** 
 100:..\..\..\arduinoLCD\test\Pain Drain\libraries\lvgl\src\core/lv_event.c ****     lv_res_t res = LV_RES_OK;
 101:..\..\..\arduinoLCD\test\Pain Drain\libraries\lvgl\src\core/lv_event.c ****     /*Stop if the object is deleted*/
 102:..\..\..\arduinoLCD\test\Pain Drain\libraries\lvgl\src\core/lv_event.c ****     if(e->deleted) res = LV_RES_INV;
 103:..\..\..\arduinoLCD\test\Pain Drain\libraries\lvgl\src\core/lv_event.c **** 
 104:..\..\..\arduinoLCD\test\Pain Drain\libraries\lvgl\src\core/lv_event.c ****     return res;
 105:..\..\..\arduinoLCD\test\Pain Drain\libraries\lvgl\src\core/lv_event.c **** }
 106:..\..\..\arduinoLCD\test\Pain Drain\libraries\lvgl\src\core/lv_event.c **** 
 107:..\..\..\arduinoLCD\test\Pain Drain\libraries\lvgl\src\core/lv_event.c **** 
 108:..\..\..\arduinoLCD\test\Pain Drain\libraries\lvgl\src\core/lv_event.c **** lv_obj_t * lv_event_get_target(lv_event_t * e)
 109:..\..\..\arduinoLCD\test\Pain Drain\libraries\lvgl\src\core/lv_event.c **** {
 110:..\..\..\arduinoLCD\test\Pain Drain\libraries\lvgl\src\core/lv_event.c ****     return e->target;
 111:..\..\..\arduinoLCD\test\Pain Drain\libraries\lvgl\src\core/lv_event.c **** }
 112:..\..\..\arduinoLCD\test\Pain Drain\libraries\lvgl\src\core/lv_event.c **** 
 113:..\..\..\arduinoLCD\test\Pain Drain\libraries\lvgl\src\core/lv_event.c **** lv_obj_t * lv_event_get_current_target(lv_event_t * e)
 114:..\..\..\arduinoLCD\test\Pain Drain\libraries\lvgl\src\core/lv_event.c **** {
 115:..\..\..\arduinoLCD\test\Pain Drain\libraries\lvgl\src\core/lv_event.c ****     return e->current_target;
 116:..\..\..\arduinoLCD\test\Pain Drain\libraries\lvgl\src\core/lv_event.c **** }
 117:..\..\..\arduinoLCD\test\Pain Drain\libraries\lvgl\src\core/lv_event.c **** 
 118:..\..\..\arduinoLCD\test\Pain Drain\libraries\lvgl\src\core/lv_event.c **** lv_event_code_t lv_event_get_code(lv_event_t * e)
 119:..\..\..\arduinoLCD\test\Pain Drain\libraries\lvgl\src\core/lv_event.c **** {
 120:..\..\..\arduinoLCD\test\Pain Drain\libraries\lvgl\src\core/lv_event.c ****     return e->code & ~LV_EVENT_PREPROCESS;
 121:..\..\..\arduinoLCD\test\Pain Drain\libraries\lvgl\src\core/lv_event.c **** }
 122:..\..\..\arduinoLCD\test\Pain Drain\libraries\lvgl\src\core/lv_event.c **** 
 123:..\..\..\arduinoLCD\test\Pain Drain\libraries\lvgl\src\core/lv_event.c **** void * lv_event_get_param(lv_event_t * e)
 124:..\..\..\arduinoLCD\test\Pain Drain\libraries\lvgl\src\core/lv_event.c **** {
 125:..\..\..\arduinoLCD\test\Pain Drain\libraries\lvgl\src\core/lv_event.c ****     return e->param;
 126:..\..\..\arduinoLCD\test\Pain Drain\libraries\lvgl\src\core/lv_event.c **** }
 127:..\..\..\arduinoLCD\test\Pain Drain\libraries\lvgl\src\core/lv_event.c **** 
 128:..\..\..\arduinoLCD\test\Pain Drain\libraries\lvgl\src\core/lv_event.c **** void * lv_event_get_user_data(lv_event_t * e)
 129:..\..\..\arduinoLCD\test\Pain Drain\libraries\lvgl\src\core/lv_event.c **** {
 130:..\..\..\arduinoLCD\test\Pain Drain\libraries\lvgl\src\core/lv_event.c ****     return e->user_data;
 131:..\..\..\arduinoLCD\test\Pain Drain\libraries\lvgl\src\core/lv_event.c **** }
 132:..\..\..\arduinoLCD\test\Pain Drain\libraries\lvgl\src\core/lv_event.c **** 
 133:..\..\..\arduinoLCD\test\Pain Drain\libraries\lvgl\src\core/lv_event.c **** void lv_event_stop_bubbling(lv_event_t * e)
 134:..\..\..\arduinoLCD\test\Pain Drain\libraries\lvgl\src\core/lv_event.c **** {
 135:..\..\..\arduinoLCD\test\Pain Drain\libraries\lvgl\src\core/lv_event.c ****     e->stop_bubbling = 1;
 136:..\..\..\arduinoLCD\test\Pain Drain\libraries\lvgl\src\core/lv_event.c **** }
 137:..\..\..\arduinoLCD\test\Pain Drain\libraries\lvgl\src\core/lv_event.c **** 
 138:..\..\..\arduinoLCD\test\Pain Drain\libraries\lvgl\src\core/lv_event.c **** void lv_event_stop_processing(lv_event_t * e)
 139:..\..\..\arduinoLCD\test\Pain Drain\libraries\lvgl\src\core/lv_event.c **** {
 140:..\..\..\arduinoLCD\test\Pain Drain\libraries\lvgl\src\core/lv_event.c ****     e->stop_processing = 1;
 141:..\..\..\arduinoLCD\test\Pain Drain\libraries\lvgl\src\core/lv_event.c **** }
 142:..\..\..\arduinoLCD\test\Pain Drain\libraries\lvgl\src\core/lv_event.c **** 
 143:..\..\..\arduinoLCD\test\Pain Drain\libraries\lvgl\src\core/lv_event.c **** 
 144:..\..\..\arduinoLCD\test\Pain Drain\libraries\lvgl\src\core/lv_event.c **** uint32_t lv_event_register_id(void)
 145:..\..\..\arduinoLCD\test\Pain Drain\libraries\lvgl\src\core/lv_event.c **** {
ARM GAS  C:\Users\haske\AppData\Local\Temp\ccz6azzs.s 			page 4


 146:..\..\..\arduinoLCD\test\Pain Drain\libraries\lvgl\src\core/lv_event.c ****     static uint32_t last_id = _LV_EVENT_LAST;
 147:..\..\..\arduinoLCD\test\Pain Drain\libraries\lvgl\src\core/lv_event.c ****     last_id ++;
 148:..\..\..\arduinoLCD\test\Pain Drain\libraries\lvgl\src\core/lv_event.c ****     return last_id;
 149:..\..\..\arduinoLCD\test\Pain Drain\libraries\lvgl\src\core/lv_event.c **** }
 150:..\..\..\arduinoLCD\test\Pain Drain\libraries\lvgl\src\core/lv_event.c **** 
 151:..\..\..\arduinoLCD\test\Pain Drain\libraries\lvgl\src\core/lv_event.c **** void _lv_event_mark_deleted(lv_obj_t * obj)
 152:..\..\..\arduinoLCD\test\Pain Drain\libraries\lvgl\src\core/lv_event.c **** {
 153:..\..\..\arduinoLCD\test\Pain Drain\libraries\lvgl\src\core/lv_event.c ****     lv_event_t * e = event_head;
 154:..\..\..\arduinoLCD\test\Pain Drain\libraries\lvgl\src\core/lv_event.c **** 
 155:..\..\..\arduinoLCD\test\Pain Drain\libraries\lvgl\src\core/lv_event.c ****     while(e) {
 156:..\..\..\arduinoLCD\test\Pain Drain\libraries\lvgl\src\core/lv_event.c ****         if(e->current_target == obj || e->target == obj) e->deleted = 1;
 157:..\..\..\arduinoLCD\test\Pain Drain\libraries\lvgl\src\core/lv_event.c ****         e = e->prev;
 158:..\..\..\arduinoLCD\test\Pain Drain\libraries\lvgl\src\core/lv_event.c ****     }
 159:..\..\..\arduinoLCD\test\Pain Drain\libraries\lvgl\src\core/lv_event.c **** }
 160:..\..\..\arduinoLCD\test\Pain Drain\libraries\lvgl\src\core/lv_event.c **** 
 161:..\..\..\arduinoLCD\test\Pain Drain\libraries\lvgl\src\core/lv_event.c **** 
 162:..\..\..\arduinoLCD\test\Pain Drain\libraries\lvgl\src\core/lv_event.c **** struct _lv_event_dsc_t * lv_obj_add_event_cb(lv_obj_t * obj, lv_event_cb_t event_cb, lv_event_code_
 163:..\..\..\arduinoLCD\test\Pain Drain\libraries\lvgl\src\core/lv_event.c ****                                              void * user_data)
 164:..\..\..\arduinoLCD\test\Pain Drain\libraries\lvgl\src\core/lv_event.c **** {
 165:..\..\..\arduinoLCD\test\Pain Drain\libraries\lvgl\src\core/lv_event.c ****     LV_ASSERT_OBJ(obj, MY_CLASS);
 166:..\..\..\arduinoLCD\test\Pain Drain\libraries\lvgl\src\core/lv_event.c ****     lv_obj_allocate_spec_attr(obj);
 167:..\..\..\arduinoLCD\test\Pain Drain\libraries\lvgl\src\core/lv_event.c **** 
 168:..\..\..\arduinoLCD\test\Pain Drain\libraries\lvgl\src\core/lv_event.c ****     obj->spec_attr->event_dsc_cnt++;
 169:..\..\..\arduinoLCD\test\Pain Drain\libraries\lvgl\src\core/lv_event.c ****     obj->spec_attr->event_dsc = lv_mem_realloc(obj->spec_attr->event_dsc,
 170:..\..\..\arduinoLCD\test\Pain Drain\libraries\lvgl\src\core/lv_event.c ****                                                obj->spec_attr->event_dsc_cnt * sizeof(lv_event_dsc_
 171:..\..\..\arduinoLCD\test\Pain Drain\libraries\lvgl\src\core/lv_event.c ****     LV_ASSERT_MALLOC(obj->spec_attr->event_dsc);
 172:..\..\..\arduinoLCD\test\Pain Drain\libraries\lvgl\src\core/lv_event.c **** 
 173:..\..\..\arduinoLCD\test\Pain Drain\libraries\lvgl\src\core/lv_event.c ****     obj->spec_attr->event_dsc[obj->spec_attr->event_dsc_cnt - 1].cb = event_cb;
 174:..\..\..\arduinoLCD\test\Pain Drain\libraries\lvgl\src\core/lv_event.c ****     obj->spec_attr->event_dsc[obj->spec_attr->event_dsc_cnt - 1].filter = filter;
 175:..\..\..\arduinoLCD\test\Pain Drain\libraries\lvgl\src\core/lv_event.c ****     obj->spec_attr->event_dsc[obj->spec_attr->event_dsc_cnt - 1].user_data = user_data;
 176:..\..\..\arduinoLCD\test\Pain Drain\libraries\lvgl\src\core/lv_event.c **** 
 177:..\..\..\arduinoLCD\test\Pain Drain\libraries\lvgl\src\core/lv_event.c ****     return &obj->spec_attr->event_dsc[obj->spec_attr->event_dsc_cnt - 1];
 178:..\..\..\arduinoLCD\test\Pain Drain\libraries\lvgl\src\core/lv_event.c **** }
 179:..\..\..\arduinoLCD\test\Pain Drain\libraries\lvgl\src\core/lv_event.c **** 
 180:..\..\..\arduinoLCD\test\Pain Drain\libraries\lvgl\src\core/lv_event.c **** bool lv_obj_remove_event_cb(lv_obj_t * obj, lv_event_cb_t event_cb)
 181:..\..\..\arduinoLCD\test\Pain Drain\libraries\lvgl\src\core/lv_event.c **** {
 182:..\..\..\arduinoLCD\test\Pain Drain\libraries\lvgl\src\core/lv_event.c ****     LV_ASSERT_OBJ(obj, MY_CLASS);
 183:..\..\..\arduinoLCD\test\Pain Drain\libraries\lvgl\src\core/lv_event.c ****     if(obj->spec_attr == NULL) return false;
 184:..\..\..\arduinoLCD\test\Pain Drain\libraries\lvgl\src\core/lv_event.c **** 
 185:..\..\..\arduinoLCD\test\Pain Drain\libraries\lvgl\src\core/lv_event.c ****     int32_t i = 0;
 186:..\..\..\arduinoLCD\test\Pain Drain\libraries\lvgl\src\core/lv_event.c ****     for(i = 0; i < obj->spec_attr->event_dsc_cnt; i++) {
 187:..\..\..\arduinoLCD\test\Pain Drain\libraries\lvgl\src\core/lv_event.c ****         if(event_cb == NULL || obj->spec_attr->event_dsc[i].cb == event_cb) {
 188:..\..\..\arduinoLCD\test\Pain Drain\libraries\lvgl\src\core/lv_event.c ****             /*Shift the remaining event handlers forward*/
 189:..\..\..\arduinoLCD\test\Pain Drain\libraries\lvgl\src\core/lv_event.c ****             for(; i < (obj->spec_attr->event_dsc_cnt - 1); i++) {
 190:..\..\..\arduinoLCD\test\Pain Drain\libraries\lvgl\src\core/lv_event.c ****                 obj->spec_attr->event_dsc[i] = obj->spec_attr->event_dsc[i + 1];
 191:..\..\..\arduinoLCD\test\Pain Drain\libraries\lvgl\src\core/lv_event.c ****             }
 192:..\..\..\arduinoLCD\test\Pain Drain\libraries\lvgl\src\core/lv_event.c ****             obj->spec_attr->event_dsc_cnt--;
 193:..\..\..\arduinoLCD\test\Pain Drain\libraries\lvgl\src\core/lv_event.c ****             obj->spec_attr->event_dsc = lv_mem_realloc(obj->spec_attr->event_dsc,
 194:..\..\..\arduinoLCD\test\Pain Drain\libraries\lvgl\src\core/lv_event.c ****                                                        obj->spec_attr->event_dsc_cnt * sizeof(lv_ev
 195:..\..\..\arduinoLCD\test\Pain Drain\libraries\lvgl\src\core/lv_event.c ****             LV_ASSERT_MALLOC(obj->spec_attr->event_dsc);
 196:..\..\..\arduinoLCD\test\Pain Drain\libraries\lvgl\src\core/lv_event.c ****             return true;
 197:..\..\..\arduinoLCD\test\Pain Drain\libraries\lvgl\src\core/lv_event.c ****         }
 198:..\..\..\arduinoLCD\test\Pain Drain\libraries\lvgl\src\core/lv_event.c ****     }
 199:..\..\..\arduinoLCD\test\Pain Drain\libraries\lvgl\src\core/lv_event.c **** 
 200:..\..\..\arduinoLCD\test\Pain Drain\libraries\lvgl\src\core/lv_event.c ****     /*No event handler found*/
 201:..\..\..\arduinoLCD\test\Pain Drain\libraries\lvgl\src\core/lv_event.c ****     return false;
 202:..\..\..\arduinoLCD\test\Pain Drain\libraries\lvgl\src\core/lv_event.c **** }
ARM GAS  C:\Users\haske\AppData\Local\Temp\ccz6azzs.s 			page 5


 203:..\..\..\arduinoLCD\test\Pain Drain\libraries\lvgl\src\core/lv_event.c **** 
 204:..\..\..\arduinoLCD\test\Pain Drain\libraries\lvgl\src\core/lv_event.c **** bool lv_obj_remove_event_cb_with_user_data(lv_obj_t * obj, lv_event_cb_t event_cb, const void * use
 205:..\..\..\arduinoLCD\test\Pain Drain\libraries\lvgl\src\core/lv_event.c **** {
 206:..\..\..\arduinoLCD\test\Pain Drain\libraries\lvgl\src\core/lv_event.c ****     LV_ASSERT_OBJ(obj, MY_CLASS);
 207:..\..\..\arduinoLCD\test\Pain Drain\libraries\lvgl\src\core/lv_event.c ****     if(obj->spec_attr == NULL) return false;
 208:..\..\..\arduinoLCD\test\Pain Drain\libraries\lvgl\src\core/lv_event.c **** 
 209:..\..\..\arduinoLCD\test\Pain Drain\libraries\lvgl\src\core/lv_event.c ****     int32_t i = 0;
 210:..\..\..\arduinoLCD\test\Pain Drain\libraries\lvgl\src\core/lv_event.c ****     for(i = 0; i < obj->spec_attr->event_dsc_cnt; i++) {
 211:..\..\..\arduinoLCD\test\Pain Drain\libraries\lvgl\src\core/lv_event.c ****         if((event_cb == NULL || obj->spec_attr->event_dsc[i].cb == event_cb) &&
 212:..\..\..\arduinoLCD\test\Pain Drain\libraries\lvgl\src\core/lv_event.c ****            obj->spec_attr->event_dsc[i].user_data == user_data) {
 213:..\..\..\arduinoLCD\test\Pain Drain\libraries\lvgl\src\core/lv_event.c ****             /*Shift the remaining event handlers forward*/
 214:..\..\..\arduinoLCD\test\Pain Drain\libraries\lvgl\src\core/lv_event.c ****             for(; i < (obj->spec_attr->event_dsc_cnt - 1); i++) {
 215:..\..\..\arduinoLCD\test\Pain Drain\libraries\lvgl\src\core/lv_event.c ****                 obj->spec_attr->event_dsc[i] = obj->spec_attr->event_dsc[i + 1];
 216:..\..\..\arduinoLCD\test\Pain Drain\libraries\lvgl\src\core/lv_event.c ****             }
 217:..\..\..\arduinoLCD\test\Pain Drain\libraries\lvgl\src\core/lv_event.c ****             obj->spec_attr->event_dsc_cnt--;
 218:..\..\..\arduinoLCD\test\Pain Drain\libraries\lvgl\src\core/lv_event.c ****             obj->spec_attr->event_dsc = lv_mem_realloc(obj->spec_attr->event_dsc,
 219:..\..\..\arduinoLCD\test\Pain Drain\libraries\lvgl\src\core/lv_event.c ****                                                        obj->spec_attr->event_dsc_cnt * sizeof(lv_ev
 220:..\..\..\arduinoLCD\test\Pain Drain\libraries\lvgl\src\core/lv_event.c ****             LV_ASSERT_MALLOC(obj->spec_attr->event_dsc);
 221:..\..\..\arduinoLCD\test\Pain Drain\libraries\lvgl\src\core/lv_event.c ****             return true;
 222:..\..\..\arduinoLCD\test\Pain Drain\libraries\lvgl\src\core/lv_event.c ****         }
 223:..\..\..\arduinoLCD\test\Pain Drain\libraries\lvgl\src\core/lv_event.c ****     }
 224:..\..\..\arduinoLCD\test\Pain Drain\libraries\lvgl\src\core/lv_event.c **** 
 225:..\..\..\arduinoLCD\test\Pain Drain\libraries\lvgl\src\core/lv_event.c ****     /*No event handler found*/
 226:..\..\..\arduinoLCD\test\Pain Drain\libraries\lvgl\src\core/lv_event.c ****     return false;
 227:..\..\..\arduinoLCD\test\Pain Drain\libraries\lvgl\src\core/lv_event.c **** }
 228:..\..\..\arduinoLCD\test\Pain Drain\libraries\lvgl\src\core/lv_event.c **** 
 229:..\..\..\arduinoLCD\test\Pain Drain\libraries\lvgl\src\core/lv_event.c **** 
 230:..\..\..\arduinoLCD\test\Pain Drain\libraries\lvgl\src\core/lv_event.c **** bool lv_obj_remove_event_dsc(lv_obj_t * obj, struct _lv_event_dsc_t * event_dsc)
 231:..\..\..\arduinoLCD\test\Pain Drain\libraries\lvgl\src\core/lv_event.c **** {
 232:..\..\..\arduinoLCD\test\Pain Drain\libraries\lvgl\src\core/lv_event.c ****     LV_ASSERT_OBJ(obj, MY_CLASS);
 233:..\..\..\arduinoLCD\test\Pain Drain\libraries\lvgl\src\core/lv_event.c ****     if(obj->spec_attr == NULL) return false;
 234:..\..\..\arduinoLCD\test\Pain Drain\libraries\lvgl\src\core/lv_event.c **** 
 235:..\..\..\arduinoLCD\test\Pain Drain\libraries\lvgl\src\core/lv_event.c ****     int32_t i = 0;
 236:..\..\..\arduinoLCD\test\Pain Drain\libraries\lvgl\src\core/lv_event.c ****     for(i = 0; i < obj->spec_attr->event_dsc_cnt; i++) {
 237:..\..\..\arduinoLCD\test\Pain Drain\libraries\lvgl\src\core/lv_event.c ****         if(&obj->spec_attr->event_dsc[i] == event_dsc) {
 238:..\..\..\arduinoLCD\test\Pain Drain\libraries\lvgl\src\core/lv_event.c ****             /*Shift the remaining event handlers forward*/
 239:..\..\..\arduinoLCD\test\Pain Drain\libraries\lvgl\src\core/lv_event.c ****             for(; i < (obj->spec_attr->event_dsc_cnt - 1); i++) {
 240:..\..\..\arduinoLCD\test\Pain Drain\libraries\lvgl\src\core/lv_event.c ****                 obj->spec_attr->event_dsc[i] = obj->spec_attr->event_dsc[i + 1];
 241:..\..\..\arduinoLCD\test\Pain Drain\libraries\lvgl\src\core/lv_event.c ****             }
 242:..\..\..\arduinoLCD\test\Pain Drain\libraries\lvgl\src\core/lv_event.c ****             obj->spec_attr->event_dsc_cnt--;
 243:..\..\..\arduinoLCD\test\Pain Drain\libraries\lvgl\src\core/lv_event.c ****             obj->spec_attr->event_dsc = lv_mem_realloc(obj->spec_attr->event_dsc,
 244:..\..\..\arduinoLCD\test\Pain Drain\libraries\lvgl\src\core/lv_event.c ****                                                        obj->spec_attr->event_dsc_cnt * sizeof(lv_ev
 245:..\..\..\arduinoLCD\test\Pain Drain\libraries\lvgl\src\core/lv_event.c ****             LV_ASSERT_MALLOC(obj->spec_attr->event_dsc);
 246:..\..\..\arduinoLCD\test\Pain Drain\libraries\lvgl\src\core/lv_event.c ****             return true;
 247:..\..\..\arduinoLCD\test\Pain Drain\libraries\lvgl\src\core/lv_event.c ****         }
 248:..\..\..\arduinoLCD\test\Pain Drain\libraries\lvgl\src\core/lv_event.c ****     }
 249:..\..\..\arduinoLCD\test\Pain Drain\libraries\lvgl\src\core/lv_event.c **** 
 250:..\..\..\arduinoLCD\test\Pain Drain\libraries\lvgl\src\core/lv_event.c ****     /*No event handler found*/
 251:..\..\..\arduinoLCD\test\Pain Drain\libraries\lvgl\src\core/lv_event.c ****     return false;
 252:..\..\..\arduinoLCD\test\Pain Drain\libraries\lvgl\src\core/lv_event.c **** }
 253:..\..\..\arduinoLCD\test\Pain Drain\libraries\lvgl\src\core/lv_event.c **** 
 254:..\..\..\arduinoLCD\test\Pain Drain\libraries\lvgl\src\core/lv_event.c **** void * lv_obj_get_event_user_data(struct _lv_obj_t * obj, lv_event_cb_t event_cb)
 255:..\..\..\arduinoLCD\test\Pain Drain\libraries\lvgl\src\core/lv_event.c **** {
 256:..\..\..\arduinoLCD\test\Pain Drain\libraries\lvgl\src\core/lv_event.c ****     LV_ASSERT_OBJ(obj, MY_CLASS);
 257:..\..\..\arduinoLCD\test\Pain Drain\libraries\lvgl\src\core/lv_event.c ****     if(obj->spec_attr == NULL) return NULL;
 258:..\..\..\arduinoLCD\test\Pain Drain\libraries\lvgl\src\core/lv_event.c **** 
 259:..\..\..\arduinoLCD\test\Pain Drain\libraries\lvgl\src\core/lv_event.c ****     int32_t i = 0;
ARM GAS  C:\Users\haske\AppData\Local\Temp\ccz6azzs.s 			page 6


 260:..\..\..\arduinoLCD\test\Pain Drain\libraries\lvgl\src\core/lv_event.c ****     for(i = 0; i < obj->spec_attr->event_dsc_cnt; i++) {
 261:..\..\..\arduinoLCD\test\Pain Drain\libraries\lvgl\src\core/lv_event.c ****         if(event_cb == obj->spec_attr->event_dsc[i].cb) return obj->spec_attr->event_dsc[i].user_da
 262:..\..\..\arduinoLCD\test\Pain Drain\libraries\lvgl\src\core/lv_event.c ****     }
 263:..\..\..\arduinoLCD\test\Pain Drain\libraries\lvgl\src\core/lv_event.c ****     return NULL;
 264:..\..\..\arduinoLCD\test\Pain Drain\libraries\lvgl\src\core/lv_event.c **** }
 265:..\..\..\arduinoLCD\test\Pain Drain\libraries\lvgl\src\core/lv_event.c **** 
 266:..\..\..\arduinoLCD\test\Pain Drain\libraries\lvgl\src\core/lv_event.c **** lv_indev_t * lv_event_get_indev(lv_event_t * e)
 267:..\..\..\arduinoLCD\test\Pain Drain\libraries\lvgl\src\core/lv_event.c **** {
 268:..\..\..\arduinoLCD\test\Pain Drain\libraries\lvgl\src\core/lv_event.c **** 
 269:..\..\..\arduinoLCD\test\Pain Drain\libraries\lvgl\src\core/lv_event.c ****     if(e->code == LV_EVENT_PRESSED ||
 270:..\..\..\arduinoLCD\test\Pain Drain\libraries\lvgl\src\core/lv_event.c ****        e->code == LV_EVENT_PRESSING ||
 271:..\..\..\arduinoLCD\test\Pain Drain\libraries\lvgl\src\core/lv_event.c ****        e->code == LV_EVENT_PRESS_LOST ||
 272:..\..\..\arduinoLCD\test\Pain Drain\libraries\lvgl\src\core/lv_event.c ****        e->code == LV_EVENT_SHORT_CLICKED ||
 273:..\..\..\arduinoLCD\test\Pain Drain\libraries\lvgl\src\core/lv_event.c ****        e->code == LV_EVENT_LONG_PRESSED ||
 274:..\..\..\arduinoLCD\test\Pain Drain\libraries\lvgl\src\core/lv_event.c ****        e->code == LV_EVENT_LONG_PRESSED_REPEAT ||
 275:..\..\..\arduinoLCD\test\Pain Drain\libraries\lvgl\src\core/lv_event.c ****        e->code == LV_EVENT_CLICKED ||
 276:..\..\..\arduinoLCD\test\Pain Drain\libraries\lvgl\src\core/lv_event.c ****        e->code == LV_EVENT_RELEASED ||
 277:..\..\..\arduinoLCD\test\Pain Drain\libraries\lvgl\src\core/lv_event.c ****        e->code == LV_EVENT_SCROLL_BEGIN ||
 278:..\..\..\arduinoLCD\test\Pain Drain\libraries\lvgl\src\core/lv_event.c ****        e->code == LV_EVENT_SCROLL_END ||
 279:..\..\..\arduinoLCD\test\Pain Drain\libraries\lvgl\src\core/lv_event.c ****        e->code == LV_EVENT_SCROLL ||
 280:..\..\..\arduinoLCD\test\Pain Drain\libraries\lvgl\src\core/lv_event.c ****        e->code == LV_EVENT_GESTURE ||
 281:..\..\..\arduinoLCD\test\Pain Drain\libraries\lvgl\src\core/lv_event.c ****        e->code == LV_EVENT_KEY ||
 282:..\..\..\arduinoLCD\test\Pain Drain\libraries\lvgl\src\core/lv_event.c ****        e->code == LV_EVENT_FOCUSED ||
 283:..\..\..\arduinoLCD\test\Pain Drain\libraries\lvgl\src\core/lv_event.c ****        e->code == LV_EVENT_DEFOCUSED ||
 284:..\..\..\arduinoLCD\test\Pain Drain\libraries\lvgl\src\core/lv_event.c ****        e->code == LV_EVENT_LEAVE) {
 285:..\..\..\arduinoLCD\test\Pain Drain\libraries\lvgl\src\core/lv_event.c ****         return lv_event_get_param(e);
 286:..\..\..\arduinoLCD\test\Pain Drain\libraries\lvgl\src\core/lv_event.c ****     }
 287:..\..\..\arduinoLCD\test\Pain Drain\libraries\lvgl\src\core/lv_event.c ****     else {
 288:..\..\..\arduinoLCD\test\Pain Drain\libraries\lvgl\src\core/lv_event.c ****         LV_LOG_WARN("Not interpreted with this event code");
 289:..\..\..\arduinoLCD\test\Pain Drain\libraries\lvgl\src\core/lv_event.c ****         return NULL;
 290:..\..\..\arduinoLCD\test\Pain Drain\libraries\lvgl\src\core/lv_event.c ****     }
 291:..\..\..\arduinoLCD\test\Pain Drain\libraries\lvgl\src\core/lv_event.c **** }
 292:..\..\..\arduinoLCD\test\Pain Drain\libraries\lvgl\src\core/lv_event.c **** 
 293:..\..\..\arduinoLCD\test\Pain Drain\libraries\lvgl\src\core/lv_event.c **** lv_obj_draw_part_dsc_t * lv_event_get_draw_part_dsc(lv_event_t * e)
 294:..\..\..\arduinoLCD\test\Pain Drain\libraries\lvgl\src\core/lv_event.c **** {
 295:..\..\..\arduinoLCD\test\Pain Drain\libraries\lvgl\src\core/lv_event.c ****     if(e->code == LV_EVENT_DRAW_PART_BEGIN ||
 296:..\..\..\arduinoLCD\test\Pain Drain\libraries\lvgl\src\core/lv_event.c ****        e->code == LV_EVENT_DRAW_PART_END) {
 297:..\..\..\arduinoLCD\test\Pain Drain\libraries\lvgl\src\core/lv_event.c ****         return lv_event_get_param(e);
 298:..\..\..\arduinoLCD\test\Pain Drain\libraries\lvgl\src\core/lv_event.c ****     }
 299:..\..\..\arduinoLCD\test\Pain Drain\libraries\lvgl\src\core/lv_event.c ****     else {
 300:..\..\..\arduinoLCD\test\Pain Drain\libraries\lvgl\src\core/lv_event.c ****         LV_LOG_WARN("Not interpreted with this event code");
 301:..\..\..\arduinoLCD\test\Pain Drain\libraries\lvgl\src\core/lv_event.c ****         return NULL;
 302:..\..\..\arduinoLCD\test\Pain Drain\libraries\lvgl\src\core/lv_event.c ****     }
 303:..\..\..\arduinoLCD\test\Pain Drain\libraries\lvgl\src\core/lv_event.c **** }
 304:..\..\..\arduinoLCD\test\Pain Drain\libraries\lvgl\src\core/lv_event.c **** 
 305:..\..\..\arduinoLCD\test\Pain Drain\libraries\lvgl\src\core/lv_event.c **** lv_draw_ctx_t * lv_event_get_draw_ctx(lv_event_t * e)
 306:..\..\..\arduinoLCD\test\Pain Drain\libraries\lvgl\src\core/lv_event.c **** {
 307:..\..\..\arduinoLCD\test\Pain Drain\libraries\lvgl\src\core/lv_event.c ****     if(e->code == LV_EVENT_DRAW_MAIN ||
 308:..\..\..\arduinoLCD\test\Pain Drain\libraries\lvgl\src\core/lv_event.c ****        e->code == LV_EVENT_DRAW_MAIN_BEGIN ||
 309:..\..\..\arduinoLCD\test\Pain Drain\libraries\lvgl\src\core/lv_event.c ****        e->code == LV_EVENT_DRAW_MAIN_END ||
 310:..\..\..\arduinoLCD\test\Pain Drain\libraries\lvgl\src\core/lv_event.c ****        e->code == LV_EVENT_DRAW_POST ||
 311:..\..\..\arduinoLCD\test\Pain Drain\libraries\lvgl\src\core/lv_event.c ****        e->code == LV_EVENT_DRAW_POST_BEGIN ||
 312:..\..\..\arduinoLCD\test\Pain Drain\libraries\lvgl\src\core/lv_event.c ****        e->code == LV_EVENT_DRAW_POST_END) {
 313:..\..\..\arduinoLCD\test\Pain Drain\libraries\lvgl\src\core/lv_event.c ****         return lv_event_get_param(e);
 314:..\..\..\arduinoLCD\test\Pain Drain\libraries\lvgl\src\core/lv_event.c ****     }
 315:..\..\..\arduinoLCD\test\Pain Drain\libraries\lvgl\src\core/lv_event.c ****     else {
 316:..\..\..\arduinoLCD\test\Pain Drain\libraries\lvgl\src\core/lv_event.c ****         LV_LOG_WARN("Not interpreted with this event code");
ARM GAS  C:\Users\haske\AppData\Local\Temp\ccz6azzs.s 			page 7


 317:..\..\..\arduinoLCD\test\Pain Drain\libraries\lvgl\src\core/lv_event.c ****         return NULL;
 318:..\..\..\arduinoLCD\test\Pain Drain\libraries\lvgl\src\core/lv_event.c ****     }
 319:..\..\..\arduinoLCD\test\Pain Drain\libraries\lvgl\src\core/lv_event.c **** }
 320:..\..\..\arduinoLCD\test\Pain Drain\libraries\lvgl\src\core/lv_event.c **** 
 321:..\..\..\arduinoLCD\test\Pain Drain\libraries\lvgl\src\core/lv_event.c **** const lv_area_t * lv_event_get_old_size(lv_event_t * e)
 322:..\..\..\arduinoLCD\test\Pain Drain\libraries\lvgl\src\core/lv_event.c **** {
 323:..\..\..\arduinoLCD\test\Pain Drain\libraries\lvgl\src\core/lv_event.c ****     if(e->code == LV_EVENT_SIZE_CHANGED) {
 324:..\..\..\arduinoLCD\test\Pain Drain\libraries\lvgl\src\core/lv_event.c ****         return lv_event_get_param(e);
 325:..\..\..\arduinoLCD\test\Pain Drain\libraries\lvgl\src\core/lv_event.c ****     }
 326:..\..\..\arduinoLCD\test\Pain Drain\libraries\lvgl\src\core/lv_event.c ****     else {
 327:..\..\..\arduinoLCD\test\Pain Drain\libraries\lvgl\src\core/lv_event.c ****         LV_LOG_WARN("Not interpreted with this event code");
 328:..\..\..\arduinoLCD\test\Pain Drain\libraries\lvgl\src\core/lv_event.c ****         return NULL;
 329:..\..\..\arduinoLCD\test\Pain Drain\libraries\lvgl\src\core/lv_event.c ****     }
 330:..\..\..\arduinoLCD\test\Pain Drain\libraries\lvgl\src\core/lv_event.c **** }
 331:..\..\..\arduinoLCD\test\Pain Drain\libraries\lvgl\src\core/lv_event.c **** 
 332:..\..\..\arduinoLCD\test\Pain Drain\libraries\lvgl\src\core/lv_event.c **** uint32_t lv_event_get_key(lv_event_t * e)
 333:..\..\..\arduinoLCD\test\Pain Drain\libraries\lvgl\src\core/lv_event.c **** {
 334:..\..\..\arduinoLCD\test\Pain Drain\libraries\lvgl\src\core/lv_event.c ****     if(e->code == LV_EVENT_KEY) {
 335:..\..\..\arduinoLCD\test\Pain Drain\libraries\lvgl\src\core/lv_event.c ****         uint32_t * k = lv_event_get_param(e);
 336:..\..\..\arduinoLCD\test\Pain Drain\libraries\lvgl\src\core/lv_event.c ****         if(k) return *k;
 337:..\..\..\arduinoLCD\test\Pain Drain\libraries\lvgl\src\core/lv_event.c ****         else return 0;
 338:..\..\..\arduinoLCD\test\Pain Drain\libraries\lvgl\src\core/lv_event.c ****     }
 339:..\..\..\arduinoLCD\test\Pain Drain\libraries\lvgl\src\core/lv_event.c ****     else {
 340:..\..\..\arduinoLCD\test\Pain Drain\libraries\lvgl\src\core/lv_event.c ****         LV_LOG_WARN("Not interpreted with this event code");
 341:..\..\..\arduinoLCD\test\Pain Drain\libraries\lvgl\src\core/lv_event.c ****         return 0;
 342:..\..\..\arduinoLCD\test\Pain Drain\libraries\lvgl\src\core/lv_event.c ****     }
 343:..\..\..\arduinoLCD\test\Pain Drain\libraries\lvgl\src\core/lv_event.c **** }
 344:..\..\..\arduinoLCD\test\Pain Drain\libraries\lvgl\src\core/lv_event.c **** 
 345:..\..\..\arduinoLCD\test\Pain Drain\libraries\lvgl\src\core/lv_event.c **** lv_anim_t * lv_event_get_scroll_anim(lv_event_t * e)
 346:..\..\..\arduinoLCD\test\Pain Drain\libraries\lvgl\src\core/lv_event.c **** {
 347:..\..\..\arduinoLCD\test\Pain Drain\libraries\lvgl\src\core/lv_event.c ****     if(e->code == LV_EVENT_SCROLL_BEGIN) {
 348:..\..\..\arduinoLCD\test\Pain Drain\libraries\lvgl\src\core/lv_event.c ****         return lv_event_get_param(e);
 349:..\..\..\arduinoLCD\test\Pain Drain\libraries\lvgl\src\core/lv_event.c ****     }
 350:..\..\..\arduinoLCD\test\Pain Drain\libraries\lvgl\src\core/lv_event.c ****     else {
 351:..\..\..\arduinoLCD\test\Pain Drain\libraries\lvgl\src\core/lv_event.c ****         LV_LOG_WARN("Not interpreted with this event code");
 352:..\..\..\arduinoLCD\test\Pain Drain\libraries\lvgl\src\core/lv_event.c ****         return 0;
 353:..\..\..\arduinoLCD\test\Pain Drain\libraries\lvgl\src\core/lv_event.c ****     }
 354:..\..\..\arduinoLCD\test\Pain Drain\libraries\lvgl\src\core/lv_event.c **** }
 355:..\..\..\arduinoLCD\test\Pain Drain\libraries\lvgl\src\core/lv_event.c **** 
 356:..\..\..\arduinoLCD\test\Pain Drain\libraries\lvgl\src\core/lv_event.c **** void lv_event_set_ext_draw_size(lv_event_t * e, lv_coord_t size)
 357:..\..\..\arduinoLCD\test\Pain Drain\libraries\lvgl\src\core/lv_event.c **** {
 358:..\..\..\arduinoLCD\test\Pain Drain\libraries\lvgl\src\core/lv_event.c ****     if(e->code == LV_EVENT_REFR_EXT_DRAW_SIZE) {
 359:..\..\..\arduinoLCD\test\Pain Drain\libraries\lvgl\src\core/lv_event.c ****         lv_coord_t * cur_size = lv_event_get_param(e);
 360:..\..\..\arduinoLCD\test\Pain Drain\libraries\lvgl\src\core/lv_event.c ****         *cur_size = LV_MAX(*cur_size, size);
 361:..\..\..\arduinoLCD\test\Pain Drain\libraries\lvgl\src\core/lv_event.c ****     }
 362:..\..\..\arduinoLCD\test\Pain Drain\libraries\lvgl\src\core/lv_event.c ****     else {
 363:..\..\..\arduinoLCD\test\Pain Drain\libraries\lvgl\src\core/lv_event.c ****         LV_LOG_WARN("Not interpreted with this event code");
 364:..\..\..\arduinoLCD\test\Pain Drain\libraries\lvgl\src\core/lv_event.c ****     }
 365:..\..\..\arduinoLCD\test\Pain Drain\libraries\lvgl\src\core/lv_event.c **** }
 366:..\..\..\arduinoLCD\test\Pain Drain\libraries\lvgl\src\core/lv_event.c **** 
 367:..\..\..\arduinoLCD\test\Pain Drain\libraries\lvgl\src\core/lv_event.c **** lv_point_t * lv_event_get_self_size_info(lv_event_t * e)
 368:..\..\..\arduinoLCD\test\Pain Drain\libraries\lvgl\src\core/lv_event.c **** {
 369:..\..\..\arduinoLCD\test\Pain Drain\libraries\lvgl\src\core/lv_event.c ****     if(e->code == LV_EVENT_GET_SELF_SIZE) {
 370:..\..\..\arduinoLCD\test\Pain Drain\libraries\lvgl\src\core/lv_event.c ****         return lv_event_get_param(e);
 371:..\..\..\arduinoLCD\test\Pain Drain\libraries\lvgl\src\core/lv_event.c ****     }
 372:..\..\..\arduinoLCD\test\Pain Drain\libraries\lvgl\src\core/lv_event.c ****     else {
 373:..\..\..\arduinoLCD\test\Pain Drain\libraries\lvgl\src\core/lv_event.c ****         LV_LOG_WARN("Not interpreted with this event code");
ARM GAS  C:\Users\haske\AppData\Local\Temp\ccz6azzs.s 			page 8


 374:..\..\..\arduinoLCD\test\Pain Drain\libraries\lvgl\src\core/lv_event.c ****         return 0;
 375:..\..\..\arduinoLCD\test\Pain Drain\libraries\lvgl\src\core/lv_event.c ****     }
 376:..\..\..\arduinoLCD\test\Pain Drain\libraries\lvgl\src\core/lv_event.c **** }
 377:..\..\..\arduinoLCD\test\Pain Drain\libraries\lvgl\src\core/lv_event.c **** 
 378:..\..\..\arduinoLCD\test\Pain Drain\libraries\lvgl\src\core/lv_event.c **** lv_hit_test_info_t * lv_event_get_hit_test_info(lv_event_t * e)
 379:..\..\..\arduinoLCD\test\Pain Drain\libraries\lvgl\src\core/lv_event.c **** {
 380:..\..\..\arduinoLCD\test\Pain Drain\libraries\lvgl\src\core/lv_event.c ****     if(e->code == LV_EVENT_HIT_TEST) {
 381:..\..\..\arduinoLCD\test\Pain Drain\libraries\lvgl\src\core/lv_event.c ****         return lv_event_get_param(e);
 382:..\..\..\arduinoLCD\test\Pain Drain\libraries\lvgl\src\core/lv_event.c ****     }
 383:..\..\..\arduinoLCD\test\Pain Drain\libraries\lvgl\src\core/lv_event.c ****     else {
 384:..\..\..\arduinoLCD\test\Pain Drain\libraries\lvgl\src\core/lv_event.c ****         LV_LOG_WARN("Not interpreted with this event code");
 385:..\..\..\arduinoLCD\test\Pain Drain\libraries\lvgl\src\core/lv_event.c ****         return 0;
 386:..\..\..\arduinoLCD\test\Pain Drain\libraries\lvgl\src\core/lv_event.c ****     }
 387:..\..\..\arduinoLCD\test\Pain Drain\libraries\lvgl\src\core/lv_event.c **** }
 388:..\..\..\arduinoLCD\test\Pain Drain\libraries\lvgl\src\core/lv_event.c **** 
 389:..\..\..\arduinoLCD\test\Pain Drain\libraries\lvgl\src\core/lv_event.c **** const lv_area_t * lv_event_get_cover_area(lv_event_t * e)
 390:..\..\..\arduinoLCD\test\Pain Drain\libraries\lvgl\src\core/lv_event.c **** {
 391:..\..\..\arduinoLCD\test\Pain Drain\libraries\lvgl\src\core/lv_event.c ****     if(e->code == LV_EVENT_COVER_CHECK) {
 392:..\..\..\arduinoLCD\test\Pain Drain\libraries\lvgl\src\core/lv_event.c ****         lv_cover_check_info_t * p = lv_event_get_param(e);
 393:..\..\..\arduinoLCD\test\Pain Drain\libraries\lvgl\src\core/lv_event.c ****         return p->area;
 394:..\..\..\arduinoLCD\test\Pain Drain\libraries\lvgl\src\core/lv_event.c ****     }
 395:..\..\..\arduinoLCD\test\Pain Drain\libraries\lvgl\src\core/lv_event.c ****     else {
 396:..\..\..\arduinoLCD\test\Pain Drain\libraries\lvgl\src\core/lv_event.c ****         LV_LOG_WARN("Not interpreted with this event code");
 397:..\..\..\arduinoLCD\test\Pain Drain\libraries\lvgl\src\core/lv_event.c ****         return NULL;
 398:..\..\..\arduinoLCD\test\Pain Drain\libraries\lvgl\src\core/lv_event.c ****     }
 399:..\..\..\arduinoLCD\test\Pain Drain\libraries\lvgl\src\core/lv_event.c **** }
 400:..\..\..\arduinoLCD\test\Pain Drain\libraries\lvgl\src\core/lv_event.c **** 
 401:..\..\..\arduinoLCD\test\Pain Drain\libraries\lvgl\src\core/lv_event.c **** void lv_event_set_cover_res(lv_event_t * e, lv_cover_res_t res)
 402:..\..\..\arduinoLCD\test\Pain Drain\libraries\lvgl\src\core/lv_event.c **** {
 403:..\..\..\arduinoLCD\test\Pain Drain\libraries\lvgl\src\core/lv_event.c ****     if(e->code == LV_EVENT_COVER_CHECK) {
 404:..\..\..\arduinoLCD\test\Pain Drain\libraries\lvgl\src\core/lv_event.c ****         lv_cover_check_info_t * p = lv_event_get_param(e);
 405:..\..\..\arduinoLCD\test\Pain Drain\libraries\lvgl\src\core/lv_event.c ****         if(res > p->res) p->res = res;  /*Save only "stronger" results*/
 406:..\..\..\arduinoLCD\test\Pain Drain\libraries\lvgl\src\core/lv_event.c ****     }
 407:..\..\..\arduinoLCD\test\Pain Drain\libraries\lvgl\src\core/lv_event.c ****     else {
 408:..\..\..\arduinoLCD\test\Pain Drain\libraries\lvgl\src\core/lv_event.c ****         LV_LOG_WARN("Not interpreted with this event code");
 409:..\..\..\arduinoLCD\test\Pain Drain\libraries\lvgl\src\core/lv_event.c ****     }
 410:..\..\..\arduinoLCD\test\Pain Drain\libraries\lvgl\src\core/lv_event.c **** }
 411:..\..\..\arduinoLCD\test\Pain Drain\libraries\lvgl\src\core/lv_event.c **** 
 412:..\..\..\arduinoLCD\test\Pain Drain\libraries\lvgl\src\core/lv_event.c **** /**********************
 413:..\..\..\arduinoLCD\test\Pain Drain\libraries\lvgl\src\core/lv_event.c ****  *   STATIC FUNCTIONS
 414:..\..\..\arduinoLCD\test\Pain Drain\libraries\lvgl\src\core/lv_event.c ****  **********************/
 415:..\..\..\arduinoLCD\test\Pain Drain\libraries\lvgl\src\core/lv_event.c **** 
 416:..\..\..\arduinoLCD\test\Pain Drain\libraries\lvgl\src\core/lv_event.c **** static lv_event_dsc_t * lv_obj_get_event_dsc(const lv_obj_t * obj, uint32_t id)
 417:..\..\..\arduinoLCD\test\Pain Drain\libraries\lvgl\src\core/lv_event.c **** {
  27              		.loc 1 417 0
  28              		.cfi_startproc
  29              		@ args = 0, pretend = 0, frame = 0
  30              		@ frame_needed = 0, uses_anonymous_args = 0
  31              		@ link register save eliminated.
  32              	.LVL0:
 418:..\..\..\arduinoLCD\test\Pain Drain\libraries\lvgl\src\core/lv_event.c ****     LV_ASSERT_OBJ(obj, MY_CLASS);
 419:..\..\..\arduinoLCD\test\Pain Drain\libraries\lvgl\src\core/lv_event.c **** 
 420:..\..\..\arduinoLCD\test\Pain Drain\libraries\lvgl\src\core/lv_event.c ****     if(!obj->spec_attr) return NULL;
  33              		.loc 1 420 0
  34 0000 8268     		ldr	r2, [r0, #8]
  35 0002 002A     		cmp	r2, #0
  36 0004 0AD0     		beq	.L3
ARM GAS  C:\Users\haske\AppData\Local\Temp\ccz6azzs.s 			page 9


 421:..\..\..\arduinoLCD\test\Pain Drain\libraries\lvgl\src\core/lv_event.c ****     if(id >= obj->spec_attr->event_dsc_cnt) return NULL;
  37              		.loc 1 421 0
  38 0006 937E     		ldrb	r3, [r2, #26]
  39 0008 9B06     		lsls	r3, r3, #26
  40 000a 9B0E     		lsrs	r3, r3, #26
  41 000c 8B42     		cmp	r3, r1
  42 000e 07D9     		bls	.L4
 422:..\..\..\arduinoLCD\test\Pain Drain\libraries\lvgl\src\core/lv_event.c **** 
 423:..\..\..\arduinoLCD\test\Pain Drain\libraries\lvgl\src\core/lv_event.c ****     return &obj->spec_attr->event_dsc[id];
  43              		.loc 1 423 0
  44 0010 D368     		ldr	r3, [r2, #12]
  45 0012 4A00     		lsls	r2, r1, #1
  46 0014 5118     		adds	r1, r2, r1
  47              	.LVL1:
  48 0016 8800     		lsls	r0, r1, #2
  49              	.LVL2:
  50 0018 1818     		adds	r0, r3, r0
  51 001a 02E0     		b	.L2
  52              	.LVL3:
  53              	.L3:
 420:..\..\..\arduinoLCD\test\Pain Drain\libraries\lvgl\src\core/lv_event.c ****     if(id >= obj->spec_attr->event_dsc_cnt) return NULL;
  54              		.loc 1 420 0
  55 001c 0020     		movs	r0, #0
  56              	.LVL4:
  57 001e 00E0     		b	.L2
  58              	.LVL5:
  59              	.L4:
 421:..\..\..\arduinoLCD\test\Pain Drain\libraries\lvgl\src\core/lv_event.c ****     if(id >= obj->spec_attr->event_dsc_cnt) return NULL;
  60              		.loc 1 421 0
  61 0020 0020     		movs	r0, #0
  62              	.LVL6:
  63              	.L2:
 424:..\..\..\arduinoLCD\test\Pain Drain\libraries\lvgl\src\core/lv_event.c **** }
  64              		.loc 1 424 0
  65              		@ sp needed
  66 0022 7047     		bx	lr
  67              		.cfi_endproc
  68              	.LFE186:
  69              		.size	lv_obj_get_event_dsc, .-lv_obj_get_event_dsc
  70              		.section	.text.event_is_bubbled,"ax",%progbits
  71              		.align	2
  72              		.code	16
  73              		.thumb_func
  74              		.type	event_is_bubbled, %function
  75              	event_is_bubbled:
  76              	.LFB188:
 425:..\..\..\arduinoLCD\test\Pain Drain\libraries\lvgl\src\core/lv_event.c **** 
 426:..\..\..\arduinoLCD\test\Pain Drain\libraries\lvgl\src\core/lv_event.c **** static lv_res_t event_send_core(lv_event_t * e)
 427:..\..\..\arduinoLCD\test\Pain Drain\libraries\lvgl\src\core/lv_event.c **** {
 428:..\..\..\arduinoLCD\test\Pain Drain\libraries\lvgl\src\core/lv_event.c ****     EVENT_TRACE("Sending event %d to %p with %p param", e->code, (void *)e->current_target, e->para
 429:..\..\..\arduinoLCD\test\Pain Drain\libraries\lvgl\src\core/lv_event.c **** 
 430:..\..\..\arduinoLCD\test\Pain Drain\libraries\lvgl\src\core/lv_event.c ****     /*Call the input device's feedback callback if set*/
 431:..\..\..\arduinoLCD\test\Pain Drain\libraries\lvgl\src\core/lv_event.c ****     lv_indev_t * indev_act = lv_indev_get_act();
 432:..\..\..\arduinoLCD\test\Pain Drain\libraries\lvgl\src\core/lv_event.c ****     if(indev_act) {
 433:..\..\..\arduinoLCD\test\Pain Drain\libraries\lvgl\src\core/lv_event.c ****         if(indev_act->driver->feedback_cb) indev_act->driver->feedback_cb(indev_act->driver, e->cod
 434:..\..\..\arduinoLCD\test\Pain Drain\libraries\lvgl\src\core/lv_event.c ****         if(e->stop_processing) return LV_RES_OK;
 435:..\..\..\arduinoLCD\test\Pain Drain\libraries\lvgl\src\core/lv_event.c ****         if(e->deleted) return LV_RES_INV;
ARM GAS  C:\Users\haske\AppData\Local\Temp\ccz6azzs.s 			page 10


 436:..\..\..\arduinoLCD\test\Pain Drain\libraries\lvgl\src\core/lv_event.c ****     }
 437:..\..\..\arduinoLCD\test\Pain Drain\libraries\lvgl\src\core/lv_event.c **** 
 438:..\..\..\arduinoLCD\test\Pain Drain\libraries\lvgl\src\core/lv_event.c ****     lv_res_t res = LV_RES_OK;
 439:..\..\..\arduinoLCD\test\Pain Drain\libraries\lvgl\src\core/lv_event.c ****     lv_event_dsc_t * event_dsc = lv_obj_get_event_dsc(e->current_target, 0);
 440:..\..\..\arduinoLCD\test\Pain Drain\libraries\lvgl\src\core/lv_event.c **** 
 441:..\..\..\arduinoLCD\test\Pain Drain\libraries\lvgl\src\core/lv_event.c ****     uint32_t i = 0;
 442:..\..\..\arduinoLCD\test\Pain Drain\libraries\lvgl\src\core/lv_event.c ****     while(event_dsc && res == LV_RES_OK) {
 443:..\..\..\arduinoLCD\test\Pain Drain\libraries\lvgl\src\core/lv_event.c ****         if(event_dsc->cb  && ((event_dsc->filter & LV_EVENT_PREPROCESS) == LV_EVENT_PREPROCESS)
 444:..\..\..\arduinoLCD\test\Pain Drain\libraries\lvgl\src\core/lv_event.c ****            && (event_dsc->filter == (LV_EVENT_ALL | LV_EVENT_PREPROCESS) ||
 445:..\..\..\arduinoLCD\test\Pain Drain\libraries\lvgl\src\core/lv_event.c ****                (event_dsc->filter & ~LV_EVENT_PREPROCESS) == e->code)) {
 446:..\..\..\arduinoLCD\test\Pain Drain\libraries\lvgl\src\core/lv_event.c ****             e->user_data = event_dsc->user_data;
 447:..\..\..\arduinoLCD\test\Pain Drain\libraries\lvgl\src\core/lv_event.c ****             event_dsc->cb(e);
 448:..\..\..\arduinoLCD\test\Pain Drain\libraries\lvgl\src\core/lv_event.c **** 
 449:..\..\..\arduinoLCD\test\Pain Drain\libraries\lvgl\src\core/lv_event.c ****             if(e->stop_processing) return LV_RES_OK;
 450:..\..\..\arduinoLCD\test\Pain Drain\libraries\lvgl\src\core/lv_event.c ****             /*Stop if the object is deleted*/
 451:..\..\..\arduinoLCD\test\Pain Drain\libraries\lvgl\src\core/lv_event.c ****             if(e->deleted) return LV_RES_INV;
 452:..\..\..\arduinoLCD\test\Pain Drain\libraries\lvgl\src\core/lv_event.c ****         }
 453:..\..\..\arduinoLCD\test\Pain Drain\libraries\lvgl\src\core/lv_event.c **** 
 454:..\..\..\arduinoLCD\test\Pain Drain\libraries\lvgl\src\core/lv_event.c ****         i++;
 455:..\..\..\arduinoLCD\test\Pain Drain\libraries\lvgl\src\core/lv_event.c ****         event_dsc = lv_obj_get_event_dsc(e->current_target, i);
 456:..\..\..\arduinoLCD\test\Pain Drain\libraries\lvgl\src\core/lv_event.c ****     }
 457:..\..\..\arduinoLCD\test\Pain Drain\libraries\lvgl\src\core/lv_event.c **** 
 458:..\..\..\arduinoLCD\test\Pain Drain\libraries\lvgl\src\core/lv_event.c ****     res = lv_obj_event_base(NULL, e);
 459:..\..\..\arduinoLCD\test\Pain Drain\libraries\lvgl\src\core/lv_event.c **** 
 460:..\..\..\arduinoLCD\test\Pain Drain\libraries\lvgl\src\core/lv_event.c ****     event_dsc = res == LV_RES_INV ? NULL : lv_obj_get_event_dsc(e->current_target, 0);
 461:..\..\..\arduinoLCD\test\Pain Drain\libraries\lvgl\src\core/lv_event.c **** 
 462:..\..\..\arduinoLCD\test\Pain Drain\libraries\lvgl\src\core/lv_event.c ****     i = 0;
 463:..\..\..\arduinoLCD\test\Pain Drain\libraries\lvgl\src\core/lv_event.c ****     while(event_dsc && res == LV_RES_OK) {
 464:..\..\..\arduinoLCD\test\Pain Drain\libraries\lvgl\src\core/lv_event.c ****         if(event_dsc->cb && ((event_dsc->filter & LV_EVENT_PREPROCESS) == 0)
 465:..\..\..\arduinoLCD\test\Pain Drain\libraries\lvgl\src\core/lv_event.c ****            && (event_dsc->filter == LV_EVENT_ALL || event_dsc->filter == e->code)) {
 466:..\..\..\arduinoLCD\test\Pain Drain\libraries\lvgl\src\core/lv_event.c ****             e->user_data = event_dsc->user_data;
 467:..\..\..\arduinoLCD\test\Pain Drain\libraries\lvgl\src\core/lv_event.c ****             event_dsc->cb(e);
 468:..\..\..\arduinoLCD\test\Pain Drain\libraries\lvgl\src\core/lv_event.c **** 
 469:..\..\..\arduinoLCD\test\Pain Drain\libraries\lvgl\src\core/lv_event.c ****             if(e->stop_processing) return LV_RES_OK;
 470:..\..\..\arduinoLCD\test\Pain Drain\libraries\lvgl\src\core/lv_event.c ****             /*Stop if the object is deleted*/
 471:..\..\..\arduinoLCD\test\Pain Drain\libraries\lvgl\src\core/lv_event.c ****             if(e->deleted) return LV_RES_INV;
 472:..\..\..\arduinoLCD\test\Pain Drain\libraries\lvgl\src\core/lv_event.c ****         }
 473:..\..\..\arduinoLCD\test\Pain Drain\libraries\lvgl\src\core/lv_event.c **** 
 474:..\..\..\arduinoLCD\test\Pain Drain\libraries\lvgl\src\core/lv_event.c ****         i++;
 475:..\..\..\arduinoLCD\test\Pain Drain\libraries\lvgl\src\core/lv_event.c ****         event_dsc = lv_obj_get_event_dsc(e->current_target, i);
 476:..\..\..\arduinoLCD\test\Pain Drain\libraries\lvgl\src\core/lv_event.c ****     }
 477:..\..\..\arduinoLCD\test\Pain Drain\libraries\lvgl\src\core/lv_event.c **** 
 478:..\..\..\arduinoLCD\test\Pain Drain\libraries\lvgl\src\core/lv_event.c ****     if(res == LV_RES_OK && e->current_target->parent && event_is_bubbled(e)) {
 479:..\..\..\arduinoLCD\test\Pain Drain\libraries\lvgl\src\core/lv_event.c ****         e->current_target = e->current_target->parent;
 480:..\..\..\arduinoLCD\test\Pain Drain\libraries\lvgl\src\core/lv_event.c ****         res = event_send_core(e);
 481:..\..\..\arduinoLCD\test\Pain Drain\libraries\lvgl\src\core/lv_event.c ****         if(res != LV_RES_OK) return LV_RES_INV;
 482:..\..\..\arduinoLCD\test\Pain Drain\libraries\lvgl\src\core/lv_event.c ****     }
 483:..\..\..\arduinoLCD\test\Pain Drain\libraries\lvgl\src\core/lv_event.c **** 
 484:..\..\..\arduinoLCD\test\Pain Drain\libraries\lvgl\src\core/lv_event.c ****     return res;
 485:..\..\..\arduinoLCD\test\Pain Drain\libraries\lvgl\src\core/lv_event.c **** }
 486:..\..\..\arduinoLCD\test\Pain Drain\libraries\lvgl\src\core/lv_event.c **** 
 487:..\..\..\arduinoLCD\test\Pain Drain\libraries\lvgl\src\core/lv_event.c **** static bool event_is_bubbled(lv_event_t * e)
 488:..\..\..\arduinoLCD\test\Pain Drain\libraries\lvgl\src\core/lv_event.c **** {
  77              		.loc 1 488 0
  78              		.cfi_startproc
  79              		@ args = 0, pretend = 0, frame = 0
  80              		@ frame_needed = 0, uses_anonymous_args = 0
ARM GAS  C:\Users\haske\AppData\Local\Temp\ccz6azzs.s 			page 11


  81              	.LVL7:
  82 0000 10B5     		push	{r4, lr}
  83              		.cfi_def_cfa_offset 8
  84              		.cfi_offset 4, -8
  85              		.cfi_offset 14, -4
  86 0002 0400     		movs	r4, r0
 489:..\..\..\arduinoLCD\test\Pain Drain\libraries\lvgl\src\core/lv_event.c ****     if(e->stop_bubbling) return false;
  87              		.loc 1 489 0
  88 0004 037E     		ldrb	r3, [r0, #24]
  89 0006 5B07     		lsls	r3, r3, #29
  90 0008 16D4     		bmi	.L10
 490:..\..\..\arduinoLCD\test\Pain Drain\libraries\lvgl\src\core/lv_event.c **** 
 491:..\..\..\arduinoLCD\test\Pain Drain\libraries\lvgl\src\core/lv_event.c ****     /*Event codes that always bubble*/
 492:..\..\..\arduinoLCD\test\Pain Drain\libraries\lvgl\src\core/lv_event.c ****     switch(e->code) {
  91              		.loc 1 492 0
  92 000a 037A     		ldrb	r3, [r0, #8]
  93 000c 233B     		subs	r3, r3, #35
  94 000e DBB2     		uxtb	r3, r3
  95 0010 012B     		cmp	r3, #1
  96 0012 13D9     		bls	.L12
 493:..\..\..\arduinoLCD\test\Pain Drain\libraries\lvgl\src\core/lv_event.c ****         case LV_EVENT_CHILD_CREATED:
 494:..\..\..\arduinoLCD\test\Pain Drain\libraries\lvgl\src\core/lv_event.c ****         case LV_EVENT_CHILD_DELETED:
 495:..\..\..\arduinoLCD\test\Pain Drain\libraries\lvgl\src\core/lv_event.c ****             return true;
 496:..\..\..\arduinoLCD\test\Pain Drain\libraries\lvgl\src\core/lv_event.c ****         default:
 497:..\..\..\arduinoLCD\test\Pain Drain\libraries\lvgl\src\core/lv_event.c ****             break;
 498:..\..\..\arduinoLCD\test\Pain Drain\libraries\lvgl\src\core/lv_event.c ****     }
 499:..\..\..\arduinoLCD\test\Pain Drain\libraries\lvgl\src\core/lv_event.c **** 
 500:..\..\..\arduinoLCD\test\Pain Drain\libraries\lvgl\src\core/lv_event.c ****     /*Check other codes only if bubbling is enabled*/
 501:..\..\..\arduinoLCD\test\Pain Drain\libraries\lvgl\src\core/lv_event.c ****     if(lv_obj_has_flag(e->current_target, LV_OBJ_FLAG_EVENT_BUBBLE) == false) return false;
  97              		.loc 1 501 0
  98 0014 8021     		movs	r1, #128
  99 0016 C901     		lsls	r1, r1, #7
 100 0018 4068     		ldr	r0, [r0, #4]
 101              	.LVL8:
 102 001a FFF7FEFF 		bl	lv_obj_has_flag
 103              	.LVL9:
 104 001e 0028     		cmp	r0, #0
 105 0020 0DD0     		beq	.L6
 502:..\..\..\arduinoLCD\test\Pain Drain\libraries\lvgl\src\core/lv_event.c **** 
 503:..\..\..\arduinoLCD\test\Pain Drain\libraries\lvgl\src\core/lv_event.c ****     switch(e->code) {
 106              		.loc 1 503 0
 107 0022 237A     		ldrb	r3, [r4, #8]
 108 0024 113B     		subs	r3, r3, #17
 109 0026 DAB2     		uxtb	r2, r3
 110 0028 1B2A     		cmp	r2, #27
 111 002a 08D8     		bhi	.L6
 112 002c 9300     		lsls	r3, r2, #2
 113 002e 044A     		ldr	r2, .L13
 114 0030 D358     		ldr	r3, [r2, r3]
 115 0032 9F46     		mov	pc, r3
 116              		.section	.rodata
 117              		.align	2
 118              	.L9:
 119 0000 34000000 		.word	.L8
 120 0004 34000000 		.word	.L8
 121 0008 34000000 		.word	.L8
 122 000c 34000000 		.word	.L8
ARM GAS  C:\Users\haske\AppData\Local\Temp\ccz6azzs.s 			page 12


 123 0010 34000000 		.word	.L8
 124 0014 34000000 		.word	.L8
 125 0018 34000000 		.word	.L8
 126 001c 34000000 		.word	.L8
 127 0020 34000000 		.word	.L8
 128 0024 34000000 		.word	.L8
 129 0028 34000000 		.word	.L8
 130 002c 3E000000 		.word	.L6
 131 0030 3E000000 		.word	.L6
 132 0034 34000000 		.word	.L8
 133 0038 3E000000 		.word	.L6
 134 003c 3E000000 		.word	.L6
 135 0040 34000000 		.word	.L8
 136 0044 34000000 		.word	.L8
 137 0048 34000000 		.word	.L8
 138 004c 34000000 		.word	.L8
 139 0050 3E000000 		.word	.L6
 140 0054 3E000000 		.word	.L6
 141 0058 3E000000 		.word	.L6
 142 005c 3E000000 		.word	.L6
 143 0060 34000000 		.word	.L8
 144 0064 34000000 		.word	.L8
 145 0068 3E000000 		.word	.L6
 146 006c 34000000 		.word	.L8
 147              		.section	.text.event_is_bubbled
 148              	.L8:
 504:..\..\..\arduinoLCD\test\Pain Drain\libraries\lvgl\src\core/lv_event.c ****         case LV_EVENT_HIT_TEST:
 505:..\..\..\arduinoLCD\test\Pain Drain\libraries\lvgl\src\core/lv_event.c ****         case LV_EVENT_COVER_CHECK:
 506:..\..\..\arduinoLCD\test\Pain Drain\libraries\lvgl\src\core/lv_event.c ****         case LV_EVENT_REFR_EXT_DRAW_SIZE:
 507:..\..\..\arduinoLCD\test\Pain Drain\libraries\lvgl\src\core/lv_event.c ****         case LV_EVENT_DRAW_MAIN_BEGIN:
 508:..\..\..\arduinoLCD\test\Pain Drain\libraries\lvgl\src\core/lv_event.c ****         case LV_EVENT_DRAW_MAIN:
 509:..\..\..\arduinoLCD\test\Pain Drain\libraries\lvgl\src\core/lv_event.c ****         case LV_EVENT_DRAW_MAIN_END:
 510:..\..\..\arduinoLCD\test\Pain Drain\libraries\lvgl\src\core/lv_event.c ****         case LV_EVENT_DRAW_POST_BEGIN:
 511:..\..\..\arduinoLCD\test\Pain Drain\libraries\lvgl\src\core/lv_event.c ****         case LV_EVENT_DRAW_POST:
 512:..\..\..\arduinoLCD\test\Pain Drain\libraries\lvgl\src\core/lv_event.c ****         case LV_EVENT_DRAW_POST_END:
 513:..\..\..\arduinoLCD\test\Pain Drain\libraries\lvgl\src\core/lv_event.c ****         case LV_EVENT_DRAW_PART_BEGIN:
 514:..\..\..\arduinoLCD\test\Pain Drain\libraries\lvgl\src\core/lv_event.c ****         case LV_EVENT_DRAW_PART_END:
 515:..\..\..\arduinoLCD\test\Pain Drain\libraries\lvgl\src\core/lv_event.c ****         case LV_EVENT_REFRESH:
 516:..\..\..\arduinoLCD\test\Pain Drain\libraries\lvgl\src\core/lv_event.c ****         case LV_EVENT_DELETE:
 517:..\..\..\arduinoLCD\test\Pain Drain\libraries\lvgl\src\core/lv_event.c ****         case LV_EVENT_CHILD_CREATED:
 518:..\..\..\arduinoLCD\test\Pain Drain\libraries\lvgl\src\core/lv_event.c ****         case LV_EVENT_CHILD_DELETED:
 519:..\..\..\arduinoLCD\test\Pain Drain\libraries\lvgl\src\core/lv_event.c ****         case LV_EVENT_CHILD_CHANGED:
 520:..\..\..\arduinoLCD\test\Pain Drain\libraries\lvgl\src\core/lv_event.c ****         case LV_EVENT_SIZE_CHANGED:
 521:..\..\..\arduinoLCD\test\Pain Drain\libraries\lvgl\src\core/lv_event.c ****         case LV_EVENT_STYLE_CHANGED:
 522:..\..\..\arduinoLCD\test\Pain Drain\libraries\lvgl\src\core/lv_event.c ****         case LV_EVENT_GET_SELF_SIZE:
 523:..\..\..\arduinoLCD\test\Pain Drain\libraries\lvgl\src\core/lv_event.c ****             return false;
 149              		.loc 1 523 0
 150 0034 0020     		movs	r0, #0
 151 0036 02E0     		b	.L6
 152              	.LVL10:
 153              	.L10:
 489:..\..\..\arduinoLCD\test\Pain Drain\libraries\lvgl\src\core/lv_event.c **** 
 154              		.loc 1 489 0
 155 0038 0020     		movs	r0, #0
 156              	.LVL11:
 157 003a 00E0     		b	.L6
 158              	.LVL12:
ARM GAS  C:\Users\haske\AppData\Local\Temp\ccz6azzs.s 			page 13


 159              	.L12:
 495:..\..\..\arduinoLCD\test\Pain Drain\libraries\lvgl\src\core/lv_event.c ****         default:
 160              		.loc 1 495 0
 161 003c 0120     		movs	r0, #1
 162              	.LVL13:
 163              	.L6:
 524:..\..\..\arduinoLCD\test\Pain Drain\libraries\lvgl\src\core/lv_event.c ****         default:
 525:..\..\..\arduinoLCD\test\Pain Drain\libraries\lvgl\src\core/lv_event.c ****             return true;
 526:..\..\..\arduinoLCD\test\Pain Drain\libraries\lvgl\src\core/lv_event.c ****     }
 527:..\..\..\arduinoLCD\test\Pain Drain\libraries\lvgl\src\core/lv_event.c **** }
 164              		.loc 1 527 0
 165              		@ sp needed
 166              	.LVL14:
 167 003e 10BD     		pop	{r4, pc}
 168              	.L14:
 169              		.align	2
 170              	.L13:
 171 0040 00000000 		.word	.L9
 172              		.cfi_endproc
 173              	.LFE188:
 174              		.size	event_is_bubbled, .-event_is_bubbled
 175              		.section	.text.lv_obj_event_base,"ax",%progbits
 176              		.align	2
 177              		.global	lv_obj_event_base
 178              		.code	16
 179              		.thumb_func
 180              		.type	lv_obj_event_base, %function
 181              	lv_obj_event_base:
 182              	.LFB160:
  85:..\..\..\arduinoLCD\test\Pain Drain\libraries\lvgl\src\core/lv_event.c ****     const lv_obj_class_t * base;
 183              		.loc 1 85 0
 184              		.cfi_startproc
 185              		@ args = 0, pretend = 0, frame = 0
 186              		@ frame_needed = 0, uses_anonymous_args = 0
 187              	.LVL15:
 188 0000 10B5     		push	{r4, lr}
 189              		.cfi_def_cfa_offset 8
 190              		.cfi_offset 4, -8
 191              		.cfi_offset 14, -4
 192 0002 0C00     		movs	r4, r1
  87:..\..\..\arduinoLCD\test\Pain Drain\libraries\lvgl\src\core/lv_event.c ****     else base = class_p->base_class;
 193              		.loc 1 87 0
 194 0004 0028     		cmp	r0, #0
 195 0006 02D1     		bne	.L16
  87:..\..\..\arduinoLCD\test\Pain Drain\libraries\lvgl\src\core/lv_event.c ****     else base = class_p->base_class;
 196              		.loc 1 87 0 is_stmt 0 discriminator 1
 197 0008 4B68     		ldr	r3, [r1, #4]
 198 000a 1868     		ldr	r0, [r3]
 199              	.LVL16:
 200 000c 02E0     		b	.L17
 201              	.LVL17:
 202              	.L16:
  88:..\..\..\arduinoLCD\test\Pain Drain\libraries\lvgl\src\core/lv_event.c **** 
 203              		.loc 1 88 0 is_stmt 1
 204 000e 0068     		ldr	r0, [r0]
 205              	.LVL18:
 206 0010 00E0     		b	.L17
ARM GAS  C:\Users\haske\AppData\Local\Temp\ccz6azzs.s 			page 14


 207              	.L20:
  91:..\..\..\arduinoLCD\test\Pain Drain\libraries\lvgl\src\core/lv_event.c **** 
 208              		.loc 1 91 0 discriminator 3
 209 0012 0068     		ldr	r0, [r0]
 210              	.LVL19:
 211              	.L17:
  91:..\..\..\arduinoLCD\test\Pain Drain\libraries\lvgl\src\core/lv_event.c **** 
 212              		.loc 1 91 0 is_stmt 0 discriminator 1
 213 0014 0028     		cmp	r0, #0
 214 0016 02D0     		beq	.L19
  91:..\..\..\arduinoLCD\test\Pain Drain\libraries\lvgl\src\core/lv_event.c **** 
 215              		.loc 1 91 0 discriminator 2
 216 0018 0369     		ldr	r3, [r0, #16]
 217 001a 002B     		cmp	r3, #0
 218 001c F9D0     		beq	.L20
 219              	.L19:
  93:..\..\..\arduinoLCD\test\Pain Drain\libraries\lvgl\src\core/lv_event.c ****     if(base->event_cb == NULL) return LV_RES_OK;
 220              		.loc 1 93 0 is_stmt 1
 221 001e 0028     		cmp	r0, #0
 222 0020 0CD0     		beq	.L22
  94:..\..\..\arduinoLCD\test\Pain Drain\libraries\lvgl\src\core/lv_event.c **** 
 223              		.loc 1 94 0
 224 0022 0369     		ldr	r3, [r0, #16]
 225 0024 002B     		cmp	r3, #0
 226 0026 0BD0     		beq	.L23
  97:..\..\..\arduinoLCD\test\Pain Drain\libraries\lvgl\src\core/lv_event.c ****     base->event_cb(base, e);
 227              		.loc 1 97 0
 228 0028 0023     		movs	r3, #0
 229 002a E360     		str	r3, [r4, #12]
  98:..\..\..\arduinoLCD\test\Pain Drain\libraries\lvgl\src\core/lv_event.c **** 
 230              		.loc 1 98 0
 231 002c 0369     		ldr	r3, [r0, #16]
 232 002e 2100     		movs	r1, r4
 233              	.LVL20:
 234 0030 9847     		blx	r3
 235              	.LVL21:
 102:..\..\..\arduinoLCD\test\Pain Drain\libraries\lvgl\src\core/lv_event.c **** 
 236              		.loc 1 102 0
 237 0032 237E     		ldrb	r3, [r4, #24]
 238 0034 DB07     		lsls	r3, r3, #31
 239 0036 05D4     		bmi	.L24
 100:..\..\..\arduinoLCD\test\Pain Drain\libraries\lvgl\src\core/lv_event.c ****     /*Stop if the object is deleted*/
 240              		.loc 1 100 0
 241 0038 0120     		movs	r0, #1
 242 003a 04E0     		b	.L21
 243              	.LVL22:
 244              	.L22:
  93:..\..\..\arduinoLCD\test\Pain Drain\libraries\lvgl\src\core/lv_event.c ****     if(base->event_cb == NULL) return LV_RES_OK;
 245              		.loc 1 93 0
 246 003c 0120     		movs	r0, #1
 247              	.LVL23:
 248 003e 02E0     		b	.L21
 249              	.LVL24:
 250              	.L23:
  94:..\..\..\arduinoLCD\test\Pain Drain\libraries\lvgl\src\core/lv_event.c **** 
 251              		.loc 1 94 0
 252 0040 0120     		movs	r0, #1
ARM GAS  C:\Users\haske\AppData\Local\Temp\ccz6azzs.s 			page 15


 253              	.LVL25:
 254 0042 00E0     		b	.L21
 255              	.LVL26:
 256              	.L24:
 102:..\..\..\arduinoLCD\test\Pain Drain\libraries\lvgl\src\core/lv_event.c **** 
 257              		.loc 1 102 0
 258 0044 0020     		movs	r0, #0
 259              	.LVL27:
 260              	.L21:
 105:..\..\..\arduinoLCD\test\Pain Drain\libraries\lvgl\src\core/lv_event.c **** 
 261              		.loc 1 105 0
 262              		@ sp needed
 263              	.LVL28:
 264 0046 10BD     		pop	{r4, pc}
 265              		.cfi_endproc
 266              	.LFE160:
 267              		.size	lv_obj_event_base, .-lv_obj_event_base
 268              		.section	.text.event_send_core,"ax",%progbits
 269              		.align	2
 270              		.code	16
 271              		.thumb_func
 272              		.type	event_send_core, %function
 273              	event_send_core:
 274              	.LFB187:
 427:..\..\..\arduinoLCD\test\Pain Drain\libraries\lvgl\src\core/lv_event.c ****     EVENT_TRACE("Sending event %d to %p with %p param", e->code, (void *)e->current_target, e->para
 275              		.loc 1 427 0
 276              		.cfi_startproc
 277              		@ args = 0, pretend = 0, frame = 8
 278              		@ frame_needed = 0, uses_anonymous_args = 0
 279              	.LVL29:
 280 0000 F0B5     		push	{r4, r5, r6, r7, lr}
 281              		.cfi_def_cfa_offset 20
 282              		.cfi_offset 4, -20
 283              		.cfi_offset 5, -16
 284              		.cfi_offset 6, -12
 285              		.cfi_offset 7, -8
 286              		.cfi_offset 14, -4
 287 0002 83B0     		sub	sp, sp, #12
 288              		.cfi_def_cfa_offset 32
 289 0004 0600     		movs	r6, r0
 431:..\..\..\arduinoLCD\test\Pain Drain\libraries\lvgl\src\core/lv_event.c ****     if(indev_act) {
 290              		.loc 1 431 0
 291 0006 FFF7FEFF 		bl	lv_indev_get_act
 292              	.LVL30:
 432:..\..\..\arduinoLCD\test\Pain Drain\libraries\lvgl\src\core/lv_event.c ****         if(indev_act->driver->feedback_cb) indev_act->driver->feedback_cb(indev_act->driver, e->cod
 293              		.loc 1 432 0
 294 000a 0028     		cmp	r0, #0
 295 000c 0BD0     		beq	.L26
 433:..\..\..\arduinoLCD\test\Pain Drain\libraries\lvgl\src\core/lv_event.c ****         if(e->stop_processing) return LV_RES_OK;
 296              		.loc 1 433 0
 297 000e 0068     		ldr	r0, [r0]
 298              	.LVL31:
 299 0010 8368     		ldr	r3, [r0, #8]
 300 0012 002B     		cmp	r3, #0
 301 0014 01D0     		beq	.L27
 433:..\..\..\arduinoLCD\test\Pain Drain\libraries\lvgl\src\core/lv_event.c ****         if(e->stop_processing) return LV_RES_OK;
 302              		.loc 1 433 0 is_stmt 0 discriminator 1
ARM GAS  C:\Users\haske\AppData\Local\Temp\ccz6azzs.s 			page 16


 303 0016 317A     		ldrb	r1, [r6, #8]
 304 0018 9847     		blx	r3
 305              	.LVL32:
 306              	.L27:
 434:..\..\..\arduinoLCD\test\Pain Drain\libraries\lvgl\src\core/lv_event.c ****         if(e->deleted) return LV_RES_INV;
 307              		.loc 1 434 0 is_stmt 1
 308 001a 337E     		ldrb	r3, [r6, #24]
 309 001c 0220     		movs	r0, #2
 310 001e 1840     		ands	r0, r3
 311 0020 6DD1     		bne	.L39
 435:..\..\..\arduinoLCD\test\Pain Drain\libraries\lvgl\src\core/lv_event.c ****     }
 312              		.loc 1 435 0
 313 0022 DB07     		lsls	r3, r3, #31
 314 0024 76D4     		bmi	.L28
 315              	.L26:
 316              	.LVL33:
 439:..\..\..\arduinoLCD\test\Pain Drain\libraries\lvgl\src\core/lv_event.c **** 
 317              		.loc 1 439 0
 318 0026 0021     		movs	r1, #0
 319 0028 7068     		ldr	r0, [r6, #4]
 320 002a FFF7FEFF 		bl	lv_obj_get_event_dsc
 321              	.LVL34:
 322 002e 0400     		movs	r4, r0
 323              	.LVL35:
 441:..\..\..\arduinoLCD\test\Pain Drain\libraries\lvgl\src\core/lv_event.c ****     while(event_dsc && res == LV_RES_OK) {
 324              		.loc 1 441 0
 325 0030 0025     		movs	r5, #0
 442:..\..\..\arduinoLCD\test\Pain Drain\libraries\lvgl\src\core/lv_event.c ****         if(event_dsc->cb  && ((event_dsc->filter & LV_EVENT_PREPROCESS) == LV_EVENT_PREPROCESS)
 326              		.loc 1 442 0
 327 0032 1EE0     		b	.L29
 328              	.LVL36:
 329              	.L32:
 443:..\..\..\arduinoLCD\test\Pain Drain\libraries\lvgl\src\core/lv_event.c ****            && (event_dsc->filter == (LV_EVENT_ALL | LV_EVENT_PREPROCESS) ||
 330              		.loc 1 443 0
 331 0034 2368     		ldr	r3, [r4]
 332 0036 002B     		cmp	r3, #0
 333 0038 15D0     		beq	.L30
 443:..\..\..\arduinoLCD\test\Pain Drain\libraries\lvgl\src\core/lv_event.c ****            && (event_dsc->filter == (LV_EVENT_ALL | LV_EVENT_PREPROCESS) ||
 334              		.loc 1 443 0 is_stmt 0 discriminator 1
 335 003a 237A     		ldrb	r3, [r4, #8]
 336 003c 5AB2     		sxtb	r2, r3
 337 003e 002A     		cmp	r2, #0
 338 0040 11DA     		bge	.L30
 444:..\..\..\arduinoLCD\test\Pain Drain\libraries\lvgl\src\core/lv_event.c ****                (event_dsc->filter & ~LV_EVENT_PREPROCESS) == e->code)) {
 339              		.loc 1 444 0 is_stmt 1
 340 0042 802B     		cmp	r3, #128
 341 0044 04D0     		beq	.L31
 445:..\..\..\arduinoLCD\test\Pain Drain\libraries\lvgl\src\core/lv_event.c ****             e->user_data = event_dsc->user_data;
 342              		.loc 1 445 0 discriminator 1
 343 0046 8022     		movs	r2, #128
 344 0048 9343     		bics	r3, r2
 345 004a 327A     		ldrb	r2, [r6, #8]
 444:..\..\..\arduinoLCD\test\Pain Drain\libraries\lvgl\src\core/lv_event.c ****                (event_dsc->filter & ~LV_EVENT_PREPROCESS) == e->code)) {
 346              		.loc 1 444 0 discriminator 1
 347 004c 9342     		cmp	r3, r2
 348 004e 0AD1     		bne	.L30
 349              	.L31:
ARM GAS  C:\Users\haske\AppData\Local\Temp\ccz6azzs.s 			page 17


 446:..\..\..\arduinoLCD\test\Pain Drain\libraries\lvgl\src\core/lv_event.c ****             event_dsc->cb(e);
 350              		.loc 1 446 0
 351 0050 6368     		ldr	r3, [r4, #4]
 352 0052 F360     		str	r3, [r6, #12]
 447:..\..\..\arduinoLCD\test\Pain Drain\libraries\lvgl\src\core/lv_event.c **** 
 353              		.loc 1 447 0
 354 0054 2368     		ldr	r3, [r4]
 355 0056 3000     		movs	r0, r6
 356              	.LVL37:
 357 0058 9847     		blx	r3
 358              	.LVL38:
 449:..\..\..\arduinoLCD\test\Pain Drain\libraries\lvgl\src\core/lv_event.c ****             /*Stop if the object is deleted*/
 359              		.loc 1 449 0
 360 005a 337E     		ldrb	r3, [r6, #24]
 361 005c 0220     		movs	r0, #2
 362 005e 1840     		ands	r0, r3
 363 0060 4FD1     		bne	.L40
 451:..\..\..\arduinoLCD\test\Pain Drain\libraries\lvgl\src\core/lv_event.c ****         }
 364              		.loc 1 451 0
 365 0062 DB07     		lsls	r3, r3, #31
 366 0064 56D4     		bmi	.L28
 367              	.L30:
 454:..\..\..\arduinoLCD\test\Pain Drain\libraries\lvgl\src\core/lv_event.c ****         event_dsc = lv_obj_get_event_dsc(e->current_target, i);
 368              		.loc 1 454 0
 369 0066 0135     		adds	r5, r5, #1
 370              	.LVL39:
 455:..\..\..\arduinoLCD\test\Pain Drain\libraries\lvgl\src\core/lv_event.c ****     }
 371              		.loc 1 455 0
 372 0068 2900     		movs	r1, r5
 373 006a 7068     		ldr	r0, [r6, #4]
 374 006c FFF7FEFF 		bl	lv_obj_get_event_dsc
 375              	.LVL40:
 376 0070 0400     		movs	r4, r0
 377              	.LVL41:
 378              	.L29:
 442:..\..\..\arduinoLCD\test\Pain Drain\libraries\lvgl\src\core/lv_event.c ****         if(event_dsc->cb  && ((event_dsc->filter & LV_EVENT_PREPROCESS) == LV_EVENT_PREPROCESS)
 379              		.loc 1 442 0
 380 0072 002C     		cmp	r4, #0
 381 0074 DED1     		bne	.L32
 458:..\..\..\arduinoLCD\test\Pain Drain\libraries\lvgl\src\core/lv_event.c **** 
 382              		.loc 1 458 0
 383 0076 3100     		movs	r1, r6
 384 0078 0020     		movs	r0, #0
 385              	.LVL42:
 386 007a FFF7FEFF 		bl	lv_obj_event_base
 387              	.LVL43:
 388 007e 0190     		str	r0, [sp, #4]
 389 0080 071E     		subs	r7, r0, #0
 390              	.LVL44:
 460:..\..\..\arduinoLCD\test\Pain Drain\libraries\lvgl\src\core/lv_event.c **** 
 391              		.loc 1 460 0
 392 0082 04D0     		beq	.L33
 460:..\..\..\arduinoLCD\test\Pain Drain\libraries\lvgl\src\core/lv_event.c **** 
 393              		.loc 1 460 0 is_stmt 0 discriminator 1
 394 0084 0021     		movs	r1, #0
 395 0086 7068     		ldr	r0, [r6, #4]
 396 0088 FFF7FEFF 		bl	lv_obj_get_event_dsc
ARM GAS  C:\Users\haske\AppData\Local\Temp\ccz6azzs.s 			page 18


 397              	.LVL45:
 398 008c 0400     		movs	r4, r0
 399              	.LVL46:
 400              	.L33:
 441:..\..\..\arduinoLCD\test\Pain Drain\libraries\lvgl\src\core/lv_event.c ****     while(event_dsc && res == LV_RES_OK) {
 401              		.loc 1 441 0 is_stmt 1
 402 008e 0025     		movs	r5, #0
 403              	.LVL47:
 404 0090 1CE0     		b	.L34
 405              	.LVL48:
 406              	.L38:
 464:..\..\..\arduinoLCD\test\Pain Drain\libraries\lvgl\src\core/lv_event.c ****            && (event_dsc->filter == LV_EVENT_ALL || event_dsc->filter == e->code)) {
 407              		.loc 1 464 0
 408 0092 2368     		ldr	r3, [r4]
 409 0094 002B     		cmp	r3, #0
 410 0096 13D0     		beq	.L35
 464:..\..\..\arduinoLCD\test\Pain Drain\libraries\lvgl\src\core/lv_event.c ****            && (event_dsc->filter == LV_EVENT_ALL || event_dsc->filter == e->code)) {
 411              		.loc 1 464 0 is_stmt 0 discriminator 1
 412 0098 237A     		ldrb	r3, [r4, #8]
 413 009a 5AB2     		sxtb	r2, r3
 414 009c 002A     		cmp	r2, #0
 415 009e 0FDB     		blt	.L35
 465:..\..\..\arduinoLCD\test\Pain Drain\libraries\lvgl\src\core/lv_event.c ****             e->user_data = event_dsc->user_data;
 416              		.loc 1 465 0 is_stmt 1
 417 00a0 002B     		cmp	r3, #0
 418 00a2 02D0     		beq	.L36
 465:..\..\..\arduinoLCD\test\Pain Drain\libraries\lvgl\src\core/lv_event.c ****             e->user_data = event_dsc->user_data;
 419              		.loc 1 465 0 is_stmt 0 discriminator 1
 420 00a4 327A     		ldrb	r2, [r6, #8]
 421 00a6 9342     		cmp	r3, r2
 422 00a8 0AD1     		bne	.L35
 423              	.L36:
 466:..\..\..\arduinoLCD\test\Pain Drain\libraries\lvgl\src\core/lv_event.c ****             event_dsc->cb(e);
 424              		.loc 1 466 0 is_stmt 1
 425 00aa 6368     		ldr	r3, [r4, #4]
 426 00ac F360     		str	r3, [r6, #12]
 467:..\..\..\arduinoLCD\test\Pain Drain\libraries\lvgl\src\core/lv_event.c **** 
 427              		.loc 1 467 0
 428 00ae 2368     		ldr	r3, [r4]
 429 00b0 3000     		movs	r0, r6
 430 00b2 9847     		blx	r3
 431              	.LVL49:
 469:..\..\..\arduinoLCD\test\Pain Drain\libraries\lvgl\src\core/lv_event.c ****             /*Stop if the object is deleted*/
 432              		.loc 1 469 0
 433 00b4 337E     		ldrb	r3, [r6, #24]
 434 00b6 0220     		movs	r0, #2
 435 00b8 1840     		ands	r0, r3
 436 00ba 24D1     		bne	.L41
 471:..\..\..\arduinoLCD\test\Pain Drain\libraries\lvgl\src\core/lv_event.c ****         }
 437              		.loc 1 471 0
 438 00bc DB07     		lsls	r3, r3, #31
 439 00be 29D4     		bmi	.L28
 440              	.L35:
 474:..\..\..\arduinoLCD\test\Pain Drain\libraries\lvgl\src\core/lv_event.c ****         event_dsc = lv_obj_get_event_dsc(e->current_target, i);
 441              		.loc 1 474 0
 442 00c0 0135     		adds	r5, r5, #1
 443              	.LVL50:
ARM GAS  C:\Users\haske\AppData\Local\Temp\ccz6azzs.s 			page 19


 475:..\..\..\arduinoLCD\test\Pain Drain\libraries\lvgl\src\core/lv_event.c ****     }
 444              		.loc 1 475 0
 445 00c2 2900     		movs	r1, r5
 446 00c4 7068     		ldr	r0, [r6, #4]
 447 00c6 FFF7FEFF 		bl	lv_obj_get_event_dsc
 448              	.LVL51:
 449 00ca 0400     		movs	r4, r0
 450              	.LVL52:
 451              	.L34:
 463:..\..\..\arduinoLCD\test\Pain Drain\libraries\lvgl\src\core/lv_event.c ****         if(event_dsc->cb && ((event_dsc->filter & LV_EVENT_PREPROCESS) == 0)
 452              		.loc 1 463 0
 453 00cc 002C     		cmp	r4, #0
 454 00ce 01D0     		beq	.L37
 463:..\..\..\arduinoLCD\test\Pain Drain\libraries\lvgl\src\core/lv_event.c ****         if(event_dsc->cb && ((event_dsc->filter & LV_EVENT_PREPROCESS) == 0)
 455              		.loc 1 463 0 is_stmt 0 discriminator 1
 456 00d0 012F     		cmp	r7, #1
 457 00d2 DED0     		beq	.L38
 458              	.L37:
 478:..\..\..\arduinoLCD\test\Pain Drain\libraries\lvgl\src\core/lv_event.c ****         e->current_target = e->current_target->parent;
 459              		.loc 1 478 0 is_stmt 1
 460 00d4 012F     		cmp	r7, #1
 461 00d6 18D1     		bne	.L42
 478:..\..\..\arduinoLCD\test\Pain Drain\libraries\lvgl\src\core/lv_event.c ****         e->current_target = e->current_target->parent;
 462              		.loc 1 478 0 is_stmt 0 discriminator 1
 463 00d8 7368     		ldr	r3, [r6, #4]
 464 00da 5B68     		ldr	r3, [r3, #4]
 465 00dc 002B     		cmp	r3, #0
 466 00de 16D0     		beq	.L43
 478:..\..\..\arduinoLCD\test\Pain Drain\libraries\lvgl\src\core/lv_event.c ****         e->current_target = e->current_target->parent;
 467              		.loc 1 478 0 discriminator 2
 468 00e0 3000     		movs	r0, r6
 469 00e2 FFF7FEFF 		bl	event_is_bubbled
 470              	.LVL53:
 471 00e6 0028     		cmp	r0, #0
 472 00e8 13D0     		beq	.L44
 479:..\..\..\arduinoLCD\test\Pain Drain\libraries\lvgl\src\core/lv_event.c ****         res = event_send_core(e);
 473              		.loc 1 479 0 is_stmt 1
 474 00ea 7368     		ldr	r3, [r6, #4]
 475 00ec 5B68     		ldr	r3, [r3, #4]
 476 00ee 7360     		str	r3, [r6, #4]
 480:..\..\..\arduinoLCD\test\Pain Drain\libraries\lvgl\src\core/lv_event.c ****         if(res != LV_RES_OK) return LV_RES_INV;
 477              		.loc 1 480 0
 478 00f0 3000     		movs	r0, r6
 479 00f2 FFF785FF 		bl	event_send_core
 480              	.LVL54:
 481:..\..\..\arduinoLCD\test\Pain Drain\libraries\lvgl\src\core/lv_event.c ****     }
 481              		.loc 1 481 0
 482 00f6 0128     		cmp	r0, #1
 483 00f8 0CD0     		beq	.L28
 484 00fa 0020     		movs	r0, #0
 485              	.LVL55:
 486 00fc 0AE0     		b	.L28
 487              	.LVL56:
 488              	.L39:
 434:..\..\..\arduinoLCD\test\Pain Drain\libraries\lvgl\src\core/lv_event.c ****         if(e->deleted) return LV_RES_INV;
 489              		.loc 1 434 0
 490 00fe 0120     		movs	r0, #1
ARM GAS  C:\Users\haske\AppData\Local\Temp\ccz6azzs.s 			page 20


 491 0100 08E0     		b	.L28
 492              	.LVL57:
 493              	.L40:
 449:..\..\..\arduinoLCD\test\Pain Drain\libraries\lvgl\src\core/lv_event.c ****             /*Stop if the object is deleted*/
 494              		.loc 1 449 0
 495 0102 0120     		movs	r0, #1
 496 0104 06E0     		b	.L28
 497              	.LVL58:
 498              	.L41:
 469:..\..\..\arduinoLCD\test\Pain Drain\libraries\lvgl\src\core/lv_event.c ****             /*Stop if the object is deleted*/
 499              		.loc 1 469 0
 500 0106 0120     		movs	r0, #1
 501 0108 04E0     		b	.L28
 502              	.L42:
 458:..\..\..\arduinoLCD\test\Pain Drain\libraries\lvgl\src\core/lv_event.c **** 
 503              		.loc 1 458 0
 504 010a 0198     		ldr	r0, [sp, #4]
 505 010c 02E0     		b	.L28
 506              	.L43:
 507 010e 0198     		ldr	r0, [sp, #4]
 508 0110 00E0     		b	.L28
 509              	.L44:
 510 0112 0198     		ldr	r0, [sp, #4]
 511              	.LVL59:
 512              	.L28:
 485:..\..\..\arduinoLCD\test\Pain Drain\libraries\lvgl\src\core/lv_event.c **** 
 513              		.loc 1 485 0
 514 0114 03B0     		add	sp, sp, #12
 515              		@ sp needed
 516              	.LVL60:
 517 0116 F0BD     		pop	{r4, r5, r6, r7, pc}
 518              		.cfi_endproc
 519              	.LFE187:
 520              		.size	event_send_core, .-event_send_core
 521              		.section	.text.lv_event_send,"ax",%progbits
 522              		.align	2
 523              		.global	lv_event_send
 524              		.code	16
 525              		.thumb_func
 526              		.type	lv_event_send, %function
 527              	lv_event_send:
 528              	.LFB159:
  53:..\..\..\arduinoLCD\test\Pain Drain\libraries\lvgl\src\core/lv_event.c ****     if(obj == NULL) return LV_RES_OK;
 529              		.loc 1 53 0
 530              		.cfi_startproc
 531              		@ args = 0, pretend = 0, frame = 32
 532              		@ frame_needed = 0, uses_anonymous_args = 0
 533              	.LVL61:
 534 0000 30B5     		push	{r4, r5, lr}
 535              		.cfi_def_cfa_offset 12
 536              		.cfi_offset 4, -12
 537              		.cfi_offset 5, -8
 538              		.cfi_offset 14, -4
 539 0002 89B0     		sub	sp, sp, #36
 540              		.cfi_def_cfa_offset 48
  54:..\..\..\arduinoLCD\test\Pain Drain\libraries\lvgl\src\core/lv_event.c **** 
 541              		.loc 1 54 0
ARM GAS  C:\Users\haske\AppData\Local\Temp\ccz6azzs.s 			page 21


 542 0004 0028     		cmp	r0, #0
 543 0006 18D0     		beq	.L48
  59:..\..\..\arduinoLCD\test\Pain Drain\libraries\lvgl\src\core/lv_event.c ****     e.current_target = obj;
 544              		.loc 1 59 0
 545 0008 01AC     		add	r4, sp, #4
 546 000a 0190     		str	r0, [sp, #4]
  60:..\..\..\arduinoLCD\test\Pain Drain\libraries\lvgl\src\core/lv_event.c ****     e.code = event_code;
 547              		.loc 1 60 0
 548 000c 0290     		str	r0, [sp, #8]
  61:..\..\..\arduinoLCD\test\Pain Drain\libraries\lvgl\src\core/lv_event.c ****     e.user_data = NULL;
 549              		.loc 1 61 0
 550 000e 2172     		strb	r1, [r4, #8]
  62:..\..\..\arduinoLCD\test\Pain Drain\libraries\lvgl\src\core/lv_event.c ****     e.param = param;
 551              		.loc 1 62 0
 552 0010 0023     		movs	r3, #0
 553 0012 0493     		str	r3, [sp, #16]
  63:..\..\..\arduinoLCD\test\Pain Drain\libraries\lvgl\src\core/lv_event.c ****     e.deleted = 0;
 554              		.loc 1 63 0
 555 0014 0592     		str	r2, [sp, #20]
  64:..\..\..\arduinoLCD\test\Pain Drain\libraries\lvgl\src\core/lv_event.c ****     e.stop_bubbling = 0;
 556              		.loc 1 64 0
 557 0016 237E     		ldrb	r3, [r4, #24]
  65:..\..\..\arduinoLCD\test\Pain Drain\libraries\lvgl\src\core/lv_event.c ****     e.stop_processing = 0;
 558              		.loc 1 65 0
 559 0018 0122     		movs	r2, #1
 560              	.LVL62:
 561 001a 9343     		bics	r3, r2
  66:..\..\..\arduinoLCD\test\Pain Drain\libraries\lvgl\src\core/lv_event.c **** 
 562              		.loc 1 66 0
 563 001c 0332     		adds	r2, r2, #3
 564 001e 9343     		bics	r3, r2
 565 0020 023A     		subs	r2, r2, #2
 566 0022 9343     		bics	r3, r2
 567 0024 2376     		strb	r3, [r4, #24]
  71:..\..\..\arduinoLCD\test\Pain Drain\libraries\lvgl\src\core/lv_event.c ****     event_head = &e;
 568              		.loc 1 71 0
 569 0026 064D     		ldr	r5, .L49
 570 0028 2B68     		ldr	r3, [r5]
 571 002a 0693     		str	r3, [sp, #24]
  72:..\..\..\arduinoLCD\test\Pain Drain\libraries\lvgl\src\core/lv_event.c **** 
 572              		.loc 1 72 0
 573 002c 2C60     		str	r4, [r5]
  75:..\..\..\arduinoLCD\test\Pain Drain\libraries\lvgl\src\core/lv_event.c **** 
 574              		.loc 1 75 0
 575 002e 2000     		movs	r0, r4
 576              	.LVL63:
 577 0030 FFF7FEFF 		bl	event_send_core
 578              	.LVL64:
  78:..\..\..\arduinoLCD\test\Pain Drain\libraries\lvgl\src\core/lv_event.c **** 
 579              		.loc 1 78 0
 580 0034 6369     		ldr	r3, [r4, #20]
 581 0036 2B60     		str	r3, [r5]
  80:..\..\..\arduinoLCD\test\Pain Drain\libraries\lvgl\src\core/lv_event.c **** }
 582              		.loc 1 80 0
 583 0038 00E0     		b	.L47
 584              	.LVL65:
 585              	.L48:
ARM GAS  C:\Users\haske\AppData\Local\Temp\ccz6azzs.s 			page 22


  54:..\..\..\arduinoLCD\test\Pain Drain\libraries\lvgl\src\core/lv_event.c **** 
 586              		.loc 1 54 0
 587 003a 0120     		movs	r0, #1
 588              	.LVL66:
 589              	.L47:
  81:..\..\..\arduinoLCD\test\Pain Drain\libraries\lvgl\src\core/lv_event.c **** 
 590              		.loc 1 81 0
 591 003c 09B0     		add	sp, sp, #36
 592              		@ sp needed
 593 003e 30BD     		pop	{r4, r5, pc}
 594              	.L50:
 595              		.align	2
 596              	.L49:
 597 0040 00000000 		.word	.LANCHOR0
 598              		.cfi_endproc
 599              	.LFE159:
 600              		.size	lv_event_send, .-lv_event_send
 601              		.section	.text.lv_event_get_target,"ax",%progbits
 602              		.align	2
 603              		.global	lv_event_get_target
 604              		.code	16
 605              		.thumb_func
 606              		.type	lv_event_get_target, %function
 607              	lv_event_get_target:
 608              	.LFB161:
 109:..\..\..\arduinoLCD\test\Pain Drain\libraries\lvgl\src\core/lv_event.c ****     return e->target;
 609              		.loc 1 109 0
 610              		.cfi_startproc
 611              		@ args = 0, pretend = 0, frame = 0
 612              		@ frame_needed = 0, uses_anonymous_args = 0
 613              		@ link register save eliminated.
 614              	.LVL67:
 110:..\..\..\arduinoLCD\test\Pain Drain\libraries\lvgl\src\core/lv_event.c **** }
 615              		.loc 1 110 0
 616 0000 0068     		ldr	r0, [r0]
 617              	.LVL68:
 111:..\..\..\arduinoLCD\test\Pain Drain\libraries\lvgl\src\core/lv_event.c **** 
 618              		.loc 1 111 0
 619              		@ sp needed
 620 0002 7047     		bx	lr
 621              		.cfi_endproc
 622              	.LFE161:
 623              		.size	lv_event_get_target, .-lv_event_get_target
 624              		.section	.text.lv_event_get_current_target,"ax",%progbits
 625              		.align	2
 626              		.global	lv_event_get_current_target
 627              		.code	16
 628              		.thumb_func
 629              		.type	lv_event_get_current_target, %function
 630              	lv_event_get_current_target:
 631              	.LFB162:
 114:..\..\..\arduinoLCD\test\Pain Drain\libraries\lvgl\src\core/lv_event.c ****     return e->current_target;
 632              		.loc 1 114 0
 633              		.cfi_startproc
 634              		@ args = 0, pretend = 0, frame = 0
 635              		@ frame_needed = 0, uses_anonymous_args = 0
 636              		@ link register save eliminated.
ARM GAS  C:\Users\haske\AppData\Local\Temp\ccz6azzs.s 			page 23


 637              	.LVL69:
 115:..\..\..\arduinoLCD\test\Pain Drain\libraries\lvgl\src\core/lv_event.c **** }
 638              		.loc 1 115 0
 639 0000 4068     		ldr	r0, [r0, #4]
 640              	.LVL70:
 116:..\..\..\arduinoLCD\test\Pain Drain\libraries\lvgl\src\core/lv_event.c **** 
 641              		.loc 1 116 0
 642              		@ sp needed
 643 0002 7047     		bx	lr
 644              		.cfi_endproc
 645              	.LFE162:
 646              		.size	lv_event_get_current_target, .-lv_event_get_current_target
 647              		.section	.text.lv_event_get_code,"ax",%progbits
 648              		.align	2
 649              		.global	lv_event_get_code
 650              		.code	16
 651              		.thumb_func
 652              		.type	lv_event_get_code, %function
 653              	lv_event_get_code:
 654              	.LFB163:
 119:..\..\..\arduinoLCD\test\Pain Drain\libraries\lvgl\src\core/lv_event.c ****     return e->code & ~LV_EVENT_PREPROCESS;
 655              		.loc 1 119 0
 656              		.cfi_startproc
 657              		@ args = 0, pretend = 0, frame = 0
 658              		@ frame_needed = 0, uses_anonymous_args = 0
 659              		@ link register save eliminated.
 660              	.LVL71:
 120:..\..\..\arduinoLCD\test\Pain Drain\libraries\lvgl\src\core/lv_event.c **** }
 661              		.loc 1 120 0
 662 0000 037A     		ldrb	r3, [r0, #8]
 663 0002 7F20     		movs	r0, #127
 664              	.LVL72:
 665 0004 1840     		ands	r0, r3
 121:..\..\..\arduinoLCD\test\Pain Drain\libraries\lvgl\src\core/lv_event.c **** 
 666              		.loc 1 121 0
 667              		@ sp needed
 668 0006 7047     		bx	lr
 669              		.cfi_endproc
 670              	.LFE163:
 671              		.size	lv_event_get_code, .-lv_event_get_code
 672              		.section	.text.lv_event_get_param,"ax",%progbits
 673              		.align	2
 674              		.global	lv_event_get_param
 675              		.code	16
 676              		.thumb_func
 677              		.type	lv_event_get_param, %function
 678              	lv_event_get_param:
 679              	.LFB164:
 124:..\..\..\arduinoLCD\test\Pain Drain\libraries\lvgl\src\core/lv_event.c ****     return e->param;
 680              		.loc 1 124 0
 681              		.cfi_startproc
 682              		@ args = 0, pretend = 0, frame = 0
 683              		@ frame_needed = 0, uses_anonymous_args = 0
 684              		@ link register save eliminated.
 685              	.LVL73:
 125:..\..\..\arduinoLCD\test\Pain Drain\libraries\lvgl\src\core/lv_event.c **** }
 686              		.loc 1 125 0
ARM GAS  C:\Users\haske\AppData\Local\Temp\ccz6azzs.s 			page 24


 687 0000 0069     		ldr	r0, [r0, #16]
 688              	.LVL74:
 126:..\..\..\arduinoLCD\test\Pain Drain\libraries\lvgl\src\core/lv_event.c **** 
 689              		.loc 1 126 0
 690              		@ sp needed
 691 0002 7047     		bx	lr
 692              		.cfi_endproc
 693              	.LFE164:
 694              		.size	lv_event_get_param, .-lv_event_get_param
 695              		.section	.text.lv_event_get_user_data,"ax",%progbits
 696              		.align	2
 697              		.global	lv_event_get_user_data
 698              		.code	16
 699              		.thumb_func
 700              		.type	lv_event_get_user_data, %function
 701              	lv_event_get_user_data:
 702              	.LFB165:
 129:..\..\..\arduinoLCD\test\Pain Drain\libraries\lvgl\src\core/lv_event.c ****     return e->user_data;
 703              		.loc 1 129 0
 704              		.cfi_startproc
 705              		@ args = 0, pretend = 0, frame = 0
 706              		@ frame_needed = 0, uses_anonymous_args = 0
 707              		@ link register save eliminated.
 708              	.LVL75:
 130:..\..\..\arduinoLCD\test\Pain Drain\libraries\lvgl\src\core/lv_event.c **** }
 709              		.loc 1 130 0
 710 0000 C068     		ldr	r0, [r0, #12]
 711              	.LVL76:
 131:..\..\..\arduinoLCD\test\Pain Drain\libraries\lvgl\src\core/lv_event.c **** 
 712              		.loc 1 131 0
 713              		@ sp needed
 714 0002 7047     		bx	lr
 715              		.cfi_endproc
 716              	.LFE165:
 717              		.size	lv_event_get_user_data, .-lv_event_get_user_data
 718              		.section	.text.lv_event_stop_bubbling,"ax",%progbits
 719              		.align	2
 720              		.global	lv_event_stop_bubbling
 721              		.code	16
 722              		.thumb_func
 723              		.type	lv_event_stop_bubbling, %function
 724              	lv_event_stop_bubbling:
 725              	.LFB166:
 134:..\..\..\arduinoLCD\test\Pain Drain\libraries\lvgl\src\core/lv_event.c ****     e->stop_bubbling = 1;
 726              		.loc 1 134 0
 727              		.cfi_startproc
 728              		@ args = 0, pretend = 0, frame = 0
 729              		@ frame_needed = 0, uses_anonymous_args = 0
 730              		@ link register save eliminated.
 731              	.LVL77:
 135:..\..\..\arduinoLCD\test\Pain Drain\libraries\lvgl\src\core/lv_event.c **** }
 732              		.loc 1 135 0
 733 0000 027E     		ldrb	r2, [r0, #24]
 734 0002 0423     		movs	r3, #4
 735 0004 1343     		orrs	r3, r2
 736 0006 0376     		strb	r3, [r0, #24]
 136:..\..\..\arduinoLCD\test\Pain Drain\libraries\lvgl\src\core/lv_event.c **** 
ARM GAS  C:\Users\haske\AppData\Local\Temp\ccz6azzs.s 			page 25


 737              		.loc 1 136 0
 738              		@ sp needed
 739 0008 7047     		bx	lr
 740              		.cfi_endproc
 741              	.LFE166:
 742              		.size	lv_event_stop_bubbling, .-lv_event_stop_bubbling
 743              		.section	.text.lv_event_stop_processing,"ax",%progbits
 744              		.align	2
 745              		.global	lv_event_stop_processing
 746              		.code	16
 747              		.thumb_func
 748              		.type	lv_event_stop_processing, %function
 749              	lv_event_stop_processing:
 750              	.LFB167:
 139:..\..\..\arduinoLCD\test\Pain Drain\libraries\lvgl\src\core/lv_event.c ****     e->stop_processing = 1;
 751              		.loc 1 139 0
 752              		.cfi_startproc
 753              		@ args = 0, pretend = 0, frame = 0
 754              		@ frame_needed = 0, uses_anonymous_args = 0
 755              		@ link register save eliminated.
 756              	.LVL78:
 140:..\..\..\arduinoLCD\test\Pain Drain\libraries\lvgl\src\core/lv_event.c **** }
 757              		.loc 1 140 0
 758 0000 027E     		ldrb	r2, [r0, #24]
 759 0002 0223     		movs	r3, #2
 760 0004 1343     		orrs	r3, r2
 761 0006 0376     		strb	r3, [r0, #24]
 141:..\..\..\arduinoLCD\test\Pain Drain\libraries\lvgl\src\core/lv_event.c **** 
 762              		.loc 1 141 0
 763              		@ sp needed
 764 0008 7047     		bx	lr
 765              		.cfi_endproc
 766              	.LFE167:
 767              		.size	lv_event_stop_processing, .-lv_event_stop_processing
 768              		.section	.text.lv_event_register_id,"ax",%progbits
 769              		.align	2
 770              		.global	lv_event_register_id
 771              		.code	16
 772              		.thumb_func
 773              		.type	lv_event_register_id, %function
 774              	lv_event_register_id:
 775              	.LFB168:
 145:..\..\..\arduinoLCD\test\Pain Drain\libraries\lvgl\src\core/lv_event.c ****     static uint32_t last_id = _LV_EVENT_LAST;
 776              		.loc 1 145 0
 777              		.cfi_startproc
 778              		@ args = 0, pretend = 0, frame = 0
 779              		@ frame_needed = 0, uses_anonymous_args = 0
 780              		@ link register save eliminated.
 147:..\..\..\arduinoLCD\test\Pain Drain\libraries\lvgl\src\core/lv_event.c ****     return last_id;
 781              		.loc 1 147 0
 782 0000 024B     		ldr	r3, .L59
 783 0002 1A68     		ldr	r2, [r3]
 784 0004 501C     		adds	r0, r2, #1
 785 0006 1860     		str	r0, [r3]
 149:..\..\..\arduinoLCD\test\Pain Drain\libraries\lvgl\src\core/lv_event.c **** 
 786              		.loc 1 149 0
 787              		@ sp needed
ARM GAS  C:\Users\haske\AppData\Local\Temp\ccz6azzs.s 			page 26


 788 0008 7047     		bx	lr
 789              	.L60:
 790 000a C046     		.align	2
 791              	.L59:
 792 000c 00000000 		.word	.LANCHOR1
 793              		.cfi_endproc
 794              	.LFE168:
 795              		.size	lv_event_register_id, .-lv_event_register_id
 796              		.section	.text._lv_event_mark_deleted,"ax",%progbits
 797              		.align	2
 798              		.global	_lv_event_mark_deleted
 799              		.code	16
 800              		.thumb_func
 801              		.type	_lv_event_mark_deleted, %function
 802              	_lv_event_mark_deleted:
 803              	.LFB169:
 152:..\..\..\arduinoLCD\test\Pain Drain\libraries\lvgl\src\core/lv_event.c ****     lv_event_t * e = event_head;
 804              		.loc 1 152 0
 805              		.cfi_startproc
 806              		@ args = 0, pretend = 0, frame = 0
 807              		@ frame_needed = 0, uses_anonymous_args = 0
 808              		@ link register save eliminated.
 809              	.LVL79:
 153:..\..\..\arduinoLCD\test\Pain Drain\libraries\lvgl\src\core/lv_event.c **** 
 810              		.loc 1 153 0
 811 0000 084B     		ldr	r3, .L66
 812 0002 1B68     		ldr	r3, [r3]
 813              	.LVL80:
 155:..\..\..\arduinoLCD\test\Pain Drain\libraries\lvgl\src\core/lv_event.c ****         if(e->current_target == obj || e->target == obj) e->deleted = 1;
 814              		.loc 1 155 0
 815 0004 0AE0     		b	.L62
 816              	.L65:
 156:..\..\..\arduinoLCD\test\Pain Drain\libraries\lvgl\src\core/lv_event.c ****         e = e->prev;
 817              		.loc 1 156 0
 818 0006 5A68     		ldr	r2, [r3, #4]
 819 0008 8242     		cmp	r2, r0
 820 000a 02D0     		beq	.L63
 156:..\..\..\arduinoLCD\test\Pain Drain\libraries\lvgl\src\core/lv_event.c ****         e = e->prev;
 821              		.loc 1 156 0 is_stmt 0 discriminator 2
 822 000c 1A68     		ldr	r2, [r3]
 823 000e 9042     		cmp	r0, r2
 824 0010 03D1     		bne	.L64
 825              	.L63:
 156:..\..\..\arduinoLCD\test\Pain Drain\libraries\lvgl\src\core/lv_event.c ****         e = e->prev;
 826              		.loc 1 156 0 discriminator 3
 827 0012 197E     		ldrb	r1, [r3, #24]
 828 0014 0122     		movs	r2, #1
 829 0016 0A43     		orrs	r2, r1
 830 0018 1A76     		strb	r2, [r3, #24]
 831              	.L64:
 157:..\..\..\arduinoLCD\test\Pain Drain\libraries\lvgl\src\core/lv_event.c ****     }
 832              		.loc 1 157 0 is_stmt 1
 833 001a 5B69     		ldr	r3, [r3, #20]
 834              	.LVL81:
 835              	.L62:
 155:..\..\..\arduinoLCD\test\Pain Drain\libraries\lvgl\src\core/lv_event.c ****         if(e->current_target == obj || e->target == obj) e->deleted = 1;
 836              		.loc 1 155 0
ARM GAS  C:\Users\haske\AppData\Local\Temp\ccz6azzs.s 			page 27


 837 001c 002B     		cmp	r3, #0
 838 001e F2D1     		bne	.L65
 159:..\..\..\arduinoLCD\test\Pain Drain\libraries\lvgl\src\core/lv_event.c **** 
 839              		.loc 1 159 0
 840              		@ sp needed
 841 0020 7047     		bx	lr
 842              	.L67:
 843 0022 C046     		.align	2
 844              	.L66:
 845 0024 00000000 		.word	.LANCHOR0
 846              		.cfi_endproc
 847              	.LFE169:
 848              		.size	_lv_event_mark_deleted, .-_lv_event_mark_deleted
 849              		.section	.text.lv_obj_add_event_cb,"ax",%progbits
 850              		.align	2
 851              		.global	lv_obj_add_event_cb
 852              		.code	16
 853              		.thumb_func
 854              		.type	lv_obj_add_event_cb, %function
 855              	lv_obj_add_event_cb:
 856              	.LFB170:
 164:..\..\..\arduinoLCD\test\Pain Drain\libraries\lvgl\src\core/lv_event.c ****     LV_ASSERT_OBJ(obj, MY_CLASS);
 857              		.loc 1 164 0
 858              		.cfi_startproc
 859              		@ args = 0, pretend = 0, frame = 0
 860              		@ frame_needed = 0, uses_anonymous_args = 0
 861              	.LVL82:
 862 0000 F0B5     		push	{r4, r5, r6, r7, lr}
 863              		.cfi_def_cfa_offset 20
 864              		.cfi_offset 4, -20
 865              		.cfi_offset 5, -16
 866              		.cfi_offset 6, -12
 867              		.cfi_offset 7, -8
 868              		.cfi_offset 14, -4
 869 0002 4746     		mov	r7, r8
 870 0004 80B4     		push	{r7}
 871              		.cfi_def_cfa_offset 24
 872              		.cfi_offset 8, -24
 873 0006 0400     		movs	r4, r0
 874 0008 0F00     		movs	r7, r1
 875 000a 1600     		movs	r6, r2
 876 000c 9846     		mov	r8, r3
 166:..\..\..\arduinoLCD\test\Pain Drain\libraries\lvgl\src\core/lv_event.c **** 
 877              		.loc 1 166 0
 878 000e FFF7FEFF 		bl	lv_obj_allocate_spec_attr
 879              	.LVL83:
 168:..\..\..\arduinoLCD\test\Pain Drain\libraries\lvgl\src\core/lv_event.c ****     obj->spec_attr->event_dsc = lv_mem_realloc(obj->spec_attr->event_dsc,
 880              		.loc 1 168 0
 881 0012 A168     		ldr	r1, [r4, #8]
 882 0014 887E     		ldrb	r0, [r1, #26]
 883 0016 8206     		lsls	r2, r0, #26
 884 0018 920E     		lsrs	r2, r2, #26
 885 001a 0132     		adds	r2, r2, #1
 886 001c 3F23     		movs	r3, #63
 887 001e 1A40     		ands	r2, r3
 888 0020 9843     		bics	r0, r3
 889 0022 0300     		movs	r3, r0
ARM GAS  C:\Users\haske\AppData\Local\Temp\ccz6azzs.s 			page 28


 890 0024 1343     		orrs	r3, r2
 891 0026 8B76     		strb	r3, [r1, #26]
 169:..\..\..\arduinoLCD\test\Pain Drain\libraries\lvgl\src\core/lv_event.c ****                                                obj->spec_attr->event_dsc_cnt * sizeof(lv_event_dsc_
 892              		.loc 1 169 0
 893 0028 A568     		ldr	r5, [r4, #8]
 170:..\..\..\arduinoLCD\test\Pain Drain\libraries\lvgl\src\core/lv_event.c ****     LV_ASSERT_MALLOC(obj->spec_attr->event_dsc);
 894              		.loc 1 170 0
 895 002a AB7E     		ldrb	r3, [r5, #26]
 896 002c 9B06     		lsls	r3, r3, #26
 897 002e 9B0E     		lsrs	r3, r3, #26
 169:..\..\..\arduinoLCD\test\Pain Drain\libraries\lvgl\src\core/lv_event.c ****                                                obj->spec_attr->event_dsc_cnt * sizeof(lv_event_dsc_
 898              		.loc 1 169 0
 899 0030 5A00     		lsls	r2, r3, #1
 900 0032 D318     		adds	r3, r2, r3
 901 0034 9900     		lsls	r1, r3, #2
 902 0036 E868     		ldr	r0, [r5, #12]
 903 0038 FFF7FEFF 		bl	lv_mem_realloc
 904              	.LVL84:
 905 003c E860     		str	r0, [r5, #12]
 171:..\..\..\arduinoLCD\test\Pain Drain\libraries\lvgl\src\core/lv_event.c **** 
 906              		.loc 1 171 0
 907 003e A368     		ldr	r3, [r4, #8]
 908 0040 D968     		ldr	r1, [r3, #12]
 909 0042 0029     		cmp	r1, #0
 910 0044 00D1     		bne	.L69
 911              	.L70:
 912 0046 FEE7     		b	.L70
 913              	.L69:
 173:..\..\..\arduinoLCD\test\Pain Drain\libraries\lvgl\src\core/lv_event.c ****     obj->spec_attr->event_dsc[obj->spec_attr->event_dsc_cnt - 1].filter = filter;
 914              		.loc 1 173 0
 915 0048 9B7E     		ldrb	r3, [r3, #26]
 916 004a 9B06     		lsls	r3, r3, #26
 917 004c 9B0E     		lsrs	r3, r3, #26
 918 004e 5A00     		lsls	r2, r3, #1
 919 0050 D318     		adds	r3, r2, r3
 920 0052 9A00     		lsls	r2, r3, #2
 921 0054 0C3A     		subs	r2, r2, #12
 922 0056 8F50     		str	r7, [r1, r2]
 174:..\..\..\arduinoLCD\test\Pain Drain\libraries\lvgl\src\core/lv_event.c ****     obj->spec_attr->event_dsc[obj->spec_attr->event_dsc_cnt - 1].user_data = user_data;
 923              		.loc 1 174 0
 924 0058 A368     		ldr	r3, [r4, #8]
 925 005a D968     		ldr	r1, [r3, #12]
 926 005c 9B7E     		ldrb	r3, [r3, #26]
 927 005e 9B06     		lsls	r3, r3, #26
 928 0060 9B0E     		lsrs	r3, r3, #26
 929 0062 5A00     		lsls	r2, r3, #1
 930 0064 D318     		adds	r3, r2, r3
 931 0066 9A00     		lsls	r2, r3, #2
 932 0068 0C3A     		subs	r2, r2, #12
 933 006a 8A18     		adds	r2, r1, r2
 934 006c 1672     		strb	r6, [r2, #8]
 175:..\..\..\arduinoLCD\test\Pain Drain\libraries\lvgl\src\core/lv_event.c **** 
 935              		.loc 1 175 0
 936 006e A368     		ldr	r3, [r4, #8]
 937 0070 D968     		ldr	r1, [r3, #12]
 938 0072 9B7E     		ldrb	r3, [r3, #26]
 939 0074 9B06     		lsls	r3, r3, #26
ARM GAS  C:\Users\haske\AppData\Local\Temp\ccz6azzs.s 			page 29


 940 0076 9B0E     		lsrs	r3, r3, #26
 941 0078 5A00     		lsls	r2, r3, #1
 942 007a D318     		adds	r3, r2, r3
 943 007c 9A00     		lsls	r2, r3, #2
 944 007e 0C3A     		subs	r2, r2, #12
 945 0080 8A18     		adds	r2, r1, r2
 946 0082 4346     		mov	r3, r8
 947 0084 5360     		str	r3, [r2, #4]
 177:..\..\..\arduinoLCD\test\Pain Drain\libraries\lvgl\src\core/lv_event.c **** }
 948              		.loc 1 177 0
 949 0086 A368     		ldr	r3, [r4, #8]
 950 0088 D868     		ldr	r0, [r3, #12]
 951 008a 9B7E     		ldrb	r3, [r3, #26]
 952 008c 9B06     		lsls	r3, r3, #26
 953 008e 9B0E     		lsrs	r3, r3, #26
 954 0090 5A00     		lsls	r2, r3, #1
 955 0092 D318     		adds	r3, r2, r3
 956 0094 9A00     		lsls	r2, r3, #2
 957 0096 0C3A     		subs	r2, r2, #12
 958 0098 8018     		adds	r0, r0, r2
 178:..\..\..\arduinoLCD\test\Pain Drain\libraries\lvgl\src\core/lv_event.c **** 
 959              		.loc 1 178 0
 960              		@ sp needed
 961              	.LVL85:
 962              	.LVL86:
 963              	.LVL87:
 964 009a 04BC     		pop	{r2}
 965 009c 9046     		mov	r8, r2
 966 009e F0BD     		pop	{r4, r5, r6, r7, pc}
 967              		.cfi_endproc
 968              	.LFE170:
 969              		.size	lv_obj_add_event_cb, .-lv_obj_add_event_cb
 970              		.section	.text.lv_obj_remove_event_cb,"ax",%progbits
 971              		.align	2
 972              		.global	lv_obj_remove_event_cb
 973              		.code	16
 974              		.thumb_func
 975              		.type	lv_obj_remove_event_cb, %function
 976              	lv_obj_remove_event_cb:
 977              	.LFB171:
 181:..\..\..\arduinoLCD\test\Pain Drain\libraries\lvgl\src\core/lv_event.c ****     LV_ASSERT_OBJ(obj, MY_CLASS);
 978              		.loc 1 181 0
 979              		.cfi_startproc
 980              		@ args = 0, pretend = 0, frame = 0
 981              		@ frame_needed = 0, uses_anonymous_args = 0
 982              	.LVL88:
 983 0000 70B5     		push	{r4, r5, r6, lr}
 984              		.cfi_def_cfa_offset 16
 985              		.cfi_offset 4, -16
 986              		.cfi_offset 5, -12
 987              		.cfi_offset 6, -8
 988              		.cfi_offset 14, -4
 989 0002 0400     		movs	r4, r0
 183:..\..\..\arduinoLCD\test\Pain Drain\libraries\lvgl\src\core/lv_event.c **** 
 990              		.loc 1 183 0
 991 0004 8568     		ldr	r5, [r0, #8]
 992 0006 002D     		cmp	r5, #0
ARM GAS  C:\Users\haske\AppData\Local\Temp\ccz6azzs.s 			page 30


 993 0008 3ED0     		beq	.L79
 994 000a 0023     		movs	r3, #0
 995 000c 35E0     		b	.L73
 996              	.LVL89:
 997              	.L78:
 187:..\..\..\arduinoLCD\test\Pain Drain\libraries\lvgl\src\core/lv_event.c ****             /*Shift the remaining event handlers forward*/
 998              		.loc 1 187 0
 999 000e 0029     		cmp	r1, #0
 1000 0010 13D0     		beq	.L74
 187:..\..\..\arduinoLCD\test\Pain Drain\libraries\lvgl\src\core/lv_event.c ****             /*Shift the remaining event handlers forward*/
 1001              		.loc 1 187 0 is_stmt 0 discriminator 1
 1002 0012 5A00     		lsls	r2, r3, #1
 1003 0014 D218     		adds	r2, r2, r3
 1004 0016 9000     		lsls	r0, r2, #2
 1005 0018 EA68     		ldr	r2, [r5, #12]
 1006 001a 1258     		ldr	r2, [r2, r0]
 1007 001c 9142     		cmp	r1, r2
 1008 001e 2BD1     		bne	.L81
 1009 0020 0BE0     		b	.L74
 1010              	.LVL90:
 1011              	.L76:
 190:..\..\..\arduinoLCD\test\Pain Drain\libraries\lvgl\src\core/lv_event.c ****             }
 1012              		.loc 1 190 0 is_stmt 1 discriminator 2
 1013 0022 CD68     		ldr	r5, [r1, #12]
 1014 0024 5800     		lsls	r0, r3, #1
 1015 0026 C018     		adds	r0, r0, r3
 1016 0028 8100     		lsls	r1, r0, #2
 1017 002a 6918     		adds	r1, r5, r1
 1018 002c 0133     		adds	r3, r3, #1
 1019              	.LVL91:
 1020 002e 5800     		lsls	r0, r3, #1
 1021 0030 C018     		adds	r0, r0, r3
 1022 0032 8200     		lsls	r2, r0, #2
 1023 0034 AA18     		adds	r2, r5, r2
 1024 0036 61CA     		ldmia	r2!, {r0, r5, r6}
 1025 0038 61C1     		stmia	r1!, {r0, r5, r6}
 1026              	.LVL92:
 1027              	.L74:
 189:..\..\..\arduinoLCD\test\Pain Drain\libraries\lvgl\src\core/lv_event.c ****                 obj->spec_attr->event_dsc[i] = obj->spec_attr->event_dsc[i + 1];
 1028              		.loc 1 189 0 discriminator 1
 1029 003a A168     		ldr	r1, [r4, #8]
 1030 003c 8A7E     		ldrb	r2, [r1, #26]
 1031 003e 9206     		lsls	r2, r2, #26
 1032 0040 920E     		lsrs	r2, r2, #26
 1033 0042 501E     		subs	r0, r2, #1
 1034 0044 8342     		cmp	r3, r0
 1035 0046 ECDB     		blt	.L76
 192:..\..\..\arduinoLCD\test\Pain Drain\libraries\lvgl\src\core/lv_event.c ****             obj->spec_attr->event_dsc = lv_mem_realloc(obj->spec_attr->event_dsc,
 1036              		.loc 1 192 0
 1037 0048 3F32     		adds	r2, r2, #63
 1038 004a 3F23     		movs	r3, #63
 1039              	.LVL93:
 1040 004c 1A40     		ands	r2, r3
 1041 004e 8B7E     		ldrb	r3, [r1, #26]
 1042 0050 3F20     		movs	r0, #63
 1043 0052 8343     		bics	r3, r0
 1044 0054 1343     		orrs	r3, r2
ARM GAS  C:\Users\haske\AppData\Local\Temp\ccz6azzs.s 			page 31


 1045 0056 8B76     		strb	r3, [r1, #26]
 193:..\..\..\arduinoLCD\test\Pain Drain\libraries\lvgl\src\core/lv_event.c ****                                                        obj->spec_attr->event_dsc_cnt * sizeof(lv_ev
 1046              		.loc 1 193 0
 1047 0058 A568     		ldr	r5, [r4, #8]
 194:..\..\..\arduinoLCD\test\Pain Drain\libraries\lvgl\src\core/lv_event.c ****             LV_ASSERT_MALLOC(obj->spec_attr->event_dsc);
 1048              		.loc 1 194 0
 1049 005a AB7E     		ldrb	r3, [r5, #26]
 1050 005c 9B06     		lsls	r3, r3, #26
 1051 005e 9B0E     		lsrs	r3, r3, #26
 193:..\..\..\arduinoLCD\test\Pain Drain\libraries\lvgl\src\core/lv_event.c ****                                                        obj->spec_attr->event_dsc_cnt * sizeof(lv_ev
 1052              		.loc 1 193 0
 1053 0060 5A00     		lsls	r2, r3, #1
 1054 0062 D318     		adds	r3, r2, r3
 1055 0064 9900     		lsls	r1, r3, #2
 1056 0066 E868     		ldr	r0, [r5, #12]
 1057 0068 FFF7FEFF 		bl	lv_mem_realloc
 1058              	.LVL94:
 1059 006c E860     		str	r0, [r5, #12]
 195:..\..\..\arduinoLCD\test\Pain Drain\libraries\lvgl\src\core/lv_event.c ****             return true;
 1060              		.loc 1 195 0
 1061 006e A368     		ldr	r3, [r4, #8]
 1062 0070 DB68     		ldr	r3, [r3, #12]
 1063 0072 002B     		cmp	r3, #0
 1064 0074 0AD1     		bne	.L80
 1065              	.L77:
 1066 0076 FEE7     		b	.L77
 1067              	.LVL95:
 1068              	.L81:
 186:..\..\..\arduinoLCD\test\Pain Drain\libraries\lvgl\src\core/lv_event.c ****         if(event_cb == NULL || obj->spec_attr->event_dsc[i].cb == event_cb) {
 1069              		.loc 1 186 0 discriminator 2
 1070 0078 0133     		adds	r3, r3, #1
 1071              	.LVL96:
 1072              	.L73:
 186:..\..\..\arduinoLCD\test\Pain Drain\libraries\lvgl\src\core/lv_event.c ****         if(event_cb == NULL || obj->spec_attr->event_dsc[i].cb == event_cb) {
 1073              		.loc 1 186 0 is_stmt 0 discriminator 1
 1074 007a AA7E     		ldrb	r2, [r5, #26]
 1075 007c 9206     		lsls	r2, r2, #26
 1076 007e 920E     		lsrs	r2, r2, #26
 1077 0080 9342     		cmp	r3, r2
 1078 0082 C4DB     		blt	.L78
 201:..\..\..\arduinoLCD\test\Pain Drain\libraries\lvgl\src\core/lv_event.c **** }
 1079              		.loc 1 201 0 is_stmt 1
 1080 0084 0020     		movs	r0, #0
 1081 0086 02E0     		b	.L72
 1082              	.LVL97:
 1083              	.L79:
 183:..\..\..\arduinoLCD\test\Pain Drain\libraries\lvgl\src\core/lv_event.c **** 
 1084              		.loc 1 183 0
 1085 0088 0020     		movs	r0, #0
 1086              	.LVL98:
 1087 008a 00E0     		b	.L72
 1088              	.LVL99:
 1089              	.L80:
 196:..\..\..\arduinoLCD\test\Pain Drain\libraries\lvgl\src\core/lv_event.c ****         }
 1090              		.loc 1 196 0
 1091 008c 0120     		movs	r0, #1
 1092              	.L72:
ARM GAS  C:\Users\haske\AppData\Local\Temp\ccz6azzs.s 			page 32


 202:..\..\..\arduinoLCD\test\Pain Drain\libraries\lvgl\src\core/lv_event.c **** 
 1093              		.loc 1 202 0
 1094              		@ sp needed
 1095              	.LVL100:
 1096 008e 70BD     		pop	{r4, r5, r6, pc}
 1097              		.cfi_endproc
 1098              	.LFE171:
 1099              		.size	lv_obj_remove_event_cb, .-lv_obj_remove_event_cb
 1100              		.section	.text.lv_obj_remove_event_cb_with_user_data,"ax",%progbits
 1101              		.align	2
 1102              		.global	lv_obj_remove_event_cb_with_user_data
 1103              		.code	16
 1104              		.thumb_func
 1105              		.type	lv_obj_remove_event_cb_with_user_data, %function
 1106              	lv_obj_remove_event_cb_with_user_data:
 1107              	.LFB172:
 205:..\..\..\arduinoLCD\test\Pain Drain\libraries\lvgl\src\core/lv_event.c ****     LV_ASSERT_OBJ(obj, MY_CLASS);
 1108              		.loc 1 205 0
 1109              		.cfi_startproc
 1110              		@ args = 0, pretend = 0, frame = 0
 1111              		@ frame_needed = 0, uses_anonymous_args = 0
 1112              	.LVL101:
 1113 0000 70B5     		push	{r4, r5, r6, lr}
 1114              		.cfi_def_cfa_offset 16
 1115              		.cfi_offset 4, -16
 1116              		.cfi_offset 5, -12
 1117              		.cfi_offset 6, -8
 1118              		.cfi_offset 14, -4
 1119 0002 0500     		movs	r5, r0
 207:..\..\..\arduinoLCD\test\Pain Drain\libraries\lvgl\src\core/lv_event.c **** 
 1120              		.loc 1 207 0
 1121 0004 8668     		ldr	r6, [r0, #8]
 1122 0006 002E     		cmp	r6, #0
 1123 0008 47D0     		beq	.L91
 1124 000a 0023     		movs	r3, #0
 1125 000c 3EE0     		b	.L84
 1126              	.LVL102:
 1127              	.L90:
 211:..\..\..\arduinoLCD\test\Pain Drain\libraries\lvgl\src\core/lv_event.c ****            obj->spec_attr->event_dsc[i].user_data == user_data) {
 1128              		.loc 1 211 0
 1129 000e 0029     		cmp	r1, #0
 1130 0010 06D0     		beq	.L85
 211:..\..\..\arduinoLCD\test\Pain Drain\libraries\lvgl\src\core/lv_event.c ****            obj->spec_attr->event_dsc[i].user_data == user_data) {
 1131              		.loc 1 211 0 is_stmt 0 discriminator 2
 1132 0012 5800     		lsls	r0, r3, #1
 1133 0014 C018     		adds	r0, r0, r3
 1134 0016 8400     		lsls	r4, r0, #2
 1135 0018 F068     		ldr	r0, [r6, #12]
 1136 001a 0059     		ldr	r0, [r0, r4]
 1137 001c 8142     		cmp	r1, r0
 1138 001e 34D1     		bne	.L86
 1139              	.L85:
 212:..\..\..\arduinoLCD\test\Pain Drain\libraries\lvgl\src\core/lv_event.c ****             /*Shift the remaining event handlers forward*/
 1140              		.loc 1 212 0 is_stmt 1 discriminator 3
 1141 0020 5C00     		lsls	r4, r3, #1
 1142 0022 E418     		adds	r4, r4, r3
 1143 0024 A000     		lsls	r0, r4, #2
ARM GAS  C:\Users\haske\AppData\Local\Temp\ccz6azzs.s 			page 33


 1144 0026 F468     		ldr	r4, [r6, #12]
 1145 0028 A446     		mov	ip, r4
 1146 002a 6044     		add	r0, r0, ip
 1147 002c 4068     		ldr	r0, [r0, #4]
 211:..\..\..\arduinoLCD\test\Pain Drain\libraries\lvgl\src\core/lv_event.c ****            obj->spec_attr->event_dsc[i].user_data == user_data) {
 1148              		.loc 1 211 0 discriminator 3
 1149 002e 9042     		cmp	r0, r2
 1150 0030 2BD1     		bne	.L86
 1151 0032 0BE0     		b	.L87
 1152              	.LVL103:
 1153              	.L88:
 215:..\..\..\arduinoLCD\test\Pain Drain\libraries\lvgl\src\core/lv_event.c ****             }
 1154              		.loc 1 215 0 discriminator 2
 1155 0034 CC68     		ldr	r4, [r1, #12]
 1156 0036 5800     		lsls	r0, r3, #1
 1157 0038 C018     		adds	r0, r0, r3
 1158 003a 8100     		lsls	r1, r0, #2
 1159 003c 6118     		adds	r1, r4, r1
 1160 003e 0133     		adds	r3, r3, #1
 1161              	.LVL104:
 1162 0040 5800     		lsls	r0, r3, #1
 1163 0042 C018     		adds	r0, r0, r3
 1164 0044 8200     		lsls	r2, r0, #2
 1165 0046 A218     		adds	r2, r4, r2
 1166 0048 51CA     		ldmia	r2!, {r0, r4, r6}
 1167 004a 51C1     		stmia	r1!, {r0, r4, r6}
 1168              	.LVL105:
 1169              	.L87:
 214:..\..\..\arduinoLCD\test\Pain Drain\libraries\lvgl\src\core/lv_event.c ****                 obj->spec_attr->event_dsc[i] = obj->spec_attr->event_dsc[i + 1];
 1170              		.loc 1 214 0 discriminator 1
 1171 004c A968     		ldr	r1, [r5, #8]
 1172 004e 8A7E     		ldrb	r2, [r1, #26]
 1173 0050 9206     		lsls	r2, r2, #26
 1174 0052 920E     		lsrs	r2, r2, #26
 1175 0054 501E     		subs	r0, r2, #1
 1176 0056 8342     		cmp	r3, r0
 1177 0058 ECDB     		blt	.L88
 217:..\..\..\arduinoLCD\test\Pain Drain\libraries\lvgl\src\core/lv_event.c ****             obj->spec_attr->event_dsc = lv_mem_realloc(obj->spec_attr->event_dsc,
 1178              		.loc 1 217 0
 1179 005a 3F32     		adds	r2, r2, #63
 1180 005c 3F23     		movs	r3, #63
 1181              	.LVL106:
 1182 005e 1A40     		ands	r2, r3
 1183 0060 8B7E     		ldrb	r3, [r1, #26]
 1184 0062 3F20     		movs	r0, #63
 1185 0064 8343     		bics	r3, r0
 1186 0066 1343     		orrs	r3, r2
 1187 0068 8B76     		strb	r3, [r1, #26]
 218:..\..\..\arduinoLCD\test\Pain Drain\libraries\lvgl\src\core/lv_event.c ****                                                        obj->spec_attr->event_dsc_cnt * sizeof(lv_ev
 1188              		.loc 1 218 0
 1189 006a AC68     		ldr	r4, [r5, #8]
 219:..\..\..\arduinoLCD\test\Pain Drain\libraries\lvgl\src\core/lv_event.c ****             LV_ASSERT_MALLOC(obj->spec_attr->event_dsc);
 1190              		.loc 1 219 0
 1191 006c A37E     		ldrb	r3, [r4, #26]
 1192 006e 9B06     		lsls	r3, r3, #26
 1193 0070 9B0E     		lsrs	r3, r3, #26
 218:..\..\..\arduinoLCD\test\Pain Drain\libraries\lvgl\src\core/lv_event.c ****                                                        obj->spec_attr->event_dsc_cnt * sizeof(lv_ev
ARM GAS  C:\Users\haske\AppData\Local\Temp\ccz6azzs.s 			page 34


 1194              		.loc 1 218 0
 1195 0072 5A00     		lsls	r2, r3, #1
 1196 0074 D318     		adds	r3, r2, r3
 1197 0076 9900     		lsls	r1, r3, #2
 1198 0078 E068     		ldr	r0, [r4, #12]
 1199 007a FFF7FEFF 		bl	lv_mem_realloc
 1200              	.LVL107:
 1201 007e E060     		str	r0, [r4, #12]
 220:..\..\..\arduinoLCD\test\Pain Drain\libraries\lvgl\src\core/lv_event.c ****             return true;
 1202              		.loc 1 220 0
 1203 0080 AB68     		ldr	r3, [r5, #8]
 1204 0082 DB68     		ldr	r3, [r3, #12]
 1205 0084 002B     		cmp	r3, #0
 1206 0086 0AD1     		bne	.L92
 1207              	.L89:
 1208 0088 FEE7     		b	.L89
 1209              	.LVL108:
 1210              	.L86:
 210:..\..\..\arduinoLCD\test\Pain Drain\libraries\lvgl\src\core/lv_event.c ****         if((event_cb == NULL || obj->spec_attr->event_dsc[i].cb == event_cb) &&
 1211              		.loc 1 210 0 discriminator 2
 1212 008a 0133     		adds	r3, r3, #1
 1213              	.LVL109:
 1214              	.L84:
 210:..\..\..\arduinoLCD\test\Pain Drain\libraries\lvgl\src\core/lv_event.c ****         if((event_cb == NULL || obj->spec_attr->event_dsc[i].cb == event_cb) &&
 1215              		.loc 1 210 0 is_stmt 0 discriminator 1
 1216 008c B07E     		ldrb	r0, [r6, #26]
 1217 008e 8006     		lsls	r0, r0, #26
 1218 0090 800E     		lsrs	r0, r0, #26
 1219 0092 8342     		cmp	r3, r0
 1220 0094 BBDB     		blt	.L90
 226:..\..\..\arduinoLCD\test\Pain Drain\libraries\lvgl\src\core/lv_event.c **** }
 1221              		.loc 1 226 0 is_stmt 1
 1222 0096 0020     		movs	r0, #0
 1223 0098 02E0     		b	.L83
 1224              	.LVL110:
 1225              	.L91:
 207:..\..\..\arduinoLCD\test\Pain Drain\libraries\lvgl\src\core/lv_event.c **** 
 1226              		.loc 1 207 0
 1227 009a 0020     		movs	r0, #0
 1228              	.LVL111:
 1229 009c 00E0     		b	.L83
 1230              	.LVL112:
 1231              	.L92:
 221:..\..\..\arduinoLCD\test\Pain Drain\libraries\lvgl\src\core/lv_event.c ****         }
 1232              		.loc 1 221 0
 1233 009e 0120     		movs	r0, #1
 1234              	.L83:
 227:..\..\..\arduinoLCD\test\Pain Drain\libraries\lvgl\src\core/lv_event.c **** 
 1235              		.loc 1 227 0
 1236              		@ sp needed
 1237              	.LVL113:
 1238 00a0 70BD     		pop	{r4, r5, r6, pc}
 1239              		.cfi_endproc
 1240              	.LFE172:
 1241              		.size	lv_obj_remove_event_cb_with_user_data, .-lv_obj_remove_event_cb_with_user_data
 1242 00a2 C046     		.section	.text.lv_obj_remove_event_dsc,"ax",%progbits
 1243              		.align	2
ARM GAS  C:\Users\haske\AppData\Local\Temp\ccz6azzs.s 			page 35


 1244              		.global	lv_obj_remove_event_dsc
 1245              		.code	16
 1246              		.thumb_func
 1247              		.type	lv_obj_remove_event_dsc, %function
 1248              	lv_obj_remove_event_dsc:
 1249              	.LFB173:
 231:..\..\..\arduinoLCD\test\Pain Drain\libraries\lvgl\src\core/lv_event.c ****     LV_ASSERT_OBJ(obj, MY_CLASS);
 1250              		.loc 1 231 0
 1251              		.cfi_startproc
 1252              		@ args = 0, pretend = 0, frame = 0
 1253              		@ frame_needed = 0, uses_anonymous_args = 0
 1254              	.LVL114:
 1255 0000 70B5     		push	{r4, r5, r6, lr}
 1256              		.cfi_def_cfa_offset 16
 1257              		.cfi_offset 4, -16
 1258              		.cfi_offset 5, -12
 1259              		.cfi_offset 6, -8
 1260              		.cfi_offset 14, -4
 1261 0002 0400     		movs	r4, r0
 233:..\..\..\arduinoLCD\test\Pain Drain\libraries\lvgl\src\core/lv_event.c **** 
 1262              		.loc 1 233 0
 1263 0004 8568     		ldr	r5, [r0, #8]
 1264 0006 002D     		cmp	r5, #0
 1265 0008 3DD0     		beq	.L101
 1266 000a 0023     		movs	r3, #0
 1267 000c 34E0     		b	.L95
 1268              	.LVL115:
 1269              	.L100:
 237:..\..\..\arduinoLCD\test\Pain Drain\libraries\lvgl\src\core/lv_event.c ****             /*Shift the remaining event handlers forward*/
 1270              		.loc 1 237 0
 1271 000e 5800     		lsls	r0, r3, #1
 1272 0010 C018     		adds	r0, r0, r3
 1273 0012 8200     		lsls	r2, r0, #2
 1274 0014 E868     		ldr	r0, [r5, #12]
 1275 0016 8446     		mov	ip, r0
 1276 0018 6244     		add	r2, r2, ip
 1277 001a 8A42     		cmp	r2, r1
 1278 001c 2BD1     		bne	.L103
 1279 001e 0BE0     		b	.L96
 1280              	.LVL116:
 1281              	.L98:
 240:..\..\..\arduinoLCD\test\Pain Drain\libraries\lvgl\src\core/lv_event.c ****             }
 1282              		.loc 1 240 0 discriminator 2
 1283 0020 CD68     		ldr	r5, [r1, #12]
 1284 0022 5800     		lsls	r0, r3, #1
 1285 0024 C018     		adds	r0, r0, r3
 1286 0026 8100     		lsls	r1, r0, #2
 1287 0028 6918     		adds	r1, r5, r1
 1288 002a 0133     		adds	r3, r3, #1
 1289              	.LVL117:
 1290 002c 5800     		lsls	r0, r3, #1
 1291 002e C018     		adds	r0, r0, r3
 1292 0030 8200     		lsls	r2, r0, #2
 1293 0032 AA18     		adds	r2, r5, r2
 1294 0034 61CA     		ldmia	r2!, {r0, r5, r6}
 1295 0036 61C1     		stmia	r1!, {r0, r5, r6}
 1296              	.LVL118:
ARM GAS  C:\Users\haske\AppData\Local\Temp\ccz6azzs.s 			page 36


 1297              	.L96:
 239:..\..\..\arduinoLCD\test\Pain Drain\libraries\lvgl\src\core/lv_event.c ****                 obj->spec_attr->event_dsc[i] = obj->spec_attr->event_dsc[i + 1];
 1298              		.loc 1 239 0 discriminator 1
 1299 0038 A168     		ldr	r1, [r4, #8]
 1300 003a 8A7E     		ldrb	r2, [r1, #26]
 1301 003c 9206     		lsls	r2, r2, #26
 1302 003e 920E     		lsrs	r2, r2, #26
 1303 0040 501E     		subs	r0, r2, #1
 1304 0042 8342     		cmp	r3, r0
 1305 0044 ECDB     		blt	.L98
 242:..\..\..\arduinoLCD\test\Pain Drain\libraries\lvgl\src\core/lv_event.c ****             obj->spec_attr->event_dsc = lv_mem_realloc(obj->spec_attr->event_dsc,
 1306              		.loc 1 242 0
 1307 0046 3F32     		adds	r2, r2, #63
 1308 0048 3F23     		movs	r3, #63
 1309              	.LVL119:
 1310 004a 1A40     		ands	r2, r3
 1311 004c 8B7E     		ldrb	r3, [r1, #26]
 1312 004e 3F20     		movs	r0, #63
 1313 0050 8343     		bics	r3, r0
 1314 0052 1343     		orrs	r3, r2
 1315 0054 8B76     		strb	r3, [r1, #26]
 243:..\..\..\arduinoLCD\test\Pain Drain\libraries\lvgl\src\core/lv_event.c ****                                                        obj->spec_attr->event_dsc_cnt * sizeof(lv_ev
 1316              		.loc 1 243 0
 1317 0056 A568     		ldr	r5, [r4, #8]
 244:..\..\..\arduinoLCD\test\Pain Drain\libraries\lvgl\src\core/lv_event.c ****             LV_ASSERT_MALLOC(obj->spec_attr->event_dsc);
 1318              		.loc 1 244 0
 1319 0058 AB7E     		ldrb	r3, [r5, #26]
 1320 005a 9B06     		lsls	r3, r3, #26
 1321 005c 9B0E     		lsrs	r3, r3, #26
 243:..\..\..\arduinoLCD\test\Pain Drain\libraries\lvgl\src\core/lv_event.c ****                                                        obj->spec_attr->event_dsc_cnt * sizeof(lv_ev
 1322              		.loc 1 243 0
 1323 005e 5A00     		lsls	r2, r3, #1
 1324 0060 D318     		adds	r3, r2, r3
 1325 0062 9900     		lsls	r1, r3, #2
 1326 0064 E868     		ldr	r0, [r5, #12]
 1327 0066 FFF7FEFF 		bl	lv_mem_realloc
 1328              	.LVL120:
 1329 006a E860     		str	r0, [r5, #12]
 245:..\..\..\arduinoLCD\test\Pain Drain\libraries\lvgl\src\core/lv_event.c ****             return true;
 1330              		.loc 1 245 0
 1331 006c A368     		ldr	r3, [r4, #8]
 1332 006e DB68     		ldr	r3, [r3, #12]
 1333 0070 002B     		cmp	r3, #0
 1334 0072 0AD1     		bne	.L102
 1335              	.L99:
 1336 0074 FEE7     		b	.L99
 1337              	.LVL121:
 1338              	.L103:
 236:..\..\..\arduinoLCD\test\Pain Drain\libraries\lvgl\src\core/lv_event.c ****         if(&obj->spec_attr->event_dsc[i] == event_dsc) {
 1339              		.loc 1 236 0 discriminator 2
 1340 0076 0133     		adds	r3, r3, #1
 1341              	.LVL122:
 1342              	.L95:
 236:..\..\..\arduinoLCD\test\Pain Drain\libraries\lvgl\src\core/lv_event.c ****         if(&obj->spec_attr->event_dsc[i] == event_dsc) {
 1343              		.loc 1 236 0 is_stmt 0 discriminator 1
 1344 0078 AA7E     		ldrb	r2, [r5, #26]
 1345 007a 9206     		lsls	r2, r2, #26
ARM GAS  C:\Users\haske\AppData\Local\Temp\ccz6azzs.s 			page 37


 1346 007c 920E     		lsrs	r2, r2, #26
 1347 007e 9342     		cmp	r3, r2
 1348 0080 C5DB     		blt	.L100
 251:..\..\..\arduinoLCD\test\Pain Drain\libraries\lvgl\src\core/lv_event.c **** }
 1349              		.loc 1 251 0 is_stmt 1
 1350 0082 0020     		movs	r0, #0
 1351 0084 02E0     		b	.L94
 1352              	.LVL123:
 1353              	.L101:
 233:..\..\..\arduinoLCD\test\Pain Drain\libraries\lvgl\src\core/lv_event.c **** 
 1354              		.loc 1 233 0
 1355 0086 0020     		movs	r0, #0
 1356              	.LVL124:
 1357 0088 00E0     		b	.L94
 1358              	.LVL125:
 1359              	.L102:
 246:..\..\..\arduinoLCD\test\Pain Drain\libraries\lvgl\src\core/lv_event.c ****         }
 1360              		.loc 1 246 0
 1361 008a 0120     		movs	r0, #1
 1362              	.L94:
 252:..\..\..\arduinoLCD\test\Pain Drain\libraries\lvgl\src\core/lv_event.c **** 
 1363              		.loc 1 252 0
 1364              		@ sp needed
 1365              	.LVL126:
 1366 008c 70BD     		pop	{r4, r5, r6, pc}
 1367              		.cfi_endproc
 1368              	.LFE173:
 1369              		.size	lv_obj_remove_event_dsc, .-lv_obj_remove_event_dsc
 1370 008e C046     		.section	.text.lv_obj_get_event_user_data,"ax",%progbits
 1371              		.align	2
 1372              		.global	lv_obj_get_event_user_data
 1373              		.code	16
 1374              		.thumb_func
 1375              		.type	lv_obj_get_event_user_data, %function
 1376              	lv_obj_get_event_user_data:
 1377              	.LFB174:
 255:..\..\..\arduinoLCD\test\Pain Drain\libraries\lvgl\src\core/lv_event.c ****     LV_ASSERT_OBJ(obj, MY_CLASS);
 1378              		.loc 1 255 0
 1379              		.cfi_startproc
 1380              		@ args = 0, pretend = 0, frame = 0
 1381              		@ frame_needed = 0, uses_anonymous_args = 0
 1382              	.LVL127:
 1383 0000 10B5     		push	{r4, lr}
 1384              		.cfi_def_cfa_offset 8
 1385              		.cfi_offset 4, -8
 1386              		.cfi_offset 14, -4
 257:..\..\..\arduinoLCD\test\Pain Drain\libraries\lvgl\src\core/lv_event.c **** 
 1387              		.loc 1 257 0
 1388 0002 8468     		ldr	r4, [r0, #8]
 1389 0004 002C     		cmp	r4, #0
 1390 0006 14D0     		beq	.L109
 1391 0008 0022     		movs	r2, #0
 1392 000a 0BE0     		b	.L106
 1393              	.LVL128:
 1394              	.L108:
 261:..\..\..\arduinoLCD\test\Pain Drain\libraries\lvgl\src\core/lv_event.c ****     }
 1395              		.loc 1 261 0
ARM GAS  C:\Users\haske\AppData\Local\Temp\ccz6azzs.s 			page 38


 1396 000c 5000     		lsls	r0, r2, #1
 1397 000e 8018     		adds	r0, r0, r2
 1398 0010 8300     		lsls	r3, r0, #2
 1399 0012 E068     		ldr	r0, [r4, #12]
 1400 0014 8446     		mov	ip, r0
 1401 0016 6344     		add	r3, r3, ip
 1402 0018 1868     		ldr	r0, [r3]
 1403 001a 8842     		cmp	r0, r1
 1404 001c 01D1     		bne	.L107
 261:..\..\..\arduinoLCD\test\Pain Drain\libraries\lvgl\src\core/lv_event.c ****     }
 1405              		.loc 1 261 0 is_stmt 0 discriminator 1
 1406 001e 5868     		ldr	r0, [r3, #4]
 1407 0020 08E0     		b	.L105
 1408              	.L107:
 260:..\..\..\arduinoLCD\test\Pain Drain\libraries\lvgl\src\core/lv_event.c ****         if(event_cb == obj->spec_attr->event_dsc[i].cb) return obj->spec_attr->event_dsc[i].user_da
 1409              		.loc 1 260 0 is_stmt 1 discriminator 2
 1410 0022 0132     		adds	r2, r2, #1
 1411              	.LVL129:
 1412              	.L106:
 260:..\..\..\arduinoLCD\test\Pain Drain\libraries\lvgl\src\core/lv_event.c ****         if(event_cb == obj->spec_attr->event_dsc[i].cb) return obj->spec_attr->event_dsc[i].user_da
 1413              		.loc 1 260 0 is_stmt 0 discriminator 1
 1414 0024 A37E     		ldrb	r3, [r4, #26]
 1415 0026 9B06     		lsls	r3, r3, #26
 1416 0028 9B0E     		lsrs	r3, r3, #26
 1417 002a 9A42     		cmp	r2, r3
 1418 002c EEDB     		blt	.L108
 263:..\..\..\arduinoLCD\test\Pain Drain\libraries\lvgl\src\core/lv_event.c **** }
 1419              		.loc 1 263 0 is_stmt 1
 1420 002e 0020     		movs	r0, #0
 1421 0030 00E0     		b	.L105
 1422              	.LVL130:
 1423              	.L109:
 257:..\..\..\arduinoLCD\test\Pain Drain\libraries\lvgl\src\core/lv_event.c **** 
 1424              		.loc 1 257 0
 1425 0032 0020     		movs	r0, #0
 1426              	.LVL131:
 1427              	.L105:
 264:..\..\..\arduinoLCD\test\Pain Drain\libraries\lvgl\src\core/lv_event.c **** 
 1428              		.loc 1 264 0
 1429              		@ sp needed
 1430 0034 10BD     		pop	{r4, pc}
 1431              		.cfi_endproc
 1432              	.LFE174:
 1433              		.size	lv_obj_get_event_user_data, .-lv_obj_get_event_user_data
 1434 0036 C046     		.section	.text.lv_event_get_indev,"ax",%progbits
 1435              		.align	2
 1436              		.global	lv_event_get_indev
 1437              		.code	16
 1438              		.thumb_func
 1439              		.type	lv_event_get_indev, %function
 1440              	lv_event_get_indev:
 1441              	.LFB175:
 267:..\..\..\arduinoLCD\test\Pain Drain\libraries\lvgl\src\core/lv_event.c **** 
 1442              		.loc 1 267 0
 1443              		.cfi_startproc
 1444              		@ args = 0, pretend = 0, frame = 0
 1445              		@ frame_needed = 0, uses_anonymous_args = 0
ARM GAS  C:\Users\haske\AppData\Local\Temp\ccz6azzs.s 			page 39


 1446              	.LVL132:
 1447 0000 10B5     		push	{r4, lr}
 1448              		.cfi_def_cfa_offset 8
 1449              		.cfi_offset 4, -8
 1450              		.cfi_offset 14, -4
 269:..\..\..\arduinoLCD\test\Pain Drain\libraries\lvgl\src\core/lv_event.c ****        e->code == LV_EVENT_PRESSING ||
 1451              		.loc 1 269 0
 1452 0002 037A     		ldrb	r3, [r0, #8]
 283:..\..\..\arduinoLCD\test\Pain Drain\libraries\lvgl\src\core/lv_event.c ****        e->code == LV_EVENT_LEAVE) {
 1453              		.loc 1 283 0
 1454 0004 013B     		subs	r3, r3, #1
 1455 0006 DBB2     		uxtb	r3, r3
 269:..\..\..\arduinoLCD\test\Pain Drain\libraries\lvgl\src\core/lv_event.c ****        e->code == LV_EVENT_PRESSING ||
 1456              		.loc 1 269 0
 1457 0008 0F2B     		cmp	r3, #15
 1458 000a 02D8     		bhi	.L112
 285:..\..\..\arduinoLCD\test\Pain Drain\libraries\lvgl\src\core/lv_event.c ****     }
 1459              		.loc 1 285 0
 1460 000c FFF7FEFF 		bl	lv_event_get_param
 1461              	.LVL133:
 1462 0010 00E0     		b	.L111
 1463              	.LVL134:
 1464              	.L112:
 289:..\..\..\arduinoLCD\test\Pain Drain\libraries\lvgl\src\core/lv_event.c ****     }
 1465              		.loc 1 289 0
 1466 0012 0020     		movs	r0, #0
 1467              	.LVL135:
 1468              	.L111:
 291:..\..\..\arduinoLCD\test\Pain Drain\libraries\lvgl\src\core/lv_event.c **** 
 1469              		.loc 1 291 0
 1470              		@ sp needed
 1471 0014 10BD     		pop	{r4, pc}
 1472              		.cfi_endproc
 1473              	.LFE175:
 1474              		.size	lv_event_get_indev, .-lv_event_get_indev
 1475 0016 C046     		.section	.text.lv_event_get_draw_part_dsc,"ax",%progbits
 1476              		.align	2
 1477              		.global	lv_event_get_draw_part_dsc
 1478              		.code	16
 1479              		.thumb_func
 1480              		.type	lv_event_get_draw_part_dsc, %function
 1481              	lv_event_get_draw_part_dsc:
 1482              	.LFB176:
 294:..\..\..\arduinoLCD\test\Pain Drain\libraries\lvgl\src\core/lv_event.c ****     if(e->code == LV_EVENT_DRAW_PART_BEGIN ||
 1483              		.loc 1 294 0
 1484              		.cfi_startproc
 1485              		@ args = 0, pretend = 0, frame = 0
 1486              		@ frame_needed = 0, uses_anonymous_args = 0
 1487              	.LVL136:
 1488 0000 10B5     		push	{r4, lr}
 1489              		.cfi_def_cfa_offset 8
 1490              		.cfi_offset 4, -8
 1491              		.cfi_offset 14, -4
 295:..\..\..\arduinoLCD\test\Pain Drain\libraries\lvgl\src\core/lv_event.c ****        e->code == LV_EVENT_DRAW_PART_END) {
 1492              		.loc 1 295 0
 1493 0002 037A     		ldrb	r3, [r0, #8]
 1494 0004 1A3B     		subs	r3, r3, #26
ARM GAS  C:\Users\haske\AppData\Local\Temp\ccz6azzs.s 			page 40


 1495 0006 DBB2     		uxtb	r3, r3
 1496 0008 012B     		cmp	r3, #1
 1497 000a 02D8     		bhi	.L115
 297:..\..\..\arduinoLCD\test\Pain Drain\libraries\lvgl\src\core/lv_event.c ****     }
 1498              		.loc 1 297 0
 1499 000c FFF7FEFF 		bl	lv_event_get_param
 1500              	.LVL137:
 1501 0010 00E0     		b	.L114
 1502              	.LVL138:
 1503              	.L115:
 301:..\..\..\arduinoLCD\test\Pain Drain\libraries\lvgl\src\core/lv_event.c ****     }
 1504              		.loc 1 301 0
 1505 0012 0020     		movs	r0, #0
 1506              	.LVL139:
 1507              	.L114:
 303:..\..\..\arduinoLCD\test\Pain Drain\libraries\lvgl\src\core/lv_event.c **** 
 1508              		.loc 1 303 0
 1509              		@ sp needed
 1510 0014 10BD     		pop	{r4, pc}
 1511              		.cfi_endproc
 1512              	.LFE176:
 1513              		.size	lv_event_get_draw_part_dsc, .-lv_event_get_draw_part_dsc
 1514 0016 C046     		.section	.text.lv_event_get_draw_ctx,"ax",%progbits
 1515              		.align	2
 1516              		.global	lv_event_get_draw_ctx
 1517              		.code	16
 1518              		.thumb_func
 1519              		.type	lv_event_get_draw_ctx, %function
 1520              	lv_event_get_draw_ctx:
 1521              	.LFB177:
 306:..\..\..\arduinoLCD\test\Pain Drain\libraries\lvgl\src\core/lv_event.c ****     if(e->code == LV_EVENT_DRAW_MAIN ||
 1522              		.loc 1 306 0
 1523              		.cfi_startproc
 1524              		@ args = 0, pretend = 0, frame = 0
 1525              		@ frame_needed = 0, uses_anonymous_args = 0
 1526              	.LVL140:
 1527 0000 10B5     		push	{r4, lr}
 1528              		.cfi_def_cfa_offset 8
 1529              		.cfi_offset 4, -8
 1530              		.cfi_offset 14, -4
 307:..\..\..\arduinoLCD\test\Pain Drain\libraries\lvgl\src\core/lv_event.c ****        e->code == LV_EVENT_DRAW_MAIN_BEGIN ||
 1531              		.loc 1 307 0
 1532 0002 027A     		ldrb	r2, [r0, #8]
 308:..\..\..\arduinoLCD\test\Pain Drain\libraries\lvgl\src\core/lv_event.c ****        e->code == LV_EVENT_DRAW_MAIN_END ||
 1533              		.loc 1 308 0
 1534 0004 1300     		movs	r3, r2
 1535 0006 143B     		subs	r3, r3, #20
 1536 0008 DBB2     		uxtb	r3, r3
 307:..\..\..\arduinoLCD\test\Pain Drain\libraries\lvgl\src\core/lv_event.c ****        e->code == LV_EVENT_DRAW_MAIN_BEGIN ||
 1537              		.loc 1 307 0
 1538 000a 022B     		cmp	r3, #2
 1539 000c 05D9     		bls	.L117
 309:..\..\..\arduinoLCD\test\Pain Drain\libraries\lvgl\src\core/lv_event.c ****        e->code == LV_EVENT_DRAW_POST ||
 1540              		.loc 1 309 0
 1541 000e 182A     		cmp	r2, #24
 1542 0010 03D0     		beq	.L117
 310:..\..\..\arduinoLCD\test\Pain Drain\libraries\lvgl\src\core/lv_event.c ****        e->code == LV_EVENT_DRAW_POST_BEGIN ||
ARM GAS  C:\Users\haske\AppData\Local\Temp\ccz6azzs.s 			page 41


 1543              		.loc 1 310 0
 1544 0012 172A     		cmp	r2, #23
 1545 0014 01D0     		beq	.L117
 311:..\..\..\arduinoLCD\test\Pain Drain\libraries\lvgl\src\core/lv_event.c ****        e->code == LV_EVENT_DRAW_POST_END) {
 1546              		.loc 1 311 0
 1547 0016 192A     		cmp	r2, #25
 1548 0018 02D1     		bne	.L119
 1549              	.L117:
 313:..\..\..\arduinoLCD\test\Pain Drain\libraries\lvgl\src\core/lv_event.c ****     }
 1550              		.loc 1 313 0
 1551 001a FFF7FEFF 		bl	lv_event_get_param
 1552              	.LVL141:
 1553 001e 00E0     		b	.L118
 1554              	.LVL142:
 1555              	.L119:
 317:..\..\..\arduinoLCD\test\Pain Drain\libraries\lvgl\src\core/lv_event.c ****     }
 1556              		.loc 1 317 0
 1557 0020 0020     		movs	r0, #0
 1558              	.LVL143:
 1559              	.L118:
 319:..\..\..\arduinoLCD\test\Pain Drain\libraries\lvgl\src\core/lv_event.c **** 
 1560              		.loc 1 319 0
 1561              		@ sp needed
 1562 0022 10BD     		pop	{r4, pc}
 1563              		.cfi_endproc
 1564              	.LFE177:
 1565              		.size	lv_event_get_draw_ctx, .-lv_event_get_draw_ctx
 1566              		.section	.text.lv_event_get_old_size,"ax",%progbits
 1567              		.align	2
 1568              		.global	lv_event_get_old_size
 1569              		.code	16
 1570              		.thumb_func
 1571              		.type	lv_event_get_old_size, %function
 1572              	lv_event_get_old_size:
 1573              	.LFB178:
 322:..\..\..\arduinoLCD\test\Pain Drain\libraries\lvgl\src\core/lv_event.c ****     if(e->code == LV_EVENT_SIZE_CHANGED) {
 1574              		.loc 1 322 0
 1575              		.cfi_startproc
 1576              		@ args = 0, pretend = 0, frame = 0
 1577              		@ frame_needed = 0, uses_anonymous_args = 0
 1578              	.LVL144:
 1579 0000 10B5     		push	{r4, lr}
 1580              		.cfi_def_cfa_offset 8
 1581              		.cfi_offset 4, -8
 1582              		.cfi_offset 14, -4
 323:..\..\..\arduinoLCD\test\Pain Drain\libraries\lvgl\src\core/lv_event.c ****         return lv_event_get_param(e);
 1583              		.loc 1 323 0
 1584 0002 037A     		ldrb	r3, [r0, #8]
 1585 0004 292B     		cmp	r3, #41
 1586 0006 02D1     		bne	.L122
 324:..\..\..\arduinoLCD\test\Pain Drain\libraries\lvgl\src\core/lv_event.c ****     }
 1587              		.loc 1 324 0
 1588 0008 FFF7FEFF 		bl	lv_event_get_param
 1589              	.LVL145:
 1590 000c 00E0     		b	.L121
 1591              	.LVL146:
 1592              	.L122:
ARM GAS  C:\Users\haske\AppData\Local\Temp\ccz6azzs.s 			page 42


 328:..\..\..\arduinoLCD\test\Pain Drain\libraries\lvgl\src\core/lv_event.c ****     }
 1593              		.loc 1 328 0
 1594 000e 0020     		movs	r0, #0
 1595              	.LVL147:
 1596              	.L121:
 330:..\..\..\arduinoLCD\test\Pain Drain\libraries\lvgl\src\core/lv_event.c **** 
 1597              		.loc 1 330 0
 1598              		@ sp needed
 1599 0010 10BD     		pop	{r4, pc}
 1600              		.cfi_endproc
 1601              	.LFE178:
 1602              		.size	lv_event_get_old_size, .-lv_event_get_old_size
 1603 0012 C046     		.section	.text.lv_event_get_key,"ax",%progbits
 1604              		.align	2
 1605              		.global	lv_event_get_key
 1606              		.code	16
 1607              		.thumb_func
 1608              		.type	lv_event_get_key, %function
 1609              	lv_event_get_key:
 1610              	.LFB179:
 333:..\..\..\arduinoLCD\test\Pain Drain\libraries\lvgl\src\core/lv_event.c ****     if(e->code == LV_EVENT_KEY) {
 1611              		.loc 1 333 0
 1612              		.cfi_startproc
 1613              		@ args = 0, pretend = 0, frame = 0
 1614              		@ frame_needed = 0, uses_anonymous_args = 0
 1615              	.LVL148:
 1616 0000 10B5     		push	{r4, lr}
 1617              		.cfi_def_cfa_offset 8
 1618              		.cfi_offset 4, -8
 1619              		.cfi_offset 14, -4
 334:..\..\..\arduinoLCD\test\Pain Drain\libraries\lvgl\src\core/lv_event.c ****         uint32_t * k = lv_event_get_param(e);
 1620              		.loc 1 334 0
 1621 0002 037A     		ldrb	r3, [r0, #8]
 1622 0004 0D2B     		cmp	r3, #13
 1623 0006 05D1     		bne	.L125
 1624              	.LBB2:
 335:..\..\..\arduinoLCD\test\Pain Drain\libraries\lvgl\src\core/lv_event.c ****         if(k) return *k;
 1625              		.loc 1 335 0
 1626 0008 FFF7FEFF 		bl	lv_event_get_param
 1627              	.LVL149:
 336:..\..\..\arduinoLCD\test\Pain Drain\libraries\lvgl\src\core/lv_event.c ****         else return 0;
 1628              		.loc 1 336 0
 1629 000c 0028     		cmp	r0, #0
 1630 000e 03D0     		beq	.L126
 336:..\..\..\arduinoLCD\test\Pain Drain\libraries\lvgl\src\core/lv_event.c ****         else return 0;
 1631              		.loc 1 336 0 is_stmt 0 discriminator 1
 1632 0010 0068     		ldr	r0, [r0]
 1633              	.LVL150:
 1634 0012 02E0     		b	.L124
 1635              	.LVL151:
 1636              	.L125:
 1637              	.LBE2:
 341:..\..\..\arduinoLCD\test\Pain Drain\libraries\lvgl\src\core/lv_event.c ****     }
 1638              		.loc 1 341 0 is_stmt 1
 1639 0014 0020     		movs	r0, #0
 1640              	.LVL152:
 1641 0016 00E0     		b	.L124
ARM GAS  C:\Users\haske\AppData\Local\Temp\ccz6azzs.s 			page 43


 1642              	.LVL153:
 1643              	.L126:
 1644              	.LBB3:
 337:..\..\..\arduinoLCD\test\Pain Drain\libraries\lvgl\src\core/lv_event.c ****     }
 1645              		.loc 1 337 0
 1646 0018 0020     		movs	r0, #0
 1647              	.LVL154:
 1648              	.L124:
 1649              	.LBE3:
 343:..\..\..\arduinoLCD\test\Pain Drain\libraries\lvgl\src\core/lv_event.c **** 
 1650              		.loc 1 343 0
 1651              		@ sp needed
 1652 001a 10BD     		pop	{r4, pc}
 1653              		.cfi_endproc
 1654              	.LFE179:
 1655              		.size	lv_event_get_key, .-lv_event_get_key
 1656              		.section	.text.lv_event_get_scroll_anim,"ax",%progbits
 1657              		.align	2
 1658              		.global	lv_event_get_scroll_anim
 1659              		.code	16
 1660              		.thumb_func
 1661              		.type	lv_event_get_scroll_anim, %function
 1662              	lv_event_get_scroll_anim:
 1663              	.LFB180:
 346:..\..\..\arduinoLCD\test\Pain Drain\libraries\lvgl\src\core/lv_event.c ****     if(e->code == LV_EVENT_SCROLL_BEGIN) {
 1664              		.loc 1 346 0
 1665              		.cfi_startproc
 1666              		@ args = 0, pretend = 0, frame = 0
 1667              		@ frame_needed = 0, uses_anonymous_args = 0
 1668              	.LVL155:
 1669 0000 10B5     		push	{r4, lr}
 1670              		.cfi_def_cfa_offset 8
 1671              		.cfi_offset 4, -8
 1672              		.cfi_offset 14, -4
 347:..\..\..\arduinoLCD\test\Pain Drain\libraries\lvgl\src\core/lv_event.c ****         return lv_event_get_param(e);
 1673              		.loc 1 347 0
 1674 0002 037A     		ldrb	r3, [r0, #8]
 1675 0004 092B     		cmp	r3, #9
 1676 0006 02D1     		bne	.L129
 348:..\..\..\arduinoLCD\test\Pain Drain\libraries\lvgl\src\core/lv_event.c ****     }
 1677              		.loc 1 348 0
 1678 0008 FFF7FEFF 		bl	lv_event_get_param
 1679              	.LVL156:
 1680 000c 00E0     		b	.L128
 1681              	.LVL157:
 1682              	.L129:
 352:..\..\..\arduinoLCD\test\Pain Drain\libraries\lvgl\src\core/lv_event.c ****     }
 1683              		.loc 1 352 0
 1684 000e 0020     		movs	r0, #0
 1685              	.LVL158:
 1686              	.L128:
 354:..\..\..\arduinoLCD\test\Pain Drain\libraries\lvgl\src\core/lv_event.c **** 
 1687              		.loc 1 354 0
 1688              		@ sp needed
 1689 0010 10BD     		pop	{r4, pc}
 1690              		.cfi_endproc
 1691              	.LFE180:
ARM GAS  C:\Users\haske\AppData\Local\Temp\ccz6azzs.s 			page 44


 1692              		.size	lv_event_get_scroll_anim, .-lv_event_get_scroll_anim
 1693 0012 C046     		.section	.text.lv_event_set_ext_draw_size,"ax",%progbits
 1694              		.align	2
 1695              		.global	lv_event_set_ext_draw_size
 1696              		.code	16
 1697              		.thumb_func
 1698              		.type	lv_event_set_ext_draw_size, %function
 1699              	lv_event_set_ext_draw_size:
 1700              	.LFB181:
 357:..\..\..\arduinoLCD\test\Pain Drain\libraries\lvgl\src\core/lv_event.c ****     if(e->code == LV_EVENT_REFR_EXT_DRAW_SIZE) {
 1701              		.loc 1 357 0
 1702              		.cfi_startproc
 1703              		@ args = 0, pretend = 0, frame = 0
 1704              		@ frame_needed = 0, uses_anonymous_args = 0
 1705              	.LVL159:
 1706 0000 10B5     		push	{r4, lr}
 1707              		.cfi_def_cfa_offset 8
 1708              		.cfi_offset 4, -8
 1709              		.cfi_offset 14, -4
 1710 0002 0C00     		movs	r4, r1
 358:..\..\..\arduinoLCD\test\Pain Drain\libraries\lvgl\src\core/lv_event.c ****         lv_coord_t * cur_size = lv_event_get_param(e);
 1711              		.loc 1 358 0
 1712 0004 037A     		ldrb	r3, [r0, #8]
 1713 0006 132B     		cmp	r3, #19
 1714 0008 08D1     		bne	.L130
 1715              	.LBB4:
 359:..\..\..\arduinoLCD\test\Pain Drain\libraries\lvgl\src\core/lv_event.c ****         *cur_size = LV_MAX(*cur_size, size);
 1716              		.loc 1 359 0
 1717 000a FFF7FEFF 		bl	lv_event_get_param
 1718              	.LVL160:
 360:..\..\..\arduinoLCD\test\Pain Drain\libraries\lvgl\src\core/lv_event.c ****     }
 1719              		.loc 1 360 0
 1720 000e 0022     		movs	r2, #0
 1721 0010 835E     		ldrsh	r3, [r0, r2]
 1722 0012 1A1C     		adds	r2, r3, #0
 1723 0014 A342     		cmp	r3, r4
 1724 0016 00DA     		bge	.L132
 1725 0018 221C     		adds	r2, r4, #0
 1726              	.L132:
 1727 001a 0280     		strh	r2, [r0]
 1728              	.LVL161:
 1729              	.L130:
 1730              	.LBE4:
 365:..\..\..\arduinoLCD\test\Pain Drain\libraries\lvgl\src\core/lv_event.c **** 
 1731              		.loc 1 365 0
 1732              		@ sp needed
 1733 001c 10BD     		pop	{r4, pc}
 1734              		.cfi_endproc
 1735              	.LFE181:
 1736              		.size	lv_event_set_ext_draw_size, .-lv_event_set_ext_draw_size
 1737 001e C046     		.section	.text.lv_event_get_self_size_info,"ax",%progbits
 1738              		.align	2
 1739              		.global	lv_event_get_self_size_info
 1740              		.code	16
 1741              		.thumb_func
 1742              		.type	lv_event_get_self_size_info, %function
 1743              	lv_event_get_self_size_info:
ARM GAS  C:\Users\haske\AppData\Local\Temp\ccz6azzs.s 			page 45


 1744              	.LFB182:
 368:..\..\..\arduinoLCD\test\Pain Drain\libraries\lvgl\src\core/lv_event.c ****     if(e->code == LV_EVENT_GET_SELF_SIZE) {
 1745              		.loc 1 368 0
 1746              		.cfi_startproc
 1747              		@ args = 0, pretend = 0, frame = 0
 1748              		@ frame_needed = 0, uses_anonymous_args = 0
 1749              	.LVL162:
 1750 0000 10B5     		push	{r4, lr}
 1751              		.cfi_def_cfa_offset 8
 1752              		.cfi_offset 4, -8
 1753              		.cfi_offset 14, -4
 369:..\..\..\arduinoLCD\test\Pain Drain\libraries\lvgl\src\core/lv_event.c ****         return lv_event_get_param(e);
 1754              		.loc 1 369 0
 1755 0002 037A     		ldrb	r3, [r0, #8]
 1756 0004 2C2B     		cmp	r3, #44
 1757 0006 02D1     		bne	.L135
 370:..\..\..\arduinoLCD\test\Pain Drain\libraries\lvgl\src\core/lv_event.c ****     }
 1758              		.loc 1 370 0
 1759 0008 FFF7FEFF 		bl	lv_event_get_param
 1760              	.LVL163:
 1761 000c 00E0     		b	.L134
 1762              	.LVL164:
 1763              	.L135:
 374:..\..\..\arduinoLCD\test\Pain Drain\libraries\lvgl\src\core/lv_event.c ****     }
 1764              		.loc 1 374 0
 1765 000e 0020     		movs	r0, #0
 1766              	.LVL165:
 1767              	.L134:
 376:..\..\..\arduinoLCD\test\Pain Drain\libraries\lvgl\src\core/lv_event.c **** 
 1768              		.loc 1 376 0
 1769              		@ sp needed
 1770 0010 10BD     		pop	{r4, pc}
 1771              		.cfi_endproc
 1772              	.LFE182:
 1773              		.size	lv_event_get_self_size_info, .-lv_event_get_self_size_info
 1774 0012 C046     		.section	.text.lv_event_get_hit_test_info,"ax",%progbits
 1775              		.align	2
 1776              		.global	lv_event_get_hit_test_info
 1777              		.code	16
 1778              		.thumb_func
 1779              		.type	lv_event_get_hit_test_info, %function
 1780              	lv_event_get_hit_test_info:
 1781              	.LFB183:
 379:..\..\..\arduinoLCD\test\Pain Drain\libraries\lvgl\src\core/lv_event.c ****     if(e->code == LV_EVENT_HIT_TEST) {
 1782              		.loc 1 379 0
 1783              		.cfi_startproc
 1784              		@ args = 0, pretend = 0, frame = 0
 1785              		@ frame_needed = 0, uses_anonymous_args = 0
 1786              	.LVL166:
 1787 0000 10B5     		push	{r4, lr}
 1788              		.cfi_def_cfa_offset 8
 1789              		.cfi_offset 4, -8
 1790              		.cfi_offset 14, -4
 380:..\..\..\arduinoLCD\test\Pain Drain\libraries\lvgl\src\core/lv_event.c ****         return lv_event_get_param(e);
 1791              		.loc 1 380 0
 1792 0002 037A     		ldrb	r3, [r0, #8]
 1793 0004 112B     		cmp	r3, #17
ARM GAS  C:\Users\haske\AppData\Local\Temp\ccz6azzs.s 			page 46


 1794 0006 02D1     		bne	.L138
 381:..\..\..\arduinoLCD\test\Pain Drain\libraries\lvgl\src\core/lv_event.c ****     }
 1795              		.loc 1 381 0
 1796 0008 FFF7FEFF 		bl	lv_event_get_param
 1797              	.LVL167:
 1798 000c 00E0     		b	.L137
 1799              	.LVL168:
 1800              	.L138:
 385:..\..\..\arduinoLCD\test\Pain Drain\libraries\lvgl\src\core/lv_event.c ****     }
 1801              		.loc 1 385 0
 1802 000e 0020     		movs	r0, #0
 1803              	.LVL169:
 1804              	.L137:
 387:..\..\..\arduinoLCD\test\Pain Drain\libraries\lvgl\src\core/lv_event.c **** 
 1805              		.loc 1 387 0
 1806              		@ sp needed
 1807 0010 10BD     		pop	{r4, pc}
 1808              		.cfi_endproc
 1809              	.LFE183:
 1810              		.size	lv_event_get_hit_test_info, .-lv_event_get_hit_test_info
 1811 0012 C046     		.section	.text.lv_event_get_cover_area,"ax",%progbits
 1812              		.align	2
 1813              		.global	lv_event_get_cover_area
 1814              		.code	16
 1815              		.thumb_func
 1816              		.type	lv_event_get_cover_area, %function
 1817              	lv_event_get_cover_area:
 1818              	.LFB184:
 390:..\..\..\arduinoLCD\test\Pain Drain\libraries\lvgl\src\core/lv_event.c ****     if(e->code == LV_EVENT_COVER_CHECK) {
 1819              		.loc 1 390 0
 1820              		.cfi_startproc
 1821              		@ args = 0, pretend = 0, frame = 0
 1822              		@ frame_needed = 0, uses_anonymous_args = 0
 1823              	.LVL170:
 1824 0000 10B5     		push	{r4, lr}
 1825              		.cfi_def_cfa_offset 8
 1826              		.cfi_offset 4, -8
 1827              		.cfi_offset 14, -4
 391:..\..\..\arduinoLCD\test\Pain Drain\libraries\lvgl\src\core/lv_event.c ****         lv_cover_check_info_t * p = lv_event_get_param(e);
 1828              		.loc 1 391 0
 1829 0002 037A     		ldrb	r3, [r0, #8]
 1830 0004 122B     		cmp	r3, #18
 1831 0006 03D1     		bne	.L141
 1832              	.LBB5:
 392:..\..\..\arduinoLCD\test\Pain Drain\libraries\lvgl\src\core/lv_event.c ****         return p->area;
 1833              		.loc 1 392 0
 1834 0008 FFF7FEFF 		bl	lv_event_get_param
 1835              	.LVL171:
 393:..\..\..\arduinoLCD\test\Pain Drain\libraries\lvgl\src\core/lv_event.c ****     }
 1836              		.loc 1 393 0
 1837 000c 4068     		ldr	r0, [r0, #4]
 1838              	.LVL172:
 1839 000e 00E0     		b	.L140
 1840              	.LVL173:
 1841              	.L141:
 1842              	.LBE5:
 397:..\..\..\arduinoLCD\test\Pain Drain\libraries\lvgl\src\core/lv_event.c ****     }
ARM GAS  C:\Users\haske\AppData\Local\Temp\ccz6azzs.s 			page 47


 1843              		.loc 1 397 0
 1844 0010 0020     		movs	r0, #0
 1845              	.LVL174:
 1846              	.L140:
 399:..\..\..\arduinoLCD\test\Pain Drain\libraries\lvgl\src\core/lv_event.c **** 
 1847              		.loc 1 399 0
 1848              		@ sp needed
 1849 0012 10BD     		pop	{r4, pc}
 1850              		.cfi_endproc
 1851              	.LFE184:
 1852              		.size	lv_event_get_cover_area, .-lv_event_get_cover_area
 1853              		.section	.text.lv_event_set_cover_res,"ax",%progbits
 1854              		.align	2
 1855              		.global	lv_event_set_cover_res
 1856              		.code	16
 1857              		.thumb_func
 1858              		.type	lv_event_set_cover_res, %function
 1859              	lv_event_set_cover_res:
 1860              	.LFB185:
 402:..\..\..\arduinoLCD\test\Pain Drain\libraries\lvgl\src\core/lv_event.c ****     if(e->code == LV_EVENT_COVER_CHECK) {
 1861              		.loc 1 402 0
 1862              		.cfi_startproc
 1863              		@ args = 0, pretend = 0, frame = 0
 1864              		@ frame_needed = 0, uses_anonymous_args = 0
 1865              	.LVL175:
 1866 0000 10B5     		push	{r4, lr}
 1867              		.cfi_def_cfa_offset 8
 1868              		.cfi_offset 4, -8
 1869              		.cfi_offset 14, -4
 1870 0002 0C00     		movs	r4, r1
 403:..\..\..\arduinoLCD\test\Pain Drain\libraries\lvgl\src\core/lv_event.c ****         lv_cover_check_info_t * p = lv_event_get_param(e);
 1871              		.loc 1 403 0
 1872 0004 037A     		ldrb	r3, [r0, #8]
 1873 0006 122B     		cmp	r3, #18
 1874 0008 05D1     		bne	.L142
 1875              	.LBB6:
 404:..\..\..\arduinoLCD\test\Pain Drain\libraries\lvgl\src\core/lv_event.c ****         if(res > p->res) p->res = res;  /*Save only "stronger" results*/
 1876              		.loc 1 404 0
 1877 000a FFF7FEFF 		bl	lv_event_get_param
 1878              	.LVL176:
 405:..\..\..\arduinoLCD\test\Pain Drain\libraries\lvgl\src\core/lv_event.c ****     }
 1879              		.loc 1 405 0
 1880 000e 0378     		ldrb	r3, [r0]
 1881 0010 A342     		cmp	r3, r4
 1882 0012 00D2     		bcs	.L142
 405:..\..\..\arduinoLCD\test\Pain Drain\libraries\lvgl\src\core/lv_event.c ****     }
 1883              		.loc 1 405 0 is_stmt 0 discriminator 1
 1884 0014 0470     		strb	r4, [r0]
 1885              	.LVL177:
 1886              	.L142:
 1887              	.LBE6:
 410:..\..\..\arduinoLCD\test\Pain Drain\libraries\lvgl\src\core/lv_event.c **** 
 1888              		.loc 1 410 0 is_stmt 1
 1889              		@ sp needed
 1890 0016 10BD     		pop	{r4, pc}
 1891              		.cfi_endproc
 1892              	.LFE185:
ARM GAS  C:\Users\haske\AppData\Local\Temp\ccz6azzs.s 			page 48


 1893              		.size	lv_event_set_cover_res, .-lv_event_set_cover_res
 1894              		.data
 1895              		.align	2
 1896              		.set	.LANCHOR1,. + 0
 1897              		.type	last_id.8884, %object
 1898              		.size	last_id.8884, 4
 1899              	last_id.8884:
 1900 0000 2D000000 		.word	45
 1901              		.bss
 1902              		.align	2
 1903              		.set	.LANCHOR0,. + 0
 1904              		.type	event_head, %object
 1905              		.size	event_head, 4
 1906              	event_head:
 1907 0000 00000000 		.space	4
 1908              		.text
 1909              	.Letext0:
 1910              		.file 2 "c:\\program files (x86)\\cypress\\psoc creator\\4.4\\psoc creator\\import\\gnu\\arm\\5.4.
 1911              		.file 3 "c:\\program files (x86)\\cypress\\psoc creator\\4.4\\psoc creator\\import\\gnu\\arm\\5.4.
 1912              		.file 4 "c:\\program files (x86)\\cypress\\psoc creator\\4.4\\psoc creator\\import\\gnu\\arm\\5.4.
 1913              		.file 5 "c:\\projects\\paindrain\\arduinolcd\\test\\pain drain\\libraries\\lvgl\\src\\misc\\lv_are
 1914              		.file 6 "c:\\projects\\paindrain\\arduinolcd\\test\\pain drain\\libraries\\lvgl\\src\\font\\lv_fon
 1915              		.file 7 "..\\..\\..\\arduinoLCD\\test\\Pain Drain\\libraries\\lvgl\\src\\core\\../misc/lv_types.h"
 1916              		.file 8 "..\\..\\..\\arduinoLCD\\test\\Pain Drain\\libraries\\lvgl\\src\\core\\../misc/lv_color.h"
 1917              		.file 9 "..\\..\\..\\arduinoLCD\\test\\Pain Drain\\libraries\\lvgl\\src\\core\\../misc/lv_anim.h"
 1918              		.file 10 "..\\..\\..\\arduinoLCD\\test\\Pain Drain\\libraries\\lvgl\\src\\core\\../misc/lv_txt.h"
 1919              		.file 11 "..\\..\\..\\arduinoLCD\\test\\Pain Drain\\libraries\\lvgl\\src\\core\\../misc/lv_bidi.h"
 1920              		.file 12 "..\\..\\..\\arduinoLCD\\test\\Pain Drain\\libraries\\lvgl\\src\\core\\../misc/lv_style.h
 1921              		.file 13 "c:\\projects\\paindrain\\arduinolcd\\test\\pain drain\\libraries\\lvgl\\src\\draw\\lv_im
 1922              		.file 14 "..\\..\\..\\arduinoLCD\\test\\Pain Drain\\libraries\\lvgl\\src\\core\\lv_obj.h"
 1923              		.file 15 "c:\\projects\\paindrain\\arduinolcd\\test\\pain drain\\libraries\\lvgl\\src\\draw\\lv_dr
 1924              		.file 16 "c:\\projects\\paindrain\\arduinolcd\\test\\pain drain\\libraries\\lvgl\\src\\draw\\lv_dr
 1925              		.file 17 "c:\\projects\\paindrain\\arduinolcd\\test\\pain drain\\libraries\\lvgl\\src\\draw\\lv_dr
 1926              		.file 18 "c:\\projects\\paindrain\\arduinolcd\\test\\pain drain\\libraries\\lvgl\\src\\draw\\lv_dr
 1927              		.file 19 "c:\\projects\\paindrain\\arduinolcd\\test\\pain drain\\libraries\\lvgl\\src\\draw\\lv_dr
 1928              		.file 20 "c:\\projects\\paindrain\\arduinolcd\\test\\pain drain\\libraries\\lvgl\\src\\draw\\lv_dr
 1929              		.file 21 "c:\\projects\\paindrain\\arduinolcd\\test\\pain drain\\libraries\\lvgl\\src\\draw\\lv_dr
 1930              		.file 22 "c:\\projects\\paindrain\\arduinolcd\\test\\pain drain\\libraries\\lvgl\\src\\misc\\lv_ll
 1931              		.file 23 "c:\\projects\\paindrain\\arduinolcd\\test\\pain drain\\libraries\\lvgl\\src\\misc\\lv_ti
 1932              		.file 24 "..\\..\\..\\arduinoLCD\\test\\Pain Drain\\libraries\\lvgl\\src\\core\\../hal/lv_hal_disp
 1933              		.file 25 "..\\..\\..\\arduinoLCD\\test\\Pain Drain\\libraries\\lvgl\\src\\core\\../hal/lv_hal_inde
 1934              		.file 26 "..\\..\\..\\arduinoLCD\\test\\Pain Drain\\libraries\\lvgl\\src\\core\\lv_group.h"
 1935              		.file 27 "..\\..\\..\\arduinoLCD\\test\\Pain Drain\\libraries\\lvgl\\src\\core\\lv_obj_scroll.h"
 1936              		.file 28 "..\\..\\..\\arduinoLCD\\test\\Pain Drain\\libraries\\lvgl\\src\\core\\lv_obj_style.h"
 1937              		.file 29 "..\\..\\..\\arduinoLCD\\test\\Pain Drain\\libraries\\lvgl\\src\\core\\lv_obj_draw.h"
 1938              		.file 30 "..\\..\\..\\arduinoLCD\\test\\Pain Drain\\libraries\\lvgl\\src\\core\\lv_obj_class.h"
 1939              		.file 31 "..\\..\\..\\arduinoLCD\\test\\Pain Drain\\libraries\\lvgl\\src\\core\\lv_event.h"
 1940              		.file 32 "..\\..\\..\\arduinoLCD\\test\\Pain Drain\\libraries\\lvgl\\src\\core\\lv_indev.h"
 1941              		.file 33 "..\\..\\..\\arduinoLCD\\test\\Pain Drain\\libraries\\lvgl\\src\\core\\../misc/lv_mem.h"