ARM GAS  C:\Users\haske\AppData\Local\Temp\ccVRp2Ta.s 			page 1


   1              		.syntax unified
   2              		.cpu cortex-m0plus
   3              		.fpu softvfp
   4              		.eabi_attribute 20, 1
   5              		.eabi_attribute 21, 1
   6              		.eabi_attribute 23, 3
   7              		.eabi_attribute 24, 1
   8              		.eabi_attribute 25, 1
   9              		.eabi_attribute 26, 1
  10              		.eabi_attribute 30, 1
  11              		.eabi_attribute 34, 0
  12              		.eabi_attribute 18, 4
  13              		.thumb
  14              		.syntax unified
  15              		.file	"lv_flex.c"
  16              		.text
  17              	.Ltext0:
  18              		.cfi_sections	.debug_frame
  19              		.section	.text.lv_area_get_width,"ax",%progbits
  20              		.align	2
  21              		.code	16
  22              		.thumb_func
  23              		.type	lv_area_get_width, %function
  24              	lv_area_get_width:
  25              	.LFB1:
  26              		.file 1 "c:\\projects\\paindrain\\arduinolcd\\test\\pain drain\\libraries\\lvgl\\src\\misc\\lv_are
   1:c:\projects\paindrain\arduinolcd\test\pain drain\libraries\lvgl\src\misc\lv_area.h **** /**
   2:c:\projects\paindrain\arduinolcd\test\pain drain\libraries\lvgl\src\misc\lv_area.h ****  * @file lv_area.h
   3:c:\projects\paindrain\arduinolcd\test\pain drain\libraries\lvgl\src\misc\lv_area.h ****  *
   4:c:\projects\paindrain\arduinolcd\test\pain drain\libraries\lvgl\src\misc\lv_area.h ****  */
   5:c:\projects\paindrain\arduinolcd\test\pain drain\libraries\lvgl\src\misc\lv_area.h **** 
   6:c:\projects\paindrain\arduinolcd\test\pain drain\libraries\lvgl\src\misc\lv_area.h **** #ifndef LV_AREA_H
   7:c:\projects\paindrain\arduinolcd\test\pain drain\libraries\lvgl\src\misc\lv_area.h **** #define LV_AREA_H
   8:c:\projects\paindrain\arduinolcd\test\pain drain\libraries\lvgl\src\misc\lv_area.h **** 
   9:c:\projects\paindrain\arduinolcd\test\pain drain\libraries\lvgl\src\misc\lv_area.h **** #ifdef __cplusplus
  10:c:\projects\paindrain\arduinolcd\test\pain drain\libraries\lvgl\src\misc\lv_area.h **** extern "C" {
  11:c:\projects\paindrain\arduinolcd\test\pain drain\libraries\lvgl\src\misc\lv_area.h **** #endif
  12:c:\projects\paindrain\arduinolcd\test\pain drain\libraries\lvgl\src\misc\lv_area.h **** 
  13:c:\projects\paindrain\arduinolcd\test\pain drain\libraries\lvgl\src\misc\lv_area.h **** /*********************
  14:c:\projects\paindrain\arduinolcd\test\pain drain\libraries\lvgl\src\misc\lv_area.h ****  *      INCLUDES
  15:c:\projects\paindrain\arduinolcd\test\pain drain\libraries\lvgl\src\misc\lv_area.h ****  *********************/
  16:c:\projects\paindrain\arduinolcd\test\pain drain\libraries\lvgl\src\misc\lv_area.h **** #include "../lv_conf_internal.h"
  17:c:\projects\paindrain\arduinolcd\test\pain drain\libraries\lvgl\src\misc\lv_area.h **** #include <stdbool.h>
  18:c:\projects\paindrain\arduinolcd\test\pain drain\libraries\lvgl\src\misc\lv_area.h **** #include <stdint.h>
  19:c:\projects\paindrain\arduinolcd\test\pain drain\libraries\lvgl\src\misc\lv_area.h **** 
  20:c:\projects\paindrain\arduinolcd\test\pain drain\libraries\lvgl\src\misc\lv_area.h **** /*********************
  21:c:\projects\paindrain\arduinolcd\test\pain drain\libraries\lvgl\src\misc\lv_area.h ****  *      DEFINES
  22:c:\projects\paindrain\arduinolcd\test\pain drain\libraries\lvgl\src\misc\lv_area.h ****  *********************/
  23:c:\projects\paindrain\arduinolcd\test\pain drain\libraries\lvgl\src\misc\lv_area.h **** 
  24:c:\projects\paindrain\arduinolcd\test\pain drain\libraries\lvgl\src\misc\lv_area.h **** #if LV_USE_LARGE_COORD
  25:c:\projects\paindrain\arduinolcd\test\pain drain\libraries\lvgl\src\misc\lv_area.h **** typedef int32_t lv_coord_t;
  26:c:\projects\paindrain\arduinolcd\test\pain drain\libraries\lvgl\src\misc\lv_area.h **** #else
  27:c:\projects\paindrain\arduinolcd\test\pain drain\libraries\lvgl\src\misc\lv_area.h **** typedef int16_t lv_coord_t;
  28:c:\projects\paindrain\arduinolcd\test\pain drain\libraries\lvgl\src\misc\lv_area.h **** #endif
  29:c:\projects\paindrain\arduinolcd\test\pain drain\libraries\lvgl\src\misc\lv_area.h **** 
  30:c:\projects\paindrain\arduinolcd\test\pain drain\libraries\lvgl\src\misc\lv_area.h **** /**********************
  31:c:\projects\paindrain\arduinolcd\test\pain drain\libraries\lvgl\src\misc\lv_area.h ****  *      TYPEDEFS
ARM GAS  C:\Users\haske\AppData\Local\Temp\ccVRp2Ta.s 			page 2


  32:c:\projects\paindrain\arduinolcd\test\pain drain\libraries\lvgl\src\misc\lv_area.h ****  **********************/
  33:c:\projects\paindrain\arduinolcd\test\pain drain\libraries\lvgl\src\misc\lv_area.h **** 
  34:c:\projects\paindrain\arduinolcd\test\pain drain\libraries\lvgl\src\misc\lv_area.h **** /**
  35:c:\projects\paindrain\arduinolcd\test\pain drain\libraries\lvgl\src\misc\lv_area.h ****  * Represents a point on the screen.
  36:c:\projects\paindrain\arduinolcd\test\pain drain\libraries\lvgl\src\misc\lv_area.h ****  */
  37:c:\projects\paindrain\arduinolcd\test\pain drain\libraries\lvgl\src\misc\lv_area.h **** typedef struct {
  38:c:\projects\paindrain\arduinolcd\test\pain drain\libraries\lvgl\src\misc\lv_area.h ****     lv_coord_t x;
  39:c:\projects\paindrain\arduinolcd\test\pain drain\libraries\lvgl\src\misc\lv_area.h ****     lv_coord_t y;
  40:c:\projects\paindrain\arduinolcd\test\pain drain\libraries\lvgl\src\misc\lv_area.h **** } lv_point_t;
  41:c:\projects\paindrain\arduinolcd\test\pain drain\libraries\lvgl\src\misc\lv_area.h **** 
  42:c:\projects\paindrain\arduinolcd\test\pain drain\libraries\lvgl\src\misc\lv_area.h **** /** Represents an area of the screen.*/
  43:c:\projects\paindrain\arduinolcd\test\pain drain\libraries\lvgl\src\misc\lv_area.h **** typedef struct {
  44:c:\projects\paindrain\arduinolcd\test\pain drain\libraries\lvgl\src\misc\lv_area.h ****     lv_coord_t x1;
  45:c:\projects\paindrain\arduinolcd\test\pain drain\libraries\lvgl\src\misc\lv_area.h ****     lv_coord_t y1;
  46:c:\projects\paindrain\arduinolcd\test\pain drain\libraries\lvgl\src\misc\lv_area.h ****     lv_coord_t x2;
  47:c:\projects\paindrain\arduinolcd\test\pain drain\libraries\lvgl\src\misc\lv_area.h ****     lv_coord_t y2;
  48:c:\projects\paindrain\arduinolcd\test\pain drain\libraries\lvgl\src\misc\lv_area.h **** } lv_area_t;
  49:c:\projects\paindrain\arduinolcd\test\pain drain\libraries\lvgl\src\misc\lv_area.h **** 
  50:c:\projects\paindrain\arduinolcd\test\pain drain\libraries\lvgl\src\misc\lv_area.h **** /** Alignments*/
  51:c:\projects\paindrain\arduinolcd\test\pain drain\libraries\lvgl\src\misc\lv_area.h **** enum {
  52:c:\projects\paindrain\arduinolcd\test\pain drain\libraries\lvgl\src\misc\lv_area.h ****     LV_ALIGN_DEFAULT = 0,
  53:c:\projects\paindrain\arduinolcd\test\pain drain\libraries\lvgl\src\misc\lv_area.h ****     LV_ALIGN_TOP_LEFT,
  54:c:\projects\paindrain\arduinolcd\test\pain drain\libraries\lvgl\src\misc\lv_area.h ****     LV_ALIGN_TOP_MID,
  55:c:\projects\paindrain\arduinolcd\test\pain drain\libraries\lvgl\src\misc\lv_area.h ****     LV_ALIGN_TOP_RIGHT,
  56:c:\projects\paindrain\arduinolcd\test\pain drain\libraries\lvgl\src\misc\lv_area.h ****     LV_ALIGN_BOTTOM_LEFT,
  57:c:\projects\paindrain\arduinolcd\test\pain drain\libraries\lvgl\src\misc\lv_area.h ****     LV_ALIGN_BOTTOM_MID,
  58:c:\projects\paindrain\arduinolcd\test\pain drain\libraries\lvgl\src\misc\lv_area.h ****     LV_ALIGN_BOTTOM_RIGHT,
  59:c:\projects\paindrain\arduinolcd\test\pain drain\libraries\lvgl\src\misc\lv_area.h ****     LV_ALIGN_LEFT_MID,
  60:c:\projects\paindrain\arduinolcd\test\pain drain\libraries\lvgl\src\misc\lv_area.h ****     LV_ALIGN_RIGHT_MID,
  61:c:\projects\paindrain\arduinolcd\test\pain drain\libraries\lvgl\src\misc\lv_area.h ****     LV_ALIGN_CENTER,
  62:c:\projects\paindrain\arduinolcd\test\pain drain\libraries\lvgl\src\misc\lv_area.h **** 
  63:c:\projects\paindrain\arduinolcd\test\pain drain\libraries\lvgl\src\misc\lv_area.h ****     LV_ALIGN_OUT_TOP_LEFT,
  64:c:\projects\paindrain\arduinolcd\test\pain drain\libraries\lvgl\src\misc\lv_area.h ****     LV_ALIGN_OUT_TOP_MID,
  65:c:\projects\paindrain\arduinolcd\test\pain drain\libraries\lvgl\src\misc\lv_area.h ****     LV_ALIGN_OUT_TOP_RIGHT,
  66:c:\projects\paindrain\arduinolcd\test\pain drain\libraries\lvgl\src\misc\lv_area.h ****     LV_ALIGN_OUT_BOTTOM_LEFT,
  67:c:\projects\paindrain\arduinolcd\test\pain drain\libraries\lvgl\src\misc\lv_area.h ****     LV_ALIGN_OUT_BOTTOM_MID,
  68:c:\projects\paindrain\arduinolcd\test\pain drain\libraries\lvgl\src\misc\lv_area.h ****     LV_ALIGN_OUT_BOTTOM_RIGHT,
  69:c:\projects\paindrain\arduinolcd\test\pain drain\libraries\lvgl\src\misc\lv_area.h ****     LV_ALIGN_OUT_LEFT_TOP,
  70:c:\projects\paindrain\arduinolcd\test\pain drain\libraries\lvgl\src\misc\lv_area.h ****     LV_ALIGN_OUT_LEFT_MID,
  71:c:\projects\paindrain\arduinolcd\test\pain drain\libraries\lvgl\src\misc\lv_area.h ****     LV_ALIGN_OUT_LEFT_BOTTOM,
  72:c:\projects\paindrain\arduinolcd\test\pain drain\libraries\lvgl\src\misc\lv_area.h ****     LV_ALIGN_OUT_RIGHT_TOP,
  73:c:\projects\paindrain\arduinolcd\test\pain drain\libraries\lvgl\src\misc\lv_area.h ****     LV_ALIGN_OUT_RIGHT_MID,
  74:c:\projects\paindrain\arduinolcd\test\pain drain\libraries\lvgl\src\misc\lv_area.h ****     LV_ALIGN_OUT_RIGHT_BOTTOM,
  75:c:\projects\paindrain\arduinolcd\test\pain drain\libraries\lvgl\src\misc\lv_area.h **** };
  76:c:\projects\paindrain\arduinolcd\test\pain drain\libraries\lvgl\src\misc\lv_area.h **** typedef uint8_t lv_align_t;
  77:c:\projects\paindrain\arduinolcd\test\pain drain\libraries\lvgl\src\misc\lv_area.h **** 
  78:c:\projects\paindrain\arduinolcd\test\pain drain\libraries\lvgl\src\misc\lv_area.h **** enum {
  79:c:\projects\paindrain\arduinolcd\test\pain drain\libraries\lvgl\src\misc\lv_area.h ****     LV_DIR_NONE     = 0x00,
  80:c:\projects\paindrain\arduinolcd\test\pain drain\libraries\lvgl\src\misc\lv_area.h ****     LV_DIR_LEFT     = (1 << 0),
  81:c:\projects\paindrain\arduinolcd\test\pain drain\libraries\lvgl\src\misc\lv_area.h ****     LV_DIR_RIGHT    = (1 << 1),
  82:c:\projects\paindrain\arduinolcd\test\pain drain\libraries\lvgl\src\misc\lv_area.h ****     LV_DIR_TOP      = (1 << 2),
  83:c:\projects\paindrain\arduinolcd\test\pain drain\libraries\lvgl\src\misc\lv_area.h ****     LV_DIR_BOTTOM   = (1 << 3),
  84:c:\projects\paindrain\arduinolcd\test\pain drain\libraries\lvgl\src\misc\lv_area.h ****     LV_DIR_HOR      = LV_DIR_LEFT | LV_DIR_RIGHT,
  85:c:\projects\paindrain\arduinolcd\test\pain drain\libraries\lvgl\src\misc\lv_area.h ****     LV_DIR_VER      = LV_DIR_TOP | LV_DIR_BOTTOM,
  86:c:\projects\paindrain\arduinolcd\test\pain drain\libraries\lvgl\src\misc\lv_area.h ****     LV_DIR_ALL      = LV_DIR_HOR | LV_DIR_VER,
  87:c:\projects\paindrain\arduinolcd\test\pain drain\libraries\lvgl\src\misc\lv_area.h **** };
  88:c:\projects\paindrain\arduinolcd\test\pain drain\libraries\lvgl\src\misc\lv_area.h **** 
ARM GAS  C:\Users\haske\AppData\Local\Temp\ccVRp2Ta.s 			page 3


  89:c:\projects\paindrain\arduinolcd\test\pain drain\libraries\lvgl\src\misc\lv_area.h **** typedef uint8_t lv_dir_t;
  90:c:\projects\paindrain\arduinolcd\test\pain drain\libraries\lvgl\src\misc\lv_area.h **** 
  91:c:\projects\paindrain\arduinolcd\test\pain drain\libraries\lvgl\src\misc\lv_area.h **** /**********************
  92:c:\projects\paindrain\arduinolcd\test\pain drain\libraries\lvgl\src\misc\lv_area.h ****  * GLOBAL PROTOTYPES
  93:c:\projects\paindrain\arduinolcd\test\pain drain\libraries\lvgl\src\misc\lv_area.h ****  **********************/
  94:c:\projects\paindrain\arduinolcd\test\pain drain\libraries\lvgl\src\misc\lv_area.h **** 
  95:c:\projects\paindrain\arduinolcd\test\pain drain\libraries\lvgl\src\misc\lv_area.h **** /**
  96:c:\projects\paindrain\arduinolcd\test\pain drain\libraries\lvgl\src\misc\lv_area.h ****  * Initialize an area
  97:c:\projects\paindrain\arduinolcd\test\pain drain\libraries\lvgl\src\misc\lv_area.h ****  * @param area_p pointer to an area
  98:c:\projects\paindrain\arduinolcd\test\pain drain\libraries\lvgl\src\misc\lv_area.h ****  * @param x1 left coordinate of the area
  99:c:\projects\paindrain\arduinolcd\test\pain drain\libraries\lvgl\src\misc\lv_area.h ****  * @param y1 top coordinate of the area
 100:c:\projects\paindrain\arduinolcd\test\pain drain\libraries\lvgl\src\misc\lv_area.h ****  * @param x2 right coordinate of the area
 101:c:\projects\paindrain\arduinolcd\test\pain drain\libraries\lvgl\src\misc\lv_area.h ****  * @param y2 bottom coordinate of the area
 102:c:\projects\paindrain\arduinolcd\test\pain drain\libraries\lvgl\src\misc\lv_area.h ****  */
 103:c:\projects\paindrain\arduinolcd\test\pain drain\libraries\lvgl\src\misc\lv_area.h **** void lv_area_set(lv_area_t * area_p, lv_coord_t x1, lv_coord_t y1, lv_coord_t x2, lv_coord_t y2);
 104:c:\projects\paindrain\arduinolcd\test\pain drain\libraries\lvgl\src\misc\lv_area.h **** 
 105:c:\projects\paindrain\arduinolcd\test\pain drain\libraries\lvgl\src\misc\lv_area.h **** /**
 106:c:\projects\paindrain\arduinolcd\test\pain drain\libraries\lvgl\src\misc\lv_area.h ****  * Copy an area
 107:c:\projects\paindrain\arduinolcd\test\pain drain\libraries\lvgl\src\misc\lv_area.h ****  * @param dest pointer to the destination area
 108:c:\projects\paindrain\arduinolcd\test\pain drain\libraries\lvgl\src\misc\lv_area.h ****  * @param src pointer to the source area
 109:c:\projects\paindrain\arduinolcd\test\pain drain\libraries\lvgl\src\misc\lv_area.h ****  */
 110:c:\projects\paindrain\arduinolcd\test\pain drain\libraries\lvgl\src\misc\lv_area.h **** inline static void lv_area_copy(lv_area_t * dest, const lv_area_t * src)
 111:c:\projects\paindrain\arduinolcd\test\pain drain\libraries\lvgl\src\misc\lv_area.h **** {
 112:c:\projects\paindrain\arduinolcd\test\pain drain\libraries\lvgl\src\misc\lv_area.h ****     dest->x1 = src->x1;
 113:c:\projects\paindrain\arduinolcd\test\pain drain\libraries\lvgl\src\misc\lv_area.h ****     dest->y1 = src->y1;
 114:c:\projects\paindrain\arduinolcd\test\pain drain\libraries\lvgl\src\misc\lv_area.h ****     dest->x2 = src->x2;
 115:c:\projects\paindrain\arduinolcd\test\pain drain\libraries\lvgl\src\misc\lv_area.h ****     dest->y2 = src->y2;
 116:c:\projects\paindrain\arduinolcd\test\pain drain\libraries\lvgl\src\misc\lv_area.h **** }
 117:c:\projects\paindrain\arduinolcd\test\pain drain\libraries\lvgl\src\misc\lv_area.h **** 
 118:c:\projects\paindrain\arduinolcd\test\pain drain\libraries\lvgl\src\misc\lv_area.h **** /**
 119:c:\projects\paindrain\arduinolcd\test\pain drain\libraries\lvgl\src\misc\lv_area.h ****  * Get the width of an area
 120:c:\projects\paindrain\arduinolcd\test\pain drain\libraries\lvgl\src\misc\lv_area.h ****  * @param area_p pointer to an area
 121:c:\projects\paindrain\arduinolcd\test\pain drain\libraries\lvgl\src\misc\lv_area.h ****  * @return the width of the area (if x1 == x2 -> width = 1)
 122:c:\projects\paindrain\arduinolcd\test\pain drain\libraries\lvgl\src\misc\lv_area.h ****  */
 123:c:\projects\paindrain\arduinolcd\test\pain drain\libraries\lvgl\src\misc\lv_area.h **** static inline lv_coord_t lv_area_get_width(const lv_area_t * area_p)
 124:c:\projects\paindrain\arduinolcd\test\pain drain\libraries\lvgl\src\misc\lv_area.h **** {
  27              		.loc 1 124 0
  28              		.cfi_startproc
  29              		@ args = 0, pretend = 0, frame = 0
  30              		@ frame_needed = 0, uses_anonymous_args = 0
  31              		@ link register save eliminated.
  32              	.LVL0:
 125:c:\projects\paindrain\arduinolcd\test\pain drain\libraries\lvgl\src\misc\lv_area.h ****     return (lv_coord_t)(area_p->x2 - area_p->x1 + 1);
  33              		.loc 1 125 0
  34 0000 0422     		movs	r2, #4
  35 0002 835E     		ldrsh	r3, [r0, r2]
  36 0004 0022     		movs	r2, #0
  37 0006 805E     		ldrsh	r0, [r0, r2]
  38              	.LVL1:
  39 0008 181A     		subs	r0, r3, r0
  40 000a 0130     		adds	r0, r0, #1
  41 000c 00B2     		sxth	r0, r0
 126:c:\projects\paindrain\arduinolcd\test\pain drain\libraries\lvgl\src\misc\lv_area.h **** }
  42              		.loc 1 126 0
  43              		@ sp needed
  44 000e 7047     		bx	lr
  45              		.cfi_endproc
ARM GAS  C:\Users\haske\AppData\Local\Temp\ccVRp2Ta.s 			page 4


  46              	.LFE1:
  47              		.size	lv_area_get_width, .-lv_area_get_width
  48              		.section	.text.lv_area_get_height,"ax",%progbits
  49              		.align	2
  50              		.code	16
  51              		.thumb_func
  52              		.type	lv_area_get_height, %function
  53              	lv_area_get_height:
  54              	.LFB2:
 127:c:\projects\paindrain\arduinolcd\test\pain drain\libraries\lvgl\src\misc\lv_area.h **** 
 128:c:\projects\paindrain\arduinolcd\test\pain drain\libraries\lvgl\src\misc\lv_area.h **** /**
 129:c:\projects\paindrain\arduinolcd\test\pain drain\libraries\lvgl\src\misc\lv_area.h ****  * Get the height of an area
 130:c:\projects\paindrain\arduinolcd\test\pain drain\libraries\lvgl\src\misc\lv_area.h ****  * @param area_p pointer to an area
 131:c:\projects\paindrain\arduinolcd\test\pain drain\libraries\lvgl\src\misc\lv_area.h ****  * @return the height of the area (if y1 == y2 -> height = 1)
 132:c:\projects\paindrain\arduinolcd\test\pain drain\libraries\lvgl\src\misc\lv_area.h ****  */
 133:c:\projects\paindrain\arduinolcd\test\pain drain\libraries\lvgl\src\misc\lv_area.h **** static inline lv_coord_t lv_area_get_height(const lv_area_t * area_p)
 134:c:\projects\paindrain\arduinolcd\test\pain drain\libraries\lvgl\src\misc\lv_area.h **** {
  55              		.loc 1 134 0
  56              		.cfi_startproc
  57              		@ args = 0, pretend = 0, frame = 0
  58              		@ frame_needed = 0, uses_anonymous_args = 0
  59              		@ link register save eliminated.
  60              	.LVL2:
 135:c:\projects\paindrain\arduinolcd\test\pain drain\libraries\lvgl\src\misc\lv_area.h ****     return (lv_coord_t)(area_p->y2 - area_p->y1 + 1);
  61              		.loc 1 135 0
  62 0000 0622     		movs	r2, #6
  63 0002 835E     		ldrsh	r3, [r0, r2]
  64 0004 0222     		movs	r2, #2
  65 0006 805E     		ldrsh	r0, [r0, r2]
  66              	.LVL3:
  67 0008 181A     		subs	r0, r3, r0
  68 000a 0130     		adds	r0, r0, #1
  69 000c 00B2     		sxth	r0, r0
 136:c:\projects\paindrain\arduinolcd\test\pain drain\libraries\lvgl\src\misc\lv_area.h **** }
  70              		.loc 1 136 0
  71              		@ sp needed
  72 000e 7047     		bx	lr
  73              		.cfi_endproc
  74              	.LFE2:
  75              		.size	lv_area_get_height, .-lv_area_get_height
  76              		.global	__aeabi_idiv
  77              		.section	.text.place_content,"ax",%progbits
  78              		.align	2
  79              		.code	16
  80              		.thumb_func
  81              		.type	place_content, %function
  82              	place_content:
  83              	.LFB192:
  84              		.file 2 "..\\..\\..\\arduinoLCD\\test\\Pain Drain\\libraries\\lvgl\\src\\extra\\layouts\\flex\\lv_
   1:..\..\..\arduinoLCD\test\Pain Drain\libraries\lvgl\src\extra\layouts\flex/lv_flex.c **** /**
   2:..\..\..\arduinoLCD\test\Pain Drain\libraries\lvgl\src\extra\layouts\flex/lv_flex.c ****  * @file lv_flex.c
   3:..\..\..\arduinoLCD\test\Pain Drain\libraries\lvgl\src\extra\layouts\flex/lv_flex.c ****  *
   4:..\..\..\arduinoLCD\test\Pain Drain\libraries\lvgl\src\extra\layouts\flex/lv_flex.c ****  */
   5:..\..\..\arduinoLCD\test\Pain Drain\libraries\lvgl\src\extra\layouts\flex/lv_flex.c **** 
   6:..\..\..\arduinoLCD\test\Pain Drain\libraries\lvgl\src\extra\layouts\flex/lv_flex.c **** /*********************
   7:..\..\..\arduinoLCD\test\Pain Drain\libraries\lvgl\src\extra\layouts\flex/lv_flex.c ****  *      INCLUDES
   8:..\..\..\arduinoLCD\test\Pain Drain\libraries\lvgl\src\extra\layouts\flex/lv_flex.c ****  *********************/
ARM GAS  C:\Users\haske\AppData\Local\Temp\ccVRp2Ta.s 			page 5


   9:..\..\..\arduinoLCD\test\Pain Drain\libraries\lvgl\src\extra\layouts\flex/lv_flex.c **** #include "../lv_layouts.h"
  10:..\..\..\arduinoLCD\test\Pain Drain\libraries\lvgl\src\extra\layouts\flex/lv_flex.c **** 
  11:..\..\..\arduinoLCD\test\Pain Drain\libraries\lvgl\src\extra\layouts\flex/lv_flex.c **** #if LV_USE_FLEX
  12:..\..\..\arduinoLCD\test\Pain Drain\libraries\lvgl\src\extra\layouts\flex/lv_flex.c **** 
  13:..\..\..\arduinoLCD\test\Pain Drain\libraries\lvgl\src\extra\layouts\flex/lv_flex.c **** /*********************
  14:..\..\..\arduinoLCD\test\Pain Drain\libraries\lvgl\src\extra\layouts\flex/lv_flex.c ****  *      DEFINES
  15:..\..\..\arduinoLCD\test\Pain Drain\libraries\lvgl\src\extra\layouts\flex/lv_flex.c ****  *********************/
  16:..\..\..\arduinoLCD\test\Pain Drain\libraries\lvgl\src\extra\layouts\flex/lv_flex.c **** 
  17:..\..\..\arduinoLCD\test\Pain Drain\libraries\lvgl\src\extra\layouts\flex/lv_flex.c **** /**********************
  18:..\..\..\arduinoLCD\test\Pain Drain\libraries\lvgl\src\extra\layouts\flex/lv_flex.c ****  *      TYPEDEFS
  19:..\..\..\arduinoLCD\test\Pain Drain\libraries\lvgl\src\extra\layouts\flex/lv_flex.c ****  **********************/
  20:..\..\..\arduinoLCD\test\Pain Drain\libraries\lvgl\src\extra\layouts\flex/lv_flex.c **** typedef struct {
  21:..\..\..\arduinoLCD\test\Pain Drain\libraries\lvgl\src\extra\layouts\flex/lv_flex.c ****     lv_flex_align_t main_place;
  22:..\..\..\arduinoLCD\test\Pain Drain\libraries\lvgl\src\extra\layouts\flex/lv_flex.c ****     lv_flex_align_t cross_place;
  23:..\..\..\arduinoLCD\test\Pain Drain\libraries\lvgl\src\extra\layouts\flex/lv_flex.c ****     lv_flex_align_t track_place;
  24:..\..\..\arduinoLCD\test\Pain Drain\libraries\lvgl\src\extra\layouts\flex/lv_flex.c ****     uint8_t row : 1;
  25:..\..\..\arduinoLCD\test\Pain Drain\libraries\lvgl\src\extra\layouts\flex/lv_flex.c ****     uint8_t wrap : 1;
  26:..\..\..\arduinoLCD\test\Pain Drain\libraries\lvgl\src\extra\layouts\flex/lv_flex.c ****     uint8_t rev : 1;
  27:..\..\..\arduinoLCD\test\Pain Drain\libraries\lvgl\src\extra\layouts\flex/lv_flex.c **** } flex_t;
  28:..\..\..\arduinoLCD\test\Pain Drain\libraries\lvgl\src\extra\layouts\flex/lv_flex.c **** 
  29:..\..\..\arduinoLCD\test\Pain Drain\libraries\lvgl\src\extra\layouts\flex/lv_flex.c **** typedef struct {
  30:..\..\..\arduinoLCD\test\Pain Drain\libraries\lvgl\src\extra\layouts\flex/lv_flex.c ****     lv_obj_t * item;
  31:..\..\..\arduinoLCD\test\Pain Drain\libraries\lvgl\src\extra\layouts\flex/lv_flex.c ****     lv_coord_t min_size;
  32:..\..\..\arduinoLCD\test\Pain Drain\libraries\lvgl\src\extra\layouts\flex/lv_flex.c ****     lv_coord_t max_size;
  33:..\..\..\arduinoLCD\test\Pain Drain\libraries\lvgl\src\extra\layouts\flex/lv_flex.c ****     lv_coord_t final_size;
  34:..\..\..\arduinoLCD\test\Pain Drain\libraries\lvgl\src\extra\layouts\flex/lv_flex.c ****     uint32_t grow_value;
  35:..\..\..\arduinoLCD\test\Pain Drain\libraries\lvgl\src\extra\layouts\flex/lv_flex.c ****     uint32_t clamped : 1;
  36:..\..\..\arduinoLCD\test\Pain Drain\libraries\lvgl\src\extra\layouts\flex/lv_flex.c **** } grow_dsc_t;
  37:..\..\..\arduinoLCD\test\Pain Drain\libraries\lvgl\src\extra\layouts\flex/lv_flex.c **** 
  38:..\..\..\arduinoLCD\test\Pain Drain\libraries\lvgl\src\extra\layouts\flex/lv_flex.c **** typedef struct {
  39:..\..\..\arduinoLCD\test\Pain Drain\libraries\lvgl\src\extra\layouts\flex/lv_flex.c ****     lv_coord_t track_cross_size;
  40:..\..\..\arduinoLCD\test\Pain Drain\libraries\lvgl\src\extra\layouts\flex/lv_flex.c ****     lv_coord_t track_main_size;         /*For all items*/
  41:..\..\..\arduinoLCD\test\Pain Drain\libraries\lvgl\src\extra\layouts\flex/lv_flex.c ****     lv_coord_t track_fix_main_size;     /*For non grow items*/
  42:..\..\..\arduinoLCD\test\Pain Drain\libraries\lvgl\src\extra\layouts\flex/lv_flex.c ****     uint32_t item_cnt;
  43:..\..\..\arduinoLCD\test\Pain Drain\libraries\lvgl\src\extra\layouts\flex/lv_flex.c ****     grow_dsc_t * grow_dsc;
  44:..\..\..\arduinoLCD\test\Pain Drain\libraries\lvgl\src\extra\layouts\flex/lv_flex.c ****     uint32_t grow_item_cnt;
  45:..\..\..\arduinoLCD\test\Pain Drain\libraries\lvgl\src\extra\layouts\flex/lv_flex.c ****     uint32_t grow_dsc_calc : 1;
  46:..\..\..\arduinoLCD\test\Pain Drain\libraries\lvgl\src\extra\layouts\flex/lv_flex.c **** } track_t;
  47:..\..\..\arduinoLCD\test\Pain Drain\libraries\lvgl\src\extra\layouts\flex/lv_flex.c **** 
  48:..\..\..\arduinoLCD\test\Pain Drain\libraries\lvgl\src\extra\layouts\flex/lv_flex.c **** 
  49:..\..\..\arduinoLCD\test\Pain Drain\libraries\lvgl\src\extra\layouts\flex/lv_flex.c **** /**********************
  50:..\..\..\arduinoLCD\test\Pain Drain\libraries\lvgl\src\extra\layouts\flex/lv_flex.c ****  *  GLOBAL PROTOTYPES
  51:..\..\..\arduinoLCD\test\Pain Drain\libraries\lvgl\src\extra\layouts\flex/lv_flex.c ****  **********************/
  52:..\..\..\arduinoLCD\test\Pain Drain\libraries\lvgl\src\extra\layouts\flex/lv_flex.c **** 
  53:..\..\..\arduinoLCD\test\Pain Drain\libraries\lvgl\src\extra\layouts\flex/lv_flex.c **** /**********************
  54:..\..\..\arduinoLCD\test\Pain Drain\libraries\lvgl\src\extra\layouts\flex/lv_flex.c ****  *  STATIC PROTOTYPES
  55:..\..\..\arduinoLCD\test\Pain Drain\libraries\lvgl\src\extra\layouts\flex/lv_flex.c ****  **********************/
  56:..\..\..\arduinoLCD\test\Pain Drain\libraries\lvgl\src\extra\layouts\flex/lv_flex.c **** static void flex_update(lv_obj_t * cont, void * user_data);
  57:..\..\..\arduinoLCD\test\Pain Drain\libraries\lvgl\src\extra\layouts\flex/lv_flex.c **** static int32_t find_track_end(lv_obj_t * cont, flex_t * f, int32_t item_start_id, lv_coord_t max_ma
  58:..\..\..\arduinoLCD\test\Pain Drain\libraries\lvgl\src\extra\layouts\flex/lv_flex.c ****                               lv_coord_t item_gap, track_t * t);
  59:..\..\..\arduinoLCD\test\Pain Drain\libraries\lvgl\src\extra\layouts\flex/lv_flex.c **** static void children_repos(lv_obj_t * cont, flex_t * f, int32_t item_first_id, int32_t item_last_id
  60:..\..\..\arduinoLCD\test\Pain Drain\libraries\lvgl\src\extra\layouts\flex/lv_flex.c ****                            lv_coord_t abs_y, lv_coord_t max_main_size, lv_coord_t item_gap, track_t
  61:..\..\..\arduinoLCD\test\Pain Drain\libraries\lvgl\src\extra\layouts\flex/lv_flex.c **** static void place_content(lv_flex_align_t place, lv_coord_t max_size, lv_coord_t content_size, lv_c
  62:..\..\..\arduinoLCD\test\Pain Drain\libraries\lvgl\src\extra\layouts\flex/lv_flex.c ****                           lv_coord_t * start_pos, lv_coord_t * gap);
  63:..\..\..\arduinoLCD\test\Pain Drain\libraries\lvgl\src\extra\layouts\flex/lv_flex.c **** static lv_obj_t * get_next_item(lv_obj_t * cont, bool rev, int32_t * item_id);
  64:..\..\..\arduinoLCD\test\Pain Drain\libraries\lvgl\src\extra\layouts\flex/lv_flex.c **** 
  65:..\..\..\arduinoLCD\test\Pain Drain\libraries\lvgl\src\extra\layouts\flex/lv_flex.c **** /**********************
ARM GAS  C:\Users\haske\AppData\Local\Temp\ccVRp2Ta.s 			page 6


  66:..\..\..\arduinoLCD\test\Pain Drain\libraries\lvgl\src\extra\layouts\flex/lv_flex.c ****  *  GLOBAL VARIABLES
  67:..\..\..\arduinoLCD\test\Pain Drain\libraries\lvgl\src\extra\layouts\flex/lv_flex.c ****  **********************/
  68:..\..\..\arduinoLCD\test\Pain Drain\libraries\lvgl\src\extra\layouts\flex/lv_flex.c **** uint16_t LV_LAYOUT_FLEX;
  69:..\..\..\arduinoLCD\test\Pain Drain\libraries\lvgl\src\extra\layouts\flex/lv_flex.c **** lv_style_prop_t LV_STYLE_FLEX_FLOW;
  70:..\..\..\arduinoLCD\test\Pain Drain\libraries\lvgl\src\extra\layouts\flex/lv_flex.c **** lv_style_prop_t LV_STYLE_FLEX_MAIN_PLACE;
  71:..\..\..\arduinoLCD\test\Pain Drain\libraries\lvgl\src\extra\layouts\flex/lv_flex.c **** lv_style_prop_t LV_STYLE_FLEX_CROSS_PLACE;
  72:..\..\..\arduinoLCD\test\Pain Drain\libraries\lvgl\src\extra\layouts\flex/lv_flex.c **** lv_style_prop_t LV_STYLE_FLEX_TRACK_PLACE;
  73:..\..\..\arduinoLCD\test\Pain Drain\libraries\lvgl\src\extra\layouts\flex/lv_flex.c **** lv_style_prop_t LV_STYLE_FLEX_GROW;
  74:..\..\..\arduinoLCD\test\Pain Drain\libraries\lvgl\src\extra\layouts\flex/lv_flex.c **** 
  75:..\..\..\arduinoLCD\test\Pain Drain\libraries\lvgl\src\extra\layouts\flex/lv_flex.c **** 
  76:..\..\..\arduinoLCD\test\Pain Drain\libraries\lvgl\src\extra\layouts\flex/lv_flex.c **** /**********************
  77:..\..\..\arduinoLCD\test\Pain Drain\libraries\lvgl\src\extra\layouts\flex/lv_flex.c ****  *  STATIC VARIABLES
  78:..\..\..\arduinoLCD\test\Pain Drain\libraries\lvgl\src\extra\layouts\flex/lv_flex.c ****  **********************/
  79:..\..\..\arduinoLCD\test\Pain Drain\libraries\lvgl\src\extra\layouts\flex/lv_flex.c **** 
  80:..\..\..\arduinoLCD\test\Pain Drain\libraries\lvgl\src\extra\layouts\flex/lv_flex.c **** /**********************
  81:..\..\..\arduinoLCD\test\Pain Drain\libraries\lvgl\src\extra\layouts\flex/lv_flex.c ****  *      MACROS
  82:..\..\..\arduinoLCD\test\Pain Drain\libraries\lvgl\src\extra\layouts\flex/lv_flex.c ****  **********************/
  83:..\..\..\arduinoLCD\test\Pain Drain\libraries\lvgl\src\extra\layouts\flex/lv_flex.c **** 
  84:..\..\..\arduinoLCD\test\Pain Drain\libraries\lvgl\src\extra\layouts\flex/lv_flex.c **** /**********************
  85:..\..\..\arduinoLCD\test\Pain Drain\libraries\lvgl\src\extra\layouts\flex/lv_flex.c ****  *   GLOBAL FUNCTIONS
  86:..\..\..\arduinoLCD\test\Pain Drain\libraries\lvgl\src\extra\layouts\flex/lv_flex.c ****  **********************/
  87:..\..\..\arduinoLCD\test\Pain Drain\libraries\lvgl\src\extra\layouts\flex/lv_flex.c **** 
  88:..\..\..\arduinoLCD\test\Pain Drain\libraries\lvgl\src\extra\layouts\flex/lv_flex.c **** /*=====================
  89:..\..\..\arduinoLCD\test\Pain Drain\libraries\lvgl\src\extra\layouts\flex/lv_flex.c ****  * Setter functions
  90:..\..\..\arduinoLCD\test\Pain Drain\libraries\lvgl\src\extra\layouts\flex/lv_flex.c ****  *====================*/
  91:..\..\..\arduinoLCD\test\Pain Drain\libraries\lvgl\src\extra\layouts\flex/lv_flex.c **** 
  92:..\..\..\arduinoLCD\test\Pain Drain\libraries\lvgl\src\extra\layouts\flex/lv_flex.c **** void lv_flex_init(void)
  93:..\..\..\arduinoLCD\test\Pain Drain\libraries\lvgl\src\extra\layouts\flex/lv_flex.c **** {
  94:..\..\..\arduinoLCD\test\Pain Drain\libraries\lvgl\src\extra\layouts\flex/lv_flex.c ****     LV_LAYOUT_FLEX = lv_layout_register(flex_update, NULL);
  95:..\..\..\arduinoLCD\test\Pain Drain\libraries\lvgl\src\extra\layouts\flex/lv_flex.c **** 
  96:..\..\..\arduinoLCD\test\Pain Drain\libraries\lvgl\src\extra\layouts\flex/lv_flex.c ****     LV_STYLE_FLEX_FLOW = lv_style_register_prop(LV_STYLE_PROP_FLAG_NONE);
  97:..\..\..\arduinoLCD\test\Pain Drain\libraries\lvgl\src\extra\layouts\flex/lv_flex.c ****     LV_STYLE_FLEX_MAIN_PLACE = lv_style_register_prop(LV_STYLE_PROP_LAYOUT_REFR);
  98:..\..\..\arduinoLCD\test\Pain Drain\libraries\lvgl\src\extra\layouts\flex/lv_flex.c ****     LV_STYLE_FLEX_CROSS_PLACE = lv_style_register_prop(LV_STYLE_PROP_LAYOUT_REFR);
  99:..\..\..\arduinoLCD\test\Pain Drain\libraries\lvgl\src\extra\layouts\flex/lv_flex.c ****     LV_STYLE_FLEX_TRACK_PLACE = lv_style_register_prop(LV_STYLE_PROP_LAYOUT_REFR);
 100:..\..\..\arduinoLCD\test\Pain Drain\libraries\lvgl\src\extra\layouts\flex/lv_flex.c **** }
 101:..\..\..\arduinoLCD\test\Pain Drain\libraries\lvgl\src\extra\layouts\flex/lv_flex.c **** 
 102:..\..\..\arduinoLCD\test\Pain Drain\libraries\lvgl\src\extra\layouts\flex/lv_flex.c **** void lv_obj_set_flex_flow(lv_obj_t * obj, lv_flex_flow_t flow)
 103:..\..\..\arduinoLCD\test\Pain Drain\libraries\lvgl\src\extra\layouts\flex/lv_flex.c **** {
 104:..\..\..\arduinoLCD\test\Pain Drain\libraries\lvgl\src\extra\layouts\flex/lv_flex.c ****     lv_obj_set_style_flex_flow(obj, flow, 0);
 105:..\..\..\arduinoLCD\test\Pain Drain\libraries\lvgl\src\extra\layouts\flex/lv_flex.c ****     lv_obj_set_style_layout(obj, LV_LAYOUT_FLEX, 0);
 106:..\..\..\arduinoLCD\test\Pain Drain\libraries\lvgl\src\extra\layouts\flex/lv_flex.c **** }
 107:..\..\..\arduinoLCD\test\Pain Drain\libraries\lvgl\src\extra\layouts\flex/lv_flex.c **** 
 108:..\..\..\arduinoLCD\test\Pain Drain\libraries\lvgl\src\extra\layouts\flex/lv_flex.c **** void lv_obj_set_flex_align(lv_obj_t * obj, lv_flex_align_t main_place, lv_flex_align_t cross_place,
 109:..\..\..\arduinoLCD\test\Pain Drain\libraries\lvgl\src\extra\layouts\flex/lv_flex.c ****                            lv_flex_align_t track_place)
 110:..\..\..\arduinoLCD\test\Pain Drain\libraries\lvgl\src\extra\layouts\flex/lv_flex.c **** {
 111:..\..\..\arduinoLCD\test\Pain Drain\libraries\lvgl\src\extra\layouts\flex/lv_flex.c ****     lv_obj_set_style_flex_main_place(obj, main_place, 0);
 112:..\..\..\arduinoLCD\test\Pain Drain\libraries\lvgl\src\extra\layouts\flex/lv_flex.c ****     lv_obj_set_style_flex_cross_place(obj, cross_place, 0);
 113:..\..\..\arduinoLCD\test\Pain Drain\libraries\lvgl\src\extra\layouts\flex/lv_flex.c ****     lv_obj_set_style_flex_track_place(obj, track_place, 0);
 114:..\..\..\arduinoLCD\test\Pain Drain\libraries\lvgl\src\extra\layouts\flex/lv_flex.c ****     lv_obj_set_style_layout(obj, LV_LAYOUT_FLEX, 0);
 115:..\..\..\arduinoLCD\test\Pain Drain\libraries\lvgl\src\extra\layouts\flex/lv_flex.c **** }
 116:..\..\..\arduinoLCD\test\Pain Drain\libraries\lvgl\src\extra\layouts\flex/lv_flex.c **** 
 117:..\..\..\arduinoLCD\test\Pain Drain\libraries\lvgl\src\extra\layouts\flex/lv_flex.c **** void lv_obj_set_flex_grow(lv_obj_t * obj, uint8_t grow)
 118:..\..\..\arduinoLCD\test\Pain Drain\libraries\lvgl\src\extra\layouts\flex/lv_flex.c **** {
 119:..\..\..\arduinoLCD\test\Pain Drain\libraries\lvgl\src\extra\layouts\flex/lv_flex.c ****     lv_obj_set_style_flex_grow(obj, grow, 0);
 120:..\..\..\arduinoLCD\test\Pain Drain\libraries\lvgl\src\extra\layouts\flex/lv_flex.c ****     lv_obj_mark_layout_as_dirty(lv_obj_get_parent(obj));
 121:..\..\..\arduinoLCD\test\Pain Drain\libraries\lvgl\src\extra\layouts\flex/lv_flex.c **** }
 122:..\..\..\arduinoLCD\test\Pain Drain\libraries\lvgl\src\extra\layouts\flex/lv_flex.c **** 
ARM GAS  C:\Users\haske\AppData\Local\Temp\ccVRp2Ta.s 			page 7


 123:..\..\..\arduinoLCD\test\Pain Drain\libraries\lvgl\src\extra\layouts\flex/lv_flex.c **** 
 124:..\..\..\arduinoLCD\test\Pain Drain\libraries\lvgl\src\extra\layouts\flex/lv_flex.c **** void lv_style_set_flex_flow(lv_style_t * style, lv_flex_flow_t value)
 125:..\..\..\arduinoLCD\test\Pain Drain\libraries\lvgl\src\extra\layouts\flex/lv_flex.c **** {
 126:..\..\..\arduinoLCD\test\Pain Drain\libraries\lvgl\src\extra\layouts\flex/lv_flex.c ****     lv_style_value_t v = {
 127:..\..\..\arduinoLCD\test\Pain Drain\libraries\lvgl\src\extra\layouts\flex/lv_flex.c ****         .num = (int32_t)value
 128:..\..\..\arduinoLCD\test\Pain Drain\libraries\lvgl\src\extra\layouts\flex/lv_flex.c ****     };
 129:..\..\..\arduinoLCD\test\Pain Drain\libraries\lvgl\src\extra\layouts\flex/lv_flex.c ****     lv_style_set_prop(style, LV_STYLE_FLEX_FLOW, v);
 130:..\..\..\arduinoLCD\test\Pain Drain\libraries\lvgl\src\extra\layouts\flex/lv_flex.c **** }
 131:..\..\..\arduinoLCD\test\Pain Drain\libraries\lvgl\src\extra\layouts\flex/lv_flex.c **** 
 132:..\..\..\arduinoLCD\test\Pain Drain\libraries\lvgl\src\extra\layouts\flex/lv_flex.c **** void lv_style_set_flex_main_place(lv_style_t * style, lv_flex_align_t value)
 133:..\..\..\arduinoLCD\test\Pain Drain\libraries\lvgl\src\extra\layouts\flex/lv_flex.c **** {
 134:..\..\..\arduinoLCD\test\Pain Drain\libraries\lvgl\src\extra\layouts\flex/lv_flex.c ****     lv_style_value_t v = {
 135:..\..\..\arduinoLCD\test\Pain Drain\libraries\lvgl\src\extra\layouts\flex/lv_flex.c ****         .num = (int32_t)value
 136:..\..\..\arduinoLCD\test\Pain Drain\libraries\lvgl\src\extra\layouts\flex/lv_flex.c ****     };
 137:..\..\..\arduinoLCD\test\Pain Drain\libraries\lvgl\src\extra\layouts\flex/lv_flex.c ****     lv_style_set_prop(style, LV_STYLE_FLEX_MAIN_PLACE, v);
 138:..\..\..\arduinoLCD\test\Pain Drain\libraries\lvgl\src\extra\layouts\flex/lv_flex.c **** }
 139:..\..\..\arduinoLCD\test\Pain Drain\libraries\lvgl\src\extra\layouts\flex/lv_flex.c **** 
 140:..\..\..\arduinoLCD\test\Pain Drain\libraries\lvgl\src\extra\layouts\flex/lv_flex.c **** void lv_style_set_flex_cross_place(lv_style_t * style, lv_flex_align_t value)
 141:..\..\..\arduinoLCD\test\Pain Drain\libraries\lvgl\src\extra\layouts\flex/lv_flex.c **** {
 142:..\..\..\arduinoLCD\test\Pain Drain\libraries\lvgl\src\extra\layouts\flex/lv_flex.c ****     lv_style_value_t v = {
 143:..\..\..\arduinoLCD\test\Pain Drain\libraries\lvgl\src\extra\layouts\flex/lv_flex.c ****         .num = (int32_t)value
 144:..\..\..\arduinoLCD\test\Pain Drain\libraries\lvgl\src\extra\layouts\flex/lv_flex.c ****     };
 145:..\..\..\arduinoLCD\test\Pain Drain\libraries\lvgl\src\extra\layouts\flex/lv_flex.c ****     lv_style_set_prop(style, LV_STYLE_FLEX_CROSS_PLACE, v);
 146:..\..\..\arduinoLCD\test\Pain Drain\libraries\lvgl\src\extra\layouts\flex/lv_flex.c **** }
 147:..\..\..\arduinoLCD\test\Pain Drain\libraries\lvgl\src\extra\layouts\flex/lv_flex.c **** 
 148:..\..\..\arduinoLCD\test\Pain Drain\libraries\lvgl\src\extra\layouts\flex/lv_flex.c **** void lv_style_set_flex_track_place(lv_style_t * style, lv_flex_align_t value)
 149:..\..\..\arduinoLCD\test\Pain Drain\libraries\lvgl\src\extra\layouts\flex/lv_flex.c **** {
 150:..\..\..\arduinoLCD\test\Pain Drain\libraries\lvgl\src\extra\layouts\flex/lv_flex.c ****     lv_style_value_t v = {
 151:..\..\..\arduinoLCD\test\Pain Drain\libraries\lvgl\src\extra\layouts\flex/lv_flex.c ****         .num = (int32_t)value
 152:..\..\..\arduinoLCD\test\Pain Drain\libraries\lvgl\src\extra\layouts\flex/lv_flex.c ****     };
 153:..\..\..\arduinoLCD\test\Pain Drain\libraries\lvgl\src\extra\layouts\flex/lv_flex.c ****     lv_style_set_prop(style, LV_STYLE_FLEX_TRACK_PLACE, v);
 154:..\..\..\arduinoLCD\test\Pain Drain\libraries\lvgl\src\extra\layouts\flex/lv_flex.c **** }
 155:..\..\..\arduinoLCD\test\Pain Drain\libraries\lvgl\src\extra\layouts\flex/lv_flex.c **** 
 156:..\..\..\arduinoLCD\test\Pain Drain\libraries\lvgl\src\extra\layouts\flex/lv_flex.c **** void lv_style_set_flex_grow(lv_style_t * style, uint8_t value)
 157:..\..\..\arduinoLCD\test\Pain Drain\libraries\lvgl\src\extra\layouts\flex/lv_flex.c **** {
 158:..\..\..\arduinoLCD\test\Pain Drain\libraries\lvgl\src\extra\layouts\flex/lv_flex.c ****     lv_style_value_t v = {
 159:..\..\..\arduinoLCD\test\Pain Drain\libraries\lvgl\src\extra\layouts\flex/lv_flex.c ****         .num = (int32_t)value
 160:..\..\..\arduinoLCD\test\Pain Drain\libraries\lvgl\src\extra\layouts\flex/lv_flex.c ****     };
 161:..\..\..\arduinoLCD\test\Pain Drain\libraries\lvgl\src\extra\layouts\flex/lv_flex.c ****     lv_style_set_prop(style, LV_STYLE_FLEX_GROW, v);
 162:..\..\..\arduinoLCD\test\Pain Drain\libraries\lvgl\src\extra\layouts\flex/lv_flex.c **** }
 163:..\..\..\arduinoLCD\test\Pain Drain\libraries\lvgl\src\extra\layouts\flex/lv_flex.c **** 
 164:..\..\..\arduinoLCD\test\Pain Drain\libraries\lvgl\src\extra\layouts\flex/lv_flex.c **** 
 165:..\..\..\arduinoLCD\test\Pain Drain\libraries\lvgl\src\extra\layouts\flex/lv_flex.c **** void lv_obj_set_style_flex_flow(lv_obj_t * obj, lv_flex_flow_t value, lv_style_selector_t selector)
 166:..\..\..\arduinoLCD\test\Pain Drain\libraries\lvgl\src\extra\layouts\flex/lv_flex.c **** {
 167:..\..\..\arduinoLCD\test\Pain Drain\libraries\lvgl\src\extra\layouts\flex/lv_flex.c ****     lv_style_value_t v = {
 168:..\..\..\arduinoLCD\test\Pain Drain\libraries\lvgl\src\extra\layouts\flex/lv_flex.c ****         .num = (int32_t) value
 169:..\..\..\arduinoLCD\test\Pain Drain\libraries\lvgl\src\extra\layouts\flex/lv_flex.c ****     };
 170:..\..\..\arduinoLCD\test\Pain Drain\libraries\lvgl\src\extra\layouts\flex/lv_flex.c ****     lv_obj_set_local_style_prop(obj, LV_STYLE_FLEX_FLOW, v, selector);
 171:..\..\..\arduinoLCD\test\Pain Drain\libraries\lvgl\src\extra\layouts\flex/lv_flex.c **** }
 172:..\..\..\arduinoLCD\test\Pain Drain\libraries\lvgl\src\extra\layouts\flex/lv_flex.c **** 
 173:..\..\..\arduinoLCD\test\Pain Drain\libraries\lvgl\src\extra\layouts\flex/lv_flex.c **** void lv_obj_set_style_flex_main_place(lv_obj_t * obj, lv_flex_align_t value, lv_style_selector_t se
 174:..\..\..\arduinoLCD\test\Pain Drain\libraries\lvgl\src\extra\layouts\flex/lv_flex.c **** {
 175:..\..\..\arduinoLCD\test\Pain Drain\libraries\lvgl\src\extra\layouts\flex/lv_flex.c ****     lv_style_value_t v = {
 176:..\..\..\arduinoLCD\test\Pain Drain\libraries\lvgl\src\extra\layouts\flex/lv_flex.c ****         .num = (int32_t) value
 177:..\..\..\arduinoLCD\test\Pain Drain\libraries\lvgl\src\extra\layouts\flex/lv_flex.c ****     };
 178:..\..\..\arduinoLCD\test\Pain Drain\libraries\lvgl\src\extra\layouts\flex/lv_flex.c ****     lv_obj_set_local_style_prop(obj, LV_STYLE_FLEX_MAIN_PLACE, v, selector);
 179:..\..\..\arduinoLCD\test\Pain Drain\libraries\lvgl\src\extra\layouts\flex/lv_flex.c **** }
ARM GAS  C:\Users\haske\AppData\Local\Temp\ccVRp2Ta.s 			page 8


 180:..\..\..\arduinoLCD\test\Pain Drain\libraries\lvgl\src\extra\layouts\flex/lv_flex.c **** 
 181:..\..\..\arduinoLCD\test\Pain Drain\libraries\lvgl\src\extra\layouts\flex/lv_flex.c **** void lv_obj_set_style_flex_cross_place(lv_obj_t * obj, lv_flex_align_t value, lv_style_selector_t s
 182:..\..\..\arduinoLCD\test\Pain Drain\libraries\lvgl\src\extra\layouts\flex/lv_flex.c **** {
 183:..\..\..\arduinoLCD\test\Pain Drain\libraries\lvgl\src\extra\layouts\flex/lv_flex.c ****     lv_style_value_t v = {
 184:..\..\..\arduinoLCD\test\Pain Drain\libraries\lvgl\src\extra\layouts\flex/lv_flex.c ****         .num = (int32_t) value
 185:..\..\..\arduinoLCD\test\Pain Drain\libraries\lvgl\src\extra\layouts\flex/lv_flex.c ****     };
 186:..\..\..\arduinoLCD\test\Pain Drain\libraries\lvgl\src\extra\layouts\flex/lv_flex.c ****     lv_obj_set_local_style_prop(obj, LV_STYLE_FLEX_CROSS_PLACE, v, selector);
 187:..\..\..\arduinoLCD\test\Pain Drain\libraries\lvgl\src\extra\layouts\flex/lv_flex.c **** }
 188:..\..\..\arduinoLCD\test\Pain Drain\libraries\lvgl\src\extra\layouts\flex/lv_flex.c **** 
 189:..\..\..\arduinoLCD\test\Pain Drain\libraries\lvgl\src\extra\layouts\flex/lv_flex.c **** void lv_obj_set_style_flex_track_place(lv_obj_t * obj, lv_flex_align_t value, lv_style_selector_t s
 190:..\..\..\arduinoLCD\test\Pain Drain\libraries\lvgl\src\extra\layouts\flex/lv_flex.c **** {
 191:..\..\..\arduinoLCD\test\Pain Drain\libraries\lvgl\src\extra\layouts\flex/lv_flex.c ****     lv_style_value_t v = {
 192:..\..\..\arduinoLCD\test\Pain Drain\libraries\lvgl\src\extra\layouts\flex/lv_flex.c ****         .num = (int32_t) value
 193:..\..\..\arduinoLCD\test\Pain Drain\libraries\lvgl\src\extra\layouts\flex/lv_flex.c ****     };
 194:..\..\..\arduinoLCD\test\Pain Drain\libraries\lvgl\src\extra\layouts\flex/lv_flex.c ****     lv_obj_set_local_style_prop(obj, LV_STYLE_FLEX_TRACK_PLACE, v, selector);
 195:..\..\..\arduinoLCD\test\Pain Drain\libraries\lvgl\src\extra\layouts\flex/lv_flex.c **** }
 196:..\..\..\arduinoLCD\test\Pain Drain\libraries\lvgl\src\extra\layouts\flex/lv_flex.c **** 
 197:..\..\..\arduinoLCD\test\Pain Drain\libraries\lvgl\src\extra\layouts\flex/lv_flex.c **** void lv_obj_set_style_flex_grow(lv_obj_t * obj, uint8_t value, lv_style_selector_t selector)
 198:..\..\..\arduinoLCD\test\Pain Drain\libraries\lvgl\src\extra\layouts\flex/lv_flex.c **** {
 199:..\..\..\arduinoLCD\test\Pain Drain\libraries\lvgl\src\extra\layouts\flex/lv_flex.c ****     lv_style_value_t v = {
 200:..\..\..\arduinoLCD\test\Pain Drain\libraries\lvgl\src\extra\layouts\flex/lv_flex.c ****         .num = (int32_t) value
 201:..\..\..\arduinoLCD\test\Pain Drain\libraries\lvgl\src\extra\layouts\flex/lv_flex.c ****     };
 202:..\..\..\arduinoLCD\test\Pain Drain\libraries\lvgl\src\extra\layouts\flex/lv_flex.c ****     lv_obj_set_local_style_prop(obj, LV_STYLE_FLEX_GROW, v, selector);
 203:..\..\..\arduinoLCD\test\Pain Drain\libraries\lvgl\src\extra\layouts\flex/lv_flex.c **** }
 204:..\..\..\arduinoLCD\test\Pain Drain\libraries\lvgl\src\extra\layouts\flex/lv_flex.c **** 
 205:..\..\..\arduinoLCD\test\Pain Drain\libraries\lvgl\src\extra\layouts\flex/lv_flex.c **** /**********************
 206:..\..\..\arduinoLCD\test\Pain Drain\libraries\lvgl\src\extra\layouts\flex/lv_flex.c ****  *   STATIC FUNCTIONS
 207:..\..\..\arduinoLCD\test\Pain Drain\libraries\lvgl\src\extra\layouts\flex/lv_flex.c ****  **********************/
 208:..\..\..\arduinoLCD\test\Pain Drain\libraries\lvgl\src\extra\layouts\flex/lv_flex.c **** 
 209:..\..\..\arduinoLCD\test\Pain Drain\libraries\lvgl\src\extra\layouts\flex/lv_flex.c **** static void flex_update(lv_obj_t * cont, void * user_data)
 210:..\..\..\arduinoLCD\test\Pain Drain\libraries\lvgl\src\extra\layouts\flex/lv_flex.c **** {
 211:..\..\..\arduinoLCD\test\Pain Drain\libraries\lvgl\src\extra\layouts\flex/lv_flex.c ****     LV_LOG_INFO("update %p container", (void *)cont);
 212:..\..\..\arduinoLCD\test\Pain Drain\libraries\lvgl\src\extra\layouts\flex/lv_flex.c ****     LV_UNUSED(user_data);
 213:..\..\..\arduinoLCD\test\Pain Drain\libraries\lvgl\src\extra\layouts\flex/lv_flex.c **** 
 214:..\..\..\arduinoLCD\test\Pain Drain\libraries\lvgl\src\extra\layouts\flex/lv_flex.c ****     flex_t f;
 215:..\..\..\arduinoLCD\test\Pain Drain\libraries\lvgl\src\extra\layouts\flex/lv_flex.c ****     lv_flex_flow_t flow = lv_obj_get_style_flex_flow(cont, LV_PART_MAIN);
 216:..\..\..\arduinoLCD\test\Pain Drain\libraries\lvgl\src\extra\layouts\flex/lv_flex.c ****     f.row = flow & _LV_FLEX_COLUMN ? 0 : 1;
 217:..\..\..\arduinoLCD\test\Pain Drain\libraries\lvgl\src\extra\layouts\flex/lv_flex.c ****     f.wrap = flow & _LV_FLEX_WRAP ? 1 : 0;
 218:..\..\..\arduinoLCD\test\Pain Drain\libraries\lvgl\src\extra\layouts\flex/lv_flex.c ****     f.rev = flow & _LV_FLEX_REVERSE ? 1 : 0;
 219:..\..\..\arduinoLCD\test\Pain Drain\libraries\lvgl\src\extra\layouts\flex/lv_flex.c ****     f.main_place = lv_obj_get_style_flex_main_place(cont, LV_PART_MAIN);
 220:..\..\..\arduinoLCD\test\Pain Drain\libraries\lvgl\src\extra\layouts\flex/lv_flex.c ****     f.cross_place = lv_obj_get_style_flex_cross_place(cont, LV_PART_MAIN);
 221:..\..\..\arduinoLCD\test\Pain Drain\libraries\lvgl\src\extra\layouts\flex/lv_flex.c ****     f.track_place = lv_obj_get_style_flex_track_place(cont, LV_PART_MAIN);
 222:..\..\..\arduinoLCD\test\Pain Drain\libraries\lvgl\src\extra\layouts\flex/lv_flex.c **** 
 223:..\..\..\arduinoLCD\test\Pain Drain\libraries\lvgl\src\extra\layouts\flex/lv_flex.c ****     bool rtl = lv_obj_get_style_base_dir(cont, LV_PART_MAIN) == LV_BASE_DIR_RTL ? true : false;
 224:..\..\..\arduinoLCD\test\Pain Drain\libraries\lvgl\src\extra\layouts\flex/lv_flex.c ****     lv_coord_t track_gap = !f.row ? lv_obj_get_style_pad_column(cont, LV_PART_MAIN) : lv_obj_get_st
 225:..\..\..\arduinoLCD\test\Pain Drain\libraries\lvgl\src\extra\layouts\flex/lv_flex.c ****                                                                                                    
 226:..\..\..\arduinoLCD\test\Pain Drain\libraries\lvgl\src\extra\layouts\flex/lv_flex.c ****     lv_coord_t item_gap = f.row ? lv_obj_get_style_pad_column(cont, LV_PART_MAIN) : lv_obj_get_styl
 227:..\..\..\arduinoLCD\test\Pain Drain\libraries\lvgl\src\extra\layouts\flex/lv_flex.c ****                                                                                                    
 228:..\..\..\arduinoLCD\test\Pain Drain\libraries\lvgl\src\extra\layouts\flex/lv_flex.c ****     lv_coord_t max_main_size = (f.row ? lv_obj_get_content_width(cont) : lv_obj_get_content_height(
 229:..\..\..\arduinoLCD\test\Pain Drain\libraries\lvgl\src\extra\layouts\flex/lv_flex.c ****     lv_coord_t border_width = lv_obj_get_style_border_width(cont, LV_PART_MAIN);
 230:..\..\..\arduinoLCD\test\Pain Drain\libraries\lvgl\src\extra\layouts\flex/lv_flex.c ****     lv_coord_t abs_y = cont->coords.y1 + lv_obj_get_style_pad_top(cont,
 231:..\..\..\arduinoLCD\test\Pain Drain\libraries\lvgl\src\extra\layouts\flex/lv_flex.c ****                                                                   LV_PART_MAIN) + border_width - lv
 232:..\..\..\arduinoLCD\test\Pain Drain\libraries\lvgl\src\extra\layouts\flex/lv_flex.c ****     lv_coord_t abs_x = cont->coords.x1 + lv_obj_get_style_pad_left(cont,
 233:..\..\..\arduinoLCD\test\Pain Drain\libraries\lvgl\src\extra\layouts\flex/lv_flex.c ****                                                                    LV_PART_MAIN) + border_width - l
 234:..\..\..\arduinoLCD\test\Pain Drain\libraries\lvgl\src\extra\layouts\flex/lv_flex.c **** 
 235:..\..\..\arduinoLCD\test\Pain Drain\libraries\lvgl\src\extra\layouts\flex/lv_flex.c ****     lv_flex_align_t track_cross_place = f.track_place;
 236:..\..\..\arduinoLCD\test\Pain Drain\libraries\lvgl\src\extra\layouts\flex/lv_flex.c ****     lv_coord_t * cross_pos = (f.row ? &abs_y : &abs_x);
ARM GAS  C:\Users\haske\AppData\Local\Temp\ccVRp2Ta.s 			page 9


 237:..\..\..\arduinoLCD\test\Pain Drain\libraries\lvgl\src\extra\layouts\flex/lv_flex.c **** 
 238:..\..\..\arduinoLCD\test\Pain Drain\libraries\lvgl\src\extra\layouts\flex/lv_flex.c ****     lv_coord_t w_set = lv_obj_get_style_width(cont, LV_PART_MAIN);
 239:..\..\..\arduinoLCD\test\Pain Drain\libraries\lvgl\src\extra\layouts\flex/lv_flex.c ****     lv_coord_t h_set = lv_obj_get_style_height(cont, LV_PART_MAIN);
 240:..\..\..\arduinoLCD\test\Pain Drain\libraries\lvgl\src\extra\layouts\flex/lv_flex.c **** 
 241:..\..\..\arduinoLCD\test\Pain Drain\libraries\lvgl\src\extra\layouts\flex/lv_flex.c ****     /*Content sized objects should squeezed the gap between the children, therefore any alignment w
 242:..\..\..\arduinoLCD\test\Pain Drain\libraries\lvgl\src\extra\layouts\flex/lv_flex.c ****     if((f.row && h_set == LV_SIZE_CONTENT && cont->h_layout == 0) ||
 243:..\..\..\arduinoLCD\test\Pain Drain\libraries\lvgl\src\extra\layouts\flex/lv_flex.c ****        (!f.row && w_set == LV_SIZE_CONTENT && cont->w_layout == 0)) {
 244:..\..\..\arduinoLCD\test\Pain Drain\libraries\lvgl\src\extra\layouts\flex/lv_flex.c ****         track_cross_place = LV_FLEX_ALIGN_START;
 245:..\..\..\arduinoLCD\test\Pain Drain\libraries\lvgl\src\extra\layouts\flex/lv_flex.c ****     }
 246:..\..\..\arduinoLCD\test\Pain Drain\libraries\lvgl\src\extra\layouts\flex/lv_flex.c **** 
 247:..\..\..\arduinoLCD\test\Pain Drain\libraries\lvgl\src\extra\layouts\flex/lv_flex.c ****     if(rtl && !f.row) {
 248:..\..\..\arduinoLCD\test\Pain Drain\libraries\lvgl\src\extra\layouts\flex/lv_flex.c ****         if(track_cross_place == LV_FLEX_ALIGN_START) track_cross_place = LV_FLEX_ALIGN_END;
 249:..\..\..\arduinoLCD\test\Pain Drain\libraries\lvgl\src\extra\layouts\flex/lv_flex.c ****         else if(track_cross_place == LV_FLEX_ALIGN_END) track_cross_place = LV_FLEX_ALIGN_START;
 250:..\..\..\arduinoLCD\test\Pain Drain\libraries\lvgl\src\extra\layouts\flex/lv_flex.c ****     }
 251:..\..\..\arduinoLCD\test\Pain Drain\libraries\lvgl\src\extra\layouts\flex/lv_flex.c **** 
 252:..\..\..\arduinoLCD\test\Pain Drain\libraries\lvgl\src\extra\layouts\flex/lv_flex.c ****     lv_coord_t total_track_cross_size = 0;
 253:..\..\..\arduinoLCD\test\Pain Drain\libraries\lvgl\src\extra\layouts\flex/lv_flex.c ****     lv_coord_t gap = 0;
 254:..\..\..\arduinoLCD\test\Pain Drain\libraries\lvgl\src\extra\layouts\flex/lv_flex.c ****     uint32_t track_cnt = 0;
 255:..\..\..\arduinoLCD\test\Pain Drain\libraries\lvgl\src\extra\layouts\flex/lv_flex.c ****     int32_t track_first_item;
 256:..\..\..\arduinoLCD\test\Pain Drain\libraries\lvgl\src\extra\layouts\flex/lv_flex.c ****     int32_t next_track_first_item;
 257:..\..\..\arduinoLCD\test\Pain Drain\libraries\lvgl\src\extra\layouts\flex/lv_flex.c **** 
 258:..\..\..\arduinoLCD\test\Pain Drain\libraries\lvgl\src\extra\layouts\flex/lv_flex.c ****     if(track_cross_place != LV_FLEX_ALIGN_START) {
 259:..\..\..\arduinoLCD\test\Pain Drain\libraries\lvgl\src\extra\layouts\flex/lv_flex.c ****         track_first_item = f.rev ? cont->spec_attr->child_cnt - 1 : 0;
 260:..\..\..\arduinoLCD\test\Pain Drain\libraries\lvgl\src\extra\layouts\flex/lv_flex.c ****         track_t t;
 261:..\..\..\arduinoLCD\test\Pain Drain\libraries\lvgl\src\extra\layouts\flex/lv_flex.c ****         while(track_first_item < (int32_t)cont->spec_attr->child_cnt && track_first_item >= 0) {
 262:..\..\..\arduinoLCD\test\Pain Drain\libraries\lvgl\src\extra\layouts\flex/lv_flex.c ****             /*Search the first item of the next row*/
 263:..\..\..\arduinoLCD\test\Pain Drain\libraries\lvgl\src\extra\layouts\flex/lv_flex.c ****             t.grow_dsc_calc = 0;
 264:..\..\..\arduinoLCD\test\Pain Drain\libraries\lvgl\src\extra\layouts\flex/lv_flex.c ****             next_track_first_item = find_track_end(cont, &f, track_first_item, max_main_size, item_
 265:..\..\..\arduinoLCD\test\Pain Drain\libraries\lvgl\src\extra\layouts\flex/lv_flex.c ****             total_track_cross_size += t.track_cross_size + track_gap;
 266:..\..\..\arduinoLCD\test\Pain Drain\libraries\lvgl\src\extra\layouts\flex/lv_flex.c ****             track_cnt++;
 267:..\..\..\arduinoLCD\test\Pain Drain\libraries\lvgl\src\extra\layouts\flex/lv_flex.c ****             track_first_item = next_track_first_item;
 268:..\..\..\arduinoLCD\test\Pain Drain\libraries\lvgl\src\extra\layouts\flex/lv_flex.c ****         }
 269:..\..\..\arduinoLCD\test\Pain Drain\libraries\lvgl\src\extra\layouts\flex/lv_flex.c **** 
 270:..\..\..\arduinoLCD\test\Pain Drain\libraries\lvgl\src\extra\layouts\flex/lv_flex.c ****         if(track_cnt) total_track_cross_size -= track_gap;   /*No gap after the last track*/
 271:..\..\..\arduinoLCD\test\Pain Drain\libraries\lvgl\src\extra\layouts\flex/lv_flex.c **** 
 272:..\..\..\arduinoLCD\test\Pain Drain\libraries\lvgl\src\extra\layouts\flex/lv_flex.c ****         /*Place the tracks to get the start position*/
 273:..\..\..\arduinoLCD\test\Pain Drain\libraries\lvgl\src\extra\layouts\flex/lv_flex.c ****         lv_coord_t max_cross_size = (f.row ? lv_obj_get_content_height(cont) : lv_obj_get_content_w
 274:..\..\..\arduinoLCD\test\Pain Drain\libraries\lvgl\src\extra\layouts\flex/lv_flex.c ****         place_content(track_cross_place, max_cross_size, total_track_cross_size, track_cnt, cross_p
 275:..\..\..\arduinoLCD\test\Pain Drain\libraries\lvgl\src\extra\layouts\flex/lv_flex.c ****     }
 276:..\..\..\arduinoLCD\test\Pain Drain\libraries\lvgl\src\extra\layouts\flex/lv_flex.c **** 
 277:..\..\..\arduinoLCD\test\Pain Drain\libraries\lvgl\src\extra\layouts\flex/lv_flex.c ****     track_first_item = f.rev ? cont->spec_attr->child_cnt - 1 : 0;
 278:..\..\..\arduinoLCD\test\Pain Drain\libraries\lvgl\src\extra\layouts\flex/lv_flex.c **** 
 279:..\..\..\arduinoLCD\test\Pain Drain\libraries\lvgl\src\extra\layouts\flex/lv_flex.c ****     if(rtl && !f.row) {
 280:..\..\..\arduinoLCD\test\Pain Drain\libraries\lvgl\src\extra\layouts\flex/lv_flex.c ****         *cross_pos += total_track_cross_size;
 281:..\..\..\arduinoLCD\test\Pain Drain\libraries\lvgl\src\extra\layouts\flex/lv_flex.c ****     }
 282:..\..\..\arduinoLCD\test\Pain Drain\libraries\lvgl\src\extra\layouts\flex/lv_flex.c **** 
 283:..\..\..\arduinoLCD\test\Pain Drain\libraries\lvgl\src\extra\layouts\flex/lv_flex.c ****     while(track_first_item < (int32_t)cont->spec_attr->child_cnt && track_first_item >= 0) {
 284:..\..\..\arduinoLCD\test\Pain Drain\libraries\lvgl\src\extra\layouts\flex/lv_flex.c ****         track_t t;
 285:..\..\..\arduinoLCD\test\Pain Drain\libraries\lvgl\src\extra\layouts\flex/lv_flex.c ****         t.grow_dsc_calc = 1;
 286:..\..\..\arduinoLCD\test\Pain Drain\libraries\lvgl\src\extra\layouts\flex/lv_flex.c ****         /*Search the first item of the next row*/
 287:..\..\..\arduinoLCD\test\Pain Drain\libraries\lvgl\src\extra\layouts\flex/lv_flex.c ****         next_track_first_item = find_track_end(cont, &f, track_first_item, max_main_size, item_gap,
 288:..\..\..\arduinoLCD\test\Pain Drain\libraries\lvgl\src\extra\layouts\flex/lv_flex.c **** 
 289:..\..\..\arduinoLCD\test\Pain Drain\libraries\lvgl\src\extra\layouts\flex/lv_flex.c ****         if(rtl && !f.row) {
 290:..\..\..\arduinoLCD\test\Pain Drain\libraries\lvgl\src\extra\layouts\flex/lv_flex.c ****             *cross_pos -= t.track_cross_size;
 291:..\..\..\arduinoLCD\test\Pain Drain\libraries\lvgl\src\extra\layouts\flex/lv_flex.c ****         }
 292:..\..\..\arduinoLCD\test\Pain Drain\libraries\lvgl\src\extra\layouts\flex/lv_flex.c ****         children_repos(cont, &f, track_first_item, next_track_first_item, abs_x, abs_y, max_main_si
 293:..\..\..\arduinoLCD\test\Pain Drain\libraries\lvgl\src\extra\layouts\flex/lv_flex.c ****         track_first_item = next_track_first_item;
ARM GAS  C:\Users\haske\AppData\Local\Temp\ccVRp2Ta.s 			page 10


 294:..\..\..\arduinoLCD\test\Pain Drain\libraries\lvgl\src\extra\layouts\flex/lv_flex.c ****         lv_mem_buf_release(t.grow_dsc);
 295:..\..\..\arduinoLCD\test\Pain Drain\libraries\lvgl\src\extra\layouts\flex/lv_flex.c ****         t.grow_dsc = NULL;
 296:..\..\..\arduinoLCD\test\Pain Drain\libraries\lvgl\src\extra\layouts\flex/lv_flex.c ****         if(rtl && !f.row) {
 297:..\..\..\arduinoLCD\test\Pain Drain\libraries\lvgl\src\extra\layouts\flex/lv_flex.c ****             *cross_pos -= gap + track_gap;
 298:..\..\..\arduinoLCD\test\Pain Drain\libraries\lvgl\src\extra\layouts\flex/lv_flex.c ****         }
 299:..\..\..\arduinoLCD\test\Pain Drain\libraries\lvgl\src\extra\layouts\flex/lv_flex.c ****         else {
 300:..\..\..\arduinoLCD\test\Pain Drain\libraries\lvgl\src\extra\layouts\flex/lv_flex.c ****             *cross_pos += t.track_cross_size + gap + track_gap;
 301:..\..\..\arduinoLCD\test\Pain Drain\libraries\lvgl\src\extra\layouts\flex/lv_flex.c ****         }
 302:..\..\..\arduinoLCD\test\Pain Drain\libraries\lvgl\src\extra\layouts\flex/lv_flex.c ****     }
 303:..\..\..\arduinoLCD\test\Pain Drain\libraries\lvgl\src\extra\layouts\flex/lv_flex.c ****     LV_ASSERT_MEM_INTEGRITY();
 304:..\..\..\arduinoLCD\test\Pain Drain\libraries\lvgl\src\extra\layouts\flex/lv_flex.c **** 
 305:..\..\..\arduinoLCD\test\Pain Drain\libraries\lvgl\src\extra\layouts\flex/lv_flex.c ****     if(w_set == LV_SIZE_CONTENT || h_set == LV_SIZE_CONTENT) {
 306:..\..\..\arduinoLCD\test\Pain Drain\libraries\lvgl\src\extra\layouts\flex/lv_flex.c ****         lv_obj_refr_size(cont);
 307:..\..\..\arduinoLCD\test\Pain Drain\libraries\lvgl\src\extra\layouts\flex/lv_flex.c ****     }
 308:..\..\..\arduinoLCD\test\Pain Drain\libraries\lvgl\src\extra\layouts\flex/lv_flex.c **** 
 309:..\..\..\arduinoLCD\test\Pain Drain\libraries\lvgl\src\extra\layouts\flex/lv_flex.c ****     lv_event_send(cont, LV_EVENT_LAYOUT_CHANGED, NULL);
 310:..\..\..\arduinoLCD\test\Pain Drain\libraries\lvgl\src\extra\layouts\flex/lv_flex.c **** 
 311:..\..\..\arduinoLCD\test\Pain Drain\libraries\lvgl\src\extra\layouts\flex/lv_flex.c ****     LV_TRACE_LAYOUT("finished");
 312:..\..\..\arduinoLCD\test\Pain Drain\libraries\lvgl\src\extra\layouts\flex/lv_flex.c **** }
 313:..\..\..\arduinoLCD\test\Pain Drain\libraries\lvgl\src\extra\layouts\flex/lv_flex.c **** 
 314:..\..\..\arduinoLCD\test\Pain Drain\libraries\lvgl\src\extra\layouts\flex/lv_flex.c **** /**
 315:..\..\..\arduinoLCD\test\Pain Drain\libraries\lvgl\src\extra\layouts\flex/lv_flex.c ****  * Find the last item of a track
 316:..\..\..\arduinoLCD\test\Pain Drain\libraries\lvgl\src\extra\layouts\flex/lv_flex.c ****  */
 317:..\..\..\arduinoLCD\test\Pain Drain\libraries\lvgl\src\extra\layouts\flex/lv_flex.c **** static int32_t find_track_end(lv_obj_t * cont, flex_t * f, int32_t item_start_id, lv_coord_t max_ma
 318:..\..\..\arduinoLCD\test\Pain Drain\libraries\lvgl\src\extra\layouts\flex/lv_flex.c ****                               lv_coord_t item_gap, track_t * t)
 319:..\..\..\arduinoLCD\test\Pain Drain\libraries\lvgl\src\extra\layouts\flex/lv_flex.c **** {
 320:..\..\..\arduinoLCD\test\Pain Drain\libraries\lvgl\src\extra\layouts\flex/lv_flex.c ****     lv_coord_t w_set = lv_obj_get_style_width(cont, LV_PART_MAIN);
 321:..\..\..\arduinoLCD\test\Pain Drain\libraries\lvgl\src\extra\layouts\flex/lv_flex.c ****     lv_coord_t h_set = lv_obj_get_style_height(cont, LV_PART_MAIN);
 322:..\..\..\arduinoLCD\test\Pain Drain\libraries\lvgl\src\extra\layouts\flex/lv_flex.c **** 
 323:..\..\..\arduinoLCD\test\Pain Drain\libraries\lvgl\src\extra\layouts\flex/lv_flex.c ****     /*Can't wrap if the size if auto (i.e. the size depends on the children)*/
 324:..\..\..\arduinoLCD\test\Pain Drain\libraries\lvgl\src\extra\layouts\flex/lv_flex.c ****     if(f->wrap && ((f->row && w_set == LV_SIZE_CONTENT) || (!f->row && h_set == LV_SIZE_CONTENT))) 
 325:..\..\..\arduinoLCD\test\Pain Drain\libraries\lvgl\src\extra\layouts\flex/lv_flex.c ****         f->wrap = false;
 326:..\..\..\arduinoLCD\test\Pain Drain\libraries\lvgl\src\extra\layouts\flex/lv_flex.c ****     }
 327:..\..\..\arduinoLCD\test\Pain Drain\libraries\lvgl\src\extra\layouts\flex/lv_flex.c ****     lv_coord_t(*get_main_size)(const lv_obj_t *) = (f->row ? lv_obj_get_width : lv_obj_get_height);
 328:..\..\..\arduinoLCD\test\Pain Drain\libraries\lvgl\src\extra\layouts\flex/lv_flex.c ****     lv_coord_t(*get_cross_size)(const lv_obj_t *) = (!f->row ? lv_obj_get_width : lv_obj_get_height
 329:..\..\..\arduinoLCD\test\Pain Drain\libraries\lvgl\src\extra\layouts\flex/lv_flex.c **** 
 330:..\..\..\arduinoLCD\test\Pain Drain\libraries\lvgl\src\extra\layouts\flex/lv_flex.c ****     t->track_main_size = 0;
 331:..\..\..\arduinoLCD\test\Pain Drain\libraries\lvgl\src\extra\layouts\flex/lv_flex.c ****     t->track_fix_main_size = 0;
 332:..\..\..\arduinoLCD\test\Pain Drain\libraries\lvgl\src\extra\layouts\flex/lv_flex.c ****     t->grow_item_cnt = 0;
 333:..\..\..\arduinoLCD\test\Pain Drain\libraries\lvgl\src\extra\layouts\flex/lv_flex.c ****     t->track_cross_size = 0;
 334:..\..\..\arduinoLCD\test\Pain Drain\libraries\lvgl\src\extra\layouts\flex/lv_flex.c ****     t->item_cnt = 0;
 335:..\..\..\arduinoLCD\test\Pain Drain\libraries\lvgl\src\extra\layouts\flex/lv_flex.c ****     t->grow_dsc = NULL;
 336:..\..\..\arduinoLCD\test\Pain Drain\libraries\lvgl\src\extra\layouts\flex/lv_flex.c **** 
 337:..\..\..\arduinoLCD\test\Pain Drain\libraries\lvgl\src\extra\layouts\flex/lv_flex.c ****     int32_t item_id = item_start_id;
 338:..\..\..\arduinoLCD\test\Pain Drain\libraries\lvgl\src\extra\layouts\flex/lv_flex.c **** 
 339:..\..\..\arduinoLCD\test\Pain Drain\libraries\lvgl\src\extra\layouts\flex/lv_flex.c ****     lv_obj_t * item = lv_obj_get_child(cont, item_id);
 340:..\..\..\arduinoLCD\test\Pain Drain\libraries\lvgl\src\extra\layouts\flex/lv_flex.c ****     while(item) {
 341:..\..\..\arduinoLCD\test\Pain Drain\libraries\lvgl\src\extra\layouts\flex/lv_flex.c ****         if(item_id != item_start_id && lv_obj_has_flag(item, LV_OBJ_FLAG_FLEX_IN_NEW_TRACK)) break;
 342:..\..\..\arduinoLCD\test\Pain Drain\libraries\lvgl\src\extra\layouts\flex/lv_flex.c **** 
 343:..\..\..\arduinoLCD\test\Pain Drain\libraries\lvgl\src\extra\layouts\flex/lv_flex.c ****         if(!lv_obj_has_flag_any(item, LV_OBJ_FLAG_IGNORE_LAYOUT | LV_OBJ_FLAG_HIDDEN | LV_OBJ_FLAG_
 344:..\..\..\arduinoLCD\test\Pain Drain\libraries\lvgl\src\extra\layouts\flex/lv_flex.c ****             uint8_t grow_value = lv_obj_get_style_flex_grow(item, LV_PART_MAIN);
 345:..\..\..\arduinoLCD\test\Pain Drain\libraries\lvgl\src\extra\layouts\flex/lv_flex.c ****             if(grow_value) {
 346:..\..\..\arduinoLCD\test\Pain Drain\libraries\lvgl\src\extra\layouts\flex/lv_flex.c ****                 t->grow_item_cnt++;
 347:..\..\..\arduinoLCD\test\Pain Drain\libraries\lvgl\src\extra\layouts\flex/lv_flex.c ****                 t->track_fix_main_size += item_gap;
 348:..\..\..\arduinoLCD\test\Pain Drain\libraries\lvgl\src\extra\layouts\flex/lv_flex.c ****                 if(t->grow_dsc_calc) {
 349:..\..\..\arduinoLCD\test\Pain Drain\libraries\lvgl\src\extra\layouts\flex/lv_flex.c ****                     grow_dsc_t * new_dsc = lv_mem_buf_get(sizeof(grow_dsc_t) * (t->grow_item_cnt));
 350:..\..\..\arduinoLCD\test\Pain Drain\libraries\lvgl\src\extra\layouts\flex/lv_flex.c ****                     LV_ASSERT_MALLOC(new_dsc);
ARM GAS  C:\Users\haske\AppData\Local\Temp\ccVRp2Ta.s 			page 11


 351:..\..\..\arduinoLCD\test\Pain Drain\libraries\lvgl\src\extra\layouts\flex/lv_flex.c ****                     if(new_dsc == NULL) return item_id;
 352:..\..\..\arduinoLCD\test\Pain Drain\libraries\lvgl\src\extra\layouts\flex/lv_flex.c **** 
 353:..\..\..\arduinoLCD\test\Pain Drain\libraries\lvgl\src\extra\layouts\flex/lv_flex.c ****                     if(t->grow_dsc) {
 354:..\..\..\arduinoLCD\test\Pain Drain\libraries\lvgl\src\extra\layouts\flex/lv_flex.c ****                         lv_memcpy(new_dsc, t->grow_dsc, sizeof(grow_dsc_t) * (t->grow_item_cnt - 1)
 355:..\..\..\arduinoLCD\test\Pain Drain\libraries\lvgl\src\extra\layouts\flex/lv_flex.c ****                         lv_mem_buf_release(t->grow_dsc);
 356:..\..\..\arduinoLCD\test\Pain Drain\libraries\lvgl\src\extra\layouts\flex/lv_flex.c ****                     }
 357:..\..\..\arduinoLCD\test\Pain Drain\libraries\lvgl\src\extra\layouts\flex/lv_flex.c ****                     new_dsc[t->grow_item_cnt - 1].item = item;
 358:..\..\..\arduinoLCD\test\Pain Drain\libraries\lvgl\src\extra\layouts\flex/lv_flex.c ****                     new_dsc[t->grow_item_cnt - 1].min_size = f->row ? lv_obj_get_style_min_width(it
 359:..\..\..\arduinoLCD\test\Pain Drain\libraries\lvgl\src\extra\layouts\flex/lv_flex.c ****                                                                                                  LV
 360:..\..\..\arduinoLCD\test\Pain Drain\libraries\lvgl\src\extra\layouts\flex/lv_flex.c ****                     new_dsc[t->grow_item_cnt - 1].max_size = f->row ? lv_obj_get_style_max_width(it
 361:..\..\..\arduinoLCD\test\Pain Drain\libraries\lvgl\src\extra\layouts\flex/lv_flex.c ****                                                                                                  LV
 362:..\..\..\arduinoLCD\test\Pain Drain\libraries\lvgl\src\extra\layouts\flex/lv_flex.c ****                     new_dsc[t->grow_item_cnt - 1].grow_value = grow_value;
 363:..\..\..\arduinoLCD\test\Pain Drain\libraries\lvgl\src\extra\layouts\flex/lv_flex.c ****                     new_dsc[t->grow_item_cnt - 1].clamped = 0;
 364:..\..\..\arduinoLCD\test\Pain Drain\libraries\lvgl\src\extra\layouts\flex/lv_flex.c ****                     t->grow_dsc = new_dsc;
 365:..\..\..\arduinoLCD\test\Pain Drain\libraries\lvgl\src\extra\layouts\flex/lv_flex.c ****                 }
 366:..\..\..\arduinoLCD\test\Pain Drain\libraries\lvgl\src\extra\layouts\flex/lv_flex.c ****             }
 367:..\..\..\arduinoLCD\test\Pain Drain\libraries\lvgl\src\extra\layouts\flex/lv_flex.c ****             else {
 368:..\..\..\arduinoLCD\test\Pain Drain\libraries\lvgl\src\extra\layouts\flex/lv_flex.c ****                 lv_coord_t item_size = get_main_size(item);
 369:..\..\..\arduinoLCD\test\Pain Drain\libraries\lvgl\src\extra\layouts\flex/lv_flex.c ****                 if(f->wrap && t->track_fix_main_size + item_size > max_main_size) break;
 370:..\..\..\arduinoLCD\test\Pain Drain\libraries\lvgl\src\extra\layouts\flex/lv_flex.c ****                 t->track_fix_main_size += item_size + item_gap;
 371:..\..\..\arduinoLCD\test\Pain Drain\libraries\lvgl\src\extra\layouts\flex/lv_flex.c ****             }
 372:..\..\..\arduinoLCD\test\Pain Drain\libraries\lvgl\src\extra\layouts\flex/lv_flex.c **** 
 373:..\..\..\arduinoLCD\test\Pain Drain\libraries\lvgl\src\extra\layouts\flex/lv_flex.c **** 
 374:..\..\..\arduinoLCD\test\Pain Drain\libraries\lvgl\src\extra\layouts\flex/lv_flex.c ****             t->track_cross_size = LV_MAX(get_cross_size(item), t->track_cross_size);
 375:..\..\..\arduinoLCD\test\Pain Drain\libraries\lvgl\src\extra\layouts\flex/lv_flex.c ****             t->item_cnt++;
 376:..\..\..\arduinoLCD\test\Pain Drain\libraries\lvgl\src\extra\layouts\flex/lv_flex.c ****         }
 377:..\..\..\arduinoLCD\test\Pain Drain\libraries\lvgl\src\extra\layouts\flex/lv_flex.c **** 
 378:..\..\..\arduinoLCD\test\Pain Drain\libraries\lvgl\src\extra\layouts\flex/lv_flex.c ****         item_id += f->rev ? -1 : +1;
 379:..\..\..\arduinoLCD\test\Pain Drain\libraries\lvgl\src\extra\layouts\flex/lv_flex.c ****         if(item_id < 0) break;
 380:..\..\..\arduinoLCD\test\Pain Drain\libraries\lvgl\src\extra\layouts\flex/lv_flex.c ****         item = lv_obj_get_child(cont, item_id);
 381:..\..\..\arduinoLCD\test\Pain Drain\libraries\lvgl\src\extra\layouts\flex/lv_flex.c ****     }
 382:..\..\..\arduinoLCD\test\Pain Drain\libraries\lvgl\src\extra\layouts\flex/lv_flex.c **** 
 383:..\..\..\arduinoLCD\test\Pain Drain\libraries\lvgl\src\extra\layouts\flex/lv_flex.c ****     if(t->track_fix_main_size > 0) t->track_fix_main_size -= item_gap; /*There is no gap after the 
 384:..\..\..\arduinoLCD\test\Pain Drain\libraries\lvgl\src\extra\layouts\flex/lv_flex.c **** 
 385:..\..\..\arduinoLCD\test\Pain Drain\libraries\lvgl\src\extra\layouts\flex/lv_flex.c ****     /*If there is at least one "grow item" the track takes the full space*/
 386:..\..\..\arduinoLCD\test\Pain Drain\libraries\lvgl\src\extra\layouts\flex/lv_flex.c ****     t->track_main_size = t->grow_item_cnt ? max_main_size : t->track_fix_main_size;
 387:..\..\..\arduinoLCD\test\Pain Drain\libraries\lvgl\src\extra\layouts\flex/lv_flex.c **** 
 388:..\..\..\arduinoLCD\test\Pain Drain\libraries\lvgl\src\extra\layouts\flex/lv_flex.c ****     /*Have at least one item in a row*/
 389:..\..\..\arduinoLCD\test\Pain Drain\libraries\lvgl\src\extra\layouts\flex/lv_flex.c ****     if(item && item_id == item_start_id) {
 390:..\..\..\arduinoLCD\test\Pain Drain\libraries\lvgl\src\extra\layouts\flex/lv_flex.c ****         item = cont->spec_attr->children[item_id];
 391:..\..\..\arduinoLCD\test\Pain Drain\libraries\lvgl\src\extra\layouts\flex/lv_flex.c ****         get_next_item(cont, f->rev, &item_id);
 392:..\..\..\arduinoLCD\test\Pain Drain\libraries\lvgl\src\extra\layouts\flex/lv_flex.c ****         if(item) {
 393:..\..\..\arduinoLCD\test\Pain Drain\libraries\lvgl\src\extra\layouts\flex/lv_flex.c ****             t->track_cross_size = get_cross_size(item);
 394:..\..\..\arduinoLCD\test\Pain Drain\libraries\lvgl\src\extra\layouts\flex/lv_flex.c ****             t->track_main_size = get_main_size(item);
 395:..\..\..\arduinoLCD\test\Pain Drain\libraries\lvgl\src\extra\layouts\flex/lv_flex.c ****             t->item_cnt = 1;
 396:..\..\..\arduinoLCD\test\Pain Drain\libraries\lvgl\src\extra\layouts\flex/lv_flex.c ****         }
 397:..\..\..\arduinoLCD\test\Pain Drain\libraries\lvgl\src\extra\layouts\flex/lv_flex.c ****     }
 398:..\..\..\arduinoLCD\test\Pain Drain\libraries\lvgl\src\extra\layouts\flex/lv_flex.c **** 
 399:..\..\..\arduinoLCD\test\Pain Drain\libraries\lvgl\src\extra\layouts\flex/lv_flex.c ****     return item_id;
 400:..\..\..\arduinoLCD\test\Pain Drain\libraries\lvgl\src\extra\layouts\flex/lv_flex.c **** }
 401:..\..\..\arduinoLCD\test\Pain Drain\libraries\lvgl\src\extra\layouts\flex/lv_flex.c **** 
 402:..\..\..\arduinoLCD\test\Pain Drain\libraries\lvgl\src\extra\layouts\flex/lv_flex.c **** /**
 403:..\..\..\arduinoLCD\test\Pain Drain\libraries\lvgl\src\extra\layouts\flex/lv_flex.c ****  * Position the children in the same track
 404:..\..\..\arduinoLCD\test\Pain Drain\libraries\lvgl\src\extra\layouts\flex/lv_flex.c ****  */
 405:..\..\..\arduinoLCD\test\Pain Drain\libraries\lvgl\src\extra\layouts\flex/lv_flex.c **** static void children_repos(lv_obj_t * cont, flex_t * f, int32_t item_first_id, int32_t item_last_id
 406:..\..\..\arduinoLCD\test\Pain Drain\libraries\lvgl\src\extra\layouts\flex/lv_flex.c ****                            lv_coord_t abs_y, lv_coord_t max_main_size, lv_coord_t item_gap, track_t
 407:..\..\..\arduinoLCD\test\Pain Drain\libraries\lvgl\src\extra\layouts\flex/lv_flex.c **** {
ARM GAS  C:\Users\haske\AppData\Local\Temp\ccVRp2Ta.s 			page 12


 408:..\..\..\arduinoLCD\test\Pain Drain\libraries\lvgl\src\extra\layouts\flex/lv_flex.c ****     void (*area_set_main_size)(lv_area_t *, lv_coord_t) = (f->row ? lv_area_set_width : lv_area_set
 409:..\..\..\arduinoLCD\test\Pain Drain\libraries\lvgl\src\extra\layouts\flex/lv_flex.c ****     lv_coord_t (*area_get_main_size)(const lv_area_t *) = (f->row ? lv_area_get_width : lv_area_get
 410:..\..\..\arduinoLCD\test\Pain Drain\libraries\lvgl\src\extra\layouts\flex/lv_flex.c ****     lv_coord_t (*area_get_cross_size)(const lv_area_t *) = (!f->row ? lv_area_get_width : lv_area_g
 411:..\..\..\arduinoLCD\test\Pain Drain\libraries\lvgl\src\extra\layouts\flex/lv_flex.c **** 
 412:..\..\..\arduinoLCD\test\Pain Drain\libraries\lvgl\src\extra\layouts\flex/lv_flex.c ****     /*Calculate the size of grow items first*/
 413:..\..\..\arduinoLCD\test\Pain Drain\libraries\lvgl\src\extra\layouts\flex/lv_flex.c ****     uint32_t i;
 414:..\..\..\arduinoLCD\test\Pain Drain\libraries\lvgl\src\extra\layouts\flex/lv_flex.c ****     bool grow_reiterate  = true;
 415:..\..\..\arduinoLCD\test\Pain Drain\libraries\lvgl\src\extra\layouts\flex/lv_flex.c ****     while(grow_reiterate) {
 416:..\..\..\arduinoLCD\test\Pain Drain\libraries\lvgl\src\extra\layouts\flex/lv_flex.c ****         grow_reiterate = false;
 417:..\..\..\arduinoLCD\test\Pain Drain\libraries\lvgl\src\extra\layouts\flex/lv_flex.c ****         lv_coord_t grow_value_sum = 0;
 418:..\..\..\arduinoLCD\test\Pain Drain\libraries\lvgl\src\extra\layouts\flex/lv_flex.c ****         lv_coord_t grow_max_size = t->track_main_size - t->track_fix_main_size;
 419:..\..\..\arduinoLCD\test\Pain Drain\libraries\lvgl\src\extra\layouts\flex/lv_flex.c ****         for(i = 0; i < t->grow_item_cnt; i++) {
 420:..\..\..\arduinoLCD\test\Pain Drain\libraries\lvgl\src\extra\layouts\flex/lv_flex.c ****             if(t->grow_dsc[i].clamped == 0) {
 421:..\..\..\arduinoLCD\test\Pain Drain\libraries\lvgl\src\extra\layouts\flex/lv_flex.c ****                 grow_value_sum += t->grow_dsc[i].grow_value;
 422:..\..\..\arduinoLCD\test\Pain Drain\libraries\lvgl\src\extra\layouts\flex/lv_flex.c ****             }
 423:..\..\..\arduinoLCD\test\Pain Drain\libraries\lvgl\src\extra\layouts\flex/lv_flex.c ****             else {
 424:..\..\..\arduinoLCD\test\Pain Drain\libraries\lvgl\src\extra\layouts\flex/lv_flex.c ****                 grow_max_size -= t->grow_dsc[i].final_size;
 425:..\..\..\arduinoLCD\test\Pain Drain\libraries\lvgl\src\extra\layouts\flex/lv_flex.c ****             }
 426:..\..\..\arduinoLCD\test\Pain Drain\libraries\lvgl\src\extra\layouts\flex/lv_flex.c ****         }
 427:..\..\..\arduinoLCD\test\Pain Drain\libraries\lvgl\src\extra\layouts\flex/lv_flex.c ****         lv_coord_t grow_unit;
 428:..\..\..\arduinoLCD\test\Pain Drain\libraries\lvgl\src\extra\layouts\flex/lv_flex.c **** 
 429:..\..\..\arduinoLCD\test\Pain Drain\libraries\lvgl\src\extra\layouts\flex/lv_flex.c ****         for(i = 0; i < t->grow_item_cnt; i++) {
 430:..\..\..\arduinoLCD\test\Pain Drain\libraries\lvgl\src\extra\layouts\flex/lv_flex.c ****             if(t->grow_dsc[i].clamped == 0) {
 431:..\..\..\arduinoLCD\test\Pain Drain\libraries\lvgl\src\extra\layouts\flex/lv_flex.c ****                 LV_ASSERT(grow_value_sum != 0);
 432:..\..\..\arduinoLCD\test\Pain Drain\libraries\lvgl\src\extra\layouts\flex/lv_flex.c ****                 grow_unit = grow_max_size / grow_value_sum;
 433:..\..\..\arduinoLCD\test\Pain Drain\libraries\lvgl\src\extra\layouts\flex/lv_flex.c ****                 lv_coord_t size = grow_unit * t->grow_dsc[i].grow_value;
 434:..\..\..\arduinoLCD\test\Pain Drain\libraries\lvgl\src\extra\layouts\flex/lv_flex.c ****                 lv_coord_t size_clamp = LV_CLAMP(t->grow_dsc[i].min_size, size, t->grow_dsc[i].max_
 435:..\..\..\arduinoLCD\test\Pain Drain\libraries\lvgl\src\extra\layouts\flex/lv_flex.c **** 
 436:..\..\..\arduinoLCD\test\Pain Drain\libraries\lvgl\src\extra\layouts\flex/lv_flex.c ****                 if(size_clamp != size) {
 437:..\..\..\arduinoLCD\test\Pain Drain\libraries\lvgl\src\extra\layouts\flex/lv_flex.c ****                     t->grow_dsc[i].clamped = 1;
 438:..\..\..\arduinoLCD\test\Pain Drain\libraries\lvgl\src\extra\layouts\flex/lv_flex.c ****                     grow_reiterate = true;
 439:..\..\..\arduinoLCD\test\Pain Drain\libraries\lvgl\src\extra\layouts\flex/lv_flex.c ****                 }
 440:..\..\..\arduinoLCD\test\Pain Drain\libraries\lvgl\src\extra\layouts\flex/lv_flex.c ****                 t->grow_dsc[i].final_size = size_clamp;
 441:..\..\..\arduinoLCD\test\Pain Drain\libraries\lvgl\src\extra\layouts\flex/lv_flex.c ****                 grow_value_sum -= t->grow_dsc[i].grow_value;
 442:..\..\..\arduinoLCD\test\Pain Drain\libraries\lvgl\src\extra\layouts\flex/lv_flex.c ****                 grow_max_size  -= t->grow_dsc[i].final_size;
 443:..\..\..\arduinoLCD\test\Pain Drain\libraries\lvgl\src\extra\layouts\flex/lv_flex.c ****             }
 444:..\..\..\arduinoLCD\test\Pain Drain\libraries\lvgl\src\extra\layouts\flex/lv_flex.c ****         }
 445:..\..\..\arduinoLCD\test\Pain Drain\libraries\lvgl\src\extra\layouts\flex/lv_flex.c ****     }
 446:..\..\..\arduinoLCD\test\Pain Drain\libraries\lvgl\src\extra\layouts\flex/lv_flex.c **** 
 447:..\..\..\arduinoLCD\test\Pain Drain\libraries\lvgl\src\extra\layouts\flex/lv_flex.c **** 
 448:..\..\..\arduinoLCD\test\Pain Drain\libraries\lvgl\src\extra\layouts\flex/lv_flex.c ****     bool rtl = lv_obj_get_style_base_dir(cont, LV_PART_MAIN) == LV_BASE_DIR_RTL ? true : false;
 449:..\..\..\arduinoLCD\test\Pain Drain\libraries\lvgl\src\extra\layouts\flex/lv_flex.c **** 
 450:..\..\..\arduinoLCD\test\Pain Drain\libraries\lvgl\src\extra\layouts\flex/lv_flex.c ****     lv_coord_t main_pos = 0;
 451:..\..\..\arduinoLCD\test\Pain Drain\libraries\lvgl\src\extra\layouts\flex/lv_flex.c **** 
 452:..\..\..\arduinoLCD\test\Pain Drain\libraries\lvgl\src\extra\layouts\flex/lv_flex.c ****     lv_coord_t place_gap = 0;
 453:..\..\..\arduinoLCD\test\Pain Drain\libraries\lvgl\src\extra\layouts\flex/lv_flex.c ****     place_content(f->main_place, max_main_size, t->track_main_size, t->item_cnt, &main_pos, &place_
 454:..\..\..\arduinoLCD\test\Pain Drain\libraries\lvgl\src\extra\layouts\flex/lv_flex.c ****     if(f->row && rtl) main_pos += lv_obj_get_content_width(cont);
 455:..\..\..\arduinoLCD\test\Pain Drain\libraries\lvgl\src\extra\layouts\flex/lv_flex.c **** 
 456:..\..\..\arduinoLCD\test\Pain Drain\libraries\lvgl\src\extra\layouts\flex/lv_flex.c ****     lv_obj_t * item = lv_obj_get_child(cont, item_first_id);
 457:..\..\..\arduinoLCD\test\Pain Drain\libraries\lvgl\src\extra\layouts\flex/lv_flex.c ****     /*Reposition the children*/
 458:..\..\..\arduinoLCD\test\Pain Drain\libraries\lvgl\src\extra\layouts\flex/lv_flex.c ****     while(item && item_first_id != item_last_id) {
 459:..\..\..\arduinoLCD\test\Pain Drain\libraries\lvgl\src\extra\layouts\flex/lv_flex.c ****         if(lv_obj_has_flag_any(item, LV_OBJ_FLAG_IGNORE_LAYOUT | LV_OBJ_FLAG_HIDDEN | LV_OBJ_FLAG_F
 460:..\..\..\arduinoLCD\test\Pain Drain\libraries\lvgl\src\extra\layouts\flex/lv_flex.c ****             item = get_next_item(cont, f->rev, &item_first_id);
 461:..\..\..\arduinoLCD\test\Pain Drain\libraries\lvgl\src\extra\layouts\flex/lv_flex.c ****             continue;
 462:..\..\..\arduinoLCD\test\Pain Drain\libraries\lvgl\src\extra\layouts\flex/lv_flex.c ****         }
 463:..\..\..\arduinoLCD\test\Pain Drain\libraries\lvgl\src\extra\layouts\flex/lv_flex.c ****         lv_coord_t grow_size = lv_obj_get_style_flex_grow(item, LV_PART_MAIN);
 464:..\..\..\arduinoLCD\test\Pain Drain\libraries\lvgl\src\extra\layouts\flex/lv_flex.c ****         if(grow_size) {
ARM GAS  C:\Users\haske\AppData\Local\Temp\ccVRp2Ta.s 			page 13


 465:..\..\..\arduinoLCD\test\Pain Drain\libraries\lvgl\src\extra\layouts\flex/lv_flex.c ****             lv_coord_t s = 0;
 466:..\..\..\arduinoLCD\test\Pain Drain\libraries\lvgl\src\extra\layouts\flex/lv_flex.c ****             for(i = 0; i < t->grow_item_cnt; i++) {
 467:..\..\..\arduinoLCD\test\Pain Drain\libraries\lvgl\src\extra\layouts\flex/lv_flex.c ****                 if(t->grow_dsc[i].item == item) {
 468:..\..\..\arduinoLCD\test\Pain Drain\libraries\lvgl\src\extra\layouts\flex/lv_flex.c ****                     s = t->grow_dsc[i].final_size;
 469:..\..\..\arduinoLCD\test\Pain Drain\libraries\lvgl\src\extra\layouts\flex/lv_flex.c ****                     break;
 470:..\..\..\arduinoLCD\test\Pain Drain\libraries\lvgl\src\extra\layouts\flex/lv_flex.c ****                 }
 471:..\..\..\arduinoLCD\test\Pain Drain\libraries\lvgl\src\extra\layouts\flex/lv_flex.c ****             }
 472:..\..\..\arduinoLCD\test\Pain Drain\libraries\lvgl\src\extra\layouts\flex/lv_flex.c **** 
 473:..\..\..\arduinoLCD\test\Pain Drain\libraries\lvgl\src\extra\layouts\flex/lv_flex.c ****             if(f->row) {
 474:..\..\..\arduinoLCD\test\Pain Drain\libraries\lvgl\src\extra\layouts\flex/lv_flex.c ****                 item->w_layout = 1;
 475:..\..\..\arduinoLCD\test\Pain Drain\libraries\lvgl\src\extra\layouts\flex/lv_flex.c ****                 item->h_layout = 0;
 476:..\..\..\arduinoLCD\test\Pain Drain\libraries\lvgl\src\extra\layouts\flex/lv_flex.c ****             }
 477:..\..\..\arduinoLCD\test\Pain Drain\libraries\lvgl\src\extra\layouts\flex/lv_flex.c ****             else {
 478:..\..\..\arduinoLCD\test\Pain Drain\libraries\lvgl\src\extra\layouts\flex/lv_flex.c ****                 item->h_layout = 1;
 479:..\..\..\arduinoLCD\test\Pain Drain\libraries\lvgl\src\extra\layouts\flex/lv_flex.c ****                 item->w_layout = 0;
 480:..\..\..\arduinoLCD\test\Pain Drain\libraries\lvgl\src\extra\layouts\flex/lv_flex.c ****             }
 481:..\..\..\arduinoLCD\test\Pain Drain\libraries\lvgl\src\extra\layouts\flex/lv_flex.c **** 
 482:..\..\..\arduinoLCD\test\Pain Drain\libraries\lvgl\src\extra\layouts\flex/lv_flex.c ****             if(s != area_get_main_size(&item->coords)) {
 483:..\..\..\arduinoLCD\test\Pain Drain\libraries\lvgl\src\extra\layouts\flex/lv_flex.c ****                 lv_obj_invalidate(item);
 484:..\..\..\arduinoLCD\test\Pain Drain\libraries\lvgl\src\extra\layouts\flex/lv_flex.c **** 
 485:..\..\..\arduinoLCD\test\Pain Drain\libraries\lvgl\src\extra\layouts\flex/lv_flex.c ****                 lv_area_t old_coords;
 486:..\..\..\arduinoLCD\test\Pain Drain\libraries\lvgl\src\extra\layouts\flex/lv_flex.c ****                 lv_area_copy(&old_coords, &item->coords);
 487:..\..\..\arduinoLCD\test\Pain Drain\libraries\lvgl\src\extra\layouts\flex/lv_flex.c ****                 area_set_main_size(&item->coords, s);
 488:..\..\..\arduinoLCD\test\Pain Drain\libraries\lvgl\src\extra\layouts\flex/lv_flex.c ****                 lv_event_send(item, LV_EVENT_SIZE_CHANGED, &old_coords);
 489:..\..\..\arduinoLCD\test\Pain Drain\libraries\lvgl\src\extra\layouts\flex/lv_flex.c ****                 lv_event_send(lv_obj_get_parent(item), LV_EVENT_CHILD_CHANGED, item);
 490:..\..\..\arduinoLCD\test\Pain Drain\libraries\lvgl\src\extra\layouts\flex/lv_flex.c ****                 lv_obj_invalidate(item);
 491:..\..\..\arduinoLCD\test\Pain Drain\libraries\lvgl\src\extra\layouts\flex/lv_flex.c ****             }
 492:..\..\..\arduinoLCD\test\Pain Drain\libraries\lvgl\src\extra\layouts\flex/lv_flex.c ****         }
 493:..\..\..\arduinoLCD\test\Pain Drain\libraries\lvgl\src\extra\layouts\flex/lv_flex.c ****         else {
 494:..\..\..\arduinoLCD\test\Pain Drain\libraries\lvgl\src\extra\layouts\flex/lv_flex.c ****             item->w_layout = 0;
 495:..\..\..\arduinoLCD\test\Pain Drain\libraries\lvgl\src\extra\layouts\flex/lv_flex.c ****             item->h_layout = 0;
 496:..\..\..\arduinoLCD\test\Pain Drain\libraries\lvgl\src\extra\layouts\flex/lv_flex.c ****         }
 497:..\..\..\arduinoLCD\test\Pain Drain\libraries\lvgl\src\extra\layouts\flex/lv_flex.c **** 
 498:..\..\..\arduinoLCD\test\Pain Drain\libraries\lvgl\src\extra\layouts\flex/lv_flex.c ****         lv_coord_t cross_pos = 0;
 499:..\..\..\arduinoLCD\test\Pain Drain\libraries\lvgl\src\extra\layouts\flex/lv_flex.c ****         switch(f->cross_place) {
 500:..\..\..\arduinoLCD\test\Pain Drain\libraries\lvgl\src\extra\layouts\flex/lv_flex.c ****             case LV_FLEX_ALIGN_CENTER:
 501:..\..\..\arduinoLCD\test\Pain Drain\libraries\lvgl\src\extra\layouts\flex/lv_flex.c ****                 /*Round up the cross size to avoid rounding error when dividing by 2
 502:..\..\..\arduinoLCD\test\Pain Drain\libraries\lvgl\src\extra\layouts\flex/lv_flex.c ****                  *The issue comes up e,g, with column direction with center cross direction if an e
 503:..\..\..\arduinoLCD\test\Pain Drain\libraries\lvgl\src\extra\layouts\flex/lv_flex.c ****                 cross_pos = (((t->track_cross_size + 1) & (~1)) - area_get_cross_size(&item->coords
 504:..\..\..\arduinoLCD\test\Pain Drain\libraries\lvgl\src\extra\layouts\flex/lv_flex.c ****                 break;
 505:..\..\..\arduinoLCD\test\Pain Drain\libraries\lvgl\src\extra\layouts\flex/lv_flex.c ****             case LV_FLEX_ALIGN_END:
 506:..\..\..\arduinoLCD\test\Pain Drain\libraries\lvgl\src\extra\layouts\flex/lv_flex.c ****                 cross_pos = t->track_cross_size - area_get_cross_size(&item->coords);
 507:..\..\..\arduinoLCD\test\Pain Drain\libraries\lvgl\src\extra\layouts\flex/lv_flex.c ****                 break;
 508:..\..\..\arduinoLCD\test\Pain Drain\libraries\lvgl\src\extra\layouts\flex/lv_flex.c ****             default:
 509:..\..\..\arduinoLCD\test\Pain Drain\libraries\lvgl\src\extra\layouts\flex/lv_flex.c ****                 break;
 510:..\..\..\arduinoLCD\test\Pain Drain\libraries\lvgl\src\extra\layouts\flex/lv_flex.c ****         }
 511:..\..\..\arduinoLCD\test\Pain Drain\libraries\lvgl\src\extra\layouts\flex/lv_flex.c **** 
 512:..\..\..\arduinoLCD\test\Pain Drain\libraries\lvgl\src\extra\layouts\flex/lv_flex.c ****         if(f->row && rtl) main_pos -= area_get_main_size(&item->coords);
 513:..\..\..\arduinoLCD\test\Pain Drain\libraries\lvgl\src\extra\layouts\flex/lv_flex.c **** 
 514:..\..\..\arduinoLCD\test\Pain Drain\libraries\lvgl\src\extra\layouts\flex/lv_flex.c **** 
 515:..\..\..\arduinoLCD\test\Pain Drain\libraries\lvgl\src\extra\layouts\flex/lv_flex.c ****         /*Handle percentage value of translate*/
 516:..\..\..\arduinoLCD\test\Pain Drain\libraries\lvgl\src\extra\layouts\flex/lv_flex.c ****         lv_coord_t tr_x = lv_obj_get_style_translate_x(item, LV_PART_MAIN);
 517:..\..\..\arduinoLCD\test\Pain Drain\libraries\lvgl\src\extra\layouts\flex/lv_flex.c ****         lv_coord_t tr_y = lv_obj_get_style_translate_y(item, LV_PART_MAIN);
 518:..\..\..\arduinoLCD\test\Pain Drain\libraries\lvgl\src\extra\layouts\flex/lv_flex.c ****         lv_coord_t w = lv_obj_get_width(item);
 519:..\..\..\arduinoLCD\test\Pain Drain\libraries\lvgl\src\extra\layouts\flex/lv_flex.c ****         lv_coord_t h = lv_obj_get_height(item);
 520:..\..\..\arduinoLCD\test\Pain Drain\libraries\lvgl\src\extra\layouts\flex/lv_flex.c ****         if(LV_COORD_IS_PCT(tr_x)) tr_x = (w * LV_COORD_GET_PCT(tr_x)) / 100;
 521:..\..\..\arduinoLCD\test\Pain Drain\libraries\lvgl\src\extra\layouts\flex/lv_flex.c ****         if(LV_COORD_IS_PCT(tr_y)) tr_y = (h * LV_COORD_GET_PCT(tr_y)) / 100;
ARM GAS  C:\Users\haske\AppData\Local\Temp\ccVRp2Ta.s 			page 14


 522:..\..\..\arduinoLCD\test\Pain Drain\libraries\lvgl\src\extra\layouts\flex/lv_flex.c **** 
 523:..\..\..\arduinoLCD\test\Pain Drain\libraries\lvgl\src\extra\layouts\flex/lv_flex.c ****         lv_coord_t diff_x = abs_x - item->coords.x1 + tr_x;
 524:..\..\..\arduinoLCD\test\Pain Drain\libraries\lvgl\src\extra\layouts\flex/lv_flex.c ****         lv_coord_t diff_y = abs_y - item->coords.y1 + tr_y;
 525:..\..\..\arduinoLCD\test\Pain Drain\libraries\lvgl\src\extra\layouts\flex/lv_flex.c ****         diff_x += f->row ? main_pos : cross_pos;
 526:..\..\..\arduinoLCD\test\Pain Drain\libraries\lvgl\src\extra\layouts\flex/lv_flex.c ****         diff_y += f->row ? cross_pos : main_pos;
 527:..\..\..\arduinoLCD\test\Pain Drain\libraries\lvgl\src\extra\layouts\flex/lv_flex.c **** 
 528:..\..\..\arduinoLCD\test\Pain Drain\libraries\lvgl\src\extra\layouts\flex/lv_flex.c ****         if(diff_x || diff_y) {
 529:..\..\..\arduinoLCD\test\Pain Drain\libraries\lvgl\src\extra\layouts\flex/lv_flex.c ****             lv_obj_invalidate(item);
 530:..\..\..\arduinoLCD\test\Pain Drain\libraries\lvgl\src\extra\layouts\flex/lv_flex.c ****             item->coords.x1 += diff_x;
 531:..\..\..\arduinoLCD\test\Pain Drain\libraries\lvgl\src\extra\layouts\flex/lv_flex.c ****             item->coords.x2 += diff_x;
 532:..\..\..\arduinoLCD\test\Pain Drain\libraries\lvgl\src\extra\layouts\flex/lv_flex.c ****             item->coords.y1 += diff_y;
 533:..\..\..\arduinoLCD\test\Pain Drain\libraries\lvgl\src\extra\layouts\flex/lv_flex.c ****             item->coords.y2 += diff_y;
 534:..\..\..\arduinoLCD\test\Pain Drain\libraries\lvgl\src\extra\layouts\flex/lv_flex.c ****             lv_obj_invalidate(item);
 535:..\..\..\arduinoLCD\test\Pain Drain\libraries\lvgl\src\extra\layouts\flex/lv_flex.c ****             lv_obj_move_children_by(item, diff_x, diff_y, false);
 536:..\..\..\arduinoLCD\test\Pain Drain\libraries\lvgl\src\extra\layouts\flex/lv_flex.c ****         }
 537:..\..\..\arduinoLCD\test\Pain Drain\libraries\lvgl\src\extra\layouts\flex/lv_flex.c **** 
 538:..\..\..\arduinoLCD\test\Pain Drain\libraries\lvgl\src\extra\layouts\flex/lv_flex.c ****         if(!(f->row && rtl)) main_pos += area_get_main_size(&item->coords) + item_gap + place_gap;
 539:..\..\..\arduinoLCD\test\Pain Drain\libraries\lvgl\src\extra\layouts\flex/lv_flex.c ****         else main_pos -= item_gap + place_gap;
 540:..\..\..\arduinoLCD\test\Pain Drain\libraries\lvgl\src\extra\layouts\flex/lv_flex.c **** 
 541:..\..\..\arduinoLCD\test\Pain Drain\libraries\lvgl\src\extra\layouts\flex/lv_flex.c ****         item = get_next_item(cont, f->rev, &item_first_id);
 542:..\..\..\arduinoLCD\test\Pain Drain\libraries\lvgl\src\extra\layouts\flex/lv_flex.c ****     }
 543:..\..\..\arduinoLCD\test\Pain Drain\libraries\lvgl\src\extra\layouts\flex/lv_flex.c **** }
 544:..\..\..\arduinoLCD\test\Pain Drain\libraries\lvgl\src\extra\layouts\flex/lv_flex.c **** 
 545:..\..\..\arduinoLCD\test\Pain Drain\libraries\lvgl\src\extra\layouts\flex/lv_flex.c **** /**
 546:..\..\..\arduinoLCD\test\Pain Drain\libraries\lvgl\src\extra\layouts\flex/lv_flex.c ****  * Tell a start coordinate and gap for a placement type.
 547:..\..\..\arduinoLCD\test\Pain Drain\libraries\lvgl\src\extra\layouts\flex/lv_flex.c ****  */
 548:..\..\..\arduinoLCD\test\Pain Drain\libraries\lvgl\src\extra\layouts\flex/lv_flex.c **** static void place_content(lv_flex_align_t place, lv_coord_t max_size, lv_coord_t content_size, lv_c
 549:..\..\..\arduinoLCD\test\Pain Drain\libraries\lvgl\src\extra\layouts\flex/lv_flex.c ****                           lv_coord_t * start_pos, lv_coord_t * gap)
 550:..\..\..\arduinoLCD\test\Pain Drain\libraries\lvgl\src\extra\layouts\flex/lv_flex.c **** {
  85              		.loc 2 550 0
  86              		.cfi_startproc
  87              		@ args = 8, pretend = 0, frame = 0
  88              		@ frame_needed = 0, uses_anonymous_args = 0
  89              	.LVL4:
  90 0000 10B5     		push	{r4, lr}
  91              		.cfi_def_cfa_offset 8
  92              		.cfi_offset 4, -8
  93              		.cfi_offset 14, -4
 551:..\..\..\arduinoLCD\test\Pain Drain\libraries\lvgl\src\extra\layouts\flex/lv_flex.c ****     if(item_cnt <= 1) {
  94              		.loc 2 551 0
  95 0002 012B     		cmp	r3, #1
  96 0004 04DC     		bgt	.L4
 552:..\..\..\arduinoLCD\test\Pain Drain\libraries\lvgl\src\extra\layouts\flex/lv_flex.c ****         switch(place) {
  97              		.loc 2 552 0
  98 0006 C41E     		subs	r4, r0, #3
  99 0008 E4B2     		uxtb	r4, r4
 100 000a 022C     		cmp	r4, #2
 101 000c 00D8     		bhi	.L4
 553:..\..\..\arduinoLCD\test\Pain Drain\libraries\lvgl\src\extra\layouts\flex/lv_flex.c ****             case LV_FLEX_ALIGN_SPACE_BETWEEN:
 554:..\..\..\arduinoLCD\test\Pain Drain\libraries\lvgl\src\extra\layouts\flex/lv_flex.c ****             case LV_FLEX_ALIGN_SPACE_AROUND:
 555:..\..\..\arduinoLCD\test\Pain Drain\libraries\lvgl\src\extra\layouts\flex/lv_flex.c ****             case LV_FLEX_ALIGN_SPACE_EVENLY:
 556:..\..\..\arduinoLCD\test\Pain Drain\libraries\lvgl\src\extra\layouts\flex/lv_flex.c ****                 place = LV_FLEX_ALIGN_CENTER;
 102              		.loc 2 556 0
 103 000e 0220     		movs	r0, #2
 104              	.LVL5:
 105              	.L4:
 557:..\..\..\arduinoLCD\test\Pain Drain\libraries\lvgl\src\extra\layouts\flex/lv_flex.c ****                 break;
ARM GAS  C:\Users\haske\AppData\Local\Temp\ccVRp2Ta.s 			page 15


 558:..\..\..\arduinoLCD\test\Pain Drain\libraries\lvgl\src\extra\layouts\flex/lv_flex.c ****             default:
 559:..\..\..\arduinoLCD\test\Pain Drain\libraries\lvgl\src\extra\layouts\flex/lv_flex.c ****                 break;
 560:..\..\..\arduinoLCD\test\Pain Drain\libraries\lvgl\src\extra\layouts\flex/lv_flex.c ****         }
 561:..\..\..\arduinoLCD\test\Pain Drain\libraries\lvgl\src\extra\layouts\flex/lv_flex.c ****     }
 562:..\..\..\arduinoLCD\test\Pain Drain\libraries\lvgl\src\extra\layouts\flex/lv_flex.c **** 
 563:..\..\..\arduinoLCD\test\Pain Drain\libraries\lvgl\src\extra\layouts\flex/lv_flex.c ****     switch(place) {
 106              		.loc 2 563 0
 107 0010 0528     		cmp	r0, #5
 108 0012 44D8     		bhi	.L6
 109 0014 8000     		lsls	r0, r0, #2
 110              	.LVL6:
 111 0016 244C     		ldr	r4, .L15
 112 0018 2458     		ldr	r4, [r4, r0]
 113 001a A746     		mov	pc, r4
 114              		.section	.rodata
 115              		.align	2
 116              	.L8:
 117 0000 9E000000 		.word	.L6
 118 0004 34000000 		.word	.L7
 119 0008 1C000000 		.word	.L9
 120 000c 80000000 		.word	.L10
 121 0010 58000000 		.word	.L11
 122 0014 46000000 		.word	.L12
 123              		.section	.text.place_content
 124              	.L9:
 564:..\..\..\arduinoLCD\test\Pain Drain\libraries\lvgl\src\extra\layouts\flex/lv_flex.c ****         case LV_FLEX_ALIGN_CENTER:
 565:..\..\..\arduinoLCD\test\Pain Drain\libraries\lvgl\src\extra\layouts\flex/lv_flex.c ****             *gap = 0;
 125              		.loc 2 565 0
 126 001c 0023     		movs	r3, #0
 127              	.LVL7:
 128 001e 0398     		ldr	r0, [sp, #12]
 129 0020 0380     		strh	r3, [r0]
 566:..\..\..\arduinoLCD\test\Pain Drain\libraries\lvgl\src\extra\layouts\flex/lv_flex.c ****             *start_pos += (max_size - content_size) / 2;
 130              		.loc 2 566 0
 131 0022 8A1A     		subs	r2, r1, r2
 132              	.LVL8:
 133 0024 D10F     		lsrs	r1, r2, #31
 134              	.LVL9:
 135 0026 8918     		adds	r1, r1, r2
 136 0028 4910     		asrs	r1, r1, #1
 137 002a 029B     		ldr	r3, [sp, #8]
 138 002c 1A88     		ldrh	r2, [r3]
 139 002e 5118     		adds	r1, r2, r1
 140 0030 1980     		strh	r1, [r3]
 567:..\..\..\arduinoLCD\test\Pain Drain\libraries\lvgl\src\extra\layouts\flex/lv_flex.c ****             break;
 141              		.loc 2 567 0
 142 0032 37E0     		b	.L3
 143              	.LVL10:
 144              	.L7:
 568:..\..\..\arduinoLCD\test\Pain Drain\libraries\lvgl\src\extra\layouts\flex/lv_flex.c ****         case LV_FLEX_ALIGN_END:
 569:..\..\..\arduinoLCD\test\Pain Drain\libraries\lvgl\src\extra\layouts\flex/lv_flex.c ****             *gap = 0;
 145              		.loc 2 569 0
 146 0034 0023     		movs	r3, #0
 147              	.LVL11:
 148 0036 0398     		ldr	r0, [sp, #12]
 149 0038 0380     		strh	r3, [r0]
 570:..\..\..\arduinoLCD\test\Pain Drain\libraries\lvgl\src\extra\layouts\flex/lv_flex.c ****             *start_pos += max_size - content_size;
ARM GAS  C:\Users\haske\AppData\Local\Temp\ccVRp2Ta.s 			page 16


 150              		.loc 2 570 0
 151 003a 8A1A     		subs	r2, r1, r2
 152              	.LVL12:
 153 003c 029B     		ldr	r3, [sp, #8]
 154 003e 1988     		ldrh	r1, [r3]
 155              	.LVL13:
 156 0040 8918     		adds	r1, r1, r2
 157 0042 1980     		strh	r1, [r3]
 571:..\..\..\arduinoLCD\test\Pain Drain\libraries\lvgl\src\extra\layouts\flex/lv_flex.c ****             break;
 158              		.loc 2 571 0
 159 0044 2EE0     		b	.L3
 160              	.LVL14:
 161              	.L12:
 572:..\..\..\arduinoLCD\test\Pain Drain\libraries\lvgl\src\extra\layouts\flex/lv_flex.c ****         case LV_FLEX_ALIGN_SPACE_BETWEEN:
 573:..\..\..\arduinoLCD\test\Pain Drain\libraries\lvgl\src\extra\layouts\flex/lv_flex.c ****             *gap = (lv_coord_t)(max_size - content_size) / (lv_coord_t)(item_cnt - 1);
 162              		.loc 2 573 0
 163 0046 881A     		subs	r0, r1, r2
 164 0048 00B2     		sxth	r0, r0
 165 004a 013B     		subs	r3, r3, #1
 166              	.LVL15:
 167 004c 19B2     		sxth	r1, r3
 168              	.LVL16:
 169 004e FFF7FEFF 		bl	__aeabi_idiv
 170              	.LVL17:
 171 0052 039B     		ldr	r3, [sp, #12]
 172 0054 1880     		strh	r0, [r3]
 574:..\..\..\arduinoLCD\test\Pain Drain\libraries\lvgl\src\extra\layouts\flex/lv_flex.c ****             break;
 173              		.loc 2 574 0
 174 0056 25E0     		b	.L3
 175              	.LVL18:
 176              	.L11:
 575:..\..\..\arduinoLCD\test\Pain Drain\libraries\lvgl\src\extra\layouts\flex/lv_flex.c ****         case LV_FLEX_ALIGN_SPACE_AROUND:
 576:..\..\..\arduinoLCD\test\Pain Drain\libraries\lvgl\src\extra\layouts\flex/lv_flex.c ****             *gap += (lv_coord_t)(max_size - content_size) / (lv_coord_t)(item_cnt);
 177              		.loc 2 576 0
 178 0058 881A     		subs	r0, r1, r2
 179 005a 00B2     		sxth	r0, r0
 180 005c 1900     		movs	r1, r3
 181              	.LVL19:
 182 005e FFF7FEFF 		bl	__aeabi_idiv
 183              	.LVL20:
 184 0062 039B     		ldr	r3, [sp, #12]
 185 0064 1B88     		ldrh	r3, [r3]
 186 0066 1818     		adds	r0, r3, r0
 187 0068 00B2     		sxth	r0, r0
 188 006a 039B     		ldr	r3, [sp, #12]
 189 006c 1880     		strh	r0, [r3]
 577:..\..\..\arduinoLCD\test\Pain Drain\libraries\lvgl\src\extra\layouts\flex/lv_flex.c ****             *start_pos += *gap / 2;
 190              		.loc 2 577 0
 191 006e C30F     		lsrs	r3, r0, #31
 192 0070 1818     		adds	r0, r3, r0
 193 0072 4010     		asrs	r0, r0, #1
 194 0074 029B     		ldr	r3, [sp, #8]
 195 0076 1B88     		ldrh	r3, [r3]
 196 0078 1818     		adds	r0, r3, r0
 197 007a 029B     		ldr	r3, [sp, #8]
 198 007c 1880     		strh	r0, [r3]
 578:..\..\..\arduinoLCD\test\Pain Drain\libraries\lvgl\src\extra\layouts\flex/lv_flex.c ****             break;
ARM GAS  C:\Users\haske\AppData\Local\Temp\ccVRp2Ta.s 			page 17


 199              		.loc 2 578 0
 200 007e 11E0     		b	.L3
 201              	.LVL21:
 202              	.L10:
 579:..\..\..\arduinoLCD\test\Pain Drain\libraries\lvgl\src\extra\layouts\flex/lv_flex.c ****         case LV_FLEX_ALIGN_SPACE_EVENLY:
 580:..\..\..\arduinoLCD\test\Pain Drain\libraries\lvgl\src\extra\layouts\flex/lv_flex.c ****             *gap = (lv_coord_t)(max_size - content_size) / (lv_coord_t)(item_cnt + 1);
 203              		.loc 2 580 0
 204 0080 881A     		subs	r0, r1, r2
 205 0082 00B2     		sxth	r0, r0
 206 0084 0133     		adds	r3, r3, #1
 207              	.LVL22:
 208 0086 19B2     		sxth	r1, r3
 209              	.LVL23:
 210 0088 FFF7FEFF 		bl	__aeabi_idiv
 211              	.LVL24:
 212 008c 00B2     		sxth	r0, r0
 213 008e 039B     		ldr	r3, [sp, #12]
 214 0090 1880     		strh	r0, [r3]
 581:..\..\..\arduinoLCD\test\Pain Drain\libraries\lvgl\src\extra\layouts\flex/lv_flex.c ****             *start_pos += *gap;
 215              		.loc 2 581 0
 216 0092 029B     		ldr	r3, [sp, #8]
 217 0094 1B88     		ldrh	r3, [r3]
 218 0096 C018     		adds	r0, r0, r3
 219 0098 029B     		ldr	r3, [sp, #8]
 220 009a 1880     		strh	r0, [r3]
 582:..\..\..\arduinoLCD\test\Pain Drain\libraries\lvgl\src\extra\layouts\flex/lv_flex.c ****             break;
 221              		.loc 2 582 0
 222 009c 02E0     		b	.L3
 223              	.LVL25:
 224              	.L6:
 583:..\..\..\arduinoLCD\test\Pain Drain\libraries\lvgl\src\extra\layouts\flex/lv_flex.c ****         default:
 584:..\..\..\arduinoLCD\test\Pain Drain\libraries\lvgl\src\extra\layouts\flex/lv_flex.c ****             *gap = 0;
 225              		.loc 2 584 0
 226 009e 0023     		movs	r3, #0
 227              	.LVL26:
 228 00a0 039A     		ldr	r2, [sp, #12]
 229              	.LVL27:
 230 00a2 1380     		strh	r3, [r2]
 231              	.LVL28:
 232              	.L3:
 585:..\..\..\arduinoLCD\test\Pain Drain\libraries\lvgl\src\extra\layouts\flex/lv_flex.c ****     }
 586:..\..\..\arduinoLCD\test\Pain Drain\libraries\lvgl\src\extra\layouts\flex/lv_flex.c **** }
 233              		.loc 2 586 0
 234              		@ sp needed
 235 00a4 10BD     		pop	{r4, pc}
 236              	.L16:
 237 00a6 C046     		.align	2
 238              	.L15:
 239 00a8 00000000 		.word	.L8
 240              		.cfi_endproc
 241              	.LFE192:
 242              		.size	place_content, .-place_content
 243              		.section	.text.get_next_item,"ax",%progbits
 244              		.align	2
 245              		.code	16
 246              		.thumb_func
 247              		.type	get_next_item, %function
ARM GAS  C:\Users\haske\AppData\Local\Temp\ccVRp2Ta.s 			page 18


 248              	get_next_item:
 249              	.LFB193:
 587:..\..\..\arduinoLCD\test\Pain Drain\libraries\lvgl\src\extra\layouts\flex/lv_flex.c **** 
 588:..\..\..\arduinoLCD\test\Pain Drain\libraries\lvgl\src\extra\layouts\flex/lv_flex.c **** static lv_obj_t * get_next_item(lv_obj_t * cont, bool rev, int32_t * item_id)
 589:..\..\..\arduinoLCD\test\Pain Drain\libraries\lvgl\src\extra\layouts\flex/lv_flex.c **** {
 250              		.loc 2 589 0
 251              		.cfi_startproc
 252              		@ args = 0, pretend = 0, frame = 0
 253              		@ frame_needed = 0, uses_anonymous_args = 0
 254              		@ link register save eliminated.
 255              	.LVL29:
 590:..\..\..\arduinoLCD\test\Pain Drain\libraries\lvgl\src\extra\layouts\flex/lv_flex.c ****     if(rev) {
 256              		.loc 2 590 0
 257 0000 0029     		cmp	r1, #0
 258 0002 09D0     		beq	.L18
 591:..\..\..\arduinoLCD\test\Pain Drain\libraries\lvgl\src\extra\layouts\flex/lv_flex.c ****         (*item_id)--;
 259              		.loc 2 591 0
 260 0004 1368     		ldr	r3, [r2]
 261 0006 013B     		subs	r3, r3, #1
 262 0008 1360     		str	r3, [r2]
 592:..\..\..\arduinoLCD\test\Pain Drain\libraries\lvgl\src\extra\layouts\flex/lv_flex.c ****         if(*item_id >= 0) return cont->spec_attr->children[*item_id];
 263              		.loc 2 592 0
 264 000a 002B     		cmp	r3, #0
 265 000c 0FDB     		blt	.L20
 266              		.loc 2 592 0 is_stmt 0 discriminator 1
 267 000e 8268     		ldr	r2, [r0, #8]
 268              	.LVL30:
 269 0010 1268     		ldr	r2, [r2]
 270 0012 9B00     		lsls	r3, r3, #2
 271 0014 D058     		ldr	r0, [r2, r3]
 272              	.LVL31:
 273 0016 0DE0     		b	.L19
 274              	.LVL32:
 275              	.L18:
 593:..\..\..\arduinoLCD\test\Pain Drain\libraries\lvgl\src\extra\layouts\flex/lv_flex.c ****         else return NULL;
 594:..\..\..\arduinoLCD\test\Pain Drain\libraries\lvgl\src\extra\layouts\flex/lv_flex.c ****     }
 595:..\..\..\arduinoLCD\test\Pain Drain\libraries\lvgl\src\extra\layouts\flex/lv_flex.c ****     else {
 596:..\..\..\arduinoLCD\test\Pain Drain\libraries\lvgl\src\extra\layouts\flex/lv_flex.c ****         (*item_id)++;
 276              		.loc 2 596 0 is_stmt 1
 277 0018 1368     		ldr	r3, [r2]
 278 001a 0133     		adds	r3, r3, #1
 279 001c 1360     		str	r3, [r2]
 597:..\..\..\arduinoLCD\test\Pain Drain\libraries\lvgl\src\extra\layouts\flex/lv_flex.c ****         if((*item_id) < (int32_t)cont->spec_attr->child_cnt) return cont->spec_attr->children[*item
 280              		.loc 2 597 0
 281 001e 8268     		ldr	r2, [r0, #8]
 282              	.LVL33:
 283 0020 5168     		ldr	r1, [r2, #4]
 284              	.LVL34:
 285 0022 8B42     		cmp	r3, r1
 286 0024 05DA     		bge	.L21
 287              		.loc 2 597 0 is_stmt 0 discriminator 1
 288 0026 1268     		ldr	r2, [r2]
 289 0028 9B00     		lsls	r3, r3, #2
 290 002a D058     		ldr	r0, [r2, r3]
 291              	.LVL35:
 292 002c 02E0     		b	.L19
 293              	.LVL36:
ARM GAS  C:\Users\haske\AppData\Local\Temp\ccVRp2Ta.s 			page 19


 294              	.L20:
 593:..\..\..\arduinoLCD\test\Pain Drain\libraries\lvgl\src\extra\layouts\flex/lv_flex.c ****         else return NULL;
 295              		.loc 2 593 0 is_stmt 1
 296 002e 0020     		movs	r0, #0
 297              	.LVL37:
 298 0030 00E0     		b	.L19
 299              	.LVL38:
 300              	.L21:
 598:..\..\..\arduinoLCD\test\Pain Drain\libraries\lvgl\src\extra\layouts\flex/lv_flex.c ****         else return NULL;
 301              		.loc 2 598 0
 302 0032 0020     		movs	r0, #0
 303              	.LVL39:
 304              	.L19:
 599:..\..\..\arduinoLCD\test\Pain Drain\libraries\lvgl\src\extra\layouts\flex/lv_flex.c ****     }
 600:..\..\..\arduinoLCD\test\Pain Drain\libraries\lvgl\src\extra\layouts\flex/lv_flex.c **** }
 305              		.loc 2 600 0
 306              		@ sp needed
 307 0034 7047     		bx	lr
 308              		.cfi_endproc
 309              	.LFE193:
 310              		.size	get_next_item, .-get_next_item
 311 0036 C046     		.section	.text.find_track_end,"ax",%progbits
 312              		.align	2
 313              		.code	16
 314              		.thumb_func
 315              		.type	find_track_end, %function
 316              	find_track_end:
 317              	.LFB190:
 319:..\..\..\arduinoLCD\test\Pain Drain\libraries\lvgl\src\extra\layouts\flex/lv_flex.c ****     lv_coord_t w_set = lv_obj_get_style_width(cont, LV_PART_MAIN);
 318              		.loc 2 319 0
 319              		.cfi_startproc
 320              		@ args = 8, pretend = 0, frame = 24
 321              		@ frame_needed = 0, uses_anonymous_args = 0
 322              	.LVL40:
 323 0000 F0B5     		push	{r4, r5, r6, r7, lr}
 324              		.cfi_def_cfa_offset 20
 325              		.cfi_offset 4, -20
 326              		.cfi_offset 5, -16
 327              		.cfi_offset 6, -12
 328              		.cfi_offset 7, -8
 329              		.cfi_offset 14, -4
 330 0002 5F46     		mov	r7, fp
 331 0004 5646     		mov	r6, r10
 332 0006 4D46     		mov	r5, r9
 333 0008 4446     		mov	r4, r8
 334 000a F0B4     		push	{r4, r5, r6, r7}
 335              		.cfi_def_cfa_offset 36
 336              		.cfi_offset 8, -36
 337              		.cfi_offset 9, -32
 338              		.cfi_offset 10, -28
 339              		.cfi_offset 11, -24
 340 000c 87B0     		sub	sp, sp, #28
 341              		.cfi_def_cfa_offset 64
 342 000e 0E00     		movs	r6, r1
 343 0010 1700     		movs	r7, r2
 344 0012 0393     		str	r3, [sp, #12]
 345 0014 10AB     		add	r3, sp, #64
ARM GAS  C:\Users\haske\AppData\Local\Temp\ccVRp2Ta.s 			page 20


 346              	.LVL41:
 347 0016 0022     		movs	r2, #0
 348 0018 9B5E     		ldrsh	r3, [r3, r2]
 349              	.LVL42:
 350 001a 9846     		mov	r8, r3
 351 001c 119D     		ldr	r5, [sp, #68]
 352              	.LVL43:
 353              	.LBB64:
 354              	.LBB65:
 355              		.file 3 "c:\\projects\\paindrain\\arduinolcd\\test\\pain drain\\libraries\\lvgl\\src\\core\\lv_obj
   1:c:\projects\paindrain\arduinolcd\test\pain drain\libraries\lvgl\src\core\lv_obj_style_gen.h **** static inline lv_coord_t lv_obj_get_style_width(const struct _lv_obj_t * obj, uint32_t part)
   2:c:\projects\paindrain\arduinolcd\test\pain drain\libraries\lvgl\src\core\lv_obj_style_gen.h **** {
   3:c:\projects\paindrain\arduinolcd\test\pain drain\libraries\lvgl\src\core\lv_obj_style_gen.h ****     lv_style_value_t v = lv_obj_get_style_prop(obj, part, LV_STYLE_WIDTH);
 356              		.loc 3 3 0
 357 001e 0122     		movs	r2, #1
 358 0020 0021     		movs	r1, #0
 359              	.LVL44:
 360 0022 0090     		str	r0, [sp]
 361 0024 FFF7FEFF 		bl	lv_obj_get_style_prop
 362              	.LVL45:
   4:c:\projects\paindrain\arduinolcd\test\pain drain\libraries\lvgl\src\core\lv_obj_style_gen.h ****     return (lv_coord_t)v.num;
 363              		.loc 3 4 0
 364 0028 04B2     		sxth	r4, r0
 365              	.LVL46:
 366              	.LBE65:
 367              	.LBE64:
 368              	.LBB66:
 369              	.LBB67:
   5:c:\projects\paindrain\arduinolcd\test\pain drain\libraries\lvgl\src\core\lv_obj_style_gen.h **** }
   6:c:\projects\paindrain\arduinolcd\test\pain drain\libraries\lvgl\src\core\lv_obj_style_gen.h **** 
   7:c:\projects\paindrain\arduinolcd\test\pain drain\libraries\lvgl\src\core\lv_obj_style_gen.h **** static inline lv_coord_t lv_obj_get_style_min_width(const struct _lv_obj_t * obj, uint32_t part)
   8:c:\projects\paindrain\arduinolcd\test\pain drain\libraries\lvgl\src\core\lv_obj_style_gen.h **** {
   9:c:\projects\paindrain\arduinolcd\test\pain drain\libraries\lvgl\src\core\lv_obj_style_gen.h ****     lv_style_value_t v = lv_obj_get_style_prop(obj, part, LV_STYLE_MIN_WIDTH);
  10:c:\projects\paindrain\arduinolcd\test\pain drain\libraries\lvgl\src\core\lv_obj_style_gen.h ****     return (lv_coord_t)v.num;
  11:c:\projects\paindrain\arduinolcd\test\pain drain\libraries\lvgl\src\core\lv_obj_style_gen.h **** }
  12:c:\projects\paindrain\arduinolcd\test\pain drain\libraries\lvgl\src\core\lv_obj_style_gen.h **** 
  13:c:\projects\paindrain\arduinolcd\test\pain drain\libraries\lvgl\src\core\lv_obj_style_gen.h **** static inline lv_coord_t lv_obj_get_style_max_width(const struct _lv_obj_t * obj, uint32_t part)
  14:c:\projects\paindrain\arduinolcd\test\pain drain\libraries\lvgl\src\core\lv_obj_style_gen.h **** {
  15:c:\projects\paindrain\arduinolcd\test\pain drain\libraries\lvgl\src\core\lv_obj_style_gen.h ****     lv_style_value_t v = lv_obj_get_style_prop(obj, part, LV_STYLE_MAX_WIDTH);
  16:c:\projects\paindrain\arduinolcd\test\pain drain\libraries\lvgl\src\core\lv_obj_style_gen.h ****     return (lv_coord_t)v.num;
  17:c:\projects\paindrain\arduinolcd\test\pain drain\libraries\lvgl\src\core\lv_obj_style_gen.h **** }
  18:c:\projects\paindrain\arduinolcd\test\pain drain\libraries\lvgl\src\core\lv_obj_style_gen.h **** 
  19:c:\projects\paindrain\arduinolcd\test\pain drain\libraries\lvgl\src\core\lv_obj_style_gen.h **** static inline lv_coord_t lv_obj_get_style_height(const struct _lv_obj_t * obj, uint32_t part)
  20:c:\projects\paindrain\arduinolcd\test\pain drain\libraries\lvgl\src\core\lv_obj_style_gen.h **** {
  21:c:\projects\paindrain\arduinolcd\test\pain drain\libraries\lvgl\src\core\lv_obj_style_gen.h ****     lv_style_value_t v = lv_obj_get_style_prop(obj, part, LV_STYLE_HEIGHT);
 370              		.loc 3 21 0
 371 002a 0422     		movs	r2, #4
 372 002c 0021     		movs	r1, #0
 373 002e 0098     		ldr	r0, [sp]
 374 0030 FFF7FEFF 		bl	lv_obj_get_style_prop
 375              	.LVL47:
  22:c:\projects\paindrain\arduinolcd\test\pain drain\libraries\lvgl\src\core\lv_obj_style_gen.h ****     return (lv_coord_t)v.num;
 376              		.loc 3 22 0
 377 0034 00B2     		sxth	r0, r0
 378              	.LVL48:
 379              	.LBE67:
 380              	.LBE66:
ARM GAS  C:\Users\haske\AppData\Local\Temp\ccVRp2Ta.s 			page 21


 324:..\..\..\arduinoLCD\test\Pain Drain\libraries\lvgl\src\extra\layouts\flex/lv_flex.c ****         f->wrap = false;
 381              		.loc 2 324 0
 382 0036 F378     		ldrb	r3, [r6, #3]
 383 0038 9A07     		lsls	r2, r3, #30
 384 003a 0ED5     		bpl	.L23
 324:..\..\..\arduinoLCD\test\Pain Drain\libraries\lvgl\src\extra\layouts\flex/lv_flex.c ****         f->wrap = false;
 385              		.loc 2 324 0 is_stmt 0 discriminator 1
 386 003c 0122     		movs	r2, #1
 387 003e 1340     		ands	r3, r2
 388 0040 02D0     		beq	.L24
 324:..\..\..\arduinoLCD\test\Pain Drain\libraries\lvgl\src\extra\layouts\flex/lv_flex.c ****         f->wrap = false;
 389              		.loc 2 324 0 discriminator 2
 390 0042 8F4A     		ldr	r2, .L54
 391 0044 9442     		cmp	r4, r2
 392 0046 04D0     		beq	.L25
 393              	.L24:
 324:..\..\..\arduinoLCD\test\Pain Drain\libraries\lvgl\src\extra\layouts\flex/lv_flex.c ****         f->wrap = false;
 394              		.loc 2 324 0 discriminator 4
 395 0048 002B     		cmp	r3, #0
 396 004a 06D1     		bne	.L23
 324:..\..\..\arduinoLCD\test\Pain Drain\libraries\lvgl\src\extra\layouts\flex/lv_flex.c ****         f->wrap = false;
 397              		.loc 2 324 0 discriminator 5
 398 004c 8C4B     		ldr	r3, .L54
 399 004e 9842     		cmp	r0, r3
 400 0050 03D1     		bne	.L23
 401              	.L25:
 325:..\..\..\arduinoLCD\test\Pain Drain\libraries\lvgl\src\extra\layouts\flex/lv_flex.c ****     }
 402              		.loc 2 325 0 is_stmt 1
 403 0052 F378     		ldrb	r3, [r6, #3]
 404 0054 0222     		movs	r2, #2
 405 0056 9343     		bics	r3, r2
 406 0058 F370     		strb	r3, [r6, #3]
 407              	.L23:
 327:..\..\..\arduinoLCD\test\Pain Drain\libraries\lvgl\src\extra\layouts\flex/lv_flex.c ****     lv_coord_t(*get_cross_size)(const lv_obj_t *) = (!f->row ? lv_obj_get_width : lv_obj_get_height
 408              		.loc 2 327 0
 409 005a F378     		ldrb	r3, [r6, #3]
 410 005c 0122     		movs	r2, #1
 411 005e 1340     		ands	r3, r2
 412 0060 02D0     		beq	.L50
 413 0062 884A     		ldr	r2, .L54+4
 414 0064 0292     		str	r2, [sp, #8]
 415 0066 01E0     		b	.L26
 416              	.L50:
 417 0068 874A     		ldr	r2, .L54+8
 418 006a 0292     		str	r2, [sp, #8]
 419              	.L26:
 420              	.LVL49:
 328:..\..\..\arduinoLCD\test\Pain Drain\libraries\lvgl\src\extra\layouts\flex/lv_flex.c **** 
 421              		.loc 2 328 0 discriminator 4
 422 006c 002B     		cmp	r3, #0
 423 006e 02D1     		bne	.L51
 328:..\..\..\arduinoLCD\test\Pain Drain\libraries\lvgl\src\extra\layouts\flex/lv_flex.c **** 
 424              		.loc 2 328 0 is_stmt 0
 425 0070 844B     		ldr	r3, .L54+4
 426 0072 0193     		str	r3, [sp, #4]
 427 0074 01E0     		b	.L27
 428              	.L51:
ARM GAS  C:\Users\haske\AppData\Local\Temp\ccVRp2Ta.s 			page 22


 429 0076 844B     		ldr	r3, .L54+8
 430 0078 0193     		str	r3, [sp, #4]
 431              	.L27:
 432              	.LVL50:
 330:..\..\..\arduinoLCD\test\Pain Drain\libraries\lvgl\src\extra\layouts\flex/lv_flex.c ****     t->track_fix_main_size = 0;
 433              		.loc 2 330 0 is_stmt 1 discriminator 4
 434 007a 0023     		movs	r3, #0
 435 007c 6B80     		strh	r3, [r5, #2]
 331:..\..\..\arduinoLCD\test\Pain Drain\libraries\lvgl\src\extra\layouts\flex/lv_flex.c ****     t->grow_item_cnt = 0;
 436              		.loc 2 331 0 discriminator 4
 437 007e AB80     		strh	r3, [r5, #4]
 332:..\..\..\arduinoLCD\test\Pain Drain\libraries\lvgl\src\extra\layouts\flex/lv_flex.c ****     t->track_cross_size = 0;
 438              		.loc 2 332 0 discriminator 4
 439 0080 2B61     		str	r3, [r5, #16]
 333:..\..\..\arduinoLCD\test\Pain Drain\libraries\lvgl\src\extra\layouts\flex/lv_flex.c ****     t->item_cnt = 0;
 440              		.loc 2 333 0 discriminator 4
 441 0082 2B80     		strh	r3, [r5]
 334:..\..\..\arduinoLCD\test\Pain Drain\libraries\lvgl\src\extra\layouts\flex/lv_flex.c ****     t->grow_dsc = NULL;
 442              		.loc 2 334 0 discriminator 4
 443 0084 AB60     		str	r3, [r5, #8]
 335:..\..\..\arduinoLCD\test\Pain Drain\libraries\lvgl\src\extra\layouts\flex/lv_flex.c **** 
 444              		.loc 2 335 0 discriminator 4
 445 0086 EB60     		str	r3, [r5, #12]
 337:..\..\..\arduinoLCD\test\Pain Drain\libraries\lvgl\src\extra\layouts\flex/lv_flex.c **** 
 446              		.loc 2 337 0 discriminator 4
 447 0088 0597     		str	r7, [sp, #20]
 339:..\..\..\arduinoLCD\test\Pain Drain\libraries\lvgl\src\extra\layouts\flex/lv_flex.c ****     while(item) {
 448              		.loc 2 339 0 discriminator 4
 449 008a 3900     		movs	r1, r7
 450 008c 0098     		ldr	r0, [sp]
 451 008e FFF7FEFF 		bl	lv_obj_get_child
 452              	.LVL51:
 453 0092 0400     		movs	r4, r0
 454              	.LVL52:
 455 0094 B946     		mov	r9, r7
 456 0096 3700     		movs	r7, r6
 457              	.LVL53:
 340:..\..\..\arduinoLCD\test\Pain Drain\libraries\lvgl\src\extra\layouts\flex/lv_flex.c ****         if(item_id != item_start_id && lv_obj_has_flag(item, LV_OBJ_FLAG_FLEX_IN_NEW_TRACK)) break;
 458              		.loc 2 340 0 discriminator 4
 459 0098 BAE0     		b	.L28
 460              	.LVL54:
 461              	.L46:
 341:..\..\..\arduinoLCD\test\Pain Drain\libraries\lvgl\src\extra\layouts\flex/lv_flex.c **** 
 462              		.loc 2 341 0
 463 009a 059B     		ldr	r3, [sp, #20]
 464 009c 9945     		cmp	r9, r3
 465 009e 07D0     		beq	.L29
 341:..\..\..\arduinoLCD\test\Pain Drain\libraries\lvgl\src\extra\layouts\flex/lv_flex.c **** 
 466              		.loc 2 341 0 is_stmt 0 discriminator 1
 467 00a0 8021     		movs	r1, #128
 468 00a2 0904     		lsls	r1, r1, #16
 469 00a4 2000     		movs	r0, r4
 470              	.LVL55:
 471 00a6 FFF7FEFF 		bl	lv_obj_has_flag
 472              	.LVL56:
 473 00aa 0028     		cmp	r0, #0
 474 00ac 00D0     		beq	.LCB459
ARM GAS  C:\Users\haske\AppData\Local\Temp\ccVRp2Ta.s 			page 23


 475 00ae B2E0     		b	.L30	@long jump
 476              	.LCB459:
 477              	.L29:
 343:..\..\..\arduinoLCD\test\Pain Drain\libraries\lvgl\src\extra\layouts\flex/lv_flex.c ****             uint8_t grow_value = lv_obj_get_style_flex_grow(item, LV_PART_MAIN);
 478              		.loc 2 343 0 is_stmt 1
 479 00b0 7649     		ldr	r1, .L54+12
 480 00b2 2000     		movs	r0, r4
 481 00b4 FFF7FEFF 		bl	lv_obj_has_flag_any
 482              	.LVL57:
 483 00b8 0028     		cmp	r0, #0
 484 00ba 00D0     		beq	.LCB467
 485 00bc 97E0     		b	.L31	@long jump
 486              	.LCB467:
 487              	.LVL58:
 488              	.LBB68:
 489              	.LBB69:
 490              	.LBB70:
 491              		.file 4 "..\\..\\..\\arduinoLCD\\test\\Pain Drain\\libraries\\lvgl\\src\\extra\\layouts\\flex\\../
   1:..\..\..\arduinoLCD\test\Pain Drain\libraries\lvgl\src\extra\layouts\flex\../flex/lv_flex.h **** /**
   2:..\..\..\arduinoLCD\test\Pain Drain\libraries\lvgl\src\extra\layouts\flex\../flex/lv_flex.h ****  * @file lv_flex.h
   3:..\..\..\arduinoLCD\test\Pain Drain\libraries\lvgl\src\extra\layouts\flex\../flex/lv_flex.h ****  *
   4:..\..\..\arduinoLCD\test\Pain Drain\libraries\lvgl\src\extra\layouts\flex\../flex/lv_flex.h ****  */
   5:..\..\..\arduinoLCD\test\Pain Drain\libraries\lvgl\src\extra\layouts\flex\../flex/lv_flex.h **** 
   6:..\..\..\arduinoLCD\test\Pain Drain\libraries\lvgl\src\extra\layouts\flex\../flex/lv_flex.h **** #ifndef LV_FLEX_H
   7:..\..\..\arduinoLCD\test\Pain Drain\libraries\lvgl\src\extra\layouts\flex\../flex/lv_flex.h **** #define LV_FLEX_H
   8:..\..\..\arduinoLCD\test\Pain Drain\libraries\lvgl\src\extra\layouts\flex\../flex/lv_flex.h **** 
   9:..\..\..\arduinoLCD\test\Pain Drain\libraries\lvgl\src\extra\layouts\flex\../flex/lv_flex.h **** #ifdef __cplusplus
  10:..\..\..\arduinoLCD\test\Pain Drain\libraries\lvgl\src\extra\layouts\flex\../flex/lv_flex.h **** extern "C" {
  11:..\..\..\arduinoLCD\test\Pain Drain\libraries\lvgl\src\extra\layouts\flex\../flex/lv_flex.h **** #endif
  12:..\..\..\arduinoLCD\test\Pain Drain\libraries\lvgl\src\extra\layouts\flex\../flex/lv_flex.h **** 
  13:..\..\..\arduinoLCD\test\Pain Drain\libraries\lvgl\src\extra\layouts\flex\../flex/lv_flex.h **** /*********************
  14:..\..\..\arduinoLCD\test\Pain Drain\libraries\lvgl\src\extra\layouts\flex\../flex/lv_flex.h ****  *      INCLUDES
  15:..\..\..\arduinoLCD\test\Pain Drain\libraries\lvgl\src\extra\layouts\flex\../flex/lv_flex.h ****  *********************/
  16:..\..\..\arduinoLCD\test\Pain Drain\libraries\lvgl\src\extra\layouts\flex\../flex/lv_flex.h **** #include "../../../core/lv_obj.h"
  17:..\..\..\arduinoLCD\test\Pain Drain\libraries\lvgl\src\extra\layouts\flex\../flex/lv_flex.h **** #if LV_USE_FLEX
  18:..\..\..\arduinoLCD\test\Pain Drain\libraries\lvgl\src\extra\layouts\flex\../flex/lv_flex.h **** 
  19:..\..\..\arduinoLCD\test\Pain Drain\libraries\lvgl\src\extra\layouts\flex\../flex/lv_flex.h **** /*********************
  20:..\..\..\arduinoLCD\test\Pain Drain\libraries\lvgl\src\extra\layouts\flex\../flex/lv_flex.h ****  *      DEFINES
  21:..\..\..\arduinoLCD\test\Pain Drain\libraries\lvgl\src\extra\layouts\flex\../flex/lv_flex.h ****  *********************/
  22:..\..\..\arduinoLCD\test\Pain Drain\libraries\lvgl\src\extra\layouts\flex\../flex/lv_flex.h **** 
  23:..\..\..\arduinoLCD\test\Pain Drain\libraries\lvgl\src\extra\layouts\flex\../flex/lv_flex.h **** #define LV_OBJ_FLAG_FLEX_IN_NEW_TRACK   LV_OBJ_FLAG_LAYOUT_1
  24:..\..\..\arduinoLCD\test\Pain Drain\libraries\lvgl\src\extra\layouts\flex\../flex/lv_flex.h **** LV_EXPORT_CONST_INT(LV_OBJ_FLAG_FLEX_IN_NEW_TRACK);
  25:..\..\..\arduinoLCD\test\Pain Drain\libraries\lvgl\src\extra\layouts\flex\../flex/lv_flex.h **** 
  26:..\..\..\arduinoLCD\test\Pain Drain\libraries\lvgl\src\extra\layouts\flex\../flex/lv_flex.h **** #define _LV_FLEX_COLUMN        (1 << 0)
  27:..\..\..\arduinoLCD\test\Pain Drain\libraries\lvgl\src\extra\layouts\flex\../flex/lv_flex.h **** #define _LV_FLEX_WRAP       (1 << 2)
  28:..\..\..\arduinoLCD\test\Pain Drain\libraries\lvgl\src\extra\layouts\flex\../flex/lv_flex.h **** #define _LV_FLEX_REVERSE    (1 << 3)
  29:..\..\..\arduinoLCD\test\Pain Drain\libraries\lvgl\src\extra\layouts\flex\../flex/lv_flex.h **** 
  30:..\..\..\arduinoLCD\test\Pain Drain\libraries\lvgl\src\extra\layouts\flex\../flex/lv_flex.h **** /**********************
  31:..\..\..\arduinoLCD\test\Pain Drain\libraries\lvgl\src\extra\layouts\flex\../flex/lv_flex.h ****  *      TYPEDEFS
  32:..\..\..\arduinoLCD\test\Pain Drain\libraries\lvgl\src\extra\layouts\flex\../flex/lv_flex.h ****  **********************/
  33:..\..\..\arduinoLCD\test\Pain Drain\libraries\lvgl\src\extra\layouts\flex\../flex/lv_flex.h **** 
  34:..\..\..\arduinoLCD\test\Pain Drain\libraries\lvgl\src\extra\layouts\flex\../flex/lv_flex.h **** /*Can't include lv_obj.h because it includes this header file*/
  35:..\..\..\arduinoLCD\test\Pain Drain\libraries\lvgl\src\extra\layouts\flex\../flex/lv_flex.h **** struct _lv_obj_t;
  36:..\..\..\arduinoLCD\test\Pain Drain\libraries\lvgl\src\extra\layouts\flex\../flex/lv_flex.h **** 
  37:..\..\..\arduinoLCD\test\Pain Drain\libraries\lvgl\src\extra\layouts\flex\../flex/lv_flex.h **** typedef enum {
  38:..\..\..\arduinoLCD\test\Pain Drain\libraries\lvgl\src\extra\layouts\flex\../flex/lv_flex.h ****     LV_FLEX_ALIGN_START,
  39:..\..\..\arduinoLCD\test\Pain Drain\libraries\lvgl\src\extra\layouts\flex\../flex/lv_flex.h ****     LV_FLEX_ALIGN_END,
ARM GAS  C:\Users\haske\AppData\Local\Temp\ccVRp2Ta.s 			page 24


  40:..\..\..\arduinoLCD\test\Pain Drain\libraries\lvgl\src\extra\layouts\flex\../flex/lv_flex.h ****     LV_FLEX_ALIGN_CENTER,
  41:..\..\..\arduinoLCD\test\Pain Drain\libraries\lvgl\src\extra\layouts\flex\../flex/lv_flex.h ****     LV_FLEX_ALIGN_SPACE_EVENLY,
  42:..\..\..\arduinoLCD\test\Pain Drain\libraries\lvgl\src\extra\layouts\flex\../flex/lv_flex.h ****     LV_FLEX_ALIGN_SPACE_AROUND,
  43:..\..\..\arduinoLCD\test\Pain Drain\libraries\lvgl\src\extra\layouts\flex\../flex/lv_flex.h ****     LV_FLEX_ALIGN_SPACE_BETWEEN,
  44:..\..\..\arduinoLCD\test\Pain Drain\libraries\lvgl\src\extra\layouts\flex\../flex/lv_flex.h **** } lv_flex_align_t;
  45:..\..\..\arduinoLCD\test\Pain Drain\libraries\lvgl\src\extra\layouts\flex\../flex/lv_flex.h **** 
  46:..\..\..\arduinoLCD\test\Pain Drain\libraries\lvgl\src\extra\layouts\flex\../flex/lv_flex.h **** typedef enum {
  47:..\..\..\arduinoLCD\test\Pain Drain\libraries\lvgl\src\extra\layouts\flex\../flex/lv_flex.h ****     LV_FLEX_FLOW_ROW                 = 0x00,
  48:..\..\..\arduinoLCD\test\Pain Drain\libraries\lvgl\src\extra\layouts\flex\../flex/lv_flex.h ****     LV_FLEX_FLOW_COLUMN              = _LV_FLEX_COLUMN,
  49:..\..\..\arduinoLCD\test\Pain Drain\libraries\lvgl\src\extra\layouts\flex\../flex/lv_flex.h ****     LV_FLEX_FLOW_ROW_WRAP            = LV_FLEX_FLOW_ROW | _LV_FLEX_WRAP,
  50:..\..\..\arduinoLCD\test\Pain Drain\libraries\lvgl\src\extra\layouts\flex\../flex/lv_flex.h ****     LV_FLEX_FLOW_ROW_REVERSE         = LV_FLEX_FLOW_ROW | _LV_FLEX_REVERSE,
  51:..\..\..\arduinoLCD\test\Pain Drain\libraries\lvgl\src\extra\layouts\flex\../flex/lv_flex.h ****     LV_FLEX_FLOW_ROW_WRAP_REVERSE    = LV_FLEX_FLOW_ROW | _LV_FLEX_WRAP | _LV_FLEX_REVERSE,
  52:..\..\..\arduinoLCD\test\Pain Drain\libraries\lvgl\src\extra\layouts\flex\../flex/lv_flex.h ****     LV_FLEX_FLOW_COLUMN_WRAP         = LV_FLEX_FLOW_COLUMN | _LV_FLEX_WRAP,
  53:..\..\..\arduinoLCD\test\Pain Drain\libraries\lvgl\src\extra\layouts\flex\../flex/lv_flex.h ****     LV_FLEX_FLOW_COLUMN_REVERSE      = LV_FLEX_FLOW_COLUMN | _LV_FLEX_REVERSE,
  54:..\..\..\arduinoLCD\test\Pain Drain\libraries\lvgl\src\extra\layouts\flex\../flex/lv_flex.h ****     LV_FLEX_FLOW_COLUMN_WRAP_REVERSE = LV_FLEX_FLOW_COLUMN | _LV_FLEX_WRAP | _LV_FLEX_REVERSE,
  55:..\..\..\arduinoLCD\test\Pain Drain\libraries\lvgl\src\extra\layouts\flex\../flex/lv_flex.h **** } lv_flex_flow_t;
  56:..\..\..\arduinoLCD\test\Pain Drain\libraries\lvgl\src\extra\layouts\flex\../flex/lv_flex.h **** 
  57:..\..\..\arduinoLCD\test\Pain Drain\libraries\lvgl\src\extra\layouts\flex\../flex/lv_flex.h **** /**********************
  58:..\..\..\arduinoLCD\test\Pain Drain\libraries\lvgl\src\extra\layouts\flex\../flex/lv_flex.h ****  * GLOBAL VARIABLES
  59:..\..\..\arduinoLCD\test\Pain Drain\libraries\lvgl\src\extra\layouts\flex\../flex/lv_flex.h ****  **********************/
  60:..\..\..\arduinoLCD\test\Pain Drain\libraries\lvgl\src\extra\layouts\flex\../flex/lv_flex.h **** extern uint16_t LV_LAYOUT_FLEX;
  61:..\..\..\arduinoLCD\test\Pain Drain\libraries\lvgl\src\extra\layouts\flex\../flex/lv_flex.h **** extern lv_style_prop_t LV_STYLE_FLEX_FLOW;
  62:..\..\..\arduinoLCD\test\Pain Drain\libraries\lvgl\src\extra\layouts\flex\../flex/lv_flex.h **** extern lv_style_prop_t LV_STYLE_FLEX_MAIN_PLACE;
  63:..\..\..\arduinoLCD\test\Pain Drain\libraries\lvgl\src\extra\layouts\flex\../flex/lv_flex.h **** extern lv_style_prop_t LV_STYLE_FLEX_CROSS_PLACE;
  64:..\..\..\arduinoLCD\test\Pain Drain\libraries\lvgl\src\extra\layouts\flex\../flex/lv_flex.h **** extern lv_style_prop_t LV_STYLE_FLEX_TRACK_PLACE;
  65:..\..\..\arduinoLCD\test\Pain Drain\libraries\lvgl\src\extra\layouts\flex\../flex/lv_flex.h **** extern lv_style_prop_t LV_STYLE_FLEX_GROW;
  66:..\..\..\arduinoLCD\test\Pain Drain\libraries\lvgl\src\extra\layouts\flex\../flex/lv_flex.h **** 
  67:..\..\..\arduinoLCD\test\Pain Drain\libraries\lvgl\src\extra\layouts\flex\../flex/lv_flex.h **** /**********************
  68:..\..\..\arduinoLCD\test\Pain Drain\libraries\lvgl\src\extra\layouts\flex\../flex/lv_flex.h ****  * GLOBAL PROTOTYPES
  69:..\..\..\arduinoLCD\test\Pain Drain\libraries\lvgl\src\extra\layouts\flex\../flex/lv_flex.h ****  **********************/
  70:..\..\..\arduinoLCD\test\Pain Drain\libraries\lvgl\src\extra\layouts\flex\../flex/lv_flex.h **** 
  71:..\..\..\arduinoLCD\test\Pain Drain\libraries\lvgl\src\extra\layouts\flex\../flex/lv_flex.h **** /**
  72:..\..\..\arduinoLCD\test\Pain Drain\libraries\lvgl\src\extra\layouts\flex\../flex/lv_flex.h ****  * Initialize a flex layout the default values
  73:..\..\..\arduinoLCD\test\Pain Drain\libraries\lvgl\src\extra\layouts\flex\../flex/lv_flex.h ****  * @param flex pointer to a flex layout descriptor
  74:..\..\..\arduinoLCD\test\Pain Drain\libraries\lvgl\src\extra\layouts\flex\../flex/lv_flex.h ****  */
  75:..\..\..\arduinoLCD\test\Pain Drain\libraries\lvgl\src\extra\layouts\flex\../flex/lv_flex.h **** void lv_flex_init(void);
  76:..\..\..\arduinoLCD\test\Pain Drain\libraries\lvgl\src\extra\layouts\flex\../flex/lv_flex.h **** 
  77:..\..\..\arduinoLCD\test\Pain Drain\libraries\lvgl\src\extra\layouts\flex\../flex/lv_flex.h **** /**
  78:..\..\..\arduinoLCD\test\Pain Drain\libraries\lvgl\src\extra\layouts\flex\../flex/lv_flex.h ****  * Set hot the item should flow
  79:..\..\..\arduinoLCD\test\Pain Drain\libraries\lvgl\src\extra\layouts\flex\../flex/lv_flex.h ****  * @param flex pointer to a flex layout descriptor
  80:..\..\..\arduinoLCD\test\Pain Drain\libraries\lvgl\src\extra\layouts\flex\../flex/lv_flex.h ****  * @param flow an element of `lv_flex_flow_t`.
  81:..\..\..\arduinoLCD\test\Pain Drain\libraries\lvgl\src\extra\layouts\flex\../flex/lv_flex.h ****  */
  82:..\..\..\arduinoLCD\test\Pain Drain\libraries\lvgl\src\extra\layouts\flex\../flex/lv_flex.h **** void lv_obj_set_flex_flow(lv_obj_t * obj, lv_flex_flow_t flow);
  83:..\..\..\arduinoLCD\test\Pain Drain\libraries\lvgl\src\extra\layouts\flex\../flex/lv_flex.h **** 
  84:..\..\..\arduinoLCD\test\Pain Drain\libraries\lvgl\src\extra\layouts\flex\../flex/lv_flex.h **** /**
  85:..\..\..\arduinoLCD\test\Pain Drain\libraries\lvgl\src\extra\layouts\flex\../flex/lv_flex.h ****  * Set how to place (where to align) the items and tracks
  86:..\..\..\arduinoLCD\test\Pain Drain\libraries\lvgl\src\extra\layouts\flex\../flex/lv_flex.h ****  * @param flex pointer: to a flex layout descriptor
  87:..\..\..\arduinoLCD\test\Pain Drain\libraries\lvgl\src\extra\layouts\flex\../flex/lv_flex.h ****  * @param main_place where to place the items on main axis (in their track). Any value of `lv_flex_
  88:..\..\..\arduinoLCD\test\Pain Drain\libraries\lvgl\src\extra\layouts\flex\../flex/lv_flex.h ****  * @param cross_place where to place the item in their track on the cross axis. `LV_FLEX_ALIGN_STAR
  89:..\..\..\arduinoLCD\test\Pain Drain\libraries\lvgl\src\extra\layouts\flex\../flex/lv_flex.h ****  * @param track_place where to place the tracks in the cross direction. Any value of `lv_flex_align
  90:..\..\..\arduinoLCD\test\Pain Drain\libraries\lvgl\src\extra\layouts\flex\../flex/lv_flex.h ****  */
  91:..\..\..\arduinoLCD\test\Pain Drain\libraries\lvgl\src\extra\layouts\flex\../flex/lv_flex.h **** void lv_obj_set_flex_align(lv_obj_t * obj, lv_flex_align_t main_place, lv_flex_align_t cross_place,
  92:..\..\..\arduinoLCD\test\Pain Drain\libraries\lvgl\src\extra\layouts\flex\../flex/lv_flex.h ****                            lv_flex_align_t track_cross_place);
  93:..\..\..\arduinoLCD\test\Pain Drain\libraries\lvgl\src\extra\layouts\flex\../flex/lv_flex.h **** 
  94:..\..\..\arduinoLCD\test\Pain Drain\libraries\lvgl\src\extra\layouts\flex\../flex/lv_flex.h **** /**
  95:..\..\..\arduinoLCD\test\Pain Drain\libraries\lvgl\src\extra\layouts\flex\../flex/lv_flex.h ****  * Sets the width or height (on main axis) to grow the object in order fill the free space
  96:..\..\..\arduinoLCD\test\Pain Drain\libraries\lvgl\src\extra\layouts\flex\../flex/lv_flex.h ****  * @param obj pointer to an object. The parent must have flex layout else nothing will happen.
ARM GAS  C:\Users\haske\AppData\Local\Temp\ccVRp2Ta.s 			page 25


  97:..\..\..\arduinoLCD\test\Pain Drain\libraries\lvgl\src\extra\layouts\flex\../flex/lv_flex.h ****  * @param grow a value to set how much free space to take proportionally to other growing items.
  98:..\..\..\arduinoLCD\test\Pain Drain\libraries\lvgl\src\extra\layouts\flex\../flex/lv_flex.h ****  */
  99:..\..\..\arduinoLCD\test\Pain Drain\libraries\lvgl\src\extra\layouts\flex\../flex/lv_flex.h **** void lv_obj_set_flex_grow(lv_obj_t * obj, uint8_t grow);
 100:..\..\..\arduinoLCD\test\Pain Drain\libraries\lvgl\src\extra\layouts\flex\../flex/lv_flex.h **** 
 101:..\..\..\arduinoLCD\test\Pain Drain\libraries\lvgl\src\extra\layouts\flex\../flex/lv_flex.h **** void lv_style_set_flex_flow(lv_style_t * style, lv_flex_flow_t value);
 102:..\..\..\arduinoLCD\test\Pain Drain\libraries\lvgl\src\extra\layouts\flex\../flex/lv_flex.h **** void lv_style_set_flex_main_place(lv_style_t * style, lv_flex_align_t value);
 103:..\..\..\arduinoLCD\test\Pain Drain\libraries\lvgl\src\extra\layouts\flex\../flex/lv_flex.h **** void lv_style_set_flex_cross_place(lv_style_t * style, lv_flex_align_t value);
 104:..\..\..\arduinoLCD\test\Pain Drain\libraries\lvgl\src\extra\layouts\flex\../flex/lv_flex.h **** void lv_style_set_flex_track_place(lv_style_t * style, lv_flex_align_t value);
 105:..\..\..\arduinoLCD\test\Pain Drain\libraries\lvgl\src\extra\layouts\flex\../flex/lv_flex.h **** void lv_style_set_flex_grow(lv_style_t * style, uint8_t value);
 106:..\..\..\arduinoLCD\test\Pain Drain\libraries\lvgl\src\extra\layouts\flex\../flex/lv_flex.h **** void lv_obj_set_style_flex_flow(lv_obj_t * obj, lv_flex_flow_t value, lv_style_selector_t selector)
 107:..\..\..\arduinoLCD\test\Pain Drain\libraries\lvgl\src\extra\layouts\flex\../flex/lv_flex.h **** void lv_obj_set_style_flex_main_place(lv_obj_t * obj, lv_flex_align_t value, lv_style_selector_t se
 108:..\..\..\arduinoLCD\test\Pain Drain\libraries\lvgl\src\extra\layouts\flex\../flex/lv_flex.h **** void lv_obj_set_style_flex_cross_place(lv_obj_t * obj, lv_flex_align_t value, lv_style_selector_t s
 109:..\..\..\arduinoLCD\test\Pain Drain\libraries\lvgl\src\extra\layouts\flex\../flex/lv_flex.h **** void lv_obj_set_style_flex_track_place(lv_obj_t * obj, lv_flex_align_t value, lv_style_selector_t s
 110:..\..\..\arduinoLCD\test\Pain Drain\libraries\lvgl\src\extra\layouts\flex\../flex/lv_flex.h **** void lv_obj_set_style_flex_grow(lv_obj_t * obj, uint8_t value, lv_style_selector_t selector);
 111:..\..\..\arduinoLCD\test\Pain Drain\libraries\lvgl\src\extra\layouts\flex\../flex/lv_flex.h **** 
 112:..\..\..\arduinoLCD\test\Pain Drain\libraries\lvgl\src\extra\layouts\flex\../flex/lv_flex.h **** static inline lv_flex_flow_t lv_obj_get_style_flex_flow(const lv_obj_t * obj, uint32_t part)
 113:..\..\..\arduinoLCD\test\Pain Drain\libraries\lvgl\src\extra\layouts\flex\../flex/lv_flex.h **** {
 114:..\..\..\arduinoLCD\test\Pain Drain\libraries\lvgl\src\extra\layouts\flex\../flex/lv_flex.h ****     lv_style_value_t v = lv_obj_get_style_prop(obj, part, LV_STYLE_FLEX_FLOW);
 115:..\..\..\arduinoLCD\test\Pain Drain\libraries\lvgl\src\extra\layouts\flex\../flex/lv_flex.h ****     return (lv_flex_flow_t)v.num;
 116:..\..\..\arduinoLCD\test\Pain Drain\libraries\lvgl\src\extra\layouts\flex\../flex/lv_flex.h **** }
 117:..\..\..\arduinoLCD\test\Pain Drain\libraries\lvgl\src\extra\layouts\flex\../flex/lv_flex.h **** 
 118:..\..\..\arduinoLCD\test\Pain Drain\libraries\lvgl\src\extra\layouts\flex\../flex/lv_flex.h **** static inline lv_flex_align_t lv_obj_get_style_flex_main_place(const lv_obj_t * obj, uint32_t part)
 119:..\..\..\arduinoLCD\test\Pain Drain\libraries\lvgl\src\extra\layouts\flex\../flex/lv_flex.h **** {
 120:..\..\..\arduinoLCD\test\Pain Drain\libraries\lvgl\src\extra\layouts\flex\../flex/lv_flex.h ****     lv_style_value_t v = lv_obj_get_style_prop(obj, part, LV_STYLE_FLEX_MAIN_PLACE);
 121:..\..\..\arduinoLCD\test\Pain Drain\libraries\lvgl\src\extra\layouts\flex\../flex/lv_flex.h ****     return (lv_flex_align_t)v.num;
 122:..\..\..\arduinoLCD\test\Pain Drain\libraries\lvgl\src\extra\layouts\flex\../flex/lv_flex.h **** }
 123:..\..\..\arduinoLCD\test\Pain Drain\libraries\lvgl\src\extra\layouts\flex\../flex/lv_flex.h **** 
 124:..\..\..\arduinoLCD\test\Pain Drain\libraries\lvgl\src\extra\layouts\flex\../flex/lv_flex.h **** static inline lv_flex_align_t lv_obj_get_style_flex_cross_place(const lv_obj_t * obj, uint32_t part
 125:..\..\..\arduinoLCD\test\Pain Drain\libraries\lvgl\src\extra\layouts\flex\../flex/lv_flex.h **** {
 126:..\..\..\arduinoLCD\test\Pain Drain\libraries\lvgl\src\extra\layouts\flex\../flex/lv_flex.h ****     lv_style_value_t v = lv_obj_get_style_prop(obj, part, LV_STYLE_FLEX_CROSS_PLACE);
 127:..\..\..\arduinoLCD\test\Pain Drain\libraries\lvgl\src\extra\layouts\flex\../flex/lv_flex.h ****     return (lv_flex_align_t)v.num;
 128:..\..\..\arduinoLCD\test\Pain Drain\libraries\lvgl\src\extra\layouts\flex\../flex/lv_flex.h **** }
 129:..\..\..\arduinoLCD\test\Pain Drain\libraries\lvgl\src\extra\layouts\flex\../flex/lv_flex.h **** 
 130:..\..\..\arduinoLCD\test\Pain Drain\libraries\lvgl\src\extra\layouts\flex\../flex/lv_flex.h **** static inline lv_flex_align_t lv_obj_get_style_flex_track_place(const lv_obj_t * obj, uint32_t part
 131:..\..\..\arduinoLCD\test\Pain Drain\libraries\lvgl\src\extra\layouts\flex\../flex/lv_flex.h **** {
 132:..\..\..\arduinoLCD\test\Pain Drain\libraries\lvgl\src\extra\layouts\flex\../flex/lv_flex.h ****     lv_style_value_t v = lv_obj_get_style_prop(obj, part, LV_STYLE_FLEX_TRACK_PLACE);
 133:..\..\..\arduinoLCD\test\Pain Drain\libraries\lvgl\src\extra\layouts\flex\../flex/lv_flex.h ****     return (lv_flex_align_t)v.num;
 134:..\..\..\arduinoLCD\test\Pain Drain\libraries\lvgl\src\extra\layouts\flex\../flex/lv_flex.h **** }
 135:..\..\..\arduinoLCD\test\Pain Drain\libraries\lvgl\src\extra\layouts\flex\../flex/lv_flex.h **** 
 136:..\..\..\arduinoLCD\test\Pain Drain\libraries\lvgl\src\extra\layouts\flex\../flex/lv_flex.h **** static inline uint8_t lv_obj_get_style_flex_grow(const lv_obj_t * obj, uint32_t part)
 137:..\..\..\arduinoLCD\test\Pain Drain\libraries\lvgl\src\extra\layouts\flex\../flex/lv_flex.h **** {
 138:..\..\..\arduinoLCD\test\Pain Drain\libraries\lvgl\src\extra\layouts\flex\../flex/lv_flex.h ****     lv_style_value_t v = lv_obj_get_style_prop(obj, part, LV_STYLE_FLEX_GROW);
 492              		.loc 4 138 0
 493 00be 744B     		ldr	r3, .L54+16
 494 00c0 1A88     		ldrh	r2, [r3]
 495 00c2 0021     		movs	r1, #0
 496 00c4 2000     		movs	r0, r4
 497 00c6 FFF7FEFF 		bl	lv_obj_get_style_prop
 498              	.LVL59:
 139:..\..\..\arduinoLCD\test\Pain Drain\libraries\lvgl\src\extra\layouts\flex\../flex/lv_flex.h ****     return (uint8_t)v.num;
 499              		.loc 4 139 0
 500 00ca C6B2     		uxtb	r6, r0
 501              	.LVL60:
 502              	.LBE70:
 503              	.LBE69:
 345:..\..\..\arduinoLCD\test\Pain Drain\libraries\lvgl\src\extra\layouts\flex/lv_flex.c ****                 t->grow_item_cnt++;
 504              		.loc 2 345 0
ARM GAS  C:\Users\haske\AppData\Local\Temp\ccVRp2Ta.s 			page 26


 505 00cc 002E     		cmp	r6, #0
 506 00ce 6FD0     		beq	.L32
 346:..\..\..\arduinoLCD\test\Pain Drain\libraries\lvgl\src\extra\layouts\flex/lv_flex.c ****                 t->track_fix_main_size += item_gap;
 507              		.loc 2 346 0
 508 00d0 2B69     		ldr	r3, [r5, #16]
 509 00d2 0133     		adds	r3, r3, #1
 510 00d4 2B61     		str	r3, [r5, #16]
 347:..\..\..\arduinoLCD\test\Pain Drain\libraries\lvgl\src\extra\layouts\flex/lv_flex.c ****                 if(t->grow_dsc_calc) {
 511              		.loc 2 347 0
 512 00d6 AA88     		ldrh	r2, [r5, #4]
 513 00d8 4244     		add	r2, r2, r8
 514 00da AA80     		strh	r2, [r5, #4]
 348:..\..\..\arduinoLCD\test\Pain Drain\libraries\lvgl\src\extra\layouts\flex/lv_flex.c ****                     grow_dsc_t * new_dsc = lv_mem_buf_get(sizeof(grow_dsc_t) * (t->grow_item_cnt));
 515              		.loc 2 348 0
 516 00dc 2A7D     		ldrb	r2, [r5, #20]
 517 00de D207     		lsls	r2, r2, #31
 518 00e0 76D5     		bpl	.L33
 519              	.LBB71:
 349:..\..\..\arduinoLCD\test\Pain Drain\libraries\lvgl\src\extra\layouts\flex/lv_flex.c ****                     LV_ASSERT_MALLOC(new_dsc);
 520              		.loc 2 349 0
 521 00e2 9A00     		lsls	r2, r3, #2
 522 00e4 D318     		adds	r3, r2, r3
 523 00e6 9800     		lsls	r0, r3, #2
 524 00e8 FFF7FEFF 		bl	lv_mem_buf_get
 525              	.LVL61:
 526 00ec 8246     		mov	r10, r0
 527              	.LVL62:
 350:..\..\..\arduinoLCD\test\Pain Drain\libraries\lvgl\src\extra\layouts\flex/lv_flex.c ****                     if(new_dsc == NULL) return item_id;
 528              		.loc 2 350 0
 529 00ee 0028     		cmp	r0, #0
 530 00f0 00D1     		bne	.L34
 531              	.L35:
 532 00f2 FEE7     		b	.L35
 533              	.L34:
 351:..\..\..\arduinoLCD\test\Pain Drain\libraries\lvgl\src\extra\layouts\flex/lv_flex.c **** 
 534              		.loc 2 351 0
 535 00f4 0028     		cmp	r0, #0
 536 00f6 01D1     		bne	.L36
 351:..\..\..\arduinoLCD\test\Pain Drain\libraries\lvgl\src\extra\layouts\flex/lv_flex.c **** 
 537              		.loc 2 351 0 is_stmt 0 discriminator 1
 538 00f8 0598     		ldr	r0, [sp, #20]
 539              	.LVL63:
 540 00fa BAE0     		b	.L37
 541              	.LVL64:
 542              	.L36:
 353:..\..\..\arduinoLCD\test\Pain Drain\libraries\lvgl\src\extra\layouts\flex/lv_flex.c ****                         lv_memcpy(new_dsc, t->grow_dsc, sizeof(grow_dsc_t) * (t->grow_item_cnt - 1)
 543              		.loc 2 353 0 is_stmt 1
 544 00fc E968     		ldr	r1, [r5, #12]
 545 00fe 0029     		cmp	r1, #0
 546 0100 09D0     		beq	.L38
 354:..\..\..\arduinoLCD\test\Pain Drain\libraries\lvgl\src\extra\layouts\flex/lv_flex.c ****                         lv_mem_buf_release(t->grow_dsc);
 547              		.loc 2 354 0
 548 0102 2B69     		ldr	r3, [r5, #16]
 549 0104 9A00     		lsls	r2, r3, #2
 550 0106 D318     		adds	r3, r2, r3
 551 0108 9A00     		lsls	r2, r3, #2
 552 010a 143A     		subs	r2, r2, #20
ARM GAS  C:\Users\haske\AppData\Local\Temp\ccVRp2Ta.s 			page 27


 553 010c FFF7FEFF 		bl	lv_memcpy
 554              	.LVL65:
 355:..\..\..\arduinoLCD\test\Pain Drain\libraries\lvgl\src\extra\layouts\flex/lv_flex.c ****                     }
 555              		.loc 2 355 0
 556 0110 E868     		ldr	r0, [r5, #12]
 557 0112 FFF7FEFF 		bl	lv_mem_buf_release
 558              	.LVL66:
 559              	.L38:
 357:..\..\..\arduinoLCD\test\Pain Drain\libraries\lvgl\src\extra\layouts\flex/lv_flex.c ****                     new_dsc[t->grow_item_cnt - 1].min_size = f->row ? lv_obj_get_style_min_width(it
 560              		.loc 2 357 0
 561 0116 2B69     		ldr	r3, [r5, #16]
 562 0118 9A00     		lsls	r2, r3, #2
 563 011a D318     		adds	r3, r2, r3
 564 011c 9A00     		lsls	r2, r3, #2
 565 011e 143A     		subs	r2, r2, #20
 566 0120 5346     		mov	r3, r10
 567 0122 9C50     		str	r4, [r3, r2]
 358:..\..\..\arduinoLCD\test\Pain Drain\libraries\lvgl\src\extra\layouts\flex/lv_flex.c ****                                                                                                  LV
 568              		.loc 2 358 0
 569 0124 2B69     		ldr	r3, [r5, #16]
 570 0126 9A00     		lsls	r2, r3, #2
 571 0128 D318     		adds	r3, r2, r3
 572 012a 9A00     		lsls	r2, r3, #2
 573 012c 143A     		subs	r2, r2, #20
 574 012e 5244     		add	r2, r2, r10
 575 0130 9346     		mov	fp, r2
 576 0132 FB78     		ldrb	r3, [r7, #3]
 577 0134 DB07     		lsls	r3, r3, #31
 578 0136 06D5     		bpl	.L39
 579              	.LVL67:
 580              	.LBB72:
 581              	.LBB73:
   9:c:\projects\paindrain\arduinolcd\test\pain drain\libraries\lvgl\src\core\lv_obj_style_gen.h ****     return (lv_coord_t)v.num;
 582              		.loc 3 9 0
 583 0138 0222     		movs	r2, #2
 584 013a 0021     		movs	r1, #0
 585 013c 2000     		movs	r0, r4
 586 013e FFF7FEFF 		bl	lv_obj_get_style_prop
 587              	.LVL68:
  10:c:\projects\paindrain\arduinolcd\test\pain drain\libraries\lvgl\src\core\lv_obj_style_gen.h **** }
 588              		.loc 3 10 0
 589 0142 00B2     		sxth	r0, r0
 590              	.LVL69:
 591              	.LBE73:
 592              	.LBE72:
 593 0144 05E0     		b	.L40
 594              	.L39:
 595              	.LVL70:
 596              	.LBB74:
 597              	.LBB75:
  23:c:\projects\paindrain\arduinolcd\test\pain drain\libraries\lvgl\src\core\lv_obj_style_gen.h **** }
  24:c:\projects\paindrain\arduinolcd\test\pain drain\libraries\lvgl\src\core\lv_obj_style_gen.h **** 
  25:c:\projects\paindrain\arduinolcd\test\pain drain\libraries\lvgl\src\core\lv_obj_style_gen.h **** static inline lv_coord_t lv_obj_get_style_min_height(const struct _lv_obj_t * obj, uint32_t part)
  26:c:\projects\paindrain\arduinolcd\test\pain drain\libraries\lvgl\src\core\lv_obj_style_gen.h **** {
  27:c:\projects\paindrain\arduinolcd\test\pain drain\libraries\lvgl\src\core\lv_obj_style_gen.h ****     lv_style_value_t v = lv_obj_get_style_prop(obj, part, LV_STYLE_MIN_HEIGHT);
 598              		.loc 3 27 0
 599 0146 0522     		movs	r2, #5
ARM GAS  C:\Users\haske\AppData\Local\Temp\ccVRp2Ta.s 			page 28


 600 0148 0021     		movs	r1, #0
 601 014a 2000     		movs	r0, r4
 602 014c FFF7FEFF 		bl	lv_obj_get_style_prop
 603              	.LVL71:
  28:c:\projects\paindrain\arduinolcd\test\pain drain\libraries\lvgl\src\core\lv_obj_style_gen.h ****     return (lv_coord_t)v.num;
 604              		.loc 3 28 0
 605 0150 00B2     		sxth	r0, r0
 606              	.LVL72:
 607              	.L40:
 608              	.LBE75:
 609              	.LBE74:
 358:..\..\..\arduinoLCD\test\Pain Drain\libraries\lvgl\src\extra\layouts\flex/lv_flex.c ****                                                                                                  LV
 610              		.loc 2 358 0 discriminator 4
 611 0152 5B46     		mov	r3, fp
 612 0154 9880     		strh	r0, [r3, #4]
 360:..\..\..\arduinoLCD\test\Pain Drain\libraries\lvgl\src\extra\layouts\flex/lv_flex.c ****                                                                                                  LV
 613              		.loc 2 360 0 discriminator 4
 614 0156 2B69     		ldr	r3, [r5, #16]
 615 0158 9A00     		lsls	r2, r3, #2
 616 015a D318     		adds	r3, r2, r3
 617 015c 9A00     		lsls	r2, r3, #2
 618 015e 143A     		subs	r2, r2, #20
 619 0160 5244     		add	r2, r2, r10
 620 0162 9346     		mov	fp, r2
 621 0164 FB78     		ldrb	r3, [r7, #3]
 622 0166 DB07     		lsls	r3, r3, #31
 623 0168 06D5     		bpl	.L41
 624              	.LVL73:
 625              	.LBB76:
 626              	.LBB77:
  15:c:\projects\paindrain\arduinolcd\test\pain drain\libraries\lvgl\src\core\lv_obj_style_gen.h ****     return (lv_coord_t)v.num;
 627              		.loc 3 15 0
 628 016a 0322     		movs	r2, #3
 629 016c 0021     		movs	r1, #0
 630 016e 2000     		movs	r0, r4
 631 0170 FFF7FEFF 		bl	lv_obj_get_style_prop
 632              	.LVL74:
  16:c:\projects\paindrain\arduinolcd\test\pain drain\libraries\lvgl\src\core\lv_obj_style_gen.h **** }
 633              		.loc 3 16 0
 634 0174 00B2     		sxth	r0, r0
 635              	.LVL75:
 636              	.LBE77:
 637              	.LBE76:
 638 0176 05E0     		b	.L42
 639              	.L41:
 640              	.LVL76:
 641              	.LBB78:
 642              	.LBB79:
  29:c:\projects\paindrain\arduinolcd\test\pain drain\libraries\lvgl\src\core\lv_obj_style_gen.h **** }
  30:c:\projects\paindrain\arduinolcd\test\pain drain\libraries\lvgl\src\core\lv_obj_style_gen.h **** 
  31:c:\projects\paindrain\arduinolcd\test\pain drain\libraries\lvgl\src\core\lv_obj_style_gen.h **** static inline lv_coord_t lv_obj_get_style_max_height(const struct _lv_obj_t * obj, uint32_t part)
  32:c:\projects\paindrain\arduinolcd\test\pain drain\libraries\lvgl\src\core\lv_obj_style_gen.h **** {
  33:c:\projects\paindrain\arduinolcd\test\pain drain\libraries\lvgl\src\core\lv_obj_style_gen.h ****     lv_style_value_t v = lv_obj_get_style_prop(obj, part, LV_STYLE_MAX_HEIGHT);
 643              		.loc 3 33 0
 644 0178 0622     		movs	r2, #6
 645 017a 0021     		movs	r1, #0
 646 017c 2000     		movs	r0, r4
ARM GAS  C:\Users\haske\AppData\Local\Temp\ccVRp2Ta.s 			page 29


 647 017e FFF7FEFF 		bl	lv_obj_get_style_prop
 648              	.LVL77:
  34:c:\projects\paindrain\arduinolcd\test\pain drain\libraries\lvgl\src\core\lv_obj_style_gen.h ****     return (lv_coord_t)v.num;
 649              		.loc 3 34 0
 650 0182 00B2     		sxth	r0, r0
 651              	.LVL78:
 652              	.L42:
 653              	.LBE79:
 654              	.LBE78:
 360:..\..\..\arduinoLCD\test\Pain Drain\libraries\lvgl\src\extra\layouts\flex/lv_flex.c ****                                                                                                  LV
 655              		.loc 2 360 0 discriminator 4
 656 0184 5B46     		mov	r3, fp
 657 0186 D880     		strh	r0, [r3, #6]
 362:..\..\..\arduinoLCD\test\Pain Drain\libraries\lvgl\src\extra\layouts\flex/lv_flex.c ****                     new_dsc[t->grow_item_cnt - 1].clamped = 0;
 658              		.loc 2 362 0 discriminator 4
 659 0188 2B69     		ldr	r3, [r5, #16]
 660 018a 9A00     		lsls	r2, r3, #2
 661 018c D218     		adds	r2, r2, r3
 662 018e 9300     		lsls	r3, r2, #2
 663 0190 143B     		subs	r3, r3, #20
 664 0192 5344     		add	r3, r3, r10
 665 0194 DE60     		str	r6, [r3, #12]
 363:..\..\..\arduinoLCD\test\Pain Drain\libraries\lvgl\src\extra\layouts\flex/lv_flex.c ****                     t->grow_dsc = new_dsc;
 666              		.loc 2 363 0 discriminator 4
 667 0196 2B69     		ldr	r3, [r5, #16]
 668 0198 9A00     		lsls	r2, r3, #2
 669 019a D218     		adds	r2, r2, r3
 670 019c 9300     		lsls	r3, r2, #2
 671 019e 143B     		subs	r3, r3, #20
 672 01a0 5344     		add	r3, r3, r10
 673 01a2 1A7C     		ldrb	r2, [r3, #16]
 674 01a4 0121     		movs	r1, #1
 675 01a6 8A43     		bics	r2, r1
 676 01a8 1A74     		strb	r2, [r3, #16]
 364:..\..\..\arduinoLCD\test\Pain Drain\libraries\lvgl\src\extra\layouts\flex/lv_flex.c ****                 }
 677              		.loc 2 364 0 discriminator 4
 678 01aa 5346     		mov	r3, r10
 679 01ac EB60     		str	r3, [r5, #12]
 680 01ae 0FE0     		b	.L33
 681              	.LVL79:
 682              	.L32:
 683              	.LBE71:
 684              	.LBB80:
 368:..\..\..\arduinoLCD\test\Pain Drain\libraries\lvgl\src\extra\layouts\flex/lv_flex.c ****                 if(f->wrap && t->track_fix_main_size + item_size > max_main_size) break;
 685              		.loc 2 368 0
 686 01b0 2000     		movs	r0, r4
 687 01b2 029B     		ldr	r3, [sp, #8]
 688 01b4 9847     		blx	r3
 689              	.LVL80:
 369:..\..\..\arduinoLCD\test\Pain Drain\libraries\lvgl\src\extra\layouts\flex/lv_flex.c ****                 t->track_fix_main_size += item_size + item_gap;
 690              		.loc 2 369 0
 691 01b6 FB78     		ldrb	r3, [r7, #3]
 692 01b8 9B07     		lsls	r3, r3, #30
 693 01ba 05D5     		bpl	.L43
 369:..\..\..\arduinoLCD\test\Pain Drain\libraries\lvgl\src\extra\layouts\flex/lv_flex.c ****                 t->track_fix_main_size += item_size + item_gap;
 694              		.loc 2 369 0 is_stmt 0 discriminator 1
 695 01bc 0422     		movs	r2, #4
ARM GAS  C:\Users\haske\AppData\Local\Temp\ccVRp2Ta.s 			page 30


 696 01be AB5E     		ldrsh	r3, [r5, r2]
 697 01c0 1B18     		adds	r3, r3, r0
 698 01c2 039A     		ldr	r2, [sp, #12]
 699 01c4 9342     		cmp	r3, r2
 700 01c6 26DC     		bgt	.L30
 701              	.L43:
 370:..\..\..\arduinoLCD\test\Pain Drain\libraries\lvgl\src\extra\layouts\flex/lv_flex.c ****             }
 702              		.loc 2 370 0 is_stmt 1
 703 01c8 4044     		add	r0, r0, r8
 704              	.LVL81:
 705 01ca AB88     		ldrh	r3, [r5, #4]
 706 01cc 1818     		adds	r0, r3, r0
 707 01ce A880     		strh	r0, [r5, #4]
 708              	.L33:
 709              	.LBE80:
 374:..\..\..\arduinoLCD\test\Pain Drain\libraries\lvgl\src\extra\layouts\flex/lv_flex.c ****             t->item_cnt++;
 710              		.loc 2 374 0
 711 01d0 2000     		movs	r0, r4
 712 01d2 019B     		ldr	r3, [sp, #4]
 713 01d4 9847     		blx	r3
 714              	.LVL82:
 715 01d6 0022     		movs	r2, #0
 716 01d8 AB5E     		ldrsh	r3, [r5, r2]
 717 01da 9842     		cmp	r0, r3
 718 01dc 03DD     		ble	.L44
 374:..\..\..\arduinoLCD\test\Pain Drain\libraries\lvgl\src\extra\layouts\flex/lv_flex.c ****             t->item_cnt++;
 719              		.loc 2 374 0 is_stmt 0 discriminator 1
 720 01de 2000     		movs	r0, r4
 721 01e0 019B     		ldr	r3, [sp, #4]
 722 01e2 9847     		blx	r3
 723              	.LVL83:
 724 01e4 0300     		movs	r3, r0
 725              	.L44:
 374:..\..\..\arduinoLCD\test\Pain Drain\libraries\lvgl\src\extra\layouts\flex/lv_flex.c ****             t->item_cnt++;
 726              		.loc 2 374 0 discriminator 4
 727 01e6 2B80     		strh	r3, [r5]
 375:..\..\..\arduinoLCD\test\Pain Drain\libraries\lvgl\src\extra\layouts\flex/lv_flex.c ****         }
 728              		.loc 2 375 0 is_stmt 1 discriminator 4
 729 01e8 AB68     		ldr	r3, [r5, #8]
 730 01ea 0133     		adds	r3, r3, #1
 731 01ec AB60     		str	r3, [r5, #8]
 732              	.L31:
 733              	.LBE68:
 378:..\..\..\arduinoLCD\test\Pain Drain\libraries\lvgl\src\extra\layouts\flex/lv_flex.c ****         if(item_id < 0) break;
 734              		.loc 2 378 0
 735 01ee FB78     		ldrb	r3, [r7, #3]
 736 01f0 5B07     		lsls	r3, r3, #29
 737 01f2 02D5     		bpl	.L52
 738 01f4 0121     		movs	r1, #1
 739 01f6 4942     		rsbs	r1, r1, #0
 740 01f8 00E0     		b	.L45
 741              	.L52:
 742 01fa 0121     		movs	r1, #1
 743              	.L45:
 378:..\..\..\arduinoLCD\test\Pain Drain\libraries\lvgl\src\extra\layouts\flex/lv_flex.c ****         if(item_id < 0) break;
 744              		.loc 2 378 0 is_stmt 0 discriminator 4
 745 01fc 059B     		ldr	r3, [sp, #20]
ARM GAS  C:\Users\haske\AppData\Local\Temp\ccVRp2Ta.s 			page 31


 746 01fe 9C46     		mov	ip, r3
 747 0200 6144     		add	r1, r1, ip
 748 0202 0591     		str	r1, [sp, #20]
 379:..\..\..\arduinoLCD\test\Pain Drain\libraries\lvgl\src\extra\layouts\flex/lv_flex.c ****         item = lv_obj_get_child(cont, item_id);
 749              		.loc 2 379 0 is_stmt 1 discriminator 4
 750 0204 0029     		cmp	r1, #0
 751 0206 06DB     		blt	.L30
 380:..\..\..\arduinoLCD\test\Pain Drain\libraries\lvgl\src\extra\layouts\flex/lv_flex.c ****     }
 752              		.loc 2 380 0
 753 0208 0098     		ldr	r0, [sp]
 754 020a FFF7FEFF 		bl	lv_obj_get_child
 755              	.LVL84:
 756 020e 0400     		movs	r4, r0
 757              	.LVL85:
 758              	.L28:
 340:..\..\..\arduinoLCD\test\Pain Drain\libraries\lvgl\src\extra\layouts\flex/lv_flex.c ****         if(item_id != item_start_id && lv_obj_has_flag(item, LV_OBJ_FLAG_FLEX_IN_NEW_TRACK)) break;
 759              		.loc 2 340 0
 760 0210 002C     		cmp	r4, #0
 761 0212 00D0     		beq	.LCB790
 762 0214 41E7     		b	.L46	@long jump
 763              	.LCB790:
 764              	.LVL86:
 765              	.L30:
 766 0216 3E00     		movs	r6, r7
 767 0218 4F46     		mov	r7, r9
 768              	.LVL87:
 383:..\..\..\arduinoLCD\test\Pain Drain\libraries\lvgl\src\extra\layouts\flex/lv_flex.c **** 
 769              		.loc 2 383 0
 770 021a 0422     		movs	r2, #4
 771 021c AB5E     		ldrsh	r3, [r5, r2]
 772 021e 002B     		cmp	r3, #0
 773 0220 02DD     		ble	.L47
 774              	.LVL88:
 383:..\..\..\arduinoLCD\test\Pain Drain\libraries\lvgl\src\extra\layouts\flex/lv_flex.c **** 
 775              		.loc 2 383 0 is_stmt 0 discriminator 1
 776 0222 4246     		mov	r2, r8
 777 0224 9B1A     		subs	r3, r3, r2
 778 0226 AB80     		strh	r3, [r5, #4]
 779              	.L47:
 386:..\..\..\arduinoLCD\test\Pain Drain\libraries\lvgl\src\extra\layouts\flex/lv_flex.c **** 
 780              		.loc 2 386 0 is_stmt 1
 781 0228 2B69     		ldr	r3, [r5, #16]
 782 022a 002B     		cmp	r3, #0
 783 022c 02D1     		bne	.L53
 386:..\..\..\arduinoLCD\test\Pain Drain\libraries\lvgl\src\extra\layouts\flex/lv_flex.c **** 
 784              		.loc 2 386 0 is_stmt 0 discriminator 1
 785 022e 0422     		movs	r2, #4
 786 0230 AB5E     		ldrsh	r3, [r5, r2]
 787 0232 00E0     		b	.L48
 788              	.L53:
 386:..\..\..\arduinoLCD\test\Pain Drain\libraries\lvgl\src\extra\layouts\flex/lv_flex.c **** 
 789              		.loc 2 386 0
 790 0234 039B     		ldr	r3, [sp, #12]
 791              	.L48:
 386:..\..\..\arduinoLCD\test\Pain Drain\libraries\lvgl\src\extra\layouts\flex/lv_flex.c **** 
 792              		.loc 2 386 0 discriminator 4
 793 0236 6B80     		strh	r3, [r5, #2]
ARM GAS  C:\Users\haske\AppData\Local\Temp\ccVRp2Ta.s 			page 32


 389:..\..\..\arduinoLCD\test\Pain Drain\libraries\lvgl\src\extra\layouts\flex/lv_flex.c ****         item = cont->spec_attr->children[item_id];
 794              		.loc 2 389 0 is_stmt 1 discriminator 4
 795 0238 002C     		cmp	r4, #0
 796 023a 19D0     		beq	.L49
 389:..\..\..\arduinoLCD\test\Pain Drain\libraries\lvgl\src\extra\layouts\flex/lv_flex.c ****         item = cont->spec_attr->children[item_id];
 797              		.loc 2 389 0 is_stmt 0 discriminator 1
 798 023c 059B     		ldr	r3, [sp, #20]
 799 023e 9F42     		cmp	r7, r3
 800 0240 16D1     		bne	.L49
 390:..\..\..\arduinoLCD\test\Pain Drain\libraries\lvgl\src\extra\layouts\flex/lv_flex.c ****         get_next_item(cont, f->rev, &item_id);
 801              		.loc 2 390 0 is_stmt 1
 802 0242 0098     		ldr	r0, [sp]
 803 0244 8268     		ldr	r2, [r0, #8]
 804 0246 1268     		ldr	r2, [r2]
 805 0248 9B00     		lsls	r3, r3, #2
 806 024a D458     		ldr	r4, [r2, r3]
 807              	.LVL89:
 391:..\..\..\arduinoLCD\test\Pain Drain\libraries\lvgl\src\extra\layouts\flex/lv_flex.c ****         if(item) {
 808              		.loc 2 391 0
 809 024c F178     		ldrb	r1, [r6, #3]
 810 024e 4907     		lsls	r1, r1, #29
 811 0250 C90F     		lsrs	r1, r1, #31
 812 0252 05AA     		add	r2, sp, #20
 813 0254 FFF7FEFF 		bl	get_next_item
 814              	.LVL90:
 392:..\..\..\arduinoLCD\test\Pain Drain\libraries\lvgl\src\extra\layouts\flex/lv_flex.c ****             t->track_cross_size = get_cross_size(item);
 815              		.loc 2 392 0
 816 0258 002C     		cmp	r4, #0
 817 025a 09D0     		beq	.L49
 393:..\..\..\arduinoLCD\test\Pain Drain\libraries\lvgl\src\extra\layouts\flex/lv_flex.c ****             t->track_main_size = get_main_size(item);
 818              		.loc 2 393 0
 819 025c 2000     		movs	r0, r4
 820 025e 019B     		ldr	r3, [sp, #4]
 821 0260 9847     		blx	r3
 822              	.LVL91:
 823 0262 2880     		strh	r0, [r5]
 394:..\..\..\arduinoLCD\test\Pain Drain\libraries\lvgl\src\extra\layouts\flex/lv_flex.c ****             t->item_cnt = 1;
 824              		.loc 2 394 0
 825 0264 2000     		movs	r0, r4
 826 0266 029B     		ldr	r3, [sp, #8]
 827 0268 9847     		blx	r3
 828              	.LVL92:
 829 026a 6880     		strh	r0, [r5, #2]
 395:..\..\..\arduinoLCD\test\Pain Drain\libraries\lvgl\src\extra\layouts\flex/lv_flex.c ****         }
 830              		.loc 2 395 0
 831 026c 0123     		movs	r3, #1
 832 026e AB60     		str	r3, [r5, #8]
 833              	.L49:
 399:..\..\..\arduinoLCD\test\Pain Drain\libraries\lvgl\src\extra\layouts\flex/lv_flex.c **** }
 834              		.loc 2 399 0
 835 0270 0598     		ldr	r0, [sp, #20]
 836              	.LVL93:
 837              	.L37:
 400:..\..\..\arduinoLCD\test\Pain Drain\libraries\lvgl\src\extra\layouts\flex/lv_flex.c **** 
 838              		.loc 2 400 0
 839 0272 07B0     		add	sp, sp, #28
 840              	.LVL94:
ARM GAS  C:\Users\haske\AppData\Local\Temp\ccVRp2Ta.s 			page 33


 841              		@ sp needed
 842              	.LVL95:
 843              	.LVL96:
 844 0274 3CBC     		pop	{r2, r3, r4, r5}
 845 0276 9046     		mov	r8, r2
 846 0278 9946     		mov	r9, r3
 847 027a A246     		mov	r10, r4
 848 027c AB46     		mov	fp, r5
 849 027e F0BD     		pop	{r4, r5, r6, r7, pc}
 850              	.L55:
 851              		.align	2
 852              	.L54:
 853 0280 D1270000 		.word	10193
 854 0284 00000000 		.word	lv_obj_get_width
 855 0288 00000000 		.word	lv_obj_get_height
 856 028c 01000600 		.word	393217
 857 0290 00000000 		.word	LV_STYLE_FLEX_GROW
 858              		.cfi_endproc
 859              	.LFE190:
 860              		.size	find_track_end, .-find_track_end
 861              		.section	.text.children_repos,"ax",%progbits
 862              		.align	2
 863              		.code	16
 864              		.thumb_func
 865              		.type	children_repos, %function
 866              	children_repos:
 867              	.LFB191:
 407:..\..\..\arduinoLCD\test\Pain Drain\libraries\lvgl\src\extra\layouts\flex/lv_flex.c ****     void (*area_set_main_size)(lv_area_t *, lv_coord_t) = (f->row ? lv_area_set_width : lv_area_set
 868              		.loc 2 407 0
 869              		.cfi_startproc
 870              		@ args = 20, pretend = 0, frame = 64
 871              		@ frame_needed = 0, uses_anonymous_args = 0
 872              	.LVL97:
 873 0000 F0B5     		push	{r4, r5, r6, r7, lr}
 874              		.cfi_def_cfa_offset 20
 875              		.cfi_offset 4, -20
 876              		.cfi_offset 5, -16
 877              		.cfi_offset 6, -12
 878              		.cfi_offset 7, -8
 879              		.cfi_offset 14, -4
 880 0002 5F46     		mov	r7, fp
 881 0004 5646     		mov	r6, r10
 882 0006 4D46     		mov	r5, r9
 883 0008 4446     		mov	r4, r8
 884 000a F0B4     		push	{r4, r5, r6, r7}
 885              		.cfi_def_cfa_offset 36
 886              		.cfi_offset 8, -36
 887              		.cfi_offset 9, -32
 888              		.cfi_offset 10, -28
 889              		.cfi_offset 11, -24
 890 000c 93B0     		sub	sp, sp, #76
 891              		.cfi_def_cfa_offset 112
 892 000e 0290     		str	r0, [sp, #8]
 893 0010 8B46     		mov	fp, r1
 894 0012 0D92     		str	r2, [sp, #52]
 895 0014 0993     		str	r3, [sp, #36]
 896 0016 1CAB     		add	r3, sp, #112
ARM GAS  C:\Users\haske\AppData\Local\Temp\ccVRp2Ta.s 			page 34


 897              	.LVL98:
 898 0018 0022     		movs	r2, #0
 899 001a 9B5E     		ldrsh	r3, [r3, r2]
 900              	.LVL99:
 901 001c 0A93     		str	r3, [sp, #40]
 902 001e 1DAB     		add	r3, sp, #116
 903              	.LVL100:
 904 0020 0022     		movs	r2, #0
 905 0022 9B5E     		ldrsh	r3, [r3, r2]
 906              	.LVL101:
 907 0024 0B93     		str	r3, [sp, #44]
 908 0026 1EAB     		add	r3, sp, #120
 909              	.LVL102:
 910 0028 0022     		movs	r2, #0
 911 002a 9B5E     		ldrsh	r3, [r3, r2]
 912              	.LVL103:
 913 002c 9846     		mov	r8, r3
 914 002e 1FAB     		add	r3, sp, #124
 915              	.LVL104:
 916 0030 0022     		movs	r2, #0
 917 0032 9B5E     		ldrsh	r3, [r3, r2]
 918              	.LVL105:
 919 0034 0893     		str	r3, [sp, #32]
 920 0036 209D     		ldr	r5, [sp, #128]
 408:..\..\..\arduinoLCD\test\Pain Drain\libraries\lvgl\src\extra\layouts\flex/lv_flex.c ****     lv_coord_t (*area_get_main_size)(const lv_area_t *) = (f->row ? lv_area_get_width : lv_area_get
 921              		.loc 2 408 0
 922 0038 CB78     		ldrb	r3, [r1, #3]
 923 003a 0122     		movs	r2, #1
 924 003c 1340     		ands	r3, r2
 925 003e 02D0     		beq	.L106
 926 0040 A74A     		ldr	r2, .L113
 927 0042 0792     		str	r2, [sp, #28]
 928 0044 01E0     		b	.L57
 929              	.L106:
 930 0046 A74A     		ldr	r2, .L113+4
 931 0048 0792     		str	r2, [sp, #28]
 932              	.L57:
 933              	.LVL106:
 409:..\..\..\arduinoLCD\test\Pain Drain\libraries\lvgl\src\extra\layouts\flex/lv_flex.c ****     lv_coord_t (*area_get_cross_size)(const lv_area_t *) = (!f->row ? lv_area_get_width : lv_area_g
 934              		.loc 2 409 0 discriminator 4
 935 004a 002B     		cmp	r3, #0
 936 004c 02D0     		beq	.L107
 409:..\..\..\arduinoLCD\test\Pain Drain\libraries\lvgl\src\extra\layouts\flex/lv_flex.c ****     lv_coord_t (*area_get_cross_size)(const lv_area_t *) = (!f->row ? lv_area_get_width : lv_area_g
 937              		.loc 2 409 0 is_stmt 0
 938 004e A64A     		ldr	r2, .L113+8
 939 0050 0392     		str	r2, [sp, #12]
 940 0052 01E0     		b	.L58
 941              	.L107:
 942 0054 A54A     		ldr	r2, .L113+12
 943 0056 0392     		str	r2, [sp, #12]
 944              	.L58:
 945              	.LVL107:
 410:..\..\..\arduinoLCD\test\Pain Drain\libraries\lvgl\src\extra\layouts\flex/lv_flex.c **** 
 946              		.loc 2 410 0 is_stmt 1 discriminator 4
 947 0058 002B     		cmp	r3, #0
 948 005a 02D1     		bne	.L108
 410:..\..\..\arduinoLCD\test\Pain Drain\libraries\lvgl\src\extra\layouts\flex/lv_flex.c **** 
ARM GAS  C:\Users\haske\AppData\Local\Temp\ccVRp2Ta.s 			page 35


 949              		.loc 2 410 0 is_stmt 0
 950 005c A24B     		ldr	r3, .L113+8
 951 005e 0593     		str	r3, [sp, #20]
 952 0060 01E0     		b	.L59
 953              	.L108:
 954 0062 A24B     		ldr	r3, .L113+12
 955 0064 0593     		str	r3, [sp, #20]
 956              	.L59:
 957              	.LVL108:
 414:..\..\..\arduinoLCD\test\Pain Drain\libraries\lvgl\src\extra\layouts\flex/lv_flex.c ****     while(grow_reiterate) {
 958              		.loc 2 414 0 is_stmt 1 discriminator 4
 959 0066 0123     		movs	r3, #1
 960 0068 0493     		str	r3, [sp, #16]
 415:..\..\..\arduinoLCD\test\Pain Drain\libraries\lvgl\src\extra\layouts\flex/lv_flex.c ****         grow_reiterate = false;
 961              		.loc 2 415 0 discriminator 4
 962 006a 67E0     		b	.L60
 963              	.LVL109:
 964              	.L73:
 965              	.LBB81:
 418:..\..\..\arduinoLCD\test\Pain Drain\libraries\lvgl\src\extra\layouts\flex/lv_flex.c ****         for(i = 0; i < t->grow_item_cnt; i++) {
 966              		.loc 2 418 0
 967 006c 0222     		movs	r2, #2
 968 006e AB5E     		ldrsh	r3, [r5, r2]
 969 0070 0422     		movs	r2, #4
 970 0072 AE5E     		ldrsh	r6, [r5, r2]
 971 0074 9E1B     		subs	r6, r3, r6
 972 0076 33B2     		sxth	r3, r6
 973 0078 9A46     		mov	r10, r3
 974              	.LVL110:
 417:..\..\..\arduinoLCD\test\Pain Drain\libraries\lvgl\src\extra\layouts\flex/lv_flex.c ****         lv_coord_t grow_max_size = t->track_main_size - t->track_fix_main_size;
 975              		.loc 2 417 0
 976 007a 0023     		movs	r3, #0
 419:..\..\..\arduinoLCD\test\Pain Drain\libraries\lvgl\src\extra\layouts\flex/lv_flex.c ****             if(t->grow_dsc[i].clamped == 0) {
 977              		.loc 2 419 0
 978 007c 0022     		movs	r2, #0
 979 007e 1800     		movs	r0, r3
 980 0080 5446     		mov	r4, r10
 981 0082 11E0     		b	.L61
 982              	.LVL111:
 983              	.L64:
 420:..\..\..\arduinoLCD\test\Pain Drain\libraries\lvgl\src\extra\layouts\flex/lv_flex.c ****                 grow_value_sum += t->grow_dsc[i].grow_value;
 984              		.loc 2 420 0
 985 0084 9300     		lsls	r3, r2, #2
 986 0086 9B18     		adds	r3, r3, r2
 987 0088 9B00     		lsls	r3, r3, #2
 988 008a E968     		ldr	r1, [r5, #12]
 989 008c 8C46     		mov	ip, r1
 990 008e 6344     		add	r3, r3, ip
 991 0090 197C     		ldrb	r1, [r3, #16]
 992 0092 C907     		lsls	r1, r1, #31
 993 0094 03D4     		bmi	.L62
 421:..\..\..\arduinoLCD\test\Pain Drain\libraries\lvgl\src\extra\layouts\flex/lv_flex.c ****             }
 994              		.loc 2 421 0
 995 0096 D968     		ldr	r1, [r3, #12]
 996 0098 0918     		adds	r1, r1, r0
 997 009a 08B2     		sxth	r0, r1
 998              	.LVL112:
ARM GAS  C:\Users\haske\AppData\Local\Temp\ccVRp2Ta.s 			page 36


 999 009c 03E0     		b	.L63
 1000              	.L62:
 424:..\..\..\arduinoLCD\test\Pain Drain\libraries\lvgl\src\extra\layouts\flex/lv_flex.c ****             }
 1001              		.loc 2 424 0
 1002 009e 0821     		movs	r1, #8
 1003 00a0 595E     		ldrsh	r1, [r3, r1]
 1004 00a2 631A     		subs	r3, r4, r1
 1005 00a4 1CB2     		sxth	r4, r3
 1006              	.LVL113:
 1007              	.L63:
 419:..\..\..\arduinoLCD\test\Pain Drain\libraries\lvgl\src\extra\layouts\flex/lv_flex.c ****             if(t->grow_dsc[i].clamped == 0) {
 1008              		.loc 2 419 0 discriminator 2
 1009 00a6 0132     		adds	r2, r2, #1
 1010              	.LVL114:
 1011              	.L61:
 419:..\..\..\arduinoLCD\test\Pain Drain\libraries\lvgl\src\extra\layouts\flex/lv_flex.c ****             if(t->grow_dsc[i].clamped == 0) {
 1012              		.loc 2 419 0 is_stmt 0 discriminator 1
 1013 00a8 2B69     		ldr	r3, [r5, #16]
 1014 00aa 9A42     		cmp	r2, r3
 1015 00ac EAD3     		bcc	.L64
 1016 00ae 8146     		mov	r9, r0
 1017 00b0 A246     		mov	r10, r4
 1018 00b2 0023     		movs	r3, #0
 1019 00b4 0693     		str	r3, [sp, #24]
 1020 00b6 0026     		movs	r6, #0
 1021 00b8 3BE0     		b	.L65
 1022              	.LVL115:
 1023              	.L72:
 430:..\..\..\arduinoLCD\test\Pain Drain\libraries\lvgl\src\extra\layouts\flex/lv_flex.c ****                 LV_ASSERT(grow_value_sum != 0);
 1024              		.loc 2 430 0 is_stmt 1
 1025 00ba B400     		lsls	r4, r6, #2
 1026 00bc A419     		adds	r4, r4, r6
 1027 00be A400     		lsls	r4, r4, #2
 1028 00c0 EB68     		ldr	r3, [r5, #12]
 1029 00c2 1F19     		adds	r7, r3, r4
 1030 00c4 3B7C     		ldrb	r3, [r7, #16]
 1031 00c6 DB07     		lsls	r3, r3, #31
 1032 00c8 32D4     		bmi	.L66
 1033              	.LBB82:
 431:..\..\..\arduinoLCD\test\Pain Drain\libraries\lvgl\src\extra\layouts\flex/lv_flex.c ****                 grow_unit = grow_max_size / grow_value_sum;
 1034              		.loc 2 431 0
 1035 00ca 4B46     		mov	r3, r9
 1036 00cc 002B     		cmp	r3, #0
 1037 00ce 00D1     		bne	.L67
 1038              	.L68:
 1039 00d0 FEE7     		b	.L68
 1040              	.L67:
 432:..\..\..\arduinoLCD\test\Pain Drain\libraries\lvgl\src\extra\layouts\flex/lv_flex.c ****                 lv_coord_t size = grow_unit * t->grow_dsc[i].grow_value;
 1041              		.loc 2 432 0
 1042 00d2 4946     		mov	r1, r9
 1043 00d4 5046     		mov	r0, r10
 1044 00d6 FFF7FEFF 		bl	__aeabi_idiv
 1045              	.LVL116:
 1046 00da 03B2     		sxth	r3, r0
 1047              	.LVL117:
 433:..\..\..\arduinoLCD\test\Pain Drain\libraries\lvgl\src\extra\layouts\flex/lv_flex.c ****                 lv_coord_t size_clamp = LV_CLAMP(t->grow_dsc[i].min_size, size, t->grow_dsc[i].max_
 1048              		.loc 2 433 0
ARM GAS  C:\Users\haske\AppData\Local\Temp\ccVRp2Ta.s 			page 37


 1049 00dc FA68     		ldr	r2, [r7, #12]
 1050 00de 5343     		muls	r3, r2
 1051              	.LVL118:
 1052 00e0 1BB2     		sxth	r3, r3
 1053              	.LVL119:
 434:..\..\..\arduinoLCD\test\Pain Drain\libraries\lvgl\src\extra\layouts\flex/lv_flex.c **** 
 1054              		.loc 2 434 0
 1055 00e2 0622     		movs	r2, #6
 1056 00e4 B95E     		ldrsh	r1, [r7, r2]
 1057 00e6 1A1C     		adds	r2, r3, #0
 1058 00e8 8B42     		cmp	r3, r1
 1059 00ea 00DD     		ble	.L69
 1060 00ec 0A1C     		adds	r2, r1, #0
 1061              	.L69:
 1062 00ee 0421     		movs	r1, #4
 1063 00f0 785E     		ldrsh	r0, [r7, r1]
 1064              	.LVL120:
 1065 00f2 111C     		adds	r1, r2, #0
 1066 00f4 12B2     		sxth	r2, r2
 1067 00f6 8242     		cmp	r2, r0
 1068 00f8 00DA     		bge	.L70
 1069 00fa 011C     		adds	r1, r0, #0
 1070              	.L70:
 1071 00fc 0AB2     		sxth	r2, r1
 1072              	.LVL121:
 436:..\..\..\arduinoLCD\test\Pain Drain\libraries\lvgl\src\extra\layouts\flex/lv_flex.c ****                     t->grow_dsc[i].clamped = 1;
 1073              		.loc 2 436 0
 1074 00fe 9342     		cmp	r3, r2
 1075 0100 05D0     		beq	.L71
 437:..\..\..\arduinoLCD\test\Pain Drain\libraries\lvgl\src\extra\layouts\flex/lv_flex.c ****                     grow_reiterate = true;
 1076              		.loc 2 437 0
 1077 0102 397C     		ldrb	r1, [r7, #16]
 1078              	.LVL122:
 1079 0104 0123     		movs	r3, #1
 1080              	.LVL123:
 1081 0106 0B43     		orrs	r3, r1
 1082 0108 3B74     		strb	r3, [r7, #16]
 1083              	.LVL124:
 438:..\..\..\arduinoLCD\test\Pain Drain\libraries\lvgl\src\extra\layouts\flex/lv_flex.c ****                 }
 1084              		.loc 2 438 0
 1085 010a 049B     		ldr	r3, [sp, #16]
 1086 010c 0693     		str	r3, [sp, #24]
 1087              	.LVL125:
 1088              	.L71:
 440:..\..\..\arduinoLCD\test\Pain Drain\libraries\lvgl\src\extra\layouts\flex/lv_flex.c ****                 grow_value_sum -= t->grow_dsc[i].grow_value;
 1089              		.loc 2 440 0
 1090 010e EB68     		ldr	r3, [r5, #12]
 1091 0110 1B19     		adds	r3, r3, r4
 1092 0112 1A81     		strh	r2, [r3, #8]
 441:..\..\..\arduinoLCD\test\Pain Drain\libraries\lvgl\src\extra\layouts\flex/lv_flex.c ****                 grow_max_size  -= t->grow_dsc[i].final_size;
 1093              		.loc 2 441 0
 1094 0114 EB68     		ldr	r3, [r5, #12]
 1095 0116 9C46     		mov	ip, r3
 1096 0118 6444     		add	r4, r4, ip
 1097 011a 4B46     		mov	r3, r9
 1098 011c E268     		ldr	r2, [r4, #12]
 1099              	.LVL126:
ARM GAS  C:\Users\haske\AppData\Local\Temp\ccVRp2Ta.s 			page 38


 1100 011e 9B1A     		subs	r3, r3, r2
 1101 0120 1BB2     		sxth	r3, r3
 1102 0122 9946     		mov	r9, r3
 1103              	.LVL127:
 442:..\..\..\arduinoLCD\test\Pain Drain\libraries\lvgl\src\extra\layouts\flex/lv_flex.c ****             }
 1104              		.loc 2 442 0
 1105 0124 0822     		movs	r2, #8
 1106 0126 A35E     		ldrsh	r3, [r4, r2]
 1107 0128 5246     		mov	r2, r10
 1108 012a D31A     		subs	r3, r2, r3
 1109 012c 1BB2     		sxth	r3, r3
 1110 012e 9A46     		mov	r10, r3
 1111              	.LVL128:
 1112              	.L66:
 1113              	.LBE82:
 429:..\..\..\arduinoLCD\test\Pain Drain\libraries\lvgl\src\extra\layouts\flex/lv_flex.c ****             if(t->grow_dsc[i].clamped == 0) {
 1114              		.loc 2 429 0 discriminator 2
 1115 0130 0136     		adds	r6, r6, #1
 1116              	.LVL129:
 1117              	.L65:
 429:..\..\..\arduinoLCD\test\Pain Drain\libraries\lvgl\src\extra\layouts\flex/lv_flex.c ****             if(t->grow_dsc[i].clamped == 0) {
 1118              		.loc 2 429 0 is_stmt 0 discriminator 1
 1119 0132 2B69     		ldr	r3, [r5, #16]
 1120 0134 9E42     		cmp	r6, r3
 1121 0136 C0D3     		bcc	.L72
 1122 0138 069B     		ldr	r3, [sp, #24]
 1123 013a 0493     		str	r3, [sp, #16]
 1124              	.LVL130:
 1125              	.L60:
 1126              	.LBE81:
 415:..\..\..\arduinoLCD\test\Pain Drain\libraries\lvgl\src\extra\layouts\flex/lv_flex.c ****         grow_reiterate = false;
 1127              		.loc 2 415 0 is_stmt 1
 1128 013c 049B     		ldr	r3, [sp, #16]
 1129 013e 002B     		cmp	r3, #0
 1130 0140 94D1     		bne	.L73
 1131              	.LVL131:
 1132              	.LBB83:
 1133              	.LBB84:
  35:c:\projects\paindrain\arduinolcd\test\pain drain\libraries\lvgl\src\core\lv_obj_style_gen.h **** }
  36:c:\projects\paindrain\arduinolcd\test\pain drain\libraries\lvgl\src\core\lv_obj_style_gen.h **** 
  37:c:\projects\paindrain\arduinolcd\test\pain drain\libraries\lvgl\src\core\lv_obj_style_gen.h **** static inline lv_coord_t lv_obj_get_style_x(const struct _lv_obj_t * obj, uint32_t part)
  38:c:\projects\paindrain\arduinolcd\test\pain drain\libraries\lvgl\src\core\lv_obj_style_gen.h **** {
  39:c:\projects\paindrain\arduinolcd\test\pain drain\libraries\lvgl\src\core\lv_obj_style_gen.h ****     lv_style_value_t v = lv_obj_get_style_prop(obj, part, LV_STYLE_X);
  40:c:\projects\paindrain\arduinolcd\test\pain drain\libraries\lvgl\src\core\lv_obj_style_gen.h ****     return (lv_coord_t)v.num;
  41:c:\projects\paindrain\arduinolcd\test\pain drain\libraries\lvgl\src\core\lv_obj_style_gen.h **** }
  42:c:\projects\paindrain\arduinolcd\test\pain drain\libraries\lvgl\src\core\lv_obj_style_gen.h **** 
  43:c:\projects\paindrain\arduinolcd\test\pain drain\libraries\lvgl\src\core\lv_obj_style_gen.h **** static inline lv_coord_t lv_obj_get_style_y(const struct _lv_obj_t * obj, uint32_t part)
  44:c:\projects\paindrain\arduinolcd\test\pain drain\libraries\lvgl\src\core\lv_obj_style_gen.h **** {
  45:c:\projects\paindrain\arduinolcd\test\pain drain\libraries\lvgl\src\core\lv_obj_style_gen.h ****     lv_style_value_t v = lv_obj_get_style_prop(obj, part, LV_STYLE_Y);
  46:c:\projects\paindrain\arduinolcd\test\pain drain\libraries\lvgl\src\core\lv_obj_style_gen.h ****     return (lv_coord_t)v.num;
  47:c:\projects\paindrain\arduinolcd\test\pain drain\libraries\lvgl\src\core\lv_obj_style_gen.h **** }
  48:c:\projects\paindrain\arduinolcd\test\pain drain\libraries\lvgl\src\core\lv_obj_style_gen.h **** 
  49:c:\projects\paindrain\arduinolcd\test\pain drain\libraries\lvgl\src\core\lv_obj_style_gen.h **** static inline lv_align_t lv_obj_get_style_align(const struct _lv_obj_t * obj, uint32_t part)
  50:c:\projects\paindrain\arduinolcd\test\pain drain\libraries\lvgl\src\core\lv_obj_style_gen.h **** {
  51:c:\projects\paindrain\arduinolcd\test\pain drain\libraries\lvgl\src\core\lv_obj_style_gen.h ****     lv_style_value_t v = lv_obj_get_style_prop(obj, part, LV_STYLE_ALIGN);
  52:c:\projects\paindrain\arduinolcd\test\pain drain\libraries\lvgl\src\core\lv_obj_style_gen.h ****     return (lv_align_t)v.num;
  53:c:\projects\paindrain\arduinolcd\test\pain drain\libraries\lvgl\src\core\lv_obj_style_gen.h **** }
ARM GAS  C:\Users\haske\AppData\Local\Temp\ccVRp2Ta.s 			page 39


  54:c:\projects\paindrain\arduinolcd\test\pain drain\libraries\lvgl\src\core\lv_obj_style_gen.h **** 
  55:c:\projects\paindrain\arduinolcd\test\pain drain\libraries\lvgl\src\core\lv_obj_style_gen.h **** static inline lv_coord_t lv_obj_get_style_transform_width(const struct _lv_obj_t * obj, uint32_t pa
  56:c:\projects\paindrain\arduinolcd\test\pain drain\libraries\lvgl\src\core\lv_obj_style_gen.h **** {
  57:c:\projects\paindrain\arduinolcd\test\pain drain\libraries\lvgl\src\core\lv_obj_style_gen.h ****     lv_style_value_t v = lv_obj_get_style_prop(obj, part, LV_STYLE_TRANSFORM_WIDTH);
  58:c:\projects\paindrain\arduinolcd\test\pain drain\libraries\lvgl\src\core\lv_obj_style_gen.h ****     return (lv_coord_t)v.num;
  59:c:\projects\paindrain\arduinolcd\test\pain drain\libraries\lvgl\src\core\lv_obj_style_gen.h **** }
  60:c:\projects\paindrain\arduinolcd\test\pain drain\libraries\lvgl\src\core\lv_obj_style_gen.h **** 
  61:c:\projects\paindrain\arduinolcd\test\pain drain\libraries\lvgl\src\core\lv_obj_style_gen.h **** static inline lv_coord_t lv_obj_get_style_transform_height(const struct _lv_obj_t * obj, uint32_t p
  62:c:\projects\paindrain\arduinolcd\test\pain drain\libraries\lvgl\src\core\lv_obj_style_gen.h **** {
  63:c:\projects\paindrain\arduinolcd\test\pain drain\libraries\lvgl\src\core\lv_obj_style_gen.h ****     lv_style_value_t v = lv_obj_get_style_prop(obj, part, LV_STYLE_TRANSFORM_HEIGHT);
  64:c:\projects\paindrain\arduinolcd\test\pain drain\libraries\lvgl\src\core\lv_obj_style_gen.h ****     return (lv_coord_t)v.num;
  65:c:\projects\paindrain\arduinolcd\test\pain drain\libraries\lvgl\src\core\lv_obj_style_gen.h **** }
  66:c:\projects\paindrain\arduinolcd\test\pain drain\libraries\lvgl\src\core\lv_obj_style_gen.h **** 
  67:c:\projects\paindrain\arduinolcd\test\pain drain\libraries\lvgl\src\core\lv_obj_style_gen.h **** static inline lv_coord_t lv_obj_get_style_translate_x(const struct _lv_obj_t * obj, uint32_t part)
  68:c:\projects\paindrain\arduinolcd\test\pain drain\libraries\lvgl\src\core\lv_obj_style_gen.h **** {
  69:c:\projects\paindrain\arduinolcd\test\pain drain\libraries\lvgl\src\core\lv_obj_style_gen.h ****     lv_style_value_t v = lv_obj_get_style_prop(obj, part, LV_STYLE_TRANSLATE_X);
  70:c:\projects\paindrain\arduinolcd\test\pain drain\libraries\lvgl\src\core\lv_obj_style_gen.h ****     return (lv_coord_t)v.num;
  71:c:\projects\paindrain\arduinolcd\test\pain drain\libraries\lvgl\src\core\lv_obj_style_gen.h **** }
  72:c:\projects\paindrain\arduinolcd\test\pain drain\libraries\lvgl\src\core\lv_obj_style_gen.h **** 
  73:c:\projects\paindrain\arduinolcd\test\pain drain\libraries\lvgl\src\core\lv_obj_style_gen.h **** static inline lv_coord_t lv_obj_get_style_translate_y(const struct _lv_obj_t * obj, uint32_t part)
  74:c:\projects\paindrain\arduinolcd\test\pain drain\libraries\lvgl\src\core\lv_obj_style_gen.h **** {
  75:c:\projects\paindrain\arduinolcd\test\pain drain\libraries\lvgl\src\core\lv_obj_style_gen.h ****     lv_style_value_t v = lv_obj_get_style_prop(obj, part, LV_STYLE_TRANSLATE_Y);
  76:c:\projects\paindrain\arduinolcd\test\pain drain\libraries\lvgl\src\core\lv_obj_style_gen.h ****     return (lv_coord_t)v.num;
  77:c:\projects\paindrain\arduinolcd\test\pain drain\libraries\lvgl\src\core\lv_obj_style_gen.h **** }
  78:c:\projects\paindrain\arduinolcd\test\pain drain\libraries\lvgl\src\core\lv_obj_style_gen.h **** 
  79:c:\projects\paindrain\arduinolcd\test\pain drain\libraries\lvgl\src\core\lv_obj_style_gen.h **** static inline lv_coord_t lv_obj_get_style_transform_zoom(const struct _lv_obj_t * obj, uint32_t par
  80:c:\projects\paindrain\arduinolcd\test\pain drain\libraries\lvgl\src\core\lv_obj_style_gen.h **** {
  81:c:\projects\paindrain\arduinolcd\test\pain drain\libraries\lvgl\src\core\lv_obj_style_gen.h ****     lv_style_value_t v = lv_obj_get_style_prop(obj, part, LV_STYLE_TRANSFORM_ZOOM);
  82:c:\projects\paindrain\arduinolcd\test\pain drain\libraries\lvgl\src\core\lv_obj_style_gen.h ****     return (lv_coord_t)v.num;
  83:c:\projects\paindrain\arduinolcd\test\pain drain\libraries\lvgl\src\core\lv_obj_style_gen.h **** }
  84:c:\projects\paindrain\arduinolcd\test\pain drain\libraries\lvgl\src\core\lv_obj_style_gen.h **** 
  85:c:\projects\paindrain\arduinolcd\test\pain drain\libraries\lvgl\src\core\lv_obj_style_gen.h **** static inline lv_coord_t lv_obj_get_style_transform_angle(const struct _lv_obj_t * obj, uint32_t pa
  86:c:\projects\paindrain\arduinolcd\test\pain drain\libraries\lvgl\src\core\lv_obj_style_gen.h **** {
  87:c:\projects\paindrain\arduinolcd\test\pain drain\libraries\lvgl\src\core\lv_obj_style_gen.h ****     lv_style_value_t v = lv_obj_get_style_prop(obj, part, LV_STYLE_TRANSFORM_ANGLE);
  88:c:\projects\paindrain\arduinolcd\test\pain drain\libraries\lvgl\src\core\lv_obj_style_gen.h ****     return (lv_coord_t)v.num;
  89:c:\projects\paindrain\arduinolcd\test\pain drain\libraries\lvgl\src\core\lv_obj_style_gen.h **** }
  90:c:\projects\paindrain\arduinolcd\test\pain drain\libraries\lvgl\src\core\lv_obj_style_gen.h **** 
  91:c:\projects\paindrain\arduinolcd\test\pain drain\libraries\lvgl\src\core\lv_obj_style_gen.h **** static inline lv_coord_t lv_obj_get_style_transform_pivot_x(const struct _lv_obj_t * obj, uint32_t 
  92:c:\projects\paindrain\arduinolcd\test\pain drain\libraries\lvgl\src\core\lv_obj_style_gen.h **** {
  93:c:\projects\paindrain\arduinolcd\test\pain drain\libraries\lvgl\src\core\lv_obj_style_gen.h ****     lv_style_value_t v = lv_obj_get_style_prop(obj, part, LV_STYLE_TRANSFORM_PIVOT_X);
  94:c:\projects\paindrain\arduinolcd\test\pain drain\libraries\lvgl\src\core\lv_obj_style_gen.h ****     return (lv_coord_t)v.num;
  95:c:\projects\paindrain\arduinolcd\test\pain drain\libraries\lvgl\src\core\lv_obj_style_gen.h **** }
  96:c:\projects\paindrain\arduinolcd\test\pain drain\libraries\lvgl\src\core\lv_obj_style_gen.h **** 
  97:c:\projects\paindrain\arduinolcd\test\pain drain\libraries\lvgl\src\core\lv_obj_style_gen.h **** static inline lv_coord_t lv_obj_get_style_transform_pivot_y(const struct _lv_obj_t * obj, uint32_t 
  98:c:\projects\paindrain\arduinolcd\test\pain drain\libraries\lvgl\src\core\lv_obj_style_gen.h **** {
  99:c:\projects\paindrain\arduinolcd\test\pain drain\libraries\lvgl\src\core\lv_obj_style_gen.h ****     lv_style_value_t v = lv_obj_get_style_prop(obj, part, LV_STYLE_TRANSFORM_PIVOT_Y);
 100:c:\projects\paindrain\arduinolcd\test\pain drain\libraries\lvgl\src\core\lv_obj_style_gen.h ****     return (lv_coord_t)v.num;
 101:c:\projects\paindrain\arduinolcd\test\pain drain\libraries\lvgl\src\core\lv_obj_style_gen.h **** }
 102:c:\projects\paindrain\arduinolcd\test\pain drain\libraries\lvgl\src\core\lv_obj_style_gen.h **** 
 103:c:\projects\paindrain\arduinolcd\test\pain drain\libraries\lvgl\src\core\lv_obj_style_gen.h **** static inline lv_coord_t lv_obj_get_style_pad_top(const struct _lv_obj_t * obj, uint32_t part)
 104:c:\projects\paindrain\arduinolcd\test\pain drain\libraries\lvgl\src\core\lv_obj_style_gen.h **** {
 105:c:\projects\paindrain\arduinolcd\test\pain drain\libraries\lvgl\src\core\lv_obj_style_gen.h ****     lv_style_value_t v = lv_obj_get_style_prop(obj, part, LV_STYLE_PAD_TOP);
 106:c:\projects\paindrain\arduinolcd\test\pain drain\libraries\lvgl\src\core\lv_obj_style_gen.h ****     return (lv_coord_t)v.num;
 107:c:\projects\paindrain\arduinolcd\test\pain drain\libraries\lvgl\src\core\lv_obj_style_gen.h **** }
 108:c:\projects\paindrain\arduinolcd\test\pain drain\libraries\lvgl\src\core\lv_obj_style_gen.h **** 
 109:c:\projects\paindrain\arduinolcd\test\pain drain\libraries\lvgl\src\core\lv_obj_style_gen.h **** static inline lv_coord_t lv_obj_get_style_pad_bottom(const struct _lv_obj_t * obj, uint32_t part)
 110:c:\projects\paindrain\arduinolcd\test\pain drain\libraries\lvgl\src\core\lv_obj_style_gen.h **** {
ARM GAS  C:\Users\haske\AppData\Local\Temp\ccVRp2Ta.s 			page 40


 111:c:\projects\paindrain\arduinolcd\test\pain drain\libraries\lvgl\src\core\lv_obj_style_gen.h ****     lv_style_value_t v = lv_obj_get_style_prop(obj, part, LV_STYLE_PAD_BOTTOM);
 112:c:\projects\paindrain\arduinolcd\test\pain drain\libraries\lvgl\src\core\lv_obj_style_gen.h ****     return (lv_coord_t)v.num;
 113:c:\projects\paindrain\arduinolcd\test\pain drain\libraries\lvgl\src\core\lv_obj_style_gen.h **** }
 114:c:\projects\paindrain\arduinolcd\test\pain drain\libraries\lvgl\src\core\lv_obj_style_gen.h **** 
 115:c:\projects\paindrain\arduinolcd\test\pain drain\libraries\lvgl\src\core\lv_obj_style_gen.h **** static inline lv_coord_t lv_obj_get_style_pad_left(const struct _lv_obj_t * obj, uint32_t part)
 116:c:\projects\paindrain\arduinolcd\test\pain drain\libraries\lvgl\src\core\lv_obj_style_gen.h **** {
 117:c:\projects\paindrain\arduinolcd\test\pain drain\libraries\lvgl\src\core\lv_obj_style_gen.h ****     lv_style_value_t v = lv_obj_get_style_prop(obj, part, LV_STYLE_PAD_LEFT);
 118:c:\projects\paindrain\arduinolcd\test\pain drain\libraries\lvgl\src\core\lv_obj_style_gen.h ****     return (lv_coord_t)v.num;
 119:c:\projects\paindrain\arduinolcd\test\pain drain\libraries\lvgl\src\core\lv_obj_style_gen.h **** }
 120:c:\projects\paindrain\arduinolcd\test\pain drain\libraries\lvgl\src\core\lv_obj_style_gen.h **** 
 121:c:\projects\paindrain\arduinolcd\test\pain drain\libraries\lvgl\src\core\lv_obj_style_gen.h **** static inline lv_coord_t lv_obj_get_style_pad_right(const struct _lv_obj_t * obj, uint32_t part)
 122:c:\projects\paindrain\arduinolcd\test\pain drain\libraries\lvgl\src\core\lv_obj_style_gen.h **** {
 123:c:\projects\paindrain\arduinolcd\test\pain drain\libraries\lvgl\src\core\lv_obj_style_gen.h ****     lv_style_value_t v = lv_obj_get_style_prop(obj, part, LV_STYLE_PAD_RIGHT);
 124:c:\projects\paindrain\arduinolcd\test\pain drain\libraries\lvgl\src\core\lv_obj_style_gen.h ****     return (lv_coord_t)v.num;
 125:c:\projects\paindrain\arduinolcd\test\pain drain\libraries\lvgl\src\core\lv_obj_style_gen.h **** }
 126:c:\projects\paindrain\arduinolcd\test\pain drain\libraries\lvgl\src\core\lv_obj_style_gen.h **** 
 127:c:\projects\paindrain\arduinolcd\test\pain drain\libraries\lvgl\src\core\lv_obj_style_gen.h **** static inline lv_coord_t lv_obj_get_style_pad_row(const struct _lv_obj_t * obj, uint32_t part)
 128:c:\projects\paindrain\arduinolcd\test\pain drain\libraries\lvgl\src\core\lv_obj_style_gen.h **** {
 129:c:\projects\paindrain\arduinolcd\test\pain drain\libraries\lvgl\src\core\lv_obj_style_gen.h ****     lv_style_value_t v = lv_obj_get_style_prop(obj, part, LV_STYLE_PAD_ROW);
 130:c:\projects\paindrain\arduinolcd\test\pain drain\libraries\lvgl\src\core\lv_obj_style_gen.h ****     return (lv_coord_t)v.num;
 131:c:\projects\paindrain\arduinolcd\test\pain drain\libraries\lvgl\src\core\lv_obj_style_gen.h **** }
 132:c:\projects\paindrain\arduinolcd\test\pain drain\libraries\lvgl\src\core\lv_obj_style_gen.h **** 
 133:c:\projects\paindrain\arduinolcd\test\pain drain\libraries\lvgl\src\core\lv_obj_style_gen.h **** static inline lv_coord_t lv_obj_get_style_pad_column(const struct _lv_obj_t * obj, uint32_t part)
 134:c:\projects\paindrain\arduinolcd\test\pain drain\libraries\lvgl\src\core\lv_obj_style_gen.h **** {
 135:c:\projects\paindrain\arduinolcd\test\pain drain\libraries\lvgl\src\core\lv_obj_style_gen.h ****     lv_style_value_t v = lv_obj_get_style_prop(obj, part, LV_STYLE_PAD_COLUMN);
 136:c:\projects\paindrain\arduinolcd\test\pain drain\libraries\lvgl\src\core\lv_obj_style_gen.h ****     return (lv_coord_t)v.num;
 137:c:\projects\paindrain\arduinolcd\test\pain drain\libraries\lvgl\src\core\lv_obj_style_gen.h **** }
 138:c:\projects\paindrain\arduinolcd\test\pain drain\libraries\lvgl\src\core\lv_obj_style_gen.h **** 
 139:c:\projects\paindrain\arduinolcd\test\pain drain\libraries\lvgl\src\core\lv_obj_style_gen.h **** static inline lv_color_t lv_obj_get_style_bg_color(const struct _lv_obj_t * obj, uint32_t part)
 140:c:\projects\paindrain\arduinolcd\test\pain drain\libraries\lvgl\src\core\lv_obj_style_gen.h **** {
 141:c:\projects\paindrain\arduinolcd\test\pain drain\libraries\lvgl\src\core\lv_obj_style_gen.h ****     lv_style_value_t v = lv_obj_get_style_prop(obj, part, LV_STYLE_BG_COLOR);
 142:c:\projects\paindrain\arduinolcd\test\pain drain\libraries\lvgl\src\core\lv_obj_style_gen.h ****     return v.color;
 143:c:\projects\paindrain\arduinolcd\test\pain drain\libraries\lvgl\src\core\lv_obj_style_gen.h **** }
 144:c:\projects\paindrain\arduinolcd\test\pain drain\libraries\lvgl\src\core\lv_obj_style_gen.h **** 
 145:c:\projects\paindrain\arduinolcd\test\pain drain\libraries\lvgl\src\core\lv_obj_style_gen.h **** static inline lv_color_t lv_obj_get_style_bg_color_filtered(const struct _lv_obj_t * obj, uint32_t 
 146:c:\projects\paindrain\arduinolcd\test\pain drain\libraries\lvgl\src\core\lv_obj_style_gen.h **** {
 147:c:\projects\paindrain\arduinolcd\test\pain drain\libraries\lvgl\src\core\lv_obj_style_gen.h ****     lv_style_value_t v = _lv_obj_style_apply_color_filter(obj, part, lv_obj_get_style_prop(obj, par
 148:c:\projects\paindrain\arduinolcd\test\pain drain\libraries\lvgl\src\core\lv_obj_style_gen.h ****     return v.color;
 149:c:\projects\paindrain\arduinolcd\test\pain drain\libraries\lvgl\src\core\lv_obj_style_gen.h **** }
 150:c:\projects\paindrain\arduinolcd\test\pain drain\libraries\lvgl\src\core\lv_obj_style_gen.h **** 
 151:c:\projects\paindrain\arduinolcd\test\pain drain\libraries\lvgl\src\core\lv_obj_style_gen.h **** static inline lv_opa_t lv_obj_get_style_bg_opa(const struct _lv_obj_t * obj, uint32_t part)
 152:c:\projects\paindrain\arduinolcd\test\pain drain\libraries\lvgl\src\core\lv_obj_style_gen.h **** {
 153:c:\projects\paindrain\arduinolcd\test\pain drain\libraries\lvgl\src\core\lv_obj_style_gen.h ****     lv_style_value_t v = lv_obj_get_style_prop(obj, part, LV_STYLE_BG_OPA);
 154:c:\projects\paindrain\arduinolcd\test\pain drain\libraries\lvgl\src\core\lv_obj_style_gen.h ****     return (lv_opa_t)v.num;
 155:c:\projects\paindrain\arduinolcd\test\pain drain\libraries\lvgl\src\core\lv_obj_style_gen.h **** }
 156:c:\projects\paindrain\arduinolcd\test\pain drain\libraries\lvgl\src\core\lv_obj_style_gen.h **** 
 157:c:\projects\paindrain\arduinolcd\test\pain drain\libraries\lvgl\src\core\lv_obj_style_gen.h **** static inline lv_color_t lv_obj_get_style_bg_grad_color(const struct _lv_obj_t * obj, uint32_t part
 158:c:\projects\paindrain\arduinolcd\test\pain drain\libraries\lvgl\src\core\lv_obj_style_gen.h **** {
 159:c:\projects\paindrain\arduinolcd\test\pain drain\libraries\lvgl\src\core\lv_obj_style_gen.h ****     lv_style_value_t v = lv_obj_get_style_prop(obj, part, LV_STYLE_BG_GRAD_COLOR);
 160:c:\projects\paindrain\arduinolcd\test\pain drain\libraries\lvgl\src\core\lv_obj_style_gen.h ****     return v.color;
 161:c:\projects\paindrain\arduinolcd\test\pain drain\libraries\lvgl\src\core\lv_obj_style_gen.h **** }
 162:c:\projects\paindrain\arduinolcd\test\pain drain\libraries\lvgl\src\core\lv_obj_style_gen.h **** 
 163:c:\projects\paindrain\arduinolcd\test\pain drain\libraries\lvgl\src\core\lv_obj_style_gen.h **** static inline lv_color_t lv_obj_get_style_bg_grad_color_filtered(const struct _lv_obj_t * obj, uint
 164:c:\projects\paindrain\arduinolcd\test\pain drain\libraries\lvgl\src\core\lv_obj_style_gen.h **** {
 165:c:\projects\paindrain\arduinolcd\test\pain drain\libraries\lvgl\src\core\lv_obj_style_gen.h ****     lv_style_value_t v = _lv_obj_style_apply_color_filter(obj, part, lv_obj_get_style_prop(obj, par
 166:c:\projects\paindrain\arduinolcd\test\pain drain\libraries\lvgl\src\core\lv_obj_style_gen.h ****     return v.color;
 167:c:\projects\paindrain\arduinolcd\test\pain drain\libraries\lvgl\src\core\lv_obj_style_gen.h **** }
ARM GAS  C:\Users\haske\AppData\Local\Temp\ccVRp2Ta.s 			page 41


 168:c:\projects\paindrain\arduinolcd\test\pain drain\libraries\lvgl\src\core\lv_obj_style_gen.h **** 
 169:c:\projects\paindrain\arduinolcd\test\pain drain\libraries\lvgl\src\core\lv_obj_style_gen.h **** static inline lv_grad_dir_t lv_obj_get_style_bg_grad_dir(const struct _lv_obj_t * obj, uint32_t par
 170:c:\projects\paindrain\arduinolcd\test\pain drain\libraries\lvgl\src\core\lv_obj_style_gen.h **** {
 171:c:\projects\paindrain\arduinolcd\test\pain drain\libraries\lvgl\src\core\lv_obj_style_gen.h ****     lv_style_value_t v = lv_obj_get_style_prop(obj, part, LV_STYLE_BG_GRAD_DIR);
 172:c:\projects\paindrain\arduinolcd\test\pain drain\libraries\lvgl\src\core\lv_obj_style_gen.h ****     return (lv_grad_dir_t)v.num;
 173:c:\projects\paindrain\arduinolcd\test\pain drain\libraries\lvgl\src\core\lv_obj_style_gen.h **** }
 174:c:\projects\paindrain\arduinolcd\test\pain drain\libraries\lvgl\src\core\lv_obj_style_gen.h **** 
 175:c:\projects\paindrain\arduinolcd\test\pain drain\libraries\lvgl\src\core\lv_obj_style_gen.h **** static inline lv_coord_t lv_obj_get_style_bg_main_stop(const struct _lv_obj_t * obj, uint32_t part)
 176:c:\projects\paindrain\arduinolcd\test\pain drain\libraries\lvgl\src\core\lv_obj_style_gen.h **** {
 177:c:\projects\paindrain\arduinolcd\test\pain drain\libraries\lvgl\src\core\lv_obj_style_gen.h ****     lv_style_value_t v = lv_obj_get_style_prop(obj, part, LV_STYLE_BG_MAIN_STOP);
 178:c:\projects\paindrain\arduinolcd\test\pain drain\libraries\lvgl\src\core\lv_obj_style_gen.h ****     return (lv_coord_t)v.num;
 179:c:\projects\paindrain\arduinolcd\test\pain drain\libraries\lvgl\src\core\lv_obj_style_gen.h **** }
 180:c:\projects\paindrain\arduinolcd\test\pain drain\libraries\lvgl\src\core\lv_obj_style_gen.h **** 
 181:c:\projects\paindrain\arduinolcd\test\pain drain\libraries\lvgl\src\core\lv_obj_style_gen.h **** static inline lv_coord_t lv_obj_get_style_bg_grad_stop(const struct _lv_obj_t * obj, uint32_t part)
 182:c:\projects\paindrain\arduinolcd\test\pain drain\libraries\lvgl\src\core\lv_obj_style_gen.h **** {
 183:c:\projects\paindrain\arduinolcd\test\pain drain\libraries\lvgl\src\core\lv_obj_style_gen.h ****     lv_style_value_t v = lv_obj_get_style_prop(obj, part, LV_STYLE_BG_GRAD_STOP);
 184:c:\projects\paindrain\arduinolcd\test\pain drain\libraries\lvgl\src\core\lv_obj_style_gen.h ****     return (lv_coord_t)v.num;
 185:c:\projects\paindrain\arduinolcd\test\pain drain\libraries\lvgl\src\core\lv_obj_style_gen.h **** }
 186:c:\projects\paindrain\arduinolcd\test\pain drain\libraries\lvgl\src\core\lv_obj_style_gen.h **** 
 187:c:\projects\paindrain\arduinolcd\test\pain drain\libraries\lvgl\src\core\lv_obj_style_gen.h **** static inline const lv_grad_dsc_t * lv_obj_get_style_bg_grad(const struct _lv_obj_t * obj, uint32_t
 188:c:\projects\paindrain\arduinolcd\test\pain drain\libraries\lvgl\src\core\lv_obj_style_gen.h **** {
 189:c:\projects\paindrain\arduinolcd\test\pain drain\libraries\lvgl\src\core\lv_obj_style_gen.h ****     lv_style_value_t v = lv_obj_get_style_prop(obj, part, LV_STYLE_BG_GRAD);
 190:c:\projects\paindrain\arduinolcd\test\pain drain\libraries\lvgl\src\core\lv_obj_style_gen.h ****     return (const lv_grad_dsc_t *)v.ptr;
 191:c:\projects\paindrain\arduinolcd\test\pain drain\libraries\lvgl\src\core\lv_obj_style_gen.h **** }
 192:c:\projects\paindrain\arduinolcd\test\pain drain\libraries\lvgl\src\core\lv_obj_style_gen.h **** 
 193:c:\projects\paindrain\arduinolcd\test\pain drain\libraries\lvgl\src\core\lv_obj_style_gen.h **** static inline lv_dither_mode_t lv_obj_get_style_bg_dither_mode(const struct _lv_obj_t * obj, uint32
 194:c:\projects\paindrain\arduinolcd\test\pain drain\libraries\lvgl\src\core\lv_obj_style_gen.h **** {
 195:c:\projects\paindrain\arduinolcd\test\pain drain\libraries\lvgl\src\core\lv_obj_style_gen.h ****     lv_style_value_t v = lv_obj_get_style_prop(obj, part, LV_STYLE_BG_DITHER_MODE);
 196:c:\projects\paindrain\arduinolcd\test\pain drain\libraries\lvgl\src\core\lv_obj_style_gen.h ****     return (lv_dither_mode_t)v.num;
 197:c:\projects\paindrain\arduinolcd\test\pain drain\libraries\lvgl\src\core\lv_obj_style_gen.h **** }
 198:c:\projects\paindrain\arduinolcd\test\pain drain\libraries\lvgl\src\core\lv_obj_style_gen.h **** 
 199:c:\projects\paindrain\arduinolcd\test\pain drain\libraries\lvgl\src\core\lv_obj_style_gen.h **** static inline const void * lv_obj_get_style_bg_img_src(const struct _lv_obj_t * obj, uint32_t part)
 200:c:\projects\paindrain\arduinolcd\test\pain drain\libraries\lvgl\src\core\lv_obj_style_gen.h **** {
 201:c:\projects\paindrain\arduinolcd\test\pain drain\libraries\lvgl\src\core\lv_obj_style_gen.h ****     lv_style_value_t v = lv_obj_get_style_prop(obj, part, LV_STYLE_BG_IMG_SRC);
 202:c:\projects\paindrain\arduinolcd\test\pain drain\libraries\lvgl\src\core\lv_obj_style_gen.h ****     return (const void *)v.ptr;
 203:c:\projects\paindrain\arduinolcd\test\pain drain\libraries\lvgl\src\core\lv_obj_style_gen.h **** }
 204:c:\projects\paindrain\arduinolcd\test\pain drain\libraries\lvgl\src\core\lv_obj_style_gen.h **** 
 205:c:\projects\paindrain\arduinolcd\test\pain drain\libraries\lvgl\src\core\lv_obj_style_gen.h **** static inline lv_opa_t lv_obj_get_style_bg_img_opa(const struct _lv_obj_t * obj, uint32_t part)
 206:c:\projects\paindrain\arduinolcd\test\pain drain\libraries\lvgl\src\core\lv_obj_style_gen.h **** {
 207:c:\projects\paindrain\arduinolcd\test\pain drain\libraries\lvgl\src\core\lv_obj_style_gen.h ****     lv_style_value_t v = lv_obj_get_style_prop(obj, part, LV_STYLE_BG_IMG_OPA);
 208:c:\projects\paindrain\arduinolcd\test\pain drain\libraries\lvgl\src\core\lv_obj_style_gen.h ****     return (lv_opa_t)v.num;
 209:c:\projects\paindrain\arduinolcd\test\pain drain\libraries\lvgl\src\core\lv_obj_style_gen.h **** }
 210:c:\projects\paindrain\arduinolcd\test\pain drain\libraries\lvgl\src\core\lv_obj_style_gen.h **** 
 211:c:\projects\paindrain\arduinolcd\test\pain drain\libraries\lvgl\src\core\lv_obj_style_gen.h **** static inline lv_color_t lv_obj_get_style_bg_img_recolor(const struct _lv_obj_t * obj, uint32_t par
 212:c:\projects\paindrain\arduinolcd\test\pain drain\libraries\lvgl\src\core\lv_obj_style_gen.h **** {
 213:c:\projects\paindrain\arduinolcd\test\pain drain\libraries\lvgl\src\core\lv_obj_style_gen.h ****     lv_style_value_t v = lv_obj_get_style_prop(obj, part, LV_STYLE_BG_IMG_RECOLOR);
 214:c:\projects\paindrain\arduinolcd\test\pain drain\libraries\lvgl\src\core\lv_obj_style_gen.h ****     return v.color;
 215:c:\projects\paindrain\arduinolcd\test\pain drain\libraries\lvgl\src\core\lv_obj_style_gen.h **** }
 216:c:\projects\paindrain\arduinolcd\test\pain drain\libraries\lvgl\src\core\lv_obj_style_gen.h **** 
 217:c:\projects\paindrain\arduinolcd\test\pain drain\libraries\lvgl\src\core\lv_obj_style_gen.h **** static inline lv_color_t lv_obj_get_style_bg_img_recolor_filtered(const struct _lv_obj_t * obj, uin
 218:c:\projects\paindrain\arduinolcd\test\pain drain\libraries\lvgl\src\core\lv_obj_style_gen.h **** {
 219:c:\projects\paindrain\arduinolcd\test\pain drain\libraries\lvgl\src\core\lv_obj_style_gen.h ****     lv_style_value_t v = _lv_obj_style_apply_color_filter(obj, part, lv_obj_get_style_prop(obj, par
 220:c:\projects\paindrain\arduinolcd\test\pain drain\libraries\lvgl\src\core\lv_obj_style_gen.h ****     return v.color;
 221:c:\projects\paindrain\arduinolcd\test\pain drain\libraries\lvgl\src\core\lv_obj_style_gen.h **** }
 222:c:\projects\paindrain\arduinolcd\test\pain drain\libraries\lvgl\src\core\lv_obj_style_gen.h **** 
 223:c:\projects\paindrain\arduinolcd\test\pain drain\libraries\lvgl\src\core\lv_obj_style_gen.h **** static inline lv_opa_t lv_obj_get_style_bg_img_recolor_opa(const struct _lv_obj_t * obj, uint32_t p
 224:c:\projects\paindrain\arduinolcd\test\pain drain\libraries\lvgl\src\core\lv_obj_style_gen.h **** {
ARM GAS  C:\Users\haske\AppData\Local\Temp\ccVRp2Ta.s 			page 42


 225:c:\projects\paindrain\arduinolcd\test\pain drain\libraries\lvgl\src\core\lv_obj_style_gen.h ****     lv_style_value_t v = lv_obj_get_style_prop(obj, part, LV_STYLE_BG_IMG_RECOLOR_OPA);
 226:c:\projects\paindrain\arduinolcd\test\pain drain\libraries\lvgl\src\core\lv_obj_style_gen.h ****     return (lv_opa_t)v.num;
 227:c:\projects\paindrain\arduinolcd\test\pain drain\libraries\lvgl\src\core\lv_obj_style_gen.h **** }
 228:c:\projects\paindrain\arduinolcd\test\pain drain\libraries\lvgl\src\core\lv_obj_style_gen.h **** 
 229:c:\projects\paindrain\arduinolcd\test\pain drain\libraries\lvgl\src\core\lv_obj_style_gen.h **** static inline bool lv_obj_get_style_bg_img_tiled(const struct _lv_obj_t * obj, uint32_t part)
 230:c:\projects\paindrain\arduinolcd\test\pain drain\libraries\lvgl\src\core\lv_obj_style_gen.h **** {
 231:c:\projects\paindrain\arduinolcd\test\pain drain\libraries\lvgl\src\core\lv_obj_style_gen.h ****     lv_style_value_t v = lv_obj_get_style_prop(obj, part, LV_STYLE_BG_IMG_TILED);
 232:c:\projects\paindrain\arduinolcd\test\pain drain\libraries\lvgl\src\core\lv_obj_style_gen.h ****     return (bool)v.num;
 233:c:\projects\paindrain\arduinolcd\test\pain drain\libraries\lvgl\src\core\lv_obj_style_gen.h **** }
 234:c:\projects\paindrain\arduinolcd\test\pain drain\libraries\lvgl\src\core\lv_obj_style_gen.h **** 
 235:c:\projects\paindrain\arduinolcd\test\pain drain\libraries\lvgl\src\core\lv_obj_style_gen.h **** static inline lv_color_t lv_obj_get_style_border_color(const struct _lv_obj_t * obj, uint32_t part)
 236:c:\projects\paindrain\arduinolcd\test\pain drain\libraries\lvgl\src\core\lv_obj_style_gen.h **** {
 237:c:\projects\paindrain\arduinolcd\test\pain drain\libraries\lvgl\src\core\lv_obj_style_gen.h ****     lv_style_value_t v = lv_obj_get_style_prop(obj, part, LV_STYLE_BORDER_COLOR);
 238:c:\projects\paindrain\arduinolcd\test\pain drain\libraries\lvgl\src\core\lv_obj_style_gen.h ****     return v.color;
 239:c:\projects\paindrain\arduinolcd\test\pain drain\libraries\lvgl\src\core\lv_obj_style_gen.h **** }
 240:c:\projects\paindrain\arduinolcd\test\pain drain\libraries\lvgl\src\core\lv_obj_style_gen.h **** 
 241:c:\projects\paindrain\arduinolcd\test\pain drain\libraries\lvgl\src\core\lv_obj_style_gen.h **** static inline lv_color_t lv_obj_get_style_border_color_filtered(const struct _lv_obj_t * obj, uint3
 242:c:\projects\paindrain\arduinolcd\test\pain drain\libraries\lvgl\src\core\lv_obj_style_gen.h **** {
 243:c:\projects\paindrain\arduinolcd\test\pain drain\libraries\lvgl\src\core\lv_obj_style_gen.h ****     lv_style_value_t v = _lv_obj_style_apply_color_filter(obj, part, lv_obj_get_style_prop(obj, par
 244:c:\projects\paindrain\arduinolcd\test\pain drain\libraries\lvgl\src\core\lv_obj_style_gen.h ****     return v.color;
 245:c:\projects\paindrain\arduinolcd\test\pain drain\libraries\lvgl\src\core\lv_obj_style_gen.h **** }
 246:c:\projects\paindrain\arduinolcd\test\pain drain\libraries\lvgl\src\core\lv_obj_style_gen.h **** 
 247:c:\projects\paindrain\arduinolcd\test\pain drain\libraries\lvgl\src\core\lv_obj_style_gen.h **** static inline lv_opa_t lv_obj_get_style_border_opa(const struct _lv_obj_t * obj, uint32_t part)
 248:c:\projects\paindrain\arduinolcd\test\pain drain\libraries\lvgl\src\core\lv_obj_style_gen.h **** {
 249:c:\projects\paindrain\arduinolcd\test\pain drain\libraries\lvgl\src\core\lv_obj_style_gen.h ****     lv_style_value_t v = lv_obj_get_style_prop(obj, part, LV_STYLE_BORDER_OPA);
 250:c:\projects\paindrain\arduinolcd\test\pain drain\libraries\lvgl\src\core\lv_obj_style_gen.h ****     return (lv_opa_t)v.num;
 251:c:\projects\paindrain\arduinolcd\test\pain drain\libraries\lvgl\src\core\lv_obj_style_gen.h **** }
 252:c:\projects\paindrain\arduinolcd\test\pain drain\libraries\lvgl\src\core\lv_obj_style_gen.h **** 
 253:c:\projects\paindrain\arduinolcd\test\pain drain\libraries\lvgl\src\core\lv_obj_style_gen.h **** static inline lv_coord_t lv_obj_get_style_border_width(const struct _lv_obj_t * obj, uint32_t part)
 254:c:\projects\paindrain\arduinolcd\test\pain drain\libraries\lvgl\src\core\lv_obj_style_gen.h **** {
 255:c:\projects\paindrain\arduinolcd\test\pain drain\libraries\lvgl\src\core\lv_obj_style_gen.h ****     lv_style_value_t v = lv_obj_get_style_prop(obj, part, LV_STYLE_BORDER_WIDTH);
 256:c:\projects\paindrain\arduinolcd\test\pain drain\libraries\lvgl\src\core\lv_obj_style_gen.h ****     return (lv_coord_t)v.num;
 257:c:\projects\paindrain\arduinolcd\test\pain drain\libraries\lvgl\src\core\lv_obj_style_gen.h **** }
 258:c:\projects\paindrain\arduinolcd\test\pain drain\libraries\lvgl\src\core\lv_obj_style_gen.h **** 
 259:c:\projects\paindrain\arduinolcd\test\pain drain\libraries\lvgl\src\core\lv_obj_style_gen.h **** static inline lv_border_side_t lv_obj_get_style_border_side(const struct _lv_obj_t * obj, uint32_t 
 260:c:\projects\paindrain\arduinolcd\test\pain drain\libraries\lvgl\src\core\lv_obj_style_gen.h **** {
 261:c:\projects\paindrain\arduinolcd\test\pain drain\libraries\lvgl\src\core\lv_obj_style_gen.h ****     lv_style_value_t v = lv_obj_get_style_prop(obj, part, LV_STYLE_BORDER_SIDE);
 262:c:\projects\paindrain\arduinolcd\test\pain drain\libraries\lvgl\src\core\lv_obj_style_gen.h ****     return (lv_border_side_t)v.num;
 263:c:\projects\paindrain\arduinolcd\test\pain drain\libraries\lvgl\src\core\lv_obj_style_gen.h **** }
 264:c:\projects\paindrain\arduinolcd\test\pain drain\libraries\lvgl\src\core\lv_obj_style_gen.h **** 
 265:c:\projects\paindrain\arduinolcd\test\pain drain\libraries\lvgl\src\core\lv_obj_style_gen.h **** static inline bool lv_obj_get_style_border_post(const struct _lv_obj_t * obj, uint32_t part)
 266:c:\projects\paindrain\arduinolcd\test\pain drain\libraries\lvgl\src\core\lv_obj_style_gen.h **** {
 267:c:\projects\paindrain\arduinolcd\test\pain drain\libraries\lvgl\src\core\lv_obj_style_gen.h ****     lv_style_value_t v = lv_obj_get_style_prop(obj, part, LV_STYLE_BORDER_POST);
 268:c:\projects\paindrain\arduinolcd\test\pain drain\libraries\lvgl\src\core\lv_obj_style_gen.h ****     return (bool)v.num;
 269:c:\projects\paindrain\arduinolcd\test\pain drain\libraries\lvgl\src\core\lv_obj_style_gen.h **** }
 270:c:\projects\paindrain\arduinolcd\test\pain drain\libraries\lvgl\src\core\lv_obj_style_gen.h **** 
 271:c:\projects\paindrain\arduinolcd\test\pain drain\libraries\lvgl\src\core\lv_obj_style_gen.h **** static inline lv_coord_t lv_obj_get_style_outline_width(const struct _lv_obj_t * obj, uint32_t part
 272:c:\projects\paindrain\arduinolcd\test\pain drain\libraries\lvgl\src\core\lv_obj_style_gen.h **** {
 273:c:\projects\paindrain\arduinolcd\test\pain drain\libraries\lvgl\src\core\lv_obj_style_gen.h ****     lv_style_value_t v = lv_obj_get_style_prop(obj, part, LV_STYLE_OUTLINE_WIDTH);
 274:c:\projects\paindrain\arduinolcd\test\pain drain\libraries\lvgl\src\core\lv_obj_style_gen.h ****     return (lv_coord_t)v.num;
 275:c:\projects\paindrain\arduinolcd\test\pain drain\libraries\lvgl\src\core\lv_obj_style_gen.h **** }
 276:c:\projects\paindrain\arduinolcd\test\pain drain\libraries\lvgl\src\core\lv_obj_style_gen.h **** 
 277:c:\projects\paindrain\arduinolcd\test\pain drain\libraries\lvgl\src\core\lv_obj_style_gen.h **** static inline lv_color_t lv_obj_get_style_outline_color(const struct _lv_obj_t * obj, uint32_t part
 278:c:\projects\paindrain\arduinolcd\test\pain drain\libraries\lvgl\src\core\lv_obj_style_gen.h **** {
 279:c:\projects\paindrain\arduinolcd\test\pain drain\libraries\lvgl\src\core\lv_obj_style_gen.h ****     lv_style_value_t v = lv_obj_get_style_prop(obj, part, LV_STYLE_OUTLINE_COLOR);
 280:c:\projects\paindrain\arduinolcd\test\pain drain\libraries\lvgl\src\core\lv_obj_style_gen.h ****     return v.color;
 281:c:\projects\paindrain\arduinolcd\test\pain drain\libraries\lvgl\src\core\lv_obj_style_gen.h **** }
ARM GAS  C:\Users\haske\AppData\Local\Temp\ccVRp2Ta.s 			page 43


 282:c:\projects\paindrain\arduinolcd\test\pain drain\libraries\lvgl\src\core\lv_obj_style_gen.h **** 
 283:c:\projects\paindrain\arduinolcd\test\pain drain\libraries\lvgl\src\core\lv_obj_style_gen.h **** static inline lv_color_t lv_obj_get_style_outline_color_filtered(const struct _lv_obj_t * obj, uint
 284:c:\projects\paindrain\arduinolcd\test\pain drain\libraries\lvgl\src\core\lv_obj_style_gen.h **** {
 285:c:\projects\paindrain\arduinolcd\test\pain drain\libraries\lvgl\src\core\lv_obj_style_gen.h ****     lv_style_value_t v = _lv_obj_style_apply_color_filter(obj, part, lv_obj_get_style_prop(obj, par
 286:c:\projects\paindrain\arduinolcd\test\pain drain\libraries\lvgl\src\core\lv_obj_style_gen.h ****     return v.color;
 287:c:\projects\paindrain\arduinolcd\test\pain drain\libraries\lvgl\src\core\lv_obj_style_gen.h **** }
 288:c:\projects\paindrain\arduinolcd\test\pain drain\libraries\lvgl\src\core\lv_obj_style_gen.h **** 
 289:c:\projects\paindrain\arduinolcd\test\pain drain\libraries\lvgl\src\core\lv_obj_style_gen.h **** static inline lv_opa_t lv_obj_get_style_outline_opa(const struct _lv_obj_t * obj, uint32_t part)
 290:c:\projects\paindrain\arduinolcd\test\pain drain\libraries\lvgl\src\core\lv_obj_style_gen.h **** {
 291:c:\projects\paindrain\arduinolcd\test\pain drain\libraries\lvgl\src\core\lv_obj_style_gen.h ****     lv_style_value_t v = lv_obj_get_style_prop(obj, part, LV_STYLE_OUTLINE_OPA);
 292:c:\projects\paindrain\arduinolcd\test\pain drain\libraries\lvgl\src\core\lv_obj_style_gen.h ****     return (lv_opa_t)v.num;
 293:c:\projects\paindrain\arduinolcd\test\pain drain\libraries\lvgl\src\core\lv_obj_style_gen.h **** }
 294:c:\projects\paindrain\arduinolcd\test\pain drain\libraries\lvgl\src\core\lv_obj_style_gen.h **** 
 295:c:\projects\paindrain\arduinolcd\test\pain drain\libraries\lvgl\src\core\lv_obj_style_gen.h **** static inline lv_coord_t lv_obj_get_style_outline_pad(const struct _lv_obj_t * obj, uint32_t part)
 296:c:\projects\paindrain\arduinolcd\test\pain drain\libraries\lvgl\src\core\lv_obj_style_gen.h **** {
 297:c:\projects\paindrain\arduinolcd\test\pain drain\libraries\lvgl\src\core\lv_obj_style_gen.h ****     lv_style_value_t v = lv_obj_get_style_prop(obj, part, LV_STYLE_OUTLINE_PAD);
 298:c:\projects\paindrain\arduinolcd\test\pain drain\libraries\lvgl\src\core\lv_obj_style_gen.h ****     return (lv_coord_t)v.num;
 299:c:\projects\paindrain\arduinolcd\test\pain drain\libraries\lvgl\src\core\lv_obj_style_gen.h **** }
 300:c:\projects\paindrain\arduinolcd\test\pain drain\libraries\lvgl\src\core\lv_obj_style_gen.h **** 
 301:c:\projects\paindrain\arduinolcd\test\pain drain\libraries\lvgl\src\core\lv_obj_style_gen.h **** static inline lv_coord_t lv_obj_get_style_shadow_width(const struct _lv_obj_t * obj, uint32_t part)
 302:c:\projects\paindrain\arduinolcd\test\pain drain\libraries\lvgl\src\core\lv_obj_style_gen.h **** {
 303:c:\projects\paindrain\arduinolcd\test\pain drain\libraries\lvgl\src\core\lv_obj_style_gen.h ****     lv_style_value_t v = lv_obj_get_style_prop(obj, part, LV_STYLE_SHADOW_WIDTH);
 304:c:\projects\paindrain\arduinolcd\test\pain drain\libraries\lvgl\src\core\lv_obj_style_gen.h ****     return (lv_coord_t)v.num;
 305:c:\projects\paindrain\arduinolcd\test\pain drain\libraries\lvgl\src\core\lv_obj_style_gen.h **** }
 306:c:\projects\paindrain\arduinolcd\test\pain drain\libraries\lvgl\src\core\lv_obj_style_gen.h **** 
 307:c:\projects\paindrain\arduinolcd\test\pain drain\libraries\lvgl\src\core\lv_obj_style_gen.h **** static inline lv_coord_t lv_obj_get_style_shadow_ofs_x(const struct _lv_obj_t * obj, uint32_t part)
 308:c:\projects\paindrain\arduinolcd\test\pain drain\libraries\lvgl\src\core\lv_obj_style_gen.h **** {
 309:c:\projects\paindrain\arduinolcd\test\pain drain\libraries\lvgl\src\core\lv_obj_style_gen.h ****     lv_style_value_t v = lv_obj_get_style_prop(obj, part, LV_STYLE_SHADOW_OFS_X);
 310:c:\projects\paindrain\arduinolcd\test\pain drain\libraries\lvgl\src\core\lv_obj_style_gen.h ****     return (lv_coord_t)v.num;
 311:c:\projects\paindrain\arduinolcd\test\pain drain\libraries\lvgl\src\core\lv_obj_style_gen.h **** }
 312:c:\projects\paindrain\arduinolcd\test\pain drain\libraries\lvgl\src\core\lv_obj_style_gen.h **** 
 313:c:\projects\paindrain\arduinolcd\test\pain drain\libraries\lvgl\src\core\lv_obj_style_gen.h **** static inline lv_coord_t lv_obj_get_style_shadow_ofs_y(const struct _lv_obj_t * obj, uint32_t part)
 314:c:\projects\paindrain\arduinolcd\test\pain drain\libraries\lvgl\src\core\lv_obj_style_gen.h **** {
 315:c:\projects\paindrain\arduinolcd\test\pain drain\libraries\lvgl\src\core\lv_obj_style_gen.h ****     lv_style_value_t v = lv_obj_get_style_prop(obj, part, LV_STYLE_SHADOW_OFS_Y);
 316:c:\projects\paindrain\arduinolcd\test\pain drain\libraries\lvgl\src\core\lv_obj_style_gen.h ****     return (lv_coord_t)v.num;
 317:c:\projects\paindrain\arduinolcd\test\pain drain\libraries\lvgl\src\core\lv_obj_style_gen.h **** }
 318:c:\projects\paindrain\arduinolcd\test\pain drain\libraries\lvgl\src\core\lv_obj_style_gen.h **** 
 319:c:\projects\paindrain\arduinolcd\test\pain drain\libraries\lvgl\src\core\lv_obj_style_gen.h **** static inline lv_coord_t lv_obj_get_style_shadow_spread(const struct _lv_obj_t * obj, uint32_t part
 320:c:\projects\paindrain\arduinolcd\test\pain drain\libraries\lvgl\src\core\lv_obj_style_gen.h **** {
 321:c:\projects\paindrain\arduinolcd\test\pain drain\libraries\lvgl\src\core\lv_obj_style_gen.h ****     lv_style_value_t v = lv_obj_get_style_prop(obj, part, LV_STYLE_SHADOW_SPREAD);
 322:c:\projects\paindrain\arduinolcd\test\pain drain\libraries\lvgl\src\core\lv_obj_style_gen.h ****     return (lv_coord_t)v.num;
 323:c:\projects\paindrain\arduinolcd\test\pain drain\libraries\lvgl\src\core\lv_obj_style_gen.h **** }
 324:c:\projects\paindrain\arduinolcd\test\pain drain\libraries\lvgl\src\core\lv_obj_style_gen.h **** 
 325:c:\projects\paindrain\arduinolcd\test\pain drain\libraries\lvgl\src\core\lv_obj_style_gen.h **** static inline lv_color_t lv_obj_get_style_shadow_color(const struct _lv_obj_t * obj, uint32_t part)
 326:c:\projects\paindrain\arduinolcd\test\pain drain\libraries\lvgl\src\core\lv_obj_style_gen.h **** {
 327:c:\projects\paindrain\arduinolcd\test\pain drain\libraries\lvgl\src\core\lv_obj_style_gen.h ****     lv_style_value_t v = lv_obj_get_style_prop(obj, part, LV_STYLE_SHADOW_COLOR);
 328:c:\projects\paindrain\arduinolcd\test\pain drain\libraries\lvgl\src\core\lv_obj_style_gen.h ****     return v.color;
 329:c:\projects\paindrain\arduinolcd\test\pain drain\libraries\lvgl\src\core\lv_obj_style_gen.h **** }
 330:c:\projects\paindrain\arduinolcd\test\pain drain\libraries\lvgl\src\core\lv_obj_style_gen.h **** 
 331:c:\projects\paindrain\arduinolcd\test\pain drain\libraries\lvgl\src\core\lv_obj_style_gen.h **** static inline lv_color_t lv_obj_get_style_shadow_color_filtered(const struct _lv_obj_t * obj, uint3
 332:c:\projects\paindrain\arduinolcd\test\pain drain\libraries\lvgl\src\core\lv_obj_style_gen.h **** {
 333:c:\projects\paindrain\arduinolcd\test\pain drain\libraries\lvgl\src\core\lv_obj_style_gen.h ****     lv_style_value_t v = _lv_obj_style_apply_color_filter(obj, part, lv_obj_get_style_prop(obj, par
 334:c:\projects\paindrain\arduinolcd\test\pain drain\libraries\lvgl\src\core\lv_obj_style_gen.h ****     return v.color;
 335:c:\projects\paindrain\arduinolcd\test\pain drain\libraries\lvgl\src\core\lv_obj_style_gen.h **** }
 336:c:\projects\paindrain\arduinolcd\test\pain drain\libraries\lvgl\src\core\lv_obj_style_gen.h **** 
 337:c:\projects\paindrain\arduinolcd\test\pain drain\libraries\lvgl\src\core\lv_obj_style_gen.h **** static inline lv_opa_t lv_obj_get_style_shadow_opa(const struct _lv_obj_t * obj, uint32_t part)
 338:c:\projects\paindrain\arduinolcd\test\pain drain\libraries\lvgl\src\core\lv_obj_style_gen.h **** {
ARM GAS  C:\Users\haske\AppData\Local\Temp\ccVRp2Ta.s 			page 44


 339:c:\projects\paindrain\arduinolcd\test\pain drain\libraries\lvgl\src\core\lv_obj_style_gen.h ****     lv_style_value_t v = lv_obj_get_style_prop(obj, part, LV_STYLE_SHADOW_OPA);
 340:c:\projects\paindrain\arduinolcd\test\pain drain\libraries\lvgl\src\core\lv_obj_style_gen.h ****     return (lv_opa_t)v.num;
 341:c:\projects\paindrain\arduinolcd\test\pain drain\libraries\lvgl\src\core\lv_obj_style_gen.h **** }
 342:c:\projects\paindrain\arduinolcd\test\pain drain\libraries\lvgl\src\core\lv_obj_style_gen.h **** 
 343:c:\projects\paindrain\arduinolcd\test\pain drain\libraries\lvgl\src\core\lv_obj_style_gen.h **** static inline lv_opa_t lv_obj_get_style_img_opa(const struct _lv_obj_t * obj, uint32_t part)
 344:c:\projects\paindrain\arduinolcd\test\pain drain\libraries\lvgl\src\core\lv_obj_style_gen.h **** {
 345:c:\projects\paindrain\arduinolcd\test\pain drain\libraries\lvgl\src\core\lv_obj_style_gen.h ****     lv_style_value_t v = lv_obj_get_style_prop(obj, part, LV_STYLE_IMG_OPA);
 346:c:\projects\paindrain\arduinolcd\test\pain drain\libraries\lvgl\src\core\lv_obj_style_gen.h ****     return (lv_opa_t)v.num;
 347:c:\projects\paindrain\arduinolcd\test\pain drain\libraries\lvgl\src\core\lv_obj_style_gen.h **** }
 348:c:\projects\paindrain\arduinolcd\test\pain drain\libraries\lvgl\src\core\lv_obj_style_gen.h **** 
 349:c:\projects\paindrain\arduinolcd\test\pain drain\libraries\lvgl\src\core\lv_obj_style_gen.h **** static inline lv_color_t lv_obj_get_style_img_recolor(const struct _lv_obj_t * obj, uint32_t part)
 350:c:\projects\paindrain\arduinolcd\test\pain drain\libraries\lvgl\src\core\lv_obj_style_gen.h **** {
 351:c:\projects\paindrain\arduinolcd\test\pain drain\libraries\lvgl\src\core\lv_obj_style_gen.h ****     lv_style_value_t v = lv_obj_get_style_prop(obj, part, LV_STYLE_IMG_RECOLOR);
 352:c:\projects\paindrain\arduinolcd\test\pain drain\libraries\lvgl\src\core\lv_obj_style_gen.h ****     return v.color;
 353:c:\projects\paindrain\arduinolcd\test\pain drain\libraries\lvgl\src\core\lv_obj_style_gen.h **** }
 354:c:\projects\paindrain\arduinolcd\test\pain drain\libraries\lvgl\src\core\lv_obj_style_gen.h **** 
 355:c:\projects\paindrain\arduinolcd\test\pain drain\libraries\lvgl\src\core\lv_obj_style_gen.h **** static inline lv_color_t lv_obj_get_style_img_recolor_filtered(const struct _lv_obj_t * obj, uint32
 356:c:\projects\paindrain\arduinolcd\test\pain drain\libraries\lvgl\src\core\lv_obj_style_gen.h **** {
 357:c:\projects\paindrain\arduinolcd\test\pain drain\libraries\lvgl\src\core\lv_obj_style_gen.h ****     lv_style_value_t v = _lv_obj_style_apply_color_filter(obj, part, lv_obj_get_style_prop(obj, par
 358:c:\projects\paindrain\arduinolcd\test\pain drain\libraries\lvgl\src\core\lv_obj_style_gen.h ****     return v.color;
 359:c:\projects\paindrain\arduinolcd\test\pain drain\libraries\lvgl\src\core\lv_obj_style_gen.h **** }
 360:c:\projects\paindrain\arduinolcd\test\pain drain\libraries\lvgl\src\core\lv_obj_style_gen.h **** 
 361:c:\projects\paindrain\arduinolcd\test\pain drain\libraries\lvgl\src\core\lv_obj_style_gen.h **** static inline lv_opa_t lv_obj_get_style_img_recolor_opa(const struct _lv_obj_t * obj, uint32_t part
 362:c:\projects\paindrain\arduinolcd\test\pain drain\libraries\lvgl\src\core\lv_obj_style_gen.h **** {
 363:c:\projects\paindrain\arduinolcd\test\pain drain\libraries\lvgl\src\core\lv_obj_style_gen.h ****     lv_style_value_t v = lv_obj_get_style_prop(obj, part, LV_STYLE_IMG_RECOLOR_OPA);
 364:c:\projects\paindrain\arduinolcd\test\pain drain\libraries\lvgl\src\core\lv_obj_style_gen.h ****     return (lv_opa_t)v.num;
 365:c:\projects\paindrain\arduinolcd\test\pain drain\libraries\lvgl\src\core\lv_obj_style_gen.h **** }
 366:c:\projects\paindrain\arduinolcd\test\pain drain\libraries\lvgl\src\core\lv_obj_style_gen.h **** 
 367:c:\projects\paindrain\arduinolcd\test\pain drain\libraries\lvgl\src\core\lv_obj_style_gen.h **** static inline lv_coord_t lv_obj_get_style_line_width(const struct _lv_obj_t * obj, uint32_t part)
 368:c:\projects\paindrain\arduinolcd\test\pain drain\libraries\lvgl\src\core\lv_obj_style_gen.h **** {
 369:c:\projects\paindrain\arduinolcd\test\pain drain\libraries\lvgl\src\core\lv_obj_style_gen.h ****     lv_style_value_t v = lv_obj_get_style_prop(obj, part, LV_STYLE_LINE_WIDTH);
 370:c:\projects\paindrain\arduinolcd\test\pain drain\libraries\lvgl\src\core\lv_obj_style_gen.h ****     return (lv_coord_t)v.num;
 371:c:\projects\paindrain\arduinolcd\test\pain drain\libraries\lvgl\src\core\lv_obj_style_gen.h **** }
 372:c:\projects\paindrain\arduinolcd\test\pain drain\libraries\lvgl\src\core\lv_obj_style_gen.h **** 
 373:c:\projects\paindrain\arduinolcd\test\pain drain\libraries\lvgl\src\core\lv_obj_style_gen.h **** static inline lv_coord_t lv_obj_get_style_line_dash_width(const struct _lv_obj_t * obj, uint32_t pa
 374:c:\projects\paindrain\arduinolcd\test\pain drain\libraries\lvgl\src\core\lv_obj_style_gen.h **** {
 375:c:\projects\paindrain\arduinolcd\test\pain drain\libraries\lvgl\src\core\lv_obj_style_gen.h ****     lv_style_value_t v = lv_obj_get_style_prop(obj, part, LV_STYLE_LINE_DASH_WIDTH);
 376:c:\projects\paindrain\arduinolcd\test\pain drain\libraries\lvgl\src\core\lv_obj_style_gen.h ****     return (lv_coord_t)v.num;
 377:c:\projects\paindrain\arduinolcd\test\pain drain\libraries\lvgl\src\core\lv_obj_style_gen.h **** }
 378:c:\projects\paindrain\arduinolcd\test\pain drain\libraries\lvgl\src\core\lv_obj_style_gen.h **** 
 379:c:\projects\paindrain\arduinolcd\test\pain drain\libraries\lvgl\src\core\lv_obj_style_gen.h **** static inline lv_coord_t lv_obj_get_style_line_dash_gap(const struct _lv_obj_t * obj, uint32_t part
 380:c:\projects\paindrain\arduinolcd\test\pain drain\libraries\lvgl\src\core\lv_obj_style_gen.h **** {
 381:c:\projects\paindrain\arduinolcd\test\pain drain\libraries\lvgl\src\core\lv_obj_style_gen.h ****     lv_style_value_t v = lv_obj_get_style_prop(obj, part, LV_STYLE_LINE_DASH_GAP);
 382:c:\projects\paindrain\arduinolcd\test\pain drain\libraries\lvgl\src\core\lv_obj_style_gen.h ****     return (lv_coord_t)v.num;
 383:c:\projects\paindrain\arduinolcd\test\pain drain\libraries\lvgl\src\core\lv_obj_style_gen.h **** }
 384:c:\projects\paindrain\arduinolcd\test\pain drain\libraries\lvgl\src\core\lv_obj_style_gen.h **** 
 385:c:\projects\paindrain\arduinolcd\test\pain drain\libraries\lvgl\src\core\lv_obj_style_gen.h **** static inline bool lv_obj_get_style_line_rounded(const struct _lv_obj_t * obj, uint32_t part)
 386:c:\projects\paindrain\arduinolcd\test\pain drain\libraries\lvgl\src\core\lv_obj_style_gen.h **** {
 387:c:\projects\paindrain\arduinolcd\test\pain drain\libraries\lvgl\src\core\lv_obj_style_gen.h ****     lv_style_value_t v = lv_obj_get_style_prop(obj, part, LV_STYLE_LINE_ROUNDED);
 388:c:\projects\paindrain\arduinolcd\test\pain drain\libraries\lvgl\src\core\lv_obj_style_gen.h ****     return (bool)v.num;
 389:c:\projects\paindrain\arduinolcd\test\pain drain\libraries\lvgl\src\core\lv_obj_style_gen.h **** }
 390:c:\projects\paindrain\arduinolcd\test\pain drain\libraries\lvgl\src\core\lv_obj_style_gen.h **** 
 391:c:\projects\paindrain\arduinolcd\test\pain drain\libraries\lvgl\src\core\lv_obj_style_gen.h **** static inline lv_color_t lv_obj_get_style_line_color(const struct _lv_obj_t * obj, uint32_t part)
 392:c:\projects\paindrain\arduinolcd\test\pain drain\libraries\lvgl\src\core\lv_obj_style_gen.h **** {
 393:c:\projects\paindrain\arduinolcd\test\pain drain\libraries\lvgl\src\core\lv_obj_style_gen.h ****     lv_style_value_t v = lv_obj_get_style_prop(obj, part, LV_STYLE_LINE_COLOR);
 394:c:\projects\paindrain\arduinolcd\test\pain drain\libraries\lvgl\src\core\lv_obj_style_gen.h ****     return v.color;
 395:c:\projects\paindrain\arduinolcd\test\pain drain\libraries\lvgl\src\core\lv_obj_style_gen.h **** }
ARM GAS  C:\Users\haske\AppData\Local\Temp\ccVRp2Ta.s 			page 45


 396:c:\projects\paindrain\arduinolcd\test\pain drain\libraries\lvgl\src\core\lv_obj_style_gen.h **** 
 397:c:\projects\paindrain\arduinolcd\test\pain drain\libraries\lvgl\src\core\lv_obj_style_gen.h **** static inline lv_color_t lv_obj_get_style_line_color_filtered(const struct _lv_obj_t * obj, uint32_
 398:c:\projects\paindrain\arduinolcd\test\pain drain\libraries\lvgl\src\core\lv_obj_style_gen.h **** {
 399:c:\projects\paindrain\arduinolcd\test\pain drain\libraries\lvgl\src\core\lv_obj_style_gen.h ****     lv_style_value_t v = _lv_obj_style_apply_color_filter(obj, part, lv_obj_get_style_prop(obj, par
 400:c:\projects\paindrain\arduinolcd\test\pain drain\libraries\lvgl\src\core\lv_obj_style_gen.h ****     return v.color;
 401:c:\projects\paindrain\arduinolcd\test\pain drain\libraries\lvgl\src\core\lv_obj_style_gen.h **** }
 402:c:\projects\paindrain\arduinolcd\test\pain drain\libraries\lvgl\src\core\lv_obj_style_gen.h **** 
 403:c:\projects\paindrain\arduinolcd\test\pain drain\libraries\lvgl\src\core\lv_obj_style_gen.h **** static inline lv_opa_t lv_obj_get_style_line_opa(const struct _lv_obj_t * obj, uint32_t part)
 404:c:\projects\paindrain\arduinolcd\test\pain drain\libraries\lvgl\src\core\lv_obj_style_gen.h **** {
 405:c:\projects\paindrain\arduinolcd\test\pain drain\libraries\lvgl\src\core\lv_obj_style_gen.h ****     lv_style_value_t v = lv_obj_get_style_prop(obj, part, LV_STYLE_LINE_OPA);
 406:c:\projects\paindrain\arduinolcd\test\pain drain\libraries\lvgl\src\core\lv_obj_style_gen.h ****     return (lv_opa_t)v.num;
 407:c:\projects\paindrain\arduinolcd\test\pain drain\libraries\lvgl\src\core\lv_obj_style_gen.h **** }
 408:c:\projects\paindrain\arduinolcd\test\pain drain\libraries\lvgl\src\core\lv_obj_style_gen.h **** 
 409:c:\projects\paindrain\arduinolcd\test\pain drain\libraries\lvgl\src\core\lv_obj_style_gen.h **** static inline lv_coord_t lv_obj_get_style_arc_width(const struct _lv_obj_t * obj, uint32_t part)
 410:c:\projects\paindrain\arduinolcd\test\pain drain\libraries\lvgl\src\core\lv_obj_style_gen.h **** {
 411:c:\projects\paindrain\arduinolcd\test\pain drain\libraries\lvgl\src\core\lv_obj_style_gen.h ****     lv_style_value_t v = lv_obj_get_style_prop(obj, part, LV_STYLE_ARC_WIDTH);
 412:c:\projects\paindrain\arduinolcd\test\pain drain\libraries\lvgl\src\core\lv_obj_style_gen.h ****     return (lv_coord_t)v.num;
 413:c:\projects\paindrain\arduinolcd\test\pain drain\libraries\lvgl\src\core\lv_obj_style_gen.h **** }
 414:c:\projects\paindrain\arduinolcd\test\pain drain\libraries\lvgl\src\core\lv_obj_style_gen.h **** 
 415:c:\projects\paindrain\arduinolcd\test\pain drain\libraries\lvgl\src\core\lv_obj_style_gen.h **** static inline bool lv_obj_get_style_arc_rounded(const struct _lv_obj_t * obj, uint32_t part)
 416:c:\projects\paindrain\arduinolcd\test\pain drain\libraries\lvgl\src\core\lv_obj_style_gen.h **** {
 417:c:\projects\paindrain\arduinolcd\test\pain drain\libraries\lvgl\src\core\lv_obj_style_gen.h ****     lv_style_value_t v = lv_obj_get_style_prop(obj, part, LV_STYLE_ARC_ROUNDED);
 418:c:\projects\paindrain\arduinolcd\test\pain drain\libraries\lvgl\src\core\lv_obj_style_gen.h ****     return (bool)v.num;
 419:c:\projects\paindrain\arduinolcd\test\pain drain\libraries\lvgl\src\core\lv_obj_style_gen.h **** }
 420:c:\projects\paindrain\arduinolcd\test\pain drain\libraries\lvgl\src\core\lv_obj_style_gen.h **** 
 421:c:\projects\paindrain\arduinolcd\test\pain drain\libraries\lvgl\src\core\lv_obj_style_gen.h **** static inline lv_color_t lv_obj_get_style_arc_color(const struct _lv_obj_t * obj, uint32_t part)
 422:c:\projects\paindrain\arduinolcd\test\pain drain\libraries\lvgl\src\core\lv_obj_style_gen.h **** {
 423:c:\projects\paindrain\arduinolcd\test\pain drain\libraries\lvgl\src\core\lv_obj_style_gen.h ****     lv_style_value_t v = lv_obj_get_style_prop(obj, part, LV_STYLE_ARC_COLOR);
 424:c:\projects\paindrain\arduinolcd\test\pain drain\libraries\lvgl\src\core\lv_obj_style_gen.h ****     return v.color;
 425:c:\projects\paindrain\arduinolcd\test\pain drain\libraries\lvgl\src\core\lv_obj_style_gen.h **** }
 426:c:\projects\paindrain\arduinolcd\test\pain drain\libraries\lvgl\src\core\lv_obj_style_gen.h **** 
 427:c:\projects\paindrain\arduinolcd\test\pain drain\libraries\lvgl\src\core\lv_obj_style_gen.h **** static inline lv_color_t lv_obj_get_style_arc_color_filtered(const struct _lv_obj_t * obj, uint32_t
 428:c:\projects\paindrain\arduinolcd\test\pain drain\libraries\lvgl\src\core\lv_obj_style_gen.h **** {
 429:c:\projects\paindrain\arduinolcd\test\pain drain\libraries\lvgl\src\core\lv_obj_style_gen.h ****     lv_style_value_t v = _lv_obj_style_apply_color_filter(obj, part, lv_obj_get_style_prop(obj, par
 430:c:\projects\paindrain\arduinolcd\test\pain drain\libraries\lvgl\src\core\lv_obj_style_gen.h ****     return v.color;
 431:c:\projects\paindrain\arduinolcd\test\pain drain\libraries\lvgl\src\core\lv_obj_style_gen.h **** }
 432:c:\projects\paindrain\arduinolcd\test\pain drain\libraries\lvgl\src\core\lv_obj_style_gen.h **** 
 433:c:\projects\paindrain\arduinolcd\test\pain drain\libraries\lvgl\src\core\lv_obj_style_gen.h **** static inline lv_opa_t lv_obj_get_style_arc_opa(const struct _lv_obj_t * obj, uint32_t part)
 434:c:\projects\paindrain\arduinolcd\test\pain drain\libraries\lvgl\src\core\lv_obj_style_gen.h **** {
 435:c:\projects\paindrain\arduinolcd\test\pain drain\libraries\lvgl\src\core\lv_obj_style_gen.h ****     lv_style_value_t v = lv_obj_get_style_prop(obj, part, LV_STYLE_ARC_OPA);
 436:c:\projects\paindrain\arduinolcd\test\pain drain\libraries\lvgl\src\core\lv_obj_style_gen.h ****     return (lv_opa_t)v.num;
 437:c:\projects\paindrain\arduinolcd\test\pain drain\libraries\lvgl\src\core\lv_obj_style_gen.h **** }
 438:c:\projects\paindrain\arduinolcd\test\pain drain\libraries\lvgl\src\core\lv_obj_style_gen.h **** 
 439:c:\projects\paindrain\arduinolcd\test\pain drain\libraries\lvgl\src\core\lv_obj_style_gen.h **** static inline const void * lv_obj_get_style_arc_img_src(const struct _lv_obj_t * obj, uint32_t part
 440:c:\projects\paindrain\arduinolcd\test\pain drain\libraries\lvgl\src\core\lv_obj_style_gen.h **** {
 441:c:\projects\paindrain\arduinolcd\test\pain drain\libraries\lvgl\src\core\lv_obj_style_gen.h ****     lv_style_value_t v = lv_obj_get_style_prop(obj, part, LV_STYLE_ARC_IMG_SRC);
 442:c:\projects\paindrain\arduinolcd\test\pain drain\libraries\lvgl\src\core\lv_obj_style_gen.h ****     return (const void *)v.ptr;
 443:c:\projects\paindrain\arduinolcd\test\pain drain\libraries\lvgl\src\core\lv_obj_style_gen.h **** }
 444:c:\projects\paindrain\arduinolcd\test\pain drain\libraries\lvgl\src\core\lv_obj_style_gen.h **** 
 445:c:\projects\paindrain\arduinolcd\test\pain drain\libraries\lvgl\src\core\lv_obj_style_gen.h **** static inline lv_color_t lv_obj_get_style_text_color(const struct _lv_obj_t * obj, uint32_t part)
 446:c:\projects\paindrain\arduinolcd\test\pain drain\libraries\lvgl\src\core\lv_obj_style_gen.h **** {
 447:c:\projects\paindrain\arduinolcd\test\pain drain\libraries\lvgl\src\core\lv_obj_style_gen.h ****     lv_style_value_t v = lv_obj_get_style_prop(obj, part, LV_STYLE_TEXT_COLOR);
 448:c:\projects\paindrain\arduinolcd\test\pain drain\libraries\lvgl\src\core\lv_obj_style_gen.h ****     return v.color;
 449:c:\projects\paindrain\arduinolcd\test\pain drain\libraries\lvgl\src\core\lv_obj_style_gen.h **** }
 450:c:\projects\paindrain\arduinolcd\test\pain drain\libraries\lvgl\src\core\lv_obj_style_gen.h **** 
 451:c:\projects\paindrain\arduinolcd\test\pain drain\libraries\lvgl\src\core\lv_obj_style_gen.h **** static inline lv_color_t lv_obj_get_style_text_color_filtered(const struct _lv_obj_t * obj, uint32_
 452:c:\projects\paindrain\arduinolcd\test\pain drain\libraries\lvgl\src\core\lv_obj_style_gen.h **** {
ARM GAS  C:\Users\haske\AppData\Local\Temp\ccVRp2Ta.s 			page 46


 453:c:\projects\paindrain\arduinolcd\test\pain drain\libraries\lvgl\src\core\lv_obj_style_gen.h ****     lv_style_value_t v = _lv_obj_style_apply_color_filter(obj, part, lv_obj_get_style_prop(obj, par
 454:c:\projects\paindrain\arduinolcd\test\pain drain\libraries\lvgl\src\core\lv_obj_style_gen.h ****     return v.color;
 455:c:\projects\paindrain\arduinolcd\test\pain drain\libraries\lvgl\src\core\lv_obj_style_gen.h **** }
 456:c:\projects\paindrain\arduinolcd\test\pain drain\libraries\lvgl\src\core\lv_obj_style_gen.h **** 
 457:c:\projects\paindrain\arduinolcd\test\pain drain\libraries\lvgl\src\core\lv_obj_style_gen.h **** static inline lv_opa_t lv_obj_get_style_text_opa(const struct _lv_obj_t * obj, uint32_t part)
 458:c:\projects\paindrain\arduinolcd\test\pain drain\libraries\lvgl\src\core\lv_obj_style_gen.h **** {
 459:c:\projects\paindrain\arduinolcd\test\pain drain\libraries\lvgl\src\core\lv_obj_style_gen.h ****     lv_style_value_t v = lv_obj_get_style_prop(obj, part, LV_STYLE_TEXT_OPA);
 460:c:\projects\paindrain\arduinolcd\test\pain drain\libraries\lvgl\src\core\lv_obj_style_gen.h ****     return (lv_opa_t)v.num;
 461:c:\projects\paindrain\arduinolcd\test\pain drain\libraries\lvgl\src\core\lv_obj_style_gen.h **** }
 462:c:\projects\paindrain\arduinolcd\test\pain drain\libraries\lvgl\src\core\lv_obj_style_gen.h **** 
 463:c:\projects\paindrain\arduinolcd\test\pain drain\libraries\lvgl\src\core\lv_obj_style_gen.h **** static inline const lv_font_t * lv_obj_get_style_text_font(const struct _lv_obj_t * obj, uint32_t p
 464:c:\projects\paindrain\arduinolcd\test\pain drain\libraries\lvgl\src\core\lv_obj_style_gen.h **** {
 465:c:\projects\paindrain\arduinolcd\test\pain drain\libraries\lvgl\src\core\lv_obj_style_gen.h ****     lv_style_value_t v = lv_obj_get_style_prop(obj, part, LV_STYLE_TEXT_FONT);
 466:c:\projects\paindrain\arduinolcd\test\pain drain\libraries\lvgl\src\core\lv_obj_style_gen.h ****     return (const lv_font_t *)v.ptr;
 467:c:\projects\paindrain\arduinolcd\test\pain drain\libraries\lvgl\src\core\lv_obj_style_gen.h **** }
 468:c:\projects\paindrain\arduinolcd\test\pain drain\libraries\lvgl\src\core\lv_obj_style_gen.h **** 
 469:c:\projects\paindrain\arduinolcd\test\pain drain\libraries\lvgl\src\core\lv_obj_style_gen.h **** static inline lv_coord_t lv_obj_get_style_text_letter_space(const struct _lv_obj_t * obj, uint32_t 
 470:c:\projects\paindrain\arduinolcd\test\pain drain\libraries\lvgl\src\core\lv_obj_style_gen.h **** {
 471:c:\projects\paindrain\arduinolcd\test\pain drain\libraries\lvgl\src\core\lv_obj_style_gen.h ****     lv_style_value_t v = lv_obj_get_style_prop(obj, part, LV_STYLE_TEXT_LETTER_SPACE);
 472:c:\projects\paindrain\arduinolcd\test\pain drain\libraries\lvgl\src\core\lv_obj_style_gen.h ****     return (lv_coord_t)v.num;
 473:c:\projects\paindrain\arduinolcd\test\pain drain\libraries\lvgl\src\core\lv_obj_style_gen.h **** }
 474:c:\projects\paindrain\arduinolcd\test\pain drain\libraries\lvgl\src\core\lv_obj_style_gen.h **** 
 475:c:\projects\paindrain\arduinolcd\test\pain drain\libraries\lvgl\src\core\lv_obj_style_gen.h **** static inline lv_coord_t lv_obj_get_style_text_line_space(const struct _lv_obj_t * obj, uint32_t pa
 476:c:\projects\paindrain\arduinolcd\test\pain drain\libraries\lvgl\src\core\lv_obj_style_gen.h **** {
 477:c:\projects\paindrain\arduinolcd\test\pain drain\libraries\lvgl\src\core\lv_obj_style_gen.h ****     lv_style_value_t v = lv_obj_get_style_prop(obj, part, LV_STYLE_TEXT_LINE_SPACE);
 478:c:\projects\paindrain\arduinolcd\test\pain drain\libraries\lvgl\src\core\lv_obj_style_gen.h ****     return (lv_coord_t)v.num;
 479:c:\projects\paindrain\arduinolcd\test\pain drain\libraries\lvgl\src\core\lv_obj_style_gen.h **** }
 480:c:\projects\paindrain\arduinolcd\test\pain drain\libraries\lvgl\src\core\lv_obj_style_gen.h **** 
 481:c:\projects\paindrain\arduinolcd\test\pain drain\libraries\lvgl\src\core\lv_obj_style_gen.h **** static inline lv_text_decor_t lv_obj_get_style_text_decor(const struct _lv_obj_t * obj, uint32_t pa
 482:c:\projects\paindrain\arduinolcd\test\pain drain\libraries\lvgl\src\core\lv_obj_style_gen.h **** {
 483:c:\projects\paindrain\arduinolcd\test\pain drain\libraries\lvgl\src\core\lv_obj_style_gen.h ****     lv_style_value_t v = lv_obj_get_style_prop(obj, part, LV_STYLE_TEXT_DECOR);
 484:c:\projects\paindrain\arduinolcd\test\pain drain\libraries\lvgl\src\core\lv_obj_style_gen.h ****     return (lv_text_decor_t)v.num;
 485:c:\projects\paindrain\arduinolcd\test\pain drain\libraries\lvgl\src\core\lv_obj_style_gen.h **** }
 486:c:\projects\paindrain\arduinolcd\test\pain drain\libraries\lvgl\src\core\lv_obj_style_gen.h **** 
 487:c:\projects\paindrain\arduinolcd\test\pain drain\libraries\lvgl\src\core\lv_obj_style_gen.h **** static inline lv_text_align_t lv_obj_get_style_text_align(const struct _lv_obj_t * obj, uint32_t pa
 488:c:\projects\paindrain\arduinolcd\test\pain drain\libraries\lvgl\src\core\lv_obj_style_gen.h **** {
 489:c:\projects\paindrain\arduinolcd\test\pain drain\libraries\lvgl\src\core\lv_obj_style_gen.h ****     lv_style_value_t v = lv_obj_get_style_prop(obj, part, LV_STYLE_TEXT_ALIGN);
 490:c:\projects\paindrain\arduinolcd\test\pain drain\libraries\lvgl\src\core\lv_obj_style_gen.h ****     return (lv_text_align_t)v.num;
 491:c:\projects\paindrain\arduinolcd\test\pain drain\libraries\lvgl\src\core\lv_obj_style_gen.h **** }
 492:c:\projects\paindrain\arduinolcd\test\pain drain\libraries\lvgl\src\core\lv_obj_style_gen.h **** 
 493:c:\projects\paindrain\arduinolcd\test\pain drain\libraries\lvgl\src\core\lv_obj_style_gen.h **** static inline lv_coord_t lv_obj_get_style_radius(const struct _lv_obj_t * obj, uint32_t part)
 494:c:\projects\paindrain\arduinolcd\test\pain drain\libraries\lvgl\src\core\lv_obj_style_gen.h **** {
 495:c:\projects\paindrain\arduinolcd\test\pain drain\libraries\lvgl\src\core\lv_obj_style_gen.h ****     lv_style_value_t v = lv_obj_get_style_prop(obj, part, LV_STYLE_RADIUS);
 496:c:\projects\paindrain\arduinolcd\test\pain drain\libraries\lvgl\src\core\lv_obj_style_gen.h ****     return (lv_coord_t)v.num;
 497:c:\projects\paindrain\arduinolcd\test\pain drain\libraries\lvgl\src\core\lv_obj_style_gen.h **** }
 498:c:\projects\paindrain\arduinolcd\test\pain drain\libraries\lvgl\src\core\lv_obj_style_gen.h **** 
 499:c:\projects\paindrain\arduinolcd\test\pain drain\libraries\lvgl\src\core\lv_obj_style_gen.h **** static inline bool lv_obj_get_style_clip_corner(const struct _lv_obj_t * obj, uint32_t part)
 500:c:\projects\paindrain\arduinolcd\test\pain drain\libraries\lvgl\src\core\lv_obj_style_gen.h **** {
 501:c:\projects\paindrain\arduinolcd\test\pain drain\libraries\lvgl\src\core\lv_obj_style_gen.h ****     lv_style_value_t v = lv_obj_get_style_prop(obj, part, LV_STYLE_CLIP_CORNER);
 502:c:\projects\paindrain\arduinolcd\test\pain drain\libraries\lvgl\src\core\lv_obj_style_gen.h ****     return (bool)v.num;
 503:c:\projects\paindrain\arduinolcd\test\pain drain\libraries\lvgl\src\core\lv_obj_style_gen.h **** }
 504:c:\projects\paindrain\arduinolcd\test\pain drain\libraries\lvgl\src\core\lv_obj_style_gen.h **** 
 505:c:\projects\paindrain\arduinolcd\test\pain drain\libraries\lvgl\src\core\lv_obj_style_gen.h **** static inline lv_opa_t lv_obj_get_style_opa(const struct _lv_obj_t * obj, uint32_t part)
 506:c:\projects\paindrain\arduinolcd\test\pain drain\libraries\lvgl\src\core\lv_obj_style_gen.h **** {
 507:c:\projects\paindrain\arduinolcd\test\pain drain\libraries\lvgl\src\core\lv_obj_style_gen.h ****     lv_style_value_t v = lv_obj_get_style_prop(obj, part, LV_STYLE_OPA);
 508:c:\projects\paindrain\arduinolcd\test\pain drain\libraries\lvgl\src\core\lv_obj_style_gen.h ****     return (lv_opa_t)v.num;
 509:c:\projects\paindrain\arduinolcd\test\pain drain\libraries\lvgl\src\core\lv_obj_style_gen.h **** }
ARM GAS  C:\Users\haske\AppData\Local\Temp\ccVRp2Ta.s 			page 47


 510:c:\projects\paindrain\arduinolcd\test\pain drain\libraries\lvgl\src\core\lv_obj_style_gen.h **** 
 511:c:\projects\paindrain\arduinolcd\test\pain drain\libraries\lvgl\src\core\lv_obj_style_gen.h **** static inline const lv_color_filter_dsc_t * lv_obj_get_style_color_filter_dsc(const struct _lv_obj_
 512:c:\projects\paindrain\arduinolcd\test\pain drain\libraries\lvgl\src\core\lv_obj_style_gen.h **** {
 513:c:\projects\paindrain\arduinolcd\test\pain drain\libraries\lvgl\src\core\lv_obj_style_gen.h ****     lv_style_value_t v = lv_obj_get_style_prop(obj, part, LV_STYLE_COLOR_FILTER_DSC);
 514:c:\projects\paindrain\arduinolcd\test\pain drain\libraries\lvgl\src\core\lv_obj_style_gen.h ****     return (const lv_color_filter_dsc_t *)v.ptr;
 515:c:\projects\paindrain\arduinolcd\test\pain drain\libraries\lvgl\src\core\lv_obj_style_gen.h **** }
 516:c:\projects\paindrain\arduinolcd\test\pain drain\libraries\lvgl\src\core\lv_obj_style_gen.h **** 
 517:c:\projects\paindrain\arduinolcd\test\pain drain\libraries\lvgl\src\core\lv_obj_style_gen.h **** static inline lv_opa_t lv_obj_get_style_color_filter_opa(const struct _lv_obj_t * obj, uint32_t par
 518:c:\projects\paindrain\arduinolcd\test\pain drain\libraries\lvgl\src\core\lv_obj_style_gen.h **** {
 519:c:\projects\paindrain\arduinolcd\test\pain drain\libraries\lvgl\src\core\lv_obj_style_gen.h ****     lv_style_value_t v = lv_obj_get_style_prop(obj, part, LV_STYLE_COLOR_FILTER_OPA);
 520:c:\projects\paindrain\arduinolcd\test\pain drain\libraries\lvgl\src\core\lv_obj_style_gen.h ****     return (lv_opa_t)v.num;
 521:c:\projects\paindrain\arduinolcd\test\pain drain\libraries\lvgl\src\core\lv_obj_style_gen.h **** }
 522:c:\projects\paindrain\arduinolcd\test\pain drain\libraries\lvgl\src\core\lv_obj_style_gen.h **** 
 523:c:\projects\paindrain\arduinolcd\test\pain drain\libraries\lvgl\src\core\lv_obj_style_gen.h **** static inline const lv_anim_t * lv_obj_get_style_anim(const struct _lv_obj_t * obj, uint32_t part)
 524:c:\projects\paindrain\arduinolcd\test\pain drain\libraries\lvgl\src\core\lv_obj_style_gen.h **** {
 525:c:\projects\paindrain\arduinolcd\test\pain drain\libraries\lvgl\src\core\lv_obj_style_gen.h ****     lv_style_value_t v = lv_obj_get_style_prop(obj, part, LV_STYLE_ANIM);
 526:c:\projects\paindrain\arduinolcd\test\pain drain\libraries\lvgl\src\core\lv_obj_style_gen.h ****     return (const lv_anim_t *)v.ptr;
 527:c:\projects\paindrain\arduinolcd\test\pain drain\libraries\lvgl\src\core\lv_obj_style_gen.h **** }
 528:c:\projects\paindrain\arduinolcd\test\pain drain\libraries\lvgl\src\core\lv_obj_style_gen.h **** 
 529:c:\projects\paindrain\arduinolcd\test\pain drain\libraries\lvgl\src\core\lv_obj_style_gen.h **** static inline uint32_t lv_obj_get_style_anim_time(const struct _lv_obj_t * obj, uint32_t part)
 530:c:\projects\paindrain\arduinolcd\test\pain drain\libraries\lvgl\src\core\lv_obj_style_gen.h **** {
 531:c:\projects\paindrain\arduinolcd\test\pain drain\libraries\lvgl\src\core\lv_obj_style_gen.h ****     lv_style_value_t v = lv_obj_get_style_prop(obj, part, LV_STYLE_ANIM_TIME);
 532:c:\projects\paindrain\arduinolcd\test\pain drain\libraries\lvgl\src\core\lv_obj_style_gen.h ****     return (uint32_t)v.num;
 533:c:\projects\paindrain\arduinolcd\test\pain drain\libraries\lvgl\src\core\lv_obj_style_gen.h **** }
 534:c:\projects\paindrain\arduinolcd\test\pain drain\libraries\lvgl\src\core\lv_obj_style_gen.h **** 
 535:c:\projects\paindrain\arduinolcd\test\pain drain\libraries\lvgl\src\core\lv_obj_style_gen.h **** static inline uint32_t lv_obj_get_style_anim_speed(const struct _lv_obj_t * obj, uint32_t part)
 536:c:\projects\paindrain\arduinolcd\test\pain drain\libraries\lvgl\src\core\lv_obj_style_gen.h **** {
 537:c:\projects\paindrain\arduinolcd\test\pain drain\libraries\lvgl\src\core\lv_obj_style_gen.h ****     lv_style_value_t v = lv_obj_get_style_prop(obj, part, LV_STYLE_ANIM_SPEED);
 538:c:\projects\paindrain\arduinolcd\test\pain drain\libraries\lvgl\src\core\lv_obj_style_gen.h ****     return (uint32_t)v.num;
 539:c:\projects\paindrain\arduinolcd\test\pain drain\libraries\lvgl\src\core\lv_obj_style_gen.h **** }
 540:c:\projects\paindrain\arduinolcd\test\pain drain\libraries\lvgl\src\core\lv_obj_style_gen.h **** 
 541:c:\projects\paindrain\arduinolcd\test\pain drain\libraries\lvgl\src\core\lv_obj_style_gen.h **** static inline const lv_style_transition_dsc_t * lv_obj_get_style_transition(const struct _lv_obj_t 
 542:c:\projects\paindrain\arduinolcd\test\pain drain\libraries\lvgl\src\core\lv_obj_style_gen.h **** {
 543:c:\projects\paindrain\arduinolcd\test\pain drain\libraries\lvgl\src\core\lv_obj_style_gen.h ****     lv_style_value_t v = lv_obj_get_style_prop(obj, part, LV_STYLE_TRANSITION);
 544:c:\projects\paindrain\arduinolcd\test\pain drain\libraries\lvgl\src\core\lv_obj_style_gen.h ****     return (const lv_style_transition_dsc_t *)v.ptr;
 545:c:\projects\paindrain\arduinolcd\test\pain drain\libraries\lvgl\src\core\lv_obj_style_gen.h **** }
 546:c:\projects\paindrain\arduinolcd\test\pain drain\libraries\lvgl\src\core\lv_obj_style_gen.h **** 
 547:c:\projects\paindrain\arduinolcd\test\pain drain\libraries\lvgl\src\core\lv_obj_style_gen.h **** static inline lv_blend_mode_t lv_obj_get_style_blend_mode(const struct _lv_obj_t * obj, uint32_t pa
 548:c:\projects\paindrain\arduinolcd\test\pain drain\libraries\lvgl\src\core\lv_obj_style_gen.h **** {
 549:c:\projects\paindrain\arduinolcd\test\pain drain\libraries\lvgl\src\core\lv_obj_style_gen.h ****     lv_style_value_t v = lv_obj_get_style_prop(obj, part, LV_STYLE_BLEND_MODE);
 550:c:\projects\paindrain\arduinolcd\test\pain drain\libraries\lvgl\src\core\lv_obj_style_gen.h ****     return (lv_blend_mode_t)v.num;
 551:c:\projects\paindrain\arduinolcd\test\pain drain\libraries\lvgl\src\core\lv_obj_style_gen.h **** }
 552:c:\projects\paindrain\arduinolcd\test\pain drain\libraries\lvgl\src\core\lv_obj_style_gen.h **** 
 553:c:\projects\paindrain\arduinolcd\test\pain drain\libraries\lvgl\src\core\lv_obj_style_gen.h **** static inline uint16_t lv_obj_get_style_layout(const struct _lv_obj_t * obj, uint32_t part)
 554:c:\projects\paindrain\arduinolcd\test\pain drain\libraries\lvgl\src\core\lv_obj_style_gen.h **** {
 555:c:\projects\paindrain\arduinolcd\test\pain drain\libraries\lvgl\src\core\lv_obj_style_gen.h ****     lv_style_value_t v = lv_obj_get_style_prop(obj, part, LV_STYLE_LAYOUT);
 556:c:\projects\paindrain\arduinolcd\test\pain drain\libraries\lvgl\src\core\lv_obj_style_gen.h ****     return (uint16_t)v.num;
 557:c:\projects\paindrain\arduinolcd\test\pain drain\libraries\lvgl\src\core\lv_obj_style_gen.h **** }
 558:c:\projects\paindrain\arduinolcd\test\pain drain\libraries\lvgl\src\core\lv_obj_style_gen.h **** 
 559:c:\projects\paindrain\arduinolcd\test\pain drain\libraries\lvgl\src\core\lv_obj_style_gen.h **** static inline lv_base_dir_t lv_obj_get_style_base_dir(const struct _lv_obj_t * obj, uint32_t part)
 560:c:\projects\paindrain\arduinolcd\test\pain drain\libraries\lvgl\src\core\lv_obj_style_gen.h **** {
 561:c:\projects\paindrain\arduinolcd\test\pain drain\libraries\lvgl\src\core\lv_obj_style_gen.h ****     lv_style_value_t v = lv_obj_get_style_prop(obj, part, LV_STYLE_BASE_DIR);
 1134              		.loc 3 561 0
 1135 0142 1622     		movs	r2, #22
 1136 0144 0021     		movs	r1, #0
 1137 0146 0298     		ldr	r0, [sp, #8]
 1138 0148 FFF7FEFF 		bl	lv_obj_get_style_prop
ARM GAS  C:\Users\haske\AppData\Local\Temp\ccVRp2Ta.s 			page 48


 1139              	.LVL132:
 562:c:\projects\paindrain\arduinolcd\test\pain drain\libraries\lvgl\src\core\lv_obj_style_gen.h ****     return (lv_base_dir_t)v.num;
 1140              		.loc 3 562 0
 1141 014c C3B2     		uxtb	r3, r0
 1142 014e 9A46     		mov	r10, r3
 1143              	.LVL133:
 1144              	.LBE84:
 1145              	.LBE83:
 450:..\..\..\arduinoLCD\test\Pain Drain\libraries\lvgl\src\extra\layouts\flex/lv_flex.c **** 
 1146              		.loc 2 450 0
 1147 0150 1E21     		movs	r1, #30
 1148 0152 0AAB     		add	r3, sp, #40
 1149 0154 9C46     		mov	ip, r3
 1150 0156 6144     		add	r1, r1, ip
 1151 0158 0023     		movs	r3, #0
 1152 015a 0B80     		strh	r3, [r1]
 452:..\..\..\arduinoLCD\test\Pain Drain\libraries\lvgl\src\extra\layouts\flex/lv_flex.c ****     place_content(f->main_place, max_main_size, t->track_main_size, t->item_cnt, &main_pos, &place_
 1153              		.loc 2 452 0
 1154 015c 11AC     		add	r4, sp, #68
 1155 015e 2380     		strh	r3, [r4]
 453:..\..\..\arduinoLCD\test\Pain Drain\libraries\lvgl\src\extra\layouts\flex/lv_flex.c ****     if(f->row && rtl) main_pos += lv_obj_get_content_width(cont);
 1156              		.loc 2 453 0
 1157 0160 0822     		movs	r2, #8
 1158 0162 AB5E     		ldrsh	r3, [r5, r2]
 1159 0164 0220     		movs	r0, #2
 1160 0166 2A5E     		ldrsh	r2, [r5, r0]
 1161 0168 5846     		mov	r0, fp
 1162 016a 0078     		ldrb	r0, [r0]
 1163 016c 0194     		str	r4, [sp, #4]
 1164 016e 0091     		str	r1, [sp]
 1165 0170 4146     		mov	r1, r8
 1166 0172 FFF7FEFF 		bl	place_content
 1167              	.LVL134:
 454:..\..\..\arduinoLCD\test\Pain Drain\libraries\lvgl\src\extra\layouts\flex/lv_flex.c **** 
 1168              		.loc 2 454 0
 1169 0176 5B46     		mov	r3, fp
 1170 0178 DB78     		ldrb	r3, [r3, #3]
 1171 017a DB07     		lsls	r3, r3, #31
 1172 017c 0CD5     		bpl	.L74
 454:..\..\..\arduinoLCD\test\Pain Drain\libraries\lvgl\src\extra\layouts\flex/lv_flex.c **** 
 1173              		.loc 2 454 0 is_stmt 0 discriminator 1
 1174 017e 5346     		mov	r3, r10
 1175 0180 012B     		cmp	r3, #1
 1176 0182 09D1     		bne	.L74
 454:..\..\..\arduinoLCD\test\Pain Drain\libraries\lvgl\src\extra\layouts\flex/lv_flex.c **** 
 1177              		.loc 2 454 0 discriminator 2
 1178 0184 0298     		ldr	r0, [sp, #8]
 1179 0186 FFF7FEFF 		bl	lv_obj_get_content_width
 1180              	.LVL135:
 1181 018a 1E23     		movs	r3, #30
 1182 018c 0AAA     		add	r2, sp, #40
 1183 018e 9446     		mov	ip, r2
 1184 0190 6344     		add	r3, r3, ip
 1185 0192 1A88     		ldrh	r2, [r3]
 1186 0194 1018     		adds	r0, r2, r0
 1187 0196 1880     		strh	r0, [r3]
 1188              	.L74:
ARM GAS  C:\Users\haske\AppData\Local\Temp\ccVRp2Ta.s 			page 49


 456:..\..\..\arduinoLCD\test\Pain Drain\libraries\lvgl\src\extra\layouts\flex/lv_flex.c ****     /*Reposition the children*/
 1189              		.loc 2 456 0 is_stmt 1
