ARM GAS  C:\Users\haske\AppData\Local\Temp\ccVRp2Ta.s 			page 1


   1              		.syntax unified
   2              		.cpu cortex-m0plus
   3              		.fpu softvfp
   4              		.eabi_attribute 20, 1
   5              		.eabi_attribute 21, 1
   6              		.eabi_attribute 23, 3
   7              		.eabi_attribute 24, 1
   8              		.eabi_attribute 25, 1
   9              		.eabi_attribute 26, 1
  10              		.eabi_attribute 30, 1
  11              		.eabi_attribute 34, 0
  12              		.eabi_attribute 18, 4
  13              		.thumb
  14              		.syntax unified
  15              		.file	"lv_flex.c"
  16              		.text
  17              	.Ltext0:
  18              		.cfi_sections	.debug_frame
  19              		.section	.text.lv_area_get_width,"ax",%progbits
  20              		.align	2
  21              		.code	16
  22              		.thumb_func
  23              		.type	lv_area_get_width, %function
  24              	lv_area_get_width:
  25              	.LFB1:
  26              		.file 1 "c:\\projects\\paindrain\\arduinolcd\\test\\pain drain\\libraries\\lvgl\\src\\misc\\lv_are
   1:c:\projects\paindrain\arduinolcd\test\pain drain\libraries\lvgl\src\misc\lv_area.h **** /**
   2:c:\projects\paindrain\arduinolcd\test\pain drain\libraries\lvgl\src\misc\lv_area.h ****  * @file lv_area.h
   3:c:\projects\paindrain\arduinolcd\test\pain drain\libraries\lvgl\src\misc\lv_area.h ****  *
   4:c:\projects\paindrain\arduinolcd\test\pain drain\libraries\lvgl\src\misc\lv_area.h ****  */
   5:c:\projects\paindrain\arduinolcd\test\pain drain\libraries\lvgl\src\misc\lv_area.h **** 
   6:c:\projects\paindrain\arduinolcd\test\pain drain\libraries\lvgl\src\misc\lv_area.h **** #ifndef LV_AREA_H
   7:c:\projects\paindrain\arduinolcd\test\pain drain\libraries\lvgl\src\misc\lv_area.h **** #define LV_AREA_H
   8:c:\projects\paindrain\arduinolcd\test\pain drain\libraries\lvgl\src\misc\lv_area.h **** 
   9:c:\projects\paindrain\arduinolcd\test\pain drain\libraries\lvgl\src\misc\lv_area.h **** #ifdef __cplusplus
  10:c:\projects\paindrain\arduinolcd\test\pain drain\libraries\lvgl\src\misc\lv_area.h **** extern "C" {
  11:c:\projects\paindrain\arduinolcd\test\pain drain\libraries\lvgl\src\misc\lv_area.h **** #endif
  12:c:\projects\paindrain\arduinolcd\test\pain drain\libraries\lvgl\src\misc\lv_area.h **** 
  13:c:\projects\paindrain\arduinolcd\test\pain drain\libraries\lvgl\src\misc\lv_area.h **** /*********************
  14:c:\projects\paindrain\arduinolcd\test\pain drain\libraries\lvgl\src\misc\lv_area.h ****  *      INCLUDES
  15:c:\projects\paindrain\arduinolcd\test\pain drain\libraries\lvgl\src\misc\lv_area.h ****  *********************/
  16:c:\projects\paindrain\arduinolcd\test\pain drain\libraries\lvgl\src\misc\lv_area.h **** #include "../lv_conf_internal.h"
  17:c:\projects\paindrain\arduinolcd\test\pain drain\libraries\lvgl\src\misc\lv_area.h **** #include <stdbool.h>
  18:c:\projects\paindrain\arduinolcd\test\pain drain\libraries\lvgl\src\misc\lv_area.h **** #include <stdint.h>
  19:c:\projects\paindrain\arduinolcd\test\pain drain\libraries\lvgl\src\misc\lv_area.h **** 
  20:c:\projects\paindrain\arduinolcd\test\pain drain\libraries\lvgl\src\misc\lv_area.h **** /*********************
  21:c:\projects\paindrain\arduinolcd\test\pain drain\libraries\lvgl\src\misc\lv_area.h ****  *      DEFINES
  22:c:\projects\paindrain\arduinolcd\test\pain drain\libraries\lvgl\src\misc\lv_area.h ****  *********************/
  23:c:\projects\paindrain\arduinolcd\test\pain drain\libraries\lvgl\src\misc\lv_area.h **** 
  24:c:\projects\paindrain\arduinolcd\test\pain drain\libraries\lvgl\src\misc\lv_area.h **** #if LV_USE_LARGE_COORD
  25:c:\projects\paindrain\arduinolcd\test\pain drain\libraries\lvgl\src\misc\lv_area.h **** typedef int32_t lv_coord_t;
  26:c:\projects\paindrain\arduinolcd\test\pain drain\libraries\lvgl\src\misc\lv_area.h **** #else
  27:c:\projects\paindrain\arduinolcd\test\pain drain\libraries\lvgl\src\misc\lv_area.h **** typedef int16_t lv_coord_t;
  28:c:\projects\paindrain\arduinolcd\test\pain drain\libraries\lvgl\src\misc\lv_area.h **** #endif
  29:c:\projects\paindrain\arduinolcd\test\pain drain\libraries\lvgl\src\misc\lv_area.h **** 
  30:c:\projects\paindrain\arduinolcd\test\pain drain\libraries\lvgl\src\misc\lv_area.h **** /**********************
  31:c:\projects\paindrain\arduinolcd\test\pain drain\libraries\lvgl\src\misc\lv_area.h ****  *      TYPEDEFS
ARM GAS  C:\Users\haske\AppData\Local\Temp\ccVRp2Ta.s 			page 2


  32:c:\projects\paindrain\arduinolcd\test\pain drain\libraries\lvgl\src\misc\lv_area.h ****  **********************/
  33:c:\projects\paindrain\arduinolcd\test\pain drain\libraries\lvgl\src\misc\lv_area.h **** 
  34:c:\projects\paindrain\arduinolcd\test\pain drain\libraries\lvgl\src\misc\lv_area.h **** /**
  35:c:\projects\paindrain\arduinolcd\test\pain drain\libraries\lvgl\src\misc\lv_area.h ****  * Represents a point on the screen.
  36:c:\projects\paindrain\arduinolcd\test\pain drain\libraries\lvgl\src\misc\lv_area.h ****  */
  37:c:\projects\paindrain\arduinolcd\test\pain drain\libraries\lvgl\src\misc\lv_area.h **** typedef struct {
  38:c:\projects\paindrain\arduinolcd\test\pain drain\libraries\lvgl\src\misc\lv_area.h ****     lv_coord_t x;
  39:c:\projects\paindrain\arduinolcd\test\pain drain\libraries\lvgl\src\misc\lv_area.h ****     lv_coord_t y;
  40:c:\projects\paindrain\arduinolcd\test\pain drain\libraries\lvgl\src\misc\lv_area.h **** } lv_point_t;
  41:c:\projects\paindrain\arduinolcd\test\pain drain\libraries\lvgl\src\misc\lv_area.h **** 
  42:c:\projects\paindrain\arduinolcd\test\pain drain\libraries\lvgl\src\misc\lv_area.h **** /** Represents an area of the screen.*/
  43:c:\projects\paindrain\arduinolcd\test\pain drain\libraries\lvgl\src\misc\lv_area.h **** typedef struct {
  44:c:\projects\paindrain\arduinolcd\test\pain drain\libraries\lvgl\src\misc\lv_area.h ****     lv_coord_t x1;
  45:c:\projects\paindrain\arduinolcd\test\pain drain\libraries\lvgl\src\misc\lv_area.h ****     lv_coord_t y1;
  46:c:\projects\paindrain\arduinolcd\test\pain drain\libraries\lvgl\src\misc\lv_area.h ****     lv_coord_t x2;
  47:c:\projects\paindrain\arduinolcd\test\pain drain\libraries\lvgl\src\misc\lv_area.h ****     lv_coord_t y2;
  48:c:\projects\paindrain\arduinolcd\test\pain drain\libraries\lvgl\src\misc\lv_area.h **** } lv_area_t;
  49:c:\projects\paindrain\arduinolcd\test\pain drain\libraries\lvgl\src\misc\lv_area.h **** 
  50:c:\projects\paindrain\arduinolcd\test\pain drain\libraries\lvgl\src\misc\lv_area.h **** /** Alignments*/
  51:c:\projects\paindrain\arduinolcd\test\pain drain\libraries\lvgl\src\misc\lv_area.h **** enum {
  52:c:\projects\paindrain\arduinolcd\test\pain drain\libraries\lvgl\src\misc\lv_area.h ****     LV_ALIGN_DEFAULT = 0,
  53:c:\projects\paindrain\arduinolcd\test\pain drain\libraries\lvgl\src\misc\lv_area.h ****     LV_ALIGN_TOP_LEFT,
  54:c:\projects\paindrain\arduinolcd\test\pain drain\libraries\lvgl\src\misc\lv_area.h ****     LV_ALIGN_TOP_MID,
  55:c:\projects\paindrain\arduinolcd\test\pain drain\libraries\lvgl\src\misc\lv_area.h ****     LV_ALIGN_TOP_RIGHT,
  56:c:\projects\paindrain\arduinolcd\test\pain drain\libraries\lvgl\src\misc\lv_area.h ****     LV_ALIGN_BOTTOM_LEFT,
  57:c:\projects\paindrain\arduinolcd\test\pain drain\libraries\lvgl\src\misc\lv_area.h ****     LV_ALIGN_BOTTOM_MID,
  58:c:\projects\paindrain\arduinolcd\test\pain drain\libraries\lvgl\src\misc\lv_area.h ****     LV_ALIGN_BOTTOM_RIGHT,
  59:c:\projects\paindrain\arduinolcd\test\pain drain\libraries\lvgl\src\misc\lv_area.h ****     LV_ALIGN_LEFT_MID,
  60:c:\projects\paindrain\arduinolcd\test\pain drain\libraries\lvgl\src\misc\lv_area.h ****     LV_ALIGN_RIGHT_MID,
  61:c:\projects\paindrain\arduinolcd\test\pain drain\libraries\lvgl\src\misc\lv_area.h ****     LV_ALIGN_CENTER,
  62:c:\projects\paindrain\arduinolcd\test\pain drain\libraries\lvgl\src\misc\lv_area.h **** 
  63:c:\projects\paindrain\arduinolcd\test\pain drain\libraries\lvgl\src\misc\lv_area.h ****     LV_ALIGN_OUT_TOP_LEFT,
  64:c:\projects\paindrain\arduinolcd\test\pain drain\libraries\lvgl\src\misc\lv_area.h ****     LV_ALIGN_OUT_TOP_MID,
  65:c:\projects\paindrain\arduinolcd\test\pain drain\libraries\lvgl\src\misc\lv_area.h ****     LV_ALIGN_OUT_TOP_RIGHT,
  66:c:\projects\paindrain\arduinolcd\test\pain drain\libraries\lvgl\src\misc\lv_area.h ****     LV_ALIGN_OUT_BOTTOM_LEFT,
  67:c:\projects\paindrain\arduinolcd\test\pain drain\libraries\lvgl\src\misc\lv_area.h ****     LV_ALIGN_OUT_BOTTOM_MID,
  68:c:\projects\paindrain\arduinolcd\test\pain drain\libraries\lvgl\src\misc\lv_area.h ****     LV_ALIGN_OUT_BOTTOM_RIGHT,
  69:c:\projects\paindrain\arduinolcd\test\pain drain\libraries\lvgl\src\misc\lv_area.h ****     LV_ALIGN_OUT_LEFT_TOP,
  70:c:\projects\paindrain\arduinolcd\test\pain drain\libraries\lvgl\src\misc\lv_area.h ****     LV_ALIGN_OUT_LEFT_MID,
  71:c:\projects\paindrain\arduinolcd\test\pain drain\libraries\lvgl\src\misc\lv_area.h ****     LV_ALIGN_OUT_LEFT_BOTTOM,
  72:c:\projects\paindrain\arduinolcd\test\pain drain\libraries\lvgl\src\misc\lv_area.h ****     LV_ALIGN_OUT_RIGHT_TOP,
  73:c:\projects\paindrain\arduinolcd\test\pain drain\libraries\lvgl\src\misc\lv_area.h ****     LV_ALIGN_OUT_RIGHT_MID,
  74:c:\projects\paindrain\arduinolcd\test\pain drain\libraries\lvgl\src\misc\lv_area.h ****     LV_ALIGN_OUT_RIGHT_BOTTOM,
  75:c:\projects\paindrain\arduinolcd\test\pain drain\libraries\lvgl\src\misc\lv_area.h **** };
  76:c:\projects\paindrain\arduinolcd\test\pain drain\libraries\lvgl\src\misc\lv_area.h **** typedef uint8_t lv_align_t;
  77:c:\projects\paindrain\arduinolcd\test\pain drain\libraries\lvgl\src\misc\lv_area.h **** 
  78:c:\projects\paindrain\arduinolcd\test\pain drain\libraries\lvgl\src\misc\lv_area.h **** enum {
  79:c:\projects\paindrain\arduinolcd\test\pain drain\libraries\lvgl\src\misc\lv_area.h ****     LV_DIR_NONE     = 0x00,
  80:c:\projects\paindrain\arduinolcd\test\pain drain\libraries\lvgl\src\misc\lv_area.h ****     LV_DIR_LEFT     = (1 << 0),
  81:c:\projects\paindrain\arduinolcd\test\pain drain\libraries\lvgl\src\misc\lv_area.h ****     LV_DIR_RIGHT    = (1 << 1),
  82:c:\projects\paindrain\arduinolcd\test\pain drain\libraries\lvgl\src\misc\lv_area.h ****     LV_DIR_TOP      = (1 << 2),
  83:c:\projects\paindrain\arduinolcd\test\pain drain\libraries\lvgl\src\misc\lv_area.h ****     LV_DIR_BOTTOM   = (1 << 3),
  84:c:\projects\paindrain\arduinolcd\test\pain drain\libraries\lvgl\src\misc\lv_area.h ****     LV_DIR_HOR      = LV_DIR_LEFT | LV_DIR_RIGHT,
  85:c:\projects\paindrain\arduinolcd\test\pain drain\libraries\lvgl\src\misc\lv_area.h ****     LV_DIR_VER      = LV_DIR_TOP | LV_DIR_BOTTOM,
  86:c:\projects\paindrain\arduinolcd\test\pain drain\libraries\lvgl\src\misc\lv_area.h ****     LV_DIR_ALL      = LV_DIR_HOR | LV_DIR_VER,
  87:c:\projects\paindrain\arduinolcd\test\pain drain\libraries\lvgl\src\misc\lv_area.h **** };
  88:c:\projects\paindrain\arduinolcd\test\pain drain\libraries\lvgl\src\misc\lv_area.h **** 
ARM GAS  C:\Users\haske\AppData\Local\Temp\ccVRp2Ta.s 			page 3


  89:c:\projects\paindrain\arduinolcd\test\pain drain\libraries\lvgl\src\misc\lv_area.h **** typedef uint8_t lv_dir_t;
  90:c:\projects\paindrain\arduinolcd\test\pain drain\libraries\lvgl\src\misc\lv_area.h **** 
  91:c:\projects\paindrain\arduinolcd\test\pain drain\libraries\lvgl\src\misc\lv_area.h **** /**********************
  92:c:\projects\paindrain\arduinolcd\test\pain drain\libraries\lvgl\src\misc\lv_area.h ****  * GLOBAL PROTOTYPES
  93:c:\projects\paindrain\arduinolcd\test\pain drain\libraries\lvgl\src\misc\lv_area.h ****  **********************/
  94:c:\projects\paindrain\arduinolcd\test\pain drain\libraries\lvgl\src\misc\lv_area.h **** 
  95:c:\projects\paindrain\arduinolcd\test\pain drain\libraries\lvgl\src\misc\lv_area.h **** /**
  96:c:\projects\paindrain\arduinolcd\test\pain drain\libraries\lvgl\src\misc\lv_area.h ****  * Initialize an area
  97:c:\projects\paindrain\arduinolcd\test\pain drain\libraries\lvgl\src\misc\lv_area.h ****  * @param area_p pointer to an area
  98:c:\projects\paindrain\arduinolcd\test\pain drain\libraries\lvgl\src\misc\lv_area.h ****  * @param x1 left coordinate of the area
  99:c:\projects\paindrain\arduinolcd\test\pain drain\libraries\lvgl\src\misc\lv_area.h ****  * @param y1 top coordinate of the area
 100:c:\projects\paindrain\arduinolcd\test\pain drain\libraries\lvgl\src\misc\lv_area.h ****  * @param x2 right coordinate of the area
 101:c:\projects\paindrain\arduinolcd\test\pain drain\libraries\lvgl\src\misc\lv_area.h ****  * @param y2 bottom coordinate of the area
 102:c:\projects\paindrain\arduinolcd\test\pain drain\libraries\lvgl\src\misc\lv_area.h ****  */
 103:c:\projects\paindrain\arduinolcd\test\pain drain\libraries\lvgl\src\misc\lv_area.h **** void lv_area_set(lv_area_t * area_p, lv_coord_t x1, lv_coord_t y1, lv_coord_t x2, lv_coord_t y2);
 104:c:\projects\paindrain\arduinolcd\test\pain drain\libraries\lvgl\src\misc\lv_area.h **** 
 105:c:\projects\paindrain\arduinolcd\test\pain drain\libraries\lvgl\src\misc\lv_area.h **** /**
 106:c:\projects\paindrain\arduinolcd\test\pain drain\libraries\lvgl\src\misc\lv_area.h ****  * Copy an area
 107:c:\projects\paindrain\arduinolcd\test\pain drain\libraries\lvgl\src\misc\lv_area.h ****  * @param dest pointer to the destination area
 108:c:\projects\paindrain\arduinolcd\test\pain drain\libraries\lvgl\src\misc\lv_area.h ****  * @param src pointer to the source area
 109:c:\projects\paindrain\arduinolcd\test\pain drain\libraries\lvgl\src\misc\lv_area.h ****  */
 110:c:\projects\paindrain\arduinolcd\test\pain drain\libraries\lvgl\src\misc\lv_area.h **** inline static void lv_area_copy(lv_area_t * dest, const lv_area_t * src)
 111:c:\projects\paindrain\arduinolcd\test\pain drain\libraries\lvgl\src\misc\lv_area.h **** {
 112:c:\projects\paindrain\arduinolcd\test\pain drain\libraries\lvgl\src\misc\lv_area.h ****     dest->x1 = src->x1;
 113:c:\projects\paindrain\arduinolcd\test\pain drain\libraries\lvgl\src\misc\lv_area.h ****     dest->y1 = src->y1;
 114:c:\projects\paindrain\arduinolcd\test\pain drain\libraries\lvgl\src\misc\lv_area.h ****     dest->x2 = src->x2;
 115:c:\projects\paindrain\arduinolcd\test\pain drain\libraries\lvgl\src\misc\lv_area.h ****     dest->y2 = src->y2;
 116:c:\projects\paindrain\arduinolcd\test\pain drain\libraries\lvgl\src\misc\lv_area.h **** }
 117:c:\projects\paindrain\arduinolcd\test\pain drain\libraries\lvgl\src\misc\lv_area.h **** 
 118:c:\projects\paindrain\arduinolcd\test\pain drain\libraries\lvgl\src\misc\lv_area.h **** /**
 119:c:\projects\paindrain\arduinolcd\test\pain drain\libraries\lvgl\src\misc\lv_area.h ****  * Get the width of an area
 120:c:\projects\paindrain\arduinolcd\test\pain drain\libraries\lvgl\src\misc\lv_area.h ****  * @param area_p pointer to an area
 121:c:\projects\paindrain\arduinolcd\test\pain drain\libraries\lvgl\src\misc\lv_area.h ****  * @return the width of the area (if x1 == x2 -> width = 1)
 122:c:\projects\paindrain\arduinolcd\test\pain drain\libraries\lvgl\src\misc\lv_area.h ****  */
 123:c:\projects\paindrain\arduinolcd\test\pain drain\libraries\lvgl\src\misc\lv_area.h **** static inline lv_coord_t lv_area_get_width(const lv_area_t * area_p)
 124:c:\projects\paindrain\arduinolcd\test\pain drain\libraries\lvgl\src\misc\lv_area.h **** {
  27              		.loc 1 124 0
  28              		.cfi_startproc
  29              		@ args = 0, pretend = 0, frame = 0
  30              		@ frame_needed = 0, uses_anonymous_args = 0
  31              		@ link register save eliminated.
  32              	.LVL0:
 125:c:\projects\paindrain\arduinolcd\test\pain drain\libraries\lvgl\src\misc\lv_area.h ****     return (lv_coord_t)(area_p->x2 - area_p->x1 + 1);
  33              		.loc 1 125 0
  34 0000 0422     		movs	r2, #4
  35 0002 835E     		ldrsh	r3, [r0, r2]
  36 0004 0022     		movs	r2, #0
  37 0006 805E     		ldrsh	r0, [r0, r2]
  38              	.LVL1:
  39 0008 181A     		subs	r0, r3, r0
  40 000a 0130     		adds	r0, r0, #1
  41 000c 00B2     		sxth	r0, r0
 126:c:\projects\paindrain\arduinolcd\test\pain drain\libraries\lvgl\src\misc\lv_area.h **** }
  42              		.loc 1 126 0
  43              		@ sp needed
  44 000e 7047     		bx	lr
  45              		.cfi_endproc
ARM GAS  C:\Users\haske\AppData\Local\Temp\ccVRp2Ta.s 			page 4


  46              	.LFE1:
  47              		.size	lv_area_get_width, .-lv_area_get_width
  48              		.section	.text.lv_area_get_height,"ax",%progbits
  49              		.align	2
  50              		.code	16
  51              		.thumb_func
  52              		.type	lv_area_get_height, %function
  53              	lv_area_get_height:
  54              	.LFB2:
 127:c:\projects\paindrain\arduinolcd\test\pain drain\libraries\lvgl\src\misc\lv_area.h **** 
 128:c:\projects\paindrain\arduinolcd\test\pain drain\libraries\lvgl\src\misc\lv_area.h **** /**
 129:c:\projects\paindrain\arduinolcd\test\pain drain\libraries\lvgl\src\misc\lv_area.h ****  * Get the height of an area
 130:c:\projects\paindrain\arduinolcd\test\pain drain\libraries\lvgl\src\misc\lv_area.h ****  * @param area_p pointer to an area
 131:c:\projects\paindrain\arduinolcd\test\pain drain\libraries\lvgl\src\misc\lv_area.h ****  * @return the height of the area (if y1 == y2 -> height = 1)
 132:c:\projects\paindrain\arduinolcd\test\pain drain\libraries\lvgl\src\misc\lv_area.h ****  */
 133:c:\projects\paindrain\arduinolcd\test\pain drain\libraries\lvgl\src\misc\lv_area.h **** static inline lv_coord_t lv_area_get_height(const lv_area_t * area_p)
 134:c:\projects\paindrain\arduinolcd\test\pain drain\libraries\lvgl\src\misc\lv_area.h **** {
  55              		.loc 1 134 0
  56              		.cfi_startproc
  57              		@ args = 0, pretend = 0, frame = 0
  58              		@ frame_needed = 0, uses_anonymous_args = 0
  59              		@ link register save eliminated.
  60              	.LVL2:
 135:c:\projects\paindrain\arduinolcd\test\pain drain\libraries\lvgl\src\misc\lv_area.h ****     return (lv_coord_t)(area_p->y2 - area_p->y1 + 1);
  61              		.loc 1 135 0
  62 0000 0622     		movs	r2, #6
  63 0002 835E     		ldrsh	r3, [r0, r2]
  64 0004 0222     		movs	r2, #2
  65 0006 805E     		ldrsh	r0, [r0, r2]
  66              	.LVL3:
  67 0008 181A     		subs	r0, r3, r0
  68 000a 0130     		adds	r0, r0, #1
  69 000c 00B2     		sxth	r0, r0
 136:c:\projects\paindrain\arduinolcd\test\pain drain\libraries\lvgl\src\misc\lv_area.h **** }
  70              		.loc 1 136 0
  71              		@ sp needed
  72 000e 7047     		bx	lr
  73              		.cfi_endproc
  74              	.LFE2:
  75              		.size	lv_area_get_height, .-lv_area_get_height
  76              		.global	__aeabi_idiv
  77              		.section	.text.place_content,"ax",%progbits
  78              		.align	2
  79              		.code	16
  80              		.thumb_func
  81              		.type	place_content, %function
  82              	place_content:
  83              	.LFB192:
  84              		.file 2 "..\\..\\..\\arduinoLCD\\test\\Pain Drain\\libraries\\lvgl\\src\\extra\\layouts\\flex\\lv_
   1:..\..\..\arduinoLCD\test\Pain Drain\libraries\lvgl\src\extra\layouts\flex/lv_flex.c **** /**
   2:..\..\..\arduinoLCD\test\Pain Drain\libraries\lvgl\src\extra\layouts\flex/lv_flex.c ****  * @file lv_flex.c
   3:..\..\..\arduinoLCD\test\Pain Drain\libraries\lvgl\src\extra\layouts\flex/lv_flex.c ****  *
   4:..\..\..\arduinoLCD\test\Pain Drain\libraries\lvgl\src\extra\layouts\flex/lv_flex.c ****  */
   5:..\..\..\arduinoLCD\test\Pain Drain\libraries\lvgl\src\extra\layouts\flex/lv_flex.c **** 
   6:..\..\..\arduinoLCD\test\Pain Drain\libraries\lvgl\src\extra\layouts\flex/lv_flex.c **** /*********************
   7:..\..\..\arduinoLCD\test\Pain Drain\libraries\lvgl\src\extra\layouts\flex/lv_flex.c ****  *      INCLUDES
   8:..\..\..\arduinoLCD\test\Pain Drain\libraries\lvgl\src\extra\layouts\flex/lv_flex.c ****  *********************/
ARM GAS  C:\Users\haske\AppData\Local\Temp\ccVRp2Ta.s 			page 5


   9:..\..\..\arduinoLCD\test\Pain Drain\libraries\lvgl\src\extra\layouts\flex/lv_flex.c **** #include "../lv_layouts.h"
  10:..\..\..\arduinoLCD\test\Pain Drain\libraries\lvgl\src\extra\layouts\flex/lv_flex.c **** 
  11:..\..\..\arduinoLCD\test\Pain Drain\libraries\lvgl\src\extra\layouts\flex/lv_flex.c **** #if LV_USE_FLEX
  12:..\..\..\arduinoLCD\test\Pain Drain\libraries\lvgl\src\extra\layouts\flex/lv_flex.c **** 
  13:..\..\..\arduinoLCD\test\Pain Drain\libraries\lvgl\src\extra\layouts\flex/lv_flex.c **** /*********************
  14:..\..\..\arduinoLCD\test\Pain Drain\libraries\lvgl\src\extra\layouts\flex/lv_flex.c ****  *      DEFINES
  15:..\..\..\arduinoLCD\test\Pain Drain\libraries\lvgl\src\extra\layouts\flex/lv_flex.c ****  *********************/
  16:..\..\..\arduinoLCD\test\Pain Drain\libraries\lvgl\src\extra\layouts\flex/lv_flex.c **** 
  17:..\..\..\arduinoLCD\test\Pain Drain\libraries\lvgl\src\extra\layouts\flex/lv_flex.c **** /**********************
  18:..\..\..\arduinoLCD\test\Pain Drain\libraries\lvgl\src\extra\layouts\flex/lv_flex.c ****  *      TYPEDEFS
  19:..\..\..\arduinoLCD\test\Pain Drain\libraries\lvgl\src\extra\layouts\flex/lv_flex.c ****  **********************/
  20:..\..\..\arduinoLCD\test\Pain Drain\libraries\lvgl\src\extra\layouts\flex/lv_flex.c **** typedef struct {
  21:..\..\..\arduinoLCD\test\Pain Drain\libraries\lvgl\src\extra\layouts\flex/lv_flex.c ****     lv_flex_align_t main_place;
  22:..\..\..\arduinoLCD\test\Pain Drain\libraries\lvgl\src\extra\layouts\flex/lv_flex.c ****     lv_flex_align_t cross_place;
  23:..\..\..\arduinoLCD\test\Pain Drain\libraries\lvgl\src\extra\layouts\flex/lv_flex.c ****     lv_flex_align_t track_place;
  24:..\..\..\arduinoLCD\test\Pain Drain\libraries\lvgl\src\extra\layouts\flex/lv_flex.c ****     uint8_t row : 1;
  25:..\..\..\arduinoLCD\test\Pain Drain\libraries\lvgl\src\extra\layouts\flex/lv_flex.c ****     uint8_t wrap : 1;
  26:..\..\..\arduinoLCD\test\Pain Drain\libraries\lvgl\src\extra\layouts\flex/lv_flex.c ****     uint8_t rev : 1;
  27:..\..\..\arduinoLCD\test\Pain Drain\libraries\lvgl\src\extra\layouts\flex/lv_flex.c **** } flex_t;
  28:..\..\..\arduinoLCD\test\Pain Drain\libraries\lvgl\src\extra\layouts\flex/lv_flex.c **** 
  29:..\..\..\arduinoLCD\test\Pain Drain\libraries\lvgl\src\extra\layouts\flex/lv_flex.c **** typedef struct {
  30:..\..\..\arduinoLCD\test\Pain Drain\libraries\lvgl\src\extra\layouts\flex/lv_flex.c ****     lv_obj_t * item;
  31:..\..\..\arduinoLCD\test\Pain Drain\libraries\lvgl\src\extra\layouts\flex/lv_flex.c ****     lv_coord_t min_size;
  32:..\..\..\arduinoLCD\test\Pain Drain\libraries\lvgl\src\extra\layouts\flex/lv_flex.c ****     lv_coord_t max_size;
  33:..\..\..\arduinoLCD\test\Pain Drain\libraries\lvgl\src\extra\layouts\flex/lv_flex.c ****     lv_coord_t final_size;
  34:..\..\..\arduinoLCD\test\Pain Drain\libraries\lvgl\src\extra\layouts\flex/lv_flex.c ****     uint32_t grow_value;
  35:..\..\..\arduinoLCD\test\Pain Drain\libraries\lvgl\src\extra\layouts\flex/lv_flex.c ****     uint32_t clamped : 1;
  36:..\..\..\arduinoLCD\test\Pain Drain\libraries\lvgl\src\extra\layouts\flex/lv_flex.c **** } grow_dsc_t;
  37:..\..\..\arduinoLCD\test\Pain Drain\libraries\lvgl\src\extra\layouts\flex/lv_flex.c **** 
  38:..\..\..\arduinoLCD\test\Pain Drain\libraries\lvgl\src\extra\layouts\flex/lv_flex.c **** typedef struct {
  39:..\..\..\arduinoLCD\test\Pain Drain\libraries\lvgl\src\extra\layouts\flex/lv_flex.c ****     lv_coord_t track_cross_size;
  40:..\..\..\arduinoLCD\test\Pain Drain\libraries\lvgl\src\extra\layouts\flex/lv_flex.c ****     lv_coord_t track_main_size;         /*For all items*/
  41:..\..\..\arduinoLCD\test\Pain Drain\libraries\lvgl\src\extra\layouts\flex/lv_flex.c ****     lv_coord_t track_fix_main_size;     /*For non grow items*/
  42:..\..\..\arduinoLCD\test\Pain Drain\libraries\lvgl\src\extra\layouts\flex/lv_flex.c ****     uint32_t item_cnt;
  43:..\..\..\arduinoLCD\test\Pain Drain\libraries\lvgl\src\extra\layouts\flex/lv_flex.c ****     grow_dsc_t * grow_dsc;
  44:..\..\..\arduinoLCD\test\Pain Drain\libraries\lvgl\src\extra\layouts\flex/lv_flex.c ****     uint32_t grow_item_cnt;
  45:..\..\..\arduinoLCD\test\Pain Drain\libraries\lvgl\src\extra\layouts\flex/lv_flex.c ****     uint32_t grow_dsc_calc : 1;
  46:..\..\..\arduinoLCD\test\Pain Drain\libraries\lvgl\src\extra\layouts\flex/lv_flex.c **** } track_t;
  47:..\..\..\arduinoLCD\test\Pain Drain\libraries\lvgl\src\extra\layouts\flex/lv_flex.c **** 
  48:..\..\..\arduinoLCD\test\Pain Drain\libraries\lvgl\src\extra\layouts\flex/lv_flex.c **** 
  49:..\..\..\arduinoLCD\test\Pain Drain\libraries\lvgl\src\extra\layouts\flex/lv_flex.c **** /**********************
  50:..\..\..\arduinoLCD\test\Pain Drain\libraries\lvgl\src\extra\layouts\flex/lv_flex.c ****  *  GLOBAL PROTOTYPES
  51:..\..\..\arduinoLCD\test\Pain Drain\libraries\lvgl\src\extra\layouts\flex/lv_flex.c ****  **********************/
  52:..\..\..\arduinoLCD\test\Pain Drain\libraries\lvgl\src\extra\layouts\flex/lv_flex.c **** 
  53:..\..\..\arduinoLCD\test\Pain Drain\libraries\lvgl\src\extra\layouts\flex/lv_flex.c **** /**********************
  54:..\..\..\arduinoLCD\test\Pain Drain\libraries\lvgl\src\extra\layouts\flex/lv_flex.c ****  *  STATIC PROTOTYPES
  55:..\..\..\arduinoLCD\test\Pain Drain\libraries\lvgl\src\extra\layouts\flex/lv_flex.c ****  **********************/
  56:..\..\..\arduinoLCD\test\Pain Drain\libraries\lvgl\src\extra\layouts\flex/lv_flex.c **** static void flex_update(lv_obj_t * cont, void * user_data);
  57:..\..\..\arduinoLCD\test\Pain Drain\libraries\lvgl\src\extra\layouts\flex/lv_flex.c **** static int32_t find_track_end(lv_obj_t * cont, flex_t * f, int32_t item_start_id, lv_coord_t max_ma
  58:..\..\..\arduinoLCD\test\Pain Drain\libraries\lvgl\src\extra\layouts\flex/lv_flex.c ****                               lv_coord_t item_gap, track_t * t);
  59:..\..\..\arduinoLCD\test\Pain Drain\libraries\lvgl\src\extra\layouts\flex/lv_flex.c **** static void children_repos(lv_obj_t * cont, flex_t * f, int32_t item_first_id, int32_t item_last_id
  60:..\..\..\arduinoLCD\test\Pain Drain\libraries\lvgl\src\extra\layouts\flex/lv_flex.c ****                            lv_coord_t abs_y, lv_coord_t max_main_size, lv_coord_t item_gap, track_t
  61:..\..\..\arduinoLCD\test\Pain Drain\libraries\lvgl\src\extra\layouts\flex/lv_flex.c **** static void place_content(lv_flex_align_t place, lv_coord_t max_size, lv_coord_t content_size, lv_c
  62:..\..\..\arduinoLCD\test\Pain Drain\libraries\lvgl\src\extra\layouts\flex/lv_flex.c ****                           lv_coord_t * start_pos, lv_coord_t * gap);
  63:..\..\..\arduinoLCD\test\Pain Drain\libraries\lvgl\src\extra\layouts\flex/lv_flex.c **** static lv_obj_t * get_next_item(lv_obj_t * cont, bool rev, int32_t * item_id);
  64:..\..\..\arduinoLCD\test\Pain Drain\libraries\lvgl\src\extra\layouts\flex/lv_flex.c **** 
  65:..\..\..\arduinoLCD\test\Pain Drain\libraries\lvgl\src\extra\layouts\flex/lv_flex.c **** /**********************
ARM GAS  C:\Users\haske\AppData\Local\Temp\ccVRp2Ta.s 			page 6


  66:..\..\..\arduinoLCD\test\Pain Drain\libraries\lvgl\src\extra\layouts\flex/lv_flex.c ****  *  GLOBAL VARIABLES
  67:..\..\..\arduinoLCD\test\Pain Drain\libraries\lvgl\src\extra\layouts\flex/lv_flex.c ****  **********************/
  68:..\..\..\arduinoLCD\test\Pain Drain\libraries\lvgl\src\extra\layouts\flex/lv_flex.c **** uint16_t LV_LAYOUT_FLEX;
  69:..\..\..\arduinoLCD\test\Pain Drain\libraries\lvgl\src\extra\layouts\flex/lv_flex.c **** lv_style_prop_t LV_STYLE_FLEX_FLOW;
  70:..\..\..\arduinoLCD\test\Pain Drain\libraries\lvgl\src\extra\layouts\flex/lv_flex.c **** lv_style_prop_t LV_STYLE_FLEX_MAIN_PLACE;
  71:..\..\..\arduinoLCD\test\Pain Drain\libraries\lvgl\src\extra\layouts\flex/lv_flex.c **** lv_style_prop_t LV_STYLE_FLEX_CROSS_PLACE;
  72:..\..\..\arduinoLCD\test\Pain Drain\libraries\lvgl\src\extra\layouts\flex/lv_flex.c **** lv_style_prop_t LV_STYLE_FLEX_TRACK_PLACE;
  73:..\..\..\arduinoLCD\test\Pain Drain\libraries\lvgl\src\extra\layouts\flex/lv_flex.c **** lv_style_prop_t LV_STYLE_FLEX_GROW;
  74:..\..\..\arduinoLCD\test\Pain Drain\libraries\lvgl\src\extra\layouts\flex/lv_flex.c **** 
  75:..\..\..\arduinoLCD\test\Pain Drain\libraries\lvgl\src\extra\layouts\flex/lv_flex.c **** 
  76:..\..\..\arduinoLCD\test\Pain Drain\libraries\lvgl\src\extra\layouts\flex/lv_flex.c **** /**********************
  77:..\..\..\arduinoLCD\test\Pain Drain\libraries\lvgl\src\extra\layouts\flex/lv_flex.c ****  *  STATIC VARIABLES
  78:..\..\..\arduinoLCD\test\Pain Drain\libraries\lvgl\src\extra\layouts\flex/lv_flex.c ****  **********************/
  79:..\..\..\arduinoLCD\test\Pain Drain\libraries\lvgl\src\extra\layouts\flex/lv_flex.c **** 
  80:..\..\..\arduinoLCD\test\Pain Drain\libraries\lvgl\src\extra\layouts\flex/lv_flex.c **** /**********************
  81:..\..\..\arduinoLCD\test\Pain Drain\libraries\lvgl\src\extra\layouts\flex/lv_flex.c ****  *      MACROS
  82:..\..\..\arduinoLCD\test\Pain Drain\libraries\lvgl\src\extra\layouts\flex/lv_flex.c ****  **********************/
  83:..\..\..\arduinoLCD\test\Pain Drain\libraries\lvgl\src\extra\layouts\flex/lv_flex.c **** 
  84:..\..\..\arduinoLCD\test\Pain Drain\libraries\lvgl\src\extra\layouts\flex/lv_flex.c **** /**********************
  85:..\..\..\arduinoLCD\test\Pain Drain\libraries\lvgl\src\extra\layouts\flex/lv_flex.c ****  *   GLOBAL FUNCTIONS
  86:..\..\..\arduinoLCD\test\Pain Drain\libraries\lvgl\src\extra\layouts\flex/lv_flex.c ****  **********************/
  87:..\..\..\arduinoLCD\test\Pain Drain\libraries\lvgl\src\extra\layouts\flex/lv_flex.c **** 
  88:..\..\..\arduinoLCD\test\Pain Drain\libraries\lvgl\src\extra\layouts\flex/lv_flex.c **** /*=====================
  89:..\..\..\arduinoLCD\test\Pain Drain\libraries\lvgl\src\extra\layouts\flex/lv_flex.c ****  * Setter functions
  90:..\..\..\arduinoLCD\test\Pain Drain\libraries\lvgl\src\extra\layouts\flex/lv_flex.c ****  *====================*/
  91:..\..\..\arduinoLCD\test\Pain Drain\libraries\lvgl\src\extra\layouts\flex/lv_flex.c **** 
  92:..\..\..\arduinoLCD\test\Pain Drain\libraries\lvgl\src\extra\layouts\flex/lv_flex.c **** void lv_flex_init(void)
  93:..\..\..\arduinoLCD\test\Pain Drain\libraries\lvgl\src\extra\layouts\flex/lv_flex.c **** {
  94:..\..\..\arduinoLCD\test\Pain Drain\libraries\lvgl\src\extra\layouts\flex/lv_flex.c ****     LV_LAYOUT_FLEX = lv_layout_register(flex_update, NULL);
  95:..\..\..\arduinoLCD\test\Pain Drain\libraries\lvgl\src\extra\layouts\flex/lv_flex.c **** 
  96:..\..\..\arduinoLCD\test\Pain Drain\libraries\lvgl\src\extra\layouts\flex/lv_flex.c ****     LV_STYLE_FLEX_FLOW = lv_style_register_prop(LV_STYLE_PROP_FLAG_NONE);
  97:..\..\..\arduinoLCD\test\Pain Drain\libraries\lvgl\src\extra\layouts\flex/lv_flex.c ****     LV_STYLE_FLEX_MAIN_PLACE = lv_style_register_prop(LV_STYLE_PROP_LAYOUT_REFR);
  98:..\..\..\arduinoLCD\test\Pain Drain\libraries\lvgl\src\extra\layouts\flex/lv_flex.c ****     LV_STYLE_FLEX_CROSS_PLACE = lv_style_register_prop(LV_STYLE_PROP_LAYOUT_REFR);
  99:..\..\..\arduinoLCD\test\Pain Drain\libraries\lvgl\src\extra\layouts\flex/lv_flex.c ****     LV_STYLE_FLEX_TRACK_PLACE = lv_style_register_prop(LV_STYLE_PROP_LAYOUT_REFR);
 100:..\..\..\arduinoLCD\test\Pain Drain\libraries\lvgl\src\extra\layouts\flex/lv_flex.c **** }
 101:..\..\..\arduinoLCD\test\Pain Drain\libraries\lvgl\src\extra\layouts\flex/lv_flex.c **** 
 102:..\..\..\arduinoLCD\test\Pain Drain\libraries\lvgl\src\extra\layouts\flex/lv_flex.c **** void lv_obj_set_flex_flow(lv_obj_t * obj, lv_flex_flow_t flow)
 103:..\..\..\arduinoLCD\test\Pain Drain\libraries\lvgl\src\extra\layouts\flex/lv_flex.c **** {
 104:..\..\..\arduinoLCD\test\Pain Drain\libraries\lvgl\src\extra\layouts\flex/lv_flex.c ****     lv_obj_set_style_flex_flow(obj, flow, 0);
 105:..\..\..\arduinoLCD\test\Pain Drain\libraries\lvgl\src\extra\layouts\flex/lv_flex.c ****     lv_obj_set_style_layout(obj, LV_LAYOUT_FLEX, 0);
 106:..\..\..\arduinoLCD\test\Pain Drain\libraries\lvgl\src\extra\layouts\flex/lv_flex.c **** }
 107:..\..\..\arduinoLCD\test\Pain Drain\libraries\lvgl\src\extra\layouts\flex/lv_flex.c **** 
 108:..\..\..\arduinoLCD\test\Pain Drain\libraries\lvgl\src\extra\layouts\flex/lv_flex.c **** void lv_obj_set_flex_align(lv_obj_t * obj, lv_flex_align_t main_place, lv_flex_align_t cross_place,
 109:..\..\..\arduinoLCD\test\Pain Drain\libraries\lvgl\src\extra\layouts\flex/lv_flex.c ****                            lv_flex_align_t track_place)
 110:..\..\..\arduinoLCD\test\Pain Drain\libraries\lvgl\src\extra\layouts\flex/lv_flex.c **** {
 111:..\..\..\arduinoLCD\test\Pain Drain\libraries\lvgl\src\extra\layouts\flex/lv_flex.c ****     lv_obj_set_style_flex_main_place(obj, main_place, 0);
 112:..\..\..\arduinoLCD\test\Pain Drain\libraries\lvgl\src\extra\layouts\flex/lv_flex.c ****     lv_obj_set_style_flex_cross_place(obj, cross_place, 0);
 113:..\..\..\arduinoLCD\test\Pain Drain\libraries\lvgl\src\extra\layouts\flex/lv_flex.c ****     lv_obj_set_style_flex_track_place(obj, track_place, 0);
 114:..\..\..\arduinoLCD\test\Pain Drain\libraries\lvgl\src\extra\layouts\flex/lv_flex.c ****     lv_obj_set_style_layout(obj, LV_LAYOUT_FLEX, 0);
 115:..\..\..\arduinoLCD\test\Pain Drain\libraries\lvgl\src\extra\layouts\flex/lv_flex.c **** }
 116:..\..\..\arduinoLCD\test\Pain Drain\libraries\lvgl\src\extra\layouts\flex/lv_flex.c **** 
 117:..\..\..\arduinoLCD\test\Pain Drain\libraries\lvgl\src\extra\layouts\flex/lv_flex.c **** void lv_obj_set_flex_grow(lv_obj_t * obj, uint8_t grow)
 118:..\..\..\arduinoLCD\test\Pain Drain\libraries\lvgl\src\extra\layouts\flex/lv_flex.c **** {
 119:..\..\..\arduinoLCD\test\Pain Drain\libraries\lvgl\src\extra\layouts\flex/lv_flex.c ****     lv_obj_set_style_flex_grow(obj, grow, 0);
 120:..\..\..\arduinoLCD\test\Pain Drain\libraries\lvgl\src\extra\layouts\flex/lv_flex.c ****     lv_obj_mark_layout_as_dirty(lv_obj_get_parent(obj));
 121:..\..\..\arduinoLCD\test\Pain Drain\libraries\lvgl\src\extra\layouts\flex/lv_flex.c **** }
 122:..\..\..\arduinoLCD\test\Pain Drain\libraries\lvgl\src\extra\layouts\flex/lv_flex.c **** 
ARM GAS  C:\Users\haske\AppData\Local\Temp\ccVRp2Ta.s 			page 7


 123:..\..\..\arduinoLCD\test\Pain Drain\libraries\lvgl\src\extra\layouts\flex/lv_flex.c **** 
 124:..\..\..\arduinoLCD\test\Pain Drain\libraries\lvgl\src\extra\layouts\flex/lv_flex.c **** void lv_style_set_flex_flow(lv_style_t * style, lv_flex_flow_t value)
 125:..\..\..\arduinoLCD\test\Pain Drain\libraries\lvgl\src\extra\layouts\flex/lv_flex.c **** {
 126:..\..\..\arduinoLCD\test\Pain Drain\libraries\lvgl\src\extra\layouts\flex/lv_flex.c ****     lv_style_value_t v = {
 127:..\..\..\arduinoLCD\test\Pain Drain\libraries\lvgl\src\extra\layouts\flex/lv_flex.c ****         .num = (int32_t)value
 128:..\..\..\arduinoLCD\test\Pain Drain\libraries\lvgl\src\extra\layouts\flex/lv_flex.c ****     };
 129:..\..\..\arduinoLCD\test\Pain Drain\libraries\lvgl\src\extra\layouts\flex/lv_flex.c ****     lv_style_set_prop(style, LV_STYLE_FLEX_FLOW, v);
 130:..\..\..\arduinoLCD\test\Pain Drain\libraries\lvgl\src\extra\layouts\flex/lv_flex.c **** }
 131:..\..\..\arduinoLCD\test\Pain Drain\libraries\lvgl\src\extra\layouts\flex/lv_flex.c **** 
 132:..\..\..\arduinoLCD\test\Pain Drain\libraries\lvgl\src\extra\layouts\flex/lv_flex.c **** void lv_style_set_flex_main_place(lv_style_t * style, lv_flex_align_t value)
 133:..\..\..\arduinoLCD\test\Pain Drain\libraries\lvgl\src\extra\layouts\flex/lv_flex.c **** {
 134:..\..\..\arduinoLCD\test\Pain Drain\libraries\lvgl\src\extra\layouts\flex/lv_flex.c ****     lv_style_value_t v = {
 135:..\..\..\arduinoLCD\test\Pain Drain\libraries\lvgl\src\extra\layouts\flex/lv_flex.c ****         .num = (int32_t)value
 136:..\..\..\arduinoLCD\test\Pain Drain\libraries\lvgl\src\extra\layouts\flex/lv_flex.c ****     };
 137:..\..\..\arduinoLCD\test\Pain Drain\libraries\lvgl\src\extra\layouts\flex/lv_flex.c ****     lv_style_set_prop(style, LV_STYLE_FLEX_MAIN_PLACE, v);
 138:..\..\..\arduinoLCD\test\Pain Drain\libraries\lvgl\src\extra\layouts\flex/lv_flex.c **** }
 139:..\..\..\arduinoLCD\test\Pain Drain\libraries\lvgl\src\extra\layouts\flex/lv_flex.c **** 
 140:..\..\..\arduinoLCD\test\Pain Drain\libraries\lvgl\src\extra\layouts\flex/lv_flex.c **** void lv_style_set_flex_cross_place(lv_style_t * style, lv_flex_align_t value)
 141:..\..\..\arduinoLCD\test\Pain Drain\libraries\lvgl\src\extra\layouts\flex/lv_flex.c **** {
 142:..\..\..\arduinoLCD\test\Pain Drain\libraries\lvgl\src\extra\layouts\flex/lv_flex.c ****     lv_style_value_t v = {
 143:..\..\..\arduinoLCD\test\Pain Drain\libraries\lvgl\src\extra\layouts\flex/lv_flex.c ****         .num = (int32_t)value
 144:..\..\..\arduinoLCD\test\Pain Drain\libraries\lvgl\src\extra\layouts\flex/lv_flex.c ****     };
 145:..\..\..\arduinoLCD\test\Pain Drain\libraries\lvgl\src\extra\layouts\flex/lv_flex.c ****     lv_style_set_prop(style, LV_STYLE_FLEX_CROSS_PLACE, v);
 146:..\..\..\arduinoLCD\test\Pain Drain\libraries\lvgl\src\extra\layouts\flex/lv_flex.c **** }
 147:..\..\..\arduinoLCD\test\Pain Drain\libraries\lvgl\src\extra\layouts\flex/lv_flex.c **** 
 148:..\..\..\arduinoLCD\test\Pain Drain\libraries\lvgl\src\extra\layouts\flex/lv_flex.c **** void lv_style_set_flex_track_place(lv_style_t * style, lv_flex_align_t value)
 149:..\..\..\arduinoLCD\test\Pain Drain\libraries\lvgl\src\extra\layouts\flex/lv_flex.c **** {
 150:..\..\..\arduinoLCD\test\Pain Drain\libraries\lvgl\src\extra\layouts\flex/lv_flex.c ****     lv_style_value_t v = {
 151:..\..\..\arduinoLCD\test\Pain Drain\libraries\lvgl\src\extra\layouts\flex/lv_flex.c ****         .num = (int32_t)value
 152:..\..\..\arduinoLCD\test\Pain Drain\libraries\lvgl\src\extra\layouts\flex/lv_flex.c ****     };
 153:..\..\..\arduinoLCD\test\Pain Drain\libraries\lvgl\src\extra\layouts\flex/lv_flex.c ****     lv_style_set_prop(style, LV_STYLE_FLEX_TRACK_PLACE, v);
 154:..\..\..\arduinoLCD\test\Pain Drain\libraries\lvgl\src\extra\layouts\flex/lv_flex.c **** }
 155:..\..\..\arduinoLCD\test\Pain Drain\libraries\lvgl\src\extra\layouts\flex/lv_flex.c **** 
 156:..\..\..\arduinoLCD\test\Pain Drain\libraries\lvgl\src\extra\layouts\flex/lv_flex.c **** void lv_style_set_flex_grow(lv_style_t * style, uint8_t value)
 157:..\..\..\arduinoLCD\test\Pain Drain\libraries\lvgl\src\extra\layouts\flex/lv_flex.c **** {
 158:..\..\..\arduinoLCD\test\Pain Drain\libraries\lvgl\src\extra\layouts\flex/lv_flex.c ****     lv_style_value_t v = {
 159:..\..\..\arduinoLCD\test\Pain Drain\libraries\lvgl\src\extra\layouts\flex/lv_flex.c ****         .num = (int32_t)value
 160:..\..\..\arduinoLCD\test\Pain Drain\libraries\lvgl\src\extra\layouts\flex/lv_flex.c ****     };
 161:..\..\..\arduinoLCD\test\Pain Drain\libraries\lvgl\src\extra\layouts\flex/lv_flex.c ****     lv_style_set_prop(style, LV_STYLE_FLEX_GROW, v);
 162:..\..\..\arduinoLCD\test\Pain Drain\libraries\lvgl\src\extra\layouts\flex/lv_flex.c **** }
 163:..\..\..\arduinoLCD\test\Pain Drain\libraries\lvgl\src\extra\layouts\flex/lv_flex.c **** 
 164:..\..\..\arduinoLCD\test\Pain Drain\libraries\lvgl\src\extra\layouts\flex/lv_flex.c **** 
 165:..\..\..\arduinoLCD\test\Pain Drain\libraries\lvgl\src\extra\layouts\flex/lv_flex.c **** void lv_obj_set_style_flex_flow(lv_obj_t * obj, lv_flex_flow_t value, lv_style_selector_t selector)
 166:..\..\..\arduinoLCD\test\Pain Drain\libraries\lvgl\src\extra\layouts\flex/lv_flex.c **** {
 167:..\..\..\arduinoLCD\test\Pain Drain\libraries\lvgl\src\extra\layouts\flex/lv_flex.c ****     lv_style_value_t v = {
 168:..\..\..\arduinoLCD\test\Pain Drain\libraries\lvgl\src\extra\layouts\flex/lv_flex.c ****         .num = (int32_t) value
 169:..\..\..\arduinoLCD\test\Pain Drain\libraries\lvgl\src\extra\layouts\flex/lv_flex.c ****     };
 170:..\..\..\arduinoLCD\test\Pain Drain\libraries\lvgl\src\extra\layouts\flex/lv_flex.c ****     lv_obj_set_local_style_prop(obj, LV_STYLE_FLEX_FLOW, v, selector);
 171:..\..\..\arduinoLCD\test\Pain Drain\libraries\lvgl\src\extra\layouts\flex/lv_flex.c **** }
 172:..\..\..\arduinoLCD\test\Pain Drain\libraries\lvgl\src\extra\layouts\flex/lv_flex.c **** 
 173:..\..\..\arduinoLCD\test\Pain Drain\libraries\lvgl\src\extra\layouts\flex/lv_flex.c **** void lv_obj_set_style_flex_main_place(lv_obj_t * obj, lv_flex_align_t value, lv_style_selector_t se
 174:..\..\..\arduinoLCD\test\Pain Drain\libraries\lvgl\src\extra\layouts\flex/lv_flex.c **** {
 175:..\..\..\arduinoLCD\test\Pain Drain\libraries\lvgl\src\extra\layouts\flex/lv_flex.c ****     lv_style_value_t v = {
 176:..\..\..\arduinoLCD\test\Pain Drain\libraries\lvgl\src\extra\layouts\flex/lv_flex.c ****         .num = (int32_t) value
 177:..\..\..\arduinoLCD\test\Pain Drain\libraries\lvgl\src\extra\layouts\flex/lv_flex.c ****     };
 178:..\..\..\arduinoLCD\test\Pain Drain\libraries\lvgl\src\extra\layouts\flex/lv_flex.c ****     lv_obj_set_local_style_prop(obj, LV_STYLE_FLEX_MAIN_PLACE, v, selector);
 179:..\..\..\arduinoLCD\test\Pain Drain\libraries\lvgl\src\extra\layouts\flex/lv_flex.c **** }
ARM GAS  C:\Users\haske\AppData\Local\Temp\ccVRp2Ta.s 			page 8


 180:..\..\..\arduinoLCD\test\Pain Drain\libraries\lvgl\src\extra\layouts\flex/lv_flex.c **** 
 181:..\..\..\arduinoLCD\test\Pain Drain\libraries\lvgl\src\extra\layouts\flex/lv_flex.c **** void lv_obj_set_style_flex_cross_place(lv_obj_t * obj, lv_flex_align_t value, lv_style_selector_t s
 182:..\..\..\arduinoLCD\test\Pain Drain\libraries\lvgl\src\extra\layouts\flex/lv_flex.c **** {
 183:..\..\..\arduinoLCD\test\Pain Drain\libraries\lvgl\src\extra\layouts\flex/lv_flex.c ****     lv_style_value_t v = {
 184:..\..\..\arduinoLCD\test\Pain Drain\libraries\lvgl\src\extra\layouts\flex/lv_flex.c ****         .num = (int32_t) value
 185:..\..\..\arduinoLCD\test\Pain Drain\libraries\lvgl\src\extra\layouts\flex/lv_flex.c ****     };
 186:..\..\..\arduinoLCD\test\Pain Drain\libraries\lvgl\src\extra\layouts\flex/lv_flex.c ****     lv_obj_set_local_style_prop(obj, LV_STYLE_FLEX_CROSS_PLACE, v, selector);
 187:..\..\..\arduinoLCD\test\Pain Drain\libraries\lvgl\src\extra\layouts\flex/lv_flex.c **** }
 188:..\..\..\arduinoLCD\test\Pain Drain\libraries\lvgl\src\extra\layouts\flex/lv_flex.c **** 
 189:..\..\..\arduinoLCD\test\Pain Drain\libraries\lvgl\src\extra\layouts\flex/lv_flex.c **** void lv_obj_set_style_flex_track_place(lv_obj_t * obj, lv_flex_align_t value, lv_style_selector_t s
 190:..\..\..\arduinoLCD\test\Pain Drain\libraries\lvgl\src\extra\layouts\flex/lv_flex.c **** {
 191:..\..\..\arduinoLCD\test\Pain Drain\libraries\lvgl\src\extra\layouts\flex/lv_flex.c ****     lv_style_value_t v = {
 192:..\..\..\arduinoLCD\test\Pain Drain\libraries\lvgl\src\extra\layouts\flex/lv_flex.c ****         .num = (int32_t) value
 193:..\..\..\arduinoLCD\test\Pain Drain\libraries\lvgl\src\extra\layouts\flex/lv_flex.c ****     };
 194:..\..\..\arduinoLCD\test\Pain Drain\libraries\lvgl\src\extra\layouts\flex/lv_flex.c ****     lv_obj_set_local_style_prop(obj, LV_STYLE_FLEX_TRACK_PLACE, v, selector);
 195:..\..\..\arduinoLCD\test\Pain Drain\libraries\lvgl\src\extra\layouts\flex/lv_flex.c **** }
 196:..\..\..\arduinoLCD\test\Pain Drain\libraries\lvgl\src\extra\layouts\flex/lv_flex.c **** 
 197:..\..\..\arduinoLCD\test\Pain Drain\libraries\lvgl\src\extra\layouts\flex/lv_flex.c **** void lv_obj_set_style_flex_grow(lv_obj_t * obj, uint8_t value, lv_style_selector_t selector)
 198:..\..\..\arduinoLCD\test\Pain Drain\libraries\lvgl\src\extra\layouts\flex/lv_flex.c **** {
 199:..\..\..\arduinoLCD\test\Pain Drain\libraries\lvgl\src\extra\layouts\flex/lv_flex.c ****     lv_style_value_t v = {
 200:..\..\..\arduinoLCD\test\Pain Drain\libraries\lvgl\src\extra\layouts\flex/lv_flex.c ****         .num = (int32_t) value
 201:..\..\..\arduinoLCD\test\Pain Drain\libraries\lvgl\src\extra\layouts\flex/lv_flex.c ****     };
 202:..\..\..\arduinoLCD\test\Pain Drain\libraries\lvgl\src\extra\layouts\flex/lv_flex.c ****     lv_obj_set_local_style_prop(obj, LV_STYLE_FLEX_GROW, v, selector);
 203:..\..\..\arduinoLCD\test\Pain Drain\libraries\lvgl\src\extra\layouts\flex/lv_flex.c **** }
 204:..\..\..\arduinoLCD\test\Pain Drain\libraries\lvgl\src\extra\layouts\flex/lv_flex.c **** 
 205:..\..\..\arduinoLCD\test\Pain Drain\libraries\lvgl\src\extra\layouts\flex/lv_flex.c **** /**********************
 206:..\..\..\arduinoLCD\test\Pain Drain\libraries\lvgl\src\extra\layouts\flex/lv_flex.c ****  *   STATIC FUNCTIONS
 207:..\..\..\arduinoLCD\test\Pain Drain\libraries\lvgl\src\extra\layouts\flex/lv_flex.c ****  **********************/
 208:..\..\..\arduinoLCD\test\Pain Drain\libraries\lvgl\src\extra\layouts\flex/lv_flex.c **** 
 209:..\..\..\arduinoLCD\test\Pain Drain\libraries\lvgl\src\extra\layouts\flex/lv_flex.c **** static void flex_update(lv_obj_t * cont, void * user_data)
 210:..\..\..\arduinoLCD\test\Pain Drain\libraries\lvgl\src\extra\layouts\flex/lv_flex.c **** {
 211:..\..\..\arduinoLCD\test\Pain Drain\libraries\lvgl\src\extra\layouts\flex/lv_flex.c ****     LV_LOG_INFO("update %p container", (void *)cont);
 212:..\..\..\arduinoLCD\test\Pain Drain\libraries\lvgl\src\extra\layouts\flex/lv_flex.c ****     LV_UNUSED(user_data);
 213:..\..\..\arduinoLCD\test\Pain Drain\libraries\lvgl\src\extra\layouts\flex/lv_flex.c **** 
 214:..\..\..\arduinoLCD\test\Pain Drain\libraries\lvgl\src\extra\layouts\flex/lv_flex.c ****     flex_t f;
 215:..\..\..\arduinoLCD\test\Pain Drain\libraries\lvgl\src\extra\layouts\flex/lv_flex.c ****     lv_flex_flow_t flow = lv_obj_get_style_flex_flow(cont, LV_PART_MAIN);
 216:..\..\..\arduinoLCD\test\Pain Drain\libraries\lvgl\src\extra\layouts\flex/lv_flex.c ****     f.row = flow & _LV_FLEX_COLUMN ? 0 : 1;
 217:..\..\..\arduinoLCD\test\Pain Drain\libraries\lvgl\src\extra\layouts\flex/lv_flex.c ****     f.wrap = flow & _LV_FLEX_WRAP ? 1 : 0;
 218:..\..\..\arduinoLCD\test\Pain Drain\libraries\lvgl\src\extra\layouts\flex/lv_flex.c ****     f.rev = flow & _LV_FLEX_REVERSE ? 1 : 0;
 219:..\..\..\arduinoLCD\test\Pain Drain\libraries\lvgl\src\extra\layouts\flex/lv_flex.c ****     f.main_place = lv_obj_get_style_flex_main_place(cont, LV_PART_MAIN);
 220:..\..\..\arduinoLCD\test\Pain Drain\libraries\lvgl\src\extra\layouts\flex/lv_flex.c ****     f.cross_place = lv_obj_get_style_flex_cross_place(cont, LV_PART_MAIN);
 221:..\..\..\arduinoLCD\test\Pain Drain\libraries\lvgl\src\extra\layouts\flex/lv_flex.c ****     f.track_place = lv_obj_get_style_flex_track_place(cont, LV_PART_MAIN);
 222:..\..\..\arduinoLCD\test\Pain Drain\libraries\lvgl\src\extra\layouts\flex/lv_flex.c **** 
 223:..\..\..\arduinoLCD\test\Pain Drain\libraries\lvgl\src\extra\layouts\flex/lv_flex.c ****     bool rtl = lv_obj_get_style_base_dir(cont, LV_PART_MAIN) == LV_BASE_DIR_RTL ? true : false;
 224:..\..\..\arduinoLCD\test\Pain Drain\libraries\lvgl\src\extra\layouts\flex/lv_flex.c ****     lv_coord_t track_gap = !f.row ? lv_obj_get_style_pad_column(cont, LV_PART_MAIN) : lv_obj_get_st
 225:..\..\..\arduinoLCD\test\Pain Drain\libraries\lvgl\src\extra\layouts\flex/lv_flex.c ****                                                                                                    
 226:..\..\..\arduinoLCD\test\Pain Drain\libraries\lvgl\src\extra\layouts\flex/lv_flex.c ****     lv_coord_t item_gap = f.row ? lv_obj_get_style_pad_column(cont, LV_PART_MAIN) : lv_obj_get_styl
 227:..\..\..\arduinoLCD\test\Pain Drain\libraries\lvgl\src\extra\layouts\flex/lv_flex.c ****                                                                                                    
 228:..\..\..\arduinoLCD\test\Pain Drain\libraries\lvgl\src\extra\layouts\flex/lv_flex.c ****     lv_coord_t max_main_size = (f.row ? lv_obj_get_content_width(cont) : lv_obj_get_content_height(
 229:..\..\..\arduinoLCD\test\Pain Drain\libraries\lvgl\src\extra\layouts\flex/lv_flex.c ****     lv_coord_t border_width = lv_obj_get_style_border_width(cont, LV_PART_MAIN);
 230:..\..\..\arduinoLCD\test\Pain Drain\libraries\lvgl\src\extra\layouts\flex/lv_flex.c ****     lv_coord_t abs_y = cont->coords.y1 + lv_obj_get_style_pad_top(cont,
 231:..\..\..\arduinoLCD\test\Pain Drain\libraries\lvgl\src\extra\layouts\flex/lv_flex.c ****                                                                   LV_PART_MAIN) + border_width - lv
 232:..\..\..\arduinoLCD\test\Pain Drain\libraries\lvgl\src\extra\layouts\flex/lv_flex.c ****     lv_coord_t abs_x = cont->coords.x1 + lv_obj_get_style_pad_left(cont,
 233:..\..\..\arduinoLCD\test\Pain Drain\libraries\lvgl\src\extra\layouts\flex/lv_flex.c ****                                                                    LV_PART_MAIN) + border_width - l
 234:..\..\..\arduinoLCD\test\Pain Drain\libraries\lvgl\src\extra\layouts\flex/lv_flex.c **** 
 235:..\..\..\arduinoLCD\test\Pain Drain\libraries\lvgl\src\extra\layouts\flex/lv_flex.c ****     lv_flex_align_t track_cross_place = f.track_place;
 236:..\..\..\arduinoLCD\test\Pain Drain\libraries\lvgl\src\extra\layouts\flex/lv_flex.c ****     lv_coord_t * cross_pos = (f.row ? &abs_y : &abs_x);
ARM GAS  C:\Users\haske\AppData\Local\Temp\ccVRp2Ta.s 			page 9


 237:..\..\..\arduinoLCD\test\Pain Drain\libraries\lvgl\src\extra\layouts\flex/lv_flex.c **** 
 238:..\..\..\arduinoLCD\test\Pain Drain\libraries\lvgl\src\extra\layouts\flex/lv_flex.c ****     lv_coord_t w_set = lv_obj_get_style_width(cont, LV_PART_MAIN);
 239:..\..\..\arduinoLCD\test\Pain Drain\libraries\lvgl\src\extra\layouts\flex/lv_flex.c ****     lv_coord_t h_set = lv_obj_get_style_height(cont, LV_PART_MAIN);
 240:..\..\..\arduinoLCD\test\Pain Drain\libraries\lvgl\src\extra\layouts\flex/lv_flex.c **** 
 241:..\..\..\arduinoLCD\test\Pain Drain\libraries\lvgl\src\extra\layouts\flex/lv_flex.c ****     /*Content sized objects should squeezed the gap between the children, therefore any alignment w
 242:..\..\..\arduinoLCD\test\Pain Drain\libraries\lvgl\src\extra\layouts\flex/lv_flex.c ****     if((f.row && h_set == LV_SIZE_CONTENT && cont->h_layout == 0) ||
 243:..\..\..\arduinoLCD\test\Pain Drain\libraries\lvgl\src\extra\layouts\flex/lv_flex.c ****        (!f.row && w_set == LV_SIZE_CONTENT && cont->w_layout == 0)) {
 244:..\..\..\arduinoLCD\test\Pain Drain\libraries\lvgl\src\extra\layouts\flex/lv_flex.c ****         track_cross_place = LV_FLEX_ALIGN_START;
 245:..\..\..\arduinoLCD\test\Pain Drain\libraries\lvgl\src\extra\layouts\flex/lv_flex.c ****     }
 246:..\..\..\arduinoLCD\test\Pain Drain\libraries\lvgl\src\extra\layouts\flex/lv_flex.c **** 
 247:..\..\..\arduinoLCD\test\Pain Drain\libraries\lvgl\src\extra\layouts\flex/lv_flex.c ****     if(rtl && !f.row) {
 248:..\..\..\arduinoLCD\test\Pain Drain\libraries\lvgl\src\extra\layouts\flex/lv_flex.c ****         if(track_cross_place == LV_FLEX_ALIGN_START) track_cross_place = LV_FLEX_ALIGN_END;
 249:..\..\..\arduinoLCD\test\Pain Drain\libraries\lvgl\src\extra\layouts\flex/lv_flex.c ****         else if(track_cross_place == LV_FLEX_ALIGN_END) track_cross_place = LV_FLEX_ALIGN_START;
 250:..\..\..\arduinoLCD\test\Pain Drain\libraries\lvgl\src\extra\layouts\flex/lv_flex.c ****     }
 251:..\..\..\arduinoLCD\test\Pain Drain\libraries\lvgl\src\extra\layouts\flex/lv_flex.c **** 
 252:..\..\..\arduinoLCD\test\Pain Drain\libraries\lvgl\src\extra\layouts\flex/lv_flex.c ****     lv_coord_t total_track_cross_size = 0;
 253:..\..\..\arduinoLCD\test\Pain Drain\libraries\lvgl\src\extra\layouts\flex/lv_flex.c ****     lv_coord_t gap = 0;
 254:..\..\..\arduinoLCD\test\Pain Drain\libraries\lvgl\src\extra\layouts\flex/lv_flex.c ****     uint32_t track_cnt = 0;
 255:..\..\..\arduinoLCD\test\Pain Drain\libraries\lvgl\src\extra\layouts\flex/lv_flex.c ****     int32_t track_first_item;
 256:..\..\..\arduinoLCD\test\Pain Drain\libraries\lvgl\src\extra\layouts\flex/lv_flex.c ****     int32_t next_track_first_item;
 257:..\..\..\arduinoLCD\test\Pain Drain\libraries\lvgl\src\extra\layouts\flex/lv_flex.c **** 
 258:..\..\..\arduinoLCD\test\Pain Drain\libraries\lvgl\src\extra\layouts\flex/lv_flex.c ****     if(track_cross_place != LV_FLEX_ALIGN_START) {
 259:..\..\..\arduinoLCD\test\Pain Drain\libraries\lvgl\src\extra\layouts\flex/lv_flex.c ****         track_first_item = f.rev ? cont->spec_attr->child_cnt - 1 : 0;
 260:..\..\..\arduinoLCD\test\Pain Drain\libraries\lvgl\src\extra\layouts\flex/lv_flex.c ****         track_t t;
 261:..\..\..\arduinoLCD\test\Pain Drain\libraries\lvgl\src\extra\layouts\flex/lv_flex.c ****         while(track_first_item < (int32_t)cont->spec_attr->child_cnt && track_first_item >= 0) {
 262:..\..\..\arduinoLCD\test\Pain Drain\libraries\lvgl\src\extra\layouts\flex/lv_flex.c ****             /*Search the first item of the next row*/
 263:..\..\..\arduinoLCD\test\Pain Drain\libraries\lvgl\src\extra\layouts\flex/lv_flex.c ****             t.grow_dsc_calc = 0;
 264:..\..\..\arduinoLCD\test\Pain Drain\libraries\lvgl\src\extra\layouts\flex/lv_flex.c ****             next_track_first_item = find_track_end(cont, &f, track_first_item, max_main_size, item_
 265:..\..\..\arduinoLCD\test\Pain Drain\libraries\lvgl\src\extra\layouts\flex/lv_flex.c ****             total_track_cross_size += t.track_cross_size + track_gap;
 266:..\..\..\arduinoLCD\test\Pain Drain\libraries\lvgl\src\extra\layouts\flex/lv_flex.c ****             track_cnt++;
 267:..\..\..\arduinoLCD\test\Pain Drain\libraries\lvgl\src\extra\layouts\flex/lv_flex.c ****             track_first_item = next_track_first_item;
 268:..\..\..\arduinoLCD\test\Pain Drain\libraries\lvgl\src\extra\layouts\flex/lv_flex.c ****         }
 269:..\..\..\arduinoLCD\test\Pain Drain\libraries\lvgl\src\extra\layouts\flex/lv_flex.c **** 
 270:..\..\..\arduinoLCD\test\Pain Drain\libraries\lvgl\src\extra\layouts\flex/lv_flex.c ****         if(track_cnt) total_track_cross_size -= track_gap;   /*No gap after the last track*/
 271:..\..\..\arduinoLCD\test\Pain Drain\libraries\lvgl\src\extra\layouts\flex/lv_flex.c **** 
 272:..\..\..\arduinoLCD\test\Pain Drain\libraries\lvgl\src\extra\layouts\flex/lv_flex.c ****         /*Place the tracks to get the start position*/
 273:..\..\..\arduinoLCD\test\Pain Drain\libraries\lvgl\src\extra\layouts\flex/lv_flex.c ****         lv_coord_t max_cross_size = (f.row ? lv_obj_get_content_height(cont) : lv_obj_get_content_w
 274:..\..\..\arduinoLCD\test\Pain Drain\libraries\lvgl\src\extra\layouts\flex/lv_flex.c ****         place_content(track_cross_place, max_cross_size, total_track_cross_size, track_cnt, cross_p
 275:..\..\..\arduinoLCD\test\Pain Drain\libraries\lvgl\src\extra\layouts\flex/lv_flex.c ****     }
 276:..\..\..\arduinoLCD\test\Pain Drain\libraries\lvgl\src\extra\layouts\flex/lv_flex.c **** 
 277:..\..\..\arduinoLCD\test\Pain Drain\libraries\lvgl\src\extra\layouts\flex/lv_flex.c ****     track_first_item = f.rev ? cont->spec_attr->child_cnt - 1 : 0;
 278:..\..\..\arduinoLCD\test\Pain Drain\libraries\lvgl\src\extra\layouts\flex/lv_flex.c **** 
 279:..\..\..\arduinoLCD\test\Pain Drain\libraries\lvgl\src\extra\layouts\flex/lv_flex.c ****     if(rtl && !f.row) {
 280:..\..\..\arduinoLCD\test\Pain Drain\libraries\lvgl\src\extra\layouts\flex/lv_flex.c ****         *cross_pos += total_track_cross_size;
 281:..\..\..\arduinoLCD\test\Pain Drain\libraries\lvgl\src\extra\layouts\flex/lv_flex.c ****     }
 282:..\..\..\arduinoLCD\test\Pain Drain\libraries\lvgl\src\extra\layouts\flex/lv_flex.c **** 
 283:..\..\..\arduinoLCD\test\Pain Drain\libraries\lvgl\src\extra\layouts\flex/lv_flex.c ****     while(track_first_item < (int32_t)cont->spec_attr->child_cnt && track_first_item >= 0) {
 284:..\..\..\arduinoLCD\test\Pain Drain\libraries\lvgl\src\extra\layouts\flex/lv_flex.c ****         track_t t;
 285:..\..\..\arduinoLCD\test\Pain Drain\libraries\lvgl\src\extra\layouts\flex/lv_flex.c ****         t.grow_dsc_calc = 1;
 286:..\..\..\arduinoLCD\test\Pain Drain\libraries\lvgl\src\extra\layouts\flex/lv_flex.c ****         /*Search the first item of the next row*/
 287:..\..\..\arduinoLCD\test\Pain Drain\libraries\lvgl\src\extra\layouts\flex/lv_flex.c ****         next_track_first_item = find_track_end(cont, &f, track_first_item, max_main_size, item_gap,
 288:..\..\..\arduinoLCD\test\Pain Drain\libraries\lvgl\src\extra\layouts\flex/lv_flex.c **** 
 289:..\..\..\arduinoLCD\test\Pain Drain\libraries\lvgl\src\extra\layouts\flex/lv_flex.c ****         if(rtl && !f.row) {
 290:..\..\..\arduinoLCD\test\Pain Drain\libraries\lvgl\src\extra\layouts\flex/lv_flex.c ****             *cross_pos -= t.track_cross_size;
 291:..\..\..\arduinoLCD\test\Pain Drain\libraries\lvgl\src\extra\layouts\flex/lv_flex.c ****         }
 292:..\..\..\arduinoLCD\test\Pain Drain\libraries\lvgl\src\extra\layouts\flex/lv_flex.c ****         children_repos(cont, &f, track_first_item, next_track_first_item, abs_x, abs_y, max_main_si
 293:..\..\..\arduinoLCD\test\Pain Drain\libraries\lvgl\src\extra\layouts\flex/lv_flex.c ****         track_first_item = next_track_first_item;
ARM GAS  C:\Users\haske\AppData\Local\Temp\ccVRp2Ta.s 			page 10


 294:..\..\..\arduinoLCD\test\Pain Drain\libraries\lvgl\src\extra\layouts\flex/lv_flex.c ****         lv_mem_buf_release(t.grow_dsc);
 295:..\..\..\arduinoLCD\test\Pain Drain\libraries\lvgl\src\extra\layouts\flex/lv_flex.c ****         t.grow_dsc = NULL;
 296:..\..\..\arduinoLCD\test\Pain Drain\libraries\lvgl\src\extra\layouts\flex/lv_flex.c ****         if(rtl && !f.row) {
 297:..\..\..\arduinoLCD\test\Pain Drain\libraries\lvgl\src\extra\layouts\flex/lv_flex.c ****             *cross_pos -= gap + track_gap;
 298:..\..\..\arduinoLCD\test\Pain Drain\libraries\lvgl\src\extra\layouts\flex/lv_flex.c ****         }
 299:..\..\..\arduinoLCD\test\Pain Drain\libraries\lvgl\src\extra\layouts\flex/lv_flex.c ****         else {
 300:..\..\..\arduinoLCD\test\Pain Drain\libraries\lvgl\src\extra\layouts\flex/lv_flex.c ****             *cross_pos += t.track_cross_size + gap + track_gap;
 301:..\..\..\arduinoLCD\test\Pain Drain\libraries\lvgl\src\extra\layouts\flex/lv_flex.c ****         }
 302:..\..\..\arduinoLCD\test\Pain Drain\libraries\lvgl\src\extra\layouts\flex/lv_flex.c ****     }
 303:..\..\..\arduinoLCD\test\Pain Drain\libraries\lvgl\src\extra\layouts\flex/lv_flex.c ****     LV_ASSERT_MEM_INTEGRITY();
 304:..\..\..\arduinoLCD\test\Pain Drain\libraries\lvgl\src\extra\layouts\flex/lv_flex.c **** 
 305:..\..\..\arduinoLCD\test\Pain Drain\libraries\lvgl\src\extra\layouts\flex/lv_flex.c ****     if(w_set == LV_SIZE_CONTENT || h_set == LV_SIZE_CONTENT) {
 306:..\..\..\arduinoLCD\test\Pain Drain\libraries\lvgl\src\extra\layouts\flex/lv_flex.c ****         lv_obj_refr_size(cont);
 307:..\..\..\arduinoLCD\test\Pain Drain\libraries\lvgl\src\extra\layouts\flex/lv_flex.c ****     }
 308:..\..\..\arduinoLCD\test\Pain Drain\libraries\lvgl\src\extra\layouts\flex/lv_flex.c **** 
 309:..\..\..\arduinoLCD\test\Pain Drain\libraries\lvgl\src\extra\layouts\flex/lv_flex.c ****     lv_event_send(cont, LV_EVENT_LAYOUT_CHANGED, NULL);
 310:..\..\..\arduinoLCD\test\Pain Drain\libraries\lvgl\src\extra\layouts\flex/lv_flex.c **** 
 311:..\..\..\arduinoLCD\test\Pain Drain\libraries\lvgl\src\extra\layouts\flex/lv_flex.c ****     LV_TRACE_LAYOUT("finished");
 312:..\..\..\arduinoLCD\test\Pain Drain\libraries\lvgl\src\extra\layouts\flex/lv_flex.c **** }
 313:..\..\..\arduinoLCD\test\Pain Drain\libraries\lvgl\src\extra\layouts\flex/lv_flex.c **** 
 314:..\..\..\arduinoLCD\test\Pain Drain\libraries\lvgl\src\extra\layouts\flex/lv_flex.c **** /**
 315:..\..\..\arduinoLCD\test\Pain Drain\libraries\lvgl\src\extra\layouts\flex/lv_flex.c ****  * Find the last item of a track
 316:..\..\..\arduinoLCD\test\Pain Drain\libraries\lvgl\src\extra\layouts\flex/lv_flex.c ****  */
 317:..\..\..\arduinoLCD\test\Pain Drain\libraries\lvgl\src\extra\layouts\flex/lv_flex.c **** static int32_t find_track_end(lv_obj_t * cont, flex_t * f, int32_t item_start_id, lv_coord_t max_ma
 318:..\..\..\arduinoLCD\test\Pain Drain\libraries\lvgl\src\extra\layouts\flex/lv_flex.c ****                               lv_coord_t item_gap, track_t * t)
 319:..\..\..\arduinoLCD\test\Pain Drain\libraries\lvgl\src\extra\layouts\flex/lv_flex.c **** {
 320:..\..\..\arduinoLCD\test\Pain Drain\libraries\lvgl\src\extra\layouts\flex/lv_flex.c ****     lv_coord_t w_set = lv_obj_get_style_width(cont, LV_PART_MAIN);
 321:..\..\..\arduinoLCD\test\Pain Drain\libraries\lvgl\src\extra\layouts\flex/lv_flex.c ****     lv_coord_t h_set = lv_obj_get_style_height(cont, LV_PART_MAIN);
 322:..\..\..\arduinoLCD\test\Pain Drain\libraries\lvgl\src\extra\layouts\flex/lv_flex.c **** 
 323:..\..\..\arduinoLCD\test\Pain Drain\libraries\lvgl\src\extra\layouts\flex/lv_flex.c ****     /*Can't wrap if the size if auto (i.e. the size depends on the children)*/
 324:..\..\..\arduinoLCD\test\Pain Drain\libraries\lvgl\src\extra\layouts\flex/lv_flex.c ****     if(f->wrap && ((f->row && w_set == LV_SIZE_CONTENT) || (!f->row && h_set == LV_SIZE_CONTENT))) 
 325:..\..\..\arduinoLCD\test\Pain Drain\libraries\lvgl\src\extra\layouts\flex/lv_flex.c ****         f->wrap = false;
 326:..\..\..\arduinoLCD\test\Pain Drain\libraries\lvgl\src\extra\layouts\flex/lv_flex.c ****     }
 327:..\..\..\arduinoLCD\test\Pain Drain\libraries\lvgl\src\extra\layouts\flex/lv_flex.c ****     lv_coord_t(*get_main_size)(const lv_obj_t *) = (f->row ? lv_obj_get_width : lv_obj_get_height);
 328:..\..\..\arduinoLCD\test\Pain Drain\libraries\lvgl\src\extra\layouts\flex/lv_flex.c ****     lv_coord_t(*get_cross_size)(const lv_obj_t *) = (!f->row ? lv_obj_get_width : lv_obj_get_height
 329:..\..\..\arduinoLCD\test\Pain Drain\libraries\lvgl\src\extra\layouts\flex/lv_flex.c **** 
 330:..\..\..\arduinoLCD\test\Pain Drain\libraries\lvgl\src\extra\layouts\flex/lv_flex.c ****     t->track_main_size = 0;
 331:..\..\..\arduinoLCD\test\Pain Drain\libraries\lvgl\src\extra\layouts\flex/lv_flex.c ****     t->track_fix_main_size = 0;
 332:..\..\..\arduinoLCD\test\Pain Drain\libraries\lvgl\src\extra\layouts\flex/lv_flex.c ****     t->grow_item_cnt = 0;
 333:..\..\..\arduinoLCD\test\Pain Drain\libraries\lvgl\src\extra\layouts\flex/lv_flex.c ****     t->track_cross_size = 0;
 334:..\..\..\arduinoLCD\test\Pain Drain\libraries\lvgl\src\extra\layouts\flex/lv_flex.c ****     t->item_cnt = 0;
 335:..\..\..\arduinoLCD\test\Pain Drain\libraries\lvgl\src\extra\layouts\flex/lv_flex.c ****     t->grow_dsc = NULL;
 336:..\..\..\arduinoLCD\test\Pain Drain\libraries\lvgl\src\extra\layouts\flex/lv_flex.c **** 
 337:..\..\..\arduinoLCD\test\Pain Drain\libraries\lvgl\src\extra\layouts\flex/lv_flex.c ****     int32_t item_id = item_start_id;
 338:..\..\..\arduinoLCD\test\Pain Drain\libraries\lvgl\src\extra\layouts\flex/lv_flex.c **** 
 339:..\..\..\arduinoLCD\test\Pain Drain\libraries\lvgl\src\extra\layouts\flex/lv_flex.c ****     lv_obj_t * item = lv_obj_get_child(cont, item_id);
 340:..\..\..\arduinoLCD\test\Pain Drain\libraries\lvgl\src\extra\layouts\flex/lv_flex.c ****     while(item) {
 341:..\..\..\arduinoLCD\test\Pain Drain\libraries\lvgl\src\extra\layouts\flex/lv_flex.c ****         if(item_id != item_start_id && lv_obj_has_flag(item, LV_OBJ_FLAG_FLEX_IN_NEW_TRACK)) break;
 342:..\..\..\arduinoLCD\test\Pain Drain\libraries\lvgl\src\extra\layouts\flex/lv_flex.c **** 
 343:..\..\..\arduinoLCD\test\Pain Drain\libraries\lvgl\src\extra\layouts\flex/lv_flex.c ****         if(!lv_obj_has_flag_any(item, LV_OBJ_FLAG_IGNORE_LAYOUT | LV_OBJ_FLAG_HIDDEN | LV_OBJ_FLAG_
 344:..\..\..\arduinoLCD\test\Pain Drain\libraries\lvgl\src\extra\layouts\flex/lv_flex.c ****             uint8_t grow_value = lv_obj_get_style_flex_grow(item, LV_PART_MAIN);
 345:..\..\..\arduinoLCD\test\Pain Drain\libraries\lvgl\src\extra\layouts\flex/lv_flex.c ****             if(grow_value) {
 346:..\..\..\arduinoLCD\test\Pain Drain\libraries\lvgl\src\extra\layouts\flex/lv_flex.c ****                 t->grow_item_cnt++;
 347:..\..\..\arduinoLCD\test\Pain Drain\libraries\lvgl\src\extra\layouts\flex/lv_flex.c ****                 t->track_fix_main_size += item_gap;
 348:..\..\..\arduinoLCD\test\Pain Drain\libraries\lvgl\src\extra\layouts\flex/lv_flex.c ****                 if(t->grow_dsc_calc) {
 349:..\..\..\arduinoLCD\test\Pain Drain\libraries\lvgl\src\extra\layouts\flex/lv_flex.c ****                     grow_dsc_t * new_dsc = lv_mem_buf_get(sizeof(grow_dsc_t) * (t->grow_item_cnt));
 350:..\..\..\arduinoLCD\test\Pain Drain\libraries\lvgl\src\extra\layouts\flex/lv_flex.c ****                     LV_ASSERT_MALLOC(new_dsc);
ARM GAS  C:\Users\haske\AppData\Local\Temp\ccVRp2Ta.s 			page 11


 351:..\..\..\arduinoLCD\test\Pain Drain\libraries\lvgl\src\extra\layouts\flex/lv_flex.c ****                     if(new_dsc == NULL) return item_id;
 352:..\..\..\arduinoLCD\test\Pain Drain\libraries\lvgl\src\extra\layouts\flex/lv_flex.c **** 
 353:..\..\..\arduinoLCD\test\Pain Drain\libraries\lvgl\src\extra\layouts\flex/lv_flex.c ****                     if(t->grow_dsc) {
 354:..\..\..\arduinoLCD\test\Pain Drain\libraries\lvgl\src\extra\layouts\flex/lv_flex.c ****                         lv_memcpy(new_dsc, t->grow_dsc, sizeof(grow_dsc_t) * (t->grow_item_cnt - 1)
 355:..\..\..\arduinoLCD\test\Pain Drain\libraries\lvgl\src\extra\layouts\flex/lv_flex.c ****                         lv_mem_buf_release(t->grow_dsc);
 356:..\..\..\arduinoLCD\test\Pain Drain\libraries\lvgl\src\extra\layouts\flex/lv_flex.c ****                     }
 357:..\..\..\arduinoLCD\test\Pain Drain\libraries\lvgl\src\extra\layouts\flex/lv_flex.c ****                     new_dsc[t->grow_item_cnt - 1].item = item;
 358:..\..\..\arduinoLCD\test\Pain Drain\libraries\lvgl\src\extra\layouts\flex/lv_flex.c ****                     new_dsc[t->grow_item_cnt - 1].min_size = f->row ? lv_obj_get_style_min_width(it
 359:..\..\..\arduinoLCD\test\Pain Drain\libraries\lvgl\src\extra\layouts\flex/lv_flex.c ****                                                                                                  LV
 360:..\..\..\arduinoLCD\test\Pain Drain\libraries\lvgl\src\extra\layouts\flex/lv_flex.c ****                     new_dsc[t->grow_item_cnt - 1].max_size = f->row ? lv_obj_get_style_max_width(it
 361:..\..\..\arduinoLCD\test\Pain Drain\libraries\lvgl\src\extra\layouts\flex/lv_flex.c ****                                                                                                  LV
 362:..\..\..\arduinoLCD\test\Pain Drain\libraries\lvgl\src\extra\layouts\flex/lv_flex.c ****                     new_dsc[t->grow_item_cnt - 1].grow_value = grow_value;
 363:..\..\..\arduinoLCD\test\Pain Drain\libraries\lvgl\src\extra\layouts\flex/lv_flex.c ****                     new_dsc[t->grow_item_cnt - 1].clamped = 0;
 364:..\..\..\arduinoLCD\test\Pain Drain\libraries\lvgl\src\extra\layouts\flex/lv_flex.c ****                     t->grow_dsc = new_dsc;
 365:..\..\..\arduinoLCD\test\Pain Drain\libraries\lvgl\src\extra\layouts\flex/lv_flex.c ****                 }
 366:..\..\..\arduinoLCD\test\Pain Drain\libraries\lvgl\src\extra\layouts\flex/lv_flex.c ****             }
 367:..\..\..\arduinoLCD\test\Pain Drain\libraries\lvgl\src\extra\layouts\flex/lv_flex.c ****             else {
 368:..\..\..\arduinoLCD\test\Pain Drain\libraries\lvgl\src\extra\layouts\flex/lv_flex.c ****                 lv_coord_t item_size = get_main_size(item);
 369:..\..\..\arduinoLCD\test\Pain Drain\libraries\lvgl\src\extra\layouts\flex/lv_flex.c ****                 if(f->wrap && t->track_fix_main_size + item_size > max_main_size) break;
 370:..\..\..\arduinoLCD\test\Pain Drain\libraries\lvgl\src\extra\layouts\flex/lv_flex.c ****                 t->track_fix_main_size += item_size + item_gap;
 371:..\..\..\arduinoLCD\test\Pain Drain\libraries\lvgl\src\extra\layouts\flex/lv_flex.c ****             }
 372:..\..\..\arduinoLCD\test\Pain Drain\libraries\lvgl\src\extra\layouts\flex/lv_flex.c **** 
 373:..\..\..\arduinoLCD\test\Pain Drain\libraries\lvgl\src\extra\layouts\flex/lv_flex.c **** 
 374:..\..\..\arduinoLCD\test\Pain Drain\libraries\lvgl\src\extra\layouts\flex/lv_flex.c ****             t->track_cross_size = LV_MAX(get_cross_size(item), t->track_cross_size);
 375:..\..\..\arduinoLCD\test\Pain Drain\libraries\lvgl\src\extra\layouts\flex/lv_flex.c ****             t->item_cnt++;
 376:..\..\..\arduinoLCD\test\Pain Drain\libraries\lvgl\src\extra\layouts\flex/lv_flex.c ****         }
 377:..\..\..\arduinoLCD\test\Pain Drain\libraries\lvgl\src\extra\layouts\flex/lv_flex.c **** 
 378:..\..\..\arduinoLCD\test\Pain Drain\libraries\lvgl\src\extra\layouts\flex/lv_flex.c ****         item_id += f->rev ? -1 : +1;
 379:..\..\..\arduinoLCD\test\Pain Drain\libraries\lvgl\src\extra\layouts\flex/lv_flex.c ****         if(item_id < 0) break;
 380:..\..\..\arduinoLCD\test\Pain Drain\libraries\lvgl\src\extra\layouts\flex/lv_flex.c ****         item = lv_obj_get_child(cont, item_id);
 381:..\..\..\arduinoLCD\test\Pain Drain\libraries\lvgl\src\extra\layouts\flex/lv_flex.c ****     }
 382:..\..\..\arduinoLCD\test\Pain Drain\libraries\lvgl\src\extra\layouts\flex/lv_flex.c **** 
 383:..\..\..\arduinoLCD\test\Pain Drain\libraries\lvgl\src\extra\layouts\flex/lv_flex.c ****     if(t->track_fix_main_size > 0) t->track_fix_main_size -= item_gap; /*There is no gap after the 
 384:..\..\..\arduinoLCD\test\Pain Drain\libraries\lvgl\src\extra\layouts\flex/lv_flex.c **** 
 385:..\..\..\arduinoLCD\test\Pain Drain\libraries\lvgl\src\extra\layouts\flex/lv_flex.c ****     /*If there is at least one "grow item" the track takes the full space*/
 386:..\..\..\arduinoLCD\test\Pain Drain\libraries\lvgl\src\extra\layouts\flex/lv_flex.c ****     t->track_main_size = t->grow_item_cnt ? max_main_size : t->track_fix_main_size;
 387:..\..\..\arduinoLCD\test\Pain Drain\libraries\lvgl\src\extra\layouts\flex/lv_flex.c **** 
 388:..\..\..\arduinoLCD\test\Pain Drain\libraries\lvgl\src\extra\layouts\flex/lv_flex.c ****     /*Have at least one item in a row*/
 389:..\..\..\arduinoLCD\test\Pain Drain\libraries\lvgl\src\extra\layouts\flex/lv_flex.c ****     if(item && item_id == item_start_id) {
 390:..\..\..\arduinoLCD\test\Pain Drain\libraries\lvgl\src\extra\layouts\flex/lv_flex.c ****         item = cont->spec_attr->children[item_id];
 391:..\..\..\arduinoLCD\test\Pain Drain\libraries\lvgl\src\extra\layouts\flex/lv_flex.c ****         get_next_item(cont, f->rev, &item_id);
 392:..\..\..\arduinoLCD\test\Pain Drain\libraries\lvgl\src\extra\layouts\flex/lv_flex.c ****         if(item) {
 393:..\..\..\arduinoLCD\test\Pain Drain\libraries\lvgl\src\extra\layouts\flex/lv_flex.c ****             t->track_cross_size = get_cross_size(item);
 394:..\..\..\arduinoLCD\test\Pain Drain\libraries\lvgl\src\extra\layouts\flex/lv_flex.c ****             t->track_main_size = get_main_size(item);
 395:..\..\..\arduinoLCD\test\Pain Drain\libraries\lvgl\src\extra\layouts\flex/lv_flex.c ****             t->item_cnt = 1;
 396:..\..\..\arduinoLCD\test\Pain Drain\libraries\lvgl\src\extra\layouts\flex/lv_flex.c ****         }
 397:..\..\..\arduinoLCD\test\Pain Drain\libraries\lvgl\src\extra\layouts\flex/lv_flex.c ****     }
 398:..\..\..\arduinoLCD\test\Pain Drain\libraries\lvgl\src\extra\layouts\flex/lv_flex.c **** 
 399:..\..\..\arduinoLCD\test\Pain Drain\libraries\lvgl\src\extra\layouts\flex/lv_flex.c ****     return item_id;
 400:..\..\..\arduinoLCD\test\Pain Drain\libraries\lvgl\src\extra\layouts\flex/lv_flex.c **** }
 401:..\..\..\arduinoLCD\test\Pain Drain\libraries\lvgl\src\extra\layouts\flex/lv_flex.c **** 
 402:..\..\..\arduinoLCD\test\Pain Drain\libraries\lvgl\src\extra\layouts\flex/lv_flex.c **** /**
 403:..\..\..\arduinoLCD\test\Pain Drain\libraries\lvgl\src\extra\layouts\flex/lv_flex.c ****  * Position the children in the same track
 404:..\..\..\arduinoLCD\test\Pain Drain\libraries\lvgl\src\extra\layouts\flex/lv_flex.c ****  */
 405:..\..\..\arduinoLCD\test\Pain Drain\libraries\lvgl\src\extra\layouts\flex/lv_flex.c **** static void children_repos(lv_obj_t * cont, flex_t * f, int32_t item_first_id, int32_t item_last_id
 406:..\..\..\arduinoLCD\test\Pain Drain\libraries\lvgl\src\extra\layouts\flex/lv_flex.c ****                            lv_coord_t abs_y, lv_coord_t max_main_size, lv_coord_t item_gap, track_t
 407:..\..\..\arduinoLCD\test\Pain Drain\libraries\lvgl\src\extra\layouts\flex/lv_flex.c **** {
ARM GAS  C:\Users\haske\AppData\Local\Temp\ccVRp2Ta.s 			page 12


 408:..\..\..\arduinoLCD\test\Pain Drain\libraries\lvgl\src\extra\layouts\flex/lv_flex.c ****     void (*area_set_main_size)(lv_area_t *, lv_coord_t) = (f->row ? lv_area_set_width : lv_area_set
 409:..\..\..\arduinoLCD\test\Pain Drain\libraries\lvgl\src\extra\layouts\flex/lv_flex.c ****     lv_coord_t (*area_get_main_size)(const lv_area_t *) = (f->row ? lv_area_get_width : lv_area_get
 410:..\..\..\arduinoLCD\test\Pain Drain\libraries\lvgl\src\extra\layouts\flex/lv_flex.c ****     lv_coord_t (*area_get_cross_size)(const lv_area_t *) = (!f->row ? lv_area_get_width : lv_area_g
 411:..\..\..\arduinoLCD\test\Pain Drain\libraries\lvgl\src\extra\layouts\flex/lv_flex.c **** 
 412:..\..\..\arduinoLCD\test\Pain Drain\libraries\lvgl\src\extra\layouts\flex/lv_flex.c ****     /*Calculate the size of grow items first*/
 413:..\..\..\arduinoLCD\test\Pain Drain\libraries\lvgl\src\extra\layouts\flex/lv_flex.c ****     uint32_t i;
 414:..\..\..\arduinoLCD\test\Pain Drain\libraries\lvgl\src\extra\layouts\flex/lv_flex.c ****     bool grow_reiterate  = true;
 415:..\..\..\arduinoLCD\test\Pain Drain\libraries\lvgl\src\extra\layouts\flex/lv_flex.c ****     while(grow_reiterate) {
 416:..\..\..\arduinoLCD\test\Pain Drain\libraries\lvgl\src\extra\layouts\flex/lv_flex.c ****         grow_reiterate = false;
 417:..\..\..\arduinoLCD\test\Pain Drain\libraries\lvgl\src\extra\layouts\flex/lv_flex.c ****         lv_coord_t grow_value_sum = 0;
 418:..\..\..\arduinoLCD\test\Pain Drain\libraries\lvgl\src\extra\layouts\flex/lv_flex.c ****         lv_coord_t grow_max_size = t->track_main_size - t->track_fix_main_size;
 419:..\..\..\arduinoLCD\test\Pain Drain\libraries\lvgl\src\extra\layouts\flex/lv_flex.c ****         for(i = 0; i < t->grow_item_cnt; i++) {
 420:..\..\..\arduinoLCD\test\Pain Drain\libraries\lvgl\src\extra\layouts\flex/lv_flex.c ****             if(t->grow_dsc[i].clamped == 0) {
 421:..\..\..\arduinoLCD\test\Pain Drain\libraries\lvgl\src\extra\layouts\flex/lv_flex.c ****                 grow_value_sum += t->grow_dsc[i].grow_value;
 422:..\..\..\arduinoLCD\test\Pain Drain\libraries\lvgl\src\extra\layouts\flex/lv_flex.c ****             }
 423:..\..\..\arduinoLCD\test\Pain Drain\libraries\lvgl\src\extra\layouts\flex/lv_flex.c ****             else {
 424:..\..\..\arduinoLCD\test\Pain Drain\libraries\lvgl\src\extra\layouts\flex/lv_flex.c ****                 grow_max_size -= t->grow_dsc[i].final_size;
 425:..\..\..\arduinoLCD\test\Pain Drain\libraries\lvgl\src\extra\layouts\flex/lv_flex.c ****             }
 426:..\..\..\arduinoLCD\test\Pain Drain\libraries\lvgl\src\extra\layouts\flex/lv_flex.c ****         }
 427:..\..\..\arduinoLCD\test\Pain Drain\libraries\lvgl\src\extra\layouts\flex/lv_flex.c ****         lv_coord_t grow_unit;
 428:..\..\..\arduinoLCD\test\Pain Drain\libraries\lvgl\src\extra\layouts\flex/lv_flex.c **** 
 429:..\..\..\arduinoLCD\test\Pain Drain\libraries\lvgl\src\extra\layouts\flex/lv_flex.c ****         for(i = 0; i < t->grow_item_cnt; i++) {
 430:..\..\..\arduinoLCD\test\Pain Drain\libraries\lvgl\src\extra\layouts\flex/lv_flex.c ****             if(t->grow_dsc[i].clamped == 0) {
 431:..\..\..\arduinoLCD\test\Pain Drain\libraries\lvgl\src\extra\layouts\flex/lv_flex.c ****                 LV_ASSERT(grow_value_sum != 0);
 432:..\..\..\arduinoLCD\test\Pain Drain\libraries\lvgl\src\extra\layouts\flex/lv_flex.c ****                 grow_unit = grow_max_size / grow_value_sum;
 433:..\..\..\arduinoLCD\test\Pain Drain\libraries\lvgl\src\extra\layouts\flex/lv_flex.c ****                 lv_coord_t size = grow_unit * t->grow_dsc[i].grow_value;
 434:..\..\..\arduinoLCD\test\Pain Drain\libraries\lvgl\src\extra\layouts\flex/lv_flex.c ****                 lv_coord_t size_clamp = LV_CLAMP(t->grow_dsc[i].min_size, size, t->grow_dsc[i].max_
 435:..\..\..\arduinoLCD\test\Pain Drain\libraries\lvgl\src\extra\layouts\flex/lv_flex.c **** 
 436:..\..\..\arduinoLCD\test\Pain Drain\libraries\lvgl\src\extra\layouts\flex/lv_flex.c ****                 if(size_clamp != size) {
 437:..\..\..\arduinoLCD\test\Pain Drain\libraries\lvgl\src\extra\layouts\flex/lv_flex.c ****                     t->grow_dsc[i].clamped = 1;
 438:..\..\..\arduinoLCD\test\Pain Drain\libraries\lvgl\src\extra\layouts\flex/lv_flex.c ****                     grow_reiterate = true;
 439:..\..\..\arduinoLCD\test\Pain Drain\libraries\lvgl\src\extra\layouts\flex/lv_flex.c ****                 }
 440:..\..\..\arduinoLCD\test\Pain Drain\libraries\lvgl\src\extra\layouts\flex/lv_flex.c ****                 t->grow_dsc[i].final_size = size_clamp;
 441:..\..\..\arduinoLCD\test\Pain Drain\libraries\lvgl\src\extra\layouts\flex/lv_flex.c ****                 grow_value_sum -= t->grow_dsc[i].grow_value;
 442:..\..\..\arduinoLCD\test\Pain Drain\libraries\lvgl\src\extra\layouts\flex/lv_flex.c ****                 grow_max_size  -= t->grow_dsc[i].final_size;
 443:..\..\..\arduinoLCD\test\Pain Drain\libraries\lvgl\src\extra\layouts\flex/lv_flex.c ****             }
 444:..\..\..\arduinoLCD\test\Pain Drain\libraries\lvgl\src\extra\layouts\flex/lv_flex.c ****         }
 445:..\..\..\arduinoLCD\test\Pain Drain\libraries\lvgl\src\extra\layouts\flex/lv_flex.c ****     }
 446:..\..\..\arduinoLCD\test\Pain Drain\libraries\lvgl\src\extra\layouts\flex/lv_flex.c **** 
 447:..\..\..\arduinoLCD\test\Pain Drain\libraries\lvgl\src\extra\layouts\flex/lv_flex.c **** 
 448:..\..\..\arduinoLCD\test\Pain Drain\libraries\lvgl\src\extra\layouts\flex/lv_flex.c ****     bool rtl = lv_obj_get_style_base_dir(cont, LV_PART_MAIN) == LV_BASE_DIR_RTL ? true : false;
 449:..\..\..\arduinoLCD\test\Pain Drain\libraries\lvgl\src\extra\layouts\flex/lv_flex.c **** 
 450:..\..\..\arduinoLCD\test\Pain Drain\libraries\lvgl\src\extra\layouts\flex/lv_flex.c ****     lv_coord_t main_pos = 0;
 451:..\..\..\arduinoLCD\test\Pain Drain\libraries\lvgl\src\extra\layouts\flex/lv_flex.c **** 
 452:..\..\..\arduinoLCD\test\Pain Drain\libraries\lvgl\src\extra\layouts\flex/lv_flex.c ****     lv_coord_t place_gap = 0;
 453:..\..\..\arduinoLCD\test\Pain Drain\libraries\lvgl\src\extra\layouts\flex/lv_flex.c ****     place_content(f->main_place, max_main_size, t->track_main_size, t->item_cnt, &main_pos, &place_
 454:..\..\..\arduinoLCD\test\Pain Drain\libraries\lvgl\src\extra\layouts\flex/lv_flex.c ****     if(f->row && rtl) main_pos += lv_obj_get_content_width(cont);
 455:..\..\..\arduinoLCD\test\Pain Drain\libraries\lvgl\src\extra\layouts\flex/lv_flex.c **** 
 456:..\..\..\arduinoLCD\test\Pain Drain\libraries\lvgl\src\extra\layouts\flex/lv_flex.c ****     lv_obj_t * item = lv_obj_get_child(cont, item_first_id);
 457:..\..\..\arduinoLCD\test\Pain Drain\libraries\lvgl\src\extra\layouts\flex/lv_flex.c ****     /*Reposition the children*/
 458:..\..\..\arduinoLCD\test\Pain Drain\libraries\lvgl\src\extra\layouts\flex/lv_flex.c ****     while(item && item_first_id != item_last_id) {
 459:..\..\..\arduinoLCD\test\Pain Drain\libraries\lvgl\src\extra\layouts\flex/lv_flex.c ****         if(lv_obj_has_flag_any(item, LV_OBJ_FLAG_IGNORE_LAYOUT | LV_OBJ_FLAG_HIDDEN | LV_OBJ_FLAG_F
 460:..\..\..\arduinoLCD\test\Pain Drain\libraries\lvgl\src\extra\layouts\flex/lv_flex.c ****             item = get_next_item(cont, f->rev, &item_first_id);
 461:..\..\..\arduinoLCD\test\Pain Drain\libraries\lvgl\src\extra\layouts\flex/lv_flex.c ****             continue;
 462:..\..\..\arduinoLCD\test\Pain Drain\libraries\lvgl\src\extra\layouts\flex/lv_flex.c ****         }
 463:..\..\..\arduinoLCD\test\Pain Drain\libraries\lvgl\src\extra\layouts\flex/lv_flex.c ****         lv_coord_t grow_size = lv_obj_get_style_flex_grow(item, LV_PART_MAIN);
 464:..\..\..\arduinoLCD\test\Pain Drain\libraries\lvgl\src\extra\layouts\flex/lv_flex.c ****         if(grow_size) {
ARM GAS  C:\Users\haske\AppData\Local\Temp\ccVRp2Ta.s 			page 13


 465:..\..\..\arduinoLCD\test\Pain Drain\libraries\lvgl\src\extra\layouts\flex/lv_flex.c ****             lv_coord_t s = 0;
 466:..\..\..\arduinoLCD\test\Pain Drain\libraries\lvgl\src\extra\layouts\flex/lv_flex.c ****             for(i = 0; i < t->grow_item_cnt; i++) {
 467:..\..\..\arduinoLCD\test\Pain Drain\libraries\lvgl\src\extra\layouts\flex/lv_flex.c ****                 if(t->grow_dsc[i].item == item) {
 468:..\..\..\arduinoLCD\test\Pain Drain\libraries\lvgl\src\extra\layouts\flex/lv_flex.c ****                     s = t->grow_dsc[i].final_size;
 469:..\..\..\arduinoLCD\test\Pain Drain\libraries\lvgl\src\extra\layouts\flex/lv_flex.c ****                     break;
 470:..\..\..\arduinoLCD\test\Pain Drain\libraries\lvgl\src\extra\layouts\flex/lv_flex.c ****                 }
 471:..\..\..\arduinoLCD\test\Pain Drain\libraries\lvgl\src\extra\layouts\flex/lv_flex.c ****             }
 472:..\..\..\arduinoLCD\test\Pain Drain\libraries\lvgl\src\extra\layouts\flex/lv_flex.c **** 
 473:..\..\..\arduinoLCD\test\Pain Drain\libraries\lvgl\src\extra\layouts\flex/lv_flex.c ****             if(f->row) {
 474:..\..\..\arduinoLCD\test\Pain Drain\libraries\lvgl\src\extra\layouts\flex/lv_flex.c ****                 item->w_layout = 1;
 475:..\..\..\arduinoLCD\test\Pain Drain\libraries\lvgl\src\extra\layouts\flex/lv_flex.c ****                 item->h_layout = 0;
 476:..\..\..\arduinoLCD\test\Pain Drain\libraries\lvgl\src\extra\layouts\flex/lv_flex.c ****             }
 477:..\..\..\arduinoLCD\test\Pain Drain\libraries\lvgl\src\extra\layouts\flex/lv_flex.c ****             else {
 478:..\..\..\arduinoLCD\test\Pain Drain\libraries\lvgl\src\extra\layouts\flex/lv_flex.c ****                 item->h_layout = 1;
 479:..\..\..\arduinoLCD\test\Pain Drain\libraries\lvgl\src\extra\layouts\flex/lv_flex.c ****                 item->w_layout = 0;
 480:..\..\..\arduinoLCD\test\Pain Drain\libraries\lvgl\src\extra\layouts\flex/lv_flex.c ****             }
 481:..\..\..\arduinoLCD\test\Pain Drain\libraries\lvgl\src\extra\layouts\flex/lv_flex.c **** 
 482:..\..\..\arduinoLCD\test\Pain Drain\libraries\lvgl\src\extra\layouts\flex/lv_flex.c ****             if(s != area_get_main_size(&item->coords)) {
 483:..\..\..\arduinoLCD\test\Pain Drain\libraries\lvgl\src\extra\layouts\flex/lv_flex.c ****                 lv_obj_invalidate(item);
 484:..\..\..\arduinoLCD\test\Pain Drain\libraries\lvgl\src\extra\layouts\flex/lv_flex.c **** 
 485:..\..\..\arduinoLCD\test\Pain Drain\libraries\lvgl\src\extra\layouts\flex/lv_flex.c ****                 lv_area_t old_coords;
 486:..\..\..\arduinoLCD\test\Pain Drain\libraries\lvgl\src\extra\layouts\flex/lv_flex.c ****                 lv_area_copy(&old_coords, &item->coords);
 487:..\..\..\arduinoLCD\test\Pain Drain\libraries\lvgl\src\extra\layouts\flex/lv_flex.c ****                 area_set_main_size(&item->coords, s);
 488:..\..\..\arduinoLCD\test\Pain Drain\libraries\lvgl\src\extra\layouts\flex/lv_flex.c ****                 lv_event_send(item, LV_EVENT_SIZE_CHANGED, &old_coords);
 489:..\..\..\arduinoLCD\test\Pain Drain\libraries\lvgl\src\extra\layouts\flex/lv_flex.c ****                 lv_event_send(lv_obj_get_parent(item), LV_EVENT_CHILD_CHANGED, item);
 490:..\..\..\arduinoLCD\test\Pain Drain\libraries\lvgl\src\extra\layouts\flex/lv_flex.c ****                 lv_obj_invalidate(item);
 491:..\..\..\arduinoLCD\test\Pain Drain\libraries\lvgl\src\extra\layouts\flex/lv_flex.c ****             }
 492:..\..\..\arduinoLCD\test\Pain Drain\libraries\lvgl\src\extra\layouts\flex/lv_flex.c ****         }
 493:..\..\..\arduinoLCD\test\Pain Drain\libraries\lvgl\src\extra\layouts\flex/lv_flex.c ****         else {
 494:..\..\..\arduinoLCD\test\Pain Drain\libraries\lvgl\src\extra\layouts\flex/lv_flex.c ****             item->w_layout = 0;
 495:..\..\..\arduinoLCD\test\Pain Drain\libraries\lvgl\src\extra\layouts\flex/lv_flex.c ****             item->h_layout = 0;
 496:..\..\..\arduinoLCD\test\Pain Drain\libraries\lvgl\src\extra\layouts\flex/lv_flex.c ****         }
 497:..\..\..\arduinoLCD\test\Pain Drain\libraries\lvgl\src\extra\layouts\flex/lv_flex.c **** 
 498:..\..\..\arduinoLCD\test\Pain Drain\libraries\lvgl\src\extra\layouts\flex/lv_flex.c ****         lv_coord_t cross_pos = 0;
 499:..\..\..\arduinoLCD\test\Pain Drain\libraries\lvgl\src\extra\layouts\flex/lv_flex.c ****         switch(f->cross_place) {
 500:..\..\..\arduinoLCD\test\Pain Drain\libraries\lvgl\src\extra\layouts\flex/lv_flex.c ****             case LV_FLEX_ALIGN_CENTER:
 501:..\..\..\arduinoLCD\test\Pain Drain\libraries\lvgl\src\extra\layouts\flex/lv_flex.c ****                 /*Round up the cross size to avoid rounding error when dividing by 2
 502:..\..\..\arduinoLCD\test\Pain Drain\libraries\lvgl\src\extra\layouts\flex/lv_flex.c ****                  *The issue comes up e,g, with column direction with center cross direction if an e
 503:..\..\..\arduinoLCD\test\Pain Drain\libraries\lvgl\src\extra\layouts\flex/lv_flex.c ****                 cross_pos = (((t->track_cross_size + 1) & (~1)) - area_get_cross_size(&item->coords
 504:..\..\..\arduinoLCD\test\Pain Drain\libraries\lvgl\src\extra\layouts\flex/lv_flex.c ****                 break;
 505:..\..\..\arduinoLCD\test\Pain Drain\libraries\lvgl\src\extra\layouts\flex/lv_flex.c ****             case LV_FLEX_ALIGN_END:
 506:..\..\..\arduinoLCD\test\Pain Drain\libraries\lvgl\src\extra\layouts\flex/lv_flex.c ****                 cross_pos = t->track_cross_size - area_get_cross_size(&item->coords);
 507:..\..\..\arduinoLCD\test\Pain Drain\libraries\lvgl\src\extra\layouts\flex/lv_flex.c ****                 break;
 508:..\..\..\arduinoLCD\test\Pain Drain\libraries\lvgl\src\extra\layouts\flex/lv_flex.c ****             default:
 509:..\..\..\arduinoLCD\test\Pain Drain\libraries\lvgl\src\extra\layouts\flex/lv_flex.c ****                 break;
 510:..\..\..\arduinoLCD\test\Pain Drain\libraries\lvgl\src\extra\layouts\flex/lv_flex.c ****         }
 511:..\..\..\arduinoLCD\test\Pain Drain\libraries\lvgl\src\extra\layouts\flex/lv_flex.c **** 
 512:..\..\..\arduinoLCD\test\Pain Drain\libraries\lvgl\src\extra\layouts\flex/lv_flex.c ****         if(f->row && rtl) main_pos -= area_get_main_size(&item->coords);
 513:..\..\..\arduinoLCD\test\Pain Drain\libraries\lvgl\src\extra\layouts\flex/lv_flex.c **** 
 514:..\..\..\arduinoLCD\test\Pain Drain\libraries\lvgl\src\extra\layouts\flex/lv_flex.c **** 
 515:..\..\..\arduinoLCD\test\Pain Drain\libraries\lvgl\src\extra\layouts\flex/lv_flex.c ****         /*Handle percentage value of translate*/
 516:..\..\..\arduinoLCD\test\Pain Drain\libraries\lvgl\src\extra\layouts\flex/lv_flex.c ****         lv_coord_t tr_x = lv_obj_get_style_translate_x(item, LV_PART_MAIN);
 517:..\..\..\arduinoLCD\test\Pain Drain\libraries\lvgl\src\extra\layouts\flex/lv_flex.c ****         lv_coord_t tr_y = lv_obj_get_style_translate_y(item, LV_PART_MAIN);
 518:..\..\..\arduinoLCD\test\Pain Drain\libraries\lvgl\src\extra\layouts\flex/lv_flex.c ****         lv_coord_t w = lv_obj_get_width(item);
 519:..\..\..\arduinoLCD\test\Pain Drain\libraries\lvgl\src\extra\layouts\flex/lv_flex.c ****         lv_coord_t h = lv_obj_get_height(item);
 520:..\..\..\arduinoLCD\test\Pain Drain\libraries\lvgl\src\extra\layouts\flex/lv_flex.c ****         if(LV_COORD_IS_PCT(tr_x)) tr_x = (w * LV_COORD_GET_PCT(tr_x)) / 100;
 521:..\..\..\arduinoLCD\test\Pain Drain\libraries\lvgl\src\extra\layouts\flex/lv_flex.c ****         if(LV_COORD_IS_PCT(tr_y)) tr_y = (h * LV_COORD_GET_PCT(tr_y)) / 100;
ARM GAS  C:\Users\haske\AppData\Local\Temp\ccVRp2Ta.s 			page 14


 522:..\..\..\arduinoLCD\test\Pain Drain\libraries\lvgl\src\extra\layouts\flex/lv_flex.c **** 
 523:..\..\..\arduinoLCD\test\Pain Drain\libraries\lvgl\src\extra\layouts\flex/lv_flex.c ****         lv_coord_t diff_x = abs_x - item->coords.x1 + tr_x;
 524:..\..\..\arduinoLCD\test\Pain Drain\libraries\lvgl\src\extra\layouts\flex/lv_flex.c ****         lv_coord_t diff_y = abs_y - item->coords.y1 + tr_y;
 525:..\..\..\arduinoLCD\test\Pain Drain\libraries\lvgl\src\extra\layouts\flex/lv_flex.c ****         diff_x += f->row ? main_pos : cross_pos;
 526:..\..\..\arduinoLCD\test\Pain Drain\libraries\lvgl\src\extra\layouts\flex/lv_flex.c ****         diff_y += f->row ? cross_pos : main_pos;
 527:..\..\..\arduinoLCD\test\Pain Drain\libraries\lvgl\src\extra\layouts\flex/lv_flex.c **** 
 528:..\..\..\arduinoLCD\test\Pain Drain\libraries\lvgl\src\extra\layouts\flex/lv_flex.c ****         if(diff_x || diff_y) {
 529:..\..\..\arduinoLCD\test\Pain Drain\libraries\lvgl\src\extra\layouts\flex/lv_flex.c ****             lv_obj_invalidate(item);
 530:..\..\..\arduinoLCD\test\Pain Drain\libraries\lvgl\src\extra\layouts\flex/lv_flex.c ****             item->coords.x1 += diff_x;
 531:..\..\..\arduinoLCD\test\Pain Drain\libraries\lvgl\src\extra\layouts\flex/lv_flex.c ****             item->coords.x2 += diff_x;
 532:..\..\..\arduinoLCD\test\Pain Drain\libraries\lvgl\src\extra\layouts\flex/lv_flex.c ****             item->coords.y1 += diff_y;
 533:..\..\..\arduinoLCD\test\Pain Drain\libraries\lvgl\src\extra\layouts\flex/lv_flex.c ****             item->coords.y2 += diff_y;
 534:..\..\..\arduinoLCD\test\Pain Drain\libraries\lvgl\src\extra\layouts\flex/lv_flex.c ****             lv_obj_invalidate(item);
 535:..\..\..\arduinoLCD\test\Pain Drain\libraries\lvgl\src\extra\layouts\flex/lv_flex.c ****             lv_obj_move_children_by(item, diff_x, diff_y, false);
 536:..\..\..\arduinoLCD\test\Pain Drain\libraries\lvgl\src\extra\layouts\flex/lv_flex.c ****         }
 537:..\..\..\arduinoLCD\test\Pain Drain\libraries\lvgl\src\extra\layouts\flex/lv_flex.c **** 
 538:..\..\..\arduinoLCD\test\Pain Drain\libraries\lvgl\src\extra\layouts\flex/lv_flex.c ****         if(!(f->row && rtl)) main_pos += area_get_main_size(&item->coords) + item_gap + place_gap;
 539:..\..\..\arduinoLCD\test\Pain Drain\libraries\lvgl\src\extra\layouts\flex/lv_flex.c ****         else main_pos -= item_gap + place_gap;
 540:..\..\..\arduinoLCD\test\Pain Drain\libraries\lvgl\src\extra\layouts\flex/lv_flex.c **** 
 541:..\..\..\arduinoLCD\test\Pain Drain\libraries\lvgl\src\extra\layouts\flex/lv_flex.c ****         item = get_next_item(cont, f->rev, &item_first_id);
 542:..\..\..\arduinoLCD\test\Pain Drain\libraries\lvgl\src\extra\layouts\flex/lv_flex.c ****     }
 543:..\..\..\arduinoLCD\test\Pain Drain\libraries\lvgl\src\extra\layouts\flex/lv_flex.c **** }
 544:..\..\..\arduinoLCD\test\Pain Drain\libraries\lvgl\src\extra\layouts\flex/lv_flex.c **** 
 545:..\..\..\arduinoLCD\test\Pain Drain\libraries\lvgl\src\extra\layouts\flex/lv_flex.c **** /**
 546:..\..\..\arduinoLCD\test\Pain Drain\libraries\lvgl\src\extra\layouts\flex/lv_flex.c ****  * Tell a start coordinate and gap for a placement type.
 547:..\..\..\arduinoLCD\test\Pain Drain\libraries\lvgl\src\extra\layouts\flex/lv_flex.c ****  */
 548:..\..\..\arduinoLCD\test\Pain Drain\libraries\lvgl\src\extra\layouts\flex/lv_flex.c **** static void place_content(lv_flex_align_t place, lv_coord_t max_size, lv_coord_t content_size, lv_c
 549:..\..\..\arduinoLCD\test\Pain Drain\libraries\lvgl\src\extra\layouts\flex/lv_flex.c ****                           lv_coord_t * start_pos, lv_coord_t * gap)
 550:..\..\..\arduinoLCD\test\Pain Drain\libraries\lvgl\src\extra\layouts\flex/lv_flex.c **** {
  85              		.loc 2 550 0
  86              		.cfi_startproc
  87              		@ args = 8, pretend = 0, frame = 0
  88              		@ frame_needed = 0, uses_anonymous_args = 0
  89              	.LVL4:
  90 0000 10B5     		push	{r4, lr}
  91              		.cfi_def_cfa_offset 8
  92              		.cfi_offset 4, -8
  93              		.cfi_offset 14, -4
 551:..\..\..\arduinoLCD\test\Pain Drain\libraries\lvgl\src\extra\layouts\flex/lv_flex.c ****     if(item_cnt <= 1) {
  94              		.loc 2 551 0
  95 0002 012B     		cmp	r3, #1
  96 0004 04DC     		bgt	.L4
 552:..\..\..\arduinoLCD\test\Pain Drain\libraries\lvgl\src\extra\layouts\flex/lv_flex.c ****         switch(place) {
  97              		.loc 2 552 0
  98 0006 C41E     		subs	r4, r0, #3
  99 0008 E4B2     		uxtb	r4, r4
 100 000a 022C     		cmp	r4, #2
 101 000c 00D8     		bhi	.L4
 553:..\..\..\arduinoLCD\test\Pain Drain\libraries\lvgl\src\extra\layouts\flex/lv_flex.c ****             case LV_FLEX_ALIGN_SPACE_BETWEEN:
 554:..\..\..\arduinoLCD\test\Pain Drain\libraries\lvgl\src\extra\layouts\flex/lv_flex.c ****             case LV_FLEX_ALIGN_SPACE_AROUND:
 555:..\..\..\arduinoLCD\test\Pain Drain\libraries\lvgl\src\extra\layouts\flex/lv_flex.c ****             case LV_FLEX_ALIGN_SPACE_EVENLY:
 556:..\..\..\arduinoLCD\test\Pain Drain\libraries\lvgl\src\extra\layouts\flex/lv_flex.c ****                 place = LV_FLEX_ALIGN_CENTER;
 102              		.loc 2 556 0
 103 000e 0220     		movs	r0, #2
 104              	.LVL5:
 105              	.L4:
 557:..\..\..\arduinoLCD\test\Pain Drain\libraries\lvgl\src\extra\layouts\flex/lv_flex.c ****                 break;
ARM GAS  C:\Users\haske\AppData\Local\Temp\ccVRp2Ta.s 			page 15


 558:..\..\..\arduinoLCD\test\Pain Drain\libraries\lvgl\src\extra\layouts\flex/lv_flex.c ****             default:
 559:..\..\..\arduinoLCD\test\Pain Drain\libraries\lvgl\src\extra\layouts\flex/lv_flex.c ****                 break;
 560:..\..\..\arduinoLCD\test\Pain Drain\libraries\lvgl\src\extra\layouts\flex/lv_flex.c ****         }
 561:..\..\..\arduinoLCD\test\Pain Drain\libraries\lvgl\src\extra\layouts\flex/lv_flex.c ****     }
 562:..\..\..\arduinoLCD\test\Pain Drain\libraries\lvgl\src\extra\layouts\flex/lv_flex.c **** 
 563:..\..\..\arduinoLCD\test\Pain Drain\libraries\lvgl\src\extra\layouts\flex/lv_flex.c ****     switch(place) {
 106              		.loc 2 563 0
 107 0010 0528     		cmp	r0, #5
 108 0012 44D8     		bhi	.L6
 109 0014 8000     		lsls	r0, r0, #2
 110              	.LVL6:
 111 0016 244C     		ldr	r4, .L15
 112 0018 2458     		ldr	r4, [r4, r0]
 113 001a A746     		mov	pc, r4
 114              		.section	.rodata
 115              		.align	2
 116              	.L8:
 117 0000 9E000000 		.word	.L6
 118 0004 34000000 		.word	.L7
 119 0008 1C000000 		.word	.L9
 120 000c 80000000 		.word	.L10
 121 0010 58000000 		.word	.L11
 122 0014 46000000 		.word	.L12
 123              		.section	.text.place_content
 124              	.L9:
 564:..\..\..\arduinoLCD\test\Pain Drain\libraries\lvgl\src\extra\layouts\flex/lv_flex.c ****         case LV_FLEX_ALIGN_CENTER:
 565:..\..\..\arduinoLCD\test\Pain Drain\libraries\lvgl\src\extra\layouts\flex/lv_flex.c ****             *gap = 0;
 125              		.loc 2 565 0
 126 001c 0023     		movs	r3, #0
 127              	.LVL7:
 128 001e 0398     		ldr	r0, [sp, #12]
 129 0020 0380     		strh	r3, [r0]
 566:..\..\..\arduinoLCD\test\Pain Drain\libraries\lvgl\src\extra\layouts\flex/lv_flex.c ****             *start_pos += (max_size - content_size) / 2;
 130              		.loc 2 566 0
 131 0022 8A1A     		subs	r2, r1, r2
 132              	.LVL8:
 133 0024 D10F     		lsrs	r1, r2, #31
 134              	.LVL9:
 135 0026 8918     		adds	r1, r1, r2
 136 0028 4910     		asrs	r1, r1, #1
 137 002a 029B     		ldr	r3, [sp, #8]
 138 002c 1A88     		ldrh	r2, [r3]
 139 002e 5118     		adds	r1, r2, r1
 140 0030 1980     		strh	r1, [r3]
 567:..\..\..\arduinoLCD\test\Pain Drain\libraries\lvgl\src\extra\layouts\flex/lv_flex.c ****             break;
 141              		.loc 2 567 0
 142 0032 37E0     		b	.L3
 143              	.LVL10:
 144              	.L7:
 568:..\..\..\arduinoLCD\test\Pain Drain\libraries\lvgl\src\extra\layouts\flex/lv_flex.c ****         case LV_FLEX_ALIGN_END:
 569:..\..\..\arduinoLCD\test\Pain Drain\libraries\lvgl\src\extra\layouts\flex/lv_flex.c ****             *gap = 0;
 145              		.loc 2 569 0
 146 0034 0023     		movs	r3, #0
 147              	.LVL11:
 148 0036 0398     		ldr	r0, [sp, #12]
 149 0038 0380     		strh	r3, [r0]
 570:..\..\..\arduinoLCD\test\Pain Drain\libraries\lvgl\src\extra\layouts\flex/lv_flex.c ****             *start_pos += max_size - content_size;
ARM GAS  C:\Users\haske\AppData\Local\Temp\ccVRp2Ta.s 			page 16


 150              		.loc 2 570 0
 151 003a 8A1A     		subs	r2, r1, r2
 152              	.LVL12:
 153 003c 029B     		ldr	r3, [sp, #8]
 154 003e 1988     		ldrh	r1, [r3]
 155              	.LVL13:
 156 0040 8918     		adds	r1, r1, r2
 157 0042 1980     		strh	r1, [r3]
 571:..\..\..\arduinoLCD\test\Pain Drain\libraries\lvgl\src\extra\layouts\flex/lv_flex.c ****             break;
 158              		.loc 2 571 0
 159 0044 2EE0     		b	.L3
 160              	.LVL14:
 161              	.L12:
 572:..\..\..\arduinoLCD\test\Pain Drain\libraries\lvgl\src\extra\layouts\flex/lv_flex.c ****         case LV_FLEX_ALIGN_SPACE_BETWEEN:
 573:..\..\..\arduinoLCD\test\Pain Drain\libraries\lvgl\src\extra\layouts\flex/lv_flex.c ****             *gap = (lv_coord_t)(max_size - content_size) / (lv_coord_t)(item_cnt - 1);
 162              		.loc 2 573 0
 163 0046 881A     		subs	r0, r1, r2
 164 0048 00B2     		sxth	r0, r0
 165 004a 013B     		subs	r3, r3, #1
 166              	.LVL15:
 167 004c 19B2     		sxth	r1, r3
 168              	.LVL16:
 169 004e FFF7FEFF 		bl	__aeabi_idiv
 170              	.LVL17:
 171 0052 039B     		ldr	r3, [sp, #12]
 172 0054 1880     		strh	r0, [r3]
 574:..\..\..\arduinoLCD\test\Pain Drain\libraries\lvgl\src\extra\layouts\flex/lv_flex.c ****             break;
 173              		.loc 2 574 0
 174 0056 25E0     		b	.L3
 175              	.LVL18:
 176              	.L11:
 575:..\..\..\arduinoLCD\test\Pain Drain\libraries\lvgl\src\extra\layouts\flex/lv_flex.c ****         case LV_FLEX_ALIGN_SPACE_AROUND:
 576:..\..\..\arduinoLCD\test\Pain Drain\libraries\lvgl\src\extra\layouts\flex/lv_flex.c ****             *gap += (lv_coord_t)(max_size - content_size) / (lv_coord_t)(item_cnt);
 177              		.loc 2 576 0
 178 0058 881A     		subs	r0, r1, r2
 179 005a 00B2     		sxth	r0, r0
 180 005c 1900     		movs	r1, r3
 181              	.LVL19:
 182 005e FFF7FEFF 		bl	__aeabi_idiv
 183              	.LVL20:
 184 0062 039B     		ldr	r3, [sp, #12]
 185 0064 1B88     		ldrh	r3, [r3]
 186 0066 1818     		adds	r0, r3, r0
 187 0068 00B2     		sxth	r0, r0
 188 006a 039B     		ldr	r3, [sp, #12]
 189 006c 1880     		strh	r0, [r3]
 577:..\..\..\arduinoLCD\test\Pain Drain\libraries\lvgl\src\extra\layouts\flex/lv_flex.c ****             *start_pos += *gap / 2;
 190              		.loc 2 577 0
 191 006e C30F     		lsrs	r3, r0, #31
 192 0070 1818     		adds	r0, r3, r0
 193 0072 4010     		asrs	r0, r0, #1
 194 0074 029B     		ldr	r3, [sp, #8]
 195 0076 1B88     		ldrh	r3, [r3]
 196 0078 1818     		adds	r0, r3, r0
 197 007a 029B     		ldr	r3, [sp, #8]
 198 007c 1880     		strh	r0, [r3]
 578:..\..\..\arduinoLCD\test\Pain Drain\libraries\lvgl\src\extra\layouts\flex/lv_flex.c ****             break;
ARM GAS  C:\Users\haske\AppData\Local\Temp\ccVRp2Ta.s 			page 17


 199              		.loc 2 578 0
 200 007e 11E0     		b	.L3
 201              	.LVL21:
 202              	.L10:
 579:..\..\..\arduinoLCD\test\Pain Drain\libraries\lvgl\src\extra\layouts\flex/lv_flex.c ****         case LV_FLEX_ALIGN_SPACE_EVENLY:
 580:..\..\..\arduinoLCD\test\Pain Drain\libraries\lvgl\src\extra\layouts\flex/lv_flex.c ****             *gap = (lv_coord_t)(max_size - content_size) / (lv_coord_t)(item_cnt + 1);
 203              		.loc 2 580 0
 204 0080 881A     		subs	r0, r1, r2
 205 0082 00B2     		sxth	r0, r0
 206 0084 0133     		adds	r3, r3, #1
 207              	.LVL22:
 208 0086 19B2     		sxth	r1, r3
 209              	.LVL23:
 210 0088 FFF7FEFF 		bl	__aeabi_idiv
 211              	.LVL24:
 212 008c 00B2     		sxth	r0, r0
 213 008e 039B     		ldr	r3, [sp, #12]
 214 0090 1880     		strh	r0, [r3]
 581:..\..\..\arduinoLCD\test\Pain Drain\libraries\lvgl\src\extra\layouts\flex/lv_flex.c ****             *start_pos += *gap;
 215              		.loc 2 581 0
 216 0092 029B     		ldr	r3, [sp, #8]
 217 0094 1B88     		ldrh	r3, [r3]
 218 0096 C018     		adds	r0, r0, r3
 219 0098 029B     		ldr	r3, [sp, #8]
 220 009a 1880     		strh	r0, [r3]
 582:..\..\..\arduinoLCD\test\Pain Drain\libraries\lvgl\src\extra\layouts\flex/lv_flex.c ****             break;
 221              		.loc 2 582 0
 222 009c 02E0     		b	.L3
 223              	.LVL25:
 224              	.L6:
 583:..\..\..\arduinoLCD\test\Pain Drain\libraries\lvgl\src\extra\layouts\flex/lv_flex.c ****         default:
 584:..\..\..\arduinoLCD\test\Pain Drain\libraries\lvgl\src\extra\layouts\flex/lv_flex.c ****             *gap = 0;
 225              		.loc 2 584 0
 226 009e 0023     		movs	r3, #0
 227              	.LVL26:
 228 00a0 039A     		ldr	r2, [sp, #12]
 229              	.LVL27:
 230 00a2 1380     		strh	r3, [r2]
 231              	.LVL28:
 232              	.L3:
 585:..\..\..\arduinoLCD\test\Pain Drain\libraries\lvgl\src\extra\layouts\flex/lv_flex.c ****     }
 586:..\..\..\arduinoLCD\test\Pain Drain\libraries\lvgl\src\extra\layouts\flex/lv_flex.c **** }
 233              		.loc 2 586 0
 234              		@ sp needed
 235 00a4 10BD     		pop	{r4, pc}
 236              	.L16:
 237 00a6 C046     		.align	2
 238              	.L15:
 239 00a8 00000000 		.word	.L8
 240              		.cfi_endproc
 241              	.LFE192:
 242              		.size	place_content, .-place_content
 243              		.section	.text.get_next_item,"ax",%progbits
 244              		.align	2
 245              		.code	16
 246              		.thumb_func
 247              		.type	get_next_item, %function
ARM GAS  C:\Users\haske\AppData\Local\Temp\ccVRp2Ta.s 			page 18


 248              	get_next_item:
 249              	.LFB193:
 587:..\..\..\arduinoLCD\test\Pain Drain\libraries\lvgl\src\extra\layouts\flex/lv_flex.c **** 
 588:..\..\..\arduinoLCD\test\Pain Drain\libraries\lvgl\src\extra\layouts\flex/lv_flex.c **** static lv_obj_t * get_next_item(lv_obj_t * cont, bool rev, int32_t * item_id)
 589:..\..\..\arduinoLCD\test\Pain Drain\libraries\lvgl\src\extra\layouts\flex/lv_flex.c **** {
 250              		.loc 2 589 0
 251              		.cfi_startproc
 252              		@ args = 0, pretend = 0, frame = 0
 253              		@ frame_needed = 0, uses_anonymous_args = 0
 254              		@ link register save eliminated.
 255              	.LVL29:
 590:..\..\..\arduinoLCD\test\Pain Drain\libraries\lvgl\src\extra\layouts\flex/lv_flex.c ****     if(rev) {
 256              		.loc 2 590 0
 257 0000 0029     		cmp	r1, #0
 258 0002 09D0     		beq	.L18
 591:..\..\..\arduinoLCD\test\Pain Drain\libraries\lvgl\src\extra\layouts\flex/lv_flex.c ****         (*item_id)--;
 259              		.loc 2 591 0
 260 0004 1368     		ldr	r3, [r2]
 261 0006 013B     		subs	r3, r3, #1
 262 0008 1360     		str	r3, [r2]
 592:..\..\..\arduinoLCD\test\Pain Drain\libraries\lvgl\src\extra\layouts\flex/lv_flex.c ****         if(*item_id >= 0) return cont->spec_attr->children[*item_id];
 263              		.loc 2 592 0
 264 000a 002B     		cmp	r3, #0
 265 000c 0FDB     		blt	.L20
 266              		.loc 2 592 0 is_stmt 0 discriminator 1
 267 000e 8268     		ldr	r2, [r0, #8]
 268              	.LVL30:
 269 0010 1268     		ldr	r2, [r2]
 270 0012 9B00     		lsls	r3, r3, #2
 271 0014 D058     		ldr	r0, [r2, r3]
 272              	.LVL31:
 273 0016 0DE0     		b	.L19
 274              	.LVL32:
 275              	.L18:
 593:..\..\..\arduinoLCD\test\Pain Drain\libraries\lvgl\src\extra\layouts\flex/lv_flex.c ****         else return NULL;
 594:..\..\..\arduinoLCD\test\Pain Drain\libraries\lvgl\src\extra\layouts\flex/lv_flex.c ****     }
 595:..\..\..\arduinoLCD\test\Pain Drain\libraries\lvgl\src\extra\layouts\flex/lv_flex.c ****     else {
 596:..\..\..\arduinoLCD\test\Pain Drain\libraries\lvgl\src\extra\layouts\flex/lv_flex.c ****         (*item_id)++;
 276              		.loc 2 596 0 is_stmt 1
 277 0018 1368     		ldr	r3, [r2]
 278 001a 0133     		adds	r3, r3, #1
 279 001c 1360     		str	r3, [r2]
 597:..\..\..\arduinoLCD\test\Pain Drain\libraries\lvgl\src\extra\layouts\flex/lv_flex.c ****         if((*item_id) < (int32_t)cont->spec_attr->child_cnt) return cont->spec_attr->children[*item
 280              		.loc 2 597 0
 281 001e 8268     		ldr	r2, [r0, #8]
 282              	.LVL33:
 283 0020 5168     		ldr	r1, [r2, #4]
 284              	.LVL34:
 285 0022 8B42     		cmp	r3, r1
 286 0024 05DA     		bge	.L21
 287              		.loc 2 597 0 is_stmt 0 discriminator 1
 288 0026 1268     		ldr	r2, [r2]
 289 0028 9B00     		lsls	r3, r3, #2
 290 002a D058     		ldr	r0, [r2, r3]
 291              	.LVL35:
 292 002c 02E0     		b	.L19
 293              	.LVL36:
ARM GAS  C:\Users\haske\AppData\Local\Temp\ccVRp2Ta.s 			page 19


 294              	.L20:
 593:..\..\..\arduinoLCD\test\Pain Drain\libraries\lvgl\src\extra\layouts\flex/lv_flex.c ****         else return NULL;
 295              		.loc 2 593 0 is_stmt 1
 296 002e 0020     		movs	r0, #0
 297              	.LVL37:
 298 0030 00E0     		b	.L19
 299              	.LVL38:
 300              	.L21:
 598:..\..\..\arduinoLCD\test\Pain Drain\libraries\lvgl\src\extra\layouts\flex/lv_flex.c ****         else return NULL;
 301              		.loc 2 598 0
 302 0032 0020     		movs	r0, #0
 303              	.LVL39:
 304              	.L19:
 599:..\..\..\arduinoLCD\test\Pain Drain\libraries\lvgl\src\extra\layouts\flex/lv_flex.c ****     }
 600:..\..\..\arduinoLCD\test\Pain Drain\libraries\lvgl\src\extra\layouts\flex/lv_flex.c **** }
 305              		.loc 2 600 0
 306              		@ sp needed
 307 0034 7047     		bx	lr
 308              		.cfi_endproc
 309              	.LFE193:
 310              		.size	get_next_item, .-get_next_item
 311 0036 C046     		.section	.text.find_track_end,"ax",%progbits
 312              		.align	2
 313              		.code	16
 314              		.thumb_func
 315              		.type	find_track_end, %function
 316              	find_track_end:
 317              	.LFB190:
 319:..\..\..\arduinoLCD\test\Pain Drain\libraries\lvgl\src\extra\layouts\flex/lv_flex.c ****     lv_coord_t w_set = lv_obj_get_style_width(cont, LV_PART_MAIN);
 318              		.loc 2 319 0
 319              		.cfi_startproc
 320              		@ args = 8, pretend = 0, frame = 24
 321              		@ frame_needed = 0, uses_anonymous_args = 0
 322              	.LVL40:
 323 0000 F0B5     		push	{r4, r5, r6, r7, lr}
 324              		.cfi_def_cfa_offset 20
 325              		.cfi_offset 4, -20
 326              		.cfi_offset 5, -16
 327              		.cfi_offset 6, -12
 328              		.cfi_offset 7, -8
 329              		.cfi_offset 14, -4
 330 0002 5F46     		mov	r7, fp
 331 0004 5646     		mov	r6, r10
 332 0006 4D46     		mov	r5, r9
 333 0008 4446     		mov	r4, r8
 334 000a F0B4     		push	{r4, r5, r6, r7}
 335              		.cfi_def_cfa_offset 36
 336              		.cfi_offset 8, -36
 337              		.cfi_offset 9, -32
 338              		.cfi_offset 10, -28
 339              		.cfi_offset 11, -24
 340 000c 87B0     		sub	sp, sp, #28
 341              		.cfi_def_cfa_offset 64
 342 000e 0E00     		movs	r6, r1
 343 0010 1700     		movs	r7, r2
 344 0012 0393     		str	r3, [sp, #12]
 345 0014 10AB     		add	r3, sp, #64
ARM GAS  C:\Users\haske\AppData\Local\Temp\ccVRp2Ta.s 			page 20


 346              	.LVL41:
 347 0016 0022     		movs	r2, #0
 348 0018 9B5E     		ldrsh	r3, [r3, r2]
 349              	.LVL42:
 350 001a 9846     		mov	r8, r3
 351 001c 119D     		ldr	r5, [sp, #68]
 352              	.LVL43:
 353              	.LBB64:
 354              	.LBB65:
 355              		.file 3 "c:\\projects\\paindrain\\arduinolcd\\test\\pain drain\\libraries\\lvgl\\src\\core\\lv_obj
   1:c:\projects\paindrain\arduinolcd\test\pain drain\libraries\lvgl\src\core\lv_obj_style_gen.h **** static inline lv_coord_t lv_obj_get_style_width(const struct _lv_obj_t * obj, uint32_t part)
   2:c:\projects\paindrain\arduinolcd\test\pain drain\libraries\lvgl\src\core\lv_obj_style_gen.h **** {
   3:c:\projects\paindrain\arduinolcd\test\pain drain\libraries\lvgl\src\core\lv_obj_style_gen.h ****     lv_style_value_t v = lv_obj_get_style_prop(obj, part, LV_STYLE_WIDTH);
 356              		.loc 3 3 0
 357 001e 0122     		movs	r2, #1
 358 0020 0021     		movs	r1, #0
 359              	.LVL44:
 360 0022 0090     		str	r0, [sp]
 361 0024 FFF7FEFF 		bl	lv_obj_get_style_prop
 362              	.LVL45:
   4:c:\projects\paindrain\arduinolcd\test\pain drain\libraries\lvgl\src\core\lv_obj_style_gen.h ****     return (lv_coord_t)v.num;
 363              		.loc 3 4 0
 364 0028 04B2     		sxth	r4, r0
 365              	.LVL46:
 366              	.LBE65:
 367              	.LBE64:
 368              	.LBB66:
 369              	.LBB67:
   5:c:\projects\paindrain\arduinolcd\test\pain drain\libraries\lvgl\src\core\lv_obj_style_gen.h **** }
   6:c:\projects\paindrain\arduinolcd\test\pain drain\libraries\lvgl\src\core\lv_obj_style_gen.h **** 
   7:c:\projects\paindrain\arduinolcd\test\pain drain\libraries\lvgl\src\core\lv_obj_style_gen.h **** static inline lv_coord_t lv_obj_get_style_min_width(const struct _lv_obj_t * obj, uint32_t part)
   8:c:\projects\paindrain\arduinolcd\test\pain drain\libraries\lvgl\src\core\lv_obj_style_gen.h **** {
   9:c:\projects\paindrain\arduinolcd\test\pain drain\libraries\lvgl\src\core\lv_obj_style_gen.h ****     lv_style_value_t v = lv_obj_get_style_prop(obj, part, LV_STYLE_MIN_WIDTH);
  10:c:\projects\paindrain\arduinolcd\test\pain drain\libraries\lvgl\src\core\lv_obj_style_gen.h ****     return (lv_coord_t)v.num;
  11:c:\projects\paindrain\arduinolcd\test\pain drain\libraries\lvgl\src\core\lv_obj_style_gen.h **** }
  12:c:\projects\paindrain\arduinolcd\test\pain drain\libraries\lvgl\src\core\lv_obj_style_gen.h **** 
  13:c:\projects\paindrain\arduinolcd\test\pain drain\libraries\lvgl\src\core\lv_obj_style_gen.h **** static inline lv_coord_t lv_obj_get_style_max_width(const struct _lv_obj_t * obj, uint32_t part)
  14:c:\projects\paindrain\arduinolcd\test\pain drain\libraries\lvgl\src\core\lv_obj_style_gen.h **** {
  15:c:\projects\paindrain\arduinolcd\test\pain drain\libraries\lvgl\src\core\lv_obj_style_gen.h ****     lv_style_value_t v = lv_obj_get_style_prop(obj, part, LV_STYLE_MAX_WIDTH);
  16:c:\projects\paindrain\arduinolcd\test\pain drain\libraries\lvgl\src\core\lv_obj_style_gen.h ****     return (lv_coord_t)v.num;
  17:c:\projects\paindrain\arduinolcd\test\pain drain\libraries\lvgl\src\core\lv_obj_style_gen.h **** }
  18:c:\projects\paindrain\arduinolcd\test\pain drain\libraries\lvgl\src\core\lv_obj_style_gen.h **** 
  19:c:\projects\paindrain\arduinolcd\test\pain drain\libraries\lvgl\src\core\lv_obj_style_gen.h **** static inline lv_coord_t lv_obj_get_style_height(const struct _lv_obj_t * obj, uint32_t part)
  20:c:\projects\paindrain\arduinolcd\test\pain drain\libraries\lvgl\src\core\lv_obj_style_gen.h **** {
  21:c:\projects\paindrain\arduinolcd\test\pain drain\libraries\lvgl\src\core\lv_obj_style_gen.h ****     lv_style_value_t v = lv_obj_get_style_prop(obj, part, LV_STYLE_HEIGHT);
 370              		.loc 3 21 0
 371 002a 0422     		movs	r2, #4
 372 002c 0021     		movs	r1, #0
 373 002e 0098     		ldr	r0, [sp]
 374 0030 FFF7FEFF 		bl	lv_obj_get_style_prop
 375              	.LVL47:
  22:c:\projects\paindrain\arduinolcd\test\pain drain\libraries\lvgl\src\core\lv_obj_style_gen.h ****     return (lv_coord_t)v.num;
 376              		.loc 3 22 0
 377 0034 00B2     		sxth	r0, r0
 378              	.LVL48:
 379              	.LBE67:
 380              	.LBE66:
ARM GAS  C:\Users\haske\AppData\Local\Temp\ccVRp2Ta.s 			page 21


 324:..\..\..\arduinoLCD\test\Pain Drain\libraries\lvgl\src\extra\layouts\flex/lv_flex.c ****         f->wrap = false;
 381              		.loc 2 324 0
 382 0036 F378     		ldrb	r3, [r6, #3]
 383 0038 9A07     		lsls	r2, r3, #30
 384 003a 0ED5     		bpl	.L23
 324:..\..\..\arduinoLCD\test\Pain Drain\libraries\lvgl\src\extra\layouts\flex/lv_flex.c ****         f->wrap = false;
 385              		.loc 2 324 0 is_stmt 0 discriminator 1
 386 003c 0122     		movs	r2, #1
 387 003e 1340     		ands	r3, r2
 388 0040 02D0     		beq	.L24
 324:..\..\..\arduinoLCD\test\Pain Drain\libraries\lvgl\src\extra\layouts\flex/lv_flex.c ****         f->wrap = false;
 389              		.loc 2 324 0 discriminator 2
 390 0042 8F4A     		ldr	r2, .L54
 391 0044 9442     		cmp	r4, r2
 392 0046 04D0     		beq	.L25
 393              	.L24:
 324:..\..\..\arduinoLCD\test\Pain Drain\libraries\lvgl\src\extra\layouts\flex/lv_flex.c ****         f->wrap = false;
 394              		.loc 2 324 0 discriminator 4
 395 0048 002B     		cmp	r3, #0
 396 004a 06D1     		bne	.L23
 324:..\..\..\arduinoLCD\test\Pain Drain\libraries\lvgl\src\extra\layouts\flex/lv_flex.c ****         f->wrap = false;
 397              		.loc 2 324 0 discriminator 5
 398 004c 8C4B     		ldr	r3, .L54
 399 004e 9842     		cmp	r0, r3
 400 0050 03D1     		bne	.L23
 401              	.L25:
 325:..\..\..\arduinoLCD\test\Pain Drain\libraries\lvgl\src\extra\layouts\flex/lv_flex.c ****     }
 402              		.loc 2 325 0 is_stmt 1
 403 0052 F378     		ldrb	r3, [r6, #3]
 404 0054 0222     		movs	r2, #2
 405 0056 9343     		bics	r3, r2
 406 0058 F370     		strb	r3, [r6, #3]
 407              	.L23:
 327:..\..\..\arduinoLCD\test\Pain Drain\libraries\lvgl\src\extra\layouts\flex/lv_flex.c ****     lv_coord_t(*get_cross_size)(const lv_obj_t *) = (!f->row ? lv_obj_get_width : lv_obj_get_height
 408              		.loc 2 327 0
 409 005a F378     		ldrb	r3, [r6, #3]
 410 005c 0122     		movs	r2, #1
 411 005e 1340     		ands	r3, r2
 412 0060 02D0     		beq	.L50
 413 0062 884A     		ldr	r2, .L54+4
 414 0064 0292     		str	r2, [sp, #8]
 415 0066 01E0     		b	.L26
 416              	.L50:
 417 0068 874A     		ldr	r2, .L54+8
 418 006a 0292     		str	r2, [sp, #8]
 419              	.L26:
 420              	.LVL49:
 328:..\..\..\arduinoLCD\test\Pain Drain\libraries\lvgl\src\extra\layouts\flex/lv_flex.c **** 
 421              		.loc 2 328 0 discriminator 4
 422 006c 002B     		cmp	r3, #0
 423 006e 02D1     		bne	.L51
 328:..\..\..\arduinoLCD\test\Pain Drain\libraries\lvgl\src\extra\layouts\flex/lv_flex.c **** 
 424              		.loc 2 328 0 is_stmt 0
 425 0070 844B     		ldr	r3, .L54+4
 426 0072 0193     		str	r3, [sp, #4]
 427 0074 01E0     		b	.L27
 428              	.L51:
ARM GAS  C:\Users\haske\AppData\Local\Temp\ccVRp2Ta.s 			page 22


 429 0076 844B     		ldr	r3, .L54+8
 430 0078 0193     		str	r3, [sp, #4]
 431              	.L27:
 432              	.LVL50:
 330:..\..\..\arduinoLCD\test\Pain Drain\libraries\lvgl\src\extra\layouts\flex/lv_flex.c ****     t->track_fix_main_size = 0;
 433              		.loc 2 330 0 is_stmt 1 discriminator 4
 434 007a 0023     		movs	r3, #0
 435 007c 6B80     		strh	r3, [r5, #2]
 331:..\..\..\arduinoLCD\test\Pain Drain\libraries\lvgl\src\extra\layouts\flex/lv_flex.c ****     t->grow_item_cnt = 0;
 436              		.loc 2 331 0 discriminator 4
 437 007e AB80     		strh	r3, [r5, #4]
 332:..\..\..\arduinoLCD\test\Pain Drain\libraries\lvgl\src\extra\layouts\flex/lv_flex.c ****     t->track_cross_size = 0;
 438              		.loc 2 332 0 discriminator 4
 439 0080 2B61     		str	r3, [r5, #16]
 333:..\..\..\arduinoLCD\test\Pain Drain\libraries\lvgl\src\extra\layouts\flex/lv_flex.c ****     t->item_cnt = 0;
 440              		.loc 2 333 0 discriminator 4
 441 0082 2B80     		strh	r3, [r5]
 334:..\..\..\arduinoLCD\test\Pain Drain\libraries\lvgl\src\extra\layouts\flex/lv_flex.c ****     t->grow_dsc = NULL;
 442              		.loc 2 334 0 discriminator 4
 443 0084 AB60     		str	r3, [r5, #8]
 335:..\..\..\arduinoLCD\test\Pain Drain\libraries\lvgl\src\extra\layouts\flex/lv_flex.c **** 
 444              		.loc 2 335 0 discriminator 4
 445 0086 EB60     		str	r3, [r5, #12]
 337:..\..\..\arduinoLCD\test\Pain Drain\libraries\lvgl\src\extra\layouts\flex/lv_flex.c **** 
 446              		.loc 2 337 0 discriminator 4
 447 0088 0597     		str	r7, [sp, #20]
 339:..\..\..\arduinoLCD\test\Pain Drain\libraries\lvgl\src\extra\layouts\flex/lv_flex.c ****     while(item) {
 448              		.loc 2 339 0 discriminator 4
 449 008a 3900     		movs	r1, r7
 450 008c 0098     		ldr	r0, [sp]
 451 008e FFF7FEFF 		bl	lv_obj_get_child
 452              	.LVL51:
 453 0092 0400     		movs	r4, r0
 454              	.LVL52:
 455 0094 B946     		mov	r9, r7
 456 0096 3700     		movs	r7, r6
 457              	.LVL53:
 340:..\..\..\arduinoLCD\test\Pain Drain\libraries\lvgl\src\extra\layouts\flex/lv_flex.c ****         if(item_id != item_start_id && lv_obj_has_flag(item, LV_OBJ_FLAG_FLEX_IN_NEW_TRACK)) break;
 458              		.loc 2 340 0 discriminator 4
 459 0098 BAE0     		b	.L28
 460              	.LVL54:
 461              	.L46:
 341:..\..\..\arduinoLCD\test\Pain Drain\libraries\lvgl\src\extra\layouts\flex/lv_flex.c **** 
 462              		.loc 2 341 0
 463 009a 059B     		ldr	r3, [sp, #20]
 464 009c 9945     		cmp	r9, r3
 465 009e 07D0     		beq	.L29
 341:..\..\..\arduinoLCD\test\Pain Drain\libraries\lvgl\src\extra\layouts\flex/lv_flex.c **** 
 466              		.loc 2 341 0 is_stmt 0 discriminator 1
 467 00a0 8021     		movs	r1, #128
 468 00a2 0904     		lsls	r1, r1, #16
 469 00a4 2000     		movs	r0, r4
 470              	.LVL55:
 471 00a6 FFF7FEFF 		bl	lv_obj_has_flag
 472              	.LVL56:
 473 00aa 0028     		cmp	r0, #0
 474 00ac 00D0     		beq	.LCB459
ARM GAS  C:\Users\haske\AppData\Local\Temp\ccVRp2Ta.s 			page 23


 475 00ae B2E0     		b	.L30	@long jump
 476              	.LCB459:
 477              	.L29:
 343:..\..\..\arduinoLCD\test\Pain Drain\libraries\lvgl\src\extra\layouts\flex/lv_flex.c ****             uint8_t grow_value = lv_obj_get_style_flex_grow(item, LV_PART_MAIN);
 478              		.loc 2 343 0 is_stmt 1
 479 00b0 7649     		ldr	r1, .L54+12
 480 00b2 2000     		movs	r0, r4
 481 00b4 FFF7FEFF 		bl	lv_obj_has_flag_any
 482              	.LVL57:
 483 00b8 0028     		cmp	r0, #0
 484 00ba 00D0     		beq	.LCB467
 485 00bc 97E0     		b	.L31	@long jump
 486              	.LCB467:
 487              	.LVL58:
 488              	.LBB68:
 489              	.LBB69:
 490              	.LBB70:
 491              		.file 4 "..\\..\\..\\arduinoLCD\\test\\Pain Drain\\libraries\\lvgl\\src\\extra\\layouts\\flex\\../
   1:..\..\..\arduinoLCD\test\Pain Drain\libraries\lvgl\src\extra\layouts\flex\../flex/lv_flex.h **** /**
   2:..\..\..\arduinoLCD\test\Pain Drain\libraries\lvgl\src\extra\layouts\flex\../flex/lv_flex.h ****  * @file lv_flex.h
   3:..\..\..\arduinoLCD\test\Pain Drain\libraries\lvgl\src\extra\layouts\flex\../flex/lv_flex.h ****  *
   4:..\..\..\arduinoLCD\test\Pain Drain\libraries\lvgl\src\extra\layouts\flex\../flex/lv_flex.h ****  */
   5:..\..\..\arduinoLCD\test\Pain Drain\libraries\lvgl\src\extra\layouts\flex\../flex/lv_flex.h **** 
   6:..\..\..\arduinoLCD\test\Pain Drain\libraries\lvgl\src\extra\layouts\flex\../flex/lv_flex.h **** #ifndef LV_FLEX_H
   7:..\..\..\arduinoLCD\test\Pain Drain\libraries\lvgl\src\extra\layouts\flex\../flex/lv_flex.h **** #define LV_FLEX_H
   8:..\..\..\arduinoLCD\test\Pain Drain\libraries\lvgl\src\extra\layouts\flex\../flex/lv_flex.h **** 
   9:..\..\..\arduinoLCD\test\Pain Drain\libraries\lvgl\src\extra\layouts\flex\../flex/lv_flex.h **** #ifdef __cplusplus
  10:..\..\..\arduinoLCD\test\Pain Drain\libraries\lvgl\src\extra\layouts\flex\../flex/lv_flex.h **** extern "C" {
  11:..\..\..\arduinoLCD\test\Pain Drain\libraries\lvgl\src\extra\layouts\flex\../flex/lv_flex.h **** #endif
  12:..\..\..\arduinoLCD\test\Pain Drain\libraries\lvgl\src\extra\layouts\flex\../flex/lv_flex.h **** 
  13:..\..\..\arduinoLCD\test\Pain Drain\libraries\lvgl\src\extra\layouts\flex\../flex/lv_flex.h **** /*********************
  14:..\..\..\arduinoLCD\test\Pain Drain\libraries\lvgl\src\extra\layouts\flex\../flex/lv_flex.h ****  *      INCLUDES
  15:..\..\..\arduinoLCD\test\Pain Drain\libraries\lvgl\src\extra\layouts\flex\../flex/lv_flex.h ****  *********************/
  16:..\..\..\arduinoLCD\test\Pain Drain\libraries\lvgl\src\extra\layouts\flex\../flex/lv_flex.h **** #include "../../../core/lv_obj.h"
  17:..\..\..\arduinoLCD\test\Pain Drain\libraries\lvgl\src\extra\layouts\flex\../flex/lv_flex.h **** #if LV_USE_FLEX
  18:..\..\..\arduinoLCD\test\Pain Drain\libraries\lvgl\src\extra\layouts\flex\../flex/lv_flex.h **** 
  19:..\..\..\arduinoLCD\test\Pain Drain\libraries\lvgl\src\extra\layouts\flex\../flex/lv_flex.h **** /*********************
  20:..\..\..\arduinoLCD\test\Pain Drain\libraries\lvgl\src\extra\layouts\flex\../flex/lv_flex.h ****  *      DEFINES
  21:..\..\..\arduinoLCD\test\Pain Drain\libraries\lvgl\src\extra\layouts\flex\../flex/lv_flex.h ****  *********************/
  22:..\..\..\arduinoLCD\test\Pain Drain\libraries\lvgl\src\extra\layouts\flex\../flex/lv_flex.h **** 
  23:..\..\..\arduinoLCD\test\Pain Drain\libraries\lvgl\src\extra\layouts\flex\../flex/lv_flex.h **** #define LV_OBJ_FLAG_FLEX_IN_NEW_TRACK   LV_OBJ_FLAG_LAYOUT_1
  24:..\..\..\arduinoLCD\test\Pain Drain\libraries\lvgl\src\extra\layouts\flex\../flex/lv_flex.h **** LV_EXPORT_CONST_INT(LV_OBJ_FLAG_FLEX_IN_NEW_TRACK);
  25:..\..\..\arduinoLCD\test\Pain Drain\libraries\lvgl\src\extra\layouts\flex\../flex/lv_flex.h **** 
  26:..\..\..\arduinoLCD\test\Pain Drain\libraries\lvgl\src\extra\layouts\flex\../flex/lv_flex.h **** #define _LV_FLEX_COLUMN        (1 << 0)
  27:..\..\..\arduinoLCD\test\Pain Drain\libraries\lvgl\src\extra\layouts\flex\../flex/lv_flex.h **** #define _LV_FLEX_WRAP       (1 << 2)
  28:..\..\..\arduinoLCD\test\Pain Drain\libraries\lvgl\src\extra\layouts\flex\../flex/lv_flex.h **** #define _LV_FLEX_REVERSE    (1 << 3)
  29:..\..\..\arduinoLCD\test\Pain Drain\libraries\lvgl\src\extra\layouts\flex\../flex/lv_flex.h **** 
  30:..\..\..\arduinoLCD\test\Pain Drain\libraries\lvgl\src\extra\layouts\flex\../flex/lv_flex.h **** /**********************
  31:..\..\..\arduinoLCD\test\Pain Drain\libraries\lvgl\src\extra\layouts\flex\../flex/lv_flex.h ****  *      TYPEDEFS
  32:..\..\..\arduinoLCD\test\Pain Drain\libraries\lvgl\src\extra\layouts\flex\../flex/lv_flex.h ****  **********************/
  33:..\..\..\arduinoLCD\test\Pain Drain\libraries\lvgl\src\extra\layouts\flex\../flex/lv_flex.h **** 
  34:..\..\..\arduinoLCD\test\Pain Drain\libraries\lvgl\src\extra\layouts\flex\../flex/lv_flex.h **** /*Can't include lv_obj.h because it includes this header file*/
  35:..\..\..\arduinoLCD\test\Pain Drain\libraries\lvgl\src\extra\layouts\flex\../flex/lv_flex.h **** struct _lv_obj_t;
  36:..\..\..\arduinoLCD\test\Pain Drain\libraries\lvgl\src\extra\layouts\flex\../flex/lv_flex.h **** 
  37:..\..\..\arduinoLCD\test\Pain Drain\libraries\lvgl\src\extra\layouts\flex\../flex/lv_flex.h **** typedef enum {
  38:..\..\..\arduinoLCD\test\Pain Drain\libraries\lvgl\src\extra\layouts\flex\../flex/lv_flex.h ****     LV_FLEX_ALIGN_START,
  39:..\..\..\arduinoLCD\test\Pain Drain\libraries\lvgl\src\extra\layouts\flex\../flex/lv_flex.h ****     LV_FLEX_ALIGN_END,
ARM GAS  C:\Users\haske\AppData\Local\Temp\ccVRp2Ta.s 			page 24


  40:..\..\..\arduinoLCD\test\Pain Drain\libraries\lvgl\src\extra\layouts\flex\../flex/lv_flex.h ****     LV_FLEX_ALIGN_CENTER,
  41:..\..\..\arduinoLCD\test\Pain Drain\libraries\lvgl\src\extra\layouts\flex\../flex/lv_flex.h ****     LV_FLEX_ALIGN_SPACE_EVENLY,
  42:..\..\..\arduinoLCD\test\Pain Drain\libraries\lvgl\src\extra\layouts\flex\../flex/lv_flex.h ****     LV_FLEX_ALIGN_SPACE_AROUND,
  43:..\..\..\arduinoLCD\test\Pain Drain\libraries\lvgl\src\extra\layouts\flex\../flex/lv_flex.h ****     LV_FLEX_ALIGN_SPACE_BETWEEN,
  44:..\..\..\arduinoLCD\test\Pain Drain\libraries\lvgl\src\extra\layouts\flex\../flex/lv_flex.h **** } lv_flex_align_t;
  45:..\..\..\arduinoLCD\test\Pain Drain\libraries\lvgl\src\extra\layouts\flex\../flex/lv_flex.h **** 
  46:..\..\..\arduinoLCD\test\Pain Drain\libraries\lvgl\src\extra\layouts\flex\../flex/lv_flex.h **** typedef enum {
  47:..\..\..\arduinoLCD\test\Pain Drain\libraries\lvgl\src\extra\layouts\flex\../flex/lv_flex.h ****     LV_FLEX_FLOW_ROW                 = 0x00,
  48:..\..\..\arduinoLCD\test\Pain Drain\libraries\lvgl\src\extra\layouts\flex\../flex/lv_flex.h ****     LV_FLEX_FLOW_COLUMN              = _LV_FLEX_COLUMN,
  49:..\..\..\arduinoLCD\test\Pain Drain\libraries\lvgl\src\extra\layouts\flex\../flex/lv_flex.h ****     LV_FLEX_FLOW_ROW_WRAP            = LV_FLEX_FLOW_ROW | _LV_FLEX_WRAP,
  50:..\..\..\arduinoLCD\test\Pain Drain\libraries\lvgl\src\extra\layouts\flex\../flex/lv_flex.h ****     LV_FLEX_FLOW_ROW_REVERSE         = LV_FLEX_FLOW_ROW | _LV_FLEX_REVERSE,
  51:..\..\..\arduinoLCD\test\Pain Drain\libraries\lvgl\src\extra\layouts\flex\../flex/lv_flex.h ****     LV_FLEX_FLOW_ROW_WRAP_REVERSE    = LV_FLEX_FLOW_ROW | _LV_FLEX_WRAP | _LV_FLEX_REVERSE,
  52:..\..\..\arduinoLCD\test\Pain Drain\libraries\lvgl\src\extra\layouts\flex\../flex/lv_flex.h ****     LV_FLEX_FLOW_COLUMN_WRAP         = LV_FLEX_FLOW_COLUMN | _LV_FLEX_WRAP,
  53:..\..\..\arduinoLCD\test\Pain Drain\libraries\lvgl\src\extra\layouts\flex\../flex/lv_flex.h ****     LV_FLEX_FLOW_COLUMN_REVERSE      = LV_FLEX_FLOW_COLUMN | _LV_FLEX_REVERSE,
  54:..\..\..\arduinoLCD\test\Pain Drain\libraries\lvgl\src\extra\layouts\flex\../flex/lv_flex.h ****     LV_FLEX_FLOW_COLUMN_WRAP_REVERSE = LV_FLEX_FLOW_COLUMN | _LV_FLEX_WRAP | _LV_FLEX_REVERSE,
  55:..\..\..\arduinoLCD\test\Pain Drain\libraries\lvgl\src\extra\layouts\flex\../flex/lv_flex.h **** } lv_flex_flow_t;
  56:..\..\..\arduinoLCD\test\Pain Drain\libraries\lvgl\src\extra\layouts\flex\../flex/lv_flex.h **** 
  57:..\..\..\arduinoLCD\test\Pain Drain\libraries\lvgl\src\extra\layouts\flex\../flex/lv_flex.h **** /**********************
  58:..\..\..\arduinoLCD\test\Pain Drain\libraries\lvgl\src\extra\layouts\flex\../flex/lv_flex.h ****  * GLOBAL VARIABLES
  59:..\..\..\arduinoLCD\test\Pain Drain\libraries\lvgl\src\extra\layouts\flex\../flex/lv_flex.h ****  **********************/
  60:..\..\..\arduinoLCD\test\Pain Drain\libraries\lvgl\src\extra\layouts\flex\../flex/lv_flex.h **** extern uint16_t LV_LAYOUT_FLEX;
  61:..\..\..\arduinoLCD\test\Pain Drain\libraries\lvgl\src\extra\layouts\flex\../flex/lv_flex.h **** extern lv_style_prop_t LV_STYLE_FLEX_FLOW;
  62:..\..\..\arduinoLCD\test\Pain Drain\libraries\lvgl\src\extra\layouts\flex\../flex/lv_flex.h **** extern lv_style_prop_t LV_STYLE_FLEX_MAIN_PLACE;
  63:..\..\..\arduinoLCD\test\Pain Drain\libraries\lvgl\src\extra\layouts\flex\../flex/lv_flex.h **** extern lv_style_prop_t LV_STYLE_FLEX_CROSS_PLACE;
  64:..\..\..\arduinoLCD\test\Pain Drain\libraries\lvgl\src\extra\layouts\flex\../flex/lv_flex.h **** extern lv_style_prop_t LV_STYLE_FLEX_TRACK_PLACE;
  65:..\..\..\arduinoLCD\test\Pain Drain\libraries\lvgl\src\extra\layouts\flex\../flex/lv_flex.h **** extern lv_style_prop_t LV_STYLE_FLEX_GROW;
  66:..\..\..\arduinoLCD\test\Pain Drain\libraries\lvgl\src\extra\layouts\flex\../flex/lv_flex.h **** 
  67:..\..\..\arduinoLCD\test\Pain Drain\libraries\lvgl\src\extra\layouts\flex\../flex/lv_flex.h **** /**********************
  68:..\..\..\arduinoLCD\test\Pain Drain\libraries\lvgl\src\extra\layouts\flex\../flex/lv_flex.h ****  * GLOBAL PROTOTYPES
  69:..\..\..\arduinoLCD\test\Pain Drain\libraries\lvgl\src\extra\layouts\flex\../flex/lv_flex.h ****  **********************/
  70:..\..\..\arduinoLCD\test\Pain Drain\libraries\lvgl\src\extra\layouts\flex\../flex/lv_flex.h **** 
  71:..\..\..\arduinoLCD\test\Pain Drain\libraries\lvgl\src\extra\layouts\flex\../flex/lv_flex.h **** /**
  72:..\..\..\arduinoLCD\test\Pain Drain\libraries\lvgl\src\extra\layouts\flex\../flex/lv_flex.h ****  * Initialize a flex layout the default values
  73:..\..\..\arduinoLCD\test\Pain Drain\libraries\lvgl\src\extra\layouts\flex\../flex/lv_flex.h ****  * @param flex pointer to a flex layout descriptor
  74:..\..\..\arduinoLCD\test\Pain Drain\libraries\lvgl\src\extra\layouts\flex\../flex/lv_flex.h ****  */
  75:..\..\..\arduinoLCD\test\Pain Drain\libraries\lvgl\src\extra\layouts\flex\../flex/lv_flex.h **** void lv_flex_init(void);
  76:..\..\..\arduinoLCD\test\Pain Drain\libraries\lvgl\src\extra\layouts\flex\../flex/lv_flex.h **** 
  77:..\..\..\arduinoLCD\test\Pain Drain\libraries\lvgl\src\extra\layouts\flex\../flex/lv_flex.h **** /**
  78:..\..\..\arduinoLCD\test\Pain Drain\libraries\lvgl\src\extra\layouts\flex\../flex/lv_flex.h ****  * Set hot the item should flow
  79:..\..\..\arduinoLCD\test\Pain Drain\libraries\lvgl\src\extra\layouts\flex\../flex/lv_flex.h ****  * @param flex pointer to a flex layout descriptor
  80:..\..\..\arduinoLCD\test\Pain Drain\libraries\lvgl\src\extra\layouts\flex\../flex/lv_flex.h ****  * @param flow an element of `lv_flex_flow_t`.
  81:..\..\..\arduinoLCD\test\Pain Drain\libraries\lvgl\src\extra\layouts\flex\../flex/lv_flex.h ****  */
  82:..\..\..\arduinoLCD\test\Pain Drain\libraries\lvgl\src\extra\layouts\flex\../flex/lv_flex.h **** void lv_obj_set_flex_flow(lv_obj_t * obj, lv_flex_flow_t flow);
  83:..\..\..\arduinoLCD\test\Pain Drain\libraries\lvgl\src\extra\layouts\flex\../flex/lv_flex.h **** 
  84:..\..\..\arduinoLCD\test\Pain Drain\libraries\lvgl\src\extra\layouts\flex\../flex/lv_flex.h **** /**
  85:..\..\..\arduinoLCD\test\Pain Drain\libraries\lvgl\src\extra\layouts\flex\../flex/lv_flex.h ****  * Set how to place (where to align) the items and tracks
  86:..\..\..\arduinoLCD\test\Pain Drain\libraries\lvgl\src\extra\layouts\flex\../flex/lv_flex.h ****  * @param flex pointer: to a flex layout descriptor
  87:..\..\..\arduinoLCD\test\Pain Drain\libraries\lvgl\src\extra\layouts\flex\../flex/lv_flex.h ****  * @param main_place where to place the items on main axis (in their track). Any value of `lv_flex_
  88:..\..\..\arduinoLCD\test\Pain Drain\libraries\lvgl\src\extra\layouts\flex\../flex/lv_flex.h ****  * @param cross_place where to place the item in their track on the cross axis. `LV_FLEX_ALIGN_STAR
  89:..\..\..\arduinoLCD\test\Pain Drain\libraries\lvgl\src\extra\layouts\flex\../flex/lv_flex.h ****  * @param track_place where to place the tracks in the cross direction. Any value of `lv_flex_align
  90:..\..\..\arduinoLCD\test\Pain Drain\libraries\lvgl\src\extra\layouts\flex\../flex/lv_flex.h ****  */
  91:..\..\..\arduinoLCD\test\Pain Drain\libraries\lvgl\src\extra\layouts\flex\../flex/lv_flex.h **** void lv_obj_set_flex_align(lv_obj_t * obj, lv_flex_align_t main_place, lv_flex_align_t cross_place,
  92:..\..\..\arduinoLCD\test\Pain Drain\libraries\lvgl\src\extra\layouts\flex\../flex/lv_flex.h ****                            lv_flex_align_t track_cross_place);
  93:..\..\..\arduinoLCD\test\Pain Drain\libraries\lvgl\src\extra\layouts\flex\../flex/lv_flex.h **** 
  94:..\..\..\arduinoLCD\test\Pain Drain\libraries\lvgl\src\extra\layouts\flex\../flex/lv_flex.h **** /**
  95:..\..\..\arduinoLCD\test\Pain Drain\libraries\lvgl\src\extra\layouts\flex\../flex/lv_flex.h ****  * Sets the width or height (on main axis) to grow the object in order fill the free space
  96:..\..\..\arduinoLCD\test\Pain Drain\libraries\lvgl\src\extra\layouts\flex\../flex/lv_flex.h ****  * @param obj pointer to an object. The parent must have flex layout else nothing will happen.
ARM GAS  C:\Users\haske\AppData\Local\Temp\ccVRp2Ta.s 			page 25


  97:..\..\..\arduinoLCD\test\Pain Drain\libraries\lvgl\src\extra\layouts\flex\../flex/lv_flex.h ****  * @param grow a value to set how much free space to take proportionally to other growing items.
  98:..\..\..\arduinoLCD\test\Pain Drain\libraries\lvgl\src\extra\layouts\flex\../flex/lv_flex.h ****  */
  99:..\..\..\arduinoLCD\test\Pain Drain\libraries\lvgl\src\extra\layouts\flex\../flex/lv_flex.h **** void lv_obj_set_flex_grow(lv_obj_t * obj, uint8_t grow);
 100:..\..\..\arduinoLCD\test\Pain Drain\libraries\lvgl\src\extra\layouts\flex\../flex/lv_flex.h **** 
 101:..\..\..\arduinoLCD\test\Pain Drain\libraries\lvgl\src\extra\layouts\flex\../flex/lv_flex.h **** void lv_style_set_flex_flow(lv_style_t * style, lv_flex_flow_t value);
 102:..\..\..\arduinoLCD\test\Pain Drain\libraries\lvgl\src\extra\layouts\flex\../flex/lv_flex.h **** void lv_style_set_flex_main_place(lv_style_t * style, lv_flex_align_t value);
 103:..\..\..\arduinoLCD\test\Pain Drain\libraries\lvgl\src\extra\layouts\flex\../flex/lv_flex.h **** void lv_style_set_flex_cross_place(lv_style_t * style, lv_flex_align_t value);
 104:..\..\..\arduinoLCD\test\Pain Drain\libraries\lvgl\src\extra\layouts\flex\../flex/lv_flex.h **** void lv_style_set_flex_track_place(lv_style_t * style, lv_flex_align_t value);
 105:..\..\..\arduinoLCD\test\Pain Drain\libraries\lvgl\src\extra\layouts\flex\../flex/lv_flex.h **** void lv_style_set_flex_grow(lv_style_t * style, uint8_t value);
 106:..\..\..\arduinoLCD\test\Pain Drain\libraries\lvgl\src\extra\layouts\flex\../flex/lv_flex.h **** void lv_obj_set_style_flex_flow(lv_obj_t * obj, lv_flex_flow_t value, lv_style_selector_t selector)
 107:..\..\..\arduinoLCD\test\Pain Drain\libraries\lvgl\src\extra\layouts\flex\../flex/lv_flex.h **** void lv_obj_set_style_flex_main_place(lv_obj_t * obj, lv_flex_align_t value, lv_style_selector_t se
 108:..\..\..\arduinoLCD\test\Pain Drain\libraries\lvgl\src\extra\layouts\flex\../flex/lv_flex.h **** void lv_obj_set_style_flex_cross_place(lv_obj_t * obj, lv_flex_align_t value, lv_style_selector_t s
 109:..\..\..\arduinoLCD\test\Pain Drain\libraries\lvgl\src\extra\layouts\flex\../flex/lv_flex.h **** void lv_obj_set_style_flex_track_place(lv_obj_t * obj, lv_flex_align_t value, lv_style_selector_t s
 110:..\..\..\arduinoLCD\test\Pain Drain\libraries\lvgl\src\extra\layouts\flex\../flex/lv_flex.h **** void lv_obj_set_style_flex_grow(lv_obj_t * obj, uint8_t value, lv_style_selector_t selector);
 111:..\..\..\arduinoLCD\test\Pain Drain\libraries\lvgl\src\extra\layouts\flex\../flex/lv_flex.h **** 
 112:..\..\..\arduinoLCD\test\Pain Drain\libraries\lvgl\src\extra\layouts\flex\../flex/lv_flex.h **** static inline lv_flex_flow_t lv_obj_get_style_flex_flow(const lv_obj_t * obj, uint32_t part)
 113:..\..\..\arduinoLCD\test\Pain Drain\libraries\lvgl\src\extra\layouts\flex\../flex/lv_flex.h **** {
 114:..\..\..\arduinoLCD\test\Pain Drain\libraries\lvgl\src\extra\layouts\flex\../flex/lv_flex.h ****     lv_style_value_t v = lv_obj_get_style_prop(obj, part, LV_STYLE_FLEX_FLOW);
 115:..\..\..\arduinoLCD\test\Pain Drain\libraries\lvgl\src\extra\layouts\flex\../flex/lv_flex.h ****     return (lv_flex_flow_t)v.num;
 116:..\..\..\arduinoLCD\test\Pain Drain\libraries\lvgl\src\extra\layouts\flex\../flex/lv_flex.h **** }
 117:..\..\..\arduinoLCD\test\Pain Drain\libraries\lvgl\src\extra\layouts\flex\../flex/lv_flex.h **** 
 118:..\..\..\arduinoLCD\test\Pain Drain\libraries\lvgl\src\extra\layouts\flex\../flex/lv_flex.h **** static inline lv_flex_align_t lv_obj_get_style_flex_main_place(const lv_obj_t * obj, uint32_t part)
 119:..\..\..\arduinoLCD\test\Pain Drain\libraries\lvgl\src\extra\layouts\flex\../flex/lv_flex.h **** {
 120:..\..\..\arduinoLCD\test\Pain Drain\libraries\lvgl\src\extra\layouts\flex\../flex/lv_flex.h ****     lv_style_value_t v = lv_obj_get_style_prop(obj, part, LV_STYLE_FLEX_MAIN_PLACE);
 121:..\..\..\arduinoLCD\test\Pain Drain\libraries\lvgl\src\extra\layouts\flex\../flex/lv_flex.h ****     return (lv_flex_align_t)v.num;
 122:..\..\..\arduinoLCD\test\Pain Drain\libraries\lvgl\src\extra\layouts\flex\../flex/lv_flex.h **** }
 123:..\..\..\arduinoLCD\test\Pain Drain\libraries\lvgl\src\extra\layouts\flex\../flex/lv_flex.h **** 
 124:..\..\..\arduinoLCD\test\Pain Drain\libraries\lvgl\src\extra\layouts\flex\../flex/lv_flex.h **** static inline lv_flex_align_t lv_obj_get_style_flex_cross_place(const lv_obj_t * obj, uint32_t part
 125:..\..\..\arduinoLCD\test\Pain Drain\libraries\lvgl\src\extra\layouts\flex\../flex/lv_flex.h **** {
 126:..\..\..\arduinoLCD\test\Pain Drain\libraries\lvgl\src\extra\layouts\flex\../flex/lv_flex.h ****     lv_style_value_t v = lv_obj_get_style_prop(obj, part, LV_STYLE_FLEX_CROSS_PLACE);
 127:..\..\..\arduinoLCD\test\Pain Drain\libraries\lvgl\src\extra\layouts\flex\../flex/lv_flex.h ****     return (lv_flex_align_t)v.num;
 128:..\..\..\arduinoLCD\test\Pain Drain\libraries\lvgl\src\extra\layouts\flex\../flex/lv_flex.h **** }
 129:..\..\..\arduinoLCD\test\Pain Drain\libraries\lvgl\src\extra\layouts\flex\../flex/lv_flex.h **** 
 130:..\..\..\arduinoLCD\test\Pain Drain\libraries\lvgl\src\extra\layouts\flex\../flex/lv_flex.h **** static inline lv_flex_align_t lv_obj_get_style_flex_track_place(const lv_obj_t * obj, uint32_t part
 131:..\..\..\arduinoLCD\test\Pain Drain\libraries\lvgl\src\extra\layouts\flex\../flex/lv_flex.h **** {
 132:..\..\..\arduinoLCD\test\Pain Drain\libraries\lvgl\src\extra\layouts\flex\../flex/lv_flex.h ****     lv_style_value_t v = lv_obj_get_style_prop(obj, part, LV_STYLE_FLEX_TRACK_PLACE);
 133:..\..\..\arduinoLCD\test\Pain Drain\libraries\lvgl\src\extra\layouts\flex\../flex/lv_flex.h ****     return (lv_flex_align_t)v.num;
 134:..\..\..\arduinoLCD\test\Pain Drain\libraries\lvgl\src\extra\layouts\flex\../flex/lv_flex.h **** }
 135:..\..\..\arduinoLCD\test\Pain Drain\libraries\lvgl\src\extra\layouts\flex\../flex/lv_flex.h **** 
 136:..\..\..\arduinoLCD\test\Pain Drain\libraries\lvgl\src\extra\layouts\flex\../flex/lv_flex.h **** static inline uint8_t lv_obj_get_style_flex_grow(const lv_obj_t * obj, uint32_t part)
 137:..\..\..\arduinoLCD\test\Pain Drain\libraries\lvgl\src\extra\layouts\flex\../flex/lv_flex.h **** {
 138:..\..\..\arduinoLCD\test\Pain Drain\libraries\lvgl\src\extra\layouts\flex\../flex/lv_flex.h ****     lv_style_value_t v = lv_obj_get_style_prop(obj, part, LV_STYLE_FLEX_GROW);
 492              		.loc 4 138 0
 493 00be 744B     		ldr	r3, .L54+16
 494 00c0 1A88     		ldrh	r2, [r3]
 495 00c2 0021     		movs	r1, #0
 496 00c4 2000     		movs	r0, r4
 497 00c6 FFF7FEFF 		bl	lv_obj_get_style_prop
 498              	.LVL59:
 139:..\..\..\arduinoLCD\test\Pain Drain\libraries\lvgl\src\extra\layouts\flex\../flex/lv_flex.h ****     return (uint8_t)v.num;
 499              		.loc 4 139 0
 500 00ca C6B2     		uxtb	r6, r0
 501              	.LVL60:
 502              	.LBE70:
 503              	.LBE69:
 345:..\..\..\arduinoLCD\test\Pain Drain\libraries\lvgl\src\extra\layouts\flex/lv_flex.c ****                 t->grow_item_cnt++;
 504              		.loc 2 345 0
ARM GAS  C:\Users\haske\AppData\Local\Temp\ccVRp2Ta.s 			page 26


 505 00cc 002E     		cmp	r6, #0
 506 00ce 6FD0     		beq	.L32
 346:..\..\..\arduinoLCD\test\Pain Drain\libraries\lvgl\src\extra\layouts\flex/lv_flex.c ****                 t->track_fix_main_size += item_gap;
 507              		.loc 2 346 0
 508 00d0 2B69     		ldr	r3, [r5, #16]
 509 00d2 0133     		adds	r3, r3, #1
 510 00d4 2B61     		str	r3, [r5, #16]
 347:..\..\..\arduinoLCD\test\Pain Drain\libraries\lvgl\src\extra\layouts\flex/lv_flex.c ****                 if(t->grow_dsc_calc) {
 511              		.loc 2 347 0
 512 00d6 AA88     		ldrh	r2, [r5, #4]
 513 00d8 4244     		add	r2, r2, r8
 514 00da AA80     		strh	r2, [r5, #4]
 348:..\..\..\arduinoLCD\test\Pain Drain\libraries\lvgl\src\extra\layouts\flex/lv_flex.c ****                     grow_dsc_t * new_dsc = lv_mem_buf_get(sizeof(grow_dsc_t) * (t->grow_item_cnt));
 515              		.loc 2 348 0
 516 00dc 2A7D     		ldrb	r2, [r5, #20]
 517 00de D207     		lsls	r2, r2, #31
 518 00e0 76D5     		bpl	.L33
 519              	.LBB71:
 349:..\..\..\arduinoLCD\test\Pain Drain\libraries\lvgl\src\extra\layouts\flex/lv_flex.c ****                     LV_ASSERT_MALLOC(new_dsc);
 520              		.loc 2 349 0
 521 00e2 9A00     		lsls	r2, r3, #2
 522 00e4 D318     		adds	r3, r2, r3
 523 00e6 9800     		lsls	r0, r3, #2
 524 00e8 FFF7FEFF 		bl	lv_mem_buf_get
 525              	.LVL61:
 526 00ec 8246     		mov	r10, r0
 527              	.LVL62:
 350:..\..\..\arduinoLCD\test\Pain Drain\libraries\lvgl\src\extra\layouts\flex/lv_flex.c ****                     if(new_dsc == NULL) return item_id;
 528              		.loc 2 350 0
 529 00ee 0028     		cmp	r0, #0
 530 00f0 00D1     		bne	.L34
 531              	.L35:
 532 00f2 FEE7     		b	.L35
 533              	.L34:
 351:..\..\..\arduinoLCD\test\Pain Drain\libraries\lvgl\src\extra\layouts\flex/lv_flex.c **** 
 534              		.loc 2 351 0
 535 00f4 0028     		cmp	r0, #0
 536 00f6 01D1     		bne	.L36
 351:..\..\..\arduinoLCD\test\Pain Drain\libraries\lvgl\src\extra\layouts\flex/lv_flex.c **** 
 537              		.loc 2 351 0 is_stmt 0 discriminator 1
 538 00f8 0598     		ldr	r0, [sp, #20]
 539              	.LVL63:
 540 00fa BAE0     		b	.L37
 541              	.LVL64:
 542              	.L36:
 353:..\..\..\arduinoLCD\test\Pain Drain\libraries\lvgl\src\extra\layouts\flex/lv_flex.c ****                         lv_memcpy(new_dsc, t->grow_dsc, sizeof(grow_dsc_t) * (t->grow_item_cnt - 1)
 543              		.loc 2 353 0 is_stmt 1
 544 00fc E968     		ldr	r1, [r5, #12]
 545 00fe 0029     		cmp	r1, #0
 546 0100 09D0     		beq	.L38
 354:..\..\..\arduinoLCD\test\Pain Drain\libraries\lvgl\src\extra\layouts\flex/lv_flex.c ****                         lv_mem_buf_release(t->grow_dsc);
 547              		.loc 2 354 0
 548 0102 2B69     		ldr	r3, [r5, #16]
 549 0104 9A00     		lsls	r2, r3, #2
 550 0106 D318     		adds	r3, r2, r3
 551 0108 9A00     		lsls	r2, r3, #2
 552 010a 143A     		subs	r2, r2, #20
ARM GAS  C:\Users\haske\AppData\Local\Temp\ccVRp2Ta.s 			page 27


 553 010c FFF7FEFF 		bl	lv_memcpy
 554              	.LVL65:
 355:..\..\..\arduinoLCD\test\Pain Drain\libraries\lvgl\src\extra\layouts\flex/lv_flex.c ****                     }
 555              		.loc 2 355 0
 556 0110 E868     		ldr	r0, [r5, #12]
 557 0112 FFF7FEFF 		bl	lv_mem_buf_release
 558              	.LVL66:
 559              	.L38:
 357:..\..\..\arduinoLCD\test\Pain Drain\libraries\lvgl\src\extra\layouts\flex/lv_flex.c ****                     new_dsc[t->grow_item_cnt - 1].min_size = f->row ? lv_obj_get_style_min_width(it
 560              		.loc 2 357 0
 561 0116 2B69     		ldr	r3, [r5, #16]
 562 0118 9A00     		lsls	r2, r3, #2
 563 011a D318     		adds	r3, r2, r3
 564 011c 9A00     		lsls	r2, r3, #2
 565 011e 143A     		subs	r2, r2, #20
 566 0120 5346     		mov	r3, r10
 567 0122 9C50     		str	r4, [r3, r2]
 358:..\..\..\arduinoLCD\test\Pain Drain\libraries\lvgl\src\extra\layouts\flex/lv_flex.c ****                                                                                                  LV
 568              		.loc 2 358 0
 569 0124 2B69     		ldr	r3, [r5, #16]
 570 0126 9A00     		lsls	r2, r3, #2
 571 0128 D318     		adds	r3, r2, r3
 572 012a 9A00     		lsls	r2, r3, #2
 573 012c 143A     		subs	r2, r2, #20
 574 012e 5244     		add	r2, r2, r10
 575 0130 9346     		mov	fp, r2
 576 0132 FB78     		ldrb	r3, [r7, #3]
 577 0134 DB07     		lsls	r3, r3, #31
 578 0136 06D5     		bpl	.L39
 579              	.LVL67:
 580              	.LBB72:
 581              	.LBB73:
   9:c:\projects\paindrain\arduinolcd\test\pain drain\libraries\lvgl\src\core\lv_obj_style_gen.h ****     return (lv_coord_t)v.num;
 582              		.loc 3 9 0
 583 0138 0222     		movs	r2, #2
 584 013a 0021     		movs	r1, #0
 585 013c 2000     		movs	r0, r4
 586 013e FFF7FEFF 		bl	lv_obj_get_style_prop
 587              	.LVL68:
  10:c:\projects\paindrain\arduinolcd\test\pain drain\libraries\lvgl\src\core\lv_obj_style_gen.h **** }
 588              		.loc 3 10 0
 589 0142 00B2     		sxth	r0, r0
 590              	.LVL69:
 591              	.LBE73:
 592              	.LBE72:
 593 0144 05E0     		b	.L40
 594              	.L39:
 595              	.LVL70:
 596              	.LBB74:
 597              	.LBB75:
  23:c:\projects\paindrain\arduinolcd\test\pain drain\libraries\lvgl\src\core\lv_obj_style_gen.h **** }
  24:c:\projects\paindrain\arduinolcd\test\pain drain\libraries\lvgl\src\core\lv_obj_style_gen.h **** 
  25:c:\projects\paindrain\arduinolcd\test\pain drain\libraries\lvgl\src\core\lv_obj_style_gen.h **** static inline lv_coord_t lv_obj_get_style_min_height(const struct _lv_obj_t * obj, uint32_t part)
  26:c:\projects\paindrain\arduinolcd\test\pain drain\libraries\lvgl\src\core\lv_obj_style_gen.h **** {
  27:c:\projects\paindrain\arduinolcd\test\pain drain\libraries\lvgl\src\core\lv_obj_style_gen.h ****     lv_style_value_t v = lv_obj_get_style_prop(obj, part, LV_STYLE_MIN_HEIGHT);
 598              		.loc 3 27 0
 599 0146 0522     		movs	r2, #5
ARM GAS  C:\Users\haske\AppData\Local\Temp\ccVRp2Ta.s 			page 28


 600 0148 0021     		movs	r1, #0
 601 014a 2000     		movs	r0, r4
 602 014c FFF7FEFF 		bl	lv_obj_get_style_prop
 603              	.LVL71:
  28:c:\projects\paindrain\arduinolcd\test\pain drain\libraries\lvgl\src\core\lv_obj_style_gen.h ****     return (lv_coord_t)v.num;
 604              		.loc 3 28 0
 605 0150 00B2     		sxth	r0, r0
 606              	.LVL72:
 607              	.L40:
 608              	.LBE75:
 609              	.LBE74:
 358:..\..\..\arduinoLCD\test\Pain Drain\libraries\lvgl\src\extra\layouts\flex/lv_flex.c ****                                                                                                  LV
 610              		.loc 2 358 0 discriminator 4
 611 0152 5B46     		mov	r3, fp
 612 0154 9880     		strh	r0, [r3, #4]
 360:..\..\..\arduinoLCD\test\Pain Drain\libraries\lvgl\src\extra\layouts\flex/lv_flex.c ****                                                                                                  LV
 613              		.loc 2 360 0 discriminator 4
 614 0156 2B69     		ldr	r3, [r5, #16]
 615 0158 9A00     		lsls	r2, r3, #2
 616 015a D318     		adds	r3, r2, r3
 617 015c 9A00     		lsls	r2, r3, #2
 618 015e 143A     		subs	r2, r2, #20
 619 0160 5244     		add	r2, r2, r10
 620 0162 9346     		mov	fp, r2
 621 0164 FB78     		ldrb	r3, [r7, #3]
 622 0166 DB07     		lsls	r3, r3, #31
 623 0168 06D5     		bpl	.L41
 624              	.LVL73:
 625              	.LBB76:
 626              	.LBB77:
  15:c:\projects\paindrain\arduinolcd\test\pain drain\libraries\lvgl\src\core\lv_obj_style_gen.h ****     return (lv_coord_t)v.num;
 627              		.loc 3 15 0
 628 016a 0322     		movs	r2, #3
 629 016c 0021     		movs	r1, #0
 630 016e 2000     		movs	r0, r4
 631 0170 FFF7FEFF 		bl	lv_obj_get_style_prop
 632              	.LVL74:
  16:c:\projects\paindrain\arduinolcd\test\pain drain\libraries\lvgl\src\core\lv_obj_style_gen.h **** }
 633              		.loc 3 16 0
 634 0174 00B2     		sxth	r0, r0
 635              	.LVL75:
 636              	.LBE77:
 637              	.LBE76:
 638 0176 05E0     		b	.L42
 639              	.L41:
 640              	.LVL76:
 641              	.LBB78:
 642              	.LBB79:
  29:c:\projects\paindrain\arduinolcd\test\pain drain\libraries\lvgl\src\core\lv_obj_style_gen.h **** }
  30:c:\projects\paindrain\arduinolcd\test\pain drain\libraries\lvgl\src\core\lv_obj_style_gen.h **** 
  31:c:\projects\paindrain\arduinolcd\test\pain drain\libraries\lvgl\src\core\lv_obj_style_gen.h **** static inline lv_coord_t lv_obj_get_style_max_height(const struct _lv_obj_t * obj, uint32_t part)
  32:c:\projects\paindrain\arduinolcd\test\pain drain\libraries\lvgl\src\core\lv_obj_style_gen.h **** {
  33:c:\projects\paindrain\arduinolcd\test\pain drain\libraries\lvgl\src\core\lv_obj_style_gen.h ****     lv_style_value_t v = lv_obj_get_style_prop(obj, part, LV_STYLE_MAX_HEIGHT);
 643              		.loc 3 33 0
 644 0178 0622     		movs	r2, #6
 645 017a 0021     		movs	r1, #0
 646 017c 2000     		movs	r0, r4
ARM GAS  C:\Users\haske\AppData\Local\Temp\ccVRp2Ta.s 			page 29


 647 017e FFF7FEFF 		bl	lv_obj_get_style_prop
 648              	.LVL77:
  34:c:\projects\paindrain\arduinolcd\test\pain drain\libraries\lvgl\src\core\lv_obj_style_gen.h ****     return (lv_coord_t)v.num;
 649              		.loc 3 34 0
 650 0182 00B2     		sxth	r0, r0
 651              	.LVL78:
 652              	.L42:
 653              	.LBE79:
 654              	.LBE78:
 360:..\..\..\arduinoLCD\test\Pain Drain\libraries\lvgl\src\extra\layouts\flex/lv_flex.c ****                                                                                                  LV
 655              		.loc 2 360 0 discriminator 4
 656 0184 5B46     		mov	r3, fp
 657 0186 D880     		strh	r0, [r3, #6]
 362:..\..\..\arduinoLCD\test\Pain Drain\libraries\lvgl\src\extra\layouts\flex/lv_flex.c ****                     new_dsc[t->grow_item_cnt - 1].clamped = 0;
 658              		.loc 2 362 0 discriminator 4
 659 0188 2B69     		ldr	r3, [r5, #16]
 660 018a 9A00     		lsls	r2, r3, #2
 661 018c D218     		adds	r2, r2, r3
 662 018e 9300     		lsls	r3, r2, #2
 663 0190 143B     		subs	r3, r3, #20
 664 0192 5344     		add	r3, r3, r10
 665 0194 DE60     		str	r6, [r3, #12]
 363:..\..\..\arduinoLCD\test\Pain Drain\libraries\lvgl\src\extra\layouts\flex/lv_flex.c ****                     t->grow_dsc = new_dsc;
 666              		.loc 2 363 0 discriminator 4
 667 0196 2B69     		ldr	r3, [r5, #16]
 668 0198 9A00     		lsls	r2, r3, #2
 669 019a D218     		adds	r2, r2, r3
 670 019c 9300     		lsls	r3, r2, #2
 671 019e 143B     		subs	r3, r3, #20
 672 01a0 5344     		add	r3, r3, r10
 673 01a2 1A7C     		ldrb	r2, [r3, #16]
 674 01a4 0121     		movs	r1, #1
 675 01a6 8A43     		bics	r2, r1
 676 01a8 1A74     		strb	r2, [r3, #16]
 364:..\..\..\arduinoLCD\test\Pain Drain\libraries\lvgl\src\extra\layouts\flex/lv_flex.c ****                 }
 677              		.loc 2 364 0 discriminator 4
 678 01aa 5346     		mov	r3, r10
 679 01ac EB60     		str	r3, [r5, #12]
 680 01ae 0FE0     		b	.L33
 681              	.LVL79:
 682              	.L32:
 683              	.LBE71:
 684              	.LBB80:
 368:..\..\..\arduinoLCD\test\Pain Drain\libraries\lvgl\src\extra\layouts\flex/lv_flex.c ****                 if(f->wrap && t->track_fix_main_size + item_size > max_main_size) break;
 685              		.loc 2 368 0
 686 01b0 2000     		movs	r0, r4
 687 01b2 029B     		ldr	r3, [sp, #8]
 688 01b4 9847     		blx	r3
 689              	.LVL80:
 369:..\..\..\arduinoLCD\test\Pain Drain\libraries\lvgl\src\extra\layouts\flex/lv_flex.c ****                 t->track_fix_main_size += item_size + item_gap;
 690              		.loc 2 369 0
 691 01b6 FB78     		ldrb	r3, [r7, #3]
 692 01b8 9B07     		lsls	r3, r3, #30
 693 01ba 05D5     		bpl	.L43
 369:..\..\..\arduinoLCD\test\Pain Drain\libraries\lvgl\src\extra\layouts\flex/lv_flex.c ****                 t->track_fix_main_size += item_size + item_gap;
 694              		.loc 2 369 0 is_stmt 0 discriminator 1
 695 01bc 0422     		movs	r2, #4
ARM GAS  C:\Users\haske\AppData\Local\Temp\ccVRp2Ta.s 			page 30


 696 01be AB5E     		ldrsh	r3, [r5, r2]
 697 01c0 1B18     		adds	r3, r3, r0
 698 01c2 039A     		ldr	r2, [sp, #12]
 699 01c4 9342     		cmp	r3, r2
 700 01c6 26DC     		bgt	.L30
 701              	.L43:
 370:..\..\..\arduinoLCD\test\Pain Drain\libraries\lvgl\src\extra\layouts\flex/lv_flex.c ****             }
 702              		.loc 2 370 0 is_stmt 1
 703 01c8 4044     		add	r0, r0, r8
 704              	.LVL81:
 705 01ca AB88     		ldrh	r3, [r5, #4]
 706 01cc 1818     		adds	r0, r3, r0
 707 01ce A880     		strh	r0, [r5, #4]
 708              	.L33:
 709              	.LBE80:
 374:..\..\..\arduinoLCD\test\Pain Drain\libraries\lvgl\src\extra\layouts\flex/lv_flex.c ****             t->item_cnt++;
 710              		.loc 2 374 0
 711 01d0 2000     		movs	r0, r4
 712 01d2 019B     		ldr	r3, [sp, #4]
 713 01d4 9847     		blx	r3
 714              	.LVL82:
 715 01d6 0022     		movs	r2, #0
 716 01d8 AB5E     		ldrsh	r3, [r5, r2]
 717 01da 9842     		cmp	r0, r3
 718 01dc 03DD     		ble	.L44
 374:..\..\..\arduinoLCD\test\Pain Drain\libraries\lvgl\src\extra\layouts\flex/lv_flex.c ****             t->item_cnt++;
 719              		.loc 2 374 0 is_stmt 0 discriminator 1
 720 01de 2000     		movs	r0, r4
 721 01e0 019B     		ldr	r3, [sp, #4]
 722 01e2 9847     		blx	r3
 723              	.LVL83:
 724 01e4 0300     		movs	r3, r0
 725              	.L44:
 374:..\..\..\arduinoLCD\test\Pain Drain\libraries\lvgl\src\extra\layouts\flex/lv_flex.c ****             t->item_cnt++;
 726              		.loc 2 374 0 discriminator 4
 727 01e6 2B80     		strh	r3, [r5]
 375:..\..\..\arduinoLCD\test\Pain Drain\libraries\lvgl\src\extra\layouts\flex/lv_flex.c ****         }
 728              		.loc 2 375 0 is_stmt 1 discriminator 4
 729 01e8 AB68     		ldr	r3, [r5, #8]
 730 01ea 0133     		adds	r3, r3, #1
 731 01ec AB60     		str	r3, [r5, #8]
 732              	.L31:
 733              	.LBE68:
 378:..\..\..\arduinoLCD\test\Pain Drain\libraries\lvgl\src\extra\layouts\flex/lv_flex.c ****         if(item_id < 0) break;
 734              		.loc 2 378 0
 735 01ee FB78     		ldrb	r3, [r7, #3]
 736 01f0 5B07     		lsls	r3, r3, #29
 737 01f2 02D5     		bpl	.L52
 738 01f4 0121     		movs	r1, #1
 739 01f6 4942     		rsbs	r1, r1, #0
 740 01f8 00E0     		b	.L45
 741              	.L52:
 742 01fa 0121     		movs	r1, #1
 743              	.L45:
 378:..\..\..\arduinoLCD\test\Pain Drain\libraries\lvgl\src\extra\layouts\flex/lv_flex.c ****         if(item_id < 0) break;
 744              		.loc 2 378 0 is_stmt 0 discriminator 4
 745 01fc 059B     		ldr	r3, [sp, #20]
ARM GAS  C:\Users\haske\AppData\Local\Temp\ccVRp2Ta.s 			page 31


 746 01fe 9C46     		mov	ip, r3
 747 0200 6144     		add	r1, r1, ip
 748 0202 0591     		str	r1, [sp, #20]
 379:..\..\..\arduinoLCD\test\Pain Drain\libraries\lvgl\src\extra\layouts\flex/lv_flex.c ****         item = lv_obj_get_child(cont, item_id);
 749              		.loc 2 379 0 is_stmt 1 discriminator 4
 750 0204 0029     		cmp	r1, #0
 751 0206 06DB     		blt	.L30
 380:..\..\..\arduinoLCD\test\Pain Drain\libraries\lvgl\src\extra\layouts\flex/lv_flex.c ****     }
 752              		.loc 2 380 0
 753 0208 0098     		ldr	r0, [sp]
 754 020a FFF7FEFF 		bl	lv_obj_get_child
 755              	.LVL84:
 756 020e 0400     		movs	r4, r0
 757              	.LVL85:
 758              	.L28:
 340:..\..\..\arduinoLCD\test\Pain Drain\libraries\lvgl\src\extra\layouts\flex/lv_flex.c ****         if(item_id != item_start_id && lv_obj_has_flag(item, LV_OBJ_FLAG_FLEX_IN_NEW_TRACK)) break;
 759              		.loc 2 340 0
 760 0210 002C     		cmp	r4, #0
 761 0212 00D0     		beq	.LCB790
 762 0214 41E7     		b	.L46	@long jump
 763              	.LCB790:
 764              	.LVL86:
 765              	.L30:
 766 0216 3E00     		movs	r6, r7
 767 0218 4F46     		mov	r7, r9
 768              	.LVL87:
 383:..\..\..\arduinoLCD\test\Pain Drain\libraries\lvgl\src\extra\layouts\flex/lv_flex.c **** 
 769              		.loc 2 383 0
 770 021a 0422     		movs	r2, #4
 771 021c AB5E     		ldrsh	r3, [r5, r2]
 772 021e 002B     		cmp	r3, #0
 773 0220 02DD     		ble	.L47
 774              	.LVL88:
 383:..\..\..\arduinoLCD\test\Pain Drain\libraries\lvgl\src\extra\layouts\flex/lv_flex.c **** 
 775              		.loc 2 383 0 is_stmt 0 discriminator 1
 776 0222 4246     		mov	r2, r8
 777 0224 9B1A     		subs	r3, r3, r2
 778 0226 AB80     		strh	r3, [r5, #4]
 779              	.L47:
 386:..\..\..\arduinoLCD\test\Pain Drain\libraries\lvgl\src\extra\layouts\flex/lv_flex.c **** 
 780              		.loc 2 386 0 is_stmt 1
 781 0228 2B69     		ldr	r3, [r5, #16]
 782 022a 002B     		cmp	r3, #0
 783 022c 02D1     		bne	.L53
 386:..\..\..\arduinoLCD\test\Pain Drain\libraries\lvgl\src\extra\layouts\flex/lv_flex.c **** 
 784              		.loc 2 386 0 is_stmt 0 discriminator 1
 785 022e 0422     		movs	r2, #4
 786 0230 AB5E     		ldrsh	r3, [r5, r2]
 787 0232 00E0     		b	.L48
 788              	.L53:
 386:..\..\..\arduinoLCD\test\Pain Drain\libraries\lvgl\src\extra\layouts\flex/lv_flex.c **** 
 789              		.loc 2 386 0
 790 0234 039B     		ldr	r3, [sp, #12]
 791              	.L48:
 386:..\..\..\arduinoLCD\test\Pain Drain\libraries\lvgl\src\extra\layouts\flex/lv_flex.c **** 
 792              		.loc 2 386 0 discriminator 4
 793 0236 6B80     		strh	r3, [r5, #2]
ARM GAS  C:\Users\haske\AppData\Local\Temp\ccVRp2Ta.s 			page 32


 389:..\..\..\arduinoLCD\test\Pain Drain\libraries\lvgl\src\extra\layouts\flex/lv_flex.c ****         item = cont->spec_attr->children[item_id];
 794              		.loc 2 389 0 is_stmt 1 discriminator 4
 795 0238 002C     		cmp	r4, #0
 796 023a 19D0     		beq	.L49
 389:..\..\..\arduinoLCD\test\Pain Drain\libraries\lvgl\src\extra\layouts\flex/lv_flex.c ****         item = cont->spec_attr->children[item_id];
 797              		.loc 2 389 0 is_stmt 0 discriminator 1
 798 023c 059B     		ldr	r3, [sp, #20]
 799 023e 9F42     		cmp	r7, r3
 800 0240 16D1     		bne	.L49
 390:..\..\..\arduinoLCD\test\Pain Drain\libraries\lvgl\src\extra\layouts\flex/lv_flex.c ****         get_next_item(cont, f->rev, &item_id);
 801              		.loc 2 390 0 is_stmt 1
 802 0242 0098     		ldr	r0, [sp]
 803 0244 8268     		ldr	r2, [r0, #8]
 804 0246 1268     		ldr	r2, [r2]
 805 0248 9B00     		lsls	r3, r3, #2
 806 024a D458     		ldr	r4, [r2, r3]
 807              	.LVL89:
 391:..\..\..\arduinoLCD\test\Pain Drain\libraries\lvgl\src\extra\layouts\flex/lv_flex.c ****         if(item) {
 808              		.loc 2 391 0
 809 024c F178     		ldrb	r1, [r6, #3]
 810 024e 4907     		lsls	r1, r1, #29
 811 0250 C90F     		lsrs	r1, r1, #31
 812 0252 05AA     		add	r2, sp, #20
 813 0254 FFF7FEFF 		bl	get_next_item
 814              	.LVL90:
 392:..\..\..\arduinoLCD\test\Pain Drain\libraries\lvgl\src\extra\layouts\flex/lv_flex.c ****             t->track_cross_size = get_cross_size(item);
 815              		.loc 2 392 0
 816 0258 002C     		cmp	r4, #0
 817 025a 09D0     		beq	.L49
 393:..\..\..\arduinoLCD\test\Pain Drain\libraries\lvgl\src\extra\layouts\flex/lv_flex.c ****             t->track_main_size = get_main_size(item);
 818              		.loc 2 393 0
 819 025c 2000     		movs	r0, r4
 820 025e 019B     		ldr	r3, [sp, #4]
 821 0260 9847     		blx	r3
 822              	.LVL91:
 823 0262 2880     		strh	r0, [r5]
 394:..\..\..\arduinoLCD\test\Pain Drain\libraries\lvgl\src\extra\layouts\flex/lv_flex.c ****             t->item_cnt = 1;
 824              		.loc 2 394 0
 825 0264 2000     		movs	r0, r4
 826 0266 029B     		ldr	r3, [sp, #8]
 827 0268 9847     		blx	r3
 828              	.LVL92:
 829 026a 6880     		strh	r0, [r5, #2]
 395:..\..\..\arduinoLCD\test\Pain Drain\libraries\lvgl\src\extra\layouts\flex/lv_flex.c ****         }
 830              		.loc 2 395 0
 831 026c 0123     		movs	r3, #1
 832 026e AB60     		str	r3, [r5, #8]
 833              	.L49:
 399:..\..\..\arduinoLCD\test\Pain Drain\libraries\lvgl\src\extra\layouts\flex/lv_flex.c **** }
 834              		.loc 2 399 0
 835 0270 0598     		ldr	r0, [sp, #20]
 836              	.LVL93:
 837              	.L37:
 400:..\..\..\arduinoLCD\test\Pain Drain\libraries\lvgl\src\extra\layouts\flex/lv_flex.c **** 
 838              		.loc 2 400 0
 839 0272 07B0     		add	sp, sp, #28
 840              	.LVL94:
ARM GAS  C:\Users\haske\AppData\Local\Temp\ccVRp2Ta.s 			page 33


 841              		@ sp needed
 842              	.LVL95:
 843              	.LVL96:
 844 0274 3CBC     		pop	{r2, r3, r4, r5}
 845 0276 9046     		mov	r8, r2
 846 0278 9946     		mov	r9, r3
 847 027a A246     		mov	r10, r4
 848 027c AB46     		mov	fp, r5
 849 027e F0BD     		pop	{r4, r5, r6, r7, pc}
 850              	.L55:
 851              		.align	2
 852              	.L54:
 853 0280 D1270000 		.word	10193
 854 0284 00000000 		.word	lv_obj_get_width
 855 0288 00000000 		.word	lv_obj_get_height
 856 028c 01000600 		.word	393217
 857 0290 00000000 		.word	LV_STYLE_FLEX_GROW
 858              		.cfi_endproc
 859              	.LFE190:
 860              		.size	find_track_end, .-find_track_end
 861              		.section	.text.children_repos,"ax",%progbits
 862              		.align	2
 863              		.code	16
 864              		.thumb_func
 865              		.type	children_repos, %function
 866              	children_repos:
 867              	.LFB191:
 407:..\..\..\arduinoLCD\test\Pain Drain\libraries\lvgl\src\extra\layouts\flex/lv_flex.c ****     void (*area_set_main_size)(lv_area_t *, lv_coord_t) = (f->row ? lv_area_set_width : lv_area_set
 868              		.loc 2 407 0
 869              		.cfi_startproc
 870              		@ args = 20, pretend = 0, frame = 64
 871              		@ frame_needed = 0, uses_anonymous_args = 0
 872              	.LVL97:
 873 0000 F0B5     		push	{r4, r5, r6, r7, lr}
 874              		.cfi_def_cfa_offset 20
 875              		.cfi_offset 4, -20
 876              		.cfi_offset 5, -16
 877              		.cfi_offset 6, -12
 878              		.cfi_offset 7, -8
 879              		.cfi_offset 14, -4
 880 0002 5F46     		mov	r7, fp
 881 0004 5646     		mov	r6, r10
 882 0006 4D46     		mov	r5, r9
 883 0008 4446     		mov	r4, r8
 884 000a F0B4     		push	{r4, r5, r6, r7}
 885              		.cfi_def_cfa_offset 36
 886              		.cfi_offset 8, -36
 887              		.cfi_offset 9, -32
 888              		.cfi_offset 10, -28
 889              		.cfi_offset 11, -24
 890 000c 93B0     		sub	sp, sp, #76
 891              		.cfi_def_cfa_offset 112
 892 000e 0290     		str	r0, [sp, #8]
 893 0010 8B46     		mov	fp, r1
 894 0012 0D92     		str	r2, [sp, #52]
 895 0014 0993     		str	r3, [sp, #36]
 896 0016 1CAB     		add	r3, sp, #112
ARM GAS  C:\Users\haske\AppData\Local\Temp\ccVRp2Ta.s 			page 34


 897              	.LVL98:
 898 0018 0022     		movs	r2, #0
 899 001a 9B5E     		ldrsh	r3, [r3, r2]
 900              	.LVL99:
 901 001c 0A93     		str	r3, [sp, #40]
 902 001e 1DAB     		add	r3, sp, #116
 903              	.LVL100:
 904 0020 0022     		movs	r2, #0
 905 0022 9B5E     		ldrsh	r3, [r3, r2]
 906              	.LVL101:
 907 0024 0B93     		str	r3, [sp, #44]
 908 0026 1EAB     		add	r3, sp, #120
 909              	.LVL102:
 910 0028 0022     		movs	r2, #0
 911 002a 9B5E     		ldrsh	r3, [r3, r2]
 912              	.LVL103:
 913 002c 9846     		mov	r8, r3
 914 002e 1FAB     		add	r3, sp, #124
 915              	.LVL104:
 916 0030 0022     		movs	r2, #0
 917 0032 9B5E     		ldrsh	r3, [r3, r2]
 918              	.LVL105:
 919 0034 0893     		str	r3, [sp, #32]
 920 0036 209D     		ldr	r5, [sp, #128]
 408:..\..\..\arduinoLCD\test\Pain Drain\libraries\lvgl\src\extra\layouts\flex/lv_flex.c ****     lv_coord_t (*area_get_main_size)(const lv_area_t *) = (f->row ? lv_area_get_width : lv_area_get
 921              		.loc 2 408 0
 922 0038 CB78     		ldrb	r3, [r1, #3]
 923 003a 0122     		movs	r2, #1
 924 003c 1340     		ands	r3, r2
 925 003e 02D0     		beq	.L106
 926 0040 A74A     		ldr	r2, .L113
 927 0042 0792     		str	r2, [sp, #28]
 928 0044 01E0     		b	.L57
 929              	.L106:
 930 0046 A74A     		ldr	r2, .L113+4
 931 0048 0792     		str	r2, [sp, #28]
 932              	.L57:
 933              	.LVL106:
 409:..\..\..\arduinoLCD\test\Pain Drain\libraries\lvgl\src\extra\layouts\flex/lv_flex.c ****     lv_coord_t (*area_get_cross_size)(const lv_area_t *) = (!f->row ? lv_area_get_width : lv_area_g
 934              		.loc 2 409 0 discriminator 4
 935 004a 002B     		cmp	r3, #0
 936 004c 02D0     		beq	.L107
 409:..\..\..\arduinoLCD\test\Pain Drain\libraries\lvgl\src\extra\layouts\flex/lv_flex.c ****     lv_coord_t (*area_get_cross_size)(const lv_area_t *) = (!f->row ? lv_area_get_width : lv_area_g
 937              		.loc 2 409 0 is_stmt 0
 938 004e A64A     		ldr	r2, .L113+8
 939 0050 0392     		str	r2, [sp, #12]
 940 0052 01E0     		b	.L58
 941              	.L107:
 942 0054 A54A     		ldr	r2, .L113+12
 943 0056 0392     		str	r2, [sp, #12]
 944              	.L58:
 945              	.LVL107:
 410:..\..\..\arduinoLCD\test\Pain Drain\libraries\lvgl\src\extra\layouts\flex/lv_flex.c **** 
 946              		.loc 2 410 0 is_stmt 1 discriminator 4
 947 0058 002B     		cmp	r3, #0
 948 005a 02D1     		bne	.L108
 410:..\..\..\arduinoLCD\test\Pain Drain\libraries\lvgl\src\extra\layouts\flex/lv_flex.c **** 
ARM GAS  C:\Users\haske\AppData\Local\Temp\ccVRp2Ta.s 			page 35


 949              		.loc 2 410 0 is_stmt 0
 950 005c A24B     		ldr	r3, .L113+8
 951 005e 0593     		str	r3, [sp, #20]
 952 0060 01E0     		b	.L59
 953              	.L108:
 954 0062 A24B     		ldr	r3, .L113+12
 955 0064 0593     		str	r3, [sp, #20]
 956              	.L59:
 957              	.LVL108:
 414:..\..\..\arduinoLCD\test\Pain Drain\libraries\lvgl\src\extra\layouts\flex/lv_flex.c ****     while(grow_reiterate) {
 958              		.loc 2 414 0 is_stmt 1 discriminator 4
 959 0066 0123     		movs	r3, #1
 960 0068 0493     		str	r3, [sp, #16]
 415:..\..\..\arduinoLCD\test\Pain Drain\libraries\lvgl\src\extra\layouts\flex/lv_flex.c ****         grow_reiterate = false;
 961              		.loc 2 415 0 discriminator 4
 962 006a 67E0     		b	.L60
 963              	.LVL109:
 964              	.L73:
 965              	.LBB81:
 418:..\..\..\arduinoLCD\test\Pain Drain\libraries\lvgl\src\extra\layouts\flex/lv_flex.c ****         for(i = 0; i < t->grow_item_cnt; i++) {
 966              		.loc 2 418 0
 967 006c 0222     		movs	r2, #2
 968 006e AB5E     		ldrsh	r3, [r5, r2]
 969 0070 0422     		movs	r2, #4
 970 0072 AE5E     		ldrsh	r6, [r5, r2]
 971 0074 9E1B     		subs	r6, r3, r6
 972 0076 33B2     		sxth	r3, r6
 973 0078 9A46     		mov	r10, r3
 974              	.LVL110:
 417:..\..\..\arduinoLCD\test\Pain Drain\libraries\lvgl\src\extra\layouts\flex/lv_flex.c ****         lv_coord_t grow_max_size = t->track_main_size - t->track_fix_main_size;
 975              		.loc 2 417 0
 976 007a 0023     		movs	r3, #0
 419:..\..\..\arduinoLCD\test\Pain Drain\libraries\lvgl\src\extra\layouts\flex/lv_flex.c ****             if(t->grow_dsc[i].clamped == 0) {
 977              		.loc 2 419 0
 978 007c 0022     		movs	r2, #0
 979 007e 1800     		movs	r0, r3
 980 0080 5446     		mov	r4, r10
 981 0082 11E0     		b	.L61
 982              	.LVL111:
 983              	.L64:
 420:..\..\..\arduinoLCD\test\Pain Drain\libraries\lvgl\src\extra\layouts\flex/lv_flex.c ****                 grow_value_sum += t->grow_dsc[i].grow_value;
 984              		.loc 2 420 0
 985 0084 9300     		lsls	r3, r2, #2
 986 0086 9B18     		adds	r3, r3, r2
 987 0088 9B00     		lsls	r3, r3, #2
 988 008a E968     		ldr	r1, [r5, #12]
 989 008c 8C46     		mov	ip, r1
 990 008e 6344     		add	r3, r3, ip
 991 0090 197C     		ldrb	r1, [r3, #16]
 992 0092 C907     		lsls	r1, r1, #31
 993 0094 03D4     		bmi	.L62
 421:..\..\..\arduinoLCD\test\Pain Drain\libraries\lvgl\src\extra\layouts\flex/lv_flex.c ****             }
 994              		.loc 2 421 0
 995 0096 D968     		ldr	r1, [r3, #12]
 996 0098 0918     		adds	r1, r1, r0
 997 009a 08B2     		sxth	r0, r1
 998              	.LVL112:
ARM GAS  C:\Users\haske\AppData\Local\Temp\ccVRp2Ta.s 			page 36


 999 009c 03E0     		b	.L63
 1000              	.L62:
 424:..\..\..\arduinoLCD\test\Pain Drain\libraries\lvgl\src\extra\layouts\flex/lv_flex.c ****             }
 1001              		.loc 2 424 0
 1002 009e 0821     		movs	r1, #8
 1003 00a0 595E     		ldrsh	r1, [r3, r1]
 1004 00a2 631A     		subs	r3, r4, r1
 1005 00a4 1CB2     		sxth	r4, r3
 1006              	.LVL113:
 1007              	.L63:
 419:..\..\..\arduinoLCD\test\Pain Drain\libraries\lvgl\src\extra\layouts\flex/lv_flex.c ****             if(t->grow_dsc[i].clamped == 0) {
 1008              		.loc 2 419 0 discriminator 2
 1009 00a6 0132     		adds	r2, r2, #1
 1010              	.LVL114:
 1011              	.L61:
 419:..\..\..\arduinoLCD\test\Pain Drain\libraries\lvgl\src\extra\layouts\flex/lv_flex.c ****             if(t->grow_dsc[i].clamped == 0) {
 1012              		.loc 2 419 0 is_stmt 0 discriminator 1
 1013 00a8 2B69     		ldr	r3, [r5, #16]
 1014 00aa 9A42     		cmp	r2, r3
 1015 00ac EAD3     		bcc	.L64
 1016 00ae 8146     		mov	r9, r0
 1017 00b0 A246     		mov	r10, r4
 1018 00b2 0023     		movs	r3, #0
 1019 00b4 0693     		str	r3, [sp, #24]
 1020 00b6 0026     		movs	r6, #0
 1021 00b8 3BE0     		b	.L65
 1022              	.LVL115:
 1023              	.L72:
 430:..\..\..\arduinoLCD\test\Pain Drain\libraries\lvgl\src\extra\layouts\flex/lv_flex.c ****                 LV_ASSERT(grow_value_sum != 0);
 1024              		.loc 2 430 0 is_stmt 1
 1025 00ba B400     		lsls	r4, r6, #2
 1026 00bc A419     		adds	r4, r4, r6
 1027 00be A400     		lsls	r4, r4, #2
 1028 00c0 EB68     		ldr	r3, [r5, #12]
 1029 00c2 1F19     		adds	r7, r3, r4
 1030 00c4 3B7C     		ldrb	r3, [r7, #16]
 1031 00c6 DB07     		lsls	r3, r3, #31
 1032 00c8 32D4     		bmi	.L66
 1033              	.LBB82:
 431:..\..\..\arduinoLCD\test\Pain Drain\libraries\lvgl\src\extra\layouts\flex/lv_flex.c ****                 grow_unit = grow_max_size / grow_value_sum;
 1034              		.loc 2 431 0
 1035 00ca 4B46     		mov	r3, r9
 1036 00cc 002B     		cmp	r3, #0
 1037 00ce 00D1     		bne	.L67
 1038              	.L68:
 1039 00d0 FEE7     		b	.L68
 1040              	.L67:
 432:..\..\..\arduinoLCD\test\Pain Drain\libraries\lvgl\src\extra\layouts\flex/lv_flex.c ****                 lv_coord_t size = grow_unit * t->grow_dsc[i].grow_value;
 1041              		.loc 2 432 0
 1042 00d2 4946     		mov	r1, r9
 1043 00d4 5046     		mov	r0, r10
 1044 00d6 FFF7FEFF 		bl	__aeabi_idiv
 1045              	.LVL116:
 1046 00da 03B2     		sxth	r3, r0
 1047              	.LVL117:
 433:..\..\..\arduinoLCD\test\Pain Drain\libraries\lvgl\src\extra\layouts\flex/lv_flex.c ****                 lv_coord_t size_clamp = LV_CLAMP(t->grow_dsc[i].min_size, size, t->grow_dsc[i].max_
 1048              		.loc 2 433 0
ARM GAS  C:\Users\haske\AppData\Local\Temp\ccVRp2Ta.s 			page 37


 1049 00dc FA68     		ldr	r2, [r7, #12]
 1050 00de 5343     		muls	r3, r2
 1051              	.LVL118:
 1052 00e0 1BB2     		sxth	r3, r3
 1053              	.LVL119:
 434:..\..\..\arduinoLCD\test\Pain Drain\libraries\lvgl\src\extra\layouts\flex/lv_flex.c **** 
 1054              		.loc 2 434 0
 1055 00e2 0622     		movs	r2, #6
 1056 00e4 B95E     		ldrsh	r1, [r7, r2]
 1057 00e6 1A1C     		adds	r2, r3, #0
 1058 00e8 8B42     		cmp	r3, r1
 1059 00ea 00DD     		ble	.L69
 1060 00ec 0A1C     		adds	r2, r1, #0
 1061              	.L69:
 1062 00ee 0421     		movs	r1, #4
 1063 00f0 785E     		ldrsh	r0, [r7, r1]
 1064              	.LVL120:
 1065 00f2 111C     		adds	r1, r2, #0
 1066 00f4 12B2     		sxth	r2, r2
 1067 00f6 8242     		cmp	r2, r0
 1068 00f8 00DA     		bge	.L70
 1069 00fa 011C     		adds	r1, r0, #0
 1070              	.L70:
 1071 00fc 0AB2     		sxth	r2, r1
 1072              	.LVL121:
 436:..\..\..\arduinoLCD\test\Pain Drain\libraries\lvgl\src\extra\layouts\flex/lv_flex.c ****                     t->grow_dsc[i].clamped = 1;
 1073              		.loc 2 436 0
 1074 00fe 9342     		cmp	r3, r2
 1075 0100 05D0     		beq	.L71
 437:..\..\..\arduinoLCD\test\Pain Drain\libraries\lvgl\src\extra\layouts\flex/lv_flex.c ****                     grow_reiterate = true;
 1076              		.loc 2 437 0
 1077 0102 397C     		ldrb	r1, [r7, #16]
 1078              	.LVL122:
 1079 0104 0123     		movs	r3, #1
 1080              	.LVL123:
 1081 0106 0B43     		orrs	r3, r1
 1082 0108 3B74     		strb	r3, [r7, #16]
 1083              	.LVL124:
 438:..\..\..\arduinoLCD\test\Pain Drain\libraries\lvgl\src\extra\layouts\flex/lv_flex.c ****                 }
 1084              		.loc 2 438 0
 1085 010a 049B     		ldr	r3, [sp, #16]
 1086 010c 0693     		str	r3, [sp, #24]
 1087              	.LVL125:
 1088              	.L71:
 440:..\..\..\arduinoLCD\test\Pain Drain\libraries\lvgl\src\extra\layouts\flex/lv_flex.c ****                 grow_value_sum -= t->grow_dsc[i].grow_value;
 1089              		.loc 2 440 0
 1090 010e EB68     		ldr	r3, [r5, #12]
 1091 0110 1B19     		adds	r3, r3, r4
 1092 0112 1A81     		strh	r2, [r3, #8]
 441:..\..\..\arduinoLCD\test\Pain Drain\libraries\lvgl\src\extra\layouts\flex/lv_flex.c ****                 grow_max_size  -= t->grow_dsc[i].final_size;
 1093              		.loc 2 441 0
 1094 0114 EB68     		ldr	r3, [r5, #12]
 1095 0116 9C46     		mov	ip, r3
 1096 0118 6444     		add	r4, r4, ip
 1097 011a 4B46     		mov	r3, r9
 1098 011c E268     		ldr	r2, [r4, #12]
 1099              	.LVL126:
ARM GAS  C:\Users\haske\AppData\Local\Temp\ccVRp2Ta.s 			page 38


 1100 011e 9B1A     		subs	r3, r3, r2
 1101 0120 1BB2     		sxth	r3, r3
 1102 0122 9946     		mov	r9, r3
 1103              	.LVL127:
 442:..\..\..\arduinoLCD\test\Pain Drain\libraries\lvgl\src\extra\layouts\flex/lv_flex.c ****             }
 1104              		.loc 2 442 0
 1105 0124 0822     		movs	r2, #8
 1106 0126 A35E     		ldrsh	r3, [r4, r2]
 1107 0128 5246     		mov	r2, r10
 1108 012a D31A     		subs	r3, r2, r3
 1109 012c 1BB2     		sxth	r3, r3
 1110 012e 9A46     		mov	r10, r3
 1111              	.LVL128:
 1112              	.L66:
 1113              	.LBE82:
 429:..\..\..\arduinoLCD\test\Pain Drain\libraries\lvgl\src\extra\layouts\flex/lv_flex.c ****             if(t->grow_dsc[i].clamped == 0) {
 1114              		.loc 2 429 0 discriminator 2
 1115 0130 0136     		adds	r6, r6, #1
 1116              	.LVL129:
 1117              	.L65:
 429:..\..\..\arduinoLCD\test\Pain Drain\libraries\lvgl\src\extra\layouts\flex/lv_flex.c ****             if(t->grow_dsc[i].clamped == 0) {
 1118              		.loc 2 429 0 is_stmt 0 discriminator 1
 1119 0132 2B69     		ldr	r3, [r5, #16]
 1120 0134 9E42     		cmp	r6, r3
 1121 0136 C0D3     		bcc	.L72
 1122 0138 069B     		ldr	r3, [sp, #24]
 1123 013a 0493     		str	r3, [sp, #16]
 1124              	.LVL130:
 1125              	.L60:
 1126              	.LBE81:
 415:..\..\..\arduinoLCD\test\Pain Drain\libraries\lvgl\src\extra\layouts\flex/lv_flex.c ****         grow_reiterate = false;
 1127              		.loc 2 415 0 is_stmt 1
 1128 013c 049B     		ldr	r3, [sp, #16]
 1129 013e 002B     		cmp	r3, #0
 1130 0140 94D1     		bne	.L73
 1131              	.LVL131:
 1132              	.LBB83:
 1133              	.LBB84:
  35:c:\projects\paindrain\arduinolcd\test\pain drain\libraries\lvgl\src\core\lv_obj_style_gen.h **** }
  36:c:\projects\paindrain\arduinolcd\test\pain drain\libraries\lvgl\src\core\lv_obj_style_gen.h **** 
  37:c:\projects\paindrain\arduinolcd\test\pain drain\libraries\lvgl\src\core\lv_obj_style_gen.h **** static inline lv_coord_t lv_obj_get_style_x(const struct _lv_obj_t * obj, uint32_t part)
  38:c:\projects\paindrain\arduinolcd\test\pain drain\libraries\lvgl\src\core\lv_obj_style_gen.h **** {
  39:c:\projects\paindrain\arduinolcd\test\pain drain\libraries\lvgl\src\core\lv_obj_style_gen.h ****     lv_style_value_t v = lv_obj_get_style_prop(obj, part, LV_STYLE_X);
  40:c:\projects\paindrain\arduinolcd\test\pain drain\libraries\lvgl\src\core\lv_obj_style_gen.h ****     return (lv_coord_t)v.num;
  41:c:\projects\paindrain\arduinolcd\test\pain drain\libraries\lvgl\src\core\lv_obj_style_gen.h **** }
  42:c:\projects\paindrain\arduinolcd\test\pain drain\libraries\lvgl\src\core\lv_obj_style_gen.h **** 
  43:c:\projects\paindrain\arduinolcd\test\pain drain\libraries\lvgl\src\core\lv_obj_style_gen.h **** static inline lv_coord_t lv_obj_get_style_y(const struct _lv_obj_t * obj, uint32_t part)
  44:c:\projects\paindrain\arduinolcd\test\pain drain\libraries\lvgl\src\core\lv_obj_style_gen.h **** {
  45:c:\projects\paindrain\arduinolcd\test\pain drain\libraries\lvgl\src\core\lv_obj_style_gen.h ****     lv_style_value_t v = lv_obj_get_style_prop(obj, part, LV_STYLE_Y);
  46:c:\projects\paindrain\arduinolcd\test\pain drain\libraries\lvgl\src\core\lv_obj_style_gen.h ****     return (lv_coord_t)v.num;
  47:c:\projects\paindrain\arduinolcd\test\pain drain\libraries\lvgl\src\core\lv_obj_style_gen.h **** }
  48:c:\projects\paindrain\arduinolcd\test\pain drain\libraries\lvgl\src\core\lv_obj_style_gen.h **** 
  49:c:\projects\paindrain\arduinolcd\test\pain drain\libraries\lvgl\src\core\lv_obj_style_gen.h **** static inline lv_align_t lv_obj_get_style_align(const struct _lv_obj_t * obj, uint32_t part)
  50:c:\projects\paindrain\arduinolcd\test\pain drain\libraries\lvgl\src\core\lv_obj_style_gen.h **** {
  51:c:\projects\paindrain\arduinolcd\test\pain drain\libraries\lvgl\src\core\lv_obj_style_gen.h ****     lv_style_value_t v = lv_obj_get_style_prop(obj, part, LV_STYLE_ALIGN);
  52:c:\projects\paindrain\arduinolcd\test\pain drain\libraries\lvgl\src\core\lv_obj_style_gen.h ****     return (lv_align_t)v.num;
  53:c:\projects\paindrain\arduinolcd\test\pain drain\libraries\lvgl\src\core\lv_obj_style_gen.h **** }
ARM GAS  C:\Users\haske\AppData\Local\Temp\ccVRp2Ta.s 			page 39


  54:c:\projects\paindrain\arduinolcd\test\pain drain\libraries\lvgl\src\core\lv_obj_style_gen.h **** 
  55:c:\projects\paindrain\arduinolcd\test\pain drain\libraries\lvgl\src\core\lv_obj_style_gen.h **** static inline lv_coord_t lv_obj_get_style_transform_width(const struct _lv_obj_t * obj, uint32_t pa
  56:c:\projects\paindrain\arduinolcd\test\pain drain\libraries\lvgl\src\core\lv_obj_style_gen.h **** {
  57:c:\projects\paindrain\arduinolcd\test\pain drain\libraries\lvgl\src\core\lv_obj_style_gen.h ****     lv_style_value_t v = lv_obj_get_style_prop(obj, part, LV_STYLE_TRANSFORM_WIDTH);
  58:c:\projects\paindrain\arduinolcd\test\pain drain\libraries\lvgl\src\core\lv_obj_style_gen.h ****     return (lv_coord_t)v.num;
  59:c:\projects\paindrain\arduinolcd\test\pain drain\libraries\lvgl\src\core\lv_obj_style_gen.h **** }
  60:c:\projects\paindrain\arduinolcd\test\pain drain\libraries\lvgl\src\core\lv_obj_style_gen.h **** 
  61:c:\projects\paindrain\arduinolcd\test\pain drain\libraries\lvgl\src\core\lv_obj_style_gen.h **** static inline lv_coord_t lv_obj_get_style_transform_height(const struct _lv_obj_t * obj, uint32_t p
  62:c:\projects\paindrain\arduinolcd\test\pain drain\libraries\lvgl\src\core\lv_obj_style_gen.h **** {
  63:c:\projects\paindrain\arduinolcd\test\pain drain\libraries\lvgl\src\core\lv_obj_style_gen.h ****     lv_style_value_t v = lv_obj_get_style_prop(obj, part, LV_STYLE_TRANSFORM_HEIGHT);
  64:c:\projects\paindrain\arduinolcd\test\pain drain\libraries\lvgl\src\core\lv_obj_style_gen.h ****     return (lv_coord_t)v.num;
  65:c:\projects\paindrain\arduinolcd\test\pain drain\libraries\lvgl\src\core\lv_obj_style_gen.h **** }
  66:c:\projects\paindrain\arduinolcd\test\pain drain\libraries\lvgl\src\core\lv_obj_style_gen.h **** 
  67:c:\projects\paindrain\arduinolcd\test\pain drain\libraries\lvgl\src\core\lv_obj_style_gen.h **** static inline lv_coord_t lv_obj_get_style_translate_x(const struct _lv_obj_t * obj, uint32_t part)
  68:c:\projects\paindrain\arduinolcd\test\pain drain\libraries\lvgl\src\core\lv_obj_style_gen.h **** {
  69:c:\projects\paindrain\arduinolcd\test\pain drain\libraries\lvgl\src\core\lv_obj_style_gen.h ****     lv_style_value_t v = lv_obj_get_style_prop(obj, part, LV_STYLE_TRANSLATE_X);
  70:c:\projects\paindrain\arduinolcd\test\pain drain\libraries\lvgl\src\core\lv_obj_style_gen.h ****     return (lv_coord_t)v.num;
  71:c:\projects\paindrain\arduinolcd\test\pain drain\libraries\lvgl\src\core\lv_obj_style_gen.h **** }
  72:c:\projects\paindrain\arduinolcd\test\pain drain\libraries\lvgl\src\core\lv_obj_style_gen.h **** 
  73:c:\projects\paindrain\arduinolcd\test\pain drain\libraries\lvgl\src\core\lv_obj_style_gen.h **** static inline lv_coord_t lv_obj_get_style_translate_y(const struct _lv_obj_t * obj, uint32_t part)
  74:c:\projects\paindrain\arduinolcd\test\pain drain\libraries\lvgl\src\core\lv_obj_style_gen.h **** {
  75:c:\projects\paindrain\arduinolcd\test\pain drain\libraries\lvgl\src\core\lv_obj_style_gen.h ****     lv_style_value_t v = lv_obj_get_style_prop(obj, part, LV_STYLE_TRANSLATE_Y);
  76:c:\projects\paindrain\arduinolcd\test\pain drain\libraries\lvgl\src\core\lv_obj_style_gen.h ****     return (lv_coord_t)v.num;
  77:c:\projects\paindrain\arduinolcd\test\pain drain\libraries\lvgl\src\core\lv_obj_style_gen.h **** }
  78:c:\projects\paindrain\arduinolcd\test\pain drain\libraries\lvgl\src\core\lv_obj_style_gen.h **** 
  79:c:\projects\paindrain\arduinolcd\test\pain drain\libraries\lvgl\src\core\lv_obj_style_gen.h **** static inline lv_coord_t lv_obj_get_style_transform_zoom(const struct _lv_obj_t * obj, uint32_t par
  80:c:\projects\paindrain\arduinolcd\test\pain drain\libraries\lvgl\src\core\lv_obj_style_gen.h **** {
  81:c:\projects\paindrain\arduinolcd\test\pain drain\libraries\lvgl\src\core\lv_obj_style_gen.h ****     lv_style_value_t v = lv_obj_get_style_prop(obj, part, LV_STYLE_TRANSFORM_ZOOM);
  82:c:\projects\paindrain\arduinolcd\test\pain drain\libraries\lvgl\src\core\lv_obj_style_gen.h ****     return (lv_coord_t)v.num;
  83:c:\projects\paindrain\arduinolcd\test\pain drain\libraries\lvgl\src\core\lv_obj_style_gen.h **** }
  84:c:\projects\paindrain\arduinolcd\test\pain drain\libraries\lvgl\src\core\lv_obj_style_gen.h **** 
  85:c:\projects\paindrain\arduinolcd\test\pain drain\libraries\lvgl\src\core\lv_obj_style_gen.h **** static inline lv_coord_t lv_obj_get_style_transform_angle(const struct _lv_obj_t * obj, uint32_t pa
  86:c:\projects\paindrain\arduinolcd\test\pain drain\libraries\lvgl\src\core\lv_obj_style_gen.h **** {
  87:c:\projects\paindrain\arduinolcd\test\pain drain\libraries\lvgl\src\core\lv_obj_style_gen.h ****     lv_style_value_t v = lv_obj_get_style_prop(obj, part, LV_STYLE_TRANSFORM_ANGLE);
  88:c:\projects\paindrain\arduinolcd\test\pain drain\libraries\lvgl\src\core\lv_obj_style_gen.h ****     return (lv_coord_t)v.num;
  89:c:\projects\paindrain\arduinolcd\test\pain drain\libraries\lvgl\src\core\lv_obj_style_gen.h **** }
  90:c:\projects\paindrain\arduinolcd\test\pain drain\libraries\lvgl\src\core\lv_obj_style_gen.h **** 
  91:c:\projects\paindrain\arduinolcd\test\pain drain\libraries\lvgl\src\core\lv_obj_style_gen.h **** static inline lv_coord_t lv_obj_get_style_transform_pivot_x(const struct _lv_obj_t * obj, uint32_t 
  92:c:\projects\paindrain\arduinolcd\test\pain drain\libraries\lvgl\src\core\lv_obj_style_gen.h **** {
  93:c:\projects\paindrain\arduinolcd\test\pain drain\libraries\lvgl\src\core\lv_obj_style_gen.h ****     lv_style_value_t v = lv_obj_get_style_prop(obj, part, LV_STYLE_TRANSFORM_PIVOT_X);
  94:c:\projects\paindrain\arduinolcd\test\pain drain\libraries\lvgl\src\core\lv_obj_style_gen.h ****     return (lv_coord_t)v.num;
  95:c:\projects\paindrain\arduinolcd\test\pain drain\libraries\lvgl\src\core\lv_obj_style_gen.h **** }
  96:c:\projects\paindrain\arduinolcd\test\pain drain\libraries\lvgl\src\core\lv_obj_style_gen.h **** 
  97:c:\projects\paindrain\arduinolcd\test\pain drain\libraries\lvgl\src\core\lv_obj_style_gen.h **** static inline lv_coord_t lv_obj_get_style_transform_pivot_y(const struct _lv_obj_t * obj, uint32_t 
  98:c:\projects\paindrain\arduinolcd\test\pain drain\libraries\lvgl\src\core\lv_obj_style_gen.h **** {
  99:c:\projects\paindrain\arduinolcd\test\pain drain\libraries\lvgl\src\core\lv_obj_style_gen.h ****     lv_style_value_t v = lv_obj_get_style_prop(obj, part, LV_STYLE_TRANSFORM_PIVOT_Y);
 100:c:\projects\paindrain\arduinolcd\test\pain drain\libraries\lvgl\src\core\lv_obj_style_gen.h ****     return (lv_coord_t)v.num;
 101:c:\projects\paindrain\arduinolcd\test\pain drain\libraries\lvgl\src\core\lv_obj_style_gen.h **** }
 102:c:\projects\paindrain\arduinolcd\test\pain drain\libraries\lvgl\src\core\lv_obj_style_gen.h **** 
 103:c:\projects\paindrain\arduinolcd\test\pain drain\libraries\lvgl\src\core\lv_obj_style_gen.h **** static inline lv_coord_t lv_obj_get_style_pad_top(const struct _lv_obj_t * obj, uint32_t part)
 104:c:\projects\paindrain\arduinolcd\test\pain drain\libraries\lvgl\src\core\lv_obj_style_gen.h **** {
 105:c:\projects\paindrain\arduinolcd\test\pain drain\libraries\lvgl\src\core\lv_obj_style_gen.h ****     lv_style_value_t v = lv_obj_get_style_prop(obj, part, LV_STYLE_PAD_TOP);
 106:c:\projects\paindrain\arduinolcd\test\pain drain\libraries\lvgl\src\core\lv_obj_style_gen.h ****     return (lv_coord_t)v.num;
 107:c:\projects\paindrain\arduinolcd\test\pain drain\libraries\lvgl\src\core\lv_obj_style_gen.h **** }
 108:c:\projects\paindrain\arduinolcd\test\pain drain\libraries\lvgl\src\core\lv_obj_style_gen.h **** 
 109:c:\projects\paindrain\arduinolcd\test\pain drain\libraries\lvgl\src\core\lv_obj_style_gen.h **** static inline lv_coord_t lv_obj_get_style_pad_bottom(const struct _lv_obj_t * obj, uint32_t part)
 110:c:\projects\paindrain\arduinolcd\test\pain drain\libraries\lvgl\src\core\lv_obj_style_gen.h **** {
ARM GAS  C:\Users\haske\AppData\Local\Temp\ccVRp2Ta.s 			page 40


 111:c:\projects\paindrain\arduinolcd\test\pain drain\libraries\lvgl\src\core\lv_obj_style_gen.h ****     lv_style_value_t v = lv_obj_get_style_prop(obj, part, LV_STYLE_PAD_BOTTOM);
 112:c:\projects\paindrain\arduinolcd\test\pain drain\libraries\lvgl\src\core\lv_obj_style_gen.h ****     return (lv_coord_t)v.num;
 113:c:\projects\paindrain\arduinolcd\test\pain drain\libraries\lvgl\src\core\lv_obj_style_gen.h **** }
 114:c:\projects\paindrain\arduinolcd\test\pain drain\libraries\lvgl\src\core\lv_obj_style_gen.h **** 
 115:c:\projects\paindrain\arduinolcd\test\pain drain\libraries\lvgl\src\core\lv_obj_style_gen.h **** static inline lv_coord_t lv_obj_get_style_pad_left(const struct _lv_obj_t * obj, uint32_t part)
 116:c:\projects\paindrain\arduinolcd\test\pain drain\libraries\lvgl\src\core\lv_obj_style_gen.h **** {
 117:c:\projects\paindrain\arduinolcd\test\pain drain\libraries\lvgl\src\core\lv_obj_style_gen.h ****     lv_style_value_t v = lv_obj_get_style_prop(obj, part, LV_STYLE_PAD_LEFT);
 118:c:\projects\paindrain\arduinolcd\test\pain drain\libraries\lvgl\src\core\lv_obj_style_gen.h ****     return (lv_coord_t)v.num;
 119:c:\projects\paindrain\arduinolcd\test\pain drain\libraries\lvgl\src\core\lv_obj_style_gen.h **** }
 120:c:\projects\paindrain\arduinolcd\test\pain drain\libraries\lvgl\src\core\lv_obj_style_gen.h **** 
 121:c:\projects\paindrain\arduinolcd\test\pain drain\libraries\lvgl\src\core\lv_obj_style_gen.h **** static inline lv_coord_t lv_obj_get_style_pad_right(const struct _lv_obj_t * obj, uint32_t part)
 122:c:\projects\paindrain\arduinolcd\test\pain drain\libraries\lvgl\src\core\lv_obj_style_gen.h **** {
 123:c:\projects\paindrain\arduinolcd\test\pain drain\libraries\lvgl\src\core\lv_obj_style_gen.h ****     lv_style_value_t v = lv_obj_get_style_prop(obj, part, LV_STYLE_PAD_RIGHT);
 124:c:\projects\paindrain\arduinolcd\test\pain drain\libraries\lvgl\src\core\lv_obj_style_gen.h ****     return (lv_coord_t)v.num;
 125:c:\projects\paindrain\arduinolcd\test\pain drain\libraries\lvgl\src\core\lv_obj_style_gen.h **** }
 126:c:\projects\paindrain\arduinolcd\test\pain drain\libraries\lvgl\src\core\lv_obj_style_gen.h **** 
 127:c:\projects\paindrain\arduinolcd\test\pain drain\libraries\lvgl\src\core\lv_obj_style_gen.h **** static inline lv_coord_t lv_obj_get_style_pad_row(const struct _lv_obj_t * obj, uint32_t part)
 128:c:\projects\paindrain\arduinolcd\test\pain drain\libraries\lvgl\src\core\lv_obj_style_gen.h **** {
 129:c:\projects\paindrain\arduinolcd\test\pain drain\libraries\lvgl\src\core\lv_obj_style_gen.h ****     lv_style_value_t v = lv_obj_get_style_prop(obj, part, LV_STYLE_PAD_ROW);
 130:c:\projects\paindrain\arduinolcd\test\pain drain\libraries\lvgl\src\core\lv_obj_style_gen.h ****     return (lv_coord_t)v.num;
 131:c:\projects\paindrain\arduinolcd\test\pain drain\libraries\lvgl\src\core\lv_obj_style_gen.h **** }
 132:c:\projects\paindrain\arduinolcd\test\pain drain\libraries\lvgl\src\core\lv_obj_style_gen.h **** 
 133:c:\projects\paindrain\arduinolcd\test\pain drain\libraries\lvgl\src\core\lv_obj_style_gen.h **** static inline lv_coord_t lv_obj_get_style_pad_column(const struct _lv_obj_t * obj, uint32_t part)
 134:c:\projects\paindrain\arduinolcd\test\pain drain\libraries\lvgl\src\core\lv_obj_style_gen.h **** {
 135:c:\projects\paindrain\arduinolcd\test\pain drain\libraries\lvgl\src\core\lv_obj_style_gen.h ****     lv_style_value_t v = lv_obj_get_style_prop(obj, part, LV_STYLE_PAD_COLUMN);
 136:c:\projects\paindrain\arduinolcd\test\pain drain\libraries\lvgl\src\core\lv_obj_style_gen.h ****     return (lv_coord_t)v.num;
 137:c:\projects\paindrain\arduinolcd\test\pain drain\libraries\lvgl\src\core\lv_obj_style_gen.h **** }
 138:c:\projects\paindrain\arduinolcd\test\pain drain\libraries\lvgl\src\core\lv_obj_style_gen.h **** 
 139:c:\projects\paindrain\arduinolcd\test\pain drain\libraries\lvgl\src\core\lv_obj_style_gen.h **** static inline lv_color_t lv_obj_get_style_bg_color(const struct _lv_obj_t * obj, uint32_t part)
 140:c:\projects\paindrain\arduinolcd\test\pain drain\libraries\lvgl\src\core\lv_obj_style_gen.h **** {
 141:c:\projects\paindrain\arduinolcd\test\pain drain\libraries\lvgl\src\core\lv_obj_style_gen.h ****     lv_style_value_t v = lv_obj_get_style_prop(obj, part, LV_STYLE_BG_COLOR);
 142:c:\projects\paindrain\arduinolcd\test\pain drain\libraries\lvgl\src\core\lv_obj_style_gen.h ****     return v.color;
 143:c:\projects\paindrain\arduinolcd\test\pain drain\libraries\lvgl\src\core\lv_obj_style_gen.h **** }
 144:c:\projects\paindrain\arduinolcd\test\pain drain\libraries\lvgl\src\core\lv_obj_style_gen.h **** 
 145:c:\projects\paindrain\arduinolcd\test\pain drain\libraries\lvgl\src\core\lv_obj_style_gen.h **** static inline lv_color_t lv_obj_get_style_bg_color_filtered(const struct _lv_obj_t * obj, uint32_t 
 146:c:\projects\paindrain\arduinolcd\test\pain drain\libraries\lvgl\src\core\lv_obj_style_gen.h **** {
 147:c:\projects\paindrain\arduinolcd\test\pain drain\libraries\lvgl\src\core\lv_obj_style_gen.h ****     lv_style_value_t v = _lv_obj_style_apply_color_filter(obj, part, lv_obj_get_style_prop(obj, par
 148:c:\projects\paindrain\arduinolcd\test\pain drain\libraries\lvgl\src\core\lv_obj_style_gen.h ****     return v.color;
 149:c:\projects\paindrain\arduinolcd\test\pain drain\libraries\lvgl\src\core\lv_obj_style_gen.h **** }
 150:c:\projects\paindrain\arduinolcd\test\pain drain\libraries\lvgl\src\core\lv_obj_style_gen.h **** 
 151:c:\projects\paindrain\arduinolcd\test\pain drain\libraries\lvgl\src\core\lv_obj_style_gen.h **** static inline lv_opa_t lv_obj_get_style_bg_opa(const struct _lv_obj_t * obj, uint32_t part)
 152:c:\projects\paindrain\arduinolcd\test\pain drain\libraries\lvgl\src\core\lv_obj_style_gen.h **** {
 153:c:\projects\paindrain\arduinolcd\test\pain drain\libraries\lvgl\src\core\lv_obj_style_gen.h ****     lv_style_value_t v = lv_obj_get_style_prop(obj, part, LV_STYLE_BG_OPA);
 154:c:\projects\paindrain\arduinolcd\test\pain drain\libraries\lvgl\src\core\lv_obj_style_gen.h ****     return (lv_opa_t)v.num;
 155:c:\projects\paindrain\arduinolcd\test\pain drain\libraries\lvgl\src\core\lv_obj_style_gen.h **** }
 156:c:\projects\paindrain\arduinolcd\test\pain drain\libraries\lvgl\src\core\lv_obj_style_gen.h **** 
 157:c:\projects\paindrain\arduinolcd\test\pain drain\libraries\lvgl\src\core\lv_obj_style_gen.h **** static inline lv_color_t lv_obj_get_style_bg_grad_color(const struct _lv_obj_t * obj, uint32_t part
 158:c:\projects\paindrain\arduinolcd\test\pain drain\libraries\lvgl\src\core\lv_obj_style_gen.h **** {
 159:c:\projects\paindrain\arduinolcd\test\pain drain\libraries\lvgl\src\core\lv_obj_style_gen.h ****     lv_style_value_t v = lv_obj_get_style_prop(obj, part, LV_STYLE_BG_GRAD_COLOR);
 160:c:\projects\paindrain\arduinolcd\test\pain drain\libraries\lvgl\src\core\lv_obj_style_gen.h ****     return v.color;
 161:c:\projects\paindrain\arduinolcd\test\pain drain\libraries\lvgl\src\core\lv_obj_style_gen.h **** }
 162:c:\projects\paindrain\arduinolcd\test\pain drain\libraries\lvgl\src\core\lv_obj_style_gen.h **** 
 163:c:\projects\paindrain\arduinolcd\test\pain drain\libraries\lvgl\src\core\lv_obj_style_gen.h **** static inline lv_color_t lv_obj_get_style_bg_grad_color_filtered(const struct _lv_obj_t * obj, uint
 164:c:\projects\paindrain\arduinolcd\test\pain drain\libraries\lvgl\src\core\lv_obj_style_gen.h **** {
 165:c:\projects\paindrain\arduinolcd\test\pain drain\libraries\lvgl\src\core\lv_obj_style_gen.h ****     lv_style_value_t v = _lv_obj_style_apply_color_filter(obj, part, lv_obj_get_style_prop(obj, par
 166:c:\projects\paindrain\arduinolcd\test\pain drain\libraries\lvgl\src\core\lv_obj_style_gen.h ****     return v.color;
 167:c:\projects\paindrain\arduinolcd\test\pain drain\libraries\lvgl\src\core\lv_obj_style_gen.h **** }
ARM GAS  C:\Users\haske\AppData\Local\Temp\ccVRp2Ta.s 			page 41


 168:c:\projects\paindrain\arduinolcd\test\pain drain\libraries\lvgl\src\core\lv_obj_style_gen.h **** 
 169:c:\projects\paindrain\arduinolcd\test\pain drain\libraries\lvgl\src\core\lv_obj_style_gen.h **** static inline lv_grad_dir_t lv_obj_get_style_bg_grad_dir(const struct _lv_obj_t * obj, uint32_t par
 170:c:\projects\paindrain\arduinolcd\test\pain drain\libraries\lvgl\src\core\lv_obj_style_gen.h **** {
 171:c:\projects\paindrain\arduinolcd\test\pain drain\libraries\lvgl\src\core\lv_obj_style_gen.h ****     lv_style_value_t v = lv_obj_get_style_prop(obj, part, LV_STYLE_BG_GRAD_DIR);
 172:c:\projects\paindrain\arduinolcd\test\pain drain\libraries\lvgl\src\core\lv_obj_style_gen.h ****     return (lv_grad_dir_t)v.num;
 173:c:\projects\paindrain\arduinolcd\test\pain drain\libraries\lvgl\src\core\lv_obj_style_gen.h **** }
 174:c:\projects\paindrain\arduinolcd\test\pain drain\libraries\lvgl\src\core\lv_obj_style_gen.h **** 
 175:c:\projects\paindrain\arduinolcd\test\pain drain\libraries\lvgl\src\core\lv_obj_style_gen.h **** static inline lv_coord_t lv_obj_get_style_bg_main_stop(const struct _lv_obj_t * obj, uint32_t part)
 176:c:\projects\paindrain\arduinolcd\test\pain drain\libraries\lvgl\src\core\lv_obj_style_gen.h **** {
 177:c:\projects\paindrain\arduinolcd\test\pain drain\libraries\lvgl\src\core\lv_obj_style_gen.h ****     lv_style_value_t v = lv_obj_get_style_prop(obj, part, LV_STYLE_BG_MAIN_STOP);
 178:c:\projects\paindrain\arduinolcd\test\pain drain\libraries\lvgl\src\core\lv_obj_style_gen.h ****     return (lv_coord_t)v.num;
 179:c:\projects\paindrain\arduinolcd\test\pain drain\libraries\lvgl\src\core\lv_obj_style_gen.h **** }
 180:c:\projects\paindrain\arduinolcd\test\pain drain\libraries\lvgl\src\core\lv_obj_style_gen.h **** 
 181:c:\projects\paindrain\arduinolcd\test\pain drain\libraries\lvgl\src\core\lv_obj_style_gen.h **** static inline lv_coord_t lv_obj_get_style_bg_grad_stop(const struct _lv_obj_t * obj, uint32_t part)
 182:c:\projects\paindrain\arduinolcd\test\pain drain\libraries\lvgl\src\core\lv_obj_style_gen.h **** {
 183:c:\projects\paindrain\arduinolcd\test\pain drain\libraries\lvgl\src\core\lv_obj_style_gen.h ****     lv_style_value_t v = lv_obj_get_style_prop(obj, part, LV_STYLE_BG_GRAD_STOP);
 184:c:\projects\paindrain\arduinolcd\test\pain drain\libraries\lvgl\src\core\lv_obj_style_gen.h ****     return (lv_coord_t)v.num;
 185:c:\projects\paindrain\arduinolcd\test\pain drain\libraries\lvgl\src\core\lv_obj_style_gen.h **** }
 186:c:\projects\paindrain\arduinolcd\test\pain drain\libraries\lvgl\src\core\lv_obj_style_gen.h **** 
 187:c:\projects\paindrain\arduinolcd\test\pain drain\libraries\lvgl\src\core\lv_obj_style_gen.h **** static inline const lv_grad_dsc_t * lv_obj_get_style_bg_grad(const struct _lv_obj_t * obj, uint32_t
 188:c:\projects\paindrain\arduinolcd\test\pain drain\libraries\lvgl\src\core\lv_obj_style_gen.h **** {
 189:c:\projects\paindrain\arduinolcd\test\pain drain\libraries\lvgl\src\core\lv_obj_style_gen.h ****     lv_style_value_t v = lv_obj_get_style_prop(obj, part, LV_STYLE_BG_GRAD);
 190:c:\projects\paindrain\arduinolcd\test\pain drain\libraries\lvgl\src\core\lv_obj_style_gen.h ****     return (const lv_grad_dsc_t *)v.ptr;
 191:c:\projects\paindrain\arduinolcd\test\pain drain\libraries\lvgl\src\core\lv_obj_style_gen.h **** }
 192:c:\projects\paindrain\arduinolcd\test\pain drain\libraries\lvgl\src\core\lv_obj_style_gen.h **** 
 193:c:\projects\paindrain\arduinolcd\test\pain drain\libraries\lvgl\src\core\lv_obj_style_gen.h **** static inline lv_dither_mode_t lv_obj_get_style_bg_dither_mode(const struct _lv_obj_t * obj, uint32
 194:c:\projects\paindrain\arduinolcd\test\pain drain\libraries\lvgl\src\core\lv_obj_style_gen.h **** {
 195:c:\projects\paindrain\arduinolcd\test\pain drain\libraries\lvgl\src\core\lv_obj_style_gen.h ****     lv_style_value_t v = lv_obj_get_style_prop(obj, part, LV_STYLE_BG_DITHER_MODE);
 196:c:\projects\paindrain\arduinolcd\test\pain drain\libraries\lvgl\src\core\lv_obj_style_gen.h ****     return (lv_dither_mode_t)v.num;
 197:c:\projects\paindrain\arduinolcd\test\pain drain\libraries\lvgl\src\core\lv_obj_style_gen.h **** }
 198:c:\projects\paindrain\arduinolcd\test\pain drain\libraries\lvgl\src\core\lv_obj_style_gen.h **** 
 199:c:\projects\paindrain\arduinolcd\test\pain drain\libraries\lvgl\src\core\lv_obj_style_gen.h **** static inline const void * lv_obj_get_style_bg_img_src(const struct _lv_obj_t * obj, uint32_t part)
 200:c:\projects\paindrain\arduinolcd\test\pain drain\libraries\lvgl\src\core\lv_obj_style_gen.h **** {
 201:c:\projects\paindrain\arduinolcd\test\pain drain\libraries\lvgl\src\core\lv_obj_style_gen.h ****     lv_style_value_t v = lv_obj_get_style_prop(obj, part, LV_STYLE_BG_IMG_SRC);
 202:c:\projects\paindrain\arduinolcd\test\pain drain\libraries\lvgl\src\core\lv_obj_style_gen.h ****     return (const void *)v.ptr;
 203:c:\projects\paindrain\arduinolcd\test\pain drain\libraries\lvgl\src\core\lv_obj_style_gen.h **** }
 204:c:\projects\paindrain\arduinolcd\test\pain drain\libraries\lvgl\src\core\lv_obj_style_gen.h **** 
 205:c:\projects\paindrain\arduinolcd\test\pain drain\libraries\lvgl\src\core\lv_obj_style_gen.h **** static inline lv_opa_t lv_obj_get_style_bg_img_opa(const struct _lv_obj_t * obj, uint32_t part)
 206:c:\projects\paindrain\arduinolcd\test\pain drain\libraries\lvgl\src\core\lv_obj_style_gen.h **** {
 207:c:\projects\paindrain\arduinolcd\test\pain drain\libraries\lvgl\src\core\lv_obj_style_gen.h ****     lv_style_value_t v = lv_obj_get_style_prop(obj, part, LV_STYLE_BG_IMG_OPA);
 208:c:\projects\paindrain\arduinolcd\test\pain drain\libraries\lvgl\src\core\lv_obj_style_gen.h ****     return (lv_opa_t)v.num;
 209:c:\projects\paindrain\arduinolcd\test\pain drain\libraries\lvgl\src\core\lv_obj_style_gen.h **** }
 210:c:\projects\paindrain\arduinolcd\test\pain drain\libraries\lvgl\src\core\lv_obj_style_gen.h **** 
 211:c:\projects\paindrain\arduinolcd\test\pain drain\libraries\lvgl\src\core\lv_obj_style_gen.h **** static inline lv_color_t lv_obj_get_style_bg_img_recolor(const struct _lv_obj_t * obj, uint32_t par
 212:c:\projects\paindrain\arduinolcd\test\pain drain\libraries\lvgl\src\core\lv_obj_style_gen.h **** {
 213:c:\projects\paindrain\arduinolcd\test\pain drain\libraries\lvgl\src\core\lv_obj_style_gen.h ****     lv_style_value_t v = lv_obj_get_style_prop(obj, part, LV_STYLE_BG_IMG_RECOLOR);
 214:c:\projects\paindrain\arduinolcd\test\pain drain\libraries\lvgl\src\core\lv_obj_style_gen.h ****     return v.color;
 215:c:\projects\paindrain\arduinolcd\test\pain drain\libraries\lvgl\src\core\lv_obj_style_gen.h **** }
 216:c:\projects\paindrain\arduinolcd\test\pain drain\libraries\lvgl\src\core\lv_obj_style_gen.h **** 
 217:c:\projects\paindrain\arduinolcd\test\pain drain\libraries\lvgl\src\core\lv_obj_style_gen.h **** static inline lv_color_t lv_obj_get_style_bg_img_recolor_filtered(const struct _lv_obj_t * obj, uin
 218:c:\projects\paindrain\arduinolcd\test\pain drain\libraries\lvgl\src\core\lv_obj_style_gen.h **** {
 219:c:\projects\paindrain\arduinolcd\test\pain drain\libraries\lvgl\src\core\lv_obj_style_gen.h ****     lv_style_value_t v = _lv_obj_style_apply_color_filter(obj, part, lv_obj_get_style_prop(obj, par
 220:c:\projects\paindrain\arduinolcd\test\pain drain\libraries\lvgl\src\core\lv_obj_style_gen.h ****     return v.color;
 221:c:\projects\paindrain\arduinolcd\test\pain drain\libraries\lvgl\src\core\lv_obj_style_gen.h **** }
 222:c:\projects\paindrain\arduinolcd\test\pain drain\libraries\lvgl\src\core\lv_obj_style_gen.h **** 
 223:c:\projects\paindrain\arduinolcd\test\pain drain\libraries\lvgl\src\core\lv_obj_style_gen.h **** static inline lv_opa_t lv_obj_get_style_bg_img_recolor_opa(const struct _lv_obj_t * obj, uint32_t p
 224:c:\projects\paindrain\arduinolcd\test\pain drain\libraries\lvgl\src\core\lv_obj_style_gen.h **** {
ARM GAS  C:\Users\haske\AppData\Local\Temp\ccVRp2Ta.s 			page 42


 225:c:\projects\paindrain\arduinolcd\test\pain drain\libraries\lvgl\src\core\lv_obj_style_gen.h ****     lv_style_value_t v = lv_obj_get_style_prop(obj, part, LV_STYLE_BG_IMG_RECOLOR_OPA);
 226:c:\projects\paindrain\arduinolcd\test\pain drain\libraries\lvgl\src\core\lv_obj_style_gen.h ****     return (lv_opa_t)v.num;
 227:c:\projects\paindrain\arduinolcd\test\pain drain\libraries\lvgl\src\core\lv_obj_style_gen.h **** }
 228:c:\projects\paindrain\arduinolcd\test\pain drain\libraries\lvgl\src\core\lv_obj_style_gen.h **** 
 229:c:\projects\paindrain\arduinolcd\test\pain drain\libraries\lvgl\src\core\lv_obj_style_gen.h **** static inline bool lv_obj_get_style_bg_img_tiled(const struct _lv_obj_t * obj, uint32_t part)
 230:c:\projects\paindrain\arduinolcd\test\pain drain\libraries\lvgl\src\core\lv_obj_style_gen.h **** {
 231:c:\projects\paindrain\arduinolcd\test\pain drain\libraries\lvgl\src\core\lv_obj_style_gen.h ****     lv_style_value_t v = lv_obj_get_style_prop(obj, part, LV_STYLE_BG_IMG_TILED);
 232:c:\projects\paindrain\arduinolcd\test\pain drain\libraries\lvgl\src\core\lv_obj_style_gen.h ****     return (bool)v.num;
 233:c:\projects\paindrain\arduinolcd\test\pain drain\libraries\lvgl\src\core\lv_obj_style_gen.h **** }
 234:c:\projects\paindrain\arduinolcd\test\pain drain\libraries\lvgl\src\core\lv_obj_style_gen.h **** 
 235:c:\projects\paindrain\arduinolcd\test\pain drain\libraries\lvgl\src\core\lv_obj_style_gen.h **** static inline lv_color_t lv_obj_get_style_border_color(const struct _lv_obj_t * obj, uint32_t part)
 236:c:\projects\paindrain\arduinolcd\test\pain drain\libraries\lvgl\src\core\lv_obj_style_gen.h **** {
 237:c:\projects\paindrain\arduinolcd\test\pain drain\libraries\lvgl\src\core\lv_obj_style_gen.h ****     lv_style_value_t v = lv_obj_get_style_prop(obj, part, LV_STYLE_BORDER_COLOR);
 238:c:\projects\paindrain\arduinolcd\test\pain drain\libraries\lvgl\src\core\lv_obj_style_gen.h ****     return v.color;
 239:c:\projects\paindrain\arduinolcd\test\pain drain\libraries\lvgl\src\core\lv_obj_style_gen.h **** }
 240:c:\projects\paindrain\arduinolcd\test\pain drain\libraries\lvgl\src\core\lv_obj_style_gen.h **** 
 241:c:\projects\paindrain\arduinolcd\test\pain drain\libraries\lvgl\src\core\lv_obj_style_gen.h **** static inline lv_color_t lv_obj_get_style_border_color_filtered(const struct _lv_obj_t * obj, uint3
 242:c:\projects\paindrain\arduinolcd\test\pain drain\libraries\lvgl\src\core\lv_obj_style_gen.h **** {
 243:c:\projects\paindrain\arduinolcd\test\pain drain\libraries\lvgl\src\core\lv_obj_style_gen.h ****     lv_style_value_t v = _lv_obj_style_apply_color_filter(obj, part, lv_obj_get_style_prop(obj, par
 244:c:\projects\paindrain\arduinolcd\test\pain drain\libraries\lvgl\src\core\lv_obj_style_gen.h ****     return v.color;
 245:c:\projects\paindrain\arduinolcd\test\pain drain\libraries\lvgl\src\core\lv_obj_style_gen.h **** }
 246:c:\projects\paindrain\arduinolcd\test\pain drain\libraries\lvgl\src\core\lv_obj_style_gen.h **** 
 247:c:\projects\paindrain\arduinolcd\test\pain drain\libraries\lvgl\src\core\lv_obj_style_gen.h **** static inline lv_opa_t lv_obj_get_style_border_opa(const struct _lv_obj_t * obj, uint32_t part)
 248:c:\projects\paindrain\arduinolcd\test\pain drain\libraries\lvgl\src\core\lv_obj_style_gen.h **** {
 249:c:\projects\paindrain\arduinolcd\test\pain drain\libraries\lvgl\src\core\lv_obj_style_gen.h ****     lv_style_value_t v = lv_obj_get_style_prop(obj, part, LV_STYLE_BORDER_OPA);
 250:c:\projects\paindrain\arduinolcd\test\pain drain\libraries\lvgl\src\core\lv_obj_style_gen.h ****     return (lv_opa_t)v.num;
 251:c:\projects\paindrain\arduinolcd\test\pain drain\libraries\lvgl\src\core\lv_obj_style_gen.h **** }
 252:c:\projects\paindrain\arduinolcd\test\pain drain\libraries\lvgl\src\core\lv_obj_style_gen.h **** 
 253:c:\projects\paindrain\arduinolcd\test\pain drain\libraries\lvgl\src\core\lv_obj_style_gen.h **** static inline lv_coord_t lv_obj_get_style_border_width(const struct _lv_obj_t * obj, uint32_t part)
 254:c:\projects\paindrain\arduinolcd\test\pain drain\libraries\lvgl\src\core\lv_obj_style_gen.h **** {
 255:c:\projects\paindrain\arduinolcd\test\pain drain\libraries\lvgl\src\core\lv_obj_style_gen.h ****     lv_style_value_t v = lv_obj_get_style_prop(obj, part, LV_STYLE_BORDER_WIDTH);
 256:c:\projects\paindrain\arduinolcd\test\pain drain\libraries\lvgl\src\core\lv_obj_style_gen.h ****     return (lv_coord_t)v.num;
 257:c:\projects\paindrain\arduinolcd\test\pain drain\libraries\lvgl\src\core\lv_obj_style_gen.h **** }
 258:c:\projects\paindrain\arduinolcd\test\pain drain\libraries\lvgl\src\core\lv_obj_style_gen.h **** 
 259:c:\projects\paindrain\arduinolcd\test\pain drain\libraries\lvgl\src\core\lv_obj_style_gen.h **** static inline lv_border_side_t lv_obj_get_style_border_side(const struct _lv_obj_t * obj, uint32_t 
 260:c:\projects\paindrain\arduinolcd\test\pain drain\libraries\lvgl\src\core\lv_obj_style_gen.h **** {
 261:c:\projects\paindrain\arduinolcd\test\pain drain\libraries\lvgl\src\core\lv_obj_style_gen.h ****     lv_style_value_t v = lv_obj_get_style_prop(obj, part, LV_STYLE_BORDER_SIDE);
 262:c:\projects\paindrain\arduinolcd\test\pain drain\libraries\lvgl\src\core\lv_obj_style_gen.h ****     return (lv_border_side_t)v.num;
 263:c:\projects\paindrain\arduinolcd\test\pain drain\libraries\lvgl\src\core\lv_obj_style_gen.h **** }
 264:c:\projects\paindrain\arduinolcd\test\pain drain\libraries\lvgl\src\core\lv_obj_style_gen.h **** 
 265:c:\projects\paindrain\arduinolcd\test\pain drain\libraries\lvgl\src\core\lv_obj_style_gen.h **** static inline bool lv_obj_get_style_border_post(const struct _lv_obj_t * obj, uint32_t part)
 266:c:\projects\paindrain\arduinolcd\test\pain drain\libraries\lvgl\src\core\lv_obj_style_gen.h **** {
 267:c:\projects\paindrain\arduinolcd\test\pain drain\libraries\lvgl\src\core\lv_obj_style_gen.h ****     lv_style_value_t v = lv_obj_get_style_prop(obj, part, LV_STYLE_BORDER_POST);
 268:c:\projects\paindrain\arduinolcd\test\pain drain\libraries\lvgl\src\core\lv_obj_style_gen.h ****     return (bool)v.num;
 269:c:\projects\paindrain\arduinolcd\test\pain drain\libraries\lvgl\src\core\lv_obj_style_gen.h **** }
 270:c:\projects\paindrain\arduinolcd\test\pain drain\libraries\lvgl\src\core\lv_obj_style_gen.h **** 
 271:c:\projects\paindrain\arduinolcd\test\pain drain\libraries\lvgl\src\core\lv_obj_style_gen.h **** static inline lv_coord_t lv_obj_get_style_outline_width(const struct _lv_obj_t * obj, uint32_t part
 272:c:\projects\paindrain\arduinolcd\test\pain drain\libraries\lvgl\src\core\lv_obj_style_gen.h **** {
 273:c:\projects\paindrain\arduinolcd\test\pain drain\libraries\lvgl\src\core\lv_obj_style_gen.h ****     lv_style_value_t v = lv_obj_get_style_prop(obj, part, LV_STYLE_OUTLINE_WIDTH);
 274:c:\projects\paindrain\arduinolcd\test\pain drain\libraries\lvgl\src\core\lv_obj_style_gen.h ****     return (lv_coord_t)v.num;
 275:c:\projects\paindrain\arduinolcd\test\pain drain\libraries\lvgl\src\core\lv_obj_style_gen.h **** }
 276:c:\projects\paindrain\arduinolcd\test\pain drain\libraries\lvgl\src\core\lv_obj_style_gen.h **** 
 277:c:\projects\paindrain\arduinolcd\test\pain drain\libraries\lvgl\src\core\lv_obj_style_gen.h **** static inline lv_color_t lv_obj_get_style_outline_color(const struct _lv_obj_t * obj, uint32_t part
 278:c:\projects\paindrain\arduinolcd\test\pain drain\libraries\lvgl\src\core\lv_obj_style_gen.h **** {
 279:c:\projects\paindrain\arduinolcd\test\pain drain\libraries\lvgl\src\core\lv_obj_style_gen.h ****     lv_style_value_t v = lv_obj_get_style_prop(obj, part, LV_STYLE_OUTLINE_COLOR);
 280:c:\projects\paindrain\arduinolcd\test\pain drain\libraries\lvgl\src\core\lv_obj_style_gen.h ****     return v.color;
 281:c:\projects\paindrain\arduinolcd\test\pain drain\libraries\lvgl\src\core\lv_obj_style_gen.h **** }
ARM GAS  C:\Users\haske\AppData\Local\Temp\ccVRp2Ta.s 			page 43


 282:c:\projects\paindrain\arduinolcd\test\pain drain\libraries\lvgl\src\core\lv_obj_style_gen.h **** 
 283:c:\projects\paindrain\arduinolcd\test\pain drain\libraries\lvgl\src\core\lv_obj_style_gen.h **** static inline lv_color_t lv_obj_get_style_outline_color_filtered(const struct _lv_obj_t * obj, uint
 284:c:\projects\paindrain\arduinolcd\test\pain drain\libraries\lvgl\src\core\lv_obj_style_gen.h **** {
 285:c:\projects\paindrain\arduinolcd\test\pain drain\libraries\lvgl\src\core\lv_obj_style_gen.h ****     lv_style_value_t v = _lv_obj_style_apply_color_filter(obj, part, lv_obj_get_style_prop(obj, par
 286:c:\projects\paindrain\arduinolcd\test\pain drain\libraries\lvgl\src\core\lv_obj_style_gen.h ****     return v.color;
 287:c:\projects\paindrain\arduinolcd\test\pain drain\libraries\lvgl\src\core\lv_obj_style_gen.h **** }
 288:c:\projects\paindrain\arduinolcd\test\pain drain\libraries\lvgl\src\core\lv_obj_style_gen.h **** 
 289:c:\projects\paindrain\arduinolcd\test\pain drain\libraries\lvgl\src\core\lv_obj_style_gen.h **** static inline lv_opa_t lv_obj_get_style_outline_opa(const struct _lv_obj_t * obj, uint32_t part)
 290:c:\projects\paindrain\arduinolcd\test\pain drain\libraries\lvgl\src\core\lv_obj_style_gen.h **** {
 291:c:\projects\paindrain\arduinolcd\test\pain drain\libraries\lvgl\src\core\lv_obj_style_gen.h ****     lv_style_value_t v = lv_obj_get_style_prop(obj, part, LV_STYLE_OUTLINE_OPA);
 292:c:\projects\paindrain\arduinolcd\test\pain drain\libraries\lvgl\src\core\lv_obj_style_gen.h ****     return (lv_opa_t)v.num;
 293:c:\projects\paindrain\arduinolcd\test\pain drain\libraries\lvgl\src\core\lv_obj_style_gen.h **** }
 294:c:\projects\paindrain\arduinolcd\test\pain drain\libraries\lvgl\src\core\lv_obj_style_gen.h **** 
 295:c:\projects\paindrain\arduinolcd\test\pain drain\libraries\lvgl\src\core\lv_obj_style_gen.h **** static inline lv_coord_t lv_obj_get_style_outline_pad(const struct _lv_obj_t * obj, uint32_t part)
 296:c:\projects\paindrain\arduinolcd\test\pain drain\libraries\lvgl\src\core\lv_obj_style_gen.h **** {
 297:c:\projects\paindrain\arduinolcd\test\pain drain\libraries\lvgl\src\core\lv_obj_style_gen.h ****     lv_style_value_t v = lv_obj_get_style_prop(obj, part, LV_STYLE_OUTLINE_PAD);
 298:c:\projects\paindrain\arduinolcd\test\pain drain\libraries\lvgl\src\core\lv_obj_style_gen.h ****     return (lv_coord_t)v.num;
 299:c:\projects\paindrain\arduinolcd\test\pain drain\libraries\lvgl\src\core\lv_obj_style_gen.h **** }
 300:c:\projects\paindrain\arduinolcd\test\pain drain\libraries\lvgl\src\core\lv_obj_style_gen.h **** 
 301:c:\projects\paindrain\arduinolcd\test\pain drain\libraries\lvgl\src\core\lv_obj_style_gen.h **** static inline lv_coord_t lv_obj_get_style_shadow_width(const struct _lv_obj_t * obj, uint32_t part)
 302:c:\projects\paindrain\arduinolcd\test\pain drain\libraries\lvgl\src\core\lv_obj_style_gen.h **** {
 303:c:\projects\paindrain\arduinolcd\test\pain drain\libraries\lvgl\src\core\lv_obj_style_gen.h ****     lv_style_value_t v = lv_obj_get_style_prop(obj, part, LV_STYLE_SHADOW_WIDTH);
 304:c:\projects\paindrain\arduinolcd\test\pain drain\libraries\lvgl\src\core\lv_obj_style_gen.h ****     return (lv_coord_t)v.num;
 305:c:\projects\paindrain\arduinolcd\test\pain drain\libraries\lvgl\src\core\lv_obj_style_gen.h **** }
 306:c:\projects\paindrain\arduinolcd\test\pain drain\libraries\lvgl\src\core\lv_obj_style_gen.h **** 
 307:c:\projects\paindrain\arduinolcd\test\pain drain\libraries\lvgl\src\core\lv_obj_style_gen.h **** static inline lv_coord_t lv_obj_get_style_shadow_ofs_x(const struct _lv_obj_t * obj, uint32_t part)
 308:c:\projects\paindrain\arduinolcd\test\pain drain\libraries\lvgl\src\core\lv_obj_style_gen.h **** {
 309:c:\projects\paindrain\arduinolcd\test\pain drain\libraries\lvgl\src\core\lv_obj_style_gen.h ****     lv_style_value_t v = lv_obj_get_style_prop(obj, part, LV_STYLE_SHADOW_OFS_X);
 310:c:\projects\paindrain\arduinolcd\test\pain drain\libraries\lvgl\src\core\lv_obj_style_gen.h ****     return (lv_coord_t)v.num;
 311:c:\projects\paindrain\arduinolcd\test\pain drain\libraries\lvgl\src\core\lv_obj_style_gen.h **** }
 312:c:\projects\paindrain\arduinolcd\test\pain drain\libraries\lvgl\src\core\lv_obj_style_gen.h **** 
 313:c:\projects\paindrain\arduinolcd\test\pain drain\libraries\lvgl\src\core\lv_obj_style_gen.h **** static inline lv_coord_t lv_obj_get_style_shadow_ofs_y(const struct _lv_obj_t * obj, uint32_t part)
 314:c:\projects\paindrain\arduinolcd\test\pain drain\libraries\lvgl\src\core\lv_obj_style_gen.h **** {
 315:c:\projects\paindrain\arduinolcd\test\pain drain\libraries\lvgl\src\core\lv_obj_style_gen.h ****     lv_style_value_t v = lv_obj_get_style_prop(obj, part, LV_STYLE_SHADOW_OFS_Y);
 316:c:\projects\paindrain\arduinolcd\test\pain drain\libraries\lvgl\src\core\lv_obj_style_gen.h ****     return (lv_coord_t)v.num;
 317:c:\projects\paindrain\arduinolcd\test\pain drain\libraries\lvgl\src\core\lv_obj_style_gen.h **** }
 318:c:\projects\paindrain\arduinolcd\test\pain drain\libraries\lvgl\src\core\lv_obj_style_gen.h **** 
 319:c:\projects\paindrain\arduinolcd\test\pain drain\libraries\lvgl\src\core\lv_obj_style_gen.h **** static inline lv_coord_t lv_obj_get_style_shadow_spread(const struct _lv_obj_t * obj, uint32_t part
 320:c:\projects\paindrain\arduinolcd\test\pain drain\libraries\lvgl\src\core\lv_obj_style_gen.h **** {
 321:c:\projects\paindrain\arduinolcd\test\pain drain\libraries\lvgl\src\core\lv_obj_style_gen.h ****     lv_style_value_t v = lv_obj_get_style_prop(obj, part, LV_STYLE_SHADOW_SPREAD);
 322:c:\projects\paindrain\arduinolcd\test\pain drain\libraries\lvgl\src\core\lv_obj_style_gen.h ****     return (lv_coord_t)v.num;
 323:c:\projects\paindrain\arduinolcd\test\pain drain\libraries\lvgl\src\core\lv_obj_style_gen.h **** }
 324:c:\projects\paindrain\arduinolcd\test\pain drain\libraries\lvgl\src\core\lv_obj_style_gen.h **** 
 325:c:\projects\paindrain\arduinolcd\test\pain drain\libraries\lvgl\src\core\lv_obj_style_gen.h **** static inline lv_color_t lv_obj_get_style_shadow_color(const struct _lv_obj_t * obj, uint32_t part)
 326:c:\projects\paindrain\arduinolcd\test\pain drain\libraries\lvgl\src\core\lv_obj_style_gen.h **** {
 327:c:\projects\paindrain\arduinolcd\test\pain drain\libraries\lvgl\src\core\lv_obj_style_gen.h ****     lv_style_value_t v = lv_obj_get_style_prop(obj, part, LV_STYLE_SHADOW_COLOR);
 328:c:\projects\paindrain\arduinolcd\test\pain drain\libraries\lvgl\src\core\lv_obj_style_gen.h ****     return v.color;
 329:c:\projects\paindrain\arduinolcd\test\pain drain\libraries\lvgl\src\core\lv_obj_style_gen.h **** }
 330:c:\projects\paindrain\arduinolcd\test\pain drain\libraries\lvgl\src\core\lv_obj_style_gen.h **** 
 331:c:\projects\paindrain\arduinolcd\test\pain drain\libraries\lvgl\src\core\lv_obj_style_gen.h **** static inline lv_color_t lv_obj_get_style_shadow_color_filtered(const struct _lv_obj_t * obj, uint3
 332:c:\projects\paindrain\arduinolcd\test\pain drain\libraries\lvgl\src\core\lv_obj_style_gen.h **** {
 333:c:\projects\paindrain\arduinolcd\test\pain drain\libraries\lvgl\src\core\lv_obj_style_gen.h ****     lv_style_value_t v = _lv_obj_style_apply_color_filter(obj, part, lv_obj_get_style_prop(obj, par
 334:c:\projects\paindrain\arduinolcd\test\pain drain\libraries\lvgl\src\core\lv_obj_style_gen.h ****     return v.color;
 335:c:\projects\paindrain\arduinolcd\test\pain drain\libraries\lvgl\src\core\lv_obj_style_gen.h **** }
 336:c:\projects\paindrain\arduinolcd\test\pain drain\libraries\lvgl\src\core\lv_obj_style_gen.h **** 
 337:c:\projects\paindrain\arduinolcd\test\pain drain\libraries\lvgl\src\core\lv_obj_style_gen.h **** static inline lv_opa_t lv_obj_get_style_shadow_opa(const struct _lv_obj_t * obj, uint32_t part)
 338:c:\projects\paindrain\arduinolcd\test\pain drain\libraries\lvgl\src\core\lv_obj_style_gen.h **** {
ARM GAS  C:\Users\haske\AppData\Local\Temp\ccVRp2Ta.s 			page 44


 339:c:\projects\paindrain\arduinolcd\test\pain drain\libraries\lvgl\src\core\lv_obj_style_gen.h ****     lv_style_value_t v = lv_obj_get_style_prop(obj, part, LV_STYLE_SHADOW_OPA);
 340:c:\projects\paindrain\arduinolcd\test\pain drain\libraries\lvgl\src\core\lv_obj_style_gen.h ****     return (lv_opa_t)v.num;
 341:c:\projects\paindrain\arduinolcd\test\pain drain\libraries\lvgl\src\core\lv_obj_style_gen.h **** }
 342:c:\projects\paindrain\arduinolcd\test\pain drain\libraries\lvgl\src\core\lv_obj_style_gen.h **** 
 343:c:\projects\paindrain\arduinolcd\test\pain drain\libraries\lvgl\src\core\lv_obj_style_gen.h **** static inline lv_opa_t lv_obj_get_style_img_opa(const struct _lv_obj_t * obj, uint32_t part)
 344:c:\projects\paindrain\arduinolcd\test\pain drain\libraries\lvgl\src\core\lv_obj_style_gen.h **** {
 345:c:\projects\paindrain\arduinolcd\test\pain drain\libraries\lvgl\src\core\lv_obj_style_gen.h ****     lv_style_value_t v = lv_obj_get_style_prop(obj, part, LV_STYLE_IMG_OPA);
 346:c:\projects\paindrain\arduinolcd\test\pain drain\libraries\lvgl\src\core\lv_obj_style_gen.h ****     return (lv_opa_t)v.num;
 347:c:\projects\paindrain\arduinolcd\test\pain drain\libraries\lvgl\src\core\lv_obj_style_gen.h **** }
 348:c:\projects\paindrain\arduinolcd\test\pain drain\libraries\lvgl\src\core\lv_obj_style_gen.h **** 
 349:c:\projects\paindrain\arduinolcd\test\pain drain\libraries\lvgl\src\core\lv_obj_style_gen.h **** static inline lv_color_t lv_obj_get_style_img_recolor(const struct _lv_obj_t * obj, uint32_t part)
 350:c:\projects\paindrain\arduinolcd\test\pain drain\libraries\lvgl\src\core\lv_obj_style_gen.h **** {
 351:c:\projects\paindrain\arduinolcd\test\pain drain\libraries\lvgl\src\core\lv_obj_style_gen.h ****     lv_style_value_t v = lv_obj_get_style_prop(obj, part, LV_STYLE_IMG_RECOLOR);
 352:c:\projects\paindrain\arduinolcd\test\pain drain\libraries\lvgl\src\core\lv_obj_style_gen.h ****     return v.color;
 353:c:\projects\paindrain\arduinolcd\test\pain drain\libraries\lvgl\src\core\lv_obj_style_gen.h **** }
 354:c:\projects\paindrain\arduinolcd\test\pain drain\libraries\lvgl\src\core\lv_obj_style_gen.h **** 
 355:c:\projects\paindrain\arduinolcd\test\pain drain\libraries\lvgl\src\core\lv_obj_style_gen.h **** static inline lv_color_t lv_obj_get_style_img_recolor_filtered(const struct _lv_obj_t * obj, uint32
 356:c:\projects\paindrain\arduinolcd\test\pain drain\libraries\lvgl\src\core\lv_obj_style_gen.h **** {
 357:c:\projects\paindrain\arduinolcd\test\pain drain\libraries\lvgl\src\core\lv_obj_style_gen.h ****     lv_style_value_t v = _lv_obj_style_apply_color_filter(obj, part, lv_obj_get_style_prop(obj, par
 358:c:\projects\paindrain\arduinolcd\test\pain drain\libraries\lvgl\src\core\lv_obj_style_gen.h ****     return v.color;
 359:c:\projects\paindrain\arduinolcd\test\pain drain\libraries\lvgl\src\core\lv_obj_style_gen.h **** }
 360:c:\projects\paindrain\arduinolcd\test\pain drain\libraries\lvgl\src\core\lv_obj_style_gen.h **** 
 361:c:\projects\paindrain\arduinolcd\test\pain drain\libraries\lvgl\src\core\lv_obj_style_gen.h **** static inline lv_opa_t lv_obj_get_style_img_recolor_opa(const struct _lv_obj_t * obj, uint32_t part
 362:c:\projects\paindrain\arduinolcd\test\pain drain\libraries\lvgl\src\core\lv_obj_style_gen.h **** {
 363:c:\projects\paindrain\arduinolcd\test\pain drain\libraries\lvgl\src\core\lv_obj_style_gen.h ****     lv_style_value_t v = lv_obj_get_style_prop(obj, part, LV_STYLE_IMG_RECOLOR_OPA);
 364:c:\projects\paindrain\arduinolcd\test\pain drain\libraries\lvgl\src\core\lv_obj_style_gen.h ****     return (lv_opa_t)v.num;
 365:c:\projects\paindrain\arduinolcd\test\pain drain\libraries\lvgl\src\core\lv_obj_style_gen.h **** }
 366:c:\projects\paindrain\arduinolcd\test\pain drain\libraries\lvgl\src\core\lv_obj_style_gen.h **** 
 367:c:\projects\paindrain\arduinolcd\test\pain drain\libraries\lvgl\src\core\lv_obj_style_gen.h **** static inline lv_coord_t lv_obj_get_style_line_width(const struct _lv_obj_t * obj, uint32_t part)
 368:c:\projects\paindrain\arduinolcd\test\pain drain\libraries\lvgl\src\core\lv_obj_style_gen.h **** {
 369:c:\projects\paindrain\arduinolcd\test\pain drain\libraries\lvgl\src\core\lv_obj_style_gen.h ****     lv_style_value_t v = lv_obj_get_style_prop(obj, part, LV_STYLE_LINE_WIDTH);
 370:c:\projects\paindrain\arduinolcd\test\pain drain\libraries\lvgl\src\core\lv_obj_style_gen.h ****     return (lv_coord_t)v.num;
 371:c:\projects\paindrain\arduinolcd\test\pain drain\libraries\lvgl\src\core\lv_obj_style_gen.h **** }
 372:c:\projects\paindrain\arduinolcd\test\pain drain\libraries\lvgl\src\core\lv_obj_style_gen.h **** 
 373:c:\projects\paindrain\arduinolcd\test\pain drain\libraries\lvgl\src\core\lv_obj_style_gen.h **** static inline lv_coord_t lv_obj_get_style_line_dash_width(const struct _lv_obj_t * obj, uint32_t pa
 374:c:\projects\paindrain\arduinolcd\test\pain drain\libraries\lvgl\src\core\lv_obj_style_gen.h **** {
 375:c:\projects\paindrain\arduinolcd\test\pain drain\libraries\lvgl\src\core\lv_obj_style_gen.h ****     lv_style_value_t v = lv_obj_get_style_prop(obj, part, LV_STYLE_LINE_DASH_WIDTH);
 376:c:\projects\paindrain\arduinolcd\test\pain drain\libraries\lvgl\src\core\lv_obj_style_gen.h ****     return (lv_coord_t)v.num;
 377:c:\projects\paindrain\arduinolcd\test\pain drain\libraries\lvgl\src\core\lv_obj_style_gen.h **** }
 378:c:\projects\paindrain\arduinolcd\test\pain drain\libraries\lvgl\src\core\lv_obj_style_gen.h **** 
 379:c:\projects\paindrain\arduinolcd\test\pain drain\libraries\lvgl\src\core\lv_obj_style_gen.h **** static inline lv_coord_t lv_obj_get_style_line_dash_gap(const struct _lv_obj_t * obj, uint32_t part
 380:c:\projects\paindrain\arduinolcd\test\pain drain\libraries\lvgl\src\core\lv_obj_style_gen.h **** {
 381:c:\projects\paindrain\arduinolcd\test\pain drain\libraries\lvgl\src\core\lv_obj_style_gen.h ****     lv_style_value_t v = lv_obj_get_style_prop(obj, part, LV_STYLE_LINE_DASH_GAP);
 382:c:\projects\paindrain\arduinolcd\test\pain drain\libraries\lvgl\src\core\lv_obj_style_gen.h ****     return (lv_coord_t)v.num;
 383:c:\projects\paindrain\arduinolcd\test\pain drain\libraries\lvgl\src\core\lv_obj_style_gen.h **** }
 384:c:\projects\paindrain\arduinolcd\test\pain drain\libraries\lvgl\src\core\lv_obj_style_gen.h **** 
 385:c:\projects\paindrain\arduinolcd\test\pain drain\libraries\lvgl\src\core\lv_obj_style_gen.h **** static inline bool lv_obj_get_style_line_rounded(const struct _lv_obj_t * obj, uint32_t part)
 386:c:\projects\paindrain\arduinolcd\test\pain drain\libraries\lvgl\src\core\lv_obj_style_gen.h **** {
 387:c:\projects\paindrain\arduinolcd\test\pain drain\libraries\lvgl\src\core\lv_obj_style_gen.h ****     lv_style_value_t v = lv_obj_get_style_prop(obj, part, LV_STYLE_LINE_ROUNDED);
 388:c:\projects\paindrain\arduinolcd\test\pain drain\libraries\lvgl\src\core\lv_obj_style_gen.h ****     return (bool)v.num;
 389:c:\projects\paindrain\arduinolcd\test\pain drain\libraries\lvgl\src\core\lv_obj_style_gen.h **** }
 390:c:\projects\paindrain\arduinolcd\test\pain drain\libraries\lvgl\src\core\lv_obj_style_gen.h **** 
 391:c:\projects\paindrain\arduinolcd\test\pain drain\libraries\lvgl\src\core\lv_obj_style_gen.h **** static inline lv_color_t lv_obj_get_style_line_color(const struct _lv_obj_t * obj, uint32_t part)
 392:c:\projects\paindrain\arduinolcd\test\pain drain\libraries\lvgl\src\core\lv_obj_style_gen.h **** {
 393:c:\projects\paindrain\arduinolcd\test\pain drain\libraries\lvgl\src\core\lv_obj_style_gen.h ****     lv_style_value_t v = lv_obj_get_style_prop(obj, part, LV_STYLE_LINE_COLOR);
 394:c:\projects\paindrain\arduinolcd\test\pain drain\libraries\lvgl\src\core\lv_obj_style_gen.h ****     return v.color;
 395:c:\projects\paindrain\arduinolcd\test\pain drain\libraries\lvgl\src\core\lv_obj_style_gen.h **** }
ARM GAS  C:\Users\haske\AppData\Local\Temp\ccVRp2Ta.s 			page 45


 396:c:\projects\paindrain\arduinolcd\test\pain drain\libraries\lvgl\src\core\lv_obj_style_gen.h **** 
 397:c:\projects\paindrain\arduinolcd\test\pain drain\libraries\lvgl\src\core\lv_obj_style_gen.h **** static inline lv_color_t lv_obj_get_style_line_color_filtered(const struct _lv_obj_t * obj, uint32_
 398:c:\projects\paindrain\arduinolcd\test\pain drain\libraries\lvgl\src\core\lv_obj_style_gen.h **** {
 399:c:\projects\paindrain\arduinolcd\test\pain drain\libraries\lvgl\src\core\lv_obj_style_gen.h ****     lv_style_value_t v = _lv_obj_style_apply_color_filter(obj, part, lv_obj_get_style_prop(obj, par
 400:c:\projects\paindrain\arduinolcd\test\pain drain\libraries\lvgl\src\core\lv_obj_style_gen.h ****     return v.color;
 401:c:\projects\paindrain\arduinolcd\test\pain drain\libraries\lvgl\src\core\lv_obj_style_gen.h **** }
 402:c:\projects\paindrain\arduinolcd\test\pain drain\libraries\lvgl\src\core\lv_obj_style_gen.h **** 
 403:c:\projects\paindrain\arduinolcd\test\pain drain\libraries\lvgl\src\core\lv_obj_style_gen.h **** static inline lv_opa_t lv_obj_get_style_line_opa(const struct _lv_obj_t * obj, uint32_t part)
 404:c:\projects\paindrain\arduinolcd\test\pain drain\libraries\lvgl\src\core\lv_obj_style_gen.h **** {
 405:c:\projects\paindrain\arduinolcd\test\pain drain\libraries\lvgl\src\core\lv_obj_style_gen.h ****     lv_style_value_t v = lv_obj_get_style_prop(obj, part, LV_STYLE_LINE_OPA);
 406:c:\projects\paindrain\arduinolcd\test\pain drain\libraries\lvgl\src\core\lv_obj_style_gen.h ****     return (lv_opa_t)v.num;
 407:c:\projects\paindrain\arduinolcd\test\pain drain\libraries\lvgl\src\core\lv_obj_style_gen.h **** }
 408:c:\projects\paindrain\arduinolcd\test\pain drain\libraries\lvgl\src\core\lv_obj_style_gen.h **** 
 409:c:\projects\paindrain\arduinolcd\test\pain drain\libraries\lvgl\src\core\lv_obj_style_gen.h **** static inline lv_coord_t lv_obj_get_style_arc_width(const struct _lv_obj_t * obj, uint32_t part)
 410:c:\projects\paindrain\arduinolcd\test\pain drain\libraries\lvgl\src\core\lv_obj_style_gen.h **** {
 411:c:\projects\paindrain\arduinolcd\test\pain drain\libraries\lvgl\src\core\lv_obj_style_gen.h ****     lv_style_value_t v = lv_obj_get_style_prop(obj, part, LV_STYLE_ARC_WIDTH);
 412:c:\projects\paindrain\arduinolcd\test\pain drain\libraries\lvgl\src\core\lv_obj_style_gen.h ****     return (lv_coord_t)v.num;
 413:c:\projects\paindrain\arduinolcd\test\pain drain\libraries\lvgl\src\core\lv_obj_style_gen.h **** }
 414:c:\projects\paindrain\arduinolcd\test\pain drain\libraries\lvgl\src\core\lv_obj_style_gen.h **** 
 415:c:\projects\paindrain\arduinolcd\test\pain drain\libraries\lvgl\src\core\lv_obj_style_gen.h **** static inline bool lv_obj_get_style_arc_rounded(const struct _lv_obj_t * obj, uint32_t part)
 416:c:\projects\paindrain\arduinolcd\test\pain drain\libraries\lvgl\src\core\lv_obj_style_gen.h **** {
 417:c:\projects\paindrain\arduinolcd\test\pain drain\libraries\lvgl\src\core\lv_obj_style_gen.h ****     lv_style_value_t v = lv_obj_get_style_prop(obj, part, LV_STYLE_ARC_ROUNDED);
 418:c:\projects\paindrain\arduinolcd\test\pain drain\libraries\lvgl\src\core\lv_obj_style_gen.h ****     return (bool)v.num;
 419:c:\projects\paindrain\arduinolcd\test\pain drain\libraries\lvgl\src\core\lv_obj_style_gen.h **** }
 420:c:\projects\paindrain\arduinolcd\test\pain drain\libraries\lvgl\src\core\lv_obj_style_gen.h **** 
 421:c:\projects\paindrain\arduinolcd\test\pain drain\libraries\lvgl\src\core\lv_obj_style_gen.h **** static inline lv_color_t lv_obj_get_style_arc_color(const struct _lv_obj_t * obj, uint32_t part)
 422:c:\projects\paindrain\arduinolcd\test\pain drain\libraries\lvgl\src\core\lv_obj_style_gen.h **** {
 423:c:\projects\paindrain\arduinolcd\test\pain drain\libraries\lvgl\src\core\lv_obj_style_gen.h ****     lv_style_value_t v = lv_obj_get_style_prop(obj, part, LV_STYLE_ARC_COLOR);
 424:c:\projects\paindrain\arduinolcd\test\pain drain\libraries\lvgl\src\core\lv_obj_style_gen.h ****     return v.color;
 425:c:\projects\paindrain\arduinolcd\test\pain drain\libraries\lvgl\src\core\lv_obj_style_gen.h **** }
 426:c:\projects\paindrain\arduinolcd\test\pain drain\libraries\lvgl\src\core\lv_obj_style_gen.h **** 
 427:c:\projects\paindrain\arduinolcd\test\pain drain\libraries\lvgl\src\core\lv_obj_style_gen.h **** static inline lv_color_t lv_obj_get_style_arc_color_filtered(const struct _lv_obj_t * obj, uint32_t
 428:c:\projects\paindrain\arduinolcd\test\pain drain\libraries\lvgl\src\core\lv_obj_style_gen.h **** {
 429:c:\projects\paindrain\arduinolcd\test\pain drain\libraries\lvgl\src\core\lv_obj_style_gen.h ****     lv_style_value_t v = _lv_obj_style_apply_color_filter(obj, part, lv_obj_get_style_prop(obj, par
 430:c:\projects\paindrain\arduinolcd\test\pain drain\libraries\lvgl\src\core\lv_obj_style_gen.h ****     return v.color;
 431:c:\projects\paindrain\arduinolcd\test\pain drain\libraries\lvgl\src\core\lv_obj_style_gen.h **** }
 432:c:\projects\paindrain\arduinolcd\test\pain drain\libraries\lvgl\src\core\lv_obj_style_gen.h **** 
 433:c:\projects\paindrain\arduinolcd\test\pain drain\libraries\lvgl\src\core\lv_obj_style_gen.h **** static inline lv_opa_t lv_obj_get_style_arc_opa(const struct _lv_obj_t * obj, uint32_t part)
 434:c:\projects\paindrain\arduinolcd\test\pain drain\libraries\lvgl\src\core\lv_obj_style_gen.h **** {
 435:c:\projects\paindrain\arduinolcd\test\pain drain\libraries\lvgl\src\core\lv_obj_style_gen.h ****     lv_style_value_t v = lv_obj_get_style_prop(obj, part, LV_STYLE_ARC_OPA);
 436:c:\projects\paindrain\arduinolcd\test\pain drain\libraries\lvgl\src\core\lv_obj_style_gen.h ****     return (lv_opa_t)v.num;
 437:c:\projects\paindrain\arduinolcd\test\pain drain\libraries\lvgl\src\core\lv_obj_style_gen.h **** }
 438:c:\projects\paindrain\arduinolcd\test\pain drain\libraries\lvgl\src\core\lv_obj_style_gen.h **** 
 439:c:\projects\paindrain\arduinolcd\test\pain drain\libraries\lvgl\src\core\lv_obj_style_gen.h **** static inline const void * lv_obj_get_style_arc_img_src(const struct _lv_obj_t * obj, uint32_t part
 440:c:\projects\paindrain\arduinolcd\test\pain drain\libraries\lvgl\src\core\lv_obj_style_gen.h **** {
 441:c:\projects\paindrain\arduinolcd\test\pain drain\libraries\lvgl\src\core\lv_obj_style_gen.h ****     lv_style_value_t v = lv_obj_get_style_prop(obj, part, LV_STYLE_ARC_IMG_SRC);
 442:c:\projects\paindrain\arduinolcd\test\pain drain\libraries\lvgl\src\core\lv_obj_style_gen.h ****     return (const void *)v.ptr;
 443:c:\projects\paindrain\arduinolcd\test\pain drain\libraries\lvgl\src\core\lv_obj_style_gen.h **** }
 444:c:\projects\paindrain\arduinolcd\test\pain drain\libraries\lvgl\src\core\lv_obj_style_gen.h **** 
 445:c:\projects\paindrain\arduinolcd\test\pain drain\libraries\lvgl\src\core\lv_obj_style_gen.h **** static inline lv_color_t lv_obj_get_style_text_color(const struct _lv_obj_t * obj, uint32_t part)
 446:c:\projects\paindrain\arduinolcd\test\pain drain\libraries\lvgl\src\core\lv_obj_style_gen.h **** {
 447:c:\projects\paindrain\arduinolcd\test\pain drain\libraries\lvgl\src\core\lv_obj_style_gen.h ****     lv_style_value_t v = lv_obj_get_style_prop(obj, part, LV_STYLE_TEXT_COLOR);
 448:c:\projects\paindrain\arduinolcd\test\pain drain\libraries\lvgl\src\core\lv_obj_style_gen.h ****     return v.color;
 449:c:\projects\paindrain\arduinolcd\test\pain drain\libraries\lvgl\src\core\lv_obj_style_gen.h **** }
 450:c:\projects\paindrain\arduinolcd\test\pain drain\libraries\lvgl\src\core\lv_obj_style_gen.h **** 
 451:c:\projects\paindrain\arduinolcd\test\pain drain\libraries\lvgl\src\core\lv_obj_style_gen.h **** static inline lv_color_t lv_obj_get_style_text_color_filtered(const struct _lv_obj_t * obj, uint32_
 452:c:\projects\paindrain\arduinolcd\test\pain drain\libraries\lvgl\src\core\lv_obj_style_gen.h **** {
ARM GAS  C:\Users\haske\AppData\Local\Temp\ccVRp2Ta.s 			page 46


 453:c:\projects\paindrain\arduinolcd\test\pain drain\libraries\lvgl\src\core\lv_obj_style_gen.h ****     lv_style_value_t v = _lv_obj_style_apply_color_filter(obj, part, lv_obj_get_style_prop(obj, par
 454:c:\projects\paindrain\arduinolcd\test\pain drain\libraries\lvgl\src\core\lv_obj_style_gen.h ****     return v.color;
 455:c:\projects\paindrain\arduinolcd\test\pain drain\libraries\lvgl\src\core\lv_obj_style_gen.h **** }
 456:c:\projects\paindrain\arduinolcd\test\pain drain\libraries\lvgl\src\core\lv_obj_style_gen.h **** 
 457:c:\projects\paindrain\arduinolcd\test\pain drain\libraries\lvgl\src\core\lv_obj_style_gen.h **** static inline lv_opa_t lv_obj_get_style_text_opa(const struct _lv_obj_t * obj, uint32_t part)
 458:c:\projects\paindrain\arduinolcd\test\pain drain\libraries\lvgl\src\core\lv_obj_style_gen.h **** {
 459:c:\projects\paindrain\arduinolcd\test\pain drain\libraries\lvgl\src\core\lv_obj_style_gen.h ****     lv_style_value_t v = lv_obj_get_style_prop(obj, part, LV_STYLE_TEXT_OPA);
 460:c:\projects\paindrain\arduinolcd\test\pain drain\libraries\lvgl\src\core\lv_obj_style_gen.h ****     return (lv_opa_t)v.num;
 461:c:\projects\paindrain\arduinolcd\test\pain drain\libraries\lvgl\src\core\lv_obj_style_gen.h **** }
 462:c:\projects\paindrain\arduinolcd\test\pain drain\libraries\lvgl\src\core\lv_obj_style_gen.h **** 
 463:c:\projects\paindrain\arduinolcd\test\pain drain\libraries\lvgl\src\core\lv_obj_style_gen.h **** static inline const lv_font_t * lv_obj_get_style_text_font(const struct _lv_obj_t * obj, uint32_t p
 464:c:\projects\paindrain\arduinolcd\test\pain drain\libraries\lvgl\src\core\lv_obj_style_gen.h **** {
 465:c:\projects\paindrain\arduinolcd\test\pain drain\libraries\lvgl\src\core\lv_obj_style_gen.h ****     lv_style_value_t v = lv_obj_get_style_prop(obj, part, LV_STYLE_TEXT_FONT);
 466:c:\projects\paindrain\arduinolcd\test\pain drain\libraries\lvgl\src\core\lv_obj_style_gen.h ****     return (const lv_font_t *)v.ptr;
 467:c:\projects\paindrain\arduinolcd\test\pain drain\libraries\lvgl\src\core\lv_obj_style_gen.h **** }
 468:c:\projects\paindrain\arduinolcd\test\pain drain\libraries\lvgl\src\core\lv_obj_style_gen.h **** 
 469:c:\projects\paindrain\arduinolcd\test\pain drain\libraries\lvgl\src\core\lv_obj_style_gen.h **** static inline lv_coord_t lv_obj_get_style_text_letter_space(const struct _lv_obj_t * obj, uint32_t 
 470:c:\projects\paindrain\arduinolcd\test\pain drain\libraries\lvgl\src\core\lv_obj_style_gen.h **** {
 471:c:\projects\paindrain\arduinolcd\test\pain drain\libraries\lvgl\src\core\lv_obj_style_gen.h ****     lv_style_value_t v = lv_obj_get_style_prop(obj, part, LV_STYLE_TEXT_LETTER_SPACE);
 472:c:\projects\paindrain\arduinolcd\test\pain drain\libraries\lvgl\src\core\lv_obj_style_gen.h ****     return (lv_coord_t)v.num;
 473:c:\projects\paindrain\arduinolcd\test\pain drain\libraries\lvgl\src\core\lv_obj_style_gen.h **** }
 474:c:\projects\paindrain\arduinolcd\test\pain drain\libraries\lvgl\src\core\lv_obj_style_gen.h **** 
 475:c:\projects\paindrain\arduinolcd\test\pain drain\libraries\lvgl\src\core\lv_obj_style_gen.h **** static inline lv_coord_t lv_obj_get_style_text_line_space(const struct _lv_obj_t * obj, uint32_t pa
 476:c:\projects\paindrain\arduinolcd\test\pain drain\libraries\lvgl\src\core\lv_obj_style_gen.h **** {
 477:c:\projects\paindrain\arduinolcd\test\pain drain\libraries\lvgl\src\core\lv_obj_style_gen.h ****     lv_style_value_t v = lv_obj_get_style_prop(obj, part, LV_STYLE_TEXT_LINE_SPACE);
 478:c:\projects\paindrain\arduinolcd\test\pain drain\libraries\lvgl\src\core\lv_obj_style_gen.h ****     return (lv_coord_t)v.num;
 479:c:\projects\paindrain\arduinolcd\test\pain drain\libraries\lvgl\src\core\lv_obj_style_gen.h **** }
 480:c:\projects\paindrain\arduinolcd\test\pain drain\libraries\lvgl\src\core\lv_obj_style_gen.h **** 
 481:c:\projects\paindrain\arduinolcd\test\pain drain\libraries\lvgl\src\core\lv_obj_style_gen.h **** static inline lv_text_decor_t lv_obj_get_style_text_decor(const struct _lv_obj_t * obj, uint32_t pa
 482:c:\projects\paindrain\arduinolcd\test\pain drain\libraries\lvgl\src\core\lv_obj_style_gen.h **** {
 483:c:\projects\paindrain\arduinolcd\test\pain drain\libraries\lvgl\src\core\lv_obj_style_gen.h ****     lv_style_value_t v = lv_obj_get_style_prop(obj, part, LV_STYLE_TEXT_DECOR);
 484:c:\projects\paindrain\arduinolcd\test\pain drain\libraries\lvgl\src\core\lv_obj_style_gen.h ****     return (lv_text_decor_t)v.num;
 485:c:\projects\paindrain\arduinolcd\test\pain drain\libraries\lvgl\src\core\lv_obj_style_gen.h **** }
 486:c:\projects\paindrain\arduinolcd\test\pain drain\libraries\lvgl\src\core\lv_obj_style_gen.h **** 
 487:c:\projects\paindrain\arduinolcd\test\pain drain\libraries\lvgl\src\core\lv_obj_style_gen.h **** static inline lv_text_align_t lv_obj_get_style_text_align(const struct _lv_obj_t * obj, uint32_t pa
 488:c:\projects\paindrain\arduinolcd\test\pain drain\libraries\lvgl\src\core\lv_obj_style_gen.h **** {
 489:c:\projects\paindrain\arduinolcd\test\pain drain\libraries\lvgl\src\core\lv_obj_style_gen.h ****     lv_style_value_t v = lv_obj_get_style_prop(obj, part, LV_STYLE_TEXT_ALIGN);
 490:c:\projects\paindrain\arduinolcd\test\pain drain\libraries\lvgl\src\core\lv_obj_style_gen.h ****     return (lv_text_align_t)v.num;
 491:c:\projects\paindrain\arduinolcd\test\pain drain\libraries\lvgl\src\core\lv_obj_style_gen.h **** }
 492:c:\projects\paindrain\arduinolcd\test\pain drain\libraries\lvgl\src\core\lv_obj_style_gen.h **** 
 493:c:\projects\paindrain\arduinolcd\test\pain drain\libraries\lvgl\src\core\lv_obj_style_gen.h **** static inline lv_coord_t lv_obj_get_style_radius(const struct _lv_obj_t * obj, uint32_t part)
 494:c:\projects\paindrain\arduinolcd\test\pain drain\libraries\lvgl\src\core\lv_obj_style_gen.h **** {
 495:c:\projects\paindrain\arduinolcd\test\pain drain\libraries\lvgl\src\core\lv_obj_style_gen.h ****     lv_style_value_t v = lv_obj_get_style_prop(obj, part, LV_STYLE_RADIUS);
 496:c:\projects\paindrain\arduinolcd\test\pain drain\libraries\lvgl\src\core\lv_obj_style_gen.h ****     return (lv_coord_t)v.num;
 497:c:\projects\paindrain\arduinolcd\test\pain drain\libraries\lvgl\src\core\lv_obj_style_gen.h **** }
 498:c:\projects\paindrain\arduinolcd\test\pain drain\libraries\lvgl\src\core\lv_obj_style_gen.h **** 
 499:c:\projects\paindrain\arduinolcd\test\pain drain\libraries\lvgl\src\core\lv_obj_style_gen.h **** static inline bool lv_obj_get_style_clip_corner(const struct _lv_obj_t * obj, uint32_t part)
 500:c:\projects\paindrain\arduinolcd\test\pain drain\libraries\lvgl\src\core\lv_obj_style_gen.h **** {
 501:c:\projects\paindrain\arduinolcd\test\pain drain\libraries\lvgl\src\core\lv_obj_style_gen.h ****     lv_style_value_t v = lv_obj_get_style_prop(obj, part, LV_STYLE_CLIP_CORNER);
 502:c:\projects\paindrain\arduinolcd\test\pain drain\libraries\lvgl\src\core\lv_obj_style_gen.h ****     return (bool)v.num;
 503:c:\projects\paindrain\arduinolcd\test\pain drain\libraries\lvgl\src\core\lv_obj_style_gen.h **** }
 504:c:\projects\paindrain\arduinolcd\test\pain drain\libraries\lvgl\src\core\lv_obj_style_gen.h **** 
 505:c:\projects\paindrain\arduinolcd\test\pain drain\libraries\lvgl\src\core\lv_obj_style_gen.h **** static inline lv_opa_t lv_obj_get_style_opa(const struct _lv_obj_t * obj, uint32_t part)
 506:c:\projects\paindrain\arduinolcd\test\pain drain\libraries\lvgl\src\core\lv_obj_style_gen.h **** {
 507:c:\projects\paindrain\arduinolcd\test\pain drain\libraries\lvgl\src\core\lv_obj_style_gen.h ****     lv_style_value_t v = lv_obj_get_style_prop(obj, part, LV_STYLE_OPA);
 508:c:\projects\paindrain\arduinolcd\test\pain drain\libraries\lvgl\src\core\lv_obj_style_gen.h ****     return (lv_opa_t)v.num;
 509:c:\projects\paindrain\arduinolcd\test\pain drain\libraries\lvgl\src\core\lv_obj_style_gen.h **** }
ARM GAS  C:\Users\haske\AppData\Local\Temp\ccVRp2Ta.s 			page 47


 510:c:\projects\paindrain\arduinolcd\test\pain drain\libraries\lvgl\src\core\lv_obj_style_gen.h **** 
 511:c:\projects\paindrain\arduinolcd\test\pain drain\libraries\lvgl\src\core\lv_obj_style_gen.h **** static inline const lv_color_filter_dsc_t * lv_obj_get_style_color_filter_dsc(const struct _lv_obj_
 512:c:\projects\paindrain\arduinolcd\test\pain drain\libraries\lvgl\src\core\lv_obj_style_gen.h **** {
 513:c:\projects\paindrain\arduinolcd\test\pain drain\libraries\lvgl\src\core\lv_obj_style_gen.h ****     lv_style_value_t v = lv_obj_get_style_prop(obj, part, LV_STYLE_COLOR_FILTER_DSC);
 514:c:\projects\paindrain\arduinolcd\test\pain drain\libraries\lvgl\src\core\lv_obj_style_gen.h ****     return (const lv_color_filter_dsc_t *)v.ptr;
 515:c:\projects\paindrain\arduinolcd\test\pain drain\libraries\lvgl\src\core\lv_obj_style_gen.h **** }
 516:c:\projects\paindrain\arduinolcd\test\pain drain\libraries\lvgl\src\core\lv_obj_style_gen.h **** 
 517:c:\projects\paindrain\arduinolcd\test\pain drain\libraries\lvgl\src\core\lv_obj_style_gen.h **** static inline lv_opa_t lv_obj_get_style_color_filter_opa(const struct _lv_obj_t * obj, uint32_t par
 518:c:\projects\paindrain\arduinolcd\test\pain drain\libraries\lvgl\src\core\lv_obj_style_gen.h **** {
 519:c:\projects\paindrain\arduinolcd\test\pain drain\libraries\lvgl\src\core\lv_obj_style_gen.h ****     lv_style_value_t v = lv_obj_get_style_prop(obj, part, LV_STYLE_COLOR_FILTER_OPA);
 520:c:\projects\paindrain\arduinolcd\test\pain drain\libraries\lvgl\src\core\lv_obj_style_gen.h ****     return (lv_opa_t)v.num;
 521:c:\projects\paindrain\arduinolcd\test\pain drain\libraries\lvgl\src\core\lv_obj_style_gen.h **** }
 522:c:\projects\paindrain\arduinolcd\test\pain drain\libraries\lvgl\src\core\lv_obj_style_gen.h **** 
 523:c:\projects\paindrain\arduinolcd\test\pain drain\libraries\lvgl\src\core\lv_obj_style_gen.h **** static inline const lv_anim_t * lv_obj_get_style_anim(const struct _lv_obj_t * obj, uint32_t part)
 524:c:\projects\paindrain\arduinolcd\test\pain drain\libraries\lvgl\src\core\lv_obj_style_gen.h **** {
 525:c:\projects\paindrain\arduinolcd\test\pain drain\libraries\lvgl\src\core\lv_obj_style_gen.h ****     lv_style_value_t v = lv_obj_get_style_prop(obj, part, LV_STYLE_ANIM);
 526:c:\projects\paindrain\arduinolcd\test\pain drain\libraries\lvgl\src\core\lv_obj_style_gen.h ****     return (const lv_anim_t *)v.ptr;
 527:c:\projects\paindrain\arduinolcd\test\pain drain\libraries\lvgl\src\core\lv_obj_style_gen.h **** }
 528:c:\projects\paindrain\arduinolcd\test\pain drain\libraries\lvgl\src\core\lv_obj_style_gen.h **** 
 529:c:\projects\paindrain\arduinolcd\test\pain drain\libraries\lvgl\src\core\lv_obj_style_gen.h **** static inline uint32_t lv_obj_get_style_anim_time(const struct _lv_obj_t * obj, uint32_t part)
 530:c:\projects\paindrain\arduinolcd\test\pain drain\libraries\lvgl\src\core\lv_obj_style_gen.h **** {
 531:c:\projects\paindrain\arduinolcd\test\pain drain\libraries\lvgl\src\core\lv_obj_style_gen.h ****     lv_style_value_t v = lv_obj_get_style_prop(obj, part, LV_STYLE_ANIM_TIME);
 532:c:\projects\paindrain\arduinolcd\test\pain drain\libraries\lvgl\src\core\lv_obj_style_gen.h ****     return (uint32_t)v.num;
 533:c:\projects\paindrain\arduinolcd\test\pain drain\libraries\lvgl\src\core\lv_obj_style_gen.h **** }
 534:c:\projects\paindrain\arduinolcd\test\pain drain\libraries\lvgl\src\core\lv_obj_style_gen.h **** 
 535:c:\projects\paindrain\arduinolcd\test\pain drain\libraries\lvgl\src\core\lv_obj_style_gen.h **** static inline uint32_t lv_obj_get_style_anim_speed(const struct _lv_obj_t * obj, uint32_t part)
 536:c:\projects\paindrain\arduinolcd\test\pain drain\libraries\lvgl\src\core\lv_obj_style_gen.h **** {
 537:c:\projects\paindrain\arduinolcd\test\pain drain\libraries\lvgl\src\core\lv_obj_style_gen.h ****     lv_style_value_t v = lv_obj_get_style_prop(obj, part, LV_STYLE_ANIM_SPEED);
 538:c:\projects\paindrain\arduinolcd\test\pain drain\libraries\lvgl\src\core\lv_obj_style_gen.h ****     return (uint32_t)v.num;
 539:c:\projects\paindrain\arduinolcd\test\pain drain\libraries\lvgl\src\core\lv_obj_style_gen.h **** }
 540:c:\projects\paindrain\arduinolcd\test\pain drain\libraries\lvgl\src\core\lv_obj_style_gen.h **** 
 541:c:\projects\paindrain\arduinolcd\test\pain drain\libraries\lvgl\src\core\lv_obj_style_gen.h **** static inline const lv_style_transition_dsc_t * lv_obj_get_style_transition(const struct _lv_obj_t 
 542:c:\projects\paindrain\arduinolcd\test\pain drain\libraries\lvgl\src\core\lv_obj_style_gen.h **** {
 543:c:\projects\paindrain\arduinolcd\test\pain drain\libraries\lvgl\src\core\lv_obj_style_gen.h ****     lv_style_value_t v = lv_obj_get_style_prop(obj, part, LV_STYLE_TRANSITION);
 544:c:\projects\paindrain\arduinolcd\test\pain drain\libraries\lvgl\src\core\lv_obj_style_gen.h ****     return (const lv_style_transition_dsc_t *)v.ptr;
 545:c:\projects\paindrain\arduinolcd\test\pain drain\libraries\lvgl\src\core\lv_obj_style_gen.h **** }
 546:c:\projects\paindrain\arduinolcd\test\pain drain\libraries\lvgl\src\core\lv_obj_style_gen.h **** 
 547:c:\projects\paindrain\arduinolcd\test\pain drain\libraries\lvgl\src\core\lv_obj_style_gen.h **** static inline lv_blend_mode_t lv_obj_get_style_blend_mode(const struct _lv_obj_t * obj, uint32_t pa
 548:c:\projects\paindrain\arduinolcd\test\pain drain\libraries\lvgl\src\core\lv_obj_style_gen.h **** {
 549:c:\projects\paindrain\arduinolcd\test\pain drain\libraries\lvgl\src\core\lv_obj_style_gen.h ****     lv_style_value_t v = lv_obj_get_style_prop(obj, part, LV_STYLE_BLEND_MODE);
 550:c:\projects\paindrain\arduinolcd\test\pain drain\libraries\lvgl\src\core\lv_obj_style_gen.h ****     return (lv_blend_mode_t)v.num;
 551:c:\projects\paindrain\arduinolcd\test\pain drain\libraries\lvgl\src\core\lv_obj_style_gen.h **** }
 552:c:\projects\paindrain\arduinolcd\test\pain drain\libraries\lvgl\src\core\lv_obj_style_gen.h **** 
 553:c:\projects\paindrain\arduinolcd\test\pain drain\libraries\lvgl\src\core\lv_obj_style_gen.h **** static inline uint16_t lv_obj_get_style_layout(const struct _lv_obj_t * obj, uint32_t part)
 554:c:\projects\paindrain\arduinolcd\test\pain drain\libraries\lvgl\src\core\lv_obj_style_gen.h **** {
 555:c:\projects\paindrain\arduinolcd\test\pain drain\libraries\lvgl\src\core\lv_obj_style_gen.h ****     lv_style_value_t v = lv_obj_get_style_prop(obj, part, LV_STYLE_LAYOUT);
 556:c:\projects\paindrain\arduinolcd\test\pain drain\libraries\lvgl\src\core\lv_obj_style_gen.h ****     return (uint16_t)v.num;
 557:c:\projects\paindrain\arduinolcd\test\pain drain\libraries\lvgl\src\core\lv_obj_style_gen.h **** }
 558:c:\projects\paindrain\arduinolcd\test\pain drain\libraries\lvgl\src\core\lv_obj_style_gen.h **** 
 559:c:\projects\paindrain\arduinolcd\test\pain drain\libraries\lvgl\src\core\lv_obj_style_gen.h **** static inline lv_base_dir_t lv_obj_get_style_base_dir(const struct _lv_obj_t * obj, uint32_t part)
 560:c:\projects\paindrain\arduinolcd\test\pain drain\libraries\lvgl\src\core\lv_obj_style_gen.h **** {
 561:c:\projects\paindrain\arduinolcd\test\pain drain\libraries\lvgl\src\core\lv_obj_style_gen.h ****     lv_style_value_t v = lv_obj_get_style_prop(obj, part, LV_STYLE_BASE_DIR);
 1134              		.loc 3 561 0
 1135 0142 1622     		movs	r2, #22
 1136 0144 0021     		movs	r1, #0
 1137 0146 0298     		ldr	r0, [sp, #8]
 1138 0148 FFF7FEFF 		bl	lv_obj_get_style_prop
ARM GAS  C:\Users\haske\AppData\Local\Temp\ccVRp2Ta.s 			page 48


 1139              	.LVL132:
 562:c:\projects\paindrain\arduinolcd\test\pain drain\libraries\lvgl\src\core\lv_obj_style_gen.h ****     return (lv_base_dir_t)v.num;
 1140              		.loc 3 562 0
 1141 014c C3B2     		uxtb	r3, r0
 1142 014e 9A46     		mov	r10, r3
 1143              	.LVL133:
 1144              	.LBE84:
 1145              	.LBE83:
 450:..\..\..\arduinoLCD\test\Pain Drain\libraries\lvgl\src\extra\layouts\flex/lv_flex.c **** 
 1146              		.loc 2 450 0
 1147 0150 1E21     		movs	r1, #30
 1148 0152 0AAB     		add	r3, sp, #40
 1149 0154 9C46     		mov	ip, r3
 1150 0156 6144     		add	r1, r1, ip
 1151 0158 0023     		movs	r3, #0
 1152 015a 0B80     		strh	r3, [r1]
 452:..\..\..\arduinoLCD\test\Pain Drain\libraries\lvgl\src\extra\layouts\flex/lv_flex.c ****     place_content(f->main_place, max_main_size, t->track_main_size, t->item_cnt, &main_pos, &place_
 1153              		.loc 2 452 0
 1154 015c 11AC     		add	r4, sp, #68
 1155 015e 2380     		strh	r3, [r4]
 453:..\..\..\arduinoLCD\test\Pain Drain\libraries\lvgl\src\extra\layouts\flex/lv_flex.c ****     if(f->row && rtl) main_pos += lv_obj_get_content_width(cont);
 1156              		.loc 2 453 0
 1157 0160 0822     		movs	r2, #8
 1158 0162 AB5E     		ldrsh	r3, [r5, r2]
 1159 0164 0220     		movs	r0, #2
 1160 0166 2A5E     		ldrsh	r2, [r5, r0]
 1161 0168 5846     		mov	r0, fp
 1162 016a 0078     		ldrb	r0, [r0]
 1163 016c 0194     		str	r4, [sp, #4]
 1164 016e 0091     		str	r1, [sp]
 1165 0170 4146     		mov	r1, r8
 1166 0172 FFF7FEFF 		bl	place_content
 1167              	.LVL134:
 454:..\..\..\arduinoLCD\test\Pain Drain\libraries\lvgl\src\extra\layouts\flex/lv_flex.c **** 
 1168              		.loc 2 454 0
 1169 0176 5B46     		mov	r3, fp
 1170 0178 DB78     		ldrb	r3, [r3, #3]
 1171 017a DB07     		lsls	r3, r3, #31
 1172 017c 0CD5     		bpl	.L74
 454:..\..\..\arduinoLCD\test\Pain Drain\libraries\lvgl\src\extra\layouts\flex/lv_flex.c **** 
 1173              		.loc 2 454 0 is_stmt 0 discriminator 1
 1174 017e 5346     		mov	r3, r10
 1175 0180 012B     		cmp	r3, #1
 1176 0182 09D1     		bne	.L74
 454:..\..\..\arduinoLCD\test\Pain Drain\libraries\lvgl\src\extra\layouts\flex/lv_flex.c **** 
 1177              		.loc 2 454 0 discriminator 2
 1178 0184 0298     		ldr	r0, [sp, #8]
 1179 0186 FFF7FEFF 		bl	lv_obj_get_content_width
 1180              	.LVL135:
 1181 018a 1E23     		movs	r3, #30
 1182 018c 0AAA     		add	r2, sp, #40
 1183 018e 9446     		mov	ip, r2
 1184 0190 6344     		add	r3, r3, ip
 1185 0192 1A88     		ldrh	r2, [r3]
 1186 0194 1018     		adds	r0, r2, r0
 1187 0196 1880     		strh	r0, [r3]
 1188              	.L74:
ARM GAS  C:\Users\haske\AppData\Local\Temp\ccVRp2Ta.s 			page 49


 456:..\..\..\arduinoLCD\test\Pain Drain\libraries\lvgl\src\extra\layouts\flex/lv_flex.c ****     /*Reposition the children*/
 1189              		.loc 2 456 0 is_stmt 1
 1190 0198 0D99     		ldr	r1, [sp, #52]
 1191 019a 0298     		ldr	r0, [sp, #8]
 1192 019c FFF7FEFF 		bl	lv_obj_get_child
 1193              	.LVL136:
 1194 01a0 0700     		movs	r7, r0
 1195              	.LVL137:
 1196 01a2 5E46     		mov	r6, fp
 1197 01a4 A846     		mov	r8, r5
 458:..\..\..\arduinoLCD\test\Pain Drain\libraries\lvgl\src\extra\layouts\flex/lv_flex.c ****         if(lv_obj_has_flag_any(item, LV_OBJ_FLAG_IGNORE_LAYOUT | LV_OBJ_FLAG_HIDDEN | LV_OBJ_FLAG_F
 1198              		.loc 2 458 0
 1199 01a6 77E1     		b	.L75
 1200              	.LVL138:
 1201              	.L105:
 1202              	.LBB85:
 459:..\..\..\arduinoLCD\test\Pain Drain\libraries\lvgl\src\extra\layouts\flex/lv_flex.c ****             item = get_next_item(cont, f->rev, &item_first_id);
 1203              		.loc 2 459 0
 1204 01a8 5149     		ldr	r1, .L113+16
 1205 01aa 3800     		movs	r0, r7
 1206              	.LVL139:
 1207 01ac FFF7FEFF 		bl	lv_obj_has_flag_any
 1208              	.LVL140:
 1209 01b0 0028     		cmp	r0, #0
 1210 01b2 08D0     		beq	.L76
 460:..\..\..\arduinoLCD\test\Pain Drain\libraries\lvgl\src\extra\layouts\flex/lv_flex.c ****             continue;
 1211              		.loc 2 460 0
 1212 01b4 F178     		ldrb	r1, [r6, #3]
 1213 01b6 4907     		lsls	r1, r1, #29
 1214 01b8 C90F     		lsrs	r1, r1, #31
 1215 01ba 0DAA     		add	r2, sp, #52
 1216              	.LVL141:
 1217 01bc 0298     		ldr	r0, [sp, #8]
 1218 01be FFF7FEFF 		bl	get_next_item
 1219              	.LVL142:
 1220 01c2 0700     		movs	r7, r0
 1221              	.LVL143:
 461:..\..\..\arduinoLCD\test\Pain Drain\libraries\lvgl\src\extra\layouts\flex/lv_flex.c ****         }
 1222              		.loc 2 461 0
 1223 01c4 68E1     		b	.L75
 1224              	.LVL144:
 1225              	.L76:
 1226              	.LBB86:
 1227              	.LBB87:
 138:..\..\..\arduinoLCD\test\Pain Drain\libraries\lvgl\src\extra\layouts\flex\../flex/lv_flex.h ****     return (uint8_t)v.num;
 1228              		.loc 4 138 0
 1229 01c6 4B4B     		ldr	r3, .L113+20
 1230 01c8 1A88     		ldrh	r2, [r3]
 1231 01ca 0021     		movs	r1, #0
 1232 01cc 3800     		movs	r0, r7
 1233 01ce FFF7FEFF 		bl	lv_obj_get_style_prop
 1234              	.LVL145:
 1235              		.loc 4 139 0
 1236 01d2 C0B2     		uxtb	r0, r0
 1237              	.LVL146:
 1238              	.LBE87:
 1239              	.LBE86:
ARM GAS  C:\Users\haske\AppData\Local\Temp\ccVRp2Ta.s 			page 50


 464:..\..\..\arduinoLCD\test\Pain Drain\libraries\lvgl\src\extra\layouts\flex/lv_flex.c ****             lv_coord_t s = 0;
 1240              		.loc 2 464 0
 1241 01d4 0028     		cmp	r0, #0
 1242 01d6 0FD1     		bne	.L109
 1243 01d8 59E0     		b	.L111
 1244              	.LVL147:
 1245              	.L82:
 1246              	.LBB88:
 467:..\..\..\arduinoLCD\test\Pain Drain\libraries\lvgl\src\extra\layouts\flex/lv_flex.c ****                     s = t->grow_dsc[i].final_size;
 1247              		.loc 2 467 0
 1248 01da 9300     		lsls	r3, r2, #2
 1249 01dc 9B18     		adds	r3, r3, r2
 1250 01de 9B00     		lsls	r3, r3, #2
 1251 01e0 C868     		ldr	r0, [r1, #12]
 1252 01e2 8446     		mov	ip, r0
 1253 01e4 6344     		add	r3, r3, ip
 1254 01e6 1868     		ldr	r0, [r3]
 1255 01e8 8742     		cmp	r7, r0
 1256 01ea 03D1     		bne	.L80
 1257 01ec 8846     		mov	r8, r1
 468:..\..\..\arduinoLCD\test\Pain Drain\libraries\lvgl\src\extra\layouts\flex/lv_flex.c ****                     break;
 1258              		.loc 2 468 0
 1259 01ee 0825     		movs	r5, #8
 1260 01f0 5D5F     		ldrsh	r5, [r3, r5]
 1261              	.LVL148:
 469:..\..\..\arduinoLCD\test\Pain Drain\libraries\lvgl\src\extra\layouts\flex/lv_flex.c ****                 }
 1262              		.loc 2 469 0
 1263 01f2 08E0     		b	.L81
 1264              	.LVL149:
 1265              	.L80:
 466:..\..\..\arduinoLCD\test\Pain Drain\libraries\lvgl\src\extra\layouts\flex/lv_flex.c ****                 if(t->grow_dsc[i].item == item) {
 1266              		.loc 2 466 0 discriminator 2
 1267 01f4 0132     		adds	r2, r2, #1
 1268              	.LVL150:
 1269 01f6 01E0     		b	.L78
 1270              	.LVL151:
 1271              	.L109:
 1272              	.LBE88:
 1273 01f8 0022     		movs	r2, #0
 1274 01fa 4146     		mov	r1, r8
 1275              	.LVL152:
 1276              	.L78:
 1277              	.LBB92:
 466:..\..\..\arduinoLCD\test\Pain Drain\libraries\lvgl\src\extra\layouts\flex/lv_flex.c ****                 if(t->grow_dsc[i].item == item) {
 1278              		.loc 2 466 0 is_stmt 0 discriminator 1
 1279 01fc 0B69     		ldr	r3, [r1, #16]
 1280 01fe 9A42     		cmp	r2, r3
 1281 0200 EBD3     		bcc	.L82
 1282 0202 8846     		mov	r8, r1
 465:..\..\..\arduinoLCD\test\Pain Drain\libraries\lvgl\src\extra\layouts\flex/lv_flex.c ****             for(i = 0; i < t->grow_item_cnt; i++) {
 1283              		.loc 2 465 0 is_stmt 1
 1284 0204 0025     		movs	r5, #0
 1285              	.L81:
 1286              	.LVL153:
 473:..\..\..\arduinoLCD\test\Pain Drain\libraries\lvgl\src\extra\layouts\flex/lv_flex.c ****                 item->w_layout = 1;
 1287              		.loc 2 473 0
 1288 0206 F378     		ldrb	r3, [r6, #3]
ARM GAS  C:\Users\haske\AppData\Local\Temp\ccVRp2Ta.s 			page 51


 1289 0208 DB07     		lsls	r3, r3, #31
 1290 020a 09D5     		bpl	.L83
 474:..\..\..\arduinoLCD\test\Pain Drain\libraries\lvgl\src\extra\layouts\flex/lv_flex.c ****                 item->h_layout = 0;
 1291              		.loc 2 474 0
 1292 020c 3A00     		movs	r2, r7
 1293              	.LVL154:
 1294 020e 2232     		adds	r2, r2, #34
 1295 0210 5178     		ldrb	r1, [r2, #1]
 1296 0212 0423     		movs	r3, #4
 1297 0214 0B43     		orrs	r3, r1
 475:..\..\..\arduinoLCD\test\Pain Drain\libraries\lvgl\src\extra\layouts\flex/lv_flex.c ****             }
 1298              		.loc 2 475 0
 1299 0216 DBB2     		uxtb	r3, r3
 1300 0218 0221     		movs	r1, #2
 1301 021a 8B43     		bics	r3, r1
 1302 021c 5370     		strb	r3, [r2, #1]
 1303 021e 08E0     		b	.L84
 1304              	.LVL155:
 1305              	.L83:
 478:..\..\..\arduinoLCD\test\Pain Drain\libraries\lvgl\src\extra\layouts\flex/lv_flex.c ****                 item->w_layout = 0;
 1306              		.loc 2 478 0
 1307 0220 3A00     		movs	r2, r7
 1308              	.LVL156:
 1309 0222 2232     		adds	r2, r2, #34
 1310 0224 5178     		ldrb	r1, [r2, #1]
 1311 0226 0223     		movs	r3, #2
 1312 0228 0B43     		orrs	r3, r1
 479:..\..\..\arduinoLCD\test\Pain Drain\libraries\lvgl\src\extra\layouts\flex/lv_flex.c ****             }
 1313              		.loc 2 479 0
 1314 022a DBB2     		uxtb	r3, r3
 1315 022c 0421     		movs	r1, #4
 1316 022e 8B43     		bics	r3, r1
 1317 0230 5370     		strb	r3, [r2, #1]
 1318              	.L84:
 482:..\..\..\arduinoLCD\test\Pain Drain\libraries\lvgl\src\extra\layouts\flex/lv_flex.c ****                 lv_obj_invalidate(item);
 1319              		.loc 2 482 0
 1320 0232 1423     		movs	r3, #20
 1321 0234 9C46     		mov	ip, r3
 1322 0236 BC44     		add	ip, ip, r7
 1323 0238 6346     		mov	r3, ip
 1324 023a 0493     		str	r3, [sp, #16]
 1325 023c 6046     		mov	r0, ip
 1326 023e 039B     		ldr	r3, [sp, #12]
 1327 0240 9847     		blx	r3
 1328              	.LVL157:
 1329 0242 8542     		cmp	r5, r0
 1330 0244 2BD0     		beq	.L85
 1331              	.LBB89:
 483:..\..\..\arduinoLCD\test\Pain Drain\libraries\lvgl\src\extra\layouts\flex/lv_flex.c **** 
 1332              		.loc 2 483 0
 1333 0246 3800     		movs	r0, r7
 1334 0248 FFF7FEFF 		bl	lv_obj_invalidate
 1335              	.LVL158:
 1336              	.LBB90:
 1337              	.LBB91:
 112:c:\projects\paindrain\arduinolcd\test\pain drain\libraries\lvgl\src\misc\lv_area.h ****     dest->y1 = src->y1;
 1338              		.loc 1 112 0
ARM GAS  C:\Users\haske\AppData\Local\Temp\ccVRp2Ta.s 			page 52


 1339 024c 1422     		movs	r2, #20
 1340 024e BB5E     		ldrsh	r3, [r7, r2]
 1341 0250 0FAC     		add	r4, sp, #60
 1342              	.LVL159:
 1343 0252 2380     		strh	r3, [r4]
 113:c:\projects\paindrain\arduinolcd\test\pain drain\libraries\lvgl\src\misc\lv_area.h ****     dest->x2 = src->x2;
 1344              		.loc 1 113 0
 1345 0254 1622     		movs	r2, #22
 1346 0256 BB5E     		ldrsh	r3, [r7, r2]
 1347 0258 6380     		strh	r3, [r4, #2]
 114:c:\projects\paindrain\arduinolcd\test\pain drain\libraries\lvgl\src\misc\lv_area.h ****     dest->y2 = src->y2;
 1348              		.loc 1 114 0
 1349 025a 1822     		movs	r2, #24
 1350 025c BB5E     		ldrsh	r3, [r7, r2]
 1351 025e A380     		strh	r3, [r4, #4]
 115:c:\projects\paindrain\arduinolcd\test\pain drain\libraries\lvgl\src\misc\lv_area.h **** }
 1352              		.loc 1 115 0
 1353 0260 1A22     		movs	r2, #26
 1354 0262 BB5E     		ldrsh	r3, [r7, r2]
 1355 0264 E380     		strh	r3, [r4, #6]
 1356              	.LVL160:
 1357              	.LBE91:
 1358              	.LBE90:
 487:..\..\..\arduinoLCD\test\Pain Drain\libraries\lvgl\src\extra\layouts\flex/lv_flex.c ****                 lv_event_send(item, LV_EVENT_SIZE_CHANGED, &old_coords);
 1359              		.loc 2 487 0
 1360 0266 2900     		movs	r1, r5
 1361 0268 0498     		ldr	r0, [sp, #16]
 1362 026a 079B     		ldr	r3, [sp, #28]
 1363 026c 9847     		blx	r3
 1364              	.LVL161:
 488:..\..\..\arduinoLCD\test\Pain Drain\libraries\lvgl\src\extra\layouts\flex/lv_flex.c ****                 lv_event_send(lv_obj_get_parent(item), LV_EVENT_CHILD_CHANGED, item);
 1365              		.loc 2 488 0
 1366 026e 2200     		movs	r2, r4
 1367 0270 2921     		movs	r1, #41
 1368 0272 3800     		movs	r0, r7
 1369 0274 FFF7FEFF 		bl	lv_event_send
 1370              	.LVL162:
 489:..\..\..\arduinoLCD\test\Pain Drain\libraries\lvgl\src\extra\layouts\flex/lv_flex.c ****                 lv_obj_invalidate(item);
 1371              		.loc 2 489 0
 1372 0278 3800     		movs	r0, r7
 1373 027a FFF7FEFF 		bl	lv_obj_get_parent
 1374              	.LVL163:
 1375 027e 3A00     		movs	r2, r7
 1376 0280 2221     		movs	r1, #34
 1377 0282 FFF7FEFF 		bl	lv_event_send
 1378              	.LVL164:
 490:..\..\..\arduinoLCD\test\Pain Drain\libraries\lvgl\src\extra\layouts\flex/lv_flex.c ****             }
 1379              		.loc 2 490 0
 1380 0286 3800     		movs	r0, r7
 1381 0288 FFF7FEFF 		bl	lv_obj_invalidate
 1382              	.LVL165:
 1383 028c 07E0     		b	.L85
 1384              	.LVL166:
 1385              	.L111:
 1386              	.LBE89:
 1387              	.LBE92:
 494:..\..\..\arduinoLCD\test\Pain Drain\libraries\lvgl\src\extra\layouts\flex/lv_flex.c ****             item->h_layout = 0;
ARM GAS  C:\Users\haske\AppData\Local\Temp\ccVRp2Ta.s 			page 53


 1388              		.loc 2 494 0
 1389 028e 3A00     		movs	r2, r7
 1390 0290 2232     		adds	r2, r2, #34
 1391 0292 5378     		ldrb	r3, [r2, #1]
 495:..\..\..\arduinoLCD\test\Pain Drain\libraries\lvgl\src\extra\layouts\flex/lv_flex.c ****         }
 1392              		.loc 2 495 0
 1393 0294 0421     		movs	r1, #4
 1394 0296 8B43     		bics	r3, r1
 1395 0298 0239     		subs	r1, r1, #2
 1396 029a 8B43     		bics	r3, r1
 1397 029c 5370     		strb	r3, [r2, #1]
 1398              	.LVL167:
 1399              	.L85:
 499:..\..\..\arduinoLCD\test\Pain Drain\libraries\lvgl\src\extra\layouts\flex/lv_flex.c ****             case LV_FLEX_ALIGN_CENTER:
 1400              		.loc 2 499 0
 1401 029e 7378     		ldrb	r3, [r6, #1]
 1402 02a0 012B     		cmp	r3, #1
 1403 02a2 12D0     		beq	.L87
 1404 02a4 022B     		cmp	r3, #2
 1405 02a6 27D1     		bne	.L112
 503:..\..\..\arduinoLCD\test\Pain Drain\libraries\lvgl\src\extra\layouts\flex/lv_flex.c ****                 break;
 1406              		.loc 2 503 0
 1407 02a8 4346     		mov	r3, r8
 1408 02aa 0020     		movs	r0, #0
 1409 02ac 185E     		ldrsh	r0, [r3, r0]
 1410 02ae 0130     		adds	r0, r0, #1
 1411 02b0 0123     		movs	r3, #1
 1412 02b2 9843     		bics	r0, r3
 1413 02b4 0400     		movs	r4, r0
 1414 02b6 3800     		movs	r0, r7
 1415 02b8 1430     		adds	r0, r0, #20
 1416 02ba 059B     		ldr	r3, [sp, #20]
 1417 02bc 9847     		blx	r3
 1418              	.LVL168:
 1419 02be 201A     		subs	r0, r4, r0
 1420 02c0 C40F     		lsrs	r4, r0, #31
 1421 02c2 2418     		adds	r4, r4, r0
 1422 02c4 6410     		asrs	r4, r4, #1
 1423 02c6 24B2     		sxth	r4, r4
 1424              	.LVL169:
 504:..\..\..\arduinoLCD\test\Pain Drain\libraries\lvgl\src\extra\layouts\flex/lv_flex.c ****             case LV_FLEX_ALIGN_END:
 1425              		.loc 2 504 0
 1426 02c8 17E0     		b	.L86
 1427              	.LVL170:
 1428              	.L87:
 506:..\..\..\arduinoLCD\test\Pain Drain\libraries\lvgl\src\extra\layouts\flex/lv_flex.c ****                 break;
 1429              		.loc 2 506 0
 1430 02ca 4346     		mov	r3, r8
 1431 02cc 0024     		movs	r4, #0
 1432 02ce 1C5F     		ldrsh	r4, [r3, r4]
 1433 02d0 3800     		movs	r0, r7
 1434 02d2 1430     		adds	r0, r0, #20
 1435 02d4 059B     		ldr	r3, [sp, #20]
 1436 02d6 9847     		blx	r3
 1437              	.LVL171:
 1438 02d8 241A     		subs	r4, r4, r0
 1439 02da 24B2     		sxth	r4, r4
ARM GAS  C:\Users\haske\AppData\Local\Temp\ccVRp2Ta.s 			page 54


 1440              	.LVL172:
 507:..\..\..\arduinoLCD\test\Pain Drain\libraries\lvgl\src\extra\layouts\flex/lv_flex.c ****             default:
 1441              		.loc 2 507 0
 1442 02dc 0DE0     		b	.L86
 1443              	.L114:
 1444 02de C046     		.align	2
 1445              	.L113:
 1446 02e0 00000000 		.word	lv_area_set_width
 1447 02e4 00000000 		.word	lv_area_set_height
 1448 02e8 00000000 		.word	lv_area_get_width
 1449 02ec 00000000 		.word	lv_area_get_height
 1450 02f0 01000600 		.word	393217
 1451 02f4 00000000 		.word	LV_STYLE_FLEX_GROW
 1452              	.LVL173:
 1453              	.L112:
 498:..\..\..\arduinoLCD\test\Pain Drain\libraries\lvgl\src\extra\layouts\flex/lv_flex.c ****         switch(f->cross_place) {
 1454              		.loc 2 498 0
 1455 02f8 0024     		movs	r4, #0
 1456              	.LVL174:
 1457              	.L86:
 512:..\..\..\arduinoLCD\test\Pain Drain\libraries\lvgl\src\extra\layouts\flex/lv_flex.c **** 
 1458              		.loc 2 512 0
 1459 02fa F378     		ldrb	r3, [r6, #3]
 1460 02fc DB07     		lsls	r3, r3, #31
 1461 02fe 0DD5     		bpl	.L89
 512:..\..\..\arduinoLCD\test\Pain Drain\libraries\lvgl\src\extra\layouts\flex/lv_flex.c **** 
 1462              		.loc 2 512 0 is_stmt 0 discriminator 1
 1463 0300 5346     		mov	r3, r10
 1464 0302 012B     		cmp	r3, #1
 1465 0304 0AD1     		bne	.L89
 512:..\..\..\arduinoLCD\test\Pain Drain\libraries\lvgl\src\extra\layouts\flex/lv_flex.c **** 
 1466              		.loc 2 512 0 discriminator 2
 1467 0306 3800     		movs	r0, r7
 1468 0308 1430     		adds	r0, r0, #20
 1469 030a 039B     		ldr	r3, [sp, #12]
 1470 030c 9847     		blx	r3
 1471              	.LVL175:
 1472 030e 1E22     		movs	r2, #30
 1473 0310 0AAB     		add	r3, sp, #40
 1474 0312 9C46     		mov	ip, r3
 1475 0314 6244     		add	r2, r2, ip
 1476 0316 1388     		ldrh	r3, [r2]
 1477 0318 181A     		subs	r0, r3, r0
 1478 031a 1080     		strh	r0, [r2]
 1479              	.L89:
 1480              	.LVL176:
 1481              	.LBB93:
 1482              	.LBB94:
  69:c:\projects\paindrain\arduinolcd\test\pain drain\libraries\lvgl\src\core\lv_obj_style_gen.h ****     return (lv_coord_t)v.num;
 1483              		.loc 3 69 0 is_stmt 1
 1484 031c 6A22     		movs	r2, #106
 1485 031e 0021     		movs	r1, #0
 1486 0320 3800     		movs	r0, r7
 1487 0322 FFF7FEFF 		bl	lv_obj_get_style_prop
 1488              	.LVL177:
 1489 0326 0500     		movs	r5, r0
 1490              	.LVL178:
ARM GAS  C:\Users\haske\AppData\Local\Temp\ccVRp2Ta.s 			page 55


  70:c:\projects\paindrain\arduinolcd\test\pain drain\libraries\lvgl\src\core\lv_obj_style_gen.h **** }
 1491              		.loc 3 70 0
 1492 0328 03B2     		sxth	r3, r0
 1493 032a 9B46     		mov	fp, r3
 1494              	.LVL179:
 1495              	.LBE94:
 1496              	.LBE93:
 1497              	.LBB95:
 1498              	.LBB96:
  75:c:\projects\paindrain\arduinolcd\test\pain drain\libraries\lvgl\src\core\lv_obj_style_gen.h ****     return (lv_coord_t)v.num;
 1499              		.loc 3 75 0
 1500 032c 6B22     		movs	r2, #107
 1501 032e 0021     		movs	r1, #0
 1502 0330 3800     		movs	r0, r7
 1503 0332 FFF7FEFF 		bl	lv_obj_get_style_prop
 1504              	.LVL180:
 1505 0336 0490     		str	r0, [sp, #16]
  76:c:\projects\paindrain\arduinolcd\test\pain drain\libraries\lvgl\src\core\lv_obj_style_gen.h **** }
 1506              		.loc 3 76 0
 1507 0338 03B2     		sxth	r3, r0
 1508 033a 9946     		mov	r9, r3
 1509              	.LVL181:
 1510              	.LBE96:
 1511              	.LBE95:
 518:..\..\..\arduinoLCD\test\Pain Drain\libraries\lvgl\src\extra\layouts\flex/lv_flex.c ****         lv_coord_t h = lv_obj_get_height(item);
 1512              		.loc 2 518 0
 1513 033c 3800     		movs	r0, r7
 1514 033e FFF7FEFF 		bl	lv_obj_get_width
 1515              	.LVL182:
 1516 0342 0690     		str	r0, [sp, #24]
 1517              	.LVL183:
 519:..\..\..\arduinoLCD\test\Pain Drain\libraries\lvgl\src\extra\layouts\flex/lv_flex.c ****         if(LV_COORD_IS_PCT(tr_x)) tr_x = (w * LV_COORD_GET_PCT(tr_x)) / 100;
 1518              		.loc 2 519 0
 1519 0344 3800     		movs	r0, r7
 1520 0346 FFF7FEFF 		bl	lv_obj_get_height
 1521              	.LVL184:
 1522 034a 0C90     		str	r0, [sp, #48]
 1523              	.LVL185:
 520:..\..\..\arduinoLCD\test\Pain Drain\libraries\lvgl\src\extra\layouts\flex/lv_flex.c ****         if(LV_COORD_IS_PCT(tr_y)) tr_y = (h * LV_COORD_GET_PCT(tr_y)) / 100;
 1524              		.loc 2 520 0
 1525 034c C023     		movs	r3, #192
 1526 034e DB01     		lsls	r3, r3, #7
 1527              	.LVL186:
 1528 0350 1D40     		ands	r5, r3
 1529              	.LVL187:
 1530 0352 8023     		movs	r3, #128
 1531 0354 9B01     		lsls	r3, r3, #6
 1532 0356 9D42     		cmp	r5, r3
 1533 0358 12D1     		bne	.L90
 520:..\..\..\arduinoLCD\test\Pain Drain\libraries\lvgl\src\extra\layouts\flex/lv_flex.c ****         if(LV_COORD_IS_PCT(tr_y)) tr_y = (h * LV_COORD_GET_PCT(tr_y)) / 100;
 1534              		.loc 2 520 0 is_stmt 0 discriminator 1
 1535 035a 564B     		ldr	r3, .L115
 1536 035c 5A46     		mov	r2, fp
 1537 035e 1340     		ands	r3, r2
 1538 0360 FA22     		movs	r2, #250
 1539 0362 D200     		lsls	r2, r2, #3
 1540 0364 9342     		cmp	r3, r2
ARM GAS  C:\Users\haske\AppData\Local\Temp\ccVRp2Ta.s 			page 56


 1541 0366 0BDC     		bgt	.L90
 520:..\..\..\arduinoLCD\test\Pain Drain\libraries\lvgl\src\extra\layouts\flex/lv_flex.c ****         if(LV_COORD_IS_PCT(tr_y)) tr_y = (h * LV_COORD_GET_PCT(tr_y)) / 100;
 1542              		.loc 2 520 0 discriminator 2
 1543 0368 FA22     		movs	r2, #250
 1544 036a 9200     		lsls	r2, r2, #2
 1545 036c 9342     		cmp	r3, r2
 1546 036e 00DD     		ble	.L92
 520:..\..\..\arduinoLCD\test\Pain Drain\libraries\lvgl\src\extra\layouts\flex/lv_flex.c ****         if(LV_COORD_IS_PCT(tr_y)) tr_y = (h * LV_COORD_GET_PCT(tr_y)) / 100;
 1547              		.loc 2 520 0 discriminator 3
 1548 0370 D31A     		subs	r3, r2, r3
 1549              	.L92:
 520:..\..\..\arduinoLCD\test\Pain Drain\libraries\lvgl\src\extra\layouts\flex/lv_flex.c ****         if(LV_COORD_IS_PCT(tr_y)) tr_y = (h * LV_COORD_GET_PCT(tr_y)) / 100;
 1550              		.loc 2 520 0 discriminator 6
 1551 0372 0698     		ldr	r0, [sp, #24]
 1552 0374 5843     		muls	r0, r3
 1553 0376 6421     		movs	r1, #100
 1554 0378 FFF7FEFF 		bl	__aeabi_idiv
 1555              	.LVL188:
 1556 037c 03B2     		sxth	r3, r0
 1557 037e 9B46     		mov	fp, r3
 1558              	.LVL189:
 1559              	.L90:
 521:..\..\..\arduinoLCD\test\Pain Drain\libraries\lvgl\src\extra\layouts\flex/lv_flex.c **** 
 1560              		.loc 2 521 0 is_stmt 1
 1561 0380 C023     		movs	r3, #192
 1562 0382 DB01     		lsls	r3, r3, #7
 1563 0384 049A     		ldr	r2, [sp, #16]
 1564 0386 1A40     		ands	r2, r3
 1565 0388 1300     		movs	r3, r2
 1566 038a 8022     		movs	r2, #128
 1567 038c 9201     		lsls	r2, r2, #6
 1568 038e 9342     		cmp	r3, r2
 1569 0390 12D1     		bne	.L93
 521:..\..\..\arduinoLCD\test\Pain Drain\libraries\lvgl\src\extra\layouts\flex/lv_flex.c **** 
 1570              		.loc 2 521 0 is_stmt 0 discriminator 1
 1571 0392 484B     		ldr	r3, .L115
 1572 0394 4A46     		mov	r2, r9
 1573 0396 1340     		ands	r3, r2
 1574 0398 FA22     		movs	r2, #250
 1575 039a D200     		lsls	r2, r2, #3
 1576 039c 9342     		cmp	r3, r2
 1577 039e 0BDC     		bgt	.L93
 521:..\..\..\arduinoLCD\test\Pain Drain\libraries\lvgl\src\extra\layouts\flex/lv_flex.c **** 
 1578              		.loc 2 521 0 discriminator 2
 1579 03a0 FA22     		movs	r2, #250
 1580 03a2 9200     		lsls	r2, r2, #2
 1581 03a4 9342     		cmp	r3, r2
 1582 03a6 00DD     		ble	.L95
 521:..\..\..\arduinoLCD\test\Pain Drain\libraries\lvgl\src\extra\layouts\flex/lv_flex.c **** 
 1583              		.loc 2 521 0 discriminator 3
 1584 03a8 D31A     		subs	r3, r2, r3
 1585              	.L95:
 521:..\..\..\arduinoLCD\test\Pain Drain\libraries\lvgl\src\extra\layouts\flex/lv_flex.c **** 
 1586              		.loc 2 521 0 discriminator 6
 1587 03aa 0C98     		ldr	r0, [sp, #48]
 1588 03ac 5843     		muls	r0, r3
 1589 03ae 6421     		movs	r1, #100
ARM GAS  C:\Users\haske\AppData\Local\Temp\ccVRp2Ta.s 			page 57


 1590 03b0 FFF7FEFF 		bl	__aeabi_idiv
 1591              	.LVL190:
 1592 03b4 03B2     		sxth	r3, r0
 1593 03b6 9946     		mov	r9, r3
 1594              	.LVL191:
 1595              	.L93:
 523:..\..\..\arduinoLCD\test\Pain Drain\libraries\lvgl\src\extra\layouts\flex/lv_flex.c ****         lv_coord_t diff_y = abs_y - item->coords.y1 + tr_y;
 1596              		.loc 2 523 0 is_stmt 1
 1597 03b8 1423     		movs	r3, #20
 1598 03ba F85E     		ldrsh	r0, [r7, r3]
 1599 03bc 0A9B     		ldr	r3, [sp, #40]
 1600 03be 181A     		subs	r0, r3, r0
 1601 03c0 5844     		add	r0, r0, fp
 1602 03c2 81B2     		uxth	r1, r0
 1603              	.LVL192:
 524:..\..\..\arduinoLCD\test\Pain Drain\libraries\lvgl\src\extra\layouts\flex/lv_flex.c ****         diff_x += f->row ? main_pos : cross_pos;
 1604              		.loc 2 524 0
 1605 03c4 1623     		movs	r3, #22
 1606 03c6 F85E     		ldrsh	r0, [r7, r3]
 1607 03c8 0B9B     		ldr	r3, [sp, #44]
 1608 03ca 181A     		subs	r0, r3, r0
 1609 03cc 4844     		add	r0, r0, r9
 1610 03ce 82B2     		uxth	r2, r0
 1611              	.LVL193:
 525:..\..\..\arduinoLCD\test\Pain Drain\libraries\lvgl\src\extra\layouts\flex/lv_flex.c ****         diff_y += f->row ? cross_pos : main_pos;
 1612              		.loc 2 525 0
 1613 03d0 F378     		ldrb	r3, [r6, #3]
 1614 03d2 0120     		movs	r0, #1
 1615 03d4 0340     		ands	r3, r0
 1616 03d6 05D0     		beq	.L96
 525:..\..\..\arduinoLCD\test\Pain Drain\libraries\lvgl\src\extra\layouts\flex/lv_flex.c ****         diff_y += f->row ? cross_pos : main_pos;
 1617              		.loc 2 525 0 is_stmt 0 discriminator 1
 1618 03d8 1D30     		adds	r0, r0, #29
 1619 03da 0AAD     		add	r5, sp, #40
 1620 03dc AC46     		mov	ip, r5
 1621 03de 6044     		add	r0, r0, ip
 1622 03e0 0588     		ldrh	r5, [r0]
 1623 03e2 00E0     		b	.L97
 1624              	.L96:
 525:..\..\..\arduinoLCD\test\Pain Drain\libraries\lvgl\src\extra\layouts\flex/lv_flex.c ****         diff_y += f->row ? cross_pos : main_pos;
 1625              		.loc 2 525 0 discriminator 2
 1626 03e4 A5B2     		uxth	r5, r4
 1627              	.L97:
 525:..\..\..\arduinoLCD\test\Pain Drain\libraries\lvgl\src\extra\layouts\flex/lv_flex.c ****         diff_y += f->row ? cross_pos : main_pos;
 1628              		.loc 2 525 0 discriminator 4
 1629 03e6 6D18     		adds	r5, r5, r1
 1630 03e8 ADB2     		uxth	r5, r5
 1631 03ea 29B2     		sxth	r1, r5
 1632              	.LVL194:
 1633 03ec 8B46     		mov	fp, r1
 1634              	.LVL195:
 526:..\..\..\arduinoLCD\test\Pain Drain\libraries\lvgl\src\extra\layouts\flex/lv_flex.c **** 
 1635              		.loc 2 526 0 is_stmt 1 discriminator 4
 1636 03ee 002B     		cmp	r3, #0
 1637 03f0 01D0     		beq	.L98
 526:..\..\..\arduinoLCD\test\Pain Drain\libraries\lvgl\src\extra\layouts\flex/lv_flex.c **** 
 1638              		.loc 2 526 0 is_stmt 0 discriminator 1
ARM GAS  C:\Users\haske\AppData\Local\Temp\ccVRp2Ta.s 			page 58


 1639 03f2 A4B2     		uxth	r4, r4
 1640 03f4 04E0     		b	.L99
 1641              	.L98:
 526:..\..\..\arduinoLCD\test\Pain Drain\libraries\lvgl\src\extra\layouts\flex/lv_flex.c **** 
 1642              		.loc 2 526 0 discriminator 2
 1643 03f6 1E23     		movs	r3, #30
 1644 03f8 0AA9     		add	r1, sp, #40
 1645 03fa 8C46     		mov	ip, r1
 1646 03fc 6344     		add	r3, r3, ip
 1647 03fe 1C88     		ldrh	r4, [r3]
 1648              	.LVL196:
 1649              	.L99:
 526:..\..\..\arduinoLCD\test\Pain Drain\libraries\lvgl\src\extra\layouts\flex/lv_flex.c **** 
 1650              		.loc 2 526 0 discriminator 4
 1651 0400 A418     		adds	r4, r4, r2
 1652 0402 A4B2     		uxth	r4, r4
 1653 0404 23B2     		sxth	r3, r4
 1654 0406 9946     		mov	r9, r3
 1655              	.LVL197:
 528:..\..\..\arduinoLCD\test\Pain Drain\libraries\lvgl\src\extra\layouts\flex/lv_flex.c ****             lv_obj_invalidate(item);
 1656              		.loc 2 528 0 is_stmt 1 discriminator 4
 1657 0408 5B46     		mov	r3, fp
 1658 040a 4A46     		mov	r2, r9
 1659 040c 1343     		orrs	r3, r2
 1660 040e 17D0     		beq	.L100
 529:..\..\..\arduinoLCD\test\Pain Drain\libraries\lvgl\src\extra\layouts\flex/lv_flex.c ****             item->coords.x1 += diff_x;
 1661              		.loc 2 529 0
 1662 0410 3800     		movs	r0, r7
 1663 0412 FFF7FEFF 		bl	lv_obj_invalidate
 1664              	.LVL198:
 530:..\..\..\arduinoLCD\test\Pain Drain\libraries\lvgl\src\extra\layouts\flex/lv_flex.c ****             item->coords.x2 += diff_x;
 1665              		.loc 2 530 0
 1666 0416 BB8A     		ldrh	r3, [r7, #20]
 1667 0418 EB18     		adds	r3, r5, r3
 1668 041a BB82     		strh	r3, [r7, #20]
 531:..\..\..\arduinoLCD\test\Pain Drain\libraries\lvgl\src\extra\layouts\flex/lv_flex.c ****             item->coords.y1 += diff_y;
 1669              		.loc 2 531 0
 1670 041c 3B8B     		ldrh	r3, [r7, #24]
 1671 041e ED18     		adds	r5, r5, r3
 1672 0420 3D83     		strh	r5, [r7, #24]
 532:..\..\..\arduinoLCD\test\Pain Drain\libraries\lvgl\src\extra\layouts\flex/lv_flex.c ****             item->coords.y2 += diff_y;
 1673              		.loc 2 532 0
 1674 0422 FB8A     		ldrh	r3, [r7, #22]
 1675 0424 E318     		adds	r3, r4, r3
 1676 0426 FB82     		strh	r3, [r7, #22]
 533:..\..\..\arduinoLCD\test\Pain Drain\libraries\lvgl\src\extra\layouts\flex/lv_flex.c ****             lv_obj_invalidate(item);
 1677              		.loc 2 533 0
 1678 0428 7B8B     		ldrh	r3, [r7, #26]
 1679 042a E418     		adds	r4, r4, r3
 1680 042c 7C83     		strh	r4, [r7, #26]
 534:..\..\..\arduinoLCD\test\Pain Drain\libraries\lvgl\src\extra\layouts\flex/lv_flex.c ****             lv_obj_move_children_by(item, diff_x, diff_y, false);
 1681              		.loc 2 534 0
 1682 042e 3800     		movs	r0, r7
 1683 0430 FFF7FEFF 		bl	lv_obj_invalidate
 1684              	.LVL199:
 535:..\..\..\arduinoLCD\test\Pain Drain\libraries\lvgl\src\extra\layouts\flex/lv_flex.c ****         }
 1685              		.loc 2 535 0
ARM GAS  C:\Users\haske\AppData\Local\Temp\ccVRp2Ta.s 			page 59


 1686 0434 0023     		movs	r3, #0
 1687 0436 4A46     		mov	r2, r9
 1688 0438 5946     		mov	r1, fp
 1689 043a 3800     		movs	r0, r7
 1690 043c FFF7FEFF 		bl	lv_obj_move_children_by
 1691              	.LVL200:
 1692              	.L100:
 538:..\..\..\arduinoLCD\test\Pain Drain\libraries\lvgl\src\extra\layouts\flex/lv_flex.c ****         else main_pos -= item_gap + place_gap;
 1693              		.loc 2 538 0
 1694 0440 F378     		ldrb	r3, [r6, #3]
 1695 0442 DB07     		lsls	r3, r3, #31
 1696 0444 02D5     		bpl	.L101
 538:..\..\..\arduinoLCD\test\Pain Drain\libraries\lvgl\src\extra\layouts\flex/lv_flex.c ****         else main_pos -= item_gap + place_gap;
 1697              		.loc 2 538 0 is_stmt 0 discriminator 2
 1698 0446 5346     		mov	r3, r10
 1699 0448 012B     		cmp	r3, #1
 1700 044a 12D0     		beq	.L102
 1701              	.L101:
 538:..\..\..\arduinoLCD\test\Pain Drain\libraries\lvgl\src\extra\layouts\flex/lv_flex.c ****         else main_pos -= item_gap + place_gap;
 1702              		.loc 2 538 0 discriminator 3
 1703 044c 3800     		movs	r0, r7
 1704 044e 1430     		adds	r0, r0, #20
 1705 0450 039B     		ldr	r3, [sp, #12]
 1706 0452 9847     		blx	r3
 1707              	.LVL201:
 1708 0454 089B     		ldr	r3, [sp, #32]
 1709 0456 9C46     		mov	ip, r3
 1710 0458 6044     		add	r0, r0, ip
 1711 045a 11AB     		add	r3, sp, #68
 1712 045c 0022     		movs	r2, #0
 1713 045e 9B5E     		ldrsh	r3, [r3, r2]
 1714 0460 1B18     		adds	r3, r3, r0
 1715 0462 1E22     		movs	r2, #30
 1716 0464 0AA9     		add	r1, sp, #40
 1717 0466 8C46     		mov	ip, r1
 1718 0468 6244     		add	r2, r2, ip
 1719 046a 1188     		ldrh	r1, [r2]
 1720 046c CB18     		adds	r3, r1, r3
 1721 046e 1380     		strh	r3, [r2]
 1722 0470 0AE0     		b	.L103
 1723              	.L102:
 539:..\..\..\arduinoLCD\test\Pain Drain\libraries\lvgl\src\extra\layouts\flex/lv_flex.c **** 
 1724              		.loc 2 539 0 is_stmt 1
 1725 0472 1E21     		movs	r1, #30
 1726 0474 0AAB     		add	r3, sp, #40
 1727 0476 9C46     		mov	ip, r3
 1728 0478 6144     		add	r1, r1, ip
 1729 047a 11AB     		add	r3, sp, #68
 1730 047c 1B88     		ldrh	r3, [r3]
 1731 047e 089A     		ldr	r2, [sp, #32]
 1732 0480 9A18     		adds	r2, r3, r2
 1733 0482 0B88     		ldrh	r3, [r1]
 1734 0484 9B1A     		subs	r3, r3, r2
 1735 0486 0B80     		strh	r3, [r1]
 1736              	.L103:
 541:..\..\..\arduinoLCD\test\Pain Drain\libraries\lvgl\src\extra\layouts\flex/lv_flex.c ****     }
 1737              		.loc 2 541 0
ARM GAS  C:\Users\haske\AppData\Local\Temp\ccVRp2Ta.s 			page 60


 1738 0488 F178     		ldrb	r1, [r6, #3]
 1739 048a 4907     		lsls	r1, r1, #29
 1740 048c C90F     		lsrs	r1, r1, #31
 1741 048e 0DAA     		add	r2, sp, #52
 1742              	.LVL202:
 1743 0490 0298     		ldr	r0, [sp, #8]
 1744 0492 FFF7FEFF 		bl	get_next_item
 1745              	.LVL203:
 1746 0496 0700     		movs	r7, r0
 1747              	.LVL204:
 1748              	.L75:
 1749              	.LBE85:
 458:..\..\..\arduinoLCD\test\Pain Drain\libraries\lvgl\src\extra\layouts\flex/lv_flex.c ****         if(lv_obj_has_flag_any(item, LV_OBJ_FLAG_IGNORE_LAYOUT | LV_OBJ_FLAG_HIDDEN | LV_OBJ_FLAG_F
 1750              		.loc 2 458 0
 1751 0498 002F     		cmp	r7, #0
 1752 049a 04D0     		beq	.L56
 458:..\..\..\arduinoLCD\test\Pain Drain\libraries\lvgl\src\extra\layouts\flex/lv_flex.c ****         if(lv_obj_has_flag_any(item, LV_OBJ_FLAG_IGNORE_LAYOUT | LV_OBJ_FLAG_HIDDEN | LV_OBJ_FLAG_F
 1753              		.loc 2 458 0 is_stmt 0 discriminator 1
 1754 049c 0D9B     		ldr	r3, [sp, #52]
 1755 049e 099A     		ldr	r2, [sp, #36]
 1756 04a0 9342     		cmp	r3, r2
 1757 04a2 00D0     		beq	.LCB1923
 1758 04a4 80E6     		b	.L105	@long jump
 1759              	.LCB1923:
 1760              	.L56:
 543:..\..\..\arduinoLCD\test\Pain Drain\libraries\lvgl\src\extra\layouts\flex/lv_flex.c **** 
 1761              		.loc 2 543 0 is_stmt 1
 1762 04a6 13B0     		add	sp, sp, #76
 1763              		@ sp needed
 1764              	.LVL205:
 1765              	.LVL206:
 1766 04a8 3CBC     		pop	{r2, r3, r4, r5}
 1767 04aa 9046     		mov	r8, r2
 1768 04ac 9946     		mov	r9, r3
 1769 04ae A246     		mov	r10, r4
 1770 04b0 AB46     		mov	fp, r5
 1771 04b2 F0BD     		pop	{r4, r5, r6, r7, pc}
 1772              	.L116:
 1773              		.align	2
 1774              	.L115:
 1775 04b4 FF9FFFFF 		.word	-24577
 1776              		.cfi_endproc
 1777              	.LFE191:
 1778              		.size	children_repos, .-children_repos
 1779              		.section	.text.flex_update,"ax",%progbits
 1780              		.align	2
 1781              		.code	16
 1782              		.thumb_func
 1783              		.type	flex_update, %function
 1784              	flex_update:
 1785              	.LFB189:
 210:..\..\..\arduinoLCD\test\Pain Drain\libraries\lvgl\src\extra\layouts\flex/lv_flex.c ****     LV_LOG_INFO("update %p container", (void *)cont);
 1786              		.loc 2 210 0
 1787              		.cfi_startproc
 1788              		@ args = 0, pretend = 0, frame = 56
 1789              		@ frame_needed = 0, uses_anonymous_args = 0
 1790              	.LVL207:
ARM GAS  C:\Users\haske\AppData\Local\Temp\ccVRp2Ta.s 			page 61


 1791 0000 F0B5     		push	{r4, r5, r6, r7, lr}
 1792              		.cfi_def_cfa_offset 20
 1793              		.cfi_offset 4, -20
 1794              		.cfi_offset 5, -16
 1795              		.cfi_offset 6, -12
 1796              		.cfi_offset 7, -8
 1797              		.cfi_offset 14, -4
 1798 0002 5F46     		mov	r7, fp
 1799 0004 5646     		mov	r6, r10
 1800 0006 4D46     		mov	r5, r9
 1801 0008 4446     		mov	r4, r8
 1802 000a F0B4     		push	{r4, r5, r6, r7}
 1803              		.cfi_def_cfa_offset 36
 1804              		.cfi_offset 8, -36
 1805              		.cfi_offset 9, -32
 1806              		.cfi_offset 10, -28
 1807              		.cfi_offset 11, -24
 1808 000c 95B0     		sub	sp, sp, #84
 1809              		.cfi_def_cfa_offset 120
 1810 000e 0400     		movs	r4, r0
 1811              	.LVL208:
 1812              	.LBB97:
 1813              	.LBB98:
 114:..\..\..\arduinoLCD\test\Pain Drain\libraries\lvgl\src\extra\layouts\flex\../flex/lv_flex.h ****     return (lv_flex_flow_t)v.num;
 1814              		.loc 4 114 0
 1815 0010 D04B     		ldr	r3, .L156
 1816 0012 1A88     		ldrh	r2, [r3]
 1817 0014 0021     		movs	r1, #0
 1818              	.LVL209:
 1819 0016 FFF7FEFF 		bl	lv_obj_get_style_prop
 1820              	.LVL210:
 1821              	.LBE98:
 1822              	.LBE97:
 216:..\..\..\arduinoLCD\test\Pain Drain\libraries\lvgl\src\extra\layouts\flex/lv_flex.c ****     f.wrap = flow & _LV_FLEX_WRAP ? 1 : 0;
 1823              		.loc 2 216 0
 1824 001a 0122     		movs	r2, #1
 1825 001c 1700     		movs	r7, r2
 1826              	.LVL211:
 1827 001e 0740     		ands	r7, r0
 1828 0020 3B00     		movs	r3, r7
 1829 0022 5F42     		rsbs	r7, r3, #0
 1830 0024 5F41     		adcs	r7, r7, r3
 1831 0026 13AD     		add	r5, sp, #76
 1832 0028 0126     		movs	r6, #1
 1833 002a 3740     		ands	r7, r6
 1834 002c EB78     		ldrb	r3, [r5, #3]
 1835 002e 9343     		bics	r3, r2
 1836 0030 9C46     		mov	ip, r3
 217:..\..\..\arduinoLCD\test\Pain Drain\libraries\lvgl\src\extra\layouts\flex/lv_flex.c ****     f.rev = flow & _LV_FLEX_REVERSE ? 1 : 0;
 1837              		.loc 2 217 0
 1838 0032 0332     		adds	r2, r2, #3
 1839 0034 1300     		movs	r3, r2
 1840 0036 0340     		ands	r3, r0
 1841 0038 591E     		subs	r1, r3, #1
 1842 003a 8B41     		sbcs	r3, r3, r1
 1843 003c DBB2     		uxtb	r3, r3
 1844 003e 3340     		ands	r3, r6
ARM GAS  C:\Users\haske\AppData\Local\Temp\ccVRp2Ta.s 			page 62


 1845 0040 5900     		lsls	r1, r3, #1
 1846 0042 6346     		mov	r3, ip
 1847 0044 3B43     		orrs	r3, r7
 1848 0046 0227     		movs	r7, #2
 1849 0048 BB43     		bics	r3, r7
 1850 004a 1F00     		movs	r7, r3
 218:..\..\..\arduinoLCD\test\Pain Drain\libraries\lvgl\src\extra\layouts\flex/lv_flex.c ****     f.main_place = lv_obj_get_style_flex_main_place(cont, LV_PART_MAIN);
 1851              		.loc 2 218 0
 1852 004c 0823     		movs	r3, #8
 1853 004e 1840     		ands	r0, r3
 1854              	.LVL212:
 1855 0050 431E     		subs	r3, r0, #1
 1856 0052 9841     		sbcs	r0, r0, r3
 1857 0054 C3B2     		uxtb	r3, r0
 1858 0056 3340     		ands	r3, r6
 1859 0058 9800     		lsls	r0, r3, #2
 1860 005a 3B00     		movs	r3, r7
 1861 005c 0B43     		orrs	r3, r1
 1862 005e 9343     		bics	r3, r2
 1863 0060 0343     		orrs	r3, r0
 1864 0062 EB70     		strb	r3, [r5, #3]
 1865              	.LVL213:
 1866              	.LBB99:
 1867              	.LBB100:
 120:..\..\..\arduinoLCD\test\Pain Drain\libraries\lvgl\src\extra\layouts\flex\../flex/lv_flex.h ****     return (lv_flex_align_t)v.num;
 1868              		.loc 4 120 0
 1869 0064 BC4B     		ldr	r3, .L156+4
 1870 0066 1A88     		ldrh	r2, [r3]
 1871 0068 0021     		movs	r1, #0
 1872 006a 2000     		movs	r0, r4
 1873 006c FFF7FEFF 		bl	lv_obj_get_style_prop
 1874              	.LVL214:
 1875              	.LBE100:
 1876              	.LBE99:
 219:..\..\..\arduinoLCD\test\Pain Drain\libraries\lvgl\src\extra\layouts\flex/lv_flex.c ****     f.cross_place = lv_obj_get_style_flex_cross_place(cont, LV_PART_MAIN);
 1877              		.loc 2 219 0
 1878 0070 2870     		strb	r0, [r5]
 1879              	.LVL215:
 1880              	.LBB101:
 1881              	.LBB102:
 126:..\..\..\arduinoLCD\test\Pain Drain\libraries\lvgl\src\extra\layouts\flex\../flex/lv_flex.h ****     return (lv_flex_align_t)v.num;
 1882              		.loc 4 126 0
 1883 0072 BA4B     		ldr	r3, .L156+8
 1884 0074 1A88     		ldrh	r2, [r3]
 1885 0076 0021     		movs	r1, #0
 1886 0078 2000     		movs	r0, r4
 1887 007a FFF7FEFF 		bl	lv_obj_get_style_prop
 1888              	.LVL216:
 1889              	.LBE102:
 1890              	.LBE101:
 220:..\..\..\arduinoLCD\test\Pain Drain\libraries\lvgl\src\extra\layouts\flex/lv_flex.c ****     f.track_place = lv_obj_get_style_flex_track_place(cont, LV_PART_MAIN);
 1891              		.loc 2 220 0
 1892 007e 6870     		strb	r0, [r5, #1]
 1893              	.LVL217:
 1894              	.LBB103:
 1895              	.LBB104:
 132:..\..\..\arduinoLCD\test\Pain Drain\libraries\lvgl\src\extra\layouts\flex\../flex/lv_flex.h ****     return (lv_flex_align_t)v.num;
ARM GAS  C:\Users\haske\AppData\Local\Temp\ccVRp2Ta.s 			page 63


 1896              		.loc 4 132 0
 1897 0080 B74B     		ldr	r3, .L156+12
 1898 0082 1A88     		ldrh	r2, [r3]
 1899 0084 0021     		movs	r1, #0
 1900 0086 2000     		movs	r0, r4
 1901 0088 FFF7FEFF 		bl	lv_obj_get_style_prop
 1902              	.LVL218:
 1903              	.LBE104:
 1904              	.LBE103:
 221:..\..\..\arduinoLCD\test\Pain Drain\libraries\lvgl\src\extra\layouts\flex/lv_flex.c **** 
 1905              		.loc 2 221 0
 1906 008c A870     		strb	r0, [r5, #2]
 1907              	.LVL219:
 1908              	.LBB105:
 1909              	.LBB106:
 561:c:\projects\paindrain\arduinolcd\test\pain drain\libraries\lvgl\src\core\lv_obj_style_gen.h ****     return (lv_base_dir_t)v.num;
 1910              		.loc 3 561 0
 1911 008e 1622     		movs	r2, #22
 1912 0090 0021     		movs	r1, #0
 1913 0092 2000     		movs	r0, r4
 1914 0094 FFF7FEFF 		bl	lv_obj_get_style_prop
 1915              	.LVL220:
 1916              		.loc 3 562 0
 1917 0098 C3B2     		uxtb	r3, r0
 1918 009a 9846     		mov	r8, r3
 1919              	.LVL221:
 1920              	.LBE106:
 1921              	.LBE105:
 224:..\..\..\arduinoLCD\test\Pain Drain\libraries\lvgl\src\extra\layouts\flex/lv_flex.c ****                                                                                                    
 1922              		.loc 2 224 0
 1923 009c EB78     		ldrb	r3, [r5, #3]
 1924 009e 1E42     		tst	r6, r3
 1925 00a0 07D1     		bne	.L118
 1926              	.LVL222:
 1927              	.LBB107:
 1928              	.LBB108:
 135:c:\projects\paindrain\arduinolcd\test\pain drain\libraries\lvgl\src\core\lv_obj_style_gen.h ****     return (lv_coord_t)v.num;
 1929              		.loc 3 135 0
 1930 00a2 1522     		movs	r2, #21
 1931 00a4 0021     		movs	r1, #0
 1932 00a6 2000     		movs	r0, r4
 1933 00a8 FFF7FEFF 		bl	lv_obj_get_style_prop
 1934              	.LVL223:
 136:c:\projects\paindrain\arduinolcd\test\pain drain\libraries\lvgl\src\core\lv_obj_style_gen.h **** }
 1935              		.loc 3 136 0
 1936 00ac 03B2     		sxth	r3, r0
 1937 00ae 9946     		mov	r9, r3
 1938              	.LVL224:
 1939              	.LBE108:
 1940              	.LBE107:
 1941 00b0 06E0     		b	.L119
 1942              	.L118:
 1943              	.LVL225:
 1944              	.LBB109:
 1945              	.LBB110:
 129:c:\projects\paindrain\arduinolcd\test\pain drain\libraries\lvgl\src\core\lv_obj_style_gen.h ****     return (lv_coord_t)v.num;
 1946              		.loc 3 129 0
ARM GAS  C:\Users\haske\AppData\Local\Temp\ccVRp2Ta.s 			page 64


 1947 00b2 1422     		movs	r2, #20
 1948 00b4 0021     		movs	r1, #0
 1949 00b6 2000     		movs	r0, r4
 1950 00b8 FFF7FEFF 		bl	lv_obj_get_style_prop
 1951              	.LVL226:
 130:c:\projects\paindrain\arduinolcd\test\pain drain\libraries\lvgl\src\core\lv_obj_style_gen.h **** }
 1952              		.loc 3 130 0
 1953 00bc 03B2     		sxth	r3, r0
 1954 00be 9946     		mov	r9, r3
 1955              	.LVL227:
 1956              	.L119:
 1957              	.LBE110:
 1958              	.LBE109:
 226:..\..\..\arduinoLCD\test\Pain Drain\libraries\lvgl\src\extra\layouts\flex/lv_flex.c ****                                                                                                    
 1959              		.loc 2 226 0 discriminator 4
 1960 00c0 13AB     		add	r3, sp, #76
 1961 00c2 DB78     		ldrb	r3, [r3, #3]
 1962 00c4 DB07     		lsls	r3, r3, #31
 1963 00c6 06D5     		bpl	.L120
 1964              	.LVL228:
 1965              	.LBB111:
 1966              	.LBB112:
 135:c:\projects\paindrain\arduinolcd\test\pain drain\libraries\lvgl\src\core\lv_obj_style_gen.h ****     return (lv_coord_t)v.num;
 1967              		.loc 3 135 0
 1968 00c8 1522     		movs	r2, #21
 1969 00ca 0021     		movs	r1, #0
 1970 00cc 2000     		movs	r0, r4
 1971 00ce FFF7FEFF 		bl	lv_obj_get_style_prop
 1972              	.LVL229:
 136:c:\projects\paindrain\arduinolcd\test\pain drain\libraries\lvgl\src\core\lv_obj_style_gen.h **** }
 1973              		.loc 3 136 0
 1974 00d2 07B2     		sxth	r7, r0
 1975              	.LVL230:
 1976              	.LBE112:
 1977              	.LBE111:
 1978 00d4 05E0     		b	.L121
 1979              	.L120:
 1980              	.LVL231:
 1981              	.LBB113:
 1982              	.LBB114:
 129:c:\projects\paindrain\arduinolcd\test\pain drain\libraries\lvgl\src\core\lv_obj_style_gen.h ****     return (lv_coord_t)v.num;
 1983              		.loc 3 129 0
 1984 00d6 1422     		movs	r2, #20
 1985 00d8 0021     		movs	r1, #0
 1986 00da 2000     		movs	r0, r4
 1987 00dc FFF7FEFF 		bl	lv_obj_get_style_prop
 1988              	.LVL232:
 130:c:\projects\paindrain\arduinolcd\test\pain drain\libraries\lvgl\src\core\lv_obj_style_gen.h **** }
 1989              		.loc 3 130 0
 1990 00e0 07B2     		sxth	r7, r0
 1991              	.LVL233:
 1992              	.L121:
 1993              	.LBE114:
 1994              	.LBE113:
 228:..\..\..\arduinoLCD\test\Pain Drain\libraries\lvgl\src\extra\layouts\flex/lv_flex.c ****     lv_coord_t border_width = lv_obj_get_style_border_width(cont, LV_PART_MAIN);
 1995              		.loc 2 228 0 discriminator 4
 1996 00e2 13AB     		add	r3, sp, #76
ARM GAS  C:\Users\haske\AppData\Local\Temp\ccVRp2Ta.s 			page 65


 1997 00e4 DB78     		ldrb	r3, [r3, #3]
 1998 00e6 DB07     		lsls	r3, r3, #31
 1999 00e8 04D5     		bpl	.L122
 228:..\..\..\arduinoLCD\test\Pain Drain\libraries\lvgl\src\extra\layouts\flex/lv_flex.c ****     lv_coord_t border_width = lv_obj_get_style_border_width(cont, LV_PART_MAIN);
 2000              		.loc 2 228 0 is_stmt 0 discriminator 1
 2001 00ea 2000     		movs	r0, r4
 2002 00ec FFF7FEFF 		bl	lv_obj_get_content_width
 2003              	.LVL234:
 2004 00f0 0790     		str	r0, [sp, #28]
 2005 00f2 03E0     		b	.L123
 2006              	.L122:
 228:..\..\..\arduinoLCD\test\Pain Drain\libraries\lvgl\src\extra\layouts\flex/lv_flex.c ****     lv_coord_t border_width = lv_obj_get_style_border_width(cont, LV_PART_MAIN);
 2007              		.loc 2 228 0 discriminator 2
 2008 00f4 2000     		movs	r0, r4
 2009 00f6 FFF7FEFF 		bl	lv_obj_get_content_height
 2010              	.LVL235:
 2011 00fa 0790     		str	r0, [sp, #28]
 2012              	.L123:
 2013              	.LVL236:
 2014              	.LBB115:
 2015              	.LBB116:
 255:c:\projects\paindrain\arduinolcd\test\pain drain\libraries\lvgl\src\core\lv_obj_style_gen.h ****     return (lv_coord_t)v.num;
 2016              		.loc 3 255 0 is_stmt 1 discriminator 4
 2017 00fc 3222     		movs	r2, #50
 2018 00fe 0021     		movs	r1, #0
 2019 0100 2000     		movs	r0, r4
 2020 0102 FFF7FEFF 		bl	lv_obj_get_style_prop
 2021              	.LVL237:
 2022 0106 0500     		movs	r5, r0
 2023              	.LVL238:
 2024              	.LBE116:
 2025              	.LBE115:
 230:..\..\..\arduinoLCD\test\Pain Drain\libraries\lvgl\src\extra\layouts\flex/lv_flex.c ****                                                                   LV_PART_MAIN) + border_width - lv
 2026              		.loc 2 230 0 discriminator 4
 2027 0108 1623     		movs	r3, #22
 2028 010a E65E     		ldrsh	r6, [r4, r3]
 2029              	.LVL239:
 2030              	.LBB117:
 2031              	.LBB118:
 105:c:\projects\paindrain\arduinolcd\test\pain drain\libraries\lvgl\src\core\lv_obj_style_gen.h ****     return (lv_coord_t)v.num;
 2032              		.loc 3 105 0 discriminator 4
 2033 010c 1022     		movs	r2, #16
 2034 010e 0021     		movs	r1, #0
 2035 0110 2000     		movs	r0, r4
 2036 0112 FFF7FEFF 		bl	lv_obj_get_style_prop
 2037              	.LVL240:
 2038              	.LBE118:
 2039              	.LBE117:
 230:..\..\..\arduinoLCD\test\Pain Drain\libraries\lvgl\src\extra\layouts\flex/lv_flex.c ****                                                                   LV_PART_MAIN) + border_width - lv
 2040              		.loc 2 230 0 discriminator 4
 2041 0116 ADB2     		uxth	r5, r5
 2042              	.LVL241:
 2043 0118 3018     		adds	r0, r6, r0
 2044              	.LVL242:
 2045 011a 2818     		adds	r0, r5, r0
 2046 011c 86B2     		uxth	r6, r0
 231:..\..\..\arduinoLCD\test\Pain Drain\libraries\lvgl\src\extra\layouts\flex/lv_flex.c ****     lv_coord_t abs_x = cont->coords.x1 + lv_obj_get_style_pad_left(cont,
ARM GAS  C:\Users\haske\AppData\Local\Temp\ccVRp2Ta.s 			page 66


 2047              		.loc 2 231 0 discriminator 4
 2048 011e 2000     		movs	r0, r4
 2049 0120 FFF7FEFF 		bl	lv_obj_get_scroll_y
 2050              	.LVL243:
 230:..\..\..\arduinoLCD\test\Pain Drain\libraries\lvgl\src\extra\layouts\flex/lv_flex.c ****                                                                   LV_PART_MAIN) + border_width - lv
 2051              		.loc 2 230 0 discriminator 4
 2052 0124 361A     		subs	r6, r6, r0
 2053 0126 3A23     		movs	r3, #58
 2054 0128 04AA     		add	r2, sp, #16
 2055 012a 9446     		mov	ip, r2
 2056 012c 6344     		add	r3, r3, ip
 2057 012e 1E80     		strh	r6, [r3]
 232:..\..\..\arduinoLCD\test\Pain Drain\libraries\lvgl\src\extra\layouts\flex/lv_flex.c ****                                                                    LV_PART_MAIN) + border_width - l
 2058              		.loc 2 232 0 discriminator 4
 2059 0130 1423     		movs	r3, #20
 2060 0132 E65E     		ldrsh	r6, [r4, r3]
 2061              	.LVL244:
 2062              	.LBB119:
 2063              	.LBB120:
 117:c:\projects\paindrain\arduinolcd\test\pain drain\libraries\lvgl\src\core\lv_obj_style_gen.h ****     return (lv_coord_t)v.num;
 2064              		.loc 3 117 0 discriminator 4
 2065 0134 1222     		movs	r2, #18
 2066 0136 0021     		movs	r1, #0
 2067 0138 2000     		movs	r0, r4
 2068 013a FFF7FEFF 		bl	lv_obj_get_style_prop
 2069              	.LVL245:
 2070              	.LBE120:
 2071              	.LBE119:
 232:..\..\..\arduinoLCD\test\Pain Drain\libraries\lvgl\src\extra\layouts\flex/lv_flex.c ****                                                                    LV_PART_MAIN) + border_width - l
 2072              		.loc 2 232 0 discriminator 4
 2073 013e 3018     		adds	r0, r6, r0
 2074              	.LVL246:
 2075 0140 2D18     		adds	r5, r5, r0
 2076 0142 ADB2     		uxth	r5, r5
 233:..\..\..\arduinoLCD\test\Pain Drain\libraries\lvgl\src\extra\layouts\flex/lv_flex.c **** 
 2077              		.loc 2 233 0 discriminator 4
 2078 0144 2000     		movs	r0, r4
 2079 0146 FFF7FEFF 		bl	lv_obj_get_scroll_x
 2080              	.LVL247:
 232:..\..\..\arduinoLCD\test\Pain Drain\libraries\lvgl\src\extra\layouts\flex/lv_flex.c ****                                                                    LV_PART_MAIN) + border_width - l
 2081              		.loc 2 232 0 discriminator 4
 2082 014a 2D1A     		subs	r5, r5, r0
 2083 014c 12AB     		add	r3, sp, #72
 2084 014e 1D80     		strh	r5, [r3]
 235:..\..\..\arduinoLCD\test\Pain Drain\libraries\lvgl\src\extra\layouts\flex/lv_flex.c ****     lv_coord_t * cross_pos = (f.row ? &abs_y : &abs_x);
 2085              		.loc 2 235 0 discriminator 4
 2086 0150 13AB     		add	r3, sp, #76
 2087 0152 9A78     		ldrb	r2, [r3, #2]
 2088 0154 0692     		str	r2, [sp, #24]
 2089              	.LVL248:
 236:..\..\..\arduinoLCD\test\Pain Drain\libraries\lvgl\src\extra\layouts\flex/lv_flex.c **** 
 2090              		.loc 2 236 0 discriminator 4
 2091 0156 DB78     		ldrb	r3, [r3, #3]
 2092 0158 DB07     		lsls	r3, r3, #31
 2093 015a 05D5     		bpl	.L146
 236:..\..\..\arduinoLCD\test\Pain Drain\libraries\lvgl\src\extra\layouts\flex/lv_flex.c **** 
 2094              		.loc 2 236 0 is_stmt 0
ARM GAS  C:\Users\haske\AppData\Local\Temp\ccVRp2Ta.s 			page 67


 2095 015c 3A23     		movs	r3, #58
 2096 015e 04AA     		add	r2, sp, #16
 2097 0160 9446     		mov	ip, r2
 2098 0162 6344     		add	r3, r3, ip
 2099 0164 9A46     		mov	r10, r3
 2100 0166 01E0     		b	.L124
 2101              	.L146:
 2102 0168 12AB     		add	r3, sp, #72
 2103 016a 9A46     		mov	r10, r3
 2104              	.L124:
 2105              	.LVL249:
 2106              	.LBB121:
 2107              	.LBB122:
   3:c:\projects\paindrain\arduinolcd\test\pain drain\libraries\lvgl\src\core\lv_obj_style_gen.h ****     return (lv_coord_t)v.num;
 2108              		.loc 3 3 0 is_stmt 1 discriminator 4
 2109 016c 0122     		movs	r2, #1
 2110 016e 0021     		movs	r1, #0
 2111 0170 2000     		movs	r0, r4
 2112 0172 FFF7FEFF 		bl	lv_obj_get_style_prop
 2113              	.LVL250:
   4:c:\projects\paindrain\arduinolcd\test\pain drain\libraries\lvgl\src\core\lv_obj_style_gen.h **** }
 2114              		.loc 3 4 0 discriminator 4
 2115 0176 03B2     		sxth	r3, r0
 2116 0178 0893     		str	r3, [sp, #32]
 2117              	.LVL251:
 2118              	.LBE122:
 2119              	.LBE121:
 2120              	.LBB123:
 2121              	.LBB124:
  21:c:\projects\paindrain\arduinolcd\test\pain drain\libraries\lvgl\src\core\lv_obj_style_gen.h ****     return (lv_coord_t)v.num;
 2122              		.loc 3 21 0 discriminator 4
 2123 017a 0422     		movs	r2, #4
 2124 017c 0021     		movs	r1, #0
 2125 017e 2000     		movs	r0, r4
 2126 0180 FFF7FEFF 		bl	lv_obj_get_style_prop
 2127              	.LVL252:
  22:c:\projects\paindrain\arduinolcd\test\pain drain\libraries\lvgl\src\core\lv_obj_style_gen.h **** }
 2128              		.loc 3 22 0 discriminator 4
 2129 0184 03B2     		sxth	r3, r0
 2130 0186 1800     		movs	r0, r3
 2131 0188 0993     		str	r3, [sp, #36]
 2132              	.LVL253:
 2133              	.LBE124:
 2134              	.LBE123:
 242:..\..\..\arduinoLCD\test\Pain Drain\libraries\lvgl\src\extra\layouts\flex/lv_flex.c ****        (!f.row && w_set == LV_SIZE_CONTENT && cont->w_layout == 0)) {
 2135              		.loc 2 242 0 discriminator 4
 2136 018a 13AB     		add	r3, sp, #76
 2137 018c D978     		ldrb	r1, [r3, #3]
 2138 018e 0123     		movs	r3, #1
 2139 0190 0B40     		ands	r3, r1
 2140 0192 06D0     		beq	.L125
 242:..\..\..\arduinoLCD\test\Pain Drain\libraries\lvgl\src\extra\layouts\flex/lv_flex.c ****        (!f.row && w_set == LV_SIZE_CONTENT && cont->w_layout == 0)) {
 2141              		.loc 2 242 0 is_stmt 0 discriminator 1
 2142 0194 734A     		ldr	r2, .L156+16
 2143 0196 9042     		cmp	r0, r2
 2144 0198 03D1     		bne	.L125
 242:..\..\..\arduinoLCD\test\Pain Drain\libraries\lvgl\src\extra\layouts\flex/lv_flex.c ****        (!f.row && w_set == LV_SIZE_CONTENT && cont->w_layout == 0)) {
ARM GAS  C:\Users\haske\AppData\Local\Temp\ccVRp2Ta.s 			page 68


 2145              		.loc 2 242 0 discriminator 3
 2146 019a 2322     		movs	r2, #35
 2147 019c A25C     		ldrb	r2, [r4, r2]
 2148 019e 9207     		lsls	r2, r2, #30
 2149 01a0 0AD5     		bpl	.L147
 2150              	.L125:
 242:..\..\..\arduinoLCD\test\Pain Drain\libraries\lvgl\src\extra\layouts\flex/lv_flex.c ****        (!f.row && w_set == LV_SIZE_CONTENT && cont->w_layout == 0)) {
 2151              		.loc 2 242 0 discriminator 5
 2152 01a2 002B     		cmp	r3, #0
 2153 01a4 0DD1     		bne	.L126
 243:..\..\..\arduinoLCD\test\Pain Drain\libraries\lvgl\src\extra\layouts\flex/lv_flex.c ****         track_cross_place = LV_FLEX_ALIGN_START;
 2154              		.loc 2 243 0 is_stmt 1
 2155 01a6 6F4A     		ldr	r2, .L156+16
 2156 01a8 0898     		ldr	r0, [sp, #32]
 2157 01aa 9042     		cmp	r0, r2
 2158 01ac 09D1     		bne	.L126
 243:..\..\..\arduinoLCD\test\Pain Drain\libraries\lvgl\src\extra\layouts\flex/lv_flex.c ****         track_cross_place = LV_FLEX_ALIGN_START;
 2159              		.loc 2 243 0 is_stmt 0 discriminator 1
 2160 01ae 2322     		movs	r2, #35
 2161 01b0 A25C     		ldrb	r2, [r4, r2]
 2162 01b2 5207     		lsls	r2, r2, #29
 2163 01b4 03D5     		bpl	.L148
 2164 01b6 04E0     		b	.L126
 2165              	.L147:
 244:..\..\..\arduinoLCD\test\Pain Drain\libraries\lvgl\src\extra\layouts\flex/lv_flex.c ****     }
 2166              		.loc 2 244 0 is_stmt 1
 2167 01b8 0022     		movs	r2, #0
 2168 01ba 0692     		str	r2, [sp, #24]
 2169              	.LVL254:
 2170 01bc 01E0     		b	.L126
 2171              	.LVL255:
 2172              	.L148:
 2173 01be 0022     		movs	r2, #0
 2174 01c0 0692     		str	r2, [sp, #24]
 2175              	.LVL256:
 2176              	.L126:
 247:..\..\..\arduinoLCD\test\Pain Drain\libraries\lvgl\src\extra\layouts\flex/lv_flex.c ****         if(track_cross_place == LV_FLEX_ALIGN_START) track_cross_place = LV_FLEX_ALIGN_END;
 2177              		.loc 2 247 0
 2178 01c2 4246     		mov	r2, r8
 2179 01c4 012A     		cmp	r2, #1
 2180 01c6 0CD1     		bne	.L127
 247:..\..\..\arduinoLCD\test\Pain Drain\libraries\lvgl\src\extra\layouts\flex/lv_flex.c ****         if(track_cross_place == LV_FLEX_ALIGN_START) track_cross_place = LV_FLEX_ALIGN_END;
 2181              		.loc 2 247 0 is_stmt 0 discriminator 1
 2182 01c8 002B     		cmp	r3, #0
 2183 01ca 0AD1     		bne	.L127
 248:..\..\..\arduinoLCD\test\Pain Drain\libraries\lvgl\src\extra\layouts\flex/lv_flex.c ****         else if(track_cross_place == LV_FLEX_ALIGN_END) track_cross_place = LV_FLEX_ALIGN_START;
 2184              		.loc 2 248 0 is_stmt 1
 2185 01cc 069B     		ldr	r3, [sp, #24]
 2186 01ce 002B     		cmp	r3, #0
 2187 01d0 02D0     		beq	.L149
 249:..\..\..\arduinoLCD\test\Pain Drain\libraries\lvgl\src\extra\layouts\flex/lv_flex.c ****     }
 2188              		.loc 2 249 0
 2189 01d2 012B     		cmp	r3, #1
 2190 01d4 05D1     		bne	.L127
 2191 01d6 02E0     		b	.L150
 2192              	.L149:
 248:..\..\..\arduinoLCD\test\Pain Drain\libraries\lvgl\src\extra\layouts\flex/lv_flex.c ****         else if(track_cross_place == LV_FLEX_ALIGN_END) track_cross_place = LV_FLEX_ALIGN_START;
ARM GAS  C:\Users\haske\AppData\Local\Temp\ccVRp2Ta.s 			page 69


 2193              		.loc 2 248 0
 2194 01d8 0123     		movs	r3, #1
 2195 01da 0693     		str	r3, [sp, #24]
 2196              	.LVL257:
 2197 01dc 01E0     		b	.L127
 2198              	.LVL258:
 2199              	.L150:
 249:..\..\..\arduinoLCD\test\Pain Drain\libraries\lvgl\src\extra\layouts\flex/lv_flex.c ****     }
 2200              		.loc 2 249 0
 2201 01de 0023     		movs	r3, #0
 2202 01e0 0693     		str	r3, [sp, #24]
 2203              	.LVL259:
 2204              	.L127:
 253:..\..\..\arduinoLCD\test\Pain Drain\libraries\lvgl\src\extra\layouts\flex/lv_flex.c ****     uint32_t track_cnt = 0;
 2205              		.loc 2 253 0
 2206 01e2 0022     		movs	r2, #0
 2207 01e4 3623     		movs	r3, #54
 2208 01e6 04A8     		add	r0, sp, #16
 2209 01e8 8446     		mov	ip, r0
 2210 01ea 6344     		add	r3, r3, ip
 2211 01ec 1A80     		strh	r2, [r3]
 2212              	.LVL260:
 258:..\..\..\arduinoLCD\test\Pain Drain\libraries\lvgl\src\extra\layouts\flex/lv_flex.c ****         track_first_item = f.rev ? cont->spec_attr->child_cnt - 1 : 0;
 2213              		.loc 2 258 0
 2214 01ee 069B     		ldr	r3, [sp, #24]
 2215 01f0 002B     		cmp	r3, #0
 2216 01f2 4BD0     		beq	.L151
 2217              	.LBB125:
 259:..\..\..\arduinoLCD\test\Pain Drain\libraries\lvgl\src\extra\layouts\flex/lv_flex.c ****         track_t t;
 2218              		.loc 2 259 0
 2219 01f4 4B07     		lsls	r3, r1, #29
 2220 01f6 03D5     		bpl	.L152
 259:..\..\..\arduinoLCD\test\Pain Drain\libraries\lvgl\src\extra\layouts\flex/lv_flex.c ****         track_t t;
 2221              		.loc 2 259 0 is_stmt 0 discriminator 1
 2222 01f8 A368     		ldr	r3, [r4, #8]
 2223 01fa 5A68     		ldr	r2, [r3, #4]
 2224 01fc 013A     		subs	r2, r2, #1
 2225 01fe 00E0     		b	.L129
 2226              	.L152:
 259:..\..\..\arduinoLCD\test\Pain Drain\libraries\lvgl\src\extra\layouts\flex/lv_flex.c ****         track_t t;
 2227              		.loc 2 259 0
 2228 0200 0022     		movs	r2, #0
 2229              	.L129:
 2230 0202 0023     		movs	r3, #0
 2231 0204 9B46     		mov	fp, r3
 2232 0206 0026     		movs	r6, #0
 2233 0208 3B00     		movs	r3, r7
 2234 020a 5F46     		mov	r7, fp
 2235              	.LVL261:
 2236 020c 9B46     		mov	fp, r3
 2237 020e 13E0     		b	.L130
 2238              	.LVL262:
 2239              	.L132:
 263:..\..\..\arduinoLCD\test\Pain Drain\libraries\lvgl\src\extra\layouts\flex/lv_flex.c ****             next_track_first_item = find_track_end(cont, &f, track_first_item, max_main_size, item_
 2240              		.loc 2 263 0 is_stmt 1
 2241 0210 0BAD     		add	r5, sp, #44
 2242 0212 2B7D     		ldrb	r3, [r5, #20]
ARM GAS  C:\Users\haske\AppData\Local\Temp\ccVRp2Ta.s 			page 70


 2243 0214 0121     		movs	r1, #1
 2244 0216 8B43     		bics	r3, r1
 2245 0218 2B75     		strb	r3, [r5, #20]
 264:..\..\..\arduinoLCD\test\Pain Drain\libraries\lvgl\src\extra\layouts\flex/lv_flex.c ****             total_track_cross_size += t.track_cross_size + track_gap;
 2246              		.loc 2 264 0
 2247 021a 0195     		str	r5, [sp, #4]
 2248 021c 5B46     		mov	r3, fp
 2249 021e 0093     		str	r3, [sp]
 2250 0220 079B     		ldr	r3, [sp, #28]
 2251 0222 13A9     		add	r1, sp, #76
 2252 0224 2000     		movs	r0, r4
 2253 0226 FFF7FEFF 		bl	find_track_end
 2254              	.LVL263:
 2255 022a 0200     		movs	r2, r0
 2256              	.LVL264:
 265:..\..\..\arduinoLCD\test\Pain Drain\libraries\lvgl\src\extra\layouts\flex/lv_flex.c ****             track_cnt++;
 2257              		.loc 2 265 0
 2258 022c 0021     		movs	r1, #0
 2259 022e 6B5E     		ldrsh	r3, [r5, r1]
 2260 0230 4B44     		add	r3, r3, r9
 2261 0232 9E19     		adds	r6, r3, r6
 2262              	.LVL265:
 2263 0234 36B2     		sxth	r6, r6
 2264              	.LVL266:
 266:..\..\..\arduinoLCD\test\Pain Drain\libraries\lvgl\src\extra\layouts\flex/lv_flex.c ****             track_first_item = next_track_first_item;
 2265              		.loc 2 266 0
 2266 0236 0137     		adds	r7, r7, #1
 2267              	.LVL267:
 2268              	.L130:
 261:..\..\..\arduinoLCD\test\Pain Drain\libraries\lvgl\src\extra\layouts\flex/lv_flex.c ****             /*Search the first item of the next row*/
 2269              		.loc 2 261 0
 2270 0238 A368     		ldr	r3, [r4, #8]
 2271 023a 5B68     		ldr	r3, [r3, #4]
 2272 023c 9A42     		cmp	r2, r3
 2273 023e 01DA     		bge	.L131
 261:..\..\..\arduinoLCD\test\Pain Drain\libraries\lvgl\src\extra\layouts\flex/lv_flex.c ****             /*Search the first item of the next row*/
 2274              		.loc 2 261 0 is_stmt 0 discriminator 1
 2275 0240 002A     		cmp	r2, #0
 2276 0242 E5DA     		bge	.L132
 2277              	.L131:
 2278 0244 5B46     		mov	r3, fp
 2279 0246 BB46     		mov	fp, r7
 2280 0248 1F00     		movs	r7, r3
 2281              	.LVL268:
 270:..\..\..\arduinoLCD\test\Pain Drain\libraries\lvgl\src\extra\layouts\flex/lv_flex.c **** 
 2282              		.loc 2 270 0 is_stmt 1
 2283 024a 5B46     		mov	r3, fp
 2284 024c 002B     		cmp	r3, #0
 2285 024e 02D0     		beq	.L133
 2286              	.LVL269:
 270:..\..\..\arduinoLCD\test\Pain Drain\libraries\lvgl\src\extra\layouts\flex/lv_flex.c **** 
 2287              		.loc 2 270 0 is_stmt 0 discriminator 1
 2288 0250 4B46     		mov	r3, r9
 2289              	.LVL270:
 2290 0252 F61A     		subs	r6, r6, r3
 2291              	.LVL271:
 2292 0254 36B2     		sxth	r6, r6
ARM GAS  C:\Users\haske\AppData\Local\Temp\ccVRp2Ta.s 			page 71


 2293              	.LVL272:
 2294              	.L133:
 273:..\..\..\arduinoLCD\test\Pain Drain\libraries\lvgl\src\extra\layouts\flex/lv_flex.c ****         place_content(track_cross_place, max_cross_size, total_track_cross_size, track_cnt, cross_p
 2295              		.loc 2 273 0 is_stmt 1
 2296 0256 13AB     		add	r3, sp, #76
 2297 0258 DB78     		ldrb	r3, [r3, #3]
 2298 025a DB07     		lsls	r3, r3, #31
 2299 025c 04D5     		bpl	.L134
 273:..\..\..\arduinoLCD\test\Pain Drain\libraries\lvgl\src\extra\layouts\flex/lv_flex.c ****         place_content(track_cross_place, max_cross_size, total_track_cross_size, track_cnt, cross_p
 2300              		.loc 2 273 0 is_stmt 0 discriminator 1
 2301 025e 2000     		movs	r0, r4
 2302 0260 FFF7FEFF 		bl	lv_obj_get_content_height
 2303              	.LVL273:
 2304 0264 0100     		movs	r1, r0
 2305 0266 03E0     		b	.L135
 2306              	.LVL274:
 2307              	.L134:
 273:..\..\..\arduinoLCD\test\Pain Drain\libraries\lvgl\src\extra\layouts\flex/lv_flex.c ****         place_content(track_cross_place, max_cross_size, total_track_cross_size, track_cnt, cross_p
 2308              		.loc 2 273 0 discriminator 2
 2309 0268 2000     		movs	r0, r4
 2310 026a FFF7FEFF 		bl	lv_obj_get_content_width
 2311              	.LVL275:
 2312 026e 0100     		movs	r1, r0
 2313              	.L135:
 2314              	.LVL276:
 274:..\..\..\arduinoLCD\test\Pain Drain\libraries\lvgl\src\extra\layouts\flex/lv_flex.c ****     }
 2315              		.loc 2 274 0 is_stmt 1 discriminator 4
 2316 0270 5B46     		mov	r3, fp
 2317 0272 1BB2     		sxth	r3, r3
 2318 0274 3622     		movs	r2, #54
 2319 0276 04A8     		add	r0, sp, #16
 2320 0278 8446     		mov	ip, r0
 2321 027a 6244     		add	r2, r2, ip
 2322 027c 0192     		str	r2, [sp, #4]
 2323 027e 5246     		mov	r2, r10
 2324 0280 0092     		str	r2, [sp]
 2325 0282 3200     		movs	r2, r6
 2326 0284 0698     		ldr	r0, [sp, #24]
 2327 0286 FFF7FEFF 		bl	place_content
 2328              	.LVL277:
 2329 028a 00E0     		b	.L128
 2330              	.LVL278:
 2331              	.L151:
 2332              	.LBE125:
 252:..\..\..\arduinoLCD\test\Pain Drain\libraries\lvgl\src\extra\layouts\flex/lv_flex.c ****     lv_coord_t gap = 0;
 2333              		.loc 2 252 0
 2334 028c 0026     		movs	r6, #0
 2335              	.LVL279:
 2336              	.L128:
 277:..\..\..\arduinoLCD\test\Pain Drain\libraries\lvgl\src\extra\layouts\flex/lv_flex.c **** 
 2337              		.loc 2 277 0
 2338 028e 13AB     		add	r3, sp, #76
 2339 0290 DB78     		ldrb	r3, [r3, #3]
 2340 0292 5A07     		lsls	r2, r3, #29
 2341 0294 03D5     		bpl	.L153
 277:..\..\..\arduinoLCD\test\Pain Drain\libraries\lvgl\src\extra\layouts\flex/lv_flex.c **** 
 2342              		.loc 2 277 0 is_stmt 0 discriminator 1
ARM GAS  C:\Users\haske\AppData\Local\Temp\ccVRp2Ta.s 			page 72


 2343 0296 A268     		ldr	r2, [r4, #8]
 2344 0298 5568     		ldr	r5, [r2, #4]
 2345 029a 013D     		subs	r5, r5, #1
 2346 029c 00E0     		b	.L136
 2347              	.L153:
 277:..\..\..\arduinoLCD\test\Pain Drain\libraries\lvgl\src\extra\layouts\flex/lv_flex.c **** 
 2348              		.loc 2 277 0
 2349 029e 0025     		movs	r5, #0
 2350              	.L136:
 2351              	.LVL280:
 279:..\..\..\arduinoLCD\test\Pain Drain\libraries\lvgl\src\extra\layouts\flex/lv_flex.c ****         *cross_pos += total_track_cross_size;
 2352              		.loc 2 279 0 is_stmt 1 discriminator 4
 2353 02a0 4246     		mov	r2, r8
 2354 02a2 012A     		cmp	r2, #1
 2355 02a4 71D1     		bne	.L154
 279:..\..\..\arduinoLCD\test\Pain Drain\libraries\lvgl\src\extra\layouts\flex/lv_flex.c ****         *cross_pos += total_track_cross_size;
 2356              		.loc 2 279 0 is_stmt 0 discriminator 1
 2357 02a6 DB07     		lsls	r3, r3, #31
 2358 02a8 72D4     		bmi	.L155
 280:..\..\..\arduinoLCD\test\Pain Drain\libraries\lvgl\src\extra\layouts\flex/lv_flex.c ****     }
 2359              		.loc 2 280 0 is_stmt 1
 2360 02aa 5346     		mov	r3, r10
 2361 02ac 1B88     		ldrh	r3, [r3]
 2362 02ae 9E19     		adds	r6, r3, r6
 2363              	.LVL281:
 2364 02b0 5346     		mov	r3, r10
 2365 02b2 1E80     		strh	r6, [r3]
 2366 02b4 BB46     		mov	fp, r7
 2367 02b6 4F46     		mov	r7, r9
 2368 02b8 6CE0     		b	.L138
 2369              	.LVL282:
 2370              	.L143:
 2371              	.LBB126:
 285:..\..\..\arduinoLCD\test\Pain Drain\libraries\lvgl\src\extra\layouts\flex/lv_flex.c ****         /*Search the first item of the next row*/
 2372              		.loc 2 285 0
 2373 02ba 0BAB     		add	r3, sp, #44
 2374 02bc 197D     		ldrb	r1, [r3, #20]
 2375 02be 0122     		movs	r2, #1
 2376 02c0 0A43     		orrs	r2, r1
 2377 02c2 1A75     		strb	r2, [r3, #20]
 287:..\..\..\arduinoLCD\test\Pain Drain\libraries\lvgl\src\extra\layouts\flex/lv_flex.c **** 
 2378              		.loc 2 287 0
 2379 02c4 0193     		str	r3, [sp, #4]
 2380 02c6 5B46     		mov	r3, fp
 2381 02c8 0093     		str	r3, [sp]
 2382 02ca 079B     		ldr	r3, [sp, #28]
 2383 02cc 2A00     		movs	r2, r5
 2384 02ce 13A9     		add	r1, sp, #76
 2385 02d0 2000     		movs	r0, r4
 2386 02d2 FFF7FEFF 		bl	find_track_end
 2387              	.LVL283:
 2388 02d6 0690     		str	r0, [sp, #24]
 2389              	.LVL284:
 289:..\..\..\arduinoLCD\test\Pain Drain\libraries\lvgl\src\extra\layouts\flex/lv_flex.c ****             *cross_pos -= t.track_cross_size;
 2390              		.loc 2 289 0
 2391 02d8 4346     		mov	r3, r8
 2392 02da 012B     		cmp	r3, #1
ARM GAS  C:\Users\haske\AppData\Local\Temp\ccVRp2Ta.s 			page 73


 2393 02dc 0BD1     		bne	.L139
 289:..\..\..\arduinoLCD\test\Pain Drain\libraries\lvgl\src\extra\layouts\flex/lv_flex.c ****             *cross_pos -= t.track_cross_size;
 2394              		.loc 2 289 0 is_stmt 0 discriminator 1
 2395 02de 13AB     		add	r3, sp, #76
 2396 02e0 DB78     		ldrb	r3, [r3, #3]
 2397 02e2 DB07     		lsls	r3, r3, #31
 2398 02e4 07D4     		bmi	.L139
 290:..\..\..\arduinoLCD\test\Pain Drain\libraries\lvgl\src\extra\layouts\flex/lv_flex.c ****         }
 2399              		.loc 2 290 0 is_stmt 1
 2400 02e6 0BAB     		add	r3, sp, #44
 2401 02e8 0022     		movs	r2, #0
 2402 02ea 9A5E     		ldrsh	r2, [r3, r2]
 2403 02ec 5346     		mov	r3, r10
 2404 02ee 1B88     		ldrh	r3, [r3]
 2405 02f0 9B1A     		subs	r3, r3, r2
 2406 02f2 5246     		mov	r2, r10
 2407 02f4 1380     		strh	r3, [r2]
 2408              	.L139:
 292:..\..\..\arduinoLCD\test\Pain Drain\libraries\lvgl\src\extra\layouts\flex/lv_flex.c ****         track_first_item = next_track_first_item;
 2409              		.loc 2 292 0
 2410 02f6 0BAE     		add	r6, sp, #44
 2411 02f8 0496     		str	r6, [sp, #16]
 2412 02fa 5B46     		mov	r3, fp
 2413 02fc 0393     		str	r3, [sp, #12]
 2414 02fe 079B     		ldr	r3, [sp, #28]
 2415 0300 0293     		str	r3, [sp, #8]
 2416 0302 3A23     		movs	r3, #58
 2417 0304 04AA     		add	r2, sp, #16
 2418 0306 9446     		mov	ip, r2
 2419 0308 6344     		add	r3, r3, ip
 2420 030a 0022     		movs	r2, #0
 2421 030c 9B5E     		ldrsh	r3, [r3, r2]
 2422 030e 0193     		str	r3, [sp, #4]
 2423 0310 12AB     		add	r3, sp, #72
 2424 0312 0022     		movs	r2, #0
 2425 0314 9B5E     		ldrsh	r3, [r3, r2]
 2426 0316 0093     		str	r3, [sp]
 2427 0318 069B     		ldr	r3, [sp, #24]
 2428 031a 2A00     		movs	r2, r5
 2429 031c 13A9     		add	r1, sp, #76
 2430 031e 2000     		movs	r0, r4
 2431              	.LVL285:
 2432 0320 FFF7FEFF 		bl	children_repos
 2433              	.LVL286:
 294:..\..\..\arduinoLCD\test\Pain Drain\libraries\lvgl\src\extra\layouts\flex/lv_flex.c ****         t.grow_dsc = NULL;
 2434              		.loc 2 294 0
 2435 0324 F068     		ldr	r0, [r6, #12]
 2436 0326 FFF7FEFF 		bl	lv_mem_buf_release
 2437              	.LVL287:
 295:..\..\..\arduinoLCD\test\Pain Drain\libraries\lvgl\src\extra\layouts\flex/lv_flex.c ****         if(rtl && !f.row) {
 2438              		.loc 2 295 0
 2439 032a 0023     		movs	r3, #0
 2440 032c F360     		str	r3, [r6, #12]
 296:..\..\..\arduinoLCD\test\Pain Drain\libraries\lvgl\src\extra\layouts\flex/lv_flex.c ****             *cross_pos -= gap + track_gap;
 2441              		.loc 2 296 0
 2442 032e 4346     		mov	r3, r8
 2443 0330 012B     		cmp	r3, #1
ARM GAS  C:\Users\haske\AppData\Local\Temp\ccVRp2Ta.s 			page 74


 2444 0332 19D1     		bne	.L140
 296:..\..\..\arduinoLCD\test\Pain Drain\libraries\lvgl\src\extra\layouts\flex/lv_flex.c ****             *cross_pos -= gap + track_gap;
 2445              		.loc 2 296 0 is_stmt 0 discriminator 1
 2446 0334 13AB     		add	r3, sp, #76
 2447 0336 DB78     		ldrb	r3, [r3, #3]
 2448 0338 DB07     		lsls	r3, r3, #31
 2449 033a 15D4     		bmi	.L140
 297:..\..\..\arduinoLCD\test\Pain Drain\libraries\lvgl\src\extra\layouts\flex/lv_flex.c ****         }
 2450              		.loc 2 297 0 is_stmt 1
 2451 033c 3623     		movs	r3, #54
 2452 033e 04AA     		add	r2, sp, #16
 2453 0340 9446     		mov	ip, r2
 2454 0342 6344     		add	r3, r3, ip
 2455 0344 1B88     		ldrh	r3, [r3]
 2456 0346 DB19     		adds	r3, r3, r7
 2457 0348 5246     		mov	r2, r10
 2458 034a 1288     		ldrh	r2, [r2]
 2459 034c D31A     		subs	r3, r2, r3
 2460 034e 5246     		mov	r2, r10
 2461 0350 1380     		strh	r3, [r2]
 2462 0352 18E0     		b	.L141
 2463              	.L157:
 2464              		.align	2
 2465              	.L156:
 2466 0354 00000000 		.word	LV_STYLE_FLEX_FLOW
 2467 0358 00000000 		.word	LV_STYLE_FLEX_MAIN_PLACE
 2468 035c 00000000 		.word	LV_STYLE_FLEX_CROSS_PLACE
 2469 0360 00000000 		.word	LV_STYLE_FLEX_TRACK_PLACE
 2470 0364 D1270000 		.word	10193
 2471              	.L140:
 300:..\..\..\arduinoLCD\test\Pain Drain\libraries\lvgl\src\extra\layouts\flex/lv_flex.c ****         }
 2472              		.loc 2 300 0
 2473 0368 0BAB     		add	r3, sp, #44
 2474 036a 0022     		movs	r2, #0
 2475 036c 9B5E     		ldrsh	r3, [r3, r2]
 2476 036e 3622     		movs	r2, #54
 2477 0370 04A9     		add	r1, sp, #16
 2478 0372 8C46     		mov	ip, r1
 2479 0374 6244     		add	r2, r2, ip
 2480 0376 1288     		ldrh	r2, [r2]
 2481 0378 D318     		adds	r3, r2, r3
 2482 037a DB19     		adds	r3, r3, r7
 2483 037c 5246     		mov	r2, r10
 2484 037e 1288     		ldrh	r2, [r2]
 2485 0380 9B18     		adds	r3, r3, r2
 2486 0382 5246     		mov	r2, r10
 2487 0384 1380     		strh	r3, [r2]
 2488              	.LVL288:
 2489              	.L141:
 293:..\..\..\arduinoLCD\test\Pain Drain\libraries\lvgl\src\extra\layouts\flex/lv_flex.c ****         lv_mem_buf_release(t.grow_dsc);
 2490              		.loc 2 293 0
 2491 0386 069D     		ldr	r5, [sp, #24]
 2492 0388 04E0     		b	.L138
 2493              	.LVL289:
 2494              	.L154:
 2495 038a BB46     		mov	fp, r7
 2496 038c 4F46     		mov	r7, r9
ARM GAS  C:\Users\haske\AppData\Local\Temp\ccVRp2Ta.s 			page 75


 2497 038e 01E0     		b	.L138
 2498              	.L155:
 2499 0390 BB46     		mov	fp, r7
 2500 0392 4F46     		mov	r7, r9
 2501              	.LVL290:
 2502              	.L138:
 2503              	.LBE126:
 283:..\..\..\arduinoLCD\test\Pain Drain\libraries\lvgl\src\extra\layouts\flex/lv_flex.c ****         track_t t;
 2504              		.loc 2 283 0
 2505 0394 A368     		ldr	r3, [r4, #8]
 2506 0396 5B68     		ldr	r3, [r3, #4]
 2507 0398 9D42     		cmp	r5, r3
 2508 039a 01DA     		bge	.L142
 283:..\..\..\arduinoLCD\test\Pain Drain\libraries\lvgl\src\extra\layouts\flex/lv_flex.c ****         track_t t;
 2509              		.loc 2 283 0 is_stmt 0 discriminator 1
 2510 039c 002D     		cmp	r5, #0
 2511 039e 8CDA     		bge	.L143
 2512              	.L142:
 305:..\..\..\arduinoLCD\test\Pain Drain\libraries\lvgl\src\extra\layouts\flex/lv_flex.c ****         lv_obj_refr_size(cont);
 2513              		.loc 2 305 0 is_stmt 1
 2514 03a0 0A4B     		ldr	r3, .L158
 2515 03a2 089A     		ldr	r2, [sp, #32]
 2516 03a4 9A42     		cmp	r2, r3
 2517 03a6 02D0     		beq	.L144
 305:..\..\..\arduinoLCD\test\Pain Drain\libraries\lvgl\src\extra\layouts\flex/lv_flex.c ****         lv_obj_refr_size(cont);
 2518              		.loc 2 305 0 is_stmt 0 discriminator 1
 2519 03a8 099A     		ldr	r2, [sp, #36]
 2520 03aa 9A42     		cmp	r2, r3
 2521 03ac 02D1     		bne	.L145
 2522              	.L144:
 306:..\..\..\arduinoLCD\test\Pain Drain\libraries\lvgl\src\extra\layouts\flex/lv_flex.c ****     }
 2523              		.loc 2 306 0 is_stmt 1
 2524 03ae 2000     		movs	r0, r4
 2525 03b0 FFF7FEFF 		bl	lv_obj_refr_size
 2526              	.LVL291:
 2527              	.L145:
 309:..\..\..\arduinoLCD\test\Pain Drain\libraries\lvgl\src\extra\layouts\flex/lv_flex.c **** 
 2528              		.loc 2 309 0
 2529 03b4 0022     		movs	r2, #0
 2530 03b6 2B21     		movs	r1, #43
 2531 03b8 2000     		movs	r0, r4
 2532 03ba FFF7FEFF 		bl	lv_event_send
 2533              	.LVL292:
 312:..\..\..\arduinoLCD\test\Pain Drain\libraries\lvgl\src\extra\layouts\flex/lv_flex.c **** 
 2534              		.loc 2 312 0
 2535 03be 15B0     		add	sp, sp, #84
 2536              		@ sp needed
 2537              	.LVL293:
 2538              	.LVL294:
 2539              	.LVL295:
 2540              	.LVL296:
 2541              	.LVL297:
 2542 03c0 3CBC     		pop	{r2, r3, r4, r5}
 2543 03c2 9046     		mov	r8, r2
 2544 03c4 9946     		mov	r9, r3
 2545 03c6 A246     		mov	r10, r4
 2546 03c8 AB46     		mov	fp, r5
ARM GAS  C:\Users\haske\AppData\Local\Temp\ccVRp2Ta.s 			page 76


 2547 03ca F0BD     		pop	{r4, r5, r6, r7, pc}
 2548              	.L159:
 2549              		.align	2
 2550              	.L158:
 2551 03cc D1270000 		.word	10193
 2552              		.cfi_endproc
 2553              	.LFE189:
 2554              		.size	flex_update, .-flex_update
 2555              		.section	.text.lv_flex_init,"ax",%progbits
 2556              		.align	2
 2557              		.global	lv_flex_init
 2558              		.code	16
 2559              		.thumb_func
 2560              		.type	lv_flex_init, %function
 2561              	lv_flex_init:
 2562              	.LFB175:
  93:..\..\..\arduinoLCD\test\Pain Drain\libraries\lvgl\src\extra\layouts\flex/lv_flex.c ****     LV_LAYOUT_FLEX = lv_layout_register(flex_update, NULL);
 2563              		.loc 2 93 0
 2564              		.cfi_startproc
 2565              		@ args = 0, pretend = 0, frame = 0
 2566              		@ frame_needed = 0, uses_anonymous_args = 0
 2567 0000 10B5     		push	{r4, lr}
 2568              		.cfi_def_cfa_offset 8
 2569              		.cfi_offset 4, -8
 2570              		.cfi_offset 14, -4
  94:..\..\..\arduinoLCD\test\Pain Drain\libraries\lvgl\src\extra\layouts\flex/lv_flex.c **** 
 2571              		.loc 2 94 0
 2572 0002 0021     		movs	r1, #0
 2573 0004 0C48     		ldr	r0, .L161
 2574 0006 FFF7FEFF 		bl	lv_layout_register
 2575              	.LVL298:
 2576 000a 0C4B     		ldr	r3, .L161+4
 2577 000c 1880     		strh	r0, [r3]
  96:..\..\..\arduinoLCD\test\Pain Drain\libraries\lvgl\src\extra\layouts\flex/lv_flex.c ****     LV_STYLE_FLEX_MAIN_PLACE = lv_style_register_prop(LV_STYLE_PROP_LAYOUT_REFR);
 2578              		.loc 2 96 0
 2579 000e 0020     		movs	r0, #0
 2580 0010 FFF7FEFF 		bl	lv_style_register_prop
 2581              	.LVL299:
 2582 0014 0A4B     		ldr	r3, .L161+8
 2583 0016 1880     		strh	r0, [r3]
  97:..\..\..\arduinoLCD\test\Pain Drain\libraries\lvgl\src\extra\layouts\flex/lv_flex.c ****     LV_STYLE_FLEX_CROSS_PLACE = lv_style_register_prop(LV_STYLE_PROP_LAYOUT_REFR);
 2584              		.loc 2 97 0
 2585 0018 0420     		movs	r0, #4
 2586 001a FFF7FEFF 		bl	lv_style_register_prop
 2587              	.LVL300:
 2588 001e 094B     		ldr	r3, .L161+12
 2589 0020 1880     		strh	r0, [r3]
  98:..\..\..\arduinoLCD\test\Pain Drain\libraries\lvgl\src\extra\layouts\flex/lv_flex.c ****     LV_STYLE_FLEX_TRACK_PLACE = lv_style_register_prop(LV_STYLE_PROP_LAYOUT_REFR);
 2590              		.loc 2 98 0
 2591 0022 0420     		movs	r0, #4
 2592 0024 FFF7FEFF 		bl	lv_style_register_prop
 2593              	.LVL301:
 2594 0028 074B     		ldr	r3, .L161+16
 2595 002a 1880     		strh	r0, [r3]
  99:..\..\..\arduinoLCD\test\Pain Drain\libraries\lvgl\src\extra\layouts\flex/lv_flex.c **** }
 2596              		.loc 2 99 0
 2597 002c 0420     		movs	r0, #4
ARM GAS  C:\Users\haske\AppData\Local\Temp\ccVRp2Ta.s 			page 77


 2598 002e FFF7FEFF 		bl	lv_style_register_prop
 2599              	.LVL302:
 2600 0032 064B     		ldr	r3, .L161+20
 2601 0034 1880     		strh	r0, [r3]
 100:..\..\..\arduinoLCD\test\Pain Drain\libraries\lvgl\src\extra\layouts\flex/lv_flex.c **** 
 2602              		.loc 2 100 0
 2603              		@ sp needed
 2604 0036 10BD     		pop	{r4, pc}
 2605              	.L162:
 2606              		.align	2
 2607              	.L161:
 2608 0038 00000000 		.word	flex_update
 2609 003c 00000000 		.word	LV_LAYOUT_FLEX
 2610 0040 00000000 		.word	LV_STYLE_FLEX_FLOW
 2611 0044 00000000 		.word	LV_STYLE_FLEX_MAIN_PLACE
 2612 0048 00000000 		.word	LV_STYLE_FLEX_CROSS_PLACE
 2613 004c 00000000 		.word	LV_STYLE_FLEX_TRACK_PLACE
 2614              		.cfi_endproc
 2615              	.LFE175:
 2616              		.size	lv_flex_init, .-lv_flex_init
 2617              		.section	.text.lv_style_set_flex_flow,"ax",%progbits
 2618              		.align	2
 2619              		.global	lv_style_set_flex_flow
 2620              		.code	16
 2621              		.thumb_func
 2622              		.type	lv_style_set_flex_flow, %function
 2623              	lv_style_set_flex_flow:
 2624              	.LFB179:
 125:..\..\..\arduinoLCD\test\Pain Drain\libraries\lvgl\src\extra\layouts\flex/lv_flex.c ****     lv_style_value_t v = {
 2625              		.loc 2 125 0
 2626              		.cfi_startproc
 2627              		@ args = 0, pretend = 0, frame = 0
 2628              		@ frame_needed = 0, uses_anonymous_args = 0
 2629              	.LVL303:
 2630 0000 10B5     		push	{r4, lr}
 2631              		.cfi_def_cfa_offset 8
 2632              		.cfi_offset 4, -8
 2633              		.cfi_offset 14, -4
 2634 0002 0A00     		movs	r2, r1
 129:..\..\..\arduinoLCD\test\Pain Drain\libraries\lvgl\src\extra\layouts\flex/lv_flex.c **** }
 2635              		.loc 2 129 0
 2636 0004 024B     		ldr	r3, .L164
 2637 0006 1988     		ldrh	r1, [r3]
 2638              	.LVL304:
 2639 0008 FFF7FEFF 		bl	lv_style_set_prop
 2640              	.LVL305:
 130:..\..\..\arduinoLCD\test\Pain Drain\libraries\lvgl\src\extra\layouts\flex/lv_flex.c **** 
 2641              		.loc 2 130 0
 2642              		@ sp needed
 2643 000c 10BD     		pop	{r4, pc}
 2644              	.L165:
 2645 000e C046     		.align	2
 2646              	.L164:
 2647 0010 00000000 		.word	LV_STYLE_FLEX_FLOW
 2648              		.cfi_endproc
 2649              	.LFE179:
 2650              		.size	lv_style_set_flex_flow, .-lv_style_set_flex_flow
ARM GAS  C:\Users\haske\AppData\Local\Temp\ccVRp2Ta.s 			page 78


 2651              		.section	.text.lv_style_set_flex_main_place,"ax",%progbits
 2652              		.align	2
 2653              		.global	lv_style_set_flex_main_place
 2654              		.code	16
 2655              		.thumb_func
 2656              		.type	lv_style_set_flex_main_place, %function
 2657              	lv_style_set_flex_main_place:
 2658              	.LFB180:
 133:..\..\..\arduinoLCD\test\Pain Drain\libraries\lvgl\src\extra\layouts\flex/lv_flex.c ****     lv_style_value_t v = {
 2659              		.loc 2 133 0
 2660              		.cfi_startproc
 2661              		@ args = 0, pretend = 0, frame = 0
 2662              		@ frame_needed = 0, uses_anonymous_args = 0
 2663              	.LVL306:
 2664 0000 10B5     		push	{r4, lr}
 2665              		.cfi_def_cfa_offset 8
 2666              		.cfi_offset 4, -8
 2667              		.cfi_offset 14, -4
 2668 0002 0A00     		movs	r2, r1
 137:..\..\..\arduinoLCD\test\Pain Drain\libraries\lvgl\src\extra\layouts\flex/lv_flex.c **** }
 2669              		.loc 2 137 0
 2670 0004 024B     		ldr	r3, .L167
 2671 0006 1988     		ldrh	r1, [r3]
 2672              	.LVL307:
 2673 0008 FFF7FEFF 		bl	lv_style_set_prop
 2674              	.LVL308:
 138:..\..\..\arduinoLCD\test\Pain Drain\libraries\lvgl\src\extra\layouts\flex/lv_flex.c **** 
 2675              		.loc 2 138 0
 2676              		@ sp needed
 2677 000c 10BD     		pop	{r4, pc}
 2678              	.L168:
 2679 000e C046     		.align	2
 2680              	.L167:
 2681 0010 00000000 		.word	LV_STYLE_FLEX_MAIN_PLACE
 2682              		.cfi_endproc
 2683              	.LFE180:
 2684              		.size	lv_style_set_flex_main_place, .-lv_style_set_flex_main_place
 2685              		.section	.text.lv_style_set_flex_cross_place,"ax",%progbits
 2686              		.align	2
 2687              		.global	lv_style_set_flex_cross_place
 2688              		.code	16
 2689              		.thumb_func
 2690              		.type	lv_style_set_flex_cross_place, %function
 2691              	lv_style_set_flex_cross_place:
 2692              	.LFB181:
 141:..\..\..\arduinoLCD\test\Pain Drain\libraries\lvgl\src\extra\layouts\flex/lv_flex.c ****     lv_style_value_t v = {
 2693              		.loc 2 141 0
 2694              		.cfi_startproc
 2695              		@ args = 0, pretend = 0, frame = 0
 2696              		@ frame_needed = 0, uses_anonymous_args = 0
 2697              	.LVL309:
 2698 0000 10B5     		push	{r4, lr}
 2699              		.cfi_def_cfa_offset 8
 2700              		.cfi_offset 4, -8
 2701              		.cfi_offset 14, -4
 2702 0002 0A00     		movs	r2, r1
 145:..\..\..\arduinoLCD\test\Pain Drain\libraries\lvgl\src\extra\layouts\flex/lv_flex.c **** }
ARM GAS  C:\Users\haske\AppData\Local\Temp\ccVRp2Ta.s 			page 79


 2703              		.loc 2 145 0
 2704 0004 024B     		ldr	r3, .L170
 2705 0006 1988     		ldrh	r1, [r3]
 2706              	.LVL310:
 2707 0008 FFF7FEFF 		bl	lv_style_set_prop
 2708              	.LVL311:
 146:..\..\..\arduinoLCD\test\Pain Drain\libraries\lvgl\src\extra\layouts\flex/lv_flex.c **** 
 2709              		.loc 2 146 0
 2710              		@ sp needed
 2711 000c 10BD     		pop	{r4, pc}
 2712              	.L171:
 2713 000e C046     		.align	2
 2714              	.L170:
 2715 0010 00000000 		.word	LV_STYLE_FLEX_CROSS_PLACE
 2716              		.cfi_endproc
 2717              	.LFE181:
 2718              		.size	lv_style_set_flex_cross_place, .-lv_style_set_flex_cross_place
 2719              		.section	.text.lv_style_set_flex_track_place,"ax",%progbits
 2720              		.align	2
 2721              		.global	lv_style_set_flex_track_place
 2722              		.code	16
 2723              		.thumb_func
 2724              		.type	lv_style_set_flex_track_place, %function
 2725              	lv_style_set_flex_track_place:
 2726              	.LFB182:
 149:..\..\..\arduinoLCD\test\Pain Drain\libraries\lvgl\src\extra\layouts\flex/lv_flex.c ****     lv_style_value_t v = {
 2727              		.loc 2 149 0
 2728              		.cfi_startproc
 2729              		@ args = 0, pretend = 0, frame = 0
 2730              		@ frame_needed = 0, uses_anonymous_args = 0
 2731              	.LVL312:
 2732 0000 10B5     		push	{r4, lr}
 2733              		.cfi_def_cfa_offset 8
 2734              		.cfi_offset 4, -8
 2735              		.cfi_offset 14, -4
 2736 0002 0A00     		movs	r2, r1
 153:..\..\..\arduinoLCD\test\Pain Drain\libraries\lvgl\src\extra\layouts\flex/lv_flex.c **** }
 2737              		.loc 2 153 0
 2738 0004 024B     		ldr	r3, .L173
 2739 0006 1988     		ldrh	r1, [r3]
 2740              	.LVL313:
 2741 0008 FFF7FEFF 		bl	lv_style_set_prop
 2742              	.LVL314:
 154:..\..\..\arduinoLCD\test\Pain Drain\libraries\lvgl\src\extra\layouts\flex/lv_flex.c **** 
 2743              		.loc 2 154 0
 2744              		@ sp needed
 2745 000c 10BD     		pop	{r4, pc}
 2746              	.L174:
 2747 000e C046     		.align	2
 2748              	.L173:
 2749 0010 00000000 		.word	LV_STYLE_FLEX_TRACK_PLACE
 2750              		.cfi_endproc
 2751              	.LFE182:
 2752              		.size	lv_style_set_flex_track_place, .-lv_style_set_flex_track_place
 2753              		.section	.text.lv_style_set_flex_grow,"ax",%progbits
 2754              		.align	2
 2755              		.global	lv_style_set_flex_grow
ARM GAS  C:\Users\haske\AppData\Local\Temp\ccVRp2Ta.s 			page 80


 2756              		.code	16
 2757              		.thumb_func
 2758              		.type	lv_style_set_flex_grow, %function
 2759              	lv_style_set_flex_grow:
 2760              	.LFB183:
 157:..\..\..\arduinoLCD\test\Pain Drain\libraries\lvgl\src\extra\layouts\flex/lv_flex.c ****     lv_style_value_t v = {
 2761              		.loc 2 157 0
 2762              		.cfi_startproc
 2763              		@ args = 0, pretend = 0, frame = 0
 2764              		@ frame_needed = 0, uses_anonymous_args = 0
 2765              	.LVL315:
 2766 0000 10B5     		push	{r4, lr}
 2767              		.cfi_def_cfa_offset 8
 2768              		.cfi_offset 4, -8
 2769              		.cfi_offset 14, -4
 2770 0002 0A00     		movs	r2, r1
 161:..\..\..\arduinoLCD\test\Pain Drain\libraries\lvgl\src\extra\layouts\flex/lv_flex.c **** }
 2771              		.loc 2 161 0
 2772 0004 024B     		ldr	r3, .L176
 2773 0006 1988     		ldrh	r1, [r3]
 2774              	.LVL316:
 2775 0008 FFF7FEFF 		bl	lv_style_set_prop
 2776              	.LVL317:
 162:..\..\..\arduinoLCD\test\Pain Drain\libraries\lvgl\src\extra\layouts\flex/lv_flex.c **** 
 2777              		.loc 2 162 0
 2778              		@ sp needed
 2779 000c 10BD     		pop	{r4, pc}
 2780              	.L177:
 2781 000e C046     		.align	2
 2782              	.L176:
 2783 0010 00000000 		.word	LV_STYLE_FLEX_GROW
 2784              		.cfi_endproc
 2785              	.LFE183:
 2786              		.size	lv_style_set_flex_grow, .-lv_style_set_flex_grow
 2787              		.section	.text.lv_obj_set_style_flex_flow,"ax",%progbits
 2788              		.align	2
 2789              		.global	lv_obj_set_style_flex_flow
 2790              		.code	16
 2791              		.thumb_func
 2792              		.type	lv_obj_set_style_flex_flow, %function
 2793              	lv_obj_set_style_flex_flow:
 2794              	.LFB184:
 166:..\..\..\arduinoLCD\test\Pain Drain\libraries\lvgl\src\extra\layouts\flex/lv_flex.c ****     lv_style_value_t v = {
 2795              		.loc 2 166 0
 2796              		.cfi_startproc
 2797              		@ args = 0, pretend = 0, frame = 0
 2798              		@ frame_needed = 0, uses_anonymous_args = 0
 2799              	.LVL318:
 2800 0000 10B5     		push	{r4, lr}
 2801              		.cfi_def_cfa_offset 8
 2802              		.cfi_offset 4, -8
 2803              		.cfi_offset 14, -4
 2804 0002 0C00     		movs	r4, r1
 2805 0004 1300     		movs	r3, r2
 170:..\..\..\arduinoLCD\test\Pain Drain\libraries\lvgl\src\extra\layouts\flex/lv_flex.c **** }
 2806              		.loc 2 170 0
 2807 0006 034A     		ldr	r2, .L179
ARM GAS  C:\Users\haske\AppData\Local\Temp\ccVRp2Ta.s 			page 81


 2808              	.LVL319:
 2809 0008 1188     		ldrh	r1, [r2]
 2810              	.LVL320:
 2811 000a 2200     		movs	r2, r4
 2812 000c FFF7FEFF 		bl	lv_obj_set_local_style_prop
 2813              	.LVL321:
 171:..\..\..\arduinoLCD\test\Pain Drain\libraries\lvgl\src\extra\layouts\flex/lv_flex.c **** 
 2814              		.loc 2 171 0
 2815              		@ sp needed
 2816 0010 10BD     		pop	{r4, pc}
 2817              	.L180:
 2818 0012 C046     		.align	2
 2819              	.L179:
 2820 0014 00000000 		.word	LV_STYLE_FLEX_FLOW
 2821              		.cfi_endproc
 2822              	.LFE184:
 2823              		.size	lv_obj_set_style_flex_flow, .-lv_obj_set_style_flex_flow
 2824              		.section	.text.lv_obj_set_flex_flow,"ax",%progbits
 2825              		.align	2
 2826              		.global	lv_obj_set_flex_flow
 2827              		.code	16
 2828              		.thumb_func
 2829              		.type	lv_obj_set_flex_flow, %function
 2830              	lv_obj_set_flex_flow:
 2831              	.LFB176:
 103:..\..\..\arduinoLCD\test\Pain Drain\libraries\lvgl\src\extra\layouts\flex/lv_flex.c ****     lv_obj_set_style_flex_flow(obj, flow, 0);
 2832              		.loc 2 103 0
 2833              		.cfi_startproc
 2834              		@ args = 0, pretend = 0, frame = 0
 2835              		@ frame_needed = 0, uses_anonymous_args = 0
 2836              	.LVL322:
 2837 0000 10B5     		push	{r4, lr}
 2838              		.cfi_def_cfa_offset 8
 2839              		.cfi_offset 4, -8
 2840              		.cfi_offset 14, -4
 2841 0002 0400     		movs	r4, r0
 104:..\..\..\arduinoLCD\test\Pain Drain\libraries\lvgl\src\extra\layouts\flex/lv_flex.c ****     lv_obj_set_style_layout(obj, LV_LAYOUT_FLEX, 0);
 2842              		.loc 2 104 0
 2843 0004 0022     		movs	r2, #0
 2844 0006 FFF7FEFF 		bl	lv_obj_set_style_flex_flow
 2845              	.LVL323:
 105:..\..\..\arduinoLCD\test\Pain Drain\libraries\lvgl\src\extra\layouts\flex/lv_flex.c **** }
 2846              		.loc 2 105 0
 2847 000a 034B     		ldr	r3, .L182
 2848 000c 1988     		ldrh	r1, [r3]
 2849 000e 0022     		movs	r2, #0
 2850 0010 2000     		movs	r0, r4
 2851 0012 FFF7FEFF 		bl	lv_obj_set_style_layout
 2852              	.LVL324:
 106:..\..\..\arduinoLCD\test\Pain Drain\libraries\lvgl\src\extra\layouts\flex/lv_flex.c **** 
 2853              		.loc 2 106 0
 2854              		@ sp needed
 2855              	.LVL325:
 2856 0016 10BD     		pop	{r4, pc}
 2857              	.L183:
 2858              		.align	2
 2859              	.L182:
ARM GAS  C:\Users\haske\AppData\Local\Temp\ccVRp2Ta.s 			page 82


 2860 0018 00000000 		.word	LV_LAYOUT_FLEX
 2861              		.cfi_endproc
 2862              	.LFE176:
 2863              		.size	lv_obj_set_flex_flow, .-lv_obj_set_flex_flow
 2864              		.section	.text.lv_obj_set_style_flex_main_place,"ax",%progbits
 2865              		.align	2
 2866              		.global	lv_obj_set_style_flex_main_place
 2867              		.code	16
 2868              		.thumb_func
 2869              		.type	lv_obj_set_style_flex_main_place, %function
 2870              	lv_obj_set_style_flex_main_place:
 2871              	.LFB185:
 174:..\..\..\arduinoLCD\test\Pain Drain\libraries\lvgl\src\extra\layouts\flex/lv_flex.c ****     lv_style_value_t v = {
 2872              		.loc 2 174 0
 2873              		.cfi_startproc
 2874              		@ args = 0, pretend = 0, frame = 0
 2875              		@ frame_needed = 0, uses_anonymous_args = 0
 2876              	.LVL326:
 2877 0000 10B5     		push	{r4, lr}
 2878              		.cfi_def_cfa_offset 8
 2879              		.cfi_offset 4, -8
 2880              		.cfi_offset 14, -4
 2881 0002 0C00     		movs	r4, r1
 2882 0004 1300     		movs	r3, r2
 178:..\..\..\arduinoLCD\test\Pain Drain\libraries\lvgl\src\extra\layouts\flex/lv_flex.c **** }
 2883              		.loc 2 178 0
 2884 0006 034A     		ldr	r2, .L185
 2885              	.LVL327:
 2886 0008 1188     		ldrh	r1, [r2]
 2887              	.LVL328:
 2888 000a 2200     		movs	r2, r4
 2889 000c FFF7FEFF 		bl	lv_obj_set_local_style_prop
 2890              	.LVL329:
 179:..\..\..\arduinoLCD\test\Pain Drain\libraries\lvgl\src\extra\layouts\flex/lv_flex.c **** 
 2891              		.loc 2 179 0
 2892              		@ sp needed
 2893 0010 10BD     		pop	{r4, pc}
 2894              	.L186:
 2895 0012 C046     		.align	2
 2896              	.L185:
 2897 0014 00000000 		.word	LV_STYLE_FLEX_MAIN_PLACE
 2898              		.cfi_endproc
 2899              	.LFE185:
 2900              		.size	lv_obj_set_style_flex_main_place, .-lv_obj_set_style_flex_main_place
 2901              		.section	.text.lv_obj_set_style_flex_cross_place,"ax",%progbits
 2902              		.align	2
 2903              		.global	lv_obj_set_style_flex_cross_place
 2904              		.code	16
 2905              		.thumb_func
 2906              		.type	lv_obj_set_style_flex_cross_place, %function
 2907              	lv_obj_set_style_flex_cross_place:
 2908              	.LFB186:
 182:..\..\..\arduinoLCD\test\Pain Drain\libraries\lvgl\src\extra\layouts\flex/lv_flex.c ****     lv_style_value_t v = {
 2909              		.loc 2 182 0
 2910              		.cfi_startproc
 2911              		@ args = 0, pretend = 0, frame = 0
 2912              		@ frame_needed = 0, uses_anonymous_args = 0
ARM GAS  C:\Users\haske\AppData\Local\Temp\ccVRp2Ta.s 			page 83


 2913              	.LVL330:
 2914 0000 10B5     		push	{r4, lr}
 2915              		.cfi_def_cfa_offset 8
 2916              		.cfi_offset 4, -8
 2917              		.cfi_offset 14, -4
 2918 0002 0C00     		movs	r4, r1
 2919 0004 1300     		movs	r3, r2
 186:..\..\..\arduinoLCD\test\Pain Drain\libraries\lvgl\src\extra\layouts\flex/lv_flex.c **** }
 2920              		.loc 2 186 0
 2921 0006 034A     		ldr	r2, .L188
 2922              	.LVL331:
 2923 0008 1188     		ldrh	r1, [r2]
 2924              	.LVL332:
 2925 000a 2200     		movs	r2, r4
 2926 000c FFF7FEFF 		bl	lv_obj_set_local_style_prop
 2927              	.LVL333:
 187:..\..\..\arduinoLCD\test\Pain Drain\libraries\lvgl\src\extra\layouts\flex/lv_flex.c **** 
 2928              		.loc 2 187 0
 2929              		@ sp needed
 2930 0010 10BD     		pop	{r4, pc}
 2931              	.L189:
 2932 0012 C046     		.align	2
 2933              	.L188:
 2934 0014 00000000 		.word	LV_STYLE_FLEX_CROSS_PLACE
 2935              		.cfi_endproc
 2936              	.LFE186:
 2937              		.size	lv_obj_set_style_flex_cross_place, .-lv_obj_set_style_flex_cross_place
 2938              		.section	.text.lv_obj_set_style_flex_track_place,"ax",%progbits
 2939              		.align	2
 2940              		.global	lv_obj_set_style_flex_track_place
 2941              		.code	16
 2942              		.thumb_func
 2943              		.type	lv_obj_set_style_flex_track_place, %function
 2944              	lv_obj_set_style_flex_track_place:
 2945              	.LFB187:
 190:..\..\..\arduinoLCD\test\Pain Drain\libraries\lvgl\src\extra\layouts\flex/lv_flex.c ****     lv_style_value_t v = {
 2946              		.loc 2 190 0
 2947              		.cfi_startproc
 2948              		@ args = 0, pretend = 0, frame = 0
 2949              		@ frame_needed = 0, uses_anonymous_args = 0
 2950              	.LVL334:
 2951 0000 10B5     		push	{r4, lr}
 2952              		.cfi_def_cfa_offset 8
 2953              		.cfi_offset 4, -8
 2954              		.cfi_offset 14, -4
 2955 0002 0C00     		movs	r4, r1
 2956 0004 1300     		movs	r3, r2
 194:..\..\..\arduinoLCD\test\Pain Drain\libraries\lvgl\src\extra\layouts\flex/lv_flex.c **** }
 2957              		.loc 2 194 0
 2958 0006 034A     		ldr	r2, .L191
 2959              	.LVL335:
 2960 0008 1188     		ldrh	r1, [r2]
 2961              	.LVL336:
 2962 000a 2200     		movs	r2, r4
 2963 000c FFF7FEFF 		bl	lv_obj_set_local_style_prop
 2964              	.LVL337:
 195:..\..\..\arduinoLCD\test\Pain Drain\libraries\lvgl\src\extra\layouts\flex/lv_flex.c **** 
ARM GAS  C:\Users\haske\AppData\Local\Temp\ccVRp2Ta.s 			page 84


 2965              		.loc 2 195 0
 2966              		@ sp needed
 2967 0010 10BD     		pop	{r4, pc}
 2968              	.L192:
 2969 0012 C046     		.align	2
 2970              	.L191:
 2971 0014 00000000 		.word	LV_STYLE_FLEX_TRACK_PLACE
 2972              		.cfi_endproc
 2973              	.LFE187:
 2974              		.size	lv_obj_set_style_flex_track_place, .-lv_obj_set_style_flex_track_place
 2975              		.section	.text.lv_obj_set_flex_align,"ax",%progbits
 2976              		.align	2
 2977              		.global	lv_obj_set_flex_align
 2978              		.code	16
 2979              		.thumb_func
 2980              		.type	lv_obj_set_flex_align, %function
 2981              	lv_obj_set_flex_align:
 2982              	.LFB177:
 110:..\..\..\arduinoLCD\test\Pain Drain\libraries\lvgl\src\extra\layouts\flex/lv_flex.c ****     lv_obj_set_style_flex_main_place(obj, main_place, 0);
 2983              		.loc 2 110 0
 2984              		.cfi_startproc
 2985              		@ args = 0, pretend = 0, frame = 0
 2986              		@ frame_needed = 0, uses_anonymous_args = 0
 2987              	.LVL338:
 2988 0000 70B5     		push	{r4, r5, r6, lr}
 2989              		.cfi_def_cfa_offset 16
 2990              		.cfi_offset 4, -16
 2991              		.cfi_offset 5, -12
 2992              		.cfi_offset 6, -8
 2993              		.cfi_offset 14, -4
 2994 0002 0400     		movs	r4, r0
 2995 0004 1600     		movs	r6, r2
 2996 0006 1D00     		movs	r5, r3
 111:..\..\..\arduinoLCD\test\Pain Drain\libraries\lvgl\src\extra\layouts\flex/lv_flex.c ****     lv_obj_set_style_flex_cross_place(obj, cross_place, 0);
 2997              		.loc 2 111 0
 2998 0008 0022     		movs	r2, #0
 2999              	.LVL339:
 3000 000a FFF7FEFF 		bl	lv_obj_set_style_flex_main_place
 3001              	.LVL340:
 112:..\..\..\arduinoLCD\test\Pain Drain\libraries\lvgl\src\extra\layouts\flex/lv_flex.c ****     lv_obj_set_style_flex_track_place(obj, track_place, 0);
 3002              		.loc 2 112 0
 3003 000e 0022     		movs	r2, #0
 3004 0010 3100     		movs	r1, r6
 3005 0012 2000     		movs	r0, r4
 3006 0014 FFF7FEFF 		bl	lv_obj_set_style_flex_cross_place
 3007              	.LVL341:
 113:..\..\..\arduinoLCD\test\Pain Drain\libraries\lvgl\src\extra\layouts\flex/lv_flex.c ****     lv_obj_set_style_layout(obj, LV_LAYOUT_FLEX, 0);
 3008              		.loc 2 113 0
 3009 0018 0022     		movs	r2, #0
 3010 001a 2900     		movs	r1, r5
 3011 001c 2000     		movs	r0, r4
 3012 001e FFF7FEFF 		bl	lv_obj_set_style_flex_track_place
 3013              	.LVL342:
 114:..\..\..\arduinoLCD\test\Pain Drain\libraries\lvgl\src\extra\layouts\flex/lv_flex.c **** }
 3014              		.loc 2 114 0
 3015 0022 034B     		ldr	r3, .L194
 3016 0024 1988     		ldrh	r1, [r3]
ARM GAS  C:\Users\haske\AppData\Local\Temp\ccVRp2Ta.s 			page 85


 3017 0026 0022     		movs	r2, #0
 3018 0028 2000     		movs	r0, r4
 3019 002a FFF7FEFF 		bl	lv_obj_set_style_layout
 3020              	.LVL343:
 115:..\..\..\arduinoLCD\test\Pain Drain\libraries\lvgl\src\extra\layouts\flex/lv_flex.c **** 
 3021              		.loc 2 115 0
 3022              		@ sp needed
 3023              	.LVL344:
 3024 002e 70BD     		pop	{r4, r5, r6, pc}
 3025              	.L195:
 3026              		.align	2
 3027              	.L194:
 3028 0030 00000000 		.word	LV_LAYOUT_FLEX
 3029              		.cfi_endproc
 3030              	.LFE177:
 3031              		.size	lv_obj_set_flex_align, .-lv_obj_set_flex_align
 3032              		.section	.text.lv_obj_set_style_flex_grow,"ax",%progbits
 3033              		.align	2
 3034              		.global	lv_obj_set_style_flex_grow
 3035              		.code	16
 3036              		.thumb_func
 3037              		.type	lv_obj_set_style_flex_grow, %function
 3038              	lv_obj_set_style_flex_grow:
 3039              	.LFB188:
 198:..\..\..\arduinoLCD\test\Pain Drain\libraries\lvgl\src\extra\layouts\flex/lv_flex.c ****     lv_style_value_t v = {
 3040              		.loc 2 198 0
 3041              		.cfi_startproc
 3042              		@ args = 0, pretend = 0, frame = 0
 3043              		@ frame_needed = 0, uses_anonymous_args = 0
 3044              	.LVL345:
 3045 0000 10B5     		push	{r4, lr}
 3046              		.cfi_def_cfa_offset 8
 3047              		.cfi_offset 4, -8
 3048              		.cfi_offset 14, -4
 3049 0002 0C00     		movs	r4, r1
 3050 0004 1300     		movs	r3, r2
 202:..\..\..\arduinoLCD\test\Pain Drain\libraries\lvgl\src\extra\layouts\flex/lv_flex.c **** }
 3051              		.loc 2 202 0
 3052 0006 034A     		ldr	r2, .L197
 3053              	.LVL346:
 3054 0008 1188     		ldrh	r1, [r2]
 3055              	.LVL347:
 3056 000a 2200     		movs	r2, r4
 3057 000c FFF7FEFF 		bl	lv_obj_set_local_style_prop
 3058              	.LVL348:
 203:..\..\..\arduinoLCD\test\Pain Drain\libraries\lvgl\src\extra\layouts\flex/lv_flex.c **** 
 3059              		.loc 2 203 0
 3060              		@ sp needed
 3061 0010 10BD     		pop	{r4, pc}
 3062              	.L198:
 3063 0012 C046     		.align	2
 3064              	.L197:
 3065 0014 00000000 		.word	LV_STYLE_FLEX_GROW
 3066              		.cfi_endproc
 3067              	.LFE188:
 3068              		.size	lv_obj_set_style_flex_grow, .-lv_obj_set_style_flex_grow
 3069              		.section	.text.lv_obj_set_flex_grow,"ax",%progbits
ARM GAS  C:\Users\haske\AppData\Local\Temp\ccVRp2Ta.s 			page 86


 3070              		.align	2
 3071              		.global	lv_obj_set_flex_grow
 3072              		.code	16
 3073              		.thumb_func
 3074              		.type	lv_obj_set_flex_grow, %function
 3075              	lv_obj_set_flex_grow:
 3076              	.LFB178:
 118:..\..\..\arduinoLCD\test\Pain Drain\libraries\lvgl\src\extra\layouts\flex/lv_flex.c ****     lv_obj_set_style_flex_grow(obj, grow, 0);
 3077              		.loc 2 118 0
 3078              		.cfi_startproc
 3079              		@ args = 0, pretend = 0, frame = 0
 3080              		@ frame_needed = 0, uses_anonymous_args = 0
 3081              	.LVL349:
 3082 0000 10B5     		push	{r4, lr}
 3083              		.cfi_def_cfa_offset 8
 3084              		.cfi_offset 4, -8
 3085              		.cfi_offset 14, -4
 3086 0002 0400     		movs	r4, r0
 119:..\..\..\arduinoLCD\test\Pain Drain\libraries\lvgl\src\extra\layouts\flex/lv_flex.c ****     lv_obj_mark_layout_as_dirty(lv_obj_get_parent(obj));
 3087              		.loc 2 119 0
 3088 0004 0022     		movs	r2, #0
 3089 0006 FFF7FEFF 		bl	lv_obj_set_style_flex_grow
 3090              	.LVL350:
 120:..\..\..\arduinoLCD\test\Pain Drain\libraries\lvgl\src\extra\layouts\flex/lv_flex.c **** }
 3091              		.loc 2 120 0
 3092 000a 2000     		movs	r0, r4
 3093 000c FFF7FEFF 		bl	lv_obj_get_parent
 3094              	.LVL351:
 3095 0010 FFF7FEFF 		bl	lv_obj_mark_layout_as_dirty
 3096              	.LVL352:
 121:..\..\..\arduinoLCD\test\Pain Drain\libraries\lvgl\src\extra\layouts\flex/lv_flex.c **** 
 3097              		.loc 2 121 0
 3098              		@ sp needed
 3099              	.LVL353:
 3100 0014 10BD     		pop	{r4, pc}
 3101              		.cfi_endproc
 3102              	.LFE178:
 3103              		.size	lv_obj_set_flex_grow, .-lv_obj_set_flex_grow
 3104              		.comm	LV_STYLE_FLEX_GROW,2,2
 3105              		.comm	LV_STYLE_FLEX_TRACK_PLACE,2,2
 3106              		.comm	LV_STYLE_FLEX_CROSS_PLACE,2,2
 3107              		.comm	LV_STYLE_FLEX_MAIN_PLACE,2,2
 3108              		.comm	LV_STYLE_FLEX_FLOW,2,2
 3109              		.comm	LV_LAYOUT_FLEX,2,2
 3110 0016 C046     		.text
 3111              	.Letext0:
 3112              		.file 5 "c:\\program files (x86)\\cypress\\psoc creator\\4.4\\psoc creator\\import\\gnu\\arm\\5.4.
 3113              		.file 6 "c:\\program files (x86)\\cypress\\psoc creator\\4.4\\psoc creator\\import\\gnu\\arm\\5.4.
 3114              		.file 7 "c:\\projects\\paindrain\\arduinolcd\\test\\pain drain\\libraries\\lvgl\\src\\font\\lv_fon
 3115              		.file 8 "c:\\projects\\paindrain\\arduinolcd\\test\\pain drain\\libraries\\lvgl\\src\\misc\\lv_col
 3116              		.file 9 "c:\\projects\\paindrain\\arduinolcd\\test\\pain drain\\libraries\\lvgl\\src\\misc\\lv_bid
 3117              		.file 10 "c:\\projects\\paindrain\\arduinolcd\\test\\pain drain\\libraries\\lvgl\\src\\misc\\lv_st
 3118              		.file 11 "c:\\projects\\paindrain\\arduinolcd\\test\\pain drain\\libraries\\lvgl\\src\\core\\lv_ob
 3119              		.file 12 "c:\\projects\\paindrain\\arduinolcd\\test\\pain drain\\libraries\\lvgl\\src\\misc\\lv_ll
 3120              		.file 13 "c:\\projects\\paindrain\\arduinolcd\\test\\pain drain\\libraries\\lvgl\\src\\core\\lv_gr
 3121              		.file 14 "c:\\projects\\paindrain\\arduinolcd\\test\\pain drain\\libraries\\lvgl\\src\\core\\lv_ob
 3122              		.file 15 "c:\\projects\\paindrain\\arduinolcd\\test\\pain drain\\libraries\\lvgl\\src\\core\\lv_ob
ARM GAS  C:\Users\haske\AppData\Local\Temp\ccVRp2Ta.s 			page 87


 3123              		.file 16 "c:\\projects\\paindrain\\arduinolcd\\test\\pain drain\\libraries\\lvgl\\src\\core\\lv_ob
 3124              		.file 17 "c:\\projects\\paindrain\\arduinolcd\\test\\pain drain\\libraries\\lvgl\\src\\core\\lv_ev
 3125              		.file 18 "..\\..\\..\\arduinoLCD\\test\\Pain Drain\\libraries\\lvgl\\src\\extra\\layouts\\flex\\..
 3126              		.file 19 "c:\\projects\\paindrain\\arduinolcd\\test\\pain drain\\libraries\\lvgl\\src\\misc\\lv_me
 3127              		.file 20 "c:\\projects\\paindrain\\arduinolcd\\test\\pain drain\\libraries\\lvgl\\src\\core\\lv_ob
 3128              		.file 21 "c:\\projects\\paindrain\\arduinolcd\\test\\pain drain\\libraries\\lvgl\\src\\core\\lv_ob
 3129              		.section	.debug_info,"",%progbits
 3130              	.Ldebug_info0:
 3131 0000 E42D0000 		.4byte	0x2de4
 3132 0004 0400     		.2byte	0x4
 3133 0006 00000000 		.4byte	.Ldebug_abbrev0
 3134 000a 04       		.byte	0x4
 3135 000b 01       		.uleb128 0x1
 3136 000c 3C080000 		.4byte	.LASF489
 3137 0010 0C       		.byte	0xc
 3138 0011 B1160000 		.4byte	.LASF490
 3139 0015 141D0000 		.4byte	.LASF491
 3140 0019 18000000 		.4byte	.Ldebug_ranges0+0x18
 3141 001d 00000000 		.4byte	0
 3142 0021 00000000 		.4byte	.Ldebug_line0
 3143 0025 02       		.uleb128 0x2
 3144 0026 33170000 		.4byte	.LASF0
 3145 002a 05       		.byte	0x5
 3146 002b 1B       		.byte	0x1b
 3147 002c 30000000 		.4byte	0x30
 3148 0030 03       		.uleb128 0x3
 3149 0031 01       		.byte	0x1
 3150 0032 06       		.byte	0x6
 3151 0033 FD050000 		.4byte	.LASF2
 3152 0037 02       		.uleb128 0x2
 3153 0038 39030000 		.4byte	.LASF1
 3154 003c 05       		.byte	0x5
 3155 003d 1D       		.byte	0x1d
 3156 003e 42000000 		.4byte	0x42
 3157 0042 03       		.uleb128 0x3
 3158 0043 01       		.byte	0x1
 3159 0044 08       		.byte	0x8
 3160 0045 DF060000 		.4byte	.LASF3
 3161 0049 02       		.uleb128 0x2
 3162 004a 22190000 		.4byte	.LASF4
 3163 004e 05       		.byte	0x5
 3164 004f 29       		.byte	0x29
 3165 0050 54000000 		.4byte	0x54
 3166 0054 03       		.uleb128 0x3
 3167 0055 02       		.byte	0x2
 3168 0056 05       		.byte	0x5
 3169 0057 051B0000 		.4byte	.LASF5
 3170 005b 02       		.uleb128 0x2
 3171 005c E6090000 		.4byte	.LASF6
 3172 0060 05       		.byte	0x5
 3173 0061 2B       		.byte	0x2b
 3174 0062 66000000 		.4byte	0x66
 3175 0066 03       		.uleb128 0x3
 3176 0067 02       		.byte	0x2
 3177 0068 07       		.byte	0x7
 3178 0069 E31E0000 		.4byte	.LASF7
 3179 006d 02       		.uleb128 0x2
ARM GAS  C:\Users\haske\AppData\Local\Temp\ccVRp2Ta.s 			page 88


 3180 006e 19200000 		.4byte	.LASF8
 3181 0072 05       		.byte	0x5
 3182 0073 3F       		.byte	0x3f
 3183 0074 78000000 		.4byte	0x78
 3184 0078 03       		.uleb128 0x3
 3185 0079 04       		.byte	0x4
 3186 007a 05       		.byte	0x5
 3187 007b 59040000 		.4byte	.LASF9
 3188 007f 02       		.uleb128 0x2
 3189 0080 A0110000 		.4byte	.LASF10
 3190 0084 05       		.byte	0x5
 3191 0085 41       		.byte	0x41
 3192 0086 8A000000 		.4byte	0x8a
 3193 008a 03       		.uleb128 0x3
 3194 008b 04       		.byte	0x4
 3195 008c 07       		.byte	0x7
 3196 008d D60E0000 		.4byte	.LASF11
 3197 0091 03       		.uleb128 0x3
 3198 0092 08       		.byte	0x8
 3199 0093 05       		.byte	0x5
 3200 0094 D0110000 		.4byte	.LASF12
 3201 0098 03       		.uleb128 0x3
 3202 0099 08       		.byte	0x8
 3203 009a 07       		.byte	0x7
 3204 009b 5D170000 		.4byte	.LASF13
 3205 009f 04       		.uleb128 0x4
 3206 00a0 04       		.byte	0x4
 3207 00a1 05       		.byte	0x5
 3208 00a2 696E7400 		.ascii	"int\000"
 3209 00a6 03       		.uleb128 0x3
 3210 00a7 04       		.byte	0x4
 3211 00a8 07       		.byte	0x7
 3212 00a9 EC130000 		.4byte	.LASF14
 3213 00ad 02       		.uleb128 0x2
 3214 00ae 1B000000 		.4byte	.LASF15
 3215 00b2 06       		.byte	0x6
 3216 00b3 14       		.byte	0x14
 3217 00b4 25000000 		.4byte	0x25
 3218 00b8 02       		.uleb128 0x2
 3219 00b9 09060000 		.4byte	.LASF16
 3220 00bd 06       		.byte	0x6
 3221 00be 18       		.byte	0x18
 3222 00bf 37000000 		.4byte	0x37
 3223 00c3 02       		.uleb128 0x2
 3224 00c4 AF1B0000 		.4byte	.LASF17
 3225 00c8 06       		.byte	0x6
 3226 00c9 20       		.byte	0x20
 3227 00ca 49000000 		.4byte	0x49
 3228 00ce 02       		.uleb128 0x2
 3229 00cf 0C180000 		.4byte	.LASF18
 3230 00d3 06       		.byte	0x6
 3231 00d4 24       		.byte	0x24
 3232 00d5 5B000000 		.4byte	0x5b
 3233 00d9 02       		.uleb128 0x2
 3234 00da EC000000 		.4byte	.LASF19
 3235 00de 06       		.byte	0x6
 3236 00df 2C       		.byte	0x2c
ARM GAS  C:\Users\haske\AppData\Local\Temp\ccVRp2Ta.s 			page 89


 3237 00e0 6D000000 		.4byte	0x6d
 3238 00e4 02       		.uleb128 0x2
 3239 00e5 091E0000 		.4byte	.LASF20
 3240 00e9 06       		.byte	0x6
 3241 00ea 30       		.byte	0x30
 3242 00eb 7F000000 		.4byte	0x7f
 3243 00ef 03       		.uleb128 0x3
 3244 00f0 08       		.byte	0x8
 3245 00f1 04       		.byte	0x4
 3246 00f2 F0150000 		.4byte	.LASF21
 3247 00f6 02       		.uleb128 0x2
 3248 00f7 0A1F0000 		.4byte	.LASF22
 3249 00fb 01       		.byte	0x1
 3250 00fc 1B       		.byte	0x1b
 3251 00fd C3000000 		.4byte	0xc3
 3252 0101 05       		.uleb128 0x5
 3253 0102 04       		.byte	0x4
 3254 0103 01       		.byte	0x1
 3255 0104 25       		.byte	0x25
 3256 0105 1E010000 		.4byte	0x11e
 3257 0109 06       		.uleb128 0x6
 3258 010a 7800     		.ascii	"x\000"
 3259 010c 01       		.byte	0x1
 3260 010d 26       		.byte	0x26
 3261 010e F6000000 		.4byte	0xf6
 3262 0112 00       		.byte	0
 3263 0113 06       		.uleb128 0x6
 3264 0114 7900     		.ascii	"y\000"
 3265 0116 01       		.byte	0x1
 3266 0117 27       		.byte	0x27
 3267 0118 F6000000 		.4byte	0xf6
 3268 011c 02       		.byte	0x2
 3269 011d 00       		.byte	0
 3270 011e 02       		.uleb128 0x2
 3271 011f 35010000 		.4byte	.LASF23
 3272 0123 01       		.byte	0x1
 3273 0124 28       		.byte	0x28
 3274 0125 01010000 		.4byte	0x101
 3275 0129 05       		.uleb128 0x5
 3276 012a 08       		.byte	0x8
 3277 012b 01       		.byte	0x1
 3278 012c 2B       		.byte	0x2b
 3279 012d 5E010000 		.4byte	0x15e
 3280 0131 06       		.uleb128 0x6
 3281 0132 783100   		.ascii	"x1\000"
 3282 0135 01       		.byte	0x1
 3283 0136 2C       		.byte	0x2c
 3284 0137 F6000000 		.4byte	0xf6
 3285 013b 00       		.byte	0
 3286 013c 06       		.uleb128 0x6
 3287 013d 793100   		.ascii	"y1\000"
 3288 0140 01       		.byte	0x1
 3289 0141 2D       		.byte	0x2d
 3290 0142 F6000000 		.4byte	0xf6
 3291 0146 02       		.byte	0x2
 3292 0147 06       		.uleb128 0x6
 3293 0148 783200   		.ascii	"x2\000"
ARM GAS  C:\Users\haske\AppData\Local\Temp\ccVRp2Ta.s 			page 90


 3294 014b 01       		.byte	0x1
 3295 014c 2E       		.byte	0x2e
 3296 014d F6000000 		.4byte	0xf6
 3297 0151 04       		.byte	0x4
 3298 0152 06       		.uleb128 0x6
 3299 0153 793200   		.ascii	"y2\000"
 3300 0156 01       		.byte	0x1
 3301 0157 2F       		.byte	0x2f
 3302 0158 F6000000 		.4byte	0xf6
 3303 015c 06       		.byte	0x6
 3304 015d 00       		.byte	0
 3305 015e 02       		.uleb128 0x2
 3306 015f 150C0000 		.4byte	.LASF24
 3307 0163 01       		.byte	0x1
 3308 0164 30       		.byte	0x30
 3309 0165 29010000 		.4byte	0x129
 3310 0169 02       		.uleb128 0x2
 3311 016a 580A0000 		.4byte	.LASF25
 3312 016e 01       		.byte	0x1
 3313 016f 59       		.byte	0x59
 3314 0170 B8000000 		.4byte	0xb8
 3315 0174 05       		.uleb128 0x5
 3316 0175 10       		.byte	0x10
 3317 0176 07       		.byte	0x7
 3318 0177 29       		.byte	0x29
 3319 0178 E3010000 		.4byte	0x1e3
 3320 017c 07       		.uleb128 0x7
 3321 017d 720F0000 		.4byte	.LASF26
 3322 0181 07       		.byte	0x7
 3323 0182 2B       		.byte	0x2b
 3324 0183 6B020000 		.4byte	0x26b
 3325 0187 00       		.byte	0
 3326 0188 07       		.uleb128 0x7
 3327 0189 3C000000 		.4byte	.LASF27
 3328 018d 07       		.byte	0x7
 3329 018e 2C       		.byte	0x2c
 3330 018f CE000000 		.4byte	0xce
 3331 0193 04       		.byte	0x4
 3332 0194 07       		.uleb128 0x7
 3333 0195 FF1A0000 		.4byte	.LASF28
 3334 0199 07       		.byte	0x7
 3335 019a 2D       		.byte	0x2d
 3336 019b CE000000 		.4byte	0xce
 3337 019f 06       		.byte	0x6
 3338 01a0 07       		.uleb128 0x7
 3339 01a1 B91A0000 		.4byte	.LASF29
 3340 01a5 07       		.byte	0x7
 3341 01a6 2E       		.byte	0x2e
 3342 01a7 CE000000 		.4byte	0xce
 3343 01ab 08       		.byte	0x8
 3344 01ac 07       		.uleb128 0x7
 3345 01ad C0070000 		.4byte	.LASF30
 3346 01b1 07       		.byte	0x7
 3347 01b2 2F       		.byte	0x2f
 3348 01b3 C3000000 		.4byte	0xc3
 3349 01b7 0A       		.byte	0xa
 3350 01b8 07       		.uleb128 0x7
ARM GAS  C:\Users\haske\AppData\Local\Temp\ccVRp2Ta.s 			page 91


 3351 01b9 C6070000 		.4byte	.LASF31
 3352 01bd 07       		.byte	0x7
 3353 01be 30       		.byte	0x30
 3354 01bf C3000000 		.4byte	0xc3
 3355 01c3 0C       		.byte	0xc
 3356 01c4 08       		.uleb128 0x8
 3357 01c5 62707000 		.ascii	"bpp\000"
 3358 01c9 07       		.byte	0x7
 3359 01ca 31       		.byte	0x31
 3360 01cb B8000000 		.4byte	0xb8
 3361 01cf 01       		.byte	0x1
 3362 01d0 04       		.byte	0x4
 3363 01d1 04       		.byte	0x4
 3364 01d2 0E       		.byte	0xe
 3365 01d3 09       		.uleb128 0x9
 3366 01d4 4B210000 		.4byte	.LASF32
 3367 01d8 07       		.byte	0x7
 3368 01d9 32       		.byte	0x32
 3369 01da B8000000 		.4byte	0xb8
 3370 01de 01       		.byte	0x1
 3371 01df 01       		.byte	0x1
 3372 01e0 03       		.byte	0x3
 3373 01e1 0E       		.byte	0xe
 3374 01e2 00       		.byte	0
 3375 01e3 0A       		.uleb128 0xa
 3376 01e4 95110000 		.4byte	.LASF160
 3377 01e8 1C       		.byte	0x1c
 3378 01e9 07       		.byte	0x7
 3379 01ea 40       		.byte	0x40
 3380 01eb 6B020000 		.4byte	0x26b
 3381 01ef 07       		.uleb128 0x7
 3382 01f0 0B200000 		.4byte	.LASF33
 3383 01f4 07       		.byte	0x7
 3384 01f5 42       		.byte	0x42
 3385 01f6 AC020000 		.4byte	0x2ac
 3386 01fa 00       		.byte	0
 3387 01fb 07       		.uleb128 0x7
 3388 01fc 61060000 		.4byte	.LASF34
 3389 0200 07       		.byte	0x7
 3390 0201 45       		.byte	0x45
 3391 0202 D1020000 		.4byte	0x2d1
 3392 0206 04       		.byte	0x4
 3393 0207 07       		.uleb128 0x7
 3394 0208 5B010000 		.4byte	.LASF35
 3395 020c 07       		.byte	0x7
 3396 020d 48       		.byte	0x48
 3397 020e F6000000 		.4byte	0xf6
 3398 0212 08       		.byte	0x8
 3399 0213 07       		.uleb128 0x7
 3400 0214 0F1B0000 		.4byte	.LASF36
 3401 0218 07       		.byte	0x7
 3402 0219 49       		.byte	0x49
 3403 021a F6000000 		.4byte	0xf6
 3404 021e 0A       		.byte	0xa
 3405 021f 09       		.uleb128 0x9
 3406 0220 56160000 		.4byte	.LASF37
 3407 0224 07       		.byte	0x7
ARM GAS  C:\Users\haske\AppData\Local\Temp\ccVRp2Ta.s 			page 92


 3408 0225 4A       		.byte	0x4a
 3409 0226 B8000000 		.4byte	0xb8
 3410 022a 01       		.byte	0x1
 3411 022b 02       		.byte	0x2
 3412 022c 06       		.byte	0x6
 3413 022d 0C       		.byte	0xc
 3414 022e 07       		.uleb128 0x7
 3415 022f 42090000 		.4byte	.LASF38
 3416 0233 07       		.byte	0x7
 3417 0234 4C       		.byte	0x4c
 3418 0235 AD000000 		.4byte	0xad
 3419 0239 0D       		.byte	0xd
 3420 023a 07       		.uleb128 0x7
 3421 023b E2120000 		.4byte	.LASF39
 3422 023f 07       		.byte	0x7
 3423 0240 4D       		.byte	0x4d
 3424 0241 AD000000 		.4byte	0xad
 3425 0245 0E       		.byte	0xe
 3426 0246 06       		.uleb128 0x6
 3427 0247 64736300 		.ascii	"dsc\000"
 3428 024b 07       		.byte	0x7
 3429 024c 4F       		.byte	0x4f
 3430 024d D7020000 		.4byte	0x2d7
 3431 0251 10       		.byte	0x10
 3432 0252 07       		.uleb128 0x7
 3433 0253 C20B0000 		.4byte	.LASF40
 3434 0257 07       		.byte	0x7
 3435 0258 50       		.byte	0x50
 3436 0259 6B020000 		.4byte	0x26b
 3437 025d 14       		.byte	0x14
 3438 025e 07       		.uleb128 0x7
 3439 025f 9A1F0000 		.4byte	.LASF41
 3440 0263 07       		.byte	0x7
 3441 0264 52       		.byte	0x52
 3442 0265 DE020000 		.4byte	0x2de
 3443 0269 18       		.byte	0x18
 3444 026a 00       		.byte	0
 3445 026b 0B       		.uleb128 0xb
 3446 026c 04       		.byte	0x4
 3447 026d 71020000 		.4byte	0x271
 3448 0271 0C       		.uleb128 0xc
 3449 0272 E3010000 		.4byte	0x1e3
 3450 0276 02       		.uleb128 0x2
 3451 0277 99140000 		.4byte	.LASF42
 3452 027b 07       		.byte	0x7
 3453 027c 33       		.byte	0x33
 3454 027d 74010000 		.4byte	0x174
 3455 0281 0D       		.uleb128 0xd
 3456 0282 9F020000 		.4byte	0x29f
 3457 0286 9F020000 		.4byte	0x29f
 3458 028a 0E       		.uleb128 0xe
 3459 028b 6B020000 		.4byte	0x26b
 3460 028f 0E       		.uleb128 0xe
 3461 0290 A6020000 		.4byte	0x2a6
 3462 0294 0E       		.uleb128 0xe
 3463 0295 E4000000 		.4byte	0xe4
 3464 0299 0E       		.uleb128 0xe
ARM GAS  C:\Users\haske\AppData\Local\Temp\ccVRp2Ta.s 			page 93


 3465 029a E4000000 		.4byte	0xe4
 3466 029e 00       		.byte	0
 3467 029f 03       		.uleb128 0x3
 3468 02a0 01       		.byte	0x1
 3469 02a1 02       		.byte	0x2
 3470 02a2 FD070000 		.4byte	.LASF43
 3471 02a6 0B       		.uleb128 0xb
 3472 02a7 04       		.byte	0x4
 3473 02a8 76020000 		.4byte	0x276
 3474 02ac 0B       		.uleb128 0xb
 3475 02ad 04       		.byte	0x4
 3476 02ae 81020000 		.4byte	0x281
 3477 02b2 0D       		.uleb128 0xd
 3478 02b3 C6020000 		.4byte	0x2c6
 3479 02b7 C6020000 		.4byte	0x2c6
 3480 02bb 0E       		.uleb128 0xe
 3481 02bc 6B020000 		.4byte	0x26b
 3482 02c0 0E       		.uleb128 0xe
 3483 02c1 E4000000 		.4byte	0xe4
 3484 02c5 00       		.byte	0
 3485 02c6 0B       		.uleb128 0xb
 3486 02c7 04       		.byte	0x4
 3487 02c8 CC020000 		.4byte	0x2cc
 3488 02cc 0C       		.uleb128 0xc
 3489 02cd B8000000 		.4byte	0xb8
 3490 02d1 0B       		.uleb128 0xb
 3491 02d2 04       		.byte	0x4
 3492 02d3 B2020000 		.4byte	0x2b2
 3493 02d7 0B       		.uleb128 0xb
 3494 02d8 04       		.byte	0x4
 3495 02d9 DD020000 		.4byte	0x2dd
 3496 02dd 0F       		.uleb128 0xf
 3497 02de 10       		.uleb128 0x10
 3498 02df 04       		.byte	0x4
 3499 02e0 02       		.uleb128 0x2
 3500 02e1 921E0000 		.4byte	.LASF44
 3501 02e5 07       		.byte	0x7
 3502 02e6 54       		.byte	0x54
 3503 02e7 E3010000 		.4byte	0x1e3
 3504 02eb 03       		.uleb128 0x3
 3505 02ec 04       		.byte	0x4
 3506 02ed 07       		.byte	0x7
 3507 02ee 42000000 		.4byte	.LASF45
 3508 02f2 03       		.uleb128 0x3
 3509 02f3 01       		.byte	0x1
 3510 02f4 08       		.byte	0x8
 3511 02f5 FD080000 		.4byte	.LASF46
 3512 02f9 05       		.uleb128 0x5
 3513 02fa 02       		.byte	0x2
 3514 02fb 08       		.byte	0x8
 3515 02fc D1       		.byte	0xd1
 3516 02fd 2F030000 		.4byte	0x32f
 3517 0301 09       		.uleb128 0x9
 3518 0302 72060000 		.4byte	.LASF47
 3519 0306 08       		.byte	0x8
 3520 0307 D3       		.byte	0xd3
 3521 0308 CE000000 		.4byte	0xce
ARM GAS  C:\Users\haske\AppData\Local\Temp\ccVRp2Ta.s 			page 94


 3522 030c 02       		.byte	0x2
 3523 030d 05       		.byte	0x5
 3524 030e 0B       		.byte	0xb
 3525 030f 00       		.byte	0
 3526 0310 09       		.uleb128 0x9
 3527 0311 8C1E0000 		.4byte	.LASF48
 3528 0315 08       		.byte	0x8
 3529 0316 D4       		.byte	0xd4
 3530 0317 CE000000 		.4byte	0xce
 3531 031b 02       		.byte	0x2
 3532 031c 06       		.byte	0x6
 3533 031d 05       		.byte	0x5
 3534 031e 00       		.byte	0
 3535 031f 08       		.uleb128 0x8
 3536 0320 72656400 		.ascii	"red\000"
 3537 0324 08       		.byte	0x8
 3538 0325 D5       		.byte	0xd5
 3539 0326 CE000000 		.4byte	0xce
 3540 032a 02       		.byte	0x2
 3541 032b 05       		.byte	0x5
 3542 032c 00       		.byte	0
 3543 032d 00       		.byte	0
 3544 032e 00       		.byte	0
 3545 032f 11       		.uleb128 0x11
 3546 0330 02       		.byte	0x2
 3547 0331 08       		.byte	0x8
 3548 0332 D0       		.byte	0xd0
 3549 0333 4D030000 		.4byte	0x34d
 3550 0337 12       		.uleb128 0x12
 3551 0338 636800   		.ascii	"ch\000"
 3552 033b 08       		.byte	0x8
 3553 033c DC       		.byte	0xdc
 3554 033d F9020000 		.4byte	0x2f9
 3555 0341 13       		.uleb128 0x13
 3556 0342 9F190000 		.4byte	.LASF49
 3557 0346 08       		.byte	0x8
 3558 0347 DD       		.byte	0xdd
 3559 0348 CE000000 		.4byte	0xce
 3560 034c 00       		.byte	0
 3561 034d 02       		.uleb128 0x2
 3562 034e F21A0000 		.4byte	.LASF50
 3563 0352 08       		.byte	0x8
 3564 0353 DE       		.byte	0xde
 3565 0354 2F030000 		.4byte	0x32f
 3566 0358 02       		.uleb128 0x2
 3567 0359 3B180000 		.4byte	.LASF51
 3568 035d 08       		.byte	0x8
 3569 035e EB       		.byte	0xeb
 3570 035f 4D030000 		.4byte	0x34d
 3571 0363 14       		.uleb128 0x14
 3572 0364 01       		.byte	0x1
 3573 0365 42000000 		.4byte	0x42
 3574 0369 09       		.byte	0x9
 3575 036a 21       		.byte	0x21
 3576 036b 8E030000 		.4byte	0x38e
 3577 036f 15       		.uleb128 0x15
 3578 0370 4C200000 		.4byte	.LASF52
ARM GAS  C:\Users\haske\AppData\Local\Temp\ccVRp2Ta.s 			page 95


 3579 0374 00       		.byte	0
 3580 0375 15       		.uleb128 0x15
 3581 0376 D8040000 		.4byte	.LASF53
 3582 037a 01       		.byte	0x1
 3583 037b 15       		.uleb128 0x15
 3584 037c E1200000 		.4byte	.LASF54
 3585 0380 02       		.byte	0x2
 3586 0381 15       		.uleb128 0x15
 3587 0382 B3120000 		.4byte	.LASF55
 3588 0386 20       		.byte	0x20
 3589 0387 15       		.uleb128 0x15
 3590 0388 9C070000 		.4byte	.LASF56
 3591 038c 21       		.byte	0x21
 3592 038d 00       		.byte	0
 3593 038e 02       		.uleb128 0x2
 3594 038f CC070000 		.4byte	.LASF57
 3595 0393 09       		.byte	0x9
 3596 0394 2A       		.byte	0x2a
 3597 0395 B8000000 		.4byte	0xb8
 3598 0399 11       		.uleb128 0x11
 3599 039a 04       		.byte	0x4
 3600 039b 0A       		.byte	0xa
 3601 039c A7       		.byte	0xa7
 3602 039d C3030000 		.4byte	0x3c3
 3603 03a1 12       		.uleb128 0x12
 3604 03a2 6E756D00 		.ascii	"num\000"
 3605 03a6 0A       		.byte	0xa
 3606 03a7 A8       		.byte	0xa8
 3607 03a8 D9000000 		.4byte	0xd9
 3608 03ac 12       		.uleb128 0x12
 3609 03ad 70747200 		.ascii	"ptr\000"
 3610 03b1 0A       		.byte	0xa
 3611 03b2 A9       		.byte	0xa9
 3612 03b3 D7020000 		.4byte	0x2d7
 3613 03b7 13       		.uleb128 0x13
 3614 03b8 A4190000 		.4byte	.LASF58
 3615 03bc 0A       		.byte	0xa
 3616 03bd AA       		.byte	0xaa
 3617 03be 58030000 		.4byte	0x358
 3618 03c2 00       		.byte	0
 3619 03c3 02       		.uleb128 0x2
 3620 03c4 F9130000 		.4byte	.LASF59
 3621 03c8 0A       		.byte	0xa
 3622 03c9 AB       		.byte	0xab
 3623 03ca 99030000 		.4byte	0x399
 3624 03ce 14       		.uleb128 0x14
 3625 03cf 02       		.byte	0x2
 3626 03d0 66000000 		.4byte	0x66
 3627 03d4 0A       		.byte	0xa
 3628 03d5 B2       		.byte	0xb2
 3629 03d6 F3050000 		.4byte	0x5f3
 3630 03da 15       		.uleb128 0x15
 3631 03db CB0C0000 		.4byte	.LASF60
 3632 03df 00       		.byte	0
 3633 03e0 15       		.uleb128 0x15
 3634 03e1 46180000 		.4byte	.LASF61
 3635 03e5 01       		.byte	0x1
ARM GAS  C:\Users\haske\AppData\Local\Temp\ccVRp2Ta.s 			page 96


 3636 03e6 15       		.uleb128 0x15
 3637 03e7 75180000 		.4byte	.LASF62
 3638 03eb 02       		.byte	0x2
 3639 03ec 15       		.uleb128 0x15
 3640 03ed 6B030000 		.4byte	.LASF63
 3641 03f1 03       		.byte	0x3
 3642 03f2 15       		.uleb128 0x15
 3643 03f3 E0010000 		.4byte	.LASF64
 3644 03f7 04       		.byte	0x4
 3645 03f8 15       		.uleb128 0x15
 3646 03f9 671D0000 		.4byte	.LASF65
 3647 03fd 05       		.byte	0x5
 3648 03fe 15       		.uleb128 0x15
 3649 03ff 541A0000 		.4byte	.LASF66
 3650 0403 06       		.byte	0x6
 3651 0404 15       		.uleb128 0x15
 3652 0405 A41D0000 		.4byte	.LASF67
 3653 0409 07       		.byte	0x7
 3654 040a 15       		.uleb128 0x15
 3655 040b AF1D0000 		.4byte	.LASF68
 3656 040f 08       		.byte	0x8
 3657 0410 15       		.uleb128 0x15
 3658 0411 D0060000 		.4byte	.LASF69
 3659 0415 09       		.byte	0x9
 3660 0416 15       		.uleb128 0x15
 3661 0417 89140000 		.4byte	.LASF70
 3662 041b 0A       		.byte	0xa
 3663 041c 15       		.uleb128 0x15
 3664 041d 4C030000 		.4byte	.LASF71
 3665 0421 0B       		.byte	0xb
 3666 0422 15       		.uleb128 0x15
 3667 0423 451C0000 		.4byte	.LASF72
 3668 0427 10       		.byte	0x10
 3669 0428 15       		.uleb128 0x15
 3670 0429 A40D0000 		.4byte	.LASF73
 3671 042d 11       		.byte	0x11
 3672 042e 15       		.uleb128 0x15
 3673 042f 5A100000 		.4byte	.LASF74
 3674 0433 12       		.byte	0x12
 3675 0434 15       		.uleb128 0x15
 3676 0435 1D040000 		.4byte	.LASF75
 3677 0439 13       		.byte	0x13
 3678 043a 15       		.uleb128 0x15
 3679 043b EB0F0000 		.4byte	.LASF76
 3680 043f 14       		.byte	0x14
 3681 0440 15       		.uleb128 0x15
 3682 0441 C1020000 		.4byte	.LASF77
 3683 0445 15       		.byte	0x15
 3684 0446 15       		.uleb128 0x15
 3685 0447 9E090000 		.4byte	.LASF78
 3686 044b 16       		.byte	0x16
 3687 044c 15       		.uleb128 0x15
 3688 044d 30150000 		.4byte	.LASF79
 3689 0451 17       		.byte	0x17
 3690 0452 15       		.uleb128 0x15
 3691 0453 190A0000 		.4byte	.LASF80
 3692 0457 20       		.byte	0x20
ARM GAS  C:\Users\haske\AppData\Local\Temp\ccVRp2Ta.s 			page 97


 3693 0458 15       		.uleb128 0x15
 3694 0459 1C0E0000 		.4byte	.LASF81
 3695 045d 21       		.byte	0x21
 3696 045e 15       		.uleb128 0x15
 3697 045f A21A0000 		.4byte	.LASF82
 3698 0463 22       		.byte	0x22
 3699 0464 15       		.uleb128 0x15
 3700 0465 4C060000 		.4byte	.LASF83
 3701 0469 23       		.byte	0x23
 3702 046a 15       		.uleb128 0x15
 3703 046b F9010000 		.4byte	.LASF84
 3704 046f 24       		.byte	0x24
 3705 0470 15       		.uleb128 0x15
 3706 0471 8D170000 		.4byte	.LASF85
 3707 0475 25       		.byte	0x25
 3708 0476 15       		.uleb128 0x15
 3709 0477 28210000 		.4byte	.LASF86
 3710 047b 26       		.byte	0x26
 3711 047c 15       		.uleb128 0x15
 3712 047d 21030000 		.4byte	.LASF87
 3713 0481 27       		.byte	0x27
 3714 0482 15       		.uleb128 0x15
 3715 0483 DF180000 		.4byte	.LASF88
 3716 0487 28       		.byte	0x28
 3717 0488 15       		.uleb128 0x15
 3718 0489 A51C0000 		.4byte	.LASF89
 3719 048d 29       		.byte	0x29
 3720 048e 15       		.uleb128 0x15
 3721 048f 83030000 		.4byte	.LASF90
 3722 0493 2A       		.byte	0x2a
 3723 0494 15       		.uleb128 0x15
 3724 0495 8B040000 		.4byte	.LASF91
 3725 0499 2B       		.byte	0x2b
 3726 049a 15       		.uleb128 0x15
 3727 049b 0E050000 		.4byte	.LASF92
 3728 049f 2C       		.byte	0x2c
 3729 04a0 15       		.uleb128 0x15
 3730 04a1 1D170000 		.4byte	.LASF93
 3731 04a5 30       		.byte	0x30
 3732 04a6 15       		.uleb128 0x15
 3733 04a7 30050000 		.4byte	.LASF94
 3734 04ab 31       		.byte	0x31
 3735 04ac 15       		.uleb128 0x15
 3736 04ad 94020000 		.4byte	.LASF95
 3737 04b1 32       		.byte	0x32
 3738 04b2 15       		.uleb128 0x15
 3739 04b3 BF170000 		.4byte	.LASF96
 3740 04b7 33       		.byte	0x33
 3741 04b8 15       		.uleb128 0x15
 3742 04b9 7B1D0000 		.4byte	.LASF97
 3743 04bd 34       		.byte	0x34
 3744 04be 15       		.uleb128 0x15
 3745 04bf 360C0000 		.4byte	.LASF98
 3746 04c3 35       		.byte	0x35
 3747 04c4 15       		.uleb128 0x15
 3748 04c5 831F0000 		.4byte	.LASF99
 3749 04c9 36       		.byte	0x36
ARM GAS  C:\Users\haske\AppData\Local\Temp\ccVRp2Ta.s 			page 98


 3750 04ca 15       		.uleb128 0x15
 3751 04cb B0090000 		.4byte	.LASF100
 3752 04cf 37       		.byte	0x37
 3753 04d0 15       		.uleb128 0x15
 3754 04d1 60210000 		.4byte	.LASF101
 3755 04d5 38       		.byte	0x38
 3756 04d6 15       		.uleb128 0x15
 3757 04d7 D6140000 		.4byte	.LASF102
 3758 04db 40       		.byte	0x40
 3759 04dc 15       		.uleb128 0x15
 3760 04dd B3180000 		.4byte	.LASF103
 3761 04e1 41       		.byte	0x41
 3762 04e2 15       		.uleb128 0x15
 3763 04e3 C9180000 		.4byte	.LASF104
 3764 04e7 42       		.byte	0x42
 3765 04e8 15       		.uleb128 0x15
 3766 04e9 E61F0000 		.4byte	.LASF105
 3767 04ed 43       		.byte	0x43
 3768 04ee 15       		.uleb128 0x15
 3769 04ef 9A050000 		.4byte	.LASF106
 3770 04f3 44       		.byte	0x44
 3771 04f4 15       		.uleb128 0x15
 3772 04f5 9B030000 		.4byte	.LASF107
 3773 04f9 45       		.byte	0x45
 3774 04fa 15       		.uleb128 0x15
 3775 04fb 850E0000 		.4byte	.LASF108
 3776 04ff 46       		.byte	0x46
 3777 0500 15       		.uleb128 0x15
 3778 0501 87070000 		.4byte	.LASF109
 3779 0505 47       		.byte	0x47
 3780 0506 15       		.uleb128 0x15
 3781 0507 2B0A0000 		.4byte	.LASF110
 3782 050b 48       		.byte	0x48
 3783 050c 15       		.uleb128 0x15
 3784 050d B91C0000 		.4byte	.LASF111
 3785 0511 49       		.byte	0x49
 3786 0512 15       		.uleb128 0x15
 3787 0513 EE0A0000 		.4byte	.LASF112
 3788 0517 4A       		.byte	0x4a
 3789 0518 15       		.uleb128 0x15
 3790 0519 95000000 		.4byte	.LASF113
 3791 051d 4B       		.byte	0x4b
 3792 051e 15       		.uleb128 0x15
 3793 051f BA1D0000 		.4byte	.LASF114
 3794 0523 4C       		.byte	0x4c
 3795 0524 15       		.uleb128 0x15
 3796 0525 BB0F0000 		.4byte	.LASF115
 3797 0529 4D       		.byte	0x4d
 3798 052a 15       		.uleb128 0x15
 3799 052b 2C0E0000 		.4byte	.LASF116
 3800 052f 4E       		.byte	0x4e
 3801 0530 15       		.uleb128 0x15
 3802 0531 AD070000 		.4byte	.LASF117
 3803 0535 50       		.byte	0x50
 3804 0536 15       		.uleb128 0x15
 3805 0537 15130000 		.4byte	.LASF118
 3806 053b 51       		.byte	0x51
ARM GAS  C:\Users\haske\AppData\Local\Temp\ccVRp2Ta.s 			page 99


 3807 053c 15       		.uleb128 0x15
 3808 053d 8D1B0000 		.4byte	.LASF119
 3809 0541 52       		.byte	0x52
 3810 0542 15       		.uleb128 0x15
 3811 0543 DB000000 		.4byte	.LASF120
 3812 0547 53       		.byte	0x53
 3813 0548 15       		.uleb128 0x15
 3814 0549 F3180000 		.4byte	.LASF121
 3815 054d 54       		.byte	0x54
 3816 054e 15       		.uleb128 0x15
 3817 054f 86130000 		.4byte	.LASF122
 3818 0553 55       		.byte	0x55
 3819 0554 15       		.uleb128 0x15
 3820 0555 120F0000 		.4byte	.LASF123
 3821 0559 56       		.byte	0x56
 3822 055a 15       		.uleb128 0x15
 3823 055b 2C190000 		.4byte	.LASF124
 3824 055f 57       		.byte	0x57
 3825 0560 15       		.uleb128 0x15
 3826 0561 93210000 		.4byte	.LASF125
 3827 0565 58       		.byte	0x58
 3828 0566 15       		.uleb128 0x15
 3829 0567 DD0C0000 		.4byte	.LASF126
 3830 056b 59       		.byte	0x59
 3831 056c 15       		.uleb128 0x15
 3832 056d F6120000 		.4byte	.LASF127
 3833 0571 5A       		.byte	0x5a
 3834 0572 15       		.uleb128 0x15
 3835 0573 4E110000 		.4byte	.LASF128
 3836 0577 5B       		.byte	0x5b
 3837 0578 15       		.uleb128 0x15
 3838 0579 22000000 		.4byte	.LASF129
 3839 057d 60       		.byte	0x60
 3840 057e 15       		.uleb128 0x15
 3841 057f 99120000 		.4byte	.LASF130
 3842 0583 61       		.byte	0x61
 3843 0584 15       		.uleb128 0x15
 3844 0585 BB150000 		.4byte	.LASF131
 3845 0589 62       		.byte	0x62
 3846 058a 15       		.uleb128 0x15
 3847 058b F5100000 		.4byte	.LASF132
 3848 058f 63       		.byte	0x63
 3849 0590 15       		.uleb128 0x15
 3850 0591 730D0000 		.4byte	.LASF133
 3851 0595 64       		.byte	0x64
 3852 0596 15       		.uleb128 0x15
 3853 0597 E70B0000 		.4byte	.LASF134
 3854 059b 65       		.byte	0x65
 3855 059c 15       		.uleb128 0x15
 3856 059d 62040000 		.4byte	.LASF135
 3857 05a1 66       		.byte	0x66
 3858 05a2 15       		.uleb128 0x15
 3859 05a3 440A0000 		.4byte	.LASF136
 3860 05a7 67       		.byte	0x67
 3861 05a8 15       		.uleb128 0x15
 3862 05a9 6A0B0000 		.4byte	.LASF137
 3863 05ad 68       		.byte	0x68
ARM GAS  C:\Users\haske\AppData\Local\Temp\ccVRp2Ta.s 			page 100


 3864 05ae 15       		.uleb128 0x15
 3865 05af EC030000 		.4byte	.LASF138
 3866 05b3 69       		.byte	0x69
 3867 05b4 15       		.uleb128 0x15
 3868 05b5 12080000 		.4byte	.LASF139
 3869 05b9 6A       		.byte	0x6a
 3870 05ba 15       		.uleb128 0x15
 3871 05bb 27080000 		.4byte	.LASF140
 3872 05bf 6B       		.byte	0x6b
 3873 05c0 15       		.uleb128 0x15
 3874 05c1 960E0000 		.4byte	.LASF141
 3875 05c5 6C       		.byte	0x6c
 3876 05c6 15       		.uleb128 0x15
 3877 05c7 67120000 		.4byte	.LASF142
 3878 05cb 6D       		.byte	0x6d
 3879 05cc 15       		.uleb128 0x15
 3880 05cd 32070000 		.4byte	.LASF143
 3881 05d1 6E       		.byte	0x6e
 3882 05d2 15       		.uleb128 0x15
 3883 05d3 4D070000 		.4byte	.LASF144
 3884 05d7 6F       		.byte	0x6f
 3885 05d8 15       		.uleb128 0x15
 3886 05d9 2C020000 		.4byte	.LASF145
 3887 05dd 6F       		.byte	0x6f
 3888 05de 15       		.uleb128 0x15
 3889 05df 281C0000 		.4byte	.LASF146
 3890 05e3 70       		.byte	0x70
 3891 05e4 16       		.uleb128 0x16
 3892 05e5 54190000 		.4byte	.LASF147
 3893 05e9 FFFF     		.2byte	0xffff
 3894 05eb 16       		.uleb128 0x16
 3895 05ec 2D140000 		.4byte	.LASF148
 3896 05f0 FFFF     		.2byte	0xffff
 3897 05f2 00       		.byte	0
 3898 05f3 17       		.uleb128 0x17
 3899 05f4 8B0B0000 		.4byte	.LASF149
 3900 05f8 0A       		.byte	0xa
 3901 05f9 1C01     		.2byte	0x11c
 3902 05fb CE030000 		.4byte	0x3ce
 3903 05ff 18       		.uleb128 0x18
 3904 0600 08       		.byte	0x8
 3905 0601 0A       		.byte	0xa
 3906 0602 3601     		.2byte	0x136
 3907 0604 23060000 		.4byte	0x623
 3908 0608 19       		.uleb128 0x19
 3909 0609 780A0000 		.4byte	.LASF150
 3910 060d 0A       		.byte	0xa
 3911 060e 3701     		.2byte	0x137
 3912 0610 F3050000 		.4byte	0x5f3
 3913 0614 00       		.byte	0
 3914 0615 19       		.uleb128 0x19
 3915 0616 DE080000 		.4byte	.LASF151
 3916 061a 0A       		.byte	0xa
 3917 061b 3801     		.2byte	0x138
 3918 061d C3030000 		.4byte	0x3c3
 3919 0621 04       		.byte	0x4
 3920 0622 00       		.byte	0
ARM GAS  C:\Users\haske\AppData\Local\Temp\ccVRp2Ta.s 			page 101


 3921 0623 17       		.uleb128 0x17
 3922 0624 050D0000 		.4byte	.LASF152
 3923 0628 0A       		.byte	0xa
 3924 0629 3901     		.2byte	0x139
 3925 062b FF050000 		.4byte	0x5ff
 3926 062f 1A       		.uleb128 0x1a
 3927 0630 04       		.byte	0x4
 3928 0631 0A       		.byte	0xa
 3929 0632 4601     		.2byte	0x146
 3930 0634 5D060000 		.4byte	0x65d
 3931 0638 1B       		.uleb128 0x1b
 3932 0639 08190000 		.4byte	.LASF153
 3933 063d 0A       		.byte	0xa
 3934 063e 4701     		.2byte	0x147
 3935 0640 C3030000 		.4byte	0x3c3
 3936 0644 1B       		.uleb128 0x1b
 3937 0645 CB0B0000 		.4byte	.LASF154
 3938 0649 0A       		.byte	0xa
 3939 064a 4801     		.2byte	0x148
 3940 064c 5D060000 		.4byte	0x65d
 3941 0650 1B       		.uleb128 0x1b
 3942 0651 890A0000 		.4byte	.LASF155
 3943 0655 0A       		.byte	0xa
 3944 0656 4901     		.2byte	0x149
 3945 0658 63060000 		.4byte	0x663
 3946 065c 00       		.byte	0
 3947 065d 0B       		.uleb128 0xb
 3948 065e 04       		.byte	0x4
 3949 065f B8000000 		.4byte	0xb8
 3950 0663 0B       		.uleb128 0xb
 3951 0664 04       		.byte	0x4
 3952 0665 69060000 		.4byte	0x669
 3953 0669 0C       		.uleb128 0xc
 3954 066a 23060000 		.4byte	0x623
 3955 066e 18       		.uleb128 0x18
 3956 066f 08       		.byte	0x8
 3957 0670 0A       		.byte	0xa
 3958 0671 3E01     		.2byte	0x13e
 3959 0673 AC060000 		.4byte	0x6ac
 3960 0677 1C       		.uleb128 0x1c
 3961 0678 765F7000 		.ascii	"v_p\000"
 3962 067c 0A       		.byte	0xa
 3963 067d 4A01     		.2byte	0x14a
 3964 067f 2F060000 		.4byte	0x62f
 3965 0683 00       		.byte	0
 3966 0684 19       		.uleb128 0x19
 3967 0685 4D1D0000 		.4byte	.LASF156
 3968 0689 0A       		.byte	0xa
 3969 068a 4C01     		.2byte	0x14c
 3970 068c CE000000 		.4byte	0xce
 3971 0690 04       		.byte	0x4
 3972 0691 19       		.uleb128 0x19
 3973 0692 1B010000 		.4byte	.LASF157
 3974 0696 0A       		.byte	0xa
 3975 0697 4D01     		.2byte	0x14d
 3976 0699 B8000000 		.4byte	0xb8
 3977 069d 06       		.byte	0x6
ARM GAS  C:\Users\haske\AppData\Local\Temp\ccVRp2Ta.s 			page 102


 3978 069e 19       		.uleb128 0x19
 3979 069f 12000000 		.4byte	.LASF158
 3980 06a3 0A       		.byte	0xa
 3981 06a4 4E01     		.2byte	0x14e
 3982 06a6 B8000000 		.4byte	0xb8
 3983 06aa 07       		.byte	0x7
 3984 06ab 00       		.byte	0
 3985 06ac 17       		.uleb128 0x17
 3986 06ad 3E0E0000 		.4byte	.LASF159
 3987 06b1 0A       		.byte	0xa
 3988 06b2 4F01     		.2byte	0x14f
 3989 06b4 6E060000 		.4byte	0x66e
 3990 06b8 0B       		.uleb128 0xb
 3991 06b9 04       		.byte	0x4
 3992 06ba BE060000 		.4byte	0x6be
 3993 06be 0A       		.uleb128 0xa
 3994 06bf 4A1A0000 		.4byte	.LASF161
 3995 06c3 24       		.byte	0x24
 3996 06c4 0B       		.byte	0xb
 3997 06c5 AE       		.byte	0xae
 3998 06c6 85070000 		.4byte	0x785
 3999 06ca 07       		.uleb128 0x7
 4000 06cb AA130000 		.4byte	.LASF162
 4001 06cf 0B       		.byte	0xb
 4002 06d0 AF       		.byte	0xaf
 4003 06d1 F00D0000 		.4byte	0xdf0
 4004 06d5 00       		.byte	0
 4005 06d6 07       		.uleb128 0x7
 4006 06d7 320D0000 		.4byte	.LASF163
 4007 06db 0B       		.byte	0xb
 4008 06dc B0       		.byte	0xb0
 4009 06dd B8060000 		.4byte	0x6b8
 4010 06e1 04       		.byte	0x4
 4011 06e2 07       		.uleb128 0x7
 4012 06e3 9E010000 		.4byte	.LASF164
 4013 06e7 0B       		.byte	0xb
 4014 06e8 B1       		.byte	0xb1
 4015 06e9 FB0D0000 		.4byte	0xdfb
 4016 06ed 08       		.byte	0x8
 4017 06ee 07       		.uleb128 0x7
 4018 06ef 6D0E0000 		.4byte	.LASF165
 4019 06f3 0B       		.byte	0xb
 4020 06f4 B2       		.byte	0xb2
 4021 06f5 010E0000 		.4byte	0xe01
 4022 06f9 0C       		.byte	0xc
 4023 06fa 07       		.uleb128 0x7
 4024 06fb 9A1F0000 		.4byte	.LASF41
 4025 06ff 0B       		.byte	0xb
 4026 0700 B4       		.byte	0xb4
 4027 0701 DE020000 		.4byte	0x2de
 4028 0705 10       		.byte	0x10
 4029 0706 07       		.uleb128 0x7
 4030 0707 121C0000 		.4byte	.LASF166
 4031 070b 0B       		.byte	0xb
 4032 070c B6       		.byte	0xb6
 4033 070d 5E010000 		.4byte	0x15e
 4034 0711 14       		.byte	0x14
ARM GAS  C:\Users\haske\AppData\Local\Temp\ccVRp2Ta.s 			page 103


 4035 0712 07       		.uleb128 0x7
 4036 0713 EF080000 		.4byte	.LASF167
 4037 0717 0B       		.byte	0xb
 4038 0718 B7       		.byte	0xb7
 4039 0719 CC090000 		.4byte	0x9cc
 4040 071d 1C       		.byte	0x1c
 4041 071e 07       		.uleb128 0x7
 4042 071f DA010000 		.4byte	.LASF168
 4043 0723 0B       		.byte	0xb
 4044 0724 B8       		.byte	0xb8
 4045 0725 75080000 		.4byte	0x875
 4046 0729 20       		.byte	0x20
 4047 072a 09       		.uleb128 0x9
 4048 072b E4050000 		.4byte	.LASF169
 4049 072f 0B       		.byte	0xb
 4050 0730 B9       		.byte	0xb9
 4051 0731 CE000000 		.4byte	0xce
 4052 0735 02       		.byte	0x2
 4053 0736 01       		.byte	0x1
 4054 0737 0F       		.byte	0xf
 4055 0738 22       		.byte	0x22
 4056 0739 09       		.uleb128 0x9
 4057 073a 5C030000 		.4byte	.LASF170
 4058 073e 0B       		.byte	0xb
 4059 073f BA       		.byte	0xba
 4060 0740 CE000000 		.4byte	0xce
 4061 0744 02       		.byte	0x2
 4062 0745 01       		.byte	0x1
 4063 0746 0E       		.byte	0xe
 4064 0747 22       		.byte	0x22
 4065 0748 09       		.uleb128 0x9
 4066 0749 40130000 		.4byte	.LASF171
 4067 074d 0B       		.byte	0xb
 4068 074e BB       		.byte	0xbb
 4069 074f CE000000 		.4byte	0xce
 4070 0753 02       		.byte	0x2
 4071 0754 01       		.byte	0x1
 4072 0755 0D       		.byte	0xd
 4073 0756 22       		.byte	0x22
 4074 0757 09       		.uleb128 0x9
 4075 0758 C0050000 		.4byte	.LASF172
 4076 075c 0B       		.byte	0xb
 4077 075d BC       		.byte	0xbc
 4078 075e CE000000 		.4byte	0xce
 4079 0762 02       		.byte	0x2
 4080 0763 06       		.byte	0x6
 4081 0764 07       		.byte	0x7
 4082 0765 22       		.byte	0x22
 4083 0766 09       		.uleb128 0x9
 4084 0767 F4070000 		.4byte	.LASF173
 4085 076b 0B       		.byte	0xb
 4086 076c BD       		.byte	0xbd
 4087 076d CE000000 		.4byte	0xce
 4088 0771 02       		.byte	0x2
 4089 0772 01       		.byte	0x1
 4090 0773 06       		.byte	0x6
 4091 0774 22       		.byte	0x22
ARM GAS  C:\Users\haske\AppData\Local\Temp\ccVRp2Ta.s 			page 104


 4092 0775 09       		.uleb128 0x9
 4093 0776 43030000 		.4byte	.LASF174
 4094 077a 0B       		.byte	0xb
 4095 077b BE       		.byte	0xbe
 4096 077c CE000000 		.4byte	0xce
 4097 0780 02       		.byte	0x2
 4098 0781 01       		.byte	0x1
 4099 0782 05       		.byte	0x5
 4100 0783 22       		.byte	0x22
 4101 0784 00       		.byte	0
 4102 0785 0C       		.uleb128 0xc
 4103 0786 E0020000 		.4byte	0x2e0
 4104 078a 0B       		.uleb128 0xb
 4105 078b 04       		.byte	0x4
 4106 078c 90070000 		.4byte	0x790
 4107 0790 0C       		.uleb128 0xc
 4108 0791 5E010000 		.4byte	0x15e
 4109 0795 0B       		.uleb128 0xb
 4110 0796 04       		.byte	0x4
 4111 0797 5E010000 		.4byte	0x15e
 4112 079b 02       		.uleb128 0x2
 4113 079c 2F000000 		.4byte	.LASF175
 4114 07a0 0C       		.byte	0xc
 4115 07a1 1D       		.byte	0x1d
 4116 07a2 B8000000 		.4byte	0xb8
 4117 07a6 05       		.uleb128 0x5
 4118 07a7 0C       		.byte	0xc
 4119 07a8 0C       		.byte	0xc
 4120 07a9 20       		.byte	0x20
 4121 07aa D3070000 		.4byte	0x7d3
 4122 07ae 07       		.uleb128 0x7
 4123 07af 01210000 		.4byte	.LASF176
 4124 07b3 0C       		.byte	0xc
 4125 07b4 21       		.byte	0x21
 4126 07b5 E4000000 		.4byte	0xe4
 4127 07b9 00       		.byte	0
 4128 07ba 07       		.uleb128 0x7
 4129 07bb 2B050000 		.4byte	.LASF177
 4130 07bf 0C       		.byte	0xc
 4131 07c0 22       		.byte	0x22
 4132 07c1 D3070000 		.4byte	0x7d3
 4133 07c5 04       		.byte	0x4
 4134 07c6 07       		.uleb128 0x7
 4135 07c7 C7000000 		.4byte	.LASF178
 4136 07cb 0C       		.byte	0xc
 4137 07cc 23       		.byte	0x23
 4138 07cd D3070000 		.4byte	0x7d3
 4139 07d1 08       		.byte	0x8
 4140 07d2 00       		.byte	0
 4141 07d3 0B       		.uleb128 0xb
 4142 07d4 04       		.byte	0x4
 4143 07d5 9B070000 		.4byte	0x79b
 4144 07d9 02       		.uleb128 0x2
 4145 07da 191B0000 		.4byte	.LASF179
 4146 07de 0C       		.byte	0xc
 4147 07df 24       		.byte	0x24
 4148 07e0 A6070000 		.4byte	0x7a6
ARM GAS  C:\Users\haske\AppData\Local\Temp\ccVRp2Ta.s 			page 105


 4149 07e4 0B       		.uleb128 0xb
 4150 07e5 04       		.byte	0x4
 4151 07e6 B8060000 		.4byte	0x6b8
 4152 07ea 0A       		.uleb128 0xa
 4153 07eb 1C210000 		.4byte	.LASF180
 4154 07ef 20       		.byte	0x20
 4155 07f0 0D       		.byte	0xd
 4156 07f1 3B       		.byte	0x3b
 4157 07f2 6F080000 		.4byte	0x86f
 4158 07f6 07       		.uleb128 0x7
 4159 07f7 960F0000 		.4byte	.LASF181
 4160 07fb 0D       		.byte	0xd
 4161 07fc 3C       		.byte	0x3c
 4162 07fd D9070000 		.4byte	0x7d9
 4163 0801 00       		.byte	0
 4164 0802 07       		.uleb128 0x7
 4165 0803 89210000 		.4byte	.LASF182
 4166 0807 0D       		.byte	0xd
 4167 0808 3D       		.byte	0x3d
 4168 0809 E4070000 		.4byte	0x7e4
 4169 080d 0C       		.byte	0xc
 4170 080e 07       		.uleb128 0x7
 4171 080f 9B150000 		.4byte	.LASF183
 4172 0813 0D       		.byte	0xd
 4173 0814 3F       		.byte	0x3f
 4174 0815 D50C0000 		.4byte	0xcd5
 4175 0819 10       		.byte	0x10
 4176 081a 07       		.uleb128 0x7
 4177 081b 06050000 		.4byte	.LASF184
 4178 081f 0D       		.byte	0xd
 4179 0820 40       		.byte	0x40
 4180 0821 F10C0000 		.4byte	0xcf1
 4181 0825 14       		.byte	0x14
 4182 0826 07       		.uleb128 0x7
 4183 0827 9A1F0000 		.4byte	.LASF41
 4184 082b 0D       		.byte	0xd
 4185 082c 45       		.byte	0x45
 4186 082d DE020000 		.4byte	0x2de
 4187 0831 18       		.byte	0x18
 4188 0832 09       		.uleb128 0x9
 4189 0833 5B050000 		.4byte	.LASF185
 4190 0837 0D       		.byte	0xd
 4191 0838 48       		.byte	0x48
 4192 0839 B8000000 		.4byte	0xb8
 4193 083d 01       		.byte	0x1
 4194 083e 01       		.byte	0x1
 4195 083f 07       		.byte	0x7
 4196 0840 1C       		.byte	0x1c
 4197 0841 09       		.uleb128 0x9
 4198 0842 4B170000 		.4byte	.LASF186
 4199 0846 0D       		.byte	0xd
 4200 0847 49       		.byte	0x49
 4201 0848 B8000000 		.4byte	0xb8
 4202 084c 01       		.byte	0x1
 4203 084d 01       		.byte	0x1
 4204 084e 06       		.byte	0x6
 4205 084f 1C       		.byte	0x1c
ARM GAS  C:\Users\haske\AppData\Local\Temp\ccVRp2Ta.s 			page 106


 4206 0850 09       		.uleb128 0x9
 4207 0851 3D200000 		.4byte	.LASF187
 4208 0855 0D       		.byte	0xd
 4209 0856 4A       		.byte	0x4a
 4210 0857 B8000000 		.4byte	0xb8
 4211 085b 01       		.byte	0x1
 4212 085c 01       		.byte	0x1
 4213 085d 05       		.byte	0x5
 4214 085e 1C       		.byte	0x1c
 4215 085f 09       		.uleb128 0x9
 4216 0860 36180000 		.4byte	.LASF188
 4217 0864 0D       		.byte	0xd
 4218 0865 4C       		.byte	0x4c
 4219 0866 B8000000 		.4byte	0xb8
 4220 086a 01       		.byte	0x1
 4221 086b 01       		.byte	0x1
 4222 086c 04       		.byte	0x4
 4223 086d 1C       		.byte	0x1c
 4224 086e 00       		.byte	0
 4225 086f 0B       		.uleb128 0xb
 4226 0870 04       		.byte	0x4
 4227 0871 EA070000 		.4byte	0x7ea
 4228 0875 02       		.uleb128 0x2
 4229 0876 A7040000 		.4byte	.LASF189
 4230 087a 0B       		.byte	0xb
 4231 087b 3C       		.byte	0x3c
 4232 087c CE000000 		.4byte	0xce
 4233 0880 14       		.uleb128 0x14
 4234 0881 04       		.byte	0x4
 4235 0882 A6000000 		.4byte	0xa6
 4236 0886 0B       		.byte	0xb
 4237 0887 44       		.byte	0x44
 4238 0888 E4080000 		.4byte	0x8e4
 4239 088c 15       		.uleb128 0x15
 4240 088d 75160000 		.4byte	.LASF190
 4241 0891 00       		.byte	0
 4242 0892 1D       		.uleb128 0x1d
 4243 0893 66130000 		.4byte	.LASF191
 4244 0897 00000100 		.4byte	0x10000
 4245 089b 1D       		.uleb128 0x1d
 4246 089c 54130000 		.4byte	.LASF192
 4247 08a0 00000200 		.4byte	0x20000
 4248 08a4 1D       		.uleb128 0x1d
 4249 08a5 83100000 		.4byte	.LASF193
 4250 08a9 00000300 		.4byte	0x30000
 4251 08ad 1D       		.uleb128 0x1d
 4252 08ae 10030000 		.4byte	.LASF194
 4253 08b2 00000400 		.4byte	0x40000
 4254 08b6 1D       		.uleb128 0x1d
 4255 08b7 05170000 		.4byte	.LASF195
 4256 08bb 00000500 		.4byte	0x50000
 4257 08bf 1D       		.uleb128 0x1d
 4258 08c0 FD1F0000 		.4byte	.LASF196
 4259 08c4 00000600 		.4byte	0x60000
 4260 08c8 1D       		.uleb128 0x1d
 4261 08c9 121E0000 		.4byte	.LASF197
 4262 08cd 00000700 		.4byte	0x70000
ARM GAS  C:\Users\haske\AppData\Local\Temp\ccVRp2Ta.s 			page 107


 4263 08d1 1D       		.uleb128 0x1d
 4264 08d2 901C0000 		.4byte	.LASF198
 4265 08d6 00000800 		.4byte	0x80000
 4266 08da 1D       		.uleb128 0x1d
 4267 08db 7D0A0000 		.4byte	.LASF199
 4268 08df 00000F00 		.4byte	0xf0000
 4269 08e3 00       		.byte	0
 4270 08e4 14       		.uleb128 0x14
 4271 08e5 04       		.byte	0x4
 4272 08e6 A6000000 		.4byte	0xa6
 4273 08ea 0B       		.byte	0xb
 4274 08eb 59       		.byte	0x59
 4275 08ec CC090000 		.4byte	0x9cc
 4276 08f0 15       		.uleb128 0x15
 4277 08f1 CF0F0000 		.4byte	.LASF200
 4278 08f5 01       		.byte	0x1
 4279 08f6 15       		.uleb128 0x15
 4280 08f7 2A130000 		.4byte	.LASF201
 4281 08fb 02       		.byte	0x2
 4282 08fc 15       		.uleb128 0x15
 4283 08fd 681A0000 		.4byte	.LASF202
 4284 0901 04       		.byte	0x4
 4285 0902 15       		.uleb128 0x15
 4286 0903 800F0000 		.4byte	.LASF203
 4287 0907 08       		.byte	0x8
 4288 0908 15       		.uleb128 0x15
 4289 0909 06040000 		.4byte	.LASF204
 4290 090d 10       		.byte	0x10
 4291 090e 15       		.uleb128 0x15
 4292 090f C7120000 		.4byte	.LASF205
 4293 0913 20       		.byte	0x20
 4294 0914 15       		.uleb128 0x15
 4295 0915 F60E0000 		.4byte	.LASF206
 4296 0919 40       		.byte	0x40
 4297 091a 15       		.uleb128 0x15
 4298 091b C0200000 		.4byte	.LASF207
 4299 091f 80       		.byte	0x80
 4300 0920 16       		.uleb128 0x16
 4301 0921 A50A0000 		.4byte	.LASF208
 4302 0925 0001     		.2byte	0x100
 4303 0927 16       		.uleb128 0x16
 4304 0928 E30D0000 		.4byte	.LASF209
 4305 092c 0002     		.2byte	0x200
 4306 092e 16       		.uleb128 0x16
 4307 092f 77060000 		.4byte	.LASF210
 4308 0933 0003     		.2byte	0x300
 4309 0935 16       		.uleb128 0x16
 4310 0936 61140000 		.4byte	.LASF211
 4311 093a 0004     		.2byte	0x400
 4312 093c 16       		.uleb128 0x16
 4313 093d E8040000 		.4byte	.LASF212
 4314 0941 0008     		.2byte	0x800
 4315 0943 16       		.uleb128 0x16
 4316 0944 03110000 		.4byte	.LASF213
 4317 0948 0010     		.2byte	0x1000
 4318 094a 16       		.uleb128 0x16
 4319 094b 371B0000 		.4byte	.LASF214
ARM GAS  C:\Users\haske\AppData\Local\Temp\ccVRp2Ta.s 			page 108


 4320 094f 0020     		.2byte	0x2000
 4321 0951 16       		.uleb128 0x16
 4322 0952 590F0000 		.4byte	.LASF215
 4323 0956 0040     		.2byte	0x4000
 4324 0958 16       		.uleb128 0x16
 4325 0959 43120000 		.4byte	.LASF216
 4326 095d 0080     		.2byte	0x8000
 4327 095f 1D       		.uleb128 0x1d
 4328 0960 B2040000 		.4byte	.LASF217
 4329 0964 00000100 		.4byte	0x10000
 4330 0968 1D       		.uleb128 0x1d
 4331 0969 FE140000 		.4byte	.LASF218
 4332 096d 00000200 		.4byte	0x20000
 4333 0971 1D       		.uleb128 0x1d
 4334 0972 C20D0000 		.4byte	.LASF219
 4335 0976 00000400 		.4byte	0x40000
 4336 097a 1D       		.uleb128 0x1d
 4337 097b 490E0000 		.4byte	.LASF220
 4338 097f 00000800 		.4byte	0x80000
 4339 0983 1D       		.uleb128 0x1d
 4340 0984 22060000 		.4byte	.LASF221
 4341 0988 00008000 		.4byte	0x800000
 4342 098c 1D       		.uleb128 0x1d
 4343 098d 37060000 		.4byte	.LASF222
 4344 0991 00000001 		.4byte	0x1000000
 4345 0995 1D       		.uleb128 0x1d
 4346 0996 9D060000 		.4byte	.LASF223
 4347 099a 00000002 		.4byte	0x2000000
 4348 099e 1D       		.uleb128 0x1d
 4349 099f B2060000 		.4byte	.LASF224
 4350 09a3 00000004 		.4byte	0x4000000
 4351 09a7 1D       		.uleb128 0x1d
 4352 09a8 6E0C0000 		.4byte	.LASF225
 4353 09ac 00000008 		.4byte	0x8000000
 4354 09b0 1D       		.uleb128 0x1d
 4355 09b1 810C0000 		.4byte	.LASF226
 4356 09b5 00000010 		.4byte	0x10000000
 4357 09b9 1D       		.uleb128 0x1d
 4358 09ba 940C0000 		.4byte	.LASF227
 4359 09be 00000020 		.4byte	0x20000000
 4360 09c2 1D       		.uleb128 0x1d
 4361 09c3 A70C0000 		.4byte	.LASF228
 4362 09c7 00000040 		.4byte	0x40000000
 4363 09cb 00       		.byte	0
 4364 09cc 02       		.uleb128 0x2
 4365 09cd 461E0000 		.4byte	.LASF229
 4366 09d1 0B       		.byte	0xb
 4367 09d2 7D       		.byte	0x7d
 4368 09d3 E4000000 		.4byte	0xe4
 4369 09d7 02       		.uleb128 0x2
 4370 09d8 FE000000 		.4byte	.LASF230
 4371 09dc 0E       		.byte	0xe
 4372 09dd 26       		.byte	0x26
 4373 09de B8000000 		.4byte	0xb8
 4374 09e2 02       		.uleb128 0x2
 4375 09e3 1E160000 		.4byte	.LASF231
 4376 09e7 0E       		.byte	0xe
ARM GAS  C:\Users\haske\AppData\Local\Temp\ccVRp2Ta.s 			page 109


 4377 09e8 30       		.byte	0x30
 4378 09e9 B8000000 		.4byte	0xb8
 4379 09ed 02       		.uleb128 0x2
 4380 09ee 81000000 		.4byte	.LASF232
 4381 09f2 0F       		.byte	0xf
 4382 09f3 25       		.byte	0x25
 4383 09f4 E4000000 		.4byte	0xe4
 4384 09f8 05       		.uleb128 0x5
 4385 09f9 08       		.byte	0x8
 4386 09fa 0F       		.byte	0xf
 4387 09fb 27       		.byte	0x27
 4388 09fc 3A0A0000 		.4byte	0xa3a
 4389 0a00 07       		.uleb128 0x7
 4390 0a01 FC150000 		.4byte	.LASF233
 4391 0a05 0F       		.byte	0xf
 4392 0a06 28       		.byte	0x28
 4393 0a07 3A0A0000 		.4byte	0xa3a
 4394 0a0b 00       		.byte	0
 4395 0a0c 09       		.uleb128 0x9
 4396 0a0d 23200000 		.4byte	.LASF234
 4397 0a11 0F       		.byte	0xf
 4398 0a12 29       		.byte	0x29
 4399 0a13 E4000000 		.4byte	0xe4
 4400 0a17 04       		.byte	0x4
 4401 0a18 18       		.byte	0x18
 4402 0a19 08       		.byte	0x8
 4403 0a1a 04       		.byte	0x4
 4404 0a1b 09       		.uleb128 0x9
 4405 0a1c F0010000 		.4byte	.LASF235
 4406 0a20 0F       		.byte	0xf
 4407 0a21 2A       		.byte	0x2a
 4408 0a22 E4000000 		.4byte	0xe4
 4409 0a26 04       		.byte	0x4
 4410 0a27 01       		.byte	0x1
 4411 0a28 07       		.byte	0x7
 4412 0a29 04       		.byte	0x4
 4413 0a2a 09       		.uleb128 0x9
 4414 0a2b 4E0D0000 		.4byte	.LASF236
 4415 0a2f 0F       		.byte	0xf
 4416 0a30 2B       		.byte	0x2b
 4417 0a31 E4000000 		.4byte	0xe4
 4418 0a35 04       		.byte	0x4
 4419 0a36 01       		.byte	0x1
 4420 0a37 06       		.byte	0x6
 4421 0a38 04       		.byte	0x4
 4422 0a39 00       		.byte	0
 4423 0a3a 0B       		.uleb128 0xb
 4424 0a3b 04       		.byte	0x4
 4425 0a3c AC060000 		.4byte	0x6ac
 4426 0a40 02       		.uleb128 0x2
 4427 0a41 950A0000 		.4byte	.LASF237
 4428 0a45 0F       		.byte	0xf
 4429 0a46 2C       		.byte	0x2c
 4430 0a47 F8090000 		.4byte	0x9f8
 4431 0a4b 0A       		.uleb128 0xa
 4432 0a4c FC170000 		.4byte	.LASF238
 4433 0a50 1C       		.byte	0x1c
ARM GAS  C:\Users\haske\AppData\Local\Temp\ccVRp2Ta.s 			page 110


 4434 0a51 10       		.byte	0x10
 4435 0a52 31       		.byte	0x31
 4436 0a53 D90A0000 		.4byte	0xad9
 4437 0a57 07       		.uleb128 0x7
 4438 0a58 45150000 		.4byte	.LASF239
 4439 0a5c 10       		.byte	0x10
 4440 0a5d 32       		.byte	0x32
 4441 0a5e D90A0000 		.4byte	0xad9
 4442 0a62 00       		.byte	0
 4443 0a63 07       		.uleb128 0x7
 4444 0a64 0F020000 		.4byte	.LASF240
 4445 0a68 10       		.byte	0x10
 4446 0a69 33       		.byte	0x33
 4447 0a6a 7C0B0000 		.4byte	0xb7c
 4448 0a6e 04       		.byte	0x4
 4449 0a6f 07       		.uleb128 0x7
 4450 0a70 081A0000 		.4byte	.LASF241
 4451 0a74 10       		.byte	0x10
 4452 0a75 34       		.byte	0x34
 4453 0a76 7C0B0000 		.4byte	0xb7c
 4454 0a7a 08       		.byte	0x8
 4455 0a7b 07       		.uleb128 0x7
 4456 0a7c 9A1F0000 		.4byte	.LASF41
 4457 0a80 10       		.byte	0x10
 4458 0a81 36       		.byte	0x36
 4459 0a82 DE020000 		.4byte	0x2de
 4460 0a86 0C       		.byte	0xc
 4461 0a87 07       		.uleb128 0x7
 4462 0a88 AB110000 		.4byte	.LASF242
 4463 0a8c 10       		.byte	0x10
 4464 0a8d 38       		.byte	0x38
 4465 0a8e 920B0000 		.4byte	0xb92
 4466 0a92 10       		.byte	0x10
 4467 0a93 07       		.uleb128 0x7
 4468 0a94 B80D0000 		.4byte	.LASF243
 4469 0a98 10       		.byte	0x10
 4470 0a99 3A       		.byte	0x3a
 4471 0a9a F6000000 		.4byte	0xf6
 4472 0a9e 14       		.byte	0x14
 4473 0a9f 07       		.uleb128 0x7
 4474 0aa0 86200000 		.4byte	.LASF244
 4475 0aa4 10       		.byte	0x10
 4476 0aa5 3B       		.byte	0x3b
 4477 0aa6 F6000000 		.4byte	0xf6
 4478 0aaa 16       		.byte	0x16
 4479 0aab 09       		.uleb128 0x9
 4480 0aac 420F0000 		.4byte	.LASF245
 4481 0ab0 10       		.byte	0x10
 4482 0ab1 3C       		.byte	0x3c
 4483 0ab2 E4000000 		.4byte	0xe4
 4484 0ab6 04       		.byte	0x4
 4485 0ab7 02       		.byte	0x2
 4486 0ab8 1E       		.byte	0x1e
 4487 0ab9 18       		.byte	0x18
 4488 0aba 09       		.uleb128 0x9
 4489 0abb 81040000 		.4byte	.LASF246
 4490 0abf 10       		.byte	0x10
ARM GAS  C:\Users\haske\AppData\Local\Temp\ccVRp2Ta.s 			page 111


 4491 0ac0 3D       		.byte	0x3d
 4492 0ac1 E4000000 		.4byte	0xe4
 4493 0ac5 04       		.byte	0x4
 4494 0ac6 02       		.byte	0x2
 4495 0ac7 1C       		.byte	0x1c
 4496 0ac8 18       		.byte	0x18
 4497 0ac9 09       		.uleb128 0x9
 4498 0aca 4C100000 		.4byte	.LASF247
 4499 0ace 10       		.byte	0x10
 4500 0acf 3E       		.byte	0x3e
 4501 0ad0 E4000000 		.4byte	0xe4
 4502 0ad4 04       		.byte	0x4
 4503 0ad5 10       		.byte	0x10
 4504 0ad6 0C       		.byte	0xc
 4505 0ad7 18       		.byte	0x18
 4506 0ad8 00       		.byte	0
 4507 0ad9 0B       		.uleb128 0xb
 4508 0ada 04       		.byte	0x4
 4509 0adb DF0A0000 		.4byte	0xadf
 4510 0adf 0C       		.uleb128 0xc
 4511 0ae0 4B0A0000 		.4byte	0xa4b
 4512 0ae4 0B       		.uleb128 0xb
 4513 0ae5 04       		.byte	0x4
 4514 0ae6 EA0A0000 		.4byte	0xaea
 4515 0aea 0A       		.uleb128 0xa
 4516 0aeb C4110000 		.4byte	.LASF248
 4517 0aef 1C       		.byte	0x1c
 4518 0af0 11       		.byte	0x11
 4519 0af1 5E       		.byte	0x5e
 4520 0af2 6C0B0000 		.4byte	0xb6c
 4521 0af6 07       		.uleb128 0x7
 4522 0af7 2A0F0000 		.4byte	.LASF249
 4523 0afb 11       		.byte	0x11
 4524 0afc 5F       		.byte	0x5f
 4525 0afd B8060000 		.4byte	0x6b8
 4526 0b01 00       		.byte	0
 4527 0b02 07       		.uleb128 0x7
 4528 0b03 A01B0000 		.4byte	.LASF250
 4529 0b07 11       		.byte	0x11
 4530 0b08 60       		.byte	0x60
 4531 0b09 B8060000 		.4byte	0x6b8
 4532 0b0d 04       		.byte	0x4
 4533 0b0e 07       		.uleb128 0x7
 4534 0b0f BE190000 		.4byte	.LASF251
 4535 0b13 11       		.byte	0x11
 4536 0b14 61       		.byte	0x61
 4537 0b15 CA0C0000 		.4byte	0xcca
 4538 0b19 08       		.byte	0x8
 4539 0b1a 07       		.uleb128 0x7
 4540 0b1b 9A1F0000 		.4byte	.LASF41
 4541 0b1f 11       		.byte	0x11
 4542 0b20 62       		.byte	0x62
 4543 0b21 DE020000 		.4byte	0x2de
 4544 0b25 0C       		.byte	0xc
 4545 0b26 07       		.uleb128 0x7
 4546 0b27 240F0000 		.4byte	.LASF252
 4547 0b2b 11       		.byte	0x11
ARM GAS  C:\Users\haske\AppData\Local\Temp\ccVRp2Ta.s 			page 112


 4548 0b2c 63       		.byte	0x63
 4549 0b2d DE020000 		.4byte	0x2de
 4550 0b31 10       		.byte	0x10
 4551 0b32 07       		.uleb128 0x7
 4552 0b33 DC200000 		.4byte	.LASF253
 4553 0b37 11       		.byte	0x11
 4554 0b38 64       		.byte	0x64
 4555 0b39 E40A0000 		.4byte	0xae4
 4556 0b3d 14       		.byte	0x14
 4557 0b3e 09       		.uleb128 0x9
 4558 0b3f F5080000 		.4byte	.LASF254
 4559 0b43 11       		.byte	0x11
 4560 0b44 65       		.byte	0x65
 4561 0b45 B8000000 		.4byte	0xb8
 4562 0b49 01       		.byte	0x1
 4563 0b4a 01       		.byte	0x1
 4564 0b4b 07       		.byte	0x7
 4565 0b4c 18       		.byte	0x18
 4566 0b4d 09       		.uleb128 0x9
 4567 0b4e CE080000 		.4byte	.LASF255
 4568 0b52 11       		.byte	0x11
 4569 0b53 66       		.byte	0x66
 4570 0b54 B8000000 		.4byte	0xb8
 4571 0b58 01       		.byte	0x1
 4572 0b59 01       		.byte	0x1
 4573 0b5a 06       		.byte	0x6
 4574 0b5b 18       		.byte	0x18
 4575 0b5c 09       		.uleb128 0x9
 4576 0b5d C8140000 		.4byte	.LASF256
 4577 0b61 11       		.byte	0x11
 4578 0b62 67       		.byte	0x67
 4579 0b63 B8000000 		.4byte	0xb8
 4580 0b67 01       		.byte	0x1
 4581 0b68 01       		.byte	0x1
 4582 0b69 05       		.byte	0x5
 4583 0b6a 18       		.byte	0x18
 4584 0b6b 00       		.byte	0
 4585 0b6c 1E       		.uleb128 0x1e
 4586 0b6d 7C0B0000 		.4byte	0xb7c
 4587 0b71 0E       		.uleb128 0xe
 4588 0b72 D90A0000 		.4byte	0xad9
 4589 0b76 0E       		.uleb128 0xe
 4590 0b77 B8060000 		.4byte	0x6b8
 4591 0b7b 00       		.byte	0
 4592 0b7c 0B       		.uleb128 0xb
 4593 0b7d 04       		.byte	0x4
 4594 0b7e 6C0B0000 		.4byte	0xb6c
 4595 0b82 1E       		.uleb128 0x1e
 4596 0b83 920B0000 		.4byte	0xb92
 4597 0b87 0E       		.uleb128 0xe
 4598 0b88 D90A0000 		.4byte	0xad9
 4599 0b8c 0E       		.uleb128 0xe
 4600 0b8d E40A0000 		.4byte	0xae4
 4601 0b91 00       		.byte	0
 4602 0b92 0B       		.uleb128 0xb
 4603 0b93 04       		.byte	0x4
 4604 0b94 820B0000 		.4byte	0xb82
ARM GAS  C:\Users\haske\AppData\Local\Temp\ccVRp2Ta.s 			page 113


 4605 0b98 02       		.uleb128 0x2
 4606 0b99 F60C0000 		.4byte	.LASF257
 4607 0b9d 10       		.byte	0x10
 4608 0b9e 3F       		.byte	0x3f
 4609 0b9f 4B0A0000 		.4byte	0xa4b
 4610 0ba3 14       		.uleb128 0x14
 4611 0ba4 01       		.byte	0x1
 4612 0ba5 42000000 		.4byte	0x42
 4613 0ba9 11       		.byte	0x11
 4614 0baa 20       		.byte	0x20
 4615 0bab CA0C0000 		.4byte	0xcca
 4616 0baf 15       		.uleb128 0x15
 4617 0bb0 3A040000 		.4byte	.LASF258
 4618 0bb4 00       		.byte	0
 4619 0bb5 15       		.uleb128 0x15
 4620 0bb6 90160000 		.4byte	.LASF259
 4621 0bba 01       		.byte	0x1
 4622 0bbb 15       		.uleb128 0x15
 4623 0bbc EC140000 		.4byte	.LASF260
 4624 0bc0 02       		.byte	0x2
 4625 0bc1 15       		.uleb128 0x15
 4626 0bc2 A41F0000 		.4byte	.LASF261
 4627 0bc6 03       		.byte	0x3
 4628 0bc7 15       		.uleb128 0x15
 4629 0bc8 50150000 		.4byte	.LASF262
 4630 0bcc 04       		.byte	0x4
 4631 0bcd 15       		.uleb128 0x15
 4632 0bce 7E020000 		.4byte	.LASF263
 4633 0bd2 05       		.byte	0x5
 4634 0bd3 15       		.uleb128 0x15
 4635 0bd4 67150000 		.4byte	.LASF264
 4636 0bd8 06       		.byte	0x6
 4637 0bd9 15       		.uleb128 0x15
 4638 0bda BA0C0000 		.4byte	.LASF265
 4639 0bde 07       		.byte	0x7
 4640 0bdf 15       		.uleb128 0x15
 4641 0be0 39210000 		.4byte	.LASF266
 4642 0be4 08       		.byte	0x8
 4643 0be5 15       		.uleb128 0x15
 4644 0be6 6D1F0000 		.4byte	.LASF267
 4645 0bea 09       		.byte	0x9
 4646 0beb 15       		.uleb128 0x15
 4647 0bec 531D0000 		.4byte	.LASF268
 4648 0bf0 0A       		.byte	0xa
 4649 0bf1 15       		.uleb128 0x15
 4650 0bf2 15120000 		.4byte	.LASF269
 4651 0bf6 0B       		.byte	0xb
 4652 0bf7 15       		.uleb128 0x15
 4653 0bf8 6D020000 		.4byte	.LASF270
 4654 0bfc 0C       		.byte	0xc
 4655 0bfd 15       		.uleb128 0x15
 4656 0bfe FD1E0000 		.4byte	.LASF271
 4657 0c02 0D       		.byte	0xd
 4658 0c03 15       		.uleb128 0x15
 4659 0c04 2C200000 		.4byte	.LASF272
 4660 0c08 0E       		.byte	0xe
 4661 0c09 15       		.uleb128 0x15
ARM GAS  C:\Users\haske\AppData\Local\Temp\ccVRp2Ta.s 			page 114


 4662 0c0a CD1C0000 		.4byte	.LASF273
 4663 0c0e 0F       		.byte	0xf
 4664 0c0f 15       		.uleb128 0x15
 4665 0c10 AE0E0000 		.4byte	.LASF274
 4666 0c14 10       		.byte	0x10
 4667 0c15 15       		.uleb128 0x15
 4668 0c16 FB090000 		.4byte	.LASF275
 4669 0c1a 11       		.byte	0x11
 4670 0c1b 15       		.uleb128 0x15
 4671 0c1c 89090000 		.4byte	.LASF276
 4672 0c20 12       		.byte	0x12
 4673 0c21 15       		.uleb128 0x15
 4674 0c22 26090000 		.4byte	.LASF277
 4675 0c26 13       		.byte	0x13
 4676 0c27 15       		.uleb128 0x15
 4677 0c28 5A000000 		.4byte	.LASF278
 4678 0c2c 14       		.byte	0x14
 4679 0c2d 15       		.uleb128 0x15
 4680 0c2e 04070000 		.4byte	.LASF279
 4681 0c32 15       		.byte	0x15
 4682 0c33 15       		.uleb128 0x15
 4683 0c34 1B0D0000 		.4byte	.LASF280
 4684 0c38 16       		.byte	0x16
 4685 0c39 15       		.uleb128 0x15
 4686 0c3a D3130000 		.4byte	.LASF281
 4687 0c3e 17       		.byte	0x17
 4688 0c3f 15       		.uleb128 0x15
 4689 0c40 F61D0000 		.4byte	.LASF282
 4690 0c44 18       		.byte	0x18
 4691 0c45 15       		.uleb128 0x15
 4692 0c46 581B0000 		.4byte	.LASF283
 4693 0c4a 19       		.byte	0x19
 4694 0c4b 15       		.uleb128 0x15
 4695 0c4c 741B0000 		.4byte	.LASF284
 4696 0c50 1A       		.byte	0x1a
 4697 0c51 15       		.uleb128 0x15
 4698 0c52 44050000 		.4byte	.LASF285
 4699 0c56 1B       		.byte	0x1b
 4700 0c57 15       		.uleb128 0x15
 4701 0c58 4A140000 		.4byte	.LASF286
 4702 0c5c 1C       		.byte	0x1c
 4703 0c5d 15       		.uleb128 0x15
 4704 0c5e 25010000 		.4byte	.LASF287
 4705 0c62 1D       		.byte	0x1d
 4706 0c63 15       		.uleb128 0x15
 4707 0c64 3B100000 		.4byte	.LASF288
 4708 0c68 1E       		.byte	0x1e
 4709 0c69 15       		.uleb128 0x15
 4710 0c6a E71D0000 		.4byte	.LASF289
 4711 0c6e 1F       		.byte	0x1f
 4712 0c6f 15       		.uleb128 0x15
 4713 0c70 A1160000 		.4byte	.LASF290
 4714 0c74 20       		.byte	0x20
 4715 0c75 15       		.uleb128 0x15
 4716 0c76 9A130000 		.4byte	.LASF291
 4717 0c7a 21       		.byte	0x21
 4718 0c7b 15       		.uleb128 0x15
ARM GAS  C:\Users\haske\AppData\Local\Temp\ccVRp2Ta.s 			page 115


 4719 0c7c C3010000 		.4byte	.LASF292
 4720 0c80 22       		.byte	0x22
 4721 0c81 15       		.uleb128 0x15
 4722 0c82 AA020000 		.4byte	.LASF293
 4723 0c86 23       		.byte	0x23
 4724 0c87 15       		.uleb128 0x15
 4725 0c88 6C100000 		.4byte	.LASF294
 4726 0c8c 24       		.byte	0x24
 4727 0c8d 15       		.uleb128 0x15
 4728 0c8e 91200000 		.4byte	.LASF295
 4729 0c92 25       		.byte	0x25
 4730 0c93 15       		.uleb128 0x15
 4731 0c94 AD140000 		.4byte	.LASF296
 4732 0c98 26       		.byte	0x26
 4733 0c99 15       		.uleb128 0x15
 4734 0c9a 610A0000 		.4byte	.LASF297
 4735 0c9e 27       		.byte	0x27
 4736 0c9f 15       		.uleb128 0x15
 4737 0ca0 74170000 		.4byte	.LASF298
 4738 0ca4 28       		.byte	0x28
 4739 0ca5 15       		.uleb128 0x15
 4740 0ca6 541E0000 		.4byte	.LASF299
 4741 0caa 29       		.byte	0x29
 4742 0cab 15       		.uleb128 0x15
 4743 0cac D01D0000 		.4byte	.LASF300
 4744 0cb0 2A       		.byte	0x2a
 4745 0cb1 15       		.uleb128 0x15
 4746 0cb2 B51E0000 		.4byte	.LASF301
 4747 0cb6 2B       		.byte	0x2b
 4748 0cb7 15       		.uleb128 0x15
 4749 0cb8 ED060000 		.4byte	.LASF302
 4750 0cbc 2C       		.byte	0x2c
 4751 0cbd 15       		.uleb128 0x15
 4752 0cbe 3C170000 		.4byte	.LASF303
 4753 0cc2 2D       		.byte	0x2d
 4754 0cc3 15       		.uleb128 0x15
 4755 0cc4 C3190000 		.4byte	.LASF304
 4756 0cc8 80       		.byte	0x80
 4757 0cc9 00       		.byte	0
 4758 0cca 02       		.uleb128 0x2
 4759 0ccb B4110000 		.4byte	.LASF305
 4760 0ccf 11       		.byte	0x11
 4761 0cd0 5C       		.byte	0x5c
 4762 0cd1 A30B0000 		.4byte	0xba3
 4763 0cd5 02       		.uleb128 0x2
 4764 0cd6 E8170000 		.4byte	.LASF306
 4765 0cda 0D       		.byte	0xd
 4766 0cdb 34       		.byte	0x34
 4767 0cdc E00C0000 		.4byte	0xce0
 4768 0ce0 0B       		.uleb128 0xb
 4769 0ce1 04       		.byte	0x4
 4770 0ce2 E60C0000 		.4byte	0xce6
 4771 0ce6 1E       		.uleb128 0x1e
 4772 0ce7 F10C0000 		.4byte	0xcf1
 4773 0ceb 0E       		.uleb128 0xe
 4774 0cec 6F080000 		.4byte	0x86f
 4775 0cf0 00       		.byte	0
ARM GAS  C:\Users\haske\AppData\Local\Temp\ccVRp2Ta.s 			page 116


 4776 0cf1 02       		.uleb128 0x2
 4777 0cf2 5B0C0000 		.4byte	.LASF307
 4778 0cf6 0D       		.byte	0xd
 4779 0cf7 35       		.byte	0x35
 4780 0cf8 FC0C0000 		.4byte	0xcfc
 4781 0cfc 0B       		.uleb128 0xb
 4782 0cfd 04       		.byte	0x4
 4783 0cfe 020D0000 		.4byte	0xd02
 4784 0d02 1E       		.uleb128 0x1e
 4785 0d03 120D0000 		.4byte	0xd12
 4786 0d07 0E       		.uleb128 0xe
 4787 0d08 6F080000 		.4byte	0x86f
 4788 0d0c 0E       		.uleb128 0xe
 4789 0d0d 9F020000 		.4byte	0x29f
 4790 0d11 00       		.byte	0
 4791 0d12 02       		.uleb128 0x2
 4792 0d13 68070000 		.4byte	.LASF308
 4793 0d17 0D       		.byte	0xd
 4794 0d18 4E       		.byte	0x4e
 4795 0d19 EA070000 		.4byte	0x7ea
 4796 0d1d 05       		.uleb128 0x5
 4797 0d1e 1C       		.byte	0x1c
 4798 0d1f 0B       		.byte	0xb
 4799 0d20 9B       		.byte	0x9b
 4800 0d21 D40D0000 		.4byte	0xdd4
 4801 0d25 07       		.uleb128 0x7
 4802 0d26 5E120000 		.4byte	.LASF309
 4803 0d2a 0B       		.byte	0xb
 4804 0d2b 9C       		.byte	0x9c
 4805 0d2c E4070000 		.4byte	0x7e4
 4806 0d30 00       		.byte	0
 4807 0d31 07       		.uleb128 0x7
 4808 0d32 7B0E0000 		.4byte	.LASF310
 4809 0d36 0B       		.byte	0xb
 4810 0d37 9D       		.byte	0x9d
 4811 0d38 E4000000 		.4byte	0xe4
 4812 0d3c 04       		.byte	0x4
 4813 0d3d 07       		.uleb128 0x7
 4814 0d3e 830B0000 		.4byte	.LASF311
 4815 0d42 0B       		.byte	0xb
 4816 0d43 9E       		.byte	0x9e
 4817 0d44 D40D0000 		.4byte	0xdd4
 4818 0d48 08       		.byte	0x8
 4819 0d49 07       		.uleb128 0x7
 4820 0d4a C20A0000 		.4byte	.LASF312
 4821 0d4e 0B       		.byte	0xb
 4822 0d4f A0       		.byte	0xa0
 4823 0d50 DF0D0000 		.4byte	0xddf
 4824 0d54 0C       		.byte	0xc
 4825 0d55 07       		.uleb128 0x7
 4826 0d56 AC0B0000 		.4byte	.LASF313
 4827 0d5a 0B       		.byte	0xb
 4828 0d5b A1       		.byte	0xa1
 4829 0d5c 1E010000 		.4byte	0x11e
 4830 0d60 10       		.byte	0x10
 4831 0d61 07       		.uleb128 0x7
 4832 0d62 1E020000 		.4byte	.LASF314
ARM GAS  C:\Users\haske\AppData\Local\Temp\ccVRp2Ta.s 			page 117


 4833 0d66 0B       		.byte	0xb
 4834 0d67 A3       		.byte	0xa3
 4835 0d68 F6000000 		.4byte	0xf6
 4836 0d6c 14       		.byte	0x14
 4837 0d6d 07       		.uleb128 0x7
 4838 0d6e 4D0C0000 		.4byte	.LASF315
 4839 0d72 0B       		.byte	0xb
 4840 0d73 A4       		.byte	0xa4
 4841 0d74 F6000000 		.4byte	0xf6
 4842 0d78 16       		.byte	0x16
 4843 0d79 09       		.uleb128 0x9
 4844 0d7a 03080000 		.4byte	.LASF316
 4845 0d7e 0B       		.byte	0xb
 4846 0d7f A6       		.byte	0xa6
 4847 0d80 D7090000 		.4byte	0x9d7
 4848 0d84 01       		.byte	0x1
 4849 0d85 02       		.byte	0x2
 4850 0d86 06       		.byte	0x6
 4851 0d87 18       		.byte	0x18
 4852 0d88 09       		.uleb128 0x9
 4853 0d89 A8010000 		.4byte	.LASF317
 4854 0d8d 0B       		.byte	0xb
 4855 0d8e A7       		.byte	0xa7
 4856 0d8f E2090000 		.4byte	0x9e2
 4857 0d93 01       		.byte	0x1
 4858 0d94 02       		.byte	0x2
 4859 0d95 04       		.byte	0x4
 4860 0d96 18       		.byte	0x18
 4861 0d97 09       		.uleb128 0x9
 4862 0d98 E80E0000 		.4byte	.LASF318
 4863 0d9c 0B       		.byte	0xb
 4864 0d9d A8       		.byte	0xa8
 4865 0d9e E2090000 		.4byte	0x9e2
 4866 0da2 01       		.byte	0x1
 4867 0da3 02       		.byte	0x2
 4868 0da4 02       		.byte	0x2
 4869 0da5 18       		.byte	0x18
 4870 0da6 09       		.uleb128 0x9
 4871 0da7 76040000 		.4byte	.LASF319
 4872 0dab 0B       		.byte	0xb
 4873 0dac A9       		.byte	0xa9
 4874 0dad 69010000 		.4byte	0x169
 4875 0db1 01       		.byte	0x1
 4876 0db2 04       		.byte	0x4
 4877 0db3 04       		.byte	0x4
 4878 0db4 19       		.byte	0x19
 4879 0db5 09       		.uleb128 0x9
 4880 0db6 C2210000 		.4byte	.LASF320
 4881 0dba 0B       		.byte	0xb
 4882 0dbb AA       		.byte	0xaa
 4883 0dbc B8000000 		.4byte	0xb8
 4884 0dc0 01       		.byte	0x1
 4885 0dc1 06       		.byte	0x6
 4886 0dc2 02       		.byte	0x2
 4887 0dc3 1A       		.byte	0x1a
 4888 0dc4 09       		.uleb128 0x9
 4889 0dc5 DC0B0000 		.4byte	.LASF321
ARM GAS  C:\Users\haske\AppData\Local\Temp\ccVRp2Ta.s 			page 118


 4890 0dc9 0B       		.byte	0xb
 4891 0dca AB       		.byte	0xab
 4892 0dcb B8000000 		.4byte	0xb8
 4893 0dcf 01       		.byte	0x1
 4894 0dd0 02       		.byte	0x2
 4895 0dd1 00       		.byte	0
 4896 0dd2 1A       		.byte	0x1a
 4897 0dd3 00       		.byte	0
 4898 0dd4 0B       		.uleb128 0xb
 4899 0dd5 04       		.byte	0x4
 4900 0dd6 120D0000 		.4byte	0xd12
 4901 0dda 1F       		.uleb128 0x1f
 4902 0ddb D61F0000 		.4byte	.LASF492
 4903 0ddf 0B       		.uleb128 0xb
 4904 0de0 04       		.byte	0x4
 4905 0de1 DA0D0000 		.4byte	0xdda
 4906 0de5 02       		.uleb128 0x2
 4907 0de6 73070000 		.4byte	.LASF322
 4908 0dea 0B       		.byte	0xb
 4909 0deb AC       		.byte	0xac
 4910 0dec 1D0D0000 		.4byte	0xd1d
 4911 0df0 0B       		.uleb128 0xb
 4912 0df1 04       		.byte	0x4
 4913 0df2 F60D0000 		.4byte	0xdf6
 4914 0df6 0C       		.uleb128 0xc
 4915 0df7 980B0000 		.4byte	0xb98
 4916 0dfb 0B       		.uleb128 0xb
 4917 0dfc 04       		.byte	0x4
 4918 0dfd E50D0000 		.4byte	0xde5
 4919 0e01 0B       		.uleb128 0xb
 4920 0e02 04       		.byte	0x4
 4921 0e03 400A0000 		.4byte	0xa40
 4922 0e07 02       		.uleb128 0x2
 4923 0e08 D7190000 		.4byte	.LASF323
 4924 0e0c 0B       		.byte	0xb
 4925 0e0d BF       		.byte	0xbf
 4926 0e0e BE060000 		.4byte	0x6be
 4927 0e12 14       		.uleb128 0x14
 4928 0e13 01       		.byte	0x1
 4929 0e14 42000000 		.4byte	0x42
 4930 0e18 04       		.byte	0x4
 4931 0e19 25       		.byte	0x25
 4932 0e1a 430E0000 		.4byte	0xe43
 4933 0e1e 15       		.uleb128 0x15
 4934 0e1f AE210000 		.4byte	.LASF324
 4935 0e23 00       		.byte	0
 4936 0e24 15       		.uleb128 0x15
 4937 0e25 00000000 		.4byte	.LASF325
 4938 0e29 01       		.byte	0x1
 4939 0e2a 15       		.uleb128 0x15
 4940 0e2b 311E0000 		.4byte	.LASF326
 4941 0e2f 02       		.byte	0x2
 4942 0e30 15       		.uleb128 0x15
 4943 0e31 B8030000 		.4byte	.LASF327
 4944 0e35 03       		.byte	0x3
 4945 0e36 15       		.uleb128 0x15
 4946 0e37 7A110000 		.4byte	.LASF328
ARM GAS  C:\Users\haske\AppData\Local\Temp\ccVRp2Ta.s 			page 119


 4947 0e3b 04       		.byte	0x4
 4948 0e3c 15       		.uleb128 0x15
 4949 0e3d D11B0000 		.4byte	.LASF329
 4950 0e41 05       		.byte	0x5
 4951 0e42 00       		.byte	0
 4952 0e43 02       		.uleb128 0x2
 4953 0e44 211E0000 		.4byte	.LASF330
 4954 0e48 04       		.byte	0x4
 4955 0e49 2C       		.byte	0x2c
 4956 0e4a 120E0000 		.4byte	0xe12
 4957 0e4e 14       		.uleb128 0x14
 4958 0e4f 01       		.byte	0x1
 4959 0e50 42000000 		.4byte	0x42
 4960 0e54 04       		.byte	0x4
 4961 0e55 2E       		.byte	0x2e
 4962 0e56 8B0E0000 		.4byte	0xe8b
 4963 0e5a 15       		.uleb128 0x15
 4964 0e5b 11060000 		.4byte	.LASF331
 4965 0e5f 00       		.byte	0
 4966 0e60 15       		.uleb128 0x15
 4967 0e61 E0190000 		.4byte	.LASF332
 4968 0e65 01       		.byte	0x1
 4969 0e66 15       		.uleb128 0x15
 4970 0e67 CD1E0000 		.4byte	.LASF333
 4971 0e6b 04       		.byte	0x4
 4972 0e6c 15       		.uleb128 0x15
 4973 0e6d 80120000 		.4byte	.LASF334
 4974 0e71 08       		.byte	0x8
 4975 0e72 15       		.uleb128 0x15
 4976 0e73 9D0F0000 		.4byte	.LASF335
 4977 0e77 0C       		.byte	0xc
 4978 0e78 15       		.uleb128 0x15
 4979 0e79 9C1E0000 		.4byte	.LASF336
 4980 0e7d 05       		.byte	0x5
 4981 0e7e 15       		.uleb128 0x15
 4982 0e7f 361F0000 		.4byte	.LASF337
 4983 0e83 09       		.byte	0x9
 4984 0e84 15       		.uleb128 0x15
 4985 0e85 C5090000 		.4byte	.LASF338
 4986 0e89 0D       		.byte	0xd
 4987 0e8a 00       		.byte	0
 4988 0e8b 02       		.uleb128 0x2
 4989 0e8c AF190000 		.4byte	.LASF339
 4990 0e90 04       		.byte	0x4
 4991 0e91 37       		.byte	0x37
 4992 0e92 4E0E0000 		.4byte	0xe4e
 4993 0e96 05       		.uleb128 0x5
 4994 0e97 04       		.byte	0x4
 4995 0e98 02       		.byte	0x2
 4996 0e99 14       		.byte	0x14
 4997 0e9a F00E0000 		.4byte	0xef0
 4998 0e9e 07       		.uleb128 0x7
 4999 0e9f 0A130000 		.4byte	.LASF340
 5000 0ea3 02       		.byte	0x2
 5001 0ea4 15       		.byte	0x15
 5002 0ea5 430E0000 		.4byte	0xe43
 5003 0ea9 00       		.byte	0
ARM GAS  C:\Users\haske\AppData\Local\Temp\ccVRp2Ta.s 			page 120


 5004 0eaa 07       		.uleb128 0x7
 5005 0eab 4A160000 		.4byte	.LASF341
 5006 0eaf 02       		.byte	0x2
 5007 0eb0 16       		.byte	0x16
 5008 0eb1 430E0000 		.4byte	0xe43
 5009 0eb5 01       		.byte	0x1
 5010 0eb6 07       		.uleb128 0x7
 5011 0eb7 7D140000 		.4byte	.LASF342
 5012 0ebb 02       		.byte	0x2
 5013 0ebc 17       		.byte	0x17
 5014 0ebd 430E0000 		.4byte	0xe43
 5015 0ec1 02       		.byte	0x2
 5016 0ec2 08       		.uleb128 0x8
 5017 0ec3 726F7700 		.ascii	"row\000"
 5018 0ec7 02       		.byte	0x2
 5019 0ec8 18       		.byte	0x18
 5020 0ec9 B8000000 		.4byte	0xb8
 5021 0ecd 01       		.byte	0x1
 5022 0ece 01       		.byte	0x1
 5023 0ecf 07       		.byte	0x7
 5024 0ed0 03       		.byte	0x3
 5025 0ed1 09       		.uleb128 0x9
 5026 0ed2 36180000 		.4byte	.LASF188
 5027 0ed6 02       		.byte	0x2
 5028 0ed7 19       		.byte	0x19
 5029 0ed8 B8000000 		.4byte	0xb8
 5030 0edc 01       		.byte	0x1
 5031 0edd 01       		.byte	0x1
 5032 0ede 06       		.byte	0x6
 5033 0edf 03       		.byte	0x3
 5034 0ee0 08       		.uleb128 0x8
 5035 0ee1 72657600 		.ascii	"rev\000"
 5036 0ee5 02       		.byte	0x2
 5037 0ee6 1A       		.byte	0x1a
 5038 0ee7 B8000000 		.4byte	0xb8
 5039 0eeb 01       		.byte	0x1
 5040 0eec 01       		.byte	0x1
 5041 0eed 05       		.byte	0x5
 5042 0eee 03       		.byte	0x3
 5043 0eef 00       		.byte	0
 5044 0ef0 02       		.uleb128 0x2
 5045 0ef1 F61E0000 		.4byte	.LASF343
 5046 0ef5 02       		.byte	0x2
 5047 0ef6 1B       		.byte	0x1b
 5048 0ef7 960E0000 		.4byte	0xe96
 5049 0efb 05       		.uleb128 0x5
 5050 0efc 14       		.byte	0x14
 5051 0efd 02       		.byte	0x2
 5052 0efe 1D       		.byte	0x1d
 5053 0eff 4F0F0000 		.4byte	0xf4f
 5054 0f03 07       		.uleb128 0x7
 5055 0f04 53170000 		.4byte	.LASF344
 5056 0f08 02       		.byte	0x2
 5057 0f09 1E       		.byte	0x1e
 5058 0f0a 4F0F0000 		.4byte	0xf4f
 5059 0f0e 00       		.byte	0
 5060 0f0f 07       		.uleb128 0x7
ARM GAS  C:\Users\haske\AppData\Local\Temp\ccVRp2Ta.s 			page 121


 5061 0f10 12010000 		.4byte	.LASF345
 5062 0f14 02       		.byte	0x2
 5063 0f15 1F       		.byte	0x1f
 5064 0f16 F6000000 		.4byte	0xf6
 5065 0f1a 04       		.byte	0x4
 5066 0f1b 07       		.uleb128 0x7
 5067 0f1c E20F0000 		.4byte	.LASF346
 5068 0f20 02       		.byte	0x2
 5069 0f21 20       		.byte	0x20
 5070 0f22 F6000000 		.4byte	0xf6
 5071 0f26 06       		.byte	0x6
 5072 0f27 07       		.uleb128 0x7
 5073 0f28 151F0000 		.4byte	.LASF347
 5074 0f2c 02       		.byte	0x2
 5075 0f2d 21       		.byte	0x21
 5076 0f2e F6000000 		.4byte	0xf6
 5077 0f32 08       		.byte	0x8
 5078 0f33 07       		.uleb128 0x7
 5079 0f34 2B180000 		.4byte	.LASF348
 5080 0f38 02       		.byte	0x2
 5081 0f39 22       		.byte	0x22
 5082 0f3a E4000000 		.4byte	0xe4
 5083 0f3e 0C       		.byte	0xc
 5084 0f3f 09       		.uleb128 0x9
 5085 0f40 F5020000 		.4byte	.LASF349
 5086 0f44 02       		.byte	0x2
 5087 0f45 23       		.byte	0x23
 5088 0f46 E4000000 		.4byte	0xe4
 5089 0f4a 04       		.byte	0x4
 5090 0f4b 01       		.byte	0x1
 5091 0f4c 1F       		.byte	0x1f
 5092 0f4d 10       		.byte	0x10
 5093 0f4e 00       		.byte	0
 5094 0f4f 0B       		.uleb128 0xb
 5095 0f50 04       		.byte	0x4
 5096 0f51 070E0000 		.4byte	0xe07
 5097 0f55 02       		.uleb128 0x2
 5098 0f56 5C200000 		.4byte	.LASF350
 5099 0f5a 02       		.byte	0x2
 5100 0f5b 24       		.byte	0x24
 5101 0f5c FB0E0000 		.4byte	0xefb
 5102 0f60 05       		.uleb128 0x5
 5103 0f61 18       		.byte	0x18
 5104 0f62 02       		.byte	0x2
 5105 0f63 26       		.byte	0x26
 5106 0f64 C00F0000 		.4byte	0xfc0
 5107 0f68 07       		.uleb128 0x7
 5108 0f69 9B0B0000 		.4byte	.LASF351
 5109 0f6d 02       		.byte	0x2
 5110 0f6e 27       		.byte	0x27
 5111 0f6f F6000000 		.4byte	0xf6
 5112 0f73 00       		.byte	0
 5113 0f74 07       		.uleb128 0x7
 5114 0f75 B0050000 		.4byte	.LASF352
 5115 0f79 02       		.byte	0x2
 5116 0f7a 28       		.byte	0x28
 5117 0f7b F6000000 		.4byte	0xf6
ARM GAS  C:\Users\haske\AppData\Local\Temp\ccVRp2Ta.s 			page 122


 5118 0f7f 02       		.byte	0x2
 5119 0f80 07       		.uleb128 0x7
 5120 0f81 901D0000 		.4byte	.LASF353
 5121 0f85 02       		.byte	0x2
 5122 0f86 29       		.byte	0x29
 5123 0f87 F6000000 		.4byte	0xf6
 5124 0f8b 04       		.byte	0x4
 5125 0f8c 07       		.uleb128 0x7
 5126 0f8d 6C160000 		.4byte	.LASF354
 5127 0f91 02       		.byte	0x2
 5128 0f92 2A       		.byte	0x2a
 5129 0f93 E4000000 		.4byte	0xe4
 5130 0f97 08       		.byte	0x8
 5131 0f98 07       		.uleb128 0x7
 5132 0f99 C7060000 		.4byte	.LASF355
 5133 0f9d 02       		.byte	0x2
 5134 0f9e 2B       		.byte	0x2b
 5135 0f9f C00F0000 		.4byte	0xfc0
 5136 0fa3 0C       		.byte	0xc
 5137 0fa4 07       		.uleb128 0x7
 5138 0fa5 70090000 		.4byte	.LASF356
 5139 0fa9 02       		.byte	0x2
 5140 0faa 2C       		.byte	0x2c
 5141 0fab E4000000 		.4byte	0xe4
 5142 0faf 10       		.byte	0x10
 5143 0fb0 09       		.uleb128 0x9
 5144 0fb1 EF050000 		.4byte	.LASF357
 5145 0fb5 02       		.byte	0x2
 5146 0fb6 2D       		.byte	0x2d
 5147 0fb7 E4000000 		.4byte	0xe4
 5148 0fbb 04       		.byte	0x4
 5149 0fbc 01       		.byte	0x1
 5150 0fbd 1F       		.byte	0x1f
 5151 0fbe 14       		.byte	0x14
 5152 0fbf 00       		.byte	0
 5153 0fc0 0B       		.uleb128 0xb
 5154 0fc1 04       		.byte	0x4
 5155 0fc2 550F0000 		.4byte	0xf55
 5156 0fc6 02       		.uleb128 0x2
 5157 0fc7 390D0000 		.4byte	.LASF358
 5158 0fcb 02       		.byte	0x2
 5159 0fcc 2E       		.byte	0x2e
 5160 0fcd 600F0000 		.4byte	0xf60
 5161 0fd1 20       		.uleb128 0x20
 5162 0fd2 88180000 		.4byte	.LASF360
 5163 0fd6 03       		.byte	0x3
 5164 0fd7 13       		.byte	0x13
 5165 0fd8 F6000000 		.4byte	0xf6
 5166 0fdc 03       		.byte	0x3
 5167 0fdd 01100000 		.4byte	0x1001
 5168 0fe1 21       		.uleb128 0x21
 5169 0fe2 6F626A00 		.ascii	"obj\000"
 5170 0fe6 03       		.byte	0x3
 5171 0fe7 13       		.byte	0x13
 5172 0fe8 01100000 		.4byte	0x1001
 5173 0fec 22       		.uleb128 0x22
 5174 0fed D7200000 		.4byte	.LASF359
ARM GAS  C:\Users\haske\AppData\Local\Temp\ccVRp2Ta.s 			page 123


 5175 0ff1 03       		.byte	0x3
 5176 0ff2 13       		.byte	0x13
 5177 0ff3 E4000000 		.4byte	0xe4
 5178 0ff7 23       		.uleb128 0x23
 5179 0ff8 7600     		.ascii	"v\000"
 5180 0ffa 03       		.byte	0x3
 5181 0ffb 15       		.byte	0x15
 5182 0ffc C3030000 		.4byte	0x3c3
 5183 1000 00       		.byte	0
 5184 1001 0B       		.uleb128 0xb
 5185 1002 04       		.byte	0x4
 5186 1003 07100000 		.4byte	0x1007
 5187 1007 0C       		.uleb128 0xc
 5188 1008 BE060000 		.4byte	0x6be
 5189 100c 20       		.uleb128 0x20
 5190 100d B2130000 		.4byte	.LASF361
 5191 1011 03       		.byte	0x3
 5192 1012 01       		.byte	0x1
 5193 1013 F6000000 		.4byte	0xf6
 5194 1017 03       		.byte	0x3
 5195 1018 3C100000 		.4byte	0x103c
 5196 101c 21       		.uleb128 0x21
 5197 101d 6F626A00 		.ascii	"obj\000"
 5198 1021 03       		.byte	0x3
 5199 1022 01       		.byte	0x1
 5200 1023 01100000 		.4byte	0x1001
 5201 1027 22       		.uleb128 0x22
 5202 1028 D7200000 		.4byte	.LASF359
 5203 102c 03       		.byte	0x3
 5204 102d 01       		.byte	0x1
 5205 102e E4000000 		.4byte	0xe4
 5206 1032 23       		.uleb128 0x23
 5207 1033 7600     		.ascii	"v\000"
 5208 1035 03       		.byte	0x3
 5209 1036 03       		.byte	0x3
 5210 1037 C3030000 		.4byte	0x3c3
 5211 103b 00       		.byte	0
 5212 103c 20       		.uleb128 0x20
 5213 103d FA110000 		.4byte	.LASF362
 5214 1041 04       		.byte	0x4
 5215 1042 88       		.byte	0x88
 5216 1043 B8000000 		.4byte	0xb8
 5217 1047 03       		.byte	0x3
 5218 1048 6C100000 		.4byte	0x106c
 5219 104c 21       		.uleb128 0x21
 5220 104d 6F626A00 		.ascii	"obj\000"
 5221 1051 04       		.byte	0x4
 5222 1052 88       		.byte	0x88
 5223 1053 6C100000 		.4byte	0x106c
 5224 1057 22       		.uleb128 0x22
 5225 1058 D7200000 		.4byte	.LASF359
 5226 105c 04       		.byte	0x4
 5227 105d 88       		.byte	0x88
 5228 105e E4000000 		.4byte	0xe4
 5229 1062 23       		.uleb128 0x23
 5230 1063 7600     		.ascii	"v\000"
 5231 1065 04       		.byte	0x4
ARM GAS  C:\Users\haske\AppData\Local\Temp\ccVRp2Ta.s 			page 124


 5232 1066 8A       		.byte	0x8a
 5233 1067 C3030000 		.4byte	0x3c3
 5234 106b 00       		.byte	0
 5235 106c 0B       		.uleb128 0xb
 5236 106d 04       		.byte	0x4
 5237 106e 72100000 		.4byte	0x1072
 5238 1072 0C       		.uleb128 0xc
 5239 1073 070E0000 		.4byte	0xe07
 5240 1077 20       		.uleb128 0x20
 5241 1078 17070000 		.4byte	.LASF363
 5242 107c 03       		.byte	0x3
 5243 107d 07       		.byte	0x7
 5244 107e F6000000 		.4byte	0xf6
 5245 1082 03       		.byte	0x3
 5246 1083 A7100000 		.4byte	0x10a7
 5247 1087 21       		.uleb128 0x21
 5248 1088 6F626A00 		.ascii	"obj\000"
 5249 108c 03       		.byte	0x3
 5250 108d 07       		.byte	0x7
 5251 108e 01100000 		.4byte	0x1001
 5252 1092 22       		.uleb128 0x22
 5253 1093 D7200000 		.4byte	.LASF359
 5254 1097 03       		.byte	0x3
 5255 1098 07       		.byte	0x7
 5256 1099 E4000000 		.4byte	0xe4
 5257 109d 23       		.uleb128 0x23
 5258 109e 7600     		.ascii	"v\000"
 5259 10a0 03       		.byte	0x3
 5260 10a1 09       		.byte	0x9
 5261 10a2 C3030000 		.4byte	0x3c3
 5262 10a6 00       		.byte	0
 5263 10a7 20       		.uleb128 0x20
 5264 10a8 C4100000 		.4byte	.LASF364
 5265 10ac 03       		.byte	0x3
 5266 10ad 19       		.byte	0x19
 5267 10ae F6000000 		.4byte	0xf6
 5268 10b2 03       		.byte	0x3
 5269 10b3 D7100000 		.4byte	0x10d7
 5270 10b7 21       		.uleb128 0x21
 5271 10b8 6F626A00 		.ascii	"obj\000"
 5272 10bc 03       		.byte	0x3
 5273 10bd 19       		.byte	0x19
 5274 10be 01100000 		.4byte	0x1001
 5275 10c2 22       		.uleb128 0x22
 5276 10c3 D7200000 		.4byte	.LASF359
 5277 10c7 03       		.byte	0x3
 5278 10c8 19       		.byte	0x19
 5279 10c9 E4000000 		.4byte	0xe4
 5280 10cd 23       		.uleb128 0x23
 5281 10ce 7600     		.ascii	"v\000"
 5282 10d0 03       		.byte	0x3
 5283 10d1 1B       		.byte	0x1b
 5284 10d2 C3030000 		.4byte	0x3c3
 5285 10d6 00       		.byte	0
 5286 10d7 20       		.uleb128 0x20
 5287 10d8 D5150000 		.4byte	.LASF365
 5288 10dc 03       		.byte	0x3
ARM GAS  C:\Users\haske\AppData\Local\Temp\ccVRp2Ta.s 			page 125


 5289 10dd 0D       		.byte	0xd
 5290 10de F6000000 		.4byte	0xf6
 5291 10e2 03       		.byte	0x3
 5292 10e3 07110000 		.4byte	0x1107
 5293 10e7 21       		.uleb128 0x21
 5294 10e8 6F626A00 		.ascii	"obj\000"
 5295 10ec 03       		.byte	0x3
 5296 10ed 0D       		.byte	0xd
 5297 10ee 01100000 		.4byte	0x1001
 5298 10f2 22       		.uleb128 0x22
 5299 10f3 D7200000 		.4byte	.LASF359
 5300 10f7 03       		.byte	0x3
 5301 10f8 0D       		.byte	0xd
 5302 10f9 E4000000 		.4byte	0xe4
 5303 10fd 23       		.uleb128 0x23
 5304 10fe 7600     		.ascii	"v\000"
 5305 1100 03       		.byte	0x3
 5306 1101 0F       		.byte	0xf
 5307 1102 C3030000 		.4byte	0x3c3
 5308 1106 00       		.byte	0
 5309 1107 20       		.uleb128 0x20
 5310 1108 570D0000 		.4byte	.LASF366
 5311 110c 03       		.byte	0x3
 5312 110d 1F       		.byte	0x1f
 5313 110e F6000000 		.4byte	0xf6
 5314 1112 03       		.byte	0x3
 5315 1113 37110000 		.4byte	0x1137
 5316 1117 21       		.uleb128 0x21
 5317 1118 6F626A00 		.ascii	"obj\000"
 5318 111c 03       		.byte	0x3
 5319 111d 1F       		.byte	0x1f
 5320 111e 01100000 		.4byte	0x1001
 5321 1122 22       		.uleb128 0x22
 5322 1123 D7200000 		.4byte	.LASF359
 5323 1127 03       		.byte	0x3
 5324 1128 1F       		.byte	0x1f
 5325 1129 E4000000 		.4byte	0xe4
 5326 112d 23       		.uleb128 0x23
 5327 112e 7600     		.ascii	"v\000"
 5328 1130 03       		.byte	0x3
 5329 1131 21       		.byte	0x21
 5330 1132 C3030000 		.4byte	0x3c3
 5331 1136 00       		.byte	0
 5332 1137 24       		.uleb128 0x24
 5333 1138 67010000 		.4byte	.LASF367
 5334 113c 03       		.byte	0x3
 5335 113d 2F02     		.2byte	0x22f
 5336 113f 8E030000 		.4byte	0x38e
 5337 1143 03       		.byte	0x3
 5338 1144 6B110000 		.4byte	0x116b
 5339 1148 25       		.uleb128 0x25
 5340 1149 6F626A00 		.ascii	"obj\000"
 5341 114d 03       		.byte	0x3
 5342 114e 2F02     		.2byte	0x22f
 5343 1150 01100000 		.4byte	0x1001
 5344 1154 26       		.uleb128 0x26
 5345 1155 D7200000 		.4byte	.LASF359
ARM GAS  C:\Users\haske\AppData\Local\Temp\ccVRp2Ta.s 			page 126


 5346 1159 03       		.byte	0x3
 5347 115a 2F02     		.2byte	0x22f
 5348 115c E4000000 		.4byte	0xe4
 5349 1160 27       		.uleb128 0x27
 5350 1161 7600     		.ascii	"v\000"
 5351 1163 03       		.byte	0x3
 5352 1164 3102     		.2byte	0x231
 5353 1166 C3030000 		.4byte	0x3c3
 5354 116a 00       		.byte	0
 5355 116b 28       		.uleb128 0x28
 5356 116c 02090000 		.4byte	.LASF493
 5357 1170 01       		.byte	0x1
 5358 1171 6E       		.byte	0x6e
 5359 1172 03       		.byte	0x3
 5360 1173 8E110000 		.4byte	0x118e
 5361 1177 22       		.uleb128 0x22
 5362 1178 88190000 		.4byte	.LASF368
 5363 117c 01       		.byte	0x1
 5364 117d 6E       		.byte	0x6e
 5365 117e 95070000 		.4byte	0x795
 5366 1182 21       		.uleb128 0x21
 5367 1183 73726300 		.ascii	"src\000"
 5368 1187 01       		.byte	0x1
 5369 1188 6E       		.byte	0x6e
 5370 1189 8A070000 		.4byte	0x78a
 5371 118d 00       		.byte	0
 5372 118e 20       		.uleb128 0x20
 5373 118f 3F0B0000 		.4byte	.LASF369
 5374 1193 03       		.byte	0x3
 5375 1194 49       		.byte	0x49
 5376 1195 F6000000 		.4byte	0xf6
 5377 1199 03       		.byte	0x3
 5378 119a BE110000 		.4byte	0x11be
 5379 119e 21       		.uleb128 0x21
 5380 119f 6F626A00 		.ascii	"obj\000"
 5381 11a3 03       		.byte	0x3
 5382 11a4 49       		.byte	0x49
 5383 11a5 01100000 		.4byte	0x1001
 5384 11a9 22       		.uleb128 0x22
 5385 11aa D7200000 		.4byte	.LASF359
 5386 11ae 03       		.byte	0x3
 5387 11af 49       		.byte	0x49
 5388 11b0 E4000000 		.4byte	0xe4
 5389 11b4 23       		.uleb128 0x23
 5390 11b5 7600     		.ascii	"v\000"
 5391 11b7 03       		.byte	0x3
 5392 11b8 4B       		.byte	0x4b
 5393 11b9 C3030000 		.4byte	0x3c3
 5394 11bd 00       		.byte	0
 5395 11be 20       		.uleb128 0x20
 5396 11bf 220B0000 		.4byte	.LASF370
 5397 11c3 03       		.byte	0x3
 5398 11c4 43       		.byte	0x43
 5399 11c5 F6000000 		.4byte	0xf6
 5400 11c9 03       		.byte	0x3
 5401 11ca EE110000 		.4byte	0x11ee
 5402 11ce 21       		.uleb128 0x21
ARM GAS  C:\Users\haske\AppData\Local\Temp\ccVRp2Ta.s 			page 127


 5403 11cf 6F626A00 		.ascii	"obj\000"
 5404 11d3 03       		.byte	0x3
 5405 11d4 43       		.byte	0x43
 5406 11d5 01100000 		.4byte	0x1001
 5407 11d9 22       		.uleb128 0x22
 5408 11da D7200000 		.4byte	.LASF359
 5409 11de 03       		.byte	0x3
 5410 11df 43       		.byte	0x43
 5411 11e0 E4000000 		.4byte	0xe4
 5412 11e4 23       		.uleb128 0x23
 5413 11e5 7600     		.ascii	"v\000"
 5414 11e7 03       		.byte	0x3
 5415 11e8 45       		.byte	0x45
 5416 11e9 C3030000 		.4byte	0x3c3
 5417 11ed 00       		.byte	0
 5418 11ee 20       		.uleb128 0x20
 5419 11ef 66190000 		.4byte	.LASF371
 5420 11f3 04       		.byte	0x4
 5421 11f4 82       		.byte	0x82
 5422 11f5 430E0000 		.4byte	0xe43
 5423 11f9 03       		.byte	0x3
 5424 11fa 1E120000 		.4byte	0x121e
 5425 11fe 21       		.uleb128 0x21
 5426 11ff 6F626A00 		.ascii	"obj\000"
 5427 1203 04       		.byte	0x4
 5428 1204 82       		.byte	0x82
 5429 1205 6C100000 		.4byte	0x106c
 5430 1209 22       		.uleb128 0x22
 5431 120a D7200000 		.4byte	.LASF359
 5432 120e 04       		.byte	0x4
 5433 120f 82       		.byte	0x82
 5434 1210 E4000000 		.4byte	0xe4
 5435 1214 23       		.uleb128 0x23
 5436 1215 7600     		.ascii	"v\000"
 5437 1217 04       		.byte	0x4
 5438 1218 84       		.byte	0x84
 5439 1219 C3030000 		.4byte	0x3c3
 5440 121d 00       		.byte	0
 5441 121e 20       		.uleb128 0x20
 5442 121f D01A0000 		.4byte	.LASF372
 5443 1223 04       		.byte	0x4
 5444 1224 7C       		.byte	0x7c
 5445 1225 430E0000 		.4byte	0xe43
 5446 1229 03       		.byte	0x3
 5447 122a 4E120000 		.4byte	0x124e
 5448 122e 21       		.uleb128 0x21
 5449 122f 6F626A00 		.ascii	"obj\000"
 5450 1233 04       		.byte	0x4
 5451 1234 7C       		.byte	0x7c
 5452 1235 6C100000 		.4byte	0x106c
 5453 1239 22       		.uleb128 0x22
 5454 123a D7200000 		.4byte	.LASF359
 5455 123e 04       		.byte	0x4
 5456 123f 7C       		.byte	0x7c
 5457 1240 E4000000 		.4byte	0xe4
 5458 1244 23       		.uleb128 0x23
 5459 1245 7600     		.ascii	"v\000"
ARM GAS  C:\Users\haske\AppData\Local\Temp\ccVRp2Ta.s 			page 128


 5460 1247 04       		.byte	0x4
 5461 1248 7E       		.byte	0x7e
 5462 1249 C3030000 		.4byte	0x3c3
 5463 124d 00       		.byte	0
 5464 124e 20       		.uleb128 0x20
 5465 124f 1A100000 		.4byte	.LASF373
 5466 1253 04       		.byte	0x4
 5467 1254 76       		.byte	0x76
 5468 1255 430E0000 		.4byte	0xe43
 5469 1259 03       		.byte	0x3
 5470 125a 7E120000 		.4byte	0x127e
 5471 125e 21       		.uleb128 0x21
 5472 125f 6F626A00 		.ascii	"obj\000"
 5473 1263 04       		.byte	0x4
 5474 1264 76       		.byte	0x76
 5475 1265 6C100000 		.4byte	0x106c
 5476 1269 22       		.uleb128 0x22
 5477 126a D7200000 		.4byte	.LASF359
 5478 126e 04       		.byte	0x4
 5479 126f 76       		.byte	0x76
 5480 1270 E4000000 		.4byte	0xe4
 5481 1274 23       		.uleb128 0x23
 5482 1275 7600     		.ascii	"v\000"
 5483 1277 04       		.byte	0x4
 5484 1278 78       		.byte	0x78
 5485 1279 C3030000 		.4byte	0x3c3
 5486 127d 00       		.byte	0
 5487 127e 20       		.uleb128 0x20
 5488 127f 161A0000 		.4byte	.LASF374
 5489 1283 04       		.byte	0x4
 5490 1284 70       		.byte	0x70
 5491 1285 8B0E0000 		.4byte	0xe8b
 5492 1289 03       		.byte	0x3
 5493 128a AE120000 		.4byte	0x12ae
 5494 128e 21       		.uleb128 0x21
 5495 128f 6F626A00 		.ascii	"obj\000"
 5496 1293 04       		.byte	0x4
 5497 1294 70       		.byte	0x70
 5498 1295 6C100000 		.4byte	0x106c
 5499 1299 22       		.uleb128 0x22
 5500 129a D7200000 		.4byte	.LASF359
 5501 129e 04       		.byte	0x4
 5502 129f 70       		.byte	0x70
 5503 12a0 E4000000 		.4byte	0xe4
 5504 12a4 23       		.uleb128 0x23
 5505 12a5 7600     		.ascii	"v\000"
 5506 12a7 04       		.byte	0x4
 5507 12a8 72       		.byte	0x72
 5508 12a9 C3030000 		.4byte	0x3c3
 5509 12ad 00       		.byte	0
 5510 12ae 20       		.uleb128 0x20
 5511 12af A3170000 		.4byte	.LASF375
 5512 12b3 03       		.byte	0x3
 5513 12b4 85       		.byte	0x85
 5514 12b5 F6000000 		.4byte	0xf6
 5515 12b9 03       		.byte	0x3
 5516 12ba DE120000 		.4byte	0x12de
ARM GAS  C:\Users\haske\AppData\Local\Temp\ccVRp2Ta.s 			page 129


 5517 12be 21       		.uleb128 0x21
 5518 12bf 6F626A00 		.ascii	"obj\000"
 5519 12c3 03       		.byte	0x3
 5520 12c4 85       		.byte	0x85
 5521 12c5 01100000 		.4byte	0x1001
 5522 12c9 22       		.uleb128 0x22
 5523 12ca D7200000 		.4byte	.LASF359
 5524 12ce 03       		.byte	0x3
 5525 12cf 85       		.byte	0x85
 5526 12d0 E4000000 		.4byte	0xe4
 5527 12d4 23       		.uleb128 0x23
 5528 12d5 7600     		.ascii	"v\000"
 5529 12d7 03       		.byte	0x3
 5530 12d8 87       		.byte	0x87
 5531 12d9 C3030000 		.4byte	0x3c3
 5532 12dd 00       		.byte	0
 5533 12de 20       		.uleb128 0x20
 5534 12df 311A0000 		.4byte	.LASF376
 5535 12e3 03       		.byte	0x3
 5536 12e4 7F       		.byte	0x7f
 5537 12e5 F6000000 		.4byte	0xf6
 5538 12e9 03       		.byte	0x3
 5539 12ea 0E130000 		.4byte	0x130e
 5540 12ee 21       		.uleb128 0x21
 5541 12ef 6F626A00 		.ascii	"obj\000"
 5542 12f3 03       		.byte	0x3
 5543 12f4 7F       		.byte	0x7f
 5544 12f5 01100000 		.4byte	0x1001
 5545 12f9 22       		.uleb128 0x22
 5546 12fa D7200000 		.4byte	.LASF359
 5547 12fe 03       		.byte	0x3
 5548 12ff 7F       		.byte	0x7f
 5549 1300 E4000000 		.4byte	0xe4
 5550 1304 23       		.uleb128 0x23
 5551 1305 7600     		.ascii	"v\000"
 5552 1307 03       		.byte	0x3
 5553 1308 81       		.byte	0x81
 5554 1309 C3030000 		.4byte	0x3c3
 5555 130d 00       		.byte	0
 5556 130e 20       		.uleb128 0x20
 5557 130f FB0B0000 		.4byte	.LASF377
 5558 1313 03       		.byte	0x3
 5559 1314 73       		.byte	0x73
 5560 1315 F6000000 		.4byte	0xf6
 5561 1319 03       		.byte	0x3
 5562 131a 3E130000 		.4byte	0x133e
 5563 131e 21       		.uleb128 0x21
 5564 131f 6F626A00 		.ascii	"obj\000"
 5565 1323 03       		.byte	0x3
 5566 1324 73       		.byte	0x73
 5567 1325 01100000 		.4byte	0x1001
 5568 1329 22       		.uleb128 0x22
 5569 132a D7200000 		.4byte	.LASF359
 5570 132e 03       		.byte	0x3
 5571 132f 73       		.byte	0x73
 5572 1330 E4000000 		.4byte	0xe4
 5573 1334 23       		.uleb128 0x23
ARM GAS  C:\Users\haske\AppData\Local\Temp\ccVRp2Ta.s 			page 130


 5574 1335 7600     		.ascii	"v\000"
 5575 1337 03       		.byte	0x3
 5576 1338 75       		.byte	0x75
 5577 1339 C3030000 		.4byte	0x3c3
 5578 133d 00       		.byte	0
 5579 133e 20       		.uleb128 0x20
 5580 133f 62050000 		.4byte	.LASF378
 5581 1343 03       		.byte	0x3
 5582 1344 67       		.byte	0x67
 5583 1345 F6000000 		.4byte	0xf6
 5584 1349 03       		.byte	0x3
 5585 134a 6E130000 		.4byte	0x136e
 5586 134e 21       		.uleb128 0x21
 5587 134f 6F626A00 		.ascii	"obj\000"
 5588 1353 03       		.byte	0x3
 5589 1354 67       		.byte	0x67
 5590 1355 01100000 		.4byte	0x1001
 5591 1359 22       		.uleb128 0x22
 5592 135a D7200000 		.4byte	.LASF359
 5593 135e 03       		.byte	0x3
 5594 135f 67       		.byte	0x67
 5595 1360 E4000000 		.4byte	0xe4
 5596 1364 23       		.uleb128 0x23
 5597 1365 7600     		.ascii	"v\000"
 5598 1367 03       		.byte	0x3
 5599 1368 69       		.byte	0x69
 5600 1369 C3030000 		.4byte	0x3c3
 5601 136d 00       		.byte	0
 5602 136e 20       		.uleb128 0x20
 5603 136f FC0F0000 		.4byte	.LASF379
 5604 1373 03       		.byte	0x3
 5605 1374 FD       		.byte	0xfd
 5606 1375 F6000000 		.4byte	0xf6
 5607 1379 03       		.byte	0x3
 5608 137a 9E130000 		.4byte	0x139e
 5609 137e 21       		.uleb128 0x21
 5610 137f 6F626A00 		.ascii	"obj\000"
 5611 1383 03       		.byte	0x3
 5612 1384 FD       		.byte	0xfd
 5613 1385 01100000 		.4byte	0x1001
 5614 1389 22       		.uleb128 0x22
 5615 138a D7200000 		.4byte	.LASF359
 5616 138e 03       		.byte	0x3
 5617 138f FD       		.byte	0xfd
 5618 1390 E4000000 		.4byte	0xe4
 5619 1394 23       		.uleb128 0x23
 5620 1395 7600     		.ascii	"v\000"
 5621 1397 03       		.byte	0x3
 5622 1398 FF       		.byte	0xff
 5623 1399 C3030000 		.4byte	0x3c3
 5624 139d 00       		.byte	0
 5625 139e 29       		.uleb128 0x29
 5626 139f 021D0000 		.4byte	.LASF380
 5627 13a3 01       		.byte	0x1
 5628 13a4 7B       		.byte	0x7b
 5629 13a5 F6000000 		.4byte	0xf6
 5630 13a9 00000000 		.4byte	.LFB1
ARM GAS  C:\Users\haske\AppData\Local\Temp\ccVRp2Ta.s 			page 131


 5631 13ad 10000000 		.4byte	.LFE1-.LFB1
 5632 13b1 01       		.uleb128 0x1
 5633 13b2 9C       		.byte	0x9c
 5634 13b3 C7130000 		.4byte	0x13c7
 5635 13b7 2A       		.uleb128 0x2a
 5636 13b8 24050000 		.4byte	.LASF382
 5637 13bc 01       		.byte	0x1
 5638 13bd 7B       		.byte	0x7b
 5639 13be 8A070000 		.4byte	0x78a
 5640 13c2 00000000 		.4byte	.LLST0
 5641 13c6 00       		.byte	0
 5642 13c7 29       		.uleb128 0x29
 5643 13c8 55180000 		.4byte	.LASF381
 5644 13cc 01       		.byte	0x1
 5645 13cd 85       		.byte	0x85
 5646 13ce F6000000 		.4byte	0xf6
 5647 13d2 00000000 		.4byte	.LFB2
 5648 13d6 10000000 		.4byte	.LFE2-.LFB2
 5649 13da 01       		.uleb128 0x1
 5650 13db 9C       		.byte	0x9c
 5651 13dc F0130000 		.4byte	0x13f0
 5652 13e0 2A       		.uleb128 0x2a
 5653 13e1 24050000 		.4byte	.LASF382
 5654 13e5 01       		.byte	0x1
 5655 13e6 85       		.byte	0x85
 5656 13e7 8A070000 		.4byte	0x78a
 5657 13eb 21000000 		.4byte	.LLST1
 5658 13ef 00       		.byte	0
 5659 13f0 2B       		.uleb128 0x2b
 5660 13f1 4B0F0000 		.4byte	.LASF399
 5661 13f5 02       		.byte	0x2
 5662 13f6 2402     		.2byte	0x224
 5663 13f8 00000000 		.4byte	.LFB192
 5664 13fc AC000000 		.4byte	.LFE192-.LFB192
 5665 1400 01       		.uleb128 0x1
 5666 1401 9C       		.byte	0x9c
 5667 1402 65140000 		.4byte	0x1465
 5668 1406 2C       		.uleb128 0x2c
 5669 1407 2A150000 		.4byte	.LASF383
 5670 140b 02       		.byte	0x2
 5671 140c 2402     		.2byte	0x224
 5672 140e 430E0000 		.4byte	0xe43
 5673 1412 42000000 		.4byte	.LLST2
 5674 1416 2C       		.uleb128 0x2c
 5675 1417 E20F0000 		.4byte	.LASF346
 5676 141b 02       		.byte	0x2
 5677 141c 2402     		.2byte	0x224
 5678 141e F6000000 		.4byte	0xf6
 5679 1422 60000000 		.4byte	.LLST3
 5680 1426 2C       		.uleb128 0x2c
 5681 1427 B6010000 		.4byte	.LASF384
 5682 142b 02       		.byte	0x2
 5683 142c 2402     		.2byte	0x224
 5684 142e F6000000 		.4byte	0xf6
 5685 1432 FE000000 		.4byte	.LLST4
 5686 1436 2C       		.uleb128 0x2c
 5687 1437 6C160000 		.4byte	.LASF354
ARM GAS  C:\Users\haske\AppData\Local\Temp\ccVRp2Ta.s 			page 132


 5688 143b 02       		.byte	0x2
 5689 143c 2402     		.2byte	0x224
 5690 143e F6000000 		.4byte	0xf6
 5691 1442 9C010000 		.4byte	.LLST5
 5692 1446 2D       		.uleb128 0x2d
 5693 1447 BD000000 		.4byte	.LASF385
 5694 144b 02       		.byte	0x2
 5695 144c 2502     		.2byte	0x225
 5696 144e 65140000 		.4byte	0x1465
 5697 1452 02       		.uleb128 0x2
 5698 1453 91       		.byte	0x91
 5699 1454 00       		.sleb128 0
 5700 1455 2E       		.uleb128 0x2e
 5701 1456 67617000 		.ascii	"gap\000"
 5702 145a 02       		.byte	0x2
 5703 145b 2502     		.2byte	0x225
 5704 145d 65140000 		.4byte	0x1465
 5705 1461 02       		.uleb128 0x2
 5706 1462 91       		.byte	0x91
 5707 1463 04       		.sleb128 4
 5708 1464 00       		.byte	0
 5709 1465 0B       		.uleb128 0xb
 5710 1466 04       		.byte	0x4
 5711 1467 F6000000 		.4byte	0xf6
 5712 146b 2F       		.uleb128 0x2f
 5713 146c CA040000 		.4byte	.LASF386
 5714 1470 02       		.byte	0x2
 5715 1471 4C02     		.2byte	0x24c
 5716 1473 4F0F0000 		.4byte	0xf4f
 5717 1477 00000000 		.4byte	.LFB193
 5718 147b 36000000 		.4byte	.LFE193-.LFB193
 5719 147f 01       		.uleb128 0x1
 5720 1480 9C       		.byte	0x9c
 5721 1481 B6140000 		.4byte	0x14b6
 5722 1485 2C       		.uleb128 0x2c
 5723 1486 D5020000 		.4byte	.LASF387
 5724 148a 02       		.byte	0x2
 5725 148b 4C02     		.2byte	0x24c
 5726 148d 4F0F0000 		.4byte	0xf4f
 5727 1491 3A020000 		.4byte	.LLST6
 5728 1495 30       		.uleb128 0x30
 5729 1496 72657600 		.ascii	"rev\000"
 5730 149a 02       		.byte	0x2
 5731 149b 4C02     		.2byte	0x24c
 5732 149d 9F020000 		.4byte	0x29f
 5733 14a1 A6020000 		.4byte	.LLST7
 5734 14a5 2C       		.uleb128 0x2c
 5735 14a6 860D0000 		.4byte	.LASF388
 5736 14aa 02       		.byte	0x2
 5737 14ab 4C02     		.2byte	0x24c
 5738 14ad B6140000 		.4byte	0x14b6
 5739 14b1 E0020000 		.4byte	.LLST8
 5740 14b5 00       		.byte	0
 5741 14b6 0B       		.uleb128 0xb
 5742 14b7 04       		.byte	0x4
 5743 14b8 D9000000 		.4byte	0xd9
 5744 14bc 2F       		.uleb128 0x2f
ARM GAS  C:\Users\haske\AppData\Local\Temp\ccVRp2Ta.s 			page 133


 5745 14bd F2200000 		.4byte	.LASF389
 5746 14c1 02       		.byte	0x2
 5747 14c2 3D01     		.2byte	0x13d
 5748 14c4 D9000000 		.4byte	0xd9
 5749 14c8 00000000 		.4byte	.LFB190
 5750 14cc 94020000 		.4byte	.LFE190-.LFB190
 5751 14d0 01       		.uleb128 0x1
 5752 14d1 9C       		.byte	0x9c
 5753 14d2 01190000 		.4byte	0x1901
 5754 14d6 2C       		.uleb128 0x2c
 5755 14d7 D5020000 		.4byte	.LASF387
 5756 14db 02       		.byte	0x2
 5757 14dc 3D01     		.2byte	0x13d
 5758 14de 4F0F0000 		.4byte	0xf4f
 5759 14e2 33030000 		.4byte	.LLST9
 5760 14e6 30       		.uleb128 0x30
 5761 14e7 6600     		.ascii	"f\000"
 5762 14e9 02       		.byte	0x2
 5763 14ea 3D01     		.2byte	0x13d
 5764 14ec 01190000 		.4byte	0x1901
 5765 14f0 5E030000 		.4byte	.LLST10
 5766 14f4 2C       		.uleb128 0x2c
 5767 14f5 82160000 		.4byte	.LASF390
 5768 14f9 02       		.byte	0x2
 5769 14fa 3D01     		.2byte	0x13d
 5770 14fc D9000000 		.4byte	0xd9
 5771 1500 A0030000 		.4byte	.LLST11
 5772 1504 2C       		.uleb128 0x2c
 5773 1505 5C0B0000 		.4byte	.LASF391
 5774 1509 02       		.byte	0x2
 5775 150a 3D01     		.2byte	0x13d
 5776 150c F6000000 		.4byte	0xf6
 5777 1510 ED030000 		.4byte	.LLST12
 5778 1514 2C       		.uleb128 0x2c
 5779 1515 AF030000 		.4byte	.LASF392
 5780 1519 02       		.byte	0x2
 5781 151a 3E01     		.2byte	0x13e
 5782 151c F6000000 		.4byte	0xf6
 5783 1520 0E040000 		.4byte	.LLST13
 5784 1524 30       		.uleb128 0x30
 5785 1525 7400     		.ascii	"t\000"
 5786 1527 02       		.byte	0x2
 5787 1528 3E01     		.2byte	0x13e
 5788 152a 07190000 		.4byte	0x1907
 5789 152e 3A040000 		.4byte	.LLST14
 5790 1532 31       		.uleb128 0x31
 5791 1533 16210000 		.4byte	.LASF393
 5792 1537 02       		.byte	0x2
 5793 1538 4001     		.2byte	0x140
 5794 153a F6000000 		.4byte	0xf6
 5795 153e 31       		.uleb128 0x31
 5796 153f 5A210000 		.4byte	.LASF394
 5797 1543 02       		.byte	0x2
 5798 1544 4101     		.2byte	0x141
 5799 1546 F6000000 		.4byte	0xf6
 5800 154a 32       		.uleb128 0x32
 5801 154b 73000000 		.4byte	.LASF395
ARM GAS  C:\Users\haske\AppData\Local\Temp\ccVRp2Ta.s 			page 134


 5802 154f 02       		.byte	0x2
 5803 1550 4701     		.2byte	0x147
 5804 1552 1C190000 		.4byte	0x191c
 5805 1556 02       		.uleb128 0x2
 5806 1557 91       		.byte	0x91
 5807 1558 48       		.sleb128 -56
 5808 1559 32       		.uleb128 0x32
 5809 155a C71F0000 		.4byte	.LASF396
 5810 155e 02       		.byte	0x2
 5811 155f 4801     		.2byte	0x148
 5812 1561 1C190000 		.4byte	0x191c
 5813 1565 02       		.uleb128 0x2
 5814 1566 91       		.byte	0x91
 5815 1567 44       		.sleb128 -60
 5816 1568 32       		.uleb128 0x32
 5817 1569 860D0000 		.4byte	.LASF388
 5818 156d 02       		.byte	0x2
 5819 156e 5101     		.2byte	0x151
 5820 1570 D9000000 		.4byte	0xd9
 5821 1574 02       		.uleb128 0x2
 5822 1575 91       		.byte	0x91
 5823 1576 54       		.sleb128 -44
 5824 1577 33       		.uleb128 0x33
 5825 1578 53170000 		.4byte	.LASF344
 5826 157c 02       		.byte	0x2
 5827 157d 5301     		.2byte	0x153
 5828 157f 4F0F0000 		.4byte	0xf4f
 5829 1583 66040000 		.4byte	.LLST15
 5830 1587 34       		.uleb128 0x34
 5831 1588 0C100000 		.4byte	0x100c
 5832 158c 1E000000 		.4byte	.LBB64
 5833 1590 0C000000 		.4byte	.LBE64-.LBB64
 5834 1594 02       		.byte	0x2
 5835 1595 4001     		.2byte	0x140
 5836 1597 D8150000 		.4byte	0x15d8
 5837 159b 35       		.uleb128 0x35
 5838 159c 27100000 		.4byte	0x1027
 5839 15a0 9A040000 		.4byte	.LLST16
 5840 15a4 35       		.uleb128 0x35
 5841 15a5 1C100000 		.4byte	0x101c
 5842 15a9 AE040000 		.4byte	.LLST17
 5843 15ad 36       		.uleb128 0x36
 5844 15ae 1E000000 		.4byte	.LBB65
 5845 15b2 0C000000 		.4byte	.LBE65-.LBB65
 5846 15b6 37       		.uleb128 0x37
 5847 15b7 32100000 		.4byte	0x1032
 5848 15bb 38       		.uleb128 0x38
 5849 15bc 28000000 		.4byte	.LVL45
 5850 15c0 D42C0000 		.4byte	0x2cd4
 5851 15c4 39       		.uleb128 0x39
 5852 15c5 01       		.uleb128 0x1
 5853 15c6 50       		.byte	0x50
 5854 15c7 03       		.uleb128 0x3
 5855 15c8 7D       		.byte	0x7d
 5856 15c9 00       		.sleb128 0
 5857 15ca 06       		.byte	0x6
 5858 15cb 39       		.uleb128 0x39
ARM GAS  C:\Users\haske\AppData\Local\Temp\ccVRp2Ta.s 			page 135


 5859 15cc 01       		.uleb128 0x1
 5860 15cd 51       		.byte	0x51
 5861 15ce 01       		.uleb128 0x1
 5862 15cf 30       		.byte	0x30
 5863 15d0 39       		.uleb128 0x39
 5864 15d1 01       		.uleb128 0x1
 5865 15d2 52       		.byte	0x52
 5866 15d3 01       		.uleb128 0x1
 5867 15d4 31       		.byte	0x31
 5868 15d5 00       		.byte	0
 5869 15d6 00       		.byte	0
 5870 15d7 00       		.byte	0
 5871 15d8 34       		.uleb128 0x34
 5872 15d9 D10F0000 		.4byte	0xfd1
 5873 15dd 2A000000 		.4byte	.LBB66
 5874 15e1 0C000000 		.4byte	.LBE66-.LBB66
 5875 15e5 02       		.byte	0x2
 5876 15e6 4101     		.2byte	0x141
 5877 15e8 29160000 		.4byte	0x1629
 5878 15ec 35       		.uleb128 0x35
 5879 15ed EC0F0000 		.4byte	0xfec
 5880 15f1 CD040000 		.4byte	.LLST18
 5881 15f5 35       		.uleb128 0x35
 5882 15f6 E10F0000 		.4byte	0xfe1
 5883 15fa E1040000 		.4byte	.LLST19
 5884 15fe 36       		.uleb128 0x36
 5885 15ff 2A000000 		.4byte	.LBB67
 5886 1603 0C000000 		.4byte	.LBE67-.LBB67
 5887 1607 37       		.uleb128 0x37
 5888 1608 F70F0000 		.4byte	0xff7
 5889 160c 38       		.uleb128 0x38
 5890 160d 34000000 		.4byte	.LVL47
 5891 1611 D42C0000 		.4byte	0x2cd4
 5892 1615 39       		.uleb128 0x39
 5893 1616 01       		.uleb128 0x1
 5894 1617 50       		.byte	0x50
 5895 1618 03       		.uleb128 0x3
 5896 1619 7D       		.byte	0x7d
 5897 161a 00       		.sleb128 0
 5898 161b 06       		.byte	0x6
 5899 161c 39       		.uleb128 0x39
 5900 161d 01       		.uleb128 0x1
 5901 161e 51       		.byte	0x51
 5902 161f 01       		.uleb128 0x1
 5903 1620 30       		.byte	0x30
 5904 1621 39       		.uleb128 0x39
 5905 1622 01       		.uleb128 0x1
 5906 1623 52       		.byte	0x52
 5907 1624 01       		.uleb128 0x1
 5908 1625 34       		.byte	0x34
 5909 1626 00       		.byte	0
 5910 1627 00       		.byte	0
 5911 1628 00       		.byte	0
 5912 1629 3A       		.uleb128 0x3a
 5913 162a BE000000 		.4byte	.LBB68
 5914 162e 30010000 		.4byte	.LBE68-.LBB68
 5915 1632 59180000 		.4byte	0x1859
ARM GAS  C:\Users\haske\AppData\Local\Temp\ccVRp2Ta.s 			page 136


 5916 1636 31       		.uleb128 0x31
 5917 1637 2B180000 		.4byte	.LASF348
 5918 163b 02       		.byte	0x2
 5919 163c 5801     		.2byte	0x158
 5920 163e B8000000 		.4byte	0xb8
 5921 1642 34       		.uleb128 0x34
 5922 1643 3C100000 		.4byte	0x103c
 5923 1647 BE000000 		.4byte	.LBB69
 5924 164b 0E000000 		.4byte	.LBE69-.LBB69
 5925 164f 02       		.byte	0x2
 5926 1650 5801     		.2byte	0x158
 5927 1652 8D160000 		.4byte	0x168d
 5928 1656 35       		.uleb128 0x35
 5929 1657 57100000 		.4byte	0x1057
 5930 165b F5040000 		.4byte	.LLST20
 5931 165f 35       		.uleb128 0x35
 5932 1660 4C100000 		.4byte	0x104c
 5933 1664 09050000 		.4byte	.LLST21
 5934 1668 36       		.uleb128 0x36
 5935 1669 BE000000 		.4byte	.LBB70
 5936 166d 0E000000 		.4byte	.LBE70-.LBB70
 5937 1671 37       		.uleb128 0x37
 5938 1672 62100000 		.4byte	0x1062
 5939 1676 38       		.uleb128 0x38
 5940 1677 CA000000 		.4byte	.LVL59
 5941 167b D42C0000 		.4byte	0x2cd4
 5942 167f 39       		.uleb128 0x39
 5943 1680 01       		.uleb128 0x1
 5944 1681 50       		.byte	0x50
 5945 1682 02       		.uleb128 0x2
 5946 1683 74       		.byte	0x74
 5947 1684 00       		.sleb128 0
 5948 1685 39       		.uleb128 0x39
 5949 1686 01       		.uleb128 0x1
 5950 1687 51       		.byte	0x51
 5951 1688 01       		.uleb128 0x1
 5952 1689 30       		.byte	0x30
 5953 168a 00       		.byte	0
 5954 168b 00       		.byte	0
 5955 168c 00       		.byte	0
 5956 168d 3A       		.uleb128 0x3a
 5957 168e E2000000 		.4byte	.LBB71
 5958 1692 CE000000 		.4byte	.LBE71-.LBB71
 5959 1696 06180000 		.4byte	0x1806
 5960 169a 33       		.uleb128 0x33
 5961 169b 42140000 		.4byte	.LASF397
 5962 169f 02       		.byte	0x2
 5963 16a0 5D01     		.2byte	0x15d
 5964 16a2 C00F0000 		.4byte	0xfc0
 5965 16a6 1C050000 		.4byte	.LLST22
 5966 16aa 34       		.uleb128 0x34
 5967 16ab 77100000 		.4byte	0x1077
 5968 16af 38010000 		.4byte	.LBB72
 5969 16b3 0C000000 		.4byte	.LBE72-.LBB72
 5970 16b7 02       		.byte	0x2
 5971 16b8 6601     		.2byte	0x166
 5972 16ba FA160000 		.4byte	0x16fa
ARM GAS  C:\Users\haske\AppData\Local\Temp\ccVRp2Ta.s 			page 137


 5973 16be 35       		.uleb128 0x35
 5974 16bf 92100000 		.4byte	0x1092
 5975 16c3 50050000 		.4byte	.LLST23
 5976 16c7 35       		.uleb128 0x35
 5977 16c8 87100000 		.4byte	0x1087
 5978 16cc 64050000 		.4byte	.LLST24
 5979 16d0 36       		.uleb128 0x36
 5980 16d1 38010000 		.4byte	.LBB73
 5981 16d5 0C000000 		.4byte	.LBE73-.LBB73
 5982 16d9 37       		.uleb128 0x37
 5983 16da 9D100000 		.4byte	0x109d
 5984 16de 38       		.uleb128 0x38
 5985 16df 42010000 		.4byte	.LVL68
 5986 16e3 D42C0000 		.4byte	0x2cd4
 5987 16e7 39       		.uleb128 0x39
 5988 16e8 01       		.uleb128 0x1
 5989 16e9 50       		.byte	0x50
 5990 16ea 02       		.uleb128 0x2
 5991 16eb 74       		.byte	0x74
 5992 16ec 00       		.sleb128 0
 5993 16ed 39       		.uleb128 0x39
 5994 16ee 01       		.uleb128 0x1
 5995 16ef 51       		.byte	0x51
 5996 16f0 01       		.uleb128 0x1
 5997 16f1 30       		.byte	0x30
 5998 16f2 39       		.uleb128 0x39
 5999 16f3 01       		.uleb128 0x1
 6000 16f4 52       		.byte	0x52
 6001 16f5 01       		.uleb128 0x1
 6002 16f6 32       		.byte	0x32
 6003 16f7 00       		.byte	0
 6004 16f8 00       		.byte	0
 6005 16f9 00       		.byte	0
 6006 16fa 34       		.uleb128 0x34
 6007 16fb A7100000 		.4byte	0x10a7
 6008 16ff 46010000 		.4byte	.LBB74
 6009 1703 0C000000 		.4byte	.LBE74-.LBB74
 6010 1707 02       		.byte	0x2
 6011 1708 6601     		.2byte	0x166
 6012 170a 4A170000 		.4byte	0x174a
 6013 170e 35       		.uleb128 0x35
 6014 170f C2100000 		.4byte	0x10c2
 6015 1713 77050000 		.4byte	.LLST25
 6016 1717 35       		.uleb128 0x35
 6017 1718 B7100000 		.4byte	0x10b7
 6018 171c 8B050000 		.4byte	.LLST26
 6019 1720 36       		.uleb128 0x36
 6020 1721 46010000 		.4byte	.LBB75
 6021 1725 0C000000 		.4byte	.LBE75-.LBB75
 6022 1729 37       		.uleb128 0x37
 6023 172a CD100000 		.4byte	0x10cd
 6024 172e 38       		.uleb128 0x38
 6025 172f 50010000 		.4byte	.LVL71
 6026 1733 D42C0000 		.4byte	0x2cd4
 6027 1737 39       		.uleb128 0x39
 6028 1738 01       		.uleb128 0x1
 6029 1739 50       		.byte	0x50
ARM GAS  C:\Users\haske\AppData\Local\Temp\ccVRp2Ta.s 			page 138


 6030 173a 02       		.uleb128 0x2
 6031 173b 74       		.byte	0x74
 6032 173c 00       		.sleb128 0
 6033 173d 39       		.uleb128 0x39
 6034 173e 01       		.uleb128 0x1
 6035 173f 51       		.byte	0x51
 6036 1740 01       		.uleb128 0x1
 6037 1741 30       		.byte	0x30
 6038 1742 39       		.uleb128 0x39
 6039 1743 01       		.uleb128 0x1
 6040 1744 52       		.byte	0x52
 6041 1745 01       		.uleb128 0x1
 6042 1746 35       		.byte	0x35
 6043 1747 00       		.byte	0
 6044 1748 00       		.byte	0
 6045 1749 00       		.byte	0
 6046 174a 34       		.uleb128 0x34
 6047 174b D7100000 		.4byte	0x10d7
 6048 174f 6A010000 		.4byte	.LBB76
 6049 1753 0C000000 		.4byte	.LBE76-.LBB76
 6050 1757 02       		.byte	0x2
 6051 1758 6801     		.2byte	0x168
 6052 175a 9A170000 		.4byte	0x179a
 6053 175e 35       		.uleb128 0x35
 6054 175f F2100000 		.4byte	0x10f2
 6055 1763 9E050000 		.4byte	.LLST27
 6056 1767 35       		.uleb128 0x35
 6057 1768 E7100000 		.4byte	0x10e7
 6058 176c B2050000 		.4byte	.LLST28
 6059 1770 36       		.uleb128 0x36
 6060 1771 6A010000 		.4byte	.LBB77
 6061 1775 0C000000 		.4byte	.LBE77-.LBB77
 6062 1779 37       		.uleb128 0x37
 6063 177a FD100000 		.4byte	0x10fd
 6064 177e 38       		.uleb128 0x38
 6065 177f 74010000 		.4byte	.LVL74
 6066 1783 D42C0000 		.4byte	0x2cd4
 6067 1787 39       		.uleb128 0x39
 6068 1788 01       		.uleb128 0x1
 6069 1789 50       		.byte	0x50
 6070 178a 02       		.uleb128 0x2
 6071 178b 74       		.byte	0x74
 6072 178c 00       		.sleb128 0
 6073 178d 39       		.uleb128 0x39
 6074 178e 01       		.uleb128 0x1
 6075 178f 51       		.byte	0x51
 6076 1790 01       		.uleb128 0x1
 6077 1791 30       		.byte	0x30
 6078 1792 39       		.uleb128 0x39
 6079 1793 01       		.uleb128 0x1
 6080 1794 52       		.byte	0x52
 6081 1795 01       		.uleb128 0x1
 6082 1796 33       		.byte	0x33
 6083 1797 00       		.byte	0
 6084 1798 00       		.byte	0
 6085 1799 00       		.byte	0
 6086 179a 34       		.uleb128 0x34
ARM GAS  C:\Users\haske\AppData\Local\Temp\ccVRp2Ta.s 			page 139


 6087 179b 07110000 		.4byte	0x1107
 6088 179f 78010000 		.4byte	.LBB78
 6089 17a3 0C000000 		.4byte	.LBE78-.LBB78
 6090 17a7 02       		.byte	0x2
 6091 17a8 6801     		.2byte	0x168
 6092 17aa EA170000 		.4byte	0x17ea
 6093 17ae 35       		.uleb128 0x35
 6094 17af 22110000 		.4byte	0x1122
 6095 17b3 C5050000 		.4byte	.LLST29
 6096 17b7 35       		.uleb128 0x35
 6097 17b8 17110000 		.4byte	0x1117
 6098 17bc D9050000 		.4byte	.LLST30
 6099 17c0 36       		.uleb128 0x36
 6100 17c1 78010000 		.4byte	.LBB79
 6101 17c5 0C000000 		.4byte	.LBE79-.LBB79
 6102 17c9 37       		.uleb128 0x37
 6103 17ca 2D110000 		.4byte	0x112d
 6104 17ce 38       		.uleb128 0x38
 6105 17cf 82010000 		.4byte	.LVL77
 6106 17d3 D42C0000 		.4byte	0x2cd4
 6107 17d7 39       		.uleb128 0x39
 6108 17d8 01       		.uleb128 0x1
 6109 17d9 50       		.byte	0x50
 6110 17da 02       		.uleb128 0x2
 6111 17db 74       		.byte	0x74
 6112 17dc 00       		.sleb128 0
 6113 17dd 39       		.uleb128 0x39
 6114 17de 01       		.uleb128 0x1
 6115 17df 51       		.byte	0x51
 6116 17e0 01       		.uleb128 0x1
 6117 17e1 30       		.byte	0x30
 6118 17e2 39       		.uleb128 0x39
 6119 17e3 01       		.uleb128 0x1
 6120 17e4 52       		.byte	0x52
 6121 17e5 01       		.uleb128 0x1
 6122 17e6 36       		.byte	0x36
 6123 17e7 00       		.byte	0
 6124 17e8 00       		.byte	0
 6125 17e9 00       		.byte	0
 6126 17ea 3B       		.uleb128 0x3b
 6127 17eb EC000000 		.4byte	.LVL61
 6128 17ef DF2C0000 		.4byte	0x2cdf
 6129 17f3 3B       		.uleb128 0x3b
 6130 17f4 10010000 		.4byte	.LVL65
 6131 17f8 EA2C0000 		.4byte	0x2cea
 6132 17fc 3B       		.uleb128 0x3b
 6133 17fd 16010000 		.4byte	.LVL66
 6134 1801 F52C0000 		.4byte	0x2cf5
 6135 1805 00       		.byte	0
 6136 1806 3A       		.uleb128 0x3a
 6137 1807 B0010000 		.4byte	.LBB80
 6138 180b 20000000 		.4byte	.LBE80-.LBB80
 6139 180f 34180000 		.4byte	0x1834
 6140 1813 33       		.uleb128 0x33
 6141 1814 F4000000 		.4byte	.LASF398
 6142 1818 02       		.byte	0x2
 6143 1819 7001     		.2byte	0x170
ARM GAS  C:\Users\haske\AppData\Local\Temp\ccVRp2Ta.s 			page 140


 6144 181b F6000000 		.4byte	0xf6
 6145 181f EC050000 		.4byte	.LLST31
 6146 1823 3C       		.uleb128 0x3c
 6147 1824 B6010000 		.4byte	.LVL80
 6148 1828 03       		.uleb128 0x3
 6149 1829 91       		.byte	0x91
 6150 182a 48       		.sleb128 -56
 6151 182b 06       		.byte	0x6
 6152 182c 39       		.uleb128 0x39
 6153 182d 01       		.uleb128 0x1
 6154 182e 50       		.byte	0x50
 6155 182f 02       		.uleb128 0x2
 6156 1830 74       		.byte	0x74
 6157 1831 00       		.sleb128 0
 6158 1832 00       		.byte	0
 6159 1833 00       		.byte	0
 6160 1834 3D       		.uleb128 0x3d
 6161 1835 D6010000 		.4byte	.LVL82
 6162 1839 03       		.uleb128 0x3
 6163 183a 91       		.byte	0x91
 6164 183b 44       		.sleb128 -60
 6165 183c 06       		.byte	0x6
 6166 183d 48180000 		.4byte	0x1848
 6167 1841 39       		.uleb128 0x39
 6168 1842 01       		.uleb128 0x1
 6169 1843 50       		.byte	0x50
 6170 1844 02       		.uleb128 0x2
 6171 1845 74       		.byte	0x74
 6172 1846 00       		.sleb128 0
 6173 1847 00       		.byte	0
 6174 1848 3C       		.uleb128 0x3c
 6175 1849 E4010000 		.4byte	.LVL83
 6176 184d 03       		.uleb128 0x3
 6177 184e 91       		.byte	0x91
 6178 184f 44       		.sleb128 -60
 6179 1850 06       		.byte	0x6
 6180 1851 39       		.uleb128 0x39
 6181 1852 01       		.uleb128 0x1
 6182 1853 50       		.byte	0x50
 6183 1854 02       		.uleb128 0x2
 6184 1855 74       		.byte	0x74
 6185 1856 00       		.sleb128 0
 6186 1857 00       		.byte	0
 6187 1858 00       		.byte	0
 6188 1859 3E       		.uleb128 0x3e
 6189 185a 92000000 		.4byte	.LVL51
 6190 185e 002D0000 		.4byte	0x2d00
 6191 1862 74180000 		.4byte	0x1874
 6192 1866 39       		.uleb128 0x39
 6193 1867 01       		.uleb128 0x1
 6194 1868 50       		.byte	0x50
 6195 1869 03       		.uleb128 0x3
 6196 186a 7D       		.byte	0x7d
 6197 186b 00       		.sleb128 0
 6198 186c 06       		.byte	0x6
 6199 186d 39       		.uleb128 0x39
 6200 186e 01       		.uleb128 0x1
ARM GAS  C:\Users\haske\AppData\Local\Temp\ccVRp2Ta.s 			page 141


 6201 186f 51       		.byte	0x51
 6202 1870 02       		.uleb128 0x2
 6203 1871 77       		.byte	0x77
 6204 1872 00       		.sleb128 0
 6205 1873 00       		.byte	0
 6206 1874 3E       		.uleb128 0x3e
 6207 1875 AA000000 		.4byte	.LVL56
 6208 1879 0B2D0000 		.4byte	0x2d0b
 6209 187d 8F180000 		.4byte	0x188f
 6210 1881 39       		.uleb128 0x39
 6211 1882 01       		.uleb128 0x1
 6212 1883 50       		.byte	0x50
 6213 1884 02       		.uleb128 0x2
 6214 1885 74       		.byte	0x74
 6215 1886 00       		.sleb128 0
 6216 1887 39       		.uleb128 0x39
 6217 1888 01       		.uleb128 0x1
 6218 1889 51       		.byte	0x51
 6219 188a 03       		.uleb128 0x3
 6220 188b 40       		.byte	0x40
 6221 188c 43       		.byte	0x43
 6222 188d 24       		.byte	0x24
 6223 188e 00       		.byte	0
 6224 188f 3E       		.uleb128 0x3e
 6225 1890 B8000000 		.4byte	.LVL57
 6226 1894 172D0000 		.4byte	0x2d17
 6227 1898 AC180000 		.4byte	0x18ac
 6228 189c 39       		.uleb128 0x39
 6229 189d 01       		.uleb128 0x1
 6230 189e 50       		.byte	0x50
 6231 189f 02       		.uleb128 0x2
 6232 18a0 74       		.byte	0x74
 6233 18a1 00       		.sleb128 0
 6234 18a2 39       		.uleb128 0x39
 6235 18a3 01       		.uleb128 0x1
 6236 18a4 51       		.byte	0x51
 6237 18a5 05       		.uleb128 0x5
 6238 18a6 0C       		.byte	0xc
 6239 18a7 01000600 		.4byte	0x60001
 6240 18ab 00       		.byte	0
 6241 18ac 3E       		.uleb128 0x3e
 6242 18ad 0E020000 		.4byte	.LVL84
 6243 18b1 002D0000 		.4byte	0x2d00
 6244 18b5 C1180000 		.4byte	0x18c1
 6245 18b9 39       		.uleb128 0x39
 6246 18ba 01       		.uleb128 0x1
 6247 18bb 50       		.byte	0x50
 6248 18bc 03       		.uleb128 0x3
 6249 18bd 7D       		.byte	0x7d
 6250 18be 00       		.sleb128 0
 6251 18bf 06       		.byte	0x6
 6252 18c0 00       		.byte	0
 6253 18c1 3E       		.uleb128 0x3e
 6254 18c2 58020000 		.4byte	.LVL90
 6255 18c6 6B140000 		.4byte	0x146b
 6256 18ca DC180000 		.4byte	0x18dc
 6257 18ce 39       		.uleb128 0x39
ARM GAS  C:\Users\haske\AppData\Local\Temp\ccVRp2Ta.s 			page 142


 6258 18cf 01       		.uleb128 0x1
 6259 18d0 50       		.byte	0x50
 6260 18d1 03       		.uleb128 0x3
 6261 18d2 7D       		.byte	0x7d
 6262 18d3 00       		.sleb128 0
 6263 18d4 06       		.byte	0x6
 6264 18d5 39       		.uleb128 0x39
 6265 18d6 01       		.uleb128 0x1
 6266 18d7 52       		.byte	0x52
 6267 18d8 02       		.uleb128 0x2
 6268 18d9 91       		.byte	0x91
 6269 18da 54       		.sleb128 -44
 6270 18db 00       		.byte	0
 6271 18dc 3D       		.uleb128 0x3d
 6272 18dd 62020000 		.4byte	.LVL91
 6273 18e1 03       		.uleb128 0x3
 6274 18e2 91       		.byte	0x91
 6275 18e3 44       		.sleb128 -60
 6276 18e4 06       		.byte	0x6
 6277 18e5 F0180000 		.4byte	0x18f0
 6278 18e9 39       		.uleb128 0x39
 6279 18ea 01       		.uleb128 0x1
 6280 18eb 50       		.byte	0x50
 6281 18ec 02       		.uleb128 0x2
 6282 18ed 74       		.byte	0x74
 6283 18ee 00       		.sleb128 0
 6284 18ef 00       		.byte	0
 6285 18f0 3C       		.uleb128 0x3c
 6286 18f1 6A020000 		.4byte	.LVL92
 6287 18f5 03       		.uleb128 0x3
 6288 18f6 91       		.byte	0x91
 6289 18f7 48       		.sleb128 -56
 6290 18f8 06       		.byte	0x6
 6291 18f9 39       		.uleb128 0x39
 6292 18fa 01       		.uleb128 0x1
 6293 18fb 50       		.byte	0x50
 6294 18fc 02       		.uleb128 0x2
 6295 18fd 74       		.byte	0x74
 6296 18fe 00       		.sleb128 0
 6297 18ff 00       		.byte	0
 6298 1900 00       		.byte	0
 6299 1901 0B       		.uleb128 0xb
 6300 1902 04       		.byte	0x4
 6301 1903 F00E0000 		.4byte	0xef0
 6302 1907 0B       		.uleb128 0xb
 6303 1908 04       		.byte	0x4
 6304 1909 C60F0000 		.4byte	0xfc6
 6305 190d 0D       		.uleb128 0xd
 6306 190e F6000000 		.4byte	0xf6
 6307 1912 1C190000 		.4byte	0x191c
 6308 1916 0E       		.uleb128 0xe
 6309 1917 6C100000 		.4byte	0x106c
 6310 191b 00       		.byte	0
 6311 191c 0B       		.uleb128 0xb
 6312 191d 04       		.byte	0x4
 6313 191e 0D190000 		.4byte	0x190d
 6314 1922 2B       		.uleb128 0x2b
ARM GAS  C:\Users\haske\AppData\Local\Temp\ccVRp2Ta.s 			page 143


 6315 1923 CC000000 		.4byte	.LASF400
 6316 1927 02       		.byte	0x2
 6317 1928 9501     		.2byte	0x195
 6318 192a 00000000 		.4byte	.LFB191
 6319 192e B8040000 		.4byte	.LFE191-.LFB191
 6320 1932 01       		.uleb128 0x1
 6321 1933 9C       		.byte	0x9c
 6322 1934 E81E0000 		.4byte	0x1ee8
 6323 1938 2C       		.uleb128 0x2c
 6324 1939 D5020000 		.4byte	.LASF387
 6325 193d 02       		.byte	0x2
 6326 193e 9501     		.2byte	0x195
 6327 1940 4F0F0000 		.4byte	0xf4f
 6328 1944 FF050000 		.4byte	.LLST32
 6329 1948 30       		.uleb128 0x30
 6330 1949 6600     		.ascii	"f\000"
 6331 194b 02       		.byte	0x2
 6332 194c 9501     		.2byte	0x195
 6333 194e 01190000 		.4byte	0x1901
 6334 1952 2D060000 		.4byte	.LLST33
 6335 1956 2C       		.uleb128 0x2c
 6336 1957 78130000 		.4byte	.LASF401
 6337 195b 02       		.byte	0x2
 6338 195c 9501     		.2byte	0x195
 6339 195e D9000000 		.4byte	0xd9
 6340 1962 64060000 		.4byte	.LLST34
 6341 1966 2C       		.uleb128 0x2c
 6342 1967 90060000 		.4byte	.LASF402
 6343 196b 02       		.byte	0x2
 6344 196c 9501     		.2byte	0x195
 6345 196e D9000000 		.4byte	0xd9
 6346 1972 B3060000 		.4byte	.LLST35
 6347 1976 2C       		.uleb128 0x2c
 6348 1977 D70D0000 		.4byte	.LASF403
 6349 197b 02       		.byte	0x2
 6350 197c 9501     		.2byte	0x195
 6351 197e F6000000 		.4byte	0xf6
 6352 1982 EE060000 		.4byte	.LLST36
 6353 1986 2C       		.uleb128 0x2c
 6354 1987 DD0D0000 		.4byte	.LASF404
 6355 198b 02       		.byte	0x2
 6356 198c 9601     		.2byte	0x196
 6357 198e F6000000 		.4byte	0xf6
 6358 1992 1A070000 		.4byte	.LLST37
 6359 1996 2C       		.uleb128 0x2c
 6360 1997 5C0B0000 		.4byte	.LASF391
 6361 199b 02       		.byte	0x2
 6362 199c 9601     		.2byte	0x196
 6363 199e F6000000 		.4byte	0xf6
 6364 19a2 5E070000 		.4byte	.LLST38
 6365 19a6 2C       		.uleb128 0x2c
 6366 19a7 AF030000 		.4byte	.LASF392
 6367 19ab 02       		.byte	0x2
 6368 19ac 9601     		.2byte	0x196
 6369 19ae F6000000 		.4byte	0xf6
 6370 19b2 A2070000 		.4byte	.LLST39
 6371 19b6 30       		.uleb128 0x30
ARM GAS  C:\Users\haske\AppData\Local\Temp\ccVRp2Ta.s 			page 144


 6372 19b7 7400     		.ascii	"t\000"
 6373 19b9 02       		.byte	0x2
 6374 19ba 9601     		.2byte	0x196
 6375 19bc 07190000 		.4byte	0x1907
 6376 19c0 E6070000 		.4byte	.LLST40
 6377 19c4 33       		.uleb128 0x33
 6378 19c5 0F190000 		.4byte	.LASF405
 6379 19c9 02       		.byte	0x2
 6380 19ca 9801     		.2byte	0x198
 6381 19cc F81E0000 		.4byte	0x1ef8
 6382 19d0 12080000 		.4byte	.LLST41
 6383 19d4 33       		.uleb128 0x33
 6384 19d5 FD020000 		.4byte	.LASF406
 6385 19d9 02       		.byte	0x2
 6386 19da 9901     		.2byte	0x199
 6387 19dc 0D1F0000 		.4byte	0x1f0d
 6388 19e0 27080000 		.4byte	.LLST42
 6389 19e4 33       		.uleb128 0x33
 6390 19e5 F4190000 		.4byte	.LASF407
 6391 19e9 02       		.byte	0x2
 6392 19ea 9A01     		.2byte	0x19a
 6393 19ec 0D1F0000 		.4byte	0x1f0d
 6394 19f0 3C080000 		.4byte	.LLST43
 6395 19f4 3F       		.uleb128 0x3f
 6396 19f5 6900     		.ascii	"i\000"
 6397 19f7 02       		.byte	0x2
 6398 19f8 9D01     		.2byte	0x19d
 6399 19fa E4000000 		.4byte	0xe4
 6400 19fe 51080000 		.4byte	.LLST44
 6401 1a02 33       		.uleb128 0x33
 6402 1a03 191C0000 		.4byte	.LASF408
 6403 1a07 02       		.byte	0x2
 6404 1a08 9E01     		.2byte	0x19e
 6405 1a0a 9F020000 		.4byte	0x29f
 6406 1a0e 9C080000 		.4byte	.LLST45
 6407 1a12 3F       		.uleb128 0x3f
 6408 1a13 72746C00 		.ascii	"rtl\000"
 6409 1a17 02       		.byte	0x2
 6410 1a18 C001     		.2byte	0x1c0
 6411 1a1a 9F020000 		.4byte	0x29f
 6412 1a1e EF080000 		.4byte	.LLST46
 6413 1a22 32       		.uleb128 0x32
 6414 1a23 4B130000 		.4byte	.LASF409
 6415 1a27 02       		.byte	0x2
 6416 1a28 C201     		.2byte	0x1c2
 6417 1a2a F6000000 		.4byte	0xf6
 6418 1a2e 02       		.uleb128 0x2
 6419 1a2f 91       		.byte	0x91
 6420 1a30 56       		.sleb128 -42
 6421 1a31 32       		.uleb128 0x32
 6422 1a32 30040000 		.4byte	.LASF410
 6423 1a36 02       		.byte	0x2
 6424 1a37 C401     		.2byte	0x1c4
 6425 1a39 F6000000 		.4byte	0xf6
 6426 1a3d 02       		.uleb128 0x2
 6427 1a3e 91       		.byte	0x91
 6428 1a3f 54       		.sleb128 -44
ARM GAS  C:\Users\haske\AppData\Local\Temp\ccVRp2Ta.s 			page 145


 6429 1a40 33       		.uleb128 0x33
 6430 1a41 53170000 		.4byte	.LASF344
 6431 1a45 02       		.byte	0x2
 6432 1a46 C801     		.2byte	0x1c8
 6433 1a48 4F0F0000 		.4byte	0xf4f
 6434 1a4c 09090000 		.4byte	.LLST47
 6435 1a50 3A       		.uleb128 0x3a
 6436 1a51 6C000000 		.4byte	.LBB81
 6437 1a55 D0000000 		.4byte	.LBE81-.LBB81
 6438 1a59 B81A0000 		.4byte	0x1ab8
 6439 1a5d 33       		.uleb128 0x33
 6440 1a5e 4B000000 		.4byte	.LASF411
 6441 1a62 02       		.byte	0x2
 6442 1a63 A101     		.2byte	0x1a1
 6443 1a65 F6000000 		.4byte	0xf6
 6444 1a69 48090000 		.4byte	.LLST48
 6445 1a6d 33       		.uleb128 0x33
 6446 1a6e 90010000 		.4byte	.LASF412
 6447 1a72 02       		.byte	0x2
 6448 1a73 A201     		.2byte	0x1a2
 6449 1a75 F6000000 		.4byte	0xf6
 6450 1a79 72090000 		.4byte	.LLST49
 6451 1a7d 33       		.uleb128 0x33
 6452 1a7e F1090000 		.4byte	.LASF413
 6453 1a82 02       		.byte	0x2
 6454 1a83 AB01     		.2byte	0x1ab
 6455 1a85 F6000000 		.4byte	0xf6
 6456 1a89 9B090000 		.4byte	.LLST50
 6457 1a8d 36       		.uleb128 0x36
 6458 1a8e CA000000 		.4byte	.LBB82
 6459 1a92 66000000 		.4byte	.LBE82-.LBB82
 6460 1a96 33       		.uleb128 0x33
 6461 1a97 58170000 		.4byte	.LASF414
 6462 1a9b 02       		.byte	0x2
 6463 1a9c B101     		.2byte	0x1b1
 6464 1a9e F6000000 		.4byte	0xf6
 6465 1aa2 B9090000 		.4byte	.LLST51
 6466 1aa6 33       		.uleb128 0x33
 6467 1aa7 E4080000 		.4byte	.LASF415
 6468 1aab 02       		.byte	0x2
 6469 1aac B201     		.2byte	0x1b2
 6470 1aae F6000000 		.4byte	0xf6
 6471 1ab2 CC090000 		.4byte	.LLST52
 6472 1ab6 00       		.byte	0
 6473 1ab7 00       		.byte	0
 6474 1ab8 34       		.uleb128 0x34
 6475 1ab9 37110000 		.4byte	0x1137
 6476 1abd 42010000 		.4byte	.LBB83
 6477 1ac1 0E000000 		.4byte	.LBE83-.LBB83
 6478 1ac5 02       		.byte	0x2
 6479 1ac6 C001     		.2byte	0x1c0
 6480 1ac8 0A1B0000 		.4byte	0x1b0a
 6481 1acc 35       		.uleb128 0x35
 6482 1acd 54110000 		.4byte	0x1154
 6483 1ad1 EA090000 		.4byte	.LLST53
 6484 1ad5 35       		.uleb128 0x35
 6485 1ad6 48110000 		.4byte	0x1148
ARM GAS  C:\Users\haske\AppData\Local\Temp\ccVRp2Ta.s 			page 146


 6486 1ada FE090000 		.4byte	.LLST54
 6487 1ade 36       		.uleb128 0x36
 6488 1adf 42010000 		.4byte	.LBB84
 6489 1ae3 0E000000 		.4byte	.LBE84-.LBB84
 6490 1ae7 37       		.uleb128 0x37
 6491 1ae8 60110000 		.4byte	0x1160
 6492 1aec 38       		.uleb128 0x38
 6493 1aed 4C010000 		.4byte	.LVL132
 6494 1af1 D42C0000 		.4byte	0x2cd4
 6495 1af5 39       		.uleb128 0x39
 6496 1af6 01       		.uleb128 0x1
 6497 1af7 50       		.byte	0x50
 6498 1af8 04       		.uleb128 0x4
 6499 1af9 91       		.byte	0x91
 6500 1afa 987F     		.sleb128 -104
 6501 1afc 06       		.byte	0x6
 6502 1afd 39       		.uleb128 0x39
 6503 1afe 01       		.uleb128 0x1
 6504 1aff 51       		.byte	0x51
 6505 1b00 01       		.uleb128 0x1
 6506 1b01 30       		.byte	0x30
 6507 1b02 39       		.uleb128 0x39
 6508 1b03 01       		.uleb128 0x1
 6509 1b04 52       		.byte	0x52
 6510 1b05 01       		.uleb128 0x1
 6511 1b06 46       		.byte	0x46
 6512 1b07 00       		.byte	0
 6513 1b08 00       		.byte	0
 6514 1b09 00       		.byte	0
 6515 1b0a 3A       		.uleb128 0x3a
 6516 1b0b A8010000 		.4byte	.LBB85
 6517 1b0f F0020000 		.4byte	.LBE85-.LBB85
 6518 1b13 9D1E0000 		.4byte	0x1e9d
 6519 1b17 33       		.uleb128 0x33
 6520 1b18 4E1B0000 		.4byte	.LASF416
 6521 1b1c 02       		.byte	0x2
 6522 1b1d CF01     		.2byte	0x1cf
 6523 1b1f F6000000 		.4byte	0xf6
 6524 1b23 130A0000 		.4byte	.LLST55
 6525 1b27 33       		.uleb128 0x33
 6526 1b28 13170000 		.4byte	.LASF417
 6527 1b2c 02       		.byte	0x2
 6528 1b2d F201     		.2byte	0x1f2
 6529 1b2f F6000000 		.4byte	0xf6
 6530 1b33 4B0A0000 		.4byte	.LLST56
 6531 1b37 33       		.uleb128 0x33
 6532 1b38 6F1B0000 		.4byte	.LASF418
 6533 1b3c 02       		.byte	0x2
 6534 1b3d 0402     		.2byte	0x204
 6535 1b3f F6000000 		.4byte	0xf6
 6536 1b43 980A0000 		.4byte	.LLST57
 6537 1b47 33       		.uleb128 0x33
 6538 1b48 7E030000 		.4byte	.LASF419
 6539 1b4c 02       		.byte	0x2
 6540 1b4d 0502     		.2byte	0x205
 6541 1b4f F6000000 		.4byte	0xf6
 6542 1b53 AB0A0000 		.4byte	.LLST58
ARM GAS  C:\Users\haske\AppData\Local\Temp\ccVRp2Ta.s 			page 147


 6543 1b57 3F       		.uleb128 0x3f
 6544 1b58 7700     		.ascii	"w\000"
 6545 1b5a 02       		.byte	0x2
 6546 1b5b 0602     		.2byte	0x206
 6547 1b5d F6000000 		.4byte	0xf6
 6548 1b61 BE0A0000 		.4byte	.LLST59
 6549 1b65 3F       		.uleb128 0x3f
 6550 1b66 6800     		.ascii	"h\000"
 6551 1b68 02       		.byte	0x2
 6552 1b69 0702     		.2byte	0x207
 6553 1b6b F6000000 		.4byte	0xf6
 6554 1b6f D30A0000 		.4byte	.LLST60
 6555 1b73 33       		.uleb128 0x33
 6556 1b74 660E0000 		.4byte	.LASF420
 6557 1b78 02       		.byte	0x2
 6558 1b79 0B02     		.2byte	0x20b
 6559 1b7b F6000000 		.4byte	0xf6
 6560 1b7f E70A0000 		.4byte	.LLST61
 6561 1b83 33       		.uleb128 0x33
 6562 1b84 740E0000 		.4byte	.LASF421
 6563 1b88 02       		.byte	0x2
 6564 1b89 0C02     		.2byte	0x20c
 6565 1b8b F6000000 		.4byte	0xf6
 6566 1b8f 200B0000 		.4byte	.LLST62
 6567 1b93 34       		.uleb128 0x34
 6568 1b94 3C100000 		.4byte	0x103c
 6569 1b98 C6010000 		.4byte	.LBB86
 6570 1b9c 0E000000 		.4byte	.LBE86-.LBB86
 6571 1ba0 02       		.byte	0x2
 6572 1ba1 CF01     		.2byte	0x1cf
 6573 1ba3 DE1B0000 		.4byte	0x1bde
 6574 1ba7 35       		.uleb128 0x35
 6575 1ba8 57100000 		.4byte	0x1057
 6576 1bac 3E0B0000 		.4byte	.LLST63
 6577 1bb0 35       		.uleb128 0x35
 6578 1bb1 4C100000 		.4byte	0x104c
 6579 1bb5 520B0000 		.4byte	.LLST64
 6580 1bb9 36       		.uleb128 0x36
 6581 1bba C6010000 		.4byte	.LBB87
 6582 1bbe 0E000000 		.4byte	.LBE87-.LBB87
 6583 1bc2 37       		.uleb128 0x37
 6584 1bc3 62100000 		.4byte	0x1062
 6585 1bc7 38       		.uleb128 0x38
 6586 1bc8 D2010000 		.4byte	.LVL145
 6587 1bcc D42C0000 		.4byte	0x2cd4
 6588 1bd0 39       		.uleb128 0x39
 6589 1bd1 01       		.uleb128 0x1
 6590 1bd2 50       		.byte	0x50
 6591 1bd3 02       		.uleb128 0x2
 6592 1bd4 77       		.byte	0x77
 6593 1bd5 00       		.sleb128 0
 6594 1bd6 39       		.uleb128 0x39
 6595 1bd7 01       		.uleb128 0x1
 6596 1bd8 51       		.byte	0x51
 6597 1bd9 01       		.uleb128 0x1
 6598 1bda 30       		.byte	0x30
 6599 1bdb 00       		.byte	0
ARM GAS  C:\Users\haske\AppData\Local\Temp\ccVRp2Ta.s 			page 148


 6600 1bdc 00       		.byte	0
 6601 1bdd 00       		.byte	0
 6602 1bde 40       		.uleb128 0x40
 6603 1bdf 00000000 		.4byte	.Ldebug_ranges0+0
 6604 1be3 DC1C0000 		.4byte	0x1cdc
 6605 1be7 3F       		.uleb128 0x3f
 6606 1be8 7300     		.ascii	"s\000"
 6607 1bea 02       		.byte	0x2
 6608 1beb D101     		.2byte	0x1d1
 6609 1bed F6000000 		.4byte	0xf6
 6610 1bf1 650B0000 		.4byte	.LLST65
 6611 1bf5 3A       		.uleb128 0x3a
 6612 1bf6 46020000 		.4byte	.LBB89
 6613 1bfa 48000000 		.4byte	.LBE89-.LBB89
 6614 1bfe C81C0000 		.4byte	0x1cc8
 6615 1c02 32       		.uleb128 0x32
 6616 1c03 7E090000 		.4byte	.LASF422
 6617 1c07 02       		.byte	0x2
 6618 1c08 E501     		.2byte	0x1e5
 6619 1c0a 5E010000 		.4byte	0x15e
 6620 1c0e 02       		.uleb128 0x2
 6621 1c0f 91       		.byte	0x91
 6622 1c10 4C       		.sleb128 -52
 6623 1c11 34       		.uleb128 0x34
 6624 1c12 6B110000 		.4byte	0x116b
 6625 1c16 4C020000 		.4byte	.LBB90
 6626 1c1a 1A000000 		.4byte	.LBE90-.LBB90
 6627 1c1e 02       		.byte	0x2
 6628 1c1f E601     		.2byte	0x1e6
 6629 1c21 381C0000 		.4byte	0x1c38
 6630 1c25 35       		.uleb128 0x35
 6631 1c26 82110000 		.4byte	0x1182
 6632 1c2a 830B0000 		.4byte	.LLST66
 6633 1c2e 35       		.uleb128 0x35
 6634 1c2f 77110000 		.4byte	0x1177
 6635 1c33 980B0000 		.4byte	.LLST67
 6636 1c37 00       		.byte	0
 6637 1c38 3E       		.uleb128 0x3e
 6638 1c39 4C020000 		.4byte	.LVL158
 6639 1c3d 232D0000 		.4byte	0x2d23
 6640 1c41 4C1C0000 		.4byte	0x1c4c
 6641 1c45 39       		.uleb128 0x39
 6642 1c46 01       		.uleb128 0x1
 6643 1c47 50       		.byte	0x50
 6644 1c48 02       		.uleb128 0x2
 6645 1c49 77       		.byte	0x77
 6646 1c4a 00       		.sleb128 0
 6647 1c4b 00       		.byte	0
 6648 1c4c 3D       		.uleb128 0x3d
 6649 1c4d 6E020000 		.4byte	.LVL161
 6650 1c51 04       		.uleb128 0x4
 6651 1c52 91       		.byte	0x91
 6652 1c53 AC7F     		.sleb128 -84
 6653 1c55 06       		.byte	0x6
 6654 1c56 691C0000 		.4byte	0x1c69
 6655 1c5a 39       		.uleb128 0x39
 6656 1c5b 01       		.uleb128 0x1
ARM GAS  C:\Users\haske\AppData\Local\Temp\ccVRp2Ta.s 			page 149


 6657 1c5c 50       		.byte	0x50
 6658 1c5d 04       		.uleb128 0x4
 6659 1c5e 91       		.byte	0x91
 6660 1c5f A07F     		.sleb128 -96
 6661 1c61 06       		.byte	0x6
 6662 1c62 39       		.uleb128 0x39
 6663 1c63 01       		.uleb128 0x1
 6664 1c64 51       		.byte	0x51
 6665 1c65 02       		.uleb128 0x2
 6666 1c66 75       		.byte	0x75
 6667 1c67 00       		.sleb128 0
 6668 1c68 00       		.byte	0
 6669 1c69 3E       		.uleb128 0x3e
 6670 1c6a 78020000 		.4byte	.LVL162
 6671 1c6e 2F2D0000 		.4byte	0x2d2f
 6672 1c72 891C0000 		.4byte	0x1c89
 6673 1c76 39       		.uleb128 0x39
 6674 1c77 01       		.uleb128 0x1
 6675 1c78 50       		.byte	0x50
 6676 1c79 02       		.uleb128 0x2
 6677 1c7a 77       		.byte	0x77
 6678 1c7b 00       		.sleb128 0
 6679 1c7c 39       		.uleb128 0x39
 6680 1c7d 01       		.uleb128 0x1
 6681 1c7e 51       		.byte	0x51
 6682 1c7f 02       		.uleb128 0x2
 6683 1c80 08       		.byte	0x8
 6684 1c81 29       		.byte	0x29
 6685 1c82 39       		.uleb128 0x39
 6686 1c83 01       		.uleb128 0x1
 6687 1c84 52       		.byte	0x52
 6688 1c85 02       		.uleb128 0x2
 6689 1c86 74       		.byte	0x74
 6690 1c87 00       		.sleb128 0
 6691 1c88 00       		.byte	0
 6692 1c89 3E       		.uleb128 0x3e
 6693 1c8a 7E020000 		.4byte	.LVL163
 6694 1c8e 3A2D0000 		.4byte	0x2d3a
 6695 1c92 9D1C0000 		.4byte	0x1c9d
 6696 1c96 39       		.uleb128 0x39
 6697 1c97 01       		.uleb128 0x1
 6698 1c98 50       		.byte	0x50
 6699 1c99 02       		.uleb128 0x2
 6700 1c9a 77       		.byte	0x77
 6701 1c9b 00       		.sleb128 0
 6702 1c9c 00       		.byte	0
 6703 1c9d 3E       		.uleb128 0x3e
 6704 1c9e 86020000 		.4byte	.LVL164
 6705 1ca2 2F2D0000 		.4byte	0x2d2f
 6706 1ca6 B71C0000 		.4byte	0x1cb7
 6707 1caa 39       		.uleb128 0x39
 6708 1cab 01       		.uleb128 0x1
 6709 1cac 51       		.byte	0x51
 6710 1cad 02       		.uleb128 0x2
 6711 1cae 08       		.byte	0x8
 6712 1caf 22       		.byte	0x22
 6713 1cb0 39       		.uleb128 0x39
ARM GAS  C:\Users\haske\AppData\Local\Temp\ccVRp2Ta.s 			page 150


 6714 1cb1 01       		.uleb128 0x1
 6715 1cb2 52       		.byte	0x52
 6716 1cb3 02       		.uleb128 0x2
 6717 1cb4 77       		.byte	0x77
 6718 1cb5 00       		.sleb128 0
 6719 1cb6 00       		.byte	0
 6720 1cb7 38       		.uleb128 0x38
 6721 1cb8 8C020000 		.4byte	.LVL165
 6722 1cbc 232D0000 		.4byte	0x2d23
 6723 1cc0 39       		.uleb128 0x39
 6724 1cc1 01       		.uleb128 0x1
 6725 1cc2 50       		.byte	0x50
 6726 1cc3 02       		.uleb128 0x2
 6727 1cc4 77       		.byte	0x77
 6728 1cc5 00       		.sleb128 0
 6729 1cc6 00       		.byte	0
 6730 1cc7 00       		.byte	0
 6731 1cc8 3C       		.uleb128 0x3c
 6732 1cc9 42020000 		.4byte	.LVL157
 6733 1ccd 04       		.uleb128 0x4
 6734 1cce 91       		.byte	0x91
 6735 1ccf 9C7F     		.sleb128 -100
 6736 1cd1 06       		.byte	0x6
 6737 1cd2 39       		.uleb128 0x39
 6738 1cd3 01       		.uleb128 0x1
 6739 1cd4 50       		.byte	0x50
 6740 1cd5 04       		.uleb128 0x4
 6741 1cd6 91       		.byte	0x91
 6742 1cd7 A07F     		.sleb128 -96
 6743 1cd9 06       		.byte	0x6
 6744 1cda 00       		.byte	0
 6745 1cdb 00       		.byte	0
 6746 1cdc 34       		.uleb128 0x34
 6747 1cdd BE110000 		.4byte	0x11be
 6748 1ce1 1C030000 		.4byte	.LBB93
 6749 1ce5 10000000 		.4byte	.LBE93-.LBB93
 6750 1ce9 02       		.byte	0x2
 6751 1cea 0402     		.2byte	0x204
 6752 1cec 311D0000 		.4byte	0x1d31
 6753 1cf0 35       		.uleb128 0x35
 6754 1cf1 D9110000 		.4byte	0x11d9
 6755 1cf5 B80B0000 		.4byte	.LLST68
 6756 1cf9 35       		.uleb128 0x35
 6757 1cfa CE110000 		.4byte	0x11ce
 6758 1cfe CC0B0000 		.4byte	.LLST69
 6759 1d02 36       		.uleb128 0x36
 6760 1d03 1C030000 		.4byte	.LBB94
 6761 1d07 10000000 		.4byte	.LBE94-.LBB94
 6762 1d0b 41       		.uleb128 0x41
 6763 1d0c E4110000 		.4byte	0x11e4
 6764 1d10 DF0B0000 		.4byte	.LLST70
 6765 1d14 38       		.uleb128 0x38
 6766 1d15 26030000 		.4byte	.LVL177
 6767 1d19 D42C0000 		.4byte	0x2cd4
 6768 1d1d 39       		.uleb128 0x39
 6769 1d1e 01       		.uleb128 0x1
 6770 1d1f 50       		.byte	0x50
ARM GAS  C:\Users\haske\AppData\Local\Temp\ccVRp2Ta.s 			page 151


 6771 1d20 02       		.uleb128 0x2
 6772 1d21 77       		.byte	0x77
 6773 1d22 00       		.sleb128 0
 6774 1d23 39       		.uleb128 0x39
 6775 1d24 01       		.uleb128 0x1
 6776 1d25 51       		.byte	0x51
 6777 1d26 01       		.uleb128 0x1
 6778 1d27 30       		.byte	0x30
 6779 1d28 39       		.uleb128 0x39
 6780 1d29 01       		.uleb128 0x1
 6781 1d2a 52       		.byte	0x52
 6782 1d2b 02       		.uleb128 0x2
 6783 1d2c 08       		.byte	0x8
 6784 1d2d 6A       		.byte	0x6a
 6785 1d2e 00       		.byte	0
 6786 1d2f 00       		.byte	0
 6787 1d30 00       		.byte	0
 6788 1d31 34       		.uleb128 0x34
 6789 1d32 8E110000 		.4byte	0x118e
 6790 1d36 2C030000 		.4byte	.LBB95
 6791 1d3a 10000000 		.4byte	.LBE95-.LBB95
 6792 1d3e 02       		.byte	0x2
 6793 1d3f 0502     		.2byte	0x205
 6794 1d41 821D0000 		.4byte	0x1d82
 6795 1d45 35       		.uleb128 0x35
 6796 1d46 A9110000 		.4byte	0x11a9
 6797 1d4a F20B0000 		.4byte	.LLST71
 6798 1d4e 35       		.uleb128 0x35
 6799 1d4f 9E110000 		.4byte	0x119e
 6800 1d53 060C0000 		.4byte	.LLST72
 6801 1d57 36       		.uleb128 0x36
 6802 1d58 2C030000 		.4byte	.LBB96
 6803 1d5c 10000000 		.4byte	.LBE96-.LBB96
 6804 1d60 37       		.uleb128 0x37
 6805 1d61 B4110000 		.4byte	0x11b4
 6806 1d65 38       		.uleb128 0x38
 6807 1d66 36030000 		.4byte	.LVL180
 6808 1d6a D42C0000 		.4byte	0x2cd4
 6809 1d6e 39       		.uleb128 0x39
 6810 1d6f 01       		.uleb128 0x1
 6811 1d70 50       		.byte	0x50
 6812 1d71 02       		.uleb128 0x2
 6813 1d72 77       		.byte	0x77
 6814 1d73 00       		.sleb128 0
 6815 1d74 39       		.uleb128 0x39
 6816 1d75 01       		.uleb128 0x1
 6817 1d76 51       		.byte	0x51
 6818 1d77 01       		.uleb128 0x1
 6819 1d78 30       		.byte	0x30
 6820 1d79 39       		.uleb128 0x39
 6821 1d7a 01       		.uleb128 0x1
 6822 1d7b 52       		.byte	0x52
 6823 1d7c 02       		.uleb128 0x2
 6824 1d7d 08       		.byte	0x8
 6825 1d7e 6B       		.byte	0x6b
 6826 1d7f 00       		.byte	0
 6827 1d80 00       		.byte	0
ARM GAS  C:\Users\haske\AppData\Local\Temp\ccVRp2Ta.s 			page 152


 6828 1d81 00       		.byte	0
 6829 1d82 3E       		.uleb128 0x3e
 6830 1d83 B0010000 		.4byte	.LVL140
 6831 1d87 172D0000 		.4byte	0x2d17
 6832 1d8b 9F1D0000 		.4byte	0x1d9f
 6833 1d8f 39       		.uleb128 0x39
 6834 1d90 01       		.uleb128 0x1
 6835 1d91 50       		.byte	0x50
 6836 1d92 02       		.uleb128 0x2
 6837 1d93 77       		.byte	0x77
 6838 1d94 00       		.sleb128 0
 6839 1d95 39       		.uleb128 0x39
 6840 1d96 01       		.uleb128 0x1
 6841 1d97 51       		.byte	0x51
 6842 1d98 05       		.uleb128 0x5
 6843 1d99 0C       		.byte	0xc
 6844 1d9a 01000600 		.4byte	0x60001
 6845 1d9e 00       		.byte	0
 6846 1d9f 3E       		.uleb128 0x3e
 6847 1da0 C2010000 		.4byte	.LVL142
 6848 1da4 6B140000 		.4byte	0x146b
 6849 1da8 BB1D0000 		.4byte	0x1dbb
 6850 1dac 39       		.uleb128 0x39
 6851 1dad 01       		.uleb128 0x1
 6852 1dae 50       		.byte	0x50
 6853 1daf 04       		.uleb128 0x4
 6854 1db0 91       		.byte	0x91
 6855 1db1 987F     		.sleb128 -104
 6856 1db3 06       		.byte	0x6
 6857 1db4 39       		.uleb128 0x39
 6858 1db5 01       		.uleb128 0x1
 6859 1db6 52       		.byte	0x52
 6860 1db7 02       		.uleb128 0x2
 6861 1db8 91       		.byte	0x91
 6862 1db9 44       		.sleb128 -60
 6863 1dba 00       		.byte	0
 6864 1dbb 3D       		.uleb128 0x3d
 6865 1dbc BE020000 		.4byte	.LVL168
 6866 1dc0 04       		.uleb128 0x4
 6867 1dc1 91       		.byte	0x91
 6868 1dc2 A47F     		.sleb128 -92
 6869 1dc4 06       		.byte	0x6
 6870 1dc5 D01D0000 		.4byte	0x1dd0
 6871 1dc9 39       		.uleb128 0x39
 6872 1dca 01       		.uleb128 0x1
 6873 1dcb 50       		.byte	0x50
 6874 1dcc 02       		.uleb128 0x2
 6875 1dcd 77       		.byte	0x77
 6876 1dce 14       		.sleb128 20
 6877 1dcf 00       		.byte	0
 6878 1dd0 3D       		.uleb128 0x3d
 6879 1dd1 D8020000 		.4byte	.LVL171
 6880 1dd5 04       		.uleb128 0x4
 6881 1dd6 91       		.byte	0x91
 6882 1dd7 A47F     		.sleb128 -92
 6883 1dd9 06       		.byte	0x6
 6884 1dda E51D0000 		.4byte	0x1de5
ARM GAS  C:\Users\haske\AppData\Local\Temp\ccVRp2Ta.s 			page 153


 6885 1dde 39       		.uleb128 0x39
 6886 1ddf 01       		.uleb128 0x1
 6887 1de0 50       		.byte	0x50
 6888 1de1 02       		.uleb128 0x2
 6889 1de2 77       		.byte	0x77
 6890 1de3 14       		.sleb128 20
 6891 1de4 00       		.byte	0
 6892 1de5 3D       		.uleb128 0x3d
 6893 1de6 0E030000 		.4byte	.LVL175
 6894 1dea 04       		.uleb128 0x4
 6895 1deb 91       		.byte	0x91
 6896 1dec 9C7F     		.sleb128 -100
 6897 1dee 06       		.byte	0x6
 6898 1def FA1D0000 		.4byte	0x1dfa
 6899 1df3 39       		.uleb128 0x39
 6900 1df4 01       		.uleb128 0x1
 6901 1df5 50       		.byte	0x50
 6902 1df6 02       		.uleb128 0x2
 6903 1df7 77       		.byte	0x77
 6904 1df8 14       		.sleb128 20
 6905 1df9 00       		.byte	0
 6906 1dfa 3E       		.uleb128 0x3e
 6907 1dfb 42030000 		.4byte	.LVL182
 6908 1dff 452D0000 		.4byte	0x2d45
 6909 1e03 0E1E0000 		.4byte	0x1e0e
 6910 1e07 39       		.uleb128 0x39
 6911 1e08 01       		.uleb128 0x1
 6912 1e09 50       		.byte	0x50
 6913 1e0a 02       		.uleb128 0x2
 6914 1e0b 77       		.byte	0x77
 6915 1e0c 00       		.sleb128 0
 6916 1e0d 00       		.byte	0
 6917 1e0e 3E       		.uleb128 0x3e
 6918 1e0f 4A030000 		.4byte	.LVL184
 6919 1e13 512D0000 		.4byte	0x2d51
 6920 1e17 221E0000 		.4byte	0x1e22
 6921 1e1b 39       		.uleb128 0x39
 6922 1e1c 01       		.uleb128 0x1
 6923 1e1d 50       		.byte	0x50
 6924 1e1e 02       		.uleb128 0x2
 6925 1e1f 77       		.byte	0x77
 6926 1e20 00       		.sleb128 0
 6927 1e21 00       		.byte	0
 6928 1e22 3E       		.uleb128 0x3e
 6929 1e23 16040000 		.4byte	.LVL198
 6930 1e27 232D0000 		.4byte	0x2d23
 6931 1e2b 361E0000 		.4byte	0x1e36
 6932 1e2f 39       		.uleb128 0x39
 6933 1e30 01       		.uleb128 0x1
 6934 1e31 50       		.byte	0x50
 6935 1e32 02       		.uleb128 0x2
 6936 1e33 77       		.byte	0x77
 6937 1e34 00       		.sleb128 0
 6938 1e35 00       		.byte	0
 6939 1e36 3E       		.uleb128 0x3e
 6940 1e37 34040000 		.4byte	.LVL199
 6941 1e3b 232D0000 		.4byte	0x2d23
ARM GAS  C:\Users\haske\AppData\Local\Temp\ccVRp2Ta.s 			page 154


 6942 1e3f 4A1E0000 		.4byte	0x1e4a
 6943 1e43 39       		.uleb128 0x39
 6944 1e44 01       		.uleb128 0x1
 6945 1e45 50       		.byte	0x50
 6946 1e46 02       		.uleb128 0x2
 6947 1e47 77       		.byte	0x77
 6948 1e48 00       		.sleb128 0
 6949 1e49 00       		.byte	0
 6950 1e4a 3E       		.uleb128 0x3e
 6951 1e4b 40040000 		.4byte	.LVL200
 6952 1e4f 5D2D0000 		.4byte	0x2d5d
 6953 1e53 6F1E0000 		.4byte	0x1e6f
 6954 1e57 39       		.uleb128 0x39
 6955 1e58 01       		.uleb128 0x1
 6956 1e59 50       		.byte	0x50
 6957 1e5a 02       		.uleb128 0x2
 6958 1e5b 77       		.byte	0x77
 6959 1e5c 00       		.sleb128 0
 6960 1e5d 39       		.uleb128 0x39
 6961 1e5e 01       		.uleb128 0x1
 6962 1e5f 51       		.byte	0x51
 6963 1e60 02       		.uleb128 0x2
 6964 1e61 7B       		.byte	0x7b
 6965 1e62 00       		.sleb128 0
 6966 1e63 39       		.uleb128 0x39
 6967 1e64 01       		.uleb128 0x1
 6968 1e65 52       		.byte	0x52
 6969 1e66 02       		.uleb128 0x2
 6970 1e67 79       		.byte	0x79
 6971 1e68 00       		.sleb128 0
 6972 1e69 39       		.uleb128 0x39
 6973 1e6a 01       		.uleb128 0x1
 6974 1e6b 53       		.byte	0x53
 6975 1e6c 01       		.uleb128 0x1
 6976 1e6d 30       		.byte	0x30
 6977 1e6e 00       		.byte	0
 6978 1e6f 3D       		.uleb128 0x3d
 6979 1e70 54040000 		.4byte	.LVL201
 6980 1e74 04       		.uleb128 0x4
 6981 1e75 91       		.byte	0x91
 6982 1e76 9C7F     		.sleb128 -100
 6983 1e78 06       		.byte	0x6
 6984 1e79 841E0000 		.4byte	0x1e84
 6985 1e7d 39       		.uleb128 0x39
 6986 1e7e 01       		.uleb128 0x1
 6987 1e7f 50       		.byte	0x50
 6988 1e80 02       		.uleb128 0x2
 6989 1e81 77       		.byte	0x77
 6990 1e82 14       		.sleb128 20
 6991 1e83 00       		.byte	0
 6992 1e84 38       		.uleb128 0x38
 6993 1e85 96040000 		.4byte	.LVL203
 6994 1e89 6B140000 		.4byte	0x146b
 6995 1e8d 39       		.uleb128 0x39
 6996 1e8e 01       		.uleb128 0x1
 6997 1e8f 50       		.byte	0x50
 6998 1e90 04       		.uleb128 0x4
ARM GAS  C:\Users\haske\AppData\Local\Temp\ccVRp2Ta.s 			page 155


 6999 1e91 91       		.byte	0x91
 7000 1e92 987F     		.sleb128 -104
 7001 1e94 06       		.byte	0x6
 7002 1e95 39       		.uleb128 0x39
 7003 1e96 01       		.uleb128 0x1
 7004 1e97 52       		.byte	0x52
 7005 1e98 02       		.uleb128 0x2
 7006 1e99 91       		.byte	0x91
 7007 1e9a 44       		.sleb128 -60
 7008 1e9b 00       		.byte	0
 7009 1e9c 00       		.byte	0
 7010 1e9d 3E       		.uleb128 0x3e
 7011 1e9e 76010000 		.4byte	.LVL134
 7012 1ea2 F0130000 		.4byte	0x13f0
 7013 1ea6 BF1E0000 		.4byte	0x1ebf
 7014 1eaa 39       		.uleb128 0x39
 7015 1eab 01       		.uleb128 0x1
 7016 1eac 51       		.byte	0x51
 7017 1ead 02       		.uleb128 0x2
 7018 1eae 78       		.byte	0x78
 7019 1eaf 00       		.sleb128 0
 7020 1eb0 39       		.uleb128 0x39
 7021 1eb1 02       		.uleb128 0x2
 7022 1eb2 7D       		.byte	0x7d
 7023 1eb3 00       		.sleb128 0
 7024 1eb4 02       		.uleb128 0x2
 7025 1eb5 91       		.byte	0x91
 7026 1eb6 56       		.sleb128 -42
 7027 1eb7 39       		.uleb128 0x39
 7028 1eb8 02       		.uleb128 0x2
 7029 1eb9 7D       		.byte	0x7d
 7030 1eba 04       		.sleb128 4
 7031 1ebb 02       		.uleb128 0x2
 7032 1ebc 74       		.byte	0x74
 7033 1ebd 00       		.sleb128 0
 7034 1ebe 00       		.byte	0
 7035 1ebf 3E       		.uleb128 0x3e
 7036 1ec0 8A010000 		.4byte	.LVL135
 7037 1ec4 692D0000 		.4byte	0x2d69
 7038 1ec8 D51E0000 		.4byte	0x1ed5
 7039 1ecc 39       		.uleb128 0x39
 7040 1ecd 01       		.uleb128 0x1
 7041 1ece 50       		.byte	0x50
 7042 1ecf 04       		.uleb128 0x4
 7043 1ed0 91       		.byte	0x91
 7044 1ed1 987F     		.sleb128 -104
 7045 1ed3 06       		.byte	0x6
 7046 1ed4 00       		.byte	0
 7047 1ed5 38       		.uleb128 0x38
 7048 1ed6 A0010000 		.4byte	.LVL136
 7049 1eda 002D0000 		.4byte	0x2d00
 7050 1ede 39       		.uleb128 0x39
 7051 1edf 01       		.uleb128 0x1
 7052 1ee0 50       		.byte	0x50
 7053 1ee1 04       		.uleb128 0x4
 7054 1ee2 91       		.byte	0x91
 7055 1ee3 987F     		.sleb128 -104
ARM GAS  C:\Users\haske\AppData\Local\Temp\ccVRp2Ta.s 			page 156


 7056 1ee5 06       		.byte	0x6
 7057 1ee6 00       		.byte	0
 7058 1ee7 00       		.byte	0
 7059 1ee8 1E       		.uleb128 0x1e
 7060 1ee9 F81E0000 		.4byte	0x1ef8
 7061 1eed 0E       		.uleb128 0xe
 7062 1eee 95070000 		.4byte	0x795
 7063 1ef2 0E       		.uleb128 0xe
 7064 1ef3 F6000000 		.4byte	0xf6
 7065 1ef7 00       		.byte	0
 7066 1ef8 0B       		.uleb128 0xb
 7067 1ef9 04       		.byte	0x4
 7068 1efa E81E0000 		.4byte	0x1ee8
 7069 1efe 0D       		.uleb128 0xd
 7070 1eff F6000000 		.4byte	0xf6
 7071 1f03 0D1F0000 		.4byte	0x1f0d
 7072 1f07 0E       		.uleb128 0xe
 7073 1f08 8A070000 		.4byte	0x78a
 7074 1f0c 00       		.byte	0
 7075 1f0d 0B       		.uleb128 0xb
 7076 1f0e 04       		.byte	0x4
 7077 1f0f FE1E0000 		.4byte	0x1efe
 7078 1f13 42       		.uleb128 0x42
 7079 1f14 0D0A0000 		.4byte	.LASF423
 7080 1f18 02       		.byte	0x2
 7081 1f19 D1       		.byte	0xd1
 7082 1f1a 00000000 		.4byte	.LFB189
 7083 1f1e D0030000 		.4byte	.LFE189-.LFB189
 7084 1f22 01       		.uleb128 0x1
 7085 1f23 9C       		.byte	0x9c
 7086 1f24 59260000 		.4byte	0x2659
 7087 1f28 2A       		.uleb128 0x2a
 7088 1f29 D5020000 		.4byte	.LASF387
 7089 1f2d 02       		.byte	0x2
 7090 1f2e D1       		.byte	0xd1
 7091 1f2f 4F0F0000 		.4byte	0xf4f
 7092 1f33 190C0000 		.4byte	.LLST73
 7093 1f37 2A       		.uleb128 0x2a
 7094 1f38 9A1F0000 		.4byte	.LASF41
 7095 1f3c 02       		.byte	0x2
 7096 1f3d D1       		.byte	0xd1
 7097 1f3e DE020000 		.4byte	0x2de
 7098 1f42 450C0000 		.4byte	.LLST74
 7099 1f46 43       		.uleb128 0x43
 7100 1f47 6600     		.ascii	"f\000"
 7101 1f49 02       		.byte	0x2
 7102 1f4a D6       		.byte	0xd6
 7103 1f4b F00E0000 		.4byte	0xef0
 7104 1f4f 02       		.uleb128 0x2
 7105 1f50 91       		.byte	0x91
 7106 1f51 54       		.sleb128 -44
 7107 1f52 44       		.uleb128 0x44
 7108 1f53 81010000 		.4byte	.LASF424
 7109 1f57 02       		.byte	0x2
 7110 1f58 D7       		.byte	0xd7
 7111 1f59 8B0E0000 		.4byte	0xe8b
 7112 1f5d 45       		.uleb128 0x45
ARM GAS  C:\Users\haske\AppData\Local\Temp\ccVRp2Ta.s 			page 157


 7113 1f5e 72746C00 		.ascii	"rtl\000"
 7114 1f62 02       		.byte	0x2
 7115 1f63 DF       		.byte	0xdf
 7116 1f64 9F020000 		.4byte	0x29f
 7117 1f68 660C0000 		.4byte	.LLST75
 7118 1f6c 46       		.uleb128 0x46
 7119 1f6d CC0A0000 		.4byte	.LASF425
 7120 1f71 02       		.byte	0x2
 7121 1f72 E0       		.byte	0xe0
 7122 1f73 F6000000 		.4byte	0xf6
 7123 1f77 800C0000 		.4byte	.LLST76
 7124 1f7b 46       		.uleb128 0x46
 7125 1f7c AF030000 		.4byte	.LASF392
 7126 1f80 02       		.byte	0x2
 7127 1f81 E2       		.byte	0xe2
 7128 1f82 F6000000 		.4byte	0xf6
 7129 1f86 930C0000 		.4byte	.LLST77
 7130 1f8a 47       		.uleb128 0x47
 7131 1f8b 5C0B0000 		.4byte	.LASF391
 7132 1f8f 02       		.byte	0x2
 7133 1f90 E4       		.byte	0xe4
 7134 1f91 F6000000 		.4byte	0xf6
 7135 1f95 03       		.uleb128 0x3
 7136 1f96 91       		.byte	0x91
 7137 1f97 A47F     		.sleb128 -92
 7138 1f99 44       		.uleb128 0x44
 7139 1f9a 68180000 		.4byte	.LASF426
 7140 1f9e 02       		.byte	0x2
 7141 1f9f E5       		.byte	0xe5
 7142 1fa0 F6000000 		.4byte	0xf6
 7143 1fa4 47       		.uleb128 0x47
 7144 1fa5 DD0D0000 		.4byte	.LASF404
 7145 1fa9 02       		.byte	0x2
 7146 1faa E6       		.byte	0xe6
 7147 1fab F6000000 		.4byte	0xf6
 7148 1faf 02       		.uleb128 0x2
 7149 1fb0 91       		.byte	0x91
 7150 1fb1 52       		.sleb128 -46
 7151 1fb2 47       		.uleb128 0x47
 7152 1fb3 D70D0000 		.4byte	.LASF403
 7153 1fb7 02       		.byte	0x2
 7154 1fb8 E8       		.byte	0xe8
 7155 1fb9 F6000000 		.4byte	0xf6
 7156 1fbd 02       		.uleb128 0x2
 7157 1fbe 91       		.byte	0x91
 7158 1fbf 50       		.sleb128 -48
 7159 1fc0 46       		.uleb128 0x46
 7160 1fc1 ED1B0000 		.4byte	.LASF427
 7161 1fc5 02       		.byte	0x2
 7162 1fc6 EB       		.byte	0xeb
 7163 1fc7 430E0000 		.4byte	0xe43
 7164 1fcb B10C0000 		.4byte	.LLST78
 7165 1fcf 46       		.uleb128 0x46
 7166 1fd0 13170000 		.4byte	.LASF417
 7167 1fd4 02       		.byte	0x2
 7168 1fd5 EC       		.byte	0xec
 7169 1fd6 65140000 		.4byte	0x1465
ARM GAS  C:\Users\haske\AppData\Local\Temp\ccVRp2Ta.s 			page 158


 7170 1fda ED0C0000 		.4byte	.LLST79
 7171 1fde 44       		.uleb128 0x44
 7172 1fdf 16210000 		.4byte	.LASF393
 7173 1fe3 02       		.byte	0x2
 7174 1fe4 EE       		.byte	0xee
 7175 1fe5 F6000000 		.4byte	0xf6
 7176 1fe9 44       		.uleb128 0x44
 7177 1fea 5A210000 		.4byte	.LASF394
 7178 1fee 02       		.byte	0x2
 7179 1fef EF       		.byte	0xef
 7180 1ff0 F6000000 		.4byte	0xf6
 7181 1ff4 46       		.uleb128 0x46
 7182 1ff5 84150000 		.4byte	.LASF428
 7183 1ff9 02       		.byte	0x2
 7184 1ffa FC       		.byte	0xfc
 7185 1ffb F6000000 		.4byte	0xf6
 7186 1fff 160D0000 		.4byte	.LLST80
 7187 2003 43       		.uleb128 0x43
 7188 2004 67617000 		.ascii	"gap\000"
 7189 2008 02       		.byte	0x2
 7190 2009 FD       		.byte	0xfd
 7191 200a F6000000 		.4byte	0xf6
 7192 200e 02       		.uleb128 0x2
 7193 200f 91       		.byte	0x91
 7194 2010 4E       		.sleb128 -50
 7195 2011 46       		.uleb128 0x46
 7196 2012 C9130000 		.4byte	.LASF429
 7197 2016 02       		.byte	0x2
 7198 2017 FE       		.byte	0xfe
 7199 2018 E4000000 		.4byte	0xe4
 7200 201c 6D0D0000 		.4byte	.LLST81
 7201 2020 46       		.uleb128 0x46
 7202 2021 BF1A0000 		.4byte	.LASF430
 7203 2025 02       		.byte	0x2
 7204 2026 FF       		.byte	0xff
 7205 2027 D9000000 		.4byte	0xd9
 7206 202b B90D0000 		.4byte	.LLST82
 7207 202f 33       		.uleb128 0x33
 7208 2030 201F0000 		.4byte	.LASF431
 7209 2034 02       		.byte	0x2
 7210 2035 0001     		.2byte	0x100
 7211 2037 D9000000 		.4byte	0xd9
 7212 203b 050E0000 		.4byte	.LLST83
 7213 203f 48       		.uleb128 0x48
 7214 2040 7E120000 		.4byte	0x127e
 7215 2044 10000000 		.4byte	.LBB97
 7216 2048 0A000000 		.4byte	.LBE97-.LBB97
 7217 204c 02       		.byte	0x2
 7218 204d D7       		.byte	0xd7
 7219 204e 8D200000 		.4byte	0x208d
 7220 2052 35       		.uleb128 0x35
 7221 2053 99120000 		.4byte	0x1299
 7222 2057 300E0000 		.4byte	.LLST84
 7223 205b 35       		.uleb128 0x35
 7224 205c 8E120000 		.4byte	0x128e
 7225 2060 440E0000 		.4byte	.LLST85
 7226 2064 36       		.uleb128 0x36
ARM GAS  C:\Users\haske\AppData\Local\Temp\ccVRp2Ta.s 			page 159


 7227 2065 10000000 		.4byte	.LBB98
 7228 2069 0A000000 		.4byte	.LBE98-.LBB98
 7229 206d 41       		.uleb128 0x41
 7230 206e A4120000 		.4byte	0x12a4
 7231 2072 620E0000 		.4byte	.LLST86
 7232 2076 38       		.uleb128 0x38
 7233 2077 1A000000 		.4byte	.LVL210
 7234 207b D42C0000 		.4byte	0x2cd4
 7235 207f 39       		.uleb128 0x39
 7236 2080 01       		.uleb128 0x1
 7237 2081 50       		.byte	0x50
 7238 2082 02       		.uleb128 0x2
 7239 2083 74       		.byte	0x74
 7240 2084 00       		.sleb128 0
 7241 2085 39       		.uleb128 0x39
 7242 2086 01       		.uleb128 0x1
 7243 2087 51       		.byte	0x51
 7244 2088 01       		.uleb128 0x1
 7245 2089 30       		.byte	0x30
 7246 208a 00       		.byte	0
 7247 208b 00       		.byte	0
 7248 208c 00       		.byte	0
 7249 208d 48       		.uleb128 0x48
 7250 208e 4E120000 		.4byte	0x124e
 7251 2092 64000000 		.4byte	.LBB99
 7252 2096 0C000000 		.4byte	.LBE99-.LBB99
 7253 209a 02       		.byte	0x2
 7254 209b DB       		.byte	0xdb
 7255 209c D7200000 		.4byte	0x20d7
 7256 20a0 35       		.uleb128 0x35
 7257 20a1 69120000 		.4byte	0x1269
 7258 20a5 750E0000 		.4byte	.LLST87
 7259 20a9 35       		.uleb128 0x35
 7260 20aa 5E120000 		.4byte	0x125e
 7261 20ae 890E0000 		.4byte	.LLST88
 7262 20b2 36       		.uleb128 0x36
 7263 20b3 64000000 		.4byte	.LBB100
 7264 20b7 0C000000 		.4byte	.LBE100-.LBB100
 7265 20bb 37       		.uleb128 0x37
 7266 20bc 74120000 		.4byte	0x1274
 7267 20c0 38       		.uleb128 0x38
 7268 20c1 70000000 		.4byte	.LVL214
 7269 20c5 D42C0000 		.4byte	0x2cd4
 7270 20c9 39       		.uleb128 0x39
 7271 20ca 01       		.uleb128 0x1
 7272 20cb 50       		.byte	0x50
 7273 20cc 02       		.uleb128 0x2
 7274 20cd 74       		.byte	0x74
 7275 20ce 00       		.sleb128 0
 7276 20cf 39       		.uleb128 0x39
 7277 20d0 01       		.uleb128 0x1
 7278 20d1 51       		.byte	0x51
 7279 20d2 01       		.uleb128 0x1
 7280 20d3 30       		.byte	0x30
 7281 20d4 00       		.byte	0
 7282 20d5 00       		.byte	0
 7283 20d6 00       		.byte	0
ARM GAS  C:\Users\haske\AppData\Local\Temp\ccVRp2Ta.s 			page 160


 7284 20d7 48       		.uleb128 0x48
 7285 20d8 1E120000 		.4byte	0x121e
 7286 20dc 72000000 		.4byte	.LBB101
 7287 20e0 0C000000 		.4byte	.LBE101-.LBB101
 7288 20e4 02       		.byte	0x2
 7289 20e5 DC       		.byte	0xdc
 7290 20e6 21210000 		.4byte	0x2121
 7291 20ea 35       		.uleb128 0x35
 7292 20eb 39120000 		.4byte	0x1239
 7293 20ef 9C0E0000 		.4byte	.LLST89
 7294 20f3 35       		.uleb128 0x35
 7295 20f4 2E120000 		.4byte	0x122e
 7296 20f8 B00E0000 		.4byte	.LLST90
 7297 20fc 36       		.uleb128 0x36
 7298 20fd 72000000 		.4byte	.LBB102
 7299 2101 0C000000 		.4byte	.LBE102-.LBB102
 7300 2105 37       		.uleb128 0x37
 7301 2106 44120000 		.4byte	0x1244
 7302 210a 38       		.uleb128 0x38
 7303 210b 7E000000 		.4byte	.LVL216
 7304 210f D42C0000 		.4byte	0x2cd4
 7305 2113 39       		.uleb128 0x39
 7306 2114 01       		.uleb128 0x1
 7307 2115 50       		.byte	0x50
 7308 2116 02       		.uleb128 0x2
 7309 2117 74       		.byte	0x74
 7310 2118 00       		.sleb128 0
 7311 2119 39       		.uleb128 0x39
 7312 211a 01       		.uleb128 0x1
 7313 211b 51       		.byte	0x51
 7314 211c 01       		.uleb128 0x1
 7315 211d 30       		.byte	0x30
 7316 211e 00       		.byte	0
 7317 211f 00       		.byte	0
 7318 2120 00       		.byte	0
 7319 2121 48       		.uleb128 0x48
 7320 2122 EE110000 		.4byte	0x11ee
 7321 2126 80000000 		.4byte	.LBB103
 7322 212a 0C000000 		.4byte	.LBE103-.LBB103
 7323 212e 02       		.byte	0x2
 7324 212f DD       		.byte	0xdd
 7325 2130 6B210000 		.4byte	0x216b
 7326 2134 35       		.uleb128 0x35
 7327 2135 09120000 		.4byte	0x1209
 7328 2139 C30E0000 		.4byte	.LLST91
 7329 213d 35       		.uleb128 0x35
 7330 213e FE110000 		.4byte	0x11fe
 7331 2142 D70E0000 		.4byte	.LLST92
 7332 2146 36       		.uleb128 0x36
 7333 2147 80000000 		.4byte	.LBB104
 7334 214b 0C000000 		.4byte	.LBE104-.LBB104
 7335 214f 37       		.uleb128 0x37
 7336 2150 14120000 		.4byte	0x1214
 7337 2154 38       		.uleb128 0x38
 7338 2155 8C000000 		.4byte	.LVL218
 7339 2159 D42C0000 		.4byte	0x2cd4
 7340 215d 39       		.uleb128 0x39
ARM GAS  C:\Users\haske\AppData\Local\Temp\ccVRp2Ta.s 			page 161


 7341 215e 01       		.uleb128 0x1
 7342 215f 50       		.byte	0x50
 7343 2160 02       		.uleb128 0x2
 7344 2161 74       		.byte	0x74
 7345 2162 00       		.sleb128 0
 7346 2163 39       		.uleb128 0x39
 7347 2164 01       		.uleb128 0x1
 7348 2165 51       		.byte	0x51
 7349 2166 01       		.uleb128 0x1
 7350 2167 30       		.byte	0x30
 7351 2168 00       		.byte	0
 7352 2169 00       		.byte	0
 7353 216a 00       		.byte	0
 7354 216b 48       		.uleb128 0x48
 7355 216c 37110000 		.4byte	0x1137
 7356 2170 8E000000 		.4byte	.LBB105
 7357 2174 0E000000 		.4byte	.LBE105-.LBB105
 7358 2178 02       		.byte	0x2
 7359 2179 DF       		.byte	0xdf
 7360 217a BA210000 		.4byte	0x21ba
 7361 217e 35       		.uleb128 0x35
 7362 217f 54110000 		.4byte	0x1154
 7363 2183 EA0E0000 		.4byte	.LLST93
 7364 2187 35       		.uleb128 0x35
 7365 2188 48110000 		.4byte	0x1148
 7366 218c FE0E0000 		.4byte	.LLST94
 7367 2190 36       		.uleb128 0x36
 7368 2191 8E000000 		.4byte	.LBB106
 7369 2195 0E000000 		.4byte	.LBE106-.LBB106
 7370 2199 37       		.uleb128 0x37
 7371 219a 60110000 		.4byte	0x1160
 7372 219e 38       		.uleb128 0x38
 7373 219f 98000000 		.4byte	.LVL220
 7374 21a3 D42C0000 		.4byte	0x2cd4
 7375 21a7 39       		.uleb128 0x39
 7376 21a8 01       		.uleb128 0x1
 7377 21a9 50       		.byte	0x50
 7378 21aa 02       		.uleb128 0x2
 7379 21ab 74       		.byte	0x74
 7380 21ac 00       		.sleb128 0
 7381 21ad 39       		.uleb128 0x39
 7382 21ae 01       		.uleb128 0x1
 7383 21af 51       		.byte	0x51
 7384 21b0 01       		.uleb128 0x1
 7385 21b1 30       		.byte	0x30
 7386 21b2 39       		.uleb128 0x39
 7387 21b3 01       		.uleb128 0x1
 7388 21b4 52       		.byte	0x52
 7389 21b5 01       		.uleb128 0x1
 7390 21b6 46       		.byte	0x46
 7391 21b7 00       		.byte	0
 7392 21b8 00       		.byte	0
 7393 21b9 00       		.byte	0
 7394 21ba 48       		.uleb128 0x48
 7395 21bb AE120000 		.4byte	0x12ae
 7396 21bf A2000000 		.4byte	.LBB107
 7397 21c3 0E000000 		.4byte	.LBE107-.LBB107
ARM GAS  C:\Users\haske\AppData\Local\Temp\ccVRp2Ta.s 			page 162


 7398 21c7 02       		.byte	0x2
 7399 21c8 E0       		.byte	0xe0
 7400 21c9 09220000 		.4byte	0x2209
 7401 21cd 35       		.uleb128 0x35
 7402 21ce C9120000 		.4byte	0x12c9
 7403 21d2 110F0000 		.4byte	.LLST95
 7404 21d6 35       		.uleb128 0x35
 7405 21d7 BE120000 		.4byte	0x12be
 7406 21db 250F0000 		.4byte	.LLST96
 7407 21df 36       		.uleb128 0x36
 7408 21e0 A2000000 		.4byte	.LBB108
 7409 21e4 0E000000 		.4byte	.LBE108-.LBB108
 7410 21e8 37       		.uleb128 0x37
 7411 21e9 D4120000 		.4byte	0x12d4
 7412 21ed 38       		.uleb128 0x38
 7413 21ee AC000000 		.4byte	.LVL223
 7414 21f2 D42C0000 		.4byte	0x2cd4
 7415 21f6 39       		.uleb128 0x39
 7416 21f7 01       		.uleb128 0x1
 7417 21f8 50       		.byte	0x50
 7418 21f9 02       		.uleb128 0x2
 7419 21fa 74       		.byte	0x74
 7420 21fb 00       		.sleb128 0
 7421 21fc 39       		.uleb128 0x39
 7422 21fd 01       		.uleb128 0x1
 7423 21fe 51       		.byte	0x51
 7424 21ff 01       		.uleb128 0x1
 7425 2200 30       		.byte	0x30
 7426 2201 39       		.uleb128 0x39
 7427 2202 01       		.uleb128 0x1
 7428 2203 52       		.byte	0x52
 7429 2204 01       		.uleb128 0x1
 7430 2205 45       		.byte	0x45
 7431 2206 00       		.byte	0
 7432 2207 00       		.byte	0
 7433 2208 00       		.byte	0
 7434 2209 48       		.uleb128 0x48
 7435 220a DE120000 		.4byte	0x12de
 7436 220e B2000000 		.4byte	.LBB109
 7437 2212 0E000000 		.4byte	.LBE109-.LBB109
 7438 2216 02       		.byte	0x2
 7439 2217 E0       		.byte	0xe0
 7440 2218 58220000 		.4byte	0x2258
 7441 221c 35       		.uleb128 0x35
 7442 221d F9120000 		.4byte	0x12f9
 7443 2221 380F0000 		.4byte	.LLST97
 7444 2225 35       		.uleb128 0x35
 7445 2226 EE120000 		.4byte	0x12ee
 7446 222a 4C0F0000 		.4byte	.LLST98
 7447 222e 36       		.uleb128 0x36
 7448 222f B2000000 		.4byte	.LBB110
 7449 2233 0E000000 		.4byte	.LBE110-.LBB110
 7450 2237 37       		.uleb128 0x37
 7451 2238 04130000 		.4byte	0x1304
 7452 223c 38       		.uleb128 0x38
 7453 223d BC000000 		.4byte	.LVL226
 7454 2241 D42C0000 		.4byte	0x2cd4
ARM GAS  C:\Users\haske\AppData\Local\Temp\ccVRp2Ta.s 			page 163


 7455 2245 39       		.uleb128 0x39
 7456 2246 01       		.uleb128 0x1
 7457 2247 50       		.byte	0x50
 7458 2248 02       		.uleb128 0x2
 7459 2249 74       		.byte	0x74
 7460 224a 00       		.sleb128 0
 7461 224b 39       		.uleb128 0x39
 7462 224c 01       		.uleb128 0x1
 7463 224d 51       		.byte	0x51
 7464 224e 01       		.uleb128 0x1
 7465 224f 30       		.byte	0x30
 7466 2250 39       		.uleb128 0x39
 7467 2251 01       		.uleb128 0x1
 7468 2252 52       		.byte	0x52
 7469 2253 01       		.uleb128 0x1
 7470 2254 44       		.byte	0x44
 7471 2255 00       		.byte	0
 7472 2256 00       		.byte	0
 7473 2257 00       		.byte	0
 7474 2258 48       		.uleb128 0x48
 7475 2259 AE120000 		.4byte	0x12ae
 7476 225d C8000000 		.4byte	.LBB111
 7477 2261 0C000000 		.4byte	.LBE111-.LBB111
 7478 2265 02       		.byte	0x2
 7479 2266 E2       		.byte	0xe2
 7480 2267 A7220000 		.4byte	0x22a7
 7481 226b 35       		.uleb128 0x35
 7482 226c C9120000 		.4byte	0x12c9
 7483 2270 5F0F0000 		.4byte	.LLST99
 7484 2274 35       		.uleb128 0x35
 7485 2275 BE120000 		.4byte	0x12be
 7486 2279 730F0000 		.4byte	.LLST100
 7487 227d 36       		.uleb128 0x36
 7488 227e C8000000 		.4byte	.LBB112
 7489 2282 0C000000 		.4byte	.LBE112-.LBB112
 7490 2286 37       		.uleb128 0x37
 7491 2287 D4120000 		.4byte	0x12d4
 7492 228b 38       		.uleb128 0x38
 7493 228c D2000000 		.4byte	.LVL229
 7494 2290 D42C0000 		.4byte	0x2cd4
 7495 2294 39       		.uleb128 0x39
 7496 2295 01       		.uleb128 0x1
 7497 2296 50       		.byte	0x50
 7498 2297 02       		.uleb128 0x2
 7499 2298 74       		.byte	0x74
 7500 2299 00       		.sleb128 0
 7501 229a 39       		.uleb128 0x39
 7502 229b 01       		.uleb128 0x1
 7503 229c 51       		.byte	0x51
 7504 229d 01       		.uleb128 0x1
 7505 229e 30       		.byte	0x30
 7506 229f 39       		.uleb128 0x39
 7507 22a0 01       		.uleb128 0x1
 7508 22a1 52       		.byte	0x52
 7509 22a2 01       		.uleb128 0x1
 7510 22a3 45       		.byte	0x45
 7511 22a4 00       		.byte	0
ARM GAS  C:\Users\haske\AppData\Local\Temp\ccVRp2Ta.s 			page 164


 7512 22a5 00       		.byte	0
 7513 22a6 00       		.byte	0
 7514 22a7 48       		.uleb128 0x48
 7515 22a8 DE120000 		.4byte	0x12de
 7516 22ac D6000000 		.4byte	.LBB113
 7517 22b0 0C000000 		.4byte	.LBE113-.LBB113
 7518 22b4 02       		.byte	0x2
 7519 22b5 E2       		.byte	0xe2
 7520 22b6 F6220000 		.4byte	0x22f6
 7521 22ba 35       		.uleb128 0x35
 7522 22bb F9120000 		.4byte	0x12f9
 7523 22bf 860F0000 		.4byte	.LLST101
 7524 22c3 35       		.uleb128 0x35
 7525 22c4 EE120000 		.4byte	0x12ee
 7526 22c8 9A0F0000 		.4byte	.LLST102
 7527 22cc 36       		.uleb128 0x36
 7528 22cd D6000000 		.4byte	.LBB114
 7529 22d1 0C000000 		.4byte	.LBE114-.LBB114
 7530 22d5 37       		.uleb128 0x37
 7531 22d6 04130000 		.4byte	0x1304
 7532 22da 38       		.uleb128 0x38
 7533 22db E0000000 		.4byte	.LVL232
 7534 22df D42C0000 		.4byte	0x2cd4
 7535 22e3 39       		.uleb128 0x39
 7536 22e4 01       		.uleb128 0x1
 7537 22e5 50       		.byte	0x50
 7538 22e6 02       		.uleb128 0x2
 7539 22e7 74       		.byte	0x74
 7540 22e8 00       		.sleb128 0
 7541 22e9 39       		.uleb128 0x39
 7542 22ea 01       		.uleb128 0x1
 7543 22eb 51       		.byte	0x51
 7544 22ec 01       		.uleb128 0x1
 7545 22ed 30       		.byte	0x30
 7546 22ee 39       		.uleb128 0x39
 7547 22ef 01       		.uleb128 0x1
 7548 22f0 52       		.byte	0x52
 7549 22f1 01       		.uleb128 0x1
 7550 22f2 44       		.byte	0x44
 7551 22f3 00       		.byte	0
 7552 22f4 00       		.byte	0
 7553 22f5 00       		.byte	0
 7554 22f6 48       		.uleb128 0x48
 7555 22f7 6E130000 		.4byte	0x136e
 7556 22fb FC000000 		.4byte	.LBB115
 7557 22ff 0C000000 		.4byte	.LBE115-.LBB115
 7558 2303 02       		.byte	0x2
 7559 2304 E5       		.byte	0xe5
 7560 2305 46230000 		.4byte	0x2346
 7561 2309 35       		.uleb128 0x35
 7562 230a 89130000 		.4byte	0x1389
 7563 230e AD0F0000 		.4byte	.LLST103
 7564 2312 35       		.uleb128 0x35
 7565 2313 7E130000 		.4byte	0x137e
 7566 2317 C10F0000 		.4byte	.LLST104
 7567 231b 36       		.uleb128 0x36
 7568 231c FC000000 		.4byte	.LBB116
ARM GAS  C:\Users\haske\AppData\Local\Temp\ccVRp2Ta.s 			page 165


 7569 2320 0C000000 		.4byte	.LBE116-.LBB116
 7570 2324 37       		.uleb128 0x37
 7571 2325 94130000 		.4byte	0x1394
 7572 2329 38       		.uleb128 0x38
 7573 232a 06010000 		.4byte	.LVL237
 7574 232e D42C0000 		.4byte	0x2cd4
 7575 2332 39       		.uleb128 0x39
 7576 2333 01       		.uleb128 0x1
 7577 2334 50       		.byte	0x50
 7578 2335 02       		.uleb128 0x2
 7579 2336 74       		.byte	0x74
 7580 2337 00       		.sleb128 0
 7581 2338 39       		.uleb128 0x39
 7582 2339 01       		.uleb128 0x1
 7583 233a 51       		.byte	0x51
 7584 233b 01       		.uleb128 0x1
 7585 233c 30       		.byte	0x30
 7586 233d 39       		.uleb128 0x39
 7587 233e 01       		.uleb128 0x1
 7588 233f 52       		.byte	0x52
 7589 2340 02       		.uleb128 0x2
 7590 2341 08       		.byte	0x8
 7591 2342 32       		.byte	0x32
 7592 2343 00       		.byte	0
 7593 2344 00       		.byte	0
 7594 2345 00       		.byte	0
 7595 2346 48       		.uleb128 0x48
 7596 2347 3E130000 		.4byte	0x133e
 7597 234b 0C010000 		.4byte	.LBB117
 7598 234f 0A000000 		.4byte	.LBE117-.LBB117
 7599 2353 02       		.byte	0x2
 7600 2354 E6       		.byte	0xe6
 7601 2355 99230000 		.4byte	0x2399
 7602 2359 35       		.uleb128 0x35
 7603 235a 59130000 		.4byte	0x1359
 7604 235e D40F0000 		.4byte	.LLST105
 7605 2362 35       		.uleb128 0x35
 7606 2363 4E130000 		.4byte	0x134e
 7607 2367 E80F0000 		.4byte	.LLST106
 7608 236b 36       		.uleb128 0x36
 7609 236c 0C010000 		.4byte	.LBB118
 7610 2370 0A000000 		.4byte	.LBE118-.LBB118
 7611 2374 41       		.uleb128 0x41
 7612 2375 64130000 		.4byte	0x1364
 7613 2379 FB0F0000 		.4byte	.LLST107
 7614 237d 38       		.uleb128 0x38
 7615 237e 16010000 		.4byte	.LVL240
 7616 2382 D42C0000 		.4byte	0x2cd4
 7617 2386 39       		.uleb128 0x39
 7618 2387 01       		.uleb128 0x1
 7619 2388 50       		.byte	0x50
 7620 2389 02       		.uleb128 0x2
 7621 238a 74       		.byte	0x74
 7622 238b 00       		.sleb128 0
 7623 238c 39       		.uleb128 0x39
 7624 238d 01       		.uleb128 0x1
 7625 238e 51       		.byte	0x51
ARM GAS  C:\Users\haske\AppData\Local\Temp\ccVRp2Ta.s 			page 166


 7626 238f 01       		.uleb128 0x1
 7627 2390 30       		.byte	0x30
 7628 2391 39       		.uleb128 0x39
 7629 2392 01       		.uleb128 0x1
 7630 2393 52       		.byte	0x52
 7631 2394 01       		.uleb128 0x1
 7632 2395 40       		.byte	0x40
 7633 2396 00       		.byte	0
 7634 2397 00       		.byte	0
 7635 2398 00       		.byte	0
 7636 2399 48       		.uleb128 0x48
 7637 239a 0E130000 		.4byte	0x130e
 7638 239e 34010000 		.4byte	.LBB119
 7639 23a2 0A000000 		.4byte	.LBE119-.LBB119
 7640 23a6 02       		.byte	0x2
 7641 23a7 E8       		.byte	0xe8
 7642 23a8 EC230000 		.4byte	0x23ec
 7643 23ac 35       		.uleb128 0x35
 7644 23ad 29130000 		.4byte	0x1329
 7645 23b1 0E100000 		.4byte	.LLST108
 7646 23b5 35       		.uleb128 0x35
 7647 23b6 1E130000 		.4byte	0x131e
 7648 23ba 22100000 		.4byte	.LLST109
 7649 23be 36       		.uleb128 0x36
 7650 23bf 34010000 		.4byte	.LBB120
 7651 23c3 0A000000 		.4byte	.LBE120-.LBB120
 7652 23c7 41       		.uleb128 0x41
 7653 23c8 34130000 		.4byte	0x1334
 7654 23cc 35100000 		.4byte	.LLST110
 7655 23d0 38       		.uleb128 0x38
 7656 23d1 3E010000 		.4byte	.LVL245
 7657 23d5 D42C0000 		.4byte	0x2cd4
 7658 23d9 39       		.uleb128 0x39
 7659 23da 01       		.uleb128 0x1
 7660 23db 50       		.byte	0x50
 7661 23dc 02       		.uleb128 0x2
 7662 23dd 74       		.byte	0x74
 7663 23de 00       		.sleb128 0
 7664 23df 39       		.uleb128 0x39
 7665 23e0 01       		.uleb128 0x1
 7666 23e1 51       		.byte	0x51
 7667 23e2 01       		.uleb128 0x1
 7668 23e3 30       		.byte	0x30
 7669 23e4 39       		.uleb128 0x39
 7670 23e5 01       		.uleb128 0x1
 7671 23e6 52       		.byte	0x52
 7672 23e7 01       		.uleb128 0x1
 7673 23e8 42       		.byte	0x42
 7674 23e9 00       		.byte	0
 7675 23ea 00       		.byte	0
 7676 23eb 00       		.byte	0
 7677 23ec 48       		.uleb128 0x48
 7678 23ed 0C100000 		.4byte	0x100c
 7679 23f1 6C010000 		.4byte	.LBB121
 7680 23f5 0E000000 		.4byte	.LBE121-.LBB121
 7681 23f9 02       		.byte	0x2
 7682 23fa EE       		.byte	0xee
ARM GAS  C:\Users\haske\AppData\Local\Temp\ccVRp2Ta.s 			page 167


 7683 23fb 3B240000 		.4byte	0x243b
 7684 23ff 35       		.uleb128 0x35
 7685 2400 27100000 		.4byte	0x1027
 7686 2404 48100000 		.4byte	.LLST111
 7687 2408 35       		.uleb128 0x35
 7688 2409 1C100000 		.4byte	0x101c
 7689 240d 5C100000 		.4byte	.LLST112
 7690 2411 36       		.uleb128 0x36
 7691 2412 6C010000 		.4byte	.LBB122
 7692 2416 0E000000 		.4byte	.LBE122-.LBB122
 7693 241a 37       		.uleb128 0x37
 7694 241b 32100000 		.4byte	0x1032
 7695 241f 38       		.uleb128 0x38
 7696 2420 76010000 		.4byte	.LVL250
 7697 2424 D42C0000 		.4byte	0x2cd4
 7698 2428 39       		.uleb128 0x39
 7699 2429 01       		.uleb128 0x1
 7700 242a 50       		.byte	0x50
 7701 242b 02       		.uleb128 0x2
 7702 242c 74       		.byte	0x74
 7703 242d 00       		.sleb128 0
 7704 242e 39       		.uleb128 0x39
 7705 242f 01       		.uleb128 0x1
 7706 2430 51       		.byte	0x51
 7707 2431 01       		.uleb128 0x1
 7708 2432 30       		.byte	0x30
 7709 2433 39       		.uleb128 0x39
 7710 2434 01       		.uleb128 0x1
 7711 2435 52       		.byte	0x52
 7712 2436 01       		.uleb128 0x1
 7713 2437 31       		.byte	0x31
 7714 2438 00       		.byte	0
 7715 2439 00       		.byte	0
 7716 243a 00       		.byte	0
 7717 243b 48       		.uleb128 0x48
 7718 243c D10F0000 		.4byte	0xfd1
 7719 2440 7A010000 		.4byte	.LBB123
 7720 2444 10000000 		.4byte	.LBE123-.LBB123
 7721 2448 02       		.byte	0x2
 7722 2449 EF       		.byte	0xef
 7723 244a 8A240000 		.4byte	0x248a
 7724 244e 35       		.uleb128 0x35
 7725 244f EC0F0000 		.4byte	0xfec
 7726 2453 6F100000 		.4byte	.LLST113
 7727 2457 35       		.uleb128 0x35
 7728 2458 E10F0000 		.4byte	0xfe1
 7729 245c 83100000 		.4byte	.LLST114
 7730 2460 36       		.uleb128 0x36
 7731 2461 7A010000 		.4byte	.LBB124
 7732 2465 10000000 		.4byte	.LBE124-.LBB124
 7733 2469 37       		.uleb128 0x37
 7734 246a F70F0000 		.4byte	0xff7
 7735 246e 38       		.uleb128 0x38
 7736 246f 84010000 		.4byte	.LVL252
 7737 2473 D42C0000 		.4byte	0x2cd4
 7738 2477 39       		.uleb128 0x39
 7739 2478 01       		.uleb128 0x1
ARM GAS  C:\Users\haske\AppData\Local\Temp\ccVRp2Ta.s 			page 168


 7740 2479 50       		.byte	0x50
 7741 247a 02       		.uleb128 0x2
 7742 247b 74       		.byte	0x74
 7743 247c 00       		.sleb128 0
 7744 247d 39       		.uleb128 0x39
 7745 247e 01       		.uleb128 0x1
 7746 247f 51       		.byte	0x51
 7747 2480 01       		.uleb128 0x1
 7748 2481 30       		.byte	0x30
 7749 2482 39       		.uleb128 0x39
 7750 2483 01       		.uleb128 0x1
 7751 2484 52       		.byte	0x52
 7752 2485 01       		.uleb128 0x1
 7753 2486 34       		.byte	0x34
 7754 2487 00       		.byte	0
 7755 2488 00       		.byte	0
 7756 2489 00       		.byte	0
 7757 248a 3A       		.uleb128 0x3a
 7758 248b F4010000 		.4byte	.LBB125
 7759 248f 98000000 		.4byte	.LBE125-.LBB125
 7760 2493 3C250000 		.4byte	0x253c
 7761 2497 49       		.uleb128 0x49
 7762 2498 7400     		.ascii	"t\000"
 7763 249a 02       		.byte	0x2
 7764 249b 0401     		.2byte	0x104
 7765 249d C60F0000 		.4byte	0xfc6
 7766 24a1 03       		.uleb128 0x3
 7767 24a2 91       		.byte	0x91
 7768 24a3 B47F     		.sleb128 -76
 7769 24a5 33       		.uleb128 0x33
 7770 24a6 B30B0000 		.4byte	.LASF432
 7771 24aa 02       		.byte	0x2
 7772 24ab 1101     		.2byte	0x111
 7773 24ad F6000000 		.4byte	0xf6
 7774 24b1 96100000 		.4byte	.LLST115
 7775 24b5 3E       		.uleb128 0x3e
 7776 24b6 2A020000 		.4byte	.LVL263
 7777 24ba BC140000 		.4byte	0x14bc
 7778 24be E6240000 		.4byte	0x24e6
 7779 24c2 39       		.uleb128 0x39
 7780 24c3 01       		.uleb128 0x1
 7781 24c4 50       		.byte	0x50
 7782 24c5 02       		.uleb128 0x2
 7783 24c6 74       		.byte	0x74
 7784 24c7 00       		.sleb128 0
 7785 24c8 39       		.uleb128 0x39
 7786 24c9 01       		.uleb128 0x1
 7787 24ca 51       		.byte	0x51
 7788 24cb 02       		.uleb128 0x2
 7789 24cc 91       		.byte	0x91
 7790 24cd 54       		.sleb128 -44
 7791 24ce 39       		.uleb128 0x39
 7792 24cf 01       		.uleb128 0x1
 7793 24d0 53       		.byte	0x53
 7794 24d1 05       		.uleb128 0x5
 7795 24d2 91       		.byte	0x91
 7796 24d3 A47F     		.sleb128 -92
ARM GAS  C:\Users\haske\AppData\Local\Temp\ccVRp2Ta.s 			page 169


 7797 24d5 94       		.byte	0x94
 7798 24d6 02       		.byte	0x2
 7799 24d7 39       		.uleb128 0x39
 7800 24d8 02       		.uleb128 0x2
 7801 24d9 7D       		.byte	0x7d
 7802 24da 00       		.sleb128 0
 7803 24db 02       		.uleb128 0x2
 7804 24dc 7B       		.byte	0x7b
 7805 24dd 00       		.sleb128 0
 7806 24de 39       		.uleb128 0x39
 7807 24df 02       		.uleb128 0x2
 7808 24e0 7D       		.byte	0x7d
 7809 24e1 04       		.sleb128 4
 7810 24e2 02       		.uleb128 0x2
 7811 24e3 75       		.byte	0x75
 7812 24e4 00       		.sleb128 0
 7813 24e5 00       		.byte	0
 7814 24e6 3E       		.uleb128 0x3e
 7815 24e7 64020000 		.4byte	.LVL273
 7816 24eb 752D0000 		.4byte	0x2d75
 7817 24ef FA240000 		.4byte	0x24fa
 7818 24f3 39       		.uleb128 0x39
 7819 24f4 01       		.uleb128 0x1
 7820 24f5 50       		.byte	0x50
 7821 24f6 02       		.uleb128 0x2
 7822 24f7 74       		.byte	0x74
 7823 24f8 00       		.sleb128 0
 7824 24f9 00       		.byte	0
 7825 24fa 3E       		.uleb128 0x3e
 7826 24fb 6E020000 		.4byte	.LVL275
 7827 24ff 692D0000 		.4byte	0x2d69
 7828 2503 0E250000 		.4byte	0x250e
 7829 2507 39       		.uleb128 0x39
 7830 2508 01       		.uleb128 0x1
 7831 2509 50       		.byte	0x50
 7832 250a 02       		.uleb128 0x2
 7833 250b 74       		.byte	0x74
 7834 250c 00       		.sleb128 0
 7835 250d 00       		.byte	0
 7836 250e 38       		.uleb128 0x38
 7837 250f 8A020000 		.4byte	.LVL277
 7838 2513 F0130000 		.4byte	0x13f0
 7839 2517 39       		.uleb128 0x39
 7840 2518 01       		.uleb128 0x1
 7841 2519 50       		.byte	0x50
 7842 251a 05       		.uleb128 0x5
 7843 251b 91       		.byte	0x91
 7844 251c A07F     		.sleb128 -96
 7845 251e 94       		.byte	0x94
 7846 251f 01       		.byte	0x1
 7847 2520 39       		.uleb128 0x39
 7848 2521 01       		.uleb128 0x1
 7849 2522 52       		.byte	0x52
 7850 2523 02       		.uleb128 0x2
 7851 2524 76       		.byte	0x76
 7852 2525 00       		.sleb128 0
 7853 2526 39       		.uleb128 0x39
ARM GAS  C:\Users\haske\AppData\Local\Temp\ccVRp2Ta.s 			page 170


 7854 2527 01       		.uleb128 0x1
 7855 2528 53       		.byte	0x53
 7856 2529 02       		.uleb128 0x2
 7857 252a 7B       		.byte	0x7b
 7858 252b 00       		.sleb128 0
 7859 252c 39       		.uleb128 0x39
 7860 252d 02       		.uleb128 0x2
 7861 252e 7D       		.byte	0x7d
 7862 252f 00       		.sleb128 0
 7863 2530 02       		.uleb128 0x2
 7864 2531 7A       		.byte	0x7a
 7865 2532 00       		.sleb128 0
 7866 2533 39       		.uleb128 0x39
 7867 2534 02       		.uleb128 0x2
 7868 2535 7D       		.byte	0x7d
 7869 2536 04       		.sleb128 4
 7870 2537 02       		.uleb128 0x2
 7871 2538 91       		.byte	0x91
 7872 2539 4E       		.sleb128 -50
 7873 253a 00       		.byte	0
 7874 253b 00       		.byte	0
 7875 253c 3A       		.uleb128 0x3a
 7876 253d BA020000 		.4byte	.LBB126
 7877 2541 DA000000 		.4byte	.LBE126-.LBB126
 7878 2545 D9250000 		.4byte	0x25d9
 7879 2549 49       		.uleb128 0x49
 7880 254a 7400     		.ascii	"t\000"
 7881 254c 02       		.byte	0x2
 7882 254d 1C01     		.2byte	0x11c
 7883 254f C60F0000 		.4byte	0xfc6
 7884 2553 03       		.uleb128 0x3
 7885 2554 91       		.byte	0x91
 7886 2555 B47F     		.sleb128 -76
 7887 2557 3E       		.uleb128 0x3e
 7888 2558 D6020000 		.4byte	.LVL283
 7889 255c BC140000 		.4byte	0x14bc
 7890 2560 8F250000 		.4byte	0x258f
 7891 2564 39       		.uleb128 0x39
 7892 2565 01       		.uleb128 0x1
 7893 2566 50       		.byte	0x50
 7894 2567 02       		.uleb128 0x2
 7895 2568 74       		.byte	0x74
 7896 2569 00       		.sleb128 0
 7897 256a 39       		.uleb128 0x39
 7898 256b 01       		.uleb128 0x1
 7899 256c 51       		.byte	0x51
 7900 256d 02       		.uleb128 0x2
 7901 256e 91       		.byte	0x91
 7902 256f 54       		.sleb128 -44
 7903 2570 39       		.uleb128 0x39
 7904 2571 01       		.uleb128 0x1
 7905 2572 52       		.byte	0x52
 7906 2573 02       		.uleb128 0x2
 7907 2574 75       		.byte	0x75
 7908 2575 00       		.sleb128 0
 7909 2576 39       		.uleb128 0x39
 7910 2577 01       		.uleb128 0x1
ARM GAS  C:\Users\haske\AppData\Local\Temp\ccVRp2Ta.s 			page 171


 7911 2578 53       		.byte	0x53
 7912 2579 05       		.uleb128 0x5
 7913 257a 91       		.byte	0x91
 7914 257b A47F     		.sleb128 -92
 7915 257d 94       		.byte	0x94
 7916 257e 02       		.byte	0x2
 7917 257f 39       		.uleb128 0x39
 7918 2580 02       		.uleb128 0x2
 7919 2581 7D       		.byte	0x7d
 7920 2582 00       		.sleb128 0
 7921 2583 02       		.uleb128 0x2
 7922 2584 7B       		.byte	0x7b
 7923 2585 00       		.sleb128 0
 7924 2586 39       		.uleb128 0x39
 7925 2587 02       		.uleb128 0x2
 7926 2588 7D       		.byte	0x7d
 7927 2589 04       		.sleb128 4
 7928 258a 03       		.uleb128 0x3
 7929 258b 91       		.byte	0x91
 7930 258c B47F     		.sleb128 -76
 7931 258e 00       		.byte	0
 7932 258f 3E       		.uleb128 0x3e
 7933 2590 24030000 		.4byte	.LVL286
 7934 2594 22190000 		.4byte	0x1922
 7935 2598 CF250000 		.4byte	0x25cf
 7936 259c 39       		.uleb128 0x39
 7937 259d 01       		.uleb128 0x1
 7938 259e 50       		.byte	0x50
 7939 259f 02       		.uleb128 0x2
 7940 25a0 74       		.byte	0x74
 7941 25a1 00       		.sleb128 0
 7942 25a2 39       		.uleb128 0x39
 7943 25a3 01       		.uleb128 0x1
 7944 25a4 51       		.byte	0x51
 7945 25a5 02       		.uleb128 0x2
 7946 25a6 91       		.byte	0x91
 7947 25a7 54       		.sleb128 -44
 7948 25a8 39       		.uleb128 0x39
 7949 25a9 01       		.uleb128 0x1
 7950 25aa 52       		.byte	0x52
 7951 25ab 02       		.uleb128 0x2
 7952 25ac 75       		.byte	0x75
 7953 25ad 00       		.sleb128 0
 7954 25ae 39       		.uleb128 0x39
 7955 25af 01       		.uleb128 0x1
 7956 25b0 53       		.byte	0x53
 7957 25b1 04       		.uleb128 0x4
 7958 25b2 91       		.byte	0x91
 7959 25b3 A07F     		.sleb128 -96
 7960 25b5 06       		.byte	0x6
 7961 25b6 39       		.uleb128 0x39
 7962 25b7 02       		.uleb128 0x2
 7963 25b8 7D       		.byte	0x7d
 7964 25b9 08       		.sleb128 8
 7965 25ba 05       		.uleb128 0x5
 7966 25bb 91       		.byte	0x91
 7967 25bc A47F     		.sleb128 -92
ARM GAS  C:\Users\haske\AppData\Local\Temp\ccVRp2Ta.s 			page 172


 7968 25be 94       		.byte	0x94
 7969 25bf 02       		.byte	0x2
 7970 25c0 39       		.uleb128 0x39
 7971 25c1 02       		.uleb128 0x2
 7972 25c2 7D       		.byte	0x7d
 7973 25c3 0C       		.sleb128 12
 7974 25c4 02       		.uleb128 0x2
 7975 25c5 7B       		.byte	0x7b
 7976 25c6 00       		.sleb128 0
 7977 25c7 39       		.uleb128 0x39
 7978 25c8 02       		.uleb128 0x2
 7979 25c9 7D       		.byte	0x7d
 7980 25ca 10       		.sleb128 16
 7981 25cb 02       		.uleb128 0x2
 7982 25cc 76       		.byte	0x76
 7983 25cd 00       		.sleb128 0
 7984 25ce 00       		.byte	0
 7985 25cf 3B       		.uleb128 0x3b
 7986 25d0 2A030000 		.4byte	.LVL287
 7987 25d4 F52C0000 		.4byte	0x2cf5
 7988 25d8 00       		.byte	0
 7989 25d9 3E       		.uleb128 0x3e
 7990 25da F0000000 		.4byte	.LVL234
 7991 25de 692D0000 		.4byte	0x2d69
 7992 25e2 ED250000 		.4byte	0x25ed
 7993 25e6 39       		.uleb128 0x39
 7994 25e7 01       		.uleb128 0x1
 7995 25e8 50       		.byte	0x50
 7996 25e9 02       		.uleb128 0x2
 7997 25ea 74       		.byte	0x74
 7998 25eb 00       		.sleb128 0
 7999 25ec 00       		.byte	0
 8000 25ed 3E       		.uleb128 0x3e
 8001 25ee FA000000 		.4byte	.LVL235
 8002 25f2 752D0000 		.4byte	0x2d75
 8003 25f6 01260000 		.4byte	0x2601
 8004 25fa 39       		.uleb128 0x39
 8005 25fb 01       		.uleb128 0x1
 8006 25fc 50       		.byte	0x50
 8007 25fd 02       		.uleb128 0x2
 8008 25fe 74       		.byte	0x74
 8009 25ff 00       		.sleb128 0
 8010 2600 00       		.byte	0
 8011 2601 3E       		.uleb128 0x3e
 8012 2602 24010000 		.4byte	.LVL243
 8013 2606 812D0000 		.4byte	0x2d81
 8014 260a 15260000 		.4byte	0x2615
 8015 260e 39       		.uleb128 0x39
 8016 260f 01       		.uleb128 0x1
 8017 2610 50       		.byte	0x50
 8018 2611 02       		.uleb128 0x2
 8019 2612 74       		.byte	0x74
 8020 2613 00       		.sleb128 0
 8021 2614 00       		.byte	0
 8022 2615 3E       		.uleb128 0x3e
 8023 2616 4A010000 		.4byte	.LVL247
 8024 261a 8C2D0000 		.4byte	0x2d8c
ARM GAS  C:\Users\haske\AppData\Local\Temp\ccVRp2Ta.s 			page 173


 8025 261e 29260000 		.4byte	0x2629
 8026 2622 39       		.uleb128 0x39
 8027 2623 01       		.uleb128 0x1
 8028 2624 50       		.byte	0x50
 8029 2625 02       		.uleb128 0x2
 8030 2626 74       		.byte	0x74
 8031 2627 00       		.sleb128 0
 8032 2628 00       		.byte	0
 8033 2629 3E       		.uleb128 0x3e
 8034 262a B4030000 		.4byte	.LVL291
 8035 262e 972D0000 		.4byte	0x2d97
 8036 2632 3D260000 		.4byte	0x263d
 8037 2636 39       		.uleb128 0x39
 8038 2637 01       		.uleb128 0x1
 8039 2638 50       		.byte	0x50
 8040 2639 02       		.uleb128 0x2
 8041 263a 74       		.byte	0x74
 8042 263b 00       		.sleb128 0
 8043 263c 00       		.byte	0
 8044 263d 38       		.uleb128 0x38
 8045 263e BE030000 		.4byte	.LVL292
 8046 2642 2F2D0000 		.4byte	0x2d2f
 8047 2646 39       		.uleb128 0x39
 8048 2647 01       		.uleb128 0x1
 8049 2648 50       		.byte	0x50
 8050 2649 02       		.uleb128 0x2
 8051 264a 74       		.byte	0x74
 8052 264b 00       		.sleb128 0
 8053 264c 39       		.uleb128 0x39
 8054 264d 01       		.uleb128 0x1
 8055 264e 51       		.byte	0x51
 8056 264f 02       		.uleb128 0x2
 8057 2650 08       		.byte	0x8
 8058 2651 2B       		.byte	0x2b
 8059 2652 39       		.uleb128 0x39
 8060 2653 01       		.uleb128 0x1
 8061 2654 52       		.byte	0x52
 8062 2655 01       		.uleb128 0x1
 8063 2656 30       		.byte	0x30
 8064 2657 00       		.byte	0
 8065 2658 00       		.byte	0
 8066 2659 4A       		.uleb128 0x4a
 8067 265a 410D0000 		.4byte	.LASF433
 8068 265e 02       		.byte	0x2
 8069 265f 5C       		.byte	0x5c
 8070 2660 00000000 		.4byte	.LFB175
 8071 2664 50000000 		.4byte	.LFE175-.LFB175
 8072 2668 01       		.uleb128 0x1
 8073 2669 9C       		.byte	0x9c
 8074 266a D3260000 		.4byte	0x26d3
 8075 266e 3E       		.uleb128 0x3e
 8076 266f 0A000000 		.4byte	.LVL298
 8077 2673 A22D0000 		.4byte	0x2da2
 8078 2677 8A260000 		.4byte	0x268a
 8079 267b 39       		.uleb128 0x39
 8080 267c 01       		.uleb128 0x1
 8081 267d 50       		.byte	0x50
ARM GAS  C:\Users\haske\AppData\Local\Temp\ccVRp2Ta.s 			page 174


 8082 267e 05       		.uleb128 0x5
 8083 267f 03       		.byte	0x3
 8084 2680 00000000 		.4byte	flex_update
 8085 2684 39       		.uleb128 0x39
 8086 2685 01       		.uleb128 0x1
 8087 2686 51       		.byte	0x51
 8088 2687 01       		.uleb128 0x1
 8089 2688 30       		.byte	0x30
 8090 2689 00       		.byte	0
 8091 268a 3E       		.uleb128 0x3e
 8092 268b 14000000 		.4byte	.LVL299
 8093 268f AD2D0000 		.4byte	0x2dad
 8094 2693 9D260000 		.4byte	0x269d
 8095 2697 39       		.uleb128 0x39
 8096 2698 01       		.uleb128 0x1
 8097 2699 50       		.byte	0x50
 8098 269a 01       		.uleb128 0x1
 8099 269b 30       		.byte	0x30
 8100 269c 00       		.byte	0
 8101 269d 3E       		.uleb128 0x3e
 8102 269e 1E000000 		.4byte	.LVL300
 8103 26a2 AD2D0000 		.4byte	0x2dad
 8104 26a6 B0260000 		.4byte	0x26b0
 8105 26aa 39       		.uleb128 0x39
 8106 26ab 01       		.uleb128 0x1
 8107 26ac 50       		.byte	0x50
 8108 26ad 01       		.uleb128 0x1
 8109 26ae 34       		.byte	0x34
 8110 26af 00       		.byte	0
 8111 26b0 3E       		.uleb128 0x3e
 8112 26b1 28000000 		.4byte	.LVL301
 8113 26b5 AD2D0000 		.4byte	0x2dad
 8114 26b9 C3260000 		.4byte	0x26c3
 8115 26bd 39       		.uleb128 0x39
 8116 26be 01       		.uleb128 0x1
 8117 26bf 50       		.byte	0x50
 8118 26c0 01       		.uleb128 0x1
 8119 26c1 34       		.byte	0x34
 8120 26c2 00       		.byte	0
 8121 26c3 38       		.uleb128 0x38
 8122 26c4 32000000 		.4byte	.LVL302
 8123 26c8 AD2D0000 		.4byte	0x2dad
 8124 26cc 39       		.uleb128 0x39
 8125 26cd 01       		.uleb128 0x1
 8126 26ce 50       		.byte	0x50
 8127 26cf 01       		.uleb128 0x1
 8128 26d0 34       		.byte	0x34
 8129 26d1 00       		.byte	0
 8130 26d2 00       		.byte	0
 8131 26d3 4A       		.uleb128 0x4a
 8132 26d4 A4150000 		.4byte	.LASF434
 8133 26d8 02       		.byte	0x2
 8134 26d9 7C       		.byte	0x7c
 8135 26da 00000000 		.4byte	.LFB179
 8136 26de 14000000 		.4byte	.LFE179-.LFB179
 8137 26e2 01       		.uleb128 0x1
 8138 26e3 9C       		.byte	0x9c
ARM GAS  C:\Users\haske\AppData\Local\Temp\ccVRp2Ta.s 			page 175


 8139 26e4 21270000 		.4byte	0x2721
 8140 26e8 2A       		.uleb128 0x2a
 8141 26e9 FC150000 		.4byte	.LASF233
 8142 26ed 02       		.byte	0x2
 8143 26ee 7C       		.byte	0x7c
 8144 26ef 3A0A0000 		.4byte	0xa3a
 8145 26f3 A9100000 		.4byte	.LLST116
 8146 26f7 2A       		.uleb128 0x2a
 8147 26f8 DE080000 		.4byte	.LASF151
 8148 26fc 02       		.byte	0x2
 8149 26fd 7C       		.byte	0x7c
 8150 26fe 8B0E0000 		.4byte	0xe8b
 8151 2702 CA100000 		.4byte	.LLST117
 8152 2706 23       		.uleb128 0x23
 8153 2707 7600     		.ascii	"v\000"
 8154 2709 02       		.byte	0x2
 8155 270a 7E       		.byte	0x7e
 8156 270b C3030000 		.4byte	0x3c3
 8157 270f 38       		.uleb128 0x38
 8158 2710 0C000000 		.4byte	.LVL305
 8159 2714 B92D0000 		.4byte	0x2db9
 8160 2718 39       		.uleb128 0x39
 8161 2719 01       		.uleb128 0x1
 8162 271a 50       		.byte	0x50
 8163 271b 03       		.uleb128 0x3
 8164 271c F3       		.byte	0xf3
 8165 271d 01       		.uleb128 0x1
 8166 271e 50       		.byte	0x50
 8167 271f 00       		.byte	0
 8168 2720 00       		.byte	0
 8169 2721 4A       		.uleb128 0x4a
 8170 2722 31110000 		.4byte	.LASF435
 8171 2726 02       		.byte	0x2
 8172 2727 84       		.byte	0x84
 8173 2728 00000000 		.4byte	.LFB180
 8174 272c 14000000 		.4byte	.LFE180-.LFB180
 8175 2730 01       		.uleb128 0x1
 8176 2731 9C       		.byte	0x9c
 8177 2732 6F270000 		.4byte	0x276f
 8178 2736 2A       		.uleb128 0x2a
 8179 2737 FC150000 		.4byte	.LASF233
 8180 273b 02       		.byte	0x2
 8181 273c 84       		.byte	0x84
 8182 273d 3A0A0000 		.4byte	0xa3a
 8183 2741 EB100000 		.4byte	.LLST118
 8184 2745 2A       		.uleb128 0x2a
 8185 2746 DE080000 		.4byte	.LASF151
 8186 274a 02       		.byte	0x2
 8187 274b 84       		.byte	0x84
 8188 274c 430E0000 		.4byte	0xe43
 8189 2750 0C110000 		.4byte	.LLST119
 8190 2754 23       		.uleb128 0x23
 8191 2755 7600     		.ascii	"v\000"
 8192 2757 02       		.byte	0x2
 8193 2758 86       		.byte	0x86
 8194 2759 C3030000 		.4byte	0x3c3
 8195 275d 38       		.uleb128 0x38
ARM GAS  C:\Users\haske\AppData\Local\Temp\ccVRp2Ta.s 			page 176


 8196 275e 0C000000 		.4byte	.LVL308
 8197 2762 B92D0000 		.4byte	0x2db9
 8198 2766 39       		.uleb128 0x39
 8199 2767 01       		.uleb128 0x1
 8200 2768 50       		.byte	0x50
 8201 2769 03       		.uleb128 0x3
 8202 276a F3       		.byte	0xf3
 8203 276b 01       		.uleb128 0x1
 8204 276c 50       		.byte	0x50
 8205 276d 00       		.byte	0
 8206 276e 00       		.byte	0
 8207 276f 4A       		.uleb128 0x4a
 8208 2770 721C0000 		.4byte	.LASF436
 8209 2774 02       		.byte	0x2
 8210 2775 8C       		.byte	0x8c
 8211 2776 00000000 		.4byte	.LFB181
 8212 277a 14000000 		.4byte	.LFE181-.LFB181
 8213 277e 01       		.uleb128 0x1
 8214 277f 9C       		.byte	0x9c
 8215 2780 BD270000 		.4byte	0x27bd
 8216 2784 2A       		.uleb128 0x2a
 8217 2785 FC150000 		.4byte	.LASF233
 8218 2789 02       		.byte	0x2
 8219 278a 8C       		.byte	0x8c
 8220 278b 3A0A0000 		.4byte	0xa3a
 8221 278f 2D110000 		.4byte	.LLST120
 8222 2793 2A       		.uleb128 0x2a
 8223 2794 DE080000 		.4byte	.LASF151
 8224 2798 02       		.byte	0x2
 8225 2799 8C       		.byte	0x8c
 8226 279a 430E0000 		.4byte	0xe43
 8227 279e 4E110000 		.4byte	.LLST121
 8228 27a2 23       		.uleb128 0x23
 8229 27a3 7600     		.ascii	"v\000"
 8230 27a5 02       		.byte	0x2
 8231 27a6 8E       		.byte	0x8e
 8232 27a7 C3030000 		.4byte	0x3c3
 8233 27ab 38       		.uleb128 0x38
 8234 27ac 0C000000 		.4byte	.LVL311
 8235 27b0 B92D0000 		.4byte	0x2db9
 8236 27b4 39       		.uleb128 0x39
 8237 27b5 01       		.uleb128 0x1
 8238 27b6 50       		.byte	0x50
 8239 27b7 03       		.uleb128 0x3
 8240 27b8 F3       		.byte	0xf3
 8241 27b9 01       		.uleb128 0x1
 8242 27ba 50       		.byte	0x50
 8243 27bb 00       		.byte	0
 8244 27bc 00       		.byte	0
 8245 27bd 4A       		.uleb128 0x4a
 8246 27be 841A0000 		.4byte	.LASF437
 8247 27c2 02       		.byte	0x2
 8248 27c3 94       		.byte	0x94
 8249 27c4 00000000 		.4byte	.LFB182
 8250 27c8 14000000 		.4byte	.LFE182-.LFB182
 8251 27cc 01       		.uleb128 0x1
 8252 27cd 9C       		.byte	0x9c
ARM GAS  C:\Users\haske\AppData\Local\Temp\ccVRp2Ta.s 			page 177


 8253 27ce 0B280000 		.4byte	0x280b
 8254 27d2 2A       		.uleb128 0x2a
 8255 27d3 FC150000 		.4byte	.LASF233
 8256 27d7 02       		.byte	0x2
 8257 27d8 94       		.byte	0x94
 8258 27d9 3A0A0000 		.4byte	0xa3a
 8259 27dd 6F110000 		.4byte	.LLST122
 8260 27e1 2A       		.uleb128 0x2a
 8261 27e2 DE080000 		.4byte	.LASF151
 8262 27e6 02       		.byte	0x2
 8263 27e7 94       		.byte	0x94
 8264 27e8 430E0000 		.4byte	0xe43
 8265 27ec 90110000 		.4byte	.LLST123
 8266 27f0 23       		.uleb128 0x23
 8267 27f1 7600     		.ascii	"v\000"
 8268 27f3 02       		.byte	0x2
 8269 27f4 96       		.byte	0x96
 8270 27f5 C3030000 		.4byte	0x3c3
 8271 27f9 38       		.uleb128 0x38
 8272 27fa 0C000000 		.4byte	.LVL314
 8273 27fe B92D0000 		.4byte	0x2db9
 8274 2802 39       		.uleb128 0x39
 8275 2803 01       		.uleb128 0x1
 8276 2804 50       		.byte	0x50
 8277 2805 03       		.uleb128 0x3
 8278 2806 F3       		.byte	0xf3
 8279 2807 01       		.uleb128 0x1
 8280 2808 50       		.byte	0x50
 8281 2809 00       		.byte	0
 8282 280a 00       		.byte	0
 8283 280b 4A       		.uleb128 0x4a
 8284 280c 1F0C0000 		.4byte	.LASF438
 8285 2810 02       		.byte	0x2
 8286 2811 9C       		.byte	0x9c
 8287 2812 00000000 		.4byte	.LFB183
 8288 2816 14000000 		.4byte	.LFE183-.LFB183
 8289 281a 01       		.uleb128 0x1
 8290 281b 9C       		.byte	0x9c
 8291 281c 59280000 		.4byte	0x2859
 8292 2820 2A       		.uleb128 0x2a
 8293 2821 FC150000 		.4byte	.LASF233
 8294 2825 02       		.byte	0x2
 8295 2826 9C       		.byte	0x9c
 8296 2827 3A0A0000 		.4byte	0xa3a
 8297 282b B1110000 		.4byte	.LLST124
 8298 282f 2A       		.uleb128 0x2a
 8299 2830 DE080000 		.4byte	.LASF151
 8300 2834 02       		.byte	0x2
 8301 2835 9C       		.byte	0x9c
 8302 2836 B8000000 		.4byte	0xb8
 8303 283a D2110000 		.4byte	.LLST125
 8304 283e 23       		.uleb128 0x23
 8305 283f 7600     		.ascii	"v\000"
 8306 2841 02       		.byte	0x2
 8307 2842 9E       		.byte	0x9e
 8308 2843 C3030000 		.4byte	0x3c3
 8309 2847 38       		.uleb128 0x38
ARM GAS  C:\Users\haske\AppData\Local\Temp\ccVRp2Ta.s 			page 178


 8310 2848 0C000000 		.4byte	.LVL317
 8311 284c B92D0000 		.4byte	0x2db9
 8312 2850 39       		.uleb128 0x39
 8313 2851 01       		.uleb128 0x1
 8314 2852 50       		.byte	0x50
 8315 2853 03       		.uleb128 0x3
 8316 2854 F3       		.byte	0xf3
 8317 2855 01       		.uleb128 0x1
 8318 2856 50       		.byte	0x50
 8319 2857 00       		.byte	0
 8320 2858 00       		.byte	0
 8321 2859 4A       		.uleb128 0x4a
 8322 285a 521F0000 		.4byte	.LASF439
 8323 285e 02       		.byte	0x2
 8324 285f A5       		.byte	0xa5
 8325 2860 00000000 		.4byte	.LFB184
 8326 2864 18000000 		.4byte	.LFE184-.LFB184
 8327 2868 01       		.uleb128 0x1
 8328 2869 9C       		.byte	0x9c
 8329 286a C3280000 		.4byte	0x28c3
 8330 286e 4B       		.uleb128 0x4b
 8331 286f 6F626A00 		.ascii	"obj\000"
 8332 2873 02       		.byte	0x2
 8333 2874 A5       		.byte	0xa5
 8334 2875 4F0F0000 		.4byte	0xf4f
 8335 2879 F3110000 		.4byte	.LLST126
 8336 287d 2A       		.uleb128 0x2a
 8337 287e DE080000 		.4byte	.LASF151
 8338 2882 02       		.byte	0x2
 8339 2883 A5       		.byte	0xa5
 8340 2884 8B0E0000 		.4byte	0xe8b
 8341 2888 14120000 		.4byte	.LLST127
 8342 288c 2A       		.uleb128 0x2a
 8343 288d 23200000 		.4byte	.LASF234
 8344 2891 02       		.byte	0x2
 8345 2892 A5       		.byte	0xa5
 8346 2893 ED090000 		.4byte	0x9ed
 8347 2897 35120000 		.4byte	.LLST128
 8348 289b 23       		.uleb128 0x23
 8349 289c 7600     		.ascii	"v\000"
 8350 289e 02       		.byte	0x2
 8351 289f A7       		.byte	0xa7
 8352 28a0 C3030000 		.4byte	0x3c3
 8353 28a4 38       		.uleb128 0x38
 8354 28a5 10000000 		.4byte	.LVL321
 8355 28a9 C52D0000 		.4byte	0x2dc5
 8356 28ad 39       		.uleb128 0x39
 8357 28ae 01       		.uleb128 0x1
 8358 28af 50       		.byte	0x50
 8359 28b0 03       		.uleb128 0x3
 8360 28b1 F3       		.byte	0xf3
 8361 28b2 01       		.uleb128 0x1
 8362 28b3 50       		.byte	0x50
 8363 28b4 39       		.uleb128 0x39
 8364 28b5 01       		.uleb128 0x1
 8365 28b6 52       		.byte	0x52
 8366 28b7 02       		.uleb128 0x2
ARM GAS  C:\Users\haske\AppData\Local\Temp\ccVRp2Ta.s 			page 179


 8367 28b8 74       		.byte	0x74
 8368 28b9 00       		.sleb128 0
 8369 28ba 39       		.uleb128 0x39
 8370 28bb 01       		.uleb128 0x1
 8371 28bc 53       		.byte	0x53
 8372 28bd 03       		.uleb128 0x3
 8373 28be F3       		.byte	0xf3
 8374 28bf 01       		.uleb128 0x1
 8375 28c0 52       		.byte	0x52
 8376 28c1 00       		.byte	0
 8377 28c2 00       		.byte	0
 8378 28c3 4A       		.uleb128 0x4a
 8379 28c4 3F190000 		.4byte	.LASF440
 8380 28c8 02       		.byte	0x2
 8381 28c9 66       		.byte	0x66
 8382 28ca 00000000 		.4byte	.LFB176
 8383 28ce 1C000000 		.4byte	.LFE176-.LFB176
 8384 28d2 01       		.uleb128 0x1
 8385 28d3 9C       		.byte	0x9c
 8386 28d4 25290000 		.4byte	0x2925
 8387 28d8 4B       		.uleb128 0x4b
 8388 28d9 6F626A00 		.ascii	"obj\000"
 8389 28dd 02       		.byte	0x2
 8390 28de 66       		.byte	0x66
 8391 28df 4F0F0000 		.4byte	0xf4f
 8392 28e3 61120000 		.4byte	.LLST129
 8393 28e7 2A       		.uleb128 0x2a
 8394 28e8 81010000 		.4byte	.LASF424
 8395 28ec 02       		.byte	0x2
 8396 28ed 66       		.byte	0x66
 8397 28ee 8B0E0000 		.4byte	0xe8b
 8398 28f2 8D120000 		.4byte	.LLST130
 8399 28f6 3E       		.uleb128 0x3e
 8400 28f7 0A000000 		.4byte	.LVL323
 8401 28fb 59280000 		.4byte	0x2859
 8402 28ff 0F290000 		.4byte	0x290f
 8403 2903 39       		.uleb128 0x39
 8404 2904 01       		.uleb128 0x1
 8405 2905 50       		.byte	0x50
 8406 2906 02       		.uleb128 0x2
 8407 2907 74       		.byte	0x74
 8408 2908 00       		.sleb128 0
 8409 2909 39       		.uleb128 0x39
 8410 290a 01       		.uleb128 0x1
 8411 290b 52       		.byte	0x52
 8412 290c 01       		.uleb128 0x1
 8413 290d 30       		.byte	0x30
 8414 290e 00       		.byte	0
 8415 290f 38       		.uleb128 0x38
 8416 2910 16000000 		.4byte	.LVL324
 8417 2914 D02D0000 		.4byte	0x2dd0
 8418 2918 39       		.uleb128 0x39
 8419 2919 01       		.uleb128 0x1
 8420 291a 50       		.byte	0x50
 8421 291b 02       		.uleb128 0x2
 8422 291c 74       		.byte	0x74
 8423 291d 00       		.sleb128 0
ARM GAS  C:\Users\haske\AppData\Local\Temp\ccVRp2Ta.s 			page 180


 8424 291e 39       		.uleb128 0x39
 8425 291f 01       		.uleb128 0x1
 8426 2920 52       		.byte	0x52
 8427 2921 01       		.uleb128 0x1
 8428 2922 30       		.byte	0x30
 8429 2923 00       		.byte	0
 8430 2924 00       		.byte	0
 8431 2925 4A       		.uleb128 0x4a
 8432 2926 90100000 		.4byte	.LASF441
 8433 292a 02       		.byte	0x2
 8434 292b AD       		.byte	0xad
 8435 292c 00000000 		.4byte	.LFB185
 8436 2930 18000000 		.4byte	.LFE185-.LFB185
 8437 2934 01       		.uleb128 0x1
 8438 2935 9C       		.byte	0x9c
 8439 2936 8F290000 		.4byte	0x298f
 8440 293a 4B       		.uleb128 0x4b
 8441 293b 6F626A00 		.ascii	"obj\000"
 8442 293f 02       		.byte	0x2
 8443 2940 AD       		.byte	0xad
 8444 2941 4F0F0000 		.4byte	0xf4f
 8445 2945 AE120000 		.4byte	.LLST131
 8446 2949 2A       		.uleb128 0x2a
 8447 294a DE080000 		.4byte	.LASF151
 8448 294e 02       		.byte	0x2
 8449 294f AD       		.byte	0xad
 8450 2950 430E0000 		.4byte	0xe43
 8451 2954 CF120000 		.4byte	.LLST132
 8452 2958 2A       		.uleb128 0x2a
 8453 2959 23200000 		.4byte	.LASF234
 8454 295d 02       		.byte	0x2
 8455 295e AD       		.byte	0xad
 8456 295f ED090000 		.4byte	0x9ed
 8457 2963 F0120000 		.4byte	.LLST133
 8458 2967 23       		.uleb128 0x23
 8459 2968 7600     		.ascii	"v\000"
 8460 296a 02       		.byte	0x2
 8461 296b AF       		.byte	0xaf
 8462 296c C3030000 		.4byte	0x3c3
 8463 2970 38       		.uleb128 0x38
 8464 2971 10000000 		.4byte	.LVL329
 8465 2975 C52D0000 		.4byte	0x2dc5
 8466 2979 39       		.uleb128 0x39
 8467 297a 01       		.uleb128 0x1
 8468 297b 50       		.byte	0x50
 8469 297c 03       		.uleb128 0x3
 8470 297d F3       		.byte	0xf3
 8471 297e 01       		.uleb128 0x1
 8472 297f 50       		.byte	0x50
 8473 2980 39       		.uleb128 0x39
 8474 2981 01       		.uleb128 0x1
 8475 2982 52       		.byte	0x52
 8476 2983 02       		.uleb128 0x2
 8477 2984 74       		.byte	0x74
 8478 2985 00       		.sleb128 0
 8479 2986 39       		.uleb128 0x39
 8480 2987 01       		.uleb128 0x1
ARM GAS  C:\Users\haske\AppData\Local\Temp\ccVRp2Ta.s 			page 181


 8481 2988 53       		.byte	0x53
 8482 2989 03       		.uleb128 0x3
 8483 298a F3       		.byte	0xf3
 8484 298b 01       		.uleb128 0x1
 8485 298c 52       		.byte	0x52
 8486 298d 00       		.byte	0
 8487 298e 00       		.byte	0
 8488 298f 4A       		.uleb128 0x4a
 8489 2990 6A1E0000 		.4byte	.LASF442
 8490 2994 02       		.byte	0x2
 8491 2995 B5       		.byte	0xb5
 8492 2996 00000000 		.4byte	.LFB186
 8493 299a 18000000 		.4byte	.LFE186-.LFB186
 8494 299e 01       		.uleb128 0x1
 8495 299f 9C       		.byte	0x9c
 8496 29a0 F9290000 		.4byte	0x29f9
 8497 29a4 4B       		.uleb128 0x4b
 8498 29a5 6F626A00 		.ascii	"obj\000"
 8499 29a9 02       		.byte	0x2
 8500 29aa B5       		.byte	0xb5
 8501 29ab 4F0F0000 		.4byte	0xf4f
 8502 29af 1C130000 		.4byte	.LLST134
 8503 29b3 2A       		.uleb128 0x2a
 8504 29b4 DE080000 		.4byte	.LASF151
 8505 29b8 02       		.byte	0x2
 8506 29b9 B5       		.byte	0xb5
 8507 29ba 430E0000 		.4byte	0xe43
 8508 29be 3D130000 		.4byte	.LLST135
 8509 29c2 2A       		.uleb128 0x2a
 8510 29c3 23200000 		.4byte	.LASF234
 8511 29c7 02       		.byte	0x2
 8512 29c8 B5       		.byte	0xb5
 8513 29c9 ED090000 		.4byte	0x9ed
 8514 29cd 5E130000 		.4byte	.LLST136
 8515 29d1 23       		.uleb128 0x23
 8516 29d2 7600     		.ascii	"v\000"
 8517 29d4 02       		.byte	0x2
 8518 29d5 B7       		.byte	0xb7
 8519 29d6 C3030000 		.4byte	0x3c3
 8520 29da 38       		.uleb128 0x38
 8521 29db 10000000 		.4byte	.LVL333
 8522 29df C52D0000 		.4byte	0x2dc5
 8523 29e3 39       		.uleb128 0x39
 8524 29e4 01       		.uleb128 0x1
 8525 29e5 50       		.byte	0x50
 8526 29e6 03       		.uleb128 0x3
 8527 29e7 F3       		.byte	0xf3
 8528 29e8 01       		.uleb128 0x1
 8529 29e9 50       		.byte	0x50
 8530 29ea 39       		.uleb128 0x39
 8531 29eb 01       		.uleb128 0x1
 8532 29ec 52       		.byte	0x52
 8533 29ed 02       		.uleb128 0x2
 8534 29ee 74       		.byte	0x74
 8535 29ef 00       		.sleb128 0
 8536 29f0 39       		.uleb128 0x39
 8537 29f1 01       		.uleb128 0x1
ARM GAS  C:\Users\haske\AppData\Local\Temp\ccVRp2Ta.s 			page 182


 8538 29f2 53       		.byte	0x53
 8539 29f3 03       		.uleb128 0x3
 8540 29f4 F3       		.byte	0xf3
 8541 29f5 01       		.uleb128 0x1
 8542 29f6 52       		.byte	0x52
 8543 29f7 00       		.byte	0
 8544 29f8 00       		.byte	0
 8545 29f9 4A       		.uleb128 0x4a
 8546 29fa E01C0000 		.4byte	.LASF443
 8547 29fe 02       		.byte	0x2
 8548 29ff BD       		.byte	0xbd
 8549 2a00 00000000 		.4byte	.LFB187
 8550 2a04 18000000 		.4byte	.LFE187-.LFB187
 8551 2a08 01       		.uleb128 0x1
 8552 2a09 9C       		.byte	0x9c
 8553 2a0a 632A0000 		.4byte	0x2a63
 8554 2a0e 4B       		.uleb128 0x4b
 8555 2a0f 6F626A00 		.ascii	"obj\000"
 8556 2a13 02       		.byte	0x2
 8557 2a14 BD       		.byte	0xbd
 8558 2a15 4F0F0000 		.4byte	0xf4f
 8559 2a19 8A130000 		.4byte	.LLST137
 8560 2a1d 2A       		.uleb128 0x2a
 8561 2a1e DE080000 		.4byte	.LASF151
 8562 2a22 02       		.byte	0x2
 8563 2a23 BD       		.byte	0xbd
 8564 2a24 430E0000 		.4byte	0xe43
 8565 2a28 AB130000 		.4byte	.LLST138
 8566 2a2c 2A       		.uleb128 0x2a
 8567 2a2d 23200000 		.4byte	.LASF234
 8568 2a31 02       		.byte	0x2
 8569 2a32 BD       		.byte	0xbd
 8570 2a33 ED090000 		.4byte	0x9ed
 8571 2a37 CC130000 		.4byte	.LLST139
 8572 2a3b 23       		.uleb128 0x23
 8573 2a3c 7600     		.ascii	"v\000"
 8574 2a3e 02       		.byte	0x2
 8575 2a3f BF       		.byte	0xbf
 8576 2a40 C3030000 		.4byte	0x3c3
 8577 2a44 38       		.uleb128 0x38
 8578 2a45 10000000 		.4byte	.LVL337
 8579 2a49 C52D0000 		.4byte	0x2dc5
 8580 2a4d 39       		.uleb128 0x39
 8581 2a4e 01       		.uleb128 0x1
 8582 2a4f 50       		.byte	0x50
 8583 2a50 03       		.uleb128 0x3
 8584 2a51 F3       		.byte	0xf3
 8585 2a52 01       		.uleb128 0x1
 8586 2a53 50       		.byte	0x50
 8587 2a54 39       		.uleb128 0x39
 8588 2a55 01       		.uleb128 0x1
 8589 2a56 52       		.byte	0x52
 8590 2a57 02       		.uleb128 0x2
 8591 2a58 74       		.byte	0x74
 8592 2a59 00       		.sleb128 0
 8593 2a5a 39       		.uleb128 0x39
 8594 2a5b 01       		.uleb128 0x1
ARM GAS  C:\Users\haske\AppData\Local\Temp\ccVRp2Ta.s 			page 183


 8595 2a5c 53       		.byte	0x53
 8596 2a5d 03       		.uleb128 0x3
 8597 2a5e F3       		.byte	0xf3
 8598 2a5f 01       		.uleb128 0x1
 8599 2a60 52       		.byte	0x52
 8600 2a61 00       		.byte	0
 8601 2a62 00       		.byte	0
 8602 2a63 4A       		.uleb128 0x4a
 8603 2a64 8E0D0000 		.4byte	.LASF444
 8604 2a68 02       		.byte	0x2
 8605 2a69 6C       		.byte	0x6c
 8606 2a6a 00000000 		.4byte	.LFB177
 8607 2a6e 34000000 		.4byte	.LFE177-.LFB177
 8608 2a72 01       		.uleb128 0x1
 8609 2a73 9C       		.byte	0x9c
 8610 2a74 212B0000 		.4byte	0x2b21
 8611 2a78 4B       		.uleb128 0x4b
 8612 2a79 6F626A00 		.ascii	"obj\000"
 8613 2a7d 02       		.byte	0x2
 8614 2a7e 6C       		.byte	0x6c
 8615 2a7f 4F0F0000 		.4byte	0xf4f
 8616 2a83 F8130000 		.4byte	.LLST140
 8617 2a87 2A       		.uleb128 0x2a
 8618 2a88 0A130000 		.4byte	.LASF340
 8619 2a8c 02       		.byte	0x2
 8620 2a8d 6C       		.byte	0x6c
 8621 2a8e 430E0000 		.4byte	0xe43
 8622 2a92 24140000 		.4byte	.LLST141
 8623 2a96 2A       		.uleb128 0x2a
 8624 2a97 4A160000 		.4byte	.LASF341
 8625 2a9b 02       		.byte	0x2
 8626 2a9c 6C       		.byte	0x6c
 8627 2a9d 430E0000 		.4byte	0xe43
 8628 2aa1 45140000 		.4byte	.LLST142
 8629 2aa5 2A       		.uleb128 0x2a
 8630 2aa6 7D140000 		.4byte	.LASF342
 8631 2aaa 02       		.byte	0x2
 8632 2aab 6D       		.byte	0x6d
 8633 2aac 430E0000 		.4byte	0xe43
 8634 2ab0 66140000 		.4byte	.LLST143
 8635 2ab4 3E       		.uleb128 0x3e
 8636 2ab5 0E000000 		.4byte	.LVL340
 8637 2ab9 25290000 		.4byte	0x2925
 8638 2abd CD2A0000 		.4byte	0x2acd
 8639 2ac1 39       		.uleb128 0x39
 8640 2ac2 01       		.uleb128 0x1
 8641 2ac3 50       		.byte	0x50
 8642 2ac4 02       		.uleb128 0x2
 8643 2ac5 74       		.byte	0x74
 8644 2ac6 00       		.sleb128 0
 8645 2ac7 39       		.uleb128 0x39
 8646 2ac8 01       		.uleb128 0x1
 8647 2ac9 52       		.byte	0x52
 8648 2aca 01       		.uleb128 0x1
 8649 2acb 30       		.byte	0x30
 8650 2acc 00       		.byte	0
 8651 2acd 3E       		.uleb128 0x3e
ARM GAS  C:\Users\haske\AppData\Local\Temp\ccVRp2Ta.s 			page 184


 8652 2ace 18000000 		.4byte	.LVL341
 8653 2ad2 8F290000 		.4byte	0x298f
 8654 2ad6 EC2A0000 		.4byte	0x2aec
 8655 2ada 39       		.uleb128 0x39
 8656 2adb 01       		.uleb128 0x1
 8657 2adc 50       		.byte	0x50
 8658 2add 02       		.uleb128 0x2
 8659 2ade 74       		.byte	0x74
 8660 2adf 00       		.sleb128 0
 8661 2ae0 39       		.uleb128 0x39
 8662 2ae1 01       		.uleb128 0x1
 8663 2ae2 51       		.byte	0x51
 8664 2ae3 02       		.uleb128 0x2
 8665 2ae4 76       		.byte	0x76
 8666 2ae5 00       		.sleb128 0
 8667 2ae6 39       		.uleb128 0x39
 8668 2ae7 01       		.uleb128 0x1
 8669 2ae8 52       		.byte	0x52
 8670 2ae9 01       		.uleb128 0x1
 8671 2aea 30       		.byte	0x30
 8672 2aeb 00       		.byte	0
 8673 2aec 3E       		.uleb128 0x3e
 8674 2aed 22000000 		.4byte	.LVL342
 8675 2af1 F9290000 		.4byte	0x29f9
 8676 2af5 0B2B0000 		.4byte	0x2b0b
 8677 2af9 39       		.uleb128 0x39
 8678 2afa 01       		.uleb128 0x1
 8679 2afb 50       		.byte	0x50
 8680 2afc 02       		.uleb128 0x2
 8681 2afd 74       		.byte	0x74
 8682 2afe 00       		.sleb128 0
 8683 2aff 39       		.uleb128 0x39
 8684 2b00 01       		.uleb128 0x1
 8685 2b01 51       		.byte	0x51
 8686 2b02 02       		.uleb128 0x2
 8687 2b03 75       		.byte	0x75
 8688 2b04 00       		.sleb128 0
 8689 2b05 39       		.uleb128 0x39
 8690 2b06 01       		.uleb128 0x1
 8691 2b07 52       		.byte	0x52
 8692 2b08 01       		.uleb128 0x1
 8693 2b09 30       		.byte	0x30
 8694 2b0a 00       		.byte	0
 8695 2b0b 38       		.uleb128 0x38
 8696 2b0c 2E000000 		.4byte	.LVL343
 8697 2b10 D02D0000 		.4byte	0x2dd0
 8698 2b14 39       		.uleb128 0x39
 8699 2b15 01       		.uleb128 0x1
 8700 2b16 50       		.byte	0x50
 8701 2b17 02       		.uleb128 0x2
 8702 2b18 74       		.byte	0x74
 8703 2b19 00       		.sleb128 0
 8704 2b1a 39       		.uleb128 0x39
 8705 2b1b 01       		.uleb128 0x1
 8706 2b1c 52       		.byte	0x52
 8707 2b1d 01       		.uleb128 0x1
 8708 2b1e 30       		.byte	0x30
ARM GAS  C:\Users\haske\AppData\Local\Temp\ccVRp2Ta.s 			page 185


 8709 2b1f 00       		.byte	0
 8710 2b20 00       		.byte	0
 8711 2b21 4A       		.uleb128 0x4a
 8712 2b22 2F160000 		.4byte	.LASF445
 8713 2b26 02       		.byte	0x2
 8714 2b27 C5       		.byte	0xc5
 8715 2b28 00000000 		.4byte	.LFB188
 8716 2b2c 18000000 		.4byte	.LFE188-.LFB188
 8717 2b30 01       		.uleb128 0x1
 8718 2b31 9C       		.byte	0x9c
 8719 2b32 8B2B0000 		.4byte	0x2b8b
 8720 2b36 4B       		.uleb128 0x4b
 8721 2b37 6F626A00 		.ascii	"obj\000"
 8722 2b3b 02       		.byte	0x2
 8723 2b3c C5       		.byte	0xc5
 8724 2b3d 4F0F0000 		.4byte	0xf4f
 8725 2b41 87140000 		.4byte	.LLST144
 8726 2b45 2A       		.uleb128 0x2a
 8727 2b46 DE080000 		.4byte	.LASF151
 8728 2b4a 02       		.byte	0x2
 8729 2b4b C5       		.byte	0xc5
 8730 2b4c B8000000 		.4byte	0xb8
 8731 2b50 A8140000 		.4byte	.LLST145
 8732 2b54 2A       		.uleb128 0x2a
 8733 2b55 23200000 		.4byte	.LASF234
 8734 2b59 02       		.byte	0x2
 8735 2b5a C5       		.byte	0xc5
 8736 2b5b ED090000 		.4byte	0x9ed
 8737 2b5f C9140000 		.4byte	.LLST146
 8738 2b63 23       		.uleb128 0x23
 8739 2b64 7600     		.ascii	"v\000"
 8740 2b66 02       		.byte	0x2
 8741 2b67 C7       		.byte	0xc7
 8742 2b68 C3030000 		.4byte	0x3c3
 8743 2b6c 38       		.uleb128 0x38
 8744 2b6d 10000000 		.4byte	.LVL348
 8745 2b71 C52D0000 		.4byte	0x2dc5
 8746 2b75 39       		.uleb128 0x39
 8747 2b76 01       		.uleb128 0x1
 8748 2b77 50       		.byte	0x50
 8749 2b78 03       		.uleb128 0x3
 8750 2b79 F3       		.byte	0xf3
 8751 2b7a 01       		.uleb128 0x1
 8752 2b7b 50       		.byte	0x50
 8753 2b7c 39       		.uleb128 0x39
 8754 2b7d 01       		.uleb128 0x1
 8755 2b7e 52       		.byte	0x52
 8756 2b7f 02       		.uleb128 0x2
 8757 2b80 74       		.byte	0x74
 8758 2b81 00       		.sleb128 0
 8759 2b82 39       		.uleb128 0x39
 8760 2b83 01       		.uleb128 0x1
 8761 2b84 53       		.byte	0x53
 8762 2b85 03       		.uleb128 0x3
 8763 2b86 F3       		.byte	0xf3
 8764 2b87 01       		.uleb128 0x1
 8765 2b88 52       		.byte	0x52
ARM GAS  C:\Users\haske\AppData\Local\Temp\ccVRp2Ta.s 			page 186


 8766 2b89 00       		.byte	0
 8767 2b8a 00       		.byte	0
 8768 2b8b 4A       		.uleb128 0x4a
 8769 2b8c E0100000 		.4byte	.LASF446
 8770 2b90 02       		.byte	0x2
 8771 2b91 75       		.byte	0x75
 8772 2b92 00000000 		.4byte	.LFB178
 8773 2b96 16000000 		.4byte	.LFE178-.LFB178
 8774 2b9a 01       		.uleb128 0x1
 8775 2b9b 9C       		.byte	0x9c
 8776 2b9c F52B0000 		.4byte	0x2bf5
 8777 2ba0 4B       		.uleb128 0x4b
 8778 2ba1 6F626A00 		.ascii	"obj\000"
 8779 2ba5 02       		.byte	0x2
 8780 2ba6 75       		.byte	0x75
 8781 2ba7 4F0F0000 		.4byte	0xf4f
 8782 2bab F5140000 		.4byte	.LLST147
 8783 2baf 2A       		.uleb128 0x2a
 8784 2bb0 AA190000 		.4byte	.LASF447
 8785 2bb4 02       		.byte	0x2
 8786 2bb5 75       		.byte	0x75
 8787 2bb6 B8000000 		.4byte	0xb8
 8788 2bba 21150000 		.4byte	.LLST148
 8789 2bbe 3E       		.uleb128 0x3e
 8790 2bbf 0A000000 		.4byte	.LVL350
 8791 2bc3 212B0000 		.4byte	0x2b21
 8792 2bc7 D72B0000 		.4byte	0x2bd7
 8793 2bcb 39       		.uleb128 0x39
 8794 2bcc 01       		.uleb128 0x1
 8795 2bcd 50       		.byte	0x50
 8796 2bce 02       		.uleb128 0x2
 8797 2bcf 74       		.byte	0x74
 8798 2bd0 00       		.sleb128 0
 8799 2bd1 39       		.uleb128 0x39
 8800 2bd2 01       		.uleb128 0x1
 8801 2bd3 52       		.byte	0x52
 8802 2bd4 01       		.uleb128 0x1
 8803 2bd5 30       		.byte	0x30
 8804 2bd6 00       		.byte	0
 8805 2bd7 3E       		.uleb128 0x3e
 8806 2bd8 10000000 		.4byte	.LVL351
 8807 2bdc 3A2D0000 		.4byte	0x2d3a
 8808 2be0 EB2B0000 		.4byte	0x2beb
 8809 2be4 39       		.uleb128 0x39
 8810 2be5 01       		.uleb128 0x1
 8811 2be6 50       		.byte	0x50
 8812 2be7 02       		.uleb128 0x2
 8813 2be8 74       		.byte	0x74
 8814 2be9 00       		.sleb128 0
 8815 2bea 00       		.byte	0
 8816 2beb 3B       		.uleb128 0x3b
 8817 2bec 14000000 		.4byte	.LVL352
 8818 2bf0 DC2D0000 		.4byte	0x2ddc
 8819 2bf4 00       		.byte	0
 8820 2bf5 4C       		.uleb128 0x4c
 8821 2bf6 211B0000 		.4byte	.LASF448
 8822 2bfa 07       		.byte	0x7
ARM GAS  C:\Users\haske\AppData\Local\Temp\ccVRp2Ta.s 			page 187


 8823 2bfb 94       		.byte	0x94
 8824 2bfc 85070000 		.4byte	0x785
 8825 2c00 4D       		.uleb128 0x4d
 8826 2c01 B81F0000 		.4byte	.LASF449
 8827 2c05 02       		.byte	0x2
 8828 2c06 44       		.byte	0x44
 8829 2c07 CE000000 		.4byte	0xce
 8830 2c0b 05       		.uleb128 0x5
 8831 2c0c 03       		.byte	0x3
 8832 2c0d 00000000 		.4byte	LV_LAYOUT_FLEX
 8833 2c11 4D       		.uleb128 0x4d
 8834 2c12 A0180000 		.4byte	.LASF450
 8835 2c16 02       		.byte	0x2
 8836 2c17 45       		.byte	0x45
 8837 2c18 F3050000 		.4byte	0x5f3
 8838 2c1c 05       		.uleb128 0x5
 8839 2c1d 03       		.byte	0x3
 8840 2c1e 00000000 		.4byte	LV_STYLE_FLEX_FLOW
 8841 2c22 4D       		.uleb128 0x4d
 8842 2c23 D3030000 		.4byte	.LASF451
 8843 2c27 02       		.byte	0x2
 8844 2c28 46       		.byte	0x46
 8845 2c29 F3050000 		.4byte	0x5f3
 8846 2c2d 05       		.uleb128 0x5
 8847 2c2e 03       		.byte	0x3
 8848 2c2f 00000000 		.4byte	LV_STYLE_FLEX_MAIN_PLACE
 8849 2c33 4D       		.uleb128 0x4d
 8850 2c34 DA070000 		.4byte	.LASF452
 8851 2c38 02       		.byte	0x2
 8852 2c39 47       		.byte	0x47
 8853 2c3a F3050000 		.4byte	0x5f3
 8854 2c3e 05       		.uleb128 0x5
 8855 2c3f 03       		.byte	0x3
 8856 2c40 00000000 		.4byte	LV_STYLE_FLEX_CROSS_PLACE
 8857 2c44 4D       		.uleb128 0x4d
 8858 2c45 CA050000 		.4byte	.LASF453
 8859 2c49 02       		.byte	0x2
 8860 2c4a 48       		.byte	0x48
 8861 2c4b F3050000 		.4byte	0x5f3
 8862 2c4f 05       		.uleb128 0x5
 8863 2c50 03       		.byte	0x3
 8864 2c51 00000000 		.4byte	LV_STYLE_FLEX_TRACK_PLACE
 8865 2c55 4D       		.uleb128 0x4d
 8866 2c56 5A020000 		.4byte	.LASF454
 8867 2c5a 02       		.byte	0x2
 8868 2c5b 49       		.byte	0x49
 8869 2c5c F3050000 		.4byte	0x5f3
 8870 2c60 05       		.uleb128 0x5
 8871 2c61 03       		.byte	0x3
 8872 2c62 00000000 		.4byte	LV_STYLE_FLEX_GROW
 8873 2c66 4C       		.uleb128 0x4c
 8874 2c67 67200000 		.4byte	.LASF455
 8875 2c6b 12       		.byte	0x12
 8876 2c6c 39       		.byte	0x39
 8877 2c6d F3050000 		.4byte	0x5f3
 8878 2c71 4C       		.uleb128 0x4c
 8879 2c72 DA020000 		.4byte	.LASF456
ARM GAS  C:\Users\haske\AppData\Local\Temp\ccVRp2Ta.s 			page 188


 8880 2c76 12       		.byte	0x12
 8881 2c77 3A       		.byte	0x3a
 8882 2c78 F3050000 		.4byte	0x5f3
 8883 2c7c 4C       		.uleb128 0x4c
 8884 2c7d 000E0000 		.4byte	.LASF457
 8885 2c81 12       		.byte	0x12
 8886 2c82 3B       		.byte	0x3b
 8887 2c83 F3050000 		.4byte	0x5f3
 8888 2c87 4C       		.uleb128 0x4c
 8889 2c88 19110000 		.4byte	.LASF458
 8890 2c8c 12       		.byte	0x12
 8891 2c8d 3C       		.byte	0x3c
 8892 2c8e F3050000 		.4byte	0x5f3
 8893 2c92 4C       		.uleb128 0x4c
 8894 2c93 25120000 		.4byte	.LASF459
 8895 2c97 12       		.byte	0x12
 8896 2c98 3D       		.byte	0x3d
 8897 2c99 F3050000 		.4byte	0x5f3
 8898 2c9d 4C       		.uleb128 0x4c
 8899 2c9e 7B050000 		.4byte	.LASF460
 8900 2ca2 12       		.byte	0x12
 8901 2ca3 3E       		.byte	0x3e
 8902 2ca4 F3050000 		.4byte	0x5f3
 8903 2ca8 4C       		.uleb128 0x4c
 8904 2ca9 55090000 		.4byte	.LASF461
 8905 2cad 12       		.byte	0x12
 8906 2cae 3F       		.byte	0x3f
 8907 2caf F3050000 		.4byte	0x5f3
 8908 2cb3 4C       		.uleb128 0x4c
 8909 2cb4 40010000 		.4byte	.LASF462
 8910 2cb8 12       		.byte	0x12
 8911 2cb9 40       		.byte	0x40
 8912 2cba F3050000 		.4byte	0x5f3
 8913 2cbe 4C       		.uleb128 0x4c
 8914 2cbf 02160000 		.4byte	.LASF463
 8915 2cc3 12       		.byte	0x12
 8916 2cc4 41       		.byte	0x41
 8917 2cc5 F3050000 		.4byte	0x5f3
 8918 2cc9 4C       		.uleb128 0x4c
 8919 2cca 070B0000 		.4byte	.LASF464
 8920 2cce 12       		.byte	0x12
 8921 2ccf 42       		.byte	0x42
 8922 2cd0 F3050000 		.4byte	0x5f3
 8923 2cd4 4E       		.uleb128 0x4e
 8924 2cd5 15180000 		.4byte	.LASF465
 8925 2cd9 15180000 		.4byte	.LASF465
 8926 2cdd 0F       		.byte	0xf
 8927 2cde 83       		.byte	0x83
 8928 2cdf 4E       		.uleb128 0x4e
 8929 2ce0 1E140000 		.4byte	.LASF466
 8930 2ce4 1E140000 		.4byte	.LASF466
 8931 2ce8 13       		.byte	0x13
 8932 2ce9 6D       		.byte	0x6d
 8933 2cea 4E       		.uleb128 0x4e
 8934 2ceb 86010000 		.4byte	.LASF467
 8935 2cef 86010000 		.4byte	.LASF467
 8936 2cf3 13       		.byte	0x13
ARM GAS  C:\Users\haske\AppData\Local\Temp\ccVRp2Ta.s 			page 189


 8937 2cf4 BA       		.byte	0xba
 8938 2cf5 4E       		.uleb128 0x4e
 8939 2cf6 B1100000 		.4byte	.LASF468
 8940 2cfa B1100000 		.4byte	.LASF468
 8941 2cfe 13       		.byte	0x13
 8942 2cff 73       		.byte	0x73
 8943 2d00 4E       		.uleb128 0x4e
 8944 2d01 310F0000 		.4byte	.LASF469
 8945 2d05 310F0000 		.4byte	.LASF469
 8946 2d09 14       		.byte	0x14
 8947 2d0a 8A       		.byte	0x8a
 8948 2d0b 4F       		.uleb128 0x4f
 8949 2d0c 5C160000 		.4byte	.LASF470
 8950 2d10 5C160000 		.4byte	.LASF470
 8951 2d14 0B       		.byte	0xb
 8952 2d15 1C01     		.2byte	0x11c
 8953 2d17 4F       		.uleb128 0x4f
 8954 2d18 75210000 		.4byte	.LASF471
 8955 2d1c 75210000 		.4byte	.LASF471
 8956 2d20 0B       		.byte	0xb
 8957 2d21 2401     		.2byte	0x124
 8958 2d23 4F       		.uleb128 0x4f
 8959 2d24 AE200000 		.4byte	.LASF472
 8960 2d28 AE200000 		.4byte	.LASF472
 8961 2d2c 15       		.byte	0x15
 8962 2d2d 7D01     		.2byte	0x17d
 8963 2d2f 4E       		.uleb128 0x4e
 8964 2d30 08210000 		.4byte	.LASF473
 8965 2d34 08210000 		.4byte	.LASF473
 8966 2d38 11       		.byte	0x11
 8967 2d39 92       		.byte	0x92
 8968 2d3a 4E       		.uleb128 0x4e
 8969 2d3b 18150000 		.4byte	.LASF474
 8970 2d3f 18150000 		.4byte	.LASF474
 8971 2d43 14       		.byte	0x14
 8972 2d44 7D       		.byte	0x7d
 8973 2d45 4F       		.uleb128 0x4f
 8974 2d46 49020000 		.4byte	.LASF475
 8975 2d4a 49020000 		.4byte	.LASF475
 8976 2d4e 15       		.byte	0x15
 8977 2d4f 1901     		.2byte	0x119
 8978 2d51 4F       		.uleb128 0x4f
 8979 2d52 8D190000 		.4byte	.LASF476
 8980 2d56 8D190000 		.4byte	.LASF476
 8981 2d5a 15       		.byte	0x15
 8982 2d5b 2201     		.2byte	0x122
 8983 2d5d 4F       		.uleb128 0x4f
 8984 2d5e 62110000 		.4byte	.LASF477
 8985 2d62 62110000 		.4byte	.LASF477
 8986 2d66 15       		.byte	0x15
 8987 2d67 5D01     		.2byte	0x15d
 8988 2d69 4F       		.uleb128 0x4f
 8989 2d6a BD0E0000 		.4byte	.LASF478
 8990 2d6e BD0E0000 		.4byte	.LASF478
 8991 2d72 15       		.byte	0x15
 8992 2d73 2B01     		.2byte	0x12b
 8993 2d75 4F       		.uleb128 0x4f
ARM GAS  C:\Users\haske\AppData\Local\Temp\ccVRp2Ta.s 			page 190


 8994 2d76 B71B0000 		.4byte	.LASF479
 8995 2d7a B71B0000 		.4byte	.LASF479
 8996 2d7e 15       		.byte	0x15
 8997 2d7f 3401     		.2byte	0x134
 8998 2d81 4E       		.uleb128 0x4e
 8999 2d82 0A140000 		.4byte	.LASF480
 9000 2d86 0A140000 		.4byte	.LASF480
 9001 2d8a 0E       		.byte	0xe
 9002 2d8b 88       		.byte	0x88
 9003 2d8c 4E       		.uleb128 0x4e
 9004 2d8d D4170000 		.4byte	.LASF481
 9005 2d91 D4170000 		.4byte	.LASF481
 9006 2d95 0E       		.byte	0xe
 9007 2d96 7E       		.byte	0x7e
 9008 2d97 4E       		.uleb128 0x4e
 9009 2d98 AC000000 		.4byte	.LASF482
 9010 2d9c AC000000 		.4byte	.LASF482
 9011 2da0 15       		.byte	0x15
 9012 2da1 59       		.byte	0x59
 9013 2da2 4E       		.uleb128 0x4e
 9014 2da3 FF1B0000 		.4byte	.LASF483
 9015 2da7 FF1B0000 		.4byte	.LASF483
 9016 2dab 15       		.byte	0x15
 9017 2dac A1       		.byte	0xa1
 9018 2dad 4F       		.uleb128 0x4f
 9019 2dae 0F090000 		.4byte	.LASF484
 9020 2db2 0F090000 		.4byte	.LASF484
 9021 2db6 0A       		.byte	0xa
 9022 2db7 7201     		.2byte	0x172
 9023 2db9 4F       		.uleb128 0x4f
 9024 2dba 47040000 		.4byte	.LASF485
 9025 2dbe 47040000 		.4byte	.LASF485
 9026 2dc2 0A       		.byte	0xa
 9027 2dc3 8901     		.2byte	0x189
 9028 2dc5 4E       		.uleb128 0x4e
 9029 2dc6 561C0000 		.4byte	.LASF486
 9030 2dca 561C0000 		.4byte	.LASF486
 9031 2dce 0F       		.byte	0xf
 9032 2dcf 8C       		.byte	0x8c
 9033 2dd0 4F       		.uleb128 0x4f
 9034 2dd1 D60A0000 		.4byte	.LASF487
 9035 2dd5 D60A0000 		.4byte	.LASF487
 9036 2dd9 03       		.byte	0x3
 9037 2dda 8702     		.2byte	0x287
 9038 2ddc 4E       		.uleb128 0x4e
 9039 2ddd DE110000 		.4byte	.LASF488
 9040 2de1 DE110000 		.4byte	.LASF488
 9041 2de5 15       		.byte	0x15
 9042 2de6 93       		.byte	0x93
 9043 2de7 00       		.byte	0
 9044              		.section	.debug_abbrev,"",%progbits
 9045              	.Ldebug_abbrev0:
 9046 0000 01       		.uleb128 0x1
 9047 0001 11       		.uleb128 0x11
 9048 0002 01       		.byte	0x1
 9049 0003 25       		.uleb128 0x25
 9050 0004 0E       		.uleb128 0xe
ARM GAS  C:\Users\haske\AppData\Local\Temp\ccVRp2Ta.s 			page 191


 9051 0005 13       		.uleb128 0x13
 9052 0006 0B       		.uleb128 0xb
 9053 0007 03       		.uleb128 0x3
 9054 0008 0E       		.uleb128 0xe
 9055 0009 1B       		.uleb128 0x1b
 9056 000a 0E       		.uleb128 0xe
 9057 000b 55       		.uleb128 0x55
 9058 000c 17       		.uleb128 0x17
 9059 000d 11       		.uleb128 0x11
 9060 000e 01       		.uleb128 0x1
 9061 000f 10       		.uleb128 0x10
 9062 0010 17       		.uleb128 0x17
 9063 0011 00       		.byte	0
 9064 0012 00       		.byte	0
 9065 0013 02       		.uleb128 0x2
 9066 0014 16       		.uleb128 0x16
 9067 0015 00       		.byte	0
 9068 0016 03       		.uleb128 0x3
 9069 0017 0E       		.uleb128 0xe
 9070 0018 3A       		.uleb128 0x3a
 9071 0019 0B       		.uleb128 0xb
 9072 001a 3B       		.uleb128 0x3b
 9073 001b 0B       		.uleb128 0xb
 9074 001c 49       		.uleb128 0x49
 9075 001d 13       		.uleb128 0x13
 9076 001e 00       		.byte	0
 9077 001f 00       		.byte	0
 9078 0020 03       		.uleb128 0x3
 9079 0021 24       		.uleb128 0x24
 9080 0022 00       		.byte	0
 9081 0023 0B       		.uleb128 0xb
 9082 0024 0B       		.uleb128 0xb
 9083 0025 3E       		.uleb128 0x3e
 9084 0026 0B       		.uleb128 0xb
 9085 0027 03       		.uleb128 0x3
 9086 0028 0E       		.uleb128 0xe
 9087 0029 00       		.byte	0
 9088 002a 00       		.byte	0
 9089 002b 04       		.uleb128 0x4
 9090 002c 24       		.uleb128 0x24
 9091 002d 00       		.byte	0
 9092 002e 0B       		.uleb128 0xb
 9093 002f 0B       		.uleb128 0xb
 9094 0030 3E       		.uleb128 0x3e
 9095 0031 0B       		.uleb128 0xb
 9096 0032 03       		.uleb128 0x3
 9097 0033 08       		.uleb128 0x8
 9098 0034 00       		.byte	0
 9099 0035 00       		.byte	0
 9100 0036 05       		.uleb128 0x5
 9101 0037 13       		.uleb128 0x13
 9102 0038 01       		.byte	0x1
 9103 0039 0B       		.uleb128 0xb
 9104 003a 0B       		.uleb128 0xb
 9105 003b 3A       		.uleb128 0x3a
 9106 003c 0B       		.uleb128 0xb
 9107 003d 3B       		.uleb128 0x3b
ARM GAS  C:\Users\haske\AppData\Local\Temp\ccVRp2Ta.s 			page 192


 9108 003e 0B       		.uleb128 0xb
 9109 003f 01       		.uleb128 0x1
 9110 0040 13       		.uleb128 0x13
 9111 0041 00       		.byte	0
 9112 0042 00       		.byte	0
 9113 0043 06       		.uleb128 0x6
 9114 0044 0D       		.uleb128 0xd
 9115 0045 00       		.byte	0
 9116 0046 03       		.uleb128 0x3
 9117 0047 08       		.uleb128 0x8
 9118 0048 3A       		.uleb128 0x3a
 9119 0049 0B       		.uleb128 0xb
 9120 004a 3B       		.uleb128 0x3b
 9121 004b 0B       		.uleb128 0xb
 9122 004c 49       		.uleb128 0x49
 9123 004d 13       		.uleb128 0x13
 9124 004e 38       		.uleb128 0x38
 9125 004f 0B       		.uleb128 0xb
 9126 0050 00       		.byte	0
 9127 0051 00       		.byte	0
 9128 0052 07       		.uleb128 0x7
 9129 0053 0D       		.uleb128 0xd
 9130 0054 00       		.byte	0
 9131 0055 03       		.uleb128 0x3
 9132 0056 0E       		.uleb128 0xe
 9133 0057 3A       		.uleb128 0x3a
 9134 0058 0B       		.uleb128 0xb
 9135 0059 3B       		.uleb128 0x3b
 9136 005a 0B       		.uleb128 0xb
 9137 005b 49       		.uleb128 0x49
 9138 005c 13       		.uleb128 0x13
 9139 005d 38       		.uleb128 0x38
 9140 005e 0B       		.uleb128 0xb
 9141 005f 00       		.byte	0
 9142 0060 00       		.byte	0
 9143 0061 08       		.uleb128 0x8
 9144 0062 0D       		.uleb128 0xd
 9145 0063 00       		.byte	0
 9146 0064 03       		.uleb128 0x3
 9147 0065 08       		.uleb128 0x8
 9148 0066 3A       		.uleb128 0x3a
 9149 0067 0B       		.uleb128 0xb
 9150 0068 3B       		.uleb128 0x3b
 9151 0069 0B       		.uleb128 0xb
 9152 006a 49       		.uleb128 0x49
 9153 006b 13       		.uleb128 0x13
 9154 006c 0B       		.uleb128 0xb
 9155 006d 0B       		.uleb128 0xb
 9156 006e 0D       		.uleb128 0xd
 9157 006f 0B       		.uleb128 0xb
 9158 0070 0C       		.uleb128 0xc
 9159 0071 0B       		.uleb128 0xb
 9160 0072 38       		.uleb128 0x38
 9161 0073 0B       		.uleb128 0xb
 9162 0074 00       		.byte	0
 9163 0075 00       		.byte	0
 9164 0076 09       		.uleb128 0x9
ARM GAS  C:\Users\haske\AppData\Local\Temp\ccVRp2Ta.s 			page 193


 9165 0077 0D       		.uleb128 0xd
 9166 0078 00       		.byte	0
 9167 0079 03       		.uleb128 0x3
 9168 007a 0E       		.uleb128 0xe
 9169 007b 3A       		.uleb128 0x3a
 9170 007c 0B       		.uleb128 0xb
 9171 007d 3B       		.uleb128 0x3b
 9172 007e 0B       		.uleb128 0xb
 9173 007f 49       		.uleb128 0x49
 9174 0080 13       		.uleb128 0x13
 9175 0081 0B       		.uleb128 0xb
 9176 0082 0B       		.uleb128 0xb
 9177 0083 0D       		.uleb128 0xd
 9178 0084 0B       		.uleb128 0xb
 9179 0085 0C       		.uleb128 0xc
 9180 0086 0B       		.uleb128 0xb
 9181 0087 38       		.uleb128 0x38
 9182 0088 0B       		.uleb128 0xb
 9183 0089 00       		.byte	0
 9184 008a 00       		.byte	0
 9185 008b 0A       		.uleb128 0xa
 9186 008c 13       		.uleb128 0x13
 9187 008d 01       		.byte	0x1
 9188 008e 03       		.uleb128 0x3
 9189 008f 0E       		.uleb128 0xe
 9190 0090 0B       		.uleb128 0xb
 9191 0091 0B       		.uleb128 0xb
 9192 0092 3A       		.uleb128 0x3a
 9193 0093 0B       		.uleb128 0xb
 9194 0094 3B       		.uleb128 0x3b
 9195 0095 0B       		.uleb128 0xb
 9196 0096 01       		.uleb128 0x1
 9197 0097 13       		.uleb128 0x13
 9198 0098 00       		.byte	0
 9199 0099 00       		.byte	0
 9200 009a 0B       		.uleb128 0xb
 9201 009b 0F       		.uleb128 0xf
 9202 009c 00       		.byte	0
 9203 009d 0B       		.uleb128 0xb
 9204 009e 0B       		.uleb128 0xb
 9205 009f 49       		.uleb128 0x49
 9206 00a0 13       		.uleb128 0x13
 9207 00a1 00       		.byte	0
 9208 00a2 00       		.byte	0
 9209 00a3 0C       		.uleb128 0xc
 9210 00a4 26       		.uleb128 0x26
 9211 00a5 00       		.byte	0
 9212 00a6 49       		.uleb128 0x49
 9213 00a7 13       		.uleb128 0x13
 9214 00a8 00       		.byte	0
 9215 00a9 00       		.byte	0
 9216 00aa 0D       		.uleb128 0xd
 9217 00ab 15       		.uleb128 0x15
 9218 00ac 01       		.byte	0x1
 9219 00ad 27       		.uleb128 0x27
 9220 00ae 19       		.uleb128 0x19
 9221 00af 49       		.uleb128 0x49
ARM GAS  C:\Users\haske\AppData\Local\Temp\ccVRp2Ta.s 			page 194


 9222 00b0 13       		.uleb128 0x13
 9223 00b1 01       		.uleb128 0x1
 9224 00b2 13       		.uleb128 0x13
 9225 00b3 00       		.byte	0
 9226 00b4 00       		.byte	0
 9227 00b5 0E       		.uleb128 0xe
 9228 00b6 05       		.uleb128 0x5
 9229 00b7 00       		.byte	0
 9230 00b8 49       		.uleb128 0x49
 9231 00b9 13       		.uleb128 0x13
 9232 00ba 00       		.byte	0
 9233 00bb 00       		.byte	0
 9234 00bc 0F       		.uleb128 0xf
 9235 00bd 26       		.uleb128 0x26
 9236 00be 00       		.byte	0
 9237 00bf 00       		.byte	0
 9238 00c0 00       		.byte	0
 9239 00c1 10       		.uleb128 0x10
 9240 00c2 0F       		.uleb128 0xf
 9241 00c3 00       		.byte	0
 9242 00c4 0B       		.uleb128 0xb
 9243 00c5 0B       		.uleb128 0xb
 9244 00c6 00       		.byte	0
 9245 00c7 00       		.byte	0
 9246 00c8 11       		.uleb128 0x11
 9247 00c9 17       		.uleb128 0x17
 9248 00ca 01       		.byte	0x1
 9249 00cb 0B       		.uleb128 0xb
 9250 00cc 0B       		.uleb128 0xb
 9251 00cd 3A       		.uleb128 0x3a
 9252 00ce 0B       		.uleb128 0xb
 9253 00cf 3B       		.uleb128 0x3b
 9254 00d0 0B       		.uleb128 0xb
 9255 00d1 01       		.uleb128 0x1
 9256 00d2 13       		.uleb128 0x13
 9257 00d3 00       		.byte	0
 9258 00d4 00       		.byte	0
 9259 00d5 12       		.uleb128 0x12
 9260 00d6 0D       		.uleb128 0xd
 9261 00d7 00       		.byte	0
 9262 00d8 03       		.uleb128 0x3
 9263 00d9 08       		.uleb128 0x8
 9264 00da 3A       		.uleb128 0x3a
 9265 00db 0B       		.uleb128 0xb
 9266 00dc 3B       		.uleb128 0x3b
 9267 00dd 0B       		.uleb128 0xb
 9268 00de 49       		.uleb128 0x49
 9269 00df 13       		.uleb128 0x13
 9270 00e0 00       		.byte	0
 9271 00e1 00       		.byte	0
 9272 00e2 13       		.uleb128 0x13
 9273 00e3 0D       		.uleb128 0xd
 9274 00e4 00       		.byte	0
 9275 00e5 03       		.uleb128 0x3
 9276 00e6 0E       		.uleb128 0xe
 9277 00e7 3A       		.uleb128 0x3a
 9278 00e8 0B       		.uleb128 0xb
ARM GAS  C:\Users\haske\AppData\Local\Temp\ccVRp2Ta.s 			page 195


 9279 00e9 3B       		.uleb128 0x3b
 9280 00ea 0B       		.uleb128 0xb
 9281 00eb 49       		.uleb128 0x49
 9282 00ec 13       		.uleb128 0x13
 9283 00ed 00       		.byte	0
 9284 00ee 00       		.byte	0
 9285 00ef 14       		.uleb128 0x14
 9286 00f0 04       		.uleb128 0x4
 9287 00f1 01       		.byte	0x1
 9288 00f2 0B       		.uleb128 0xb
 9289 00f3 0B       		.uleb128 0xb
 9290 00f4 49       		.uleb128 0x49
 9291 00f5 13       		.uleb128 0x13
 9292 00f6 3A       		.uleb128 0x3a
 9293 00f7 0B       		.uleb128 0xb
 9294 00f8 3B       		.uleb128 0x3b
 9295 00f9 0B       		.uleb128 0xb
 9296 00fa 01       		.uleb128 0x1
 9297 00fb 13       		.uleb128 0x13
 9298 00fc 00       		.byte	0
 9299 00fd 00       		.byte	0
 9300 00fe 15       		.uleb128 0x15
 9301 00ff 28       		.uleb128 0x28
 9302 0100 00       		.byte	0
 9303 0101 03       		.uleb128 0x3
 9304 0102 0E       		.uleb128 0xe
 9305 0103 1C       		.uleb128 0x1c
 9306 0104 0B       		.uleb128 0xb
 9307 0105 00       		.byte	0
 9308 0106 00       		.byte	0
 9309 0107 16       		.uleb128 0x16
 9310 0108 28       		.uleb128 0x28
 9311 0109 00       		.byte	0
 9312 010a 03       		.uleb128 0x3
 9313 010b 0E       		.uleb128 0xe
 9314 010c 1C       		.uleb128 0x1c
 9315 010d 05       		.uleb128 0x5
 9316 010e 00       		.byte	0
 9317 010f 00       		.byte	0
 9318 0110 17       		.uleb128 0x17
 9319 0111 16       		.uleb128 0x16
 9320 0112 00       		.byte	0
 9321 0113 03       		.uleb128 0x3
 9322 0114 0E       		.uleb128 0xe
 9323 0115 3A       		.uleb128 0x3a
 9324 0116 0B       		.uleb128 0xb
 9325 0117 3B       		.uleb128 0x3b
 9326 0118 05       		.uleb128 0x5
 9327 0119 49       		.uleb128 0x49
 9328 011a 13       		.uleb128 0x13
 9329 011b 00       		.byte	0
 9330 011c 00       		.byte	0
 9331 011d 18       		.uleb128 0x18
 9332 011e 13       		.uleb128 0x13
 9333 011f 01       		.byte	0x1
 9334 0120 0B       		.uleb128 0xb
 9335 0121 0B       		.uleb128 0xb
ARM GAS  C:\Users\haske\AppData\Local\Temp\ccVRp2Ta.s 			page 196


 9336 0122 3A       		.uleb128 0x3a
 9337 0123 0B       		.uleb128 0xb
 9338 0124 3B       		.uleb128 0x3b
 9339 0125 05       		.uleb128 0x5
 9340 0126 01       		.uleb128 0x1
 9341 0127 13       		.uleb128 0x13
 9342 0128 00       		.byte	0
 9343 0129 00       		.byte	0
 9344 012a 19       		.uleb128 0x19
 9345 012b 0D       		.uleb128 0xd
 9346 012c 00       		.byte	0
 9347 012d 03       		.uleb128 0x3
 9348 012e 0E       		.uleb128 0xe
 9349 012f 3A       		.uleb128 0x3a
 9350 0130 0B       		.uleb128 0xb
 9351 0131 3B       		.uleb128 0x3b
 9352 0132 05       		.uleb128 0x5
 9353 0133 49       		.uleb128 0x49
 9354 0134 13       		.uleb128 0x13
 9355 0135 38       		.uleb128 0x38
 9356 0136 0B       		.uleb128 0xb
 9357 0137 00       		.byte	0
 9358 0138 00       		.byte	0
 9359 0139 1A       		.uleb128 0x1a
 9360 013a 17       		.uleb128 0x17
 9361 013b 01       		.byte	0x1
 9362 013c 0B       		.uleb128 0xb
 9363 013d 0B       		.uleb128 0xb
 9364 013e 3A       		.uleb128 0x3a
 9365 013f 0B       		.uleb128 0xb
 9366 0140 3B       		.uleb128 0x3b
 9367 0141 05       		.uleb128 0x5
 9368 0142 01       		.uleb128 0x1
 9369 0143 13       		.uleb128 0x13
 9370 0144 00       		.byte	0
 9371 0145 00       		.byte	0
 9372 0146 1B       		.uleb128 0x1b
 9373 0147 0D       		.uleb128 0xd
 9374 0148 00       		.byte	0
 9375 0149 03       		.uleb128 0x3
 9376 014a 0E       		.uleb128 0xe
 9377 014b 3A       		.uleb128 0x3a
 9378 014c 0B       		.uleb128 0xb
 9379 014d 3B       		.uleb128 0x3b
 9380 014e 05       		.uleb128 0x5
 9381 014f 49       		.uleb128 0x49
 9382 0150 13       		.uleb128 0x13
 9383 0151 00       		.byte	0
 9384 0152 00       		.byte	0
 9385 0153 1C       		.uleb128 0x1c
 9386 0154 0D       		.uleb128 0xd
 9387 0155 00       		.byte	0
 9388 0156 03       		.uleb128 0x3
 9389 0157 08       		.uleb128 0x8
 9390 0158 3A       		.uleb128 0x3a
 9391 0159 0B       		.uleb128 0xb
 9392 015a 3B       		.uleb128 0x3b
ARM GAS  C:\Users\haske\AppData\Local\Temp\ccVRp2Ta.s 			page 197


 9393 015b 05       		.uleb128 0x5
 9394 015c 49       		.uleb128 0x49
 9395 015d 13       		.uleb128 0x13
 9396 015e 38       		.uleb128 0x38
 9397 015f 0B       		.uleb128 0xb
 9398 0160 00       		.byte	0
 9399 0161 00       		.byte	0
 9400 0162 1D       		.uleb128 0x1d
 9401 0163 28       		.uleb128 0x28
 9402 0164 00       		.byte	0
 9403 0165 03       		.uleb128 0x3
 9404 0166 0E       		.uleb128 0xe
 9405 0167 1C       		.uleb128 0x1c
 9406 0168 06       		.uleb128 0x6
 9407 0169 00       		.byte	0
 9408 016a 00       		.byte	0
 9409 016b 1E       		.uleb128 0x1e
 9410 016c 15       		.uleb128 0x15
 9411 016d 01       		.byte	0x1
 9412 016e 27       		.uleb128 0x27
 9413 016f 19       		.uleb128 0x19
 9414 0170 01       		.uleb128 0x1
 9415 0171 13       		.uleb128 0x13
 9416 0172 00       		.byte	0
 9417 0173 00       		.byte	0
 9418 0174 1F       		.uleb128 0x1f
 9419 0175 13       		.uleb128 0x13
 9420 0176 00       		.byte	0
 9421 0177 03       		.uleb128 0x3
 9422 0178 0E       		.uleb128 0xe
 9423 0179 3C       		.uleb128 0x3c
 9424 017a 19       		.uleb128 0x19
 9425 017b 00       		.byte	0
 9426 017c 00       		.byte	0
 9427 017d 20       		.uleb128 0x20
 9428 017e 2E       		.uleb128 0x2e
 9429 017f 01       		.byte	0x1
 9430 0180 03       		.uleb128 0x3
 9431 0181 0E       		.uleb128 0xe
 9432 0182 3A       		.uleb128 0x3a
 9433 0183 0B       		.uleb128 0xb
 9434 0184 3B       		.uleb128 0x3b
 9435 0185 0B       		.uleb128 0xb
 9436 0186 27       		.uleb128 0x27
 9437 0187 19       		.uleb128 0x19
 9438 0188 49       		.uleb128 0x49
 9439 0189 13       		.uleb128 0x13
 9440 018a 20       		.uleb128 0x20
 9441 018b 0B       		.uleb128 0xb
 9442 018c 01       		.uleb128 0x1
 9443 018d 13       		.uleb128 0x13
 9444 018e 00       		.byte	0
 9445 018f 00       		.byte	0
 9446 0190 21       		.uleb128 0x21
 9447 0191 05       		.uleb128 0x5
 9448 0192 00       		.byte	0
 9449 0193 03       		.uleb128 0x3
ARM GAS  C:\Users\haske\AppData\Local\Temp\ccVRp2Ta.s 			page 198


 9450 0194 08       		.uleb128 0x8
 9451 0195 3A       		.uleb128 0x3a
 9452 0196 0B       		.uleb128 0xb
 9453 0197 3B       		.uleb128 0x3b
 9454 0198 0B       		.uleb128 0xb
 9455 0199 49       		.uleb128 0x49
 9456 019a 13       		.uleb128 0x13
 9457 019b 00       		.byte	0
 9458 019c 00       		.byte	0
 9459 019d 22       		.uleb128 0x22
 9460 019e 05       		.uleb128 0x5
 9461 019f 00       		.byte	0
 9462 01a0 03       		.uleb128 0x3
 9463 01a1 0E       		.uleb128 0xe
 9464 01a2 3A       		.uleb128 0x3a
 9465 01a3 0B       		.uleb128 0xb
 9466 01a4 3B       		.uleb128 0x3b
 9467 01a5 0B       		.uleb128 0xb
 9468 01a6 49       		.uleb128 0x49
 9469 01a7 13       		.uleb128 0x13
 9470 01a8 00       		.byte	0
 9471 01a9 00       		.byte	0
 9472 01aa 23       		.uleb128 0x23
 9473 01ab 34       		.uleb128 0x34
 9474 01ac 00       		.byte	0
 9475 01ad 03       		.uleb128 0x3
 9476 01ae 08       		.uleb128 0x8
 9477 01af 3A       		.uleb128 0x3a
 9478 01b0 0B       		.uleb128 0xb
 9479 01b1 3B       		.uleb128 0x3b
 9480 01b2 0B       		.uleb128 0xb
 9481 01b3 49       		.uleb128 0x49
 9482 01b4 13       		.uleb128 0x13
 9483 01b5 00       		.byte	0
 9484 01b6 00       		.byte	0
 9485 01b7 24       		.uleb128 0x24
 9486 01b8 2E       		.uleb128 0x2e
 9487 01b9 01       		.byte	0x1
 9488 01ba 03       		.uleb128 0x3
 9489 01bb 0E       		.uleb128 0xe
 9490 01bc 3A       		.uleb128 0x3a
 9491 01bd 0B       		.uleb128 0xb
 9492 01be 3B       		.uleb128 0x3b
 9493 01bf 05       		.uleb128 0x5
 9494 01c0 27       		.uleb128 0x27
 9495 01c1 19       		.uleb128 0x19
 9496 01c2 49       		.uleb128 0x49
 9497 01c3 13       		.uleb128 0x13
 9498 01c4 20       		.uleb128 0x20
 9499 01c5 0B       		.uleb128 0xb
 9500 01c6 01       		.uleb128 0x1
 9501 01c7 13       		.uleb128 0x13
 9502 01c8 00       		.byte	0
 9503 01c9 00       		.byte	0
 9504 01ca 25       		.uleb128 0x25
 9505 01cb 05       		.uleb128 0x5
 9506 01cc 00       		.byte	0
ARM GAS  C:\Users\haske\AppData\Local\Temp\ccVRp2Ta.s 			page 199


 9507 01cd 03       		.uleb128 0x3
 9508 01ce 08       		.uleb128 0x8
 9509 01cf 3A       		.uleb128 0x3a
 9510 01d0 0B       		.uleb128 0xb
 9511 01d1 3B       		.uleb128 0x3b
 9512 01d2 05       		.uleb128 0x5
 9513 01d3 49       		.uleb128 0x49
 9514 01d4 13       		.uleb128 0x13
 9515 01d5 00       		.byte	0
 9516 01d6 00       		.byte	0
 9517 01d7 26       		.uleb128 0x26
 9518 01d8 05       		.uleb128 0x5
 9519 01d9 00       		.byte	0
 9520 01da 03       		.uleb128 0x3
 9521 01db 0E       		.uleb128 0xe
 9522 01dc 3A       		.uleb128 0x3a
 9523 01dd 0B       		.uleb128 0xb
 9524 01de 3B       		.uleb128 0x3b
 9525 01df 05       		.uleb128 0x5
 9526 01e0 49       		.uleb128 0x49
 9527 01e1 13       		.uleb128 0x13
 9528 01e2 00       		.byte	0
 9529 01e3 00       		.byte	0
 9530 01e4 27       		.uleb128 0x27
 9531 01e5 34       		.uleb128 0x34
 9532 01e6 00       		.byte	0
 9533 01e7 03       		.uleb128 0x3
 9534 01e8 08       		.uleb128 0x8
 9535 01e9 3A       		.uleb128 0x3a
 9536 01ea 0B       		.uleb128 0xb
 9537 01eb 3B       		.uleb128 0x3b
 9538 01ec 05       		.uleb128 0x5
 9539 01ed 49       		.uleb128 0x49
 9540 01ee 13       		.uleb128 0x13
 9541 01ef 00       		.byte	0
 9542 01f0 00       		.byte	0
 9543 01f1 28       		.uleb128 0x28
 9544 01f2 2E       		.uleb128 0x2e
 9545 01f3 01       		.byte	0x1
 9546 01f4 03       		.uleb128 0x3
 9547 01f5 0E       		.uleb128 0xe
 9548 01f6 3A       		.uleb128 0x3a
 9549 01f7 0B       		.uleb128 0xb
 9550 01f8 3B       		.uleb128 0x3b
 9551 01f9 0B       		.uleb128 0xb
 9552 01fa 27       		.uleb128 0x27
 9553 01fb 19       		.uleb128 0x19
 9554 01fc 20       		.uleb128 0x20
 9555 01fd 0B       		.uleb128 0xb
 9556 01fe 01       		.uleb128 0x1
 9557 01ff 13       		.uleb128 0x13
 9558 0200 00       		.byte	0
 9559 0201 00       		.byte	0
 9560 0202 29       		.uleb128 0x29
 9561 0203 2E       		.uleb128 0x2e
 9562 0204 01       		.byte	0x1
 9563 0205 03       		.uleb128 0x3
ARM GAS  C:\Users\haske\AppData\Local\Temp\ccVRp2Ta.s 			page 200


 9564 0206 0E       		.uleb128 0xe
 9565 0207 3A       		.uleb128 0x3a
 9566 0208 0B       		.uleb128 0xb
 9567 0209 3B       		.uleb128 0x3b
 9568 020a 0B       		.uleb128 0xb
 9569 020b 27       		.uleb128 0x27
 9570 020c 19       		.uleb128 0x19
 9571 020d 49       		.uleb128 0x49
 9572 020e 13       		.uleb128 0x13
 9573 020f 11       		.uleb128 0x11
 9574 0210 01       		.uleb128 0x1
 9575 0211 12       		.uleb128 0x12
 9576 0212 06       		.uleb128 0x6
 9577 0213 40       		.uleb128 0x40
 9578 0214 18       		.uleb128 0x18
 9579 0215 9742     		.uleb128 0x2117
 9580 0217 19       		.uleb128 0x19
 9581 0218 01       		.uleb128 0x1
 9582 0219 13       		.uleb128 0x13
 9583 021a 00       		.byte	0
 9584 021b 00       		.byte	0
 9585 021c 2A       		.uleb128 0x2a
 9586 021d 05       		.uleb128 0x5
 9587 021e 00       		.byte	0
 9588 021f 03       		.uleb128 0x3
 9589 0220 0E       		.uleb128 0xe
 9590 0221 3A       		.uleb128 0x3a
 9591 0222 0B       		.uleb128 0xb
 9592 0223 3B       		.uleb128 0x3b
 9593 0224 0B       		.uleb128 0xb
 9594 0225 49       		.uleb128 0x49
 9595 0226 13       		.uleb128 0x13
 9596 0227 02       		.uleb128 0x2
 9597 0228 17       		.uleb128 0x17
 9598 0229 00       		.byte	0
 9599 022a 00       		.byte	0
 9600 022b 2B       		.uleb128 0x2b
 9601 022c 2E       		.uleb128 0x2e
 9602 022d 01       		.byte	0x1
 9603 022e 03       		.uleb128 0x3
 9604 022f 0E       		.uleb128 0xe
 9605 0230 3A       		.uleb128 0x3a
 9606 0231 0B       		.uleb128 0xb
 9607 0232 3B       		.uleb128 0x3b
 9608 0233 05       		.uleb128 0x5
 9609 0234 27       		.uleb128 0x27
 9610 0235 19       		.uleb128 0x19
 9611 0236 11       		.uleb128 0x11
 9612 0237 01       		.uleb128 0x1
 9613 0238 12       		.uleb128 0x12
 9614 0239 06       		.uleb128 0x6
 9615 023a 40       		.uleb128 0x40
 9616 023b 18       		.uleb128 0x18
 9617 023c 9642     		.uleb128 0x2116
 9618 023e 19       		.uleb128 0x19
 9619 023f 01       		.uleb128 0x1
 9620 0240 13       		.uleb128 0x13
ARM GAS  C:\Users\haske\AppData\Local\Temp\ccVRp2Ta.s 			page 201


 9621 0241 00       		.byte	0
 9622 0242 00       		.byte	0
 9623 0243 2C       		.uleb128 0x2c
 9624 0244 05       		.uleb128 0x5
 9625 0245 00       		.byte	0
 9626 0246 03       		.uleb128 0x3
 9627 0247 0E       		.uleb128 0xe
 9628 0248 3A       		.uleb128 0x3a
 9629 0249 0B       		.uleb128 0xb
 9630 024a 3B       		.uleb128 0x3b
 9631 024b 05       		.uleb128 0x5
 9632 024c 49       		.uleb128 0x49
 9633 024d 13       		.uleb128 0x13
 9634 024e 02       		.uleb128 0x2
 9635 024f 17       		.uleb128 0x17
 9636 0250 00       		.byte	0
 9637 0251 00       		.byte	0
 9638 0252 2D       		.uleb128 0x2d
 9639 0253 05       		.uleb128 0x5
 9640 0254 00       		.byte	0
 9641 0255 03       		.uleb128 0x3
 9642 0256 0E       		.uleb128 0xe
 9643 0257 3A       		.uleb128 0x3a
 9644 0258 0B       		.uleb128 0xb
 9645 0259 3B       		.uleb128 0x3b
 9646 025a 05       		.uleb128 0x5
 9647 025b 49       		.uleb128 0x49
 9648 025c 13       		.uleb128 0x13
 9649 025d 02       		.uleb128 0x2
 9650 025e 18       		.uleb128 0x18
 9651 025f 00       		.byte	0
 9652 0260 00       		.byte	0
 9653 0261 2E       		.uleb128 0x2e
 9654 0262 05       		.uleb128 0x5
 9655 0263 00       		.byte	0
 9656 0264 03       		.uleb128 0x3
 9657 0265 08       		.uleb128 0x8
 9658 0266 3A       		.uleb128 0x3a
 9659 0267 0B       		.uleb128 0xb
 9660 0268 3B       		.uleb128 0x3b
 9661 0269 05       		.uleb128 0x5
 9662 026a 49       		.uleb128 0x49
 9663 026b 13       		.uleb128 0x13
 9664 026c 02       		.uleb128 0x2
 9665 026d 18       		.uleb128 0x18
 9666 026e 00       		.byte	0
 9667 026f 00       		.byte	0
 9668 0270 2F       		.uleb128 0x2f
 9669 0271 2E       		.uleb128 0x2e
 9670 0272 01       		.byte	0x1
 9671 0273 03       		.uleb128 0x3
 9672 0274 0E       		.uleb128 0xe
 9673 0275 3A       		.uleb128 0x3a
 9674 0276 0B       		.uleb128 0xb
 9675 0277 3B       		.uleb128 0x3b
 9676 0278 05       		.uleb128 0x5
 9677 0279 27       		.uleb128 0x27
ARM GAS  C:\Users\haske\AppData\Local\Temp\ccVRp2Ta.s 			page 202


 9678 027a 19       		.uleb128 0x19
 9679 027b 49       		.uleb128 0x49
 9680 027c 13       		.uleb128 0x13
 9681 027d 11       		.uleb128 0x11
 9682 027e 01       		.uleb128 0x1
 9683 027f 12       		.uleb128 0x12
 9684 0280 06       		.uleb128 0x6
 9685 0281 40       		.uleb128 0x40
 9686 0282 18       		.uleb128 0x18
 9687 0283 9742     		.uleb128 0x2117
 9688 0285 19       		.uleb128 0x19
 9689 0286 01       		.uleb128 0x1
 9690 0287 13       		.uleb128 0x13
 9691 0288 00       		.byte	0
 9692 0289 00       		.byte	0
 9693 028a 30       		.uleb128 0x30
 9694 028b 05       		.uleb128 0x5
 9695 028c 00       		.byte	0
 9696 028d 03       		.uleb128 0x3
 9697 028e 08       		.uleb128 0x8
 9698 028f 3A       		.uleb128 0x3a
 9699 0290 0B       		.uleb128 0xb
 9700 0291 3B       		.uleb128 0x3b
 9701 0292 05       		.uleb128 0x5
 9702 0293 49       		.uleb128 0x49
 9703 0294 13       		.uleb128 0x13
 9704 0295 02       		.uleb128 0x2
 9705 0296 17       		.uleb128 0x17
 9706 0297 00       		.byte	0
 9707 0298 00       		.byte	0
 9708 0299 31       		.uleb128 0x31
 9709 029a 34       		.uleb128 0x34
 9710 029b 00       		.byte	0
 9711 029c 03       		.uleb128 0x3
 9712 029d 0E       		.uleb128 0xe
 9713 029e 3A       		.uleb128 0x3a
 9714 029f 0B       		.uleb128 0xb
 9715 02a0 3B       		.uleb128 0x3b
 9716 02a1 05       		.uleb128 0x5
 9717 02a2 49       		.uleb128 0x49
 9718 02a3 13       		.uleb128 0x13
 9719 02a4 00       		.byte	0
 9720 02a5 00       		.byte	0
 9721 02a6 32       		.uleb128 0x32
 9722 02a7 34       		.uleb128 0x34
 9723 02a8 00       		.byte	0
 9724 02a9 03       		.uleb128 0x3
 9725 02aa 0E       		.uleb128 0xe
 9726 02ab 3A       		.uleb128 0x3a
 9727 02ac 0B       		.uleb128 0xb
 9728 02ad 3B       		.uleb128 0x3b
 9729 02ae 05       		.uleb128 0x5
 9730 02af 49       		.uleb128 0x49
 9731 02b0 13       		.uleb128 0x13
 9732 02b1 02       		.uleb128 0x2
 9733 02b2 18       		.uleb128 0x18
 9734 02b3 00       		.byte	0
ARM GAS  C:\Users\haske\AppData\Local\Temp\ccVRp2Ta.s 			page 203


 9735 02b4 00       		.byte	0
 9736 02b5 33       		.uleb128 0x33
 9737 02b6 34       		.uleb128 0x34
 9738 02b7 00       		.byte	0
 9739 02b8 03       		.uleb128 0x3
 9740 02b9 0E       		.uleb128 0xe
 9741 02ba 3A       		.uleb128 0x3a
 9742 02bb 0B       		.uleb128 0xb
 9743 02bc 3B       		.uleb128 0x3b
 9744 02bd 05       		.uleb128 0x5
 9745 02be 49       		.uleb128 0x49
 9746 02bf 13       		.uleb128 0x13
 9747 02c0 02       		.uleb128 0x2
 9748 02c1 17       		.uleb128 0x17
 9749 02c2 00       		.byte	0
 9750 02c3 00       		.byte	0
 9751 02c4 34       		.uleb128 0x34
 9752 02c5 1D       		.uleb128 0x1d
 9753 02c6 01       		.byte	0x1
 9754 02c7 31       		.uleb128 0x31
 9755 02c8 13       		.uleb128 0x13
 9756 02c9 11       		.uleb128 0x11
 9757 02ca 01       		.uleb128 0x1
 9758 02cb 12       		.uleb128 0x12
 9759 02cc 06       		.uleb128 0x6
 9760 02cd 58       		.uleb128 0x58
 9761 02ce 0B       		.uleb128 0xb
 9762 02cf 59       		.uleb128 0x59
 9763 02d0 05       		.uleb128 0x5
 9764 02d1 01       		.uleb128 0x1
 9765 02d2 13       		.uleb128 0x13
 9766 02d3 00       		.byte	0
 9767 02d4 00       		.byte	0
 9768 02d5 35       		.uleb128 0x35
 9769 02d6 05       		.uleb128 0x5
 9770 02d7 00       		.byte	0
 9771 02d8 31       		.uleb128 0x31
 9772 02d9 13       		.uleb128 0x13
 9773 02da 02       		.uleb128 0x2
 9774 02db 17       		.uleb128 0x17
 9775 02dc 00       		.byte	0
 9776 02dd 00       		.byte	0
 9777 02de 36       		.uleb128 0x36
 9778 02df 0B       		.uleb128 0xb
 9779 02e0 01       		.byte	0x1
 9780 02e1 11       		.uleb128 0x11
 9781 02e2 01       		.uleb128 0x1
 9782 02e3 12       		.uleb128 0x12
 9783 02e4 06       		.uleb128 0x6
 9784 02e5 00       		.byte	0
 9785 02e6 00       		.byte	0
 9786 02e7 37       		.uleb128 0x37
 9787 02e8 34       		.uleb128 0x34
 9788 02e9 00       		.byte	0
 9789 02ea 31       		.uleb128 0x31
 9790 02eb 13       		.uleb128 0x13
 9791 02ec 00       		.byte	0
ARM GAS  C:\Users\haske\AppData\Local\Temp\ccVRp2Ta.s 			page 204


 9792 02ed 00       		.byte	0
 9793 02ee 38       		.uleb128 0x38
 9794 02ef 898201   		.uleb128 0x4109
 9795 02f2 01       		.byte	0x1
 9796 02f3 11       		.uleb128 0x11
 9797 02f4 01       		.uleb128 0x1
 9798 02f5 31       		.uleb128 0x31
 9799 02f6 13       		.uleb128 0x13
 9800 02f7 00       		.byte	0
 9801 02f8 00       		.byte	0
 9802 02f9 39       		.uleb128 0x39
 9803 02fa 8A8201   		.uleb128 0x410a
 9804 02fd 00       		.byte	0
 9805 02fe 02       		.uleb128 0x2
 9806 02ff 18       		.uleb128 0x18
 9807 0300 9142     		.uleb128 0x2111
 9808 0302 18       		.uleb128 0x18
 9809 0303 00       		.byte	0
 9810 0304 00       		.byte	0
 9811 0305 3A       		.uleb128 0x3a
 9812 0306 0B       		.uleb128 0xb
 9813 0307 01       		.byte	0x1
 9814 0308 11       		.uleb128 0x11
 9815 0309 01       		.uleb128 0x1
 9816 030a 12       		.uleb128 0x12
 9817 030b 06       		.uleb128 0x6
 9818 030c 01       		.uleb128 0x1
 9819 030d 13       		.uleb128 0x13
 9820 030e 00       		.byte	0
 9821 030f 00       		.byte	0
 9822 0310 3B       		.uleb128 0x3b
 9823 0311 898201   		.uleb128 0x4109
 9824 0314 00       		.byte	0
 9825 0315 11       		.uleb128 0x11
 9826 0316 01       		.uleb128 0x1
 9827 0317 31       		.uleb128 0x31
 9828 0318 13       		.uleb128 0x13
 9829 0319 00       		.byte	0
 9830 031a 00       		.byte	0
 9831 031b 3C       		.uleb128 0x3c
 9832 031c 898201   		.uleb128 0x4109
 9833 031f 01       		.byte	0x1
 9834 0320 11       		.uleb128 0x11
 9835 0321 01       		.uleb128 0x1
 9836 0322 9342     		.uleb128 0x2113
 9837 0324 18       		.uleb128 0x18
 9838 0325 00       		.byte	0
 9839 0326 00       		.byte	0
 9840 0327 3D       		.uleb128 0x3d
 9841 0328 898201   		.uleb128 0x4109
 9842 032b 01       		.byte	0x1
 9843 032c 11       		.uleb128 0x11
 9844 032d 01       		.uleb128 0x1
 9845 032e 9342     		.uleb128 0x2113
 9846 0330 18       		.uleb128 0x18
 9847 0331 01       		.uleb128 0x1
 9848 0332 13       		.uleb128 0x13
ARM GAS  C:\Users\haske\AppData\Local\Temp\ccVRp2Ta.s 			page 205


 9849 0333 00       		.byte	0
 9850 0334 00       		.byte	0
 9851 0335 3E       		.uleb128 0x3e
 9852 0336 898201   		.uleb128 0x4109
 9853 0339 01       		.byte	0x1
 9854 033a 11       		.uleb128 0x11
 9855 033b 01       		.uleb128 0x1
 9856 033c 31       		.uleb128 0x31
 9857 033d 13       		.uleb128 0x13
 9858 033e 01       		.uleb128 0x1
 9859 033f 13       		.uleb128 0x13
 9860 0340 00       		.byte	0
 9861 0341 00       		.byte	0
 9862 0342 3F       		.uleb128 0x3f
 9863 0343 34       		.uleb128 0x34
 9864 0344 00       		.byte	0
 9865 0345 03       		.uleb128 0x3
 9866 0346 08       		.uleb128 0x8
 9867 0347 3A       		.uleb128 0x3a
 9868 0348 0B       		.uleb128 0xb
 9869 0349 3B       		.uleb128 0x3b
 9870 034a 05       		.uleb128 0x5
 9871 034b 49       		.uleb128 0x49
 9872 034c 13       		.uleb128 0x13
 9873 034d 02       		.uleb128 0x2
 9874 034e 17       		.uleb128 0x17
 9875 034f 00       		.byte	0
 9876 0350 00       		.byte	0
 9877 0351 40       		.uleb128 0x40
 9878 0352 0B       		.uleb128 0xb
 9879 0353 01       		.byte	0x1
 9880 0354 55       		.uleb128 0x55
 9881 0355 17       		.uleb128 0x17
 9882 0356 01       		.uleb128 0x1
 9883 0357 13       		.uleb128 0x13
 9884 0358 00       		.byte	0
 9885 0359 00       		.byte	0
 9886 035a 41       		.uleb128 0x41
 9887 035b 34       		.uleb128 0x34
 9888 035c 00       		.byte	0
 9889 035d 31       		.uleb128 0x31
 9890 035e 13       		.uleb128 0x13
 9891 035f 02       		.uleb128 0x2
 9892 0360 17       		.uleb128 0x17
 9893 0361 00       		.byte	0
 9894 0362 00       		.byte	0
 9895 0363 42       		.uleb128 0x42
 9896 0364 2E       		.uleb128 0x2e
 9897 0365 01       		.byte	0x1
 9898 0366 03       		.uleb128 0x3
 9899 0367 0E       		.uleb128 0xe
 9900 0368 3A       		.uleb128 0x3a
 9901 0369 0B       		.uleb128 0xb
 9902 036a 3B       		.uleb128 0x3b
 9903 036b 0B       		.uleb128 0xb
 9904 036c 27       		.uleb128 0x27
 9905 036d 19       		.uleb128 0x19
ARM GAS  C:\Users\haske\AppData\Local\Temp\ccVRp2Ta.s 			page 206


 9906 036e 11       		.uleb128 0x11
 9907 036f 01       		.uleb128 0x1
 9908 0370 12       		.uleb128 0x12
 9909 0371 06       		.uleb128 0x6
 9910 0372 40       		.uleb128 0x40
 9911 0373 18       		.uleb128 0x18
 9912 0374 9742     		.uleb128 0x2117
 9913 0376 19       		.uleb128 0x19
 9914 0377 01       		.uleb128 0x1
 9915 0378 13       		.uleb128 0x13
 9916 0379 00       		.byte	0
 9917 037a 00       		.byte	0
 9918 037b 43       		.uleb128 0x43
 9919 037c 34       		.uleb128 0x34
 9920 037d 00       		.byte	0
 9921 037e 03       		.uleb128 0x3
 9922 037f 08       		.uleb128 0x8
 9923 0380 3A       		.uleb128 0x3a
 9924 0381 0B       		.uleb128 0xb
 9925 0382 3B       		.uleb128 0x3b
 9926 0383 0B       		.uleb128 0xb
 9927 0384 49       		.uleb128 0x49
 9928 0385 13       		.uleb128 0x13
 9929 0386 02       		.uleb128 0x2
 9930 0387 18       		.uleb128 0x18
 9931 0388 00       		.byte	0
 9932 0389 00       		.byte	0
 9933 038a 44       		.uleb128 0x44
 9934 038b 34       		.uleb128 0x34
 9935 038c 00       		.byte	0
 9936 038d 03       		.uleb128 0x3
 9937 038e 0E       		.uleb128 0xe
 9938 038f 3A       		.uleb128 0x3a
 9939 0390 0B       		.uleb128 0xb
 9940 0391 3B       		.uleb128 0x3b
 9941 0392 0B       		.uleb128 0xb
 9942 0393 49       		.uleb128 0x49
 9943 0394 13       		.uleb128 0x13
 9944 0395 00       		.byte	0
 9945 0396 00       		.byte	0
 9946 0397 45       		.uleb128 0x45
 9947 0398 34       		.uleb128 0x34
 9948 0399 00       		.byte	0
 9949 039a 03       		.uleb128 0x3
 9950 039b 08       		.uleb128 0x8
 9951 039c 3A       		.uleb128 0x3a
 9952 039d 0B       		.uleb128 0xb
 9953 039e 3B       		.uleb128 0x3b
 9954 039f 0B       		.uleb128 0xb
 9955 03a0 49       		.uleb128 0x49
 9956 03a1 13       		.uleb128 0x13
 9957 03a2 02       		.uleb128 0x2
 9958 03a3 17       		.uleb128 0x17
 9959 03a4 00       		.byte	0
 9960 03a5 00       		.byte	0
 9961 03a6 46       		.uleb128 0x46
 9962 03a7 34       		.uleb128 0x34
ARM GAS  C:\Users\haske\AppData\Local\Temp\ccVRp2Ta.s 			page 207


 9963 03a8 00       		.byte	0
 9964 03a9 03       		.uleb128 0x3
 9965 03aa 0E       		.uleb128 0xe
 9966 03ab 3A       		.uleb128 0x3a
 9967 03ac 0B       		.uleb128 0xb
 9968 03ad 3B       		.uleb128 0x3b
 9969 03ae 0B       		.uleb128 0xb
 9970 03af 49       		.uleb128 0x49
 9971 03b0 13       		.uleb128 0x13
 9972 03b1 02       		.uleb128 0x2
 9973 03b2 17       		.uleb128 0x17
 9974 03b3 00       		.byte	0
 9975 03b4 00       		.byte	0
 9976 03b5 47       		.uleb128 0x47
 9977 03b6 34       		.uleb128 0x34
 9978 03b7 00       		.byte	0
 9979 03b8 03       		.uleb128 0x3
 9980 03b9 0E       		.uleb128 0xe
 9981 03ba 3A       		.uleb128 0x3a
 9982 03bb 0B       		.uleb128 0xb
 9983 03bc 3B       		.uleb128 0x3b
 9984 03bd 0B       		.uleb128 0xb
 9985 03be 49       		.uleb128 0x49
 9986 03bf 13       		.uleb128 0x13
 9987 03c0 02       		.uleb128 0x2
 9988 03c1 18       		.uleb128 0x18
 9989 03c2 00       		.byte	0
 9990 03c3 00       		.byte	0
 9991 03c4 48       		.uleb128 0x48
 9992 03c5 1D       		.uleb128 0x1d
 9993 03c6 01       		.byte	0x1
 9994 03c7 31       		.uleb128 0x31
 9995 03c8 13       		.uleb128 0x13
 9996 03c9 11       		.uleb128 0x11
 9997 03ca 01       		.uleb128 0x1
 9998 03cb 12       		.uleb128 0x12
 9999 03cc 06       		.uleb128 0x6
 10000 03cd 58       		.uleb128 0x58
 10001 03ce 0B       		.uleb128 0xb
 10002 03cf 59       		.uleb128 0x59
 10003 03d0 0B       		.uleb128 0xb
 10004 03d1 01       		.uleb128 0x1
 10005 03d2 13       		.uleb128 0x13
 10006 03d3 00       		.byte	0
 10007 03d4 00       		.byte	0
 10008 03d5 49       		.uleb128 0x49
 10009 03d6 34       		.uleb128 0x34
 10010 03d7 00       		.byte	0
 10011 03d8 03       		.uleb128 0x3
 10012 03d9 08       		.uleb128 0x8
 10013 03da 3A       		.uleb128 0x3a
 10014 03db 0B       		.uleb128 0xb
 10015 03dc 3B       		.uleb128 0x3b
 10016 03dd 05       		.uleb128 0x5
 10017 03de 49       		.uleb128 0x49
 10018 03df 13       		.uleb128 0x13
 10019 03e0 02       		.uleb128 0x2
ARM GAS  C:\Users\haske\AppData\Local\Temp\ccVRp2Ta.s 			page 208


 10020 03e1 18       		.uleb128 0x18
 10021 03e2 00       		.byte	0
 10022 03e3 00       		.byte	0
 10023 03e4 4A       		.uleb128 0x4a
 10024 03e5 2E       		.uleb128 0x2e
 10025 03e6 01       		.byte	0x1
 10026 03e7 3F       		.uleb128 0x3f
 10027 03e8 19       		.uleb128 0x19
 10028 03e9 03       		.uleb128 0x3
 10029 03ea 0E       		.uleb128 0xe
 10030 03eb 3A       		.uleb128 0x3a
 10031 03ec 0B       		.uleb128 0xb
 10032 03ed 3B       		.uleb128 0x3b
 10033 03ee 0B       		.uleb128 0xb
 10034 03ef 27       		.uleb128 0x27
 10035 03f0 19       		.uleb128 0x19
 10036 03f1 11       		.uleb128 0x11
 10037 03f2 01       		.uleb128 0x1
 10038 03f3 12       		.uleb128 0x12
 10039 03f4 06       		.uleb128 0x6
 10040 03f5 40       		.uleb128 0x40
 10041 03f6 18       		.uleb128 0x18
 10042 03f7 9742     		.uleb128 0x2117
 10043 03f9 19       		.uleb128 0x19
 10044 03fa 01       		.uleb128 0x1
 10045 03fb 13       		.uleb128 0x13
 10046 03fc 00       		.byte	0
 10047 03fd 00       		.byte	0
 10048 03fe 4B       		.uleb128 0x4b
 10049 03ff 05       		.uleb128 0x5
 10050 0400 00       		.byte	0
 10051 0401 03       		.uleb128 0x3
 10052 0402 08       		.uleb128 0x8
 10053 0403 3A       		.uleb128 0x3a
 10054 0404 0B       		.uleb128 0xb
 10055 0405 3B       		.uleb128 0x3b
 10056 0406 0B       		.uleb128 0xb
 10057 0407 49       		.uleb128 0x49
 10058 0408 13       		.uleb128 0x13
 10059 0409 02       		.uleb128 0x2
 10060 040a 17       		.uleb128 0x17
 10061 040b 00       		.byte	0
 10062 040c 00       		.byte	0
 10063 040d 4C       		.uleb128 0x4c
 10064 040e 34       		.uleb128 0x34
 10065 040f 00       		.byte	0
 10066 0410 03       		.uleb128 0x3
 10067 0411 0E       		.uleb128 0xe
 10068 0412 3A       		.uleb128 0x3a
 10069 0413 0B       		.uleb128 0xb
 10070 0414 3B       		.uleb128 0x3b
 10071 0415 0B       		.uleb128 0xb
 10072 0416 49       		.uleb128 0x49
 10073 0417 13       		.uleb128 0x13
 10074 0418 3F       		.uleb128 0x3f
 10075 0419 19       		.uleb128 0x19
 10076 041a 3C       		.uleb128 0x3c
ARM GAS  C:\Users\haske\AppData\Local\Temp\ccVRp2Ta.s 			page 209


 10077 041b 19       		.uleb128 0x19
 10078 041c 00       		.byte	0
 10079 041d 00       		.byte	0
 10080 041e 4D       		.uleb128 0x4d
 10081 041f 34       		.uleb128 0x34
 10082 0420 00       		.byte	0
 10083 0421 03       		.uleb128 0x3
 10084 0422 0E       		.uleb128 0xe
 10085 0423 3A       		.uleb128 0x3a
 10086 0424 0B       		.uleb128 0xb
 10087 0425 3B       		.uleb128 0x3b
 10088 0426 0B       		.uleb128 0xb
 10089 0427 49       		.uleb128 0x49
 10090 0428 13       		.uleb128 0x13
 10091 0429 3F       		.uleb128 0x3f
 10092 042a 19       		.uleb128 0x19
 10093 042b 02       		.uleb128 0x2
 10094 042c 18       		.uleb128 0x18
 10095 042d 00       		.byte	0
 10096 042e 00       		.byte	0
 10097 042f 4E       		.uleb128 0x4e
 10098 0430 2E       		.uleb128 0x2e
 10099 0431 00       		.byte	0
 10100 0432 3F       		.uleb128 0x3f
 10101 0433 19       		.uleb128 0x19
 10102 0434 3C       		.uleb128 0x3c
 10103 0435 19       		.uleb128 0x19
 10104 0436 6E       		.uleb128 0x6e
 10105 0437 0E       		.uleb128 0xe
 10106 0438 03       		.uleb128 0x3
 10107 0439 0E       		.uleb128 0xe
 10108 043a 3A       		.uleb128 0x3a
 10109 043b 0B       		.uleb128 0xb
 10110 043c 3B       		.uleb128 0x3b
 10111 043d 0B       		.uleb128 0xb
 10112 043e 00       		.byte	0
 10113 043f 00       		.byte	0
 10114 0440 4F       		.uleb128 0x4f
 10115 0441 2E       		.uleb128 0x2e
 10116 0442 00       		.byte	0
 10117 0443 3F       		.uleb128 0x3f
 10118 0444 19       		.uleb128 0x19
 10119 0445 3C       		.uleb128 0x3c
 10120 0446 19       		.uleb128 0x19
 10121 0447 6E       		.uleb128 0x6e
 10122 0448 0E       		.uleb128 0xe
 10123 0449 03       		.uleb128 0x3
 10124 044a 0E       		.uleb128 0xe
 10125 044b 3A       		.uleb128 0x3a
 10126 044c 0B       		.uleb128 0xb
 10127 044d 3B       		.uleb128 0x3b
 10128 044e 05       		.uleb128 0x5
 10129 044f 00       		.byte	0
 10130 0450 00       		.byte	0
 10131 0451 00       		.byte	0
 10132              		.section	.debug_loc,"",%progbits
 10133              	.Ldebug_loc0:
ARM GAS  C:\Users\haske\AppData\Local\Temp\ccVRp2Ta.s 			page 210


 10134              	.LLST0:
 10135 0000 00000000 		.4byte	.LVL0
 10136 0004 08000000 		.4byte	.LVL1
 10137 0008 0100     		.2byte	0x1
 10138 000a 50       		.byte	0x50
 10139 000b 08000000 		.4byte	.LVL1
 10140 000f 10000000 		.4byte	.LFE1
 10141 0013 0400     		.2byte	0x4
 10142 0015 F3       		.byte	0xf3
 10143 0016 01       		.uleb128 0x1
 10144 0017 50       		.byte	0x50
 10145 0018 9F       		.byte	0x9f
 10146 0019 00000000 		.4byte	0
 10147 001d 00000000 		.4byte	0
 10148              	.LLST1:
 10149 0021 00000000 		.4byte	.LVL2
 10150 0025 08000000 		.4byte	.LVL3
 10151 0029 0100     		.2byte	0x1
 10152 002b 50       		.byte	0x50
 10153 002c 08000000 		.4byte	.LVL3
 10154 0030 10000000 		.4byte	.LFE2
 10155 0034 0400     		.2byte	0x4
 10156 0036 F3       		.byte	0xf3
 10157 0037 01       		.uleb128 0x1
 10158 0038 50       		.byte	0x50
 10159 0039 9F       		.byte	0x9f
 10160 003a 00000000 		.4byte	0
 10161 003e 00000000 		.4byte	0
 10162              	.LLST2:
 10163 0042 00000000 		.4byte	.LVL4
 10164 0046 10000000 		.4byte	.LVL5
 10165 004a 0100     		.2byte	0x1
 10166 004c 50       		.byte	0x50
 10167 004d 10000000 		.4byte	.LVL5
 10168 0051 16000000 		.4byte	.LVL6
 10169 0055 0100     		.2byte	0x1
 10170 0057 50       		.byte	0x50
 10171 0058 00000000 		.4byte	0
 10172 005c 00000000 		.4byte	0
 10173              	.LLST3:
 10174 0060 00000000 		.4byte	.LVL4
 10175 0064 26000000 		.4byte	.LVL9
 10176 0068 0100     		.2byte	0x1
 10177 006a 51       		.byte	0x51
 10178 006b 26000000 		.4byte	.LVL9
 10179 006f 34000000 		.4byte	.LVL10
 10180 0073 0400     		.2byte	0x4
 10181 0075 F3       		.byte	0xf3
 10182 0076 01       		.uleb128 0x1
 10183 0077 51       		.byte	0x51
 10184 0078 9F       		.byte	0x9f
 10185 0079 34000000 		.4byte	.LVL10
 10186 007d 40000000 		.4byte	.LVL13
 10187 0081 0100     		.2byte	0x1
 10188 0083 51       		.byte	0x51
 10189 0084 40000000 		.4byte	.LVL13
 10190 0088 46000000 		.4byte	.LVL14
ARM GAS  C:\Users\haske\AppData\Local\Temp\ccVRp2Ta.s 			page 211


 10191 008c 0400     		.2byte	0x4
 10192 008e F3       		.byte	0xf3
 10193 008f 01       		.uleb128 0x1
 10194 0090 51       		.byte	0x51
 10195 0091 9F       		.byte	0x9f
 10196 0092 46000000 		.4byte	.LVL14
 10197 0096 4E000000 		.4byte	.LVL16
 10198 009a 0100     		.2byte	0x1
 10199 009c 51       		.byte	0x51
 10200 009d 4E000000 		.4byte	.LVL16
 10201 00a1 58000000 		.4byte	.LVL18
 10202 00a5 0400     		.2byte	0x4
 10203 00a7 F3       		.byte	0xf3
 10204 00a8 01       		.uleb128 0x1
 10205 00a9 51       		.byte	0x51
 10206 00aa 9F       		.byte	0x9f
 10207 00ab 58000000 		.4byte	.LVL18
 10208 00af 5E000000 		.4byte	.LVL19
 10209 00b3 0100     		.2byte	0x1
 10210 00b5 51       		.byte	0x51
 10211 00b6 5E000000 		.4byte	.LVL19
 10212 00ba 80000000 		.4byte	.LVL21
 10213 00be 0400     		.2byte	0x4
 10214 00c0 F3       		.byte	0xf3
 10215 00c1 01       		.uleb128 0x1
 10216 00c2 51       		.byte	0x51
 10217 00c3 9F       		.byte	0x9f
 10218 00c4 80000000 		.4byte	.LVL21
 10219 00c8 88000000 		.4byte	.LVL23
 10220 00cc 0100     		.2byte	0x1
 10221 00ce 51       		.byte	0x51
 10222 00cf 88000000 		.4byte	.LVL23
 10223 00d3 9E000000 		.4byte	.LVL25
 10224 00d7 0400     		.2byte	0x4
 10225 00d9 F3       		.byte	0xf3
 10226 00da 01       		.uleb128 0x1
 10227 00db 51       		.byte	0x51
 10228 00dc 9F       		.byte	0x9f
 10229 00dd 9E000000 		.4byte	.LVL25
 10230 00e1 A4000000 		.4byte	.LVL28
 10231 00e5 0100     		.2byte	0x1
 10232 00e7 51       		.byte	0x51
 10233 00e8 A4000000 		.4byte	.LVL28
 10234 00ec AC000000 		.4byte	.LFE192
 10235 00f0 0400     		.2byte	0x4
 10236 00f2 F3       		.byte	0xf3
 10237 00f3 01       		.uleb128 0x1
 10238 00f4 51       		.byte	0x51
 10239 00f5 9F       		.byte	0x9f
 10240 00f6 00000000 		.4byte	0
 10241 00fa 00000000 		.4byte	0
 10242              	.LLST4:
 10243 00fe 00000000 		.4byte	.LVL4
 10244 0102 24000000 		.4byte	.LVL8
 10245 0106 0100     		.2byte	0x1
 10246 0108 52       		.byte	0x52
 10247 0109 24000000 		.4byte	.LVL8
ARM GAS  C:\Users\haske\AppData\Local\Temp\ccVRp2Ta.s 			page 212


 10248 010d 34000000 		.4byte	.LVL10
 10249 0111 0400     		.2byte	0x4
 10250 0113 F3       		.byte	0xf3
 10251 0114 01       		.uleb128 0x1
 10252 0115 52       		.byte	0x52
 10253 0116 9F       		.byte	0x9f
 10254 0117 34000000 		.4byte	.LVL10
 10255 011b 3C000000 		.4byte	.LVL12
 10256 011f 0100     		.2byte	0x1
 10257 0121 52       		.byte	0x52
 10258 0122 3C000000 		.4byte	.LVL12
 10259 0126 46000000 		.4byte	.LVL14
 10260 012a 0400     		.2byte	0x4
 10261 012c F3       		.byte	0xf3
 10262 012d 01       		.uleb128 0x1
 10263 012e 52       		.byte	0x52
 10264 012f 9F       		.byte	0x9f
 10265 0130 46000000 		.4byte	.LVL14
 10266 0134 51000000 		.4byte	.LVL17-1
 10267 0138 0100     		.2byte	0x1
 10268 013a 52       		.byte	0x52
 10269 013b 51000000 		.4byte	.LVL17-1
 10270 013f 58000000 		.4byte	.LVL18
 10271 0143 0400     		.2byte	0x4
 10272 0145 F3       		.byte	0xf3
 10273 0146 01       		.uleb128 0x1
 10274 0147 52       		.byte	0x52
 10275 0148 9F       		.byte	0x9f
 10276 0149 58000000 		.4byte	.LVL18
 10277 014d 61000000 		.4byte	.LVL20-1
 10278 0151 0100     		.2byte	0x1
 10279 0153 52       		.byte	0x52
 10280 0154 61000000 		.4byte	.LVL20-1
 10281 0158 80000000 		.4byte	.LVL21
 10282 015c 0400     		.2byte	0x4
 10283 015e F3       		.byte	0xf3
 10284 015f 01       		.uleb128 0x1
 10285 0160 52       		.byte	0x52
 10286 0161 9F       		.byte	0x9f
 10287 0162 80000000 		.4byte	.LVL21
 10288 0166 8B000000 		.4byte	.LVL24-1
 10289 016a 0100     		.2byte	0x1
 10290 016c 52       		.byte	0x52
 10291 016d 8B000000 		.4byte	.LVL24-1
 10292 0171 9E000000 		.4byte	.LVL25
 10293 0175 0400     		.2byte	0x4
 10294 0177 F3       		.byte	0xf3
 10295 0178 01       		.uleb128 0x1
 10296 0179 52       		.byte	0x52
 10297 017a 9F       		.byte	0x9f
 10298 017b 9E000000 		.4byte	.LVL25
 10299 017f A2000000 		.4byte	.LVL27
 10300 0183 0100     		.2byte	0x1
 10301 0185 52       		.byte	0x52
 10302 0186 A2000000 		.4byte	.LVL27
 10303 018a AC000000 		.4byte	.LFE192
 10304 018e 0400     		.2byte	0x4
ARM GAS  C:\Users\haske\AppData\Local\Temp\ccVRp2Ta.s 			page 213


 10305 0190 F3       		.byte	0xf3
 10306 0191 01       		.uleb128 0x1
 10307 0192 52       		.byte	0x52
 10308 0193 9F       		.byte	0x9f
 10309 0194 00000000 		.4byte	0
 10310 0198 00000000 		.4byte	0
 10311              	.LLST5:
 10312 019c 00000000 		.4byte	.LVL4
 10313 01a0 1E000000 		.4byte	.LVL7
 10314 01a4 0100     		.2byte	0x1
 10315 01a6 53       		.byte	0x53
 10316 01a7 1E000000 		.4byte	.LVL7
 10317 01ab 34000000 		.4byte	.LVL10
 10318 01af 0400     		.2byte	0x4
 10319 01b1 F3       		.byte	0xf3
 10320 01b2 01       		.uleb128 0x1
 10321 01b3 53       		.byte	0x53
 10322 01b4 9F       		.byte	0x9f
 10323 01b5 34000000 		.4byte	.LVL10
 10324 01b9 36000000 		.4byte	.LVL11
 10325 01bd 0100     		.2byte	0x1
 10326 01bf 53       		.byte	0x53
 10327 01c0 36000000 		.4byte	.LVL11
 10328 01c4 46000000 		.4byte	.LVL14
 10329 01c8 0400     		.2byte	0x4
 10330 01ca F3       		.byte	0xf3
 10331 01cb 01       		.uleb128 0x1
 10332 01cc 53       		.byte	0x53
 10333 01cd 9F       		.byte	0x9f
 10334 01ce 46000000 		.4byte	.LVL14
 10335 01d2 4C000000 		.4byte	.LVL15
 10336 01d6 0100     		.2byte	0x1
 10337 01d8 53       		.byte	0x53
 10338 01d9 4C000000 		.4byte	.LVL15
 10339 01dd 58000000 		.4byte	.LVL18
 10340 01e1 0400     		.2byte	0x4
 10341 01e3 F3       		.byte	0xf3
 10342 01e4 01       		.uleb128 0x1
 10343 01e5 53       		.byte	0x53
 10344 01e6 9F       		.byte	0x9f
 10345 01e7 58000000 		.4byte	.LVL18
 10346 01eb 61000000 		.4byte	.LVL20-1
 10347 01ef 0100     		.2byte	0x1
 10348 01f1 53       		.byte	0x53
 10349 01f2 61000000 		.4byte	.LVL20-1
 10350 01f6 80000000 		.4byte	.LVL21
 10351 01fa 0400     		.2byte	0x4
 10352 01fc F3       		.byte	0xf3
 10353 01fd 01       		.uleb128 0x1
 10354 01fe 53       		.byte	0x53
 10355 01ff 9F       		.byte	0x9f
 10356 0200 80000000 		.4byte	.LVL21
 10357 0204 86000000 		.4byte	.LVL22
 10358 0208 0100     		.2byte	0x1
 10359 020a 53       		.byte	0x53
 10360 020b 86000000 		.4byte	.LVL22
 10361 020f 9E000000 		.4byte	.LVL25
ARM GAS  C:\Users\haske\AppData\Local\Temp\ccVRp2Ta.s 			page 214


 10362 0213 0400     		.2byte	0x4
 10363 0215 F3       		.byte	0xf3
 10364 0216 01       		.uleb128 0x1
 10365 0217 53       		.byte	0x53
 10366 0218 9F       		.byte	0x9f
 10367 0219 9E000000 		.4byte	.LVL25
 10368 021d A0000000 		.4byte	.LVL26
 10369 0221 0100     		.2byte	0x1
 10370 0223 53       		.byte	0x53
 10371 0224 A0000000 		.4byte	.LVL26
 10372 0228 AC000000 		.4byte	.LFE192
 10373 022c 0400     		.2byte	0x4
 10374 022e F3       		.byte	0xf3
 10375 022f 01       		.uleb128 0x1
 10376 0230 53       		.byte	0x53
 10377 0231 9F       		.byte	0x9f
 10378 0232 00000000 		.4byte	0
 10379 0236 00000000 		.4byte	0
 10380              	.LLST6:
 10381 023a 00000000 		.4byte	.LVL29
 10382 023e 16000000 		.4byte	.LVL31
 10383 0242 0100     		.2byte	0x1
 10384 0244 50       		.byte	0x50
 10385 0245 16000000 		.4byte	.LVL31
 10386 0249 18000000 		.4byte	.LVL32
 10387 024d 0400     		.2byte	0x4
 10388 024f F3       		.byte	0xf3
 10389 0250 01       		.uleb128 0x1
 10390 0251 50       		.byte	0x50
 10391 0252 9F       		.byte	0x9f
 10392 0253 18000000 		.4byte	.LVL32
 10393 0257 2C000000 		.4byte	.LVL35
 10394 025b 0100     		.2byte	0x1
 10395 025d 50       		.byte	0x50
 10396 025e 2C000000 		.4byte	.LVL35
 10397 0262 2E000000 		.4byte	.LVL36
 10398 0266 0400     		.2byte	0x4
 10399 0268 F3       		.byte	0xf3
 10400 0269 01       		.uleb128 0x1
 10401 026a 50       		.byte	0x50
 10402 026b 9F       		.byte	0x9f
 10403 026c 2E000000 		.4byte	.LVL36
 10404 0270 30000000 		.4byte	.LVL37
 10405 0274 0100     		.2byte	0x1
 10406 0276 50       		.byte	0x50
 10407 0277 30000000 		.4byte	.LVL37
 10408 027b 32000000 		.4byte	.LVL38
 10409 027f 0400     		.2byte	0x4
 10410 0281 F3       		.byte	0xf3
 10411 0282 01       		.uleb128 0x1
 10412 0283 50       		.byte	0x50
 10413 0284 9F       		.byte	0x9f
 10414 0285 32000000 		.4byte	.LVL38
 10415 0289 34000000 		.4byte	.LVL39
 10416 028d 0100     		.2byte	0x1
 10417 028f 50       		.byte	0x50
 10418 0290 34000000 		.4byte	.LVL39
ARM GAS  C:\Users\haske\AppData\Local\Temp\ccVRp2Ta.s 			page 215


 10419 0294 36000000 		.4byte	.LFE193
 10420 0298 0400     		.2byte	0x4
 10421 029a F3       		.byte	0xf3
 10422 029b 01       		.uleb128 0x1
 10423 029c 50       		.byte	0x50
 10424 029d 9F       		.byte	0x9f
 10425 029e 00000000 		.4byte	0
 10426 02a2 00000000 		.4byte	0
 10427              	.LLST7:
 10428 02a6 00000000 		.4byte	.LVL29
 10429 02aa 22000000 		.4byte	.LVL34
 10430 02ae 0100     		.2byte	0x1
 10431 02b0 51       		.byte	0x51
 10432 02b1 22000000 		.4byte	.LVL34
 10433 02b5 2E000000 		.4byte	.LVL36
 10434 02b9 0400     		.2byte	0x4
 10435 02bb F3       		.byte	0xf3
 10436 02bc 01       		.uleb128 0x1
 10437 02bd 51       		.byte	0x51
 10438 02be 9F       		.byte	0x9f
 10439 02bf 2E000000 		.4byte	.LVL36
 10440 02c3 32000000 		.4byte	.LVL38
 10441 02c7 0100     		.2byte	0x1
 10442 02c9 51       		.byte	0x51
 10443 02ca 32000000 		.4byte	.LVL38
 10444 02ce 36000000 		.4byte	.LFE193
 10445 02d2 0400     		.2byte	0x4
 10446 02d4 F3       		.byte	0xf3
 10447 02d5 01       		.uleb128 0x1
 10448 02d6 51       		.byte	0x51
 10449 02d7 9F       		.byte	0x9f
 10450 02d8 00000000 		.4byte	0
 10451 02dc 00000000 		.4byte	0
 10452              	.LLST8:
 10453 02e0 00000000 		.4byte	.LVL29
 10454 02e4 10000000 		.4byte	.LVL30
 10455 02e8 0100     		.2byte	0x1
 10456 02ea 52       		.byte	0x52
 10457 02eb 10000000 		.4byte	.LVL30
 10458 02ef 18000000 		.4byte	.LVL32
 10459 02f3 0400     		.2byte	0x4
 10460 02f5 F3       		.byte	0xf3
 10461 02f6 01       		.uleb128 0x1
 10462 02f7 52       		.byte	0x52
 10463 02f8 9F       		.byte	0x9f
 10464 02f9 18000000 		.4byte	.LVL32
 10465 02fd 20000000 		.4byte	.LVL33
 10466 0301 0100     		.2byte	0x1
 10467 0303 52       		.byte	0x52
 10468 0304 20000000 		.4byte	.LVL33
 10469 0308 2E000000 		.4byte	.LVL36
 10470 030c 0400     		.2byte	0x4
 10471 030e F3       		.byte	0xf3
 10472 030f 01       		.uleb128 0x1
 10473 0310 52       		.byte	0x52
 10474 0311 9F       		.byte	0x9f
 10475 0312 2E000000 		.4byte	.LVL36
ARM GAS  C:\Users\haske\AppData\Local\Temp\ccVRp2Ta.s 			page 216


 10476 0316 32000000 		.4byte	.LVL38
 10477 031a 0100     		.2byte	0x1
 10478 031c 52       		.byte	0x52
 10479 031d 32000000 		.4byte	.LVL38
 10480 0321 36000000 		.4byte	.LFE193
 10481 0325 0400     		.2byte	0x4
 10482 0327 F3       		.byte	0xf3
 10483 0328 01       		.uleb128 0x1
 10484 0329 52       		.byte	0x52
 10485 032a 9F       		.byte	0x9f
 10486 032b 00000000 		.4byte	0
 10487 032f 00000000 		.4byte	0
 10488              	.LLST9:
 10489 0333 00000000 		.4byte	.LVL40
 10490 0337 27000000 		.4byte	.LVL45-1
 10491 033b 0100     		.2byte	0x1
 10492 033d 50       		.byte	0x50
 10493 033e 27000000 		.4byte	.LVL45-1
 10494 0342 74020000 		.4byte	.LVL94
 10495 0346 0200     		.2byte	0x2
 10496 0348 7D       		.byte	0x7d
 10497 0349 00       		.sleb128 0
 10498 034a 74020000 		.4byte	.LVL94
 10499 034e 94020000 		.4byte	.LFE190
 10500 0352 0200     		.2byte	0x2
 10501 0354 91       		.byte	0x91
 10502 0355 40       		.sleb128 -64
 10503 0356 00000000 		.4byte	0
 10504 035a 00000000 		.4byte	0
 10505              	.LLST10:
 10506 035e 00000000 		.4byte	.LVL40
 10507 0362 22000000 		.4byte	.LVL44
 10508 0366 0100     		.2byte	0x1
 10509 0368 51       		.byte	0x51
 10510 0369 22000000 		.4byte	.LVL44
 10511 036d 9A000000 		.4byte	.LVL54
 10512 0371 0100     		.2byte	0x1
 10513 0373 56       		.byte	0x56
 10514 0374 9A000000 		.4byte	.LVL54
 10515 0378 1A020000 		.4byte	.LVL87
 10516 037c 0100     		.2byte	0x1
 10517 037e 57       		.byte	0x57
 10518 037f 1A020000 		.4byte	.LVL87
 10519 0383 72020000 		.4byte	.LVL93
 10520 0387 0100     		.2byte	0x1
 10521 0389 56       		.byte	0x56
 10522 038a 72020000 		.4byte	.LVL93
 10523 038e 94020000 		.4byte	.LFE190
 10524 0392 0400     		.2byte	0x4
 10525 0394 F3       		.byte	0xf3
 10526 0395 01       		.uleb128 0x1
 10527 0396 51       		.byte	0x51
 10528 0397 9F       		.byte	0x9f
 10529 0398 00000000 		.4byte	0
 10530 039c 00000000 		.4byte	0
 10531              	.LLST11:
 10532 03a0 00000000 		.4byte	.LVL40
ARM GAS  C:\Users\haske\AppData\Local\Temp\ccVRp2Ta.s 			page 217


 10533 03a4 1A000000 		.4byte	.LVL42
 10534 03a8 0100     		.2byte	0x1
 10535 03aa 52       		.byte	0x52
 10536 03ab 1A000000 		.4byte	.LVL42
 10537 03af 98000000 		.4byte	.LVL53
 10538 03b3 0100     		.2byte	0x1
 10539 03b5 57       		.byte	0x57
 10540 03b6 98000000 		.4byte	.LVL53
 10541 03ba 22020000 		.4byte	.LVL88
 10542 03be 0100     		.2byte	0x1
 10543 03c0 59       		.byte	0x59
 10544 03c1 22020000 		.4byte	.LVL88
 10545 03c5 72020000 		.4byte	.LVL93
 10546 03c9 0100     		.2byte	0x1
 10547 03cb 57       		.byte	0x57
 10548 03cc 72020000 		.4byte	.LVL93
 10549 03d0 74020000 		.4byte	.LVL96
 10550 03d4 0100     		.2byte	0x1
 10551 03d6 59       		.byte	0x59
 10552 03d7 74020000 		.4byte	.LVL96
 10553 03db 94020000 		.4byte	.LFE190
 10554 03df 0400     		.2byte	0x4
 10555 03e1 F3       		.byte	0xf3
 10556 03e2 01       		.uleb128 0x1
 10557 03e3 52       		.byte	0x52
 10558 03e4 9F       		.byte	0x9f
 10559 03e5 00000000 		.4byte	0
 10560 03e9 00000000 		.4byte	0
 10561              	.LLST12:
 10562 03ed 00000000 		.4byte	.LVL40
 10563 03f1 16000000 		.4byte	.LVL41
 10564 03f5 0100     		.2byte	0x1
 10565 03f7 53       		.byte	0x53
 10566 03f8 16000000 		.4byte	.LVL41
 10567 03fc 94020000 		.4byte	.LFE190
 10568 0400 0400     		.2byte	0x4
 10569 0402 F3       		.byte	0xf3
 10570 0403 01       		.uleb128 0x1
 10571 0404 53       		.byte	0x53
 10572 0405 9F       		.byte	0x9f
 10573 0406 00000000 		.4byte	0
 10574 040a 00000000 		.4byte	0
 10575              	.LLST13:
 10576 040e 00000000 		.4byte	.LVL40
 10577 0412 16000000 		.4byte	.LVL41
 10578 0416 0200     		.2byte	0x2
 10579 0418 91       		.byte	0x91
 10580 0419 00       		.sleb128 0
 10581 041a 16000000 		.4byte	.LVL41
 10582 041e 1A000000 		.4byte	.LVL42
 10583 0422 0200     		.2byte	0x2
 10584 0424 73       		.byte	0x73
 10585 0425 00       		.sleb128 0
 10586 0426 1A000000 		.4byte	.LVL42
 10587 042a 94020000 		.4byte	.LFE190
 10588 042e 0200     		.2byte	0x2
 10589 0430 91       		.byte	0x91
ARM GAS  C:\Users\haske\AppData\Local\Temp\ccVRp2Ta.s 			page 218


 10590 0431 00       		.sleb128 0
 10591 0432 00000000 		.4byte	0
 10592 0436 00000000 		.4byte	0
 10593              	.LLST14:
 10594 043a 00000000 		.4byte	.LVL40
 10595 043e 16000000 		.4byte	.LVL41
 10596 0442 0200     		.2byte	0x2
 10597 0444 91       		.byte	0x91
 10598 0445 04       		.sleb128 4
 10599 0446 16000000 		.4byte	.LVL41
 10600 044a 1A000000 		.4byte	.LVL42
 10601 044e 0200     		.2byte	0x2
 10602 0450 73       		.byte	0x73
 10603 0451 04       		.sleb128 4
 10604 0452 1A000000 		.4byte	.LVL42
 10605 0456 94020000 		.4byte	.LFE190
 10606 045a 0200     		.2byte	0x2
 10607 045c 91       		.byte	0x91
 10608 045d 04       		.sleb128 4
 10609 045e 00000000 		.4byte	0
 10610 0462 00000000 		.4byte	0
 10611              	.LLST15:
 10612 0466 94000000 		.4byte	.LVL52
 10613 046a A6000000 		.4byte	.LVL55
 10614 046e 0100     		.2byte	0x1
 10615 0470 50       		.byte	0x50
 10616 0471 A6000000 		.4byte	.LVL55
 10617 0475 10020000 		.4byte	.LVL85
 10618 0479 0100     		.2byte	0x1
 10619 047b 54       		.byte	0x54
 10620 047c 10020000 		.4byte	.LVL85
 10621 0480 16020000 		.4byte	.LVL86
 10622 0484 0100     		.2byte	0x1
 10623 0486 50       		.byte	0x50
 10624 0487 16020000 		.4byte	.LVL86
 10625 048b 74020000 		.4byte	.LVL95
 10626 048f 0100     		.2byte	0x1
 10627 0491 54       		.byte	0x54
 10628 0492 00000000 		.4byte	0
 10629 0496 00000000 		.4byte	0
 10630              	.LLST16:
 10631 049a 1E000000 		.4byte	.LVL43
 10632 049e 2A000000 		.4byte	.LVL46
 10633 04a2 0200     		.2byte	0x2
 10634 04a4 30       		.byte	0x30
 10635 04a5 9F       		.byte	0x9f
 10636 04a6 00000000 		.4byte	0
 10637 04aa 00000000 		.4byte	0
 10638              	.LLST17:
 10639 04ae 1E000000 		.4byte	.LVL43
 10640 04b2 27000000 		.4byte	.LVL45-1
 10641 04b6 0100     		.2byte	0x1
 10642 04b8 50       		.byte	0x50
 10643 04b9 27000000 		.4byte	.LVL45-1
 10644 04bd 2A000000 		.4byte	.LVL46
 10645 04c1 0200     		.2byte	0x2
 10646 04c3 7D       		.byte	0x7d
ARM GAS  C:\Users\haske\AppData\Local\Temp\ccVRp2Ta.s 			page 219


 10647 04c4 00       		.sleb128 0
 10648 04c5 00000000 		.4byte	0
 10649 04c9 00000000 		.4byte	0
 10650              	.LLST18:
 10651 04cd 2A000000 		.4byte	.LVL46
 10652 04d1 36000000 		.4byte	.LVL48
 10653 04d5 0200     		.2byte	0x2
 10654 04d7 30       		.byte	0x30
 10655 04d8 9F       		.byte	0x9f
 10656 04d9 00000000 		.4byte	0
 10657 04dd 00000000 		.4byte	0
 10658              	.LLST19:
 10659 04e1 2A000000 		.4byte	.LVL46
 10660 04e5 36000000 		.4byte	.LVL48
 10661 04e9 0200     		.2byte	0x2
 10662 04eb 7D       		.byte	0x7d
 10663 04ec 00       		.sleb128 0
 10664 04ed 00000000 		.4byte	0
 10665 04f1 00000000 		.4byte	0
 10666              	.LLST20:
 10667 04f5 BE000000 		.4byte	.LVL58
 10668 04f9 CC000000 		.4byte	.LVL60
 10669 04fd 0200     		.2byte	0x2
 10670 04ff 30       		.byte	0x30
 10671 0500 9F       		.byte	0x9f
 10672 0501 00000000 		.4byte	0
 10673 0505 00000000 		.4byte	0
 10674              	.LLST21:
 10675 0509 BE000000 		.4byte	.LVL58
 10676 050d CC000000 		.4byte	.LVL60
 10677 0511 0100     		.2byte	0x1
 10678 0513 54       		.byte	0x54
 10679 0514 00000000 		.4byte	0
 10680 0518 00000000 		.4byte	0
 10681              	.LLST22:
 10682 051c EE000000 		.4byte	.LVL62
 10683 0520 FA000000 		.4byte	.LVL63
 10684 0524 0100     		.2byte	0x1
 10685 0526 50       		.byte	0x50
 10686 0527 FA000000 		.4byte	.LVL63
 10687 052b FC000000 		.4byte	.LVL64
 10688 052f 0100     		.2byte	0x1
 10689 0531 5A       		.byte	0x5a
 10690 0532 FC000000 		.4byte	.LVL64
 10691 0536 0F010000 		.4byte	.LVL65-1
 10692 053a 0100     		.2byte	0x1
 10693 053c 50       		.byte	0x50
 10694 053d 0F010000 		.4byte	.LVL65-1
 10695 0541 B0010000 		.4byte	.LVL79
 10696 0545 0100     		.2byte	0x1
 10697 0547 5A       		.byte	0x5a
 10698 0548 00000000 		.4byte	0
 10699 054c 00000000 		.4byte	0
 10700              	.LLST23:
 10701 0550 38010000 		.4byte	.LVL67
 10702 0554 44010000 		.4byte	.LVL69
 10703 0558 0200     		.2byte	0x2
ARM GAS  C:\Users\haske\AppData\Local\Temp\ccVRp2Ta.s 			page 220


 10704 055a 30       		.byte	0x30
 10705 055b 9F       		.byte	0x9f
 10706 055c 00000000 		.4byte	0
 10707 0560 00000000 		.4byte	0
 10708              	.LLST24:
 10709 0564 38010000 		.4byte	.LVL67
 10710 0568 44010000 		.4byte	.LVL69
 10711 056c 0100     		.2byte	0x1
 10712 056e 54       		.byte	0x54
 10713 056f 00000000 		.4byte	0
 10714 0573 00000000 		.4byte	0
 10715              	.LLST25:
 10716 0577 46010000 		.4byte	.LVL70
 10717 057b 52010000 		.4byte	.LVL72
 10718 057f 0200     		.2byte	0x2
 10719 0581 30       		.byte	0x30
 10720 0582 9F       		.byte	0x9f
 10721 0583 00000000 		.4byte	0
 10722 0587 00000000 		.4byte	0
 10723              	.LLST26:
 10724 058b 46010000 		.4byte	.LVL70
 10725 058f 52010000 		.4byte	.LVL72
 10726 0593 0100     		.2byte	0x1
 10727 0595 54       		.byte	0x54
 10728 0596 00000000 		.4byte	0
 10729 059a 00000000 		.4byte	0
 10730              	.LLST27:
 10731 059e 6A010000 		.4byte	.LVL73
 10732 05a2 76010000 		.4byte	.LVL75
 10733 05a6 0200     		.2byte	0x2
 10734 05a8 30       		.byte	0x30
 10735 05a9 9F       		.byte	0x9f
 10736 05aa 00000000 		.4byte	0
 10737 05ae 00000000 		.4byte	0
 10738              	.LLST28:
 10739 05b2 6A010000 		.4byte	.LVL73
 10740 05b6 76010000 		.4byte	.LVL75
 10741 05ba 0100     		.2byte	0x1
 10742 05bc 54       		.byte	0x54
 10743 05bd 00000000 		.4byte	0
 10744 05c1 00000000 		.4byte	0
 10745              	.LLST29:
 10746 05c5 78010000 		.4byte	.LVL76
 10747 05c9 84010000 		.4byte	.LVL78
 10748 05cd 0200     		.2byte	0x2
 10749 05cf 30       		.byte	0x30
 10750 05d0 9F       		.byte	0x9f
 10751 05d1 00000000 		.4byte	0
 10752 05d5 00000000 		.4byte	0
 10753              	.LLST30:
 10754 05d9 78010000 		.4byte	.LVL76
 10755 05dd 84010000 		.4byte	.LVL78
 10756 05e1 0100     		.2byte	0x1
 10757 05e3 54       		.byte	0x54
 10758 05e4 00000000 		.4byte	0
 10759 05e8 00000000 		.4byte	0
 10760              	.LLST31:
ARM GAS  C:\Users\haske\AppData\Local\Temp\ccVRp2Ta.s 			page 221


 10761 05ec B6010000 		.4byte	.LVL80
 10762 05f0 CA010000 		.4byte	.LVL81
 10763 05f4 0100     		.2byte	0x1
 10764 05f6 50       		.byte	0x50
 10765 05f7 00000000 		.4byte	0
 10766 05fb 00000000 		.4byte	0
 10767              	.LLST32:
 10768 05ff 00000000 		.4byte	.LVL97
 10769 0603 6C000000 		.4byte	.LVL109
 10770 0607 0100     		.2byte	0x1
 10771 0609 50       		.byte	0x50
 10772 060a 6C000000 		.4byte	.LVL109
 10773 060e A8010000 		.4byte	.LVL138
 10774 0612 0300     		.2byte	0x3
 10775 0614 91       		.byte	0x91
 10776 0615 987F     		.sleb128 -104
 10777 0617 A8010000 		.4byte	.LVL138
 10778 061b B8040000 		.4byte	.LFE191
 10779 061f 0400     		.2byte	0x4
 10780 0621 F3       		.byte	0xf3
 10781 0622 01       		.uleb128 0x1
 10782 0623 50       		.byte	0x50
 10783 0624 9F       		.byte	0x9f
 10784 0625 00000000 		.4byte	0
 10785 0629 00000000 		.4byte	0
 10786              	.LLST33:
 10787 062d 00000000 		.4byte	.LVL97
 10788 0631 6C000000 		.4byte	.LVL109
 10789 0635 0100     		.2byte	0x1
 10790 0637 51       		.byte	0x51
 10791 0638 6C000000 		.4byte	.LVL109
 10792 063c A8010000 		.4byte	.LVL138
 10793 0640 0100     		.2byte	0x1
 10794 0642 5B       		.byte	0x5b
 10795 0643 A8010000 		.4byte	.LVL138
 10796 0647 A8040000 		.4byte	.LVL205
 10797 064b 0100     		.2byte	0x1
 10798 064d 56       		.byte	0x56
 10799 064e A8040000 		.4byte	.LVL205
 10800 0652 B8040000 		.4byte	.LFE191
 10801 0656 0400     		.2byte	0x4
 10802 0658 F3       		.byte	0xf3
 10803 0659 01       		.uleb128 0x1
 10804 065a 51       		.byte	0x51
 10805 065b 9F       		.byte	0x9f
 10806 065c 00000000 		.4byte	0
 10807 0660 00000000 		.4byte	0
 10808              	.LLST34:
 10809 0664 00000000 		.4byte	.LVL97
 10810 0668 1C000000 		.4byte	.LVL99
 10811 066c 0100     		.2byte	0x1
 10812 066e 52       		.byte	0x52
 10813 066f 1C000000 		.4byte	.LVL99
 10814 0673 BC010000 		.4byte	.LVL141
 10815 0677 0200     		.2byte	0x2
 10816 0679 91       		.byte	0x91
 10817 067a 44       		.sleb128 -60
ARM GAS  C:\Users\haske\AppData\Local\Temp\ccVRp2Ta.s 			page 222


 10818 067b BC010000 		.4byte	.LVL141
 10819 067f C1010000 		.4byte	.LVL142-1
 10820 0683 0200     		.2byte	0x2
 10821 0685 72       		.byte	0x72
 10822 0686 00       		.sleb128 0
 10823 0687 C1010000 		.4byte	.LVL142-1
 10824 068b 90040000 		.4byte	.LVL202
 10825 068f 0200     		.2byte	0x2
 10826 0691 91       		.byte	0x91
 10827 0692 44       		.sleb128 -60
 10828 0693 90040000 		.4byte	.LVL202
 10829 0697 95040000 		.4byte	.LVL203-1
 10830 069b 0200     		.2byte	0x2
 10831 069d 72       		.byte	0x72
 10832 069e 00       		.sleb128 0
 10833 069f 95040000 		.4byte	.LVL203-1
 10834 06a3 B8040000 		.4byte	.LFE191
 10835 06a7 0200     		.2byte	0x2
 10836 06a9 91       		.byte	0x91
 10837 06aa 44       		.sleb128 -60
 10838 06ab 00000000 		.4byte	0
 10839 06af 00000000 		.4byte	0
 10840              	.LLST35:
 10841 06b3 00000000 		.4byte	.LVL97
 10842 06b7 18000000 		.4byte	.LVL98
 10843 06bb 0100     		.2byte	0x1
 10844 06bd 53       		.byte	0x53
 10845 06be 18000000 		.4byte	.LVL98
 10846 06c2 1C000000 		.4byte	.LVL99
 10847 06c6 0300     		.2byte	0x3
 10848 06c8 73       		.byte	0x73
 10849 06c9 B47F     		.sleb128 -76
 10850 06cb 1C000000 		.4byte	.LVL99
 10851 06cf A8010000 		.4byte	.LVL138
 10852 06d3 0300     		.2byte	0x3
 10853 06d5 91       		.byte	0x91
 10854 06d6 B47F     		.sleb128 -76
 10855 06d8 A8010000 		.4byte	.LVL138
 10856 06dc B8040000 		.4byte	.LFE191
 10857 06e0 0400     		.2byte	0x4
 10858 06e2 F3       		.byte	0xf3
 10859 06e3 01       		.uleb128 0x1
 10860 06e4 53       		.byte	0x53
 10861 06e5 9F       		.byte	0x9f
 10862 06e6 00000000 		.4byte	0
 10863 06ea 00000000 		.4byte	0
 10864              	.LLST36:
 10865 06ee 00000000 		.4byte	.LVL97
 10866 06f2 18000000 		.4byte	.LVL98
 10867 06f6 0200     		.2byte	0x2
 10868 06f8 91       		.byte	0x91
 10869 06f9 00       		.sleb128 0
 10870 06fa 18000000 		.4byte	.LVL98
 10871 06fe 1C000000 		.4byte	.LVL99
 10872 0702 0200     		.2byte	0x2
 10873 0704 73       		.byte	0x73
 10874 0705 00       		.sleb128 0
ARM GAS  C:\Users\haske\AppData\Local\Temp\ccVRp2Ta.s 			page 223


 10875 0706 1C000000 		.4byte	.LVL99
 10876 070a B8040000 		.4byte	.LFE191
 10877 070e 0200     		.2byte	0x2
 10878 0710 91       		.byte	0x91
 10879 0711 00       		.sleb128 0
 10880 0712 00000000 		.4byte	0
 10881 0716 00000000 		.4byte	0
 10882              	.LLST37:
 10883 071a 00000000 		.4byte	.LVL97
 10884 071e 18000000 		.4byte	.LVL98
 10885 0722 0200     		.2byte	0x2
 10886 0724 91       		.byte	0x91
 10887 0725 04       		.sleb128 4
 10888 0726 18000000 		.4byte	.LVL98
 10889 072a 1C000000 		.4byte	.LVL99
 10890 072e 0200     		.2byte	0x2
 10891 0730 73       		.byte	0x73
 10892 0731 04       		.sleb128 4
 10893 0732 1C000000 		.4byte	.LVL99
 10894 0736 20000000 		.4byte	.LVL100
 10895 073a 0200     		.2byte	0x2
 10896 073c 91       		.byte	0x91
 10897 073d 04       		.sleb128 4
 10898 073e 20000000 		.4byte	.LVL100
 10899 0742 24000000 		.4byte	.LVL101
 10900 0746 0200     		.2byte	0x2
 10901 0748 73       		.byte	0x73
 10902 0749 00       		.sleb128 0
 10903 074a 24000000 		.4byte	.LVL101
 10904 074e B8040000 		.4byte	.LFE191
 10905 0752 0200     		.2byte	0x2
 10906 0754 91       		.byte	0x91
 10907 0755 04       		.sleb128 4
 10908 0756 00000000 		.4byte	0
 10909 075a 00000000 		.4byte	0
 10910              	.LLST38:
 10911 075e 00000000 		.4byte	.LVL97
 10912 0762 18000000 		.4byte	.LVL98
 10913 0766 0200     		.2byte	0x2
 10914 0768 91       		.byte	0x91
 10915 0769 08       		.sleb128 8
 10916 076a 18000000 		.4byte	.LVL98
 10917 076e 1C000000 		.4byte	.LVL99
 10918 0772 0200     		.2byte	0x2
 10919 0774 73       		.byte	0x73
 10920 0775 08       		.sleb128 8
 10921 0776 1C000000 		.4byte	.LVL99
 10922 077a 28000000 		.4byte	.LVL102
 10923 077e 0200     		.2byte	0x2
 10924 0780 91       		.byte	0x91
 10925 0781 08       		.sleb128 8
 10926 0782 28000000 		.4byte	.LVL102
 10927 0786 2C000000 		.4byte	.LVL103
 10928 078a 0200     		.2byte	0x2
 10929 078c 73       		.byte	0x73
 10930 078d 00       		.sleb128 0
 10931 078e 2C000000 		.4byte	.LVL103
ARM GAS  C:\Users\haske\AppData\Local\Temp\ccVRp2Ta.s 			page 224


 10932 0792 B8040000 		.4byte	.LFE191
 10933 0796 0200     		.2byte	0x2
 10934 0798 91       		.byte	0x91
 10935 0799 08       		.sleb128 8
 10936 079a 00000000 		.4byte	0
 10937 079e 00000000 		.4byte	0
 10938              	.LLST39:
 10939 07a2 00000000 		.4byte	.LVL97
 10940 07a6 18000000 		.4byte	.LVL98
 10941 07aa 0200     		.2byte	0x2
 10942 07ac 91       		.byte	0x91
 10943 07ad 0C       		.sleb128 12
 10944 07ae 18000000 		.4byte	.LVL98
 10945 07b2 1C000000 		.4byte	.LVL99
 10946 07b6 0200     		.2byte	0x2
 10947 07b8 73       		.byte	0x73
 10948 07b9 0C       		.sleb128 12
 10949 07ba 1C000000 		.4byte	.LVL99
 10950 07be 30000000 		.4byte	.LVL104
 10951 07c2 0200     		.2byte	0x2
 10952 07c4 91       		.byte	0x91
 10953 07c5 0C       		.sleb128 12
 10954 07c6 30000000 		.4byte	.LVL104
 10955 07ca 34000000 		.4byte	.LVL105
 10956 07ce 0200     		.2byte	0x2
 10957 07d0 73       		.byte	0x73
 10958 07d1 00       		.sleb128 0
 10959 07d2 34000000 		.4byte	.LVL105
 10960 07d6 B8040000 		.4byte	.LFE191
 10961 07da 0200     		.2byte	0x2
 10962 07dc 91       		.byte	0x91
 10963 07dd 0C       		.sleb128 12
 10964 07de 00000000 		.4byte	0
 10965 07e2 00000000 		.4byte	0
 10966              	.LLST40:
 10967 07e6 00000000 		.4byte	.LVL97
 10968 07ea 18000000 		.4byte	.LVL98
 10969 07ee 0200     		.2byte	0x2
 10970 07f0 91       		.byte	0x91
 10971 07f1 10       		.sleb128 16
 10972 07f2 18000000 		.4byte	.LVL98
 10973 07f6 1C000000 		.4byte	.LVL99
 10974 07fa 0200     		.2byte	0x2
 10975 07fc 73       		.byte	0x73
 10976 07fd 10       		.sleb128 16
 10977 07fe 1C000000 		.4byte	.LVL99
 10978 0802 B8040000 		.4byte	.LFE191
 10979 0806 0200     		.2byte	0x2
 10980 0808 91       		.byte	0x91
 10981 0809 10       		.sleb128 16
 10982 080a 00000000 		.4byte	0
 10983 080e 00000000 		.4byte	0
 10984              	.LLST41:
 10985 0812 4A000000 		.4byte	.LVL106
 10986 0816 A8010000 		.4byte	.LVL138
 10987 081a 0300     		.2byte	0x3
 10988 081c 91       		.byte	0x91
ARM GAS  C:\Users\haske\AppData\Local\Temp\ccVRp2Ta.s 			page 225


 10989 081d AC7F     		.sleb128 -84
 10990 081f 00000000 		.4byte	0
 10991 0823 00000000 		.4byte	0
 10992              	.LLST42:
 10993 0827 58000000 		.4byte	.LVL107
 10994 082b A8010000 		.4byte	.LVL138
 10995 082f 0300     		.2byte	0x3
 10996 0831 91       		.byte	0x91
 10997 0832 9C7F     		.sleb128 -100
 10998 0834 00000000 		.4byte	0
 10999 0838 00000000 		.4byte	0
 11000              	.LLST43:
 11001 083c 66000000 		.4byte	.LVL108
 11002 0840 A8010000 		.4byte	.LVL138
 11003 0844 0300     		.2byte	0x3
 11004 0846 91       		.byte	0x91
 11005 0847 A47F     		.sleb128 -92
 11006 0849 00000000 		.4byte	0
 11007 084d 00000000 		.4byte	0
 11008              	.LLST44:
 11009 0851 7A000000 		.4byte	.LVL110
 11010 0855 84000000 		.4byte	.LVL111
 11011 0859 0200     		.2byte	0x2
 11012 085b 30       		.byte	0x30
 11013 085c 9F       		.byte	0x9f
 11014 085d 84000000 		.4byte	.LVL111
 11015 0861 BA000000 		.4byte	.LVL115
 11016 0865 0100     		.2byte	0x1
 11017 0867 52       		.byte	0x52
 11018 0868 BA000000 		.4byte	.LVL115
 11019 086c 3C010000 		.4byte	.LVL130
 11020 0870 0100     		.2byte	0x1
 11021 0872 56       		.byte	0x56
 11022 0873 DA010000 		.4byte	.LVL147
 11023 0877 F8010000 		.4byte	.LVL151
 11024 087b 0100     		.2byte	0x1
 11025 087d 52       		.byte	0x52
 11026 087e FC010000 		.4byte	.LVL152
 11027 0882 0E020000 		.4byte	.LVL154
 11028 0886 0100     		.2byte	0x1
 11029 0888 52       		.byte	0x52
 11030 0889 20020000 		.4byte	.LVL155
 11031 088d 22020000 		.4byte	.LVL156
 11032 0891 0100     		.2byte	0x1
 11033 0893 52       		.byte	0x52
 11034 0894 00000000 		.4byte	0
 11035 0898 00000000 		.4byte	0
 11036              	.LLST45:
 11037 089c 66000000 		.4byte	.LVL108
 11038 08a0 6C000000 		.4byte	.LVL109
 11039 08a4 0200     		.2byte	0x2
 11040 08a6 31       		.byte	0x31
 11041 08a7 9F       		.byte	0x9f
 11042 08a8 6C000000 		.4byte	.LVL109
 11043 08ac BA000000 		.4byte	.LVL115
 11044 08b0 0200     		.2byte	0x2
 11045 08b2 30       		.byte	0x30
ARM GAS  C:\Users\haske\AppData\Local\Temp\ccVRp2Ta.s 			page 226


 11046 08b3 9F       		.byte	0x9f
 11047 08b4 BA000000 		.4byte	.LVL115
 11048 08b8 0A010000 		.4byte	.LVL124
 11049 08bc 0300     		.2byte	0x3
 11050 08be 91       		.byte	0x91
 11051 08bf A87F     		.sleb128 -88
 11052 08c1 0A010000 		.4byte	.LVL124
 11053 08c5 0E010000 		.4byte	.LVL125
 11054 08c9 0200     		.2byte	0x2
 11055 08cb 31       		.byte	0x31
 11056 08cc 9F       		.byte	0x9f
 11057 08cd 0E010000 		.4byte	.LVL125
 11058 08d1 3C010000 		.4byte	.LVL130
 11059 08d5 0300     		.2byte	0x3
 11060 08d7 91       		.byte	0x91
 11061 08d8 A87F     		.sleb128 -88
 11062 08da 3C010000 		.4byte	.LVL130
 11063 08de A8010000 		.4byte	.LVL138
 11064 08e2 0300     		.2byte	0x3
 11065 08e4 91       		.byte	0x91
 11066 08e5 A07F     		.sleb128 -96
 11067 08e7 00000000 		.4byte	0
 11068 08eb 00000000 		.4byte	0
 11069              	.LLST46:
 11070 08ef 50010000 		.4byte	.LVL133
 11071 08f3 A8040000 		.4byte	.LVL206
 11072 08f7 0800     		.2byte	0x8
 11073 08f9 7A       		.byte	0x7a
 11074 08fa 00       		.sleb128 0
 11075 08fb 08       		.byte	0x8
 11076 08fc FF       		.byte	0xff
 11077 08fd 1A       		.byte	0x1a
 11078 08fe 31       		.byte	0x31
 11079 08ff 29       		.byte	0x29
 11080 0900 9F       		.byte	0x9f
 11081 0901 00000000 		.4byte	0
 11082 0905 00000000 		.4byte	0
 11083              	.LLST47:
 11084 0909 A2010000 		.4byte	.LVL137
 11085 090d AC010000 		.4byte	.LVL139
 11086 0911 0100     		.2byte	0x1
 11087 0913 50       		.byte	0x50
 11088 0914 AC010000 		.4byte	.LVL139
 11089 0918 C4010000 		.4byte	.LVL143
 11090 091c 0100     		.2byte	0x1
 11091 091e 57       		.byte	0x57
 11092 091f C4010000 		.4byte	.LVL143
 11093 0923 C6010000 		.4byte	.LVL144
 11094 0927 0100     		.2byte	0x1
 11095 0929 50       		.byte	0x50
 11096 092a C6010000 		.4byte	.LVL144
 11097 092e 98040000 		.4byte	.LVL204
 11098 0932 0100     		.2byte	0x1
 11099 0934 57       		.byte	0x57
 11100 0935 98040000 		.4byte	.LVL204
 11101 0939 B8040000 		.4byte	.LFE191
 11102 093d 0100     		.2byte	0x1
ARM GAS  C:\Users\haske\AppData\Local\Temp\ccVRp2Ta.s 			page 227


 11103 093f 50       		.byte	0x50
 11104 0940 00000000 		.4byte	0
 11105 0944 00000000 		.4byte	0
 11106              	.LLST48:
 11107 0948 6C000000 		.4byte	.LVL109
 11108 094c 84000000 		.4byte	.LVL111
 11109 0950 0200     		.2byte	0x2
 11110 0952 30       		.byte	0x30
 11111 0953 9F       		.byte	0x9f
 11112 0954 84000000 		.4byte	.LVL111
 11113 0958 BA000000 		.4byte	.LVL115
 11114 095c 0100     		.2byte	0x1
 11115 095e 50       		.byte	0x50
 11116 095f BA000000 		.4byte	.LVL115
 11117 0963 3C010000 		.4byte	.LVL130
 11118 0967 0100     		.2byte	0x1
 11119 0969 59       		.byte	0x59
 11120 096a 00000000 		.4byte	0
 11121 096e 00000000 		.4byte	0
 11122              	.LLST49:
 11123 0972 7A000000 		.4byte	.LVL110
 11124 0976 84000000 		.4byte	.LVL111
 11125 097a 0100     		.2byte	0x1
 11126 097c 5A       		.byte	0x5a
 11127 097d 84000000 		.4byte	.LVL111
 11128 0981 BA000000 		.4byte	.LVL115
 11129 0985 0100     		.2byte	0x1
 11130 0987 54       		.byte	0x54
 11131 0988 BA000000 		.4byte	.LVL115
 11132 098c 3C010000 		.4byte	.LVL130
 11133 0990 0100     		.2byte	0x1
 11134 0992 5A       		.byte	0x5a
 11135 0993 00000000 		.4byte	0
 11136 0997 00000000 		.4byte	0
 11137              	.LLST50:
 11138 099b DC000000 		.4byte	.LVL117
 11139 099f E0000000 		.4byte	.LVL118
 11140 09a3 0100     		.2byte	0x1
 11141 09a5 53       		.byte	0x53
 11142 09a6 E0000000 		.4byte	.LVL118
 11143 09aa F2000000 		.4byte	.LVL120
 11144 09ae 0100     		.2byte	0x1
 11145 09b0 50       		.byte	0x50
 11146 09b1 00000000 		.4byte	0
 11147 09b5 00000000 		.4byte	0
 11148              	.LLST51:
 11149 09b9 E2000000 		.4byte	.LVL119
 11150 09bd 06010000 		.4byte	.LVL123
 11151 09c1 0100     		.2byte	0x1
 11152 09c3 53       		.byte	0x53
 11153 09c4 00000000 		.4byte	0
 11154 09c8 00000000 		.4byte	0
 11155              	.LLST52:
 11156 09cc FE000000 		.4byte	.LVL121
 11157 09d0 04010000 		.4byte	.LVL122
 11158 09d4 0100     		.2byte	0x1
 11159 09d6 51       		.byte	0x51
ARM GAS  C:\Users\haske\AppData\Local\Temp\ccVRp2Ta.s 			page 228


 11160 09d7 04010000 		.4byte	.LVL122
 11161 09db 1E010000 		.4byte	.LVL126
 11162 09df 0100     		.2byte	0x1
 11163 09e1 52       		.byte	0x52
 11164 09e2 00000000 		.4byte	0
 11165 09e6 00000000 		.4byte	0
 11166              	.LLST53:
 11167 09ea 42010000 		.4byte	.LVL131
 11168 09ee 50010000 		.4byte	.LVL133
 11169 09f2 0200     		.2byte	0x2
 11170 09f4 30       		.byte	0x30
 11171 09f5 9F       		.byte	0x9f
 11172 09f6 00000000 		.4byte	0
 11173 09fa 00000000 		.4byte	0
 11174              	.LLST54:
 11175 09fe 42010000 		.4byte	.LVL131
 11176 0a02 50010000 		.4byte	.LVL133
 11177 0a06 0300     		.2byte	0x3
 11178 0a08 91       		.byte	0x91
 11179 0a09 987F     		.sleb128 -104
 11180 0a0b 00000000 		.4byte	0
 11181 0a0f 00000000 		.4byte	0
 11182              	.LLST55:
 11183 0a13 D4010000 		.4byte	.LVL146
 11184 0a17 DA010000 		.4byte	.LVL147
 11185 0a1b 0600     		.2byte	0x6
 11186 0a1d 70       		.byte	0x70
 11187 0a1e 00       		.sleb128 0
 11188 0a1f 08       		.byte	0x8
 11189 0a20 FF       		.byte	0xff
 11190 0a21 1A       		.byte	0x1a
 11191 0a22 9F       		.byte	0x9f
 11192 0a23 F8010000 		.4byte	.LVL151
 11193 0a27 FC010000 		.4byte	.LVL152
 11194 0a2b 0600     		.2byte	0x6
 11195 0a2d 70       		.byte	0x70
 11196 0a2e 00       		.sleb128 0
 11197 0a2f 08       		.byte	0x8
 11198 0a30 FF       		.byte	0xff
 11199 0a31 1A       		.byte	0x1a
 11200 0a32 9F       		.byte	0x9f
 11201 0a33 8E020000 		.4byte	.LVL166
 11202 0a37 9E020000 		.4byte	.LVL167
 11203 0a3b 0600     		.2byte	0x6
 11204 0a3d 70       		.byte	0x70
 11205 0a3e 00       		.sleb128 0
 11206 0a3f 08       		.byte	0x8
 11207 0a40 FF       		.byte	0xff
 11208 0a41 1A       		.byte	0x1a
 11209 0a42 9F       		.byte	0x9f
 11210 0a43 00000000 		.4byte	0
 11211 0a47 00000000 		.4byte	0
 11212              	.LLST56:
 11213 0a4b 9E020000 		.4byte	.LVL167
 11214 0a4f C8020000 		.4byte	.LVL169
 11215 0a53 0200     		.2byte	0x2
 11216 0a55 30       		.byte	0x30
ARM GAS  C:\Users\haske\AppData\Local\Temp\ccVRp2Ta.s 			page 229


 11217 0a56 9F       		.byte	0x9f
 11218 0a57 C8020000 		.4byte	.LVL169
 11219 0a5b CA020000 		.4byte	.LVL170
 11220 0a5f 0100     		.2byte	0x1
 11221 0a61 54       		.byte	0x54
 11222 0a62 CA020000 		.4byte	.LVL170
 11223 0a66 DC020000 		.4byte	.LVL172
 11224 0a6a 0200     		.2byte	0x2
 11225 0a6c 30       		.byte	0x30
 11226 0a6d 9F       		.byte	0x9f
 11227 0a6e DC020000 		.4byte	.LVL172
 11228 0a72 F8020000 		.4byte	.LVL173
 11229 0a76 0100     		.2byte	0x1
 11230 0a78 54       		.byte	0x54
 11231 0a79 F8020000 		.4byte	.LVL173
 11232 0a7d FA020000 		.4byte	.LVL174
 11233 0a81 0200     		.2byte	0x2
 11234 0a83 30       		.byte	0x30
 11235 0a84 9F       		.byte	0x9f
 11236 0a85 FA020000 		.4byte	.LVL174
 11237 0a89 00040000 		.4byte	.LVL196
 11238 0a8d 0100     		.2byte	0x1
 11239 0a8f 54       		.byte	0x54
 11240 0a90 00000000 		.4byte	0
 11241 0a94 00000000 		.4byte	0
 11242              	.LLST57:
 11243 0a98 80030000 		.4byte	.LVL189
 11244 0a9c EE030000 		.4byte	.LVL195
 11245 0aa0 0100     		.2byte	0x1
 11246 0aa2 5B       		.byte	0x5b
 11247 0aa3 00000000 		.4byte	0
 11248 0aa7 00000000 		.4byte	0
 11249              	.LLST58:
 11250 0aab B8030000 		.4byte	.LVL191
 11251 0aaf 08040000 		.4byte	.LVL197
 11252 0ab3 0100     		.2byte	0x1
 11253 0ab5 59       		.byte	0x59
 11254 0ab6 00000000 		.4byte	0
 11255 0aba 00000000 		.4byte	0
 11256              	.LLST59:
 11257 0abe 44030000 		.4byte	.LVL183
 11258 0ac2 98040000 		.4byte	.LVL204
 11259 0ac6 0300     		.2byte	0x3
 11260 0ac8 91       		.byte	0x91
 11261 0ac9 A87F     		.sleb128 -88
 11262 0acb 00000000 		.4byte	0
 11263 0acf 00000000 		.4byte	0
 11264              	.LLST60:
 11265 0ad3 4C030000 		.4byte	.LVL185
 11266 0ad7 98040000 		.4byte	.LVL204
 11267 0adb 0200     		.2byte	0x2
 11268 0add 91       		.byte	0x91
 11269 0ade 40       		.sleb128 -64
 11270 0adf 00000000 		.4byte	0
 11271 0ae3 00000000 		.4byte	0
 11272              	.LLST61:
 11273 0ae7 C4030000 		.4byte	.LVL192
ARM GAS  C:\Users\haske\AppData\Local\Temp\ccVRp2Ta.s 			page 230


 11274 0aeb EC030000 		.4byte	.LVL194
 11275 0aef 0100     		.2byte	0x1
 11276 0af1 51       		.byte	0x51
 11277 0af2 EC030000 		.4byte	.LVL194
 11278 0af6 EE030000 		.4byte	.LVL195
 11279 0afa 1100     		.2byte	0x11
 11280 0afc 91       		.byte	0x91
 11281 0afd B87F     		.sleb128 -72
 11282 0aff 06       		.byte	0x6
 11283 0b00 77       		.byte	0x77
 11284 0b01 14       		.sleb128 20
 11285 0b02 94       		.byte	0x94
 11286 0b03 02       		.byte	0x2
 11287 0b04 40       		.byte	0x40
 11288 0b05 24       		.byte	0x24
 11289 0b06 40       		.byte	0x40
 11290 0b07 26       		.byte	0x26
 11291 0b08 1C       		.byte	0x1c
 11292 0b09 7B       		.byte	0x7b
 11293 0b0a 00       		.sleb128 0
 11294 0b0b 22       		.byte	0x22
 11295 0b0c 9F       		.byte	0x9f
 11296 0b0d EE030000 		.4byte	.LVL195
 11297 0b11 98040000 		.4byte	.LVL204
 11298 0b15 0100     		.2byte	0x1
 11299 0b17 5B       		.byte	0x5b
 11300 0b18 00000000 		.4byte	0
 11301 0b1c 00000000 		.4byte	0
 11302              	.LLST62:
 11303 0b20 D0030000 		.4byte	.LVL193
 11304 0b24 08040000 		.4byte	.LVL197
 11305 0b28 0100     		.2byte	0x1
 11306 0b2a 52       		.byte	0x52
 11307 0b2b 08040000 		.4byte	.LVL197
 11308 0b2f 98040000 		.4byte	.LVL204
 11309 0b33 0100     		.2byte	0x1
 11310 0b35 59       		.byte	0x59
 11311 0b36 00000000 		.4byte	0
 11312 0b3a 00000000 		.4byte	0
 11313              	.LLST63:
 11314 0b3e C6010000 		.4byte	.LVL144
 11315 0b42 D4010000 		.4byte	.LVL146
 11316 0b46 0200     		.2byte	0x2
 11317 0b48 30       		.byte	0x30
 11318 0b49 9F       		.byte	0x9f
 11319 0b4a 00000000 		.4byte	0
 11320 0b4e 00000000 		.4byte	0
 11321              	.LLST64:
 11322 0b52 C6010000 		.4byte	.LVL144
 11323 0b56 D4010000 		.4byte	.LVL146
 11324 0b5a 0100     		.2byte	0x1
 11325 0b5c 57       		.byte	0x57
 11326 0b5d 00000000 		.4byte	0
 11327 0b61 00000000 		.4byte	0
 11328              	.LLST65:
 11329 0b65 F2010000 		.4byte	.LVL148
 11330 0b69 F4010000 		.4byte	.LVL149
ARM GAS  C:\Users\haske\AppData\Local\Temp\ccVRp2Ta.s 			page 231


 11331 0b6d 0100     		.2byte	0x1
 11332 0b6f 55       		.byte	0x55
 11333 0b70 06020000 		.4byte	.LVL153
 11334 0b74 8E020000 		.4byte	.LVL166
 11335 0b78 0100     		.2byte	0x1
 11336 0b7a 55       		.byte	0x55
 11337 0b7b 00000000 		.4byte	0
 11338 0b7f 00000000 		.4byte	0
 11339              	.LLST66:
 11340 0b83 4C020000 		.4byte	.LVL158
 11341 0b87 66020000 		.4byte	.LVL160
 11342 0b8b 0300     		.2byte	0x3
 11343 0b8d 91       		.byte	0x91
 11344 0b8e A07F     		.sleb128 -96
 11345 0b90 00000000 		.4byte	0
 11346 0b94 00000000 		.4byte	0
 11347              	.LLST67:
 11348 0b98 4C020000 		.4byte	.LVL158
 11349 0b9c 52020000 		.4byte	.LVL159
 11350 0ba0 0300     		.2byte	0x3
 11351 0ba2 91       		.byte	0x91
 11352 0ba3 4C       		.sleb128 -52
 11353 0ba4 9F       		.byte	0x9f
 11354 0ba5 52020000 		.4byte	.LVL159
 11355 0ba9 66020000 		.4byte	.LVL160
 11356 0bad 0100     		.2byte	0x1
 11357 0baf 54       		.byte	0x54
 11358 0bb0 00000000 		.4byte	0
 11359 0bb4 00000000 		.4byte	0
 11360              	.LLST68:
 11361 0bb8 1C030000 		.4byte	.LVL176
 11362 0bbc 2C030000 		.4byte	.LVL179
 11363 0bc0 0200     		.2byte	0x2
 11364 0bc2 30       		.byte	0x30
 11365 0bc3 9F       		.byte	0x9f
 11366 0bc4 00000000 		.4byte	0
 11367 0bc8 00000000 		.4byte	0
 11368              	.LLST69:
 11369 0bcc 1C030000 		.4byte	.LVL176
 11370 0bd0 2C030000 		.4byte	.LVL179
 11371 0bd4 0100     		.2byte	0x1
 11372 0bd6 57       		.byte	0x57
 11373 0bd7 00000000 		.4byte	0
 11374 0bdb 00000000 		.4byte	0
 11375              	.LLST70:
 11376 0bdf 50030000 		.4byte	.LVL186
 11377 0be3 52030000 		.4byte	.LVL187
 11378 0be7 0100     		.2byte	0x1
 11379 0be9 55       		.byte	0x55
 11380 0bea 00000000 		.4byte	0
 11381 0bee 00000000 		.4byte	0
 11382              	.LLST71:
 11383 0bf2 2C030000 		.4byte	.LVL179
 11384 0bf6 3C030000 		.4byte	.LVL181
 11385 0bfa 0200     		.2byte	0x2
 11386 0bfc 30       		.byte	0x30
 11387 0bfd 9F       		.byte	0x9f
ARM GAS  C:\Users\haske\AppData\Local\Temp\ccVRp2Ta.s 			page 232


 11388 0bfe 00000000 		.4byte	0
 11389 0c02 00000000 		.4byte	0
 11390              	.LLST72:
 11391 0c06 2C030000 		.4byte	.LVL179
 11392 0c0a 3C030000 		.4byte	.LVL181
 11393 0c0e 0100     		.2byte	0x1
 11394 0c10 57       		.byte	0x57
 11395 0c11 00000000 		.4byte	0
 11396 0c15 00000000 		.4byte	0
 11397              	.LLST73:
 11398 0c19 00000000 		.4byte	.LVL207
 11399 0c1d 19000000 		.4byte	.LVL210-1
 11400 0c21 0100     		.2byte	0x1
 11401 0c23 50       		.byte	0x50
 11402 0c24 19000000 		.4byte	.LVL210-1
 11403 0c28 C0030000 		.4byte	.LVL293
 11404 0c2c 0100     		.2byte	0x1
 11405 0c2e 54       		.byte	0x54
 11406 0c2f C0030000 		.4byte	.LVL293
 11407 0c33 D0030000 		.4byte	.LFE189
 11408 0c37 0400     		.2byte	0x4
 11409 0c39 F3       		.byte	0xf3
 11410 0c3a 01       		.uleb128 0x1
 11411 0c3b 50       		.byte	0x50
 11412 0c3c 9F       		.byte	0x9f
 11413 0c3d 00000000 		.4byte	0
 11414 0c41 00000000 		.4byte	0
 11415              	.LLST74:
 11416 0c45 00000000 		.4byte	.LVL207
 11417 0c49 16000000 		.4byte	.LVL209
 11418 0c4d 0100     		.2byte	0x1
 11419 0c4f 51       		.byte	0x51
 11420 0c50 16000000 		.4byte	.LVL209
 11421 0c54 D0030000 		.4byte	.LFE189
 11422 0c58 0400     		.2byte	0x4
 11423 0c5a F3       		.byte	0xf3
 11424 0c5b 01       		.uleb128 0x1
 11425 0c5c 51       		.byte	0x51
 11426 0c5d 9F       		.byte	0x9f
 11427 0c5e 00000000 		.4byte	0
 11428 0c62 00000000 		.4byte	0
 11429              	.LLST75:
 11430 0c66 9C000000 		.4byte	.LVL221
 11431 0c6a C0030000 		.4byte	.LVL295
 11432 0c6e 0800     		.2byte	0x8
 11433 0c70 78       		.byte	0x78
 11434 0c71 00       		.sleb128 0
 11435 0c72 08       		.byte	0x8
 11436 0c73 FF       		.byte	0xff
 11437 0c74 1A       		.byte	0x1a
 11438 0c75 31       		.byte	0x31
 11439 0c76 29       		.byte	0x29
 11440 0c77 9F       		.byte	0x9f
 11441 0c78 00000000 		.4byte	0
 11442 0c7c 00000000 		.4byte	0
 11443              	.LLST76:
 11444 0c80 C0000000 		.4byte	.LVL227
ARM GAS  C:\Users\haske\AppData\Local\Temp\ccVRp2Ta.s 			page 233


 11445 0c84 C0030000 		.4byte	.LVL296
 11446 0c88 0100     		.2byte	0x1
 11447 0c8a 59       		.byte	0x59
 11448 0c8b 00000000 		.4byte	0
 11449 0c8f 00000000 		.4byte	0
 11450              	.LLST77:
 11451 0c93 E2000000 		.4byte	.LVL233
 11452 0c97 0C020000 		.4byte	.LVL261
 11453 0c9b 0100     		.2byte	0x1
 11454 0c9d 57       		.byte	0x57
 11455 0c9e 8C020000 		.4byte	.LVL278
 11456 0ca2 8E020000 		.4byte	.LVL279
 11457 0ca6 0100     		.2byte	0x1
 11458 0ca8 57       		.byte	0x57
 11459 0ca9 00000000 		.4byte	0
 11460 0cad 00000000 		.4byte	0
 11461              	.LLST78:
 11462 0cb1 56010000 		.4byte	.LVL248
 11463 0cb5 BC010000 		.4byte	.LVL254
 11464 0cb9 0300     		.2byte	0x3
 11465 0cbb 91       		.byte	0x91
 11466 0cbc A07F     		.sleb128 -96
 11467 0cbe BE010000 		.4byte	.LVL255
 11468 0cc2 DC010000 		.4byte	.LVL257
 11469 0cc6 0300     		.2byte	0x3
 11470 0cc8 91       		.byte	0x91
 11471 0cc9 A07F     		.sleb128 -96
 11472 0ccb DE010000 		.4byte	.LVL258
 11473 0ccf BA020000 		.4byte	.LVL282
 11474 0cd3 0300     		.2byte	0x3
 11475 0cd5 91       		.byte	0x91
 11476 0cd6 A07F     		.sleb128 -96
 11477 0cd8 8A030000 		.4byte	.LVL289
 11478 0cdc 94030000 		.4byte	.LVL290
 11479 0ce0 0300     		.2byte	0x3
 11480 0ce2 91       		.byte	0x91
 11481 0ce3 A07F     		.sleb128 -96
 11482 0ce5 00000000 		.4byte	0
 11483 0ce9 00000000 		.4byte	0
 11484              	.LLST79:
 11485 0ced 6C010000 		.4byte	.LVL249
 11486 0cf1 86030000 		.4byte	.LVL288
 11487 0cf5 0100     		.2byte	0x1
 11488 0cf7 5A       		.byte	0x5a
 11489 0cf8 86030000 		.4byte	.LVL288
 11490 0cfc 8A030000 		.4byte	.LVL289
 11491 0d00 0100     		.2byte	0x1
 11492 0d02 52       		.byte	0x52
 11493 0d03 8A030000 		.4byte	.LVL289
 11494 0d07 C0030000 		.4byte	.LVL297
 11495 0d0b 0100     		.2byte	0x1
 11496 0d0d 5A       		.byte	0x5a
 11497 0d0e 00000000 		.4byte	0
 11498 0d12 00000000 		.4byte	0
 11499              	.LLST80:
 11500 0d16 E2010000 		.4byte	.LVL259
 11501 0d1a 10020000 		.4byte	.LVL262
ARM GAS  C:\Users\haske\AppData\Local\Temp\ccVRp2Ta.s 			page 234


 11502 0d1e 0200     		.2byte	0x2
 11503 0d20 30       		.byte	0x30
 11504 0d21 9F       		.byte	0x9f
 11505 0d22 10020000 		.4byte	.LVL262
 11506 0d26 34020000 		.4byte	.LVL265
 11507 0d2a 0100     		.2byte	0x1
 11508 0d2c 56       		.byte	0x56
 11509 0d2d 36020000 		.4byte	.LVL266
 11510 0d31 54020000 		.4byte	.LVL271
 11511 0d35 0100     		.2byte	0x1
 11512 0d37 56       		.byte	0x56
 11513 0d38 56020000 		.4byte	.LVL272
 11514 0d3c 8C020000 		.4byte	.LVL278
 11515 0d40 0100     		.2byte	0x1
 11516 0d42 56       		.byte	0x56
 11517 0d43 8C020000 		.4byte	.LVL278
 11518 0d47 8E020000 		.4byte	.LVL279
 11519 0d4b 0200     		.2byte	0x2
 11520 0d4d 30       		.byte	0x30
 11521 0d4e 9F       		.byte	0x9f
 11522 0d4f 8E020000 		.4byte	.LVL279
 11523 0d53 B0020000 		.4byte	.LVL281
 11524 0d57 0100     		.2byte	0x1
 11525 0d59 56       		.byte	0x56
 11526 0d5a 8A030000 		.4byte	.LVL289
 11527 0d5e 94030000 		.4byte	.LVL290
 11528 0d62 0100     		.2byte	0x1
 11529 0d64 56       		.byte	0x56
 11530 0d65 00000000 		.4byte	0
 11531 0d69 00000000 		.4byte	0
 11532              	.LLST81:
 11533 0d6d EE010000 		.4byte	.LVL260
 11534 0d71 10020000 		.4byte	.LVL262
 11535 0d75 0200     		.2byte	0x2
 11536 0d77 30       		.byte	0x30
 11537 0d78 9F       		.byte	0x9f
 11538 0d79 10020000 		.4byte	.LVL262
 11539 0d7d 4A020000 		.4byte	.LVL268
 11540 0d81 0100     		.2byte	0x1
 11541 0d83 57       		.byte	0x57
 11542 0d84 4A020000 		.4byte	.LVL268
 11543 0d88 50020000 		.4byte	.LVL269
 11544 0d8c 0100     		.2byte	0x1
 11545 0d8e 5B       		.byte	0x5b
 11546 0d8f 50020000 		.4byte	.LVL269
 11547 0d93 52020000 		.4byte	.LVL270
 11548 0d97 0100     		.2byte	0x1
 11549 0d99 53       		.byte	0x53
 11550 0d9a 52020000 		.4byte	.LVL270
 11551 0d9e 8C020000 		.4byte	.LVL278
 11552 0da2 0100     		.2byte	0x1
 11553 0da4 5B       		.byte	0x5b
 11554 0da5 8C020000 		.4byte	.LVL278
 11555 0da9 8E020000 		.4byte	.LVL279
 11556 0dad 0200     		.2byte	0x2
 11557 0daf 30       		.byte	0x30
 11558 0db0 9F       		.byte	0x9f
ARM GAS  C:\Users\haske\AppData\Local\Temp\ccVRp2Ta.s 			page 235


 11559 0db1 00000000 		.4byte	0
 11560 0db5 00000000 		.4byte	0
 11561              	.LLST82:
 11562 0db9 10020000 		.4byte	.LVL262
 11563 0dbd 29020000 		.4byte	.LVL263-1
 11564 0dc1 0100     		.2byte	0x1
 11565 0dc3 52       		.byte	0x52
 11566 0dc4 38020000 		.4byte	.LVL267
 11567 0dc8 63020000 		.4byte	.LVL273-1
 11568 0dcc 0100     		.2byte	0x1
 11569 0dce 52       		.byte	0x52
 11570 0dcf 68020000 		.4byte	.LVL274
 11571 0dd3 6D020000 		.4byte	.LVL275-1
 11572 0dd7 0100     		.2byte	0x1
 11573 0dd9 52       		.byte	0x52
 11574 0dda A0020000 		.4byte	.LVL280
 11575 0dde 24030000 		.4byte	.LVL286
 11576 0de2 0100     		.2byte	0x1
 11577 0de4 55       		.byte	0x55
 11578 0de5 24030000 		.4byte	.LVL286
 11579 0de9 8A030000 		.4byte	.LVL289
 11580 0ded 0300     		.2byte	0x3
 11581 0def 91       		.byte	0x91
 11582 0df0 A07F     		.sleb128 -96
 11583 0df2 8A030000 		.4byte	.LVL289
 11584 0df6 C0030000 		.4byte	.LVL294
 11585 0dfa 0100     		.2byte	0x1
 11586 0dfc 55       		.byte	0x55
 11587 0dfd 00000000 		.4byte	0
 11588 0e01 00000000 		.4byte	0
 11589              	.LLST83:
 11590 0e05 2C020000 		.4byte	.LVL264
 11591 0e09 38020000 		.4byte	.LVL267
 11592 0e0d 0100     		.2byte	0x1
 11593 0e0f 50       		.byte	0x50
 11594 0e10 D8020000 		.4byte	.LVL284
 11595 0e14 20030000 		.4byte	.LVL285
 11596 0e18 0100     		.2byte	0x1
 11597 0e1a 50       		.byte	0x50
 11598 0e1b 20030000 		.4byte	.LVL285
 11599 0e1f 8A030000 		.4byte	.LVL289
 11600 0e23 0300     		.2byte	0x3
 11601 0e25 91       		.byte	0x91
 11602 0e26 A07F     		.sleb128 -96
 11603 0e28 00000000 		.4byte	0
 11604 0e2c 00000000 		.4byte	0
 11605              	.LLST84:
 11606 0e30 10000000 		.4byte	.LVL208
 11607 0e34 1A000000 		.4byte	.LVL210
 11608 0e38 0200     		.2byte	0x2
 11609 0e3a 30       		.byte	0x30
 11610 0e3b 9F       		.byte	0x9f
 11611 0e3c 00000000 		.4byte	0
 11612 0e40 00000000 		.4byte	0
 11613              	.LLST85:
 11614 0e44 10000000 		.4byte	.LVL208
 11615 0e48 19000000 		.4byte	.LVL210-1
ARM GAS  C:\Users\haske\AppData\Local\Temp\ccVRp2Ta.s 			page 236


 11616 0e4c 0100     		.2byte	0x1
 11617 0e4e 50       		.byte	0x50
 11618 0e4f 19000000 		.4byte	.LVL210-1
 11619 0e53 1A000000 		.4byte	.LVL210
 11620 0e57 0100     		.2byte	0x1
 11621 0e59 54       		.byte	0x54
 11622 0e5a 00000000 		.4byte	0
 11623 0e5e 00000000 		.4byte	0
 11624              	.LLST86:
 11625 0e62 1E000000 		.4byte	.LVL211
 11626 0e66 50000000 		.4byte	.LVL212
 11627 0e6a 0100     		.2byte	0x1
 11628 0e6c 50       		.byte	0x50
 11629 0e6d 00000000 		.4byte	0
 11630 0e71 00000000 		.4byte	0
 11631              	.LLST87:
 11632 0e75 64000000 		.4byte	.LVL213
 11633 0e79 70000000 		.4byte	.LVL214
 11634 0e7d 0200     		.2byte	0x2
 11635 0e7f 30       		.byte	0x30
 11636 0e80 9F       		.byte	0x9f
 11637 0e81 00000000 		.4byte	0
 11638 0e85 00000000 		.4byte	0
 11639              	.LLST88:
 11640 0e89 64000000 		.4byte	.LVL213
 11641 0e8d 70000000 		.4byte	.LVL214
 11642 0e91 0100     		.2byte	0x1
 11643 0e93 54       		.byte	0x54
 11644 0e94 00000000 		.4byte	0
 11645 0e98 00000000 		.4byte	0
 11646              	.LLST89:
 11647 0e9c 72000000 		.4byte	.LVL215
 11648 0ea0 7E000000 		.4byte	.LVL216
 11649 0ea4 0200     		.2byte	0x2
 11650 0ea6 30       		.byte	0x30
 11651 0ea7 9F       		.byte	0x9f
 11652 0ea8 00000000 		.4byte	0
 11653 0eac 00000000 		.4byte	0
 11654              	.LLST90:
 11655 0eb0 72000000 		.4byte	.LVL215
 11656 0eb4 7E000000 		.4byte	.LVL216
 11657 0eb8 0100     		.2byte	0x1
 11658 0eba 54       		.byte	0x54
 11659 0ebb 00000000 		.4byte	0
 11660 0ebf 00000000 		.4byte	0
 11661              	.LLST91:
 11662 0ec3 80000000 		.4byte	.LVL217
 11663 0ec7 8C000000 		.4byte	.LVL218
 11664 0ecb 0200     		.2byte	0x2
 11665 0ecd 30       		.byte	0x30
 11666 0ece 9F       		.byte	0x9f
 11667 0ecf 00000000 		.4byte	0
 11668 0ed3 00000000 		.4byte	0
 11669              	.LLST92:
 11670 0ed7 80000000 		.4byte	.LVL217
 11671 0edb 8C000000 		.4byte	.LVL218
 11672 0edf 0100     		.2byte	0x1
ARM GAS  C:\Users\haske\AppData\Local\Temp\ccVRp2Ta.s 			page 237


 11673 0ee1 54       		.byte	0x54
 11674 0ee2 00000000 		.4byte	0
 11675 0ee6 00000000 		.4byte	0
 11676              	.LLST93:
 11677 0eea 8E000000 		.4byte	.LVL219
 11678 0eee 9C000000 		.4byte	.LVL221
 11679 0ef2 0200     		.2byte	0x2
 11680 0ef4 30       		.byte	0x30
 11681 0ef5 9F       		.byte	0x9f
 11682 0ef6 00000000 		.4byte	0
 11683 0efa 00000000 		.4byte	0
 11684              	.LLST94:
 11685 0efe 8E000000 		.4byte	.LVL219
 11686 0f02 9C000000 		.4byte	.LVL221
 11687 0f06 0100     		.2byte	0x1
 11688 0f08 54       		.byte	0x54
 11689 0f09 00000000 		.4byte	0
 11690 0f0d 00000000 		.4byte	0
 11691              	.LLST95:
 11692 0f11 A2000000 		.4byte	.LVL222
 11693 0f15 B0000000 		.4byte	.LVL224
 11694 0f19 0200     		.2byte	0x2
 11695 0f1b 30       		.byte	0x30
 11696 0f1c 9F       		.byte	0x9f
 11697 0f1d 00000000 		.4byte	0
 11698 0f21 00000000 		.4byte	0
 11699              	.LLST96:
 11700 0f25 A2000000 		.4byte	.LVL222
 11701 0f29 B0000000 		.4byte	.LVL224
 11702 0f2d 0100     		.2byte	0x1
 11703 0f2f 54       		.byte	0x54
 11704 0f30 00000000 		.4byte	0
 11705 0f34 00000000 		.4byte	0
 11706              	.LLST97:
 11707 0f38 B2000000 		.4byte	.LVL225
 11708 0f3c C0000000 		.4byte	.LVL227
 11709 0f40 0200     		.2byte	0x2
 11710 0f42 30       		.byte	0x30
 11711 0f43 9F       		.byte	0x9f
 11712 0f44 00000000 		.4byte	0
 11713 0f48 00000000 		.4byte	0
 11714              	.LLST98:
 11715 0f4c B2000000 		.4byte	.LVL225
 11716 0f50 C0000000 		.4byte	.LVL227
 11717 0f54 0100     		.2byte	0x1
 11718 0f56 54       		.byte	0x54
 11719 0f57 00000000 		.4byte	0
 11720 0f5b 00000000 		.4byte	0
 11721              	.LLST99:
 11722 0f5f C8000000 		.4byte	.LVL228
 11723 0f63 D4000000 		.4byte	.LVL230
 11724 0f67 0200     		.2byte	0x2
 11725 0f69 30       		.byte	0x30
 11726 0f6a 9F       		.byte	0x9f
 11727 0f6b 00000000 		.4byte	0
 11728 0f6f 00000000 		.4byte	0
 11729              	.LLST100:
ARM GAS  C:\Users\haske\AppData\Local\Temp\ccVRp2Ta.s 			page 238


 11730 0f73 C8000000 		.4byte	.LVL228
 11731 0f77 D4000000 		.4byte	.LVL230
 11732 0f7b 0100     		.2byte	0x1
 11733 0f7d 54       		.byte	0x54
 11734 0f7e 00000000 		.4byte	0
 11735 0f82 00000000 		.4byte	0
 11736              	.LLST101:
 11737 0f86 D6000000 		.4byte	.LVL231
 11738 0f8a E2000000 		.4byte	.LVL233
 11739 0f8e 0200     		.2byte	0x2
 11740 0f90 30       		.byte	0x30
 11741 0f91 9F       		.byte	0x9f
 11742 0f92 00000000 		.4byte	0
 11743 0f96 00000000 		.4byte	0
 11744              	.LLST102:
 11745 0f9a D6000000 		.4byte	.LVL231
 11746 0f9e E2000000 		.4byte	.LVL233
 11747 0fa2 0100     		.2byte	0x1
 11748 0fa4 54       		.byte	0x54
 11749 0fa5 00000000 		.4byte	0
 11750 0fa9 00000000 		.4byte	0
 11751              	.LLST103:
 11752 0fad FC000000 		.4byte	.LVL236
 11753 0fb1 08010000 		.4byte	.LVL238
 11754 0fb5 0200     		.2byte	0x2
 11755 0fb7 30       		.byte	0x30
 11756 0fb8 9F       		.byte	0x9f
 11757 0fb9 00000000 		.4byte	0
 11758 0fbd 00000000 		.4byte	0
 11759              	.LLST104:
 11760 0fc1 FC000000 		.4byte	.LVL236
 11761 0fc5 08010000 		.4byte	.LVL238
 11762 0fc9 0100     		.2byte	0x1
 11763 0fcb 54       		.byte	0x54
 11764 0fcc 00000000 		.4byte	0
 11765 0fd0 00000000 		.4byte	0
 11766              	.LLST105:
 11767 0fd4 0C010000 		.4byte	.LVL239
 11768 0fd8 16010000 		.4byte	.LVL240
 11769 0fdc 0200     		.2byte	0x2
 11770 0fde 30       		.byte	0x30
 11771 0fdf 9F       		.byte	0x9f
 11772 0fe0 00000000 		.4byte	0
 11773 0fe4 00000000 		.4byte	0
 11774              	.LLST106:
 11775 0fe8 0C010000 		.4byte	.LVL239
 11776 0fec 16010000 		.4byte	.LVL240
 11777 0ff0 0100     		.2byte	0x1
 11778 0ff2 54       		.byte	0x54
 11779 0ff3 00000000 		.4byte	0
 11780 0ff7 00000000 		.4byte	0
 11781              	.LLST107:
 11782 0ffb 18010000 		.4byte	.LVL241
 11783 0fff 1A010000 		.4byte	.LVL242
 11784 1003 0100     		.2byte	0x1
 11785 1005 50       		.byte	0x50
 11786 1006 00000000 		.4byte	0
ARM GAS  C:\Users\haske\AppData\Local\Temp\ccVRp2Ta.s 			page 239


 11787 100a 00000000 		.4byte	0
 11788              	.LLST108:
 11789 100e 34010000 		.4byte	.LVL244
 11790 1012 3E010000 		.4byte	.LVL245
 11791 1016 0200     		.2byte	0x2
 11792 1018 30       		.byte	0x30
 11793 1019 9F       		.byte	0x9f
 11794 101a 00000000 		.4byte	0
 11795 101e 00000000 		.4byte	0
 11796              	.LLST109:
 11797 1022 34010000 		.4byte	.LVL244
 11798 1026 3E010000 		.4byte	.LVL245
 11799 102a 0100     		.2byte	0x1
 11800 102c 54       		.byte	0x54
 11801 102d 00000000 		.4byte	0
 11802 1031 00000000 		.4byte	0
 11803              	.LLST110:
 11804 1035 3E010000 		.4byte	.LVL245
 11805 1039 40010000 		.4byte	.LVL246
 11806 103d 0100     		.2byte	0x1
 11807 103f 50       		.byte	0x50
 11808 1040 00000000 		.4byte	0
 11809 1044 00000000 		.4byte	0
 11810              	.LLST111:
 11811 1048 6C010000 		.4byte	.LVL249
 11812 104c 7A010000 		.4byte	.LVL251
 11813 1050 0200     		.2byte	0x2
 11814 1052 30       		.byte	0x30
 11815 1053 9F       		.byte	0x9f
 11816 1054 00000000 		.4byte	0
 11817 1058 00000000 		.4byte	0
 11818              	.LLST112:
 11819 105c 6C010000 		.4byte	.LVL249
 11820 1060 7A010000 		.4byte	.LVL251
 11821 1064 0100     		.2byte	0x1
 11822 1066 54       		.byte	0x54
 11823 1067 00000000 		.4byte	0
 11824 106b 00000000 		.4byte	0
 11825              	.LLST113:
 11826 106f 7A010000 		.4byte	.LVL251
 11827 1073 8A010000 		.4byte	.LVL253
 11828 1077 0200     		.2byte	0x2
 11829 1079 30       		.byte	0x30
 11830 107a 9F       		.byte	0x9f
 11831 107b 00000000 		.4byte	0
 11832 107f 00000000 		.4byte	0
 11833              	.LLST114:
 11834 1083 7A010000 		.4byte	.LVL251
 11835 1087 8A010000 		.4byte	.LVL253
 11836 108b 0100     		.2byte	0x1
 11837 108d 54       		.byte	0x54
 11838 108e 00000000 		.4byte	0
 11839 1092 00000000 		.4byte	0
 11840              	.LLST115:
 11841 1096 70020000 		.4byte	.LVL276
 11842 109a 89020000 		.4byte	.LVL277-1
 11843 109e 0100     		.2byte	0x1
ARM GAS  C:\Users\haske\AppData\Local\Temp\ccVRp2Ta.s 			page 240


 11844 10a0 51       		.byte	0x51
 11845 10a1 00000000 		.4byte	0
 11846 10a5 00000000 		.4byte	0
 11847              	.LLST116:
 11848 10a9 00000000 		.4byte	.LVL303
 11849 10ad 0B000000 		.4byte	.LVL305-1
 11850 10b1 0100     		.2byte	0x1
 11851 10b3 50       		.byte	0x50
 11852 10b4 0B000000 		.4byte	.LVL305-1
 11853 10b8 14000000 		.4byte	.LFE179
 11854 10bc 0400     		.2byte	0x4
 11855 10be F3       		.byte	0xf3
 11856 10bf 01       		.uleb128 0x1
 11857 10c0 50       		.byte	0x50
 11858 10c1 9F       		.byte	0x9f
 11859 10c2 00000000 		.4byte	0
 11860 10c6 00000000 		.4byte	0
 11861              	.LLST117:
 11862 10ca 00000000 		.4byte	.LVL303
 11863 10ce 08000000 		.4byte	.LVL304
 11864 10d2 0100     		.2byte	0x1
 11865 10d4 51       		.byte	0x51
 11866 10d5 08000000 		.4byte	.LVL304
 11867 10d9 14000000 		.4byte	.LFE179
 11868 10dd 0400     		.2byte	0x4
 11869 10df F3       		.byte	0xf3
 11870 10e0 01       		.uleb128 0x1
 11871 10e1 51       		.byte	0x51
 11872 10e2 9F       		.byte	0x9f
 11873 10e3 00000000 		.4byte	0
 11874 10e7 00000000 		.4byte	0
 11875              	.LLST118:
 11876 10eb 00000000 		.4byte	.LVL306
 11877 10ef 0B000000 		.4byte	.LVL308-1
 11878 10f3 0100     		.2byte	0x1
 11879 10f5 50       		.byte	0x50
 11880 10f6 0B000000 		.4byte	.LVL308-1
 11881 10fa 14000000 		.4byte	.LFE180
 11882 10fe 0400     		.2byte	0x4
 11883 1100 F3       		.byte	0xf3
 11884 1101 01       		.uleb128 0x1
 11885 1102 50       		.byte	0x50
 11886 1103 9F       		.byte	0x9f
 11887 1104 00000000 		.4byte	0
 11888 1108 00000000 		.4byte	0
 11889              	.LLST119:
 11890 110c 00000000 		.4byte	.LVL306
 11891 1110 08000000 		.4byte	.LVL307
 11892 1114 0100     		.2byte	0x1
 11893 1116 51       		.byte	0x51
 11894 1117 08000000 		.4byte	.LVL307
 11895 111b 14000000 		.4byte	.LFE180
 11896 111f 0400     		.2byte	0x4
 11897 1121 F3       		.byte	0xf3
 11898 1122 01       		.uleb128 0x1
 11899 1123 51       		.byte	0x51
 11900 1124 9F       		.byte	0x9f
ARM GAS  C:\Users\haske\AppData\Local\Temp\ccVRp2Ta.s 			page 241


 11901 1125 00000000 		.4byte	0
 11902 1129 00000000 		.4byte	0
 11903              	.LLST120:
 11904 112d 00000000 		.4byte	.LVL309
 11905 1131 0B000000 		.4byte	.LVL311-1
 11906 1135 0100     		.2byte	0x1
 11907 1137 50       		.byte	0x50
 11908 1138 0B000000 		.4byte	.LVL311-1
 11909 113c 14000000 		.4byte	.LFE181
 11910 1140 0400     		.2byte	0x4
 11911 1142 F3       		.byte	0xf3
 11912 1143 01       		.uleb128 0x1
 11913 1144 50       		.byte	0x50
 11914 1145 9F       		.byte	0x9f
 11915 1146 00000000 		.4byte	0
 11916 114a 00000000 		.4byte	0
 11917              	.LLST121:
 11918 114e 00000000 		.4byte	.LVL309
 11919 1152 08000000 		.4byte	.LVL310
 11920 1156 0100     		.2byte	0x1
 11921 1158 51       		.byte	0x51
 11922 1159 08000000 		.4byte	.LVL310
 11923 115d 14000000 		.4byte	.LFE181
 11924 1161 0400     		.2byte	0x4
 11925 1163 F3       		.byte	0xf3
 11926 1164 01       		.uleb128 0x1
 11927 1165 51       		.byte	0x51
 11928 1166 9F       		.byte	0x9f
 11929 1167 00000000 		.4byte	0
 11930 116b 00000000 		.4byte	0
 11931              	.LLST122:
 11932 116f 00000000 		.4byte	.LVL312
 11933 1173 0B000000 		.4byte	.LVL314-1
 11934 1177 0100     		.2byte	0x1
 11935 1179 50       		.byte	0x50
 11936 117a 0B000000 		.4byte	.LVL314-1
 11937 117e 14000000 		.4byte	.LFE182
 11938 1182 0400     		.2byte	0x4
 11939 1184 F3       		.byte	0xf3
 11940 1185 01       		.uleb128 0x1
 11941 1186 50       		.byte	0x50
 11942 1187 9F       		.byte	0x9f
 11943 1188 00000000 		.4byte	0
 11944 118c 00000000 		.4byte	0
 11945              	.LLST123:
 11946 1190 00000000 		.4byte	.LVL312
 11947 1194 08000000 		.4byte	.LVL313
 11948 1198 0100     		.2byte	0x1
 11949 119a 51       		.byte	0x51
 11950 119b 08000000 		.4byte	.LVL313
 11951 119f 14000000 		.4byte	.LFE182
 11952 11a3 0400     		.2byte	0x4
 11953 11a5 F3       		.byte	0xf3
 11954 11a6 01       		.uleb128 0x1
 11955 11a7 51       		.byte	0x51
 11956 11a8 9F       		.byte	0x9f
 11957 11a9 00000000 		.4byte	0
ARM GAS  C:\Users\haske\AppData\Local\Temp\ccVRp2Ta.s 			page 242


 11958 11ad 00000000 		.4byte	0
 11959              	.LLST124:
 11960 11b1 00000000 		.4byte	.LVL315
 11961 11b5 0B000000 		.4byte	.LVL317-1
 11962 11b9 0100     		.2byte	0x1
 11963 11bb 50       		.byte	0x50
 11964 11bc 0B000000 		.4byte	.LVL317-1
 11965 11c0 14000000 		.4byte	.LFE183
 11966 11c4 0400     		.2byte	0x4
 11967 11c6 F3       		.byte	0xf3
 11968 11c7 01       		.uleb128 0x1
 11969 11c8 50       		.byte	0x50
 11970 11c9 9F       		.byte	0x9f
 11971 11ca 00000000 		.4byte	0
 11972 11ce 00000000 		.4byte	0
 11973              	.LLST125:
 11974 11d2 00000000 		.4byte	.LVL315
 11975 11d6 08000000 		.4byte	.LVL316
 11976 11da 0100     		.2byte	0x1
 11977 11dc 51       		.byte	0x51
 11978 11dd 08000000 		.4byte	.LVL316
 11979 11e1 14000000 		.4byte	.LFE183
 11980 11e5 0400     		.2byte	0x4
 11981 11e7 F3       		.byte	0xf3
 11982 11e8 01       		.uleb128 0x1
 11983 11e9 51       		.byte	0x51
 11984 11ea 9F       		.byte	0x9f
 11985 11eb 00000000 		.4byte	0
 11986 11ef 00000000 		.4byte	0
 11987              	.LLST126:
 11988 11f3 00000000 		.4byte	.LVL318
 11989 11f7 0F000000 		.4byte	.LVL321-1
 11990 11fb 0100     		.2byte	0x1
 11991 11fd 50       		.byte	0x50
 11992 11fe 0F000000 		.4byte	.LVL321-1
 11993 1202 18000000 		.4byte	.LFE184
 11994 1206 0400     		.2byte	0x4
 11995 1208 F3       		.byte	0xf3
 11996 1209 01       		.uleb128 0x1
 11997 120a 50       		.byte	0x50
 11998 120b 9F       		.byte	0x9f
 11999 120c 00000000 		.4byte	0
 12000 1210 00000000 		.4byte	0
 12001              	.LLST127:
 12002 1214 00000000 		.4byte	.LVL318
 12003 1218 0A000000 		.4byte	.LVL320
 12004 121c 0100     		.2byte	0x1
 12005 121e 51       		.byte	0x51
 12006 121f 0A000000 		.4byte	.LVL320
 12007 1223 18000000 		.4byte	.LFE184
 12008 1227 0400     		.2byte	0x4
 12009 1229 F3       		.byte	0xf3
 12010 122a 01       		.uleb128 0x1
 12011 122b 51       		.byte	0x51
 12012 122c 9F       		.byte	0x9f
 12013 122d 00000000 		.4byte	0
 12014 1231 00000000 		.4byte	0
ARM GAS  C:\Users\haske\AppData\Local\Temp\ccVRp2Ta.s 			page 243


 12015              	.LLST128:
 12016 1235 00000000 		.4byte	.LVL318
 12017 1239 08000000 		.4byte	.LVL319
 12018 123d 0100     		.2byte	0x1
 12019 123f 52       		.byte	0x52
 12020 1240 08000000 		.4byte	.LVL319
 12021 1244 0F000000 		.4byte	.LVL321-1
 12022 1248 0100     		.2byte	0x1
 12023 124a 53       		.byte	0x53
 12024 124b 0F000000 		.4byte	.LVL321-1
 12025 124f 18000000 		.4byte	.LFE184
 12026 1253 0400     		.2byte	0x4
 12027 1255 F3       		.byte	0xf3
 12028 1256 01       		.uleb128 0x1
 12029 1257 52       		.byte	0x52
 12030 1258 9F       		.byte	0x9f
 12031 1259 00000000 		.4byte	0
 12032 125d 00000000 		.4byte	0
 12033              	.LLST129:
 12034 1261 00000000 		.4byte	.LVL322
 12035 1265 09000000 		.4byte	.LVL323-1
 12036 1269 0100     		.2byte	0x1
 12037 126b 50       		.byte	0x50
 12038 126c 09000000 		.4byte	.LVL323-1
 12039 1270 16000000 		.4byte	.LVL325
 12040 1274 0100     		.2byte	0x1
 12041 1276 54       		.byte	0x54
 12042 1277 16000000 		.4byte	.LVL325
 12043 127b 1C000000 		.4byte	.LFE176
 12044 127f 0400     		.2byte	0x4
 12045 1281 F3       		.byte	0xf3
 12046 1282 01       		.uleb128 0x1
 12047 1283 50       		.byte	0x50
 12048 1284 9F       		.byte	0x9f
 12049 1285 00000000 		.4byte	0
 12050 1289 00000000 		.4byte	0
 12051              	.LLST130:
 12052 128d 00000000 		.4byte	.LVL322
 12053 1291 09000000 		.4byte	.LVL323-1
 12054 1295 0100     		.2byte	0x1
 12055 1297 51       		.byte	0x51
 12056 1298 09000000 		.4byte	.LVL323-1
 12057 129c 1C000000 		.4byte	.LFE176
 12058 12a0 0400     		.2byte	0x4
 12059 12a2 F3       		.byte	0xf3
 12060 12a3 01       		.uleb128 0x1
 12061 12a4 51       		.byte	0x51
 12062 12a5 9F       		.byte	0x9f
 12063 12a6 00000000 		.4byte	0
 12064 12aa 00000000 		.4byte	0
 12065              	.LLST131:
 12066 12ae 00000000 		.4byte	.LVL326
 12067 12b2 0F000000 		.4byte	.LVL329-1
 12068 12b6 0100     		.2byte	0x1
 12069 12b8 50       		.byte	0x50
 12070 12b9 0F000000 		.4byte	.LVL329-1
 12071 12bd 18000000 		.4byte	.LFE185
ARM GAS  C:\Users\haske\AppData\Local\Temp\ccVRp2Ta.s 			page 244


 12072 12c1 0400     		.2byte	0x4
 12073 12c3 F3       		.byte	0xf3
 12074 12c4 01       		.uleb128 0x1
 12075 12c5 50       		.byte	0x50
 12076 12c6 9F       		.byte	0x9f
 12077 12c7 00000000 		.4byte	0
 12078 12cb 00000000 		.4byte	0
 12079              	.LLST132:
 12080 12cf 00000000 		.4byte	.LVL326
 12081 12d3 0A000000 		.4byte	.LVL328
 12082 12d7 0100     		.2byte	0x1
 12083 12d9 51       		.byte	0x51
 12084 12da 0A000000 		.4byte	.LVL328
 12085 12de 18000000 		.4byte	.LFE185
 12086 12e2 0400     		.2byte	0x4
 12087 12e4 F3       		.byte	0xf3
 12088 12e5 01       		.uleb128 0x1
 12089 12e6 51       		.byte	0x51
 12090 12e7 9F       		.byte	0x9f
 12091 12e8 00000000 		.4byte	0
 12092 12ec 00000000 		.4byte	0
 12093              	.LLST133:
 12094 12f0 00000000 		.4byte	.LVL326
 12095 12f4 08000000 		.4byte	.LVL327
 12096 12f8 0100     		.2byte	0x1
 12097 12fa 52       		.byte	0x52
 12098 12fb 08000000 		.4byte	.LVL327
 12099 12ff 0F000000 		.4byte	.LVL329-1
 12100 1303 0100     		.2byte	0x1
 12101 1305 53       		.byte	0x53
 12102 1306 0F000000 		.4byte	.LVL329-1
 12103 130a 18000000 		.4byte	.LFE185
 12104 130e 0400     		.2byte	0x4
 12105 1310 F3       		.byte	0xf3
 12106 1311 01       		.uleb128 0x1
 12107 1312 52       		.byte	0x52
 12108 1313 9F       		.byte	0x9f
 12109 1314 00000000 		.4byte	0
 12110 1318 00000000 		.4byte	0
 12111              	.LLST134:
 12112 131c 00000000 		.4byte	.LVL330
 12113 1320 0F000000 		.4byte	.LVL333-1
 12114 1324 0100     		.2byte	0x1
 12115 1326 50       		.byte	0x50
 12116 1327 0F000000 		.4byte	.LVL333-1
 12117 132b 18000000 		.4byte	.LFE186
 12118 132f 0400     		.2byte	0x4
 12119 1331 F3       		.byte	0xf3
 12120 1332 01       		.uleb128 0x1
 12121 1333 50       		.byte	0x50
 12122 1334 9F       		.byte	0x9f
 12123 1335 00000000 		.4byte	0
 12124 1339 00000000 		.4byte	0
 12125              	.LLST135:
 12126 133d 00000000 		.4byte	.LVL330
 12127 1341 0A000000 		.4byte	.LVL332
 12128 1345 0100     		.2byte	0x1
ARM GAS  C:\Users\haske\AppData\Local\Temp\ccVRp2Ta.s 			page 245


 12129 1347 51       		.byte	0x51
 12130 1348 0A000000 		.4byte	.LVL332
 12131 134c 18000000 		.4byte	.LFE186
 12132 1350 0400     		.2byte	0x4
 12133 1352 F3       		.byte	0xf3
 12134 1353 01       		.uleb128 0x1
 12135 1354 51       		.byte	0x51
 12136 1355 9F       		.byte	0x9f
 12137 1356 00000000 		.4byte	0
 12138 135a 00000000 		.4byte	0
 12139              	.LLST136:
 12140 135e 00000000 		.4byte	.LVL330
 12141 1362 08000000 		.4byte	.LVL331
 12142 1366 0100     		.2byte	0x1
 12143 1368 52       		.byte	0x52
 12144 1369 08000000 		.4byte	.LVL331
 12145 136d 0F000000 		.4byte	.LVL333-1
 12146 1371 0100     		.2byte	0x1
 12147 1373 53       		.byte	0x53
 12148 1374 0F000000 		.4byte	.LVL333-1
 12149 1378 18000000 		.4byte	.LFE186
 12150 137c 0400     		.2byte	0x4
 12151 137e F3       		.byte	0xf3
 12152 137f 01       		.uleb128 0x1
 12153 1380 52       		.byte	0x52
 12154 1381 9F       		.byte	0x9f
 12155 1382 00000000 		.4byte	0
 12156 1386 00000000 		.4byte	0
 12157              	.LLST137:
 12158 138a 00000000 		.4byte	.LVL334
 12159 138e 0F000000 		.4byte	.LVL337-1
 12160 1392 0100     		.2byte	0x1
 12161 1394 50       		.byte	0x50
 12162 1395 0F000000 		.4byte	.LVL337-1
 12163 1399 18000000 		.4byte	.LFE187
 12164 139d 0400     		.2byte	0x4
 12165 139f F3       		.byte	0xf3
 12166 13a0 01       		.uleb128 0x1
 12167 13a1 50       		.byte	0x50
 12168 13a2 9F       		.byte	0x9f
 12169 13a3 00000000 		.4byte	0
 12170 13a7 00000000 		.4byte	0
 12171              	.LLST138:
 12172 13ab 00000000 		.4byte	.LVL334
 12173 13af 0A000000 		.4byte	.LVL336
 12174 13b3 0100     		.2byte	0x1
 12175 13b5 51       		.byte	0x51
 12176 13b6 0A000000 		.4byte	.LVL336
 12177 13ba 18000000 		.4byte	.LFE187
 12178 13be 0400     		.2byte	0x4
 12179 13c0 F3       		.byte	0xf3
 12180 13c1 01       		.uleb128 0x1
 12181 13c2 51       		.byte	0x51
 12182 13c3 9F       		.byte	0x9f
 12183 13c4 00000000 		.4byte	0
 12184 13c8 00000000 		.4byte	0
 12185              	.LLST139:
ARM GAS  C:\Users\haske\AppData\Local\Temp\ccVRp2Ta.s 			page 246


 12186 13cc 00000000 		.4byte	.LVL334
 12187 13d0 08000000 		.4byte	.LVL335
 12188 13d4 0100     		.2byte	0x1
 12189 13d6 52       		.byte	0x52
 12190 13d7 08000000 		.4byte	.LVL335
 12191 13db 0F000000 		.4byte	.LVL337-1
 12192 13df 0100     		.2byte	0x1
 12193 13e1 53       		.byte	0x53
 12194 13e2 0F000000 		.4byte	.LVL337-1
 12195 13e6 18000000 		.4byte	.LFE187
 12196 13ea 0400     		.2byte	0x4
 12197 13ec F3       		.byte	0xf3
 12198 13ed 01       		.uleb128 0x1
 12199 13ee 52       		.byte	0x52
 12200 13ef 9F       		.byte	0x9f
 12201 13f0 00000000 		.4byte	0
 12202 13f4 00000000 		.4byte	0
 12203              	.LLST140:
 12204 13f8 00000000 		.4byte	.LVL338
 12205 13fc 0D000000 		.4byte	.LVL340-1
 12206 1400 0100     		.2byte	0x1
 12207 1402 50       		.byte	0x50
 12208 1403 0D000000 		.4byte	.LVL340-1
 12209 1407 2E000000 		.4byte	.LVL344
 12210 140b 0100     		.2byte	0x1
 12211 140d 54       		.byte	0x54
 12212 140e 2E000000 		.4byte	.LVL344
 12213 1412 34000000 		.4byte	.LFE177
 12214 1416 0400     		.2byte	0x4
 12215 1418 F3       		.byte	0xf3
 12216 1419 01       		.uleb128 0x1
 12217 141a 50       		.byte	0x50
 12218 141b 9F       		.byte	0x9f
 12219 141c 00000000 		.4byte	0
 12220 1420 00000000 		.4byte	0
 12221              	.LLST141:
 12222 1424 00000000 		.4byte	.LVL338
 12223 1428 0D000000 		.4byte	.LVL340-1
 12224 142c 0100     		.2byte	0x1
 12225 142e 51       		.byte	0x51
 12226 142f 0D000000 		.4byte	.LVL340-1
 12227 1433 34000000 		.4byte	.LFE177
 12228 1437 0400     		.2byte	0x4
 12229 1439 F3       		.byte	0xf3
 12230 143a 01       		.uleb128 0x1
 12231 143b 51       		.byte	0x51
 12232 143c 9F       		.byte	0x9f
 12233 143d 00000000 		.4byte	0
 12234 1441 00000000 		.4byte	0
 12235              	.LLST142:
 12236 1445 00000000 		.4byte	.LVL338
 12237 1449 0A000000 		.4byte	.LVL339
 12238 144d 0100     		.2byte	0x1
 12239 144f 52       		.byte	0x52
 12240 1450 0A000000 		.4byte	.LVL339
 12241 1454 34000000 		.4byte	.LFE177
 12242 1458 0400     		.2byte	0x4
ARM GAS  C:\Users\haske\AppData\Local\Temp\ccVRp2Ta.s 			page 247


 12243 145a F3       		.byte	0xf3
 12244 145b 01       		.uleb128 0x1
 12245 145c 52       		.byte	0x52
 12246 145d 9F       		.byte	0x9f
 12247 145e 00000000 		.4byte	0
 12248 1462 00000000 		.4byte	0
 12249              	.LLST143:
 12250 1466 00000000 		.4byte	.LVL338
 12251 146a 0D000000 		.4byte	.LVL340-1
 12252 146e 0100     		.2byte	0x1
 12253 1470 53       		.byte	0x53
 12254 1471 0D000000 		.4byte	.LVL340-1
 12255 1475 34000000 		.4byte	.LFE177
 12256 1479 0400     		.2byte	0x4
 12257 147b F3       		.byte	0xf3
 12258 147c 01       		.uleb128 0x1
 12259 147d 53       		.byte	0x53
 12260 147e 9F       		.byte	0x9f
 12261 147f 00000000 		.4byte	0
 12262 1483 00000000 		.4byte	0
 12263              	.LLST144:
 12264 1487 00000000 		.4byte	.LVL345
 12265 148b 0F000000 		.4byte	.LVL348-1
 12266 148f 0100     		.2byte	0x1
 12267 1491 50       		.byte	0x50
 12268 1492 0F000000 		.4byte	.LVL348-1
 12269 1496 18000000 		.4byte	.LFE188
 12270 149a 0400     		.2byte	0x4
 12271 149c F3       		.byte	0xf3
 12272 149d 01       		.uleb128 0x1
 12273 149e 50       		.byte	0x50
 12274 149f 9F       		.byte	0x9f
 12275 14a0 00000000 		.4byte	0
 12276 14a4 00000000 		.4byte	0
 12277              	.LLST145:
 12278 14a8 00000000 		.4byte	.LVL345
 12279 14ac 0A000000 		.4byte	.LVL347
 12280 14b0 0100     		.2byte	0x1
 12281 14b2 51       		.byte	0x51
 12282 14b3 0A000000 		.4byte	.LVL347
 12283 14b7 18000000 		.4byte	.LFE188
 12284 14bb 0400     		.2byte	0x4
 12285 14bd F3       		.byte	0xf3
 12286 14be 01       		.uleb128 0x1
 12287 14bf 51       		.byte	0x51
 12288 14c0 9F       		.byte	0x9f
 12289 14c1 00000000 		.4byte	0
 12290 14c5 00000000 		.4byte	0
 12291              	.LLST146:
 12292 14c9 00000000 		.4byte	.LVL345
 12293 14cd 08000000 		.4byte	.LVL346
 12294 14d1 0100     		.2byte	0x1
 12295 14d3 52       		.byte	0x52
 12296 14d4 08000000 		.4byte	.LVL346
 12297 14d8 0F000000 		.4byte	.LVL348-1
 12298 14dc 0100     		.2byte	0x1
 12299 14de 53       		.byte	0x53
ARM GAS  C:\Users\haske\AppData\Local\Temp\ccVRp2Ta.s 			page 248


 12300 14df 0F000000 		.4byte	.LVL348-1
 12301 14e3 18000000 		.4byte	.LFE188
 12302 14e7 0400     		.2byte	0x4
 12303 14e9 F3       		.byte	0xf3
 12304 14ea 01       		.uleb128 0x1
 12305 14eb 52       		.byte	0x52
 12306 14ec 9F       		.byte	0x9f
 12307 14ed 00000000 		.4byte	0
 12308 14f1 00000000 		.4byte	0
 12309              	.LLST147:
 12310 14f5 00000000 		.4byte	.LVL349
 12311 14f9 09000000 		.4byte	.LVL350-1
 12312 14fd 0100     		.2byte	0x1
 12313 14ff 50       		.byte	0x50
 12314 1500 09000000 		.4byte	.LVL350-1
 12315 1504 14000000 		.4byte	.LVL353
 12316 1508 0100     		.2byte	0x1
 12317 150a 54       		.byte	0x54
 12318 150b 14000000 		.4byte	.LVL353
 12319 150f 16000000 		.4byte	.LFE178
 12320 1513 0400     		.2byte	0x4
 12321 1515 F3       		.byte	0xf3
 12322 1516 01       		.uleb128 0x1
 12323 1517 50       		.byte	0x50
 12324 1518 9F       		.byte	0x9f
 12325 1519 00000000 		.4byte	0
 12326 151d 00000000 		.4byte	0
 12327              	.LLST148:
 12328 1521 00000000 		.4byte	.LVL349
 12329 1525 09000000 		.4byte	.LVL350-1
 12330 1529 0100     		.2byte	0x1
 12331 152b 51       		.byte	0x51
 12332 152c 09000000 		.4byte	.LVL350-1
 12333 1530 16000000 		.4byte	.LFE178
 12334 1534 0400     		.2byte	0x4
 12335 1536 F3       		.byte	0xf3
 12336 1537 01       		.uleb128 0x1
 12337 1538 51       		.byte	0x51
 12338 1539 9F       		.byte	0x9f
 12339 153a 00000000 		.4byte	0
 12340 153e 00000000 		.4byte	0
 12341              		.section	.debug_aranges,"",%progbits
 12342 0000 BC000000 		.4byte	0xbc
 12343 0004 0200     		.2byte	0x2
 12344 0006 00000000 		.4byte	.Ldebug_info0
 12345 000a 04       		.byte	0x4
 12346 000b 00       		.byte	0
 12347 000c 0000     		.2byte	0
 12348 000e 0000     		.2byte	0
 12349 0010 00000000 		.4byte	.LFB1
 12350 0014 10000000 		.4byte	.LFE1-.LFB1
 12351 0018 00000000 		.4byte	.LFB2
 12352 001c 10000000 		.4byte	.LFE2-.LFB2
 12353 0020 00000000 		.4byte	.LFB192
 12354 0024 AC000000 		.4byte	.LFE192-.LFB192
 12355 0028 00000000 		.4byte	.LFB193
 12356 002c 36000000 		.4byte	.LFE193-.LFB193
ARM GAS  C:\Users\haske\AppData\Local\Temp\ccVRp2Ta.s 			page 249


 12357 0030 00000000 		.4byte	.LFB190
 12358 0034 94020000 		.4byte	.LFE190-.LFB190
 12359 0038 00000000 		.4byte	.LFB191
 12360 003c B8040000 		.4byte	.LFE191-.LFB191
 12361 0040 00000000 		.4byte	.LFB189
 12362 0044 D0030000 		.4byte	.LFE189-.LFB189
 12363 0048 00000000 		.4byte	.LFB175
 12364 004c 50000000 		.4byte	.LFE175-.LFB175
 12365 0050 00000000 		.4byte	.LFB179
 12366 0054 14000000 		.4byte	.LFE179-.LFB179
 12367 0058 00000000 		.4byte	.LFB180
 12368 005c 14000000 		.4byte	.LFE180-.LFB180
 12369 0060 00000000 		.4byte	.LFB181
 12370 0064 14000000 		.4byte	.LFE181-.LFB181
 12371 0068 00000000 		.4byte	.LFB182
 12372 006c 14000000 		.4byte	.LFE182-.LFB182
 12373 0070 00000000 		.4byte	.LFB183
 12374 0074 14000000 		.4byte	.LFE183-.LFB183
 12375 0078 00000000 		.4byte	.LFB184
 12376 007c 18000000 		.4byte	.LFE184-.LFB184
 12377 0080 00000000 		.4byte	.LFB176
 12378 0084 1C000000 		.4byte	.LFE176-.LFB176
 12379 0088 00000000 		.4byte	.LFB185
 12380 008c 18000000 		.4byte	.LFE185-.LFB185
 12381 0090 00000000 		.4byte	.LFB186
 12382 0094 18000000 		.4byte	.LFE186-.LFB186
 12383 0098 00000000 		.4byte	.LFB187
 12384 009c 18000000 		.4byte	.LFE187-.LFB187
 12385 00a0 00000000 		.4byte	.LFB177
 12386 00a4 34000000 		.4byte	.LFE177-.LFB177
 12387 00a8 00000000 		.4byte	.LFB188
 12388 00ac 18000000 		.4byte	.LFE188-.LFB188
 12389 00b0 00000000 		.4byte	.LFB178
 12390 00b4 16000000 		.4byte	.LFE178-.LFB178
 12391 00b8 00000000 		.4byte	0
 12392 00bc 00000000 		.4byte	0
 12393              		.section	.debug_ranges,"",%progbits
 12394              	.Ldebug_ranges0:
 12395 0000 DA010000 		.4byte	.LBB88
 12396 0004 F8010000 		.4byte	.LBE88
 12397 0008 FC010000 		.4byte	.LBB92
 12398 000c 8E020000 		.4byte	.LBE92
 12399 0010 00000000 		.4byte	0
 12400 0014 00000000 		.4byte	0
 12401 0018 00000000 		.4byte	.LFB1
 12402 001c 10000000 		.4byte	.LFE1
 12403 0020 00000000 		.4byte	.LFB2
 12404 0024 10000000 		.4byte	.LFE2
 12405 0028 00000000 		.4byte	.LFB192
 12406 002c AC000000 		.4byte	.LFE192
 12407 0030 00000000 		.4byte	.LFB193
 12408 0034 36000000 		.4byte	.LFE193
 12409 0038 00000000 		.4byte	.LFB190
 12410 003c 94020000 		.4byte	.LFE190
 12411 0040 00000000 		.4byte	.LFB191
 12412 0044 B8040000 		.4byte	.LFE191
 12413 0048 00000000 		.4byte	.LFB189
ARM GAS  C:\Users\haske\AppData\Local\Temp\ccVRp2Ta.s 			page 250


 12414 004c D0030000 		.4byte	.LFE189
 12415 0050 00000000 		.4byte	.LFB175
 12416 0054 50000000 		.4byte	.LFE175
 12417 0058 00000000 		.4byte	.LFB179
 12418 005c 14000000 		.4byte	.LFE179
 12419 0060 00000000 		.4byte	.LFB180
 12420 0064 14000000 		.4byte	.LFE180
 12421 0068 00000000 		.4byte	.LFB181
 12422 006c 14000000 		.4byte	.LFE181
 12423 0070 00000000 		.4byte	.LFB182
 12424 0074 14000000 		.4byte	.LFE182
 12425 0078 00000000 		.4byte	.LFB183
 12426 007c 14000000 		.4byte	.LFE183
 12427 0080 00000000 		.4byte	.LFB184
 12428 0084 18000000 		.4byte	.LFE184
 12429 0088 00000000 		.4byte	.LFB176
 12430 008c 1C000000 		.4byte	.LFE176
 12431 0090 00000000 		.4byte	.LFB185
 12432 0094 18000000 		.4byte	.LFE185
 12433 0098 00000000 		.4byte	.LFB186
 12434 009c 18000000 		.4byte	.LFE186
 12435 00a0 00000000 		.4byte	.LFB187
 12436 00a4 18000000 		.4byte	.LFE187
 12437 00a8 00000000 		.4byte	.LFB177
 12438 00ac 34000000 		.4byte	.LFE177
 12439 00b0 00000000 		.4byte	.LFB188
 12440 00b4 18000000 		.4byte	.LFE188
 12441 00b8 00000000 		.4byte	.LFB178
 12442 00bc 16000000 		.4byte	.LFE178
 12443 00c0 00000000 		.4byte	0
 12444 00c4 00000000 		.4byte	0
 12445              		.section	.debug_line,"",%progbits
 12446              	.Ldebug_line0:
 12447 0000 CC090000 		.section	.debug_str,"MS",%progbits,1
 12447      0200F003 
 12447      00000201 
 12447      FB0E0D00 
 12447      01010101 
 12448              	.LASF325:
 12449 0000 4C565F46 		.ascii	"LV_FLEX_ALIGN_END\000"
 12449      4C45585F 
 12449      414C4947 
 12449      4E5F454E 
 12449      4400
 12450              	.LASF158:
 12451 0012 70726F70 		.ascii	"prop_cnt\000"
 12451      5F636E74 
 12451      00
 12452              	.LASF15:
 12453 001b 696E7438 		.ascii	"int8_t\000"
 12453      5F7400
 12454              	.LASF129:
 12455 0022 4C565F53 		.ascii	"LV_STYLE_OPA\000"
 12455      54594C45 
 12455      5F4F5041 
 12455      00
 12456              	.LASF175:
ARM GAS  C:\Users\haske\AppData\Local\Temp\ccVRp2Ta.s 			page 251


 12457 002f 6C765F6C 		.ascii	"lv_ll_node_t\000"
 12457      6C5F6E6F 
 12457      64655F74 
 12457      00
 12458              	.LASF27:
 12459 003c 6164765F 		.ascii	"adv_w\000"
 12459      7700
 12460              	.LASF45:
 12461 0042 73697A65 		.ascii	"sizetype\000"
 12461      74797065 
 12461      00
 12462              	.LASF411:
 12463 004b 67726F77 		.ascii	"grow_value_sum\000"
 12463      5F76616C 
 12463      75655F73 
 12463      756D00
 12464              	.LASF278:
 12465 005a 4C565F45 		.ascii	"LV_EVENT_DRAW_MAIN_BEGIN\000"
 12465      56454E54 
 12465      5F445241 
 12465      575F4D41 
 12465      494E5F42 
 12466              	.LASF395:
 12467 0073 6765745F 		.ascii	"get_main_size\000"
 12467      6D61696E 
 12467      5F73697A 
 12467      6500
 12468              	.LASF232:
 12469 0081 6C765F73 		.ascii	"lv_style_selector_t\000"
 12469      74796C65 
 12469      5F73656C 
 12469      6563746F 
 12469      725F7400 
 12470              	.LASF113:
 12471 0095 4C565F53 		.ascii	"LV_STYLE_LINE_DASH_GAP\000"
 12471      54594C45 
 12471      5F4C494E 
 12471      455F4441 
 12471      53485F47 
 12472              	.LASF482:
 12473 00ac 6C765F6F 		.ascii	"lv_obj_refr_size\000"
 12473      626A5F72 
 12473      6566725F 
 12473      73697A65 
 12473      00
 12474              	.LASF385:
 12475 00bd 73746172 		.ascii	"start_pos\000"
 12475      745F706F 
 12475      7300
 12476              	.LASF178:
 12477 00c7 7461696C 		.ascii	"tail\000"
 12477      00
 12478              	.LASF400:
 12479 00cc 6368696C 		.ascii	"children_repos\000"
 12479      6472656E 
 12479      5F726570 
 12479      6F7300
ARM GAS  C:\Users\haske\AppData\Local\Temp\ccVRp2Ta.s 			page 252


 12480              	.LASF120:
 12481 00db 4C565F53 		.ascii	"LV_STYLE_ARC_OPA\000"
 12481      54594C45 
 12481      5F415243 
 12481      5F4F5041 
 12481      00
 12482              	.LASF19:
 12483 00ec 696E7433 		.ascii	"int32_t\000"
 12483      325F7400 
 12484              	.LASF398:
 12485 00f4 6974656D 		.ascii	"item_size\000"
 12485      5F73697A 
 12485      6500
 12486              	.LASF230:
 12487 00fe 6C765F73 		.ascii	"lv_scrollbar_mode_t\000"
 12487      63726F6C 
 12487      6C626172 
 12487      5F6D6F64 
 12487      655F7400 
 12488              	.LASF345:
 12489 0112 6D696E5F 		.ascii	"min_size\000"
 12489      73697A65 
 12489      00
 12490              	.LASF157:
 12491 011b 6861735F 		.ascii	"has_group\000"
 12491      67726F75 
 12491      7000
 12492              	.LASF287:
 12493 0125 4C565F45 		.ascii	"LV_EVENT_INSERT\000"
 12493      56454E54 
 12493      5F494E53 
 12493      45525400 
 12494              	.LASF23:
 12495 0135 6C765F70 		.ascii	"lv_point_t\000"
 12495      6F696E74 
 12495      5F7400
 12496              	.LASF462:
 12497 0140 4C565F53 		.ascii	"LV_STYLE_GRID_CELL_ROW_POS\000"
 12497      54594C45 
 12497      5F475249 
 12497      445F4345 
 12497      4C4C5F52 
 12498              	.LASF35:
 12499 015b 6C696E65 		.ascii	"line_height\000"
 12499      5F686569 
 12499      67687400 
 12500              	.LASF367:
 12501 0167 6C765F6F 		.ascii	"lv_obj_get_style_base_dir\000"
 12501      626A5F67 
 12501      65745F73 
 12501      74796C65 
 12501      5F626173 
 12502              	.LASF424:
 12503 0181 666C6F77 		.ascii	"flow\000"
 12503      00
 12504              	.LASF467:
 12505 0186 6C765F6D 		.ascii	"lv_memcpy\000"
ARM GAS  C:\Users\haske\AppData\Local\Temp\ccVRp2Ta.s 			page 253


 12505      656D6370 
 12505      7900
 12506              	.LASF412:
 12507 0190 67726F77 		.ascii	"grow_max_size\000"
 12507      5F6D6178 
 12507      5F73697A 
 12507      6500
 12508              	.LASF164:
 12509 019e 73706563 		.ascii	"spec_attr\000"
 12509      5F617474 
 12509      7200
 12510              	.LASF317:
 12511 01a8 7363726F 		.ascii	"scroll_snap_x\000"
 12511      6C6C5F73 
 12511      6E61705F 
 12511      7800
 12512              	.LASF384:
 12513 01b6 636F6E74 		.ascii	"content_size\000"
 12513      656E745F 
 12513      73697A65 
 12513      00
 12514              	.LASF292:
 12515 01c3 4C565F45 		.ascii	"LV_EVENT_CHILD_CHANGED\000"
 12515      56454E54 
 12515      5F434849 
 12515      4C445F43 
 12515      48414E47 
 12516              	.LASF168:
 12517 01da 73746174 		.ascii	"state\000"
 12517      6500
 12518              	.LASF64:
 12519 01e0 4C565F53 		.ascii	"LV_STYLE_HEIGHT\000"
 12519      54594C45 
 12519      5F484549 
 12519      47485400 
 12520              	.LASF235:
 12521 01f0 69735F6C 		.ascii	"is_local\000"
 12521      6F63616C 
 12521      00
 12522              	.LASF84:
 12523 01f9 4C565F53 		.ascii	"LV_STYLE_BG_MAIN_STOP\000"
 12523      54594C45 
 12523      5F42475F 
 12523      4D41494E 
 12523      5F53544F 
 12524              	.LASF240:
 12525 020f 636F6E73 		.ascii	"constructor_cb\000"
 12525      74727563 
 12525      746F725F 
 12525      636200
 12526              	.LASF314:
 12527 021e 6578745F 		.ascii	"ext_click_pad\000"
 12527      636C6963 
 12527      6B5F7061 
 12527      6400
 12528              	.LASF145:
 12529 022c 5F4C565F 		.ascii	"_LV_STYLE_LAST_BUILT_IN_PROP\000"
ARM GAS  C:\Users\haske\AppData\Local\Temp\ccVRp2Ta.s 			page 254


 12529      5354594C 
 12529      455F4C41 
 12529      53545F42 
 12529      55494C54 
 12530              	.LASF475:
 12531 0249 6C765F6F 		.ascii	"lv_obj_get_width\000"
 12531      626A5F67 
 12531      65745F77 
 12531      69647468 
 12531      00
 12532              	.LASF454:
 12533 025a 4C565F53 		.ascii	"LV_STYLE_FLEX_GROW\000"
 12533      54594C45 
 12533      5F464C45 
 12533      585F4752 
 12533      4F5700
 12534              	.LASF270:
 12535 026d 4C565F45 		.ascii	"LV_EVENT_GESTURE\000"
 12535      56454E54 
 12535      5F474553 
 12535      54555245 
 12535      00
 12536              	.LASF263:
 12537 027e 4C565F45 		.ascii	"LV_EVENT_LONG_PRESSED\000"
 12537      56454E54 
 12537      5F4C4F4E 
 12537      475F5052 
 12537      45535345 
 12538              	.LASF95:
 12539 0294 4C565F53 		.ascii	"LV_STYLE_BORDER_WIDTH\000"
 12539      54594C45 
 12539      5F424F52 
 12539      4445525F 
 12539      57494454 
 12540              	.LASF293:
 12541 02aa 4C565F45 		.ascii	"LV_EVENT_CHILD_CREATED\000"
 12541      56454E54 
 12541      5F434849 
 12541      4C445F43 
 12541      52454154 
 12542              	.LASF77:
 12543 02c1 4C565F53 		.ascii	"LV_STYLE_PAD_COLUMN\000"
 12543      54594C45 
 12543      5F504144 
 12543      5F434F4C 
 12543      554D4E00 
 12544              	.LASF387:
 12545 02d5 636F6E74 		.ascii	"cont\000"
 12545      00
 12546              	.LASF456:
 12547 02da 4C565F53 		.ascii	"LV_STYLE_GRID_COLUMN_ALIGN\000"
 12547      54594C45 
 12547      5F475249 
 12547      445F434F 
 12547      4C554D4E 
 12548              	.LASF349:
 12549 02f5 636C616D 		.ascii	"clamped\000"
ARM GAS  C:\Users\haske\AppData\Local\Temp\ccVRp2Ta.s 			page 255


 12549      70656400 
 12550              	.LASF406:
 12551 02fd 61726561 		.ascii	"area_get_main_size\000"
 12551      5F676574 
 12551      5F6D6169 
 12551      6E5F7369 
 12551      7A6500
 12552              	.LASF194:
 12553 0310 4C565F50 		.ascii	"LV_PART_SELECTED\000"
 12553      4152545F 
 12553      53454C45 
 12553      43544544 
 12553      00
 12554              	.LASF87:
 12555 0321 4C565F53 		.ascii	"LV_STYLE_BG_DITHER_MODE\000"
 12555      54594C45 
 12555      5F42475F 
 12555      44495448 
 12555      45525F4D 
 12556              	.LASF1:
 12557 0339 5F5F7569 		.ascii	"__uint8_t\000"
 12557      6E74385F 
 12557      7400
 12558              	.LASF174:
 12559 0343 775F6C61 		.ascii	"w_layout\000"
 12559      796F7574 
 12559      00
 12560              	.LASF71:
 12561 034c 4C565F53 		.ascii	"LV_STYLE_RADIUS\000"
 12561      54594C45 
 12561      5F524144 
 12561      49555300 
 12562              	.LASF170:
 12563 035c 7363725F 		.ascii	"scr_layout_inv\000"
 12563      6C61796F 
 12563      75745F69 
 12563      6E7600
 12564              	.LASF63:
 12565 036b 4C565F53 		.ascii	"LV_STYLE_MAX_WIDTH\000"
 12565      54594C45 
 12565      5F4D4158 
 12565      5F574944 
 12565      544800
 12566              	.LASF419:
 12567 037e 74725F79 		.ascii	"tr_y\000"
 12567      00
 12568              	.LASF90:
 12569 0383 4C565F53 		.ascii	"LV_STYLE_BG_IMG_RECOLOR\000"
 12569      54594C45 
 12569      5F42475F 
 12569      494D475F 
 12569      5245434F 
 12570              	.LASF107:
 12571 039b 4C565F53 		.ascii	"LV_STYLE_SHADOW_OPA\000"
 12571      54594C45 
 12571      5F534841 
 12571      444F575F 
ARM GAS  C:\Users\haske\AppData\Local\Temp\ccVRp2Ta.s 			page 256


 12571      4F504100 
 12572              	.LASF392:
 12573 03af 6974656D 		.ascii	"item_gap\000"
 12573      5F676170 
 12573      00
 12574              	.LASF327:
 12575 03b8 4C565F46 		.ascii	"LV_FLEX_ALIGN_SPACE_EVENLY\000"
 12575      4C45585F 
 12575      414C4947 
 12575      4E5F5350 
 12575      4143455F 
 12576              	.LASF451:
 12577 03d3 4C565F53 		.ascii	"LV_STYLE_FLEX_MAIN_PLACE\000"
 12577      54594C45 
 12577      5F464C45 
 12577      585F4D41 
 12577      494E5F50 
 12578              	.LASF138:
 12579 03ec 4C565F53 		.ascii	"LV_STYLE_TRANSFORM_HEIGHT\000"
 12579      54594C45 
 12579      5F545241 
 12579      4E53464F 
 12579      524D5F48 
 12580              	.LASF204:
 12581 0406 4C565F4F 		.ascii	"LV_OBJ_FLAG_SCROLLABLE\000"
 12581      424A5F46 
 12581      4C41475F 
 12581      5343524F 
 12581      4C4C4142 
 12582              	.LASF75:
 12583 041d 4C565F53 		.ascii	"LV_STYLE_PAD_RIGHT\000"
 12583      54594C45 
 12583      5F504144 
 12583      5F524947 
 12583      485400
 12584              	.LASF410:
 12585 0430 706C6163 		.ascii	"place_gap\000"
 12585      655F6761 
 12585      7000
 12586              	.LASF258:
 12587 043a 4C565F45 		.ascii	"LV_EVENT_ALL\000"
 12587      56454E54 
 12587      5F414C4C 
 12587      00
 12588              	.LASF485:
 12589 0447 6C765F73 		.ascii	"lv_style_set_prop\000"
 12589      74796C65 
 12589      5F736574 
 12589      5F70726F 
 12589      7000
 12590              	.LASF9:
 12591 0459 6C6F6E67 		.ascii	"long int\000"
 12591      20696E74 
 12591      00
 12592              	.LASF135:
 12593 0462 4C565F53 		.ascii	"LV_STYLE_TRANSITION\000"
 12593      54594C45 
ARM GAS  C:\Users\haske\AppData\Local\Temp\ccVRp2Ta.s 			page 257


 12593      5F545241 
 12593      4E534954 
 12593      494F4E00 
 12594              	.LASF319:
 12595 0476 7363726F 		.ascii	"scroll_dir\000"
 12595      6C6C5F64 
 12595      697200
 12596              	.LASF246:
 12597 0481 67726F75 		.ascii	"group_def\000"
 12597      705F6465 
 12597      6600
 12598              	.LASF91:
 12599 048b 4C565F53 		.ascii	"LV_STYLE_BG_IMG_RECOLOR_OPA\000"
 12599      54594C45 
 12599      5F42475F 
 12599      494D475F 
 12599      5245434F 
 12600              	.LASF189:
 12601 04a7 6C765F73 		.ascii	"lv_state_t\000"
 12601      74617465 
 12601      5F7400
 12602              	.LASF217:
 12603 04b2 4C565F4F 		.ascii	"LV_OBJ_FLAG_ADV_HITTEST\000"
 12603      424A5F46 
 12603      4C41475F 
 12603      4144565F 
 12603      48495454 
 12604              	.LASF386:
 12605 04ca 6765745F 		.ascii	"get_next_item\000"
 12605      6E657874 
 12605      5F697465 
 12605      6D00
 12606              	.LASF53:
 12607 04d8 4C565F42 		.ascii	"LV_BASE_DIR_RTL\000"
 12607      4153455F 
 12607      4449525F 
 12607      52544C00 
 12608              	.LASF212:
 12609 04e8 4C565F4F 		.ascii	"LV_OBJ_FLAG_SCROLL_WITH_ARROW\000"
 12609      424A5F46 
 12609      4C41475F 
 12609      5343524F 
 12609      4C4C5F57 
 12610              	.LASF184:
 12611 0506 65646765 		.ascii	"edge_cb\000"
 12611      5F636200 
 12612              	.LASF92:
 12613 050e 4C565F53 		.ascii	"LV_STYLE_BG_IMG_TILED\000"
 12613      54594C45 
 12613      5F42475F 
 12613      494D475F 
 12613      54494C45 
 12614              	.LASF382:
 12615 0524 61726561 		.ascii	"area_p\000"
 12615      5F7000
 12616              	.LASF177:
 12617 052b 68656164 		.ascii	"head\000"
ARM GAS  C:\Users\haske\AppData\Local\Temp\ccVRp2Ta.s 			page 258


 12617      00
 12618              	.LASF94:
 12619 0530 4C565F53 		.ascii	"LV_STYLE_BORDER_OPA\000"
 12619      54594C45 
 12619      5F424F52 
 12619      4445525F 
 12619      4F504100 
 12620              	.LASF285:
 12621 0544 4C565F45 		.ascii	"LV_EVENT_DRAW_PART_END\000"
 12621      56454E54 
 12621      5F445241 
 12621      575F5041 
 12621      52545F45 
 12622              	.LASF185:
 12623 055b 66726F7A 		.ascii	"frozen\000"
 12623      656E00
 12624              	.LASF378:
 12625 0562 6C765F6F 		.ascii	"lv_obj_get_style_pad_top\000"
 12625      626A5F67 
 12625      65745F73 
 12625      74796C65 
 12625      5F706164 
 12626              	.LASF460:
 12627 057b 4C565F53 		.ascii	"LV_STYLE_GRID_CELL_COLUMN_SPAN\000"
 12627      54594C45 
 12627      5F475249 
 12627      445F4345 
 12627      4C4C5F43 
 12628              	.LASF106:
 12629 059a 4C565F53 		.ascii	"LV_STYLE_SHADOW_COLOR\000"
 12629      54594C45 
 12629      5F534841 
 12629      444F575F 
 12629      434F4C4F 
 12630              	.LASF352:
 12631 05b0 74726163 		.ascii	"track_main_size\000"
 12631      6B5F6D61 
 12631      696E5F73 
 12631      697A6500 
 12632              	.LASF172:
 12633 05c0 7374796C 		.ascii	"style_cnt\000"
 12633      655F636E 
 12633      7400
 12634              	.LASF453:
 12635 05ca 4C565F53 		.ascii	"LV_STYLE_FLEX_TRACK_PLACE\000"
 12635      54594C45 
 12635      5F464C45 
 12635      585F5452 
 12635      41434B5F 
 12636              	.LASF169:
 12637 05e4 6C61796F 		.ascii	"layout_inv\000"
 12637      75745F69 
 12637      6E7600
 12638              	.LASF357:
 12639 05ef 67726F77 		.ascii	"grow_dsc_calc\000"
 12639      5F647363 
 12639      5F63616C 
ARM GAS  C:\Users\haske\AppData\Local\Temp\ccVRp2Ta.s 			page 259


 12639      6300
 12640              	.LASF2:
 12641 05fd 7369676E 		.ascii	"signed char\000"
 12641      65642063 
 12641      68617200 
 12642              	.LASF16:
 12643 0609 75696E74 		.ascii	"uint8_t\000"
 12643      385F7400 
 12644              	.LASF331:
 12645 0611 4C565F46 		.ascii	"LV_FLEX_FLOW_ROW\000"
 12645      4C45585F 
 12645      464C4F57 
 12645      5F524F57 
 12645      00
 12646              	.LASF221:
 12647 0622 4C565F4F 		.ascii	"LV_OBJ_FLAG_LAYOUT_1\000"
 12647      424A5F46 
 12647      4C41475F 
 12647      4C41594F 
 12647      55545F31 
 12648              	.LASF222:
 12649 0637 4C565F4F 		.ascii	"LV_OBJ_FLAG_LAYOUT_2\000"
 12649      424A5F46 
 12649      4C41475F 
 12649      4C41594F 
 12649      55545F32 
 12650              	.LASF83:
 12651 064c 4C565F53 		.ascii	"LV_STYLE_BG_GRAD_DIR\000"
 12651      54594C45 
 12651      5F42475F 
 12651      47524144 
 12651      5F444952 
 12652              	.LASF34:
 12653 0661 6765745F 		.ascii	"get_glyph_bitmap\000"
 12653      676C7970 
 12653      685F6269 
 12653      746D6170 
 12653      00
 12654              	.LASF47:
 12655 0672 626C7565 		.ascii	"blue\000"
 12655      00
 12656              	.LASF210:
 12657 0677 4C565F4F 		.ascii	"LV_OBJ_FLAG_SCROLL_CHAIN\000"
 12657      424A5F46 
 12657      4C41475F 
 12657      5343524F 
 12657      4C4C5F43 
 12658              	.LASF402:
 12659 0690 6974656D 		.ascii	"item_last_id\000"
 12659      5F6C6173 
 12659      745F6964 
 12659      00
 12660              	.LASF223:
 12661 069d 4C565F4F 		.ascii	"LV_OBJ_FLAG_WIDGET_1\000"
 12661      424A5F46 
 12661      4C41475F 
 12661      57494447 
ARM GAS  C:\Users\haske\AppData\Local\Temp\ccVRp2Ta.s 			page 260


 12661      45545F31 
 12662              	.LASF224:
 12663 06b2 4C565F4F 		.ascii	"LV_OBJ_FLAG_WIDGET_2\000"
 12663      424A5F46 
 12663      4C41475F 
 12663      57494447 
 12663      45545F32 
 12664              	.LASF355:
 12665 06c7 67726F77 		.ascii	"grow_dsc\000"
 12665      5F647363 
 12665      00
 12666              	.LASF69:
 12667 06d0 4C565F53 		.ascii	"LV_STYLE_ALIGN\000"
 12667      54594C45 
 12667      5F414C49 
 12667      474E00
 12668              	.LASF3:
 12669 06df 756E7369 		.ascii	"unsigned char\000"
 12669      676E6564 
 12669      20636861 
 12669      7200
 12670              	.LASF302:
 12671 06ed 4C565F45 		.ascii	"LV_EVENT_GET_SELF_SIZE\000"
 12671      56454E54 
 12671      5F474554 
 12671      5F53454C 
 12671      465F5349 
 12672              	.LASF279:
 12673 0704 4C565F45 		.ascii	"LV_EVENT_DRAW_MAIN\000"
 12673      56454E54 
 12673      5F445241 
 12673      575F4D41 
 12673      494E00
 12674              	.LASF363:
 12675 0717 6C765F6F 		.ascii	"lv_obj_get_style_min_width\000"
 12675      626A5F67 
 12675      65745F73 
 12675      74796C65 
 12675      5F6D696E 
 12676              	.LASF143:
 12677 0732 4C565F53 		.ascii	"LV_STYLE_TRANSFORM_PIVOT_X\000"
 12677      54594C45 
 12677      5F545241 
 12677      4E53464F 
 12677      524D5F50 
 12678              	.LASF144:
 12679 074d 4C565F53 		.ascii	"LV_STYLE_TRANSFORM_PIVOT_Y\000"
 12679      54594C45 
 12679      5F545241 
 12679      4E53464F 
 12679      524D5F50 
 12680              	.LASF308:
 12681 0768 6C765F67 		.ascii	"lv_group_t\000"
 12681      726F7570 
 12681      5F7400
 12682              	.LASF322:
 12683 0773 5F6C765F 		.ascii	"_lv_obj_spec_attr_t\000"
ARM GAS  C:\Users\haske\AppData\Local\Temp\ccVRp2Ta.s 			page 261


 12683      6F626A5F 
 12683      73706563 
 12683      5F617474 
 12683      725F7400 
 12684              	.LASF109:
 12685 0787 4C565F53 		.ascii	"LV_STYLE_IMG_RECOLOR\000"
 12685      54594C45 
 12685      5F494D47 
 12685      5F524543 
 12685      4F4C4F52 
 12686              	.LASF56:
 12687 079c 4C565F42 		.ascii	"LV_BASE_DIR_WEAK\000"
 12687      4153455F 
 12687      4449525F 
 12687      5745414B 
 12687      00
 12688              	.LASF117:
 12689 07ad 4C565F53 		.ascii	"LV_STYLE_ARC_WIDTH\000"
 12689      54594C45 
 12689      5F415243 
 12689      5F574944 
 12689      544800
 12690              	.LASF30:
 12691 07c0 6F66735F 		.ascii	"ofs_x\000"
 12691      7800
 12692              	.LASF31:
 12693 07c6 6F66735F 		.ascii	"ofs_y\000"
 12693      7900
 12694              	.LASF57:
 12695 07cc 6C765F62 		.ascii	"lv_base_dir_t\000"
 12695      6173655F 
 12695      6469725F 
 12695      7400
 12696              	.LASF452:
 12697 07da 4C565F53 		.ascii	"LV_STYLE_FLEX_CROSS_PLACE\000"
 12697      54594C45 
 12697      5F464C45 
 12697      585F4352 
 12697      4F53535F 
 12698              	.LASF173:
 12699 07f4 685F6C61 		.ascii	"h_layout\000"
 12699      796F7574 
 12699      00
 12700              	.LASF43:
 12701 07fd 5F426F6F 		.ascii	"_Bool\000"
 12701      6C00
 12702              	.LASF316:
 12703 0803 7363726F 		.ascii	"scrollbar_mode\000"
 12703      6C6C6261 
 12703      725F6D6F 
 12703      646500
 12704              	.LASF139:
 12705 0812 4C565F53 		.ascii	"LV_STYLE_TRANSLATE_X\000"
 12705      54594C45 
 12705      5F545241 
 12705      4E534C41 
 12705      54455F58 
ARM GAS  C:\Users\haske\AppData\Local\Temp\ccVRp2Ta.s 			page 262


 12706              	.LASF140:
 12707 0827 4C565F53 		.ascii	"LV_STYLE_TRANSLATE_Y\000"
 12707      54594C45 
 12707      5F545241 
 12707      4E534C41 
 12707      54455F59 
 12708              	.LASF489:
 12709 083c 474E5520 		.ascii	"GNU C11 5.4.1 20160609 (release) [ARM/embedded-5-br"
 12709      43313120 
 12709      352E342E 
 12709      31203230 
 12709      31363036 
 12710 086f 616E6368 		.ascii	"anch revision 237715] -mcpu=cortex-m0plus -mthumb -"
 12710      20726576 
 12710      6973696F 
 12710      6E203233 
 12710      37373135 
 12711 08a2 67202D4F 		.ascii	"g -Og -ffunction-sections -ffat-lto-objects\000"
 12711      67202D66 
 12711      66756E63 
 12711      74696F6E 
 12711      2D736563 
 12712              	.LASF255:
 12713 08ce 73746F70 		.ascii	"stop_processing\000"
 12713      5F70726F 
 12713      63657373 
 12713      696E6700 
 12714              	.LASF151:
 12715 08de 76616C75 		.ascii	"value\000"
 12715      6500
 12716              	.LASF415:
 12717 08e4 73697A65 		.ascii	"size_clamp\000"
 12717      5F636C61 
 12717      6D7000
 12718              	.LASF167:
 12719 08ef 666C6167 		.ascii	"flags\000"
 12719      7300
 12720              	.LASF254:
 12721 08f5 64656C65 		.ascii	"deleted\000"
 12721      74656400 
 12722              	.LASF46:
 12723 08fd 63686172 		.ascii	"char\000"
 12723      00
 12724              	.LASF493:
 12725 0902 6C765F61 		.ascii	"lv_area_copy\000"
 12725      7265615F 
 12725      636F7079 
 12725      00
 12726              	.LASF484:
 12727 090f 6C765F73 		.ascii	"lv_style_register_prop\000"
 12727      74796C65 
 12727      5F726567 
 12727      69737465 
 12727      725F7072 
 12728              	.LASF277:
 12729 0926 4C565F45 		.ascii	"LV_EVENT_REFR_EXT_DRAW_SIZE\000"
 12729      56454E54 
ARM GAS  C:\Users\haske\AppData\Local\Temp\ccVRp2Ta.s 			page 263


 12729      5F524546 
 12729      525F4558 
 12729      545F4452 
 12730              	.LASF38:
 12731 0942 756E6465 		.ascii	"underline_position\000"
 12731      726C696E 
 12731      655F706F 
 12731      73697469 
 12731      6F6E00
 12732              	.LASF461:
 12733 0955 4C565F53 		.ascii	"LV_STYLE_GRID_CELL_X_ALIGN\000"
 12733      54594C45 
 12733      5F475249 
 12733      445F4345 
 12733      4C4C5F58 
 12734              	.LASF356:
 12735 0970 67726F77 		.ascii	"grow_item_cnt\000"
 12735      5F697465 
 12735      6D5F636E 
 12735      7400
 12736              	.LASF422:
 12737 097e 6F6C645F 		.ascii	"old_coords\000"
 12737      636F6F72 
 12737      647300
 12738              	.LASF276:
 12739 0989 4C565F45 		.ascii	"LV_EVENT_COVER_CHECK\000"
 12739      56454E54 
 12739      5F434F56 
 12739      45525F43 
 12739      4845434B 
 12740              	.LASF78:
 12741 099e 4C565F53 		.ascii	"LV_STYLE_BASE_DIR\000"
 12741      54594C45 
 12741      5F424153 
 12741      455F4449 
 12741      5200
 12742              	.LASF100:
 12743 09b0 4C565F53 		.ascii	"LV_STYLE_OUTLINE_OPA\000"
 12743      54594C45 
 12743      5F4F5554 
 12743      4C494E45 
 12743      5F4F5041 
 12744              	.LASF338:
 12745 09c5 4C565F46 		.ascii	"LV_FLEX_FLOW_COLUMN_WRAP_REVERSE\000"
 12745      4C45585F 
 12745      464C4F57 
 12745      5F434F4C 
 12745      554D4E5F 
 12746              	.LASF6:
 12747 09e6 5F5F7569 		.ascii	"__uint16_t\000"
 12747      6E743136 
 12747      5F7400
 12748              	.LASF413:
 12749 09f1 67726F77 		.ascii	"grow_unit\000"
 12749      5F756E69 
 12749      7400
 12750              	.LASF275:
ARM GAS  C:\Users\haske\AppData\Local\Temp\ccVRp2Ta.s 			page 264


 12751 09fb 4C565F45 		.ascii	"LV_EVENT_HIT_TEST\000"
 12751      56454E54 
 12751      5F484954 
 12751      5F544553 
 12751      5400
 12752              	.LASF423:
 12753 0a0d 666C6578 		.ascii	"flex_update\000"
 12753      5F757064 
 12753      61746500 
 12754              	.LASF80:
 12755 0a19 4C565F53 		.ascii	"LV_STYLE_BG_COLOR\000"
 12755      54594C45 
 12755      5F42475F 
 12755      434F4C4F 
 12755      5200
 12756              	.LASF110:
 12757 0a2b 4C565F53 		.ascii	"LV_STYLE_IMG_RECOLOR_OPA\000"
 12757      54594C45 
 12757      5F494D47 
 12757      5F524543 
 12757      4F4C4F52 
 12758              	.LASF136:
 12759 0a44 4C565F53 		.ascii	"LV_STYLE_BLEND_MODE\000"
 12759      54594C45 
 12759      5F424C45 
 12759      4E445F4D 
 12759      4F444500 
 12760              	.LASF25:
 12761 0a58 6C765F64 		.ascii	"lv_dir_t\000"
 12761      69725F74 
 12761      00
 12762              	.LASF297:
 12763 0a61 4C565F45 		.ascii	"LV_EVENT_SCREEN_LOADED\000"
 12763      56454E54 
 12763      5F534352 
 12763      45454E5F 
 12763      4C4F4144 
 12764              	.LASF150:
 12765 0a78 70726F70 		.ascii	"prop\000"
 12765      00
 12766              	.LASF199:
 12767 0a7d 4C565F50 		.ascii	"LV_PART_ANY\000"
 12767      4152545F 
 12767      414E5900 
 12768              	.LASF155:
 12769 0a89 636F6E73 		.ascii	"const_props\000"
 12769      745F7072 
 12769      6F707300 
 12770              	.LASF237:
 12771 0a95 5F6C765F 		.ascii	"_lv_obj_style_t\000"
 12771      6F626A5F 
 12771      7374796C 
 12771      655F7400 
 12772              	.LASF208:
 12773 0aa5 4C565F4F 		.ascii	"LV_OBJ_FLAG_SCROLL_CHAIN_HOR\000"
 12773      424A5F46 
 12773      4C41475F 
ARM GAS  C:\Users\haske\AppData\Local\Temp\ccVRp2Ta.s 			page 265


 12773      5343524F 
 12773      4C4C5F43 
 12774              	.LASF312:
 12775 0ac2 6576656E 		.ascii	"event_dsc\000"
 12775      745F6473 
 12775      6300
 12776              	.LASF425:
 12777 0acc 74726163 		.ascii	"track_gap\000"
 12777      6B5F6761 
 12777      7000
 12778              	.LASF487:
 12779 0ad6 6C765F6F 		.ascii	"lv_obj_set_style_layout\000"
 12779      626A5F73 
 12779      65745F73 
 12779      74796C65 
 12779      5F6C6179 
 12780              	.LASF112:
 12781 0aee 4C565F53 		.ascii	"LV_STYLE_LINE_DASH_WIDTH\000"
 12781      54594C45 
 12781      5F4C494E 
 12781      455F4441 
 12781      53485F57 
 12782              	.LASF464:
 12783 0b07 4C565F53 		.ascii	"LV_STYLE_GRID_CELL_Y_ALIGN\000"
 12783      54594C45 
 12783      5F475249 
 12783      445F4345 
 12783      4C4C5F59 
 12784              	.LASF370:
 12785 0b22 6C765F6F 		.ascii	"lv_obj_get_style_translate_x\000"
 12785      626A5F67 
 12785      65745F73 
 12785      74796C65 
 12785      5F747261 
 12786              	.LASF369:
 12787 0b3f 6C765F6F 		.ascii	"lv_obj_get_style_translate_y\000"
 12787      626A5F67 
 12787      65745F73 
 12787      74796C65 
 12787      5F747261 
 12788              	.LASF391:
 12789 0b5c 6D61785F 		.ascii	"max_main_size\000"
 12789      6D61696E 
 12789      5F73697A 
 12789      6500
 12790              	.LASF137:
 12791 0b6a 4C565F53 		.ascii	"LV_STYLE_TRANSFORM_WIDTH\000"
 12791      54594C45 
 12791      5F545241 
 12791      4E53464F 
 12791      524D5F57 
 12792              	.LASF311:
 12793 0b83 67726F75 		.ascii	"group_p\000"
 12793      705F7000 
 12794              	.LASF149:
 12795 0b8b 6C765F73 		.ascii	"lv_style_prop_t\000"
 12795      74796C65 
ARM GAS  C:\Users\haske\AppData\Local\Temp\ccVRp2Ta.s 			page 266


 12795      5F70726F 
 12795      705F7400 
 12796              	.LASF351:
 12797 0b9b 74726163 		.ascii	"track_cross_size\000"
 12797      6B5F6372 
 12797      6F73735F 
 12797      73697A65 
 12797      00
 12798              	.LASF313:
 12799 0bac 7363726F 		.ascii	"scroll\000"
 12799      6C6C00
 12800              	.LASF432:
 12801 0bb3 6D61785F 		.ascii	"max_cross_size\000"
 12801      63726F73 
 12801      735F7369 
 12801      7A6500
 12802              	.LASF40:
 12803 0bc2 66616C6C 		.ascii	"fallback\000"
 12803      6261636B 
 12803      00
 12804              	.LASF154:
 12805 0bcb 76616C75 		.ascii	"values_and_props\000"
 12805      65735F61 
 12805      6E645F70 
 12805      726F7073 
 12805      00
 12806              	.LASF321:
 12807 0bdc 6C617965 		.ascii	"layer_type\000"
 12807      725F7479 
 12807      706500
 12808              	.LASF134:
 12809 0be7 4C565F53 		.ascii	"LV_STYLE_ANIM_SPEED\000"
 12809      54594C45 
 12809      5F414E49 
 12809      4D5F5350 
 12809      45454400 
 12810              	.LASF377:
 12811 0bfb 6C765F6F 		.ascii	"lv_obj_get_style_pad_left\000"
 12811      626A5F67 
 12811      65745F73 
 12811      74796C65 
 12811      5F706164 
 12812              	.LASF24:
 12813 0c15 6C765F61 		.ascii	"lv_area_t\000"
 12813      7265615F 
 12813      7400
 12814              	.LASF438:
 12815 0c1f 6C765F73 		.ascii	"lv_style_set_flex_grow\000"
 12815      74796C65 
 12815      5F736574 
 12815      5F666C65 
 12815      785F6772 
 12816              	.LASF98:
 12817 0c36 4C565F53 		.ascii	"LV_STYLE_OUTLINE_WIDTH\000"
 12817      54594C45 
 12817      5F4F5554 
 12817      4C494E45 
ARM GAS  C:\Users\haske\AppData\Local\Temp\ccVRp2Ta.s 			page 267


 12817      5F574944 
 12818              	.LASF315:
 12819 0c4d 6578745F 		.ascii	"ext_draw_size\000"
 12819      64726177 
 12819      5F73697A 
 12819      6500
 12820              	.LASF307:
 12821 0c5b 6C765F67 		.ascii	"lv_group_edge_cb_t\000"
 12821      726F7570 
 12821      5F656467 
 12821      655F6362 
 12821      5F7400
 12822              	.LASF225:
 12823 0c6e 4C565F4F 		.ascii	"LV_OBJ_FLAG_USER_1\000"
 12823      424A5F46 
 12823      4C41475F 
 12823      55534552 
 12823      5F3100
 12824              	.LASF226:
 12825 0c81 4C565F4F 		.ascii	"LV_OBJ_FLAG_USER_2\000"
 12825      424A5F46 
 12825      4C41475F 
 12825      55534552 
 12825      5F3200
 12826              	.LASF227:
 12827 0c94 4C565F4F 		.ascii	"LV_OBJ_FLAG_USER_3\000"
 12827      424A5F46 
 12827      4C41475F 
 12827      55534552 
 12827      5F3300
 12828              	.LASF228:
 12829 0ca7 4C565F4F 		.ascii	"LV_OBJ_FLAG_USER_4\000"
 12829      424A5F46 
 12829      4C41475F 
 12829      55534552 
 12829      5F3400
 12830              	.LASF265:
 12831 0cba 4C565F45 		.ascii	"LV_EVENT_CLICKED\000"
 12831      56454E54 
 12831      5F434C49 
 12831      434B4544 
 12831      00
 12832              	.LASF60:
 12833 0ccb 4C565F53 		.ascii	"LV_STYLE_PROP_INV\000"
 12833      54594C45 
 12833      5F50524F 
 12833      505F494E 
 12833      5600
 12834              	.LASF126:
 12835 0cdd 4C565F53 		.ascii	"LV_STYLE_TEXT_LINE_SPACE\000"
 12835      54594C45 
 12835      5F544558 
 12835      545F4C49 
 12835      4E455F53 
 12836              	.LASF257:
 12837 0cf6 6C765F6F 		.ascii	"lv_obj_class_t\000"
 12837      626A5F63 
ARM GAS  C:\Users\haske\AppData\Local\Temp\ccVRp2Ta.s 			page 268


 12837      6C617373 
 12837      5F7400
 12838              	.LASF152:
 12839 0d05 6C765F73 		.ascii	"lv_style_const_prop_t\000"
 12839      74796C65 
 12839      5F636F6E 
 12839      73745F70 
 12839      726F705F 
 12840              	.LASF280:
 12841 0d1b 4C565F45 		.ascii	"LV_EVENT_DRAW_MAIN_END\000"
 12841      56454E54 
 12841      5F445241 
 12841      575F4D41 
 12841      494E5F45 
 12842              	.LASF163:
 12843 0d32 70617265 		.ascii	"parent\000"
 12843      6E7400
 12844              	.LASF358:
 12845 0d39 74726163 		.ascii	"track_t\000"
 12845      6B5F7400 
 12846              	.LASF433:
 12847 0d41 6C765F66 		.ascii	"lv_flex_init\000"
 12847      6C65785F 
 12847      696E6974 
 12847      00
 12848              	.LASF236:
 12849 0d4e 69735F74 		.ascii	"is_trans\000"
 12849      72616E73 
 12849      00
 12850              	.LASF366:
 12851 0d57 6C765F6F 		.ascii	"lv_obj_get_style_max_height\000"
 12851      626A5F67 
 12851      65745F73 
 12851      74796C65 
 12851      5F6D6178 
 12852              	.LASF133:
 12853 0d73 4C565F53 		.ascii	"LV_STYLE_ANIM_TIME\000"
 12853      54594C45 
 12853      5F414E49 
 12853      4D5F5449 
 12853      4D4500
 12854              	.LASF388:
 12855 0d86 6974656D 		.ascii	"item_id\000"
 12855      5F696400 
 12856              	.LASF444:
 12857 0d8e 6C765F6F 		.ascii	"lv_obj_set_flex_align\000"
 12857      626A5F73 
 12857      65745F66 
 12857      6C65785F 
 12857      616C6967 
 12858              	.LASF73:
 12859 0da4 4C565F53 		.ascii	"LV_STYLE_PAD_BOTTOM\000"
 12859      54594C45 
 12859      5F504144 
 12859      5F424F54 
 12859      544F4D00 
 12860              	.LASF243:
ARM GAS  C:\Users\haske\AppData\Local\Temp\ccVRp2Ta.s 			page 269


 12861 0db8 77696474 		.ascii	"width_def\000"
 12861      685F6465 
 12861      6600
 12862              	.LASF219:
 12863 0dc2 4C565F4F 		.ascii	"LV_OBJ_FLAG_FLOATING\000"
 12863      424A5F46 
 12863      4C41475F 
 12863      464C4F41 
 12863      54494E47 
 12864              	.LASF403:
 12865 0dd7 6162735F 		.ascii	"abs_x\000"
 12865      7800
 12866              	.LASF404:
 12867 0ddd 6162735F 		.ascii	"abs_y\000"
 12867      7900
 12868              	.LASF209:
 12869 0de3 4C565F4F 		.ascii	"LV_OBJ_FLAG_SCROLL_CHAIN_VER\000"
 12869      424A5F46 
 12869      4C41475F 
 12869      5343524F 
 12869      4C4C5F43 
 12870              	.LASF457:
 12871 0e00 4C565F53 		.ascii	"LV_STYLE_GRID_ROW_DSC_ARRAY\000"
 12871      54594C45 
 12871      5F475249 
 12871      445F524F 
 12871      575F4453 
 12872              	.LASF81:
 12873 0e1c 4C565F53 		.ascii	"LV_STYLE_BG_OPA\000"
 12873      54594C45 
 12873      5F42475F 
 12873      4F504100 
 12874              	.LASF116:
 12875 0e2c 4C565F53 		.ascii	"LV_STYLE_LINE_OPA\000"
 12875      54594C45 
 12875      5F4C494E 
 12875      455F4F50 
 12875      4100
 12876              	.LASF159:
 12877 0e3e 6C765F73 		.ascii	"lv_style_t\000"
 12877      74796C65 
 12877      5F7400
 12878              	.LASF220:
 12879 0e49 4C565F4F 		.ascii	"LV_OBJ_FLAG_OVERFLOW_VISIBLE\000"
 12879      424A5F46 
 12879      4C41475F 
 12879      4F564552 
 12879      464C4F57 
 12880              	.LASF420:
 12881 0e66 64696666 		.ascii	"diff_x\000"
 12881      5F7800
 12882              	.LASF165:
 12883 0e6d 7374796C 		.ascii	"styles\000"
 12883      657300
 12884              	.LASF421:
 12885 0e74 64696666 		.ascii	"diff_y\000"
 12885      5F7900
ARM GAS  C:\Users\haske\AppData\Local\Temp\ccVRp2Ta.s 			page 270


 12886              	.LASF310:
 12887 0e7b 6368696C 		.ascii	"child_cnt\000"
 12887      645F636E 
 12887      7400
 12888              	.LASF108:
 12889 0e85 4C565F53 		.ascii	"LV_STYLE_IMG_OPA\000"
 12889      54594C45 
 12889      5F494D47 
 12889      5F4F5041 
 12889      00
 12890              	.LASF141:
 12891 0e96 4C565F53 		.ascii	"LV_STYLE_TRANSFORM_ZOOM\000"
 12891      54594C45 
 12891      5F545241 
 12891      4E53464F 
 12891      524D5F5A 
 12892              	.LASF274:
 12893 0eae 4C565F45 		.ascii	"LV_EVENT_LEAVE\000"
 12893      56454E54 
 12893      5F4C4541 
 12893      564500
 12894              	.LASF478:
 12895 0ebd 6C765F6F 		.ascii	"lv_obj_get_content_width\000"
 12895      626A5F67 
 12895      65745F63 
 12895      6F6E7465 
 12895      6E745F77 
 12896              	.LASF11:
 12897 0ed6 6C6F6E67 		.ascii	"long unsigned int\000"
 12897      20756E73 
 12897      69676E65 
 12897      6420696E 
 12897      7400
 12898              	.LASF318:
 12899 0ee8 7363726F 		.ascii	"scroll_snap_y\000"
 12899      6C6C5F73 
 12899      6E61705F 
 12899      7900
 12900              	.LASF206:
 12901 0ef6 4C565F4F 		.ascii	"LV_OBJ_FLAG_SCROLL_MOMENTUM\000"
 12901      424A5F46 
 12901      4C41475F 
 12901      5343524F 
 12901      4C4C5F4D 
 12902              	.LASF123:
 12903 0f12 4C565F53 		.ascii	"LV_STYLE_TEXT_OPA\000"
 12903      54594C45 
 12903      5F544558 
 12903      545F4F50 
 12903      4100
 12904              	.LASF252:
 12905 0f24 70617261 		.ascii	"param\000"
 12905      6D00
 12906              	.LASF249:
 12907 0f2a 74617267 		.ascii	"target\000"
 12907      657400
 12908              	.LASF469:
ARM GAS  C:\Users\haske\AppData\Local\Temp\ccVRp2Ta.s 			page 271


 12909 0f31 6C765F6F 		.ascii	"lv_obj_get_child\000"
 12909      626A5F67 
 12909      65745F63 
 12909      68696C64 
 12909      00
 12910              	.LASF245:
 12911 0f42 65646974 		.ascii	"editable\000"
 12911      61626C65 
 12911      00
 12912              	.LASF399:
 12913 0f4b 706C6163 		.ascii	"place_content\000"
 12913      655F636F 
 12913      6E74656E 
 12913      7400
 12914              	.LASF215:
 12915 0f59 4C565F4F 		.ascii	"LV_OBJ_FLAG_EVENT_BUBBLE\000"
 12915      424A5F46 
 12915      4C41475F 
 12915      4556454E 
 12915      545F4255 
 12916              	.LASF26:
 12917 0f72 7265736F 		.ascii	"resolved_font\000"
 12917      6C766564 
 12917      5F666F6E 
 12917      7400
 12918              	.LASF203:
 12919 0f80 4C565F4F 		.ascii	"LV_OBJ_FLAG_CHECKABLE\000"
 12919      424A5F46 
 12919      4C41475F 
 12919      43484543 
 12919      4B41424C 
 12920              	.LASF181:
 12921 0f96 6F626A5F 		.ascii	"obj_ll\000"
 12921      6C6C00
 12922              	.LASF335:
 12923 0f9d 4C565F46 		.ascii	"LV_FLEX_FLOW_ROW_WRAP_REVERSE\000"
 12923      4C45585F 
 12923      464C4F57 
 12923      5F524F57 
 12923      5F575241 
 12924              	.LASF115:
 12925 0fbb 4C565F53 		.ascii	"LV_STYLE_LINE_COLOR\000"
 12925      54594C45 
 12925      5F4C494E 
 12925      455F434F 
 12925      4C4F5200 
 12926              	.LASF200:
 12927 0fcf 4C565F4F 		.ascii	"LV_OBJ_FLAG_HIDDEN\000"
 12927      424A5F46 
 12927      4C41475F 
 12927      48494444 
 12927      454E00
 12928              	.LASF346:
 12929 0fe2 6D61785F 		.ascii	"max_size\000"
 12929      73697A65 
 12929      00
 12930              	.LASF76:
ARM GAS  C:\Users\haske\AppData\Local\Temp\ccVRp2Ta.s 			page 272


 12931 0feb 4C565F53 		.ascii	"LV_STYLE_PAD_ROW\000"
 12931      54594C45 
 12931      5F504144 
 12931      5F524F57 
 12931      00
 12932              	.LASF379:
 12933 0ffc 6C765F6F 		.ascii	"lv_obj_get_style_border_width\000"
 12933      626A5F67 
 12933      65745F73 
 12933      74796C65 
 12933      5F626F72 
 12934              	.LASF373:
 12935 101a 6C765F6F 		.ascii	"lv_obj_get_style_flex_main_place\000"
 12935      626A5F67 
 12935      65745F73 
 12935      74796C65 
 12935      5F666C65 
 12936              	.LASF288:
 12937 103b 4C565F45 		.ascii	"LV_EVENT_REFRESH\000"
 12937      56454E54 
 12937      5F524546 
 12937      52455348 
 12937      00
 12938              	.LASF247:
 12939 104c 696E7374 		.ascii	"instance_size\000"
 12939      616E6365 
 12939      5F73697A 
 12939      6500
 12940              	.LASF74:
 12941 105a 4C565F53 		.ascii	"LV_STYLE_PAD_LEFT\000"
 12941      54594C45 
 12941      5F504144 
 12941      5F4C4546 
 12941      5400
 12942              	.LASF294:
 12943 106c 4C565F45 		.ascii	"LV_EVENT_CHILD_DELETED\000"
 12943      56454E54 
 12943      5F434849 
 12943      4C445F44 
 12943      454C4554 
 12944              	.LASF193:
 12945 1083 4C565F50 		.ascii	"LV_PART_KNOB\000"
 12945      4152545F 
 12945      4B4E4F42 
 12945      00
 12946              	.LASF441:
 12947 1090 6C765F6F 		.ascii	"lv_obj_set_style_flex_main_place\000"
 12947      626A5F73 
 12947      65745F73 
 12947      74796C65 
 12947      5F666C65 
 12948              	.LASF468:
 12949 10b1 6C765F6D 		.ascii	"lv_mem_buf_release\000"
 12949      656D5F62 
 12949      75665F72 
 12949      656C6561 
 12949      736500
ARM GAS  C:\Users\haske\AppData\Local\Temp\ccVRp2Ta.s 			page 273


 12950              	.LASF364:
 12951 10c4 6C765F6F 		.ascii	"lv_obj_get_style_min_height\000"
 12951      626A5F67 
 12951      65745F73 
 12951      74796C65 
 12951      5F6D696E 
 12952              	.LASF446:
 12953 10e0 6C765F6F 		.ascii	"lv_obj_set_flex_grow\000"
 12953      626A5F73 
 12953      65745F66 
 12953      6C65785F 
 12953      67726F77 
 12954              	.LASF132:
 12955 10f5 4C565F53 		.ascii	"LV_STYLE_ANIM\000"
 12955      54594C45 
 12955      5F414E49 
 12955      4D00
 12956              	.LASF213:
 12957 1103 4C565F4F 		.ascii	"LV_OBJ_FLAG_SNAPPABLE\000"
 12957      424A5F46 
 12957      4C41475F 
 12957      534E4150 
 12957      5041424C 
 12958              	.LASF458:
 12959 1119 4C565F53 		.ascii	"LV_STYLE_GRID_ROW_ALIGN\000"
 12959      54594C45 
 12959      5F475249 
 12959      445F524F 
 12959      575F414C 
 12960              	.LASF435:
 12961 1131 6C765F73 		.ascii	"lv_style_set_flex_main_place\000"
 12961      74796C65 
 12961      5F736574 
 12961      5F666C65 
 12961      785F6D61 
 12962              	.LASF128:
 12963 114e 4C565F53 		.ascii	"LV_STYLE_TEXT_ALIGN\000"
 12963      54594C45 
 12963      5F544558 
 12963      545F414C 
 12963      49474E00 
 12964              	.LASF477:
 12965 1162 6C765F6F 		.ascii	"lv_obj_move_children_by\000"
 12965      626A5F6D 
 12965      6F76655F 
 12965      6368696C 
 12965      6472656E 
 12966              	.LASF328:
 12967 117a 4C565F46 		.ascii	"LV_FLEX_ALIGN_SPACE_AROUND\000"
 12967      4C45585F 
 12967      414C4947 
 12967      4E5F5350 
 12967      4143455F 
 12968              	.LASF160:
 12969 1195 5F6C765F 		.ascii	"_lv_font_t\000"
 12969      666F6E74 
 12969      5F7400
ARM GAS  C:\Users\haske\AppData\Local\Temp\ccVRp2Ta.s 			page 274


 12970              	.LASF10:
 12971 11a0 5F5F7569 		.ascii	"__uint32_t\000"
 12971      6E743332 
 12971      5F7400
 12972              	.LASF242:
 12973 11ab 6576656E 		.ascii	"event_cb\000"
 12973      745F6362 
 12973      00
 12974              	.LASF305:
 12975 11b4 6C765F65 		.ascii	"lv_event_code_t\000"
 12975      76656E74 
 12975      5F636F64 
 12975      655F7400 
 12976              	.LASF248:
 12977 11c4 5F6C765F 		.ascii	"_lv_event_t\000"
 12977      6576656E 
 12977      745F7400 
 12978              	.LASF12:
 12979 11d0 6C6F6E67 		.ascii	"long long int\000"
 12979      206C6F6E 
 12979      6720696E 
 12979      7400
 12980              	.LASF488:
 12981 11de 6C765F6F 		.ascii	"lv_obj_mark_layout_as_dirty\000"
 12981      626A5F6D 
 12981      61726B5F 
 12981      6C61796F 
 12981      75745F61 
 12982              	.LASF362:
 12983 11fa 6C765F6F 		.ascii	"lv_obj_get_style_flex_grow\000"
 12983      626A5F67 
 12983      65745F73 
 12983      74796C65 
 12983      5F666C65 
 12984              	.LASF269:
 12985 1215 4C565F45 		.ascii	"LV_EVENT_SCROLL\000"
 12985      56454E54 
 12985      5F534352 
 12985      4F4C4C00 
 12986              	.LASF459:
 12987 1225 4C565F53 		.ascii	"LV_STYLE_GRID_CELL_COLUMN_POS\000"
 12987      54594C45 
 12987      5F475249 
 12987      445F4345 
 12987      4C4C5F43 
 12988              	.LASF216:
 12989 1243 4C565F4F 		.ascii	"LV_OBJ_FLAG_GESTURE_BUBBLE\000"
 12989      424A5F46 
 12989      4C41475F 
 12989      47455354 
 12989      5552455F 
 12990              	.LASF309:
 12991 125e 6368696C 		.ascii	"children\000"
 12991      6472656E 
 12991      00
 12992              	.LASF142:
 12993 1267 4C565F53 		.ascii	"LV_STYLE_TRANSFORM_ANGLE\000"
ARM GAS  C:\Users\haske\AppData\Local\Temp\ccVRp2Ta.s 			page 275


 12993      54594C45 
 12993      5F545241 
 12993      4E53464F 
 12993      524D5F41 
 12994              	.LASF334:
 12995 1280 4C565F46 		.ascii	"LV_FLEX_FLOW_ROW_REVERSE\000"
 12995      4C45585F 
 12995      464C4F57 
 12995      5F524F57 
 12995      5F524556 
 12996              	.LASF130:
 12997 1299 4C565F53 		.ascii	"LV_STYLE_COLOR_FILTER_DSC\000"
 12997      54594C45 
 12997      5F434F4C 
 12997      4F525F46 
 12997      494C5445 
 12998              	.LASF55:
 12999 12b3 4C565F42 		.ascii	"LV_BASE_DIR_NEUTRAL\000"
 12999      4153455F 
 12999      4449525F 
 12999      4E455554 
 12999      52414C00 
 13000              	.LASF205:
 13001 12c7 4C565F4F 		.ascii	"LV_OBJ_FLAG_SCROLL_ELASTIC\000"
 13001      424A5F46 
 13001      4C41475F 
 13001      5343524F 
 13001      4C4C5F45 
 13002              	.LASF39:
 13003 12e2 756E6465 		.ascii	"underline_thickness\000"
 13003      726C696E 
 13003      655F7468 
 13003      69636B6E 
 13003      65737300 
 13004              	.LASF127:
 13005 12f6 4C565F53 		.ascii	"LV_STYLE_TEXT_DECOR\000"
 13005      54594C45 
 13005      5F544558 
 13005      545F4445 
 13005      434F5200 
 13006              	.LASF340:
 13007 130a 6D61696E 		.ascii	"main_place\000"
 13007      5F706C61 
 13007      636500
 13008              	.LASF118:
 13009 1315 4C565F53 		.ascii	"LV_STYLE_ARC_ROUNDED\000"
 13009      54594C45 
 13009      5F415243 
 13009      5F524F55 
 13009      4E444544 
 13010              	.LASF201:
 13011 132a 4C565F4F 		.ascii	"LV_OBJ_FLAG_CLICKABLE\000"
 13011      424A5F46 
 13011      4C41475F 
 13011      434C4943 
 13011      4B41424C 
 13012              	.LASF171:
ARM GAS  C:\Users\haske\AppData\Local\Temp\ccVRp2Ta.s 			page 276


 13013 1340 736B6970 		.ascii	"skip_trans\000"
 13013      5F747261 
 13013      6E7300
 13014              	.LASF409:
 13015 134b 6D61696E 		.ascii	"main_pos\000"
 13015      5F706F73 
 13015      00
 13016              	.LASF192:
 13017 1354 4C565F50 		.ascii	"LV_PART_INDICATOR\000"
 13017      4152545F 
 13017      494E4449 
 13017      4341544F 
 13017      5200
 13018              	.LASF191:
 13019 1366 4C565F50 		.ascii	"LV_PART_SCROLLBAR\000"
 13019      4152545F 
 13019      5343524F 
 13019      4C4C4241 
 13019      5200
 13020              	.LASF401:
 13021 1378 6974656D 		.ascii	"item_first_id\000"
 13021      5F666972 
 13021      73745F69 
 13021      6400
 13022              	.LASF122:
 13023 1386 4C565F53 		.ascii	"LV_STYLE_TEXT_COLOR\000"
 13023      54594C45 
 13023      5F544558 
 13023      545F434F 
 13023      4C4F5200 
 13024              	.LASF291:
 13025 139a 4C565F45 		.ascii	"LV_EVENT_DELETE\000"
 13025      56454E54 
 13025      5F44454C 
 13025      45544500 
 13026              	.LASF162:
 13027 13aa 636C6173 		.ascii	"class_p\000"
 13027      735F7000 
 13028              	.LASF361:
 13029 13b2 6C765F6F 		.ascii	"lv_obj_get_style_width\000"
 13029      626A5F67 
 13029      65745F73 
 13029      74796C65 
 13029      5F776964 
 13030              	.LASF429:
 13031 13c9 74726163 		.ascii	"track_cnt\000"
 13031      6B5F636E 
 13031      7400
 13032              	.LASF281:
 13033 13d3 4C565F45 		.ascii	"LV_EVENT_DRAW_POST_BEGIN\000"
 13033      56454E54 
 13033      5F445241 
 13033      575F504F 
 13033      53545F42 
 13034              	.LASF14:
 13035 13ec 756E7369 		.ascii	"unsigned int\000"
 13035      676E6564 
ARM GAS  C:\Users\haske\AppData\Local\Temp\ccVRp2Ta.s 			page 277


 13035      20696E74 
 13035      00
 13036              	.LASF59:
 13037 13f9 6C765F73 		.ascii	"lv_style_value_t\000"
 13037      74796C65 
 13037      5F76616C 
 13037      75655F74 
 13037      00
 13038              	.LASF480:
 13039 140a 6C765F6F 		.ascii	"lv_obj_get_scroll_y\000"
 13039      626A5F67 
 13039      65745F73 
 13039      63726F6C 
 13039      6C5F7900 
 13040              	.LASF466:
 13041 141e 6C765F6D 		.ascii	"lv_mem_buf_get\000"
 13041      656D5F62 
 13041      75665F67 
 13041      657400
 13042              	.LASF148:
 13043 142d 5F4C565F 		.ascii	"_LV_STYLE_PROP_CONST\000"
 13043      5354594C 
 13043      455F5052 
 13043      4F505F43 
 13043      4F4E5354 
 13044              	.LASF397:
 13045 1442 6E65775F 		.ascii	"new_dsc\000"
 13045      64736300 
 13046              	.LASF286:
 13047 144a 4C565F45 		.ascii	"LV_EVENT_VALUE_CHANGED\000"
 13047      56454E54 
 13047      5F56414C 
 13047      55455F43 
 13047      48414E47 
 13048              	.LASF211:
 13049 1461 4C565F4F 		.ascii	"LV_OBJ_FLAG_SCROLL_ON_FOCUS\000"
 13049      424A5F46 
 13049      4C41475F 
 13049      5343524F 
 13049      4C4C5F4F 
 13050              	.LASF342:
 13051 147d 74726163 		.ascii	"track_place\000"
 13051      6B5F706C 
 13051      61636500 
 13052              	.LASF70:
 13053 1489 4C565F53 		.ascii	"LV_STYLE_LAYOUT\000"
 13053      54594C45 
 13053      5F4C4159 
 13053      4F555400 
 13054              	.LASF42:
 13055 1499 6C765F66 		.ascii	"lv_font_glyph_dsc_t\000"
 13055      6F6E745F 
 13055      676C7970 
 13055      685F6473 
 13055      635F7400 
 13056              	.LASF296:
 13057 14ad 4C565F45 		.ascii	"LV_EVENT_SCREEN_LOAD_START\000"
ARM GAS  C:\Users\haske\AppData\Local\Temp\ccVRp2Ta.s 			page 278


 13057      56454E54 
 13057      5F534352 
 13057      45454E5F 
 13057      4C4F4144 
 13058              	.LASF256:
 13059 14c8 73746F70 		.ascii	"stop_bubbling\000"
 13059      5F627562 
 13059      626C696E 
 13059      6700
 13060              	.LASF102:
 13061 14d6 4C565F53 		.ascii	"LV_STYLE_SHADOW_WIDTH\000"
 13061      54594C45 
 13061      5F534841 
 13061      444F575F 
 13061      57494454 
 13062              	.LASF260:
 13063 14ec 4C565F45 		.ascii	"LV_EVENT_PRESSING\000"
 13063      56454E54 
 13063      5F505245 
 13063      5353494E 
 13063      4700
 13064              	.LASF218:
 13065 14fe 4C565F4F 		.ascii	"LV_OBJ_FLAG_IGNORE_LAYOUT\000"
 13065      424A5F46 
 13065      4C41475F 
 13065      49474E4F 
 13065      52455F4C 
 13066              	.LASF474:
 13067 1518 6C765F6F 		.ascii	"lv_obj_get_parent\000"
 13067      626A5F67 
 13067      65745F70 
 13067      6172656E 
 13067      7400
 13068              	.LASF383:
 13069 152a 706C6163 		.ascii	"place\000"
 13069      6500
 13070              	.LASF79:
 13071 1530 4C565F53 		.ascii	"LV_STYLE_CLIP_CORNER\000"
 13071      54594C45 
 13071      5F434C49 
 13071      505F434F 
 13071      524E4552 
 13072              	.LASF239:
 13073 1545 62617365 		.ascii	"base_class\000"
 13073      5F636C61 
 13073      737300
 13074              	.LASF262:
 13075 1550 4C565F45 		.ascii	"LV_EVENT_SHORT_CLICKED\000"
 13075      56454E54 
 13075      5F53484F 
 13075      52545F43 
 13075      4C49434B 
 13076              	.LASF264:
 13077 1567 4C565F45 		.ascii	"LV_EVENT_LONG_PRESSED_REPEAT\000"
 13077      56454E54 
 13077      5F4C4F4E 
 13077      475F5052 
ARM GAS  C:\Users\haske\AppData\Local\Temp\ccVRp2Ta.s 			page 279


 13077      45535345 
 13078              	.LASF428:
 13079 1584 746F7461 		.ascii	"total_track_cross_size\000"
 13079      6C5F7472 
 13079      61636B5F 
 13079      63726F73 
 13079      735F7369 
 13080              	.LASF183:
 13081 159b 666F6375 		.ascii	"focus_cb\000"
 13081      735F6362 
 13081      00
 13082              	.LASF434:
 13083 15a4 6C765F73 		.ascii	"lv_style_set_flex_flow\000"
 13083      74796C65 
 13083      5F736574 
 13083      5F666C65 
 13083      785F666C 
 13084              	.LASF131:
 13085 15bb 4C565F53 		.ascii	"LV_STYLE_COLOR_FILTER_OPA\000"
 13085      54594C45 
 13085      5F434F4C 
 13085      4F525F46 
 13085      494C5445 
 13086              	.LASF365:
 13087 15d5 6C765F6F 		.ascii	"lv_obj_get_style_max_width\000"
 13087      626A5F67 
 13087      65745F73 
 13087      74796C65 
 13087      5F6D6178 
 13088              	.LASF21:
 13089 15f0 6C6F6E67 		.ascii	"long double\000"
 13089      20646F75 
 13089      626C6500 
 13090              	.LASF233:
 13091 15fc 7374796C 		.ascii	"style\000"
 13091      6500
 13092              	.LASF463:
 13093 1602 4C565F53 		.ascii	"LV_STYLE_GRID_CELL_ROW_SPAN\000"
 13093      54594C45 
 13093      5F475249 
 13093      445F4345 
 13093      4C4C5F52 
 13094              	.LASF231:
 13095 161e 6C765F73 		.ascii	"lv_scroll_snap_t\000"
 13095      63726F6C 
 13095      6C5F736E 
 13095      61705F74 
 13095      00
 13096              	.LASF445:
 13097 162f 6C765F6F 		.ascii	"lv_obj_set_style_flex_grow\000"
 13097      626A5F73 
 13097      65745F73 
 13097      74796C65 
 13097      5F666C65 
 13098              	.LASF341:
 13099 164a 63726F73 		.ascii	"cross_place\000"
 13099      735F706C 
ARM GAS  C:\Users\haske\AppData\Local\Temp\ccVRp2Ta.s 			page 280


 13099      61636500 
 13100              	.LASF37:
 13101 1656 73756270 		.ascii	"subpx\000"
 13101      7800
 13102              	.LASF470:
 13103 165c 6C765F6F 		.ascii	"lv_obj_has_flag\000"
 13103      626A5F68 
 13103      61735F66 
 13103      6C616700 
 13104              	.LASF354:
 13105 166c 6974656D 		.ascii	"item_cnt\000"
 13105      5F636E74 
 13105      00
 13106              	.LASF190:
 13107 1675 4C565F50 		.ascii	"LV_PART_MAIN\000"
 13107      4152545F 
 13107      4D41494E 
 13107      00
 13108              	.LASF390:
 13109 1682 6974656D 		.ascii	"item_start_id\000"
 13109      5F737461 
 13109      72745F69 
 13109      6400
 13110              	.LASF259:
 13111 1690 4C565F45 		.ascii	"LV_EVENT_PRESSED\000"
 13111      56454E54 
 13111      5F505245 
 13111      53534544 
 13111      00
 13112              	.LASF290:
 13113 16a1 4C565F45 		.ascii	"LV_EVENT_CANCEL\000"
 13113      56454E54 
 13113      5F43414E 
 13113      43454C00 
 13114              	.LASF490:
 13115 16b1 2E2E5C2E 		.ascii	"..\\..\\..\\arduinoLCD\\test\\Pain Drain\\libraries"
 13115      2E5C2E2E 
 13115      5C617264 
 13115      75696E6F 
 13115      4C43445C 
 13116 16de 5C6C7667 		.ascii	"\\lvgl\\src\\extra\\layouts\\flex\\lv_flex.c\000"
 13116      6C5C7372 
 13116      635C6578 
 13116      7472615C 
 13116      6C61796F 
 13117              	.LASF195:
 13118 1705 4C565F50 		.ascii	"LV_PART_ITEMS\000"
 13118      4152545F 
 13118      4954454D 
 13118      5300
 13119              	.LASF417:
 13120 1713 63726F73 		.ascii	"cross_pos\000"
 13120      735F706F 
 13120      7300
 13121              	.LASF93:
 13122 171d 4C565F53 		.ascii	"LV_STYLE_BORDER_COLOR\000"
 13122      54594C45 
ARM GAS  C:\Users\haske\AppData\Local\Temp\ccVRp2Ta.s 			page 281


 13122      5F424F52 
 13122      4445525F 
 13122      434F4C4F 
 13123              	.LASF0:
 13124 1733 5F5F696E 		.ascii	"__int8_t\000"
 13124      74385F74 
 13124      00
 13125              	.LASF303:
 13126 173c 5F4C565F 		.ascii	"_LV_EVENT_LAST\000"
 13126      4556454E 
 13126      545F4C41 
 13126      535400
 13127              	.LASF186:
 13128 174b 65646974 		.ascii	"editing\000"
 13128      696E6700 
 13129              	.LASF344:
 13130 1753 6974656D 		.ascii	"item\000"
 13130      00
 13131              	.LASF414:
 13132 1758 73697A65 		.ascii	"size\000"
 13132      00
 13133              	.LASF13:
 13134 175d 6C6F6E67 		.ascii	"long long unsigned int\000"
 13134      206C6F6E 
 13134      6720756E 
 13134      7369676E 
 13134      65642069 
 13135              	.LASF298:
 13136 1774 4C565F45 		.ascii	"LV_EVENT_SCREEN_UNLOADED\000"
 13136      56454E54 
 13136      5F534352 
 13136      45454E5F 
 13136      554E4C4F 
 13137              	.LASF85:
 13138 178d 4C565F53 		.ascii	"LV_STYLE_BG_GRAD_STOP\000"
 13138      54594C45 
 13138      5F42475F 
 13138      47524144 
 13138      5F53544F 
 13139              	.LASF375:
 13140 17a3 6C765F6F 		.ascii	"lv_obj_get_style_pad_column\000"
 13140      626A5F67 
 13140      65745F73 
 13140      74796C65 
 13140      5F706164 
 13141              	.LASF96:
 13142 17bf 4C565F53 		.ascii	"LV_STYLE_BORDER_SIDE\000"
 13142      54594C45 
 13142      5F424F52 
 13142      4445525F 
 13142      53494445 
 13143              	.LASF481:
 13144 17d4 6C765F6F 		.ascii	"lv_obj_get_scroll_x\000"
 13144      626A5F67 
 13144      65745F73 
 13144      63726F6C 
 13144      6C5F7800 
ARM GAS  C:\Users\haske\AppData\Local\Temp\ccVRp2Ta.s 			page 282


 13145              	.LASF306:
 13146 17e8 6C765F67 		.ascii	"lv_group_focus_cb_t\000"
 13146      726F7570 
 13146      5F666F63 
 13146      75735F63 
 13146      625F7400 
 13147              	.LASF238:
 13148 17fc 5F6C765F 		.ascii	"_lv_obj_class_t\000"
 13148      6F626A5F 
 13148      636C6173 
 13148      735F7400 
 13149              	.LASF18:
 13150 180c 75696E74 		.ascii	"uint16_t\000"
 13150      31365F74 
 13150      00
 13151              	.LASF465:
 13152 1815 6C765F6F 		.ascii	"lv_obj_get_style_prop\000"
 13152      626A5F67 
 13152      65745F73 
 13152      74796C65 
 13152      5F70726F 
 13153              	.LASF348:
 13154 182b 67726F77 		.ascii	"grow_value\000"
 13154      5F76616C 
 13154      756500
 13155              	.LASF188:
 13156 1836 77726170 		.ascii	"wrap\000"
 13156      00
 13157              	.LASF51:
 13158 183b 6C765F63 		.ascii	"lv_color_t\000"
 13158      6F6C6F72 
 13158      5F7400
 13159              	.LASF61:
 13160 1846 4C565F53 		.ascii	"LV_STYLE_WIDTH\000"
 13160      54594C45 
 13160      5F574944 
 13160      544800
 13161              	.LASF381:
 13162 1855 6C765F61 		.ascii	"lv_area_get_height\000"
 13162      7265615F 
 13162      6765745F 
 13162      68656967 
 13162      687400
 13163              	.LASF426:
 13164 1868 626F7264 		.ascii	"border_width\000"
 13164      65725F77 
 13164      69647468 
 13164      00
 13165              	.LASF62:
 13166 1875 4C565F53 		.ascii	"LV_STYLE_MIN_WIDTH\000"
 13166      54594C45 
 13166      5F4D494E 
 13166      5F574944 
 13166      544800
 13167              	.LASF360:
 13168 1888 6C765F6F 		.ascii	"lv_obj_get_style_height\000"
 13168      626A5F67 
ARM GAS  C:\Users\haske\AppData\Local\Temp\ccVRp2Ta.s 			page 283


 13168      65745F73 
 13168      74796C65 
 13168      5F686569 
 13169              	.LASF450:
 13170 18a0 4C565F53 		.ascii	"LV_STYLE_FLEX_FLOW\000"
 13170      54594C45 
 13170      5F464C45 
 13170      585F464C 
 13170      4F5700
 13171              	.LASF103:
 13172 18b3 4C565F53 		.ascii	"LV_STYLE_SHADOW_OFS_X\000"
 13172      54594C45 
 13172      5F534841 
 13172      444F575F 
 13172      4F46535F 
 13173              	.LASF104:
 13174 18c9 4C565F53 		.ascii	"LV_STYLE_SHADOW_OFS_Y\000"
 13174      54594C45 
 13174      5F534841 
 13174      444F575F 
 13174      4F46535F 
 13175              	.LASF88:
 13176 18df 4C565F53 		.ascii	"LV_STYLE_BG_IMG_SRC\000"
 13176      54594C45 
 13176      5F42475F 
 13176      494D475F 
 13176      53524300 
 13177              	.LASF121:
 13178 18f3 4C565F53 		.ascii	"LV_STYLE_ARC_IMG_SRC\000"
 13178      54594C45 
 13178      5F415243 
 13178      5F494D47 
 13178      5F535243 
 13179              	.LASF153:
 13180 1908 76616C75 		.ascii	"value1\000"
 13180      653100
 13181              	.LASF405:
 13182 190f 61726561 		.ascii	"area_set_main_size\000"
 13182      5F736574 
 13182      5F6D6169 
 13182      6E5F7369 
 13182      7A6500
 13183              	.LASF4:
 13184 1922 5F5F696E 		.ascii	"__int16_t\000"
 13184      7431365F 
 13184      7400
 13185              	.LASF124:
 13186 192c 4C565F53 		.ascii	"LV_STYLE_TEXT_FONT\000"
 13186      54594C45 
 13186      5F544558 
 13186      545F464F 
 13186      4E5400
 13187              	.LASF440:
 13188 193f 6C765F6F 		.ascii	"lv_obj_set_flex_flow\000"
 13188      626A5F73 
 13188      65745F66 
 13188      6C65785F 
ARM GAS  C:\Users\haske\AppData\Local\Temp\ccVRp2Ta.s 			page 284


 13188      666C6F77 
 13189              	.LASF147:
 13190 1954 4C565F53 		.ascii	"LV_STYLE_PROP_ANY\000"
 13190      54594C45 
 13190      5F50524F 
 13190      505F414E 
 13190      5900
 13191              	.LASF371:
 13192 1966 6C765F6F 		.ascii	"lv_obj_get_style_flex_track_place\000"
 13192      626A5F67 
 13192      65745F73 
 13192      74796C65 
 13192      5F666C65 
 13193              	.LASF368:
 13194 1988 64657374 		.ascii	"dest\000"
 13194      00
 13195              	.LASF476:
 13196 198d 6C765F6F 		.ascii	"lv_obj_get_height\000"
 13196      626A5F67 
 13196      65745F68 
 13196      65696768 
 13196      7400
 13197              	.LASF49:
 13198 199f 66756C6C 		.ascii	"full\000"
 13198      00
 13199              	.LASF58:
 13200 19a4 636F6C6F 		.ascii	"color\000"
 13200      7200
 13201              	.LASF447:
 13202 19aa 67726F77 		.ascii	"grow\000"
 13202      00
 13203              	.LASF339:
 13204 19af 6C765F66 		.ascii	"lv_flex_flow_t\000"
 13204      6C65785F 
 13204      666C6F77 
 13204      5F7400
 13205              	.LASF251:
 13206 19be 636F6465 		.ascii	"code\000"
 13206      00
 13207              	.LASF304:
 13208 19c3 4C565F45 		.ascii	"LV_EVENT_PREPROCESS\000"
 13208      56454E54 
 13208      5F505245 
 13208      50524F43 
 13208      45535300 
 13209              	.LASF323:
 13210 19d7 6C765F6F 		.ascii	"lv_obj_t\000"
 13210      626A5F74 
 13210      00
 13211              	.LASF332:
 13212 19e0 4C565F46 		.ascii	"LV_FLEX_FLOW_COLUMN\000"
 13212      4C45585F 
 13212      464C4F57 
 13212      5F434F4C 
 13212      554D4E00 
 13213              	.LASF407:
 13214 19f4 61726561 		.ascii	"area_get_cross_size\000"
ARM GAS  C:\Users\haske\AppData\Local\Temp\ccVRp2Ta.s 			page 285


 13214      5F676574 
 13214      5F63726F 
 13214      73735F73 
 13214      697A6500 
 13215              	.LASF241:
 13216 1a08 64657374 		.ascii	"destructor_cb\000"
 13216      72756374 
 13216      6F725F63 
 13216      6200
 13217              	.LASF374:
 13218 1a16 6C765F6F 		.ascii	"lv_obj_get_style_flex_flow\000"
 13218      626A5F67 
 13218      65745F73 
 13218      74796C65 
 13218      5F666C65 
 13219              	.LASF376:
 13220 1a31 6C765F6F 		.ascii	"lv_obj_get_style_pad_row\000"
 13220      626A5F67 
 13220      65745F73 
 13220      74796C65 
 13220      5F706164 
 13221              	.LASF161:
 13222 1a4a 5F6C765F 		.ascii	"_lv_obj_t\000"
 13222      6F626A5F 
 13222      7400
 13223              	.LASF66:
 13224 1a54 4C565F53 		.ascii	"LV_STYLE_MAX_HEIGHT\000"
 13224      54594C45 
 13224      5F4D4158 
 13224      5F484549 
 13224      47485400 
 13225              	.LASF202:
 13226 1a68 4C565F4F 		.ascii	"LV_OBJ_FLAG_CLICK_FOCUSABLE\000"
 13226      424A5F46 
 13226      4C41475F 
 13226      434C4943 
 13226      4B5F464F 
 13227              	.LASF437:
 13228 1a84 6C765F73 		.ascii	"lv_style_set_flex_track_place\000"
 13228      74796C65 
 13228      5F736574 
 13228      5F666C65 
 13228      785F7472 
 13229              	.LASF82:
 13230 1aa2 4C565F53 		.ascii	"LV_STYLE_BG_GRAD_COLOR\000"
 13230      54594C45 
 13230      5F42475F 
 13230      47524144 
 13230      5F434F4C 
 13231              	.LASF29:
 13232 1ab9 626F785F 		.ascii	"box_h\000"
 13232      6800
 13233              	.LASF430:
 13234 1abf 74726163 		.ascii	"track_first_item\000"
 13234      6B5F6669 
 13234      7273745F 
 13234      6974656D 
ARM GAS  C:\Users\haske\AppData\Local\Temp\ccVRp2Ta.s 			page 286


 13234      00
 13235              	.LASF372:
 13236 1ad0 6C765F6F 		.ascii	"lv_obj_get_style_flex_cross_place\000"
 13236      626A5F67 
 13236      65745F73 
 13236      74796C65 
 13236      5F666C65 
 13237              	.LASF50:
 13238 1af2 6C765F63 		.ascii	"lv_color16_t\000"
 13238      6F6C6F72 
 13238      31365F74 
 13238      00
 13239              	.LASF28:
 13240 1aff 626F785F 		.ascii	"box_w\000"
 13240      7700
 13241              	.LASF5:
 13242 1b05 73686F72 		.ascii	"short int\000"
 13242      7420696E 
 13242      7400
 13243              	.LASF36:
 13244 1b0f 62617365 		.ascii	"base_line\000"
 13244      5F6C696E 
 13244      6500
 13245              	.LASF179:
 13246 1b19 6C765F6C 		.ascii	"lv_ll_t\000"
 13246      6C5F7400 
 13247              	.LASF448:
 13248 1b21 6C765F66 		.ascii	"lv_font_montserrat_14\000"
 13248      6F6E745F 
 13248      6D6F6E74 
 13248      73657272 
 13248      61745F31 
 13249              	.LASF214:
 13250 1b37 4C565F4F 		.ascii	"LV_OBJ_FLAG_PRESS_LOCK\000"
 13250      424A5F46 
 13250      4C41475F 
 13250      50524553 
 13250      535F4C4F 
 13251              	.LASF416:
 13252 1b4e 67726F77 		.ascii	"grow_size\000"
 13252      5F73697A 
 13252      6500
 13253              	.LASF283:
 13254 1b58 4C565F45 		.ascii	"LV_EVENT_DRAW_POST_END\000"
 13254      56454E54 
 13254      5F445241 
 13254      575F504F 
 13254      53545F45 
 13255              	.LASF418:
 13256 1b6f 74725F78 		.ascii	"tr_x\000"
 13256      00
 13257              	.LASF284:
 13258 1b74 4C565F45 		.ascii	"LV_EVENT_DRAW_PART_BEGIN\000"
 13258      56454E54 
 13258      5F445241 
 13258      575F5041 
 13258      52545F42 
ARM GAS  C:\Users\haske\AppData\Local\Temp\ccVRp2Ta.s 			page 287


 13259              	.LASF119:
 13260 1b8d 4C565F53 		.ascii	"LV_STYLE_ARC_COLOR\000"
 13260      54594C45 
 13260      5F415243 
 13260      5F434F4C 
 13260      4F5200
 13261              	.LASF250:
 13262 1ba0 63757272 		.ascii	"current_target\000"
 13262      656E745F 
 13262      74617267 
 13262      657400
 13263              	.LASF17:
 13264 1baf 696E7431 		.ascii	"int16_t\000"
 13264      365F7400 
 13265              	.LASF479:
 13266 1bb7 6C765F6F 		.ascii	"lv_obj_get_content_height\000"
 13266      626A5F67 
 13266      65745F63 
 13266      6F6E7465 
 13266      6E745F68 
 13267              	.LASF329:
 13268 1bd1 4C565F46 		.ascii	"LV_FLEX_ALIGN_SPACE_BETWEEN\000"
 13268      4C45585F 
 13268      414C4947 
 13268      4E5F5350 
 13268      4143455F 
 13269              	.LASF427:
 13270 1bed 74726163 		.ascii	"track_cross_place\000"
 13270      6B5F6372 
 13270      6F73735F 
 13270      706C6163 
 13270      6500
 13271              	.LASF483:
 13272 1bff 6C765F6C 		.ascii	"lv_layout_register\000"
 13272      61796F75 
 13272      745F7265 
 13272      67697374 
 13272      657200
 13273              	.LASF166:
 13274 1c12 636F6F72 		.ascii	"coords\000"
 13274      647300
 13275              	.LASF408:
 13276 1c19 67726F77 		.ascii	"grow_reiterate\000"
 13276      5F726569 
 13276      74657261 
 13276      746500
 13277              	.LASF146:
 13278 1c28 5F4C565F 		.ascii	"_LV_STYLE_NUM_BUILT_IN_PROPS\000"
 13278      5354594C 
 13278      455F4E55 
 13278      4D5F4255 
 13278      494C545F 
 13279              	.LASF72:
 13280 1c45 4C565F53 		.ascii	"LV_STYLE_PAD_TOP\000"
 13280      54594C45 
 13280      5F504144 
 13280      5F544F50 
ARM GAS  C:\Users\haske\AppData\Local\Temp\ccVRp2Ta.s 			page 288


 13280      00
 13281              	.LASF486:
 13282 1c56 6C765F6F 		.ascii	"lv_obj_set_local_style_prop\000"
 13282      626A5F73 
 13282      65745F6C 
 13282      6F63616C 
 13282      5F737479 
 13283              	.LASF436:
 13284 1c72 6C765F73 		.ascii	"lv_style_set_flex_cross_place\000"
 13284      74796C65 
 13284      5F736574 
 13284      5F666C65 
 13284      785F6372 
 13285              	.LASF198:
 13286 1c90 4C565F50 		.ascii	"LV_PART_CUSTOM_FIRST\000"
 13286      4152545F 
 13286      43555354 
 13286      4F4D5F46 
 13286      49525354 
 13287              	.LASF89:
 13288 1ca5 4C565F53 		.ascii	"LV_STYLE_BG_IMG_OPA\000"
 13288      54594C45 
 13288      5F42475F 
 13288      494D475F 
 13288      4F504100 
 13289              	.LASF111:
 13290 1cb9 4C565F53 		.ascii	"LV_STYLE_LINE_WIDTH\000"
 13290      54594C45 
 13290      5F4C494E 
 13290      455F5749 
 13290      44544800 
 13291              	.LASF273:
 13292 1ccd 4C565F45 		.ascii	"LV_EVENT_DEFOCUSED\000"
 13292      56454E54 
 13292      5F444546 
 13292      4F435553 
 13292      454400
 13293              	.LASF443:
 13294 1ce0 6C765F6F 		.ascii	"lv_obj_set_style_flex_track_place\000"
 13294      626A5F73 
 13294      65745F73 
 13294      74796C65 
 13294      5F666C65 
 13295              	.LASF380:
 13296 1d02 6C765F61 		.ascii	"lv_area_get_width\000"
 13296      7265615F 
 13296      6765745F 
 13296      77696474 
 13296      6800
 13297              	.LASF491:
 13298 1d14 433A5C50 		.ascii	"C:\\Projects\\PainDrain\\firmware\\PainDrain\\PainD"
 13298      726F6A65 
 13298      6374735C 
 13298      5061696E 
 13298      44726169 
 13299 1d42 7261696E 		.ascii	"rain.cydsn\000"
 13299      2E637964 
ARM GAS  C:\Users\haske\AppData\Local\Temp\ccVRp2Ta.s 			page 289


 13299      736E00
 13300              	.LASF156:
 13301 1d4d 70726F70 		.ascii	"prop1\000"
 13301      3100
 13302              	.LASF268:
 13303 1d53 4C565F45 		.ascii	"LV_EVENT_SCROLL_END\000"
 13303      56454E54 
 13303      5F534352 
 13303      4F4C4C5F 
 13303      454E4400 
 13304              	.LASF65:
 13305 1d67 4C565F53 		.ascii	"LV_STYLE_MIN_HEIGHT\000"
 13305      54594C45 
 13305      5F4D494E 
 13305      5F484549 
 13305      47485400 
 13306              	.LASF97:
 13307 1d7b 4C565F53 		.ascii	"LV_STYLE_BORDER_POST\000"
 13307      54594C45 
 13307      5F424F52 
 13307      4445525F 
 13307      504F5354 
 13308              	.LASF353:
 13309 1d90 74726163 		.ascii	"track_fix_main_size\000"
 13309      6B5F6669 
 13309      785F6D61 
 13309      696E5F73 
 13309      697A6500 
 13310              	.LASF67:
 13311 1da4 4C565F53 		.ascii	"LV_STYLE_X\000"
 13311      54594C45 
 13311      5F5800
 13312              	.LASF68:
 13313 1daf 4C565F53 		.ascii	"LV_STYLE_Y\000"
 13313      54594C45 
 13313      5F5900
 13314              	.LASF114:
 13315 1dba 4C565F53 		.ascii	"LV_STYLE_LINE_ROUNDED\000"
 13315      54594C45 
 13315      5F4C494E 
 13315      455F524F 
 13315      554E4445 
 13316              	.LASF300:
 13317 1dd0 4C565F45 		.ascii	"LV_EVENT_STYLE_CHANGED\000"
 13317      56454E54 
 13317      5F535459 
 13317      4C455F43 
 13317      48414E47 
 13318              	.LASF289:
 13319 1de7 4C565F45 		.ascii	"LV_EVENT_READY\000"
 13319      56454E54 
 13319      5F524541 
 13319      445900
 13320              	.LASF282:
 13321 1df6 4C565F45 		.ascii	"LV_EVENT_DRAW_POST\000"
 13321      56454E54 
 13321      5F445241 
ARM GAS  C:\Users\haske\AppData\Local\Temp\ccVRp2Ta.s 			page 290


 13321      575F504F 
 13321      535400
 13322              	.LASF20:
 13323 1e09 75696E74 		.ascii	"uint32_t\000"
 13323      33325F74 
 13323      00
 13324              	.LASF197:
 13325 1e12 4C565F50 		.ascii	"LV_PART_CURSOR\000"
 13325      4152545F 
 13325      43555253 
 13325      4F5200
 13326              	.LASF330:
 13327 1e21 6C765F66 		.ascii	"lv_flex_align_t\000"
 13327      6C65785F 
 13327      616C6967 
 13327      6E5F7400 
 13328              	.LASF326:
 13329 1e31 4C565F46 		.ascii	"LV_FLEX_ALIGN_CENTER\000"
 13329      4C45585F 
 13329      414C4947 
 13329      4E5F4345 
 13329      4E544552 
 13330              	.LASF229:
 13331 1e46 6C765F6F 		.ascii	"lv_obj_flag_t\000"
 13331      626A5F66 
 13331      6C61675F 
 13331      7400
 13332              	.LASF299:
 13333 1e54 4C565F45 		.ascii	"LV_EVENT_SIZE_CHANGED\000"
 13333      56454E54 
 13333      5F53495A 
 13333      455F4348 
 13333      414E4745 
 13334              	.LASF442:
 13335 1e6a 6C765F6F 		.ascii	"lv_obj_set_style_flex_cross_place\000"
 13335      626A5F73 
 13335      65745F73 
 13335      74796C65 
 13335      5F666C65 
 13336              	.LASF48:
 13337 1e8c 67726565 		.ascii	"green\000"
 13337      6E00
 13338              	.LASF44:
 13339 1e92 6C765F66 		.ascii	"lv_font_t\000"
 13339      6F6E745F 
 13339      7400
 13340              	.LASF336:
 13341 1e9c 4C565F46 		.ascii	"LV_FLEX_FLOW_COLUMN_WRAP\000"
 13341      4C45585F 
 13341      464C4F57 
 13341      5F434F4C 
 13341      554D4E5F 
 13342              	.LASF301:
 13343 1eb5 4C565F45 		.ascii	"LV_EVENT_LAYOUT_CHANGED\000"
 13343      56454E54 
 13343      5F4C4159 
 13343      4F55545F 
ARM GAS  C:\Users\haske\AppData\Local\Temp\ccVRp2Ta.s 			page 291


 13343      4348414E 
 13344              	.LASF333:
 13345 1ecd 4C565F46 		.ascii	"LV_FLEX_FLOW_ROW_WRAP\000"
 13345      4C45585F 
 13345      464C4F57 
 13345      5F524F57 
 13345      5F575241 
 13346              	.LASF7:
 13347 1ee3 73686F72 		.ascii	"short unsigned int\000"
 13347      7420756E 
 13347      7369676E 
 13347      65642069 
 13347      6E7400
 13348              	.LASF343:
 13349 1ef6 666C6578 		.ascii	"flex_t\000"
 13349      5F7400
 13350              	.LASF271:
 13351 1efd 4C565F45 		.ascii	"LV_EVENT_KEY\000"
 13351      56454E54 
 13351      5F4B4559 
 13351      00
 13352              	.LASF22:
 13353 1f0a 6C765F63 		.ascii	"lv_coord_t\000"
 13353      6F6F7264 
 13353      5F7400
 13354              	.LASF347:
 13355 1f15 66696E61 		.ascii	"final_size\000"
 13355      6C5F7369 
 13355      7A6500
 13356              	.LASF431:
 13357 1f20 6E657874 		.ascii	"next_track_first_item\000"
 13357      5F747261 
 13357      636B5F66 
 13357      69727374 
 13357      5F697465 
 13358              	.LASF337:
 13359 1f36 4C565F46 		.ascii	"LV_FLEX_FLOW_COLUMN_REVERSE\000"
 13359      4C45585F 
 13359      464C4F57 
 13359      5F434F4C 
 13359      554D4E5F 
 13360              	.LASF439:
 13361 1f52 6C765F6F 		.ascii	"lv_obj_set_style_flex_flow\000"
 13361      626A5F73 
 13361      65745F73 
 13361      74796C65 
 13361      5F666C65 
 13362              	.LASF267:
 13363 1f6d 4C565F45 		.ascii	"LV_EVENT_SCROLL_BEGIN\000"
 13363      56454E54 
 13363      5F534352 
 13363      4F4C4C5F 
 13363      42454749 
 13364              	.LASF99:
 13365 1f83 4C565F53 		.ascii	"LV_STYLE_OUTLINE_COLOR\000"
 13365      54594C45 
 13365      5F4F5554 
ARM GAS  C:\Users\haske\AppData\Local\Temp\ccVRp2Ta.s 			page 292


 13365      4C494E45 
 13365      5F434F4C 
 13366              	.LASF41:
 13367 1f9a 75736572 		.ascii	"user_data\000"
 13367      5F646174 
 13367      6100
 13368              	.LASF261:
 13369 1fa4 4C565F45 		.ascii	"LV_EVENT_PRESS_LOST\000"
 13369      56454E54 
 13369      5F505245 
 13369      53535F4C 
 13369      4F535400 
 13370              	.LASF449:
 13371 1fb8 4C565F4C 		.ascii	"LV_LAYOUT_FLEX\000"
 13371      41594F55 
 13371      545F464C 
 13371      455800
 13372              	.LASF396:
 13373 1fc7 6765745F 		.ascii	"get_cross_size\000"
 13373      63726F73 
 13373      735F7369 
 13373      7A6500
 13374              	.LASF492:
 13375 1fd6 5F6C765F 		.ascii	"_lv_event_dsc_t\000"
 13375      6576656E 
 13375      745F6473 
 13375      635F7400 
 13376              	.LASF105:
 13377 1fe6 4C565F53 		.ascii	"LV_STYLE_SHADOW_SPREAD\000"
 13377      54594C45 
 13377      5F534841 
 13377      444F575F 
 13377      53505245 
 13378              	.LASF196:
 13379 1ffd 4C565F50 		.ascii	"LV_PART_TICKS\000"
 13379      4152545F 
 13379      5449434B 
 13379      5300
 13380              	.LASF33:
 13381 200b 6765745F 		.ascii	"get_glyph_dsc\000"
 13381      676C7970 
 13381      685F6473 
 13381      6300
 13382              	.LASF8:
 13383 2019 5F5F696E 		.ascii	"__int32_t\000"
 13383      7433325F 
 13383      7400
 13384              	.LASF234:
 13385 2023 73656C65 		.ascii	"selector\000"
 13385      63746F72 
 13385      00
 13386              	.LASF272:
 13387 202c 4C565F45 		.ascii	"LV_EVENT_FOCUSED\000"
 13387      56454E54 
 13387      5F464F43 
 13387      55534544 
 13387      00
ARM GAS  C:\Users\haske\AppData\Local\Temp\ccVRp2Ta.s 			page 293


 13388              	.LASF187:
 13389 203d 7265666F 		.ascii	"refocus_policy\000"
 13389      6375735F 
 13389      706F6C69 
 13389      637900
 13390              	.LASF52:
 13391 204c 4C565F42 		.ascii	"LV_BASE_DIR_LTR\000"
 13391      4153455F 
 13391      4449525F 
 13391      4C545200 
 13392              	.LASF350:
 13393 205c 67726F77 		.ascii	"grow_dsc_t\000"
 13393      5F647363 
 13393      5F7400
 13394              	.LASF455:
 13395 2067 4C565F53 		.ascii	"LV_STYLE_GRID_COLUMN_DSC_ARRAY\000"
 13395      54594C45 
 13395      5F475249 
 13395      445F434F 
 13395      4C554D4E 
 13396              	.LASF244:
 13397 2086 68656967 		.ascii	"height_def\000"
 13397      68745F64 
 13397      656600
 13398              	.LASF295:
 13399 2091 4C565F45 		.ascii	"LV_EVENT_SCREEN_UNLOAD_START\000"
 13399      56454E54 
 13399      5F534352 
 13399      45454E5F 
 13399      554E4C4F 
 13400              	.LASF472:
 13401 20ae 6C765F6F 		.ascii	"lv_obj_invalidate\000"
 13401      626A5F69 
 13401      6E76616C 
 13401      69646174 
 13401      6500
 13402              	.LASF207:
 13403 20c0 4C565F4F 		.ascii	"LV_OBJ_FLAG_SCROLL_ONE\000"
 13403      424A5F46 
 13403      4C41475F 
 13403      5343524F 
 13403      4C4C5F4F 
 13404              	.LASF359:
 13405 20d7 70617274 		.ascii	"part\000"
 13405      00
 13406              	.LASF253:
 13407 20dc 70726576 		.ascii	"prev\000"
 13407      00
 13408              	.LASF54:
 13409 20e1 4C565F42 		.ascii	"LV_BASE_DIR_AUTO\000"
 13409      4153455F 
 13409      4449525F 
 13409      4155544F 
 13409      00
 13410              	.LASF389:
 13411 20f2 66696E64 		.ascii	"find_track_end\000"
 13411      5F747261 
ARM GAS  C:\Users\haske\AppData\Local\Temp\ccVRp2Ta.s 			page 294


 13411      636B5F65 
 13411      6E6400
 13412              	.LASF176:
 13413 2101 6E5F7369 		.ascii	"n_size\000"
 13413      7A6500
 13414              	.LASF473:
 13415 2108 6C765F65 		.ascii	"lv_event_send\000"
 13415      76656E74 
 13415      5F73656E 
 13415      6400
 13416              	.LASF393:
 13417 2116 775F7365 		.ascii	"w_set\000"
 13417      7400
 13418              	.LASF180:
 13419 211c 5F6C765F 		.ascii	"_lv_group_t\000"
 13419      67726F75 
 13419      705F7400 
 13420              	.LASF86:
 13421 2128 4C565F53 		.ascii	"LV_STYLE_BG_GRAD\000"
 13421      54594C45 
 13421      5F42475F 
 13421      47524144 
 13421      00
 13422              	.LASF266:
 13423 2139 4C565F45 		.ascii	"LV_EVENT_RELEASED\000"
 13423      56454E54 
 13423      5F52454C 
 13423      45415345 
 13423      4400
 13424              	.LASF32:
 13425 214b 69735F70 		.ascii	"is_placeholder\000"
 13425      6C616365 
 13425      686F6C64 
 13425      657200
 13426              	.LASF394:
 13427 215a 685F7365 		.ascii	"h_set\000"
 13427      7400
 13428              	.LASF101:
 13429 2160 4C565F53 		.ascii	"LV_STYLE_OUTLINE_PAD\000"
 13429      54594C45 
 13429      5F4F5554 
 13429      4C494E45 
 13429      5F504144 
 13430              	.LASF471:
 13431 2175 6C765F6F 		.ascii	"lv_obj_has_flag_any\000"
 13431      626A5F68 
 13431      61735F66 
 13431      6C61675F 
 13431      616E7900 
 13432              	.LASF182:
 13433 2189 6F626A5F 		.ascii	"obj_focus\000"
 13433      666F6375 
 13433      7300
 13434              	.LASF125:
 13435 2193 4C565F53 		.ascii	"LV_STYLE_TEXT_LETTER_SPACE\000"
 13435      54594C45 
 13435      5F544558 
ARM GAS  C:\Users\haske\AppData\Local\Temp\ccVRp2Ta.s 			page 295


 13435      545F4C45 
 13435      54544552 
 13436              	.LASF324:
 13437 21ae 4C565F46 		.ascii	"LV_FLEX_ALIGN_START\000"
 13437      4C45585F 
 13437      414C4947 
 13437      4E5F5354 
 13437      41525400 
 13438              	.LASF320:
 13439 21c2 6576656E 		.ascii	"event_dsc_cnt\000"
 13439      745F6473 
 13439      635F636E 
 13439      7400
 13440              		.ident	"GCC: (GNU Tools for ARM Embedded Processors) 5.4.1 20160609 (release) [ARM/embedded-5-bran
