ARM GAS  C:\Users\haske\AppData\Local\Temp\cc4gWNdf.s 			page 1


   1              		.syntax unified
   2              		.cpu cortex-m0plus
   3              		.fpu softvfp
   4              		.eabi_attribute 20, 1
   5              		.eabi_attribute 21, 1
   6              		.eabi_attribute 23, 3
   7              		.eabi_attribute 24, 1
   8              		.eabi_attribute 25, 1
   9              		.eabi_attribute 26, 1
  10              		.eabi_attribute 30, 1
  11              		.eabi_attribute 34, 0
  12              		.eabi_attribute 18, 4
  13              		.thumb
  14              		.syntax unified
  15              		.file	"lv_fs.c"
  16              		.text
  17              	.Ltext0:
  18              		.cfi_sections	.debug_frame
  19              		.section	.text.lv_fs_get_real_path,"ax",%progbits
  20              		.align	2
  21              		.code	16
  22              		.thumb_func
  23              		.type	lv_fs_get_real_path, %function
  24              	lv_fs_get_real_path:
  25              	.LFB43:
  26              		.file 1 "..\\..\\..\\arduinoLCD\\test\\Pain Drain\\libraries\\lvgl\\src\\misc\\lv_fs.c"
   1:..\..\..\arduinoLCD\test\Pain Drain\libraries\lvgl\src\misc/lv_fs.c **** /**
   2:..\..\..\arduinoLCD\test\Pain Drain\libraries\lvgl\src\misc/lv_fs.c ****  * @file lv_fs.c
   3:..\..\..\arduinoLCD\test\Pain Drain\libraries\lvgl\src\misc/lv_fs.c ****  *
   4:..\..\..\arduinoLCD\test\Pain Drain\libraries\lvgl\src\misc/lv_fs.c ****  */
   5:..\..\..\arduinoLCD\test\Pain Drain\libraries\lvgl\src\misc/lv_fs.c **** 
   6:..\..\..\arduinoLCD\test\Pain Drain\libraries\lvgl\src\misc/lv_fs.c **** /*********************
   7:..\..\..\arduinoLCD\test\Pain Drain\libraries\lvgl\src\misc/lv_fs.c ****  *      INCLUDES
   8:..\..\..\arduinoLCD\test\Pain Drain\libraries\lvgl\src\misc/lv_fs.c ****  *********************/
   9:..\..\..\arduinoLCD\test\Pain Drain\libraries\lvgl\src\misc/lv_fs.c **** #include "lv_fs.h"
  10:..\..\..\arduinoLCD\test\Pain Drain\libraries\lvgl\src\misc/lv_fs.c **** 
  11:..\..\..\arduinoLCD\test\Pain Drain\libraries\lvgl\src\misc/lv_fs.c **** #include "../misc/lv_assert.h"
  12:..\..\..\arduinoLCD\test\Pain Drain\libraries\lvgl\src\misc/lv_fs.c **** #include "lv_ll.h"
  13:..\..\..\arduinoLCD\test\Pain Drain\libraries\lvgl\src\misc/lv_fs.c **** #include <string.h>
  14:..\..\..\arduinoLCD\test\Pain Drain\libraries\lvgl\src\misc/lv_fs.c **** #include "lv_gc.h"
  15:..\..\..\arduinoLCD\test\Pain Drain\libraries\lvgl\src\misc/lv_fs.c **** 
  16:..\..\..\arduinoLCD\test\Pain Drain\libraries\lvgl\src\misc/lv_fs.c **** /*********************
  17:..\..\..\arduinoLCD\test\Pain Drain\libraries\lvgl\src\misc/lv_fs.c ****  *      DEFINES
  18:..\..\..\arduinoLCD\test\Pain Drain\libraries\lvgl\src\misc/lv_fs.c ****  *********************/
  19:..\..\..\arduinoLCD\test\Pain Drain\libraries\lvgl\src\misc/lv_fs.c **** 
  20:..\..\..\arduinoLCD\test\Pain Drain\libraries\lvgl\src\misc/lv_fs.c **** /**********************
  21:..\..\..\arduinoLCD\test\Pain Drain\libraries\lvgl\src\misc/lv_fs.c ****  *      TYPEDEFS
  22:..\..\..\arduinoLCD\test\Pain Drain\libraries\lvgl\src\misc/lv_fs.c ****  **********************/
  23:..\..\..\arduinoLCD\test\Pain Drain\libraries\lvgl\src\misc/lv_fs.c **** 
  24:..\..\..\arduinoLCD\test\Pain Drain\libraries\lvgl\src\misc/lv_fs.c **** /**********************
  25:..\..\..\arduinoLCD\test\Pain Drain\libraries\lvgl\src\misc/lv_fs.c ****  *  STATIC PROTOTYPES
  26:..\..\..\arduinoLCD\test\Pain Drain\libraries\lvgl\src\misc/lv_fs.c ****  **********************/
  27:..\..\..\arduinoLCD\test\Pain Drain\libraries\lvgl\src\misc/lv_fs.c **** static const char * lv_fs_get_real_path(const char * path);
  28:..\..\..\arduinoLCD\test\Pain Drain\libraries\lvgl\src\misc/lv_fs.c **** 
  29:..\..\..\arduinoLCD\test\Pain Drain\libraries\lvgl\src\misc/lv_fs.c **** /**********************
  30:..\..\..\arduinoLCD\test\Pain Drain\libraries\lvgl\src\misc/lv_fs.c ****  *  STATIC VARIABLES
  31:..\..\..\arduinoLCD\test\Pain Drain\libraries\lvgl\src\misc/lv_fs.c ****  **********************/
ARM GAS  C:\Users\haske\AppData\Local\Temp\cc4gWNdf.s 			page 2


  32:..\..\..\arduinoLCD\test\Pain Drain\libraries\lvgl\src\misc/lv_fs.c **** 
  33:..\..\..\arduinoLCD\test\Pain Drain\libraries\lvgl\src\misc/lv_fs.c **** /**********************
  34:..\..\..\arduinoLCD\test\Pain Drain\libraries\lvgl\src\misc/lv_fs.c ****  *      MACROS
  35:..\..\..\arduinoLCD\test\Pain Drain\libraries\lvgl\src\misc/lv_fs.c ****  **********************/
  36:..\..\..\arduinoLCD\test\Pain Drain\libraries\lvgl\src\misc/lv_fs.c **** 
  37:..\..\..\arduinoLCD\test\Pain Drain\libraries\lvgl\src\misc/lv_fs.c **** /**********************
  38:..\..\..\arduinoLCD\test\Pain Drain\libraries\lvgl\src\misc/lv_fs.c ****  *   GLOBAL FUNCTIONS
  39:..\..\..\arduinoLCD\test\Pain Drain\libraries\lvgl\src\misc/lv_fs.c ****  **********************/
  40:..\..\..\arduinoLCD\test\Pain Drain\libraries\lvgl\src\misc/lv_fs.c **** 
  41:..\..\..\arduinoLCD\test\Pain Drain\libraries\lvgl\src\misc/lv_fs.c **** void _lv_fs_init(void)
  42:..\..\..\arduinoLCD\test\Pain Drain\libraries\lvgl\src\misc/lv_fs.c **** {
  43:..\..\..\arduinoLCD\test\Pain Drain\libraries\lvgl\src\misc/lv_fs.c ****     _lv_ll_init(&LV_GC_ROOT(_lv_fsdrv_ll), sizeof(lv_fs_drv_t *));
  44:..\..\..\arduinoLCD\test\Pain Drain\libraries\lvgl\src\misc/lv_fs.c **** }
  45:..\..\..\arduinoLCD\test\Pain Drain\libraries\lvgl\src\misc/lv_fs.c **** 
  46:..\..\..\arduinoLCD\test\Pain Drain\libraries\lvgl\src\misc/lv_fs.c **** bool lv_fs_is_ready(char letter)
  47:..\..\..\arduinoLCD\test\Pain Drain\libraries\lvgl\src\misc/lv_fs.c **** {
  48:..\..\..\arduinoLCD\test\Pain Drain\libraries\lvgl\src\misc/lv_fs.c ****     lv_fs_drv_t * drv = lv_fs_get_drv(letter);
  49:..\..\..\arduinoLCD\test\Pain Drain\libraries\lvgl\src\misc/lv_fs.c **** 
  50:..\..\..\arduinoLCD\test\Pain Drain\libraries\lvgl\src\misc/lv_fs.c ****     if(drv == NULL) return false; /*An unknown driver in not ready*/
  51:..\..\..\arduinoLCD\test\Pain Drain\libraries\lvgl\src\misc/lv_fs.c **** 
  52:..\..\..\arduinoLCD\test\Pain Drain\libraries\lvgl\src\misc/lv_fs.c ****     if(drv->ready_cb == NULL) return true; /*Assume the driver is always ready if no handler provid
  53:..\..\..\arduinoLCD\test\Pain Drain\libraries\lvgl\src\misc/lv_fs.c **** 
  54:..\..\..\arduinoLCD\test\Pain Drain\libraries\lvgl\src\misc/lv_fs.c ****     return drv->ready_cb(drv);
  55:..\..\..\arduinoLCD\test\Pain Drain\libraries\lvgl\src\misc/lv_fs.c **** }
  56:..\..\..\arduinoLCD\test\Pain Drain\libraries\lvgl\src\misc/lv_fs.c **** 
  57:..\..\..\arduinoLCD\test\Pain Drain\libraries\lvgl\src\misc/lv_fs.c **** lv_fs_res_t lv_fs_open(lv_fs_file_t * file_p, const char * path, lv_fs_mode_t mode)
  58:..\..\..\arduinoLCD\test\Pain Drain\libraries\lvgl\src\misc/lv_fs.c **** {
  59:..\..\..\arduinoLCD\test\Pain Drain\libraries\lvgl\src\misc/lv_fs.c ****     if(path == NULL) {
  60:..\..\..\arduinoLCD\test\Pain Drain\libraries\lvgl\src\misc/lv_fs.c ****         LV_LOG_WARN("Can't open file: path is NULL");
  61:..\..\..\arduinoLCD\test\Pain Drain\libraries\lvgl\src\misc/lv_fs.c ****         return LV_FS_RES_INV_PARAM;
  62:..\..\..\arduinoLCD\test\Pain Drain\libraries\lvgl\src\misc/lv_fs.c ****     }
  63:..\..\..\arduinoLCD\test\Pain Drain\libraries\lvgl\src\misc/lv_fs.c **** 
  64:..\..\..\arduinoLCD\test\Pain Drain\libraries\lvgl\src\misc/lv_fs.c ****     char letter = path[0];
  65:..\..\..\arduinoLCD\test\Pain Drain\libraries\lvgl\src\misc/lv_fs.c ****     lv_fs_drv_t * drv = lv_fs_get_drv(letter);
  66:..\..\..\arduinoLCD\test\Pain Drain\libraries\lvgl\src\misc/lv_fs.c **** 
  67:..\..\..\arduinoLCD\test\Pain Drain\libraries\lvgl\src\misc/lv_fs.c ****     if(drv == NULL) {
  68:..\..\..\arduinoLCD\test\Pain Drain\libraries\lvgl\src\misc/lv_fs.c ****         LV_LOG_WARN("Can't open file (%s): unknown driver letter", path);
  69:..\..\..\arduinoLCD\test\Pain Drain\libraries\lvgl\src\misc/lv_fs.c ****         return LV_FS_RES_NOT_EX;
  70:..\..\..\arduinoLCD\test\Pain Drain\libraries\lvgl\src\misc/lv_fs.c ****     }
  71:..\..\..\arduinoLCD\test\Pain Drain\libraries\lvgl\src\misc/lv_fs.c **** 
  72:..\..\..\arduinoLCD\test\Pain Drain\libraries\lvgl\src\misc/lv_fs.c ****     if(drv->ready_cb) {
  73:..\..\..\arduinoLCD\test\Pain Drain\libraries\lvgl\src\misc/lv_fs.c ****         if(drv->ready_cb(drv) == false) {
  74:..\..\..\arduinoLCD\test\Pain Drain\libraries\lvgl\src\misc/lv_fs.c ****             LV_LOG_WARN("Can't open file (%s): driver not ready", path);
  75:..\..\..\arduinoLCD\test\Pain Drain\libraries\lvgl\src\misc/lv_fs.c ****             return LV_FS_RES_HW_ERR;
  76:..\..\..\arduinoLCD\test\Pain Drain\libraries\lvgl\src\misc/lv_fs.c ****         }
  77:..\..\..\arduinoLCD\test\Pain Drain\libraries\lvgl\src\misc/lv_fs.c ****     }
  78:..\..\..\arduinoLCD\test\Pain Drain\libraries\lvgl\src\misc/lv_fs.c **** 
  79:..\..\..\arduinoLCD\test\Pain Drain\libraries\lvgl\src\misc/lv_fs.c ****     if(drv->open_cb == NULL) {
  80:..\..\..\arduinoLCD\test\Pain Drain\libraries\lvgl\src\misc/lv_fs.c ****         LV_LOG_WARN("Can't open file (%s): open function not exists", path);
  81:..\..\..\arduinoLCD\test\Pain Drain\libraries\lvgl\src\misc/lv_fs.c ****         return LV_FS_RES_NOT_IMP;
  82:..\..\..\arduinoLCD\test\Pain Drain\libraries\lvgl\src\misc/lv_fs.c ****     }
  83:..\..\..\arduinoLCD\test\Pain Drain\libraries\lvgl\src\misc/lv_fs.c **** 
  84:..\..\..\arduinoLCD\test\Pain Drain\libraries\lvgl\src\misc/lv_fs.c ****     const char * real_path = lv_fs_get_real_path(path);
  85:..\..\..\arduinoLCD\test\Pain Drain\libraries\lvgl\src\misc/lv_fs.c ****     void * file_d = drv->open_cb(drv, real_path, mode);
  86:..\..\..\arduinoLCD\test\Pain Drain\libraries\lvgl\src\misc/lv_fs.c **** 
  87:..\..\..\arduinoLCD\test\Pain Drain\libraries\lvgl\src\misc/lv_fs.c ****     if(file_d == NULL || file_d == (void *)(-1)) {
  88:..\..\..\arduinoLCD\test\Pain Drain\libraries\lvgl\src\misc/lv_fs.c ****         return LV_FS_RES_UNKNOWN;
ARM GAS  C:\Users\haske\AppData\Local\Temp\cc4gWNdf.s 			page 3


  89:..\..\..\arduinoLCD\test\Pain Drain\libraries\lvgl\src\misc/lv_fs.c ****     }
  90:..\..\..\arduinoLCD\test\Pain Drain\libraries\lvgl\src\misc/lv_fs.c **** 
  91:..\..\..\arduinoLCD\test\Pain Drain\libraries\lvgl\src\misc/lv_fs.c ****     file_p->drv = drv;
  92:..\..\..\arduinoLCD\test\Pain Drain\libraries\lvgl\src\misc/lv_fs.c ****     file_p->file_d = file_d;
  93:..\..\..\arduinoLCD\test\Pain Drain\libraries\lvgl\src\misc/lv_fs.c **** 
  94:..\..\..\arduinoLCD\test\Pain Drain\libraries\lvgl\src\misc/lv_fs.c ****     if(drv->cache_size) {
  95:..\..\..\arduinoLCD\test\Pain Drain\libraries\lvgl\src\misc/lv_fs.c ****         file_p->cache = lv_mem_alloc(sizeof(lv_fs_file_cache_t));
  96:..\..\..\arduinoLCD\test\Pain Drain\libraries\lvgl\src\misc/lv_fs.c ****         LV_ASSERT_MALLOC(file_p->cache);
  97:..\..\..\arduinoLCD\test\Pain Drain\libraries\lvgl\src\misc/lv_fs.c ****         lv_memset_00(file_p->cache, sizeof(lv_fs_file_cache_t));
  98:..\..\..\arduinoLCD\test\Pain Drain\libraries\lvgl\src\misc/lv_fs.c ****         file_p->cache->start = UINT32_MAX;  /*Set an invalid range by default*/
  99:..\..\..\arduinoLCD\test\Pain Drain\libraries\lvgl\src\misc/lv_fs.c ****         file_p->cache->end = UINT32_MAX - 1;
 100:..\..\..\arduinoLCD\test\Pain Drain\libraries\lvgl\src\misc/lv_fs.c ****     }
 101:..\..\..\arduinoLCD\test\Pain Drain\libraries\lvgl\src\misc/lv_fs.c **** 
 102:..\..\..\arduinoLCD\test\Pain Drain\libraries\lvgl\src\misc/lv_fs.c ****     return LV_FS_RES_OK;
 103:..\..\..\arduinoLCD\test\Pain Drain\libraries\lvgl\src\misc/lv_fs.c **** }
 104:..\..\..\arduinoLCD\test\Pain Drain\libraries\lvgl\src\misc/lv_fs.c **** 
 105:..\..\..\arduinoLCD\test\Pain Drain\libraries\lvgl\src\misc/lv_fs.c **** lv_fs_res_t lv_fs_close(lv_fs_file_t * file_p)
 106:..\..\..\arduinoLCD\test\Pain Drain\libraries\lvgl\src\misc/lv_fs.c **** {
 107:..\..\..\arduinoLCD\test\Pain Drain\libraries\lvgl\src\misc/lv_fs.c ****     if(file_p->drv == NULL) {
 108:..\..\..\arduinoLCD\test\Pain Drain\libraries\lvgl\src\misc/lv_fs.c ****         return LV_FS_RES_INV_PARAM;
 109:..\..\..\arduinoLCD\test\Pain Drain\libraries\lvgl\src\misc/lv_fs.c ****     }
 110:..\..\..\arduinoLCD\test\Pain Drain\libraries\lvgl\src\misc/lv_fs.c **** 
 111:..\..\..\arduinoLCD\test\Pain Drain\libraries\lvgl\src\misc/lv_fs.c ****     if(file_p->drv->close_cb == NULL) {
 112:..\..\..\arduinoLCD\test\Pain Drain\libraries\lvgl\src\misc/lv_fs.c ****         return LV_FS_RES_NOT_IMP;
 113:..\..\..\arduinoLCD\test\Pain Drain\libraries\lvgl\src\misc/lv_fs.c ****     }
 114:..\..\..\arduinoLCD\test\Pain Drain\libraries\lvgl\src\misc/lv_fs.c **** 
 115:..\..\..\arduinoLCD\test\Pain Drain\libraries\lvgl\src\misc/lv_fs.c ****     lv_fs_res_t res = file_p->drv->close_cb(file_p->drv, file_p->file_d);
 116:..\..\..\arduinoLCD\test\Pain Drain\libraries\lvgl\src\misc/lv_fs.c **** 
 117:..\..\..\arduinoLCD\test\Pain Drain\libraries\lvgl\src\misc/lv_fs.c ****     if(file_p->drv->cache_size && file_p->cache) {
 118:..\..\..\arduinoLCD\test\Pain Drain\libraries\lvgl\src\misc/lv_fs.c ****         if(file_p->cache->buffer) {
 119:..\..\..\arduinoLCD\test\Pain Drain\libraries\lvgl\src\misc/lv_fs.c ****             lv_mem_free(file_p->cache->buffer);
 120:..\..\..\arduinoLCD\test\Pain Drain\libraries\lvgl\src\misc/lv_fs.c ****         }
 121:..\..\..\arduinoLCD\test\Pain Drain\libraries\lvgl\src\misc/lv_fs.c **** 
 122:..\..\..\arduinoLCD\test\Pain Drain\libraries\lvgl\src\misc/lv_fs.c ****         lv_mem_free(file_p->cache);
 123:..\..\..\arduinoLCD\test\Pain Drain\libraries\lvgl\src\misc/lv_fs.c ****     }
 124:..\..\..\arduinoLCD\test\Pain Drain\libraries\lvgl\src\misc/lv_fs.c **** 
 125:..\..\..\arduinoLCD\test\Pain Drain\libraries\lvgl\src\misc/lv_fs.c ****     file_p->file_d = NULL;
 126:..\..\..\arduinoLCD\test\Pain Drain\libraries\lvgl\src\misc/lv_fs.c ****     file_p->drv    = NULL;
 127:..\..\..\arduinoLCD\test\Pain Drain\libraries\lvgl\src\misc/lv_fs.c ****     file_p->cache  = NULL;
 128:..\..\..\arduinoLCD\test\Pain Drain\libraries\lvgl\src\misc/lv_fs.c **** 
 129:..\..\..\arduinoLCD\test\Pain Drain\libraries\lvgl\src\misc/lv_fs.c ****     return res;
 130:..\..\..\arduinoLCD\test\Pain Drain\libraries\lvgl\src\misc/lv_fs.c **** }
 131:..\..\..\arduinoLCD\test\Pain Drain\libraries\lvgl\src\misc/lv_fs.c **** 
 132:..\..\..\arduinoLCD\test\Pain Drain\libraries\lvgl\src\misc/lv_fs.c **** static lv_fs_res_t lv_fs_read_cached(lv_fs_file_t * file_p, char * buf, uint32_t btr, uint32_t * br
 133:..\..\..\arduinoLCD\test\Pain Drain\libraries\lvgl\src\misc/lv_fs.c **** {
 134:..\..\..\arduinoLCD\test\Pain Drain\libraries\lvgl\src\misc/lv_fs.c ****     lv_fs_res_t res = LV_FS_RES_OK;
 135:..\..\..\arduinoLCD\test\Pain Drain\libraries\lvgl\src\misc/lv_fs.c ****     uint32_t file_position = file_p->cache->file_position;
 136:..\..\..\arduinoLCD\test\Pain Drain\libraries\lvgl\src\misc/lv_fs.c ****     uint32_t start = file_p->cache->start;
 137:..\..\..\arduinoLCD\test\Pain Drain\libraries\lvgl\src\misc/lv_fs.c ****     uint32_t end = file_p->cache->end;
 138:..\..\..\arduinoLCD\test\Pain Drain\libraries\lvgl\src\misc/lv_fs.c ****     char * buffer = file_p->cache->buffer;
 139:..\..\..\arduinoLCD\test\Pain Drain\libraries\lvgl\src\misc/lv_fs.c ****     uint16_t buffer_size = file_p->drv->cache_size;
 140:..\..\..\arduinoLCD\test\Pain Drain\libraries\lvgl\src\misc/lv_fs.c **** 
 141:..\..\..\arduinoLCD\test\Pain Drain\libraries\lvgl\src\misc/lv_fs.c ****     if(start <= file_position && file_position < end) {
 142:..\..\..\arduinoLCD\test\Pain Drain\libraries\lvgl\src\misc/lv_fs.c ****         /* Data can be read from cache buffer */
 143:..\..\..\arduinoLCD\test\Pain Drain\libraries\lvgl\src\misc/lv_fs.c ****         uint16_t buffer_offset = file_position - start;
 144:..\..\..\arduinoLCD\test\Pain Drain\libraries\lvgl\src\misc/lv_fs.c ****         uint32_t buffer_remaining_length = LV_MIN((uint32_t)buffer_size - buffer_offset, (uint32_t)
 145:..\..\..\arduinoLCD\test\Pain Drain\libraries\lvgl\src\misc/lv_fs.c **** 
ARM GAS  C:\Users\haske\AppData\Local\Temp\cc4gWNdf.s 			page 4


 146:..\..\..\arduinoLCD\test\Pain Drain\libraries\lvgl\src\misc/lv_fs.c ****         if(btr <= buffer_remaining_length) {
 147:..\..\..\arduinoLCD\test\Pain Drain\libraries\lvgl\src\misc/lv_fs.c ****             /*Data is in cache buffer, and buffer end not reached, no need to read from FS*/
 148:..\..\..\arduinoLCD\test\Pain Drain\libraries\lvgl\src\misc/lv_fs.c ****             lv_memcpy(buf, buffer + buffer_offset, btr);
 149:..\..\..\arduinoLCD\test\Pain Drain\libraries\lvgl\src\misc/lv_fs.c ****             *br = btr;
 150:..\..\..\arduinoLCD\test\Pain Drain\libraries\lvgl\src\misc/lv_fs.c ****         }
 151:..\..\..\arduinoLCD\test\Pain Drain\libraries\lvgl\src\misc/lv_fs.c ****         else {
 152:..\..\..\arduinoLCD\test\Pain Drain\libraries\lvgl\src\misc/lv_fs.c ****             /*First part of data is in cache buffer, but we need to read rest of data from FS*/
 153:..\..\..\arduinoLCD\test\Pain Drain\libraries\lvgl\src\misc/lv_fs.c ****             lv_memcpy(buf, buffer + buffer_offset, buffer_remaining_length);
 154:..\..\..\arduinoLCD\test\Pain Drain\libraries\lvgl\src\misc/lv_fs.c **** 
 155:..\..\..\arduinoLCD\test\Pain Drain\libraries\lvgl\src\misc/lv_fs.c ****             uint32_t bytes_read_to_buffer = 0;
 156:..\..\..\arduinoLCD\test\Pain Drain\libraries\lvgl\src\misc/lv_fs.c ****             if(btr > buffer_size) {
 157:..\..\..\arduinoLCD\test\Pain Drain\libraries\lvgl\src\misc/lv_fs.c ****                 /*If remaining data chuck is bigger than buffer size, then do not use cache, instea
 158:..\..\..\arduinoLCD\test\Pain Drain\libraries\lvgl\src\misc/lv_fs.c ****                 res = file_p->drv->read_cb(file_p->drv, file_p->file_d, (void *)(buf + buffer_remai
 159:..\..\..\arduinoLCD\test\Pain Drain\libraries\lvgl\src\misc/lv_fs.c ****                                            btr - buffer_remaining_length, &bytes_read_to_buffer);
 160:..\..\..\arduinoLCD\test\Pain Drain\libraries\lvgl\src\misc/lv_fs.c ****             }
 161:..\..\..\arduinoLCD\test\Pain Drain\libraries\lvgl\src\misc/lv_fs.c ****             else {
 162:..\..\..\arduinoLCD\test\Pain Drain\libraries\lvgl\src\misc/lv_fs.c ****                 /*If remaining data chunk is smaller than buffer size, then read into cache buffer*
 163:..\..\..\arduinoLCD\test\Pain Drain\libraries\lvgl\src\misc/lv_fs.c ****                 res = file_p->drv->read_cb(file_p->drv, file_p->file_d, (void *)buffer, buffer_size
 164:..\..\..\arduinoLCD\test\Pain Drain\libraries\lvgl\src\misc/lv_fs.c ****                 file_p->cache->start = file_p->cache->end;
 165:..\..\..\arduinoLCD\test\Pain Drain\libraries\lvgl\src\misc/lv_fs.c ****                 file_p->cache->end = file_p->cache->start + bytes_read_to_buffer;
 166:..\..\..\arduinoLCD\test\Pain Drain\libraries\lvgl\src\misc/lv_fs.c **** 
 167:..\..\..\arduinoLCD\test\Pain Drain\libraries\lvgl\src\misc/lv_fs.c ****                 uint16_t data_chunk_remaining = LV_MIN(btr - buffer_remaining_length, bytes_read_to
 168:..\..\..\arduinoLCD\test\Pain Drain\libraries\lvgl\src\misc/lv_fs.c ****                 lv_memcpy(buf + buffer_remaining_length, buffer, data_chunk_remaining);
 169:..\..\..\arduinoLCD\test\Pain Drain\libraries\lvgl\src\misc/lv_fs.c ****             }
 170:..\..\..\arduinoLCD\test\Pain Drain\libraries\lvgl\src\misc/lv_fs.c ****             *br = LV_MIN(buffer_remaining_length + bytes_read_to_buffer, btr);
 171:..\..\..\arduinoLCD\test\Pain Drain\libraries\lvgl\src\misc/lv_fs.c ****         }
 172:..\..\..\arduinoLCD\test\Pain Drain\libraries\lvgl\src\misc/lv_fs.c ****     }
 173:..\..\..\arduinoLCD\test\Pain Drain\libraries\lvgl\src\misc/lv_fs.c ****     else {
 174:..\..\..\arduinoLCD\test\Pain Drain\libraries\lvgl\src\misc/lv_fs.c ****         /*Data is not in cache buffer*/
 175:..\..\..\arduinoLCD\test\Pain Drain\libraries\lvgl\src\misc/lv_fs.c ****         if(btr > buffer_size) {
 176:..\..\..\arduinoLCD\test\Pain Drain\libraries\lvgl\src\misc/lv_fs.c ****             /*If bigger data is requested, then do not use cache, instead read it directly*/
 177:..\..\..\arduinoLCD\test\Pain Drain\libraries\lvgl\src\misc/lv_fs.c ****             res = file_p->drv->read_cb(file_p->drv, file_p->file_d, (void *)buf, btr, br);
 178:..\..\..\arduinoLCD\test\Pain Drain\libraries\lvgl\src\misc/lv_fs.c ****         }
 179:..\..\..\arduinoLCD\test\Pain Drain\libraries\lvgl\src\misc/lv_fs.c ****         else {
 180:..\..\..\arduinoLCD\test\Pain Drain\libraries\lvgl\src\misc/lv_fs.c ****             /*If small data is requested, then read from FS into cache buffer*/
 181:..\..\..\arduinoLCD\test\Pain Drain\libraries\lvgl\src\misc/lv_fs.c ****             if(buffer == NULL) {
 182:..\..\..\arduinoLCD\test\Pain Drain\libraries\lvgl\src\misc/lv_fs.c ****                 file_p->cache->buffer = lv_mem_alloc(buffer_size);
 183:..\..\..\arduinoLCD\test\Pain Drain\libraries\lvgl\src\misc/lv_fs.c ****                 LV_ASSERT_MALLOC(file_p->cache->buffer);
 184:..\..\..\arduinoLCD\test\Pain Drain\libraries\lvgl\src\misc/lv_fs.c ****                 buffer = file_p->cache->buffer;
 185:..\..\..\arduinoLCD\test\Pain Drain\libraries\lvgl\src\misc/lv_fs.c ****             }
 186:..\..\..\arduinoLCD\test\Pain Drain\libraries\lvgl\src\misc/lv_fs.c **** 
 187:..\..\..\arduinoLCD\test\Pain Drain\libraries\lvgl\src\misc/lv_fs.c ****             uint32_t bytes_read_to_buffer = 0;
 188:..\..\..\arduinoLCD\test\Pain Drain\libraries\lvgl\src\misc/lv_fs.c ****             res = file_p->drv->read_cb(file_p->drv, file_p->file_d, (void *)buffer, buffer_size, &b
 189:..\..\..\arduinoLCD\test\Pain Drain\libraries\lvgl\src\misc/lv_fs.c ****             file_p->cache->start = file_position;
 190:..\..\..\arduinoLCD\test\Pain Drain\libraries\lvgl\src\misc/lv_fs.c ****             file_p->cache->end = file_p->cache->start + bytes_read_to_buffer;
 191:..\..\..\arduinoLCD\test\Pain Drain\libraries\lvgl\src\misc/lv_fs.c **** 
 192:..\..\..\arduinoLCD\test\Pain Drain\libraries\lvgl\src\misc/lv_fs.c ****             *br = LV_MIN(btr, bytes_read_to_buffer);
 193:..\..\..\arduinoLCD\test\Pain Drain\libraries\lvgl\src\misc/lv_fs.c ****             lv_memcpy(buf, buffer, *br);
 194:..\..\..\arduinoLCD\test\Pain Drain\libraries\lvgl\src\misc/lv_fs.c **** 
 195:..\..\..\arduinoLCD\test\Pain Drain\libraries\lvgl\src\misc/lv_fs.c ****         }
 196:..\..\..\arduinoLCD\test\Pain Drain\libraries\lvgl\src\misc/lv_fs.c ****     }
 197:..\..\..\arduinoLCD\test\Pain Drain\libraries\lvgl\src\misc/lv_fs.c **** 
 198:..\..\..\arduinoLCD\test\Pain Drain\libraries\lvgl\src\misc/lv_fs.c ****     if(res == LV_FS_RES_OK) {
 199:..\..\..\arduinoLCD\test\Pain Drain\libraries\lvgl\src\misc/lv_fs.c ****         file_p->cache->file_position += *br;
 200:..\..\..\arduinoLCD\test\Pain Drain\libraries\lvgl\src\misc/lv_fs.c ****     }
 201:..\..\..\arduinoLCD\test\Pain Drain\libraries\lvgl\src\misc/lv_fs.c **** 
 202:..\..\..\arduinoLCD\test\Pain Drain\libraries\lvgl\src\misc/lv_fs.c ****     return res;
ARM GAS  C:\Users\haske\AppData\Local\Temp\cc4gWNdf.s 			page 5


 203:..\..\..\arduinoLCD\test\Pain Drain\libraries\lvgl\src\misc/lv_fs.c **** }
 204:..\..\..\arduinoLCD\test\Pain Drain\libraries\lvgl\src\misc/lv_fs.c **** 
 205:..\..\..\arduinoLCD\test\Pain Drain\libraries\lvgl\src\misc/lv_fs.c **** lv_fs_res_t lv_fs_read(lv_fs_file_t * file_p, void * buf, uint32_t btr, uint32_t * br)
 206:..\..\..\arduinoLCD\test\Pain Drain\libraries\lvgl\src\misc/lv_fs.c **** {
 207:..\..\..\arduinoLCD\test\Pain Drain\libraries\lvgl\src\misc/lv_fs.c ****     if(br != NULL) *br = 0;
 208:..\..\..\arduinoLCD\test\Pain Drain\libraries\lvgl\src\misc/lv_fs.c ****     if(file_p->drv == NULL) return LV_FS_RES_INV_PARAM;
 209:..\..\..\arduinoLCD\test\Pain Drain\libraries\lvgl\src\misc/lv_fs.c ****     if(file_p->drv->read_cb == NULL) return LV_FS_RES_NOT_IMP;
 210:..\..\..\arduinoLCD\test\Pain Drain\libraries\lvgl\src\misc/lv_fs.c **** 
 211:..\..\..\arduinoLCD\test\Pain Drain\libraries\lvgl\src\misc/lv_fs.c ****     uint32_t br_tmp = 0;
 212:..\..\..\arduinoLCD\test\Pain Drain\libraries\lvgl\src\misc/lv_fs.c ****     lv_fs_res_t res;
 213:..\..\..\arduinoLCD\test\Pain Drain\libraries\lvgl\src\misc/lv_fs.c **** 
 214:..\..\..\arduinoLCD\test\Pain Drain\libraries\lvgl\src\misc/lv_fs.c ****     if(file_p->drv->cache_size) {
 215:..\..\..\arduinoLCD\test\Pain Drain\libraries\lvgl\src\misc/lv_fs.c ****         res = lv_fs_read_cached(file_p, (char *)buf, btr, &br_tmp);
 216:..\..\..\arduinoLCD\test\Pain Drain\libraries\lvgl\src\misc/lv_fs.c ****     }
 217:..\..\..\arduinoLCD\test\Pain Drain\libraries\lvgl\src\misc/lv_fs.c ****     else {
 218:..\..\..\arduinoLCD\test\Pain Drain\libraries\lvgl\src\misc/lv_fs.c ****         res = file_p->drv->read_cb(file_p->drv, file_p->file_d, buf, btr, &br_tmp);
 219:..\..\..\arduinoLCD\test\Pain Drain\libraries\lvgl\src\misc/lv_fs.c ****     }
 220:..\..\..\arduinoLCD\test\Pain Drain\libraries\lvgl\src\misc/lv_fs.c **** 
 221:..\..\..\arduinoLCD\test\Pain Drain\libraries\lvgl\src\misc/lv_fs.c ****     if(br != NULL) *br = br_tmp;
 222:..\..\..\arduinoLCD\test\Pain Drain\libraries\lvgl\src\misc/lv_fs.c **** 
 223:..\..\..\arduinoLCD\test\Pain Drain\libraries\lvgl\src\misc/lv_fs.c ****     return res;
 224:..\..\..\arduinoLCD\test\Pain Drain\libraries\lvgl\src\misc/lv_fs.c **** }
 225:..\..\..\arduinoLCD\test\Pain Drain\libraries\lvgl\src\misc/lv_fs.c **** 
 226:..\..\..\arduinoLCD\test\Pain Drain\libraries\lvgl\src\misc/lv_fs.c **** lv_fs_res_t lv_fs_write(lv_fs_file_t * file_p, const void * buf, uint32_t btw, uint32_t * bw)
 227:..\..\..\arduinoLCD\test\Pain Drain\libraries\lvgl\src\misc/lv_fs.c **** {
 228:..\..\..\arduinoLCD\test\Pain Drain\libraries\lvgl\src\misc/lv_fs.c ****     if(bw != NULL) *bw = 0;
 229:..\..\..\arduinoLCD\test\Pain Drain\libraries\lvgl\src\misc/lv_fs.c **** 
 230:..\..\..\arduinoLCD\test\Pain Drain\libraries\lvgl\src\misc/lv_fs.c ****     if(file_p->drv == NULL) {
 231:..\..\..\arduinoLCD\test\Pain Drain\libraries\lvgl\src\misc/lv_fs.c ****         return LV_FS_RES_INV_PARAM;
 232:..\..\..\arduinoLCD\test\Pain Drain\libraries\lvgl\src\misc/lv_fs.c ****     }
 233:..\..\..\arduinoLCD\test\Pain Drain\libraries\lvgl\src\misc/lv_fs.c **** 
 234:..\..\..\arduinoLCD\test\Pain Drain\libraries\lvgl\src\misc/lv_fs.c ****     if(file_p->drv->write_cb == NULL) {
 235:..\..\..\arduinoLCD\test\Pain Drain\libraries\lvgl\src\misc/lv_fs.c ****         return LV_FS_RES_NOT_IMP;
 236:..\..\..\arduinoLCD\test\Pain Drain\libraries\lvgl\src\misc/lv_fs.c ****     }
 237:..\..\..\arduinoLCD\test\Pain Drain\libraries\lvgl\src\misc/lv_fs.c **** 
 238:..\..\..\arduinoLCD\test\Pain Drain\libraries\lvgl\src\misc/lv_fs.c ****     uint32_t bw_tmp = 0;
 239:..\..\..\arduinoLCD\test\Pain Drain\libraries\lvgl\src\misc/lv_fs.c ****     lv_fs_res_t res = file_p->drv->write_cb(file_p->drv, file_p->file_d, buf, btw, &bw_tmp);
 240:..\..\..\arduinoLCD\test\Pain Drain\libraries\lvgl\src\misc/lv_fs.c ****     if(bw != NULL) *bw = bw_tmp;
 241:..\..\..\arduinoLCD\test\Pain Drain\libraries\lvgl\src\misc/lv_fs.c **** 
 242:..\..\..\arduinoLCD\test\Pain Drain\libraries\lvgl\src\misc/lv_fs.c ****     return res;
 243:..\..\..\arduinoLCD\test\Pain Drain\libraries\lvgl\src\misc/lv_fs.c **** }
 244:..\..\..\arduinoLCD\test\Pain Drain\libraries\lvgl\src\misc/lv_fs.c **** 
 245:..\..\..\arduinoLCD\test\Pain Drain\libraries\lvgl\src\misc/lv_fs.c **** lv_fs_res_t lv_fs_seek(lv_fs_file_t * file_p, uint32_t pos, lv_fs_whence_t whence)
 246:..\..\..\arduinoLCD\test\Pain Drain\libraries\lvgl\src\misc/lv_fs.c **** {
 247:..\..\..\arduinoLCD\test\Pain Drain\libraries\lvgl\src\misc/lv_fs.c ****     if(file_p->drv == NULL) {
 248:..\..\..\arduinoLCD\test\Pain Drain\libraries\lvgl\src\misc/lv_fs.c ****         return LV_FS_RES_INV_PARAM;
 249:..\..\..\arduinoLCD\test\Pain Drain\libraries\lvgl\src\misc/lv_fs.c ****     }
 250:..\..\..\arduinoLCD\test\Pain Drain\libraries\lvgl\src\misc/lv_fs.c **** 
 251:..\..\..\arduinoLCD\test\Pain Drain\libraries\lvgl\src\misc/lv_fs.c ****     if(file_p->drv->seek_cb == NULL) {
 252:..\..\..\arduinoLCD\test\Pain Drain\libraries\lvgl\src\misc/lv_fs.c ****         return LV_FS_RES_NOT_IMP;
 253:..\..\..\arduinoLCD\test\Pain Drain\libraries\lvgl\src\misc/lv_fs.c ****     }
 254:..\..\..\arduinoLCD\test\Pain Drain\libraries\lvgl\src\misc/lv_fs.c **** 
 255:..\..\..\arduinoLCD\test\Pain Drain\libraries\lvgl\src\misc/lv_fs.c ****     lv_fs_res_t res = LV_FS_RES_OK;
 256:..\..\..\arduinoLCD\test\Pain Drain\libraries\lvgl\src\misc/lv_fs.c ****     if(file_p->drv->cache_size) {
 257:..\..\..\arduinoLCD\test\Pain Drain\libraries\lvgl\src\misc/lv_fs.c ****         switch(whence) {
 258:..\..\..\arduinoLCD\test\Pain Drain\libraries\lvgl\src\misc/lv_fs.c ****             case LV_FS_SEEK_SET: {
 259:..\..\..\arduinoLCD\test\Pain Drain\libraries\lvgl\src\misc/lv_fs.c ****                     file_p->cache->file_position = pos;
ARM GAS  C:\Users\haske\AppData\Local\Temp\cc4gWNdf.s 			page 6


 260:..\..\..\arduinoLCD\test\Pain Drain\libraries\lvgl\src\misc/lv_fs.c **** 
 261:..\..\..\arduinoLCD\test\Pain Drain\libraries\lvgl\src\misc/lv_fs.c ****                     /*FS seek if new position is outside cache buffer*/
 262:..\..\..\arduinoLCD\test\Pain Drain\libraries\lvgl\src\misc/lv_fs.c ****                     if(file_p->cache->file_position < file_p->cache->start || file_p->cache->file_p
 263:..\..\..\arduinoLCD\test\Pain Drain\libraries\lvgl\src\misc/lv_fs.c ****                         res = file_p->drv->seek_cb(file_p->drv, file_p->file_d, file_p->cache->file
 264:..\..\..\arduinoLCD\test\Pain Drain\libraries\lvgl\src\misc/lv_fs.c ****                     }
 265:..\..\..\arduinoLCD\test\Pain Drain\libraries\lvgl\src\misc/lv_fs.c **** 
 266:..\..\..\arduinoLCD\test\Pain Drain\libraries\lvgl\src\misc/lv_fs.c ****                     break;
 267:..\..\..\arduinoLCD\test\Pain Drain\libraries\lvgl\src\misc/lv_fs.c ****                 }
 268:..\..\..\arduinoLCD\test\Pain Drain\libraries\lvgl\src\misc/lv_fs.c ****             case LV_FS_SEEK_CUR: {
 269:..\..\..\arduinoLCD\test\Pain Drain\libraries\lvgl\src\misc/lv_fs.c ****                     file_p->cache->file_position += pos;
 270:..\..\..\arduinoLCD\test\Pain Drain\libraries\lvgl\src\misc/lv_fs.c **** 
 271:..\..\..\arduinoLCD\test\Pain Drain\libraries\lvgl\src\misc/lv_fs.c ****                     /*FS seek if new position is outside cache buffer*/
 272:..\..\..\arduinoLCD\test\Pain Drain\libraries\lvgl\src\misc/lv_fs.c ****                     if(file_p->cache->file_position < file_p->cache->start || file_p->cache->file_p
 273:..\..\..\arduinoLCD\test\Pain Drain\libraries\lvgl\src\misc/lv_fs.c ****                         res = file_p->drv->seek_cb(file_p->drv, file_p->file_d, file_p->cache->file
 274:..\..\..\arduinoLCD\test\Pain Drain\libraries\lvgl\src\misc/lv_fs.c ****                     }
 275:..\..\..\arduinoLCD\test\Pain Drain\libraries\lvgl\src\misc/lv_fs.c **** 
 276:..\..\..\arduinoLCD\test\Pain Drain\libraries\lvgl\src\misc/lv_fs.c ****                     break;
 277:..\..\..\arduinoLCD\test\Pain Drain\libraries\lvgl\src\misc/lv_fs.c ****                 }
 278:..\..\..\arduinoLCD\test\Pain Drain\libraries\lvgl\src\misc/lv_fs.c ****             case LV_FS_SEEK_END: {
 279:..\..\..\arduinoLCD\test\Pain Drain\libraries\lvgl\src\misc/lv_fs.c ****                     /*Because we don't know the file size, we do a little trick: do a FS seek, then
 280:..\..\..\arduinoLCD\test\Pain Drain\libraries\lvgl\src\misc/lv_fs.c ****                     res = file_p->drv->seek_cb(file_p->drv, file_p->file_d, pos, whence);
 281:..\..\..\arduinoLCD\test\Pain Drain\libraries\lvgl\src\misc/lv_fs.c ****                     if(res == LV_FS_RES_OK) {
 282:..\..\..\arduinoLCD\test\Pain Drain\libraries\lvgl\src\misc/lv_fs.c ****                         uint32_t tmp_position;
 283:..\..\..\arduinoLCD\test\Pain Drain\libraries\lvgl\src\misc/lv_fs.c ****                         res = file_p->drv->tell_cb(file_p->drv, file_p->file_d, &tmp_position);
 284:..\..\..\arduinoLCD\test\Pain Drain\libraries\lvgl\src\misc/lv_fs.c **** 
 285:..\..\..\arduinoLCD\test\Pain Drain\libraries\lvgl\src\misc/lv_fs.c ****                         if(res == LV_FS_RES_OK) {
 286:..\..\..\arduinoLCD\test\Pain Drain\libraries\lvgl\src\misc/lv_fs.c ****                             file_p->cache->file_position = tmp_position;
 287:..\..\..\arduinoLCD\test\Pain Drain\libraries\lvgl\src\misc/lv_fs.c ****                         }
 288:..\..\..\arduinoLCD\test\Pain Drain\libraries\lvgl\src\misc/lv_fs.c ****                     }
 289:..\..\..\arduinoLCD\test\Pain Drain\libraries\lvgl\src\misc/lv_fs.c ****                     break;
 290:..\..\..\arduinoLCD\test\Pain Drain\libraries\lvgl\src\misc/lv_fs.c ****                 }
 291:..\..\..\arduinoLCD\test\Pain Drain\libraries\lvgl\src\misc/lv_fs.c ****         }
 292:..\..\..\arduinoLCD\test\Pain Drain\libraries\lvgl\src\misc/lv_fs.c ****     }
 293:..\..\..\arduinoLCD\test\Pain Drain\libraries\lvgl\src\misc/lv_fs.c ****     else {
 294:..\..\..\arduinoLCD\test\Pain Drain\libraries\lvgl\src\misc/lv_fs.c ****         res = file_p->drv->seek_cb(file_p->drv, file_p->file_d, pos, whence);
 295:..\..\..\arduinoLCD\test\Pain Drain\libraries\lvgl\src\misc/lv_fs.c ****     }
 296:..\..\..\arduinoLCD\test\Pain Drain\libraries\lvgl\src\misc/lv_fs.c **** 
 297:..\..\..\arduinoLCD\test\Pain Drain\libraries\lvgl\src\misc/lv_fs.c ****     return res;
 298:..\..\..\arduinoLCD\test\Pain Drain\libraries\lvgl\src\misc/lv_fs.c **** }
 299:..\..\..\arduinoLCD\test\Pain Drain\libraries\lvgl\src\misc/lv_fs.c **** 
 300:..\..\..\arduinoLCD\test\Pain Drain\libraries\lvgl\src\misc/lv_fs.c **** lv_fs_res_t lv_fs_tell(lv_fs_file_t * file_p, uint32_t * pos)
 301:..\..\..\arduinoLCD\test\Pain Drain\libraries\lvgl\src\misc/lv_fs.c **** {
 302:..\..\..\arduinoLCD\test\Pain Drain\libraries\lvgl\src\misc/lv_fs.c ****     if(file_p->drv == NULL) {
 303:..\..\..\arduinoLCD\test\Pain Drain\libraries\lvgl\src\misc/lv_fs.c ****         *pos = 0;
 304:..\..\..\arduinoLCD\test\Pain Drain\libraries\lvgl\src\misc/lv_fs.c ****         return LV_FS_RES_INV_PARAM;
 305:..\..\..\arduinoLCD\test\Pain Drain\libraries\lvgl\src\misc/lv_fs.c ****     }
 306:..\..\..\arduinoLCD\test\Pain Drain\libraries\lvgl\src\misc/lv_fs.c **** 
 307:..\..\..\arduinoLCD\test\Pain Drain\libraries\lvgl\src\misc/lv_fs.c ****     if(file_p->drv->tell_cb == NULL) {
 308:..\..\..\arduinoLCD\test\Pain Drain\libraries\lvgl\src\misc/lv_fs.c ****         *pos = 0;
 309:..\..\..\arduinoLCD\test\Pain Drain\libraries\lvgl\src\misc/lv_fs.c ****         return LV_FS_RES_NOT_IMP;
 310:..\..\..\arduinoLCD\test\Pain Drain\libraries\lvgl\src\misc/lv_fs.c ****     }
 311:..\..\..\arduinoLCD\test\Pain Drain\libraries\lvgl\src\misc/lv_fs.c **** 
 312:..\..\..\arduinoLCD\test\Pain Drain\libraries\lvgl\src\misc/lv_fs.c ****     lv_fs_res_t res;
 313:..\..\..\arduinoLCD\test\Pain Drain\libraries\lvgl\src\misc/lv_fs.c ****     if(file_p->drv->cache_size) {
 314:..\..\..\arduinoLCD\test\Pain Drain\libraries\lvgl\src\misc/lv_fs.c ****         *pos = file_p->cache->file_position;
 315:..\..\..\arduinoLCD\test\Pain Drain\libraries\lvgl\src\misc/lv_fs.c ****         res = LV_FS_RES_OK;
 316:..\..\..\arduinoLCD\test\Pain Drain\libraries\lvgl\src\misc/lv_fs.c ****     }
ARM GAS  C:\Users\haske\AppData\Local\Temp\cc4gWNdf.s 			page 7


 317:..\..\..\arduinoLCD\test\Pain Drain\libraries\lvgl\src\misc/lv_fs.c ****     else {
 318:..\..\..\arduinoLCD\test\Pain Drain\libraries\lvgl\src\misc/lv_fs.c ****         res = file_p->drv->tell_cb(file_p->drv, file_p->file_d, pos);
 319:..\..\..\arduinoLCD\test\Pain Drain\libraries\lvgl\src\misc/lv_fs.c ****     }
 320:..\..\..\arduinoLCD\test\Pain Drain\libraries\lvgl\src\misc/lv_fs.c **** 
 321:..\..\..\arduinoLCD\test\Pain Drain\libraries\lvgl\src\misc/lv_fs.c ****     return res;
 322:..\..\..\arduinoLCD\test\Pain Drain\libraries\lvgl\src\misc/lv_fs.c **** }
 323:..\..\..\arduinoLCD\test\Pain Drain\libraries\lvgl\src\misc/lv_fs.c **** 
 324:..\..\..\arduinoLCD\test\Pain Drain\libraries\lvgl\src\misc/lv_fs.c **** lv_fs_res_t lv_fs_dir_open(lv_fs_dir_t * rddir_p, const char * path)
 325:..\..\..\arduinoLCD\test\Pain Drain\libraries\lvgl\src\misc/lv_fs.c **** {
 326:..\..\..\arduinoLCD\test\Pain Drain\libraries\lvgl\src\misc/lv_fs.c ****     if(path == NULL) return LV_FS_RES_INV_PARAM;
 327:..\..\..\arduinoLCD\test\Pain Drain\libraries\lvgl\src\misc/lv_fs.c **** 
 328:..\..\..\arduinoLCD\test\Pain Drain\libraries\lvgl\src\misc/lv_fs.c ****     char letter = path[0];
 329:..\..\..\arduinoLCD\test\Pain Drain\libraries\lvgl\src\misc/lv_fs.c ****     lv_fs_drv_t * drv = lv_fs_get_drv(letter);
 330:..\..\..\arduinoLCD\test\Pain Drain\libraries\lvgl\src\misc/lv_fs.c **** 
 331:..\..\..\arduinoLCD\test\Pain Drain\libraries\lvgl\src\misc/lv_fs.c ****     if(drv == NULL) {
 332:..\..\..\arduinoLCD\test\Pain Drain\libraries\lvgl\src\misc/lv_fs.c ****         return LV_FS_RES_NOT_EX;
 333:..\..\..\arduinoLCD\test\Pain Drain\libraries\lvgl\src\misc/lv_fs.c ****     }
 334:..\..\..\arduinoLCD\test\Pain Drain\libraries\lvgl\src\misc/lv_fs.c **** 
 335:..\..\..\arduinoLCD\test\Pain Drain\libraries\lvgl\src\misc/lv_fs.c ****     if(drv->ready_cb) {
 336:..\..\..\arduinoLCD\test\Pain Drain\libraries\lvgl\src\misc/lv_fs.c ****         if(drv->ready_cb(drv) == false) {
 337:..\..\..\arduinoLCD\test\Pain Drain\libraries\lvgl\src\misc/lv_fs.c ****             return LV_FS_RES_HW_ERR;
 338:..\..\..\arduinoLCD\test\Pain Drain\libraries\lvgl\src\misc/lv_fs.c ****         }
 339:..\..\..\arduinoLCD\test\Pain Drain\libraries\lvgl\src\misc/lv_fs.c ****     }
 340:..\..\..\arduinoLCD\test\Pain Drain\libraries\lvgl\src\misc/lv_fs.c **** 
 341:..\..\..\arduinoLCD\test\Pain Drain\libraries\lvgl\src\misc/lv_fs.c ****     if(drv->dir_open_cb == NULL) {
 342:..\..\..\arduinoLCD\test\Pain Drain\libraries\lvgl\src\misc/lv_fs.c ****         return LV_FS_RES_NOT_IMP;
 343:..\..\..\arduinoLCD\test\Pain Drain\libraries\lvgl\src\misc/lv_fs.c ****     }
 344:..\..\..\arduinoLCD\test\Pain Drain\libraries\lvgl\src\misc/lv_fs.c **** 
 345:..\..\..\arduinoLCD\test\Pain Drain\libraries\lvgl\src\misc/lv_fs.c ****     const char * real_path = lv_fs_get_real_path(path);
 346:..\..\..\arduinoLCD\test\Pain Drain\libraries\lvgl\src\misc/lv_fs.c ****     void * dir_d = drv->dir_open_cb(drv, real_path);
 347:..\..\..\arduinoLCD\test\Pain Drain\libraries\lvgl\src\misc/lv_fs.c **** 
 348:..\..\..\arduinoLCD\test\Pain Drain\libraries\lvgl\src\misc/lv_fs.c ****     if(dir_d == NULL || dir_d == (void *)(-1)) {
 349:..\..\..\arduinoLCD\test\Pain Drain\libraries\lvgl\src\misc/lv_fs.c ****         return LV_FS_RES_UNKNOWN;
 350:..\..\..\arduinoLCD\test\Pain Drain\libraries\lvgl\src\misc/lv_fs.c ****     }
 351:..\..\..\arduinoLCD\test\Pain Drain\libraries\lvgl\src\misc/lv_fs.c **** 
 352:..\..\..\arduinoLCD\test\Pain Drain\libraries\lvgl\src\misc/lv_fs.c ****     rddir_p->drv = drv;
 353:..\..\..\arduinoLCD\test\Pain Drain\libraries\lvgl\src\misc/lv_fs.c ****     rddir_p->dir_d = dir_d;
 354:..\..\..\arduinoLCD\test\Pain Drain\libraries\lvgl\src\misc/lv_fs.c **** 
 355:..\..\..\arduinoLCD\test\Pain Drain\libraries\lvgl\src\misc/lv_fs.c ****     return LV_FS_RES_OK;
 356:..\..\..\arduinoLCD\test\Pain Drain\libraries\lvgl\src\misc/lv_fs.c **** }
 357:..\..\..\arduinoLCD\test\Pain Drain\libraries\lvgl\src\misc/lv_fs.c **** 
 358:..\..\..\arduinoLCD\test\Pain Drain\libraries\lvgl\src\misc/lv_fs.c **** lv_fs_res_t lv_fs_dir_read(lv_fs_dir_t * rddir_p, char * fn)
 359:..\..\..\arduinoLCD\test\Pain Drain\libraries\lvgl\src\misc/lv_fs.c **** {
 360:..\..\..\arduinoLCD\test\Pain Drain\libraries\lvgl\src\misc/lv_fs.c ****     if(rddir_p->drv == NULL || rddir_p->dir_d == NULL) {
 361:..\..\..\arduinoLCD\test\Pain Drain\libraries\lvgl\src\misc/lv_fs.c ****         fn[0] = '\0';
 362:..\..\..\arduinoLCD\test\Pain Drain\libraries\lvgl\src\misc/lv_fs.c ****         return LV_FS_RES_INV_PARAM;
 363:..\..\..\arduinoLCD\test\Pain Drain\libraries\lvgl\src\misc/lv_fs.c ****     }
 364:..\..\..\arduinoLCD\test\Pain Drain\libraries\lvgl\src\misc/lv_fs.c **** 
 365:..\..\..\arduinoLCD\test\Pain Drain\libraries\lvgl\src\misc/lv_fs.c ****     if(rddir_p->drv->dir_read_cb == NULL) {
 366:..\..\..\arduinoLCD\test\Pain Drain\libraries\lvgl\src\misc/lv_fs.c ****         fn[0] = '\0';
 367:..\..\..\arduinoLCD\test\Pain Drain\libraries\lvgl\src\misc/lv_fs.c ****         return LV_FS_RES_NOT_IMP;
 368:..\..\..\arduinoLCD\test\Pain Drain\libraries\lvgl\src\misc/lv_fs.c ****     }
 369:..\..\..\arduinoLCD\test\Pain Drain\libraries\lvgl\src\misc/lv_fs.c **** 
 370:..\..\..\arduinoLCD\test\Pain Drain\libraries\lvgl\src\misc/lv_fs.c ****     lv_fs_res_t res = rddir_p->drv->dir_read_cb(rddir_p->drv, rddir_p->dir_d, fn);
 371:..\..\..\arduinoLCD\test\Pain Drain\libraries\lvgl\src\misc/lv_fs.c **** 
 372:..\..\..\arduinoLCD\test\Pain Drain\libraries\lvgl\src\misc/lv_fs.c ****     return res;
 373:..\..\..\arduinoLCD\test\Pain Drain\libraries\lvgl\src\misc/lv_fs.c **** }
ARM GAS  C:\Users\haske\AppData\Local\Temp\cc4gWNdf.s 			page 8


 374:..\..\..\arduinoLCD\test\Pain Drain\libraries\lvgl\src\misc/lv_fs.c **** 
 375:..\..\..\arduinoLCD\test\Pain Drain\libraries\lvgl\src\misc/lv_fs.c **** lv_fs_res_t lv_fs_dir_close(lv_fs_dir_t * rddir_p)
 376:..\..\..\arduinoLCD\test\Pain Drain\libraries\lvgl\src\misc/lv_fs.c **** {
 377:..\..\..\arduinoLCD\test\Pain Drain\libraries\lvgl\src\misc/lv_fs.c ****     if(rddir_p->drv == NULL || rddir_p->dir_d == NULL) {
 378:..\..\..\arduinoLCD\test\Pain Drain\libraries\lvgl\src\misc/lv_fs.c ****         return LV_FS_RES_INV_PARAM;
 379:..\..\..\arduinoLCD\test\Pain Drain\libraries\lvgl\src\misc/lv_fs.c ****     }
 380:..\..\..\arduinoLCD\test\Pain Drain\libraries\lvgl\src\misc/lv_fs.c **** 
 381:..\..\..\arduinoLCD\test\Pain Drain\libraries\lvgl\src\misc/lv_fs.c ****     if(rddir_p->drv->dir_close_cb == NULL) {
 382:..\..\..\arduinoLCD\test\Pain Drain\libraries\lvgl\src\misc/lv_fs.c ****         return LV_FS_RES_NOT_IMP;
 383:..\..\..\arduinoLCD\test\Pain Drain\libraries\lvgl\src\misc/lv_fs.c ****     }
 384:..\..\..\arduinoLCD\test\Pain Drain\libraries\lvgl\src\misc/lv_fs.c **** 
 385:..\..\..\arduinoLCD\test\Pain Drain\libraries\lvgl\src\misc/lv_fs.c ****     lv_fs_res_t res = rddir_p->drv->dir_close_cb(rddir_p->drv, rddir_p->dir_d);
 386:..\..\..\arduinoLCD\test\Pain Drain\libraries\lvgl\src\misc/lv_fs.c **** 
 387:..\..\..\arduinoLCD\test\Pain Drain\libraries\lvgl\src\misc/lv_fs.c ****     rddir_p->dir_d = NULL;
 388:..\..\..\arduinoLCD\test\Pain Drain\libraries\lvgl\src\misc/lv_fs.c ****     rddir_p->drv   = NULL;
 389:..\..\..\arduinoLCD\test\Pain Drain\libraries\lvgl\src\misc/lv_fs.c **** 
 390:..\..\..\arduinoLCD\test\Pain Drain\libraries\lvgl\src\misc/lv_fs.c ****     return res;
 391:..\..\..\arduinoLCD\test\Pain Drain\libraries\lvgl\src\misc/lv_fs.c **** }
 392:..\..\..\arduinoLCD\test\Pain Drain\libraries\lvgl\src\misc/lv_fs.c **** 
 393:..\..\..\arduinoLCD\test\Pain Drain\libraries\lvgl\src\misc/lv_fs.c **** void lv_fs_drv_init(lv_fs_drv_t * drv)
 394:..\..\..\arduinoLCD\test\Pain Drain\libraries\lvgl\src\misc/lv_fs.c **** {
 395:..\..\..\arduinoLCD\test\Pain Drain\libraries\lvgl\src\misc/lv_fs.c ****     lv_memset_00(drv, sizeof(lv_fs_drv_t));
 396:..\..\..\arduinoLCD\test\Pain Drain\libraries\lvgl\src\misc/lv_fs.c **** }
 397:..\..\..\arduinoLCD\test\Pain Drain\libraries\lvgl\src\misc/lv_fs.c **** 
 398:..\..\..\arduinoLCD\test\Pain Drain\libraries\lvgl\src\misc/lv_fs.c **** void lv_fs_drv_register(lv_fs_drv_t * drv_p)
 399:..\..\..\arduinoLCD\test\Pain Drain\libraries\lvgl\src\misc/lv_fs.c **** {
 400:..\..\..\arduinoLCD\test\Pain Drain\libraries\lvgl\src\misc/lv_fs.c ****     /*Save the new driver*/
 401:..\..\..\arduinoLCD\test\Pain Drain\libraries\lvgl\src\misc/lv_fs.c ****     lv_fs_drv_t ** new_drv;
 402:..\..\..\arduinoLCD\test\Pain Drain\libraries\lvgl\src\misc/lv_fs.c ****     new_drv = _lv_ll_ins_head(&LV_GC_ROOT(_lv_fsdrv_ll));
 403:..\..\..\arduinoLCD\test\Pain Drain\libraries\lvgl\src\misc/lv_fs.c ****     LV_ASSERT_MALLOC(new_drv);
 404:..\..\..\arduinoLCD\test\Pain Drain\libraries\lvgl\src\misc/lv_fs.c ****     if(new_drv == NULL) return;
 405:..\..\..\arduinoLCD\test\Pain Drain\libraries\lvgl\src\misc/lv_fs.c **** 
 406:..\..\..\arduinoLCD\test\Pain Drain\libraries\lvgl\src\misc/lv_fs.c ****     *new_drv = drv_p;
 407:..\..\..\arduinoLCD\test\Pain Drain\libraries\lvgl\src\misc/lv_fs.c **** }
 408:..\..\..\arduinoLCD\test\Pain Drain\libraries\lvgl\src\misc/lv_fs.c **** 
 409:..\..\..\arduinoLCD\test\Pain Drain\libraries\lvgl\src\misc/lv_fs.c **** lv_fs_drv_t * lv_fs_get_drv(char letter)
 410:..\..\..\arduinoLCD\test\Pain Drain\libraries\lvgl\src\misc/lv_fs.c **** {
 411:..\..\..\arduinoLCD\test\Pain Drain\libraries\lvgl\src\misc/lv_fs.c ****     lv_fs_drv_t ** drv;
 412:..\..\..\arduinoLCD\test\Pain Drain\libraries\lvgl\src\misc/lv_fs.c **** 
 413:..\..\..\arduinoLCD\test\Pain Drain\libraries\lvgl\src\misc/lv_fs.c ****     _LV_LL_READ(&LV_GC_ROOT(_lv_fsdrv_ll), drv) {
 414:..\..\..\arduinoLCD\test\Pain Drain\libraries\lvgl\src\misc/lv_fs.c ****         if((*drv)->letter == letter) {
 415:..\..\..\arduinoLCD\test\Pain Drain\libraries\lvgl\src\misc/lv_fs.c ****             return *drv;
 416:..\..\..\arduinoLCD\test\Pain Drain\libraries\lvgl\src\misc/lv_fs.c ****         }
 417:..\..\..\arduinoLCD\test\Pain Drain\libraries\lvgl\src\misc/lv_fs.c ****     }
 418:..\..\..\arduinoLCD\test\Pain Drain\libraries\lvgl\src\misc/lv_fs.c **** 
 419:..\..\..\arduinoLCD\test\Pain Drain\libraries\lvgl\src\misc/lv_fs.c ****     return NULL;
 420:..\..\..\arduinoLCD\test\Pain Drain\libraries\lvgl\src\misc/lv_fs.c **** }
 421:..\..\..\arduinoLCD\test\Pain Drain\libraries\lvgl\src\misc/lv_fs.c **** 
 422:..\..\..\arduinoLCD\test\Pain Drain\libraries\lvgl\src\misc/lv_fs.c **** char * lv_fs_get_letters(char * buf)
 423:..\..\..\arduinoLCD\test\Pain Drain\libraries\lvgl\src\misc/lv_fs.c **** {
 424:..\..\..\arduinoLCD\test\Pain Drain\libraries\lvgl\src\misc/lv_fs.c ****     lv_fs_drv_t ** drv;
 425:..\..\..\arduinoLCD\test\Pain Drain\libraries\lvgl\src\misc/lv_fs.c ****     uint8_t i = 0;
 426:..\..\..\arduinoLCD\test\Pain Drain\libraries\lvgl\src\misc/lv_fs.c **** 
 427:..\..\..\arduinoLCD\test\Pain Drain\libraries\lvgl\src\misc/lv_fs.c ****     _LV_LL_READ(&LV_GC_ROOT(_lv_fsdrv_ll), drv) {
 428:..\..\..\arduinoLCD\test\Pain Drain\libraries\lvgl\src\misc/lv_fs.c ****         buf[i] = (*drv)->letter;
 429:..\..\..\arduinoLCD\test\Pain Drain\libraries\lvgl\src\misc/lv_fs.c ****         i++;
 430:..\..\..\arduinoLCD\test\Pain Drain\libraries\lvgl\src\misc/lv_fs.c ****     }
ARM GAS  C:\Users\haske\AppData\Local\Temp\cc4gWNdf.s 			page 9


 431:..\..\..\arduinoLCD\test\Pain Drain\libraries\lvgl\src\misc/lv_fs.c **** 
 432:..\..\..\arduinoLCD\test\Pain Drain\libraries\lvgl\src\misc/lv_fs.c ****     buf[i] = '\0';
 433:..\..\..\arduinoLCD\test\Pain Drain\libraries\lvgl\src\misc/lv_fs.c **** 
 434:..\..\..\arduinoLCD\test\Pain Drain\libraries\lvgl\src\misc/lv_fs.c ****     return buf;
 435:..\..\..\arduinoLCD\test\Pain Drain\libraries\lvgl\src\misc/lv_fs.c **** }
 436:..\..\..\arduinoLCD\test\Pain Drain\libraries\lvgl\src\misc/lv_fs.c **** 
 437:..\..\..\arduinoLCD\test\Pain Drain\libraries\lvgl\src\misc/lv_fs.c **** const char * lv_fs_get_ext(const char * fn)
 438:..\..\..\arduinoLCD\test\Pain Drain\libraries\lvgl\src\misc/lv_fs.c **** {
 439:..\..\..\arduinoLCD\test\Pain Drain\libraries\lvgl\src\misc/lv_fs.c ****     size_t i;
 440:..\..\..\arduinoLCD\test\Pain Drain\libraries\lvgl\src\misc/lv_fs.c ****     for(i = strlen(fn); i > 0; i--) {
 441:..\..\..\arduinoLCD\test\Pain Drain\libraries\lvgl\src\misc/lv_fs.c ****         if(fn[i] == '.') {
 442:..\..\..\arduinoLCD\test\Pain Drain\libraries\lvgl\src\misc/lv_fs.c ****             return &fn[i + 1];
 443:..\..\..\arduinoLCD\test\Pain Drain\libraries\lvgl\src\misc/lv_fs.c ****         }
 444:..\..\..\arduinoLCD\test\Pain Drain\libraries\lvgl\src\misc/lv_fs.c ****         else if(fn[i] == '/' || fn[i] == '\\') {
 445:..\..\..\arduinoLCD\test\Pain Drain\libraries\lvgl\src\misc/lv_fs.c ****             return ""; /*No extension if a '\' or '/' found*/
 446:..\..\..\arduinoLCD\test\Pain Drain\libraries\lvgl\src\misc/lv_fs.c ****         }
 447:..\..\..\arduinoLCD\test\Pain Drain\libraries\lvgl\src\misc/lv_fs.c ****     }
 448:..\..\..\arduinoLCD\test\Pain Drain\libraries\lvgl\src\misc/lv_fs.c **** 
 449:..\..\..\arduinoLCD\test\Pain Drain\libraries\lvgl\src\misc/lv_fs.c ****     return ""; /*Empty string if no '.' in the file name.*/
 450:..\..\..\arduinoLCD\test\Pain Drain\libraries\lvgl\src\misc/lv_fs.c **** }
 451:..\..\..\arduinoLCD\test\Pain Drain\libraries\lvgl\src\misc/lv_fs.c **** 
 452:..\..\..\arduinoLCD\test\Pain Drain\libraries\lvgl\src\misc/lv_fs.c **** char * lv_fs_up(char * path)
 453:..\..\..\arduinoLCD\test\Pain Drain\libraries\lvgl\src\misc/lv_fs.c **** {
 454:..\..\..\arduinoLCD\test\Pain Drain\libraries\lvgl\src\misc/lv_fs.c ****     size_t len = strlen(path);
 455:..\..\..\arduinoLCD\test\Pain Drain\libraries\lvgl\src\misc/lv_fs.c ****     if(len == 0) return path;
 456:..\..\..\arduinoLCD\test\Pain Drain\libraries\lvgl\src\misc/lv_fs.c **** 
 457:..\..\..\arduinoLCD\test\Pain Drain\libraries\lvgl\src\misc/lv_fs.c ****     len--; /*Go before the trailing '\0'*/
 458:..\..\..\arduinoLCD\test\Pain Drain\libraries\lvgl\src\misc/lv_fs.c **** 
 459:..\..\..\arduinoLCD\test\Pain Drain\libraries\lvgl\src\misc/lv_fs.c ****     /*Ignore trailing '/' or '\'*/
 460:..\..\..\arduinoLCD\test\Pain Drain\libraries\lvgl\src\misc/lv_fs.c ****     while(path[len] == '/' || path[len] == '\\') {
 461:..\..\..\arduinoLCD\test\Pain Drain\libraries\lvgl\src\misc/lv_fs.c ****         path[len] = '\0';
 462:..\..\..\arduinoLCD\test\Pain Drain\libraries\lvgl\src\misc/lv_fs.c ****         if(len > 0)
 463:..\..\..\arduinoLCD\test\Pain Drain\libraries\lvgl\src\misc/lv_fs.c ****             len--;
 464:..\..\..\arduinoLCD\test\Pain Drain\libraries\lvgl\src\misc/lv_fs.c ****         else
 465:..\..\..\arduinoLCD\test\Pain Drain\libraries\lvgl\src\misc/lv_fs.c ****             return path;
 466:..\..\..\arduinoLCD\test\Pain Drain\libraries\lvgl\src\misc/lv_fs.c ****     }
 467:..\..\..\arduinoLCD\test\Pain Drain\libraries\lvgl\src\misc/lv_fs.c **** 
 468:..\..\..\arduinoLCD\test\Pain Drain\libraries\lvgl\src\misc/lv_fs.c ****     size_t i;
 469:..\..\..\arduinoLCD\test\Pain Drain\libraries\lvgl\src\misc/lv_fs.c ****     for(i = len; i > 0; i--) {
 470:..\..\..\arduinoLCD\test\Pain Drain\libraries\lvgl\src\misc/lv_fs.c ****         if(path[i] == '/' || path[i] == '\\') break;
 471:..\..\..\arduinoLCD\test\Pain Drain\libraries\lvgl\src\misc/lv_fs.c ****     }
 472:..\..\..\arduinoLCD\test\Pain Drain\libraries\lvgl\src\misc/lv_fs.c **** 
 473:..\..\..\arduinoLCD\test\Pain Drain\libraries\lvgl\src\misc/lv_fs.c ****     if(i > 0) path[i] = '\0';
 474:..\..\..\arduinoLCD\test\Pain Drain\libraries\lvgl\src\misc/lv_fs.c **** 
 475:..\..\..\arduinoLCD\test\Pain Drain\libraries\lvgl\src\misc/lv_fs.c ****     return path;
 476:..\..\..\arduinoLCD\test\Pain Drain\libraries\lvgl\src\misc/lv_fs.c **** }
 477:..\..\..\arduinoLCD\test\Pain Drain\libraries\lvgl\src\misc/lv_fs.c **** 
 478:..\..\..\arduinoLCD\test\Pain Drain\libraries\lvgl\src\misc/lv_fs.c **** const char * lv_fs_get_last(const char * path)
 479:..\..\..\arduinoLCD\test\Pain Drain\libraries\lvgl\src\misc/lv_fs.c **** {
 480:..\..\..\arduinoLCD\test\Pain Drain\libraries\lvgl\src\misc/lv_fs.c ****     size_t len = strlen(path);
 481:..\..\..\arduinoLCD\test\Pain Drain\libraries\lvgl\src\misc/lv_fs.c ****     if(len == 0) return path;
 482:..\..\..\arduinoLCD\test\Pain Drain\libraries\lvgl\src\misc/lv_fs.c **** 
 483:..\..\..\arduinoLCD\test\Pain Drain\libraries\lvgl\src\misc/lv_fs.c ****     len--; /*Go before the trailing '\0'*/
 484:..\..\..\arduinoLCD\test\Pain Drain\libraries\lvgl\src\misc/lv_fs.c **** 
 485:..\..\..\arduinoLCD\test\Pain Drain\libraries\lvgl\src\misc/lv_fs.c ****     /*Ignore trailing '/' or '\'*/
 486:..\..\..\arduinoLCD\test\Pain Drain\libraries\lvgl\src\misc/lv_fs.c ****     while(path[len] == '/' || path[len] == '\\') {
 487:..\..\..\arduinoLCD\test\Pain Drain\libraries\lvgl\src\misc/lv_fs.c ****         if(len > 0)
ARM GAS  C:\Users\haske\AppData\Local\Temp\cc4gWNdf.s 			page 10


 488:..\..\..\arduinoLCD\test\Pain Drain\libraries\lvgl\src\misc/lv_fs.c ****             len--;
 489:..\..\..\arduinoLCD\test\Pain Drain\libraries\lvgl\src\misc/lv_fs.c ****         else
 490:..\..\..\arduinoLCD\test\Pain Drain\libraries\lvgl\src\misc/lv_fs.c ****             return path;
 491:..\..\..\arduinoLCD\test\Pain Drain\libraries\lvgl\src\misc/lv_fs.c ****     }
 492:..\..\..\arduinoLCD\test\Pain Drain\libraries\lvgl\src\misc/lv_fs.c **** 
 493:..\..\..\arduinoLCD\test\Pain Drain\libraries\lvgl\src\misc/lv_fs.c ****     size_t i;
 494:..\..\..\arduinoLCD\test\Pain Drain\libraries\lvgl\src\misc/lv_fs.c ****     for(i = len; i > 0; i--) {
 495:..\..\..\arduinoLCD\test\Pain Drain\libraries\lvgl\src\misc/lv_fs.c ****         if(path[i] == '/' || path[i] == '\\') break;
 496:..\..\..\arduinoLCD\test\Pain Drain\libraries\lvgl\src\misc/lv_fs.c ****     }
 497:..\..\..\arduinoLCD\test\Pain Drain\libraries\lvgl\src\misc/lv_fs.c **** 
 498:..\..\..\arduinoLCD\test\Pain Drain\libraries\lvgl\src\misc/lv_fs.c ****     /*No '/' or '\' in the path so return with path itself*/
 499:..\..\..\arduinoLCD\test\Pain Drain\libraries\lvgl\src\misc/lv_fs.c ****     if(i == 0) return path;
 500:..\..\..\arduinoLCD\test\Pain Drain\libraries\lvgl\src\misc/lv_fs.c **** 
 501:..\..\..\arduinoLCD\test\Pain Drain\libraries\lvgl\src\misc/lv_fs.c ****     return &path[i + 1];
 502:..\..\..\arduinoLCD\test\Pain Drain\libraries\lvgl\src\misc/lv_fs.c **** }
 503:..\..\..\arduinoLCD\test\Pain Drain\libraries\lvgl\src\misc/lv_fs.c **** /**********************
 504:..\..\..\arduinoLCD\test\Pain Drain\libraries\lvgl\src\misc/lv_fs.c ****  *   STATIC FUNCTIONS
 505:..\..\..\arduinoLCD\test\Pain Drain\libraries\lvgl\src\misc/lv_fs.c ****  **********************/
 506:..\..\..\arduinoLCD\test\Pain Drain\libraries\lvgl\src\misc/lv_fs.c **** 
 507:..\..\..\arduinoLCD\test\Pain Drain\libraries\lvgl\src\misc/lv_fs.c **** /**
 508:..\..\..\arduinoLCD\test\Pain Drain\libraries\lvgl\src\misc/lv_fs.c ****  * Skip the driver letter and the possible : after the letter
 509:..\..\..\arduinoLCD\test\Pain Drain\libraries\lvgl\src\misc/lv_fs.c ****  * @param path path string (E.g. S:/folder/file.txt)
 510:..\..\..\arduinoLCD\test\Pain Drain\libraries\lvgl\src\misc/lv_fs.c ****  * @return pointer to the beginning of the real path (E.g. /folder/file.txt)
 511:..\..\..\arduinoLCD\test\Pain Drain\libraries\lvgl\src\misc/lv_fs.c ****  */
 512:..\..\..\arduinoLCD\test\Pain Drain\libraries\lvgl\src\misc/lv_fs.c **** static const char * lv_fs_get_real_path(const char * path)
 513:..\..\..\arduinoLCD\test\Pain Drain\libraries\lvgl\src\misc/lv_fs.c **** {
  27              		.loc 1 513 0
  28              		.cfi_startproc
  29              		@ args = 0, pretend = 0, frame = 0
  30              		@ frame_needed = 0, uses_anonymous_args = 0
  31              		@ link register save eliminated.
  32              	.LVL0:
  33 0000 0300     		movs	r3, r0
 514:..\..\..\arduinoLCD\test\Pain Drain\libraries\lvgl\src\misc/lv_fs.c ****     path++; /*Ignore the driver letter*/
  34              		.loc 1 514 0
  35 0002 0130     		adds	r0, r0, #1
  36              	.LVL1:
 515:..\..\..\arduinoLCD\test\Pain Drain\libraries\lvgl\src\misc/lv_fs.c ****     if(*path == ':') path++;
  37              		.loc 1 515 0
  38 0004 5A78     		ldrb	r2, [r3, #1]
  39 0006 3A2A     		cmp	r2, #58
  40 0008 00D1     		bne	.L2
  41              		.loc 1 515 0 is_stmt 0 discriminator 1
  42 000a 981C     		adds	r0, r3, #2
  43              	.LVL2:
  44              	.L2:
 516:..\..\..\arduinoLCD\test\Pain Drain\libraries\lvgl\src\misc/lv_fs.c **** 
 517:..\..\..\arduinoLCD\test\Pain Drain\libraries\lvgl\src\misc/lv_fs.c ****     return path;
 518:..\..\..\arduinoLCD\test\Pain Drain\libraries\lvgl\src\misc/lv_fs.c **** }
  45              		.loc 1 518 0 is_stmt 1
  46              		@ sp needed
  47 000c 7047     		bx	lr
  48              		.cfi_endproc
  49              	.LFE43:
  50              		.size	lv_fs_get_real_path, .-lv_fs_get_real_path
  51 000e C046     		.section	.text.lv_fs_read_cached,"ax",%progbits
  52              		.align	2
ARM GAS  C:\Users\haske\AppData\Local\Temp\cc4gWNdf.s 			page 11


  53              		.code	16
  54              		.thumb_func
  55              		.type	lv_fs_read_cached, %function
  56              	lv_fs_read_cached:
  57              	.LFB28:
 133:..\..\..\arduinoLCD\test\Pain Drain\libraries\lvgl\src\misc/lv_fs.c ****     lv_fs_res_t res = LV_FS_RES_OK;
  58              		.loc 1 133 0
  59              		.cfi_startproc
  60              		@ args = 0, pretend = 0, frame = 16
  61              		@ frame_needed = 0, uses_anonymous_args = 0
  62              	.LVL3:
  63 0000 F0B5     		push	{r4, r5, r6, r7, lr}
  64              		.cfi_def_cfa_offset 20
  65              		.cfi_offset 4, -20
  66              		.cfi_offset 5, -16
  67              		.cfi_offset 6, -12
  68              		.cfi_offset 7, -8
  69              		.cfi_offset 14, -4
  70 0002 5746     		mov	r7, r10
  71 0004 4E46     		mov	r6, r9
  72 0006 4546     		mov	r5, r8
  73 0008 E0B4     		push	{r5, r6, r7}
  74              		.cfi_def_cfa_offset 32
  75              		.cfi_offset 8, -32
  76              		.cfi_offset 9, -28
  77              		.cfi_offset 10, -24
  78 000a 86B0     		sub	sp, sp, #24
  79              		.cfi_def_cfa_offset 56
  80 000c 0400     		movs	r4, r0
  81 000e 0391     		str	r1, [sp, #12]
  82 0010 1500     		movs	r5, r2
  83 0012 9946     		mov	r9, r3
  84              	.LVL4:
 135:..\..\..\arduinoLCD\test\Pain Drain\libraries\lvgl\src\misc/lv_fs.c ****     uint32_t start = file_p->cache->start;
  85              		.loc 1 135 0
  86 0014 8668     		ldr	r6, [r0, #8]
  87 0016 B768     		ldr	r7, [r6, #8]
  88              	.LVL5:
 136:..\..\..\arduinoLCD\test\Pain Drain\libraries\lvgl\src\misc/lv_fs.c ****     uint32_t end = file_p->cache->end;
  89              		.loc 1 136 0
  90 0018 3368     		ldr	r3, [r6]
  91              	.LVL6:
 137:..\..\..\arduinoLCD\test\Pain Drain\libraries\lvgl\src\misc/lv_fs.c ****     char * buffer = file_p->cache->buffer;
  92              		.loc 1 137 0
  93 001a 7268     		ldr	r2, [r6, #4]
  94              	.LVL7:
 138:..\..\..\arduinoLCD\test\Pain Drain\libraries\lvgl\src\misc/lv_fs.c ****     uint16_t buffer_size = file_p->drv->cache_size;
  95              		.loc 1 138 0
  96 001c F168     		ldr	r1, [r6, #12]
  97              	.LVL8:
  98 001e 8846     		mov	r8, r1
  99              	.LVL9:
 139:..\..\..\arduinoLCD\test\Pain Drain\libraries\lvgl\src\misc/lv_fs.c **** 
 100              		.loc 1 139 0
 101 0020 4068     		ldr	r0, [r0, #4]
 102              	.LVL10:
 103 0022 4188     		ldrh	r1, [r0, #2]
ARM GAS  C:\Users\haske\AppData\Local\Temp\cc4gWNdf.s 			page 12


 104              	.LVL11:
 105 0024 8A46     		mov	r10, r1
 106              	.LVL12:
 141:..\..\..\arduinoLCD\test\Pain Drain\libraries\lvgl\src\misc/lv_fs.c ****         /* Data can be read from cache buffer */
 107              		.loc 1 141 0
 108 0026 9F42     		cmp	r7, r3
 109 0028 4DD3     		bcc	.L4
 141:..\..\..\arduinoLCD\test\Pain Drain\libraries\lvgl\src\misc/lv_fs.c ****         /* Data can be read from cache buffer */
 110              		.loc 1 141 0 is_stmt 0 discriminator 1
 111 002a 9742     		cmp	r7, r2
 112 002c 4BD2     		bcs	.L4
 113              	.LBB2:
 143:..\..\..\arduinoLCD\test\Pain Drain\libraries\lvgl\src\misc/lv_fs.c ****         uint32_t buffer_remaining_length = LV_MIN((uint32_t)buffer_size - buffer_offset, (uint32_t)
 114              		.loc 1 143 0 is_stmt 1
 115 002e F91A     		subs	r1, r7, r3
 116 0030 89B2     		uxth	r1, r1
 117              	.LVL13:
 144:..\..\..\arduinoLCD\test\Pain Drain\libraries\lvgl\src\misc/lv_fs.c **** 
 118              		.loc 1 144 0
 119 0032 5646     		mov	r6, r10
 120 0034 731A     		subs	r3, r6, r1
 121              	.LVL14:
 122 0036 D71B     		subs	r7, r2, r7
 123              	.LVL15:
 124 0038 9F42     		cmp	r7, r3
 125 003a 00D9     		bls	.L5
 126 003c 1F00     		movs	r7, r3
 127              	.L5:
 128              	.LVL16:
 146:..\..\..\arduinoLCD\test\Pain Drain\libraries\lvgl\src\misc/lv_fs.c ****             /*Data is in cache buffer, and buffer end not reached, no need to read from FS*/
 129              		.loc 1 146 0
 130 003e AF42     		cmp	r7, r5
 131 0040 08D3     		bcc	.L6
 148:..\..\..\arduinoLCD\test\Pain Drain\libraries\lvgl\src\misc/lv_fs.c ****             *br = btr;
 132              		.loc 1 148 0
 133 0042 4144     		add	r1, r1, r8
 134              	.LVL17:
 135 0044 2A00     		movs	r2, r5
 136              	.LVL18:
 137 0046 0398     		ldr	r0, [sp, #12]
 138 0048 FFF7FEFF 		bl	lv_memcpy
 139              	.LVL19:
 149:..\..\..\arduinoLCD\test\Pain Drain\libraries\lvgl\src\misc/lv_fs.c ****         }
 140              		.loc 1 149 0
 141 004c 4B46     		mov	r3, r9
 142 004e 1D60     		str	r5, [r3]
 143              	.LBE2:
 134:..\..\..\arduinoLCD\test\Pain Drain\libraries\lvgl\src\misc/lv_fs.c ****     uint32_t file_position = file_p->cache->file_position;
 144              		.loc 1 134 0
 145 0050 0026     		movs	r6, #0
 146              	.LBB5:
 147 0052 6CE0     		b	.L7
 148              	.LVL20:
 149              	.L6:
 150              	.LBB3:
 153:..\..\..\arduinoLCD\test\Pain Drain\libraries\lvgl\src\misc/lv_fs.c **** 
 151              		.loc 1 153 0
ARM GAS  C:\Users\haske\AppData\Local\Temp\cc4gWNdf.s 			page 13


 152 0054 4144     		add	r1, r1, r8
 153              	.LVL21:
 154 0056 3A00     		movs	r2, r7
 155              	.LVL22:
 156 0058 0398     		ldr	r0, [sp, #12]
 157 005a FFF7FEFF 		bl	lv_memcpy
 158              	.LVL23:
 155:..\..\..\arduinoLCD\test\Pain Drain\libraries\lvgl\src\misc/lv_fs.c ****             if(btr > buffer_size) {
 159              		.loc 1 155 0
 160 005e 0023     		movs	r3, #0
 161 0060 0593     		str	r3, [sp, #20]
 156:..\..\..\arduinoLCD\test\Pain Drain\libraries\lvgl\src\misc/lv_fs.c ****                 /*If remaining data chuck is bigger than buffer size, then do not use cache, instea
 162              		.loc 1 156 0
 163 0062 AE42     		cmp	r6, r5
 164 0064 0AD2     		bcs	.L8
 158:..\..\..\arduinoLCD\test\Pain Drain\libraries\lvgl\src\misc/lv_fs.c ****                                            btr - buffer_remaining_length, &bytes_read_to_buffer);
 165              		.loc 1 158 0
 166 0066 6068     		ldr	r0, [r4, #4]
 167 0068 0669     		ldr	r6, [r0, #16]
 168 006a 039B     		ldr	r3, [sp, #12]
 169 006c DA19     		adds	r2, r3, r7
 170 006e EB1B     		subs	r3, r5, r7
 171 0070 05A9     		add	r1, sp, #20
 172 0072 0091     		str	r1, [sp]
 173 0074 2168     		ldr	r1, [r4]
 174 0076 B047     		blx	r6
 175              	.LVL24:
 176 0078 0600     		movs	r6, r0
 177              	.LVL25:
 178 007a 1BE0     		b	.L9
 179              	.LVL26:
 180              	.L8:
 181              	.LBB4:
 163:..\..\..\arduinoLCD\test\Pain Drain\libraries\lvgl\src\misc/lv_fs.c ****                 file_p->cache->start = file_p->cache->end;
 182              		.loc 1 163 0
 183 007c 6068     		ldr	r0, [r4, #4]
 184 007e 0669     		ldr	r6, [r0, #16]
 185 0080 05AB     		add	r3, sp, #20
 186 0082 0093     		str	r3, [sp]
 187 0084 5346     		mov	r3, r10
 188 0086 4246     		mov	r2, r8
 189 0088 2168     		ldr	r1, [r4]
 190 008a B047     		blx	r6
 191              	.LVL27:
 192 008c 0600     		movs	r6, r0
 193              	.LVL28:
 164:..\..\..\arduinoLCD\test\Pain Drain\libraries\lvgl\src\misc/lv_fs.c ****                 file_p->cache->end = file_p->cache->start + bytes_read_to_buffer;
 194              		.loc 1 164 0
 195 008e A368     		ldr	r3, [r4, #8]
 196 0090 5A68     		ldr	r2, [r3, #4]
 197 0092 1A60     		str	r2, [r3]
 165:..\..\..\arduinoLCD\test\Pain Drain\libraries\lvgl\src\misc/lv_fs.c **** 
 198              		.loc 1 165 0
 199 0094 A168     		ldr	r1, [r4, #8]
 200 0096 059B     		ldr	r3, [sp, #20]
 201 0098 0A68     		ldr	r2, [r1]
 202 009a D218     		adds	r2, r2, r3
ARM GAS  C:\Users\haske\AppData\Local\Temp\cc4gWNdf.s 			page 14


 203 009c 4A60     		str	r2, [r1, #4]
 167:..\..\..\arduinoLCD\test\Pain Drain\libraries\lvgl\src\misc/lv_fs.c ****                 lv_memcpy(buf + buffer_remaining_length, buffer, data_chunk_remaining);
 204              		.loc 1 167 0
 205 009e EA1B     		subs	r2, r5, r7
 206 00a0 9342     		cmp	r3, r2
 207 00a2 00D9     		bls	.L10
 208 00a4 1300     		movs	r3, r2
 209              	.L10:
 210              	.LVL29:
 168:..\..\..\arduinoLCD\test\Pain Drain\libraries\lvgl\src\misc/lv_fs.c ****             }
 211              		.loc 1 168 0
 212 00a6 1B04     		lsls	r3, r3, #16
 213              	.LVL30:
 214 00a8 1A0C     		lsrs	r2, r3, #16
 215 00aa 039B     		ldr	r3, [sp, #12]
 216 00ac D819     		adds	r0, r3, r7
 217              	.LVL31:
 218 00ae 4146     		mov	r1, r8
 219 00b0 FFF7FEFF 		bl	lv_memcpy
 220              	.LVL32:
 221              	.L9:
 222              	.LBE4:
 170:..\..\..\arduinoLCD\test\Pain Drain\libraries\lvgl\src\misc/lv_fs.c ****         }
 223              		.loc 1 170 0
 224 00b4 059B     		ldr	r3, [sp, #20]
 225 00b6 9C46     		mov	ip, r3
 226 00b8 6744     		add	r7, r7, ip
 227              	.LVL33:
 228 00ba BD42     		cmp	r5, r7
 229 00bc 00D9     		bls	.L11
 230 00be 3D00     		movs	r5, r7
 231              	.LVL34:
 232              	.L11:
 233 00c0 4B46     		mov	r3, r9
 234 00c2 1D60     		str	r5, [r3]
 235 00c4 33E0     		b	.L7
 236              	.LVL35:
 237              	.L4:
 238              	.LBE3:
 239              	.LBE5:
 175:..\..\..\arduinoLCD\test\Pain Drain\libraries\lvgl\src\misc/lv_fs.c ****             /*If bigger data is requested, then do not use cache, instead read it directly*/
 240              		.loc 1 175 0
 241 00c6 5545     		cmp	r5, r10
 242 00c8 08D9     		bls	.L12
 177:..\..\..\arduinoLCD\test\Pain Drain\libraries\lvgl\src\misc/lv_fs.c ****         }
 243              		.loc 1 177 0
 244 00ca 0669     		ldr	r6, [r0, #16]
 245 00cc 4B46     		mov	r3, r9
 246              	.LVL36:
 247 00ce 0093     		str	r3, [sp]
 248              	.LVL37:
 249 00d0 2B00     		movs	r3, r5
 250 00d2 039A     		ldr	r2, [sp, #12]
 251              	.LVL38:
 252 00d4 2168     		ldr	r1, [r4]
 253 00d6 B047     		blx	r6
 254              	.LVL39:
ARM GAS  C:\Users\haske\AppData\Local\Temp\cc4gWNdf.s 			page 15


 255 00d8 0600     		movs	r6, r0
 256              	.LVL40:
 257 00da 28E0     		b	.L7
 258              	.LVL41:
 259              	.L12:
 260              	.LBB6:
 181:..\..\..\arduinoLCD\test\Pain Drain\libraries\lvgl\src\misc/lv_fs.c ****                 file_p->cache->buffer = lv_mem_alloc(buffer_size);
 261              		.loc 1 181 0
 262 00dc 4346     		mov	r3, r8
 263              	.LVL42:
 264 00de 002B     		cmp	r3, #0
 265 00e0 09D1     		bne	.L13
 266              	.LVL43:
 182:..\..\..\arduinoLCD\test\Pain Drain\libraries\lvgl\src\misc/lv_fs.c ****                 LV_ASSERT_MALLOC(file_p->cache->buffer);
 267              		.loc 1 182 0
 268 00e2 5046     		mov	r0, r10
 269 00e4 FFF7FEFF 		bl	lv_mem_alloc
 270              	.LVL44:
 271 00e8 F060     		str	r0, [r6, #12]
 183:..\..\..\arduinoLCD\test\Pain Drain\libraries\lvgl\src\misc/lv_fs.c ****                 buffer = file_p->cache->buffer;
 272              		.loc 1 183 0
 273 00ea A368     		ldr	r3, [r4, #8]
 274 00ec DB68     		ldr	r3, [r3, #12]
 275 00ee 9846     		mov	r8, r3
 276              	.LVL45:
 277 00f0 002B     		cmp	r3, #0
 278 00f2 00D1     		bne	.L13
 279              	.L14:
 280 00f4 FEE7     		b	.L14
 281              	.L13:
 282              	.LVL46:
 187:..\..\..\arduinoLCD\test\Pain Drain\libraries\lvgl\src\misc/lv_fs.c ****             res = file_p->drv->read_cb(file_p->drv, file_p->file_d, (void *)buffer, buffer_size, &b
 283              		.loc 1 187 0
 284 00f6 0023     		movs	r3, #0
 285 00f8 0593     		str	r3, [sp, #20]
 188:..\..\..\arduinoLCD\test\Pain Drain\libraries\lvgl\src\misc/lv_fs.c ****             file_p->cache->start = file_position;
 286              		.loc 1 188 0
 287 00fa 6068     		ldr	r0, [r4, #4]
 288 00fc 0669     		ldr	r6, [r0, #16]
 289 00fe 05AB     		add	r3, sp, #20
 290 0100 0093     		str	r3, [sp]
 291 0102 5346     		mov	r3, r10
 292 0104 4246     		mov	r2, r8
 293 0106 2168     		ldr	r1, [r4]
 294 0108 B047     		blx	r6
 295              	.LVL47:
 296 010a 0600     		movs	r6, r0
 297              	.LVL48:
 189:..\..\..\arduinoLCD\test\Pain Drain\libraries\lvgl\src\misc/lv_fs.c ****             file_p->cache->end = file_p->cache->start + bytes_read_to_buffer;
 298              		.loc 1 189 0
 299 010c A368     		ldr	r3, [r4, #8]
 300 010e 1F60     		str	r7, [r3]
 190:..\..\..\arduinoLCD\test\Pain Drain\libraries\lvgl\src\misc/lv_fs.c **** 
 301              		.loc 1 190 0
 302 0110 A268     		ldr	r2, [r4, #8]
 303 0112 0599     		ldr	r1, [sp, #20]
 304 0114 1368     		ldr	r3, [r2]
ARM GAS  C:\Users\haske\AppData\Local\Temp\cc4gWNdf.s 			page 16


 305 0116 5B18     		adds	r3, r3, r1
 306 0118 5360     		str	r3, [r2, #4]
 192:..\..\..\arduinoLCD\test\Pain Drain\libraries\lvgl\src\misc/lv_fs.c ****             lv_memcpy(buf, buffer, *br);
 307              		.loc 1 192 0
 308 011a 2A00     		movs	r2, r5
 309 011c 8D42     		cmp	r5, r1
 310 011e 00D9     		bls	.L15
 311              	.LVL49:
 312 0120 0A00     		movs	r2, r1
 313              	.LVL50:
 314              	.L15:
 315 0122 4B46     		mov	r3, r9
 316 0124 1A60     		str	r2, [r3]
 193:..\..\..\arduinoLCD\test\Pain Drain\libraries\lvgl\src\misc/lv_fs.c **** 
 317              		.loc 1 193 0
 318 0126 4146     		mov	r1, r8
 319 0128 0398     		ldr	r0, [sp, #12]
 320              	.LVL51:
 321 012a FFF7FEFF 		bl	lv_memcpy
 322              	.LVL52:
 323              	.L7:
 324              	.LBE6:
 198:..\..\..\arduinoLCD\test\Pain Drain\libraries\lvgl\src\misc/lv_fs.c ****         file_p->cache->file_position += *br;
 325              		.loc 1 198 0
 326 012e 002E     		cmp	r6, #0
 327 0130 06D1     		bne	.L16
 199:..\..\..\arduinoLCD\test\Pain Drain\libraries\lvgl\src\misc/lv_fs.c ****     }
 328              		.loc 1 199 0
 329 0132 A268     		ldr	r2, [r4, #8]
 330 0134 4B46     		mov	r3, r9
 331 0136 1B68     		ldr	r3, [r3]
 332 0138 9168     		ldr	r1, [r2, #8]
 333 013a 8C46     		mov	ip, r1
 334 013c 6344     		add	r3, r3, ip
 335 013e 9360     		str	r3, [r2, #8]
 336              	.L16:
 203:..\..\..\arduinoLCD\test\Pain Drain\libraries\lvgl\src\misc/lv_fs.c **** 
 337              		.loc 1 203 0
 338 0140 3000     		movs	r0, r6
 339 0142 06B0     		add	sp, sp, #24
 340              		@ sp needed
 341              	.LVL53:
 342              	.LVL54:
 343              	.LVL55:
 344              	.LVL56:
 345              	.LVL57:
 346 0144 1CBC     		pop	{r2, r3, r4}
 347 0146 9046     		mov	r8, r2
 348 0148 9946     		mov	r9, r3
 349 014a A246     		mov	r10, r4
 350 014c F0BD     		pop	{r4, r5, r6, r7, pc}
 351              		.cfi_endproc
 352              	.LFE28:
 353              		.size	lv_fs_read_cached, .-lv_fs_read_cached
 354 014e C046     		.section	.text._lv_fs_init,"ax",%progbits
 355              		.align	2
 356              		.global	_lv_fs_init
ARM GAS  C:\Users\haske\AppData\Local\Temp\cc4gWNdf.s 			page 17


 357              		.code	16
 358              		.thumb_func
 359              		.type	_lv_fs_init, %function
 360              	_lv_fs_init:
 361              	.LFB24:
  42:..\..\..\arduinoLCD\test\Pain Drain\libraries\lvgl\src\misc/lv_fs.c ****     _lv_ll_init(&LV_GC_ROOT(_lv_fsdrv_ll), sizeof(lv_fs_drv_t *));
 362              		.loc 1 42 0
 363              		.cfi_startproc
 364              		@ args = 0, pretend = 0, frame = 0
 365              		@ frame_needed = 0, uses_anonymous_args = 0
 366 0000 10B5     		push	{r4, lr}
 367              		.cfi_def_cfa_offset 8
 368              		.cfi_offset 4, -8
 369              		.cfi_offset 14, -4
  43:..\..\..\arduinoLCD\test\Pain Drain\libraries\lvgl\src\misc/lv_fs.c **** }
 370              		.loc 1 43 0
 371 0002 0421     		movs	r1, #4
 372 0004 0148     		ldr	r0, .L18
 373 0006 FFF7FEFF 		bl	_lv_ll_init
 374              	.LVL58:
  44:..\..\..\arduinoLCD\test\Pain Drain\libraries\lvgl\src\misc/lv_fs.c **** 
 375              		.loc 1 44 0
 376              		@ sp needed
 377 000a 10BD     		pop	{r4, pc}
 378              	.L19:
 379              		.align	2
 380              	.L18:
 381 000c 00000000 		.word	_lv_fsdrv_ll
 382              		.cfi_endproc
 383              	.LFE24:
 384              		.size	_lv_fs_init, .-_lv_fs_init
 385              		.section	.text.lv_fs_close,"ax",%progbits
 386              		.align	2
 387              		.global	lv_fs_close
 388              		.code	16
 389              		.thumb_func
 390              		.type	lv_fs_close, %function
 391              	lv_fs_close:
 392              	.LFB27:
 106:..\..\..\arduinoLCD\test\Pain Drain\libraries\lvgl\src\misc/lv_fs.c ****     if(file_p->drv == NULL) {
 393              		.loc 1 106 0
 394              		.cfi_startproc
 395              		@ args = 0, pretend = 0, frame = 0
 396              		@ frame_needed = 0, uses_anonymous_args = 0
 397              	.LVL59:
 398 0000 70B5     		push	{r4, r5, r6, lr}
 399              		.cfi_def_cfa_offset 16
 400              		.cfi_offset 4, -16
 401              		.cfi_offset 5, -12
 402              		.cfi_offset 6, -8
 403              		.cfi_offset 14, -4
 404 0002 0400     		movs	r4, r0
 107:..\..\..\arduinoLCD\test\Pain Drain\libraries\lvgl\src\misc/lv_fs.c ****         return LV_FS_RES_INV_PARAM;
 405              		.loc 1 107 0
 406 0004 4068     		ldr	r0, [r0, #4]
 407              	.LVL60:
 408 0006 0028     		cmp	r0, #0
ARM GAS  C:\Users\haske\AppData\Local\Temp\cc4gWNdf.s 			page 18


 409 0008 1AD0     		beq	.L24
 111:..\..\..\arduinoLCD\test\Pain Drain\libraries\lvgl\src\misc/lv_fs.c ****         return LV_FS_RES_NOT_IMP;
 410              		.loc 1 111 0
 411 000a C368     		ldr	r3, [r0, #12]
 412 000c 002B     		cmp	r3, #0
 413 000e 19D0     		beq	.L25
 115:..\..\..\arduinoLCD\test\Pain Drain\libraries\lvgl\src\misc/lv_fs.c **** 
 414              		.loc 1 115 0
 415 0010 2168     		ldr	r1, [r4]
 416 0012 9847     		blx	r3
 417              	.LVL61:
 418 0014 0500     		movs	r5, r0
 419              	.LVL62:
 117:..\..\..\arduinoLCD\test\Pain Drain\libraries\lvgl\src\misc/lv_fs.c ****         if(file_p->cache->buffer) {
 420              		.loc 1 117 0
 421 0016 6368     		ldr	r3, [r4, #4]
 422 0018 5B88     		ldrh	r3, [r3, #2]
 423 001a 002B     		cmp	r3, #0
 424 001c 0AD0     		beq	.L22
 117:..\..\..\arduinoLCD\test\Pain Drain\libraries\lvgl\src\misc/lv_fs.c ****         if(file_p->cache->buffer) {
 425              		.loc 1 117 0 is_stmt 0 discriminator 1
 426 001e A368     		ldr	r3, [r4, #8]
 427 0020 002B     		cmp	r3, #0
 428 0022 07D0     		beq	.L22
 118:..\..\..\arduinoLCD\test\Pain Drain\libraries\lvgl\src\misc/lv_fs.c ****             lv_mem_free(file_p->cache->buffer);
 429              		.loc 1 118 0 is_stmt 1
 430 0024 D868     		ldr	r0, [r3, #12]
 431 0026 0028     		cmp	r0, #0
 432 0028 01D0     		beq	.L23
 119:..\..\..\arduinoLCD\test\Pain Drain\libraries\lvgl\src\misc/lv_fs.c ****         }
 433              		.loc 1 119 0
 434 002a FFF7FEFF 		bl	lv_mem_free
 435              	.LVL63:
 436              	.L23:
 122:..\..\..\arduinoLCD\test\Pain Drain\libraries\lvgl\src\misc/lv_fs.c ****     }
 437              		.loc 1 122 0
 438 002e A068     		ldr	r0, [r4, #8]
 439 0030 FFF7FEFF 		bl	lv_mem_free
 440              	.LVL64:
 441              	.L22:
 125:..\..\..\arduinoLCD\test\Pain Drain\libraries\lvgl\src\misc/lv_fs.c ****     file_p->drv    = NULL;
 442              		.loc 1 125 0
 443 0034 0023     		movs	r3, #0
 444 0036 2360     		str	r3, [r4]
 126:..\..\..\arduinoLCD\test\Pain Drain\libraries\lvgl\src\misc/lv_fs.c ****     file_p->cache  = NULL;
 445              		.loc 1 126 0
 446 0038 6360     		str	r3, [r4, #4]
 127:..\..\..\arduinoLCD\test\Pain Drain\libraries\lvgl\src\misc/lv_fs.c **** 
 447              		.loc 1 127 0
 448 003a A360     		str	r3, [r4, #8]
 129:..\..\..\arduinoLCD\test\Pain Drain\libraries\lvgl\src\misc/lv_fs.c **** }
 449              		.loc 1 129 0
 450 003c 2800     		movs	r0, r5
 451 003e 02E0     		b	.L21
 452              	.LVL65:
 453              	.L24:
 108:..\..\..\arduinoLCD\test\Pain Drain\libraries\lvgl\src\misc/lv_fs.c ****     }
ARM GAS  C:\Users\haske\AppData\Local\Temp\cc4gWNdf.s 			page 19


 454              		.loc 1 108 0
 455 0040 0B20     		movs	r0, #11
 456 0042 00E0     		b	.L21
 457              	.L25:
 112:..\..\..\arduinoLCD\test\Pain Drain\libraries\lvgl\src\misc/lv_fs.c ****     }
 458              		.loc 1 112 0
 459 0044 0920     		movs	r0, #9
 460              	.L21:
 130:..\..\..\arduinoLCD\test\Pain Drain\libraries\lvgl\src\misc/lv_fs.c **** 
 461              		.loc 1 130 0
 462              		@ sp needed
 463              	.LVL66:
 464 0046 70BD     		pop	{r4, r5, r6, pc}
 465              		.cfi_endproc
 466              	.LFE27:
 467              		.size	lv_fs_close, .-lv_fs_close
 468              		.section	.text.lv_fs_read,"ax",%progbits
 469              		.align	2
 470              		.global	lv_fs_read
 471              		.code	16
 472              		.thumb_func
 473              		.type	lv_fs_read, %function
 474              	lv_fs_read:
 475              	.LFB29:
 206:..\..\..\arduinoLCD\test\Pain Drain\libraries\lvgl\src\misc/lv_fs.c ****     if(br != NULL) *br = 0;
 476              		.loc 1 206 0
 477              		.cfi_startproc
 478              		@ args = 0, pretend = 0, frame = 8
 479              		@ frame_needed = 0, uses_anonymous_args = 0
 480              	.LVL67:
 481 0000 70B5     		push	{r4, r5, r6, lr}
 482              		.cfi_def_cfa_offset 16
 483              		.cfi_offset 4, -16
 484              		.cfi_offset 5, -12
 485              		.cfi_offset 6, -8
 486              		.cfi_offset 14, -4
 487 0002 84B0     		sub	sp, sp, #16
 488              		.cfi_def_cfa_offset 32
 489 0004 1C1E     		subs	r4, r3, #0
 207:..\..\..\arduinoLCD\test\Pain Drain\libraries\lvgl\src\misc/lv_fs.c ****     if(file_p->drv == NULL) return LV_FS_RES_INV_PARAM;
 490              		.loc 1 207 0
 491 0006 01D0     		beq	.L27
 207:..\..\..\arduinoLCD\test\Pain Drain\libraries\lvgl\src\misc/lv_fs.c ****     if(file_p->drv == NULL) return LV_FS_RES_INV_PARAM;
 492              		.loc 1 207 0 is_stmt 0 discriminator 1
 493 0008 0023     		movs	r3, #0
 494              	.LVL68:
 495 000a 2360     		str	r3, [r4]
 496              	.L27:
 208:..\..\..\arduinoLCD\test\Pain Drain\libraries\lvgl\src\misc/lv_fs.c ****     if(file_p->drv->read_cb == NULL) return LV_FS_RES_NOT_IMP;
 497              		.loc 1 208 0 is_stmt 1
 498 000c 4568     		ldr	r5, [r0, #4]
 499 000e 002D     		cmp	r5, #0
 500 0010 18D0     		beq	.L31
 209:..\..\..\arduinoLCD\test\Pain Drain\libraries\lvgl\src\misc/lv_fs.c **** 
 501              		.loc 1 209 0
 502 0012 2E69     		ldr	r6, [r5, #16]
 503 0014 002E     		cmp	r6, #0
ARM GAS  C:\Users\haske\AppData\Local\Temp\cc4gWNdf.s 			page 20


 504 0016 17D0     		beq	.L32
 211:..\..\..\arduinoLCD\test\Pain Drain\libraries\lvgl\src\misc/lv_fs.c ****     lv_fs_res_t res;
 505              		.loc 1 211 0
 506 0018 0023     		movs	r3, #0
 507 001a 0393     		str	r3, [sp, #12]
 214:..\..\..\arduinoLCD\test\Pain Drain\libraries\lvgl\src\misc/lv_fs.c ****         res = lv_fs_read_cached(file_p, (char *)buf, btr, &br_tmp);
 508              		.loc 1 214 0
 509 001c 6B88     		ldrh	r3, [r5, #2]
 510 001e 002B     		cmp	r3, #0
 511 0020 03D0     		beq	.L29
 215:..\..\..\arduinoLCD\test\Pain Drain\libraries\lvgl\src\misc/lv_fs.c ****     }
 512              		.loc 1 215 0
 513 0022 03AB     		add	r3, sp, #12
 514 0024 FFF7FEFF 		bl	lv_fs_read_cached
 515              	.LVL69:
 516 0028 07E0     		b	.L30
 517              	.LVL70:
 518              	.L29:
 218:..\..\..\arduinoLCD\test\Pain Drain\libraries\lvgl\src\misc/lv_fs.c ****     }
 519              		.loc 1 218 0
 520 002a 0068     		ldr	r0, [r0]
 521              	.LVL71:
 522 002c 03AB     		add	r3, sp, #12
 523 002e 0093     		str	r3, [sp]
 524 0030 1300     		movs	r3, r2
 525 0032 0A00     		movs	r2, r1
 526              	.LVL72:
 527 0034 0100     		movs	r1, r0
 528              	.LVL73:
 529 0036 2800     		movs	r0, r5
 530 0038 B047     		blx	r6
 531              	.LVL74:
 532              	.L30:
 221:..\..\..\arduinoLCD\test\Pain Drain\libraries\lvgl\src\misc/lv_fs.c **** 
 533              		.loc 1 221 0
 534 003a 002C     		cmp	r4, #0
 535 003c 05D0     		beq	.L28
 221:..\..\..\arduinoLCD\test\Pain Drain\libraries\lvgl\src\misc/lv_fs.c **** 
 536              		.loc 1 221 0 is_stmt 0 discriminator 1
 537 003e 039B     		ldr	r3, [sp, #12]
 538 0040 2360     		str	r3, [r4]
 539 0042 02E0     		b	.L28
 540              	.LVL75:
 541              	.L31:
 208:..\..\..\arduinoLCD\test\Pain Drain\libraries\lvgl\src\misc/lv_fs.c ****     if(file_p->drv->read_cb == NULL) return LV_FS_RES_NOT_IMP;
 542              		.loc 1 208 0 is_stmt 1
 543 0044 0B20     		movs	r0, #11
 544              	.LVL76:
 545 0046 00E0     		b	.L28
 546              	.LVL77:
 547              	.L32:
 209:..\..\..\arduinoLCD\test\Pain Drain\libraries\lvgl\src\misc/lv_fs.c **** 
 548              		.loc 1 209 0
 549 0048 0920     		movs	r0, #9
 550              	.LVL78:
 551              	.L28:
 224:..\..\..\arduinoLCD\test\Pain Drain\libraries\lvgl\src\misc/lv_fs.c **** 
ARM GAS  C:\Users\haske\AppData\Local\Temp\cc4gWNdf.s 			page 21


 552              		.loc 1 224 0
 553 004a 04B0     		add	sp, sp, #16
 554              		@ sp needed
 555              	.LVL79:
 556 004c 70BD     		pop	{r4, r5, r6, pc}
 557              		.cfi_endproc
 558              	.LFE29:
 559              		.size	lv_fs_read, .-lv_fs_read
 560 004e C046     		.section	.text.lv_fs_write,"ax",%progbits
 561              		.align	2
 562              		.global	lv_fs_write
 563              		.code	16
 564              		.thumb_func
 565              		.type	lv_fs_write, %function
 566              	lv_fs_write:
 567              	.LFB30:
 227:..\..\..\arduinoLCD\test\Pain Drain\libraries\lvgl\src\misc/lv_fs.c ****     if(bw != NULL) *bw = 0;
 568              		.loc 1 227 0
 569              		.cfi_startproc
 570              		@ args = 0, pretend = 0, frame = 8
 571              		@ frame_needed = 0, uses_anonymous_args = 0
 572              	.LVL80:
 573 0000 70B5     		push	{r4, r5, r6, lr}
 574              		.cfi_def_cfa_offset 16
 575              		.cfi_offset 4, -16
 576              		.cfi_offset 5, -12
 577              		.cfi_offset 6, -8
 578              		.cfi_offset 14, -4
 579 0002 84B0     		sub	sp, sp, #16
 580              		.cfi_def_cfa_offset 32
 581 0004 1C1E     		subs	r4, r3, #0
 228:..\..\..\arduinoLCD\test\Pain Drain\libraries\lvgl\src\misc/lv_fs.c **** 
 582              		.loc 1 228 0
 583 0006 01D0     		beq	.L35
 228:..\..\..\arduinoLCD\test\Pain Drain\libraries\lvgl\src\misc/lv_fs.c **** 
 584              		.loc 1 228 0 is_stmt 0 discriminator 1
 585 0008 0023     		movs	r3, #0
 586              	.LVL81:
 587 000a 2360     		str	r3, [r4]
 588              	.L35:
 230:..\..\..\arduinoLCD\test\Pain Drain\libraries\lvgl\src\misc/lv_fs.c ****         return LV_FS_RES_INV_PARAM;
 589              		.loc 1 230 0 is_stmt 1
 590 000c 4568     		ldr	r5, [r0, #4]
 591 000e 002D     		cmp	r5, #0
 592 0010 11D0     		beq	.L37
 234:..\..\..\arduinoLCD\test\Pain Drain\libraries\lvgl\src\misc/lv_fs.c ****         return LV_FS_RES_NOT_IMP;
 593              		.loc 1 234 0
 594 0012 6E69     		ldr	r6, [r5, #20]
 595 0014 002E     		cmp	r6, #0
 596 0016 10D0     		beq	.L38
 238:..\..\..\arduinoLCD\test\Pain Drain\libraries\lvgl\src\misc/lv_fs.c ****     lv_fs_res_t res = file_p->drv->write_cb(file_p->drv, file_p->file_d, buf, btw, &bw_tmp);
 597              		.loc 1 238 0
 598 0018 0023     		movs	r3, #0
 599 001a 0393     		str	r3, [sp, #12]
 239:..\..\..\arduinoLCD\test\Pain Drain\libraries\lvgl\src\misc/lv_fs.c ****     if(bw != NULL) *bw = bw_tmp;
 600              		.loc 1 239 0
 601 001c 0068     		ldr	r0, [r0]
ARM GAS  C:\Users\haske\AppData\Local\Temp\cc4gWNdf.s 			page 22


 602              	.LVL82:
 603 001e 03AB     		add	r3, sp, #12
 604 0020 0093     		str	r3, [sp]
 605 0022 1300     		movs	r3, r2
 606 0024 0A00     		movs	r2, r1
 607              	.LVL83:
 608 0026 0100     		movs	r1, r0
 609              	.LVL84:
 610 0028 2800     		movs	r0, r5
 611 002a B047     		blx	r6
 612              	.LVL85:
 240:..\..\..\arduinoLCD\test\Pain Drain\libraries\lvgl\src\misc/lv_fs.c **** 
 613              		.loc 1 240 0
 614 002c 002C     		cmp	r4, #0
 615 002e 05D0     		beq	.L36
 240:..\..\..\arduinoLCD\test\Pain Drain\libraries\lvgl\src\misc/lv_fs.c **** 
 616              		.loc 1 240 0 is_stmt 0 discriminator 1
 617 0030 039B     		ldr	r3, [sp, #12]
 618 0032 2360     		str	r3, [r4]
 619 0034 02E0     		b	.L36
 620              	.LVL86:
 621              	.L37:
 231:..\..\..\arduinoLCD\test\Pain Drain\libraries\lvgl\src\misc/lv_fs.c ****     }
 622              		.loc 1 231 0 is_stmt 1
 623 0036 0B20     		movs	r0, #11
 624              	.LVL87:
 625 0038 00E0     		b	.L36
 626              	.LVL88:
 627              	.L38:
 235:..\..\..\arduinoLCD\test\Pain Drain\libraries\lvgl\src\misc/lv_fs.c ****     }
 628              		.loc 1 235 0
 629 003a 0920     		movs	r0, #9
 630              	.LVL89:
 631              	.L36:
 243:..\..\..\arduinoLCD\test\Pain Drain\libraries\lvgl\src\misc/lv_fs.c **** 
 632              		.loc 1 243 0
 633 003c 04B0     		add	sp, sp, #16
 634              		@ sp needed
 635              	.LVL90:
 636 003e 70BD     		pop	{r4, r5, r6, pc}
 637              		.cfi_endproc
 638              	.LFE30:
 639              		.size	lv_fs_write, .-lv_fs_write
 640              		.section	.text.lv_fs_seek,"ax",%progbits
 641              		.align	2
 642              		.global	lv_fs_seek
 643              		.code	16
 644              		.thumb_func
 645              		.type	lv_fs_seek, %function
 646              	lv_fs_seek:
 647              	.LFB31:
 246:..\..\..\arduinoLCD\test\Pain Drain\libraries\lvgl\src\misc/lv_fs.c ****     if(file_p->drv == NULL) {
 648              		.loc 1 246 0
 649              		.cfi_startproc
 650              		@ args = 0, pretend = 0, frame = 8
 651              		@ frame_needed = 0, uses_anonymous_args = 0
 652              	.LVL91:
ARM GAS  C:\Users\haske\AppData\Local\Temp\cc4gWNdf.s 			page 23


 653 0000 30B5     		push	{r4, r5, lr}
 654              		.cfi_def_cfa_offset 12
 655              		.cfi_offset 4, -12
 656              		.cfi_offset 5, -8
 657              		.cfi_offset 14, -4
 658 0002 83B0     		sub	sp, sp, #12
 659              		.cfi_def_cfa_offset 24
 660 0004 0400     		movs	r4, r0
 247:..\..\..\arduinoLCD\test\Pain Drain\libraries\lvgl\src\misc/lv_fs.c ****         return LV_FS_RES_INV_PARAM;
 661              		.loc 1 247 0
 662 0006 4068     		ldr	r0, [r0, #4]
 663              	.LVL92:
 664 0008 0028     		cmp	r0, #0
 665 000a 46D0     		beq	.L49
 251:..\..\..\arduinoLCD\test\Pain Drain\libraries\lvgl\src\misc/lv_fs.c ****         return LV_FS_RES_NOT_IMP;
 666              		.loc 1 251 0
 667 000c 8569     		ldr	r5, [r0, #24]
 668 000e 002D     		cmp	r5, #0
 669 0010 45D0     		beq	.L50
 670              	.LVL93:
 256:..\..\..\arduinoLCD\test\Pain Drain\libraries\lvgl\src\misc/lv_fs.c ****         switch(whence) {
 671              		.loc 1 256 0
 672 0012 4388     		ldrh	r3, [r0, #2]
 673 0014 002B     		cmp	r3, #0
 674 0016 3AD0     		beq	.L42
 257:..\..\..\arduinoLCD\test\Pain Drain\libraries\lvgl\src\misc/lv_fs.c ****             case LV_FS_SEEK_SET: {
 675              		.loc 1 257 0
 676 0018 012A     		cmp	r2, #1
 677 001a 14D0     		beq	.L43
 678 001c 002A     		cmp	r2, #0
 679 001e 02D0     		beq	.L44
 680 0020 022A     		cmp	r2, #2
 681 0022 23D0     		beq	.L45
 682 0024 3DE0     		b	.L55
 683              	.L44:
 259:..\..\..\arduinoLCD\test\Pain Drain\libraries\lvgl\src\misc/lv_fs.c **** 
 684              		.loc 1 259 0
 685 0026 A368     		ldr	r3, [r4, #8]
 686 0028 9960     		str	r1, [r3, #8]
 262:..\..\..\arduinoLCD\test\Pain Drain\libraries\lvgl\src\misc/lv_fs.c ****                         res = file_p->drv->seek_cb(file_p->drv, file_p->file_d, file_p->cache->file
 687              		.loc 1 262 0
 688 002a A368     		ldr	r3, [r4, #8]
 689 002c 9A68     		ldr	r2, [r3, #8]
 690              	.LVL94:
 691 002e 1968     		ldr	r1, [r3]
 692              	.LVL95:
 693 0030 8A42     		cmp	r2, r1
 694 0032 02D3     		bcc	.L46
 262:..\..\..\arduinoLCD\test\Pain Drain\libraries\lvgl\src\misc/lv_fs.c ****                         res = file_p->drv->seek_cb(file_p->drv, file_p->file_d, file_p->cache->file
 695              		.loc 1 262 0 is_stmt 0 discriminator 1
 696 0034 5B68     		ldr	r3, [r3, #4]
 697 0036 9A42     		cmp	r2, r3
 698 0038 35D9     		bls	.L52
 699              	.L46:
 263:..\..\..\arduinoLCD\test\Pain Drain\libraries\lvgl\src\misc/lv_fs.c ****                     }
 700              		.loc 1 263 0 is_stmt 1
 701 003a 6068     		ldr	r0, [r4, #4]
ARM GAS  C:\Users\haske\AppData\Local\Temp\cc4gWNdf.s 			page 24


 702 003c 8569     		ldr	r5, [r0, #24]
 703 003e 2168     		ldr	r1, [r4]
 704 0040 0023     		movs	r3, #0
 705 0042 A847     		blx	r5
 706              	.LVL96:
 707 0044 32E0     		b	.L41
 708              	.LVL97:
 709              	.L43:
 269:..\..\..\arduinoLCD\test\Pain Drain\libraries\lvgl\src\misc/lv_fs.c **** 
 710              		.loc 1 269 0
 711 0046 A368     		ldr	r3, [r4, #8]
 712 0048 9A68     		ldr	r2, [r3, #8]
 713              	.LVL98:
 714 004a 9446     		mov	ip, r2
 715 004c 6144     		add	r1, r1, ip
 716              	.LVL99:
 717 004e 9960     		str	r1, [r3, #8]
 272:..\..\..\arduinoLCD\test\Pain Drain\libraries\lvgl\src\misc/lv_fs.c ****                         res = file_p->drv->seek_cb(file_p->drv, file_p->file_d, file_p->cache->file
 718              		.loc 1 272 0
 719 0050 A368     		ldr	r3, [r4, #8]
 720 0052 9A68     		ldr	r2, [r3, #8]
 721 0054 1968     		ldr	r1, [r3]
 722 0056 8A42     		cmp	r2, r1
 723 0058 02D3     		bcc	.L47
 272:..\..\..\arduinoLCD\test\Pain Drain\libraries\lvgl\src\misc/lv_fs.c ****                         res = file_p->drv->seek_cb(file_p->drv, file_p->file_d, file_p->cache->file
 724              		.loc 1 272 0 is_stmt 0 discriminator 1
 725 005a 5B68     		ldr	r3, [r3, #4]
 726 005c 9A42     		cmp	r2, r3
 727 005e 24D9     		bls	.L53
 728              	.L47:
 273:..\..\..\arduinoLCD\test\Pain Drain\libraries\lvgl\src\misc/lv_fs.c ****                     }
 729              		.loc 1 273 0 is_stmt 1
 730 0060 6068     		ldr	r0, [r4, #4]
 731 0062 8569     		ldr	r5, [r0, #24]
 732 0064 2168     		ldr	r1, [r4]
 733 0066 0023     		movs	r3, #0
 734 0068 A847     		blx	r5
 735              	.LVL100:
 736 006a 1FE0     		b	.L41
 737              	.LVL101:
 738              	.L45:
 280:..\..\..\arduinoLCD\test\Pain Drain\libraries\lvgl\src\misc/lv_fs.c ****                     if(res == LV_FS_RES_OK) {
 739              		.loc 1 280 0
 740 006c 1300     		movs	r3, r2
 741 006e 0A00     		movs	r2, r1
 742              	.LVL102:
 743 0070 2168     		ldr	r1, [r4]
 744              	.LVL103:
 745 0072 A847     		blx	r5
 746              	.LVL104:
 281:..\..\..\arduinoLCD\test\Pain Drain\libraries\lvgl\src\misc/lv_fs.c ****                         uint32_t tmp_position;
 747              		.loc 1 281 0
 748 0074 0028     		cmp	r0, #0
 749 0076 19D1     		bne	.L41
 750              	.LBB7:
 283:..\..\..\arduinoLCD\test\Pain Drain\libraries\lvgl\src\misc/lv_fs.c **** 
 751              		.loc 1 283 0
ARM GAS  C:\Users\haske\AppData\Local\Temp\cc4gWNdf.s 			page 25


 752 0078 6068     		ldr	r0, [r4, #4]
 753              	.LVL105:
 754 007a C369     		ldr	r3, [r0, #28]
 755 007c 01AA     		add	r2, sp, #4
 756 007e 2168     		ldr	r1, [r4]
 757 0080 9847     		blx	r3
 758              	.LVL106:
 285:..\..\..\arduinoLCD\test\Pain Drain\libraries\lvgl\src\misc/lv_fs.c ****                             file_p->cache->file_position = tmp_position;
 759              		.loc 1 285 0
 760 0082 0028     		cmp	r0, #0
 761 0084 12D1     		bne	.L41
 286:..\..\..\arduinoLCD\test\Pain Drain\libraries\lvgl\src\misc/lv_fs.c ****                         }
 762              		.loc 1 286 0
 763 0086 A368     		ldr	r3, [r4, #8]
 764 0088 019A     		ldr	r2, [sp, #4]
 765 008a 9A60     		str	r2, [r3, #8]
 766 008c 0EE0     		b	.L41
 767              	.LVL107:
 768              	.L42:
 769              	.LBE7:
 294:..\..\..\arduinoLCD\test\Pain Drain\libraries\lvgl\src\misc/lv_fs.c ****     }
 770              		.loc 1 294 0
 771 008e 2468     		ldr	r4, [r4]
 772              	.LVL108:
 773 0090 1300     		movs	r3, r2
 774 0092 0A00     		movs	r2, r1
 775              	.LVL109:
 776 0094 2100     		movs	r1, r4
 777              	.LVL110:
 778 0096 A847     		blx	r5
 779              	.LVL111:
 780 0098 08E0     		b	.L41
 781              	.LVL112:
 782              	.L49:
 248:..\..\..\arduinoLCD\test\Pain Drain\libraries\lvgl\src\misc/lv_fs.c ****     }
 783              		.loc 1 248 0
 784 009a 0B20     		movs	r0, #11
 785 009c 06E0     		b	.L41
 786              	.L50:
 252:..\..\..\arduinoLCD\test\Pain Drain\libraries\lvgl\src\misc/lv_fs.c ****     }
 787              		.loc 1 252 0
 788 009e 0920     		movs	r0, #9
 789 00a0 04E0     		b	.L41
 790              	.LVL113:
 791              	.L55:
 255:..\..\..\arduinoLCD\test\Pain Drain\libraries\lvgl\src\misc/lv_fs.c ****     if(file_p->drv->cache_size) {
 792              		.loc 1 255 0
 793 00a2 0020     		movs	r0, #0
 794 00a4 02E0     		b	.L41
 795              	.LVL114:
 796              	.L52:
 797 00a6 0020     		movs	r0, #0
 798 00a8 00E0     		b	.L41
 799              	.L53:
 800 00aa 0020     		movs	r0, #0
 801              	.LVL115:
 802              	.L41:
ARM GAS  C:\Users\haske\AppData\Local\Temp\cc4gWNdf.s 			page 26


 298:..\..\..\arduinoLCD\test\Pain Drain\libraries\lvgl\src\misc/lv_fs.c **** 
 803              		.loc 1 298 0
 804 00ac 03B0     		add	sp, sp, #12
 805              		@ sp needed
 806 00ae 30BD     		pop	{r4, r5, pc}
 807              		.cfi_endproc
 808              	.LFE31:
 809              		.size	lv_fs_seek, .-lv_fs_seek
 810              		.section	.text.lv_fs_tell,"ax",%progbits
 811              		.align	2
 812              		.global	lv_fs_tell
 813              		.code	16
 814              		.thumb_func
 815              		.type	lv_fs_tell, %function
 816              	lv_fs_tell:
 817              	.LFB32:
 301:..\..\..\arduinoLCD\test\Pain Drain\libraries\lvgl\src\misc/lv_fs.c ****     if(file_p->drv == NULL) {
 818              		.loc 1 301 0
 819              		.cfi_startproc
 820              		@ args = 0, pretend = 0, frame = 0
 821              		@ frame_needed = 0, uses_anonymous_args = 0
 822              	.LVL116:
 823 0000 10B5     		push	{r4, lr}
 824              		.cfi_def_cfa_offset 8
 825              		.cfi_offset 4, -8
 826              		.cfi_offset 14, -4
 302:..\..\..\arduinoLCD\test\Pain Drain\libraries\lvgl\src\misc/lv_fs.c ****         *pos = 0;
 827              		.loc 1 302 0
 828 0002 4368     		ldr	r3, [r0, #4]
 829 0004 002B     		cmp	r3, #0
 830 0006 02D1     		bne	.L57
 303:..\..\..\arduinoLCD\test\Pain Drain\libraries\lvgl\src\misc/lv_fs.c ****         return LV_FS_RES_INV_PARAM;
 831              		.loc 1 303 0
 832 0008 0B60     		str	r3, [r1]
 304:..\..\..\arduinoLCD\test\Pain Drain\libraries\lvgl\src\misc/lv_fs.c ****     }
 833              		.loc 1 304 0
 834 000a 0B20     		movs	r0, #11
 835              	.LVL117:
 836 000c 13E0     		b	.L58
 837              	.LVL118:
 838              	.L57:
 307:..\..\..\arduinoLCD\test\Pain Drain\libraries\lvgl\src\misc/lv_fs.c ****         *pos = 0;
 839              		.loc 1 307 0
 840 000e DC69     		ldr	r4, [r3, #28]
 841 0010 002C     		cmp	r4, #0
 842 0012 03D1     		bne	.L59
 308:..\..\..\arduinoLCD\test\Pain Drain\libraries\lvgl\src\misc/lv_fs.c ****         return LV_FS_RES_NOT_IMP;
 843              		.loc 1 308 0
 844 0014 0023     		movs	r3, #0
 845 0016 0B60     		str	r3, [r1]
 309:..\..\..\arduinoLCD\test\Pain Drain\libraries\lvgl\src\misc/lv_fs.c ****     }
 846              		.loc 1 309 0
 847 0018 0920     		movs	r0, #9
 848              	.LVL119:
 849 001a 0CE0     		b	.L58
 850              	.LVL120:
 851              	.L59:
ARM GAS  C:\Users\haske\AppData\Local\Temp\cc4gWNdf.s 			page 27


 313:..\..\..\arduinoLCD\test\Pain Drain\libraries\lvgl\src\misc/lv_fs.c ****         *pos = file_p->cache->file_position;
 852              		.loc 1 313 0
 853 001c 5A88     		ldrh	r2, [r3, #2]
 854 001e 002A     		cmp	r2, #0
 855 0020 04D0     		beq	.L60
 314:..\..\..\arduinoLCD\test\Pain Drain\libraries\lvgl\src\misc/lv_fs.c ****         res = LV_FS_RES_OK;
 856              		.loc 1 314 0
 857 0022 8368     		ldr	r3, [r0, #8]
 858 0024 9B68     		ldr	r3, [r3, #8]
 859 0026 0B60     		str	r3, [r1]
 860              	.LVL121:
 315:..\..\..\arduinoLCD\test\Pain Drain\libraries\lvgl\src\misc/lv_fs.c ****     }
 861              		.loc 1 315 0
 862 0028 0020     		movs	r0, #0
 863              	.LVL122:
 864 002a 04E0     		b	.L58
 865              	.LVL123:
 866              	.L60:
 318:..\..\..\arduinoLCD\test\Pain Drain\libraries\lvgl\src\misc/lv_fs.c ****     }
 867              		.loc 1 318 0
 868 002c 0068     		ldr	r0, [r0]
 869              	.LVL124:
 870 002e 0A00     		movs	r2, r1
 871 0030 0100     		movs	r1, r0
 872              	.LVL125:
 873 0032 1800     		movs	r0, r3
 874 0034 A047     		blx	r4
 875              	.LVL126:
 876              	.L58:
 322:..\..\..\arduinoLCD\test\Pain Drain\libraries\lvgl\src\misc/lv_fs.c **** 
 877              		.loc 1 322 0
 878              		@ sp needed
 879 0036 10BD     		pop	{r4, pc}
 880              		.cfi_endproc
 881              	.LFE32:
 882              		.size	lv_fs_tell, .-lv_fs_tell
 883              		.section	.text.lv_fs_dir_read,"ax",%progbits
 884              		.align	2
 885              		.global	lv_fs_dir_read
 886              		.code	16
 887              		.thumb_func
 888              		.type	lv_fs_dir_read, %function
 889              	lv_fs_dir_read:
 890              	.LFB34:
 359:..\..\..\arduinoLCD\test\Pain Drain\libraries\lvgl\src\misc/lv_fs.c ****     if(rddir_p->drv == NULL || rddir_p->dir_d == NULL) {
 891              		.loc 1 359 0
 892              		.cfi_startproc
 893              		@ args = 0, pretend = 0, frame = 0
 894              		@ frame_needed = 0, uses_anonymous_args = 0
 895              	.LVL127:
 896 0000 10B5     		push	{r4, lr}
 897              		.cfi_def_cfa_offset 8
 898              		.cfi_offset 4, -8
 899              		.cfi_offset 14, -4
 360:..\..\..\arduinoLCD\test\Pain Drain\libraries\lvgl\src\misc/lv_fs.c ****         fn[0] = '\0';
 900              		.loc 1 360 0
 901 0002 4368     		ldr	r3, [r0, #4]
ARM GAS  C:\Users\haske\AppData\Local\Temp\cc4gWNdf.s 			page 28


 902 0004 002B     		cmp	r3, #0
 903 0006 02D0     		beq	.L62
 360:..\..\..\arduinoLCD\test\Pain Drain\libraries\lvgl\src\misc/lv_fs.c ****         fn[0] = '\0';
 904              		.loc 1 360 0 is_stmt 0 discriminator 1
 905 0008 0068     		ldr	r0, [r0]
 906              	.LVL128:
 907 000a 0028     		cmp	r0, #0
 908 000c 03D1     		bne	.L63
 909              	.L62:
 361:..\..\..\arduinoLCD\test\Pain Drain\libraries\lvgl\src\misc/lv_fs.c ****         return LV_FS_RES_INV_PARAM;
 910              		.loc 1 361 0 is_stmt 1
 911 000e 0023     		movs	r3, #0
 912 0010 0B70     		strb	r3, [r1]
 362:..\..\..\arduinoLCD\test\Pain Drain\libraries\lvgl\src\misc/lv_fs.c ****     }
 913              		.loc 1 362 0
 914 0012 0B20     		movs	r0, #11
 915 0014 0AE0     		b	.L64
 916              	.L63:
 365:..\..\..\arduinoLCD\test\Pain Drain\libraries\lvgl\src\misc/lv_fs.c ****         fn[0] = '\0';
 917              		.loc 1 365 0
 918 0016 5C6A     		ldr	r4, [r3, #36]
 919 0018 002C     		cmp	r4, #0
 920 001a 03D1     		bne	.L65
 366:..\..\..\arduinoLCD\test\Pain Drain\libraries\lvgl\src\misc/lv_fs.c ****         return LV_FS_RES_NOT_IMP;
 921              		.loc 1 366 0
 922 001c 0023     		movs	r3, #0
 923 001e 0B70     		strb	r3, [r1]
 367:..\..\..\arduinoLCD\test\Pain Drain\libraries\lvgl\src\misc/lv_fs.c ****     }
 924              		.loc 1 367 0
 925 0020 0920     		movs	r0, #9
 926 0022 03E0     		b	.L64
 927              	.L65:
 370:..\..\..\arduinoLCD\test\Pain Drain\libraries\lvgl\src\misc/lv_fs.c **** 
 928              		.loc 1 370 0
 929 0024 0A00     		movs	r2, r1
 930 0026 0100     		movs	r1, r0
 931              	.LVL129:
 932 0028 1800     		movs	r0, r3
 933 002a A047     		blx	r4
 934              	.LVL130:
 935              	.L64:
 373:..\..\..\arduinoLCD\test\Pain Drain\libraries\lvgl\src\misc/lv_fs.c **** 
 936              		.loc 1 373 0
 937              		@ sp needed
 938 002c 10BD     		pop	{r4, pc}
 939              		.cfi_endproc
 940              	.LFE34:
 941              		.size	lv_fs_dir_read, .-lv_fs_dir_read
 942 002e C046     		.section	.text.lv_fs_dir_close,"ax",%progbits
 943              		.align	2
 944              		.global	lv_fs_dir_close
 945              		.code	16
 946              		.thumb_func
 947              		.type	lv_fs_dir_close, %function
 948              	lv_fs_dir_close:
 949              	.LFB35:
 376:..\..\..\arduinoLCD\test\Pain Drain\libraries\lvgl\src\misc/lv_fs.c ****     if(rddir_p->drv == NULL || rddir_p->dir_d == NULL) {
ARM GAS  C:\Users\haske\AppData\Local\Temp\cc4gWNdf.s 			page 29


 950              		.loc 1 376 0
 951              		.cfi_startproc
 952              		@ args = 0, pretend = 0, frame = 0
 953              		@ frame_needed = 0, uses_anonymous_args = 0
 954              	.LVL131:
 955 0000 10B5     		push	{r4, lr}
 956              		.cfi_def_cfa_offset 8
 957              		.cfi_offset 4, -8
 958              		.cfi_offset 14, -4
 959 0002 0400     		movs	r4, r0
 377:..\..\..\arduinoLCD\test\Pain Drain\libraries\lvgl\src\misc/lv_fs.c ****         return LV_FS_RES_INV_PARAM;
 960              		.loc 1 377 0
 961 0004 4068     		ldr	r0, [r0, #4]
 962              	.LVL132:
 963 0006 0028     		cmp	r0, #0
 964 0008 0AD0     		beq	.L68
 377:..\..\..\arduinoLCD\test\Pain Drain\libraries\lvgl\src\misc/lv_fs.c ****         return LV_FS_RES_INV_PARAM;
 965              		.loc 1 377 0 is_stmt 0 discriminator 1
 966 000a 2168     		ldr	r1, [r4]
 967 000c 0029     		cmp	r1, #0
 968 000e 09D0     		beq	.L69
 381:..\..\..\arduinoLCD\test\Pain Drain\libraries\lvgl\src\misc/lv_fs.c ****         return LV_FS_RES_NOT_IMP;
 969              		.loc 1 381 0 is_stmt 1
 970 0010 836A     		ldr	r3, [r0, #40]
 971 0012 002B     		cmp	r3, #0
 972 0014 08D0     		beq	.L70
 385:..\..\..\arduinoLCD\test\Pain Drain\libraries\lvgl\src\misc/lv_fs.c **** 
 973              		.loc 1 385 0
 974 0016 9847     		blx	r3
 975              	.LVL133:
 387:..\..\..\arduinoLCD\test\Pain Drain\libraries\lvgl\src\misc/lv_fs.c ****     rddir_p->drv   = NULL;
 976              		.loc 1 387 0
 977 0018 0023     		movs	r3, #0
 978 001a 2360     		str	r3, [r4]
 388:..\..\..\arduinoLCD\test\Pain Drain\libraries\lvgl\src\misc/lv_fs.c **** 
 979              		.loc 1 388 0
 980 001c 6360     		str	r3, [r4, #4]
 390:..\..\..\arduinoLCD\test\Pain Drain\libraries\lvgl\src\misc/lv_fs.c **** }
 981              		.loc 1 390 0
 982 001e 04E0     		b	.L67
 983              	.LVL134:
 984              	.L68:
 378:..\..\..\arduinoLCD\test\Pain Drain\libraries\lvgl\src\misc/lv_fs.c ****     }
 985              		.loc 1 378 0
 986 0020 0B20     		movs	r0, #11
 987 0022 02E0     		b	.L67
 988              	.L69:
 989 0024 0B20     		movs	r0, #11
 990 0026 00E0     		b	.L67
 991              	.L70:
 382:..\..\..\arduinoLCD\test\Pain Drain\libraries\lvgl\src\misc/lv_fs.c ****     }
 992              		.loc 1 382 0
 993 0028 0920     		movs	r0, #9
 994              	.L67:
 391:..\..\..\arduinoLCD\test\Pain Drain\libraries\lvgl\src\misc/lv_fs.c **** 
 995              		.loc 1 391 0
 996              		@ sp needed
ARM GAS  C:\Users\haske\AppData\Local\Temp\cc4gWNdf.s 			page 30


 997              	.LVL135:
 998 002a 10BD     		pop	{r4, pc}
 999              		.cfi_endproc
 1000              	.LFE35:
 1001              		.size	lv_fs_dir_close, .-lv_fs_dir_close
 1002              		.section	.text.lv_fs_drv_init,"ax",%progbits
 1003              		.align	2
 1004              		.global	lv_fs_drv_init
 1005              		.code	16
 1006              		.thumb_func
 1007              		.type	lv_fs_drv_init, %function
 1008              	lv_fs_drv_init:
 1009              	.LFB36:
 394:..\..\..\arduinoLCD\test\Pain Drain\libraries\lvgl\src\misc/lv_fs.c ****     lv_memset_00(drv, sizeof(lv_fs_drv_t));
 1010              		.loc 1 394 0
 1011              		.cfi_startproc
 1012              		@ args = 0, pretend = 0, frame = 0
 1013              		@ frame_needed = 0, uses_anonymous_args = 0
 1014              	.LVL136:
 1015 0000 10B5     		push	{r4, lr}
 1016              		.cfi_def_cfa_offset 8
 1017              		.cfi_offset 4, -8
 1018              		.cfi_offset 14, -4
 395:..\..\..\arduinoLCD\test\Pain Drain\libraries\lvgl\src\misc/lv_fs.c **** }
 1019              		.loc 1 395 0
 1020 0002 3021     		movs	r1, #48
 1021 0004 FFF7FEFF 		bl	lv_memset_00
 1022              	.LVL137:
 396:..\..\..\arduinoLCD\test\Pain Drain\libraries\lvgl\src\misc/lv_fs.c **** 
 1023              		.loc 1 396 0
 1024              		@ sp needed
 1025 0008 10BD     		pop	{r4, pc}
 1026              		.cfi_endproc
 1027              	.LFE36:
 1028              		.size	lv_fs_drv_init, .-lv_fs_drv_init
 1029 000a C046     		.section	.text.lv_fs_drv_register,"ax",%progbits
 1030              		.align	2
 1031              		.global	lv_fs_drv_register
 1032              		.code	16
 1033              		.thumb_func
 1034              		.type	lv_fs_drv_register, %function
 1035              	lv_fs_drv_register:
 1036              	.LFB37:
 399:..\..\..\arduinoLCD\test\Pain Drain\libraries\lvgl\src\misc/lv_fs.c ****     /*Save the new driver*/
 1037              		.loc 1 399 0
 1038              		.cfi_startproc
 1039              		@ args = 0, pretend = 0, frame = 0
 1040              		@ frame_needed = 0, uses_anonymous_args = 0
 1041              	.LVL138:
 1042 0000 10B5     		push	{r4, lr}
 1043              		.cfi_def_cfa_offset 8
 1044              		.cfi_offset 4, -8
 1045              		.cfi_offset 14, -4
 1046 0002 0400     		movs	r4, r0
 402:..\..\..\arduinoLCD\test\Pain Drain\libraries\lvgl\src\misc/lv_fs.c ****     LV_ASSERT_MALLOC(new_drv);
 1047              		.loc 1 402 0
 1048 0004 0448     		ldr	r0, .L76
ARM GAS  C:\Users\haske\AppData\Local\Temp\cc4gWNdf.s 			page 31


 1049              	.LVL139:
 1050 0006 FFF7FEFF 		bl	_lv_ll_ins_head
 1051              	.LVL140:
 403:..\..\..\arduinoLCD\test\Pain Drain\libraries\lvgl\src\misc/lv_fs.c ****     if(new_drv == NULL) return;
 1052              		.loc 1 403 0
 1053 000a 0028     		cmp	r0, #0
 1054 000c 00D1     		bne	.L73
 1055              	.L74:
 1056 000e FEE7     		b	.L74
 1057              	.L73:
 404:..\..\..\arduinoLCD\test\Pain Drain\libraries\lvgl\src\misc/lv_fs.c **** 
 1058              		.loc 1 404 0
 1059 0010 0028     		cmp	r0, #0
 1060 0012 00D0     		beq	.L72
 406:..\..\..\arduinoLCD\test\Pain Drain\libraries\lvgl\src\misc/lv_fs.c **** }
 1061              		.loc 1 406 0
 1062 0014 0460     		str	r4, [r0]
 1063              	.L72:
 407:..\..\..\arduinoLCD\test\Pain Drain\libraries\lvgl\src\misc/lv_fs.c **** 
 1064              		.loc 1 407 0
 1065              		@ sp needed
 1066              	.LVL141:
 1067 0016 10BD     		pop	{r4, pc}
 1068              	.L77:
 1069              		.align	2
 1070              	.L76:
 1071 0018 00000000 		.word	_lv_fsdrv_ll
 1072              		.cfi_endproc
 1073              	.LFE37:
 1074              		.size	lv_fs_drv_register, .-lv_fs_drv_register
 1075              		.section	.text.lv_fs_get_drv,"ax",%progbits
 1076              		.align	2
 1077              		.global	lv_fs_get_drv
 1078              		.code	16
 1079              		.thumb_func
 1080              		.type	lv_fs_get_drv, %function
 1081              	lv_fs_get_drv:
 1082              	.LFB38:
 410:..\..\..\arduinoLCD\test\Pain Drain\libraries\lvgl\src\misc/lv_fs.c ****     lv_fs_drv_t ** drv;
 1083              		.loc 1 410 0
 1084              		.cfi_startproc
 1085              		@ args = 0, pretend = 0, frame = 0
 1086              		@ frame_needed = 0, uses_anonymous_args = 0
 1087              	.LVL142:
 1088 0000 10B5     		push	{r4, lr}
 1089              		.cfi_def_cfa_offset 8
 1090              		.cfi_offset 4, -8
 1091              		.cfi_offset 14, -4
 1092 0002 0400     		movs	r4, r0
 413:..\..\..\arduinoLCD\test\Pain Drain\libraries\lvgl\src\misc/lv_fs.c ****         if((*drv)->letter == letter) {
 1093              		.loc 1 413 0
 1094 0004 0848     		ldr	r0, .L82
 1095              	.LVL143:
 1096 0006 FFF7FEFF 		bl	_lv_ll_get_head
 1097              	.LVL144:
 1098 000a 0100     		movs	r1, r0
 1099              	.LVL145:
ARM GAS  C:\Users\haske\AppData\Local\Temp\cc4gWNdf.s 			page 32


 1100 000c 07E0     		b	.L79
 1101              	.L81:
 414:..\..\..\arduinoLCD\test\Pain Drain\libraries\lvgl\src\misc/lv_fs.c ****             return *drv;
 1102              		.loc 1 414 0
 1103 000e 0868     		ldr	r0, [r1]
 1104              	.LVL146:
 1105 0010 0378     		ldrb	r3, [r0]
 1106 0012 A342     		cmp	r3, r4
 1107 0014 06D0     		beq	.L80
 413:..\..\..\arduinoLCD\test\Pain Drain\libraries\lvgl\src\misc/lv_fs.c ****         if((*drv)->letter == letter) {
 1108              		.loc 1 413 0 discriminator 2
 1109 0016 0448     		ldr	r0, .L82
 1110 0018 FFF7FEFF 		bl	_lv_ll_get_next
 1111              	.LVL147:
 1112 001c 0100     		movs	r1, r0
 1113              	.LVL148:
 1114              	.L79:
 413:..\..\..\arduinoLCD\test\Pain Drain\libraries\lvgl\src\misc/lv_fs.c ****         if((*drv)->letter == letter) {
 1115              		.loc 1 413 0 is_stmt 0 discriminator 1
 1116 001e 0029     		cmp	r1, #0
 1117 0020 F5D1     		bne	.L81
 419:..\..\..\arduinoLCD\test\Pain Drain\libraries\lvgl\src\misc/lv_fs.c **** }
 1118              		.loc 1 419 0 is_stmt 1
 1119 0022 0020     		movs	r0, #0
 1120              	.LVL149:
 1121              	.L80:
 420:..\..\..\arduinoLCD\test\Pain Drain\libraries\lvgl\src\misc/lv_fs.c **** 
 1122              		.loc 1 420 0
 1123              		@ sp needed
 1124 0024 10BD     		pop	{r4, pc}
 1125              	.L83:
 1126 0026 C046     		.align	2
 1127              	.L82:
 1128 0028 00000000 		.word	_lv_fsdrv_ll
 1129              		.cfi_endproc
 1130              	.LFE38:
 1131              		.size	lv_fs_get_drv, .-lv_fs_get_drv
 1132              		.section	.text.lv_fs_is_ready,"ax",%progbits
 1133              		.align	2
 1134              		.global	lv_fs_is_ready
 1135              		.code	16
 1136              		.thumb_func
 1137              		.type	lv_fs_is_ready, %function
 1138              	lv_fs_is_ready:
 1139              	.LFB25:
  47:..\..\..\arduinoLCD\test\Pain Drain\libraries\lvgl\src\misc/lv_fs.c ****     lv_fs_drv_t * drv = lv_fs_get_drv(letter);
 1140              		.loc 1 47 0
 1141              		.cfi_startproc
 1142              		@ args = 0, pretend = 0, frame = 0
 1143              		@ frame_needed = 0, uses_anonymous_args = 0
 1144              	.LVL150:
 1145 0000 10B5     		push	{r4, lr}
 1146              		.cfi_def_cfa_offset 8
 1147              		.cfi_offset 4, -8
 1148              		.cfi_offset 14, -4
  48:..\..\..\arduinoLCD\test\Pain Drain\libraries\lvgl\src\misc/lv_fs.c **** 
 1149              		.loc 1 48 0
ARM GAS  C:\Users\haske\AppData\Local\Temp\cc4gWNdf.s 			page 33


 1150 0002 FFF7FEFF 		bl	lv_fs_get_drv
 1151              	.LVL151:
  50:..\..\..\arduinoLCD\test\Pain Drain\libraries\lvgl\src\misc/lv_fs.c **** 
 1152              		.loc 1 50 0
 1153 0006 0028     		cmp	r0, #0
 1154 0008 04D0     		beq	.L86
  52:..\..\..\arduinoLCD\test\Pain Drain\libraries\lvgl\src\misc/lv_fs.c **** 
 1155              		.loc 1 52 0
 1156 000a 4368     		ldr	r3, [r0, #4]
 1157 000c 002B     		cmp	r3, #0
 1158 000e 03D0     		beq	.L87
  54:..\..\..\arduinoLCD\test\Pain Drain\libraries\lvgl\src\misc/lv_fs.c **** }
 1159              		.loc 1 54 0
 1160 0010 9847     		blx	r3
 1161              	.LVL152:
 1162 0012 02E0     		b	.L85
 1163              	.LVL153:
 1164              	.L86:
  50:..\..\..\arduinoLCD\test\Pain Drain\libraries\lvgl\src\misc/lv_fs.c **** 
 1165              		.loc 1 50 0
 1166 0014 0020     		movs	r0, #0
 1167              	.LVL154:
 1168 0016 00E0     		b	.L85
 1169              	.LVL155:
 1170              	.L87:
  52:..\..\..\arduinoLCD\test\Pain Drain\libraries\lvgl\src\misc/lv_fs.c **** 
 1171              		.loc 1 52 0
 1172 0018 0120     		movs	r0, #1
 1173              	.LVL156:
 1174              	.L85:
  55:..\..\..\arduinoLCD\test\Pain Drain\libraries\lvgl\src\misc/lv_fs.c **** 
 1175              		.loc 1 55 0
 1176              		@ sp needed
 1177 001a 10BD     		pop	{r4, pc}
 1178              		.cfi_endproc
 1179              	.LFE25:
 1180              		.size	lv_fs_is_ready, .-lv_fs_is_ready
 1181              		.section	.text.lv_fs_open,"ax",%progbits
 1182              		.align	2
 1183              		.global	lv_fs_open
 1184              		.code	16
 1185              		.thumb_func
 1186              		.type	lv_fs_open, %function
 1187              	lv_fs_open:
 1188              	.LFB26:
  58:..\..\..\arduinoLCD\test\Pain Drain\libraries\lvgl\src\misc/lv_fs.c ****     if(path == NULL) {
 1189              		.loc 1 58 0
 1190              		.cfi_startproc
 1191              		@ args = 0, pretend = 0, frame = 8
 1192              		@ frame_needed = 0, uses_anonymous_args = 0
 1193              	.LVL157:
 1194 0000 F0B5     		push	{r4, r5, r6, r7, lr}
 1195              		.cfi_def_cfa_offset 20
 1196              		.cfi_offset 4, -20
 1197              		.cfi_offset 5, -16
 1198              		.cfi_offset 6, -12
 1199              		.cfi_offset 7, -8
ARM GAS  C:\Users\haske\AppData\Local\Temp\cc4gWNdf.s 			page 34


 1200              		.cfi_offset 14, -4
 1201 0002 83B0     		sub	sp, sp, #12
 1202              		.cfi_def_cfa_offset 32
 1203 0004 0600     		movs	r6, r0
 1204 0006 0C1E     		subs	r4, r1, #0
 1205 0008 0192     		str	r2, [sp, #4]
  59:..\..\..\arduinoLCD\test\Pain Drain\libraries\lvgl\src\misc/lv_fs.c ****         LV_LOG_WARN("Can't open file: path is NULL");
 1206              		.loc 1 59 0
 1207 000a 2FD0     		beq	.L93
  64:..\..\..\arduinoLCD\test\Pain Drain\libraries\lvgl\src\misc/lv_fs.c ****     lv_fs_drv_t * drv = lv_fs_get_drv(letter);
 1208              		.loc 1 64 0
 1209 000c 0878     		ldrb	r0, [r1]
 1210              	.LVL158:
  65:..\..\..\arduinoLCD\test\Pain Drain\libraries\lvgl\src\misc/lv_fs.c **** 
 1211              		.loc 1 65 0
 1212 000e FFF7FEFF 		bl	lv_fs_get_drv
 1213              	.LVL159:
 1214 0012 051E     		subs	r5, r0, #0
 1215              	.LVL160:
  67:..\..\..\arduinoLCD\test\Pain Drain\libraries\lvgl\src\misc/lv_fs.c ****         LV_LOG_WARN("Can't open file (%s): unknown driver letter", path);
 1216              		.loc 1 67 0
 1217 0014 2CD0     		beq	.L94
  72:..\..\..\arduinoLCD\test\Pain Drain\libraries\lvgl\src\misc/lv_fs.c ****         if(drv->ready_cb(drv) == false) {
 1218              		.loc 1 72 0
 1219 0016 4368     		ldr	r3, [r0, #4]
 1220 0018 002B     		cmp	r3, #0
 1221 001a 02D0     		beq	.L90
  73:..\..\..\arduinoLCD\test\Pain Drain\libraries\lvgl\src\misc/lv_fs.c ****             LV_LOG_WARN("Can't open file (%s): driver not ready", path);
 1222              		.loc 1 73 0
 1223 001c 9847     		blx	r3
 1224              	.LVL161:
 1225 001e 0028     		cmp	r0, #0
 1226 0020 28D0     		beq	.L95
 1227              	.L90:
  79:..\..\..\arduinoLCD\test\Pain Drain\libraries\lvgl\src\misc/lv_fs.c ****         LV_LOG_WARN("Can't open file (%s): open function not exists", path);
 1228              		.loc 1 79 0
 1229 0022 AF68     		ldr	r7, [r5, #8]
 1230 0024 002F     		cmp	r7, #0
 1231 0026 27D0     		beq	.L96
  84:..\..\..\arduinoLCD\test\Pain Drain\libraries\lvgl\src\misc/lv_fs.c ****     void * file_d = drv->open_cb(drv, real_path, mode);
 1232              		.loc 1 84 0
 1233 0028 2000     		movs	r0, r4
 1234 002a FFF7FEFF 		bl	lv_fs_get_real_path
 1235              	.LVL162:
 1236 002e 0100     		movs	r1, r0
 1237              	.LVL163:
  85:..\..\..\arduinoLCD\test\Pain Drain\libraries\lvgl\src\misc/lv_fs.c **** 
 1238              		.loc 1 85 0
 1239 0030 019A     		ldr	r2, [sp, #4]
 1240 0032 2800     		movs	r0, r5
 1241              	.LVL164:
 1242 0034 B847     		blx	r7
 1243              	.LVL165:
  87:..\..\..\arduinoLCD\test\Pain Drain\libraries\lvgl\src\misc/lv_fs.c ****         return LV_FS_RES_UNKNOWN;
 1244              		.loc 1 87 0
 1245 0036 431E     		subs	r3, r0, #1
 1246 0038 0333     		adds	r3, r3, #3
ARM GAS  C:\Users\haske\AppData\Local\Temp\cc4gWNdf.s 			page 35


 1247 003a 1FD8     		bhi	.L97
  91:..\..\..\arduinoLCD\test\Pain Drain\libraries\lvgl\src\misc/lv_fs.c ****     file_p->file_d = file_d;
 1248              		.loc 1 91 0
 1249 003c 7560     		str	r5, [r6, #4]
  92:..\..\..\arduinoLCD\test\Pain Drain\libraries\lvgl\src\misc/lv_fs.c **** 
 1250              		.loc 1 92 0
 1251 003e 3060     		str	r0, [r6]
  94:..\..\..\arduinoLCD\test\Pain Drain\libraries\lvgl\src\misc/lv_fs.c ****         file_p->cache = lv_mem_alloc(sizeof(lv_fs_file_cache_t));
 1252              		.loc 1 94 0
 1253 0040 6B88     		ldrh	r3, [r5, #2]
 1254 0042 002B     		cmp	r3, #0
 1255 0044 1CD0     		beq	.L98
  95:..\..\..\arduinoLCD\test\Pain Drain\libraries\lvgl\src\misc/lv_fs.c ****         LV_ASSERT_MALLOC(file_p->cache);
 1256              		.loc 1 95 0
 1257 0046 1020     		movs	r0, #16
 1258              	.LVL166:
 1259 0048 FFF7FEFF 		bl	lv_mem_alloc
 1260              	.LVL167:
 1261 004c B060     		str	r0, [r6, #8]
  96:..\..\..\arduinoLCD\test\Pain Drain\libraries\lvgl\src\misc/lv_fs.c ****         lv_memset_00(file_p->cache, sizeof(lv_fs_file_cache_t));
 1262              		.loc 1 96 0
 1263 004e 0028     		cmp	r0, #0
 1264 0050 00D1     		bne	.L91
 1265              	.L92:
 1266 0052 FEE7     		b	.L92
 1267              	.L91:
  97:..\..\..\arduinoLCD\test\Pain Drain\libraries\lvgl\src\misc/lv_fs.c ****         file_p->cache->start = UINT32_MAX;  /*Set an invalid range by default*/
 1268              		.loc 1 97 0
 1269 0054 1021     		movs	r1, #16
 1270 0056 FFF7FEFF 		bl	lv_memset_00
 1271              	.LVL168:
  98:..\..\..\arduinoLCD\test\Pain Drain\libraries\lvgl\src\misc/lv_fs.c ****         file_p->cache->end = UINT32_MAX - 1;
 1272              		.loc 1 98 0
 1273 005a B368     		ldr	r3, [r6, #8]
 1274 005c 0122     		movs	r2, #1
 1275 005e 5242     		rsbs	r2, r2, #0
 1276 0060 1A60     		str	r2, [r3]
  99:..\..\..\arduinoLCD\test\Pain Drain\libraries\lvgl\src\misc/lv_fs.c ****     }
 1277              		.loc 1 99 0
 1278 0062 B368     		ldr	r3, [r6, #8]
 1279 0064 013A     		subs	r2, r2, #1
 1280 0066 5A60     		str	r2, [r3, #4]
 102:..\..\..\arduinoLCD\test\Pain Drain\libraries\lvgl\src\misc/lv_fs.c **** }
 1281              		.loc 1 102 0
 1282 0068 0020     		movs	r0, #0
 1283 006a 0AE0     		b	.L89
 1284              	.LVL169:
 1285              	.L93:
  61:..\..\..\arduinoLCD\test\Pain Drain\libraries\lvgl\src\misc/lv_fs.c ****     }
 1286              		.loc 1 61 0
 1287 006c 0B20     		movs	r0, #11
 1288              	.LVL170:
 1289 006e 08E0     		b	.L89
 1290              	.LVL171:
 1291              	.L94:
  69:..\..\..\arduinoLCD\test\Pain Drain\libraries\lvgl\src\misc/lv_fs.c ****     }
 1292              		.loc 1 69 0
ARM GAS  C:\Users\haske\AppData\Local\Temp\cc4gWNdf.s 			page 36


 1293 0070 0320     		movs	r0, #3
 1294              	.LVL172:
 1295 0072 06E0     		b	.L89
 1296              	.L95:
  75:..\..\..\arduinoLCD\test\Pain Drain\libraries\lvgl\src\misc/lv_fs.c ****         }
 1297              		.loc 1 75 0
 1298 0074 0120     		movs	r0, #1
 1299 0076 04E0     		b	.L89
 1300              	.L96:
  81:..\..\..\arduinoLCD\test\Pain Drain\libraries\lvgl\src\misc/lv_fs.c ****     }
 1301              		.loc 1 81 0
 1302 0078 0920     		movs	r0, #9
 1303 007a 02E0     		b	.L89
 1304              	.LVL173:
 1305              	.L97:
  88:..\..\..\arduinoLCD\test\Pain Drain\libraries\lvgl\src\misc/lv_fs.c ****     }
 1306              		.loc 1 88 0
 1307 007c 0C20     		movs	r0, #12
 1308              	.LVL174:
 1309 007e 00E0     		b	.L89
 1310              	.LVL175:
 1311              	.L98:
 102:..\..\..\arduinoLCD\test\Pain Drain\libraries\lvgl\src\misc/lv_fs.c **** }
 1312              		.loc 1 102 0
 1313 0080 0020     		movs	r0, #0
 1314              	.LVL176:
 1315              	.L89:
 103:..\..\..\arduinoLCD\test\Pain Drain\libraries\lvgl\src\misc/lv_fs.c **** 
 1316              		.loc 1 103 0
 1317 0082 03B0     		add	sp, sp, #12
 1318              		@ sp needed
 1319              	.LVL177:
 1320              	.LVL178:
 1321 0084 F0BD     		pop	{r4, r5, r6, r7, pc}
 1322              		.cfi_endproc
 1323              	.LFE26:
 1324              		.size	lv_fs_open, .-lv_fs_open
 1325 0086 C046     		.section	.text.lv_fs_dir_open,"ax",%progbits
 1326              		.align	2
 1327              		.global	lv_fs_dir_open
 1328              		.code	16
 1329              		.thumb_func
 1330              		.type	lv_fs_dir_open, %function
 1331              	lv_fs_dir_open:
 1332              	.LFB33:
 325:..\..\..\arduinoLCD\test\Pain Drain\libraries\lvgl\src\misc/lv_fs.c ****     if(path == NULL) return LV_FS_RES_INV_PARAM;
 1333              		.loc 1 325 0
 1334              		.cfi_startproc
 1335              		@ args = 0, pretend = 0, frame = 0
 1336              		@ frame_needed = 0, uses_anonymous_args = 0
 1337              	.LVL179:
 1338 0000 F8B5     		push	{r3, r4, r5, r6, r7, lr}
 1339              		.cfi_def_cfa_offset 24
 1340              		.cfi_offset 3, -24
 1341              		.cfi_offset 4, -20
 1342              		.cfi_offset 5, -16
 1343              		.cfi_offset 6, -12
ARM GAS  C:\Users\haske\AppData\Local\Temp\cc4gWNdf.s 			page 37


 1344              		.cfi_offset 7, -8
 1345              		.cfi_offset 14, -4
 1346 0002 0600     		movs	r6, r0
 1347 0004 0C1E     		subs	r4, r1, #0
 326:..\..\..\arduinoLCD\test\Pain Drain\libraries\lvgl\src\misc/lv_fs.c **** 
 1348              		.loc 1 326 0
 1349 0006 1AD0     		beq	.L102
 328:..\..\..\arduinoLCD\test\Pain Drain\libraries\lvgl\src\misc/lv_fs.c ****     lv_fs_drv_t * drv = lv_fs_get_drv(letter);
 1350              		.loc 1 328 0
 1351 0008 0878     		ldrb	r0, [r1]
 1352              	.LVL180:
 329:..\..\..\arduinoLCD\test\Pain Drain\libraries\lvgl\src\misc/lv_fs.c **** 
 1353              		.loc 1 329 0
 1354 000a FFF7FEFF 		bl	lv_fs_get_drv
 1355              	.LVL181:
 1356 000e 051E     		subs	r5, r0, #0
 1357              	.LVL182:
 331:..\..\..\arduinoLCD\test\Pain Drain\libraries\lvgl\src\misc/lv_fs.c ****         return LV_FS_RES_NOT_EX;
 1358              		.loc 1 331 0
 1359 0010 17D0     		beq	.L103
 335:..\..\..\arduinoLCD\test\Pain Drain\libraries\lvgl\src\misc/lv_fs.c ****         if(drv->ready_cb(drv) == false) {
 1360              		.loc 1 335 0
 1361 0012 4368     		ldr	r3, [r0, #4]
 1362 0014 002B     		cmp	r3, #0
 1363 0016 02D0     		beq	.L101
 336:..\..\..\arduinoLCD\test\Pain Drain\libraries\lvgl\src\misc/lv_fs.c ****             return LV_FS_RES_HW_ERR;
 1364              		.loc 1 336 0
 1365 0018 9847     		blx	r3
 1366              	.LVL183:
 1367 001a 0028     		cmp	r0, #0
 1368 001c 13D0     		beq	.L104
 1369              	.L101:
 341:..\..\..\arduinoLCD\test\Pain Drain\libraries\lvgl\src\misc/lv_fs.c ****         return LV_FS_RES_NOT_IMP;
 1370              		.loc 1 341 0
 1371 001e 2F6A     		ldr	r7, [r5, #32]
 1372 0020 002F     		cmp	r7, #0
 1373 0022 12D0     		beq	.L105
 345:..\..\..\arduinoLCD\test\Pain Drain\libraries\lvgl\src\misc/lv_fs.c ****     void * dir_d = drv->dir_open_cb(drv, real_path);
 1374              		.loc 1 345 0
 1375 0024 2000     		movs	r0, r4
 1376 0026 FFF7FEFF 		bl	lv_fs_get_real_path
 1377              	.LVL184:
 1378 002a 0100     		movs	r1, r0
 1379              	.LVL185:
 346:..\..\..\arduinoLCD\test\Pain Drain\libraries\lvgl\src\misc/lv_fs.c **** 
 1380              		.loc 1 346 0
 1381 002c 2800     		movs	r0, r5
 1382              	.LVL186:
 1383 002e B847     		blx	r7
 1384              	.LVL187:
 348:..\..\..\arduinoLCD\test\Pain Drain\libraries\lvgl\src\misc/lv_fs.c ****         return LV_FS_RES_UNKNOWN;
 1385              		.loc 1 348 0
 1386 0030 431E     		subs	r3, r0, #1
 1387 0032 0333     		adds	r3, r3, #3
 1388 0034 0BD8     		bhi	.L106
 352:..\..\..\arduinoLCD\test\Pain Drain\libraries\lvgl\src\misc/lv_fs.c ****     rddir_p->dir_d = dir_d;
 1389              		.loc 1 352 0
ARM GAS  C:\Users\haske\AppData\Local\Temp\cc4gWNdf.s 			page 38


 1390 0036 7560     		str	r5, [r6, #4]
 353:..\..\..\arduinoLCD\test\Pain Drain\libraries\lvgl\src\misc/lv_fs.c **** 
 1391              		.loc 1 353 0
 1392 0038 3060     		str	r0, [r6]
 355:..\..\..\arduinoLCD\test\Pain Drain\libraries\lvgl\src\misc/lv_fs.c **** }
 1393              		.loc 1 355 0
 1394 003a 0020     		movs	r0, #0
 1395              	.LVL188:
 1396 003c 08E0     		b	.L100
 1397              	.LVL189:
 1398              	.L102:
 326:..\..\..\arduinoLCD\test\Pain Drain\libraries\lvgl\src\misc/lv_fs.c **** 
 1399              		.loc 1 326 0
 1400 003e 0B20     		movs	r0, #11
 1401              	.LVL190:
 1402 0040 06E0     		b	.L100
 1403              	.LVL191:
 1404              	.L103:
 332:..\..\..\arduinoLCD\test\Pain Drain\libraries\lvgl\src\misc/lv_fs.c ****     }
 1405              		.loc 1 332 0
 1406 0042 0320     		movs	r0, #3
 1407              	.LVL192:
 1408 0044 04E0     		b	.L100
 1409              	.L104:
 337:..\..\..\arduinoLCD\test\Pain Drain\libraries\lvgl\src\misc/lv_fs.c ****         }
 1410              		.loc 1 337 0
 1411 0046 0120     		movs	r0, #1
 1412 0048 02E0     		b	.L100
 1413              	.L105:
 342:..\..\..\arduinoLCD\test\Pain Drain\libraries\lvgl\src\misc/lv_fs.c ****     }
 1414              		.loc 1 342 0
 1415 004a 0920     		movs	r0, #9
 1416 004c 00E0     		b	.L100
 1417              	.LVL193:
 1418              	.L106:
 349:..\..\..\arduinoLCD\test\Pain Drain\libraries\lvgl\src\misc/lv_fs.c ****     }
 1419              		.loc 1 349 0
 1420 004e 0C20     		movs	r0, #12
 1421              	.LVL194:
 1422              	.L100:
 356:..\..\..\arduinoLCD\test\Pain Drain\libraries\lvgl\src\misc/lv_fs.c **** 
 1423              		.loc 1 356 0
 1424              		@ sp needed
 1425              	.LVL195:
 1426              	.LVL196:
 1427 0050 F8BD     		pop	{r3, r4, r5, r6, r7, pc}
 1428              		.cfi_endproc
 1429              	.LFE33:
 1430              		.size	lv_fs_dir_open, .-lv_fs_dir_open
 1431 0052 C046     		.section	.text.lv_fs_get_letters,"ax",%progbits
 1432              		.align	2
 1433              		.global	lv_fs_get_letters
 1434              		.code	16
 1435              		.thumb_func
 1436              		.type	lv_fs_get_letters, %function
 1437              	lv_fs_get_letters:
 1438              	.LFB39:
ARM GAS  C:\Users\haske\AppData\Local\Temp\cc4gWNdf.s 			page 39


 423:..\..\..\arduinoLCD\test\Pain Drain\libraries\lvgl\src\misc/lv_fs.c ****     lv_fs_drv_t ** drv;
 1439              		.loc 1 423 0
 1440              		.cfi_startproc
 1441              		@ args = 0, pretend = 0, frame = 0
 1442              		@ frame_needed = 0, uses_anonymous_args = 0
 1443              	.LVL197:
 1444 0000 70B5     		push	{r4, r5, r6, lr}
 1445              		.cfi_def_cfa_offset 16
 1446              		.cfi_offset 4, -16
 1447              		.cfi_offset 5, -12
 1448              		.cfi_offset 6, -8
 1449              		.cfi_offset 14, -4
 1450 0002 0500     		movs	r5, r0
 1451              	.LVL198:
 427:..\..\..\arduinoLCD\test\Pain Drain\libraries\lvgl\src\misc/lv_fs.c ****         buf[i] = (*drv)->letter;
 1452              		.loc 1 427 0
 1453 0004 0A48     		ldr	r0, .L110
 1454              	.LVL199:
 1455 0006 FFF7FEFF 		bl	_lv_ll_get_head
 1456              	.LVL200:
 425:..\..\..\arduinoLCD\test\Pain Drain\libraries\lvgl\src\misc/lv_fs.c **** 
 1457              		.loc 1 425 0
 1458 000a 0024     		movs	r4, #0
 427:..\..\..\arduinoLCD\test\Pain Drain\libraries\lvgl\src\misc/lv_fs.c ****         buf[i] = (*drv)->letter;
 1459              		.loc 1 427 0
 1460 000c 08E0     		b	.L108
 1461              	.LVL201:
 1462              	.L109:
 428:..\..\..\arduinoLCD\test\Pain Drain\libraries\lvgl\src\misc/lv_fs.c ****         i++;
 1463              		.loc 1 428 0 discriminator 3
 1464 000e 0368     		ldr	r3, [r0]
 1465 0010 1B78     		ldrb	r3, [r3]
 1466 0012 2B55     		strb	r3, [r5, r4]
 429:..\..\..\arduinoLCD\test\Pain Drain\libraries\lvgl\src\misc/lv_fs.c ****     }
 1467              		.loc 1 429 0 discriminator 3
 1468 0014 0134     		adds	r4, r4, #1
 1469              	.LVL202:
 1470 0016 E4B2     		uxtb	r4, r4
 1471              	.LVL203:
 427:..\..\..\arduinoLCD\test\Pain Drain\libraries\lvgl\src\misc/lv_fs.c ****         buf[i] = (*drv)->letter;
 1472              		.loc 1 427 0 discriminator 3
 1473 0018 0100     		movs	r1, r0
 1474 001a 0548     		ldr	r0, .L110
 1475              	.LVL204:
 1476 001c FFF7FEFF 		bl	_lv_ll_get_next
 1477              	.LVL205:
 1478              	.L108:
 427:..\..\..\arduinoLCD\test\Pain Drain\libraries\lvgl\src\misc/lv_fs.c ****         buf[i] = (*drv)->letter;
 1479              		.loc 1 427 0 is_stmt 0 discriminator 1
 1480 0020 0028     		cmp	r0, #0
 1481 0022 F4D1     		bne	.L109
 432:..\..\..\arduinoLCD\test\Pain Drain\libraries\lvgl\src\misc/lv_fs.c **** 
 1482              		.loc 1 432 0 is_stmt 1
 1483 0024 2C19     		adds	r4, r5, r4
 1484              	.LVL206:
 1485 0026 0023     		movs	r3, #0
 1486 0028 2370     		strb	r3, [r4]
ARM GAS  C:\Users\haske\AppData\Local\Temp\cc4gWNdf.s 			page 40


 435:..\..\..\arduinoLCD\test\Pain Drain\libraries\lvgl\src\misc/lv_fs.c **** 
 1487              		.loc 1 435 0
 1488 002a 2800     		movs	r0, r5
 1489              	.LVL207:
 1490              		@ sp needed
 1491              	.LVL208:
 1492 002c 70BD     		pop	{r4, r5, r6, pc}
 1493              	.L111:
 1494 002e C046     		.align	2
 1495              	.L110:
 1496 0030 00000000 		.word	_lv_fsdrv_ll
 1497              		.cfi_endproc
 1498              	.LFE39:
 1499              		.size	lv_fs_get_letters, .-lv_fs_get_letters
 1500              		.section	.text.lv_fs_get_ext,"ax",%progbits
 1501              		.align	2
 1502              		.global	lv_fs_get_ext
 1503              		.code	16
 1504              		.thumb_func
 1505              		.type	lv_fs_get_ext, %function
 1506              	lv_fs_get_ext:
 1507              	.LFB40:
 438:..\..\..\arduinoLCD\test\Pain Drain\libraries\lvgl\src\misc/lv_fs.c ****     size_t i;
 1508              		.loc 1 438 0
 1509              		.cfi_startproc
 1510              		@ args = 0, pretend = 0, frame = 0
 1511              		@ frame_needed = 0, uses_anonymous_args = 0
 1512              	.LVL209:
 1513 0000 10B5     		push	{r4, lr}
 1514              		.cfi_def_cfa_offset 8
 1515              		.cfi_offset 4, -8
 1516              		.cfi_offset 14, -4
 1517 0002 0400     		movs	r4, r0
 440:..\..\..\arduinoLCD\test\Pain Drain\libraries\lvgl\src\misc/lv_fs.c ****         if(fn[i] == '.') {
 1518              		.loc 1 440 0
 1519 0004 FFF7FEFF 		bl	strlen
 1520              	.LVL210:
 1521 0008 0AE0     		b	.L113
 1522              	.L116:
 441:..\..\..\arduinoLCD\test\Pain Drain\libraries\lvgl\src\misc/lv_fs.c ****             return &fn[i + 1];
 1523              		.loc 1 441 0
 1524 000a 235C     		ldrb	r3, [r4, r0]
 1525 000c 2E2B     		cmp	r3, #46
 1526 000e 02D1     		bne	.L114
 442:..\..\..\arduinoLCD\test\Pain Drain\libraries\lvgl\src\misc/lv_fs.c ****         }
 1527              		.loc 1 442 0
 1528 0010 0130     		adds	r0, r0, #1
 1529              	.LVL211:
 1530 0012 2018     		adds	r0, r4, r0
 1531              	.LVL212:
 1532 0014 0BE0     		b	.L115
 1533              	.LVL213:
 1534              	.L114:
 444:..\..\..\arduinoLCD\test\Pain Drain\libraries\lvgl\src\misc/lv_fs.c ****             return ""; /*No extension if a '\' or '/' found*/
 1535              		.loc 1 444 0
 1536 0016 2F2B     		cmp	r3, #47
 1537 0018 06D0     		beq	.L117
ARM GAS  C:\Users\haske\AppData\Local\Temp\cc4gWNdf.s 			page 41


 444:..\..\..\arduinoLCD\test\Pain Drain\libraries\lvgl\src\misc/lv_fs.c ****             return ""; /*No extension if a '\' or '/' found*/
 1538              		.loc 1 444 0 is_stmt 0 discriminator 1
 1539 001a 5C2B     		cmp	r3, #92
 1540 001c 06D0     		beq	.L118
 440:..\..\..\arduinoLCD\test\Pain Drain\libraries\lvgl\src\misc/lv_fs.c ****         if(fn[i] == '.') {
 1541              		.loc 1 440 0 is_stmt 1 discriminator 2
 1542 001e 0138     		subs	r0, r0, #1
 1543              	.LVL214:
 1544              	.L113:
 440:..\..\..\arduinoLCD\test\Pain Drain\libraries\lvgl\src\misc/lv_fs.c ****         if(fn[i] == '.') {
 1545              		.loc 1 440 0 is_stmt 0 discriminator 1
 1546 0020 0028     		cmp	r0, #0
 1547 0022 F2D1     		bne	.L116
 449:..\..\..\arduinoLCD\test\Pain Drain\libraries\lvgl\src\misc/lv_fs.c **** }
 1548              		.loc 1 449 0 is_stmt 1
 1549 0024 0248     		ldr	r0, .L119
 1550              	.LVL215:
 1551 0026 02E0     		b	.L115
 1552              	.LVL216:
 1553              	.L117:
 445:..\..\..\arduinoLCD\test\Pain Drain\libraries\lvgl\src\misc/lv_fs.c ****         }
 1554              		.loc 1 445 0
 1555 0028 0148     		ldr	r0, .L119
 1556              	.LVL217:
 1557 002a 00E0     		b	.L115
 1558              	.LVL218:
 1559              	.L118:
 1560 002c 0048     		ldr	r0, .L119
 1561              	.LVL219:
 1562              	.L115:
 450:..\..\..\arduinoLCD\test\Pain Drain\libraries\lvgl\src\misc/lv_fs.c **** 
 1563              		.loc 1 450 0
 1564              		@ sp needed
 1565              	.LVL220:
 1566 002e 10BD     		pop	{r4, pc}
 1567              	.L120:
 1568              		.align	2
 1569              	.L119:
 1570 0030 00000000 		.word	.LC4
 1571              		.cfi_endproc
 1572              	.LFE40:
 1573              		.size	lv_fs_get_ext, .-lv_fs_get_ext
 1574              		.section	.text.lv_fs_up,"ax",%progbits
 1575              		.align	2
 1576              		.global	lv_fs_up
 1577              		.code	16
 1578              		.thumb_func
 1579              		.type	lv_fs_up, %function
 1580              	lv_fs_up:
 1581              	.LFB41:
 453:..\..\..\arduinoLCD\test\Pain Drain\libraries\lvgl\src\misc/lv_fs.c ****     size_t len = strlen(path);
 1582              		.loc 1 453 0
 1583              		.cfi_startproc
 1584              		@ args = 0, pretend = 0, frame = 0
 1585              		@ frame_needed = 0, uses_anonymous_args = 0
 1586              	.LVL221:
 1587 0000 10B5     		push	{r4, lr}
ARM GAS  C:\Users\haske\AppData\Local\Temp\cc4gWNdf.s 			page 42


 1588              		.cfi_def_cfa_offset 8
 1589              		.cfi_offset 4, -8
 1590              		.cfi_offset 14, -4
 1591 0002 0400     		movs	r4, r0
 454:..\..\..\arduinoLCD\test\Pain Drain\libraries\lvgl\src\misc/lv_fs.c ****     if(len == 0) return path;
 1592              		.loc 1 454 0
 1593 0004 FFF7FEFF 		bl	strlen
 1594              	.LVL222:
 455:..\..\..\arduinoLCD\test\Pain Drain\libraries\lvgl\src\misc/lv_fs.c **** 
 1595              		.loc 1 455 0
 1596 0008 0028     		cmp	r0, #0
 1597 000a 1AD0     		beq	.L122
 457:..\..\..\arduinoLCD\test\Pain Drain\libraries\lvgl\src\misc/lv_fs.c **** 
 1598              		.loc 1 457 0
 1599 000c 0138     		subs	r0, r0, #1
 1600              	.LVL223:
 460:..\..\..\arduinoLCD\test\Pain Drain\libraries\lvgl\src\misc/lv_fs.c ****         path[len] = '\0';
 1601              		.loc 1 460 0
 1602 000e 04E0     		b	.L123
 1603              	.L124:
 461:..\..\..\arduinoLCD\test\Pain Drain\libraries\lvgl\src\misc/lv_fs.c ****         if(len > 0)
 1604              		.loc 1 461 0
 1605 0010 0022     		movs	r2, #0
 1606 0012 1A70     		strb	r2, [r3]
 462:..\..\..\arduinoLCD\test\Pain Drain\libraries\lvgl\src\misc/lv_fs.c ****             len--;
 1607              		.loc 1 462 0
 1608 0014 0028     		cmp	r0, #0
 1609 0016 14D0     		beq	.L122
 463:..\..\..\arduinoLCD\test\Pain Drain\libraries\lvgl\src\misc/lv_fs.c ****         else
 1610              		.loc 1 463 0
 1611 0018 0138     		subs	r0, r0, #1
 1612              	.LVL224:
 1613              	.L123:
 460:..\..\..\arduinoLCD\test\Pain Drain\libraries\lvgl\src\misc/lv_fs.c ****         path[len] = '\0';
 1614              		.loc 1 460 0
 1615 001a 2318     		adds	r3, r4, r0
 1616 001c 1A78     		ldrb	r2, [r3]
 1617 001e 2F2A     		cmp	r2, #47
 1618 0020 F6D0     		beq	.L124
 460:..\..\..\arduinoLCD\test\Pain Drain\libraries\lvgl\src\misc/lv_fs.c ****         path[len] = '\0';
 1619              		.loc 1 460 0 is_stmt 0 discriminator 1
 1620 0022 5C2A     		cmp	r2, #92
 1621 0024 F4D0     		beq	.L124
 1622 0026 05E0     		b	.L125
 1623              	.LVL225:
 1624              	.L127:
 470:..\..\..\arduinoLCD\test\Pain Drain\libraries\lvgl\src\misc/lv_fs.c ****     }
 1625              		.loc 1 470 0 is_stmt 1
 1626 0028 235C     		ldrb	r3, [r4, r0]
 1627 002a 2F2B     		cmp	r3, #47
 1628 002c 04D0     		beq	.L126
 470:..\..\..\arduinoLCD\test\Pain Drain\libraries\lvgl\src\misc/lv_fs.c ****     }
 1629              		.loc 1 470 0 is_stmt 0 discriminator 1
 1630 002e 5C2B     		cmp	r3, #92
 1631 0030 02D0     		beq	.L126
 469:..\..\..\arduinoLCD\test\Pain Drain\libraries\lvgl\src\misc/lv_fs.c ****         if(path[i] == '/' || path[i] == '\\') break;
 1632              		.loc 1 469 0 is_stmt 1 discriminator 2
ARM GAS  C:\Users\haske\AppData\Local\Temp\cc4gWNdf.s 			page 43


 1633 0032 0138     		subs	r0, r0, #1
 1634              	.LVL226:
 1635              	.L125:
 469:..\..\..\arduinoLCD\test\Pain Drain\libraries\lvgl\src\misc/lv_fs.c ****         if(path[i] == '/' || path[i] == '\\') break;
 1636              		.loc 1 469 0 is_stmt 0 discriminator 1
 1637 0034 0028     		cmp	r0, #0
 1638 0036 F7D1     		bne	.L127
 1639              	.L126:
 473:..\..\..\arduinoLCD\test\Pain Drain\libraries\lvgl\src\misc/lv_fs.c **** 
 1640              		.loc 1 473 0 is_stmt 1
 1641 0038 0028     		cmp	r0, #0
 1642 003a 02D0     		beq	.L122
 473:..\..\..\arduinoLCD\test\Pain Drain\libraries\lvgl\src\misc/lv_fs.c **** 
 1643              		.loc 1 473 0 is_stmt 0 discriminator 1
 1644 003c 2018     		adds	r0, r4, r0
 1645              	.LVL227:
 1646 003e 0023     		movs	r3, #0
 1647 0040 0370     		strb	r3, [r0]
 1648              	.L122:
 476:..\..\..\arduinoLCD\test\Pain Drain\libraries\lvgl\src\misc/lv_fs.c **** 
 1649              		.loc 1 476 0 is_stmt 1
 1650 0042 2000     		movs	r0, r4
 1651              		@ sp needed
 1652              	.LVL228:
 1653 0044 10BD     		pop	{r4, pc}
 1654              		.cfi_endproc
 1655              	.LFE41:
 1656              		.size	lv_fs_up, .-lv_fs_up
 1657 0046 C046     		.section	.text.lv_fs_get_last,"ax",%progbits
 1658              		.align	2
 1659              		.global	lv_fs_get_last
 1660              		.code	16
 1661              		.thumb_func
 1662              		.type	lv_fs_get_last, %function
 1663              	lv_fs_get_last:
 1664              	.LFB42:
 479:..\..\..\arduinoLCD\test\Pain Drain\libraries\lvgl\src\misc/lv_fs.c ****     size_t len = strlen(path);
 1665              		.loc 1 479 0
 1666              		.cfi_startproc
 1667              		@ args = 0, pretend = 0, frame = 0
 1668              		@ frame_needed = 0, uses_anonymous_args = 0
 1669              	.LVL229:
 1670 0000 10B5     		push	{r4, lr}
 1671              		.cfi_def_cfa_offset 8
 1672              		.cfi_offset 4, -8
 1673              		.cfi_offset 14, -4
 1674 0002 0400     		movs	r4, r0
 480:..\..\..\arduinoLCD\test\Pain Drain\libraries\lvgl\src\misc/lv_fs.c ****     if(len == 0) return path;
 1675              		.loc 1 480 0
 1676 0004 FFF7FEFF 		bl	strlen
 1677              	.LVL230:
 481:..\..\..\arduinoLCD\test\Pain Drain\libraries\lvgl\src\misc/lv_fs.c **** 
 1678              		.loc 1 481 0
 1679 0008 0028     		cmp	r0, #0
 1680 000a 17D0     		beq	.L135
 483:..\..\..\arduinoLCD\test\Pain Drain\libraries\lvgl\src\misc/lv_fs.c **** 
 1681              		.loc 1 483 0
ARM GAS  C:\Users\haske\AppData\Local\Temp\cc4gWNdf.s 			page 44


 1682 000c 0138     		subs	r0, r0, #1
 1683              	.LVL231:
 486:..\..\..\arduinoLCD\test\Pain Drain\libraries\lvgl\src\misc/lv_fs.c ****         if(len > 0)
 1684              		.loc 1 486 0
 1685 000e 02E0     		b	.L130
 1686              	.L131:
 487:..\..\..\arduinoLCD\test\Pain Drain\libraries\lvgl\src\misc/lv_fs.c ****             len--;
 1687              		.loc 1 487 0
 1688 0010 0028     		cmp	r0, #0
 1689 0012 15D0     		beq	.L136
 488:..\..\..\arduinoLCD\test\Pain Drain\libraries\lvgl\src\misc/lv_fs.c ****         else
 1690              		.loc 1 488 0
 1691 0014 0138     		subs	r0, r0, #1
 1692              	.LVL232:
 1693              	.L130:
 486:..\..\..\arduinoLCD\test\Pain Drain\libraries\lvgl\src\misc/lv_fs.c ****         if(len > 0)
 1694              		.loc 1 486 0
 1695 0016 235C     		ldrb	r3, [r4, r0]
 1696 0018 2F2B     		cmp	r3, #47
 1697 001a F9D0     		beq	.L131
 486:..\..\..\arduinoLCD\test\Pain Drain\libraries\lvgl\src\misc/lv_fs.c ****         if(len > 0)
 1698              		.loc 1 486 0 is_stmt 0 discriminator 1
 1699 001c 5C2B     		cmp	r3, #92
 1700 001e F7D0     		beq	.L131
 1701 0020 05E0     		b	.L132
 1702              	.LVL233:
 1703              	.L134:
 495:..\..\..\arduinoLCD\test\Pain Drain\libraries\lvgl\src\misc/lv_fs.c ****     }
 1704              		.loc 1 495 0 is_stmt 1
 1705 0022 235C     		ldrb	r3, [r4, r0]
 1706 0024 2F2B     		cmp	r3, #47
 1707 0026 04D0     		beq	.L133
 495:..\..\..\arduinoLCD\test\Pain Drain\libraries\lvgl\src\misc/lv_fs.c ****     }
 1708              		.loc 1 495 0 is_stmt 0 discriminator 1
 1709 0028 5C2B     		cmp	r3, #92
 1710 002a 02D0     		beq	.L133
 494:..\..\..\arduinoLCD\test\Pain Drain\libraries\lvgl\src\misc/lv_fs.c ****         if(path[i] == '/' || path[i] == '\\') break;
 1711              		.loc 1 494 0 is_stmt 1 discriminator 2
 1712 002c 0138     		subs	r0, r0, #1
 1713              	.LVL234:
 1714              	.L132:
 494:..\..\..\arduinoLCD\test\Pain Drain\libraries\lvgl\src\misc/lv_fs.c ****         if(path[i] == '/' || path[i] == '\\') break;
 1715              		.loc 1 494 0 is_stmt 0 discriminator 1
 1716 002e 0028     		cmp	r0, #0
 1717 0030 F7D1     		bne	.L134
 1718              	.L133:
 499:..\..\..\arduinoLCD\test\Pain Drain\libraries\lvgl\src\misc/lv_fs.c **** 
 1719              		.loc 1 499 0 is_stmt 1
 1720 0032 0028     		cmp	r0, #0
 1721 0034 06D0     		beq	.L137
 501:..\..\..\arduinoLCD\test\Pain Drain\libraries\lvgl\src\misc/lv_fs.c **** }
 1722              		.loc 1 501 0
 1723 0036 0130     		adds	r0, r0, #1
 1724              	.LVL235:
 1725 0038 2018     		adds	r0, r4, r0
 1726              	.LVL236:
 1727 003a 04E0     		b	.L129
ARM GAS  C:\Users\haske\AppData\Local\Temp\cc4gWNdf.s 			page 45


 1728              	.LVL237:
 1729              	.L135:
 481:..\..\..\arduinoLCD\test\Pain Drain\libraries\lvgl\src\misc/lv_fs.c **** 
 1730              		.loc 1 481 0
 1731 003c 2000     		movs	r0, r4
 1732              	.LVL238:
 1733 003e 02E0     		b	.L129
 1734              	.LVL239:
 1735              	.L136:
 490:..\..\..\arduinoLCD\test\Pain Drain\libraries\lvgl\src\misc/lv_fs.c ****     }
 1736              		.loc 1 490 0
 1737 0040 2000     		movs	r0, r4
 1738              	.LVL240:
 1739 0042 00E0     		b	.L129
 1740              	.LVL241:
 1741              	.L137:
 499:..\..\..\arduinoLCD\test\Pain Drain\libraries\lvgl\src\misc/lv_fs.c **** 
 1742              		.loc 1 499 0
 1743 0044 2000     		movs	r0, r4
 1744              	.LVL242:
 1745              	.L129:
 502:..\..\..\arduinoLCD\test\Pain Drain\libraries\lvgl\src\misc/lv_fs.c **** /**********************
 1746              		.loc 1 502 0
 1747              		@ sp needed
 1748              	.LVL243:
 1749 0046 10BD     		pop	{r4, pc}
 1750              		.cfi_endproc
 1751              	.LFE42:
 1752              		.size	lv_fs_get_last, .-lv_fs_get_last
 1753              		.section	.rodata.str1.4,"aMS",%progbits,1
 1754              		.align	2
 1755              	.LC4:
 1756 0000 00       		.ascii	"\000"
 1757              		.text
 1758              	.Letext0:
 1759              		.file 2 "c:\\program files (x86)\\cypress\\psoc creator\\4.4\\psoc creator\\import\\gnu\\arm\\5.4.
 1760              		.file 3 "c:\\program files (x86)\\cypress\\psoc creator\\4.4\\psoc creator\\import\\gnu\\arm\\5.4.
 1761              		.file 4 "..\\..\\..\\arduinoLCD\\test\\Pain Drain\\libraries\\lvgl\\src\\misc\\lv_fs.h"
 1762              		.file 5 "c:\\program files (x86)\\cypress\\psoc creator\\4.4\\psoc creator\\import\\gnu\\arm\\5.4.
 1763              		.file 6 "..\\..\\..\\arduinoLCD\\test\\Pain Drain\\libraries\\lvgl\\src\\misc\\lv_ll.h"
 1764              		.file 7 "..\\..\\..\\arduinoLCD\\test\\Pain Drain\\libraries\\lvgl\\src\\misc\\../misc/lv_mem.h"
 1765              		.file 8 "c:\\program files (x86)\\cypress\\psoc creator\\4.4\\psoc creator\\import\\gnu\\arm\\5.4.
 1766              		.file 9 "..\\..\\..\\arduinoLCD\\test\\Pain Drain\\libraries\\lvgl\\src\\misc\\lv_gc.h"
 1767              		.section	.debug_info,"",%progbits
 1768              	.Ldebug_info0:
 1769 0000 900E0000 		.4byte	0xe90
 1770 0004 0400     		.2byte	0x4
 1771 0006 00000000 		.4byte	.Ldebug_abbrev0
 1772 000a 04       		.byte	0x4
 1773 000b 01       		.uleb128 0x1
 1774 000c 36010000 		.4byte	.LASF112
 1775 0010 0C       		.byte	0xc
 1776 0011 F4040000 		.4byte	.LASF113
 1777 0015 60030000 		.4byte	.LASF114
 1778 0019 18000000 		.4byte	.Ldebug_ranges0+0x18
 1779 001d 00000000 		.4byte	0
 1780 0021 00000000 		.4byte	.Ldebug_line0
ARM GAS  C:\Users\haske\AppData\Local\Temp\cc4gWNdf.s 			page 46


 1781 0025 02       		.uleb128 0x2
 1782 0026 01       		.byte	0x1
 1783 0027 06       		.byte	0x6
 1784 0028 F6050000 		.4byte	.LASF0
 1785 002c 03       		.uleb128 0x3
 1786 002d E4040000 		.4byte	.LASF3
 1787 0031 02       		.byte	0x2
 1788 0032 1D       		.byte	0x1d
 1789 0033 37000000 		.4byte	0x37
 1790 0037 02       		.uleb128 0x2
 1791 0038 01       		.byte	0x1
 1792 0039 08       		.byte	0x8
 1793 003a 8D050000 		.4byte	.LASF1
 1794 003e 02       		.uleb128 0x2
 1795 003f 02       		.byte	0x2
 1796 0040 05       		.byte	0x5
 1797 0041 6F040000 		.4byte	.LASF2
 1798 0045 03       		.uleb128 0x3
 1799 0046 14020000 		.4byte	.LASF4
 1800 004a 02       		.byte	0x2
 1801 004b 2B       		.byte	0x2b
 1802 004c 50000000 		.4byte	0x50
 1803 0050 02       		.uleb128 0x2
 1804 0051 02       		.byte	0x2
 1805 0052 07       		.byte	0x7
 1806 0053 02060000 		.4byte	.LASF5
 1807 0057 02       		.uleb128 0x2
 1808 0058 04       		.byte	0x4
 1809 0059 05       		.byte	0x5
 1810 005a 79040000 		.4byte	.LASF6
 1811 005e 03       		.uleb128 0x3
 1812 005f 9B050000 		.4byte	.LASF7
 1813 0063 02       		.byte	0x2
 1814 0064 41       		.byte	0x41
 1815 0065 69000000 		.4byte	0x69
 1816 0069 02       		.uleb128 0x2
 1817 006a 04       		.byte	0x4
 1818 006b 07       		.byte	0x7
 1819 006c 41050000 		.4byte	.LASF8
 1820 0070 02       		.uleb128 0x2
 1821 0071 08       		.byte	0x8
 1822 0072 05       		.byte	0x5
 1823 0073 42030000 		.4byte	.LASF9
 1824 0077 02       		.uleb128 0x2
 1825 0078 08       		.byte	0x8
 1826 0079 07       		.byte	0x7
 1827 007a EA010000 		.4byte	.LASF10
 1828 007e 04       		.uleb128 0x4
 1829 007f 04       		.byte	0x4
 1830 0080 05       		.byte	0x5
 1831 0081 696E7400 		.ascii	"int\000"
 1832 0085 02       		.uleb128 0x2
 1833 0086 04       		.byte	0x4
 1834 0087 07       		.byte	0x7
 1835 0088 66000000 		.4byte	.LASF11
 1836 008c 03       		.uleb128 0x3
 1837 008d 18030000 		.4byte	.LASF12
ARM GAS  C:\Users\haske\AppData\Local\Temp\cc4gWNdf.s 			page 47


 1838 0091 03       		.byte	0x3
 1839 0092 18       		.byte	0x18
 1840 0093 2C000000 		.4byte	0x2c
 1841 0097 03       		.uleb128 0x3
 1842 0098 33040000 		.4byte	.LASF13
 1843 009c 03       		.byte	0x3
 1844 009d 24       		.byte	0x24
 1845 009e 45000000 		.4byte	0x45
 1846 00a2 03       		.uleb128 0x3
 1847 00a3 23010000 		.4byte	.LASF14
 1848 00a7 03       		.byte	0x3
 1849 00a8 30       		.byte	0x30
 1850 00a9 5E000000 		.4byte	0x5e
 1851 00ad 05       		.uleb128 0x5
 1852 00ae 01       		.byte	0x1
 1853 00af 37000000 		.4byte	0x37
 1854 00b3 04       		.byte	0x4
 1855 00b4 22       		.byte	0x22
 1856 00b5 08010000 		.4byte	0x108
 1857 00b9 06       		.uleb128 0x6
 1858 00ba 8D000000 		.4byte	.LASF15
 1859 00be 00       		.byte	0
 1860 00bf 06       		.uleb128 0x6
 1861 00c0 A6050000 		.4byte	.LASF16
 1862 00c4 01       		.byte	0x1
 1863 00c5 06       		.uleb128 0x6
 1864 00c6 64060000 		.4byte	.LASF17
 1865 00ca 02       		.byte	0x2
 1866 00cb 06       		.uleb128 0x6
 1867 00cc C9020000 		.4byte	.LASF18
 1868 00d0 03       		.byte	0x3
 1869 00d1 06       		.uleb128 0x6
 1870 00d2 1F020000 		.4byte	.LASF19
 1871 00d6 04       		.byte	0x4
 1872 00d7 06       		.uleb128 0x6
 1873 00d8 98020000 		.4byte	.LASF20
 1874 00dc 05       		.byte	0x5
 1875 00dd 06       		.uleb128 0x6
 1876 00de D8030000 		.4byte	.LASF21
 1877 00e2 06       		.byte	0x6
 1878 00e3 06       		.uleb128 0x6
 1879 00e4 09030000 		.4byte	.LASF22
 1880 00e8 07       		.byte	0x7
 1881 00e9 06       		.uleb128 0x6
 1882 00ea BB030000 		.4byte	.LASF23
 1883 00ee 08       		.byte	0x8
 1884 00ef 06       		.uleb128 0x6
 1885 00f0 18000000 		.4byte	.LASF24
 1886 00f4 09       		.byte	0x9
 1887 00f5 06       		.uleb128 0x6
 1888 00f6 51000000 		.4byte	.LASF25
 1889 00fa 0A       		.byte	0xa
 1890 00fb 06       		.uleb128 0x6
 1891 00fc CE010000 		.4byte	.LASF26
 1892 0100 0B       		.byte	0xb
 1893 0101 06       		.uleb128 0x6
 1894 0102 82040000 		.4byte	.LASF27
ARM GAS  C:\Users\haske\AppData\Local\Temp\cc4gWNdf.s 			page 48


 1895 0106 0C       		.byte	0xc
 1896 0107 00       		.byte	0
 1897 0108 03       		.uleb128 0x3
 1898 0109 2C030000 		.4byte	.LASF28
 1899 010d 04       		.byte	0x4
 1900 010e 31       		.byte	0x31
 1901 010f 8C000000 		.4byte	0x8c
 1902 0113 03       		.uleb128 0x3
 1903 0114 E9030000 		.4byte	.LASF29
 1904 0118 04       		.byte	0x4
 1905 0119 3A       		.byte	0x3a
 1906 011a 8C000000 		.4byte	0x8c
 1907 011e 05       		.uleb128 0x5
 1908 011f 01       		.byte	0x1
 1909 0120 37000000 		.4byte	0x37
 1910 0124 04       		.byte	0x4
 1911 0125 40       		.byte	0x40
 1912 0126 3D010000 		.4byte	0x13d
 1913 012a 06       		.uleb128 0x6
 1914 012b 43020000 		.4byte	.LASF30
 1915 012f 00       		.byte	0
 1916 0130 06       		.uleb128 0x6
 1917 0131 75060000 		.4byte	.LASF31
 1918 0135 01       		.byte	0x1
 1919 0136 06       		.uleb128 0x6
 1920 0137 52020000 		.4byte	.LASF32
 1921 013b 02       		.byte	0x2
 1922 013c 00       		.byte	0
 1923 013d 03       		.uleb128 0x3
 1924 013e DA020000 		.4byte	.LASF33
 1925 0142 04       		.byte	0x4
 1926 0143 44       		.byte	0x44
 1927 0144 1E010000 		.4byte	0x11e
 1928 0148 07       		.uleb128 0x7
 1929 0149 6A050000 		.4byte	.LASF115
 1930 014d 30       		.byte	0x30
 1931 014e 04       		.byte	0x4
 1932 014f 46       		.byte	0x46
 1933 0150 F1010000 		.4byte	0x1f1
 1934 0154 08       		.uleb128 0x8
 1935 0155 8B020000 		.4byte	.LASF34
 1936 0159 04       		.byte	0x4
 1937 015a 47       		.byte	0x47
 1938 015b F1010000 		.4byte	0x1f1
 1939 015f 00       		.byte	0
 1940 0160 08       		.uleb128 0x8
 1941 0161 F6030000 		.4byte	.LASF35
 1942 0165 04       		.byte	0x4
 1943 0166 48       		.byte	0x48
 1944 0167 97000000 		.4byte	0x97
 1945 016b 02       		.byte	0x2
 1946 016c 08       		.uleb128 0x8
 1947 016d 84000000 		.4byte	.LASF36
 1948 0171 04       		.byte	0x4
 1949 0172 49       		.byte	0x49
 1950 0173 14020000 		.4byte	0x214
 1951 0177 04       		.byte	0x4
ARM GAS  C:\Users\haske\AppData\Local\Temp\cc4gWNdf.s 			page 49


 1952 0178 08       		.uleb128 0x8
 1953 0179 A4040000 		.4byte	.LASF37
 1954 017d 04       		.byte	0x4
 1955 017e 4B       		.byte	0x4b
 1956 017f 40020000 		.4byte	0x240
 1957 0183 08       		.byte	0x8
 1958 0184 08       		.uleb128 0x8
 1959 0185 3A020000 		.4byte	.LASF38
 1960 0189 04       		.byte	0x4
 1961 018a 4C       		.byte	0x4c
 1962 018b 5A020000 		.4byte	0x25a
 1963 018f 0C       		.byte	0xc
 1964 0190 08       		.uleb128 0x8
 1965 0191 76020000 		.4byte	.LASF39
 1966 0195 04       		.byte	0x4
 1967 0196 4D       		.byte	0x4d
 1968 0197 89020000 		.4byte	0x289
 1969 019b 10       		.byte	0x10
 1970 019c 08       		.uleb128 0x8
 1971 019d C7050000 		.4byte	.LASF40
 1972 01a1 04       		.byte	0x4
 1973 01a2 4E       		.byte	0x4e
 1974 01a3 B9020000 		.4byte	0x2b9
 1975 01a7 14       		.byte	0x14
 1976 01a8 08       		.uleb128 0x8
 1977 01a9 B3030000 		.4byte	.LASF41
 1978 01ad 04       		.byte	0x4
 1979 01ae 4F       		.byte	0x4f
 1980 01af DD020000 		.4byte	0x2dd
 1981 01b3 18       		.byte	0x18
 1982 01b4 08       		.uleb128 0x8
 1983 01b5 E2010000 		.4byte	.LASF42
 1984 01b9 04       		.byte	0x4
 1985 01ba 50       		.byte	0x50
 1986 01bb FC020000 		.4byte	0x2fc
 1987 01bf 1C       		.byte	0x1c
 1988 01c0 08       		.uleb128 0x8
 1989 01c1 5E050000 		.4byte	.LASF43
 1990 01c5 04       		.byte	0x4
 1991 01c6 52       		.byte	0x52
 1992 01c7 16030000 		.4byte	0x316
 1993 01cb 20       		.byte	0x20
 1994 01cc 08       		.uleb128 0x8
 1995 01cd 99030000 		.4byte	.LASF44
 1996 01d1 04       		.byte	0x4
 1997 01d2 53       		.byte	0x53
 1998 01d3 3B030000 		.4byte	0x33b
 1999 01d7 24       		.byte	0x24
 2000 01d8 08       		.uleb128 0x8
 2001 01d9 04010000 		.4byte	.LASF45
 2002 01dd 04       		.byte	0x4
 2003 01de 54       		.byte	0x54
 2004 01df 5A020000 		.4byte	0x25a
 2005 01e3 28       		.byte	0x28
 2006 01e4 08       		.uleb128 0x8
 2007 01e5 38030000 		.4byte	.LASF46
 2008 01e9 04       		.byte	0x4
ARM GAS  C:\Users\haske\AppData\Local\Temp\cc4gWNdf.s 			page 50


 2009 01ea 57       		.byte	0x57
 2010 01eb 33020000 		.4byte	0x233
 2011 01ef 2C       		.byte	0x2c
 2012 01f0 00       		.byte	0
 2013 01f1 02       		.uleb128 0x2
 2014 01f2 01       		.byte	0x1
 2015 01f3 08       		.byte	0x8
 2016 01f4 F0020000 		.4byte	.LASF47
 2017 01f8 09       		.uleb128 0x9
 2018 01f9 07020000 		.4byte	0x207
 2019 01fd 07020000 		.4byte	0x207
 2020 0201 0A       		.uleb128 0xa
 2021 0202 0E020000 		.4byte	0x20e
 2022 0206 00       		.byte	0
 2023 0207 02       		.uleb128 0x2
 2024 0208 01       		.byte	0x1
 2025 0209 02       		.byte	0x2
 2026 020a 92020000 		.4byte	.LASF48
 2027 020e 0B       		.uleb128 0xb
 2028 020f 04       		.byte	0x4
 2029 0210 48010000 		.4byte	0x148
 2030 0214 0B       		.uleb128 0xb
 2031 0215 04       		.byte	0x4
 2032 0216 F8010000 		.4byte	0x1f8
 2033 021a 09       		.uleb128 0x9
 2034 021b 33020000 		.4byte	0x233
 2035 021f 33020000 		.4byte	0x233
 2036 0223 0A       		.uleb128 0xa
 2037 0224 0E020000 		.4byte	0x20e
 2038 0228 0A       		.uleb128 0xa
 2039 0229 35020000 		.4byte	0x235
 2040 022d 0A       		.uleb128 0xa
 2041 022e 13010000 		.4byte	0x113
 2042 0232 00       		.byte	0
 2043 0233 0C       		.uleb128 0xc
 2044 0234 04       		.byte	0x4
 2045 0235 0B       		.uleb128 0xb
 2046 0236 04       		.byte	0x4
 2047 0237 3B020000 		.4byte	0x23b
 2048 023b 0D       		.uleb128 0xd
 2049 023c F1010000 		.4byte	0x1f1
 2050 0240 0B       		.uleb128 0xb
 2051 0241 04       		.byte	0x4
 2052 0242 1A020000 		.4byte	0x21a
 2053 0246 09       		.uleb128 0x9
 2054 0247 08010000 		.4byte	0x108
 2055 024b 5A020000 		.4byte	0x25a
 2056 024f 0A       		.uleb128 0xa
 2057 0250 0E020000 		.4byte	0x20e
 2058 0254 0A       		.uleb128 0xa
 2059 0255 33020000 		.4byte	0x233
 2060 0259 00       		.byte	0
 2061 025a 0B       		.uleb128 0xb
 2062 025b 04       		.byte	0x4
 2063 025c 46020000 		.4byte	0x246
 2064 0260 09       		.uleb128 0x9
 2065 0261 08010000 		.4byte	0x108
ARM GAS  C:\Users\haske\AppData\Local\Temp\cc4gWNdf.s 			page 51


 2066 0265 83020000 		.4byte	0x283
 2067 0269 0A       		.uleb128 0xa
 2068 026a 0E020000 		.4byte	0x20e
 2069 026e 0A       		.uleb128 0xa
 2070 026f 33020000 		.4byte	0x233
 2071 0273 0A       		.uleb128 0xa
 2072 0274 33020000 		.4byte	0x233
 2073 0278 0A       		.uleb128 0xa
 2074 0279 A2000000 		.4byte	0xa2
 2075 027d 0A       		.uleb128 0xa
 2076 027e 83020000 		.4byte	0x283
 2077 0282 00       		.byte	0
 2078 0283 0B       		.uleb128 0xb
 2079 0284 04       		.byte	0x4
 2080 0285 A2000000 		.4byte	0xa2
 2081 0289 0B       		.uleb128 0xb
 2082 028a 04       		.byte	0x4
 2083 028b 60020000 		.4byte	0x260
 2084 028f 09       		.uleb128 0x9
 2085 0290 08010000 		.4byte	0x108
 2086 0294 B2020000 		.4byte	0x2b2
 2087 0298 0A       		.uleb128 0xa
 2088 0299 0E020000 		.4byte	0x20e
 2089 029d 0A       		.uleb128 0xa
 2090 029e 33020000 		.4byte	0x233
 2091 02a2 0A       		.uleb128 0xa
 2092 02a3 B2020000 		.4byte	0x2b2
 2093 02a7 0A       		.uleb128 0xa
 2094 02a8 A2000000 		.4byte	0xa2
 2095 02ac 0A       		.uleb128 0xa
 2096 02ad 83020000 		.4byte	0x283
 2097 02b1 00       		.byte	0
 2098 02b2 0B       		.uleb128 0xb
 2099 02b3 04       		.byte	0x4
 2100 02b4 B8020000 		.4byte	0x2b8
 2101 02b8 0E       		.uleb128 0xe
 2102 02b9 0B       		.uleb128 0xb
 2103 02ba 04       		.byte	0x4
 2104 02bb 8F020000 		.4byte	0x28f
 2105 02bf 09       		.uleb128 0x9
 2106 02c0 08010000 		.4byte	0x108
 2107 02c4 DD020000 		.4byte	0x2dd
 2108 02c8 0A       		.uleb128 0xa
 2109 02c9 0E020000 		.4byte	0x20e
 2110 02cd 0A       		.uleb128 0xa
 2111 02ce 33020000 		.4byte	0x233
 2112 02d2 0A       		.uleb128 0xa
 2113 02d3 A2000000 		.4byte	0xa2
 2114 02d7 0A       		.uleb128 0xa
 2115 02d8 3D010000 		.4byte	0x13d
 2116 02dc 00       		.byte	0
 2117 02dd 0B       		.uleb128 0xb
 2118 02de 04       		.byte	0x4
 2119 02df BF020000 		.4byte	0x2bf
 2120 02e3 09       		.uleb128 0x9
 2121 02e4 08010000 		.4byte	0x108
 2122 02e8 FC020000 		.4byte	0x2fc
ARM GAS  C:\Users\haske\AppData\Local\Temp\cc4gWNdf.s 			page 52


 2123 02ec 0A       		.uleb128 0xa
 2124 02ed 0E020000 		.4byte	0x20e
 2125 02f1 0A       		.uleb128 0xa
 2126 02f2 33020000 		.4byte	0x233
 2127 02f6 0A       		.uleb128 0xa
 2128 02f7 83020000 		.4byte	0x283
 2129 02fb 00       		.byte	0
 2130 02fc 0B       		.uleb128 0xb
 2131 02fd 04       		.byte	0x4
 2132 02fe E3020000 		.4byte	0x2e3
 2133 0302 09       		.uleb128 0x9
 2134 0303 33020000 		.4byte	0x233
 2135 0307 16030000 		.4byte	0x316
 2136 030b 0A       		.uleb128 0xa
 2137 030c 0E020000 		.4byte	0x20e
 2138 0310 0A       		.uleb128 0xa
 2139 0311 35020000 		.4byte	0x235
 2140 0315 00       		.byte	0
 2141 0316 0B       		.uleb128 0xb
 2142 0317 04       		.byte	0x4
 2143 0318 02030000 		.4byte	0x302
 2144 031c 09       		.uleb128 0x9
 2145 031d 08010000 		.4byte	0x108
 2146 0321 35030000 		.4byte	0x335
 2147 0325 0A       		.uleb128 0xa
 2148 0326 0E020000 		.4byte	0x20e
 2149 032a 0A       		.uleb128 0xa
 2150 032b 33020000 		.4byte	0x233
 2151 032f 0A       		.uleb128 0xa
 2152 0330 35030000 		.4byte	0x335
 2153 0334 00       		.byte	0
 2154 0335 0B       		.uleb128 0xb
 2155 0336 04       		.byte	0x4
 2156 0337 F1010000 		.4byte	0x1f1
 2157 033b 0B       		.uleb128 0xb
 2158 033c 04       		.byte	0x4
 2159 033d 1C030000 		.4byte	0x31c
 2160 0341 03       		.uleb128 0x3
 2161 0342 3E000000 		.4byte	.LASF49
 2162 0346 04       		.byte	0x4
 2163 0347 59       		.byte	0x59
 2164 0348 48010000 		.4byte	0x148
 2165 034c 0F       		.uleb128 0xf
 2166 034d 10       		.byte	0x10
 2167 034e 04       		.byte	0x4
 2168 034f 5B       		.byte	0x5b
 2169 0350 85030000 		.4byte	0x385
 2170 0354 08       		.uleb128 0x8
 2171 0355 EE040000 		.4byte	.LASF50
 2172 0359 04       		.byte	0x4
 2173 035a 5C       		.byte	0x5c
 2174 035b A2000000 		.4byte	0xa2
 2175 035f 00       		.byte	0
 2176 0360 10       		.uleb128 0x10
 2177 0361 656E6400 		.ascii	"end\000"
 2178 0365 04       		.byte	0x4
 2179 0366 5D       		.byte	0x5d
ARM GAS  C:\Users\haske\AppData\Local\Temp\cc4gWNdf.s 			page 53


 2180 0367 A2000000 		.4byte	0xa2
 2181 036b 04       		.byte	0x4
 2182 036c 08       		.uleb128 0x8
 2183 036d 61040000 		.4byte	.LASF51
 2184 0371 04       		.byte	0x4
 2185 0372 5E       		.byte	0x5e
 2186 0373 A2000000 		.4byte	0xa2
 2187 0377 08       		.byte	0x8
 2188 0378 08       		.uleb128 0x8
 2189 0379 4A000000 		.4byte	.LASF52
 2190 037d 04       		.byte	0x4
 2191 037e 5F       		.byte	0x5f
 2192 037f 33020000 		.4byte	0x233
 2193 0383 0C       		.byte	0xc
 2194 0384 00       		.byte	0
 2195 0385 03       		.uleb128 0x3
 2196 0386 01020000 		.4byte	.LASF53
 2197 038a 04       		.byte	0x4
 2198 038b 60       		.byte	0x60
 2199 038c 4C030000 		.4byte	0x34c
 2200 0390 0F       		.uleb128 0xf
 2201 0391 0C       		.byte	0xc
 2202 0392 04       		.byte	0x4
 2203 0393 62       		.byte	0x62
 2204 0394 BD030000 		.4byte	0x3bd
 2205 0398 08       		.uleb128 0x8
 2206 0399 A9020000 		.4byte	.LASF54
 2207 039d 04       		.byte	0x4
 2208 039e 63       		.byte	0x63
 2209 039f 33020000 		.4byte	0x233
 2210 03a3 00       		.byte	0
 2211 03a4 10       		.uleb128 0x10
 2212 03a5 64727600 		.ascii	"drv\000"
 2213 03a9 04       		.byte	0x4
 2214 03aa 64       		.byte	0x64
 2215 03ab BD030000 		.4byte	0x3bd
 2216 03af 04       		.byte	0x4
 2217 03b0 08       		.uleb128 0x8
 2218 03b1 01040000 		.4byte	.LASF55
 2219 03b5 04       		.byte	0x4
 2220 03b6 65       		.byte	0x65
 2221 03b7 C3030000 		.4byte	0x3c3
 2222 03bb 08       		.byte	0x8
 2223 03bc 00       		.byte	0
 2224 03bd 0B       		.uleb128 0xb
 2225 03be 04       		.byte	0x4
 2226 03bf 41030000 		.4byte	0x341
 2227 03c3 0B       		.uleb128 0xb
 2228 03c4 04       		.byte	0x4
 2229 03c5 85030000 		.4byte	0x385
 2230 03c9 03       		.uleb128 0x3
 2231 03ca 31000000 		.4byte	.LASF56
 2232 03ce 04       		.byte	0x4
 2233 03cf 66       		.byte	0x66
 2234 03d0 90030000 		.4byte	0x390
 2235 03d4 0F       		.uleb128 0xf
 2236 03d5 08       		.byte	0x8
ARM GAS  C:\Users\haske\AppData\Local\Temp\cc4gWNdf.s 			page 54


 2237 03d6 04       		.byte	0x4
 2238 03d7 68       		.byte	0x68
 2239 03d8 F5030000 		.4byte	0x3f5
 2240 03dc 08       		.uleb128 0x8
 2241 03dd C8010000 		.4byte	.LASF57
 2242 03e1 04       		.byte	0x4
 2243 03e2 69       		.byte	0x69
 2244 03e3 33020000 		.4byte	0x233
 2245 03e7 00       		.byte	0
 2246 03e8 10       		.uleb128 0x10
 2247 03e9 64727600 		.ascii	"drv\000"
 2248 03ed 04       		.byte	0x4
 2249 03ee 6A       		.byte	0x6a
 2250 03ef BD030000 		.4byte	0x3bd
 2251 03f3 04       		.byte	0x4
 2252 03f4 00       		.byte	0
 2253 03f5 03       		.uleb128 0x3
 2254 03f6 2E020000 		.4byte	.LASF58
 2255 03fa 04       		.byte	0x4
 2256 03fb 6B       		.byte	0x6b
 2257 03fc D4030000 		.4byte	0x3d4
 2258 0400 03       		.uleb128 0x3
 2259 0401 6F020000 		.4byte	.LASF59
 2260 0405 05       		.byte	0x5
 2261 0406 D8       		.byte	0xd8
 2262 0407 85000000 		.4byte	0x85
 2263 040b 02       		.uleb128 0x2
 2264 040c 08       		.byte	0x8
 2265 040d 04       		.byte	0x4
 2266 040e 27040000 		.4byte	.LASF60
 2267 0412 02       		.uleb128 0x2
 2268 0413 04       		.byte	0x4
 2269 0414 07       		.byte	0x7
 2270 0415 38050000 		.4byte	.LASF61
 2271 0419 03       		.uleb128 0x3
 2272 041a 7E020000 		.4byte	.LASF62
 2273 041e 06       		.byte	0x6
 2274 041f 1D       		.byte	0x1d
 2275 0420 8C000000 		.4byte	0x8c
 2276 0424 0F       		.uleb128 0xf
 2277 0425 0C       		.byte	0xc
 2278 0426 06       		.byte	0x6
 2279 0427 20       		.byte	0x20
 2280 0428 51040000 		.4byte	0x451
 2281 042c 08       		.uleb128 0x8
 2282 042d A9000000 		.4byte	.LASF63
 2283 0431 06       		.byte	0x6
 2284 0432 21       		.byte	0x21
 2285 0433 A2000000 		.4byte	0xa2
 2286 0437 00       		.byte	0
 2287 0438 08       		.uleb128 0x8
 2288 0439 7F000000 		.4byte	.LASF64
 2289 043d 06       		.byte	0x6
 2290 043e 22       		.byte	0x22
 2291 043f 51040000 		.4byte	0x451
 2292 0443 04       		.byte	0x4
 2293 0444 08       		.uleb128 0x8
ARM GAS  C:\Users\haske\AppData\Local\Temp\cc4gWNdf.s 			page 55


 2294 0445 B7050000 		.4byte	.LASF65
 2295 0449 06       		.byte	0x6
 2296 044a 23       		.byte	0x23
 2297 044b 51040000 		.4byte	0x451
 2298 044f 08       		.byte	0x8
 2299 0450 00       		.byte	0
 2300 0451 0B       		.uleb128 0xb
 2301 0452 04       		.byte	0x4
 2302 0453 19040000 		.4byte	0x419
 2303 0457 03       		.uleb128 0x3
 2304 0458 50030000 		.4byte	.LASF66
 2305 045c 06       		.byte	0x6
 2306 045d 24       		.byte	0x24
 2307 045e 24040000 		.4byte	0x424
 2308 0462 11       		.uleb128 0x11
 2309 0463 F5020000 		.4byte	.LASF67
 2310 0467 01       		.byte	0x1
 2311 0468 0002     		.2byte	0x200
 2312 046a 35020000 		.4byte	0x235
 2313 046e 00000000 		.4byte	.LFB43
 2314 0472 0E000000 		.4byte	.LFE43-.LFB43
 2315 0476 01       		.uleb128 0x1
 2316 0477 9C       		.byte	0x9c
 2317 0478 8D040000 		.4byte	0x48d
 2318 047c 12       		.uleb128 0x12
 2319 047d C4020000 		.4byte	.LASF69
 2320 0481 01       		.byte	0x1
 2321 0482 0002     		.2byte	0x200
 2322 0484 35020000 		.4byte	0x235
 2323 0488 00000000 		.4byte	.LLST0
 2324 048c 00       		.byte	0
 2325 048d 13       		.uleb128 0x13
 2326 048e 11010000 		.4byte	.LASF68
 2327 0492 01       		.byte	0x1
 2328 0493 84       		.byte	0x84
 2329 0494 08010000 		.4byte	0x108
 2330 0498 00000000 		.4byte	.LFB28
 2331 049c 4E010000 		.4byte	.LFE28-.LFB28
 2332 04a0 01       		.uleb128 0x1
 2333 04a1 9C       		.byte	0x9c
 2334 04a2 B0060000 		.4byte	0x6b0
 2335 04a6 14       		.uleb128 0x14
 2336 04a7 BD020000 		.4byte	.LASF70
 2337 04ab 01       		.byte	0x1
 2338 04ac 84       		.byte	0x84
 2339 04ad B0060000 		.4byte	0x6b0
 2340 04b1 1E000000 		.4byte	.LLST1
 2341 04b5 15       		.uleb128 0x15
 2342 04b6 62756600 		.ascii	"buf\000"
 2343 04ba 01       		.byte	0x1
 2344 04bb 84       		.byte	0x84
 2345 04bc 35030000 		.4byte	0x335
 2346 04c0 4A000000 		.4byte	.LLST2
 2347 04c4 15       		.uleb128 0x15
 2348 04c5 62747200 		.ascii	"btr\000"
 2349 04c9 01       		.byte	0x1
 2350 04ca 84       		.byte	0x84
ARM GAS  C:\Users\haske\AppData\Local\Temp\cc4gWNdf.s 			page 56


 2351 04cb A2000000 		.4byte	0xa2
 2352 04cf 69000000 		.4byte	.LLST3
 2353 04d3 15       		.uleb128 0x15
 2354 04d4 627200   		.ascii	"br\000"
 2355 04d7 01       		.byte	0x1
 2356 04d8 84       		.byte	0x84
 2357 04d9 83020000 		.4byte	0x283
 2358 04dd C4000000 		.4byte	.LLST4
 2359 04e1 16       		.uleb128 0x16
 2360 04e2 72657300 		.ascii	"res\000"
 2361 04e6 01       		.byte	0x1
 2362 04e7 86       		.byte	0x86
 2363 04e8 08010000 		.4byte	0x108
 2364 04ec F0000000 		.4byte	.LLST5
 2365 04f0 17       		.uleb128 0x17
 2366 04f1 61040000 		.4byte	.LASF51
 2367 04f5 01       		.byte	0x1
 2368 04f6 87       		.byte	0x87
 2369 04f7 A2000000 		.4byte	0xa2
 2370 04fb 6A010000 		.4byte	.LLST6
 2371 04ff 17       		.uleb128 0x17
 2372 0500 EE040000 		.4byte	.LASF50
 2373 0504 01       		.byte	0x1
 2374 0505 88       		.byte	0x88
 2375 0506 A2000000 		.4byte	0xa2
 2376 050a A6010000 		.4byte	.LLST7
 2377 050e 16       		.uleb128 0x16
 2378 050f 656E6400 		.ascii	"end\000"
 2379 0513 01       		.byte	0x1
 2380 0514 89       		.byte	0x89
 2381 0515 A2000000 		.4byte	0xa2
 2382 0519 02020000 		.4byte	.LLST8
 2383 051d 17       		.uleb128 0x17
 2384 051e 4A000000 		.4byte	.LASF52
 2385 0522 01       		.byte	0x1
 2386 0523 8A       		.byte	0x8a
 2387 0524 35030000 		.4byte	0x335
 2388 0528 54020000 		.4byte	.LLST9
 2389 052c 17       		.uleb128 0x17
 2390 052d 4C060000 		.4byte	.LASF71
 2391 0531 01       		.byte	0x1
 2392 0532 8B       		.byte	0x8b
 2393 0533 97000000 		.4byte	0x97
 2394 0537 93020000 		.4byte	.LLST10
 2395 053b 18       		.uleb128 0x18
 2396 053c 00000000 		.4byte	.Ldebug_ranges0+0
 2397 0540 2B060000 		.4byte	0x62b
 2398 0544 17       		.uleb128 0x17
 2399 0545 CA030000 		.4byte	.LASF72
 2400 0549 01       		.byte	0x1
 2401 054a 8F       		.byte	0x8f
 2402 054b 97000000 		.4byte	0x97
 2403 054f A6020000 		.4byte	.LLST11
 2404 0553 17       		.uleb128 0x17
 2405 0554 AC040000 		.4byte	.LASF73
 2406 0558 01       		.byte	0x1
 2407 0559 90       		.byte	0x90
ARM GAS  C:\Users\haske\AppData\Local\Temp\cc4gWNdf.s 			page 57


 2408 055a A2000000 		.4byte	0xa2
 2409 055e F0020000 		.4byte	.LLST12
 2410 0562 19       		.uleb128 0x19
 2411 0563 54000000 		.4byte	.LBB3
 2412 0567 72000000 		.4byte	.LBE3-.LBB3
 2413 056b 13060000 		.4byte	0x613
 2414 056f 1A       		.uleb128 0x1a
 2415 0570 EF000000 		.4byte	.LASF74
 2416 0574 01       		.byte	0x1
 2417 0575 9B       		.byte	0x9b
 2418 0576 A2000000 		.4byte	0xa2
 2419 057a 02       		.uleb128 0x2
 2420 057b 91       		.byte	0x91
 2421 057c 5C       		.sleb128 -36
 2422 057d 19       		.uleb128 0x19
 2423 057e 7C000000 		.4byte	.LBB4
 2424 0582 38000000 		.4byte	.LBE4-.LBB4
 2425 0586 D4050000 		.4byte	0x5d4
 2426 058a 17       		.uleb128 0x17
 2427 058b C4040000 		.4byte	.LASF75
 2428 058f 01       		.byte	0x1
 2429 0590 A7       		.byte	0xa7
 2430 0591 97000000 		.4byte	0x97
 2431 0595 03030000 		.4byte	.LLST13
 2432 0599 1B       		.uleb128 0x1b
 2433 059a 8C000000 		.4byte	.LVL27
 2434 059e 02       		.uleb128 0x2
 2435 059f 76       		.byte	0x76
 2436 05a0 00       		.sleb128 0
 2437 05a1 B9050000 		.4byte	0x5b9
 2438 05a5 1C       		.uleb128 0x1c
 2439 05a6 01       		.uleb128 0x1
 2440 05a7 52       		.byte	0x52
 2441 05a8 02       		.uleb128 0x2
 2442 05a9 78       		.byte	0x78
 2443 05aa 00       		.sleb128 0
 2444 05ab 1C       		.uleb128 0x1c
 2445 05ac 01       		.uleb128 0x1
 2446 05ad 53       		.byte	0x53
 2447 05ae 02       		.uleb128 0x2
 2448 05af 7A       		.byte	0x7a
 2449 05b0 00       		.sleb128 0
 2450 05b1 1C       		.uleb128 0x1c
 2451 05b2 02       		.uleb128 0x2
 2452 05b3 7D       		.byte	0x7d
 2453 05b4 00       		.sleb128 0
 2454 05b5 02       		.uleb128 0x2
 2455 05b6 91       		.byte	0x91
 2456 05b7 5C       		.sleb128 -36
 2457 05b8 00       		.byte	0
 2458 05b9 1D       		.uleb128 0x1d
 2459 05ba B4000000 		.4byte	.LVL32
 2460 05be 300E0000 		.4byte	0xe30
 2461 05c2 1C       		.uleb128 0x1c
 2462 05c3 01       		.uleb128 0x1
 2463 05c4 50       		.byte	0x50
 2464 05c5 06       		.uleb128 0x6
ARM GAS  C:\Users\haske\AppData\Local\Temp\cc4gWNdf.s 			page 58


 2465 05c6 91       		.byte	0x91
 2466 05c7 54       		.sleb128 -44
 2467 05c8 06       		.byte	0x6
 2468 05c9 77       		.byte	0x77
 2469 05ca 00       		.sleb128 0
 2470 05cb 22       		.byte	0x22
 2471 05cc 1C       		.uleb128 0x1c
 2472 05cd 01       		.uleb128 0x1
 2473 05ce 51       		.byte	0x51
 2474 05cf 02       		.uleb128 0x2
 2475 05d0 78       		.byte	0x78
 2476 05d1 00       		.sleb128 0
 2477 05d2 00       		.byte	0
 2478 05d3 00       		.byte	0
 2479 05d4 1E       		.uleb128 0x1e
 2480 05d5 5E000000 		.4byte	.LVL23
 2481 05d9 300E0000 		.4byte	0xe30
 2482 05dd EF050000 		.4byte	0x5ef
 2483 05e1 1C       		.uleb128 0x1c
 2484 05e2 01       		.uleb128 0x1
 2485 05e3 50       		.byte	0x50
 2486 05e4 03       		.uleb128 0x3
 2487 05e5 91       		.byte	0x91
 2488 05e6 54       		.sleb128 -44
 2489 05e7 06       		.byte	0x6
 2490 05e8 1C       		.uleb128 0x1c
 2491 05e9 01       		.uleb128 0x1
 2492 05ea 52       		.byte	0x52
 2493 05eb 02       		.uleb128 0x2
 2494 05ec 77       		.byte	0x77
 2495 05ed 00       		.sleb128 0
 2496 05ee 00       		.byte	0
 2497 05ef 1F       		.uleb128 0x1f
 2498 05f0 78000000 		.4byte	.LVL24
 2499 05f4 02       		.uleb128 0x2
 2500 05f5 76       		.byte	0x76
 2501 05f6 00       		.sleb128 0
 2502 05f7 1C       		.uleb128 0x1c
 2503 05f8 01       		.uleb128 0x1
 2504 05f9 52       		.byte	0x52
 2505 05fa 06       		.uleb128 0x6
 2506 05fb 91       		.byte	0x91
 2507 05fc 54       		.sleb128 -44
 2508 05fd 06       		.byte	0x6
 2509 05fe 77       		.byte	0x77
 2510 05ff 00       		.sleb128 0
 2511 0600 22       		.byte	0x22
 2512 0601 1C       		.uleb128 0x1c
 2513 0602 01       		.uleb128 0x1
 2514 0603 53       		.byte	0x53
 2515 0604 05       		.uleb128 0x5
 2516 0605 75       		.byte	0x75
 2517 0606 00       		.sleb128 0
 2518 0607 77       		.byte	0x77
 2519 0608 00       		.sleb128 0
 2520 0609 1C       		.byte	0x1c
 2521 060a 1C       		.uleb128 0x1c
ARM GAS  C:\Users\haske\AppData\Local\Temp\cc4gWNdf.s 			page 59


 2522 060b 02       		.uleb128 0x2
 2523 060c 7D       		.byte	0x7d
 2524 060d 00       		.sleb128 0
 2525 060e 02       		.uleb128 0x2
 2526 060f 91       		.byte	0x91
 2527 0610 5C       		.sleb128 -36
 2528 0611 00       		.byte	0
 2529 0612 00       		.byte	0
 2530 0613 1D       		.uleb128 0x1d
 2531 0614 4C000000 		.4byte	.LVL19
 2532 0618 300E0000 		.4byte	0xe30
 2533 061c 1C       		.uleb128 0x1c
 2534 061d 01       		.uleb128 0x1
 2535 061e 50       		.byte	0x50
 2536 061f 03       		.uleb128 0x3
 2537 0620 91       		.byte	0x91
 2538 0621 54       		.sleb128 -44
 2539 0622 06       		.byte	0x6
 2540 0623 1C       		.uleb128 0x1c
 2541 0624 01       		.uleb128 0x1
 2542 0625 52       		.byte	0x52
 2543 0626 02       		.uleb128 0x2
 2544 0627 75       		.byte	0x75
 2545 0628 00       		.sleb128 0
 2546 0629 00       		.byte	0
 2547 062a 00       		.byte	0
 2548 062b 19       		.uleb128 0x19
 2549 062c DC000000 		.4byte	.LBB6
 2550 0630 52000000 		.4byte	.LBE6-.LBB6
 2551 0634 92060000 		.4byte	0x692
 2552 0638 1A       		.uleb128 0x1a
 2553 0639 EF000000 		.4byte	.LASF74
 2554 063d 01       		.byte	0x1
 2555 063e BB       		.byte	0xbb
 2556 063f A2000000 		.4byte	0xa2
 2557 0643 02       		.uleb128 0x2
 2558 0644 91       		.byte	0x91
 2559 0645 5C       		.sleb128 -36
 2560 0646 1E       		.uleb128 0x1e
 2561 0647 E8000000 		.4byte	.LVL44
 2562 064b 3B0E0000 		.4byte	0xe3b
 2563 064f 5A060000 		.4byte	0x65a
 2564 0653 1C       		.uleb128 0x1c
 2565 0654 01       		.uleb128 0x1
 2566 0655 50       		.byte	0x50
 2567 0656 02       		.uleb128 0x2
 2568 0657 7A       		.byte	0x7a
 2569 0658 00       		.sleb128 0
 2570 0659 00       		.byte	0
 2571 065a 1B       		.uleb128 0x1b
 2572 065b 0A010000 		.4byte	.LVL47
 2573 065f 02       		.uleb128 0x2
 2574 0660 76       		.byte	0x76
 2575 0661 00       		.sleb128 0
 2576 0662 7A060000 		.4byte	0x67a
 2577 0666 1C       		.uleb128 0x1c
 2578 0667 01       		.uleb128 0x1
ARM GAS  C:\Users\haske\AppData\Local\Temp\cc4gWNdf.s 			page 60


 2579 0668 52       		.byte	0x52
 2580 0669 02       		.uleb128 0x2
 2581 066a 78       		.byte	0x78
 2582 066b 00       		.sleb128 0
 2583 066c 1C       		.uleb128 0x1c
 2584 066d 01       		.uleb128 0x1
 2585 066e 53       		.byte	0x53
 2586 066f 02       		.uleb128 0x2
 2587 0670 7A       		.byte	0x7a
 2588 0671 00       		.sleb128 0
 2589 0672 1C       		.uleb128 0x1c
 2590 0673 02       		.uleb128 0x2
 2591 0674 7D       		.byte	0x7d
 2592 0675 00       		.sleb128 0
 2593 0676 02       		.uleb128 0x2
 2594 0677 91       		.byte	0x91
 2595 0678 5C       		.sleb128 -36
 2596 0679 00       		.byte	0
 2597 067a 1D       		.uleb128 0x1d
 2598 067b 2E010000 		.4byte	.LVL52
 2599 067f 300E0000 		.4byte	0xe30
 2600 0683 1C       		.uleb128 0x1c
 2601 0684 01       		.uleb128 0x1
 2602 0685 50       		.byte	0x50
 2603 0686 03       		.uleb128 0x3
 2604 0687 91       		.byte	0x91
 2605 0688 54       		.sleb128 -44
 2606 0689 06       		.byte	0x6
 2607 068a 1C       		.uleb128 0x1c
 2608 068b 01       		.uleb128 0x1
 2609 068c 51       		.byte	0x51
 2610 068d 02       		.uleb128 0x2
 2611 068e 78       		.byte	0x78
 2612 068f 00       		.sleb128 0
 2613 0690 00       		.byte	0
 2614 0691 00       		.byte	0
 2615 0692 1F       		.uleb128 0x1f
 2616 0693 D8000000 		.4byte	.LVL39
 2617 0697 02       		.uleb128 0x2
 2618 0698 76       		.byte	0x76
 2619 0699 00       		.sleb128 0
 2620 069a 1C       		.uleb128 0x1c
 2621 069b 01       		.uleb128 0x1
 2622 069c 52       		.byte	0x52
 2623 069d 03       		.uleb128 0x3
 2624 069e 91       		.byte	0x91
 2625 069f 54       		.sleb128 -44
 2626 06a0 06       		.byte	0x6
 2627 06a1 1C       		.uleb128 0x1c
 2628 06a2 01       		.uleb128 0x1
 2629 06a3 53       		.byte	0x53
 2630 06a4 02       		.uleb128 0x2
 2631 06a5 75       		.byte	0x75
 2632 06a6 00       		.sleb128 0
 2633 06a7 1C       		.uleb128 0x1c
 2634 06a8 02       		.uleb128 0x2
 2635 06a9 7D       		.byte	0x7d
ARM GAS  C:\Users\haske\AppData\Local\Temp\cc4gWNdf.s 			page 61


 2636 06aa 00       		.sleb128 0
 2637 06ab 02       		.uleb128 0x2
 2638 06ac 79       		.byte	0x79
 2639 06ad 00       		.sleb128 0
 2640 06ae 00       		.byte	0
 2641 06af 00       		.byte	0
 2642 06b0 0B       		.uleb128 0xb
 2643 06b1 04       		.byte	0x4
 2644 06b2 C9030000 		.4byte	0x3c9
 2645 06b6 20       		.uleb128 0x20
 2646 06b7 58060000 		.4byte	.LASF88
 2647 06bb 01       		.byte	0x1
 2648 06bc 29       		.byte	0x29
 2649 06bd 00000000 		.4byte	.LFB24
 2650 06c1 10000000 		.4byte	.LFE24-.LFB24
 2651 06c5 01       		.uleb128 0x1
 2652 06c6 9C       		.byte	0x9c
 2653 06c7 DB060000 		.4byte	0x6db
 2654 06cb 1D       		.uleb128 0x1d
 2655 06cc 0A000000 		.4byte	.LVL58
 2656 06d0 460E0000 		.4byte	0xe46
 2657 06d4 1C       		.uleb128 0x1c
 2658 06d5 01       		.uleb128 0x1
 2659 06d6 51       		.byte	0x51
 2660 06d7 01       		.uleb128 0x1
 2661 06d8 34       		.byte	0x34
 2662 06d9 00       		.byte	0
 2663 06da 00       		.byte	0
 2664 06db 21       		.uleb128 0x21
 2665 06dc 20030000 		.4byte	.LASF76
 2666 06e0 01       		.byte	0x1
 2667 06e1 69       		.byte	0x69
 2668 06e2 08010000 		.4byte	0x108
 2669 06e6 00000000 		.4byte	.LFB27
 2670 06ea 48000000 		.4byte	.LFE27-.LFB27
 2671 06ee 01       		.uleb128 0x1
 2672 06ef 9C       		.byte	0x9c
 2673 06f0 25070000 		.4byte	0x725
 2674 06f4 14       		.uleb128 0x14
 2675 06f5 BD020000 		.4byte	.LASF70
 2676 06f9 01       		.byte	0x1
 2677 06fa 69       		.byte	0x69
 2678 06fb B0060000 		.4byte	0x6b0
 2679 06ff 16030000 		.4byte	.LLST14
 2680 0703 16       		.uleb128 0x16
 2681 0704 72657300 		.ascii	"res\000"
 2682 0708 01       		.byte	0x1
 2683 0709 73       		.byte	0x73
 2684 070a 08010000 		.4byte	0x108
 2685 070e 42030000 		.4byte	.LLST15
 2686 0712 22       		.uleb128 0x22
 2687 0713 2E000000 		.4byte	.LVL63
 2688 0717 510E0000 		.4byte	0xe51
 2689 071b 22       		.uleb128 0x22
 2690 071c 34000000 		.4byte	.LVL64
 2691 0720 510E0000 		.4byte	0xe51
 2692 0724 00       		.byte	0
ARM GAS  C:\Users\haske\AppData\Local\Temp\cc4gWNdf.s 			page 62


 2693 0725 23       		.uleb128 0x23
 2694 0726 BC050000 		.4byte	.LASF77
 2695 072a 01       		.byte	0x1
 2696 072b CD       		.byte	0xcd
 2697 072c 08010000 		.4byte	0x108
 2698 0730 00000000 		.4byte	.LFB29
 2699 0734 4E000000 		.4byte	.LFE29-.LFB29
 2700 0738 01       		.uleb128 0x1
 2701 0739 9C       		.byte	0x9c
 2702 073a D3070000 		.4byte	0x7d3
 2703 073e 14       		.uleb128 0x14
 2704 073f BD020000 		.4byte	.LASF70
 2705 0743 01       		.byte	0x1
 2706 0744 CD       		.byte	0xcd
 2707 0745 B0060000 		.4byte	0x6b0
 2708 0749 55030000 		.4byte	.LLST16
 2709 074d 15       		.uleb128 0x15
 2710 074e 62756600 		.ascii	"buf\000"
 2711 0752 01       		.byte	0x1
 2712 0753 CD       		.byte	0xcd
 2713 0754 33020000 		.4byte	0x233
 2714 0758 C1030000 		.4byte	.LLST17
 2715 075c 15       		.uleb128 0x15
 2716 075d 62747200 		.ascii	"btr\000"
 2717 0761 01       		.byte	0x1
 2718 0762 CD       		.byte	0xcd
 2719 0763 A2000000 		.4byte	0xa2
 2720 0767 1F040000 		.4byte	.LLST18
 2721 076b 15       		.uleb128 0x15
 2722 076c 627200   		.ascii	"br\000"
 2723 076f 01       		.byte	0x1
 2724 0770 CD       		.byte	0xcd
 2725 0771 83020000 		.4byte	0x283
 2726 0775 7D040000 		.4byte	.LLST19
 2727 0779 1A       		.uleb128 0x1a
 2728 077a B5000000 		.4byte	.LASF78
 2729 077e 01       		.byte	0x1
 2730 077f D3       		.byte	0xd3
 2731 0780 A2000000 		.4byte	0xa2
 2732 0784 02       		.uleb128 0x2
 2733 0785 91       		.byte	0x91
 2734 0786 6C       		.sleb128 -20
 2735 0787 16       		.uleb128 0x16
 2736 0788 72657300 		.ascii	"res\000"
 2737 078c 01       		.byte	0x1
 2738 078d D4       		.byte	0xd4
 2739 078e 08010000 		.4byte	0x108
 2740 0792 A9040000 		.4byte	.LLST20
 2741 0796 1E       		.uleb128 0x1e
 2742 0797 28000000 		.4byte	.LVL69
 2743 079b 8D040000 		.4byte	0x48d
 2744 079f B1070000 		.4byte	0x7b1
 2745 07a3 1C       		.uleb128 0x1c
 2746 07a4 01       		.uleb128 0x1
 2747 07a5 50       		.byte	0x50
 2748 07a6 03       		.uleb128 0x3
 2749 07a7 F3       		.byte	0xf3
ARM GAS  C:\Users\haske\AppData\Local\Temp\cc4gWNdf.s 			page 63


 2750 07a8 01       		.uleb128 0x1
 2751 07a9 50       		.byte	0x50
 2752 07aa 1C       		.uleb128 0x1c
 2753 07ab 01       		.uleb128 0x1
 2754 07ac 53       		.byte	0x53
 2755 07ad 02       		.uleb128 0x2
 2756 07ae 91       		.byte	0x91
 2757 07af 6C       		.sleb128 -20
 2758 07b0 00       		.byte	0
 2759 07b1 24       		.uleb128 0x24
 2760 07b2 3A000000 		.4byte	.LVL74
 2761 07b6 1C       		.uleb128 0x1c
 2762 07b7 01       		.uleb128 0x1
 2763 07b8 50       		.byte	0x50
 2764 07b9 02       		.uleb128 0x2
 2765 07ba 75       		.byte	0x75
 2766 07bb 00       		.sleb128 0
 2767 07bc 1C       		.uleb128 0x1c
 2768 07bd 01       		.uleb128 0x1
 2769 07be 52       		.byte	0x52
 2770 07bf 03       		.uleb128 0x3
 2771 07c0 F3       		.byte	0xf3
 2772 07c1 01       		.uleb128 0x1
 2773 07c2 51       		.byte	0x51
 2774 07c3 1C       		.uleb128 0x1c
 2775 07c4 01       		.uleb128 0x1
 2776 07c5 53       		.byte	0x53
 2777 07c6 03       		.uleb128 0x3
 2778 07c7 F3       		.byte	0xf3
 2779 07c8 01       		.uleb128 0x1
 2780 07c9 52       		.byte	0x52
 2781 07ca 1C       		.uleb128 0x1c
 2782 07cb 02       		.uleb128 0x2
 2783 07cc 7D       		.byte	0x7d
 2784 07cd 00       		.sleb128 0
 2785 07ce 02       		.uleb128 0x2
 2786 07cf 91       		.byte	0x91
 2787 07d0 6C       		.sleb128 -20
 2788 07d1 00       		.byte	0
 2789 07d2 00       		.byte	0
 2790 07d3 23       		.uleb128 0x23
 2791 07d4 3C040000 		.4byte	.LASF79
 2792 07d8 01       		.byte	0x1
 2793 07d9 E2       		.byte	0xe2
 2794 07da 08010000 		.4byte	0x108
 2795 07de 00000000 		.4byte	.LFB30
 2796 07e2 40000000 		.4byte	.LFE30-.LFB30
 2797 07e6 01       		.uleb128 0x1
 2798 07e7 9C       		.byte	0x9c
 2799 07e8 69080000 		.4byte	0x869
 2800 07ec 14       		.uleb128 0x14
 2801 07ed BD020000 		.4byte	.LASF70
 2802 07f1 01       		.byte	0x1
 2803 07f2 E2       		.byte	0xe2
 2804 07f3 B0060000 		.4byte	0x6b0
 2805 07f7 C7040000 		.4byte	.LLST21
 2806 07fb 15       		.uleb128 0x15
ARM GAS  C:\Users\haske\AppData\Local\Temp\cc4gWNdf.s 			page 64


 2807 07fc 62756600 		.ascii	"buf\000"
 2808 0800 01       		.byte	0x1
 2809 0801 E2       		.byte	0xe2
 2810 0802 B2020000 		.4byte	0x2b2
 2811 0806 1A050000 		.4byte	.LLST22
 2812 080a 15       		.uleb128 0x15
 2813 080b 62747700 		.ascii	"btw\000"
 2814 080f 01       		.byte	0x1
 2815 0810 E2       		.byte	0xe2
 2816 0811 A2000000 		.4byte	0xa2
 2817 0815 5F050000 		.4byte	.LLST23
 2818 0819 15       		.uleb128 0x15
 2819 081a 627700   		.ascii	"bw\000"
 2820 081d 01       		.byte	0x1
 2821 081e E2       		.byte	0xe2
 2822 081f 83020000 		.4byte	0x283
 2823 0823 A4050000 		.4byte	.LLST24
 2824 0827 1A       		.uleb128 0x1a
 2825 0828 E9020000 		.4byte	.LASF80
 2826 082c 01       		.byte	0x1
 2827 082d EE       		.byte	0xee
 2828 082e A2000000 		.4byte	0xa2
 2829 0832 02       		.uleb128 0x2
 2830 0833 91       		.byte	0x91
 2831 0834 6C       		.sleb128 -20
 2832 0835 16       		.uleb128 0x16
 2833 0836 72657300 		.ascii	"res\000"
 2834 083a 01       		.byte	0x1
 2835 083b EF       		.byte	0xef
 2836 083c 08010000 		.4byte	0x108
 2837 0840 D0050000 		.4byte	.LLST25
 2838 0844 1F       		.uleb128 0x1f
 2839 0845 2C000000 		.4byte	.LVL85
 2840 0849 02       		.uleb128 0x2
 2841 084a 76       		.byte	0x76
 2842 084b 00       		.sleb128 0
 2843 084c 1C       		.uleb128 0x1c
 2844 084d 01       		.uleb128 0x1
 2845 084e 50       		.byte	0x50
 2846 084f 02       		.uleb128 0x2
 2847 0850 75       		.byte	0x75
 2848 0851 00       		.sleb128 0
 2849 0852 1C       		.uleb128 0x1c
 2850 0853 01       		.uleb128 0x1
 2851 0854 52       		.byte	0x52
 2852 0855 03       		.uleb128 0x3
 2853 0856 F3       		.byte	0xf3
 2854 0857 01       		.uleb128 0x1
 2855 0858 51       		.byte	0x51
 2856 0859 1C       		.uleb128 0x1c
 2857 085a 01       		.uleb128 0x1
 2858 085b 53       		.byte	0x53
 2859 085c 03       		.uleb128 0x3
 2860 085d F3       		.byte	0xf3
 2861 085e 01       		.uleb128 0x1
 2862 085f 52       		.byte	0x52
 2863 0860 1C       		.uleb128 0x1c
ARM GAS  C:\Users\haske\AppData\Local\Temp\cc4gWNdf.s 			page 65


 2864 0861 02       		.uleb128 0x2
 2865 0862 7D       		.byte	0x7d
 2866 0863 00       		.sleb128 0
 2867 0864 02       		.uleb128 0x2
 2868 0865 91       		.byte	0x91
 2869 0866 6C       		.sleb128 -20
 2870 0867 00       		.byte	0
 2871 0868 00       		.byte	0
 2872 0869 23       		.uleb128 0x23
 2873 086a DF050000 		.4byte	.LASF81
 2874 086e 01       		.byte	0x1
 2875 086f F5       		.byte	0xf5
 2876 0870 08010000 		.4byte	0x108
 2877 0874 00000000 		.4byte	.LFB31
 2878 0878 B0000000 		.4byte	.LFE31-.LFB31
 2879 087c 01       		.uleb128 0x1
 2880 087d 9C       		.byte	0x9c
 2881 087e 30090000 		.4byte	0x930
 2882 0882 14       		.uleb128 0x14
 2883 0883 BD020000 		.4byte	.LASF70
 2884 0887 01       		.byte	0x1
 2885 0888 F5       		.byte	0xf5
 2886 0889 B0060000 		.4byte	0x6b0
 2887 088d E3050000 		.4byte	.LLST26
 2888 0891 15       		.uleb128 0x15
 2889 0892 706F7300 		.ascii	"pos\000"
 2890 0896 01       		.byte	0x1
 2891 0897 F5       		.byte	0xf5
 2892 0898 A2000000 		.4byte	0xa2
 2893 089c 28060000 		.4byte	.LLST27
 2894 08a0 14       		.uleb128 0x14
 2895 08a1 77050000 		.4byte	.LASF82
 2896 08a5 01       		.byte	0x1
 2897 08a6 F5       		.byte	0xf5
 2898 08a7 3D010000 		.4byte	0x13d
 2899 08ab C3060000 		.4byte	.LLST28
 2900 08af 16       		.uleb128 0x16
 2901 08b0 72657300 		.ascii	"res\000"
 2902 08b4 01       		.byte	0x1
 2903 08b5 FF       		.byte	0xff
 2904 08b6 08010000 		.4byte	0x108
 2905 08ba 48070000 		.4byte	.LLST29
 2906 08be 19       		.uleb128 0x19
 2907 08bf 78000000 		.4byte	.LBB7
 2908 08c3 16000000 		.4byte	.LBE7-.LBB7
 2909 08c7 E7080000 		.4byte	0x8e7
 2910 08cb 25       		.uleb128 0x25
 2911 08cc B0020000 		.4byte	.LASF83
 2912 08d0 01       		.byte	0x1
 2913 08d1 1A01     		.2byte	0x11a
 2914 08d3 A2000000 		.4byte	0xa2
 2915 08d7 02       		.uleb128 0x2
 2916 08d8 91       		.byte	0x91
 2917 08d9 6C       		.sleb128 -20
 2918 08da 24       		.uleb128 0x24
 2919 08db 82000000 		.4byte	.LVL106
 2920 08df 1C       		.uleb128 0x1c
ARM GAS  C:\Users\haske\AppData\Local\Temp\cc4gWNdf.s 			page 66


 2921 08e0 01       		.uleb128 0x1
 2922 08e1 52       		.byte	0x52
 2923 08e2 02       		.uleb128 0x2
 2924 08e3 91       		.byte	0x91
 2925 08e4 6C       		.sleb128 -20
 2926 08e5 00       		.byte	0
 2927 08e6 00       		.byte	0
 2928 08e7 1B       		.uleb128 0x1b
 2929 08e8 44000000 		.4byte	.LVL96
 2930 08ec 02       		.uleb128 0x2
 2931 08ed 75       		.byte	0x75
 2932 08ee 00       		.sleb128 0
 2933 08ef F9080000 		.4byte	0x8f9
 2934 08f3 1C       		.uleb128 0x1c
 2935 08f4 01       		.uleb128 0x1
 2936 08f5 53       		.byte	0x53
 2937 08f6 01       		.uleb128 0x1
 2938 08f7 30       		.byte	0x30
 2939 08f8 00       		.byte	0
 2940 08f9 1B       		.uleb128 0x1b
 2941 08fa 6A000000 		.4byte	.LVL100
 2942 08fe 02       		.uleb128 0x2
 2943 08ff 75       		.byte	0x75
 2944 0900 00       		.sleb128 0
 2945 0901 0B090000 		.4byte	0x90b
 2946 0905 1C       		.uleb128 0x1c
 2947 0906 01       		.uleb128 0x1
 2948 0907 53       		.byte	0x53
 2949 0908 01       		.uleb128 0x1
 2950 0909 30       		.byte	0x30
 2951 090a 00       		.byte	0
 2952 090b 26       		.uleb128 0x26
 2953 090c 74000000 		.4byte	.LVL104
 2954 0910 1C090000 		.4byte	0x91c
 2955 0914 1C       		.uleb128 0x1c
 2956 0915 01       		.uleb128 0x1
 2957 0916 52       		.byte	0x52
 2958 0917 03       		.uleb128 0x3
 2959 0918 F3       		.byte	0xf3
 2960 0919 01       		.uleb128 0x1
 2961 091a 51       		.byte	0x51
 2962 091b 00       		.byte	0
 2963 091c 24       		.uleb128 0x24
 2964 091d 98000000 		.4byte	.LVL111
 2965 0921 1C       		.uleb128 0x1c
 2966 0922 01       		.uleb128 0x1
 2967 0923 51       		.byte	0x51
 2968 0924 02       		.uleb128 0x2
 2969 0925 74       		.byte	0x74
 2970 0926 00       		.sleb128 0
 2971 0927 1C       		.uleb128 0x1c
 2972 0928 01       		.uleb128 0x1
 2973 0929 52       		.byte	0x52
 2974 092a 03       		.uleb128 0x3
 2975 092b F3       		.byte	0xf3
 2976 092c 01       		.uleb128 0x1
 2977 092d 51       		.byte	0x51
ARM GAS  C:\Users\haske\AppData\Local\Temp\cc4gWNdf.s 			page 67


 2978 092e 00       		.byte	0
 2979 092f 00       		.byte	0
 2980 0930 27       		.uleb128 0x27
 2981 0931 D9040000 		.4byte	.LASF84
 2982 0935 01       		.byte	0x1
 2983 0936 2C01     		.2byte	0x12c
 2984 0938 08010000 		.4byte	0x108
 2985 093c 00000000 		.4byte	.LFB32
 2986 0940 38000000 		.4byte	.LFE32-.LFB32
 2987 0944 01       		.uleb128 0x1
 2988 0945 9C       		.byte	0x9c
 2989 0946 88090000 		.4byte	0x988
 2990 094a 12       		.uleb128 0x12
 2991 094b BD020000 		.4byte	.LASF70
 2992 094f 01       		.byte	0x1
 2993 0950 2C01     		.2byte	0x12c
 2994 0952 B0060000 		.4byte	0x6b0
 2995 0956 C3070000 		.4byte	.LLST30
 2996 095a 28       		.uleb128 0x28
 2997 095b 706F7300 		.ascii	"pos\000"
 2998 095f 01       		.byte	0x1
 2999 0960 2C01     		.2byte	0x12c
 3000 0962 83020000 		.4byte	0x283
 3001 0966 2F080000 		.4byte	.LLST31
 3002 096a 29       		.uleb128 0x29
 3003 096b 72657300 		.ascii	"res\000"
 3004 096f 01       		.byte	0x1
 3005 0970 3801     		.2byte	0x138
 3006 0972 08010000 		.4byte	0x108
 3007 0976 5B080000 		.4byte	.LLST32
 3008 097a 24       		.uleb128 0x24
 3009 097b 36000000 		.4byte	.LVL126
 3010 097f 1C       		.uleb128 0x1c
 3011 0980 01       		.uleb128 0x1
 3012 0981 52       		.byte	0x52
 3013 0982 03       		.uleb128 0x3
 3014 0983 F3       		.byte	0xf3
 3015 0984 01       		.uleb128 0x1
 3016 0985 51       		.byte	0x51
 3017 0986 00       		.byte	0
 3018 0987 00       		.byte	0
 3019 0988 27       		.uleb128 0x27
 3020 0989 30060000 		.4byte	.LASF85
 3021 098d 01       		.byte	0x1
 3022 098e 6601     		.2byte	0x166
 3023 0990 08010000 		.4byte	0x108
 3024 0994 00000000 		.4byte	.LFB34
 3025 0998 2E000000 		.4byte	.LFE34-.LFB34
 3026 099c 01       		.uleb128 0x1
 3027 099d 9C       		.byte	0x9c
 3028 099e DB090000 		.4byte	0x9db
 3029 09a2 12       		.uleb128 0x12
 3030 09a3 28060000 		.4byte	.LASF86
 3031 09a7 01       		.byte	0x1
 3032 09a8 6601     		.2byte	0x166
 3033 09aa DB090000 		.4byte	0x9db
 3034 09ae 6F080000 		.4byte	.LLST33
ARM GAS  C:\Users\haske\AppData\Local\Temp\cc4gWNdf.s 			page 68


 3035 09b2 28       		.uleb128 0x28
 3036 09b3 666E00   		.ascii	"fn\000"
 3037 09b6 01       		.byte	0x1
 3038 09b7 6601     		.2byte	0x166
 3039 09b9 35030000 		.4byte	0x335
 3040 09bd 90080000 		.4byte	.LLST34
 3041 09c1 2A       		.uleb128 0x2a
 3042 09c2 72657300 		.ascii	"res\000"
 3043 09c6 01       		.byte	0x1
 3044 09c7 7201     		.2byte	0x172
 3045 09c9 08010000 		.4byte	0x108
 3046 09cd 24       		.uleb128 0x24
 3047 09ce 2C000000 		.4byte	.LVL130
 3048 09d2 1C       		.uleb128 0x1c
 3049 09d3 01       		.uleb128 0x1
 3050 09d4 52       		.byte	0x52
 3051 09d5 03       		.uleb128 0x3
 3052 09d6 F3       		.byte	0xf3
 3053 09d7 01       		.uleb128 0x1
 3054 09d8 51       		.byte	0x51
 3055 09d9 00       		.byte	0
 3056 09da 00       		.byte	0
 3057 09db 0B       		.uleb128 0xb
 3058 09dc 04       		.byte	0x4
 3059 09dd F5030000 		.4byte	0x3f5
 3060 09e1 2B       		.uleb128 0x2b
 3061 09e2 D2000000 		.4byte	.LASF87
 3062 09e6 01       		.byte	0x1
 3063 09e7 7701     		.2byte	0x177
 3064 09e9 08010000 		.4byte	0x108
 3065 09ed 00000000 		.4byte	.LFB35
 3066 09f1 2C000000 		.4byte	.LFE35-.LFB35
 3067 09f5 01       		.uleb128 0x1
 3068 09f6 9C       		.byte	0x9c
 3069 09f7 1C0A0000 		.4byte	0xa1c
 3070 09fb 12       		.uleb128 0x12
 3071 09fc 28060000 		.4byte	.LASF86
 3072 0a00 01       		.byte	0x1
 3073 0a01 7701     		.2byte	0x177
 3074 0a03 DB090000 		.4byte	0x9db
 3075 0a07 BC080000 		.4byte	.LLST35
 3076 0a0b 29       		.uleb128 0x29
 3077 0a0c 72657300 		.ascii	"res\000"
 3078 0a10 01       		.byte	0x1
 3079 0a11 8101     		.2byte	0x181
 3080 0a13 08010000 		.4byte	0x108
 3081 0a17 E8080000 		.4byte	.LLST36
 3082 0a1b 00       		.byte	0
 3083 0a1c 2C       		.uleb128 0x2c
 3084 0a1d 9A000000 		.4byte	.LASF89
 3085 0a21 01       		.byte	0x1
 3086 0a22 8901     		.2byte	0x189
 3087 0a24 00000000 		.4byte	.LFB36
 3088 0a28 0A000000 		.4byte	.LFE36-.LFB36
 3089 0a2c 01       		.uleb128 0x1
 3090 0a2d 9C       		.byte	0x9c
 3091 0a2e 5A0A0000 		.4byte	0xa5a
ARM GAS  C:\Users\haske\AppData\Local\Temp\cc4gWNdf.s 			page 69


 3092 0a32 28       		.uleb128 0x28
 3093 0a33 64727600 		.ascii	"drv\000"
 3094 0a37 01       		.byte	0x1
 3095 0a38 8901     		.2byte	0x189
 3096 0a3a BD030000 		.4byte	0x3bd
 3097 0a3e FB080000 		.4byte	.LLST37
 3098 0a42 1D       		.uleb128 0x1d
 3099 0a43 08000000 		.4byte	.LVL137
 3100 0a47 5C0E0000 		.4byte	0xe5c
 3101 0a4b 1C       		.uleb128 0x1c
 3102 0a4c 01       		.uleb128 0x1
 3103 0a4d 50       		.byte	0x50
 3104 0a4e 03       		.uleb128 0x3
 3105 0a4f F3       		.byte	0xf3
 3106 0a50 01       		.uleb128 0x1
 3107 0a51 50       		.byte	0x50
 3108 0a52 1C       		.uleb128 0x1c
 3109 0a53 01       		.uleb128 0x1
 3110 0a54 51       		.byte	0x51
 3111 0a55 02       		.uleb128 0x2
 3112 0a56 08       		.byte	0x8
 3113 0a57 30       		.byte	0x30
 3114 0a58 00       		.byte	0
 3115 0a59 00       		.byte	0
 3116 0a5a 2C       		.uleb128 0x2c
 3117 0a5b 15060000 		.4byte	.LASF90
 3118 0a5f 01       		.byte	0x1
 3119 0a60 8E01     		.2byte	0x18e
 3120 0a62 00000000 		.4byte	.LFB37
 3121 0a66 1C000000 		.4byte	.LFE37-.LFB37
 3122 0a6a 01       		.uleb128 0x1
 3123 0a6b 9C       		.byte	0x9c
 3124 0a6c 980A0000 		.4byte	0xa98
 3125 0a70 12       		.uleb128 0x12
 3126 0a71 12000000 		.4byte	.LASF91
 3127 0a75 01       		.byte	0x1
 3128 0a76 8E01     		.2byte	0x18e
 3129 0a78 BD030000 		.4byte	0x3bd
 3130 0a7c 1C090000 		.4byte	.LLST38
 3131 0a80 25       		.uleb128 0x25
 3132 0a81 58030000 		.4byte	.LASF92
 3133 0a85 01       		.byte	0x1
 3134 0a86 9101     		.2byte	0x191
 3135 0a88 980A0000 		.4byte	0xa98
 3136 0a8c 01       		.uleb128 0x1
 3137 0a8d 50       		.byte	0x50
 3138 0a8e 22       		.uleb128 0x22
 3139 0a8f 0A000000 		.4byte	.LVL140
 3140 0a93 670E0000 		.4byte	0xe67
 3141 0a97 00       		.byte	0
 3142 0a98 0B       		.uleb128 0xb
 3143 0a99 04       		.byte	0x4
 3144 0a9a BD030000 		.4byte	0x3bd
 3145 0a9e 27       		.uleb128 0x27
 3146 0a9f A5030000 		.4byte	.LASF93
 3147 0aa3 01       		.byte	0x1
 3148 0aa4 9901     		.2byte	0x199
ARM GAS  C:\Users\haske\AppData\Local\Temp\cc4gWNdf.s 			page 70


 3149 0aa6 BD030000 		.4byte	0x3bd
 3150 0aaa 00000000 		.4byte	.LFB38
 3151 0aae 2C000000 		.4byte	.LFE38-.LFB38
 3152 0ab2 01       		.uleb128 0x1
 3153 0ab3 9C       		.byte	0x9c
 3154 0ab4 EB0A0000 		.4byte	0xaeb
 3155 0ab8 12       		.uleb128 0x12
 3156 0ab9 8B020000 		.4byte	.LASF34
 3157 0abd 01       		.byte	0x1
 3158 0abe 9901     		.2byte	0x199
 3159 0ac0 F1010000 		.4byte	0x1f1
 3160 0ac4 48090000 		.4byte	.LLST39
 3161 0ac8 29       		.uleb128 0x29
 3162 0ac9 64727600 		.ascii	"drv\000"
 3163 0acd 01       		.byte	0x1
 3164 0ace 9B01     		.2byte	0x19b
 3165 0ad0 980A0000 		.4byte	0xa98
 3166 0ad4 69090000 		.4byte	.LLST40
 3167 0ad8 22       		.uleb128 0x22
 3168 0ad9 0A000000 		.4byte	.LVL144
 3169 0add 720E0000 		.4byte	0xe72
 3170 0ae1 22       		.uleb128 0x22
 3171 0ae2 1C000000 		.4byte	.LVL147
 3172 0ae6 7D0E0000 		.4byte	0xe7d
 3173 0aea 00       		.byte	0
 3174 0aeb 21       		.uleb128 0x21
 3175 0aec 7E050000 		.4byte	.LASF94
 3176 0af0 01       		.byte	0x1
 3177 0af1 2E       		.byte	0x2e
 3178 0af2 07020000 		.4byte	0x207
 3179 0af6 00000000 		.4byte	.LFB25
 3180 0afa 1C000000 		.4byte	.LFE25-.LFB25
 3181 0afe 01       		.uleb128 0x1
 3182 0aff 9C       		.byte	0x9c
 3183 0b00 2C0B0000 		.4byte	0xb2c
 3184 0b04 14       		.uleb128 0x14
 3185 0b05 8B020000 		.4byte	.LASF34
 3186 0b09 01       		.byte	0x1
 3187 0b0a 2E       		.byte	0x2e
 3188 0b0b F1010000 		.4byte	0x1f1
 3189 0b0f 9D090000 		.4byte	.LLST41
 3190 0b13 16       		.uleb128 0x16
 3191 0b14 64727600 		.ascii	"drv\000"
 3192 0b18 01       		.byte	0x1
 3193 0b19 30       		.byte	0x30
 3194 0b1a BD030000 		.4byte	0x3bd
 3195 0b1e BE090000 		.4byte	.LLST42
 3196 0b22 22       		.uleb128 0x22
 3197 0b23 06000000 		.4byte	.LVL151
 3198 0b27 9E0A0000 		.4byte	0xa9e
 3199 0b2b 00       		.byte	0
 3200 0b2c 23       		.uleb128 0x23
 3201 0b2d 53050000 		.4byte	.LASF95
 3202 0b31 01       		.byte	0x1
 3203 0b32 39       		.byte	0x39
 3204 0b33 08010000 		.4byte	0x108
 3205 0b37 00000000 		.4byte	.LFB26
ARM GAS  C:\Users\haske\AppData\Local\Temp\cc4gWNdf.s 			page 71


 3206 0b3b 86000000 		.4byte	.LFE26-.LFB26
 3207 0b3f 01       		.uleb128 0x1
 3208 0b40 9C       		.byte	0x9c
 3209 0b41 190C0000 		.4byte	0xc19
 3210 0b45 14       		.uleb128 0x14
 3211 0b46 BD020000 		.4byte	.LASF70
 3212 0b4a 01       		.byte	0x1
 3213 0b4b 39       		.byte	0x39
 3214 0b4c B0060000 		.4byte	0x6b0
 3215 0b50 E7090000 		.4byte	.LLST43
 3216 0b54 14       		.uleb128 0x14
 3217 0b55 C4020000 		.4byte	.LASF69
 3218 0b59 01       		.byte	0x1
 3219 0b5a 39       		.byte	0x39
 3220 0b5b 35020000 		.4byte	0x235
 3221 0b5f 290A0000 		.4byte	.LLST44
 3222 0b63 14       		.uleb128 0x14
 3223 0b64 B0000000 		.4byte	.LASF96
 3224 0b68 01       		.byte	0x1
 3225 0b69 39       		.byte	0x39
 3226 0b6a 13010000 		.4byte	0x113
 3227 0b6e 6B0A0000 		.4byte	.LLST45
 3228 0b72 17       		.uleb128 0x17
 3229 0b73 8B020000 		.4byte	.LASF34
 3230 0b77 01       		.byte	0x1
 3231 0b78 40       		.byte	0x40
 3232 0b79 F1010000 		.4byte	0x1f1
 3233 0b7d A50A0000 		.4byte	.LLST46
 3234 0b81 16       		.uleb128 0x16
 3235 0b82 64727600 		.ascii	"drv\000"
 3236 0b86 01       		.byte	0x1
 3237 0b87 41       		.byte	0x41
 3238 0b88 BD030000 		.4byte	0x3bd
 3239 0b8c B80A0000 		.4byte	.LLST47
 3240 0b90 17       		.uleb128 0x17
 3241 0b91 48040000 		.4byte	.LASF97
 3242 0b95 01       		.byte	0x1
 3243 0b96 54       		.byte	0x54
 3244 0b97 35020000 		.4byte	0x235
 3245 0b9b EC0A0000 		.4byte	.LLST48
 3246 0b9f 17       		.uleb128 0x17
 3247 0ba0 A9020000 		.4byte	.LASF54
 3248 0ba4 01       		.byte	0x1
 3249 0ba5 55       		.byte	0x55
 3250 0ba6 33020000 		.4byte	0x233
 3251 0baa 0A0B0000 		.4byte	.LLST49
 3252 0bae 22       		.uleb128 0x22
 3253 0baf 12000000 		.4byte	.LVL159
 3254 0bb3 9E0A0000 		.4byte	0xa9e
 3255 0bb7 26       		.uleb128 0x26
 3256 0bb8 1E000000 		.4byte	.LVL161
 3257 0bbc C70B0000 		.4byte	0xbc7
 3258 0bc0 1C       		.uleb128 0x1c
 3259 0bc1 01       		.uleb128 0x1
 3260 0bc2 50       		.byte	0x50
 3261 0bc3 02       		.uleb128 0x2
 3262 0bc4 75       		.byte	0x75
ARM GAS  C:\Users\haske\AppData\Local\Temp\cc4gWNdf.s 			page 72


 3263 0bc5 00       		.sleb128 0
 3264 0bc6 00       		.byte	0
 3265 0bc7 1E       		.uleb128 0x1e
 3266 0bc8 2E000000 		.4byte	.LVL162
 3267 0bcc 62040000 		.4byte	0x462
 3268 0bd0 DB0B0000 		.4byte	0xbdb
 3269 0bd4 1C       		.uleb128 0x1c
 3270 0bd5 01       		.uleb128 0x1
 3271 0bd6 50       		.byte	0x50
 3272 0bd7 02       		.uleb128 0x2
 3273 0bd8 74       		.byte	0x74
 3274 0bd9 00       		.sleb128 0
 3275 0bda 00       		.byte	0
 3276 0bdb 1B       		.uleb128 0x1b
 3277 0bdc 36000000 		.4byte	.LVL165
 3278 0be0 02       		.uleb128 0x2
 3279 0be1 77       		.byte	0x77
 3280 0be2 00       		.sleb128 0
 3281 0be3 F60B0000 		.4byte	0xbf6
 3282 0be7 1C       		.uleb128 0x1c
 3283 0be8 01       		.uleb128 0x1
 3284 0be9 50       		.byte	0x50
 3285 0bea 02       		.uleb128 0x2
 3286 0beb 75       		.byte	0x75
 3287 0bec 00       		.sleb128 0
 3288 0bed 1C       		.uleb128 0x1c
 3289 0bee 01       		.uleb128 0x1
 3290 0bef 52       		.byte	0x52
 3291 0bf0 04       		.uleb128 0x4
 3292 0bf1 91       		.byte	0x91
 3293 0bf2 64       		.sleb128 -28
 3294 0bf3 94       		.byte	0x94
 3295 0bf4 01       		.byte	0x1
 3296 0bf5 00       		.byte	0
 3297 0bf6 1E       		.uleb128 0x1e
 3298 0bf7 4C000000 		.4byte	.LVL167
 3299 0bfb 3B0E0000 		.4byte	0xe3b
 3300 0bff 090C0000 		.4byte	0xc09
 3301 0c03 1C       		.uleb128 0x1c
 3302 0c04 01       		.uleb128 0x1
 3303 0c05 50       		.byte	0x50
 3304 0c06 01       		.uleb128 0x1
 3305 0c07 40       		.byte	0x40
 3306 0c08 00       		.byte	0
 3307 0c09 1D       		.uleb128 0x1d
 3308 0c0a 5A000000 		.4byte	.LVL168
 3309 0c0e 5C0E0000 		.4byte	0xe5c
 3310 0c12 1C       		.uleb128 0x1c
 3311 0c13 01       		.uleb128 0x1
 3312 0c14 51       		.byte	0x51
 3313 0c15 01       		.uleb128 0x1
 3314 0c16 40       		.byte	0x40
 3315 0c17 00       		.byte	0
 3316 0c18 00       		.byte	0
 3317 0c19 27       		.uleb128 0x27
 3318 0c1a 52040000 		.4byte	.LASF98
 3319 0c1e 01       		.byte	0x1
ARM GAS  C:\Users\haske\AppData\Local\Temp\cc4gWNdf.s 			page 73


 3320 0c1f 4401     		.2byte	0x144
 3321 0c21 08010000 		.4byte	0x108
 3322 0c25 00000000 		.4byte	.LFB33
 3323 0c29 52000000 		.4byte	.LFE33-.LFB33
 3324 0c2d 01       		.uleb128 0x1
 3325 0c2e 9C       		.byte	0x9c
 3326 0c2f D00C0000 		.4byte	0xcd0
 3327 0c33 12       		.uleb128 0x12
 3328 0c34 28060000 		.4byte	.LASF86
 3329 0c38 01       		.byte	0x1
 3330 0c39 4401     		.2byte	0x144
 3331 0c3b DB090000 		.4byte	0x9db
 3332 0c3f 3F0B0000 		.4byte	.LLST50
 3333 0c43 12       		.uleb128 0x12
 3334 0c44 C4020000 		.4byte	.LASF69
 3335 0c48 01       		.byte	0x1
 3336 0c49 4401     		.2byte	0x144
 3337 0c4b 35020000 		.4byte	0x235
 3338 0c4f 810B0000 		.4byte	.LLST51
 3339 0c53 2D       		.uleb128 0x2d
 3340 0c54 8B020000 		.4byte	.LASF34
 3341 0c58 01       		.byte	0x1
 3342 0c59 4801     		.2byte	0x148
 3343 0c5b F1010000 		.4byte	0x1f1
 3344 0c5f C30B0000 		.4byte	.LLST52
 3345 0c63 29       		.uleb128 0x29
 3346 0c64 64727600 		.ascii	"drv\000"
 3347 0c68 01       		.byte	0x1
 3348 0c69 4901     		.2byte	0x149
 3349 0c6b BD030000 		.4byte	0x3bd
 3350 0c6f D60B0000 		.4byte	.LLST53
 3351 0c73 2D       		.uleb128 0x2d
 3352 0c74 48040000 		.4byte	.LASF97
 3353 0c78 01       		.byte	0x1
 3354 0c79 5901     		.2byte	0x159
 3355 0c7b 35020000 		.4byte	0x235
 3356 0c7f 0A0C0000 		.4byte	.LLST54
 3357 0c83 2D       		.uleb128 0x2d
 3358 0c84 C8010000 		.4byte	.LASF57
 3359 0c88 01       		.byte	0x1
 3360 0c89 5A01     		.2byte	0x15a
 3361 0c8b 33020000 		.4byte	0x233
 3362 0c8f 280C0000 		.4byte	.LLST55
 3363 0c93 22       		.uleb128 0x22
 3364 0c94 0E000000 		.4byte	.LVL181
 3365 0c98 9E0A0000 		.4byte	0xa9e
 3366 0c9c 26       		.uleb128 0x26
 3367 0c9d 1A000000 		.4byte	.LVL183
 3368 0ca1 AC0C0000 		.4byte	0xcac
 3369 0ca5 1C       		.uleb128 0x1c
 3370 0ca6 01       		.uleb128 0x1
 3371 0ca7 50       		.byte	0x50
 3372 0ca8 02       		.uleb128 0x2
 3373 0ca9 75       		.byte	0x75
 3374 0caa 00       		.sleb128 0
 3375 0cab 00       		.byte	0
 3376 0cac 1E       		.uleb128 0x1e
ARM GAS  C:\Users\haske\AppData\Local\Temp\cc4gWNdf.s 			page 74


 3377 0cad 2A000000 		.4byte	.LVL184
 3378 0cb1 62040000 		.4byte	0x462
 3379 0cb5 C00C0000 		.4byte	0xcc0
 3380 0cb9 1C       		.uleb128 0x1c
 3381 0cba 01       		.uleb128 0x1
 3382 0cbb 50       		.byte	0x50
 3383 0cbc 02       		.uleb128 0x2
 3384 0cbd 74       		.byte	0x74
 3385 0cbe 00       		.sleb128 0
 3386 0cbf 00       		.byte	0
 3387 0cc0 1F       		.uleb128 0x1f
 3388 0cc1 30000000 		.4byte	.LVL187
 3389 0cc5 02       		.uleb128 0x2
 3390 0cc6 77       		.byte	0x77
 3391 0cc7 00       		.sleb128 0
 3392 0cc8 1C       		.uleb128 0x1c
 3393 0cc9 01       		.uleb128 0x1
 3394 0cca 50       		.byte	0x50
 3395 0ccb 02       		.uleb128 0x2
 3396 0ccc 75       		.byte	0x75
 3397 0ccd 00       		.sleb128 0
 3398 0cce 00       		.byte	0
 3399 0ccf 00       		.byte	0
 3400 0cd0 27       		.uleb128 0x27
 3401 0cd1 00000000 		.4byte	.LASF99
 3402 0cd5 01       		.byte	0x1
 3403 0cd6 A601     		.2byte	0x1a6
 3404 0cd8 35030000 		.4byte	0x335
 3405 0cdc 00000000 		.4byte	.LFB39
 3406 0ce0 34000000 		.4byte	.LFE39-.LFB39
 3407 0ce4 01       		.uleb128 0x1
 3408 0ce5 9C       		.byte	0x9c
 3409 0ce6 2B0D0000 		.4byte	0xd2b
 3410 0cea 28       		.uleb128 0x28
 3411 0ceb 62756600 		.ascii	"buf\000"
 3412 0cef 01       		.byte	0x1
 3413 0cf0 A601     		.2byte	0x1a6
 3414 0cf2 35030000 		.4byte	0x335
 3415 0cf6 520C0000 		.4byte	.LLST56
 3416 0cfa 29       		.uleb128 0x29
 3417 0cfb 64727600 		.ascii	"drv\000"
 3418 0cff 01       		.byte	0x1
 3419 0d00 A801     		.2byte	0x1a8
 3420 0d02 980A0000 		.4byte	0xa98
 3421 0d06 7B0C0000 		.4byte	.LLST57
 3422 0d0a 29       		.uleb128 0x29
 3423 0d0b 6900     		.ascii	"i\000"
 3424 0d0d 01       		.byte	0x1
 3425 0d0e A901     		.2byte	0x1a9
 3426 0d10 8C000000 		.4byte	0x8c
 3427 0d14 A40C0000 		.4byte	.LLST58
 3428 0d18 22       		.uleb128 0x22
 3429 0d19 0A000000 		.4byte	.LVL200
 3430 0d1d 720E0000 		.4byte	0xe72
 3431 0d21 22       		.uleb128 0x22
 3432 0d22 20000000 		.4byte	.LVL205
 3433 0d26 7D0E0000 		.4byte	0xe7d
ARM GAS  C:\Users\haske\AppData\Local\Temp\cc4gWNdf.s 			page 75


 3434 0d2a 00       		.byte	0
 3435 0d2b 27       		.uleb128 0x27
 3436 0d2c 61020000 		.4byte	.LASF100
 3437 0d30 01       		.byte	0x1
 3438 0d31 B501     		.2byte	0x1b5
 3439 0d33 35020000 		.4byte	0x235
 3440 0d37 00000000 		.4byte	.LFB40
 3441 0d3b 34000000 		.4byte	.LFE40-.LFB40
 3442 0d3f 01       		.uleb128 0x1
 3443 0d40 9C       		.byte	0x9c
 3444 0d41 730D0000 		.4byte	0xd73
 3445 0d45 28       		.uleb128 0x28
 3446 0d46 666E00   		.ascii	"fn\000"
 3447 0d49 01       		.byte	0x1
 3448 0d4a B501     		.2byte	0x1b5
 3449 0d4c 35020000 		.4byte	0x235
 3450 0d50 CE0C0000 		.4byte	.LLST59
 3451 0d54 29       		.uleb128 0x29
 3452 0d55 6900     		.ascii	"i\000"
 3453 0d57 01       		.byte	0x1
 3454 0d58 B701     		.2byte	0x1b7
 3455 0d5a 00040000 		.4byte	0x400
 3456 0d5e FA0C0000 		.4byte	.LLST60
 3457 0d62 1D       		.uleb128 0x1d
 3458 0d63 08000000 		.4byte	.LVL210
 3459 0d67 880E0000 		.4byte	0xe88
 3460 0d6b 1C       		.uleb128 0x1c
 3461 0d6c 01       		.uleb128 0x1
 3462 0d6d 50       		.byte	0x50
 3463 0d6e 02       		.uleb128 0x2
 3464 0d6f 74       		.byte	0x74
 3465 0d70 00       		.sleb128 0
 3466 0d71 00       		.byte	0
 3467 0d72 00       		.byte	0
 3468 0d73 27       		.uleb128 0x27
 3469 0d74 C9000000 		.4byte	.LASF101
 3470 0d78 01       		.byte	0x1
 3471 0d79 C401     		.2byte	0x1c4
 3472 0d7b 35030000 		.4byte	0x335
 3473 0d7f 00000000 		.4byte	.LFB41
 3474 0d83 46000000 		.4byte	.LFE41-.LFB41
 3475 0d87 01       		.uleb128 0x1
 3476 0d88 9C       		.byte	0x9c
 3477 0d89 CC0D0000 		.4byte	0xdcc
 3478 0d8d 12       		.uleb128 0x12
 3479 0d8e C4020000 		.4byte	.LASF69
 3480 0d92 01       		.byte	0x1
 3481 0d93 C401     		.2byte	0x1c4
 3482 0d95 35030000 		.4byte	0x335
 3483 0d99 3B0D0000 		.4byte	.LLST61
 3484 0d9d 29       		.uleb128 0x29
 3485 0d9e 6C656E00 		.ascii	"len\000"
 3486 0da2 01       		.byte	0x1
 3487 0da3 C601     		.2byte	0x1c6
 3488 0da5 00040000 		.4byte	0x400
 3489 0da9 640D0000 		.4byte	.LLST62
 3490 0dad 29       		.uleb128 0x29
ARM GAS  C:\Users\haske\AppData\Local\Temp\cc4gWNdf.s 			page 76


 3491 0dae 6900     		.ascii	"i\000"
 3492 0db0 01       		.byte	0x1
 3493 0db1 D401     		.2byte	0x1d4
 3494 0db3 00040000 		.4byte	0x400
 3495 0db7 770D0000 		.4byte	.LLST63
 3496 0dbb 1D       		.uleb128 0x1d
 3497 0dbc 08000000 		.4byte	.LVL222
 3498 0dc0 880E0000 		.4byte	0xe88
 3499 0dc4 1C       		.uleb128 0x1c
 3500 0dc5 01       		.uleb128 0x1
 3501 0dc6 50       		.byte	0x50
 3502 0dc7 02       		.uleb128 0x2
 3503 0dc8 74       		.byte	0x74
 3504 0dc9 00       		.sleb128 0
 3505 0dca 00       		.byte	0
 3506 0dcb 00       		.byte	0
 3507 0dcc 27       		.uleb128 0x27
 3508 0dcd D0050000 		.4byte	.LASF102
 3509 0dd1 01       		.byte	0x1
 3510 0dd2 DE01     		.2byte	0x1de
 3511 0dd4 35020000 		.4byte	0x235
 3512 0dd8 00000000 		.4byte	.LFB42
 3513 0ddc 48000000 		.4byte	.LFE42-.LFB42
 3514 0de0 01       		.uleb128 0x1
 3515 0de1 9C       		.byte	0x9c
 3516 0de2 250E0000 		.4byte	0xe25
 3517 0de6 12       		.uleb128 0x12
 3518 0de7 C4020000 		.4byte	.LASF69
 3519 0deb 01       		.byte	0x1
 3520 0dec DE01     		.2byte	0x1de
 3521 0dee 35020000 		.4byte	0x235
 3522 0df2 8A0D0000 		.4byte	.LLST64
 3523 0df6 29       		.uleb128 0x29
 3524 0df7 6C656E00 		.ascii	"len\000"
 3525 0dfb 01       		.byte	0x1
 3526 0dfc E001     		.2byte	0x1e0
 3527 0dfe 00040000 		.4byte	0x400
 3528 0e02 B60D0000 		.4byte	.LLST65
 3529 0e06 29       		.uleb128 0x29
 3530 0e07 6900     		.ascii	"i\000"
 3531 0e09 01       		.byte	0x1
 3532 0e0a ED01     		.2byte	0x1ed
 3533 0e0c 00040000 		.4byte	0x400
 3534 0e10 DF0D0000 		.4byte	.LLST66
 3535 0e14 1D       		.uleb128 0x1d
 3536 0e15 08000000 		.4byte	.LVL230
 3537 0e19 880E0000 		.4byte	0xe88
 3538 0e1d 1C       		.uleb128 0x1c
 3539 0e1e 01       		.uleb128 0x1
 3540 0e1f 50       		.byte	0x50
 3541 0e20 02       		.uleb128 0x2
 3542 0e21 74       		.byte	0x74
 3543 0e22 00       		.sleb128 0
 3544 0e23 00       		.byte	0
 3545 0e24 00       		.byte	0
 3546 0e25 2E       		.uleb128 0x2e
 3547 0e26 3F060000 		.4byte	.LASF116
ARM GAS  C:\Users\haske\AppData\Local\Temp\cc4gWNdf.s 			page 77


 3548 0e2a 09       		.byte	0x9
 3549 0e2b 4C       		.byte	0x4c
 3550 0e2c 57040000 		.4byte	0x457
 3551 0e30 2F       		.uleb128 0x2f
 3552 0e31 2C010000 		.4byte	.LASF103
 3553 0e35 2C010000 		.4byte	.LASF103
 3554 0e39 07       		.byte	0x7
 3555 0e3a BA       		.byte	0xba
 3556 0e3b 2F       		.uleb128 0x2f
 3557 0e3c BC000000 		.4byte	.LASF104
 3558 0e40 BC000000 		.4byte	.LASF104
 3559 0e44 07       		.byte	0x7
 3560 0e45 4A       		.byte	0x4a
 3561 0e46 2F       		.uleb128 0x2f
 3562 0e47 73000000 		.4byte	.LASF105
 3563 0e4b 73000000 		.4byte	.LASF105
 3564 0e4f 06       		.byte	0x6
 3565 0e50 2F       		.byte	0x2f
 3566 0e51 2F       		.uleb128 0x2f
 3567 0e52 EA050000 		.4byte	.LASF106
 3568 0e56 EA050000 		.4byte	.LASF106
 3569 0e5a 07       		.byte	0x7
 3570 0e5b 50       		.byte	0x50
 3571 0e5c 2F       		.uleb128 0x2f
 3572 0e5d E2000000 		.4byte	.LASF107
 3573 0e61 E2000000 		.4byte	.LASF107
 3574 0e65 07       		.byte	0x7
 3575 0e66 DE       		.byte	0xde
 3576 0e67 2F       		.uleb128 0x2f
 3577 0e68 94040000 		.4byte	.LASF108
 3578 0e6c 94040000 		.4byte	.LASF108
 3579 0e70 06       		.byte	0x6
 3580 0e71 36       		.byte	0x36
 3581 0e72 2F       		.uleb128 0x2f
 3582 0e73 17040000 		.4byte	.LASF109
 3583 0e77 17040000 		.4byte	.LASF109
 3584 0e7b 06       		.byte	0x6
 3585 0e7c 64       		.byte	0x64
 3586 0e7d 2F       		.uleb128 0x2f
 3587 0e7e 07040000 		.4byte	.LASF110
 3588 0e82 07040000 		.4byte	.LASF110
 3589 0e86 06       		.byte	0x6
 3590 0e87 73       		.byte	0x73
 3591 0e88 2F       		.uleb128 0x2f
 3592 0e89 2A000000 		.4byte	.LASF111
 3593 0e8d 2A000000 		.4byte	.LASF111
 3594 0e91 08       		.byte	0x8
 3595 0e92 21       		.byte	0x21
 3596 0e93 00       		.byte	0
 3597              		.section	.debug_abbrev,"",%progbits
 3598              	.Ldebug_abbrev0:
 3599 0000 01       		.uleb128 0x1
 3600 0001 11       		.uleb128 0x11
 3601 0002 01       		.byte	0x1
 3602 0003 25       		.uleb128 0x25
 3603 0004 0E       		.uleb128 0xe
 3604 0005 13       		.uleb128 0x13
ARM GAS  C:\Users\haske\AppData\Local\Temp\cc4gWNdf.s 			page 78


 3605 0006 0B       		.uleb128 0xb
 3606 0007 03       		.uleb128 0x3
 3607 0008 0E       		.uleb128 0xe
 3608 0009 1B       		.uleb128 0x1b
 3609 000a 0E       		.uleb128 0xe
 3610 000b 55       		.uleb128 0x55
 3611 000c 17       		.uleb128 0x17
 3612 000d 11       		.uleb128 0x11
 3613 000e 01       		.uleb128 0x1
 3614 000f 10       		.uleb128 0x10
 3615 0010 17       		.uleb128 0x17
 3616 0011 00       		.byte	0
 3617 0012 00       		.byte	0
 3618 0013 02       		.uleb128 0x2
 3619 0014 24       		.uleb128 0x24
 3620 0015 00       		.byte	0
 3621 0016 0B       		.uleb128 0xb
 3622 0017 0B       		.uleb128 0xb
 3623 0018 3E       		.uleb128 0x3e
 3624 0019 0B       		.uleb128 0xb
 3625 001a 03       		.uleb128 0x3
 3626 001b 0E       		.uleb128 0xe
 3627 001c 00       		.byte	0
 3628 001d 00       		.byte	0
 3629 001e 03       		.uleb128 0x3
 3630 001f 16       		.uleb128 0x16
 3631 0020 00       		.byte	0
 3632 0021 03       		.uleb128 0x3
 3633 0022 0E       		.uleb128 0xe
 3634 0023 3A       		.uleb128 0x3a
 3635 0024 0B       		.uleb128 0xb
 3636 0025 3B       		.uleb128 0x3b
 3637 0026 0B       		.uleb128 0xb
 3638 0027 49       		.uleb128 0x49
 3639 0028 13       		.uleb128 0x13
 3640 0029 00       		.byte	0
 3641 002a 00       		.byte	0
 3642 002b 04       		.uleb128 0x4
 3643 002c 24       		.uleb128 0x24
 3644 002d 00       		.byte	0
 3645 002e 0B       		.uleb128 0xb
 3646 002f 0B       		.uleb128 0xb
 3647 0030 3E       		.uleb128 0x3e
 3648 0031 0B       		.uleb128 0xb
 3649 0032 03       		.uleb128 0x3
 3650 0033 08       		.uleb128 0x8
 3651 0034 00       		.byte	0
 3652 0035 00       		.byte	0
 3653 0036 05       		.uleb128 0x5
 3654 0037 04       		.uleb128 0x4
 3655 0038 01       		.byte	0x1
 3656 0039 0B       		.uleb128 0xb
 3657 003a 0B       		.uleb128 0xb
 3658 003b 49       		.uleb128 0x49
 3659 003c 13       		.uleb128 0x13
 3660 003d 3A       		.uleb128 0x3a
 3661 003e 0B       		.uleb128 0xb
ARM GAS  C:\Users\haske\AppData\Local\Temp\cc4gWNdf.s 			page 79


 3662 003f 3B       		.uleb128 0x3b
 3663 0040 0B       		.uleb128 0xb
 3664 0041 01       		.uleb128 0x1
 3665 0042 13       		.uleb128 0x13
 3666 0043 00       		.byte	0
 3667 0044 00       		.byte	0
 3668 0045 06       		.uleb128 0x6
 3669 0046 28       		.uleb128 0x28
 3670 0047 00       		.byte	0
 3671 0048 03       		.uleb128 0x3
 3672 0049 0E       		.uleb128 0xe
 3673 004a 1C       		.uleb128 0x1c
 3674 004b 0B       		.uleb128 0xb
 3675 004c 00       		.byte	0
 3676 004d 00       		.byte	0
 3677 004e 07       		.uleb128 0x7
 3678 004f 13       		.uleb128 0x13
 3679 0050 01       		.byte	0x1
 3680 0051 03       		.uleb128 0x3
 3681 0052 0E       		.uleb128 0xe
 3682 0053 0B       		.uleb128 0xb
 3683 0054 0B       		.uleb128 0xb
 3684 0055 3A       		.uleb128 0x3a
 3685 0056 0B       		.uleb128 0xb
 3686 0057 3B       		.uleb128 0x3b
 3687 0058 0B       		.uleb128 0xb
 3688 0059 01       		.uleb128 0x1
 3689 005a 13       		.uleb128 0x13
 3690 005b 00       		.byte	0
 3691 005c 00       		.byte	0
 3692 005d 08       		.uleb128 0x8
 3693 005e 0D       		.uleb128 0xd
 3694 005f 00       		.byte	0
 3695 0060 03       		.uleb128 0x3
 3696 0061 0E       		.uleb128 0xe
 3697 0062 3A       		.uleb128 0x3a
 3698 0063 0B       		.uleb128 0xb
 3699 0064 3B       		.uleb128 0x3b
 3700 0065 0B       		.uleb128 0xb
 3701 0066 49       		.uleb128 0x49
 3702 0067 13       		.uleb128 0x13
 3703 0068 38       		.uleb128 0x38
 3704 0069 0B       		.uleb128 0xb
 3705 006a 00       		.byte	0
 3706 006b 00       		.byte	0
 3707 006c 09       		.uleb128 0x9
 3708 006d 15       		.uleb128 0x15
 3709 006e 01       		.byte	0x1
 3710 006f 27       		.uleb128 0x27
 3711 0070 19       		.uleb128 0x19
 3712 0071 49       		.uleb128 0x49
 3713 0072 13       		.uleb128 0x13
 3714 0073 01       		.uleb128 0x1
 3715 0074 13       		.uleb128 0x13
 3716 0075 00       		.byte	0
 3717 0076 00       		.byte	0
 3718 0077 0A       		.uleb128 0xa
ARM GAS  C:\Users\haske\AppData\Local\Temp\cc4gWNdf.s 			page 80


 3719 0078 05       		.uleb128 0x5
 3720 0079 00       		.byte	0
 3721 007a 49       		.uleb128 0x49
 3722 007b 13       		.uleb128 0x13
 3723 007c 00       		.byte	0
 3724 007d 00       		.byte	0
 3725 007e 0B       		.uleb128 0xb
 3726 007f 0F       		.uleb128 0xf
 3727 0080 00       		.byte	0
 3728 0081 0B       		.uleb128 0xb
 3729 0082 0B       		.uleb128 0xb
 3730 0083 49       		.uleb128 0x49
 3731 0084 13       		.uleb128 0x13
 3732 0085 00       		.byte	0
 3733 0086 00       		.byte	0
 3734 0087 0C       		.uleb128 0xc
 3735 0088 0F       		.uleb128 0xf
 3736 0089 00       		.byte	0
 3737 008a 0B       		.uleb128 0xb
 3738 008b 0B       		.uleb128 0xb
 3739 008c 00       		.byte	0
 3740 008d 00       		.byte	0
 3741 008e 0D       		.uleb128 0xd
 3742 008f 26       		.uleb128 0x26
 3743 0090 00       		.byte	0
 3744 0091 49       		.uleb128 0x49
 3745 0092 13       		.uleb128 0x13
 3746 0093 00       		.byte	0
 3747 0094 00       		.byte	0
 3748 0095 0E       		.uleb128 0xe
 3749 0096 26       		.uleb128 0x26
 3750 0097 00       		.byte	0
 3751 0098 00       		.byte	0
 3752 0099 00       		.byte	0
 3753 009a 0F       		.uleb128 0xf
 3754 009b 13       		.uleb128 0x13
 3755 009c 01       		.byte	0x1
 3756 009d 0B       		.uleb128 0xb
 3757 009e 0B       		.uleb128 0xb
 3758 009f 3A       		.uleb128 0x3a
 3759 00a0 0B       		.uleb128 0xb
 3760 00a1 3B       		.uleb128 0x3b
 3761 00a2 0B       		.uleb128 0xb
 3762 00a3 01       		.uleb128 0x1
 3763 00a4 13       		.uleb128 0x13
 3764 00a5 00       		.byte	0
 3765 00a6 00       		.byte	0
 3766 00a7 10       		.uleb128 0x10
 3767 00a8 0D       		.uleb128 0xd
 3768 00a9 00       		.byte	0
 3769 00aa 03       		.uleb128 0x3
 3770 00ab 08       		.uleb128 0x8
 3771 00ac 3A       		.uleb128 0x3a
 3772 00ad 0B       		.uleb128 0xb
 3773 00ae 3B       		.uleb128 0x3b
 3774 00af 0B       		.uleb128 0xb
 3775 00b0 49       		.uleb128 0x49
ARM GAS  C:\Users\haske\AppData\Local\Temp\cc4gWNdf.s 			page 81


 3776 00b1 13       		.uleb128 0x13
 3777 00b2 38       		.uleb128 0x38
 3778 00b3 0B       		.uleb128 0xb
 3779 00b4 00       		.byte	0
 3780 00b5 00       		.byte	0
 3781 00b6 11       		.uleb128 0x11
 3782 00b7 2E       		.uleb128 0x2e
 3783 00b8 01       		.byte	0x1
 3784 00b9 03       		.uleb128 0x3
 3785 00ba 0E       		.uleb128 0xe
 3786 00bb 3A       		.uleb128 0x3a
 3787 00bc 0B       		.uleb128 0xb
 3788 00bd 3B       		.uleb128 0x3b
 3789 00be 05       		.uleb128 0x5
 3790 00bf 27       		.uleb128 0x27
 3791 00c0 19       		.uleb128 0x19
 3792 00c1 49       		.uleb128 0x49
 3793 00c2 13       		.uleb128 0x13
 3794 00c3 11       		.uleb128 0x11
 3795 00c4 01       		.uleb128 0x1
 3796 00c5 12       		.uleb128 0x12
 3797 00c6 06       		.uleb128 0x6
 3798 00c7 40       		.uleb128 0x40
 3799 00c8 18       		.uleb128 0x18
 3800 00c9 9742     		.uleb128 0x2117
 3801 00cb 19       		.uleb128 0x19
 3802 00cc 01       		.uleb128 0x1
 3803 00cd 13       		.uleb128 0x13
 3804 00ce 00       		.byte	0
 3805 00cf 00       		.byte	0
 3806 00d0 12       		.uleb128 0x12
 3807 00d1 05       		.uleb128 0x5
 3808 00d2 00       		.byte	0
 3809 00d3 03       		.uleb128 0x3
 3810 00d4 0E       		.uleb128 0xe
 3811 00d5 3A       		.uleb128 0x3a
 3812 00d6 0B       		.uleb128 0xb
 3813 00d7 3B       		.uleb128 0x3b
 3814 00d8 05       		.uleb128 0x5
 3815 00d9 49       		.uleb128 0x49
 3816 00da 13       		.uleb128 0x13
 3817 00db 02       		.uleb128 0x2
 3818 00dc 17       		.uleb128 0x17
 3819 00dd 00       		.byte	0
 3820 00de 00       		.byte	0
 3821 00df 13       		.uleb128 0x13
 3822 00e0 2E       		.uleb128 0x2e
 3823 00e1 01       		.byte	0x1
 3824 00e2 03       		.uleb128 0x3
 3825 00e3 0E       		.uleb128 0xe
 3826 00e4 3A       		.uleb128 0x3a
 3827 00e5 0B       		.uleb128 0xb
 3828 00e6 3B       		.uleb128 0x3b
 3829 00e7 0B       		.uleb128 0xb
 3830 00e8 27       		.uleb128 0x27
 3831 00e9 19       		.uleb128 0x19
 3832 00ea 49       		.uleb128 0x49
ARM GAS  C:\Users\haske\AppData\Local\Temp\cc4gWNdf.s 			page 82


 3833 00eb 13       		.uleb128 0x13
 3834 00ec 11       		.uleb128 0x11
 3835 00ed 01       		.uleb128 0x1
 3836 00ee 12       		.uleb128 0x12
 3837 00ef 06       		.uleb128 0x6
 3838 00f0 40       		.uleb128 0x40
 3839 00f1 18       		.uleb128 0x18
 3840 00f2 9742     		.uleb128 0x2117
 3841 00f4 19       		.uleb128 0x19
 3842 00f5 01       		.uleb128 0x1
 3843 00f6 13       		.uleb128 0x13
 3844 00f7 00       		.byte	0
 3845 00f8 00       		.byte	0
 3846 00f9 14       		.uleb128 0x14
 3847 00fa 05       		.uleb128 0x5
 3848 00fb 00       		.byte	0
 3849 00fc 03       		.uleb128 0x3
 3850 00fd 0E       		.uleb128 0xe
 3851 00fe 3A       		.uleb128 0x3a
 3852 00ff 0B       		.uleb128 0xb
 3853 0100 3B       		.uleb128 0x3b
 3854 0101 0B       		.uleb128 0xb
 3855 0102 49       		.uleb128 0x49
 3856 0103 13       		.uleb128 0x13
 3857 0104 02       		.uleb128 0x2
 3858 0105 17       		.uleb128 0x17
 3859 0106 00       		.byte	0
 3860 0107 00       		.byte	0
 3861 0108 15       		.uleb128 0x15
 3862 0109 05       		.uleb128 0x5
 3863 010a 00       		.byte	0
 3864 010b 03       		.uleb128 0x3
 3865 010c 08       		.uleb128 0x8
 3866 010d 3A       		.uleb128 0x3a
 3867 010e 0B       		.uleb128 0xb
 3868 010f 3B       		.uleb128 0x3b
 3869 0110 0B       		.uleb128 0xb
 3870 0111 49       		.uleb128 0x49
 3871 0112 13       		.uleb128 0x13
 3872 0113 02       		.uleb128 0x2
 3873 0114 17       		.uleb128 0x17
 3874 0115 00       		.byte	0
 3875 0116 00       		.byte	0
 3876 0117 16       		.uleb128 0x16
 3877 0118 34       		.uleb128 0x34
 3878 0119 00       		.byte	0
 3879 011a 03       		.uleb128 0x3
 3880 011b 08       		.uleb128 0x8
 3881 011c 3A       		.uleb128 0x3a
 3882 011d 0B       		.uleb128 0xb
 3883 011e 3B       		.uleb128 0x3b
 3884 011f 0B       		.uleb128 0xb
 3885 0120 49       		.uleb128 0x49
 3886 0121 13       		.uleb128 0x13
 3887 0122 02       		.uleb128 0x2
 3888 0123 17       		.uleb128 0x17
 3889 0124 00       		.byte	0
ARM GAS  C:\Users\haske\AppData\Local\Temp\cc4gWNdf.s 			page 83


 3890 0125 00       		.byte	0
 3891 0126 17       		.uleb128 0x17
 3892 0127 34       		.uleb128 0x34
 3893 0128 00       		.byte	0
 3894 0129 03       		.uleb128 0x3
 3895 012a 0E       		.uleb128 0xe
 3896 012b 3A       		.uleb128 0x3a
 3897 012c 0B       		.uleb128 0xb
 3898 012d 3B       		.uleb128 0x3b
 3899 012e 0B       		.uleb128 0xb
 3900 012f 49       		.uleb128 0x49
 3901 0130 13       		.uleb128 0x13
 3902 0131 02       		.uleb128 0x2
 3903 0132 17       		.uleb128 0x17
 3904 0133 00       		.byte	0
 3905 0134 00       		.byte	0
 3906 0135 18       		.uleb128 0x18
 3907 0136 0B       		.uleb128 0xb
 3908 0137 01       		.byte	0x1
 3909 0138 55       		.uleb128 0x55
 3910 0139 17       		.uleb128 0x17
 3911 013a 01       		.uleb128 0x1
 3912 013b 13       		.uleb128 0x13
 3913 013c 00       		.byte	0
 3914 013d 00       		.byte	0
 3915 013e 19       		.uleb128 0x19
 3916 013f 0B       		.uleb128 0xb
 3917 0140 01       		.byte	0x1
 3918 0141 11       		.uleb128 0x11
 3919 0142 01       		.uleb128 0x1
 3920 0143 12       		.uleb128 0x12
 3921 0144 06       		.uleb128 0x6
 3922 0145 01       		.uleb128 0x1
 3923 0146 13       		.uleb128 0x13
 3924 0147 00       		.byte	0
 3925 0148 00       		.byte	0
 3926 0149 1A       		.uleb128 0x1a
 3927 014a 34       		.uleb128 0x34
 3928 014b 00       		.byte	0
 3929 014c 03       		.uleb128 0x3
 3930 014d 0E       		.uleb128 0xe
 3931 014e 3A       		.uleb128 0x3a
 3932 014f 0B       		.uleb128 0xb
 3933 0150 3B       		.uleb128 0x3b
 3934 0151 0B       		.uleb128 0xb
 3935 0152 49       		.uleb128 0x49
 3936 0153 13       		.uleb128 0x13
 3937 0154 02       		.uleb128 0x2
 3938 0155 18       		.uleb128 0x18
 3939 0156 00       		.byte	0
 3940 0157 00       		.byte	0
 3941 0158 1B       		.uleb128 0x1b
 3942 0159 898201   		.uleb128 0x4109
 3943 015c 01       		.byte	0x1
 3944 015d 11       		.uleb128 0x11
 3945 015e 01       		.uleb128 0x1
 3946 015f 9342     		.uleb128 0x2113
ARM GAS  C:\Users\haske\AppData\Local\Temp\cc4gWNdf.s 			page 84


 3947 0161 18       		.uleb128 0x18
 3948 0162 01       		.uleb128 0x1
 3949 0163 13       		.uleb128 0x13
 3950 0164 00       		.byte	0
 3951 0165 00       		.byte	0
 3952 0166 1C       		.uleb128 0x1c
 3953 0167 8A8201   		.uleb128 0x410a
 3954 016a 00       		.byte	0
 3955 016b 02       		.uleb128 0x2
 3956 016c 18       		.uleb128 0x18
 3957 016d 9142     		.uleb128 0x2111
 3958 016f 18       		.uleb128 0x18
 3959 0170 00       		.byte	0
 3960 0171 00       		.byte	0
 3961 0172 1D       		.uleb128 0x1d
 3962 0173 898201   		.uleb128 0x4109
 3963 0176 01       		.byte	0x1
 3964 0177 11       		.uleb128 0x11
 3965 0178 01       		.uleb128 0x1
 3966 0179 31       		.uleb128 0x31
 3967 017a 13       		.uleb128 0x13
 3968 017b 00       		.byte	0
 3969 017c 00       		.byte	0
 3970 017d 1E       		.uleb128 0x1e
 3971 017e 898201   		.uleb128 0x4109
 3972 0181 01       		.byte	0x1
 3973 0182 11       		.uleb128 0x11
 3974 0183 01       		.uleb128 0x1
 3975 0184 31       		.uleb128 0x31
 3976 0185 13       		.uleb128 0x13
 3977 0186 01       		.uleb128 0x1
 3978 0187 13       		.uleb128 0x13
 3979 0188 00       		.byte	0
 3980 0189 00       		.byte	0
 3981 018a 1F       		.uleb128 0x1f
 3982 018b 898201   		.uleb128 0x4109
 3983 018e 01       		.byte	0x1
 3984 018f 11       		.uleb128 0x11
 3985 0190 01       		.uleb128 0x1
 3986 0191 9342     		.uleb128 0x2113
 3987 0193 18       		.uleb128 0x18
 3988 0194 00       		.byte	0
 3989 0195 00       		.byte	0
 3990 0196 20       		.uleb128 0x20
 3991 0197 2E       		.uleb128 0x2e
 3992 0198 01       		.byte	0x1
 3993 0199 3F       		.uleb128 0x3f
 3994 019a 19       		.uleb128 0x19
 3995 019b 03       		.uleb128 0x3
 3996 019c 0E       		.uleb128 0xe
 3997 019d 3A       		.uleb128 0x3a
 3998 019e 0B       		.uleb128 0xb
 3999 019f 3B       		.uleb128 0x3b
 4000 01a0 0B       		.uleb128 0xb
 4001 01a1 27       		.uleb128 0x27
 4002 01a2 19       		.uleb128 0x19
 4003 01a3 11       		.uleb128 0x11
ARM GAS  C:\Users\haske\AppData\Local\Temp\cc4gWNdf.s 			page 85


 4004 01a4 01       		.uleb128 0x1
 4005 01a5 12       		.uleb128 0x12
 4006 01a6 06       		.uleb128 0x6
 4007 01a7 40       		.uleb128 0x40
 4008 01a8 18       		.uleb128 0x18
 4009 01a9 9742     		.uleb128 0x2117
 4010 01ab 19       		.uleb128 0x19
 4011 01ac 01       		.uleb128 0x1
 4012 01ad 13       		.uleb128 0x13
 4013 01ae 00       		.byte	0
 4014 01af 00       		.byte	0
 4015 01b0 21       		.uleb128 0x21
 4016 01b1 2E       		.uleb128 0x2e
 4017 01b2 01       		.byte	0x1
 4018 01b3 3F       		.uleb128 0x3f
 4019 01b4 19       		.uleb128 0x19
 4020 01b5 03       		.uleb128 0x3
 4021 01b6 0E       		.uleb128 0xe
 4022 01b7 3A       		.uleb128 0x3a
 4023 01b8 0B       		.uleb128 0xb
 4024 01b9 3B       		.uleb128 0x3b
 4025 01ba 0B       		.uleb128 0xb
 4026 01bb 27       		.uleb128 0x27
 4027 01bc 19       		.uleb128 0x19
 4028 01bd 49       		.uleb128 0x49
 4029 01be 13       		.uleb128 0x13
 4030 01bf 11       		.uleb128 0x11
 4031 01c0 01       		.uleb128 0x1
 4032 01c1 12       		.uleb128 0x12
 4033 01c2 06       		.uleb128 0x6
 4034 01c3 40       		.uleb128 0x40
 4035 01c4 18       		.uleb128 0x18
 4036 01c5 9642     		.uleb128 0x2116
 4037 01c7 19       		.uleb128 0x19
 4038 01c8 01       		.uleb128 0x1
 4039 01c9 13       		.uleb128 0x13
 4040 01ca 00       		.byte	0
 4041 01cb 00       		.byte	0
 4042 01cc 22       		.uleb128 0x22
 4043 01cd 898201   		.uleb128 0x4109
 4044 01d0 00       		.byte	0
 4045 01d1 11       		.uleb128 0x11
 4046 01d2 01       		.uleb128 0x1
 4047 01d3 31       		.uleb128 0x31
 4048 01d4 13       		.uleb128 0x13
 4049 01d5 00       		.byte	0
 4050 01d6 00       		.byte	0
 4051 01d7 23       		.uleb128 0x23
 4052 01d8 2E       		.uleb128 0x2e
 4053 01d9 01       		.byte	0x1
 4054 01da 3F       		.uleb128 0x3f
 4055 01db 19       		.uleb128 0x19
 4056 01dc 03       		.uleb128 0x3
 4057 01dd 0E       		.uleb128 0xe
 4058 01de 3A       		.uleb128 0x3a
 4059 01df 0B       		.uleb128 0xb
 4060 01e0 3B       		.uleb128 0x3b
ARM GAS  C:\Users\haske\AppData\Local\Temp\cc4gWNdf.s 			page 86


 4061 01e1 0B       		.uleb128 0xb
 4062 01e2 27       		.uleb128 0x27
 4063 01e3 19       		.uleb128 0x19
 4064 01e4 49       		.uleb128 0x49
 4065 01e5 13       		.uleb128 0x13
 4066 01e6 11       		.uleb128 0x11
 4067 01e7 01       		.uleb128 0x1
 4068 01e8 12       		.uleb128 0x12
 4069 01e9 06       		.uleb128 0x6
 4070 01ea 40       		.uleb128 0x40
 4071 01eb 18       		.uleb128 0x18
 4072 01ec 9742     		.uleb128 0x2117
 4073 01ee 19       		.uleb128 0x19
 4074 01ef 01       		.uleb128 0x1
 4075 01f0 13       		.uleb128 0x13
 4076 01f1 00       		.byte	0
 4077 01f2 00       		.byte	0
 4078 01f3 24       		.uleb128 0x24
 4079 01f4 898201   		.uleb128 0x4109
 4080 01f7 01       		.byte	0x1
 4081 01f8 11       		.uleb128 0x11
 4082 01f9 01       		.uleb128 0x1
 4083 01fa 00       		.byte	0
 4084 01fb 00       		.byte	0
 4085 01fc 25       		.uleb128 0x25
 4086 01fd 34       		.uleb128 0x34
 4087 01fe 00       		.byte	0
 4088 01ff 03       		.uleb128 0x3
 4089 0200 0E       		.uleb128 0xe
 4090 0201 3A       		.uleb128 0x3a
 4091 0202 0B       		.uleb128 0xb
 4092 0203 3B       		.uleb128 0x3b
 4093 0204 05       		.uleb128 0x5
 4094 0205 49       		.uleb128 0x49
 4095 0206 13       		.uleb128 0x13
 4096 0207 02       		.uleb128 0x2
 4097 0208 18       		.uleb128 0x18
 4098 0209 00       		.byte	0
 4099 020a 00       		.byte	0
 4100 020b 26       		.uleb128 0x26
 4101 020c 898201   		.uleb128 0x4109
 4102 020f 01       		.byte	0x1
 4103 0210 11       		.uleb128 0x11
 4104 0211 01       		.uleb128 0x1
 4105 0212 01       		.uleb128 0x1
 4106 0213 13       		.uleb128 0x13
 4107 0214 00       		.byte	0
 4108 0215 00       		.byte	0
 4109 0216 27       		.uleb128 0x27
 4110 0217 2E       		.uleb128 0x2e
 4111 0218 01       		.byte	0x1
 4112 0219 3F       		.uleb128 0x3f
 4113 021a 19       		.uleb128 0x19
 4114 021b 03       		.uleb128 0x3
 4115 021c 0E       		.uleb128 0xe
 4116 021d 3A       		.uleb128 0x3a
 4117 021e 0B       		.uleb128 0xb
ARM GAS  C:\Users\haske\AppData\Local\Temp\cc4gWNdf.s 			page 87


 4118 021f 3B       		.uleb128 0x3b
 4119 0220 05       		.uleb128 0x5
 4120 0221 27       		.uleb128 0x27
 4121 0222 19       		.uleb128 0x19
 4122 0223 49       		.uleb128 0x49
 4123 0224 13       		.uleb128 0x13
 4124 0225 11       		.uleb128 0x11
 4125 0226 01       		.uleb128 0x1
 4126 0227 12       		.uleb128 0x12
 4127 0228 06       		.uleb128 0x6
 4128 0229 40       		.uleb128 0x40
 4129 022a 18       		.uleb128 0x18
 4130 022b 9742     		.uleb128 0x2117
 4131 022d 19       		.uleb128 0x19
 4132 022e 01       		.uleb128 0x1
 4133 022f 13       		.uleb128 0x13
 4134 0230 00       		.byte	0
 4135 0231 00       		.byte	0
 4136 0232 28       		.uleb128 0x28
 4137 0233 05       		.uleb128 0x5
 4138 0234 00       		.byte	0
 4139 0235 03       		.uleb128 0x3
 4140 0236 08       		.uleb128 0x8
 4141 0237 3A       		.uleb128 0x3a
 4142 0238 0B       		.uleb128 0xb
 4143 0239 3B       		.uleb128 0x3b
 4144 023a 05       		.uleb128 0x5
 4145 023b 49       		.uleb128 0x49
 4146 023c 13       		.uleb128 0x13
 4147 023d 02       		.uleb128 0x2
 4148 023e 17       		.uleb128 0x17
 4149 023f 00       		.byte	0
 4150 0240 00       		.byte	0
 4151 0241 29       		.uleb128 0x29
 4152 0242 34       		.uleb128 0x34
 4153 0243 00       		.byte	0
 4154 0244 03       		.uleb128 0x3
 4155 0245 08       		.uleb128 0x8
 4156 0246 3A       		.uleb128 0x3a
 4157 0247 0B       		.uleb128 0xb
 4158 0248 3B       		.uleb128 0x3b
 4159 0249 05       		.uleb128 0x5
 4160 024a 49       		.uleb128 0x49
 4161 024b 13       		.uleb128 0x13
 4162 024c 02       		.uleb128 0x2
 4163 024d 17       		.uleb128 0x17
 4164 024e 00       		.byte	0
 4165 024f 00       		.byte	0
 4166 0250 2A       		.uleb128 0x2a
 4167 0251 34       		.uleb128 0x34
 4168 0252 00       		.byte	0
 4169 0253 03       		.uleb128 0x3
 4170 0254 08       		.uleb128 0x8
 4171 0255 3A       		.uleb128 0x3a
 4172 0256 0B       		.uleb128 0xb
 4173 0257 3B       		.uleb128 0x3b
 4174 0258 05       		.uleb128 0x5
ARM GAS  C:\Users\haske\AppData\Local\Temp\cc4gWNdf.s 			page 88


 4175 0259 49       		.uleb128 0x49
 4176 025a 13       		.uleb128 0x13
 4177 025b 00       		.byte	0
 4178 025c 00       		.byte	0
 4179 025d 2B       		.uleb128 0x2b
 4180 025e 2E       		.uleb128 0x2e
 4181 025f 01       		.byte	0x1
 4182 0260 3F       		.uleb128 0x3f
 4183 0261 19       		.uleb128 0x19
 4184 0262 03       		.uleb128 0x3
 4185 0263 0E       		.uleb128 0xe
 4186 0264 3A       		.uleb128 0x3a
 4187 0265 0B       		.uleb128 0xb
 4188 0266 3B       		.uleb128 0x3b
 4189 0267 05       		.uleb128 0x5
 4190 0268 27       		.uleb128 0x27
 4191 0269 19       		.uleb128 0x19
 4192 026a 49       		.uleb128 0x49
 4193 026b 13       		.uleb128 0x13
 4194 026c 11       		.uleb128 0x11
 4195 026d 01       		.uleb128 0x1
 4196 026e 12       		.uleb128 0x12
 4197 026f 06       		.uleb128 0x6
 4198 0270 40       		.uleb128 0x40
 4199 0271 18       		.uleb128 0x18
 4200 0272 9642     		.uleb128 0x2116
 4201 0274 19       		.uleb128 0x19
 4202 0275 01       		.uleb128 0x1
 4203 0276 13       		.uleb128 0x13
 4204 0277 00       		.byte	0
 4205 0278 00       		.byte	0
 4206 0279 2C       		.uleb128 0x2c
 4207 027a 2E       		.uleb128 0x2e
 4208 027b 01       		.byte	0x1
 4209 027c 3F       		.uleb128 0x3f
 4210 027d 19       		.uleb128 0x19
 4211 027e 03       		.uleb128 0x3
 4212 027f 0E       		.uleb128 0xe
 4213 0280 3A       		.uleb128 0x3a
 4214 0281 0B       		.uleb128 0xb
 4215 0282 3B       		.uleb128 0x3b
 4216 0283 05       		.uleb128 0x5
 4217 0284 27       		.uleb128 0x27
 4218 0285 19       		.uleb128 0x19
 4219 0286 11       		.uleb128 0x11
 4220 0287 01       		.uleb128 0x1
 4221 0288 12       		.uleb128 0x12
 4222 0289 06       		.uleb128 0x6
 4223 028a 40       		.uleb128 0x40
 4224 028b 18       		.uleb128 0x18
 4225 028c 9742     		.uleb128 0x2117
 4226 028e 19       		.uleb128 0x19
 4227 028f 01       		.uleb128 0x1
 4228 0290 13       		.uleb128 0x13
 4229 0291 00       		.byte	0
 4230 0292 00       		.byte	0
 4231 0293 2D       		.uleb128 0x2d
ARM GAS  C:\Users\haske\AppData\Local\Temp\cc4gWNdf.s 			page 89


 4232 0294 34       		.uleb128 0x34
 4233 0295 00       		.byte	0
 4234 0296 03       		.uleb128 0x3
 4235 0297 0E       		.uleb128 0xe
 4236 0298 3A       		.uleb128 0x3a
 4237 0299 0B       		.uleb128 0xb
 4238 029a 3B       		.uleb128 0x3b
 4239 029b 05       		.uleb128 0x5
 4240 029c 49       		.uleb128 0x49
 4241 029d 13       		.uleb128 0x13
 4242 029e 02       		.uleb128 0x2
 4243 029f 17       		.uleb128 0x17
 4244 02a0 00       		.byte	0
 4245 02a1 00       		.byte	0
 4246 02a2 2E       		.uleb128 0x2e
 4247 02a3 34       		.uleb128 0x34
 4248 02a4 00       		.byte	0
 4249 02a5 03       		.uleb128 0x3
 4250 02a6 0E       		.uleb128 0xe
 4251 02a7 3A       		.uleb128 0x3a
 4252 02a8 0B       		.uleb128 0xb
 4253 02a9 3B       		.uleb128 0x3b
 4254 02aa 0B       		.uleb128 0xb
 4255 02ab 49       		.uleb128 0x49
 4256 02ac 13       		.uleb128 0x13
 4257 02ad 3F       		.uleb128 0x3f
 4258 02ae 19       		.uleb128 0x19
 4259 02af 3C       		.uleb128 0x3c
 4260 02b0 19       		.uleb128 0x19
 4261 02b1 00       		.byte	0
 4262 02b2 00       		.byte	0
 4263 02b3 2F       		.uleb128 0x2f
 4264 02b4 2E       		.uleb128 0x2e
 4265 02b5 00       		.byte	0
 4266 02b6 3F       		.uleb128 0x3f
 4267 02b7 19       		.uleb128 0x19
 4268 02b8 3C       		.uleb128 0x3c
 4269 02b9 19       		.uleb128 0x19
 4270 02ba 6E       		.uleb128 0x6e
 4271 02bb 0E       		.uleb128 0xe
 4272 02bc 03       		.uleb128 0x3
 4273 02bd 0E       		.uleb128 0xe
 4274 02be 3A       		.uleb128 0x3a
 4275 02bf 0B       		.uleb128 0xb
 4276 02c0 3B       		.uleb128 0x3b
 4277 02c1 0B       		.uleb128 0xb
 4278 02c2 00       		.byte	0
 4279 02c3 00       		.byte	0
 4280 02c4 00       		.byte	0
 4281              		.section	.debug_loc,"",%progbits
 4282              	.Ldebug_loc0:
 4283              	.LLST0:
 4284 0000 00000000 		.4byte	.LVL0
 4285 0004 04000000 		.4byte	.LVL1
 4286 0008 0100     		.2byte	0x1
 4287 000a 50       		.byte	0x50
 4288 000b 04000000 		.4byte	.LVL1
ARM GAS  C:\Users\haske\AppData\Local\Temp\cc4gWNdf.s 			page 90


 4289 000f 0E000000 		.4byte	.LFE43
 4290 0013 0100     		.2byte	0x1
 4291 0015 50       		.byte	0x50
 4292 0016 00000000 		.4byte	0
 4293 001a 00000000 		.4byte	0
 4294              	.LLST1:
 4295 001e 00000000 		.4byte	.LVL3
 4296 0022 22000000 		.4byte	.LVL10
 4297 0026 0100     		.2byte	0x1
 4298 0028 50       		.byte	0x50
 4299 0029 22000000 		.4byte	.LVL10
 4300 002d 44010000 		.4byte	.LVL53
 4301 0031 0100     		.2byte	0x1
 4302 0033 54       		.byte	0x54
 4303 0034 44010000 		.4byte	.LVL53
 4304 0038 4E010000 		.4byte	.LFE28
 4305 003c 0400     		.2byte	0x4
 4306 003e F3       		.byte	0xf3
 4307 003f 01       		.uleb128 0x1
 4308 0040 50       		.byte	0x50
 4309 0041 9F       		.byte	0x9f
 4310 0042 00000000 		.4byte	0
 4311 0046 00000000 		.4byte	0
 4312              	.LLST2:
 4313 004a 00000000 		.4byte	.LVL3
 4314 004e 1E000000 		.4byte	.LVL8
 4315 0052 0100     		.2byte	0x1
 4316 0054 51       		.byte	0x51
 4317 0055 1E000000 		.4byte	.LVL8
 4318 0059 4E010000 		.4byte	.LFE28
 4319 005d 0200     		.2byte	0x2
 4320 005f 91       		.byte	0x91
 4321 0060 54       		.sleb128 -44
 4322 0061 00000000 		.4byte	0
 4323 0065 00000000 		.4byte	0
 4324              	.LLST3:
 4325 0069 00000000 		.4byte	.LVL3
 4326 006d 1C000000 		.4byte	.LVL7
 4327 0071 0100     		.2byte	0x1
 4328 0073 52       		.byte	0x52
 4329 0074 1C000000 		.4byte	.LVL7
 4330 0078 C0000000 		.4byte	.LVL34
 4331 007c 0100     		.2byte	0x1
 4332 007e 55       		.byte	0x55
 4333 007f C0000000 		.4byte	.LVL34
 4334 0083 C6000000 		.4byte	.LVL35
 4335 0087 0400     		.2byte	0x4
 4336 0089 F3       		.byte	0xf3
 4337 008a 01       		.uleb128 0x1
 4338 008b 52       		.byte	0x52
 4339 008c 9F       		.byte	0x9f
 4340 008d C6000000 		.4byte	.LVL35
 4341 0091 20010000 		.4byte	.LVL49
 4342 0095 0100     		.2byte	0x1
 4343 0097 55       		.byte	0x55
 4344 0098 20010000 		.4byte	.LVL49
 4345 009c 22010000 		.4byte	.LVL50
ARM GAS  C:\Users\haske\AppData\Local\Temp\cc4gWNdf.s 			page 91


 4346 00a0 0100     		.2byte	0x1
 4347 00a2 52       		.byte	0x52
 4348 00a3 22010000 		.4byte	.LVL50
 4349 00a7 2E010000 		.4byte	.LVL52
 4350 00ab 0100     		.2byte	0x1
 4351 00ad 55       		.byte	0x55
 4352 00ae 2E010000 		.4byte	.LVL52
 4353 00b2 4E010000 		.4byte	.LFE28
 4354 00b6 0400     		.2byte	0x4
 4355 00b8 F3       		.byte	0xf3
 4356 00b9 01       		.uleb128 0x1
 4357 00ba 52       		.byte	0x52
 4358 00bb 9F       		.byte	0x9f
 4359 00bc 00000000 		.4byte	0
 4360 00c0 00000000 		.4byte	0
 4361              	.LLST4:
 4362 00c4 00000000 		.4byte	.LVL3
 4363 00c8 1A000000 		.4byte	.LVL6
 4364 00cc 0100     		.2byte	0x1
 4365 00ce 53       		.byte	0x53
 4366 00cf 1A000000 		.4byte	.LVL6
 4367 00d3 44010000 		.4byte	.LVL56
 4368 00d7 0100     		.2byte	0x1
 4369 00d9 59       		.byte	0x59
 4370 00da 44010000 		.4byte	.LVL56
 4371 00de 4E010000 		.4byte	.LFE28
 4372 00e2 0400     		.2byte	0x4
 4373 00e4 F3       		.byte	0xf3
 4374 00e5 01       		.uleb128 0x1
 4375 00e6 53       		.byte	0x53
 4376 00e7 9F       		.byte	0x9f
 4377 00e8 00000000 		.4byte	0
 4378 00ec 00000000 		.4byte	0
 4379              	.LLST5:
 4380 00f0 14000000 		.4byte	.LVL4
 4381 00f4 7A000000 		.4byte	.LVL25
 4382 00f8 0200     		.2byte	0x2
 4383 00fa 30       		.byte	0x30
 4384 00fb 9F       		.byte	0x9f
 4385 00fc 7A000000 		.4byte	.LVL25
 4386 0100 7C000000 		.4byte	.LVL26
 4387 0104 0100     		.2byte	0x1
 4388 0106 50       		.byte	0x50
 4389 0107 7C000000 		.4byte	.LVL26
 4390 010b 8E000000 		.4byte	.LVL28
 4391 010f 0200     		.2byte	0x2
 4392 0111 30       		.byte	0x30
 4393 0112 9F       		.byte	0x9f
 4394 0113 8E000000 		.4byte	.LVL28
 4395 0117 AE000000 		.4byte	.LVL31
 4396 011b 0100     		.2byte	0x1
 4397 011d 50       		.byte	0x50
 4398 011e AE000000 		.4byte	.LVL31
 4399 0122 C6000000 		.4byte	.LVL35
 4400 0126 0100     		.2byte	0x1
 4401 0128 56       		.byte	0x56
 4402 0129 C6000000 		.4byte	.LVL35
ARM GAS  C:\Users\haske\AppData\Local\Temp\cc4gWNdf.s 			page 92


 4403 012d DA000000 		.4byte	.LVL40
 4404 0131 0200     		.2byte	0x2
 4405 0133 30       		.byte	0x30
 4406 0134 9F       		.byte	0x9f
 4407 0135 DA000000 		.4byte	.LVL40
 4408 0139 DC000000 		.4byte	.LVL41
 4409 013d 0100     		.2byte	0x1
 4410 013f 50       		.byte	0x50
 4411 0140 DC000000 		.4byte	.LVL41
 4412 0144 0C010000 		.4byte	.LVL48
 4413 0148 0200     		.2byte	0x2
 4414 014a 30       		.byte	0x30
 4415 014b 9F       		.byte	0x9f
 4416 014c 0C010000 		.4byte	.LVL48
 4417 0150 2A010000 		.4byte	.LVL51
 4418 0154 0100     		.2byte	0x1
 4419 0156 50       		.byte	0x50
 4420 0157 2A010000 		.4byte	.LVL51
 4421 015b 44010000 		.4byte	.LVL54
 4422 015f 0100     		.2byte	0x1
 4423 0161 56       		.byte	0x56
 4424 0162 00000000 		.4byte	0
 4425 0166 00000000 		.4byte	0
 4426              	.LLST6:
 4427 016a 18000000 		.4byte	.LVL5
 4428 016e 38000000 		.4byte	.LVL15
 4429 0172 0100     		.2byte	0x1
 4430 0174 57       		.byte	0x57
 4431 0175 38000000 		.4byte	.LVL15
 4432 0179 4B000000 		.4byte	.LVL19-1
 4433 017d 0500     		.2byte	0x5
 4434 017f 74       		.byte	0x74
 4435 0180 08       		.sleb128 8
 4436 0181 06       		.byte	0x6
 4437 0182 23       		.byte	0x23
 4438 0183 08       		.uleb128 0x8
 4439 0184 54000000 		.4byte	.LVL20
 4440 0188 5D000000 		.4byte	.LVL23-1
 4441 018c 0500     		.2byte	0x5
 4442 018e 74       		.byte	0x74
 4443 018f 08       		.sleb128 8
 4444 0190 06       		.byte	0x6
 4445 0191 23       		.byte	0x23
 4446 0192 08       		.uleb128 0x8
 4447 0193 C6000000 		.4byte	.LVL35
 4448 0197 2E010000 		.4byte	.LVL52
 4449 019b 0100     		.2byte	0x1
 4450 019d 57       		.byte	0x57
 4451 019e 00000000 		.4byte	0
 4452 01a2 00000000 		.4byte	0
 4453              	.LLST7:
 4454 01a6 1A000000 		.4byte	.LVL6
 4455 01aa 36000000 		.4byte	.LVL14
 4456 01ae 0100     		.2byte	0x1
 4457 01b0 53       		.byte	0x53
 4458 01b1 36000000 		.4byte	.LVL14
 4459 01b5 4B000000 		.4byte	.LVL19-1
ARM GAS  C:\Users\haske\AppData\Local\Temp\cc4gWNdf.s 			page 93


 4460 01b9 0300     		.2byte	0x3
 4461 01bb 74       		.byte	0x74
 4462 01bc 08       		.sleb128 8
 4463 01bd 06       		.byte	0x6
 4464 01be 54000000 		.4byte	.LVL20
 4465 01c2 5D000000 		.4byte	.LVL23-1
 4466 01c6 0300     		.2byte	0x3
 4467 01c8 74       		.byte	0x74
 4468 01c9 08       		.sleb128 8
 4469 01ca 06       		.byte	0x6
 4470 01cb C6000000 		.4byte	.LVL35
 4471 01cf CE000000 		.4byte	.LVL36
 4472 01d3 0100     		.2byte	0x1
 4473 01d5 53       		.byte	0x53
 4474 01d6 CE000000 		.4byte	.LVL36
 4475 01da D0000000 		.4byte	.LVL37
 4476 01de 0300     		.2byte	0x3
 4477 01e0 74       		.byte	0x74
 4478 01e1 08       		.sleb128 8
 4479 01e2 06       		.byte	0x6
 4480 01e3 DC000000 		.4byte	.LVL41
 4481 01e7 DE000000 		.4byte	.LVL42
 4482 01eb 0100     		.2byte	0x1
 4483 01ed 53       		.byte	0x53
 4484 01ee DE000000 		.4byte	.LVL42
 4485 01f2 E7000000 		.4byte	.LVL44-1
 4486 01f6 0200     		.2byte	0x2
 4487 01f8 76       		.byte	0x76
 4488 01f9 00       		.sleb128 0
 4489 01fa 00000000 		.4byte	0
 4490 01fe 00000000 		.4byte	0
 4491              	.LLST8:
 4492 0202 1C000000 		.4byte	.LVL7
 4493 0206 46000000 		.4byte	.LVL18
 4494 020a 0100     		.2byte	0x1
 4495 020c 52       		.byte	0x52
 4496 020d 46000000 		.4byte	.LVL18
 4497 0211 4B000000 		.4byte	.LVL19-1
 4498 0215 0500     		.2byte	0x5
 4499 0217 74       		.byte	0x74
 4500 0218 08       		.sleb128 8
 4501 0219 06       		.byte	0x6
 4502 021a 23       		.byte	0x23
 4503 021b 04       		.uleb128 0x4
 4504 021c 54000000 		.4byte	.LVL20
 4505 0220 58000000 		.4byte	.LVL22
 4506 0224 0100     		.2byte	0x1
 4507 0226 52       		.byte	0x52
 4508 0227 58000000 		.4byte	.LVL22
 4509 022b 5D000000 		.4byte	.LVL23-1
 4510 022f 0500     		.2byte	0x5
 4511 0231 74       		.byte	0x74
 4512 0232 08       		.sleb128 8
 4513 0233 06       		.byte	0x6
 4514 0234 23       		.byte	0x23
 4515 0235 04       		.uleb128 0x4
 4516 0236 C6000000 		.4byte	.LVL35
ARM GAS  C:\Users\haske\AppData\Local\Temp\cc4gWNdf.s 			page 94


 4517 023a D4000000 		.4byte	.LVL38
 4518 023e 0100     		.2byte	0x1
 4519 0240 52       		.byte	0x52
 4520 0241 DC000000 		.4byte	.LVL41
 4521 0245 E7000000 		.4byte	.LVL44-1
 4522 0249 0100     		.2byte	0x1
 4523 024b 52       		.byte	0x52
 4524 024c 00000000 		.4byte	0
 4525 0250 00000000 		.4byte	0
 4526              	.LLST9:
 4527 0254 20000000 		.4byte	.LVL9
 4528 0258 24000000 		.4byte	.LVL11
 4529 025c 0100     		.2byte	0x1
 4530 025e 51       		.byte	0x51
 4531 025f 24000000 		.4byte	.LVL11
 4532 0263 E2000000 		.4byte	.LVL43
 4533 0267 0100     		.2byte	0x1
 4534 0269 58       		.byte	0x58
 4535 026a E2000000 		.4byte	.LVL43
 4536 026e E7000000 		.4byte	.LVL44-1
 4537 0272 0100     		.2byte	0x1
 4538 0274 53       		.byte	0x53
 4539 0275 E7000000 		.4byte	.LVL44-1
 4540 0279 F0000000 		.4byte	.LVL45
 4541 027d 0100     		.2byte	0x1
 4542 027f 58       		.byte	0x58
 4543 0280 F6000000 		.4byte	.LVL46
 4544 0284 44010000 		.4byte	.LVL55
 4545 0288 0100     		.2byte	0x1
 4546 028a 58       		.byte	0x58
 4547 028b 00000000 		.4byte	0
 4548 028f 00000000 		.4byte	0
 4549              	.LLST10:
 4550 0293 26000000 		.4byte	.LVL12
 4551 0297 44010000 		.4byte	.LVL57
 4552 029b 0100     		.2byte	0x1
 4553 029d 5A       		.byte	0x5a
 4554 029e 00000000 		.4byte	0
 4555 02a2 00000000 		.4byte	0
 4556              	.LLST11:
 4557 02a6 32000000 		.4byte	.LVL13
 4558 02aa 44000000 		.4byte	.LVL17
 4559 02ae 0100     		.2byte	0x1
 4560 02b0 51       		.byte	0x51
 4561 02b1 44000000 		.4byte	.LVL17
 4562 02b5 4B000000 		.4byte	.LVL19-1
 4563 02b9 0C00     		.2byte	0xc
 4564 02bb 74       		.byte	0x74
 4565 02bc 08       		.sleb128 8
 4566 02bd 06       		.byte	0x6
 4567 02be 23       		.byte	0x23
 4568 02bf 08       		.uleb128 0x8
 4569 02c0 06       		.byte	0x6
 4570 02c1 74       		.byte	0x74
 4571 02c2 08       		.sleb128 8
 4572 02c3 06       		.byte	0x6
 4573 02c4 06       		.byte	0x6
ARM GAS  C:\Users\haske\AppData\Local\Temp\cc4gWNdf.s 			page 95


 4574 02c5 1C       		.byte	0x1c
 4575 02c6 9F       		.byte	0x9f
 4576 02c7 54000000 		.4byte	.LVL20
 4577 02cb 56000000 		.4byte	.LVL21
 4578 02cf 0100     		.2byte	0x1
 4579 02d1 51       		.byte	0x51
 4580 02d2 56000000 		.4byte	.LVL21
 4581 02d6 5D000000 		.4byte	.LVL23-1
 4582 02da 0C00     		.2byte	0xc
 4583 02dc 74       		.byte	0x74
 4584 02dd 08       		.sleb128 8
 4585 02de 06       		.byte	0x6
 4586 02df 23       		.byte	0x23
 4587 02e0 08       		.uleb128 0x8
 4588 02e1 06       		.byte	0x6
 4589 02e2 74       		.byte	0x74
 4590 02e3 08       		.sleb128 8
 4591 02e4 06       		.byte	0x6
 4592 02e5 06       		.byte	0x6
 4593 02e6 1C       		.byte	0x1c
 4594 02e7 9F       		.byte	0x9f
 4595 02e8 00000000 		.4byte	0
 4596 02ec 00000000 		.4byte	0
 4597              	.LLST12:
 4598 02f0 3E000000 		.4byte	.LVL16
 4599 02f4 BA000000 		.4byte	.LVL33
 4600 02f8 0100     		.2byte	0x1
 4601 02fa 57       		.byte	0x57
 4602 02fb 00000000 		.4byte	0
 4603 02ff 00000000 		.4byte	0
 4604              	.LLST13:
 4605 0303 A6000000 		.4byte	.LVL29
 4606 0307 A8000000 		.4byte	.LVL30
 4607 030b 0100     		.2byte	0x1
 4608 030d 53       		.byte	0x53
 4609 030e 00000000 		.4byte	0
 4610 0312 00000000 		.4byte	0
 4611              	.LLST14:
 4612 0316 00000000 		.4byte	.LVL59
 4613 031a 06000000 		.4byte	.LVL60
 4614 031e 0100     		.2byte	0x1
 4615 0320 50       		.byte	0x50
 4616 0321 06000000 		.4byte	.LVL60
 4617 0325 46000000 		.4byte	.LVL66
 4618 0329 0100     		.2byte	0x1
 4619 032b 54       		.byte	0x54
 4620 032c 46000000 		.4byte	.LVL66
 4621 0330 48000000 		.4byte	.LFE27
 4622 0334 0400     		.2byte	0x4
 4623 0336 F3       		.byte	0xf3
 4624 0337 01       		.uleb128 0x1
 4625 0338 50       		.byte	0x50
 4626 0339 9F       		.byte	0x9f
 4627 033a 00000000 		.4byte	0
 4628 033e 00000000 		.4byte	0
 4629              	.LLST15:
 4630 0342 16000000 		.4byte	.LVL62
ARM GAS  C:\Users\haske\AppData\Local\Temp\cc4gWNdf.s 			page 96


 4631 0346 40000000 		.4byte	.LVL65
 4632 034a 0100     		.2byte	0x1
 4633 034c 55       		.byte	0x55
 4634 034d 00000000 		.4byte	0
 4635 0351 00000000 		.4byte	0
 4636              	.LLST16:
 4637 0355 00000000 		.4byte	.LVL67
 4638 0359 27000000 		.4byte	.LVL69-1
 4639 035d 0100     		.2byte	0x1
 4640 035f 50       		.byte	0x50
 4641 0360 27000000 		.4byte	.LVL69-1
 4642 0364 2A000000 		.4byte	.LVL70
 4643 0368 0400     		.2byte	0x4
 4644 036a F3       		.byte	0xf3
 4645 036b 01       		.uleb128 0x1
 4646 036c 50       		.byte	0x50
 4647 036d 9F       		.byte	0x9f
 4648 036e 2A000000 		.4byte	.LVL70
 4649 0372 2C000000 		.4byte	.LVL71
 4650 0376 0100     		.2byte	0x1
 4651 0378 50       		.byte	0x50
 4652 0379 2C000000 		.4byte	.LVL71
 4653 037d 44000000 		.4byte	.LVL75
 4654 0381 0400     		.2byte	0x4
 4655 0383 F3       		.byte	0xf3
 4656 0384 01       		.uleb128 0x1
 4657 0385 50       		.byte	0x50
 4658 0386 9F       		.byte	0x9f
 4659 0387 44000000 		.4byte	.LVL75
 4660 038b 46000000 		.4byte	.LVL76
 4661 038f 0100     		.2byte	0x1
 4662 0391 50       		.byte	0x50
 4663 0392 46000000 		.4byte	.LVL76
 4664 0396 48000000 		.4byte	.LVL77
 4665 039a 0400     		.2byte	0x4
 4666 039c F3       		.byte	0xf3
 4667 039d 01       		.uleb128 0x1
 4668 039e 50       		.byte	0x50
 4669 039f 9F       		.byte	0x9f
 4670 03a0 48000000 		.4byte	.LVL77
 4671 03a4 4A000000 		.4byte	.LVL78
 4672 03a8 0100     		.2byte	0x1
 4673 03aa 50       		.byte	0x50
 4674 03ab 4A000000 		.4byte	.LVL78
 4675 03af 4E000000 		.4byte	.LFE29
 4676 03b3 0400     		.2byte	0x4
 4677 03b5 F3       		.byte	0xf3
 4678 03b6 01       		.uleb128 0x1
 4679 03b7 50       		.byte	0x50
 4680 03b8 9F       		.byte	0x9f
 4681 03b9 00000000 		.4byte	0
 4682 03bd 00000000 		.4byte	0
 4683              	.LLST17:
 4684 03c1 00000000 		.4byte	.LVL67
 4685 03c5 27000000 		.4byte	.LVL69-1
 4686 03c9 0100     		.2byte	0x1
 4687 03cb 51       		.byte	0x51
ARM GAS  C:\Users\haske\AppData\Local\Temp\cc4gWNdf.s 			page 97


 4688 03cc 27000000 		.4byte	.LVL69-1
 4689 03d0 2A000000 		.4byte	.LVL70
 4690 03d4 0400     		.2byte	0x4
 4691 03d6 F3       		.byte	0xf3
 4692 03d7 01       		.uleb128 0x1
 4693 03d8 51       		.byte	0x51
 4694 03d9 9F       		.byte	0x9f
 4695 03da 2A000000 		.4byte	.LVL70
 4696 03de 36000000 		.4byte	.LVL73
 4697 03e2 0100     		.2byte	0x1
 4698 03e4 51       		.byte	0x51
 4699 03e5 36000000 		.4byte	.LVL73
 4700 03e9 39000000 		.4byte	.LVL74-1
 4701 03ed 0100     		.2byte	0x1
 4702 03ef 52       		.byte	0x52
 4703 03f0 39000000 		.4byte	.LVL74-1
 4704 03f4 44000000 		.4byte	.LVL75
 4705 03f8 0400     		.2byte	0x4
 4706 03fa F3       		.byte	0xf3
 4707 03fb 01       		.uleb128 0x1
 4708 03fc 51       		.byte	0x51
 4709 03fd 9F       		.byte	0x9f
 4710 03fe 44000000 		.4byte	.LVL75
 4711 0402 4A000000 		.4byte	.LVL78
 4712 0406 0100     		.2byte	0x1
 4713 0408 51       		.byte	0x51
 4714 0409 4A000000 		.4byte	.LVL78
 4715 040d 4E000000 		.4byte	.LFE29
 4716 0411 0400     		.2byte	0x4
 4717 0413 F3       		.byte	0xf3
 4718 0414 01       		.uleb128 0x1
 4719 0415 51       		.byte	0x51
 4720 0416 9F       		.byte	0x9f
 4721 0417 00000000 		.4byte	0
 4722 041b 00000000 		.4byte	0
 4723              	.LLST18:
 4724 041f 00000000 		.4byte	.LVL67
 4725 0423 27000000 		.4byte	.LVL69-1
 4726 0427 0100     		.2byte	0x1
 4727 0429 52       		.byte	0x52
 4728 042a 27000000 		.4byte	.LVL69-1
 4729 042e 2A000000 		.4byte	.LVL70
 4730 0432 0400     		.2byte	0x4
 4731 0434 F3       		.byte	0xf3
 4732 0435 01       		.uleb128 0x1
 4733 0436 52       		.byte	0x52
 4734 0437 9F       		.byte	0x9f
 4735 0438 2A000000 		.4byte	.LVL70
 4736 043c 34000000 		.4byte	.LVL72
 4737 0440 0100     		.2byte	0x1
 4738 0442 52       		.byte	0x52
 4739 0443 34000000 		.4byte	.LVL72
 4740 0447 39000000 		.4byte	.LVL74-1
 4741 044b 0100     		.2byte	0x1
 4742 044d 53       		.byte	0x53
 4743 044e 39000000 		.4byte	.LVL74-1
 4744 0452 44000000 		.4byte	.LVL75
ARM GAS  C:\Users\haske\AppData\Local\Temp\cc4gWNdf.s 			page 98


 4745 0456 0400     		.2byte	0x4
 4746 0458 F3       		.byte	0xf3
 4747 0459 01       		.uleb128 0x1
 4748 045a 52       		.byte	0x52
 4749 045b 9F       		.byte	0x9f
 4750 045c 44000000 		.4byte	.LVL75
 4751 0460 4A000000 		.4byte	.LVL78
 4752 0464 0100     		.2byte	0x1
 4753 0466 52       		.byte	0x52
 4754 0467 4A000000 		.4byte	.LVL78
 4755 046b 4E000000 		.4byte	.LFE29
 4756 046f 0400     		.2byte	0x4
 4757 0471 F3       		.byte	0xf3
 4758 0472 01       		.uleb128 0x1
 4759 0473 52       		.byte	0x52
 4760 0474 9F       		.byte	0x9f
 4761 0475 00000000 		.4byte	0
 4762 0479 00000000 		.4byte	0
 4763              	.LLST19:
 4764 047d 00000000 		.4byte	.LVL67
 4765 0481 0A000000 		.4byte	.LVL68
 4766 0485 0100     		.2byte	0x1
 4767 0487 53       		.byte	0x53
 4768 0488 0A000000 		.4byte	.LVL68
 4769 048c 4C000000 		.4byte	.LVL79
 4770 0490 0100     		.2byte	0x1
 4771 0492 54       		.byte	0x54
 4772 0493 4C000000 		.4byte	.LVL79
 4773 0497 4E000000 		.4byte	.LFE29
 4774 049b 0400     		.2byte	0x4
 4775 049d F3       		.byte	0xf3
 4776 049e 01       		.uleb128 0x1
 4777 049f 53       		.byte	0x53
 4778 04a0 9F       		.byte	0x9f
 4779 04a1 00000000 		.4byte	0
 4780 04a5 00000000 		.4byte	0
 4781              	.LLST20:
 4782 04a9 28000000 		.4byte	.LVL69
 4783 04ad 2A000000 		.4byte	.LVL70
 4784 04b1 0100     		.2byte	0x1
 4785 04b3 50       		.byte	0x50
 4786 04b4 3A000000 		.4byte	.LVL74
 4787 04b8 44000000 		.4byte	.LVL75
 4788 04bc 0100     		.2byte	0x1
 4789 04be 50       		.byte	0x50
 4790 04bf 00000000 		.4byte	0
 4791 04c3 00000000 		.4byte	0
 4792              	.LLST21:
 4793 04c7 00000000 		.4byte	.LVL80
 4794 04cb 1E000000 		.4byte	.LVL82
 4795 04cf 0100     		.2byte	0x1
 4796 04d1 50       		.byte	0x50
 4797 04d2 1E000000 		.4byte	.LVL82
 4798 04d6 36000000 		.4byte	.LVL86
 4799 04da 0400     		.2byte	0x4
 4800 04dc F3       		.byte	0xf3
 4801 04dd 01       		.uleb128 0x1
ARM GAS  C:\Users\haske\AppData\Local\Temp\cc4gWNdf.s 			page 99


 4802 04de 50       		.byte	0x50
 4803 04df 9F       		.byte	0x9f
 4804 04e0 36000000 		.4byte	.LVL86
 4805 04e4 38000000 		.4byte	.LVL87
 4806 04e8 0100     		.2byte	0x1
 4807 04ea 50       		.byte	0x50
 4808 04eb 38000000 		.4byte	.LVL87
 4809 04ef 3A000000 		.4byte	.LVL88
 4810 04f3 0400     		.2byte	0x4
 4811 04f5 F3       		.byte	0xf3
 4812 04f6 01       		.uleb128 0x1
 4813 04f7 50       		.byte	0x50
 4814 04f8 9F       		.byte	0x9f
 4815 04f9 3A000000 		.4byte	.LVL88
 4816 04fd 3C000000 		.4byte	.LVL89
 4817 0501 0100     		.2byte	0x1
 4818 0503 50       		.byte	0x50
 4819 0504 3C000000 		.4byte	.LVL89
 4820 0508 40000000 		.4byte	.LFE30
 4821 050c 0400     		.2byte	0x4
 4822 050e F3       		.byte	0xf3
 4823 050f 01       		.uleb128 0x1
 4824 0510 50       		.byte	0x50
 4825 0511 9F       		.byte	0x9f
 4826 0512 00000000 		.4byte	0
 4827 0516 00000000 		.4byte	0
 4828              	.LLST22:
 4829 051a 00000000 		.4byte	.LVL80
 4830 051e 28000000 		.4byte	.LVL84
 4831 0522 0100     		.2byte	0x1
 4832 0524 51       		.byte	0x51
 4833 0525 28000000 		.4byte	.LVL84
 4834 0529 2B000000 		.4byte	.LVL85-1
 4835 052d 0100     		.2byte	0x1
 4836 052f 52       		.byte	0x52
 4837 0530 2B000000 		.4byte	.LVL85-1
 4838 0534 36000000 		.4byte	.LVL86
 4839 0538 0400     		.2byte	0x4
 4840 053a F3       		.byte	0xf3
 4841 053b 01       		.uleb128 0x1
 4842 053c 51       		.byte	0x51
 4843 053d 9F       		.byte	0x9f
 4844 053e 36000000 		.4byte	.LVL86
 4845 0542 3C000000 		.4byte	.LVL89
 4846 0546 0100     		.2byte	0x1
 4847 0548 51       		.byte	0x51
 4848 0549 3C000000 		.4byte	.LVL89
 4849 054d 40000000 		.4byte	.LFE30
 4850 0551 0400     		.2byte	0x4
 4851 0553 F3       		.byte	0xf3
 4852 0554 01       		.uleb128 0x1
 4853 0555 51       		.byte	0x51
 4854 0556 9F       		.byte	0x9f
 4855 0557 00000000 		.4byte	0
 4856 055b 00000000 		.4byte	0
 4857              	.LLST23:
 4858 055f 00000000 		.4byte	.LVL80
ARM GAS  C:\Users\haske\AppData\Local\Temp\cc4gWNdf.s 			page 100


 4859 0563 26000000 		.4byte	.LVL83
 4860 0567 0100     		.2byte	0x1
 4861 0569 52       		.byte	0x52
 4862 056a 26000000 		.4byte	.LVL83
 4863 056e 2B000000 		.4byte	.LVL85-1
 4864 0572 0100     		.2byte	0x1
 4865 0574 53       		.byte	0x53
 4866 0575 2B000000 		.4byte	.LVL85-1
 4867 0579 36000000 		.4byte	.LVL86
 4868 057d 0400     		.2byte	0x4
 4869 057f F3       		.byte	0xf3
 4870 0580 01       		.uleb128 0x1
 4871 0581 52       		.byte	0x52
 4872 0582 9F       		.byte	0x9f
 4873 0583 36000000 		.4byte	.LVL86
 4874 0587 3C000000 		.4byte	.LVL89
 4875 058b 0100     		.2byte	0x1
 4876 058d 52       		.byte	0x52
 4877 058e 3C000000 		.4byte	.LVL89
 4878 0592 40000000 		.4byte	.LFE30
 4879 0596 0400     		.2byte	0x4
 4880 0598 F3       		.byte	0xf3
 4881 0599 01       		.uleb128 0x1
 4882 059a 52       		.byte	0x52
 4883 059b 9F       		.byte	0x9f
 4884 059c 00000000 		.4byte	0
 4885 05a0 00000000 		.4byte	0
 4886              	.LLST24:
 4887 05a4 00000000 		.4byte	.LVL80
 4888 05a8 0A000000 		.4byte	.LVL81
 4889 05ac 0100     		.2byte	0x1
 4890 05ae 53       		.byte	0x53
 4891 05af 0A000000 		.4byte	.LVL81
 4892 05b3 3E000000 		.4byte	.LVL90
 4893 05b7 0100     		.2byte	0x1
 4894 05b9 54       		.byte	0x54
 4895 05ba 3E000000 		.4byte	.LVL90
 4896 05be 40000000 		.4byte	.LFE30
 4897 05c2 0400     		.2byte	0x4
 4898 05c4 F3       		.byte	0xf3
 4899 05c5 01       		.uleb128 0x1
 4900 05c6 53       		.byte	0x53
 4901 05c7 9F       		.byte	0x9f
 4902 05c8 00000000 		.4byte	0
 4903 05cc 00000000 		.4byte	0
 4904              	.LLST25:
 4905 05d0 2C000000 		.4byte	.LVL85
 4906 05d4 36000000 		.4byte	.LVL86
 4907 05d8 0100     		.2byte	0x1
 4908 05da 50       		.byte	0x50
 4909 05db 00000000 		.4byte	0
 4910 05df 00000000 		.4byte	0
 4911              	.LLST26:
 4912 05e3 00000000 		.4byte	.LVL91
 4913 05e7 08000000 		.4byte	.LVL92
 4914 05eb 0100     		.2byte	0x1
 4915 05ed 50       		.byte	0x50
ARM GAS  C:\Users\haske\AppData\Local\Temp\cc4gWNdf.s 			page 101


 4916 05ee 08000000 		.4byte	.LVL92
 4917 05f2 90000000 		.4byte	.LVL108
 4918 05f6 0100     		.2byte	0x1
 4919 05f8 54       		.byte	0x54
 4920 05f9 90000000 		.4byte	.LVL108
 4921 05fd 9A000000 		.4byte	.LVL112
 4922 0601 0400     		.2byte	0x4
 4923 0603 F3       		.byte	0xf3
 4924 0604 01       		.uleb128 0x1
 4925 0605 50       		.byte	0x50
 4926 0606 9F       		.byte	0x9f
 4927 0607 9A000000 		.4byte	.LVL112
 4928 060b AC000000 		.4byte	.LVL115
 4929 060f 0100     		.2byte	0x1
 4930 0611 54       		.byte	0x54
 4931 0612 AC000000 		.4byte	.LVL115
 4932 0616 B0000000 		.4byte	.LFE31
 4933 061a 0400     		.2byte	0x4
 4934 061c F3       		.byte	0xf3
 4935 061d 01       		.uleb128 0x1
 4936 061e 50       		.byte	0x50
 4937 061f 9F       		.byte	0x9f
 4938 0620 00000000 		.4byte	0
 4939 0624 00000000 		.4byte	0
 4940              	.LLST27:
 4941 0628 00000000 		.4byte	.LVL91
 4942 062c 30000000 		.4byte	.LVL95
 4943 0630 0100     		.2byte	0x1
 4944 0632 51       		.byte	0x51
 4945 0633 30000000 		.4byte	.LVL95
 4946 0637 46000000 		.4byte	.LVL97
 4947 063b 0400     		.2byte	0x4
 4948 063d F3       		.byte	0xf3
 4949 063e 01       		.uleb128 0x1
 4950 063f 51       		.byte	0x51
 4951 0640 9F       		.byte	0x9f
 4952 0641 46000000 		.4byte	.LVL97
 4953 0645 4E000000 		.4byte	.LVL99
 4954 0649 0100     		.2byte	0x1
 4955 064b 51       		.byte	0x51
 4956 064c 4E000000 		.4byte	.LVL99
 4957 0650 6C000000 		.4byte	.LVL101
 4958 0654 0400     		.2byte	0x4
 4959 0656 F3       		.byte	0xf3
 4960 0657 01       		.uleb128 0x1
 4961 0658 51       		.byte	0x51
 4962 0659 9F       		.byte	0x9f
 4963 065a 6C000000 		.4byte	.LVL101
 4964 065e 72000000 		.4byte	.LVL103
 4965 0662 0100     		.2byte	0x1
 4966 0664 51       		.byte	0x51
 4967 0665 72000000 		.4byte	.LVL103
 4968 0669 73000000 		.4byte	.LVL104-1
 4969 066d 0100     		.2byte	0x1
 4970 066f 52       		.byte	0x52
 4971 0670 73000000 		.4byte	.LVL104-1
 4972 0674 8E000000 		.4byte	.LVL107
ARM GAS  C:\Users\haske\AppData\Local\Temp\cc4gWNdf.s 			page 102


 4973 0678 0400     		.2byte	0x4
 4974 067a F3       		.byte	0xf3
 4975 067b 01       		.uleb128 0x1
 4976 067c 51       		.byte	0x51
 4977 067d 9F       		.byte	0x9f
 4978 067e 8E000000 		.4byte	.LVL107
 4979 0682 96000000 		.4byte	.LVL110
 4980 0686 0100     		.2byte	0x1
 4981 0688 51       		.byte	0x51
 4982 0689 96000000 		.4byte	.LVL110
 4983 068d 97000000 		.4byte	.LVL111-1
 4984 0691 0100     		.2byte	0x1
 4985 0693 52       		.byte	0x52
 4986 0694 97000000 		.4byte	.LVL111-1
 4987 0698 9A000000 		.4byte	.LVL112
 4988 069c 0400     		.2byte	0x4
 4989 069e F3       		.byte	0xf3
 4990 069f 01       		.uleb128 0x1
 4991 06a0 51       		.byte	0x51
 4992 06a1 9F       		.byte	0x9f
 4993 06a2 9A000000 		.4byte	.LVL112
 4994 06a6 A6000000 		.4byte	.LVL114
 4995 06aa 0100     		.2byte	0x1
 4996 06ac 51       		.byte	0x51
 4997 06ad A6000000 		.4byte	.LVL114
 4998 06b1 B0000000 		.4byte	.LFE31
 4999 06b5 0400     		.2byte	0x4
 5000 06b7 F3       		.byte	0xf3
 5001 06b8 01       		.uleb128 0x1
 5002 06b9 51       		.byte	0x51
 5003 06ba 9F       		.byte	0x9f
 5004 06bb 00000000 		.4byte	0
 5005 06bf 00000000 		.4byte	0
 5006              	.LLST28:
 5007 06c3 00000000 		.4byte	.LVL91
 5008 06c7 2E000000 		.4byte	.LVL94
 5009 06cb 0100     		.2byte	0x1
 5010 06cd 52       		.byte	0x52
 5011 06ce 2E000000 		.4byte	.LVL94
 5012 06d2 46000000 		.4byte	.LVL97
 5013 06d6 0400     		.2byte	0x4
 5014 06d8 F3       		.byte	0xf3
 5015 06d9 01       		.uleb128 0x1
 5016 06da 52       		.byte	0x52
 5017 06db 9F       		.byte	0x9f
 5018 06dc 46000000 		.4byte	.LVL97
 5019 06e0 4A000000 		.4byte	.LVL98
 5020 06e4 0100     		.2byte	0x1
 5021 06e6 52       		.byte	0x52
 5022 06e7 4A000000 		.4byte	.LVL98
 5023 06eb 6C000000 		.4byte	.LVL101
 5024 06ef 0400     		.2byte	0x4
 5025 06f1 F3       		.byte	0xf3
 5026 06f2 01       		.uleb128 0x1
 5027 06f3 52       		.byte	0x52
 5028 06f4 9F       		.byte	0x9f
 5029 06f5 6C000000 		.4byte	.LVL101
ARM GAS  C:\Users\haske\AppData\Local\Temp\cc4gWNdf.s 			page 103


 5030 06f9 70000000 		.4byte	.LVL102
 5031 06fd 0100     		.2byte	0x1
 5032 06ff 52       		.byte	0x52
 5033 0700 70000000 		.4byte	.LVL102
 5034 0704 8E000000 		.4byte	.LVL107
 5035 0708 0400     		.2byte	0x4
 5036 070a F3       		.byte	0xf3
 5037 070b 01       		.uleb128 0x1
 5038 070c 52       		.byte	0x52
 5039 070d 9F       		.byte	0x9f
 5040 070e 8E000000 		.4byte	.LVL107
 5041 0712 94000000 		.4byte	.LVL109
 5042 0716 0100     		.2byte	0x1
 5043 0718 52       		.byte	0x52
 5044 0719 94000000 		.4byte	.LVL109
 5045 071d 9A000000 		.4byte	.LVL112
 5046 0721 0400     		.2byte	0x4
 5047 0723 F3       		.byte	0xf3
 5048 0724 01       		.uleb128 0x1
 5049 0725 52       		.byte	0x52
 5050 0726 9F       		.byte	0x9f
 5051 0727 9A000000 		.4byte	.LVL112
 5052 072b A6000000 		.4byte	.LVL114
 5053 072f 0100     		.2byte	0x1
 5054 0731 52       		.byte	0x52
 5055 0732 A6000000 		.4byte	.LVL114
 5056 0736 B0000000 		.4byte	.LFE31
 5057 073a 0400     		.2byte	0x4
 5058 073c F3       		.byte	0xf3
 5059 073d 01       		.uleb128 0x1
 5060 073e 52       		.byte	0x52
 5061 073f 9F       		.byte	0x9f
 5062 0740 00000000 		.4byte	0
 5063 0744 00000000 		.4byte	0
 5064              	.LLST29:
 5065 0748 12000000 		.4byte	.LVL93
 5066 074c 44000000 		.4byte	.LVL96
 5067 0750 0200     		.2byte	0x2
 5068 0752 30       		.byte	0x30
 5069 0753 9F       		.byte	0x9f
 5070 0754 44000000 		.4byte	.LVL96
 5071 0758 46000000 		.4byte	.LVL97
 5072 075c 0100     		.2byte	0x1
 5073 075e 50       		.byte	0x50
 5074 075f 46000000 		.4byte	.LVL97
 5075 0763 6A000000 		.4byte	.LVL100
 5076 0767 0200     		.2byte	0x2
 5077 0769 30       		.byte	0x30
 5078 076a 9F       		.byte	0x9f
 5079 076b 6A000000 		.4byte	.LVL100
 5080 076f 6C000000 		.4byte	.LVL101
 5081 0773 0100     		.2byte	0x1
 5082 0775 50       		.byte	0x50
 5083 0776 6C000000 		.4byte	.LVL101
 5084 077a 74000000 		.4byte	.LVL104
 5085 077e 0200     		.2byte	0x2
 5086 0780 30       		.byte	0x30
ARM GAS  C:\Users\haske\AppData\Local\Temp\cc4gWNdf.s 			page 104


 5087 0781 9F       		.byte	0x9f
 5088 0782 74000000 		.4byte	.LVL104
 5089 0786 7A000000 		.4byte	.LVL105
 5090 078a 0100     		.2byte	0x1
 5091 078c 50       		.byte	0x50
 5092 078d 82000000 		.4byte	.LVL106
 5093 0791 8E000000 		.4byte	.LVL107
 5094 0795 0100     		.2byte	0x1
 5095 0797 50       		.byte	0x50
 5096 0798 8E000000 		.4byte	.LVL107
 5097 079c 98000000 		.4byte	.LVL111
 5098 07a0 0200     		.2byte	0x2
 5099 07a2 30       		.byte	0x30
 5100 07a3 9F       		.byte	0x9f
 5101 07a4 98000000 		.4byte	.LVL111
 5102 07a8 9A000000 		.4byte	.LVL112
 5103 07ac 0100     		.2byte	0x1
 5104 07ae 50       		.byte	0x50
 5105 07af A2000000 		.4byte	.LVL113
 5106 07b3 AC000000 		.4byte	.LVL115
 5107 07b7 0200     		.2byte	0x2
 5108 07b9 30       		.byte	0x30
 5109 07ba 9F       		.byte	0x9f
 5110 07bb 00000000 		.4byte	0
 5111 07bf 00000000 		.4byte	0
 5112              	.LLST30:
 5113 07c3 00000000 		.4byte	.LVL116
 5114 07c7 0C000000 		.4byte	.LVL117
 5115 07cb 0100     		.2byte	0x1
 5116 07cd 50       		.byte	0x50
 5117 07ce 0C000000 		.4byte	.LVL117
 5118 07d2 0E000000 		.4byte	.LVL118
 5119 07d6 0400     		.2byte	0x4
 5120 07d8 F3       		.byte	0xf3
 5121 07d9 01       		.uleb128 0x1
 5122 07da 50       		.byte	0x50
 5123 07db 9F       		.byte	0x9f
 5124 07dc 0E000000 		.4byte	.LVL118
 5125 07e0 1A000000 		.4byte	.LVL119
 5126 07e4 0100     		.2byte	0x1
 5127 07e6 50       		.byte	0x50
 5128 07e7 1A000000 		.4byte	.LVL119
 5129 07eb 1C000000 		.4byte	.LVL120
 5130 07ef 0400     		.2byte	0x4
 5131 07f1 F3       		.byte	0xf3
 5132 07f2 01       		.uleb128 0x1
 5133 07f3 50       		.byte	0x50
 5134 07f4 9F       		.byte	0x9f
 5135 07f5 1C000000 		.4byte	.LVL120
 5136 07f9 2A000000 		.4byte	.LVL122
 5137 07fd 0100     		.2byte	0x1
 5138 07ff 50       		.byte	0x50
 5139 0800 2A000000 		.4byte	.LVL122
 5140 0804 2C000000 		.4byte	.LVL123
 5141 0808 0400     		.2byte	0x4
 5142 080a F3       		.byte	0xf3
 5143 080b 01       		.uleb128 0x1
ARM GAS  C:\Users\haske\AppData\Local\Temp\cc4gWNdf.s 			page 105


 5144 080c 50       		.byte	0x50
 5145 080d 9F       		.byte	0x9f
 5146 080e 2C000000 		.4byte	.LVL123
 5147 0812 2E000000 		.4byte	.LVL124
 5148 0816 0100     		.2byte	0x1
 5149 0818 50       		.byte	0x50
 5150 0819 2E000000 		.4byte	.LVL124
 5151 081d 38000000 		.4byte	.LFE32
 5152 0821 0400     		.2byte	0x4
 5153 0823 F3       		.byte	0xf3
 5154 0824 01       		.uleb128 0x1
 5155 0825 50       		.byte	0x50
 5156 0826 9F       		.byte	0x9f
 5157 0827 00000000 		.4byte	0
 5158 082b 00000000 		.4byte	0
 5159              	.LLST31:
 5160 082f 00000000 		.4byte	.LVL116
 5161 0833 32000000 		.4byte	.LVL125
 5162 0837 0100     		.2byte	0x1
 5163 0839 51       		.byte	0x51
 5164 083a 32000000 		.4byte	.LVL125
 5165 083e 35000000 		.4byte	.LVL126-1
 5166 0842 0100     		.2byte	0x1
 5167 0844 52       		.byte	0x52
 5168 0845 35000000 		.4byte	.LVL126-1
 5169 0849 38000000 		.4byte	.LFE32
 5170 084d 0400     		.2byte	0x4
 5171 084f F3       		.byte	0xf3
 5172 0850 01       		.uleb128 0x1
 5173 0851 51       		.byte	0x51
 5174 0852 9F       		.byte	0x9f
 5175 0853 00000000 		.4byte	0
 5176 0857 00000000 		.4byte	0
 5177              	.LLST32:
 5178 085b 28000000 		.4byte	.LVL121
 5179 085f 2C000000 		.4byte	.LVL123
 5180 0863 0200     		.2byte	0x2
 5181 0865 30       		.byte	0x30
 5182 0866 9F       		.byte	0x9f
 5183 0867 00000000 		.4byte	0
 5184 086b 00000000 		.4byte	0
 5185              	.LLST33:
 5186 086f 00000000 		.4byte	.LVL127
 5187 0873 0A000000 		.4byte	.LVL128
 5188 0877 0100     		.2byte	0x1
 5189 0879 50       		.byte	0x50
 5190 087a 0A000000 		.4byte	.LVL128
 5191 087e 2E000000 		.4byte	.LFE34
 5192 0882 0400     		.2byte	0x4
 5193 0884 F3       		.byte	0xf3
 5194 0885 01       		.uleb128 0x1
 5195 0886 50       		.byte	0x50
 5196 0887 9F       		.byte	0x9f
 5197 0888 00000000 		.4byte	0
 5198 088c 00000000 		.4byte	0
 5199              	.LLST34:
 5200 0890 00000000 		.4byte	.LVL127
ARM GAS  C:\Users\haske\AppData\Local\Temp\cc4gWNdf.s 			page 106


 5201 0894 28000000 		.4byte	.LVL129
 5202 0898 0100     		.2byte	0x1
 5203 089a 51       		.byte	0x51
 5204 089b 28000000 		.4byte	.LVL129
 5205 089f 2B000000 		.4byte	.LVL130-1
 5206 08a3 0100     		.2byte	0x1
 5207 08a5 52       		.byte	0x52
 5208 08a6 2B000000 		.4byte	.LVL130-1
 5209 08aa 2E000000 		.4byte	.LFE34
 5210 08ae 0400     		.2byte	0x4
 5211 08b0 F3       		.byte	0xf3
 5212 08b1 01       		.uleb128 0x1
 5213 08b2 51       		.byte	0x51
 5214 08b3 9F       		.byte	0x9f
 5215 08b4 00000000 		.4byte	0
 5216 08b8 00000000 		.4byte	0
 5217              	.LLST35:
 5218 08bc 00000000 		.4byte	.LVL131
 5219 08c0 06000000 		.4byte	.LVL132
 5220 08c4 0100     		.2byte	0x1
 5221 08c6 50       		.byte	0x50
 5222 08c7 06000000 		.4byte	.LVL132
 5223 08cb 2A000000 		.4byte	.LVL135
 5224 08cf 0100     		.2byte	0x1
 5225 08d1 54       		.byte	0x54
 5226 08d2 2A000000 		.4byte	.LVL135
 5227 08d6 2C000000 		.4byte	.LFE35
 5228 08da 0400     		.2byte	0x4
 5229 08dc F3       		.byte	0xf3
 5230 08dd 01       		.uleb128 0x1
 5231 08de 50       		.byte	0x50
 5232 08df 9F       		.byte	0x9f
 5233 08e0 00000000 		.4byte	0
 5234 08e4 00000000 		.4byte	0
 5235              	.LLST36:
 5236 08e8 18000000 		.4byte	.LVL133
 5237 08ec 20000000 		.4byte	.LVL134
 5238 08f0 0100     		.2byte	0x1
 5239 08f2 50       		.byte	0x50
 5240 08f3 00000000 		.4byte	0
 5241 08f7 00000000 		.4byte	0
 5242              	.LLST37:
 5243 08fb 00000000 		.4byte	.LVL136
 5244 08ff 07000000 		.4byte	.LVL137-1
 5245 0903 0100     		.2byte	0x1
 5246 0905 50       		.byte	0x50
 5247 0906 07000000 		.4byte	.LVL137-1
 5248 090a 0A000000 		.4byte	.LFE36
 5249 090e 0400     		.2byte	0x4
 5250 0910 F3       		.byte	0xf3
 5251 0911 01       		.uleb128 0x1
 5252 0912 50       		.byte	0x50
 5253 0913 9F       		.byte	0x9f
 5254 0914 00000000 		.4byte	0
 5255 0918 00000000 		.4byte	0
 5256              	.LLST38:
 5257 091c 00000000 		.4byte	.LVL138
ARM GAS  C:\Users\haske\AppData\Local\Temp\cc4gWNdf.s 			page 107


 5258 0920 06000000 		.4byte	.LVL139
 5259 0924 0100     		.2byte	0x1
 5260 0926 50       		.byte	0x50
 5261 0927 06000000 		.4byte	.LVL139
 5262 092b 16000000 		.4byte	.LVL141
 5263 092f 0100     		.2byte	0x1
 5264 0931 54       		.byte	0x54
 5265 0932 16000000 		.4byte	.LVL141
 5266 0936 1C000000 		.4byte	.LFE37
 5267 093a 0400     		.2byte	0x4
 5268 093c F3       		.byte	0xf3
 5269 093d 01       		.uleb128 0x1
 5270 093e 50       		.byte	0x50
 5271 093f 9F       		.byte	0x9f
 5272 0940 00000000 		.4byte	0
 5273 0944 00000000 		.4byte	0
 5274              	.LLST39:
 5275 0948 00000000 		.4byte	.LVL142
 5276 094c 06000000 		.4byte	.LVL143
 5277 0950 0100     		.2byte	0x1
 5278 0952 50       		.byte	0x50
 5279 0953 06000000 		.4byte	.LVL143
 5280 0957 2C000000 		.4byte	.LFE38
 5281 095b 0400     		.2byte	0x4
 5282 095d F3       		.byte	0xf3
 5283 095e 01       		.uleb128 0x1
 5284 095f 50       		.byte	0x50
 5285 0960 9F       		.byte	0x9f
 5286 0961 00000000 		.4byte	0
 5287 0965 00000000 		.4byte	0
 5288              	.LLST40:
 5289 0969 0C000000 		.4byte	.LVL145
 5290 096d 10000000 		.4byte	.LVL146
 5291 0971 0100     		.2byte	0x1
 5292 0973 50       		.byte	0x50
 5293 0974 10000000 		.4byte	.LVL146
 5294 0978 1B000000 		.4byte	.LVL147-1
 5295 097c 0100     		.2byte	0x1
 5296 097e 51       		.byte	0x51
 5297 097f 1E000000 		.4byte	.LVL148
 5298 0983 24000000 		.4byte	.LVL149
 5299 0987 0100     		.2byte	0x1
 5300 0989 50       		.byte	0x50
 5301 098a 24000000 		.4byte	.LVL149
 5302 098e 2C000000 		.4byte	.LFE38
 5303 0992 0100     		.2byte	0x1
 5304 0994 51       		.byte	0x51
 5305 0995 00000000 		.4byte	0
 5306 0999 00000000 		.4byte	0
 5307              	.LLST41:
 5308 099d 00000000 		.4byte	.LVL150
 5309 09a1 05000000 		.4byte	.LVL151-1
 5310 09a5 0100     		.2byte	0x1
 5311 09a7 50       		.byte	0x50
 5312 09a8 05000000 		.4byte	.LVL151-1
 5313 09ac 1C000000 		.4byte	.LFE25
 5314 09b0 0400     		.2byte	0x4
ARM GAS  C:\Users\haske\AppData\Local\Temp\cc4gWNdf.s 			page 108


 5315 09b2 F3       		.byte	0xf3
 5316 09b3 01       		.uleb128 0x1
 5317 09b4 50       		.byte	0x50
 5318 09b5 9F       		.byte	0x9f
 5319 09b6 00000000 		.4byte	0
 5320 09ba 00000000 		.4byte	0
 5321              	.LLST42:
 5322 09be 06000000 		.4byte	.LVL151
 5323 09c2 11000000 		.4byte	.LVL152-1
 5324 09c6 0100     		.2byte	0x1
 5325 09c8 50       		.byte	0x50
 5326 09c9 14000000 		.4byte	.LVL153
 5327 09cd 16000000 		.4byte	.LVL154
 5328 09d1 0100     		.2byte	0x1
 5329 09d3 50       		.byte	0x50
 5330 09d4 18000000 		.4byte	.LVL155
 5331 09d8 1A000000 		.4byte	.LVL156
 5332 09dc 0100     		.2byte	0x1
 5333 09de 50       		.byte	0x50
 5334 09df 00000000 		.4byte	0
 5335 09e3 00000000 		.4byte	0
 5336              	.LLST43:
 5337 09e7 00000000 		.4byte	.LVL157
 5338 09eb 0E000000 		.4byte	.LVL158
 5339 09ef 0100     		.2byte	0x1
 5340 09f1 50       		.byte	0x50
 5341 09f2 0E000000 		.4byte	.LVL158
 5342 09f6 6C000000 		.4byte	.LVL169
 5343 09fa 0100     		.2byte	0x1
 5344 09fc 56       		.byte	0x56
 5345 09fd 6C000000 		.4byte	.LVL169
 5346 0a01 6E000000 		.4byte	.LVL170
 5347 0a05 0100     		.2byte	0x1
 5348 0a07 50       		.byte	0x50
 5349 0a08 6E000000 		.4byte	.LVL170
 5350 0a0c 84000000 		.4byte	.LVL178
 5351 0a10 0100     		.2byte	0x1
 5352 0a12 56       		.byte	0x56
 5353 0a13 84000000 		.4byte	.LVL178
 5354 0a17 86000000 		.4byte	.LFE26
 5355 0a1b 0400     		.2byte	0x4
 5356 0a1d F3       		.byte	0xf3
 5357 0a1e 01       		.uleb128 0x1
 5358 0a1f 50       		.byte	0x50
 5359 0a20 9F       		.byte	0x9f
 5360 0a21 00000000 		.4byte	0
 5361 0a25 00000000 		.4byte	0
 5362              	.LLST44:
 5363 0a29 00000000 		.4byte	.LVL157
 5364 0a2d 11000000 		.4byte	.LVL159-1
 5365 0a31 0100     		.2byte	0x1
 5366 0a33 51       		.byte	0x51
 5367 0a34 11000000 		.4byte	.LVL159-1
 5368 0a38 6C000000 		.4byte	.LVL169
 5369 0a3c 0100     		.2byte	0x1
 5370 0a3e 54       		.byte	0x54
 5371 0a3f 6C000000 		.4byte	.LVL169
ARM GAS  C:\Users\haske\AppData\Local\Temp\cc4gWNdf.s 			page 109


 5372 0a43 70000000 		.4byte	.LVL171
 5373 0a47 0100     		.2byte	0x1
 5374 0a49 51       		.byte	0x51
 5375 0a4a 70000000 		.4byte	.LVL171
 5376 0a4e 84000000 		.4byte	.LVL177
 5377 0a52 0100     		.2byte	0x1
 5378 0a54 54       		.byte	0x54
 5379 0a55 84000000 		.4byte	.LVL177
 5380 0a59 86000000 		.4byte	.LFE26
 5381 0a5d 0400     		.2byte	0x4
 5382 0a5f F3       		.byte	0xf3
 5383 0a60 01       		.uleb128 0x1
 5384 0a61 51       		.byte	0x51
 5385 0a62 9F       		.byte	0x9f
 5386 0a63 00000000 		.4byte	0
 5387 0a67 00000000 		.4byte	0
 5388              	.LLST45:
 5389 0a6b 00000000 		.4byte	.LVL157
 5390 0a6f 11000000 		.4byte	.LVL159-1
 5391 0a73 0100     		.2byte	0x1
 5392 0a75 52       		.byte	0x52
 5393 0a76 11000000 		.4byte	.LVL159-1
 5394 0a7a 6C000000 		.4byte	.LVL169
 5395 0a7e 0400     		.2byte	0x4
 5396 0a80 F3       		.byte	0xf3
 5397 0a81 01       		.uleb128 0x1
 5398 0a82 52       		.byte	0x52
 5399 0a83 9F       		.byte	0x9f
 5400 0a84 6C000000 		.4byte	.LVL169
 5401 0a88 70000000 		.4byte	.LVL171
 5402 0a8c 0100     		.2byte	0x1
 5403 0a8e 52       		.byte	0x52
 5404 0a8f 70000000 		.4byte	.LVL171
 5405 0a93 86000000 		.4byte	.LFE26
 5406 0a97 0400     		.2byte	0x4
 5407 0a99 F3       		.byte	0xf3
 5408 0a9a 01       		.uleb128 0x1
 5409 0a9b 52       		.byte	0x52
 5410 0a9c 9F       		.byte	0x9f
 5411 0a9d 00000000 		.4byte	0
 5412 0aa1 00000000 		.4byte	0
 5413              	.LLST46:
 5414 0aa5 0E000000 		.4byte	.LVL158
 5415 0aa9 11000000 		.4byte	.LVL159-1
 5416 0aad 0100     		.2byte	0x1
 5417 0aaf 50       		.byte	0x50
 5418 0ab0 00000000 		.4byte	0
 5419 0ab4 00000000 		.4byte	0
 5420              	.LLST47:
 5421 0ab8 14000000 		.4byte	.LVL160
 5422 0abc 1D000000 		.4byte	.LVL161-1
 5423 0ac0 0100     		.2byte	0x1
 5424 0ac2 50       		.byte	0x50
 5425 0ac3 1D000000 		.4byte	.LVL161-1
 5426 0ac7 6C000000 		.4byte	.LVL169
 5427 0acb 0100     		.2byte	0x1
 5428 0acd 55       		.byte	0x55
ARM GAS  C:\Users\haske\AppData\Local\Temp\cc4gWNdf.s 			page 110


 5429 0ace 70000000 		.4byte	.LVL171
 5430 0ad2 72000000 		.4byte	.LVL172
 5431 0ad6 0100     		.2byte	0x1
 5432 0ad8 50       		.byte	0x50
 5433 0ad9 72000000 		.4byte	.LVL172
 5434 0add 82000000 		.4byte	.LVL176
 5435 0ae1 0100     		.2byte	0x1
 5436 0ae3 55       		.byte	0x55
 5437 0ae4 00000000 		.4byte	0
 5438 0ae8 00000000 		.4byte	0
 5439              	.LLST48:
 5440 0aec 30000000 		.4byte	.LVL163
 5441 0af0 34000000 		.4byte	.LVL164
 5442 0af4 0100     		.2byte	0x1
 5443 0af6 50       		.byte	0x50
 5444 0af7 34000000 		.4byte	.LVL164
 5445 0afb 35000000 		.4byte	.LVL165-1
 5446 0aff 0100     		.2byte	0x1
 5447 0b01 51       		.byte	0x51
 5448 0b02 00000000 		.4byte	0
 5449 0b06 00000000 		.4byte	0
 5450              	.LLST49:
 5451 0b0a 36000000 		.4byte	.LVL165
 5452 0b0e 48000000 		.4byte	.LVL166
 5453 0b12 0100     		.2byte	0x1
 5454 0b14 50       		.byte	0x50
 5455 0b15 48000000 		.4byte	.LVL166
 5456 0b19 4B000000 		.4byte	.LVL167-1
 5457 0b1d 0200     		.2byte	0x2
 5458 0b1f 76       		.byte	0x76
 5459 0b20 00       		.sleb128 0
 5460 0b21 7C000000 		.4byte	.LVL173
 5461 0b25 7E000000 		.4byte	.LVL174
 5462 0b29 0100     		.2byte	0x1
 5463 0b2b 50       		.byte	0x50
 5464 0b2c 80000000 		.4byte	.LVL175
 5465 0b30 82000000 		.4byte	.LVL176
 5466 0b34 0100     		.2byte	0x1
 5467 0b36 50       		.byte	0x50
 5468 0b37 00000000 		.4byte	0
 5469 0b3b 00000000 		.4byte	0
 5470              	.LLST50:
 5471 0b3f 00000000 		.4byte	.LVL179
 5472 0b43 0A000000 		.4byte	.LVL180
 5473 0b47 0100     		.2byte	0x1
 5474 0b49 50       		.byte	0x50
 5475 0b4a 0A000000 		.4byte	.LVL180
 5476 0b4e 3E000000 		.4byte	.LVL189
 5477 0b52 0100     		.2byte	0x1
 5478 0b54 56       		.byte	0x56
 5479 0b55 3E000000 		.4byte	.LVL189
 5480 0b59 40000000 		.4byte	.LVL190
 5481 0b5d 0100     		.2byte	0x1
 5482 0b5f 50       		.byte	0x50
 5483 0b60 40000000 		.4byte	.LVL190
 5484 0b64 50000000 		.4byte	.LVL196
 5485 0b68 0100     		.2byte	0x1
ARM GAS  C:\Users\haske\AppData\Local\Temp\cc4gWNdf.s 			page 111


 5486 0b6a 56       		.byte	0x56
 5487 0b6b 50000000 		.4byte	.LVL196
 5488 0b6f 52000000 		.4byte	.LFE33
 5489 0b73 0400     		.2byte	0x4
 5490 0b75 F3       		.byte	0xf3
 5491 0b76 01       		.uleb128 0x1
 5492 0b77 50       		.byte	0x50
 5493 0b78 9F       		.byte	0x9f
 5494 0b79 00000000 		.4byte	0
 5495 0b7d 00000000 		.4byte	0
 5496              	.LLST51:
 5497 0b81 00000000 		.4byte	.LVL179
 5498 0b85 0D000000 		.4byte	.LVL181-1
 5499 0b89 0100     		.2byte	0x1
 5500 0b8b 51       		.byte	0x51
 5501 0b8c 0D000000 		.4byte	.LVL181-1
 5502 0b90 3E000000 		.4byte	.LVL189
 5503 0b94 0100     		.2byte	0x1
 5504 0b96 54       		.byte	0x54
 5505 0b97 3E000000 		.4byte	.LVL189
 5506 0b9b 42000000 		.4byte	.LVL191
 5507 0b9f 0100     		.2byte	0x1
 5508 0ba1 51       		.byte	0x51
 5509 0ba2 42000000 		.4byte	.LVL191
 5510 0ba6 50000000 		.4byte	.LVL195
 5511 0baa 0100     		.2byte	0x1
 5512 0bac 54       		.byte	0x54
 5513 0bad 50000000 		.4byte	.LVL195
 5514 0bb1 52000000 		.4byte	.LFE33
 5515 0bb5 0400     		.2byte	0x4
 5516 0bb7 F3       		.byte	0xf3
 5517 0bb8 01       		.uleb128 0x1
 5518 0bb9 51       		.byte	0x51
 5519 0bba 9F       		.byte	0x9f
 5520 0bbb 00000000 		.4byte	0
 5521 0bbf 00000000 		.4byte	0
 5522              	.LLST52:
 5523 0bc3 0A000000 		.4byte	.LVL180
 5524 0bc7 0D000000 		.4byte	.LVL181-1
 5525 0bcb 0100     		.2byte	0x1
 5526 0bcd 50       		.byte	0x50
 5527 0bce 00000000 		.4byte	0
 5528 0bd2 00000000 		.4byte	0
 5529              	.LLST53:
 5530 0bd6 10000000 		.4byte	.LVL182
 5531 0bda 19000000 		.4byte	.LVL183-1
 5532 0bde 0100     		.2byte	0x1
 5533 0be0 50       		.byte	0x50
 5534 0be1 19000000 		.4byte	.LVL183-1
 5535 0be5 3E000000 		.4byte	.LVL189
 5536 0be9 0100     		.2byte	0x1
 5537 0beb 55       		.byte	0x55
 5538 0bec 42000000 		.4byte	.LVL191
 5539 0bf0 44000000 		.4byte	.LVL192
 5540 0bf4 0100     		.2byte	0x1
 5541 0bf6 50       		.byte	0x50
 5542 0bf7 44000000 		.4byte	.LVL192
ARM GAS  C:\Users\haske\AppData\Local\Temp\cc4gWNdf.s 			page 112


 5543 0bfb 50000000 		.4byte	.LVL194
 5544 0bff 0100     		.2byte	0x1
 5545 0c01 55       		.byte	0x55
 5546 0c02 00000000 		.4byte	0
 5547 0c06 00000000 		.4byte	0
 5548              	.LLST54:
 5549 0c0a 2C000000 		.4byte	.LVL185
 5550 0c0e 2E000000 		.4byte	.LVL186
 5551 0c12 0100     		.2byte	0x1
 5552 0c14 50       		.byte	0x50
 5553 0c15 2E000000 		.4byte	.LVL186
 5554 0c19 2F000000 		.4byte	.LVL187-1
 5555 0c1d 0100     		.2byte	0x1
 5556 0c1f 51       		.byte	0x51
 5557 0c20 00000000 		.4byte	0
 5558 0c24 00000000 		.4byte	0
 5559              	.LLST55:
 5560 0c28 30000000 		.4byte	.LVL187
 5561 0c2c 3C000000 		.4byte	.LVL188
 5562 0c30 0100     		.2byte	0x1
 5563 0c32 50       		.byte	0x50
 5564 0c33 3C000000 		.4byte	.LVL188
 5565 0c37 3E000000 		.4byte	.LVL189
 5566 0c3b 0200     		.2byte	0x2
 5567 0c3d 76       		.byte	0x76
 5568 0c3e 00       		.sleb128 0
 5569 0c3f 4E000000 		.4byte	.LVL193
 5570 0c43 50000000 		.4byte	.LVL194
 5571 0c47 0100     		.2byte	0x1
 5572 0c49 50       		.byte	0x50
 5573 0c4a 00000000 		.4byte	0
 5574 0c4e 00000000 		.4byte	0
 5575              	.LLST56:
 5576 0c52 00000000 		.4byte	.LVL197
 5577 0c56 06000000 		.4byte	.LVL199
 5578 0c5a 0100     		.2byte	0x1
 5579 0c5c 50       		.byte	0x50
 5580 0c5d 06000000 		.4byte	.LVL199
 5581 0c61 2C000000 		.4byte	.LVL208
 5582 0c65 0100     		.2byte	0x1
 5583 0c67 55       		.byte	0x55
 5584 0c68 2C000000 		.4byte	.LVL208
 5585 0c6c 34000000 		.4byte	.LFE39
 5586 0c70 0100     		.2byte	0x1
 5587 0c72 50       		.byte	0x50
 5588 0c73 00000000 		.4byte	0
 5589 0c77 00000000 		.4byte	0
 5590              	.LLST57:
 5591 0c7b 0A000000 		.4byte	.LVL200
 5592 0c7f 1C000000 		.4byte	.LVL204
 5593 0c83 0100     		.2byte	0x1
 5594 0c85 50       		.byte	0x50
 5595 0c86 1C000000 		.4byte	.LVL204
 5596 0c8a 1F000000 		.4byte	.LVL205-1
 5597 0c8e 0100     		.2byte	0x1
 5598 0c90 51       		.byte	0x51
 5599 0c91 20000000 		.4byte	.LVL205
ARM GAS  C:\Users\haske\AppData\Local\Temp\cc4gWNdf.s 			page 113


 5600 0c95 2C000000 		.4byte	.LVL207
 5601 0c99 0100     		.2byte	0x1
 5602 0c9b 50       		.byte	0x50
 5603 0c9c 00000000 		.4byte	0
 5604 0ca0 00000000 		.4byte	0
 5605              	.LLST58:
 5606 0ca4 04000000 		.4byte	.LVL198
 5607 0ca8 0E000000 		.4byte	.LVL201
 5608 0cac 0200     		.2byte	0x2
 5609 0cae 30       		.byte	0x30
 5610 0caf 9F       		.byte	0x9f
 5611 0cb0 0E000000 		.4byte	.LVL201
 5612 0cb4 16000000 		.4byte	.LVL202
 5613 0cb8 0100     		.2byte	0x1
 5614 0cba 54       		.byte	0x54
 5615 0cbb 18000000 		.4byte	.LVL203
 5616 0cbf 26000000 		.4byte	.LVL206
 5617 0cc3 0100     		.2byte	0x1
 5618 0cc5 54       		.byte	0x54
 5619 0cc6 00000000 		.4byte	0
 5620 0cca 00000000 		.4byte	0
 5621              	.LLST59:
 5622 0cce 00000000 		.4byte	.LVL209
 5623 0cd2 07000000 		.4byte	.LVL210-1
 5624 0cd6 0100     		.2byte	0x1
 5625 0cd8 50       		.byte	0x50
 5626 0cd9 07000000 		.4byte	.LVL210-1
 5627 0cdd 2E000000 		.4byte	.LVL220
 5628 0ce1 0100     		.2byte	0x1
 5629 0ce3 54       		.byte	0x54
 5630 0ce4 2E000000 		.4byte	.LVL220
 5631 0ce8 34000000 		.4byte	.LFE40
 5632 0cec 0400     		.2byte	0x4
 5633 0cee F3       		.byte	0xf3
 5634 0cef 01       		.uleb128 0x1
 5635 0cf0 50       		.byte	0x50
 5636 0cf1 9F       		.byte	0x9f
 5637 0cf2 00000000 		.4byte	0
 5638 0cf6 00000000 		.4byte	0
 5639              	.LLST60:
 5640 0cfa 08000000 		.4byte	.LVL210
 5641 0cfe 12000000 		.4byte	.LVL211
 5642 0d02 0100     		.2byte	0x1
 5643 0d04 50       		.byte	0x50
 5644 0d05 12000000 		.4byte	.LVL211
 5645 0d09 14000000 		.4byte	.LVL212
 5646 0d0d 0300     		.2byte	0x3
 5647 0d0f 70       		.byte	0x70
 5648 0d10 7F       		.sleb128 -1
 5649 0d11 9F       		.byte	0x9f
 5650 0d12 16000000 		.4byte	.LVL213
 5651 0d16 26000000 		.4byte	.LVL215
 5652 0d1a 0100     		.2byte	0x1
 5653 0d1c 50       		.byte	0x50
 5654 0d1d 28000000 		.4byte	.LVL216
 5655 0d21 2A000000 		.4byte	.LVL217
 5656 0d25 0100     		.2byte	0x1
ARM GAS  C:\Users\haske\AppData\Local\Temp\cc4gWNdf.s 			page 114


 5657 0d27 50       		.byte	0x50
 5658 0d28 2C000000 		.4byte	.LVL218
 5659 0d2c 2E000000 		.4byte	.LVL219
 5660 0d30 0100     		.2byte	0x1
 5661 0d32 50       		.byte	0x50
 5662 0d33 00000000 		.4byte	0
 5663 0d37 00000000 		.4byte	0
 5664              	.LLST61:
 5665 0d3b 00000000 		.4byte	.LVL221
 5666 0d3f 07000000 		.4byte	.LVL222-1
 5667 0d43 0100     		.2byte	0x1
 5668 0d45 50       		.byte	0x50
 5669 0d46 07000000 		.4byte	.LVL222-1
 5670 0d4a 44000000 		.4byte	.LVL228
 5671 0d4e 0100     		.2byte	0x1
 5672 0d50 54       		.byte	0x54
 5673 0d51 44000000 		.4byte	.LVL228
 5674 0d55 46000000 		.4byte	.LFE41
 5675 0d59 0100     		.2byte	0x1
 5676 0d5b 50       		.byte	0x50
 5677 0d5c 00000000 		.4byte	0
 5678 0d60 00000000 		.4byte	0
 5679              	.LLST62:
 5680 0d64 08000000 		.4byte	.LVL222
 5681 0d68 28000000 		.4byte	.LVL225
 5682 0d6c 0100     		.2byte	0x1
 5683 0d6e 50       		.byte	0x50
 5684 0d6f 00000000 		.4byte	0
 5685 0d73 00000000 		.4byte	0
 5686              	.LLST63:
 5687 0d77 28000000 		.4byte	.LVL225
 5688 0d7b 3E000000 		.4byte	.LVL227
 5689 0d7f 0100     		.2byte	0x1
 5690 0d81 50       		.byte	0x50
 5691 0d82 00000000 		.4byte	0
 5692 0d86 00000000 		.4byte	0
 5693              	.LLST64:
 5694 0d8a 00000000 		.4byte	.LVL229
 5695 0d8e 07000000 		.4byte	.LVL230-1
 5696 0d92 0100     		.2byte	0x1
 5697 0d94 50       		.byte	0x50
 5698 0d95 07000000 		.4byte	.LVL230-1
 5699 0d99 46000000 		.4byte	.LVL243
 5700 0d9d 0100     		.2byte	0x1
 5701 0d9f 54       		.byte	0x54
 5702 0da0 46000000 		.4byte	.LVL243
 5703 0da4 48000000 		.4byte	.LFE42
 5704 0da8 0400     		.2byte	0x4
 5705 0daa F3       		.byte	0xf3
 5706 0dab 01       		.uleb128 0x1
 5707 0dac 50       		.byte	0x50
 5708 0dad 9F       		.byte	0x9f
 5709 0dae 00000000 		.4byte	0
 5710 0db2 00000000 		.4byte	0
 5711              	.LLST65:
 5712 0db6 08000000 		.4byte	.LVL230
 5713 0dba 22000000 		.4byte	.LVL233
ARM GAS  C:\Users\haske\AppData\Local\Temp\cc4gWNdf.s 			page 115


 5714 0dbe 0100     		.2byte	0x1
 5715 0dc0 50       		.byte	0x50
 5716 0dc1 3C000000 		.4byte	.LVL237
 5717 0dc5 3E000000 		.4byte	.LVL238
 5718 0dc9 0100     		.2byte	0x1
 5719 0dcb 50       		.byte	0x50
 5720 0dcc 40000000 		.4byte	.LVL239
 5721 0dd0 42000000 		.4byte	.LVL240
 5722 0dd4 0100     		.2byte	0x1
 5723 0dd6 50       		.byte	0x50
 5724 0dd7 00000000 		.4byte	0
 5725 0ddb 00000000 		.4byte	0
 5726              	.LLST66:
 5727 0ddf 22000000 		.4byte	.LVL233
 5728 0de3 38000000 		.4byte	.LVL235
 5729 0de7 0100     		.2byte	0x1
 5730 0de9 50       		.byte	0x50
 5731 0dea 38000000 		.4byte	.LVL235
 5732 0dee 3A000000 		.4byte	.LVL236
 5733 0df2 0300     		.2byte	0x3
 5734 0df4 70       		.byte	0x70
 5735 0df5 7F       		.sleb128 -1
 5736 0df6 9F       		.byte	0x9f
 5737 0df7 44000000 		.4byte	.LVL241
 5738 0dfb 46000000 		.4byte	.LVL242
 5739 0dff 0100     		.2byte	0x1
 5740 0e01 50       		.byte	0x50
 5741 0e02 00000000 		.4byte	0
 5742 0e06 00000000 		.4byte	0
 5743              		.section	.debug_aranges,"",%progbits
 5744 0000 B4000000 		.4byte	0xb4
 5745 0004 0200     		.2byte	0x2
 5746 0006 00000000 		.4byte	.Ldebug_info0
 5747 000a 04       		.byte	0x4
 5748 000b 00       		.byte	0
 5749 000c 0000     		.2byte	0
 5750 000e 0000     		.2byte	0
 5751 0010 00000000 		.4byte	.LFB43
 5752 0014 0E000000 		.4byte	.LFE43-.LFB43
 5753 0018 00000000 		.4byte	.LFB28
 5754 001c 4E010000 		.4byte	.LFE28-.LFB28
 5755 0020 00000000 		.4byte	.LFB24
 5756 0024 10000000 		.4byte	.LFE24-.LFB24
 5757 0028 00000000 		.4byte	.LFB27
 5758 002c 48000000 		.4byte	.LFE27-.LFB27
 5759 0030 00000000 		.4byte	.LFB29
 5760 0034 4E000000 		.4byte	.LFE29-.LFB29
 5761 0038 00000000 		.4byte	.LFB30
 5762 003c 40000000 		.4byte	.LFE30-.LFB30
 5763 0040 00000000 		.4byte	.LFB31
 5764 0044 B0000000 		.4byte	.LFE31-.LFB31
 5765 0048 00000000 		.4byte	.LFB32
 5766 004c 38000000 		.4byte	.LFE32-.LFB32
 5767 0050 00000000 		.4byte	.LFB34
 5768 0054 2E000000 		.4byte	.LFE34-.LFB34
 5769 0058 00000000 		.4byte	.LFB35
 5770 005c 2C000000 		.4byte	.LFE35-.LFB35
ARM GAS  C:\Users\haske\AppData\Local\Temp\cc4gWNdf.s 			page 116


 5771 0060 00000000 		.4byte	.LFB36
 5772 0064 0A000000 		.4byte	.LFE36-.LFB36
 5773 0068 00000000 		.4byte	.LFB37
 5774 006c 1C000000 		.4byte	.LFE37-.LFB37
 5775 0070 00000000 		.4byte	.LFB38
 5776 0074 2C000000 		.4byte	.LFE38-.LFB38
 5777 0078 00000000 		.4byte	.LFB25
 5778 007c 1C000000 		.4byte	.LFE25-.LFB25
 5779 0080 00000000 		.4byte	.LFB26
 5780 0084 86000000 		.4byte	.LFE26-.LFB26
 5781 0088 00000000 		.4byte	.LFB33
 5782 008c 52000000 		.4byte	.LFE33-.LFB33
 5783 0090 00000000 		.4byte	.LFB39
 5784 0094 34000000 		.4byte	.LFE39-.LFB39
 5785 0098 00000000 		.4byte	.LFB40
 5786 009c 34000000 		.4byte	.LFE40-.LFB40
 5787 00a0 00000000 		.4byte	.LFB41
 5788 00a4 46000000 		.4byte	.LFE41-.LFB41
 5789 00a8 00000000 		.4byte	.LFB42
 5790 00ac 48000000 		.4byte	.LFE42-.LFB42
 5791 00b0 00000000 		.4byte	0
 5792 00b4 00000000 		.4byte	0
 5793              		.section	.debug_ranges,"",%progbits
 5794              	.Ldebug_ranges0:
 5795 0000 2E000000 		.4byte	.LBB2
 5796 0004 50000000 		.4byte	.LBE2
 5797 0008 52000000 		.4byte	.LBB5
 5798 000c C6000000 		.4byte	.LBE5
 5799 0010 00000000 		.4byte	0
 5800 0014 00000000 		.4byte	0
 5801 0018 00000000 		.4byte	.LFB43
 5802 001c 0E000000 		.4byte	.LFE43
 5803 0020 00000000 		.4byte	.LFB28
 5804 0024 4E010000 		.4byte	.LFE28
 5805 0028 00000000 		.4byte	.LFB24
 5806 002c 10000000 		.4byte	.LFE24
 5807 0030 00000000 		.4byte	.LFB27
 5808 0034 48000000 		.4byte	.LFE27
 5809 0038 00000000 		.4byte	.LFB29
 5810 003c 4E000000 		.4byte	.LFE29
 5811 0040 00000000 		.4byte	.LFB30
 5812 0044 40000000 		.4byte	.LFE30
 5813 0048 00000000 		.4byte	.LFB31
 5814 004c B0000000 		.4byte	.LFE31
 5815 0050 00000000 		.4byte	.LFB32
 5816 0054 38000000 		.4byte	.LFE32
 5817 0058 00000000 		.4byte	.LFB34
 5818 005c 2E000000 		.4byte	.LFE34
 5819 0060 00000000 		.4byte	.LFB35
 5820 0064 2C000000 		.4byte	.LFE35
 5821 0068 00000000 		.4byte	.LFB36
 5822 006c 0A000000 		.4byte	.LFE36
 5823 0070 00000000 		.4byte	.LFB37
 5824 0074 1C000000 		.4byte	.LFE37
 5825 0078 00000000 		.4byte	.LFB38
 5826 007c 2C000000 		.4byte	.LFE38
 5827 0080 00000000 		.4byte	.LFB25
ARM GAS  C:\Users\haske\AppData\Local\Temp\cc4gWNdf.s 			page 117


 5828 0084 1C000000 		.4byte	.LFE25
 5829 0088 00000000 		.4byte	.LFB26
 5830 008c 86000000 		.4byte	.LFE26
 5831 0090 00000000 		.4byte	.LFB33
 5832 0094 52000000 		.4byte	.LFE33
 5833 0098 00000000 		.4byte	.LFB39
 5834 009c 34000000 		.4byte	.LFE39
 5835 00a0 00000000 		.4byte	.LFB40
 5836 00a4 34000000 		.4byte	.LFE40
 5837 00a8 00000000 		.4byte	.LFB41
 5838 00ac 46000000 		.4byte	.LFE41
 5839 00b0 00000000 		.4byte	.LFB42
 5840 00b4 48000000 		.4byte	.LFE42
 5841 00b8 00000000 		.4byte	0
 5842 00bc 00000000 		.4byte	0
 5843              		.section	.debug_line,"",%progbits
 5844              	.Ldebug_line0:
 5845 0000 C5050000 		.section	.debug_str,"MS",%progbits,1
 5845      0200BE02 
 5845      00000201 
 5845      FB0E0D00 
 5845      01010101 
 5846              	.LASF99:
 5847 0000 6C765F66 		.ascii	"lv_fs_get_letters\000"
 5847      735F6765 
 5847      745F6C65 
 5847      74746572 
 5847      7300
 5848              	.LASF91:
 5849 0012 6472765F 		.ascii	"drv_p\000"
 5849      7000
 5850              	.LASF24:
 5851 0018 4C565F46 		.ascii	"LV_FS_RES_NOT_IMP\000"
 5851      535F5245 
 5851      535F4E4F 
 5851      545F494D 
 5851      5000
 5852              	.LASF111:
 5853 002a 7374726C 		.ascii	"strlen\000"
 5853      656E00
 5854              	.LASF56:
 5855 0031 6C765F66 		.ascii	"lv_fs_file_t\000"
 5855      735F6669 
 5855      6C655F74 
 5855      00
 5856              	.LASF49:
 5857 003e 6C765F66 		.ascii	"lv_fs_drv_t\000"
 5857      735F6472 
 5857      765F7400 
 5858              	.LASF52:
 5859 004a 62756666 		.ascii	"buffer\000"
 5859      657200
 5860              	.LASF25:
 5861 0051 4C565F46 		.ascii	"LV_FS_RES_OUT_OF_MEM\000"
 5861      535F5245 
 5861      535F4F55 
 5861      545F4F46 
ARM GAS  C:\Users\haske\AppData\Local\Temp\cc4gWNdf.s 			page 118


 5861      5F4D454D 
 5862              	.LASF11:
 5863 0066 756E7369 		.ascii	"unsigned int\000"
 5863      676E6564 
 5863      20696E74 
 5863      00
 5864              	.LASF105:
 5865 0073 5F6C765F 		.ascii	"_lv_ll_init\000"
 5865      6C6C5F69 
 5865      6E697400 
 5866              	.LASF64:
 5867 007f 68656164 		.ascii	"head\000"
 5867      00
 5868              	.LASF36:
 5869 0084 72656164 		.ascii	"ready_cb\000"
 5869      795F6362 
 5869      00
 5870              	.LASF15:
 5871 008d 4C565F46 		.ascii	"LV_FS_RES_OK\000"
 5871      535F5245 
 5871      535F4F4B 
 5871      00
 5872              	.LASF89:
 5873 009a 6C765F66 		.ascii	"lv_fs_drv_init\000"
 5873      735F6472 
 5873      765F696E 
 5873      697400
 5874              	.LASF63:
 5875 00a9 6E5F7369 		.ascii	"n_size\000"
 5875      7A6500
 5876              	.LASF96:
 5877 00b0 6D6F6465 		.ascii	"mode\000"
 5877      00
 5878              	.LASF78:
 5879 00b5 62725F74 		.ascii	"br_tmp\000"
 5879      6D7000
 5880              	.LASF104:
 5881 00bc 6C765F6D 		.ascii	"lv_mem_alloc\000"
 5881      656D5F61 
 5881      6C6C6F63 
 5881      00
 5882              	.LASF101:
 5883 00c9 6C765F66 		.ascii	"lv_fs_up\000"
 5883      735F7570 
 5883      00
 5884              	.LASF87:
 5885 00d2 6C765F66 		.ascii	"lv_fs_dir_close\000"
 5885      735F6469 
 5885      725F636C 
 5885      6F736500 
 5886              	.LASF107:
 5887 00e2 6C765F6D 		.ascii	"lv_memset_00\000"
 5887      656D7365 
 5887      745F3030 
 5887      00
 5888              	.LASF74:
 5889 00ef 62797465 		.ascii	"bytes_read_to_buffer\000"
ARM GAS  C:\Users\haske\AppData\Local\Temp\cc4gWNdf.s 			page 119


 5889      735F7265 
 5889      61645F74 
 5889      6F5F6275 
 5889      66666572 
 5890              	.LASF45:
 5891 0104 6469725F 		.ascii	"dir_close_cb\000"
 5891      636C6F73 
 5891      655F6362 
 5891      00
 5892              	.LASF68:
 5893 0111 6C765F66 		.ascii	"lv_fs_read_cached\000"
 5893      735F7265 
 5893      61645F63 
 5893      61636865 
 5893      6400
 5894              	.LASF14:
 5895 0123 75696E74 		.ascii	"uint32_t\000"
 5895      33325F74 
 5895      00
 5896              	.LASF103:
 5897 012c 6C765F6D 		.ascii	"lv_memcpy\000"
 5897      656D6370 
 5897      7900
 5898              	.LASF112:
 5899 0136 474E5520 		.ascii	"GNU C11 5.4.1 20160609 (release) [ARM/embedded-5-br"
 5899      43313120 
 5899      352E342E 
 5899      31203230 
 5899      31363036 
 5900 0169 616E6368 		.ascii	"anch revision 237715] -mcpu=cortex-m0plus -mthumb -"
 5900      20726576 
 5900      6973696F 
 5900      6E203233 
 5900      37373135 
 5901 019c 67202D4F 		.ascii	"g -Og -ffunction-sections -ffat-lto-objects\000"
 5901      67202D66 
 5901      66756E63 
 5901      74696F6E 
 5901      2D736563 
 5902              	.LASF57:
 5903 01c8 6469725F 		.ascii	"dir_d\000"
 5903      6400
 5904              	.LASF26:
 5905 01ce 4C565F46 		.ascii	"LV_FS_RES_INV_PARAM\000"
 5905      535F5245 
 5905      535F494E 
 5905      565F5041 
 5905      52414D00 
 5906              	.LASF42:
 5907 01e2 74656C6C 		.ascii	"tell_cb\000"
 5907      5F636200 
 5908              	.LASF10:
 5909 01ea 6C6F6E67 		.ascii	"long long unsigned int\000"
 5909      206C6F6E 
 5909      6720756E 
 5909      7369676E 
 5909      65642069 
ARM GAS  C:\Users\haske\AppData\Local\Temp\cc4gWNdf.s 			page 120


 5910              	.LASF53:
 5911 0201 6C765F66 		.ascii	"lv_fs_file_cache_t\000"
 5911      735F6669 
 5911      6C655F63 
 5911      61636865 
 5911      5F7400
 5912              	.LASF4:
 5913 0214 5F5F7569 		.ascii	"__uint16_t\000"
 5913      6E743136 
 5913      5F7400
 5914              	.LASF19:
 5915 021f 4C565F46 		.ascii	"LV_FS_RES_FULL\000"
 5915      535F5245 
 5915      535F4655 
 5915      4C4C00
 5916              	.LASF58:
 5917 022e 6C765F66 		.ascii	"lv_fs_dir_t\000"
 5917      735F6469 
 5917      725F7400 
 5918              	.LASF38:
 5919 023a 636C6F73 		.ascii	"close_cb\000"
 5919      655F6362 
 5919      00
 5920              	.LASF30:
 5921 0243 4C565F46 		.ascii	"LV_FS_SEEK_SET\000"
 5921      535F5345 
 5921      454B5F53 
 5921      455400
 5922              	.LASF32:
 5923 0252 4C565F46 		.ascii	"LV_FS_SEEK_END\000"
 5923      535F5345 
 5923      454B5F45 
 5923      4E4400
 5924              	.LASF100:
 5925 0261 6C765F66 		.ascii	"lv_fs_get_ext\000"
 5925      735F6765 
 5925      745F6578 
 5925      7400
 5926              	.LASF59:
 5927 026f 73697A65 		.ascii	"size_t\000"
 5927      5F7400
 5928              	.LASF39:
 5929 0276 72656164 		.ascii	"read_cb\000"
 5929      5F636200 
 5930              	.LASF62:
 5931 027e 6C765F6C 		.ascii	"lv_ll_node_t\000"
 5931      6C5F6E6F 
 5931      64655F74 
 5931      00
 5932              	.LASF34:
 5933 028b 6C657474 		.ascii	"letter\000"
 5933      657200
 5934              	.LASF48:
 5935 0292 5F426F6F 		.ascii	"_Bool\000"
 5935      6C00
 5936              	.LASF20:
 5937 0298 4C565F46 		.ascii	"LV_FS_RES_LOCKED\000"
ARM GAS  C:\Users\haske\AppData\Local\Temp\cc4gWNdf.s 			page 121


 5937      535F5245 
 5937      535F4C4F 
 5937      434B4544 
 5937      00
 5938              	.LASF54:
 5939 02a9 66696C65 		.ascii	"file_d\000"
 5939      5F6400
 5940              	.LASF83:
 5941 02b0 746D705F 		.ascii	"tmp_position\000"
 5941      706F7369 
 5941      74696F6E 
 5941      00
 5942              	.LASF70:
 5943 02bd 66696C65 		.ascii	"file_p\000"
 5943      5F7000
 5944              	.LASF69:
 5945 02c4 70617468 		.ascii	"path\000"
 5945      00
 5946              	.LASF18:
 5947 02c9 4C565F46 		.ascii	"LV_FS_RES_NOT_EX\000"
 5947      535F5245 
 5947      535F4E4F 
 5947      545F4558 
 5947      00
 5948              	.LASF33:
 5949 02da 6C765F66 		.ascii	"lv_fs_whence_t\000"
 5949      735F7768 
 5949      656E6365 
 5949      5F7400
 5950              	.LASF80:
 5951 02e9 62775F74 		.ascii	"bw_tmp\000"
 5951      6D7000
 5952              	.LASF47:
 5953 02f0 63686172 		.ascii	"char\000"
 5953      00
 5954              	.LASF67:
 5955 02f5 6C765F66 		.ascii	"lv_fs_get_real_path\000"
 5955      735F6765 
 5955      745F7265 
 5955      616C5F70 
 5955      61746800 
 5956              	.LASF22:
 5957 0309 4C565F46 		.ascii	"LV_FS_RES_BUSY\000"
 5957      535F5245 
 5957      535F4255 
 5957      535900
 5958              	.LASF12:
 5959 0318 75696E74 		.ascii	"uint8_t\000"
 5959      385F7400 
 5960              	.LASF76:
 5961 0320 6C765F66 		.ascii	"lv_fs_close\000"
 5961      735F636C 
 5961      6F736500 
 5962              	.LASF28:
 5963 032c 6C765F66 		.ascii	"lv_fs_res_t\000"
 5963      735F7265 
 5963      735F7400 
ARM GAS  C:\Users\haske\AppData\Local\Temp\cc4gWNdf.s 			page 122


 5964              	.LASF46:
 5965 0338 75736572 		.ascii	"user_data\000"
 5965      5F646174 
 5965      6100
 5966              	.LASF9:
 5967 0342 6C6F6E67 		.ascii	"long long int\000"
 5967      206C6F6E 
 5967      6720696E 
 5967      7400
 5968              	.LASF66:
 5969 0350 6C765F6C 		.ascii	"lv_ll_t\000"
 5969      6C5F7400 
 5970              	.LASF92:
 5971 0358 6E65775F 		.ascii	"new_drv\000"
 5971      64727600 
 5972              	.LASF114:
 5973 0360 433A5C50 		.ascii	"C:\\Projects\\PainDrain\\firmware\\PainDrain\\PainD"
 5973      726F6A65 
 5973      6374735C 
 5973      5061696E 
 5973      44726169 
 5974 038e 7261696E 		.ascii	"rain.cydsn\000"
 5974      2E637964 
 5974      736E00
 5975              	.LASF44:
 5976 0399 6469725F 		.ascii	"dir_read_cb\000"
 5976      72656164 
 5976      5F636200 
 5977              	.LASF93:
 5978 03a5 6C765F66 		.ascii	"lv_fs_get_drv\000"
 5978      735F6765 
 5978      745F6472 
 5978      7600
 5979              	.LASF41:
 5980 03b3 7365656B 		.ascii	"seek_cb\000"
 5980      5F636200 
 5981              	.LASF23:
 5982 03bb 4C565F46 		.ascii	"LV_FS_RES_TOUT\000"
 5982      535F5245 
 5982      535F544F 
 5982      555400
 5983              	.LASF72:
 5984 03ca 62756666 		.ascii	"buffer_offset\000"
 5984      65725F6F 
 5984      66667365 
 5984      7400
 5985              	.LASF21:
 5986 03d8 4C565F46 		.ascii	"LV_FS_RES_DENIED\000"
 5986      535F5245 
 5986      535F4445 
 5986      4E494544 
 5986      00
 5987              	.LASF29:
 5988 03e9 6C765F66 		.ascii	"lv_fs_mode_t\000"
 5988      735F6D6F 
 5988      64655F74 
 5988      00
ARM GAS  C:\Users\haske\AppData\Local\Temp\cc4gWNdf.s 			page 123


 5989              	.LASF35:
 5990 03f6 63616368 		.ascii	"cache_size\000"
 5990      655F7369 
 5990      7A6500
 5991              	.LASF55:
 5992 0401 63616368 		.ascii	"cache\000"
 5992      6500
 5993              	.LASF110:
 5994 0407 5F6C765F 		.ascii	"_lv_ll_get_next\000"
 5994      6C6C5F67 
 5994      65745F6E 
 5994      65787400 
 5995              	.LASF109:
 5996 0417 5F6C765F 		.ascii	"_lv_ll_get_head\000"
 5996      6C6C5F67 
 5996      65745F68 
 5996      65616400 
 5997              	.LASF60:
 5998 0427 6C6F6E67 		.ascii	"long double\000"
 5998      20646F75 
 5998      626C6500 
 5999              	.LASF13:
 6000 0433 75696E74 		.ascii	"uint16_t\000"
 6000      31365F74 
 6000      00
 6001              	.LASF79:
 6002 043c 6C765F66 		.ascii	"lv_fs_write\000"
 6002      735F7772 
 6002      69746500 
 6003              	.LASF97:
 6004 0448 7265616C 		.ascii	"real_path\000"
 6004      5F706174 
 6004      6800
 6005              	.LASF98:
 6006 0452 6C765F66 		.ascii	"lv_fs_dir_open\000"
 6006      735F6469 
 6006      725F6F70 
 6006      656E00
 6007              	.LASF51:
 6008 0461 66696C65 		.ascii	"file_position\000"
 6008      5F706F73 
 6008      6974696F 
 6008      6E00
 6009              	.LASF2:
 6010 046f 73686F72 		.ascii	"short int\000"
 6010      7420696E 
 6010      7400
 6011              	.LASF6:
 6012 0479 6C6F6E67 		.ascii	"long int\000"
 6012      20696E74 
 6012      00
 6013              	.LASF27:
 6014 0482 4C565F46 		.ascii	"LV_FS_RES_UNKNOWN\000"
 6014      535F5245 
 6014      535F554E 
 6014      4B4E4F57 
 6014      4E00
ARM GAS  C:\Users\haske\AppData\Local\Temp\cc4gWNdf.s 			page 124


 6015              	.LASF108:
 6016 0494 5F6C765F 		.ascii	"_lv_ll_ins_head\000"
 6016      6C6C5F69 
 6016      6E735F68 
 6016      65616400 
 6017              	.LASF37:
 6018 04a4 6F70656E 		.ascii	"open_cb\000"
 6018      5F636200 
 6019              	.LASF73:
 6020 04ac 62756666 		.ascii	"buffer_remaining_length\000"
 6020      65725F72 
 6020      656D6169 
 6020      6E696E67 
 6020      5F6C656E 
 6021              	.LASF75:
 6022 04c4 64617461 		.ascii	"data_chunk_remaining\000"
 6022      5F636875 
 6022      6E6B5F72 
 6022      656D6169 
 6022      6E696E67 
 6023              	.LASF84:
 6024 04d9 6C765F66 		.ascii	"lv_fs_tell\000"
 6024      735F7465 
 6024      6C6C00
 6025              	.LASF3:
 6026 04e4 5F5F7569 		.ascii	"__uint8_t\000"
 6026      6E74385F 
 6026      7400
 6027              	.LASF50:
 6028 04ee 73746172 		.ascii	"start\000"
 6028      7400
 6029              	.LASF113:
 6030 04f4 2E2E5C2E 		.ascii	"..\\..\\..\\arduinoLCD\\test\\Pain Drain\\libraries"
 6030      2E5C2E2E 
 6030      5C617264 
 6030      75696E6F 
 6030      4C43445C 
 6031 0521 5C6C7667 		.ascii	"\\lvgl\\src\\misc\\lv_fs.c\000"
 6031      6C5C7372 
 6031      635C6D69 
 6031      73635C6C 
 6031      765F6673 
 6032              	.LASF61:
 6033 0538 73697A65 		.ascii	"sizetype\000"
 6033      74797065 
 6033      00
 6034              	.LASF8:
 6035 0541 6C6F6E67 		.ascii	"long unsigned int\000"
 6035      20756E73 
 6035      69676E65 
 6035      6420696E 
 6035      7400
 6036              	.LASF95:
 6037 0553 6C765F66 		.ascii	"lv_fs_open\000"
 6037      735F6F70 
 6037      656E00
 6038              	.LASF43:
ARM GAS  C:\Users\haske\AppData\Local\Temp\cc4gWNdf.s 			page 125


 6039 055e 6469725F 		.ascii	"dir_open_cb\000"
 6039      6F70656E 
 6039      5F636200 
 6040              	.LASF115:
 6041 056a 5F6C765F 		.ascii	"_lv_fs_drv_t\000"
 6041      66735F64 
 6041      72765F74 
 6041      00
 6042              	.LASF82:
 6043 0577 7768656E 		.ascii	"whence\000"
 6043      636500
 6044              	.LASF94:
 6045 057e 6C765F66 		.ascii	"lv_fs_is_ready\000"
 6045      735F6973 
 6045      5F726561 
 6045      647900
 6046              	.LASF1:
 6047 058d 756E7369 		.ascii	"unsigned char\000"
 6047      676E6564 
 6047      20636861 
 6047      7200
 6048              	.LASF7:
 6049 059b 5F5F7569 		.ascii	"__uint32_t\000"
 6049      6E743332 
 6049      5F7400
 6050              	.LASF16:
 6051 05a6 4C565F46 		.ascii	"LV_FS_RES_HW_ERR\000"
 6051      535F5245 
 6051      535F4857 
 6051      5F455252 
 6051      00
 6052              	.LASF65:
 6053 05b7 7461696C 		.ascii	"tail\000"
 6053      00
 6054              	.LASF77:
 6055 05bc 6C765F66 		.ascii	"lv_fs_read\000"
 6055      735F7265 
 6055      616400
 6056              	.LASF40:
 6057 05c7 77726974 		.ascii	"write_cb\000"
 6057      655F6362 
 6057      00
 6058              	.LASF102:
 6059 05d0 6C765F66 		.ascii	"lv_fs_get_last\000"
 6059      735F6765 
 6059      745F6C61 
 6059      737400
 6060              	.LASF81:
 6061 05df 6C765F66 		.ascii	"lv_fs_seek\000"
 6061      735F7365 
 6061      656B00
 6062              	.LASF106:
 6063 05ea 6C765F6D 		.ascii	"lv_mem_free\000"
 6063      656D5F66 
 6063      72656500 
 6064              	.LASF0:
 6065 05f6 7369676E 		.ascii	"signed char\000"
ARM GAS  C:\Users\haske\AppData\Local\Temp\cc4gWNdf.s 			page 126


 6065      65642063 
 6065      68617200 
 6066              	.LASF5:
 6067 0602 73686F72 		.ascii	"short unsigned int\000"
 6067      7420756E 
 6067      7369676E 
 6067      65642069 
 6067      6E7400
 6068              	.LASF90:
 6069 0615 6C765F66 		.ascii	"lv_fs_drv_register\000"
 6069      735F6472 
 6069      765F7265 
 6069      67697374 
 6069      657200
 6070              	.LASF86:
 6071 0628 72646469 		.ascii	"rddir_p\000"
 6071      725F7000 
 6072              	.LASF85:
 6073 0630 6C765F66 		.ascii	"lv_fs_dir_read\000"
 6073      735F6469 
 6073      725F7265 
 6073      616400
 6074              	.LASF116:
 6075 063f 5F6C765F 		.ascii	"_lv_fsdrv_ll\000"
 6075      66736472 
 6075      765F6C6C 
 6075      00
 6076              	.LASF71:
 6077 064c 62756666 		.ascii	"buffer_size\000"
 6077      65725F73 
 6077      697A6500 
 6078              	.LASF88:
 6079 0658 5F6C765F 		.ascii	"_lv_fs_init\000"
 6079      66735F69 
 6079      6E697400 
 6080              	.LASF17:
 6081 0664 4C565F46 		.ascii	"LV_FS_RES_FS_ERR\000"
 6081      535F5245 
 6081      535F4653 
 6081      5F455252 
 6081      00
 6082              	.LASF31:
 6083 0675 4C565F46 		.ascii	"LV_FS_SEEK_CUR\000"
 6083      535F5345 
 6083      454B5F43 
 6083      555200
 6084              		.ident	"GCC: (GNU Tools for ARM Embedded Processors) 5.4.1 20160609 (release) [ARM/embedded-5-bran
