ARM GAS  C:\Users\haske\AppData\Local\Temp\cc4gWNdf.s 			page 1


   1              		.syntax unified
   2              		.cpu cortex-m0plus
   3              		.fpu softvfp
   4              		.eabi_attribute 20, 1
   5              		.eabi_attribute 21, 1
   6              		.eabi_attribute 23, 3
   7              		.eabi_attribute 24, 1
   8              		.eabi_attribute 25, 1
   9              		.eabi_attribute 26, 1
  10              		.eabi_attribute 30, 1
  11              		.eabi_attribute 34, 0
  12              		.eabi_attribute 18, 4
  13              		.thumb
  14              		.syntax unified
  15              		.file	"lv_fs.c"
  16              		.text
  17              	.Ltext0:
  18              		.cfi_sections	.debug_frame
  19              		.section	.text.lv_fs_get_real_path,"ax",%progbits
  20              		.align	2
  21              		.code	16
  22              		.thumb_func
  23              		.type	lv_fs_get_real_path, %function
  24              	lv_fs_get_real_path:
  25              	.LFB43:
  26              		.file 1 "..\\..\\..\\arduinoLCD\\test\\Pain Drain\\libraries\\lvgl\\src\\misc\\lv_fs.c"
   1:..\..\..\arduinoLCD\test\Pain Drain\libraries\lvgl\src\misc/lv_fs.c **** /**
   2:..\..\..\arduinoLCD\test\Pain Drain\libraries\lvgl\src\misc/lv_fs.c ****  * @file lv_fs.c
   3:..\..\..\arduinoLCD\test\Pain Drain\libraries\lvgl\src\misc/lv_fs.c ****  *
   4:..\..\..\arduinoLCD\test\Pain Drain\libraries\lvgl\src\misc/lv_fs.c ****  */
   5:..\..\..\arduinoLCD\test\Pain Drain\libraries\lvgl\src\misc/lv_fs.c **** 
   6:..\..\..\arduinoLCD\test\Pain Drain\libraries\lvgl\src\misc/lv_fs.c **** /*********************
   7:..\..\..\arduinoLCD\test\Pain Drain\libraries\lvgl\src\misc/lv_fs.c ****  *      INCLUDES
   8:..\..\..\arduinoLCD\test\Pain Drain\libraries\lvgl\src\misc/lv_fs.c ****  *********************/
   9:..\..\..\arduinoLCD\test\Pain Drain\libraries\lvgl\src\misc/lv_fs.c **** #include "lv_fs.h"
  10:..\..\..\arduinoLCD\test\Pain Drain\libraries\lvgl\src\misc/lv_fs.c **** 
  11:..\..\..\arduinoLCD\test\Pain Drain\libraries\lvgl\src\misc/lv_fs.c **** #include "../misc/lv_assert.h"
  12:..\..\..\arduinoLCD\test\Pain Drain\libraries\lvgl\src\misc/lv_fs.c **** #include "lv_ll.h"
  13:..\..\..\arduinoLCD\test\Pain Drain\libraries\lvgl\src\misc/lv_fs.c **** #include <string.h>
  14:..\..\..\arduinoLCD\test\Pain Drain\libraries\lvgl\src\misc/lv_fs.c **** #include "lv_gc.h"
  15:..\..\..\arduinoLCD\test\Pain Drain\libraries\lvgl\src\misc/lv_fs.c **** 
  16:..\..\..\arduinoLCD\test\Pain Drain\libraries\lvgl\src\misc/lv_fs.c **** /*********************
  17:..\..\..\arduinoLCD\test\Pain Drain\libraries\lvgl\src\misc/lv_fs.c ****  *      DEFINES
  18:..\..\..\arduinoLCD\test\Pain Drain\libraries\lvgl\src\misc/lv_fs.c ****  *********************/
  19:..\..\..\arduinoLCD\test\Pain Drain\libraries\lvgl\src\misc/lv_fs.c **** 
  20:..\..\..\arduinoLCD\test\Pain Drain\libraries\lvgl\src\misc/lv_fs.c **** /**********************
  21:..\..\..\arduinoLCD\test\Pain Drain\libraries\lvgl\src\misc/lv_fs.c ****  *      TYPEDEFS
  22:..\..\..\arduinoLCD\test\Pain Drain\libraries\lvgl\src\misc/lv_fs.c ****  **********************/
  23:..\..\..\arduinoLCD\test\Pain Drain\libraries\lvgl\src\misc/lv_fs.c **** 
  24:..\..\..\arduinoLCD\test\Pain Drain\libraries\lvgl\src\misc/lv_fs.c **** /**********************
  25:..\..\..\arduinoLCD\test\Pain Drain\libraries\lvgl\src\misc/lv_fs.c ****  *  STATIC PROTOTYPES
  26:..\..\..\arduinoLCD\test\Pain Drain\libraries\lvgl\src\misc/lv_fs.c ****  **********************/
  27:..\..\..\arduinoLCD\test\Pain Drain\libraries\lvgl\src\misc/lv_fs.c **** static const char * lv_fs_get_real_path(const char * path);
  28:..\..\..\arduinoLCD\test\Pain Drain\libraries\lvgl\src\misc/lv_fs.c **** 
  29:..\..\..\arduinoLCD\test\Pain Drain\libraries\lvgl\src\misc/lv_fs.c **** /**********************
  30:..\..\..\arduinoLCD\test\Pain Drain\libraries\lvgl\src\misc/lv_fs.c ****  *  STATIC VARIABLES
  31:..\..\..\arduinoLCD\test\Pain Drain\libraries\lvgl\src\misc/lv_fs.c ****  **********************/
ARM GAS  C:\Users\haske\AppData\Local\Temp\cc4gWNdf.s 			page 2


  32:..\..\..\arduinoLCD\test\Pain Drain\libraries\lvgl\src\misc/lv_fs.c **** 
  33:..\..\..\arduinoLCD\test\Pain Drain\libraries\lvgl\src\misc/lv_fs.c **** /**********************
  34:..\..\..\arduinoLCD\test\Pain Drain\libraries\lvgl\src\misc/lv_fs.c ****  *      MACROS
  35:..\..\..\arduinoLCD\test\Pain Drain\libraries\lvgl\src\misc/lv_fs.c ****  **********************/
  36:..\..\..\arduinoLCD\test\Pain Drain\libraries\lvgl\src\misc/lv_fs.c **** 
  37:..\..\..\arduinoLCD\test\Pain Drain\libraries\lvgl\src\misc/lv_fs.c **** /**********************
  38:..\..\..\arduinoLCD\test\Pain Drain\libraries\lvgl\src\misc/lv_fs.c ****  *   GLOBAL FUNCTIONS
  39:..\..\..\arduinoLCD\test\Pain Drain\libraries\lvgl\src\misc/lv_fs.c ****  **********************/
  40:..\..\..\arduinoLCD\test\Pain Drain\libraries\lvgl\src\misc/lv_fs.c **** 
  41:..\..\..\arduinoLCD\test\Pain Drain\libraries\lvgl\src\misc/lv_fs.c **** void _lv_fs_init(void)
  42:..\..\..\arduinoLCD\test\Pain Drain\libraries\lvgl\src\misc/lv_fs.c **** {
  43:..\..\..\arduinoLCD\test\Pain Drain\libraries\lvgl\src\misc/lv_fs.c ****     _lv_ll_init(&LV_GC_ROOT(_lv_fsdrv_ll), sizeof(lv_fs_drv_t *));
  44:..\..\..\arduinoLCD\test\Pain Drain\libraries\lvgl\src\misc/lv_fs.c **** }
  45:..\..\..\arduinoLCD\test\Pain Drain\libraries\lvgl\src\misc/lv_fs.c **** 
  46:..\..\..\arduinoLCD\test\Pain Drain\libraries\lvgl\src\misc/lv_fs.c **** bool lv_fs_is_ready(char letter)
  47:..\..\..\arduinoLCD\test\Pain Drain\libraries\lvgl\src\misc/lv_fs.c **** {
  48:..\..\..\arduinoLCD\test\Pain Drain\libraries\lvgl\src\misc/lv_fs.c ****     lv_fs_drv_t * drv = lv_fs_get_drv(letter);
  49:..\..\..\arduinoLCD\test\Pain Drain\libraries\lvgl\src\misc/lv_fs.c **** 
  50:..\..\..\arduinoLCD\test\Pain Drain\libraries\lvgl\src\misc/lv_fs.c ****     if(drv == NULL) return false; /*An unknown driver in not ready*/
  51:..\..\..\arduinoLCD\test\Pain Drain\libraries\lvgl\src\misc/lv_fs.c **** 
  52:..\..\..\arduinoLCD\test\Pain Drain\libraries\lvgl\src\misc/lv_fs.c ****     if(drv->ready_cb == NULL) return true; /*Assume the driver is always ready if no handler provid
  53:..\..\..\arduinoLCD\test\Pain Drain\libraries\lvgl\src\misc/lv_fs.c **** 
  54:..\..\..\arduinoLCD\test\Pain Drain\libraries\lvgl\src\misc/lv_fs.c ****     return drv->ready_cb(drv);
  55:..\..\..\arduinoLCD\test\Pain Drain\libraries\lvgl\src\misc/lv_fs.c **** }
  56:..\..\..\arduinoLCD\test\Pain Drain\libraries\lvgl\src\misc/lv_fs.c **** 
  57:..\..\..\arduinoLCD\test\Pain Drain\libraries\lvgl\src\misc/lv_fs.c **** lv_fs_res_t lv_fs_open(lv_fs_file_t * file_p, const char * path, lv_fs_mode_t mode)
  58:..\..\..\arduinoLCD\test\Pain Drain\libraries\lvgl\src\misc/lv_fs.c **** {
  59:..\..\..\arduinoLCD\test\Pain Drain\libraries\lvgl\src\misc/lv_fs.c ****     if(path == NULL) {
  60:..\..\..\arduinoLCD\test\Pain Drain\libraries\lvgl\src\misc/lv_fs.c ****         LV_LOG_WARN("Can't open file: path is NULL");
  61:..\..\..\arduinoLCD\test\Pain Drain\libraries\lvgl\src\misc/lv_fs.c ****         return LV_FS_RES_INV_PARAM;
  62:..\..\..\arduinoLCD\test\Pain Drain\libraries\lvgl\src\misc/lv_fs.c ****     }
  63:..\..\..\arduinoLCD\test\Pain Drain\libraries\lvgl\src\misc/lv_fs.c **** 
  64:..\..\..\arduinoLCD\test\Pain Drain\libraries\lvgl\src\misc/lv_fs.c ****     char letter = path[0];
  65:..\..\..\arduinoLCD\test\Pain Drain\libraries\lvgl\src\misc/lv_fs.c ****     lv_fs_drv_t * drv = lv_fs_get_drv(letter);
  66:..\..\..\arduinoLCD\test\Pain Drain\libraries\lvgl\src\misc/lv_fs.c **** 
  67:..\..\..\arduinoLCD\test\Pain Drain\libraries\lvgl\src\misc/lv_fs.c ****     if(drv == NULL) {
  68:..\..\..\arduinoLCD\test\Pain Drain\libraries\lvgl\src\misc/lv_fs.c ****         LV_LOG_WARN("Can't open file (%s): unknown driver letter", path);
  69:..\..\..\arduinoLCD\test\Pain Drain\libraries\lvgl\src\misc/lv_fs.c ****         return LV_FS_RES_NOT_EX;
  70:..\..\..\arduinoLCD\test\Pain Drain\libraries\lvgl\src\misc/lv_fs.c ****     }
  71:..\..\..\arduinoLCD\test\Pain Drain\libraries\lvgl\src\misc/lv_fs.c **** 
  72:..\..\..\arduinoLCD\test\Pain Drain\libraries\lvgl\src\misc/lv_fs.c ****     if(drv->ready_cb) {
  73:..\..\..\arduinoLCD\test\Pain Drain\libraries\lvgl\src\misc/lv_fs.c ****         if(drv->ready_cb(drv) == false) {
  74:..\..\..\arduinoLCD\test\Pain Drain\libraries\lvgl\src\misc/lv_fs.c ****             LV_LOG_WARN("Can't open file (%s): driver not ready", path);
  75:..\..\..\arduinoLCD\test\Pain Drain\libraries\lvgl\src\misc/lv_fs.c ****             return LV_FS_RES_HW_ERR;
  76:..\..\..\arduinoLCD\test\Pain Drain\libraries\lvgl\src\misc/lv_fs.c ****         }
  77:..\..\..\arduinoLCD\test\Pain Drain\libraries\lvgl\src\misc/lv_fs.c ****     }
  78:..\..\..\arduinoLCD\test\Pain Drain\libraries\lvgl\src\misc/lv_fs.c **** 
  79:..\..\..\arduinoLCD\test\Pain Drain\libraries\lvgl\src\misc/lv_fs.c ****     if(drv->open_cb == NULL) {
  80:..\..\..\arduinoLCD\test\Pain Drain\libraries\lvgl\src\misc/lv_fs.c ****         LV_LOG_WARN("Can't open file (%s): open function not exists", path);
  81:..\..\..\arduinoLCD\test\Pain Drain\libraries\lvgl\src\misc/lv_fs.c ****         return LV_FS_RES_NOT_IMP;
  82:..\..\..\arduinoLCD\test\Pain Drain\libraries\lvgl\src\misc/lv_fs.c ****     }
  83:..\..\..\arduinoLCD\test\Pain Drain\libraries\lvgl\src\misc/lv_fs.c **** 
  84:..\..\..\arduinoLCD\test\Pain Drain\libraries\lvgl\src\misc/lv_fs.c ****     const char * real_path = lv_fs_get_real_path(path);
  85:..\..\..\arduinoLCD\test\Pain Drain\libraries\lvgl\src\misc/lv_fs.c ****     void * file_d = drv->open_cb(drv, real_path, mode);
  86:..\..\..\arduinoLCD\test\Pain Drain\libraries\lvgl\src\misc/lv_fs.c **** 
  87:..\..\..\arduinoLCD\test\Pain Drain\libraries\lvgl\src\misc/lv_fs.c ****     if(file_d == NULL || file_d == (void *)(-1)) {
  88:..\..\..\arduinoLCD\test\Pain Drain\libraries\lvgl\src\misc/lv_fs.c ****         return LV_FS_RES_UNKNOWN;
ARM GAS  C:\Users\haske\AppData\Local\Temp\cc4gWNdf.s 			page 3


  89:..\..\..\arduinoLCD\test\Pain Drain\libraries\lvgl\src\misc/lv_fs.c ****     }
  90:..\..\..\arduinoLCD\test\Pain Drain\libraries\lvgl\src\misc/lv_fs.c **** 
  91:..\..\..\arduinoLCD\test\Pain Drain\libraries\lvgl\src\misc/lv_fs.c ****     file_p->drv = drv;
  92:..\..\..\arduinoLCD\test\Pain Drain\libraries\lvgl\src\misc/lv_fs.c ****     file_p->file_d = file_d;
  93:..\..\..\arduinoLCD\test\Pain Drain\libraries\lvgl\src\misc/lv_fs.c **** 
  94:..\..\..\arduinoLCD\test\Pain Drain\libraries\lvgl\src\misc/lv_fs.c ****     if(drv->cache_size) {
  95:..\..\..\arduinoLCD\test\Pain Drain\libraries\lvgl\src\misc/lv_fs.c ****         file_p->cache = lv_mem_alloc(sizeof(lv_fs_file_cache_t));
  96:..\..\..\arduinoLCD\test\Pain Drain\libraries\lvgl\src\misc/lv_fs.c ****         LV_ASSERT_MALLOC(file_p->cache);
  97:..\..\..\arduinoLCD\test\Pain Drain\libraries\lvgl\src\misc/lv_fs.c ****         lv_memset_00(file_p->cache, sizeof(lv_fs_file_cache_t));
  98:..\..\..\arduinoLCD\test\Pain Drain\libraries\lvgl\src\misc/lv_fs.c ****         file_p->cache->start = UINT32_MAX;  /*Set an invalid range by default*/
  99:..\..\..\arduinoLCD\test\Pain Drain\libraries\lvgl\src\misc/lv_fs.c ****         file_p->cache->end = UINT32_MAX - 1;
 100:..\..\..\arduinoLCD\test\Pain Drain\libraries\lvgl\src\misc/lv_fs.c ****     }
 101:..\..\..\arduinoLCD\test\Pain Drain\libraries\lvgl\src\misc/lv_fs.c **** 
 102:..\..\..\arduinoLCD\test\Pain Drain\libraries\lvgl\src\misc/lv_fs.c ****     return LV_FS_RES_OK;
 103:..\..\..\arduinoLCD\test\Pain Drain\libraries\lvgl\src\misc/lv_fs.c **** }
 104:..\..\..\arduinoLCD\test\Pain Drain\libraries\lvgl\src\misc/lv_fs.c **** 
 105:..\..\..\arduinoLCD\test\Pain Drain\libraries\lvgl\src\misc/lv_fs.c **** lv_fs_res_t lv_fs_close(lv_fs_file_t * file_p)
 106:..\..\..\arduinoLCD\test\Pain Drain\libraries\lvgl\src\misc/lv_fs.c **** {
 107:..\..\..\arduinoLCD\test\Pain Drain\libraries\lvgl\src\misc/lv_fs.c ****     if(file_p->drv == NULL) {
 108:..\..\..\arduinoLCD\test\Pain Drain\libraries\lvgl\src\misc/lv_fs.c ****         return LV_FS_RES_INV_PARAM;
 109:..\..\..\arduinoLCD\test\Pain Drain\libraries\lvgl\src\misc/lv_fs.c ****     }
 110:..\..\..\arduinoLCD\test\Pain Drain\libraries\lvgl\src\misc/lv_fs.c **** 
 111:..\..\..\arduinoLCD\test\Pain Drain\libraries\lvgl\src\misc/lv_fs.c ****     if(file_p->drv->close_cb == NULL) {
 112:..\..\..\arduinoLCD\test\Pain Drain\libraries\lvgl\src\misc/lv_fs.c ****         return LV_FS_RES_NOT_IMP;
 113:..\..\..\arduinoLCD\test\Pain Drain\libraries\lvgl\src\misc/lv_fs.c ****     }
 114:..\..\..\arduinoLCD\test\Pain Drain\libraries\lvgl\src\misc/lv_fs.c **** 
 115:..\..\..\arduinoLCD\test\Pain Drain\libraries\lvgl\src\misc/lv_fs.c ****     lv_fs_res_t res = file_p->drv->close_cb(file_p->drv, file_p->file_d);
 116:..\..\..\arduinoLCD\test\Pain Drain\libraries\lvgl\src\misc/lv_fs.c **** 
 117:..\..\..\arduinoLCD\test\Pain Drain\libraries\lvgl\src\misc/lv_fs.c ****     if(file_p->drv->cache_size && file_p->cache) {
 118:..\..\..\arduinoLCD\test\Pain Drain\libraries\lvgl\src\misc/lv_fs.c ****         if(file_p->cache->buffer) {
 119:..\..\..\arduinoLCD\test\Pain Drain\libraries\lvgl\src\misc/lv_fs.c ****             lv_mem_free(file_p->cache->buffer);
 120:..\..\..\arduinoLCD\test\Pain Drain\libraries\lvgl\src\misc/lv_fs.c ****         }
 121:..\..\..\arduinoLCD\test\Pain Drain\libraries\lvgl\src\misc/lv_fs.c **** 
 122:..\..\..\arduinoLCD\test\Pain Drain\libraries\lvgl\src\misc/lv_fs.c ****         lv_mem_free(file_p->cache);
 123:..\..\..\arduinoLCD\test\Pain Drain\libraries\lvgl\src\misc/lv_fs.c ****     }
 124:..\..\..\arduinoLCD\test\Pain Drain\libraries\lvgl\src\misc/lv_fs.c **** 
 125:..\..\..\arduinoLCD\test\Pain Drain\libraries\lvgl\src\misc/lv_fs.c ****     file_p->file_d = NULL;
 126:..\..\..\arduinoLCD\test\Pain Drain\libraries\lvgl\src\misc/lv_fs.c ****     file_p->drv    = NULL;
 127:..\..\..\arduinoLCD\test\Pain Drain\libraries\lvgl\src\misc/lv_fs.c ****     file_p->cache  = NULL;
 128:..\..\..\arduinoLCD\test\Pain Drain\libraries\lvgl\src\misc/lv_fs.c **** 
 129:..\..\..\arduinoLCD\test\Pain Drain\libraries\lvgl\src\misc/lv_fs.c ****     return res;
 130:..\..\..\arduinoLCD\test\Pain Drain\libraries\lvgl\src\misc/lv_fs.c **** }
 131:..\..\..\arduinoLCD\test\Pain Drain\libraries\lvgl\src\misc/lv_fs.c **** 
 132:..\..\..\arduinoLCD\test\Pain Drain\libraries\lvgl\src\misc/lv_fs.c **** static lv_fs_res_t lv_fs_read_cached(lv_fs_file_t * file_p, char * buf, uint32_t btr, uint32_t * br
 133:..\..\..\arduinoLCD\test\Pain Drain\libraries\lvgl\src\misc/lv_fs.c **** {
 134:..\..\..\arduinoLCD\test\Pain Drain\libraries\lvgl\src\misc/lv_fs.c ****     lv_fs_res_t res = LV_FS_RES_OK;
 135:..\..\..\arduinoLCD\test\Pain Drain\libraries\lvgl\src\misc/lv_fs.c ****     uint32_t file_position = file_p->cache->file_position;
 136:..\..\..\arduinoLCD\test\Pain Drain\libraries\lvgl\src\misc/lv_fs.c ****     uint32_t start = file_p->cache->start;
 137:..\..\..\arduinoLCD\test\Pain Drain\libraries\lvgl\src\misc/lv_fs.c ****     uint32_t end = file_p->cache->end;
 138:..\..\..\arduinoLCD\test\Pain Drain\libraries\lvgl\src\misc/lv_fs.c ****     char * buffer = file_p->cache->buffer;
 139:..\..\..\arduinoLCD\test\Pain Drain\libraries\lvgl\src\misc/lv_fs.c ****     uint16_t buffer_size = file_p->drv->cache_size;
 140:..\..\..\arduinoLCD\test\Pain Drain\libraries\lvgl\src\misc/lv_fs.c **** 
 141:..\..\..\arduinoLCD\test\Pain Drain\libraries\lvgl\src\misc/lv_fs.c ****     if(start <= file_position && file_position < end) {
 142:..\..\..\arduinoLCD\test\Pain Drain\libraries\lvgl\src\misc/lv_fs.c ****         /* Data can be read from cache buffer */
 143:..\..\..\arduinoLCD\test\Pain Drain\libraries\lvgl\src\misc/lv_fs.c ****         uint16_t buffer_offset = file_position - start;
 144:..\..\..\arduinoLCD\test\Pain Drain\libraries\lvgl\src\misc/lv_fs.c ****         uint32_t buffer_remaining_length = LV_MIN((uint32_t)buffer_size - buffer_offset, (uint32_t)
 145:..\..\..\arduinoLCD\test\Pain Drain\libraries\lvgl\src\misc/lv_fs.c **** 
ARM GAS  C:\Users\haske\AppData\Local\Temp\cc4gWNdf.s 			page 4


 146:..\..\..\arduinoLCD\test\Pain Drain\libraries\lvgl\src\misc/lv_fs.c ****         if(btr <= buffer_remaining_length) {
 147:..\..\..\arduinoLCD\test\Pain Drain\libraries\lvgl\src\misc/lv_fs.c ****             /*Data is in cache buffer, and buffer end not reached, no need to read from FS*/
 148:..\..\..\arduinoLCD\test\Pain Drain\libraries\lvgl\src\misc/lv_fs.c ****             lv_memcpy(buf, buffer + buffer_offset, btr);
 149:..\..\..\arduinoLCD\test\Pain Drain\libraries\lvgl\src\misc/lv_fs.c ****             *br = btr;
 150:..\..\..\arduinoLCD\test\Pain Drain\libraries\lvgl\src\misc/lv_fs.c ****         }
 151:..\..\..\arduinoLCD\test\Pain Drain\libraries\lvgl\src\misc/lv_fs.c ****         else {
 152:..\..\..\arduinoLCD\test\Pain Drain\libraries\lvgl\src\misc/lv_fs.c ****             /*First part of data is in cache buffer, but we need to read rest of data from FS*/
 153:..\..\..\arduinoLCD\test\Pain Drain\libraries\lvgl\src\misc/lv_fs.c ****             lv_memcpy(buf, buffer + buffer_offset, buffer_remaining_length);
 154:..\..\..\arduinoLCD\test\Pain Drain\libraries\lvgl\src\misc/lv_fs.c **** 
 155:..\..\..\arduinoLCD\test\Pain Drain\libraries\lvgl\src\misc/lv_fs.c ****             uint32_t bytes_read_to_buffer = 0;
 156:..\..\..\arduinoLCD\test\Pain Drain\libraries\lvgl\src\misc/lv_fs.c ****             if(btr > buffer_size) {
 157:..\..\..\arduinoLCD\test\Pain Drain\libraries\lvgl\src\misc/lv_fs.c ****                 /*If remaining data chuck is bigger than buffer size, then do not use cache, instea
 158:..\..\..\arduinoLCD\test\Pain Drain\libraries\lvgl\src\misc/lv_fs.c ****                 res = file_p->drv->read_cb(file_p->drv, file_p->file_d, (void *)(buf + buffer_remai
 159:..\..\..\arduinoLCD\test\Pain Drain\libraries\lvgl\src\misc/lv_fs.c ****                                            btr - buffer_remaining_length, &bytes_read_to_buffer);
 160:..\..\..\arduinoLCD\test\Pain Drain\libraries\lvgl\src\misc/lv_fs.c ****             }
 161:..\..\..\arduinoLCD\test\Pain Drain\libraries\lvgl\src\misc/lv_fs.c ****             else {
 162:..\..\..\arduinoLCD\test\Pain Drain\libraries\lvgl\src\misc/lv_fs.c ****                 /*If remaining data chunk is smaller than buffer size, then read into cache buffer*
 163:..\..\..\arduinoLCD\test\Pain Drain\libraries\lvgl\src\misc/lv_fs.c ****                 res = file_p->drv->read_cb(file_p->drv, file_p->file_d, (void *)buffer, buffer_size
 164:..\..\..\arduinoLCD\test\Pain Drain\libraries\lvgl\src\misc/lv_fs.c ****                 file_p->cache->start = file_p->cache->end;
 165:..\..\..\arduinoLCD\test\Pain Drain\libraries\lvgl\src\misc/lv_fs.c ****                 file_p->cache->end = file_p->cache->start + bytes_read_to_buffer;
 166:..\..\..\arduinoLCD\test\Pain Drain\libraries\lvgl\src\misc/lv_fs.c **** 
 167:..\..\..\arduinoLCD\test\Pain Drain\libraries\lvgl\src\misc/lv_fs.c ****                 uint16_t data_chunk_remaining = LV_MIN(btr - buffer_remaining_length, bytes_read_to
 168:..\..\..\arduinoLCD\test\Pain Drain\libraries\lvgl\src\misc/lv_fs.c ****                 lv_memcpy(buf + buffer_remaining_length, buffer, data_chunk_remaining);
 169:..\..\..\arduinoLCD\test\Pain Drain\libraries\lvgl\src\misc/lv_fs.c ****             }
 170:..\..\..\arduinoLCD\test\Pain Drain\libraries\lvgl\src\misc/lv_fs.c ****             *br = LV_MIN(buffer_remaining_length + bytes_read_to_buffer, btr);
 171:..\..\..\arduinoLCD\test\Pain Drain\libraries\lvgl\src\misc/lv_fs.c ****         }
 172:..\..\..\arduinoLCD\test\Pain Drain\libraries\lvgl\src\misc/lv_fs.c ****     }
 173:..\..\..\arduinoLCD\test\Pain Drain\libraries\lvgl\src\misc/lv_fs.c ****     else {
 174:..\..\..\arduinoLCD\test\Pain Drain\libraries\lvgl\src\misc/lv_fs.c ****         /*Data is not in cache buffer*/
 175:..\..\..\arduinoLCD\test\Pain Drain\libraries\lvgl\src\misc/lv_fs.c ****         if(btr > buffer_size) {
 176:..\..\..\arduinoLCD\test\Pain Drain\libraries\lvgl\src\misc/lv_fs.c ****             /*If bigger data is requested, then do not use cache, instead read it directly*/
 177:..\..\..\arduinoLCD\test\Pain Drain\libraries\lvgl\src\misc/lv_fs.c ****             res = file_p->drv->read_cb(file_p->drv, file_p->file_d, (void *)buf, btr, br);
 178:..\..\..\arduinoLCD\test\Pain Drain\libraries\lvgl\src\misc/lv_fs.c ****         }
 179:..\..\..\arduinoLCD\test\Pain Drain\libraries\lvgl\src\misc/lv_fs.c ****         else {
 180:..\..\..\arduinoLCD\test\Pain Drain\libraries\lvgl\src\misc/lv_fs.c ****             /*If small data is requested, then read from FS into cache buffer*/
 181:..\..\..\arduinoLCD\test\Pain Drain\libraries\lvgl\src\misc/lv_fs.c ****             if(buffer == NULL) {
 182:..\..\..\arduinoLCD\test\Pain Drain\libraries\lvgl\src\misc/lv_fs.c ****                 file_p->cache->buffer = lv_mem_alloc(buffer_size);
 183:..\..\..\arduinoLCD\test\Pain Drain\libraries\lvgl\src\misc/lv_fs.c ****                 LV_ASSERT_MALLOC(file_p->cache->buffer);
 184:..\..\..\arduinoLCD\test\Pain Drain\libraries\lvgl\src\misc/lv_fs.c ****                 buffer = file_p->cache->buffer;
 185:..\..\..\arduinoLCD\test\Pain Drain\libraries\lvgl\src\misc/lv_fs.c ****             }
 186:..\..\..\arduinoLCD\test\Pain Drain\libraries\lvgl\src\misc/lv_fs.c **** 
 187:..\..\..\arduinoLCD\test\Pain Drain\libraries\lvgl\src\misc/lv_fs.c ****             uint32_t bytes_read_to_buffer = 0;
 188:..\..\..\arduinoLCD\test\Pain Drain\libraries\lvgl\src\misc/lv_fs.c ****             res = file_p->drv->read_cb(file_p->drv, file_p->file_d, (void *)buffer, buffer_size, &b
 189:..\..\..\arduinoLCD\test\Pain Drain\libraries\lvgl\src\misc/lv_fs.c ****             file_p->cache->start = file_position;
 190:..\..\..\arduinoLCD\test\Pain Drain\libraries\lvgl\src\misc/lv_fs.c ****             file_p->cache->end = file_p->cache->start + bytes_read_to_buffer;
 191:..\..\..\arduinoLCD\test\Pain Drain\libraries\lvgl\src\misc/lv_fs.c **** 
 192:..\..\..\arduinoLCD\test\Pain Drain\libraries\lvgl\src\misc/lv_fs.c ****             *br = LV_MIN(btr, bytes_read_to_buffer);
 193:..\..\..\arduinoLCD\test\Pain Drain\libraries\lvgl\src\misc/lv_fs.c ****             lv_memcpy(buf, buffer, *br);
 194:..\..\..\arduinoLCD\test\Pain Drain\libraries\lvgl\src\misc/lv_fs.c **** 
 195:..\..\..\arduinoLCD\test\Pain Drain\libraries\lvgl\src\misc/lv_fs.c ****         }
 196:..\..\..\arduinoLCD\test\Pain Drain\libraries\lvgl\src\misc/lv_fs.c ****     }
 197:..\..\..\arduinoLCD\test\Pain Drain\libraries\lvgl\src\misc/lv_fs.c **** 
 198:..\..\..\arduinoLCD\test\Pain Drain\libraries\lvgl\src\misc/lv_fs.c ****     if(res == LV_FS_RES_OK) {
 199:..\..\..\arduinoLCD\test\Pain Drain\libraries\lvgl\src\misc/lv_fs.c ****         file_p->cache->file_position += *br;
 200:..\..\..\arduinoLCD\test\Pain Drain\libraries\lvgl\src\misc/lv_fs.c ****     }
 201:..\..\..\arduinoLCD\test\Pain Drain\libraries\lvgl\src\misc/lv_fs.c **** 
 202:..\..\..\arduinoLCD\test\Pain Drain\libraries\lvgl\src\misc/lv_fs.c ****     return res;
ARM GAS  C:\Users\haske\AppData\Local\Temp\cc4gWNdf.s 			page 5


 203:..\..\..\arduinoLCD\test\Pain Drain\libraries\lvgl\src\misc/lv_fs.c **** }
 204:..\..\..\arduinoLCD\test\Pain Drain\libraries\lvgl\src\misc/lv_fs.c **** 
 205:..\..\..\arduinoLCD\test\Pain Drain\libraries\lvgl\src\misc/lv_fs.c **** lv_fs_res_t lv_fs_read(lv_fs_file_t * file_p, void * buf, uint32_t btr, uint32_t * br)
 206:..\..\..\arduinoLCD\test\Pain Drain\libraries\lvgl\src\misc/lv_fs.c **** {
 207:..\..\..\arduinoLCD\test\Pain Drain\libraries\lvgl\src\misc/lv_fs.c ****     if(br != NULL) *br = 0;
 208:..\..\..\arduinoLCD\test\Pain Drain\libraries\lvgl\src\misc/lv_fs.c ****     if(file_p->drv == NULL) return LV_FS_RES_INV_PARAM;
 209:..\..\..\arduinoLCD\test\Pain Drain\libraries\lvgl\src\misc/lv_fs.c ****     if(file_p->drv->read_cb == NULL) return LV_FS_RES_NOT_IMP;
 210:..\..\..\arduinoLCD\test\Pain Drain\libraries\lvgl\src\misc/lv_fs.c **** 
 211:..\..\..\arduinoLCD\test\Pain Drain\libraries\lvgl\src\misc/lv_fs.c ****     uint32_t br_tmp = 0;
 212:..\..\..\arduinoLCD\test\Pain Drain\libraries\lvgl\src\misc/lv_fs.c ****     lv_fs_res_t res;
 213:..\..\..\arduinoLCD\test\Pain Drain\libraries\lvgl\src\misc/lv_fs.c **** 
 214:..\..\..\arduinoLCD\test\Pain Drain\libraries\lvgl\src\misc/lv_fs.c ****     if(file_p->drv->cache_size) {
 215:..\..\..\arduinoLCD\test\Pain Drain\libraries\lvgl\src\misc/lv_fs.c ****         res = lv_fs_read_cached(file_p, (char *)buf, btr, &br_tmp);
 216:..\..\..\arduinoLCD\test\Pain Drain\libraries\lvgl\src\misc/lv_fs.c ****     }
 217:..\..\..\arduinoLCD\test\Pain Drain\libraries\lvgl\src\misc/lv_fs.c ****     else {
 218:..\..\..\arduinoLCD\test\Pain Drain\libraries\lvgl\src\misc/lv_fs.c ****         res = file_p->drv->read_cb(file_p->drv, file_p->file_d, buf, btr, &br_tmp);
 219:..\..\..\arduinoLCD\test\Pain Drain\libraries\lvgl\src\misc/lv_fs.c ****     }
 220:..\..\..\arduinoLCD\test\Pain Drain\libraries\lvgl\src\misc/lv_fs.c **** 
 221:..\..\..\arduinoLCD\test\Pain Drain\libraries\lvgl\src\misc/lv_fs.c ****     if(br != NULL) *br = br_tmp;
 222:..\..\..\arduinoLCD\test\Pain Drain\libraries\lvgl\src\misc/lv_fs.c **** 
 223:..\..\..\arduinoLCD\test\Pain Drain\libraries\lvgl\src\misc/lv_fs.c ****     return res;
 224:..\..\..\arduinoLCD\test\Pain Drain\libraries\lvgl\src\misc/lv_fs.c **** }
 225:..\..\..\arduinoLCD\test\Pain Drain\libraries\lvgl\src\misc/lv_fs.c **** 
 226:..\..\..\arduinoLCD\test\Pain Drain\libraries\lvgl\src\misc/lv_fs.c **** lv_fs_res_t lv_fs_write(lv_fs_file_t * file_p, const void * buf, uint32_t btw, uint32_t * bw)
 227:..\..\..\arduinoLCD\test\Pain Drain\libraries\lvgl\src\misc/lv_fs.c **** {
 228:..\..\..\arduinoLCD\test\Pain Drain\libraries\lvgl\src\misc/lv_fs.c ****     if(bw != NULL) *bw = 0;
 229:..\..\..\arduinoLCD\test\Pain Drain\libraries\lvgl\src\misc/lv_fs.c **** 
 230:..\..\..\arduinoLCD\test\Pain Drain\libraries\lvgl\src\misc/lv_fs.c ****     if(file_p->drv == NULL) {
 231:..\..\..\arduinoLCD\test\Pain Drain\libraries\lvgl\src\misc/lv_fs.c ****         return LV_FS_RES_INV_PARAM;
 232:..\..\..\arduinoLCD\test\Pain Drain\libraries\lvgl\src\misc/lv_fs.c ****     }
 233:..\..\..\arduinoLCD\test\Pain Drain\libraries\lvgl\src\misc/lv_fs.c **** 
 234:..\..\..\arduinoLCD\test\Pain Drain\libraries\lvgl\src\misc/lv_fs.c ****     if(file_p->drv->write_cb == NULL) {
 235:..\..\..\arduinoLCD\test\Pain Drain\libraries\lvgl\src\misc/lv_fs.c ****         return LV_FS_RES_NOT_IMP;
 236:..\..\..\arduinoLCD\test\Pain Drain\libraries\lvgl\src\misc/lv_fs.c ****     }
 237:..\..\..\arduinoLCD\test\Pain Drain\libraries\lvgl\src\misc/lv_fs.c **** 
 238:..\..\..\arduinoLCD\test\Pain Drain\libraries\lvgl\src\misc/lv_fs.c ****     uint32_t bw_tmp = 0;
 239:..\..\..\arduinoLCD\test\Pain Drain\libraries\lvgl\src\misc/lv_fs.c ****     lv_fs_res_t res = file_p->drv->write_cb(file_p->drv, file_p->file_d, buf, btw, &bw_tmp);
 240:..\..\..\arduinoLCD\test\Pain Drain\libraries\lvgl\src\misc/lv_fs.c ****     if(bw != NULL) *bw = bw_tmp;
 241:..\..\..\arduinoLCD\test\Pain Drain\libraries\lvgl\src\misc/lv_fs.c **** 
 242:..\..\..\arduinoLCD\test\Pain Drain\libraries\lvgl\src\misc/lv_fs.c ****     return res;
 243:..\..\..\arduinoLCD\test\Pain Drain\libraries\lvgl\src\misc/lv_fs.c **** }
 244:..\..\..\arduinoLCD\test\Pain Drain\libraries\lvgl\src\misc/lv_fs.c **** 
 245:..\..\..\arduinoLCD\test\Pain Drain\libraries\lvgl\src\misc/lv_fs.c **** lv_fs_res_t lv_fs_seek(lv_fs_file_t * file_p, uint32_t pos, lv_fs_whence_t whence)
 246:..\..\..\arduinoLCD\test\Pain Drain\libraries\lvgl\src\misc/lv_fs.c **** {
 247:..\..\..\arduinoLCD\test\Pain Drain\libraries\lvgl\src\misc/lv_fs.c ****     if(file_p->drv == NULL) {
 248:..\..\..\arduinoLCD\test\Pain Drain\libraries\lvgl\src\misc/lv_fs.c ****         return LV_FS_RES_INV_PARAM;
 249:..\..\..\arduinoLCD\test\Pain Drain\libraries\lvgl\src\misc/lv_fs.c ****     }
 250:..\..\..\arduinoLCD\test\Pain Drain\libraries\lvgl\src\misc/lv_fs.c **** 
 251:..\..\..\arduinoLCD\test\Pain Drain\libraries\lvgl\src\misc/lv_fs.c ****     if(file_p->drv->seek_cb == NULL) {
 252:..\..\..\arduinoLCD\test\Pain Drain\libraries\lvgl\src\misc/lv_fs.c ****         return LV_FS_RES_NOT_IMP;
 253:..\..\..\arduinoLCD\test\Pain Drain\libraries\lvgl\src\misc/lv_fs.c ****     }
 254:..\..\..\arduinoLCD\test\Pain Drain\libraries\lvgl\src\misc/lv_fs.c **** 
 255:..\..\..\arduinoLCD\test\Pain Drain\libraries\lvgl\src\misc/lv_fs.c ****     lv_fs_res_t res = LV_FS_RES_OK;
 256:..\..\..\arduinoLCD\test\Pain Drain\libraries\lvgl\src\misc/lv_fs.c ****     if(file_p->drv->cache_size) {
 257:..\..\..\arduinoLCD\test\Pain Drain\libraries\lvgl\src\misc/lv_fs.c ****         switch(whence) {
 258:..\..\..\arduinoLCD\test\Pain Drain\libraries\lvgl\src\misc/lv_fs.c ****             case LV_FS_SEEK_SET: {
 259:..\..\..\arduinoLCD\test\Pain Drain\libraries\lvgl\src\misc/lv_fs.c ****                     file_p->cache->file_position = pos;
ARM GAS  C:\Users\haske\AppData\Local\Temp\cc4gWNdf.s 			page 6


 260:..\..\..\arduinoLCD\test\Pain Drain\libraries\lvgl\src\misc/lv_fs.c **** 
 261:..\..\..\arduinoLCD\test\Pain Drain\libraries\lvgl\src\misc/lv_fs.c ****                     /*FS seek if new position is outside cache buffer*/
 262:..\..\..\arduinoLCD\test\Pain Drain\libraries\lvgl\src\misc/lv_fs.c ****                     if(file_p->cache->file_position < file_p->cache->start || file_p->cache->file_p
 263:..\..\..\arduinoLCD\test\Pain Drain\libraries\lvgl\src\misc/lv_fs.c ****                         res = file_p->drv->seek_cb(file_p->drv, file_p->file_d, file_p->cache->file
 264:..\..\..\arduinoLCD\test\Pain Drain\libraries\lvgl\src\misc/lv_fs.c ****                     }
 265:..\..\..\arduinoLCD\test\Pain Drain\libraries\lvgl\src\misc/lv_fs.c **** 
 266:..\..\..\arduinoLCD\test\Pain Drain\libraries\lvgl\src\misc/lv_fs.c ****                     break;
 267:..\..\..\arduinoLCD\test\Pain Drain\libraries\lvgl\src\misc/lv_fs.c ****                 }
 268:..\..\..\arduinoLCD\test\Pain Drain\libraries\lvgl\src\misc/lv_fs.c ****             case LV_FS_SEEK_CUR: {
 269:..\..\..\arduinoLCD\test\Pain Drain\libraries\lvgl\src\misc/lv_fs.c ****                     file_p->cache->file_position += pos;
 270:..\..\..\arduinoLCD\test\Pain Drain\libraries\lvgl\src\misc/lv_fs.c **** 
 271:..\..\..\arduinoLCD\test\Pain Drain\libraries\lvgl\src\misc/lv_fs.c ****                     /*FS seek if new position is outside cache buffer*/
 272:..\..\..\arduinoLCD\test\Pain Drain\libraries\lvgl\src\misc/lv_fs.c ****                     if(file_p->cache->file_position < file_p->cache->start || file_p->cache->file_p
 273:..\..\..\arduinoLCD\test\Pain Drain\libraries\lvgl\src\misc/lv_fs.c ****                         res = file_p->drv->seek_cb(file_p->drv, file_p->file_d, file_p->cache->file
 274:..\..\..\arduinoLCD\test\Pain Drain\libraries\lvgl\src\misc/lv_fs.c ****                     }
 275:..\..\..\arduinoLCD\test\Pain Drain\libraries\lvgl\src\misc/lv_fs.c **** 
 276:..\..\..\arduinoLCD\test\Pain Drain\libraries\lvgl\src\misc/lv_fs.c ****                     break;
 277:..\..\..\arduinoLCD\test\Pain Drain\libraries\lvgl\src\misc/lv_fs.c ****                 }
 278:..\..\..\arduinoLCD\test\Pain Drain\libraries\lvgl\src\misc/lv_fs.c ****             case LV_FS_SEEK_END: {
 279:..\..\..\arduinoLCD\test\Pain Drain\libraries\lvgl\src\misc/lv_fs.c ****                     /*Because we don't know the file size, we do a little trick: do a FS seek, then
 280:..\..\..\arduinoLCD\test\Pain Drain\libraries\lvgl\src\misc/lv_fs.c ****                     res = file_p->drv->seek_cb(file_p->drv, file_p->file_d, pos, whence);
 281:..\..\..\arduinoLCD\test\Pain Drain\libraries\lvgl\src\misc/lv_fs.c ****                     if(res == LV_FS_RES_OK) {
 282:..\..\..\arduinoLCD\test\Pain Drain\libraries\lvgl\src\misc/lv_fs.c ****                         uint32_t tmp_position;
 283:..\..\..\arduinoLCD\test\Pain Drain\libraries\lvgl\src\misc/lv_fs.c ****                         res = file_p->drv->tell_cb(file_p->drv, file_p->file_d, &tmp_position);
 284:..\..\..\arduinoLCD\test\Pain Drain\libraries\lvgl\src\misc/lv_fs.c **** 
 285:..\..\..\arduinoLCD\test\Pain Drain\libraries\lvgl\src\misc/lv_fs.c ****                         if(res == LV_FS_RES_OK) {
 286:..\..\..\arduinoLCD\test\Pain Drain\libraries\lvgl\src\misc/lv_fs.c ****                             file_p->cache->file_position = tmp_position;
 287:..\..\..\arduinoLCD\test\Pain Drain\libraries\lvgl\src\misc/lv_fs.c ****                         }
 288:..\..\..\arduinoLCD\test\Pain Drain\libraries\lvgl\src\misc/lv_fs.c ****                     }
 289:..\..\..\arduinoLCD\test\Pain Drain\libraries\lvgl\src\misc/lv_fs.c ****                     break;
 290:..\..\..\arduinoLCD\test\Pain Drain\libraries\lvgl\src\misc/lv_fs.c ****                 }
 291:..\..\..\arduinoLCD\test\Pain Drain\libraries\lvgl\src\misc/lv_fs.c ****         }
 292:..\..\..\arduinoLCD\test\Pain Drain\libraries\lvgl\src\misc/lv_fs.c ****     }
 293:..\..\..\arduinoLCD\test\Pain Drain\libraries\lvgl\src\misc/lv_fs.c ****     else {
 294:..\..\..\arduinoLCD\test\Pain Drain\libraries\lvgl\src\misc/lv_fs.c ****         res = file_p->drv->seek_cb(file_p->drv, file_p->file_d, pos, whence);
 295:..\..\..\arduinoLCD\test\Pain Drain\libraries\lvgl\src\misc/lv_fs.c ****     }
 296:..\..\..\arduinoLCD\test\Pain Drain\libraries\lvgl\src\misc/lv_fs.c **** 
 297:..\..\..\arduinoLCD\test\Pain Drain\libraries\lvgl\src\misc/lv_fs.c ****     return res;
 298:..\..\..\arduinoLCD\test\Pain Drain\libraries\lvgl\src\misc/lv_fs.c **** }
 299:..\..\..\arduinoLCD\test\Pain Drain\libraries\lvgl\src\misc/lv_fs.c **** 
 300:..\..\..\arduinoLCD\test\Pain Drain\libraries\lvgl\src\misc/lv_fs.c **** lv_fs_res_t lv_fs_tell(lv_fs_file_t * file_p, uint32_t * pos)
 301:..\..\..\arduinoLCD\test\Pain Drain\libraries\lvgl\src\misc/lv_fs.c **** {
 302:..\..\..\arduinoLCD\test\Pain Drain\libraries\lvgl\src\misc/lv_fs.c ****     if(file_p->drv == NULL) {
 303:..\..\..\arduinoLCD\test\Pain Drain\libraries\lvgl\src\misc/lv_fs.c ****         *pos = 0;
 304:..\..\..\arduinoLCD\test\Pain Drain\libraries\lvgl\src\misc/lv_fs.c ****         return LV_FS_RES_INV_PARAM;
 305:..\..\..\arduinoLCD\test\Pain Drain\libraries\lvgl\src\misc/lv_fs.c ****     }
 306:..\..\..\arduinoLCD\test\Pain Drain\libraries\lvgl\src\misc/lv_fs.c **** 
 307:..\..\..\arduinoLCD\test\Pain Drain\libraries\lvgl\src\misc/lv_fs.c ****     if(file_p->drv->tell_cb == NULL) {
 308:..\..\..\arduinoLCD\test\Pain Drain\libraries\lvgl\src\misc/lv_fs.c ****         *pos = 0;
 309:..\..\..\arduinoLCD\test\Pain Drain\libraries\lvgl\src\misc/lv_fs.c ****         return LV_FS_RES_NOT_IMP;
 310:..\..\..\arduinoLCD\test\Pain Drain\libraries\lvgl\src\misc/lv_fs.c ****     }
 311:..\..\..\arduinoLCD\test\Pain Drain\libraries\lvgl\src\misc/lv_fs.c **** 
 312:..\..\..\arduinoLCD\test\Pain Drain\libraries\lvgl\src\misc/lv_fs.c ****     lv_fs_res_t res;
 313:..\..\..\arduinoLCD\test\Pain Drain\libraries\lvgl\src\misc/lv_fs.c ****     if(file_p->drv->cache_size) {
 314:..\..\..\arduinoLCD\test\Pain Drain\libraries\lvgl\src\misc/lv_fs.c ****         *pos = file_p->cache->file_position;
 315:..\..\..\arduinoLCD\test\Pain Drain\libraries\lvgl\src\misc/lv_fs.c ****         res = LV_FS_RES_OK;
 316:..\..\..\arduinoLCD\test\Pain Drain\libraries\lvgl\src\misc/lv_fs.c ****     }
ARM GAS  C:\Users\haske\AppData\Local\Temp\cc4gWNdf.s 			page 7


 317:..\..\..\arduinoLCD\test\Pain Drain\libraries\lvgl\src\misc/lv_fs.c ****     else {
 318:..\..\..\arduinoLCD\test\Pain Drain\libraries\lvgl\src\misc/lv_fs.c ****         res = file_p->drv->tell_cb(file_p->drv, file_p->file_d, pos);
 319:..\..\..\arduinoLCD\test\Pain Drain\libraries\lvgl\src\misc/lv_fs.c ****     }
 320:..\..\..\arduinoLCD\test\Pain Drain\libraries\lvgl\src\misc/lv_fs.c **** 
 321:..\..\..\arduinoLCD\test\Pain Drain\libraries\lvgl\src\misc/lv_fs.c ****     return res;
 322:..\..\..\arduinoLCD\test\Pain Drain\libraries\lvgl\src\misc/lv_fs.c **** }
 323:..\..\..\arduinoLCD\test\Pain Drain\libraries\lvgl\src\misc/lv_fs.c **** 
 324:..\..\..\arduinoLCD\test\Pain Drain\libraries\lvgl\src\misc/lv_fs.c **** lv_fs_res_t lv_fs_dir_open(lv_fs_dir_t * rddir_p, const char * path)
 325:..\..\..\arduinoLCD\test\Pain Drain\libraries\lvgl\src\misc/lv_fs.c **** {
 326:..\..\..\arduinoLCD\test\Pain Drain\libraries\lvgl\src\misc/lv_fs.c ****     if(path == NULL) return LV_FS_RES_INV_PARAM;
 327:..\..\..\arduinoLCD\test\Pain Drain\libraries\lvgl\src\misc/lv_fs.c **** 
 328:..\..\..\arduinoLCD\test\Pain Drain\libraries\lvgl\src\misc/lv_fs.c ****     char letter = path[0];
 329:..\..\..\arduinoLCD\test\Pain Drain\libraries\lvgl\src\misc/lv_fs.c ****     lv_fs_drv_t * drv = lv_fs_get_drv(letter);
 330:..\..\..\arduinoLCD\test\Pain Drain\libraries\lvgl\src\misc/lv_fs.c **** 
 331:..\..\..\arduinoLCD\test\Pain Drain\libraries\lvgl\src\misc/lv_fs.c ****     if(drv == NULL) {
 332:..\..\..\arduinoLCD\test\Pain Drain\libraries\lvgl\src\misc/lv_fs.c ****         return LV_FS_RES_NOT_EX;
 333:..\..\..\arduinoLCD\test\Pain Drain\libraries\lvgl\src\misc/lv_fs.c ****     }
 334:..\..\..\arduinoLCD\test\Pain Drain\libraries\lvgl\src\misc/lv_fs.c **** 
 335:..\..\..\arduinoLCD\test\Pain Drain\libraries\lvgl\src\misc/lv_fs.c ****     if(drv->ready_cb) {
 336:..\..\..\arduinoLCD\test\Pain Drain\libraries\lvgl\src\misc/lv_fs.c ****         if(drv->ready_cb(drv) == false) {
 337:..\..\..\arduinoLCD\test\Pain Drain\libraries\lvgl\src\misc/lv_fs.c ****             return LV_FS_RES_HW_ERR;
 338:..\..\..\arduinoLCD\test\Pain Drain\libraries\lvgl\src\misc/lv_fs.c ****         }
 339:..\..\..\arduinoLCD\test\Pain Drain\libraries\lvgl\src\misc/lv_fs.c ****     }
 340:..\..\..\arduinoLCD\test\Pain Drain\libraries\lvgl\src\misc/lv_fs.c **** 
 341:..\..\..\arduinoLCD\test\Pain Drain\libraries\lvgl\src\misc/lv_fs.c ****     if(drv->dir_open_cb == NULL) {
 342:..\..\..\arduinoLCD\test\Pain Drain\libraries\lvgl\src\misc/lv_fs.c ****         return LV_FS_RES_NOT_IMP;
 343:..\..\..\arduinoLCD\test\Pain Drain\libraries\lvgl\src\misc/lv_fs.c ****     }
 344:..\..\..\arduinoLCD\test\Pain Drain\libraries\lvgl\src\misc/lv_fs.c **** 
 345:..\..\..\arduinoLCD\test\Pain Drain\libraries\lvgl\src\misc/lv_fs.c ****     const char * real_path = lv_fs_get_real_path(path);
 346:..\..\..\arduinoLCD\test\Pain Drain\libraries\lvgl\src\misc/lv_fs.c ****     void * dir_d = drv->dir_open_cb(drv, real_path);
 347:..\..\..\arduinoLCD\test\Pain Drain\libraries\lvgl\src\misc/lv_fs.c **** 
 348:..\..\..\arduinoLCD\test\Pain Drain\libraries\lvgl\src\misc/lv_fs.c ****     if(dir_d == NULL || dir_d == (void *)(-1)) {
 349:..\..\..\arduinoLCD\test\Pain Drain\libraries\lvgl\src\misc/lv_fs.c ****         return LV_FS_RES_UNKNOWN;
 350:..\..\..\arduinoLCD\test\Pain Drain\libraries\lvgl\src\misc/lv_fs.c ****     }
 351:..\..\..\arduinoLCD\test\Pain Drain\libraries\lvgl\src\misc/lv_fs.c **** 
 352:..\..\..\arduinoLCD\test\Pain Drain\libraries\lvgl\src\misc/lv_fs.c ****     rddir_p->drv = drv;
 353:..\..\..\arduinoLCD\test\Pain Drain\libraries\lvgl\src\misc/lv_fs.c ****     rddir_p->dir_d = dir_d;
 354:..\..\..\arduinoLCD\test\Pain Drain\libraries\lvgl\src\misc/lv_fs.c **** 
 355:..\..\..\arduinoLCD\test\Pain Drain\libraries\lvgl\src\misc/lv_fs.c ****     return LV_FS_RES_OK;
 356:..\..\..\arduinoLCD\test\Pain Drain\libraries\lvgl\src\misc/lv_fs.c **** }
 357:..\..\..\arduinoLCD\test\Pain Drain\libraries\lvgl\src\misc/lv_fs.c **** 
 358:..\..\..\arduinoLCD\test\Pain Drain\libraries\lvgl\src\misc/lv_fs.c **** lv_fs_res_t lv_fs_dir_read(lv_fs_dir_t * rddir_p, char * fn)
 359:..\..\..\arduinoLCD\test\Pain Drain\libraries\lvgl\src\misc/lv_fs.c **** {
 360:..\..\..\arduinoLCD\test\Pain Drain\libraries\lvgl\src\misc/lv_fs.c ****     if(rddir_p->drv == NULL || rddir_p->dir_d == NULL) {
 361:..\..\..\arduinoLCD\test\Pain Drain\libraries\lvgl\src\misc/lv_fs.c ****         fn[0] = '\0';
 362:..\..\..\arduinoLCD\test\Pain Drain\libraries\lvgl\src\misc/lv_fs.c ****         return LV_FS_RES_INV_PARAM;
 363:..\..\..\arduinoLCD\test\Pain Drain\libraries\lvgl\src\misc/lv_fs.c ****     }
 364:..\..\..\arduinoLCD\test\Pain Drain\libraries\lvgl\src\misc/lv_fs.c **** 
 365:..\..\..\arduinoLCD\test\Pain Drain\libraries\lvgl\src\misc/lv_fs.c ****     if(rddir_p->drv->dir_read_cb == NULL) {
 366:..\..\..\arduinoLCD\test\Pain Drain\libraries\lvgl\src\misc/lv_fs.c ****         fn[0] = '\0';
 367:..\..\..\arduinoLCD\test\Pain Drain\libraries\lvgl\src\misc/lv_fs.c ****         return LV_FS_RES_NOT_IMP;
 368:..\..\..\arduinoLCD\test\Pain Drain\libraries\lvgl\src\misc/lv_fs.c ****     }
 369:..\..\..\arduinoLCD\test\Pain Drain\libraries\lvgl\src\misc/lv_fs.c **** 
 370:..\..\..\arduinoLCD\test\Pain Drain\libraries\lvgl\src\misc/lv_fs.c ****     lv_fs_res_t res = rddir_p->drv->dir_read_cb(rddir_p->drv, rddir_p->dir_d, fn);
 371:..\..\..\arduinoLCD\test\Pain Drain\libraries\lvgl\src\misc/lv_fs.c **** 
 372:..\..\..\arduinoLCD\test\Pain Drain\libraries\lvgl\src\misc/lv_fs.c ****     return res;
 373:..\..\..\arduinoLCD\test\Pain Drain\libraries\lvgl\src\misc/lv_fs.c **** }
ARM GAS  C:\Users\haske\AppData\Local\Temp\cc4gWNdf.s 			page 8


 374:..\..\..\arduinoLCD\test\Pain Drain\libraries\lvgl\src\misc/lv_fs.c **** 
 375:..\..\..\arduinoLCD\test\Pain Drain\libraries\lvgl\src\misc/lv_fs.c **** lv_fs_res_t lv_fs_dir_close(lv_fs_dir_t * rddir_p)
 376:..\..\..\arduinoLCD\test\Pain Drain\libraries\lvgl\src\misc/lv_fs.c **** {
 377:..\..\..\arduinoLCD\test\Pain Drain\libraries\lvgl\src\misc/lv_fs.c ****     if(rddir_p->drv == NULL || rddir_p->dir_d == NULL) {
 378:..\..\..\arduinoLCD\test\Pain Drain\libraries\lvgl\src\misc/lv_fs.c ****         return LV_FS_RES_INV_PARAM;
 379:..\..\..\arduinoLCD\test\Pain Drain\libraries\lvgl\src\misc/lv_fs.c ****     }
 380:..\..\..\arduinoLCD\test\Pain Drain\libraries\lvgl\src\misc/lv_fs.c **** 
 381:..\..\..\arduinoLCD\test\Pain Drain\libraries\lvgl\src\misc/lv_fs.c ****     if(rddir_p->drv->dir_close_cb == NULL) {
 382:..\..\..\arduinoLCD\test\Pain Drain\libraries\lvgl\src\misc/lv_fs.c ****         return LV_FS_RES_NOT_IMP;
 383:..\..\..\arduinoLCD\test\Pain Drain\libraries\lvgl\src\misc/lv_fs.c ****     }
 384:..\..\..\arduinoLCD\test\Pain Drain\libraries\lvgl\src\misc/lv_fs.c **** 
 385:..\..\..\arduinoLCD\test\Pain Drain\libraries\lvgl\src\misc/lv_fs.c ****     lv_fs_res_t res = rddir_p->drv->dir_close_cb(rddir_p->drv, rddir_p->dir_d);
 386:..\..\..\arduinoLCD\test\Pain Drain\libraries\lvgl\src\misc/lv_fs.c **** 
 387:..\..\..\arduinoLCD\test\Pain Drain\libraries\lvgl\src\misc/lv_fs.c ****     rddir_p->dir_d = NULL;
 388:..\..\..\arduinoLCD\test\Pain Drain\libraries\lvgl\src\misc/lv_fs.c ****     rddir_p->drv   = NULL;
 389:..\..\..\arduinoLCD\test\Pain Drain\libraries\lvgl\src\misc/lv_fs.c **** 
 390:..\..\..\arduinoLCD\test\Pain Drain\libraries\lvgl\src\misc/lv_fs.c ****     return res;
 391:..\..\..\arduinoLCD\test\Pain Drain\libraries\lvgl\src\misc/lv_fs.c **** }
 392:..\..\..\arduinoLCD\test\Pain Drain\libraries\lvgl\src\misc/lv_fs.c **** 
 393:..\..\..\arduinoLCD\test\Pain Drain\libraries\lvgl\src\misc/lv_fs.c **** void lv_fs_drv_init(lv_fs_drv_t * drv)
 394:..\..\..\arduinoLCD\test\Pain Drain\libraries\lvgl\src\misc/lv_fs.c **** {
 395:..\..\..\arduinoLCD\test\Pain Drain\libraries\lvgl\src\misc/lv_fs.c ****     lv_memset_00(drv, sizeof(lv_fs_drv_t));
 396:..\..\..\arduinoLCD\test\Pain Drain\libraries\lvgl\src\misc/lv_fs.c **** }
 397:..\..\..\arduinoLCD\test\Pain Drain\libraries\lvgl\src\misc/lv_fs.c **** 
 398:..\..\..\arduinoLCD\test\Pain Drain\libraries\lvgl\src\misc/lv_fs.c **** void lv_fs_drv_register(lv_fs_drv_t * drv_p)
 399:..\..\..\arduinoLCD\test\Pain Drain\libraries\lvgl\src\misc/lv_fs.c **** {
 400:..\..\..\arduinoLCD\test\Pain Drain\libraries\lvgl\src\misc/lv_fs.c ****     /*Save the new driver*/
 401:..\..\..\arduinoLCD\test\Pain Drain\libraries\lvgl\src\misc/lv_fs.c ****     lv_fs_drv_t ** new_drv;
 402:..\..\..\arduinoLCD\test\Pain Drain\libraries\lvgl\src\misc/lv_fs.c ****     new_drv = _lv_ll_ins_head(&LV_GC_ROOT(_lv_fsdrv_ll));
 403:..\..\..\arduinoLCD\test\Pain Drain\libraries\lvgl\src\misc/lv_fs.c ****     LV_ASSERT_MALLOC(new_drv);
 404:..\..\..\arduinoLCD\test\Pain Drain\libraries\lvgl\src\misc/lv_fs.c ****     if(new_drv == NULL) return;
 405:..\..\..\arduinoLCD\test\Pain Drain\libraries\lvgl\src\misc/lv_fs.c **** 
 406:..\..\..\arduinoLCD\test\Pain Drain\libraries\lvgl\src\misc/lv_fs.c ****     *new_drv = drv_p;
 407:..\..\..\arduinoLCD\test\Pain Drain\libraries\lvgl\src\misc/lv_fs.c **** }
 408:..\..\..\arduinoLCD\test\Pain Drain\libraries\lvgl\src\misc/lv_fs.c **** 
 409:..\..\..\arduinoLCD\test\Pain Drain\libraries\lvgl\src\misc/lv_fs.c **** lv_fs_drv_t * lv_fs_get_drv(char letter)
 410:..\..\..\arduinoLCD\test\Pain Drain\libraries\lvgl\src\misc/lv_fs.c **** {
 411:..\..\..\arduinoLCD\test\Pain Drain\libraries\lvgl\src\misc/lv_fs.c ****     lv_fs_drv_t ** drv;
 412:..\..\..\arduinoLCD\test\Pain Drain\libraries\lvgl\src\misc/lv_fs.c **** 
 413:..\..\..\arduinoLCD\test\Pain Drain\libraries\lvgl\src\misc/lv_fs.c ****     _LV_LL_READ(&LV_GC_ROOT(_lv_fsdrv_ll), drv) {
 414:..\..\..\arduinoLCD\test\Pain Drain\libraries\lvgl\src\misc/lv_fs.c ****         if((*drv)->letter == letter) {
 415:..\..\..\arduinoLCD\test\Pain Drain\libraries\lvgl\src\misc/lv_fs.c ****             return *drv;
 416:..\..\..\arduinoLCD\test\Pain Drain\libraries\lvgl\src\misc/lv_fs.c ****         }
 417:..\..\..\arduinoLCD\test\Pain Drain\libraries\lvgl\src\misc/lv_fs.c ****     }
 418:..\..\..\arduinoLCD\test\Pain Drain\libraries\lvgl\src\misc/lv_fs.c **** 
 419:..\..\..\arduinoLCD\test\Pain Drain\libraries\lvgl\src\misc/lv_fs.c ****     return NULL;
 420:..\..\..\arduinoLCD\test\Pain Drain\libraries\lvgl\src\misc/lv_fs.c **** }
 421:..\..\..\arduinoLCD\test\Pain Drain\libraries\lvgl\src\misc/lv_fs.c **** 
 422:..\..\..\arduinoLCD\test\Pain Drain\libraries\lvgl\src\misc/lv_fs.c **** char * lv_fs_get_letters(char * buf)
 423:..\..\..\arduinoLCD\test\Pain Drain\libraries\lvgl\src\misc/lv_fs.c **** {
 424:..\..\..\arduinoLCD\test\Pain Drain\libraries\lvgl\src\misc/lv_fs.c ****     lv_fs_drv_t ** drv;
 425:..\..\..\arduinoLCD\test\Pain Drain\libraries\lvgl\src\misc/lv_fs.c ****     uint8_t i = 0;
 426:..\..\..\arduinoLCD\test\Pain Drain\libraries\lvgl\src\misc/lv_fs.c **** 
 427:..\..\..\arduinoLCD\test\Pain Drain\libraries\lvgl\src\misc/lv_fs.c ****     _LV_LL_READ(&LV_GC_ROOT(_lv_fsdrv_ll), drv) {
 428:..\..\..\arduinoLCD\test\Pain Drain\libraries\lvgl\src\misc/lv_fs.c ****         buf[i] = (*drv)->letter;
 429:..\..\..\arduinoLCD\test\Pain Drain\libraries\lvgl\src\misc/lv_fs.c ****         i++;
 430:..\..\..\arduinoLCD\test\Pain Drain\libraries\lvgl\src\misc/lv_fs.c ****     }
ARM GAS  C:\Users\haske\AppData\Local\Temp\cc4gWNdf.s 			page 9


 431:..\..\..\arduinoLCD\test\Pain Drain\libraries\lvgl\src\misc/lv_fs.c **** 
 432:..\..\..\arduinoLCD\test\Pain Drain\libraries\lvgl\src\misc/lv_fs.c ****     buf[i] = '\0';
 433:..\..\..\arduinoLCD\test\Pain Drain\libraries\lvgl\src\misc/lv_fs.c **** 
 434:..\..\..\arduinoLCD\test\Pain Drain\libraries\lvgl\src\misc/lv_fs.c ****     return buf;
 435:..\..\..\arduinoLCD\test\Pain Drain\libraries\lvgl\src\misc/lv_fs.c **** }
 436:..\..\..\arduinoLCD\test\Pain Drain\libraries\lvgl\src\misc/lv_fs.c **** 
 437:..\..\..\arduinoLCD\test\Pain Drain\libraries\lvgl\src\misc/lv_fs.c **** const char * lv_fs_get_ext(const char * fn)
 438:..\..\..\arduinoLCD\test\Pain Drain\libraries\lvgl\src\misc/lv_fs.c **** {
 439:..\..\..\arduinoLCD\test\Pain Drain\libraries\lvgl\src\misc/lv_fs.c ****     size_t i;
 440:..\..\..\arduinoLCD\test\Pain Drain\libraries\lvgl\src\misc/lv_fs.c ****     for(i = strlen(fn); i > 0; i--) {
 441:..\..\..\arduinoLCD\test\Pain Drain\libraries\lvgl\src\misc/lv_fs.c ****         if(fn[i] == '.') {
 442:..\..\..\arduinoLCD\test\Pain Drain\libraries\lvgl\src\misc/lv_fs.c ****             return &fn[i + 1];
 443:..\..\..\arduinoLCD\test\Pain Drain\libraries\lvgl\src\misc/lv_fs.c ****         }
 444:..\..\..\arduinoLCD\test\Pain Drain\libraries\lvgl\src\misc/lv_fs.c ****         else if(fn[i] == '/' || fn[i] == '\\') {
 445:..\..\..\arduinoLCD\test\Pain Drain\libraries\lvgl\src\misc/lv_fs.c ****             return ""; /*No extension if a '\' or '/' found*/
 446:..\..\..\arduinoLCD\test\Pain Drain\libraries\lvgl\src\misc/lv_fs.c ****         }
 447:..\..\..\arduinoLCD\test\Pain Drain\libraries\lvgl\src\misc/lv_fs.c ****     }
 448:..\..\..\arduinoLCD\test\Pain Drain\libraries\lvgl\src\misc/lv_fs.c **** 
 449:..\..\..\arduinoLCD\test\Pain Drain\libraries\lvgl\src\misc/lv_fs.c ****     return ""; /*Empty string if no '.' in the file name.*/
 450:..\..\..\arduinoLCD\test\Pain Drain\libraries\lvgl\src\misc/lv_fs.c **** }
 451:..\..\..\arduinoLCD\test\Pain Drain\libraries\lvgl\src\misc/lv_fs.c **** 
 452:..\..\..\arduinoLCD\test\Pain Drain\libraries\lvgl\src\misc/lv_fs.c **** char * lv_fs_up(char * path)
 453:..\..\..\arduinoLCD\test\Pain Drain\libraries\lvgl\src\misc/lv_fs.c **** {
 454:..\..\..\arduinoLCD\test\Pain Drain\libraries\lvgl\src\misc/lv_fs.c ****     size_t len = strlen(path);
 455:..\..\..\arduinoLCD\test\Pain Drain\libraries\lvgl\src\misc/lv_fs.c ****     if(len == 0) return path;
 456:..\..\..\arduinoLCD\test\Pain Drain\libraries\lvgl\src\misc/lv_fs.c **** 
 457:..\..\..\arduinoLCD\test\Pain Drain\libraries\lvgl\src\misc/lv_fs.c ****     len--; /*Go before the trailing '\0'*/
 458:..\..\..\arduinoLCD\test\Pain Drain\libraries\lvgl\src\misc/lv_fs.c **** 
 459:..\..\..\arduinoLCD\test\Pain Drain\libraries\lvgl\src\misc/lv_fs.c ****     /*Ignore trailing '/' or '\'*/
 460:..\..\..\arduinoLCD\test\Pain Drain\libraries\lvgl\src\misc/lv_fs.c ****     while(path[len] == '/' || path[len] == '\\') {
 461:..\..\..\arduinoLCD\test\Pain Drain\libraries\lvgl\src\misc/lv_fs.c ****         path[len] = '\0';
 462:..\..\..\arduinoLCD\test\Pain Drain\libraries\lvgl\src\misc/lv_fs.c ****         if(len > 0)
 463:..\..\..\arduinoLCD\test\Pain Drain\libraries\lvgl\src\misc/lv_fs.c ****             len--;
 464:..\..\..\arduinoLCD\test\Pain Drain\libraries\lvgl\src\misc/lv_fs.c ****         else
 465:..\..\..\arduinoLCD\test\Pain Drain\libraries\lvgl\src\misc/lv_fs.c ****             return path;
 466:..\..\..\arduinoLCD\test\Pain Drain\libraries\lvgl\src\misc/lv_fs.c ****     }
 467:..\..\..\arduinoLCD\test\Pain Drain\libraries\lvgl\src\misc/lv_fs.c **** 
 468:..\..\..\arduinoLCD\test\Pain Drain\libraries\lvgl\src\misc/lv_fs.c ****     size_t i;
 469:..\..\..\arduinoLCD\test\Pain Drain\libraries\lvgl\src\misc/lv_fs.c ****     for(i = len; i > 0; i--) {
 470:..\..\..\arduinoLCD\test\Pain Drain\libraries\lvgl\src\misc/lv_fs.c ****         if(path[i] == '/' || path[i] == '\\') break;
 471:..\..\..\arduinoLCD\test\Pain Drain\libraries\lvgl\src\misc/lv_fs.c ****     }
 472:..\..\..\arduinoLCD\test\Pain Drain\libraries\lvgl\src\misc/lv_fs.c **** 
 473:..\..\..\arduinoLCD\test\Pain Drain\libraries\lvgl\src\misc/lv_fs.c ****     if(i > 0) path[i] = '\0';
 474:..\..\..\arduinoLCD\test\Pain Drain\libraries\lvgl\src\misc/lv_fs.c **** 
 475:..\..\..\arduinoLCD\test\Pain Drain\libraries\lvgl\src\misc/lv_fs.c ****     return path;
 476:..\..\..\arduinoLCD\test\Pain Drain\libraries\lvgl\src\misc/lv_fs.c **** }
 477:..\..\..\arduinoLCD\test\Pain Drain\libraries\lvgl\src\misc/lv_fs.c **** 
 478:..\..\..\arduinoLCD\test\Pain Drain\libraries\lvgl\src\misc/lv_fs.c **** const char * lv_fs_get_last(const char * path)
 479:..\..\..\arduinoLCD\test\Pain Drain\libraries\lvgl\src\misc/lv_fs.c **** {
 480:..\..\..\arduinoLCD\test\Pain Drain\libraries\lvgl\src\misc/lv_fs.c ****     size_t len = strlen(path);
 481:..\..\..\arduinoLCD\test\Pain Drain\libraries\lvgl\src\misc/lv_fs.c ****     if(len == 0) return path;
 482:..\..\..\arduinoLCD\test\Pain Drain\libraries\lvgl\src\misc/lv_fs.c **** 
 483:..\..\..\arduinoLCD\test\Pain Drain\libraries\lvgl\src\misc/lv_fs.c ****     len--; /*Go before the trailing '\0'*/
 484:..\..\..\arduinoLCD\test\Pain Drain\libraries\lvgl\src\misc/lv_fs.c **** 
 485:..\..\..\arduinoLCD\test\Pain Drain\libraries\lvgl\src\misc/lv_fs.c ****     /*Ignore trailing '/' or '\'*/
 486:..\..\..\arduinoLCD\test\Pain Drain\libraries\lvgl\src\misc/lv_fs.c ****     while(path[len] == '/' || path[len] == '\\') {
 487:..\..\..\arduinoLCD\test\Pain Drain\libraries\lvgl\src\misc/lv_fs.c ****         if(len > 0)
ARM GAS  C:\Users\haske\AppData\Local\Temp\cc4gWNdf.s 			page 10


 488:..\..\..\arduinoLCD\test\Pain Drain\libraries\lvgl\src\misc/lv_fs.c ****             len--;
 489:..\..\..\arduinoLCD\test\Pain Drain\libraries\lvgl\src\misc/lv_fs.c ****         else
 490:..\..\..\arduinoLCD\test\Pain Drain\libraries\lvgl\src\misc/lv_fs.c ****             return path;
 491:..\..\..\arduinoLCD\test\Pain Drain\libraries\lvgl\src\misc/lv_fs.c ****     }
 492:..\..\..\arduinoLCD\test\Pain Drain\libraries\lvgl\src\misc/lv_fs.c **** 
 493:..\..\..\arduinoLCD\test\Pain Drain\libraries\lvgl\src\misc/lv_fs.c ****     size_t i;
 494:..\..\..\arduinoLCD\test\Pain Drain\libraries\lvgl\src\misc/lv_fs.c ****     for(i = len; i > 0; i--) {
 495:..\..\..\arduinoLCD\test\Pain Drain\libraries\lvgl\src\misc/lv_fs.c ****         if(path[i] == '/' || path[i] == '\\') break;
 496:..\..\..\arduinoLCD\test\Pain Drain\libraries\lvgl\src\misc/lv_fs.c ****     }
 497:..\..\..\arduinoLCD\test\Pain Drain\libraries\lvgl\src\misc/lv_fs.c **** 
 498:..\..\..\arduinoLCD\test\Pain Drain\libraries\lvgl\src\misc/lv_fs.c ****     /*No '/' or '\' in the path so return with path itself*/
 499:..\..\..\arduinoLCD\test\Pain Drain\libraries\lvgl\src\misc/lv_fs.c ****     if(i == 0) return path;
 500:..\..\..\arduinoLCD\test\Pain Drain\libraries\lvgl\src\misc/lv_fs.c **** 
 501:..\..\..\arduinoLCD\test\Pain Drain\libraries\lvgl\src\misc/lv_fs.c ****     return &path[i + 1];
 502:..\..\..\arduinoLCD\test\Pain Drain\libraries\lvgl\src\misc/lv_fs.c **** }
 503:..\..\..\arduinoLCD\test\Pain Drain\libraries\lvgl\src\misc/lv_fs.c **** /**********************
 504:..\..\..\arduinoLCD\test\Pain Drain\libraries\lvgl\src\misc/lv_fs.c ****  *   STATIC FUNCTIONS
 505:..\..\..\arduinoLCD\test\Pain Drain\libraries\lvgl\src\misc/lv_fs.c ****  **********************/
 506:..\..\..\arduinoLCD\test\Pain Drain\libraries\lvgl\src\misc/lv_fs.c **** 
 507:..\..\..\arduinoLCD\test\Pain Drain\libraries\lvgl\src\misc/lv_fs.c **** /**
 508:..\..\..\arduinoLCD\test\Pain Drain\libraries\lvgl\src\misc/lv_fs.c ****  * Skip the driver letter and the possible : after the letter
 509:..\..\..\arduinoLCD\test\Pain Drain\libraries\lvgl\src\misc/lv_fs.c ****  * @param path path string (E.g. S:/folder/file.txt)
 510:..\..\..\arduinoLCD\test\Pain Drain\libraries\lvgl\src\misc/lv_fs.c ****  * @return pointer to the beginning of the real path (E.g. /folder/file.txt)
 511:..\..\..\arduinoLCD\test\Pain Drain\libraries\lvgl\src\misc/lv_fs.c ****  */
 512:..\..\..\arduinoLCD\test\Pain Drain\libraries\lvgl\src\misc/lv_fs.c **** static const char * lv_fs_get_real_path(const char * path)
 513:..\..\..\arduinoLCD\test\Pain Drain\libraries\lvgl\src\misc/lv_fs.c **** {
  27              		.loc 1 513 0
  28              		.cfi_startproc
  29              		@ args = 0, pretend = 0, frame = 0
  30              		@ frame_needed = 0, uses_anonymous_args = 0
  31              		@ link register save eliminated.
  32              	.LVL0:
  33 0000 0300     		movs	r3, r0
 514:..\..\..\arduinoLCD\test\Pain Drain\libraries\lvgl\src\misc/lv_fs.c ****     path++; /*Ignore the driver letter*/
  34              		.loc 1 514 0
  35 0002 0130     		adds	r0, r0, #1
  36              	.LVL1:
 515:..\..\..\arduinoLCD\test\Pain Drain\libraries\lvgl\src\misc/lv_fs.c ****     if(*path == ':') path++;
  37              		.loc 1 515 0
  38 0004 5A78     		ldrb	r2, [r3, #1]
  39 0006 3A2A     		cmp	r2, #58
  40 0008 00D1     		bne	.L2
  41              		.loc 1 515 0 is_stmt 0 discriminator 1
  42 000a 981C     		adds	r0, r3, #2
  43              	.LVL2:
  44              	.L2:
 516:..\..\..\arduinoLCD\test\Pain Drain\libraries\lvgl\src\misc/lv_fs.c **** 
 517:..\..\..\arduinoLCD\test\Pain Drain\libraries\lvgl\src\misc/lv_fs.c ****     return path;
 518:..\..\..\arduinoLCD\test\Pain Drain\libraries\lvgl\src\misc/lv_fs.c **** }
  45              		.loc 1 518 0 is_stmt 1
  46              		@ sp needed
  47 000c 7047     		bx	lr
  48              		.cfi_endproc
  49              	.LFE43:
  50              		.size	lv_fs_get_real_path, .-lv_fs_get_real_path
  51 000e C046     		.section	.text.lv_fs_read_cached,"ax",%progbits
  52              		.align	2
ARM GAS  C:\Users\haske\AppData\Local\Temp\cc4gWNdf.s 			page 11


  53              		.code	16
  54              		.thumb_func
  55              		.type	lv_fs_read_cached, %function
  56              	lv_fs_read_cached:
  57              	.LFB28:
 133:..\..\..\arduinoLCD\test\Pain Drain\libraries\lvgl\src\misc/lv_fs.c ****     lv_fs_res_t res = LV_FS_RES_OK;
  58              		.loc 1 133 0
  59              		.cfi_startproc
  60              		@ args = 0, pretend = 0, frame = 16
  61              		@ frame_needed = 0, uses_anonymous_args = 0
  62              	.LVL3:
  63 0000 F0B5     		push	{r4, r5, r6, r7, lr}
  64              		.cfi_def_cfa_offset 20
  65              		.cfi_offset 4, -20
  66              		.cfi_offset 5, -16
  67              		.cfi_offset 6, -12
  68              		.cfi_offset 7, -8
  69              		.cfi_offset 14, -4
  70 0002 5746     		mov	r7, r10
  71 0004 4E46     		mov	r6, r9
  72 0006 4546     		mov	r5, r8
  73 0008 E0B4     		push	{r5, r6, r7}
  74              		.cfi_def_cfa_offset 32
  75              		.cfi_offset 8, -32
  76              		.cfi_offset 9, -28
  77              		.cfi_offset 10, -24
  78 000a 86B0     		sub	sp, sp, #24
  79              		.cfi_def_cfa_offset 56
  80 000c 0400     		movs	r4, r0
  81 000e 0391     		str	r1, [sp, #12]
  82 0010 1500     		movs	r5, r2
  83 0012 9946     		mov	r9, r3
  84              	.LVL4:
 135:..\..\..\arduinoLCD\test\Pain Drain\libraries\lvgl\src\misc/lv_fs.c ****     uint32_t start = file_p->cache->start;
  85              		.loc 1 135 0
  86 0014 8668     		ldr	r6, [r0, #8]
  87 0016 B768     		ldr	r7, [r6, #8]
  88              	.LVL5:
 136:..\..\..\arduinoLCD\test\Pain Drain\libraries\lvgl\src\misc/lv_fs.c ****     uint32_t end = file_p->cache->end;
  89              		.loc 1 136 0
  90 0018 3368     		ldr	r3, [r6]
  91              	.LVL6:
 137:..\..\..\arduinoLCD\test\Pain Drain\libraries\lvgl\src\misc/lv_fs.c ****     char * buffer = file_p->cache->buffer;
  92              		.loc 1 137 0
  93 001a 7268     		ldr	r2, [r6, #4]
  94              	.LVL7:
 138:..\..\..\arduinoLCD\test\Pain Drain\libraries\lvgl\src\misc/lv_fs.c ****     uint16_t buffer_size = file_p->drv->cache_size;
  95              		.loc 1 138 0
  96 001c F168     		ldr	r1, [r6, #12]
  97              	.LVL8:
  98 001e 8846     		mov	r8, r1
  99              	.LVL9:
 139:..\..\..\arduinoLCD\test\Pain Drain\libraries\lvgl\src\misc/lv_fs.c **** 
 100              		.loc 1 139 0
 101 0020 4068     		ldr	r0, [r0, #4]
 102              	.LVL10:
 103 0022 4188     		ldrh	r1, [r0, #2]
ARM GAS  C:\Users\haske\AppData\Local\Temp\cc4gWNdf.s 			page 12


 104              	.LVL11:
 105 0024 8A46     		mov	r10, r1
 106              	.LVL12:
 141:..\..\..\arduinoLCD\test\Pain Drain\libraries\lvgl\src\misc/lv_fs.c ****         /* Data can be read from cache buffer */
 107              		.loc 1 141 0
 108 0026 9F42     		cmp	r7, r3
 109 0028 4DD3     		bcc	.L4
 141:..\..\..\arduinoLCD\test\Pain Drain\libraries\lvgl\src\misc/lv_fs.c ****         /* Data can be read from cache buffer */
 110              		.loc 1 141 0 is_stmt 0 discriminator 1
 111 002a 9742     		cmp	r7, r2
 112 002c 4BD2     		bcs	.L4
 113              	.LBB2:
 143:..\..\..\arduinoLCD\test\Pain Drain\libraries\lvgl\src\misc/lv_fs.c ****         uint32_t buffer_remaining_length = LV_MIN((uint32_t)buffer_size - buffer_offset, (uint32_t)
 114              		.loc 1 143 0 is_stmt 1
 115 002e F91A     		subs	r1, r7, r3
 116 0030 89B2     		uxth	r1, r1
 117              	.LVL13:
 144:..\..\..\arduinoLCD\test\Pain Drain\libraries\lvgl\src\misc/lv_fs.c **** 
 118              		.loc 1 144 0
 119 0032 5646     		mov	r6, r10
 120 0034 731A     		subs	r3, r6, r1
 121              	.LVL14:
 122 0036 D71B     		subs	r7, r2, r7
 123              	.LVL15:
 124 0038 9F42     		cmp	r7, r3
 125 003a 00D9     		bls	.L5
 126 003c 1F00     		movs	r7, r3
 127              	.L5:
 128              	.LVL16:
 146:..\..\..\arduinoLCD\test\Pain Drain\libraries\lvgl\src\misc/lv_fs.c ****             /*Data is in cache buffer, and buffer end not reached, no need to read from FS*/
 129              		.loc 1 146 0
 130 003e AF42     		cmp	r7, r5
 131 0040 08D3     		bcc	.L6
 148:..\..\..\arduinoLCD\test\Pain Drain\libraries\lvgl\src\misc/lv_fs.c ****             *br = btr;
 132              		.loc 1 148 0
 133 0042 4144     		add	r1, r1, r8
 134              	.LVL17:
 135 0044 2A00     		movs	r2, r5
 136              	.LVL18:
 137 0046 0398     		ldr	r0, [sp, #12]
 138 0048 FFF7FEFF 		bl	lv_memcpy
 139              	.LVL19:
 149:..\..\..\arduinoLCD\test\Pain Drain\libraries\lvgl\src\misc/lv_fs.c ****         }
 140              		.loc 1 149 0
 141 004c 4B46     		mov	r3, r9
 142 004e 1D60     		str	r5, [r3]
 143              	.LBE2:
 134:..\..\..\arduinoLCD\test\Pain Drain\libraries\lvgl\src\misc/lv_fs.c ****     uint32_t file_position = file_p->cache->file_position;
 144              		.loc 1 134 0
 145 0050 0026     		movs	r6, #0
 146              	.LBB5:
 147 0052 6CE0     		b	.L7
 148              	.LVL20:
 149              	.L6:
 150              	.LBB3:
 153:..\..\..\arduinoLCD\test\Pain Drain\libraries\lvgl\src\misc/lv_fs.c **** 
 151              		.loc 1 153 0
ARM GAS  C:\Users\haske\AppData\Local\Temp\cc4gWNdf.s 			page 13


 152 0054 4144     		add	r1, r1, r8
 153              	.LVL21:
 154 0056 3A00     		movs	r2, r7
 155              	.LVL22:
 156 0058 0398     		ldr	r0, [sp, #12]
 157 005a FFF7FEFF 		bl	lv_memcpy
 158              	.LVL23:
 155:..\..\..\arduinoLCD\test\Pain Drain\libraries\lvgl\src\misc/lv_fs.c ****             if(btr > buffer_size) {
 159              		.loc 1 155 0
 160 005e 0023     		movs	r3, #0
 161 0060 0593     		str	r3, [sp, #20]
 156:..\..\..\arduinoLCD\test\Pain Drain\libraries\lvgl\src\misc/lv_fs.c ****                 /*If remaining data chuck is bigger than buffer size, then do not use cache, instea
 162              		.loc 1 156 0
 163 0062 AE42     		cmp	r6, r5
 164 0064 0AD2     		bcs	.L8
 158:..\..\..\arduinoLCD\test\Pain Drain\libraries\lvgl\src\misc/lv_fs.c ****                                            btr - buffer_remaining_length, &bytes_read_to_buffer);
 165              		.loc 1 158 0
 166 0066 6068     		ldr	r0, [r4, #4]
 167 0068 0669     		ldr	r6, [r0, #16]
 168 006a 039B     		ldr	r3, [sp, #12]
 169 006c DA19     		adds	r2, r3, r7
 170 006e EB1B     		subs	r3, r5, r7
 171 0070 05A9     		add	r1, sp, #20
 172 0072 0091     		str	r1, [sp]
 173 0074 2168     		ldr	r1, [r4]
 174 0076 B047     		blx	r6
 175              	.LVL24:
 176 0078 0600     		movs	r6, r0
 177              	.LVL25:
 178 007a 1BE0     		b	.L9
 179              	.LVL26:
 180              	.L8:
 181              	.LBB4:
 163:..\..\..\arduinoLCD\test\Pain Drain\libraries\lvgl\src\misc/lv_fs.c ****                 file_p->cache->start = file_p->cache->end;
 182              		.loc 1 163 0
 183 007c 6068     		ldr	r0, [r4, #4]
 184 007e 0669     		ldr	r6, [r0, #16]
 185 0080 05AB     		add	r3, sp, #20
 186 0082 0093     		str	r3, [sp]
 187 0084 5346     		mov	r3, r10
 188 0086 4246     		mov	r2, r8
 189 0088 2168     		ldr	r1, [r4]
 190 008a B047     		blx	r6
 191              	.LVL27:
 192 008c 0600     		movs	r6, r0
 193              	.LVL28:
 164:..\..\..\arduinoLCD\test\Pain Drain\libraries\lvgl\src\misc/lv_fs.c ****                 file_p->cache->end = file_p->cache->start + bytes_read_to_buffer;
 194              		.loc 1 164 0
 195 008e A368     		ldr	r3, [r4, #8]
 196 0090 5A68     		ldr	r2, [r3, #4]
 197 0092 1A60     		str	r2, [r3]
 165:..\..\..\arduinoLCD\test\Pain Drain\libraries\lvgl\src\misc/lv_fs.c **** 
 198              		.loc 1 165 0
 199 0094 A168     		ldr	r1, [r4, #8]
 200 0096 059B     		ldr	r3, [sp, #20]
 201 0098 0A68     		ldr	r2, [r1]
 202 009a D218     		adds	r2, r2, r3
ARM GAS  C:\Users\haske\AppData\Local\Temp\cc4gWNdf.s 			page 14


 203 009c 4A60     		str	r2, [r1, #4]
 167:..\..\..\arduinoLCD\test\Pain Drain\libraries\lvgl\src\misc/lv_fs.c ****                 lv_memcpy(buf + buffer_remaining_length, buffer, data_chunk_remaining);
 204              		.loc 1 167 0
 205 009e EA1B     		subs	r2, r5, r7
 206 00a0 9342     		cmp	r3, r2
 207 00a2 00D9     		bls	.L10
 208 00a4 1300     		movs	r3, r2
 209              	.L10:
 210              	.LVL29:
 168:..\..\..\arduinoLCD\test\Pain Drain\libraries\lvgl\src\misc/lv_fs.c ****             }
 211              		.loc 1 168 0
 212 00a6 1B04     		lsls	r3, r3, #16
 213              	.LVL30:
 214 00a8 1A0C     		lsrs	r2, r3, #16
 215 00aa 039B     		ldr	r3, [sp, #12]
 216 00ac D819     		adds	r0, r3, r7
 217              	.LVL31:
 218 00ae 4146     		mov	r1, r8
 219 00b0 FFF7FEFF 		bl	lv_memcpy
 220              	.LVL32:
 221              	.L9:
 222              	.LBE4:
 170:..\..\..\arduinoLCD\test\Pain Drain\libraries\lvgl\src\misc/lv_fs.c ****         }
 223              		.loc 1 170 0
 224 00b4 059B     		ldr	r3, [sp, #20]
 225 00b6 9C46     		mov	ip, r3
 226 00b8 6744     		add	r7, r7, ip
 227              	.LVL33:
 228 00ba BD42     		cmp	r5, r7
 229 00bc 00D9     		bls	.L11
 230 00be 3D00     		movs	r5, r7
 231              	.LVL34:
 232              	.L11:
 233 00c0 4B46     		mov	r3, r9
 234 00c2 1D60     		str	r5, [r3]
 235 00c4 33E0     		b	.L7
 236              	.LVL35:
 237              	.L4:
 238              	.LBE3:
 239              	.LBE5:
 175:..\..\..\arduinoLCD\test\Pain Drain\libraries\lvgl\src\misc/lv_fs.c ****             /*If bigger data is requested, then do not use cache, instead read it directly*/
 240              		.loc 1 175 0
 241 00c6 5545     		cmp	r5, r10
 242 00c8 08D9     		bls	.L12
 177:..\..\..\arduinoLCD\test\Pain Drain\libraries\lvgl\src\misc/lv_fs.c ****         }
 243              		.loc 1 177 0
 244 00ca 0669     		ldr	r6, [r0, #16]
 245 00cc 4B46     		mov	r3, r9
 246              	.LVL36:
 247 00ce 0093     		str	r3, [sp]
 248              	.LVL37:
 249 00d0 2B00     		movs	r3, r5
 250 00d2 039A     		ldr	r2, [sp, #12]
 251              	.LVL38:
 252 00d4 2168     		ldr	r1, [r4]
 253 00d6 B047     		blx	r6
 254              	.LVL39:
ARM GAS  C:\Users\haske\AppData\Local\Temp\cc4gWNdf.s 			page 15


 255 00d8 0600     		movs	r6, r0
 256              	.LVL40:
 257 00da 28E0     		b	.L7
 258              	.LVL41:
 259              	.L12:
 260              	.LBB6:
 181:..\..\..\arduinoLCD\test\Pain Drain\libraries\lvgl\src\misc/lv_fs.c ****                 file_p->cache->buffer = lv_mem_alloc(buffer_size);
 261              		.loc 1 181 0
 262 00dc 4346     		mov	r3, r8
 263              	.LVL42:
 264 00de 002B     		cmp	r3, #0
 265 00e0 09D1     		bne	.L13
 266              	.LVL43:
 182:..\..\..\arduinoLCD\test\Pain Drain\libraries\lvgl\src\misc/lv_fs.c ****                 LV_ASSERT_MALLOC(file_p->cache->buffer);
 267              		.loc 1 182 0
 268 00e2 5046     		mov	r0, r10
 269 00e4 FFF7FEFF 		bl	lv_mem_alloc
 270              	.LVL44:
 271 00e8 F060     		str	r0, [r6, #12]
 183:..\..\..\arduinoLCD\test\Pain Drain\libraries\lvgl\src\misc/lv_fs.c ****                 buffer = file_p->cache->buffer;
 272              		.loc 1 183 0
 273 00ea A368     		ldr	r3, [r4, #8]
 274 00ec DB68     		ldr	r3, [r3, #12]
 275 00ee 9846     		mov	r8, r3
 276              	.LVL45:
 277 00f0 002B     		cmp	r3, #0
 278 00f2 00D1     		bne	.L13
 279              	.L14:
 280 00f4 FEE7     		b	.L14
 281              	.L13:
 282              	.LVL46:
 187:..\..\..\arduinoLCD\test\Pain Drain\libraries\lvgl\src\misc/lv_fs.c ****             res = file_p->drv->read_cb(file_p->drv, file_p->file_d, (void *)buffer, buffer_size, &b
 283              		.loc 1 187 0
 284 00f6 0023     		movs	r3, #0
 285 00f8 0593     		str	r3, [sp, #20]
 188:..\..\..\arduinoLCD\test\Pain Drain\libraries\lvgl\src\misc/lv_fs.c ****             file_p->cache->start = file_position;
 286              		.loc 1 188 0
 287 00fa 6068     		ldr	r0, [r4, #4]
 288 00fc 0669     		ldr	r6, [r0, #16]
 289 00fe 05AB     		add	r3, sp, #20
 290 0100 0093     		str	r3, [sp]
 291 0102 5346     		mov	r3, r10
 292 0104 4246     		mov	r2, r8
 293 0106 2168     		ldr	r1, [r4]
 294 0108 B047     		blx	r6
 295              	.LVL47:
 296 010a 0600     		movs	r6, r0
 297              	.LVL48:
 189:..\..\..\arduinoLCD\test\Pain Drain\libraries\lvgl\src\misc/lv_fs.c ****             file_p->cache->end = file_p->cache->start + bytes_read_to_buffer;
 298              		.loc 1 189 0
 299 010c A368     		ldr	r3, [r4, #8]
 300 010e 1F60     		str	r7, [r3]
 190:..\..\..\arduinoLCD\test\Pain Drain\libraries\lvgl\src\misc/lv_fs.c **** 
 301              		.loc 1 190 0
 302 0110 A268     		ldr	r2, [r4, #8]
 303 0112 0599     		ldr	r1, [sp, #20]
 304 0114 1368     		ldr	r3, [r2]
ARM GAS  C:\Users\haske\AppData\Local\Temp\cc4gWNdf.s 			page 16


 305 0116 5B18     		adds	r3, r3, r1
 306 0118 5360     		str	r3, [r2, #4]
 192:..\..\..\arduinoLCD\test\Pain Drain\libraries\lvgl\src\misc/lv_fs.c ****             lv_memcpy(buf, buffer, *br);
 307              		.loc 1 192 0
 308 011a 2A00     		movs	r2, r5
 309 011c 8D42     		cmp	r5, r1
 310 011e 00D9     		bls	.L15
 311              	.LVL49:
 312 0120 0A00     		movs	r2, r1
 313              	.LVL50:
 314              	.L15:
 315 0122 4B46     		mov	r3, r9
 316 0124 1A60     		str	r2, [r3]
 193:..\..\..\arduinoLCD\test\Pain Drain\libraries\lvgl\src\misc/lv_fs.c **** 
 317              		.loc 1 193 0
 318 0126 4146     		mov	r1, r8
 319 0128 0398     		ldr	r0, [sp, #12]
 320              	.LVL51:
 321 012a FFF7FEFF 		bl	lv_memcpy
 322              	.LVL52:
 323              	.L7:
 324              	.LBE6:
 198:..\..\..\arduinoLCD\test\Pain Drain\libraries\lvgl\src\misc/lv_fs.c ****         file_p->cache->file_position += *br;
 325              		.loc 1 198 0
 326 012e 002E     		cmp	r6, #0
 327 0130 06D1     		bne	.L16
 199:..\..\..\arduinoLCD\test\Pain Drain\libraries\lvgl\src\misc/lv_fs.c ****     }
 328              		.loc 1 199 0
 329 0132 A268     		ldr	r2, [r4, #8]
 330 0134 4B46     		mov	r3, r9
 331 0136 1B68     		ldr	r3, [r3]
 332 0138 9168     		ldr	r1, [r2, #8]
 333 013a 8C46     		mov	ip, r1
 334 013c 6344     		add	r3, r3, ip
 335 013e 9360     		str	r3, [r2, #8]
 336              	.L16:
 203:..\..\..\arduinoLCD\test\Pain Drain\libraries\lvgl\src\misc/lv_fs.c **** 
 337              		.loc 1 203 0
 338 0140 3000     		movs	r0, r6
 339 0142 06B0     		add	sp, sp, #24
 340              		@ sp needed
 341              	.LVL53:
 342              	.LVL54:
 343              	.LVL55:
 344              	.LVL56:
 345              	.LVL57:
 346 0144 1CBC     		pop	{r2, r3, r4}
 347 0146 9046     		mov	r8, r2
 348 0148 9946     		mov	r9, r3
 349 014a A246     		mov	r10, r4
 350 014c F0BD     		pop	{r4, r5, r6, r7, pc}
 351              		.cfi_endproc
 352              	.LFE28:
 353              		.size	lv_fs_read_cached, .-lv_fs_read_cached
 354 014e C046     		.section	.text._lv_fs_init,"ax",%progbits
 355              		.align	2
 356              		.global	_lv_fs_init
ARM GAS  C:\Users\haske\AppData\Local\Temp\cc4gWNdf.s 			page 17


 357              		.code	16
 358              		.thumb_func
 359              		.type	_lv_fs_init, %function
 360              	_lv_fs_init:
 361              	.LFB24:
  42:..\..\..\arduinoLCD\test\Pain Drain\libraries\lvgl\src\misc/lv_fs.c ****     _lv_ll_init(&LV_GC_ROOT(_lv_fsdrv_ll), sizeof(lv_fs_drv_t *));
 362              		.loc 1 42 0
 363              		.cfi_startproc
 364              		@ args = 0, pretend = 0, frame = 0
 365              		@ frame_needed = 0, uses_anonymous_args = 0
 366 0000 10B5     		push	{r4, lr}
 367              		.cfi_def_cfa_offset 8
 368              		.cfi_offset 4, -8
 369              		.cfi_offset 14, -4
  43:..\..\..\arduinoLCD\test\Pain Drain\libraries\lvgl\src\misc/lv_fs.c **** }
 370              		.loc 1 43 0
 371 0002 0421     		movs	r1, #4
 372 0004 0148     		ldr	r0, .L18
 373 0006 FFF7FEFF 		bl	_lv_ll_init
 374              	.LVL58:
  44:..\..\..\arduinoLCD\test\Pain Drain\libraries\lvgl\src\misc/lv_fs.c **** 
 375              		.loc 1 44 0
 376              		@ sp needed
 377 000a 10BD     		pop	{r4, pc}
 378              	.L19:
 379              		.align	2
 380              	.L18:
 381 000c 00000000 		.word	_lv_fsdrv_ll
 382              		.cfi_endproc
 383              	.LFE24:
 384              		.size	_lv_fs_init, .-_lv_fs_init
 385              		.section	.text.lv_fs_close,"ax",%progbits
 386              		.align	2
 387              		.global	lv_fs_close
 388              		.code	16
 389              		.thumb_func
 390              		.type	lv_fs_close, %function
 391              	lv_fs_close:
 392              	.LFB27:
 106:..\..\..\arduinoLCD\test\Pain Drain\libraries\lvgl\src\misc/lv_fs.c ****     if(file_p->drv == NULL) {
 393              		.loc 1 106 0
 394              		.cfi_startproc
 395              		@ args = 0, pretend = 0, frame = 0
 396              		@ frame_needed = 0, uses_anonymous_args = 0
 397              	.LVL59:
 398 0000 70B5     		push	{r4, r5, r6, lr}
 399              		.cfi_def_cfa_offset 16
 400              		.cfi_offset 4, -16
 401              		.cfi_offset 5, -12
 402              		.cfi_offset 6, -8
 403              		.cfi_offset 14, -4
 404 0002 0400     		movs	r4, r0
 107:..\..\..\arduinoLCD\test\Pain Drain\libraries\lvgl\src\misc/lv_fs.c ****         return LV_FS_RES_INV_PARAM;
 405              		.loc 1 107 0
 406 0004 4068     		ldr	r0, [r0, #4]
 407              	.LVL60:
 408 0006 0028     		cmp	r0, #0
ARM GAS  C:\Users\haske\AppData\Local\Temp\cc4gWNdf.s 			page 18


 409 0008 1AD0     		beq	.L24
 111:..\..\..\arduinoLCD\test\Pain Drain\libraries\lvgl\src\misc/lv_fs.c ****         return LV_FS_RES_NOT_IMP;
 410              		.loc 1 111 0
 411 000a C368     		ldr	r3, [r0, #12]
 412 000c 002B     		cmp	r3, #0
 413 000e 19D0     		beq	.L25
 115:..\..\..\arduinoLCD\test\Pain Drain\libraries\lvgl\src\misc/lv_fs.c **** 
 414              		.loc 1 115 0
 415 0010 2168     		ldr	r1, [r4]
 416 0012 9847     		blx	r3
 417              	.LVL61:
 418 0014 0500     		movs	r5, r0
 419              	.LVL62:
 117:..\..\..\arduinoLCD\test\Pain Drain\libraries\lvgl\src\misc/lv_fs.c ****         if(file_p->cache->buffer) {
 420              		.loc 1 117 0
 421 0016 6368     		ldr	r3, [r4, #4]
 422 0018 5B88     		ldrh	r3, [r3, #2]
 423 001a 002B     		cmp	r3, #0
 424 001c 0AD0     		beq	.L22
 117:..\..\..\arduinoLCD\test\Pain Drain\libraries\lvgl\src\misc/lv_fs.c ****         if(file_p->cache->buffer) {
 425              		.loc 1 117 0 is_stmt 0 discriminator 1
 426 001e A368     		ldr	r3, [r4, #8]
 427 0020 002B     		cmp	r3, #0
 428 0022 07D0     		beq	.L22
 118:..\..\..\arduinoLCD\test\Pain Drain\libraries\lvgl\src\misc/lv_fs.c ****             lv_mem_free(file_p->cache->buffer);
 429              		.loc 1 118 0 is_stmt 1
 430 0024 D868     		ldr	r0, [r3, #12]
 431 0026 0028     		cmp	r0, #0
 432 0028 01D0     		beq	.L23
 119:..\..\..\arduinoLCD\test\Pain Drain\libraries\lvgl\src\misc/lv_fs.c ****         }
 433              		.loc 1 119 0
 434 002a FFF7FEFF 		bl	lv_mem_free
 435              	.LVL63:
 436              	.L23:
 122:..\..\..\arduinoLCD\test\Pain Drain\libraries\lvgl\src\misc/lv_fs.c ****     }
 437              		.loc 1 122 0
 438 002e A068     		ldr	r0, [r4, #8]
 439 0030 FFF7FEFF 		bl	lv_mem_free
 440              	.LVL64:
 441              	.L22:
 125:..\..\..\arduinoLCD\test\Pain Drain\libraries\lvgl\src\misc/lv_fs.c ****     file_p->drv    = NULL;
 442              		.loc 1 125 0
 443 0034 0023     		movs	r3, #0
 444 0036 2360     		str	r3, [r4]
 126:..\..\..\arduinoLCD\test\Pain Drain\libraries\lvgl\src\misc/lv_fs.c ****     file_p->cache  = NULL;
 445              		.loc 1 126 0
 446 0038 6360     		str	r3, [r4, #4]
 127:..\..\..\arduinoLCD\test\Pain Drain\libraries\lvgl\src\misc/lv_fs.c **** 
 447              		.loc 1 127 0
 448 003a A360     		str	r3, [r4, #8]
 129:..\..\..\arduinoLCD\test\Pain Drain\libraries\lvgl\src\misc/lv_fs.c **** }
 449              		.loc 1 129 0
 450 003c 2800     		movs	r0, r5
 451 003e 02E0     		b	.L21
 452              	.LVL65:
 453              	.L24:
 108:..\..\..\arduinoLCD\test\Pain Drain\libraries\lvgl\src\misc/lv_fs.c ****     }
ARM GAS  C:\Users\haske\AppData\Local\Temp\cc4gWNdf.s 			page 19


 454              		.loc 1 108 0
 455 0040 0B20     		movs	r0, #11
 456 0042 00E0     		b	.L21
 457              	.L25:
 112:..\..\..\arduinoLCD\test\Pain Drain\libraries\lvgl\src\misc/lv_fs.c ****     }
 458              		.loc 1 112 0
 459 0044 0920     		movs	r0, #9
 460              	.L21:
 130:..\..\..\arduinoLCD\test\Pain Drain\libraries\lvgl\src\misc/lv_fs.c **** 
 461              		.loc 1 130 0
 462              		@ sp needed
 463              	.LVL66:
 464 0046 70BD     		pop	{r4, r5, r6, pc}
 465              		.cfi_endproc
 466              	.LFE27:
 467              		.size	lv_fs_close, .-lv_fs_close
 468              		.section	.text.lv_fs_read,"ax",%progbits
 469              		.align	2
 470              		.global	lv_fs_read
 471              		.code	16
 472              		.thumb_func
 473              		.type	lv_fs_read, %function
 474              	lv_fs_read:
 475              	.LFB29:
 206:..\..\..\arduinoLCD\test\Pain Drain\libraries\lvgl\src\misc/lv_fs.c ****     if(br != NULL) *br = 0;
 476              		.loc 1 206 0
 477              		.cfi_startproc
 478              		@ args = 0, pretend = 0, frame = 8
 479              		@ frame_needed = 0, uses_anonymous_args = 0
 480              	.LVL67:
 481 0000 70B5     		push	{r4, r5, r6, lr}
 482              		.cfi_def_cfa_offset 16
 483              		.cfi_offset 4, -16
 484              		.cfi_offset 5, -12
 485              		.cfi_offset 6, -8
 486              		.cfi_offset 14, -4
 487 0002 84B0     		sub	sp, sp, #16
 488              		.cfi_def_cfa_offset 32
 489 0004 1C1E     		subs	r4, r3, #0
 207:..\..\..\arduinoLCD\test\Pain Drain\libraries\lvgl\src\misc/lv_fs.c ****     if(file_p->drv == NULL) return LV_FS_RES_INV_PARAM;
 490              		.loc 1 207 0
 491 0006 01D0     		beq	.L27
 207:..\..\..\arduinoLCD\test\Pain Drain\libraries\lvgl\src\misc/lv_fs.c ****     if(file_p->drv == NULL) return LV_FS_RES_INV_PARAM;
 492              		.loc 1 207 0 is_stmt 0 discriminator 1
 493 0008 0023     		movs	r3, #0
 494              	.LVL68:
 495 000a 2360     		str	r3, [r4]
 496              	.L27:
 208:..\..\..\arduinoLCD\test\Pain Drain\libraries\lvgl\src\misc/lv_fs.c ****     if(file_p->drv->read_cb == NULL) return LV_FS_RES_NOT_IMP;
 497              		.loc 1 208 0 is_stmt 1
 498 000c 4568     		ldr	r5, [r0, #4]
 499 000e 002D     		cmp	r5, #0
 500 0010 18D0     		beq	.L31
 209:..\..\..\arduinoLCD\test\Pain Drain\libraries\lvgl\src\misc/lv_fs.c **** 
 501              		.loc 1 209 0
 502 0012 2E69     		ldr	r6, [r5, #16]
 503 0014 002E     		cmp	r6, #0
ARM GAS  C:\Users\haske\AppData\Local\Temp\cc4gWNdf.s 			page 20


 504 0016 17D0     		beq	.L32
 211:..\..\..\arduinoLCD\test\Pain Drain\libraries\lvgl\src\misc/lv_fs.c ****     lv_fs_res_t res;
 505              		.loc 1 211 0
 506 0018 0023     		movs	r3, #0
 507 001a 0393     		str	r3, [sp, #12]
 214:..\..\..\arduinoLCD\test\Pain Drain\libraries\lvgl\src\misc/lv_fs.c ****         res = lv_fs_read_cached(file_p, (char *)buf, btr, &br_tmp);
 508              		.loc 1 214 0
 509 001c 6B88     		ldrh	r3, [r5, #2]
 510 001e 002B     		cmp	r3, #0
 511 0020 03D0     		beq	.L29
 215:..\..\..\arduinoLCD\test\Pain Drain\libraries\lvgl\src\misc/lv_fs.c ****     }
 512              		.loc 1 215 0
 513 0022 03AB     		add	r3, sp, #12
 514 0024 FFF7FEFF 		bl	lv_fs_read_cached
 515              	.LVL69:
 516 0028 07E0     		b	.L30
 517              	.LVL70:
 518              	.L29:
 218:..\..\..\arduinoLCD\test\Pain Drain\libraries\lvgl\src\misc/lv_fs.c ****     }
 519              		.loc 1 218 0
 520 002a 0068     		ldr	r0, [r0]
 521              	.LVL71:
 522 002c 03AB     		add	r3, sp, #12
 523 002e 0093     		str	r3, [sp]
 524 0030 1300     		movs	r3, r2
 525 0032 0A00     		movs	r2, r1
 526              	.LVL72:
 527 0034 0100     		movs	r1, r0
 528              	.LVL73:
 529 0036 2800     		movs	r0, r5
 530 0038 B047     		blx	r6
 531              	.LVL74:
 532              	.L30:
 221:..\..\..\arduinoLCD\test\Pain Drain\libraries\lvgl\src\misc/lv_fs.c **** 
 533              		.loc 1 221 0
 534 003a 002C     		cmp	r4, #0
 535 003c 05D0     		beq	.L28
 221:..\..\..\arduinoLCD\test\Pain Drain\libraries\lvgl\src\misc/lv_fs.c **** 
 536              		.loc 1 221 0 is_stmt 0 discriminator 1
 537 003e 039B     		ldr	r3, [sp, #12]
 538 0040 2360     		str	r3, [r4]
 539 0042 02E0     		b	.L28
 540              	.LVL75:
 541              	.L31:
 208:..\..\..\arduinoLCD\test\Pain Drain\libraries\lvgl\src\misc/lv_fs.c ****     if(file_p->drv->read_cb == NULL) return LV_FS_RES_NOT_IMP;
 542              		.loc 1 208 0 is_stmt 1
 543 0044 0B20     		movs	r0, #11
 544              	.LVL76:
 545 0046 00E0     		b	.L28
 546              	.LVL77:
 547              	.L32:
 209:..\..\..\arduinoLCD\test\Pain Drain\libraries\lvgl\src\misc/lv_fs.c **** 
 548              		.loc 1 209 0
 549 0048 0920     		movs	r0, #9
 550              	.LVL78:
 551              	.L28:
 224:..\..\..\arduinoLCD\test\Pain Drain\libraries\lvgl\src\misc/lv_fs.c **** 
ARM GAS  C:\Users\haske\AppData\Local\Temp\cc4gWNdf.s 			page 21


 552              		.loc 1 224 0
 553 004a 04B0     		add	sp, sp, #16
 554              		@ sp needed
 555              	.LVL79:
 556 004c 70BD     		pop	{r4, r5, r6, pc}
 557              		.cfi_endproc
 558              	.LFE29:
 559              		.size	lv_fs_read, .-lv_fs_read
 560 004e C046     		.section	.text.lv_fs_write,"ax",%progbits
 561              		.align	2
 562              		.global	lv_fs_write
 563              		.code	16
 564              		.thumb_func
 565              		.type	lv_fs_write, %function
 566              	lv_fs_write:
 567              	.LFB30:
 227:..\..\..\arduinoLCD\test\Pain Drain\libraries\lvgl\src\misc/lv_fs.c ****     if(bw != NULL) *bw = 0;
 568              		.loc 1 227 0
 569              		.cfi_startproc
 570              		@ args = 0, pretend = 0, frame = 8
 571              		@ frame_needed = 0, uses_anonymous_args = 0
 572              	.LVL80:
 573 0000 70B5     		push	{r4, r5, r6, lr}
 574              		.cfi_def_cfa_offset 16
 575              		.cfi_offset 4, -16
 576              		.cfi_offset 5, -12
 577              		.cfi_offset 6, -8
 578              		.cfi_offset 14, -4
 579 0002 84B0     		sub	sp, sp, #16
 580              		.cfi_def_cfa_offset 32
 581 0004 1C1E     		subs	r4, r3, #0
 228:..\..\..\arduinoLCD\test\Pain Drain\libraries\lvgl\src\misc/lv_fs.c **** 
 582              		.loc 1 228 0
 583 0006 01D0     		beq	.L35
 228:..\..\..\arduinoLCD\test\Pain Drain\libraries\lvgl\src\misc/lv_fs.c **** 
 584              		.loc 1 228 0 is_stmt 0 discriminator 1
 585 0008 0023     		movs	r3, #0
 586              	.LVL81:
 587 000a 2360     		str	r3, [r4]
 588              	.L35:
 230:..\..\..\arduinoLCD\test\Pain Drain\libraries\lvgl\src\misc/lv_fs.c ****         return LV_FS_RES_INV_PARAM;
 589              		.loc 1 230 0 is_stmt 1
 590 000c 4568     		ldr	r5, [r0, #4]
 591 000e 002D     		cmp	r5, #0
 592 0010 11D0     		beq	.L37
 234:..\..\..\arduinoLCD\test\Pain Drain\libraries\lvgl\src\misc/lv_fs.c ****         return LV_FS_RES_NOT_IMP;
 593              		.loc 1 234 0
 594 0012 6E69     		ldr	r6, [r5, #20]
 595 0014 002E     		cmp	r6, #0
 596 0016 10D0     		beq	.L38
 238:..\..\..\arduinoLCD\test\Pain Drain\libraries\lvgl\src\misc/lv_fs.c ****     lv_fs_res_t res = file_p->drv->write_cb(file_p->drv, file_p->file_d, buf, btw, &bw_tmp);
 597              		.loc 1 238 0
 598 0018 0023     		movs	r3, #0
 599 001a 0393     		str	r3, [sp, #12]
 239:..\..\..\arduinoLCD\test\Pain Drain\libraries\lvgl\src\misc/lv_fs.c ****     if(bw != NULL) *bw = bw_tmp;
 600              		.loc 1 239 0
 601 001c 0068     		ldr	r0, [r0]
ARM GAS  C:\Users\haske\AppData\Local\Temp\cc4gWNdf.s 			page 22


 602              	.LVL82:
 603 001e 03AB     		add	r3, sp, #12
 604 0020 0093     		str	r3, [sp]
 605 0022 1300     		movs	r3, r2
 606 0024 0A00     		movs	r2, r1
 607              	.LVL83:
 608 0026 0100     		movs	r1, r0
 609              	.LVL84:
 610 0028 2800     		movs	r0, r5
 611 002a B047     		blx	r6
 612              	.LVL85:
 240:..\..\..\arduinoLCD\test\Pain Drain\libraries\lvgl\src\misc/lv_fs.c **** 
 613              		.loc 1 240 0
 614 002c 002C     		cmp	r4, #0
 615 002e 05D0     		beq	.L36
 240:..\..\..\arduinoLCD\test\Pain Drain\libraries\lvgl\src\misc/lv_fs.c **** 
 616              		.loc 1 240 0 is_stmt 0 discriminator 1
 617 0030 039B     		ldr	r3, [sp, #12]
 618 0032 2360     		str	r3, [r4]
 619 0034 02E0     		b	.L36
 620              	.LVL86:
 621              	.L37:
 231:..\..\..\arduinoLCD\test\Pain Drain\libraries\lvgl\src\misc/lv_fs.c ****     }
 622              		.loc 1 231 0 is_stmt 1
 623 0036 0B20     		movs	r0, #11
 624              	.LVL87:
 625 0038 00E0     		b	.L36
 626              	.LVL88:
 627              	.L38:
 235:..\..\..\arduinoLCD\test\Pain Drain\libraries\lvgl\src\misc/lv_fs.c ****     }
 628              		.loc 1 235 0
 629 003a 0920     		movs	r0, #9
 630              	.LVL89:
 631              	.L36:
 243:..\..\..\arduinoLCD\test\Pain Drain\libraries\lvgl\src\misc/lv_fs.c **** 
 632              		.loc 1 243 0
 633 003c 04B0     		add	sp, sp, #16
 634              		@ sp needed
 635              	.LVL90:
 636 003e 70BD     		pop	{r4, r5, r6, pc}
 637              		.cfi_endproc
 638              	.LFE30:
 639              		.size	lv_fs_write, .-lv_fs_write
 640              		.section	.text.lv_fs_seek,"ax",%progbits
 641              		.align	2
 642              		.global	lv_fs_seek
 643              		.code	16
 644              		.thumb_func
 645              		.type	lv_fs_seek, %function
 646              	lv_fs_seek:
 647              	.LFB31:
 246:..\..\..\arduinoLCD\test\Pain Drain\libraries\lvgl\src\misc/lv_fs.c ****     if(file_p->drv == NULL) {
 648              		.loc 1 246 0
 649              		.cfi_startproc
 650              		@ args = 0, pretend = 0, frame = 8
 651              		@ frame_needed = 0, uses_anonymous_args = 0
 652              	.LVL91:
ARM GAS  C:\Users\haske\AppData\Local\Temp\cc4gWNdf.s 			page 23


 653 0000 30B5     		push	{r4, r5, lr}
 654              		.cfi_def_cfa_offset 12
 655              		.cfi_offset 4, -12
 656              		.cfi_offset 5, -8
 657              		.cfi_offset 14, -4
 658 0002 83B0     		sub	sp, sp, #12
 659              		.cfi_def_cfa_offset 24
 660 0004 0400     		movs	r4, r0
 247:..\..\..\arduinoLCD\test\Pain Drain\libraries\lvgl\src\misc/lv_fs.c ****         return LV_FS_RES_INV_PARAM;
 661              		.loc 1 247 0
 662 0006 4068     		ldr	r0, [r0, #4]
 663              	.LVL92:
 664 0008 0028     		cmp	r0, #0
 665 000a 46D0     		beq	.L49
 251:..\..\..\arduinoLCD\test\Pain Drain\libraries\lvgl\src\misc/lv_fs.c ****         return LV_FS_RES_NOT_IMP;
 666              		.loc 1 251 0
 667 000c 8569     		ldr	r5, [r0, #24]
 668 000e 002D     		cmp	r5, #0
 669 0010 45D0     		beq	.L50
 670              	.LVL93:
 256:..\..\..\arduinoLCD\test\Pain Drain\libraries\lvgl\src\misc/lv_fs.c ****         switch(whence) {
 671              		.loc 1 256 0
 672 0012 4388     		ldrh	r3, [r0, #2]
 673 0014 002B     		cmp	r3, #0
 674 0016 3AD0     		beq	.L42
 257:..\..\..\arduinoLCD\test\Pain Drain\libraries\lvgl\src\misc/lv_fs.c ****             case LV_FS_SEEK_SET: {
 675              		.loc 1 257 0
 676 0018 012A     		cmp	r2, #1
 677 001a 14D0     		beq	.L43
 678 001c 002A     		cmp	r2, #0
 679 001e 02D0     		beq	.L44
 680 0020 022A     		cmp	r2, #2
 681 0022 23D0     		beq	.L45
 682 0024 3DE0     		b	.L55
 683              	.L44:
 259:..\..\..\arduinoLCD\test\Pain Drain\libraries\lvgl\src\misc/lv_fs.c **** 
 684              		.loc 1 259 0
 685 0026 A368     		ldr	r3, [r4, #8]
 686 0028 9960     		str	r1, [r3, #8]
 262:..\..\..\arduinoLCD\test\Pain Drain\libraries\lvgl\src\misc/lv_fs.c ****                         res = file_p->drv->seek_cb(file_p->drv, file_p->file_d, file_p->cache->file
 687              		.loc 1 262 0
 688 002a A368     		ldr	r3, [r4, #8]
 689 002c 9A68     		ldr	r2, [r3, #8]
 690              	.LVL94:
 691 002e 1968     		ldr	r1, [r3]
 692              	.LVL95:
 693 0030 8A42     		cmp	r2, r1
 694 0032 02D3     		bcc	.L46
 262:..\..\..\arduinoLCD\test\Pain Drain\libraries\lvgl\src\misc/lv_fs.c ****                         res = file_p->drv->seek_cb(file_p->drv, file_p->file_d, file_p->cache->file
 695              		.loc 1 262 0 is_stmt 0 discriminator 1
 696 0034 5B68     		ldr	r3, [r3, #4]
 697 0036 9A42     		cmp	r2, r3
 698 0038 35D9     		bls	.L52
 699              	.L46:
 263:..\..\..\arduinoLCD\test\Pain Drain\libraries\lvgl\src\misc/lv_fs.c ****                     }
 700              		.loc 1 263 0 is_stmt 1
 701 003a 6068     		ldr	r0, [r4, #4]
ARM GAS  C:\Users\haske\AppData\Local\Temp\cc4gWNdf.s 			page 24


 702 003c 8569     		ldr	r5, [r0, #24]
 703 003e 2168     		ldr	r1, [r4]
 704 0040 0023     		movs	r3, #0
 705 0042 A847     		blx	r5
 706              	.LVL96:
 707 0044 32E0     		b	.L41
 708              	.LVL97:
 709              	.L43:
 269:..\..\..\arduinoLCD\test\Pain Drain\libraries\lvgl\src\misc/lv_fs.c **** 
 710              		.loc 1 269 0
 711 0046 A368     		ldr	r3, [r4, #8]
 712 0048 9A68     		ldr	r2, [r3, #8]
 713              	.LVL98:
 714 004a 9446     		mov	ip, r2
 715 004c 6144     		add	r1, r1, ip
 716              	.LVL99:
 717 004e 9960     		str	r1, [r3, #8]
 272:..\..\..\arduinoLCD\test\Pain Drain\libraries\lvgl\src\misc/lv_fs.c ****                         res = file_p->drv->seek_cb(file_p->drv, file_p->file_d, file_p->cache->file
 718              		.loc 1 272 0
 719 0050 A368     		ldr	r3, [r4, #8]
 720 0052 9A68     		ldr	r2, [r3, #8]
 721 0054 1968     		ldr	r1, [r3]
 722 0056 8A42     		cmp	r2, r1
 723 0058 02D3     		bcc	.L47
 272:..\..\..\arduinoLCD\test\Pain Drain\libraries\lvgl\src\misc/lv_fs.c ****                         res = file_p->drv->seek_cb(file_p->drv, file_p->file_d, file_p->cache->file
 724              		.loc 1 272 0 is_stmt 0 discriminator 1
 725 005a 5B68     		ldr	r3, [r3, #4]
 726 005c 9A42     		cmp	r2, r3
 727 005e 24D9     		bls	.L53
 728              	.L47:
 273:..\..\..\arduinoLCD\test\Pain Drain\libraries\lvgl\src\misc/lv_fs.c ****                     }
 729              		.loc 1 273 0 is_stmt 1
 730 0060 6068     		ldr	r0, [r4, #4]
 731 0062 8569     		ldr	r5, [r0, #24]
 732 0064 2168     		ldr	r1, [r4]
 733 0066 0023     		movs	r3, #0
 734 0068 A847     		blx	r5
 735              	.LVL100:
 736 006a 1FE0     		b	.L41
 737              	.LVL101:
 738              	.L45:
 280:..\..\..\arduinoLCD\test\Pain Drain\libraries\lvgl\src\misc/lv_fs.c ****                     if(res == LV_FS_RES_OK) {
 739              		.loc 1 280 0
 740 006c 1300     		movs	r3, r2
 741 006e 0A00     		movs	r2, r1
 742              	.LVL102:
 743 0070 2168     		ldr	r1, [r4]
 744              	.LVL103:
 745 0072 A847     		blx	r5
 746              	.LVL104:
 281:..\..\..\arduinoLCD\test\Pain Drain\libraries\lvgl\src\misc/lv_fs.c ****                         uint32_t tmp_position;
 747              		.loc 1 281 0
 748 0074 0028     		cmp	r0, #0
 749 0076 19D1     		bne	.L41
 750              	.LBB7:
 283:..\..\..\arduinoLCD\test\Pain Drain\libraries\lvgl\src\misc/lv_fs.c **** 
 751              		.loc 1 283 0
ARM GAS  C:\Users\haske\AppData\Local\Temp\cc4gWNdf.s 			page 25


 752 0078 6068     		ldr	r0, [r4, #4]
 753              	.LVL105:
 754 007a C369     		ldr	r3, [r0, #28]
 755 007c 01AA     		add	r2, sp, #4
 756 007e 2168     		ldr	r1, [r4]
 757 0080 9847     		blx	r3
 758              	.LVL106:
 285:..\..\..\arduinoLCD\test\Pain Drain\libraries\lvgl\src\misc/lv_fs.c ****                             file_p->cache->file_position = tmp_position;
 759              		.loc 1 285 0
 760 0082 0028     		cmp	r0, #0
 761 0084 12D1     		bne	.L41
 286:..\..\..\arduinoLCD\test\Pain Drain\libraries\lvgl\src\misc/lv_fs.c ****                         }
 762              		.loc 1 286 0
 763 0086 A368     		ldr	r3, [r4, #8]
 764 0088 019A     		ldr	r2, [sp, #4]
 765 008a 9A60     		str	r2, [r3, #8]
 766 008c 0EE0     		b	.L41
 767              	.LVL107:
 768              	.L42:
 769              	.LBE7:
 294:..\..\..\arduinoLCD\test\Pain Drain\libraries\lvgl\src\misc/lv_fs.c ****     }
 770              		.loc 1 294 0
 771 008e 2468     		ldr	r4, [r4]
 772              	.LVL108:
 773 0090 1300     		movs	r3, r2
 774 0092 0A00     		movs	r2, r1
 775              	.LVL109:
 776 0094 2100     		movs	r1, r4
 777              	.LVL110:
 778 0096 A847     		blx	r5
 779              	.LVL111:
 780 0098 08E0     		b	.L41
 781              	.LVL112:
 782              	.L49:
 248:..\..\..\arduinoLCD\test\Pain Drain\libraries\lvgl\src\misc/lv_fs.c ****     }
 783              		.loc 1 248 0
 784 009a 0B20     		movs	r0, #11
 785 009c 06E0     		b	.L41
 786              	.L50:
 252:..\..\..\arduinoLCD\test\Pain Drain\libraries\lvgl\src\misc/lv_fs.c ****     }
 787              		.loc 1 252 0
 788 009e 0920     		movs	r0, #9
 789 00a0 04E0     		b	.L41
 790              	.LVL113:
 791              	.L55:
 255:..\..\..\arduinoLCD\test\Pain Drain\libraries\lvgl\src\misc/lv_fs.c ****     if(file_p->drv->cache_size) {
 792              		.loc 1 255 0
 793 00a2 0020     		movs	r0, #0
 794 00a4 02E0     		b	.L41
 795              	.LVL114:
 796              	.L52:
 797 00a6 0020     		movs	r0, #0
 798 00a8 00E0     		b	.L41
 799              	.L53:
 800 00aa 0020     		movs	r0, #0
 801              	.LVL115:
 802              	.L41:
ARM GAS  C:\Users\haske\AppData\Local\Temp\cc4gWNdf.s 			page 26


 298:..\..\..\arduinoLCD\test\Pain Drain\libraries\lvgl\src\misc/lv_fs.c **** 
 803              		.loc 1 298 0
 804 00ac 03B0     		add	sp, sp, #12
 805              		@ sp needed
 806 00ae 30BD     		pop	{r4, r5, pc}
 807              		.cfi_endproc
 808              	.LFE31:
 809              		.size	lv_fs_seek, .-lv_fs_seek
 810              		.section	.text.lv_fs_tell,"ax",%progbits
 811              		.align	2
 812              		.global	lv_fs_tell
 813              		.code	16
 814              		.thumb_func
 815              		.type	lv_fs_tell, %function
 816              	lv_fs_tell:
 817              	.LFB32:
 301:..\..\..\arduinoLCD\test\Pain Drain\libraries\lvgl\src\misc/lv_fs.c ****     if(file_p->drv == NULL) {
 818              		.loc 1 301 0
 819              		.cfi_startproc
 820              		@ args = 0, pretend = 0, frame = 0
 821              		@ frame_needed = 0, uses_anonymous_args = 0
 822              	.LVL116:
 823 0000 10B5     		push	{r4, lr}
 824              		.cfi_def_cfa_offset 8
 825              		.cfi_offset 4, -8
 826              		.cfi_offset 14, -4
 302:..\..\..\arduinoLCD\test\Pain Drain\libraries\lvgl\src\misc/lv_fs.c ****         *pos = 0;
 827              		.loc 1 302 0
 828 0002 4368     		ldr	r3, [r0, #4]
 829 0004 002B     		cmp	r3, #0
 830 0006 02D1     		bne	.L57
 303:..\..\..\arduinoLCD\test\Pain Drain\libraries\lvgl\src\misc/lv_fs.c ****         return LV_FS_RES_INV_PARAM;
 831              		.loc 1 303 0
 832 0008 0B60     		str	r3, [r1]
 304:..\..\..\arduinoLCD\test\Pain Drain\libraries\lvgl\src\misc/lv_fs.c ****     }
 833              		.loc 1 304 0
 834 000a 0B20     		movs	r0, #11
 835              	.LVL117:
 836 000c 13E0     		b	.L58
 837              	.LVL118:
 838              	.L57:
 307:..\..\..\arduinoLCD\test\Pain Drain\libraries\lvgl\src\misc/lv_fs.c ****         *pos = 0;
 839              		.loc 1 307 0
 840 000e DC69     		ldr	r4, [r3, #28]
 841 0010 002C     		cmp	r4, #0
 842 0012 03D1     		bne	.L59
 308:..\..\..\arduinoLCD\test\Pain Drain\libraries\lvgl\src\misc/lv_fs.c ****         return LV_FS_RES_NOT_IMP;
 843              		.loc 1 308 0
 844 0014 0023     		movs	r3, #0
 845 0016 0B60     		str	r3, [r1]
 309:..\..\..\arduinoLCD\test\Pain Drain\libraries\lvgl\src\misc/lv_fs.c ****     }
 846              		.loc 1 309 0
 847 0018 0920     		movs	r0, #9
 848              	.LVL119:
 849 001a 0CE0     		b	.L58
 850              	.LVL120:
 851              	.L59:
ARM GAS  C:\Users\haske\AppData\Local\Temp\cc4gWNdf.s 			page 27


 313:..\..\..\arduinoLCD\test\Pain Drain\libraries\lvgl\src\misc/lv_fs.c ****         *pos = file_p->cache->file_position;
 852              		.loc 1 313 0
 853 001c 5A88     		ldrh	r2, [r3, #2]
 854 001e 002A     		cmp	r2, #0
 855 0020 04D0     		beq	.L60
 314:..\..\..\arduinoLCD\test\Pain Drain\libraries\lvgl\src\misc/lv_fs.c ****         res = LV_FS_RES_OK;
 856              		.loc 1 314 0
 857 0022 8368     		ldr	r3, [r0, #8]
 858 0024 9B68     		ldr	r3, [r3, #8]
 859 0026 0B60     		str	r3, [r1]
 860              	.LVL121:
 315:..\..\..\arduinoLCD\test\Pain Drain\libraries\lvgl\src\misc/lv_fs.c ****     }
 861              		.loc 1 315 0
 862 0028 0020     		movs	r0, #0
 863              	.LVL122:
 864 002a 04E0     		b	.L58
 865              	.LVL123:
 866              	.L60:
 318:..\..\..\arduinoLCD\test\Pain Drain\libraries\lvgl\src\misc/lv_fs.c ****     }
 867              		.loc 1 318 0
 868 002c 0068     		ldr	r0, [r0]
 869              	.LVL124:
 870 002e 0A00     		movs	r2, r1
 871 0030 0100     		movs	r1, r0
 872              	.LVL125:
 873 0032 1800     		movs	r0, r3
 874 0034 A047     		blx	r4
 875              	.LVL126:
 876              	.L58:
 322:..\..\..\arduinoLCD\test\Pain Drain\libraries\lvgl\src\misc/lv_fs.c **** 
 877              		.loc 1 322 0
 878              		@ sp needed
 879 0036 10BD     		pop	{r4, pc}
 880              		.cfi_endproc
 881              	.LFE32:
 882              		.size	lv_fs_tell, .-lv_fs_tell
 883              		.section	.text.lv_fs_dir_read,"ax",%progbits
 884              		.align	2
 885              		.global	lv_fs_dir_read
 886              		.code	16
 887              		.thumb_func
 888              		.type	lv_fs_dir_read, %function
 889              	lv_fs_dir_read:
 890              	.LFB34:
 359:..\..\..\arduinoLCD\test\Pain Drain\libraries\lvgl\src\misc/lv_fs.c ****     if(rddir_p->drv == NULL || rddir_p->dir_d == NULL) {
 891              		.loc 1 359 0
 892              		.cfi_startproc
 893              		@ args = 0, pretend = 0, frame = 0
 894              		@ frame_needed = 0, uses_anonymous_args = 0
 895              	.LVL127:
 896 0000 10B5     		push	{r4, lr}
 897              		.cfi_def_cfa_offset 8
 898              		.cfi_offset 4, -8
 899              		.cfi_offset 14, -4
 360:..\..\..\arduinoLCD\test\Pain Drain\libraries\lvgl\src\misc/lv_fs.c ****         fn[0] = '\0';
 900              		.loc 1 360 0
 901 0002 4368     		ldr	r3, [r0, #4]
ARM GAS  C:\Users\haske\AppData\Local\Temp\cc4gWNdf.s 			page 28


 902 0004 002B     		cmp	r3, #0
 903 0006 02D0     		beq	.L62
 360:..\..\..\arduinoLCD\test\Pain Drain\libraries\lvgl\src\misc/lv_fs.c ****         fn[0] = '\0';
 904              		.loc 1 360 0 is_stmt 0 discriminator 1
 905 0008 0068     		ldr	r0, [r0]
 906              	.LVL128:
 907 000a 0028     		cmp	r0, #0
 908 000c 03D1     		bne	.L63
 909              	.L62:
 361:..\..\..\arduinoLCD\test\Pain Drain\libraries\lvgl\src\misc/lv_fs.c ****         return LV_FS_RES_INV_PARAM;
 910              		.loc 1 361 0 is_stmt 1
 911 000e 0023     		movs	r3, #0
 912 0010 0B70     		strb	r3, [r1]
 362:..\..\..\arduinoLCD\test\Pain Drain\libraries\lvgl\src\misc/lv_fs.c ****     }
 913              		.loc 1 362 0
 914 0012 0B20     		movs	r0, #11
 915 0014 0AE0     		b	.L64
 916              	.L63:
 365:..\..\..\arduinoLCD\test\Pain Drain\libraries\lvgl\src\misc/lv_fs.c ****         fn[0] = '\0';
 917              		.loc 1 365 0
 918 0016 5C6A     		ldr	r4, [r3, #36]
 919 0018 002C     		cmp	r4, #0
 920 001a 03D1     		bne	.L65
 366:..\..\..\arduinoLCD\test\Pain Drain\libraries\lvgl\src\misc/lv_fs.c ****         return LV_FS_RES_NOT_IMP;
 921              		.loc 1 366 0
 922 001c 0023     		movs	r3, #0
 923 001e 0B70     		strb	r3, [r1]
 367:..\..\..\arduinoLCD\test\Pain Drain\libraries\lvgl\src\misc/lv_fs.c ****     }
 924              		.loc 1 367 0
 925 0020 0920     		movs	r0, #9
 926 0022 03E0     		b	.L64
 927              	.L65:
 370:..\..\..\arduinoLCD\test\Pain Drain\libraries\lvgl\src\misc/lv_fs.c **** 
 928              		.loc 1 370 0
 929 0024 0A00     		movs	r2, r1
 930 0026 0100     		movs	r1, r0
 931              	.LVL129:
 932 0028 1800     		movs	r0, r3
 933 002a A047     		blx	r4
 934              	.LVL130:
 935              	.L64:
 373:..\..\..\arduinoLCD\test\Pain Drain\libraries\lvgl\src\misc/lv_fs.c **** 
 936              		.loc 1 373 0
 937              		@ sp needed
 938 002c 10BD     		pop	{r4, pc}
 939              		.cfi_endproc
 940              	.LFE34:
 941              		.size	lv_fs_dir_read, .-lv_fs_dir_read
 942 002e C046     		.section	.text.lv_fs_dir_close,"ax",%progbits
 943              		.align	2
 944              		.global	lv_fs_dir_close
 945              		.code	16
 946              		.thumb_func
 947              		.type	lv_fs_dir_close, %function
 948              	lv_fs_dir_close:
 949              	.LFB35:
 376:..\..\..\arduinoLCD\test\Pain Drain\libraries\lvgl\src\misc/lv_fs.c ****     if(rddir_p->drv == NULL || rddir_p->dir_d == NULL) {
ARM GAS  C:\Users\haske\AppData\Local\Temp\cc4gWNdf.s 			page 29


 950              		.loc 1 376 0
 951              		.cfi_startproc
 952              		@ args = 0, pretend = 0, frame = 0
 953              		@ frame_needed = 0, uses_anonymous_args = 0
 954              	.LVL131:
 955 0000 10B5     		push	{r4, lr}
 956              		.cfi_def_cfa_offset 8
 957              		.cfi_offset 4, -8
 958              		.cfi_offset 14, -4
 959 0002 0400     		movs	r4, r0
 377:..\..\..\arduinoLCD\test\Pain Drain\libraries\lvgl\src\misc/lv_fs.c ****         return LV_FS_RES_INV_PARAM;
 960              		.loc 1 377 0
 961 0004 4068     		ldr	r0, [r0, #4]
 962              	.LVL132:
 963 0006 0028     		cmp	r0, #0
 964 0008 0AD0     		beq	.L68
 377:..\..\..\arduinoLCD\test\Pain Drain\libraries\lvgl\src\misc/lv_fs.c ****         return LV_FS_RES_INV_PARAM;
 965              		.loc 1 377 0 is_stmt 0 discriminator 1
 966 000a 2168     		ldr	r1, [r4]
 967 000c 0029     		cmp	r1, #0
 968 000e 09D0     		beq	.L69
 381:..\..\..\arduinoLCD\test\Pain Drain\libraries\lvgl\src\misc/lv_fs.c ****         return LV_FS_RES_NOT_IMP;
 969              		.loc 1 381 0 is_stmt 1
 970 0010 836A     		ldr	r3, [r0, #40]
 971 0012 002B     		cmp	r3, #0
 972 0014 08D0     		beq	.L70
 385:..\..\..\arduinoLCD\test\Pain Drain\libraries\lvgl\src\misc/lv_fs.c **** 
 973              		.loc 1 385 0
 974 0016 9847     		blx	r3
 975              	.LVL133:
 387:..\..\..\arduinoLCD\test\Pain Drain\libraries\lvgl\src\misc/lv_fs.c ****     rddir_p->drv   = NULL;
 976              		.loc 1 387 0
 977 0018 0023     		movs	r3, #0
 978 001a 2360     		str	r3, [r4]
 388:..\..\..\arduinoLCD\test\Pain Drain\libraries\lvgl\src\misc/lv_fs.c **** 
 979              		.loc 1 388 0
 980 001c 6360     		str	r3, [r4, #4]
 390:..\..\..\arduinoLCD\test\Pain Drain\libraries\lvgl\src\misc/lv_fs.c **** }
 981              		.loc 1 390 0
 982 001e 04E0     		b	.L67
 983              	.LVL134:
 984              	.L68:
 378:..\..\..\arduinoLCD\test\Pain Drain\libraries\lvgl\src\misc/lv_fs.c ****     }
 985              		.loc 1 378 0
 986 0020 0B20     		movs	r0, #11
 987 0022 02E0     		b	.L67
 988              	.L69:
 989 0024 0B20     		movs	r0, #11
 990 0026 00E0     		b	.L67
 991              	.L70:
 382:..\..\..\arduinoLCD\test\Pain Drain\libraries\lvgl\src\misc/lv_fs.c ****     }
 992              		.loc 1 382 0
 993 0028 0920     		movs	r0, #9
 994              	.L67:
 391:..\..\..\arduinoLCD\test\Pain Drain\libraries\lvgl\src\misc/lv_fs.c **** 
 995              		.loc 1 391 0
 996              		@ sp needed
ARM GAS  C:\Users\haske\AppData\Local\Temp\cc4gWNdf.s 			page 30


 997              	.LVL135:
 998 002a 10BD     		pop	{r4, pc}
 999              		.cfi_endproc
 1000              	.LFE35:
 1001              		.size	lv_fs_dir_close, .-lv_fs_dir_close
 1002              		.section	.text.lv_fs_drv_init,"ax",%progbits
 1003              		.align	2
 1004              		.global	lv_fs_drv_init
 1005              		.code	16
 1006              		.thumb_func
 1007              		.type	lv_fs_drv_init, %function
 1008              	lv_fs_drv_init:
 1009              	.LFB36:
 394:..\..\..\arduinoLCD\test\Pain Drain\libraries\lvgl\src\misc/lv_fs.c ****     lv_memset_00(drv, sizeof(lv_fs_drv_t));
 1010              		.loc 1 394 0
 1011              		.cfi_startproc
 1012              		@ args = 0, pretend = 0, frame = 0
 1013              		@ frame_needed = 0, uses_anonymous_args = 0
 1014              	.LVL136:
 1015 0000 10B5     		push	{r4, lr}
 1016              		.cfi_def_cfa_offset 8
 1017              		.cfi_offset 4, -8
 1018              		.cfi_offset 14, -4
 395:..\..\..\arduinoLCD\test\Pain Drain\libraries\lvgl\src\misc/lv_fs.c **** }
 1019              		.loc 1 395 0
 1020 0002 3021     		movs	r1, #48
 1021 0004 FFF7FEFF 		bl	lv_memset_00
 1022              	.LVL137:
 396:..\..\..\arduinoLCD\test\Pain Drain\libraries\lvgl\src\misc/lv_fs.c **** 
 1023              		.loc 1 396 0
 1024              		@ sp needed
 1025 0008 10BD     		pop	{r4, pc}
 1026              		.cfi_endproc
 1027              	.LFE36:
 1028              		.size	lv_fs_drv_init, .-lv_fs_drv_init
 1029 000a C046     		.section	.text.lv_fs_drv_register,"ax",%progbits
 1030              		.align	2
 1031              		.global	lv_fs_drv_register
 1032              		.code	16
 1033              		.thumb_func
 1034              		.type	lv_fs_drv_register, %function
 1035              	lv_fs_drv_register:
 1036              	.LFB37:
 399:..\..\..\arduinoLCD\test\Pain Drain\libraries\lvgl\src\misc/lv_fs.c ****     /*Save the new driver*/
 1037              		.loc 1 399 0
 1038              		.cfi_startproc
 1039              		@ args = 0, pretend = 0, frame = 0
 1040              		@ frame_needed = 0, uses_anonymous_args = 0
 1041              	.LVL138:
 1042 0000 10B5     		push	{r4, lr}
 1043              		.cfi_def_cfa_offset 8
 1044              		.cfi_offset 4, -8
 1045              		.cfi_offset 14, -4
 1046 0002 0400     		movs	r4, r0
 402:..\..\..\arduinoLCD\test\Pain Drain\libraries\lvgl\src\misc/lv_fs.c ****     LV_ASSERT_MALLOC(new_drv);
 1047              		.loc 1 402 0
 1048 0004 0448     		ldr	r0, .L76
ARM GAS  C:\Users\haske\AppData\Local\Temp\cc4gWNdf.s 			page 31


 1049              	.LVL139:
 1050 0006 FFF7FEFF 		bl	_lv_ll_ins_head
 1051              	.LVL140:
 403:..\..\..\arduinoLCD\test\Pain Drain\libraries\lvgl\src\misc/lv_fs.c ****     if(new_drv == NULL) return;
 1052              		.loc 1 403 0
 1053 000a 0028     		cmp	r0, #0
 1054 000c 00D1     		bne	.L73
 1055              	.L74:
 1056 000e FEE7     		b	.L74
 1057              	.L73:
 404:..\..\..\arduinoLCD\test\Pain Drain\libraries\lvgl\src\misc/lv_fs.c **** 
 1058              		.loc 1 404 0
 1059 0010 0028     		cmp	r0, #0
 1060 0012 00D0     		beq	.L72
 406:..\..\..\arduinoLCD\test\Pain Drain\libraries\lvgl\src\misc/lv_fs.c **** }
 1061              		.loc 1 406 0
 1062 0014 0460     		str	r4, [r0]
 1063              	.L72:
 407:..\..\..\arduinoLCD\test\Pain Drain\libraries\lvgl\src\misc/lv_fs.c **** 
 1064              		.loc 1 407 0
 1065              		@ sp needed
 1066              	.LVL141:
 1067 0016 10BD     		pop	{r4, pc}
 1068              	.L77:
 1069              		.align	2
 1070              	.L76:
 1071 0018 00000000 		.word	_lv_fsdrv_ll
 1072              		.cfi_endproc
 1073              	.LFE37:
 1074              		.size	lv_fs_drv_register, .-lv_fs_drv_register
 1075              		.section	.text.lv_fs_get_drv,"ax",%progbits
 1076              		.align	2
 1077              		.global	lv_fs_get_drv
 1078              		.code	16
 1079              		.thumb_func
 1080              		.type	lv_fs_get_drv, %function
 1081              	lv_fs_get_drv:
 1082              	.LFB38:
 410:..\..\..\arduinoLCD\test\Pain Drain\libraries\lvgl\src\misc/lv_fs.c ****     lv_fs_drv_t ** drv;
 1083              		.loc 1 410 0
 1084              		.cfi_startproc
 1085              		@ args = 0, pretend = 0, frame = 0
 1086              		@ frame_needed = 0, uses_anonymous_args = 0
 1087              	.LVL142:
 1088 0000 10B5     		push	{r4, lr}
 1089              		.cfi_def_cfa_offset 8
 1090              		.cfi_offset 4, -8
 1091              		.cfi_offset 14, -4
 1092 0002 0400     		movs	r4, r0
 413:..\..\..\arduinoLCD\test\Pain Drain\libraries\lvgl\src\misc/lv_fs.c ****         if((*drv)->letter == letter) {
 1093              		.loc 1 413 0
 1094 0004 0848     		ldr	r0, .L82
 1095              	.LVL143:
 1096 0006 FFF7FEFF 		bl	_lv_ll_get_head
 1097              	.LVL144:
 1098 000a 0100     		movs	r1, r0
 1099              	.LVL145:
ARM GAS  C:\Users\haske\AppData\Local\Temp\cc4gWNdf.s 			page 32


 1100 000c 07E0     		b	.L79
 1101              	.L81:
 414:..\..\..\arduinoLCD\test\Pain Drain\libraries\lvgl\src\misc/lv_fs.c ****             return *drv;
 1102              		.loc 1 414 0
 1103 000e 0868     		ldr	r0, [r1]
 1104              	.LVL146:
 1105 0010 0378     		ldrb	r3, [r0]
 1106 0012 A342     		cmp	r3, r4
 1107 0014 06D0     		beq	.L80
 413:..\..\..\arduinoLCD\test\Pain Drain\libraries\lvgl\src\misc/lv_fs.c ****         if((*drv)->letter == letter) {
 1108              		.loc 1 413 0 discriminator 2
 1109 0016 0448     		ldr	r0, .L82
 1110 0018 FFF7FEFF 		bl	_lv_ll_get_next
 1111              	.LVL147:
 1112 001c 0100     		movs	r1, r0
 1113              	.LVL148:
 1114              	.L79:
 413:..\..\..\arduinoLCD\test\Pain Drain\libraries\lvgl\src\misc/lv_fs.c ****         if((*drv)->letter == letter) {
 1115              		.loc 1 413 0 is_stmt 0 discriminator 1
 1116 001e 0029     		cmp	r1, #0
 1117 0020 F5D1     		bne	.L81
 419:..\..\..\arduinoLCD\test\Pain Drain\libraries\lvgl\src\misc/lv_fs.c **** }
 1118              		.loc 1 419 0 is_stmt 1
 1119 0022 0020     		movs	r0, #0
 1120              	.LVL149:
 1121              	.L80:
 420:..\..\..\arduinoLCD\test\Pain Drain\libraries\lvgl\src\misc/lv_fs.c **** 
 1122              		.loc 1 420 0
 1123              		@ sp needed
 1124 0024 10BD     		pop	{r4, pc}
 1125              	.L83:
 1126 0026 C046     		.align	2
 1127              	.L82:
 1128 0028 00000000 		.word	_lv_fsdrv_ll
 1129              		.cfi_endproc
 1130              	.LFE38:
 1131              		.size	lv_fs_get_drv, .-lv_fs_get_drv
 1132              		.section	.text.lv_fs_is_ready,"ax",%progbits
 1133              		.align	2
 1134              		.global	lv_fs_is_ready
 1135              		.code	16
 1136              		.thumb_func
 1137              		.type	lv_fs_is_ready, %function
 1138              	lv_fs_is_ready:
 1139              	.LFB25:
  47:..\..\..\arduinoLCD\test\Pain Drain\libraries\lvgl\src\misc/lv_fs.c ****     lv_fs_drv_t * drv = lv_fs_get_drv(letter);
 1140              		.loc 1 47 0
 1141              		.cfi_startproc
 1142              		@ args = 0, pretend = 0, frame = 0
 1143              		@ frame_needed = 0, uses_anonymous_args = 0
 1144              	.LVL150:
 1145 0000 10B5     		push	{r4, lr}
 1146              		.cfi_def_cfa_offset 8
 1147              		.cfi_offset 4, -8
 1148              		.cfi_offset 14, -4
  48:..\..\..\arduinoLCD\test\Pain Drain\libraries\lvgl\src\misc/lv_fs.c **** 
 1149              		.loc 1 48 0
ARM GAS  C:\Users\haske\AppData\Local\Temp\cc4gWNdf.s 			page 33


 1150 0002 FFF7FEFF 		bl	lv_fs_get_drv
 1151              	.LVL151:
  50:..\..\..\arduinoLCD\test\Pain Drain\libraries\lvgl\src\misc/lv_fs.c **** 
 1152              		.loc 1 50 0
 1153 0006 0028     		cmp	r0, #0
 1154 0008 04D0     		beq	.L86
  52:..\..\..\arduinoLCD\test\Pain Drain\libraries\lvgl\src\misc/lv_fs.c **** 
 1155              		.loc 1 52 0
 1156 000a 4368     		ldr	r3, [r0, #4]
 1157 000c 002B     		cmp	r3, #0
 1158 000e 03D0     		beq	.L87
  54:..\..\..\arduinoLCD\test\Pain Drain\libraries\lvgl\src\misc/lv_fs.c **** }
 1159              		.loc 1 54 0
 1160 0010 9847     		blx	r3
 1161              	.LVL152:
 1162 0012 02E0     		b	.L85
 1163              	.LVL153:
 1164              	.L86:
  50:..\..\..\arduinoLCD\test\Pain Drain\libraries\lvgl\src\misc/lv_fs.c **** 
 1165              		.loc 1 50 0
 1166 0014 0020     		movs	r0, #0
 1167              	.LVL154:
 1168 0016 00E0     		b	.L85
 1169              	.LVL155:
 1170              	.L87:
  52:..\..\..\arduinoLCD\test\Pain Drain\libraries\lvgl\src\misc/lv_fs.c **** 
 1171              		.loc 1 52 0
 1172 0018 0120     		movs	r0, #1
 1173              	.LVL156:
 1174              	.L85:
  55:..\..\..\arduinoLCD\test\Pain Drain\libraries\lvgl\src\misc/lv_fs.c **** 
 1175              		.loc 1 55 0
 1176              		@ sp needed
 1177 001a 10BD     		pop	{r4, pc}
 1178              		.cfi_endproc
 1179              	.LFE25:
 1180              		.size	lv_fs_is_ready, .-lv_fs_is_ready
 1181              		.section	.text.lv_fs_open,"ax",%progbits
 1182              		.align	2
 1183              		.global	lv_fs_open
 1184              		.code	16
 1185              		.thumb_func
 1186              		.type	lv_fs_open, %function
 1187              	lv_fs_open:
 1188              	.LFB26:
  58:..\..\..\arduinoLCD\test\Pain Drain\libraries\lvgl\src\misc/lv_fs.c ****     if(path == NULL) {
 1189              		.loc 1 58 0
 1190              		.cfi_startproc
 1191              		@ args = 0, pretend = 0, frame = 8
 1192              		@ frame_needed = 0, uses_anonymous_args = 0
 1193              	.LVL157:
 1194 0000 F0B5     		push	{r4, r5, r6, r7, lr}
 1195              		.cfi_def_cfa_offset 20
 1196              		.cfi_offset 4, -20
 1197              		.cfi_offset 5, -16
 1198              		.cfi_offset 6, -12
 1199              		.cfi_offset 7, -8
ARM GAS  C:\Users\haske\AppData\Local\Temp\cc4gWNdf.s 			page 34


 1200              		.cfi_offset 14, -4
 1201 0002 83B0     		sub	sp, sp, #12
 1202              		.cfi_def_cfa_offset 32
 1203 0004 0600     		movs	r6, r0
 1204 0006 0C1E     		subs	r4, r1, #0
 1205 0008 0192     		str	r2, [sp, #4]
  59:..\..\..\arduinoLCD\test\Pain Drain\libraries\lvgl\src\misc/lv_fs.c ****         LV_LOG_WARN("Can't open file: path is NULL");
 1206              		.loc 1 59 0
 1207 000a 2FD0     		beq	.L93
  64:..\..\..\arduinoLCD\test\Pain Drain\libraries\lvgl\src\misc/lv_fs.c ****     lv_fs_drv_t * drv = lv_fs_get_drv(letter);
 1208              		.loc 1 64 0
 1209 000c 0878     		ldrb	r0, [r1]
 1210              	.LVL158:
  65:..\..\..\arduinoLCD\test\Pain Drain\libraries\lvgl\src\misc/lv_fs.c **** 
 1211              		.loc 1 65 0
 1212 000e FFF7FEFF 		bl	lv_fs_get_drv
 1213              	.LVL159:
 1214 0012 051E     		subs	r5, r0, #0
 1215              	.LVL160:
  67:..\..\..\arduinoLCD\test\Pain Drain\libraries\lvgl\src\misc/lv_fs.c ****         LV_LOG_WARN("Can't open file (%s): unknown driver letter", path);
 1216              		.loc 1 67 0
 1217 0014 2CD0     		beq	.L94
  72:..\..\..\arduinoLCD\test\Pain Drain\libraries\lvgl\src\misc/lv_fs.c ****         if(drv->ready_cb(drv) == false) {
 1218              		.loc 1 72 0
 1219 0016 4368     		ldr	r3, [r0, #4]
 1220 0018 002B     		cmp	r3, #0
 1221 001a 02D0     		beq	.L90
  73:..\..\..\arduinoLCD\test\Pain Drain\libraries\lvgl\src\misc/lv_fs.c ****             LV_LOG_WARN("Can't open file (%s): driver not ready", path);
 1222              		.loc 1 73 0
 1223 001c 9847     		blx	r3
 1224              	.LVL161:
 1225 001e 0028     		cmp	r0, #0
 1226 0020 28D0     		beq	.L95
 1227              	.L90:
  79:..\..\..\arduinoLCD\test\Pain Drain\libraries\lvgl\src\misc/lv_fs.c ****         LV_LOG_WARN("Can't open file (%s): open function not exists", path);
 1228              		.loc 1 79 0
 1229 0022 AF68     		ldr	r7, [r5, #8]
 1230 0024 002F     		cmp	r7, #0
 1231 0026 27D0     		beq	.L96
  84:..\..\..\arduinoLCD\test\Pain Drain\libraries\lvgl\src\misc/lv_fs.c ****     void * file_d = drv->open_cb(drv, real_path, mode);
 1232              		.loc 1 84 0
 1233 0028 2000     		movs	r0, r4
 1234 002a FFF7FEFF 		bl	lv_fs_get_real_path
 1235              	.LVL162:
 1236 002e 0100     		movs	r1, r0
 1237              	.LVL163:
  85:..\..\..\arduinoLCD\test\Pain Drain\libraries\lvgl\src\misc/lv_fs.c **** 
 1238              		.loc 1 85 0
 1239 0030 019A     		ldr	r2, [sp, #4]
 1240 0032 2800     		movs	r0, r5
 1241              	.LVL164:
 1242 0034 B847     		blx	r7
 1243              	.LVL165:
  87:..\..\..\arduinoLCD\test\Pain Drain\libraries\lvgl\src\misc/lv_fs.c ****         return LV_FS_RES_UNKNOWN;
 1244              		.loc 1 87 0
 1245 0036 431E     		subs	r3, r0, #1
 1246 0038 0333     		adds	r3, r3, #3
ARM GAS  C:\Users\haske\AppData\Local\Temp\cc4gWNdf.s 			page 35


 1247 003a 1FD8     		bhi	.L97
  91:..\..\..\arduinoLCD\test\Pain Drain\libraries\lvgl\src\misc/lv_fs.c ****     file_p->file_d = file_d;
 1248              		.loc 1 91 0
 1249 003c 7560     		str	r5, [r6, #4]
  92:..\..\..\arduinoLCD\test\Pain Drain\libraries\lvgl\src\misc/lv_fs.c **** 
 1250              		.loc 1 92 0
 1251 003e 3060     		str	r0, [r6]
  94:..\..\..\arduinoLCD\test\Pain Drain\libraries\lvgl\src\misc/lv_fs.c ****         file_p->cache = lv_mem_alloc(sizeof(lv_fs_file_cache_t));
 1252              		.loc 1 94 0
 1253 0040 6B88     		ldrh	r3, [r5, #2]
 1254 0042 002B     		cmp	r3, #0
 1255 0044 1CD0     		beq	.L98
  95:..\..\..\arduinoLCD\test\Pain Drain\libraries\lvgl\src\misc/lv_fs.c ****         LV_ASSERT_MALLOC(file_p->cache);
 1256              		.loc 1 95 0
 1257 0046 1020     		movs	r0, #16
 1258              	.LVL166:
 1259 0048 FFF7FEFF 		bl	lv_mem_alloc
 1260              	.LVL167:
 1261 004c B060     		str	r0, [r6, #8]
  96:..\..\..\arduinoLCD\test\Pain Drain\libraries\lvgl\src\misc/lv_fs.c ****         lv_memset_00(file_p->cache, sizeof(lv_fs_file_cache_t));
 1262              		.loc 1 96 0
 1263 004e 0028     		cmp	r0, #0
 1264 0050 00D1     		bne	.L91
 1265              	.L92:
 1266 0052 FEE7     		b	.L92
 1267              	.L91:
  97:..\..\..\arduinoLCD\test\Pain Drain\libraries\lvgl\src\misc/lv_fs.c ****         file_p->cache->start = UINT32_MAX;  /*Set an invalid range by default*/
 1268              		.loc 1 97 0
 1269 0054 1021     		movs	r1, #16
 1270 0056 FFF7FEFF 		bl	lv_memset_00
 1271              	.LVL168:
  98:..\..\..\arduinoLCD\test\Pain Drain\libraries\lvgl\src\misc/lv_fs.c ****         file_p->cache->end = UINT32_MAX - 1;
 1272              		.loc 1 98 0
 1273 005a B368     		ldr	r3, [r6, #8]
 1274 005c 0122     		movs	r2, #1
 1275 005e 5242     		rsbs	r2, r2, #0
 1276 0060 1A60     		str	r2, [r3]
  99:..\..\..\arduinoLCD\test\Pain Drain\libraries\lvgl\src\misc/lv_fs.c ****     }
 1277              		.loc 1 99 0
 1278 0062 B368     		ldr	r3, [r6, #8]
 1279 0064 013A     		subs	r2, r2, #1
 1280 0066 5A60     		str	r2, [r3, #4]
 102:..\..\..\arduinoLCD\test\Pain Drain\libraries\lvgl\src\misc/lv_fs.c **** }
 1281              		.loc 1 102 0
 1282 0068 0020     		movs	r0, #0
 1283 006a 0AE0     		b	.L89
 1284              	.LVL169:
 1285              	.L93:
  61:..\..\..\arduinoLCD\test\Pain Drain\libraries\lvgl\src\misc/lv_fs.c ****     }
 1286              		.loc 1 61 0
 1287 006c 0B20     		movs	r0, #11
 1288              	.LVL170:
 1289 006e 08E0     		b	.L89
 1290              	.LVL171:
 1291              	.L94:
  69:..\..\..\arduinoLCD\test\Pain Drain\libraries\lvgl\src\misc/lv_fs.c ****     }
 1292              		.loc 1 69 0
ARM GAS  C:\Users\haske\AppData\Local\Temp\cc4gWNdf.s 			page 36


 1293 0070 0320     		movs	r0, #3
 1294              	.LVL172:
 1295 0072 06E0     		b	.L89
 1296              	.L95:
  75:..\..\..\arduinoLCD\test\Pain Drain\libraries\lvgl\src\misc/lv_fs.c ****         }
 1297              		.loc 1 75 0
 1298 0074 0120     		movs	r0, #1
 1299 0076 04E0     		b	.L89
 1300              	.L96:
  81:..\..\..\arduinoLCD\test\Pain Drain\libraries\lvgl\src\misc/lv_fs.c ****     }
 1301              		.loc 1 81 0
 1302 0078 0920     		movs	r0, #9
 1303 007a 02E0     		b	.L89
 1304              	.LVL173:
 1305              	.L97:
  88:..\..\..\arduinoLCD\test\Pain Drain\libraries\lvgl\src\misc/lv_fs.c ****     }
 1306              		.loc 1 88 0
 1307 007c 0C20     		movs	r0, #12
 1308              	.LVL174:
 1309 007e 00E0     		b	.L89
 1310              	.LVL175:
 1311              	.L98:
 102:..\..\..\arduinoLCD\test\Pain Drain\libraries\lvgl\src\misc/lv_fs.c **** }
 1312              		.loc 1 102 0
 1313 0080 0020     		movs	r0, #0
 1314              	.LVL176:
 1315              	.L89:
 103:..\..\..\arduinoLCD\test\Pain Drain\libraries\lvgl\src\misc/lv_fs.c **** 
 1316              		.loc 1 103 0
 1317 0082 03B0     		add	sp, sp, #12
 1318              		@ sp needed
 1319              	.LVL177:
 1320              	.LVL178:
 1321 0084 F0BD     		pop	{r4, r5, r6, r7, pc}
 1322              		.cfi_endproc
 1323              	.LFE26:
 1324              		.size	lv_fs_open, .-lv_fs_open
 1325 0086 C046     		.section	.text.lv_fs_dir_open,"ax",%progbits
 1326              		.align	2
 1327              		.global	lv_fs_dir_open
 1328              		.code	16
 1329              		.thumb_func
 1330              		.type	lv_fs_dir_open, %function
 1331              	lv_fs_dir_open:
 1332              	.LFB33:
 325:..\..\..\arduinoLCD\test\Pain Drain\libraries\lvgl\src\misc/lv_fs.c ****     if(path == NULL) return LV_FS_RES_INV_PARAM;
 1333              		.loc 1 325 0
 1334              		.cfi_startproc
 1335              		@ args = 0, pretend = 0, frame = 0
 1336              		@ frame_needed = 0, uses_anonymous_args = 0
 1337              	.LVL179:
 1338 0000 F8B5     		push	{r3, r4, r5, r6, r7, lr}
 1339              		.cfi_def_cfa_offset 24
 1340              		.cfi_offset 3, -24
 1341              		.cfi_offset 4, -20
 1342              		.cfi_offset 5, -16
 1343              		.cfi_offset 6, -12
ARM GAS  C:\Users\haske\AppData\Local\Temp\cc4gWNdf.s 			page 37


 1344              		.cfi_offset 7, -8
 1345              		.cfi_offset 14, -4
 1346 0002 0600     		movs	r6, r0
 1347 0004 0C1E     		subs	r4, r1, #0
 326:..\..\..\arduinoLCD\test\Pain Drain\libraries\lvgl\src\misc/lv_fs.c **** 
 1348              		.loc 1 326 0
 1349 0006 1AD0     		beq	.L102
 328:..\..\..\arduinoLCD\test\Pain Drain\libraries\lvgl\src\misc/lv_fs.c ****     lv_fs_drv_t * drv = lv_fs_get_drv(letter);
 1350              		.loc 1 328 0
 1351 0008 0878     		ldrb	r0, [r1]
 1352              	.LVL180:
 329:..\..\..\arduinoLCD\test\Pain Drain\libraries\lvgl\src\misc/lv_fs.c **** 
 1353              		.loc 1 329 0
 1354 000a FFF7FEFF 		bl	lv_fs_get_drv
 1355              	.LVL181:
 1356 000e 051E     		subs	r5, r0, #0
 1357              	.LVL182:
 331:..\..\..\arduinoLCD\test\Pain Drain\libraries\lvgl\src\misc/lv_fs.c ****         return LV_FS_RES_NOT_EX;
 1358              		.loc 1 331 0
 1359 0010 17D0     		beq	.L103
 335:..\..\..\arduinoLCD\test\Pain Drain\libraries\lvgl\src\misc/lv_fs.c ****         if(drv->ready_cb(drv) == false) {
 1360              		.loc 1 335 0
 1361 0012 4368     		ldr	r3, [r0, #4]
 1362 0014 002B     		cmp	r3, #0
 1363 0016 02D0     		beq	.L101
 336:..\..\..\arduinoLCD\test\Pain Drain\libraries\lvgl\src\misc/lv_fs.c ****             return LV_FS_RES_HW_ERR;
 1364              		.loc 1 336 0
 1365 0018 9847     		blx	r3
 1366              	.LVL183:
 1367 001a 0028     		cmp	r0, #0
 1368 001c 13D0     		beq	.L104
 1369              	.L101:
 341:..\..\..\arduinoLCD\test\Pain Drain\libraries\lvgl\src\misc/lv_fs.c ****         return LV_FS_RES_NOT_IMP;
 1370              		.loc 1 341 0
 1371 001e 2F6A     		ldr	r7, [r5, #32]
 1372 0020 002F     		cmp	r7, #0
 1373 0022 12D0     		beq	.L105
 345:..\..\..\arduinoLCD\test\Pain Drain\libraries\lvgl\src\misc/lv_fs.c ****     void * dir_d = drv->dir_open_cb(drv, real_path);
 1374              		.loc 1 345 0
 1375 0024 2000     		movs	r0, r4
 1376 0026 FFF7FEFF 		bl	lv_fs_get_real_path
 1377              	.LVL184:
 1378 002a 0100     		movs	r1, r0
 1379              	.LVL185:
 346:..\..\..\arduinoLCD\test\Pain Drain\libraries\lvgl\src\misc/lv_fs.c **** 
 1380              		.loc 1 346 0
 1381 002c 2800     		movs	r0, r5
 1382              	.LVL186:
 1383 002e B847     		blx	r7
 1384              	.LVL187:
 348:..\..\..\arduinoLCD\test\Pain Drain\libraries\lvgl\src\misc/lv_fs.c ****         return LV_FS_RES_UNKNOWN;
 1385              		.loc 1 348 0
 1386 0030 431E     		subs	r3, r0, #1
 1387 0032 0333     		adds	r3, r3, #3
 1388 0034 0BD8     		bhi	.L106
 352:..\..\..\arduinoLCD\test\Pain Drain\libraries\lvgl\src\misc/lv_fs.c ****     rddir_p->dir_d = dir_d;
 1389              		.loc 1 352 0
ARM GAS  C:\Users\haske\AppData\Local\Temp\cc4gWNdf.s 			page 38


 1390 0036 7560     		str	r5, [r6, #4]
 353:..\..\..\arduinoLCD\test\Pain Drain\libraries\lvgl\src\misc/lv_fs.c **** 
 1391              		.loc 1 353 0
 1392 0038 3060     		str	r0, [r6]
 355:..\..\..\arduinoLCD\test\Pain Drain\libraries\lvgl\src\misc/lv_fs.c **** }
 1393              		.loc 1 355 0
 1394 003a 0020     		movs	r0, #0
 1395              	.LVL188:
 1396 003c 08E0     		b	.L100
 1397              	.LVL189:
 1398              	.L102:
 326:..\..\..\arduinoLCD\test\Pain Drain\libraries\lvgl\src\misc/lv_fs.c **** 
 1399              		.loc 1 326 0
 1400 003e 0B20     		movs	r0, #11
 1401              	.LVL190:
 1402 0040 06E0     		b	.L100
 1403              	.LVL191:
 1404              	.L103:
 332:..\..\..\arduinoLCD\test\Pain Drain\libraries\lvgl\src\misc/lv_fs.c ****     }
 1405              		.loc 1 332 0
 1406 0042 0320     		movs	r0, #3
 1407              	.LVL192:
 1408 0044 04E0     		b	.L100
 1409              	.L104:
 337:..\..\..\arduinoLCD\test\Pain Drain\libraries\lvgl\src\misc/lv_fs.c ****         }
 1410              		.loc 1 337 0
 1411 0046 0120     		movs	r0, #1
 1412 0048 02E0     		b	.L100
 1413              	.L105:
 342:..\..\..\arduinoLCD\test\Pain Drain\libraries\lvgl\src\misc/lv_fs.c ****     }
 1414              		.loc 1 342 0
 1415 004a 0920     		movs	r0, #9
 1416 004c 00E0     		b	.L100
 1417              	.LVL193:
 1418              	.L106:
 349:..\..\..\arduinoLCD\test\Pain Drain\libraries\lvgl\src\misc/lv_fs.c ****     }
 1419              		.loc 1 349 0
 1420 004e 0C20     		movs	r0, #12
 1421              	.LVL194:
 1422              	.L100:
 356:..\..\..\arduinoLCD\test\Pain Drain\libraries\lvgl\src\misc/lv_fs.c **** 
 1423              		.loc 1 356 0
 1424              		@ sp needed
 1425              	.LVL195:
 1426              	.LVL196:
 1427 0050 F8BD     		pop	{r3, r4, r5, r6, r7, pc}
 1428              		.cfi_endproc
 1429              	.LFE33:
 1430              		.size	lv_fs_dir_open, .-lv_fs_dir_open
 1431 0052 C046     		.section	.text.lv_fs_get_letters,"ax",%progbits
 1432              		.align	2
 1433              		.global	lv_fs_get_letters
 1434              		.code	16
 1435              		.thumb_func
 1436              		.type	lv_fs_get_letters, %function
 1437              	lv_fs_get_letters:
 1438              	.LFB39:
ARM GAS  C:\Users\haske\AppData\Local\Temp\cc4gWNdf.s 			page 39


 423:..\..\..\arduinoLCD\test\Pain Drain\libraries\lvgl\src\misc/lv_fs.c ****     lv_fs_drv_t ** drv;
 1439              		.loc 1 423 0
 1440              		.cfi_startproc
 1441              		@ args = 0, pretend = 0, frame = 0
 1442              		@ frame_needed = 0, uses_anonymous_args = 0
 1443              	.LVL197:
 1444 0000 70B5     		push	{r4, r5, r6, lr}
 1445              		.cfi_def_cfa_offset 16
 1446              		.cfi_offset 4, -16
 1447              		.cfi_offset 5, -12
 1448              		.cfi_offset 6, -8
 1449              		.cfi_offset 14, -4
 1450 0002 0500     		movs	r5, r0
 1451              	.LVL198:
 427:..\..\..\arduinoLCD\test\Pain Drain\libraries\lvgl\src\misc/lv_fs.c ****         buf[i] = (*drv)->letter;
 1452              		.loc 1 427 0
 1453 0004 0A48     		ldr	r0, .L110
 1454              	.LVL199:
 1455 0006 FFF7FEFF 		bl	_lv_ll_get_head
 1456              	.LVL200:
 425:..\..\..\arduinoLCD\test\Pain Drain\libraries\lvgl\src\misc/lv_fs.c **** 
 1457              		.loc 1 425 0
 1458 000a 0024     		movs	r4, #0
 427:..\..\..\arduinoLCD\test\Pain Drain\libraries\lvgl\src\misc/lv_fs.c ****         buf[i] = (*drv)->letter;
 1459              		.loc 1 427 0
 1460 000c 08E0     		b	.L108
 1461              	.LVL201:
 1462              	.L109:
 428:..\..\..\arduinoLCD\test\Pain Drain\libraries\lvgl\src\misc/lv_fs.c ****         i++;
 1463              		.loc 1 428 0 discriminator 3
 1464 000e 0368     		ldr	r3, [r0]
 1465 0010 1B78     		ldrb	r3, [r3]
 1466 0012 2B55     		strb	r3, [r5, r4]
 429:..\..\..\arduinoLCD\test\Pain Drain\libraries\lvgl\src\misc/lv_fs.c ****     }
 1467              		.loc 1 429 0 discriminator 3
 1468 0014 0134     		adds	r4, r4, #1
 1469              	.LVL202:
 1470 0016 E4B2     		uxtb	r4, r4
 1471              	.LVL203:
 427:..\..\..\arduinoLCD\test\Pain Drain\libraries\lvgl\src\misc/lv_fs.c ****         buf[i] = (*drv)->letter;
 1472              		.loc 1 427 0 discriminator 3
 1473 0018 0100     		movs	r1, r0
 1474 001a 0548     		ldr	r0, .L110
 1475              	.LVL204:
 1476 001c FFF7FEFF 		bl	_lv_ll_get_next
 1477              	.LVL205:
 1478              	.L108:
 427:..\..\..\arduinoLCD\test\Pain Drain\libraries\lvgl\src\misc/lv_fs.c ****         buf[i] = (*drv)->letter;
 1479              		.loc 1 427 0 is_stmt 0 discriminator 1
 1480 0020 0028     		cmp	r0, #0
 1481 0022 F4D1     		bne	.L109
 432:..\..\..\arduinoLCD\test\Pain Drain\libraries\lvgl\src\misc/lv_fs.c **** 
 1482              		.loc 1 432 0 is_stmt 1
 1483 0024 2C19     		adds	r4, r5, r4
 1484              	.LVL206:
 1485 0026 0023     		movs	r3, #0
 1486 0028 2370     		strb	r3, [r4]
ARM GAS  C:\Users\haske\AppData\Local\Temp\cc4gWNdf.s 			page 40


 435:..\..\..\arduinoLCD\test\Pain Drain\libraries\lvgl\src\misc/lv_fs.c **** 
 1487              		.loc 1 435 0
 1488 002a 2800     		movs	r0, r5
 1489              	.LVL207:
 1490              		@ sp needed
 1491              	.LVL208:
 1492 002c 70BD     		pop	{r4, r5, r6, pc}
 1493              	.L111:
 1494 002e C046     		.align	2
 1495              	.L110:
 1496 0030 00000000 		.word	_lv_fsdrv_ll
 1497              		.cfi_endproc
 1498              	.LFE39:
 1499              		.size	lv_fs_get_letters, .-lv_fs_get_letters
 1500              		.section	.text.lv_fs_get_ext,"ax",%progbits
 1501              		.align	2
 1502              		.global	lv_fs_get_ext
 1503              		.code	16
 1504              		.thumb_func
 1505              		.type	lv_fs_get_ext, %function
 1506              	lv_fs_get_ext:
 1507              	.LFB40:
 438:..\..\..\arduinoLCD\test\Pain Drain\libraries\lvgl\src\misc/lv_fs.c ****     size_t i;
 1508              		.loc 1 438 0
 1509              		.cfi_startproc
 1510              		@ args = 0, pretend = 0, frame = 0
 1511              		@ frame_needed = 0, uses_anonymous_args = 0
 1512              	.LVL209:
 1513 0000 10B5     		push	{r4, lr}
 1514              		.cfi_def_cfa_offset 8
 1515              		.cfi_offset 4, -8
 1516              		.cfi_offset 14, -4
 1517 0002 0400     		movs	r4, r0
 440:..\..\..\arduinoLCD\test\Pain Drain\libraries\lvgl\src\misc/lv_fs.c ****         if(fn[i] == '.') {
 1518              		.loc 1 440 0
 1519 0004 FFF7FEFF 		bl	strlen
 1520              	.LVL210:
 1521 0008 0AE0     		b	.L113
 1522              	.L116:
 441:..\..\..\arduinoLCD\test\Pain Drain\libraries\lvgl\src\misc/lv_fs.c ****             return &fn[i + 1];
 1523              		.loc 1 441 0
 1524 000a 235C     		ldrb	r3, [r4, r0]
 1525 000c 2E2B     		cmp	r3, #46
 1526 000e 02D1     		bne	.L114
 442:..\..\..\arduinoLCD\test\Pain Drain\libraries\lvgl\src\misc/lv_fs.c ****         }
 1527              		.loc 1 442 0
 1528 0010 0130     		adds	r0, r0, #1
 1529              	.LVL211:
 1530 0012 2018     		adds	r0, r4, r0
 1531              	.LVL212:
 1532 0014 0BE0     		b	.L115
 1533              	.LVL213:
 1534              	.L114:
 444:..\..\..\arduinoLCD\test\Pain Drain\libraries\lvgl\src\misc/lv_fs.c ****             return ""; /*No extension if a '\' or '/' found*/
 1535              		.loc 1 444 0
 1536 0016 2F2B     		cmp	r3, #47
 1537 0018 06D0     		beq	.L117
ARM GAS  C:\Users\haske\AppData\Local\Temp\cc4gWNdf.s 			page 41


 444:..\..\..\arduinoLCD\test\Pain Drain\libraries\lvgl\src\misc/lv_fs.c ****             return ""; /*No extension if a '\' or '/' found*/
 1538              		.loc 1 444 0 is_stmt 0 discriminator 1
 1539 001a 5C2B     		cmp	r3, #92
 1540 001c 06D0     		beq	.L118
 440:..\..\..\arduinoLCD\test\Pain Drain\libraries\lvgl\src\misc/lv_fs.c ****         if(fn[i] == '.') {
 1541              		.loc 1 440 0 is_stmt 1 discriminator 2
 1542 001e 0138     		subs	r0, r0, #1
 1543              	.LVL214:
 1544              	.L113:
 440:..\..\..\arduinoLCD\test\Pain Drain\libraries\lvgl\src\misc/lv_fs.c ****         if(fn[i] == '.') {
 1545              		.loc 1 440 0 is_stmt 0 discriminator 1
 1546 0020 0028     		cmp	r0, #0
 1547 0022 F2D1     		bne	.L116
 449:..\..\..\arduinoLCD\test\Pain Drain\libraries\lvgl\src\misc/lv_fs.c **** }
 1548              		.loc 1 449 0 is_stmt 1
 1549 0024 0248     		ldr	r0, .L119
 1550              	.LVL215:
 1551 0026 02E0     		b	.L115
 1552              	.LVL216:
 1553              	.L117:
 445:..\..\..\arduinoLCD\test\Pain Drain\libraries\lvgl\src\misc/lv_fs.c ****         }
 1554              		.loc 1 445 0
 1555 0028 0148     		ldr	r0, .L119
 1556              	.LVL217:
 1557 002a 00E0     		b	.L115
 1558              	.LVL218:
 1559              	.L118:
 1560 002c 0048     		ldr	r0, .L119
 1561              	.LVL219:
 1562              	.L115:
 450:..\..\..\arduinoLCD\test\Pain Drain\libraries\lvgl\src\misc/lv_fs.c **** 
 1563              		.loc 1 450 0
 1564              		@ sp needed
 1565              	.LVL220:
 1566 002e 10BD     		pop	{r4, pc}
 1567              	.L120:
 1568              		.align	2
 1569              	.L119:
 1570 0030 00000000 		.word	.LC4
 1571              		.cfi_endproc
 1572              	.LFE40:
 1573              		.size	lv_fs_get_ext, .-lv_fs_get_ext
 1574              		.section	.text.lv_fs_up,"ax",%progbits
 1575              		.align	2
 1576              		.global	lv_fs_up
 1577              		.code	16
 1578              		.thumb_func
 1579              		.type	lv_fs_up, %function
 1580              	lv_fs_up:
 1581              	.LFB41:
 453:..\..\..\arduinoLCD\test\Pain Drain\libraries\lvgl\src\misc/lv_fs.c ****     size_t len = strlen(path);
 1582              		.loc 1 453 0
 1583              		.cfi_startproc
 1584              		@ args = 0, pretend = 0, frame = 0
 1585              		@ frame_needed = 0, uses_anonymous_args = 0
 1586              	.LVL221:
 1587 0000 10B5     		push	{r4, lr}
ARM GAS  C:\Users\haske\AppData\Local\Temp\cc4gWNdf.s 			page 42


 1588              		.cfi_def_cfa_offset 8
 1589              		.cfi_offset 4, -8
 1590              		.cfi_offset 14, -4
 1591 0002 0400     		movs	r4, r0
 454:..\..\..\arduinoLCD\test\Pain Drain\libraries\lvgl\src\misc/lv_fs.c ****     if(len == 0) return path;
 1592              		.loc 1 454 0
 1593 0004 FFF7FEFF 		bl	strlen
 1594              	.LVL222:
 455:..\..\..\arduinoLCD\test\Pain Drain\libraries\lvgl\src\misc/lv_fs.c **** 
 1595              		.loc 1 455 0
 1596 0008 0028     		cmp	r0, #0
 1597 000a 1AD0     		beq	.L122
 457:..\..\..\arduinoLCD\test\Pain Drain\libraries\lvgl\src\misc/lv_fs.c **** 
 1598              		.loc 1 457 0
 1599 000c 0138     		subs	r0, r0, #1
 1600              	.LVL223:
 460:..\..\..\arduinoLCD\test\Pain Drain\libraries\lvgl\src\misc/lv_fs.c ****         path[len] = '\0';
 1601              		.loc 1 460 0
 1602 000e 04E0     		b	.L123
 1603              	.L124:
 461:..\..\..\arduinoLCD\test\Pain Drain\libraries\lvgl\src\misc/lv_fs.c ****         if(len > 0)
 1604              		.loc 1 461 0
 1605 0010 0022     		movs	r2, #0
 1606 0012 1A70     		strb	r2, [r3]
 462:..\..\..\arduinoLCD\test\Pain Drain\libraries\lvgl\src\misc/lv_fs.c ****             len--;
 1607              		.loc 1 462 0
 1608 0014 0028     		cmp	r0, #0
 1609 0016 14D0     		beq	.L122
 463:..\..\..\arduinoLCD\test\Pain Drain\libraries\lvgl\src\misc/lv_fs.c ****         else
 1610              		.loc 1 463 0
 1611 0018 0138     		subs	r0, r0, #1
 1612              	.LVL224:
 1613              	.L123:
 460:..\..\..\arduinoLCD\test\Pain Drain\libraries\lvgl\src\misc/lv_fs.c ****         path[len] = '\0';
 1614              		.loc 1 460 0
 1615 001a 2318     		adds	r3, r4, r0
 1616 001c 1A78     		ldrb	r2, [r3]
 1617 001e 2F2A     		cmp	r2, #47
 1618 0020 F6D0     		beq	.L124
 460:..\..\..\arduinoLCD\test\Pain Drain\libraries\lvgl\src\misc/lv_fs.c ****         path[len] = '\0';
 1619              		.loc 1 460 0 is_stmt 0 discriminator 1
 1620 0022 5C2A     		cmp	r2, #92
 1621 0024 F4D0     		beq	.L124
 1622 0026 05E0     		b	.L125
 1623              	.LVL225:
 1624              	.L127:
 470:..\..\..\arduinoLCD\test\Pain Drain\libraries\lvgl\src\misc/lv_fs.c ****     }
 1625              		.loc 1 470 0 is_stmt 1
 1626 0028 235C     		ldrb	r3, [r4, r0]
 1627 002a 2F2B     		cmp	r3, #47
 1628 002c 04D0     		beq	.L126
 470:..\..\..\arduinoLCD\test\Pain Drain\libraries\lvgl\src\misc/lv_fs.c ****     }
 1629              		.loc 1 470 0 is_stmt 0 discriminator 1
 1630 002e 5C2B     		cmp	r3, #92
 1631 0030 02D0     		beq	.L126
 469:..\..\..\arduinoLCD\test\Pain Drain\libraries\lvgl\src\misc/lv_fs.c ****         if(path[i] == '/' || path[i] == '\\') break;
 1632              		.loc 1 469 0 is_stmt 1 discriminator 2
ARM GAS  C:\Users\haske\AppData\Local\Temp\cc4gWNdf.s 			page 43


 1633 0032 0138     		subs	r0, r0, #1
 1634              	.LVL226:
 1635              	.L125:
 469:..\..\..\arduinoLCD\test\Pain Drain\libraries\lvgl\src\misc/lv_fs.c ****         if(path[i] == '/' || path[i] == '\\') break;
 1636              		.loc 1 469 0 is_stmt 0 discriminator 1
 1637 0034 0028     		cmp	r0, #0
 1638 0036 F7D1     		bne	.L127
 1639              	.L126:
 473:..\..\..\arduinoLCD\test\Pain Drain\libraries\lvgl\src\misc/lv_fs.c **** 
 1640              		.loc 1 473 0 is_stmt 1
 1641 0038 0028     		cmp	r0, #0
 1642 003a 02D0     		beq	.L122
 473:..\..\..\arduinoLCD\test\Pain Drain\libraries\lvgl\src\misc/lv_fs.c **** 
 1643              		.loc 1 473 0 is_stmt 0 discriminator 1
 1644 003c 2018     		adds	r0, r4, r0
 1645              	.LVL227:
 1646 003e 0023     		movs	r3, #0
 1647 0040 0370     		strb	r3, [r0]
 1648              	.L122:
 476:..\..\..\arduinoLCD\test\Pain Drain\libraries\lvgl\src\misc/lv_fs.c **** 
 1649              		.loc 1 476 0 is_stmt 1
 1650 0042 2000     		movs	r0, r4
 1651              		@ sp needed
 1652              	.LVL228:
 1653 0044 10BD     		pop	{r4, pc}
 1654              		.cfi_endproc
 1655              	.LFE41:
 1656              		.size	lv_fs_up, .-lv_fs_up
 1657 0046 C046     		.section	.text.lv_fs_get_last,"ax",%progbits
 1658              		.align	2
 1659              		.global	lv_fs_get_last
 1660              		.code	16
 1661              		.thumb_func
 1662              		.type	lv_fs_get_last, %function
 1663              	lv_fs_get_last:
 1664              	.LFB42:
 479:..\..\..\arduinoLCD\test\Pain Drain\libraries\lvgl\src\misc/lv_fs.c ****     size_t len = strlen(path);
 1665              		.loc 1 479 0
 1666              		.cfi_startproc
 1667              		@ args = 0, pretend = 0, frame = 0
 1668              		@ frame_needed = 0, uses_anonymous_args = 0
 1669              	.LVL229:
 1670 0000 10B5     		push	{r4, lr}
 1671              		.cfi_def_cfa_offset 8
 1672              		.cfi_offset 4, -8
 1673              		.cfi_offset 14, -4
 1674 0002 0400     		movs	r4, r0
 480:..\..\..\arduinoLCD\test\Pain Drain\libraries\lvgl\src\misc/lv_fs.c ****     if(len == 0) return path;
 1675              		.loc 1 480 0
 1676 0004 FFF7FEFF 		bl	strlen
 1677              	.LVL230:
 481:..\..\..\arduinoLCD\test\Pain Drain\libraries\lvgl\src\misc/lv_fs.c **** 
 1678              		.loc 1 481 0
 1679 0008 0028     		cmp	r0, #0
 1680 000a 17D0     		beq	.L135
 483:..\..\..\arduinoLCD\test\Pain Drain\libraries\lvgl\src\misc/lv_fs.c **** 
 1681              		.loc 1 483 0
ARM GAS  C:\Users\haske\AppData\Local\Temp\cc4gWNdf.s 			page 44


 1682 000c 0138     		subs	r0, r0, #1
 1683              	.LVL231:
 486:..\..\..\arduinoLCD\test\Pain Drain\libraries\lvgl\src\misc/lv_fs.c ****         if(len > 0)
 1684              		.loc 1 486 0
 1685 000e 02E0     		b	.L130
 1686              	.L131:
 487:..\..\..\arduinoLCD\test\Pain Drain\libraries\lvgl\src\misc/lv_fs.c ****             len--;
 1687              		.loc 1 487 0
 1688 0010 0028     		cmp	r0, #0
 1689 0012 15D0     		beq	.L136
 488:..\..\..\arduinoLCD\test\Pain Drain\libraries\lvgl\src\misc/lv_fs.c ****         else
 1690              		.loc 1 488 0
 1691 0014 0138     		subs	r0, r0, #1
 1692              	.LVL232:
 1693              	.L130:
 486:..\..\..\arduinoLCD\test\Pain Drain\libraries\lvgl\src\misc/lv_fs.c ****         if(len > 0)
 1694              		.loc 1 486 0
 1695 0016 235C     		ldrb	r3, [r4, r0]
 1696 0018 2F2B     		cmp	r3, #47
 1697 001a F9D0     		beq	.L131
 486:..\..\..\arduinoLCD\test\Pain Drain\libraries\lvgl\src\misc/lv_fs.c ****         if(len > 0)
 1698              		.loc 1 486 0 is_stmt 0 discriminator 1
 1699 001c 5C2B     		cmp	r3, #92
 1700 001e F7D0     		beq	.L131
 1701 0020 05E0     		b	.L132
 1702              	.LVL233:
 1703              	.L134:
 495:..\..\..\arduinoLCD\test\Pain Drain\libraries\lvgl\src\misc/lv_fs.c ****     }
 1704              		.loc 1 495 0 is_stmt 1
 1705 0022 235C     		ldrb	r3, [r4, r0]
 1706 0024 2F2B     		cmp	r3, #47
 1707 0026 04D0     		beq	.L133
 495:..\..\..\arduinoLCD\test\Pain Drain\libraries\lvgl\src\misc/lv_fs.c ****     }
 1708              		.loc 1 495 0 is_stmt 0 discriminator 1
 1709 0028 5C2B     		cmp	r3, #92
 1710 002a 02D0     		beq	.L133
 494:..\..\..\arduinoLCD\test\Pain Drain\libraries\lvgl\src\misc/lv_fs.c ****         if(path[i] == '/' || path[i] == '\\') break;
 1711              		.loc 1 494 0 is_stmt 1 discriminator 2
 1712 002c 0138     		subs	r0, r0, #1
 1713              	.LVL234:
 1714              	.L132:
 494:..\..\..\arduinoLCD\test\Pain Drain\libraries\lvgl\src\misc/lv_fs.c ****         if(path[i] == '/' || path[i] == '\\') break;
 1715              		.loc 1 494 0 is_stmt 0 discriminator 1
 1716 002e 0028     		cmp	r0, #0
 1717 0030 F7D1     		bne	.L134
 1718              	.L133:
 499:..\..\..\arduinoLCD\test\Pain Drain\libraries\lvgl\src\misc/lv_fs.c **** 
 1719              		.loc 1 499 0 is_stmt 1
 1720 0032 0028     		cmp	r0, #0
 1721 0034 06D0     		beq	.L137
 501:..\..\..\arduinoLCD\test\Pain Drain\libraries\lvgl\src\misc/lv_fs.c **** }
 1722              		.loc 1 501 0
 1723 0036 0130     		adds	r0, r0, #1
 1724              	.LVL235:
 1725 0038 2018     		adds	r0, r4, r0
 1726              	.LVL236:
 1727 003a 04E0     		b	.L129
ARM GAS  C:\Users\haske\AppData\Local\Temp\cc4gWNdf.s 			page 45


 1728              	.LVL237:
 1729              	.L135:
 481:..\..\..\arduinoLCD\test\Pain Drain\libraries\lvgl\src\misc/lv_fs.c **** 
 1730              		.loc 1 481 0
 1731 003c 2000     		movs	r0, r4
 1732              	.LVL238:
 1733 003e 02E0     		b	.L129
 1734              	.LVL239:
 1735              	.L136:
 490:..\..\..\arduinoLCD\test\Pain Drain\libraries\lvgl\src\misc/lv_fs.c ****     }
 1736              		.loc 1 490 0
 1737 0040 2000     		movs	r0, r4
 1738              	.LVL240:
 1739 0042 00E0     		b	.L129
 1740              	.LVL241:
 1741              	.L137:
 499:..\..\..\arduinoLCD\test\Pain Drain\libraries\lvgl\src\misc/lv_fs.c **** 
 1742              		.loc 1 499 0
 1743 0044 2000     		movs	r0, r4
 1744              	.LVL242:
 1745              	.L129:
 502:..\..\..\arduinoLCD\test\Pain Drain\libraries\lvgl\src\misc/lv_fs.c **** /**********************
 1746              		.loc 1 502 0
 1747              		@ sp needed
 1748              	.LVL243:
 1749 0046 10BD     		pop	{r4, pc}
 1750              		.cfi_endproc
 1751              	.LFE42:
 1752              		.size	lv_fs_get_last, .-lv_fs_get_last
 1753              		.section	.rodata.str1.4,"aMS",%progbits,1
 1754              		.align	2
 1755              	.LC4:
 1756 0000 00       		.ascii	"\000"
 1757              		.text
 1758              	.Letext0:
 1759              		.file 2 "c:\\program files (x86)\\cypress\\psoc creator\\4.4\\psoc creator\\import\\gnu\\arm\\5.4.
 1760              		.file 3 "c:\\program files (x86)\\cypress\\psoc creator\\4.4\\psoc creator\\import\\gnu\\arm\\5.4.
 1761              		.file 4 "..\\..\\..\\arduinoLCD\\test\\Pain Drain\\libraries\\lvgl\\src\\misc\\lv_fs.h"
 1762              		.file 5 "c:\\program files (x86)\\cypress\\psoc creator\\4.4\\psoc creator\\import\\gnu\\arm\\5.4.
 1763              		.file 6 "..\\..\\..\\arduinoLCD\\test\\Pain Drain\\libraries\\lvgl\\src\\misc\\lv_ll.h"
 1764              		.file 7 "..\\..\\..\\arduinoLCD\\test\\Pain Drain\\libraries\\lvgl\\src\\misc\\../misc/lv_mem.h"
 1765              		.file 8 "c:\\program files (x86)\\cypress\\psoc creator\\4.4\\psoc creator\\import\\gnu\\arm\\5.4.
 1766              		.file 9 "..\\..\\..\\arduinoLCD\\test\\Pain Drain\\libraries\\lvgl\\src\\misc\\lv_gc.h"