ARM GAS  C:\Users\haske\AppData\Local\Temp\cc5ISl1k.s 			page 1


   1              		.syntax unified
   2              		.cpu cortex-m0plus
   3              		.fpu softvfp
   4              		.eabi_attribute 20, 1
   5              		.eabi_attribute 21, 1
   6              		.eabi_attribute 23, 3
   7              		.eabi_attribute 24, 1
   8              		.eabi_attribute 25, 1
   9              		.eabi_attribute 26, 1
  10              		.eabi_attribute 30, 1
  11              		.eabi_attribute 34, 0
  12              		.eabi_attribute 18, 4
  13              		.thumb
  14              		.syntax unified
  15              		.file	"lv_font_loader.c"
  16              		.text
  17              	.Ltext0:
  18              		.cfi_sections	.debug_frame
  19              		.section	.text.init_bit_iterator,"ax",%progbits
  20              		.align	2
  21              		.code	16
  22              		.thumb_func
  23              		.type	init_bit_iterator, %function
  24              	init_bit_iterator:
  25              	.LFB204:
  26              		.file 1 "..\\..\\..\\arduinoLCD\\test\\Pain Drain\\libraries\\lvgl\\src\\font\\lv_font_loader.c"
   1:..\..\..\arduinoLCD\test\Pain Drain\libraries\lvgl\src\font/lv_font_loader.c **** /**
   2:..\..\..\arduinoLCD\test\Pain Drain\libraries\lvgl\src\font/lv_font_loader.c ****  * @file lv_font_loader.c
   3:..\..\..\arduinoLCD\test\Pain Drain\libraries\lvgl\src\font/lv_font_loader.c ****  *
   4:..\..\..\arduinoLCD\test\Pain Drain\libraries\lvgl\src\font/lv_font_loader.c ****  */
   5:..\..\..\arduinoLCD\test\Pain Drain\libraries\lvgl\src\font/lv_font_loader.c **** 
   6:..\..\..\arduinoLCD\test\Pain Drain\libraries\lvgl\src\font/lv_font_loader.c **** /*********************
   7:..\..\..\arduinoLCD\test\Pain Drain\libraries\lvgl\src\font/lv_font_loader.c ****  *      INCLUDES
   8:..\..\..\arduinoLCD\test\Pain Drain\libraries\lvgl\src\font/lv_font_loader.c ****  *********************/
   9:..\..\..\arduinoLCD\test\Pain Drain\libraries\lvgl\src\font/lv_font_loader.c **** 
  10:..\..\..\arduinoLCD\test\Pain Drain\libraries\lvgl\src\font/lv_font_loader.c **** #include <stdint.h>
  11:..\..\..\arduinoLCD\test\Pain Drain\libraries\lvgl\src\font/lv_font_loader.c **** #include <stdbool.h>
  12:..\..\..\arduinoLCD\test\Pain Drain\libraries\lvgl\src\font/lv_font_loader.c **** 
  13:..\..\..\arduinoLCD\test\Pain Drain\libraries\lvgl\src\font/lv_font_loader.c **** #include "../lvgl.h"
  14:..\..\..\arduinoLCD\test\Pain Drain\libraries\lvgl\src\font/lv_font_loader.c **** #include "../misc/lv_fs.h"
  15:..\..\..\arduinoLCD\test\Pain Drain\libraries\lvgl\src\font/lv_font_loader.c **** #include "lv_font_loader.h"
  16:..\..\..\arduinoLCD\test\Pain Drain\libraries\lvgl\src\font/lv_font_loader.c **** 
  17:..\..\..\arduinoLCD\test\Pain Drain\libraries\lvgl\src\font/lv_font_loader.c **** /**********************
  18:..\..\..\arduinoLCD\test\Pain Drain\libraries\lvgl\src\font/lv_font_loader.c ****  *      TYPEDEFS
  19:..\..\..\arduinoLCD\test\Pain Drain\libraries\lvgl\src\font/lv_font_loader.c ****  **********************/
  20:..\..\..\arduinoLCD\test\Pain Drain\libraries\lvgl\src\font/lv_font_loader.c **** typedef struct {
  21:..\..\..\arduinoLCD\test\Pain Drain\libraries\lvgl\src\font/lv_font_loader.c ****     lv_fs_file_t * fp;
  22:..\..\..\arduinoLCD\test\Pain Drain\libraries\lvgl\src\font/lv_font_loader.c ****     int8_t bit_pos;
  23:..\..\..\arduinoLCD\test\Pain Drain\libraries\lvgl\src\font/lv_font_loader.c ****     uint8_t byte_value;
  24:..\..\..\arduinoLCD\test\Pain Drain\libraries\lvgl\src\font/lv_font_loader.c **** } bit_iterator_t;
  25:..\..\..\arduinoLCD\test\Pain Drain\libraries\lvgl\src\font/lv_font_loader.c **** 
  26:..\..\..\arduinoLCD\test\Pain Drain\libraries\lvgl\src\font/lv_font_loader.c **** typedef struct font_header_bin {
  27:..\..\..\arduinoLCD\test\Pain Drain\libraries\lvgl\src\font/lv_font_loader.c ****     uint32_t version;
  28:..\..\..\arduinoLCD\test\Pain Drain\libraries\lvgl\src\font/lv_font_loader.c ****     uint16_t tables_count;
  29:..\..\..\arduinoLCD\test\Pain Drain\libraries\lvgl\src\font/lv_font_loader.c ****     uint16_t font_size;
  30:..\..\..\arduinoLCD\test\Pain Drain\libraries\lvgl\src\font/lv_font_loader.c ****     uint16_t ascent;
  31:..\..\..\arduinoLCD\test\Pain Drain\libraries\lvgl\src\font/lv_font_loader.c ****     int16_t descent;
ARM GAS  C:\Users\haske\AppData\Local\Temp\cc5ISl1k.s 			page 2


  32:..\..\..\arduinoLCD\test\Pain Drain\libraries\lvgl\src\font/lv_font_loader.c ****     uint16_t typo_ascent;
  33:..\..\..\arduinoLCD\test\Pain Drain\libraries\lvgl\src\font/lv_font_loader.c ****     int16_t typo_descent;
  34:..\..\..\arduinoLCD\test\Pain Drain\libraries\lvgl\src\font/lv_font_loader.c ****     uint16_t typo_line_gap;
  35:..\..\..\arduinoLCD\test\Pain Drain\libraries\lvgl\src\font/lv_font_loader.c ****     int16_t min_y;
  36:..\..\..\arduinoLCD\test\Pain Drain\libraries\lvgl\src\font/lv_font_loader.c ****     int16_t max_y;
  37:..\..\..\arduinoLCD\test\Pain Drain\libraries\lvgl\src\font/lv_font_loader.c ****     uint16_t default_advance_width;
  38:..\..\..\arduinoLCD\test\Pain Drain\libraries\lvgl\src\font/lv_font_loader.c ****     uint16_t kerning_scale;
  39:..\..\..\arduinoLCD\test\Pain Drain\libraries\lvgl\src\font/lv_font_loader.c ****     uint8_t index_to_loc_format;
  40:..\..\..\arduinoLCD\test\Pain Drain\libraries\lvgl\src\font/lv_font_loader.c ****     uint8_t glyph_id_format;
  41:..\..\..\arduinoLCD\test\Pain Drain\libraries\lvgl\src\font/lv_font_loader.c ****     uint8_t advance_width_format;
  42:..\..\..\arduinoLCD\test\Pain Drain\libraries\lvgl\src\font/lv_font_loader.c ****     uint8_t bits_per_pixel;
  43:..\..\..\arduinoLCD\test\Pain Drain\libraries\lvgl\src\font/lv_font_loader.c ****     uint8_t xy_bits;
  44:..\..\..\arduinoLCD\test\Pain Drain\libraries\lvgl\src\font/lv_font_loader.c ****     uint8_t wh_bits;
  45:..\..\..\arduinoLCD\test\Pain Drain\libraries\lvgl\src\font/lv_font_loader.c ****     uint8_t advance_width_bits;
  46:..\..\..\arduinoLCD\test\Pain Drain\libraries\lvgl\src\font/lv_font_loader.c ****     uint8_t compression_id;
  47:..\..\..\arduinoLCD\test\Pain Drain\libraries\lvgl\src\font/lv_font_loader.c ****     uint8_t subpixels_mode;
  48:..\..\..\arduinoLCD\test\Pain Drain\libraries\lvgl\src\font/lv_font_loader.c ****     uint8_t padding;
  49:..\..\..\arduinoLCD\test\Pain Drain\libraries\lvgl\src\font/lv_font_loader.c ****     int16_t underline_position;
  50:..\..\..\arduinoLCD\test\Pain Drain\libraries\lvgl\src\font/lv_font_loader.c ****     uint16_t underline_thickness;
  51:..\..\..\arduinoLCD\test\Pain Drain\libraries\lvgl\src\font/lv_font_loader.c **** } font_header_bin_t;
  52:..\..\..\arduinoLCD\test\Pain Drain\libraries\lvgl\src\font/lv_font_loader.c **** 
  53:..\..\..\arduinoLCD\test\Pain Drain\libraries\lvgl\src\font/lv_font_loader.c **** typedef struct cmap_table_bin {
  54:..\..\..\arduinoLCD\test\Pain Drain\libraries\lvgl\src\font/lv_font_loader.c ****     uint32_t data_offset;
  55:..\..\..\arduinoLCD\test\Pain Drain\libraries\lvgl\src\font/lv_font_loader.c ****     uint32_t range_start;
  56:..\..\..\arduinoLCD\test\Pain Drain\libraries\lvgl\src\font/lv_font_loader.c ****     uint16_t range_length;
  57:..\..\..\arduinoLCD\test\Pain Drain\libraries\lvgl\src\font/lv_font_loader.c ****     uint16_t glyph_id_start;
  58:..\..\..\arduinoLCD\test\Pain Drain\libraries\lvgl\src\font/lv_font_loader.c ****     uint16_t data_entries_count;
  59:..\..\..\arduinoLCD\test\Pain Drain\libraries\lvgl\src\font/lv_font_loader.c ****     uint8_t format_type;
  60:..\..\..\arduinoLCD\test\Pain Drain\libraries\lvgl\src\font/lv_font_loader.c ****     uint8_t padding;
  61:..\..\..\arduinoLCD\test\Pain Drain\libraries\lvgl\src\font/lv_font_loader.c **** } cmap_table_bin_t;
  62:..\..\..\arduinoLCD\test\Pain Drain\libraries\lvgl\src\font/lv_font_loader.c **** 
  63:..\..\..\arduinoLCD\test\Pain Drain\libraries\lvgl\src\font/lv_font_loader.c **** /**********************
  64:..\..\..\arduinoLCD\test\Pain Drain\libraries\lvgl\src\font/lv_font_loader.c ****  *  STATIC PROTOTYPES
  65:..\..\..\arduinoLCD\test\Pain Drain\libraries\lvgl\src\font/lv_font_loader.c ****  **********************/
  66:..\..\..\arduinoLCD\test\Pain Drain\libraries\lvgl\src\font/lv_font_loader.c **** static bit_iterator_t init_bit_iterator(lv_fs_file_t * fp);
  67:..\..\..\arduinoLCD\test\Pain Drain\libraries\lvgl\src\font/lv_font_loader.c **** static bool lvgl_load_font(lv_fs_file_t * fp, lv_font_t * font);
  68:..\..\..\arduinoLCD\test\Pain Drain\libraries\lvgl\src\font/lv_font_loader.c **** int32_t load_kern(lv_fs_file_t * fp, lv_font_fmt_txt_dsc_t * font_dsc, uint8_t format, uint32_t sta
  69:..\..\..\arduinoLCD\test\Pain Drain\libraries\lvgl\src\font/lv_font_loader.c **** 
  70:..\..\..\arduinoLCD\test\Pain Drain\libraries\lvgl\src\font/lv_font_loader.c **** static int read_bits_signed(bit_iterator_t * it, int n_bits, lv_fs_res_t * res);
  71:..\..\..\arduinoLCD\test\Pain Drain\libraries\lvgl\src\font/lv_font_loader.c **** static unsigned int read_bits(bit_iterator_t * it, int n_bits, lv_fs_res_t * res);
  72:..\..\..\arduinoLCD\test\Pain Drain\libraries\lvgl\src\font/lv_font_loader.c **** 
  73:..\..\..\arduinoLCD\test\Pain Drain\libraries\lvgl\src\font/lv_font_loader.c **** /**********************
  74:..\..\..\arduinoLCD\test\Pain Drain\libraries\lvgl\src\font/lv_font_loader.c ****  *      MACROS
  75:..\..\..\arduinoLCD\test\Pain Drain\libraries\lvgl\src\font/lv_font_loader.c ****  **********************/
  76:..\..\..\arduinoLCD\test\Pain Drain\libraries\lvgl\src\font/lv_font_loader.c **** 
  77:..\..\..\arduinoLCD\test\Pain Drain\libraries\lvgl\src\font/lv_font_loader.c **** /**********************
  78:..\..\..\arduinoLCD\test\Pain Drain\libraries\lvgl\src\font/lv_font_loader.c ****  *   GLOBAL FUNCTIONS
  79:..\..\..\arduinoLCD\test\Pain Drain\libraries\lvgl\src\font/lv_font_loader.c ****  **********************/
  80:..\..\..\arduinoLCD\test\Pain Drain\libraries\lvgl\src\font/lv_font_loader.c **** 
  81:..\..\..\arduinoLCD\test\Pain Drain\libraries\lvgl\src\font/lv_font_loader.c **** /**
  82:..\..\..\arduinoLCD\test\Pain Drain\libraries\lvgl\src\font/lv_font_loader.c ****  * Loads a `lv_font_t` object from a binary font file
  83:..\..\..\arduinoLCD\test\Pain Drain\libraries\lvgl\src\font/lv_font_loader.c ****  * @param font_name filename where the font file is located
  84:..\..\..\arduinoLCD\test\Pain Drain\libraries\lvgl\src\font/lv_font_loader.c ****  * @return a pointer to the font or NULL in case of error
  85:..\..\..\arduinoLCD\test\Pain Drain\libraries\lvgl\src\font/lv_font_loader.c ****  */
  86:..\..\..\arduinoLCD\test\Pain Drain\libraries\lvgl\src\font/lv_font_loader.c **** lv_font_t * lv_font_load(const char * font_name)
  87:..\..\..\arduinoLCD\test\Pain Drain\libraries\lvgl\src\font/lv_font_loader.c **** {
  88:..\..\..\arduinoLCD\test\Pain Drain\libraries\lvgl\src\font/lv_font_loader.c ****     lv_fs_file_t file;
ARM GAS  C:\Users\haske\AppData\Local\Temp\cc5ISl1k.s 			page 3


  89:..\..\..\arduinoLCD\test\Pain Drain\libraries\lvgl\src\font/lv_font_loader.c ****     lv_fs_res_t res = lv_fs_open(&file, font_name, LV_FS_MODE_RD);
  90:..\..\..\arduinoLCD\test\Pain Drain\libraries\lvgl\src\font/lv_font_loader.c ****     if(res != LV_FS_RES_OK)
  91:..\..\..\arduinoLCD\test\Pain Drain\libraries\lvgl\src\font/lv_font_loader.c ****         return NULL;
  92:..\..\..\arduinoLCD\test\Pain Drain\libraries\lvgl\src\font/lv_font_loader.c **** 
  93:..\..\..\arduinoLCD\test\Pain Drain\libraries\lvgl\src\font/lv_font_loader.c ****     lv_font_t * font = lv_mem_alloc(sizeof(lv_font_t));
  94:..\..\..\arduinoLCD\test\Pain Drain\libraries\lvgl\src\font/lv_font_loader.c ****     if(font) {
  95:..\..\..\arduinoLCD\test\Pain Drain\libraries\lvgl\src\font/lv_font_loader.c ****         memset(font, 0, sizeof(lv_font_t));
  96:..\..\..\arduinoLCD\test\Pain Drain\libraries\lvgl\src\font/lv_font_loader.c ****         if(!lvgl_load_font(&file, font)) {
  97:..\..\..\arduinoLCD\test\Pain Drain\libraries\lvgl\src\font/lv_font_loader.c ****             LV_LOG_WARN("Error loading font file: %s\n", font_name);
  98:..\..\..\arduinoLCD\test\Pain Drain\libraries\lvgl\src\font/lv_font_loader.c ****             /*
  99:..\..\..\arduinoLCD\test\Pain Drain\libraries\lvgl\src\font/lv_font_loader.c ****             * When `lvgl_load_font` fails it can leak some pointers.
 100:..\..\..\arduinoLCD\test\Pain Drain\libraries\lvgl\src\font/lv_font_loader.c ****             * All non-null pointers can be assumed as allocated and
 101:..\..\..\arduinoLCD\test\Pain Drain\libraries\lvgl\src\font/lv_font_loader.c ****             * `lv_font_free` should free them correctly.
 102:..\..\..\arduinoLCD\test\Pain Drain\libraries\lvgl\src\font/lv_font_loader.c ****             */
 103:..\..\..\arduinoLCD\test\Pain Drain\libraries\lvgl\src\font/lv_font_loader.c ****             lv_font_free(font);
 104:..\..\..\arduinoLCD\test\Pain Drain\libraries\lvgl\src\font/lv_font_loader.c ****             font = NULL;
 105:..\..\..\arduinoLCD\test\Pain Drain\libraries\lvgl\src\font/lv_font_loader.c ****         }
 106:..\..\..\arduinoLCD\test\Pain Drain\libraries\lvgl\src\font/lv_font_loader.c ****     }
 107:..\..\..\arduinoLCD\test\Pain Drain\libraries\lvgl\src\font/lv_font_loader.c **** 
 108:..\..\..\arduinoLCD\test\Pain Drain\libraries\lvgl\src\font/lv_font_loader.c ****     lv_fs_close(&file);
 109:..\..\..\arduinoLCD\test\Pain Drain\libraries\lvgl\src\font/lv_font_loader.c **** 
 110:..\..\..\arduinoLCD\test\Pain Drain\libraries\lvgl\src\font/lv_font_loader.c ****     return font;
 111:..\..\..\arduinoLCD\test\Pain Drain\libraries\lvgl\src\font/lv_font_loader.c **** }
 112:..\..\..\arduinoLCD\test\Pain Drain\libraries\lvgl\src\font/lv_font_loader.c **** 
 113:..\..\..\arduinoLCD\test\Pain Drain\libraries\lvgl\src\font/lv_font_loader.c **** /**
 114:..\..\..\arduinoLCD\test\Pain Drain\libraries\lvgl\src\font/lv_font_loader.c ****  * Frees the memory allocated by the `lv_font_load()` function
 115:..\..\..\arduinoLCD\test\Pain Drain\libraries\lvgl\src\font/lv_font_loader.c ****  * @param font lv_font_t object created by the lv_font_load function
 116:..\..\..\arduinoLCD\test\Pain Drain\libraries\lvgl\src\font/lv_font_loader.c ****  */
 117:..\..\..\arduinoLCD\test\Pain Drain\libraries\lvgl\src\font/lv_font_loader.c **** void lv_font_free(lv_font_t * font)
 118:..\..\..\arduinoLCD\test\Pain Drain\libraries\lvgl\src\font/lv_font_loader.c **** {
 119:..\..\..\arduinoLCD\test\Pain Drain\libraries\lvgl\src\font/lv_font_loader.c ****     if(NULL != font) {
 120:..\..\..\arduinoLCD\test\Pain Drain\libraries\lvgl\src\font/lv_font_loader.c ****         lv_font_fmt_txt_dsc_t * dsc = (lv_font_fmt_txt_dsc_t *)font->dsc;
 121:..\..\..\arduinoLCD\test\Pain Drain\libraries\lvgl\src\font/lv_font_loader.c **** 
 122:..\..\..\arduinoLCD\test\Pain Drain\libraries\lvgl\src\font/lv_font_loader.c ****         if(NULL != dsc) {
 123:..\..\..\arduinoLCD\test\Pain Drain\libraries\lvgl\src\font/lv_font_loader.c **** 
 124:..\..\..\arduinoLCD\test\Pain Drain\libraries\lvgl\src\font/lv_font_loader.c ****             if(dsc->kern_classes == 0) {
 125:..\..\..\arduinoLCD\test\Pain Drain\libraries\lvgl\src\font/lv_font_loader.c ****                 lv_font_fmt_txt_kern_pair_t * kern_dsc =
 126:..\..\..\arduinoLCD\test\Pain Drain\libraries\lvgl\src\font/lv_font_loader.c ****                     (lv_font_fmt_txt_kern_pair_t *)dsc->kern_dsc;
 127:..\..\..\arduinoLCD\test\Pain Drain\libraries\lvgl\src\font/lv_font_loader.c **** 
 128:..\..\..\arduinoLCD\test\Pain Drain\libraries\lvgl\src\font/lv_font_loader.c ****                 if(NULL != kern_dsc) {
 129:..\..\..\arduinoLCD\test\Pain Drain\libraries\lvgl\src\font/lv_font_loader.c ****                     if(kern_dsc->glyph_ids)
 130:..\..\..\arduinoLCD\test\Pain Drain\libraries\lvgl\src\font/lv_font_loader.c ****                         lv_mem_free((void *)kern_dsc->glyph_ids);
 131:..\..\..\arduinoLCD\test\Pain Drain\libraries\lvgl\src\font/lv_font_loader.c **** 
 132:..\..\..\arduinoLCD\test\Pain Drain\libraries\lvgl\src\font/lv_font_loader.c ****                     if(kern_dsc->values)
 133:..\..\..\arduinoLCD\test\Pain Drain\libraries\lvgl\src\font/lv_font_loader.c ****                         lv_mem_free((void *)kern_dsc->values);
 134:..\..\..\arduinoLCD\test\Pain Drain\libraries\lvgl\src\font/lv_font_loader.c **** 
 135:..\..\..\arduinoLCD\test\Pain Drain\libraries\lvgl\src\font/lv_font_loader.c ****                     lv_mem_free((void *)kern_dsc);
 136:..\..\..\arduinoLCD\test\Pain Drain\libraries\lvgl\src\font/lv_font_loader.c ****                 }
 137:..\..\..\arduinoLCD\test\Pain Drain\libraries\lvgl\src\font/lv_font_loader.c ****             }
 138:..\..\..\arduinoLCD\test\Pain Drain\libraries\lvgl\src\font/lv_font_loader.c ****             else {
 139:..\..\..\arduinoLCD\test\Pain Drain\libraries\lvgl\src\font/lv_font_loader.c ****                 lv_font_fmt_txt_kern_classes_t * kern_dsc =
 140:..\..\..\arduinoLCD\test\Pain Drain\libraries\lvgl\src\font/lv_font_loader.c ****                     (lv_font_fmt_txt_kern_classes_t *)dsc->kern_dsc;
 141:..\..\..\arduinoLCD\test\Pain Drain\libraries\lvgl\src\font/lv_font_loader.c **** 
 142:..\..\..\arduinoLCD\test\Pain Drain\libraries\lvgl\src\font/lv_font_loader.c ****                 if(NULL != kern_dsc) {
 143:..\..\..\arduinoLCD\test\Pain Drain\libraries\lvgl\src\font/lv_font_loader.c ****                     if(kern_dsc->class_pair_values)
 144:..\..\..\arduinoLCD\test\Pain Drain\libraries\lvgl\src\font/lv_font_loader.c ****                         lv_mem_free((void *)kern_dsc->class_pair_values);
 145:..\..\..\arduinoLCD\test\Pain Drain\libraries\lvgl\src\font/lv_font_loader.c **** 
ARM GAS  C:\Users\haske\AppData\Local\Temp\cc5ISl1k.s 			page 4


 146:..\..\..\arduinoLCD\test\Pain Drain\libraries\lvgl\src\font/lv_font_loader.c ****                     if(kern_dsc->left_class_mapping)
 147:..\..\..\arduinoLCD\test\Pain Drain\libraries\lvgl\src\font/lv_font_loader.c ****                         lv_mem_free((void *)kern_dsc->left_class_mapping);
 148:..\..\..\arduinoLCD\test\Pain Drain\libraries\lvgl\src\font/lv_font_loader.c **** 
 149:..\..\..\arduinoLCD\test\Pain Drain\libraries\lvgl\src\font/lv_font_loader.c ****                     if(kern_dsc->right_class_mapping)
 150:..\..\..\arduinoLCD\test\Pain Drain\libraries\lvgl\src\font/lv_font_loader.c ****                         lv_mem_free((void *)kern_dsc->right_class_mapping);
 151:..\..\..\arduinoLCD\test\Pain Drain\libraries\lvgl\src\font/lv_font_loader.c **** 
 152:..\..\..\arduinoLCD\test\Pain Drain\libraries\lvgl\src\font/lv_font_loader.c ****                     lv_mem_free((void *)kern_dsc);
 153:..\..\..\arduinoLCD\test\Pain Drain\libraries\lvgl\src\font/lv_font_loader.c ****                 }
 154:..\..\..\arduinoLCD\test\Pain Drain\libraries\lvgl\src\font/lv_font_loader.c ****             }
 155:..\..\..\arduinoLCD\test\Pain Drain\libraries\lvgl\src\font/lv_font_loader.c **** 
 156:..\..\..\arduinoLCD\test\Pain Drain\libraries\lvgl\src\font/lv_font_loader.c ****             lv_font_fmt_txt_cmap_t * cmaps =
 157:..\..\..\arduinoLCD\test\Pain Drain\libraries\lvgl\src\font/lv_font_loader.c ****                 (lv_font_fmt_txt_cmap_t *)dsc->cmaps;
 158:..\..\..\arduinoLCD\test\Pain Drain\libraries\lvgl\src\font/lv_font_loader.c **** 
 159:..\..\..\arduinoLCD\test\Pain Drain\libraries\lvgl\src\font/lv_font_loader.c ****             if(NULL != cmaps) {
 160:..\..\..\arduinoLCD\test\Pain Drain\libraries\lvgl\src\font/lv_font_loader.c ****                 for(int i = 0; i < dsc->cmap_num; ++i) {
 161:..\..\..\arduinoLCD\test\Pain Drain\libraries\lvgl\src\font/lv_font_loader.c ****                     if(NULL != cmaps[i].glyph_id_ofs_list)
 162:..\..\..\arduinoLCD\test\Pain Drain\libraries\lvgl\src\font/lv_font_loader.c ****                         lv_mem_free((void *)cmaps[i].glyph_id_ofs_list);
 163:..\..\..\arduinoLCD\test\Pain Drain\libraries\lvgl\src\font/lv_font_loader.c ****                     if(NULL != cmaps[i].unicode_list)
 164:..\..\..\arduinoLCD\test\Pain Drain\libraries\lvgl\src\font/lv_font_loader.c ****                         lv_mem_free((void *)cmaps[i].unicode_list);
 165:..\..\..\arduinoLCD\test\Pain Drain\libraries\lvgl\src\font/lv_font_loader.c ****                 }
 166:..\..\..\arduinoLCD\test\Pain Drain\libraries\lvgl\src\font/lv_font_loader.c ****                 lv_mem_free(cmaps);
 167:..\..\..\arduinoLCD\test\Pain Drain\libraries\lvgl\src\font/lv_font_loader.c ****             }
 168:..\..\..\arduinoLCD\test\Pain Drain\libraries\lvgl\src\font/lv_font_loader.c **** 
 169:..\..\..\arduinoLCD\test\Pain Drain\libraries\lvgl\src\font/lv_font_loader.c ****             if(NULL != dsc->glyph_bitmap) {
 170:..\..\..\arduinoLCD\test\Pain Drain\libraries\lvgl\src\font/lv_font_loader.c ****                 lv_mem_free((void *)dsc->glyph_bitmap);
 171:..\..\..\arduinoLCD\test\Pain Drain\libraries\lvgl\src\font/lv_font_loader.c ****             }
 172:..\..\..\arduinoLCD\test\Pain Drain\libraries\lvgl\src\font/lv_font_loader.c ****             if(NULL != dsc->glyph_dsc) {
 173:..\..\..\arduinoLCD\test\Pain Drain\libraries\lvgl\src\font/lv_font_loader.c ****                 lv_mem_free((void *)dsc->glyph_dsc);
 174:..\..\..\arduinoLCD\test\Pain Drain\libraries\lvgl\src\font/lv_font_loader.c ****             }
 175:..\..\..\arduinoLCD\test\Pain Drain\libraries\lvgl\src\font/lv_font_loader.c ****             lv_mem_free(dsc);
 176:..\..\..\arduinoLCD\test\Pain Drain\libraries\lvgl\src\font/lv_font_loader.c ****         }
 177:..\..\..\arduinoLCD\test\Pain Drain\libraries\lvgl\src\font/lv_font_loader.c ****         lv_mem_free(font);
 178:..\..\..\arduinoLCD\test\Pain Drain\libraries\lvgl\src\font/lv_font_loader.c ****     }
 179:..\..\..\arduinoLCD\test\Pain Drain\libraries\lvgl\src\font/lv_font_loader.c **** }
 180:..\..\..\arduinoLCD\test\Pain Drain\libraries\lvgl\src\font/lv_font_loader.c **** 
 181:..\..\..\arduinoLCD\test\Pain Drain\libraries\lvgl\src\font/lv_font_loader.c **** /**********************
 182:..\..\..\arduinoLCD\test\Pain Drain\libraries\lvgl\src\font/lv_font_loader.c ****  *   STATIC FUNCTIONS
 183:..\..\..\arduinoLCD\test\Pain Drain\libraries\lvgl\src\font/lv_font_loader.c ****  **********************/
 184:..\..\..\arduinoLCD\test\Pain Drain\libraries\lvgl\src\font/lv_font_loader.c **** 
 185:..\..\..\arduinoLCD\test\Pain Drain\libraries\lvgl\src\font/lv_font_loader.c **** static bit_iterator_t init_bit_iterator(lv_fs_file_t * fp)
 186:..\..\..\arduinoLCD\test\Pain Drain\libraries\lvgl\src\font/lv_font_loader.c **** {
  27              		.loc 1 186 0
  28              		.cfi_startproc
  29              		@ args = 0, pretend = 0, frame = 0
  30              		@ frame_needed = 0, uses_anonymous_args = 0
  31              		@ link register save eliminated.
  32              	.LVL0:
 187:..\..\..\arduinoLCD\test\Pain Drain\libraries\lvgl\src\font/lv_font_loader.c ****     bit_iterator_t it;
 188:..\..\..\arduinoLCD\test\Pain Drain\libraries\lvgl\src\font/lv_font_loader.c ****     it.fp = fp;
  33              		.loc 1 188 0
  34 0000 0160     		str	r1, [r0]
 189:..\..\..\arduinoLCD\test\Pain Drain\libraries\lvgl\src\font/lv_font_loader.c ****     it.bit_pos = -1;
  35              		.loc 1 189 0
  36 0002 FF23     		movs	r3, #255
  37 0004 0371     		strb	r3, [r0, #4]
 190:..\..\..\arduinoLCD\test\Pain Drain\libraries\lvgl\src\font/lv_font_loader.c ****     it.byte_value = 0;
  38              		.loc 1 190 0
ARM GAS  C:\Users\haske\AppData\Local\Temp\cc5ISl1k.s 			page 5


  39 0006 0023     		movs	r3, #0
  40 0008 4371     		strb	r3, [r0, #5]
 191:..\..\..\arduinoLCD\test\Pain Drain\libraries\lvgl\src\font/lv_font_loader.c ****     return it;
 192:..\..\..\arduinoLCD\test\Pain Drain\libraries\lvgl\src\font/lv_font_loader.c **** }
  41              		.loc 1 192 0
  42              		@ sp needed
  43 000a 7047     		bx	lr
  44              		.cfi_endproc
  45              	.LFE204:
  46              		.size	init_bit_iterator, .-init_bit_iterator
  47              		.section	.text.read_bits,"ax",%progbits
  48              		.align	2
  49              		.code	16
  50              		.thumb_func
  51              		.type	read_bits, %function
  52              	read_bits:
  53              	.LFB205:
 193:..\..\..\arduinoLCD\test\Pain Drain\libraries\lvgl\src\font/lv_font_loader.c **** 
 194:..\..\..\arduinoLCD\test\Pain Drain\libraries\lvgl\src\font/lv_font_loader.c **** static unsigned int read_bits(bit_iterator_t * it, int n_bits, lv_fs_res_t * res)
 195:..\..\..\arduinoLCD\test\Pain Drain\libraries\lvgl\src\font/lv_font_loader.c **** {
  54              		.loc 1 195 0
  55              		.cfi_startproc
  56              		@ args = 0, pretend = 0, frame = 0
  57              		@ frame_needed = 0, uses_anonymous_args = 0
  58              	.LVL1:
  59 0000 F8B5     		push	{r3, r4, r5, r6, r7, lr}
  60              		.cfi_def_cfa_offset 24
  61              		.cfi_offset 3, -24
  62              		.cfi_offset 4, -20
  63              		.cfi_offset 5, -16
  64              		.cfi_offset 6, -12
  65              		.cfi_offset 7, -8
  66              		.cfi_offset 14, -4
  67 0002 0400     		movs	r4, r0
  68 0004 1700     		movs	r7, r2
  69              	.LVL2:
 196:..\..\..\arduinoLCD\test\Pain Drain\libraries\lvgl\src\font/lv_font_loader.c ****     unsigned int value = 0;
  70              		.loc 1 196 0
  71 0006 0026     		movs	r6, #0
 197:..\..\..\arduinoLCD\test\Pain Drain\libraries\lvgl\src\font/lv_font_loader.c ****     while(n_bits--) {
  72              		.loc 1 197 0
  73 0008 19E0     		b	.L3
  74              	.LVL3:
  75              	.L6:
  76              	.LBB2:
 198:..\..\..\arduinoLCD\test\Pain Drain\libraries\lvgl\src\font/lv_font_loader.c ****         it->byte_value = it->byte_value << 1;
  77              		.loc 1 198 0
  78 000a 6379     		ldrb	r3, [r4, #5]
  79 000c 5B00     		lsls	r3, r3, #1
  80 000e 6371     		strb	r3, [r4, #5]
 199:..\..\..\arduinoLCD\test\Pain Drain\libraries\lvgl\src\font/lv_font_loader.c ****         it->bit_pos--;
  81              		.loc 1 199 0
  82 0010 0423     		movs	r3, #4
  83 0012 E356     		ldrsb	r3, [r4, r3]
  84 0014 013B     		subs	r3, r3, #1
  85 0016 5BB2     		sxtb	r3, r3
  86 0018 2371     		strb	r3, [r4, #4]
ARM GAS  C:\Users\haske\AppData\Local\Temp\cc5ISl1k.s 			page 6


 200:..\..\..\arduinoLCD\test\Pain Drain\libraries\lvgl\src\font/lv_font_loader.c **** 
 201:..\..\..\arduinoLCD\test\Pain Drain\libraries\lvgl\src\font/lv_font_loader.c ****         if(it->bit_pos < 0) {
  87              		.loc 1 201 0
  88 001a 002B     		cmp	r3, #0
  89 001c 0ADA     		bge	.L4
 202:..\..\..\arduinoLCD\test\Pain Drain\libraries\lvgl\src\font/lv_font_loader.c ****             it->bit_pos = 7;
  90              		.loc 1 202 0
  91 001e 0723     		movs	r3, #7
  92 0020 2371     		strb	r3, [r4, #4]
 203:..\..\..\arduinoLCD\test\Pain Drain\libraries\lvgl\src\font/lv_font_loader.c ****             *res = lv_fs_read(it->fp, &(it->byte_value), 1, NULL);
  93              		.loc 1 203 0
  94 0022 611D     		adds	r1, r4, #5
  95 0024 0023     		movs	r3, #0
  96 0026 0122     		movs	r2, #1
  97 0028 2068     		ldr	r0, [r4]
  98 002a FFF7FEFF 		bl	lv_fs_read
  99              	.LVL4:
 100 002e 3870     		strb	r0, [r7]
 204:..\..\..\arduinoLCD\test\Pain Drain\libraries\lvgl\src\font/lv_font_loader.c ****             if(*res != LV_FS_RES_OK) {
 101              		.loc 1 204 0
 102 0030 0028     		cmp	r0, #0
 103 0032 0BD1     		bne	.L7
 104              	.L4:
 205:..\..\..\arduinoLCD\test\Pain Drain\libraries\lvgl\src\font/lv_font_loader.c ****                 return 0;
 206:..\..\..\arduinoLCD\test\Pain Drain\libraries\lvgl\src\font/lv_font_loader.c ****             }
 207:..\..\..\arduinoLCD\test\Pain Drain\libraries\lvgl\src\font/lv_font_loader.c ****         }
 208:..\..\..\arduinoLCD\test\Pain Drain\libraries\lvgl\src\font/lv_font_loader.c ****         int8_t bit = (it->byte_value & 0x80) ? 1 : 0;
 105              		.loc 1 208 0
 106 0034 6379     		ldrb	r3, [r4, #5]
 107 0036 DB09     		lsrs	r3, r3, #7
 108              	.LVL5:
 209:..\..\..\arduinoLCD\test\Pain Drain\libraries\lvgl\src\font/lv_font_loader.c **** 
 210:..\..\..\arduinoLCD\test\Pain Drain\libraries\lvgl\src\font/lv_font_loader.c ****         value |= (bit << n_bits);
 109              		.loc 1 210 0
 110 0038 AB40     		lsls	r3, r3, r5
 111              	.LVL6:
 112 003a 1E43     		orrs	r6, r3
 113              	.LVL7:
 114              	.LBE2:
 197:..\..\..\arduinoLCD\test\Pain Drain\libraries\lvgl\src\font/lv_font_loader.c ****         it->byte_value = it->byte_value << 1;
 115              		.loc 1 197 0
 116 003c 2900     		movs	r1, r5
 117              	.LVL8:
 118              	.L3:
 119 003e 4D1E     		subs	r5, r1, #1
 120              	.LVL9:
 121 0040 0029     		cmp	r1, #0
 122 0042 E2D1     		bne	.L6
 211:..\..\..\arduinoLCD\test\Pain Drain\libraries\lvgl\src\font/lv_font_loader.c ****     }
 212:..\..\..\arduinoLCD\test\Pain Drain\libraries\lvgl\src\font/lv_font_loader.c ****     *res = LV_FS_RES_OK;
 123              		.loc 1 212 0
 124 0044 0023     		movs	r3, #0
 125 0046 3B70     		strb	r3, [r7]
 213:..\..\..\arduinoLCD\test\Pain Drain\libraries\lvgl\src\font/lv_font_loader.c ****     return value;
 126              		.loc 1 213 0
 127 0048 3000     		movs	r0, r6
 128 004a 00E0     		b	.L5
ARM GAS  C:\Users\haske\AppData\Local\Temp\cc5ISl1k.s 			page 7


 129              	.L7:
 130              	.LBB3:
 205:..\..\..\arduinoLCD\test\Pain Drain\libraries\lvgl\src\font/lv_font_loader.c ****             }
 131              		.loc 1 205 0
 132 004c 0020     		movs	r0, #0
 133              	.L5:
 134              	.LBE3:
 214:..\..\..\arduinoLCD\test\Pain Drain\libraries\lvgl\src\font/lv_font_loader.c **** }
 135              		.loc 1 214 0
 136              		@ sp needed
 137              	.LVL10:
 138              	.LVL11:
 139              	.LVL12:
 140              	.LVL13:
 141 004e F8BD     		pop	{r3, r4, r5, r6, r7, pc}
 142              		.cfi_endproc
 143              	.LFE205:
 144              		.size	read_bits, .-read_bits
 145              		.section	.text.read_bits_signed,"ax",%progbits
 146              		.align	2
 147              		.code	16
 148              		.thumb_func
 149              		.type	read_bits_signed, %function
 150              	read_bits_signed:
 151              	.LFB206:
 215:..\..\..\arduinoLCD\test\Pain Drain\libraries\lvgl\src\font/lv_font_loader.c **** 
 216:..\..\..\arduinoLCD\test\Pain Drain\libraries\lvgl\src\font/lv_font_loader.c **** static int read_bits_signed(bit_iterator_t * it, int n_bits, lv_fs_res_t * res)
 217:..\..\..\arduinoLCD\test\Pain Drain\libraries\lvgl\src\font/lv_font_loader.c **** {
 152              		.loc 1 217 0
 153              		.cfi_startproc
 154              		@ args = 0, pretend = 0, frame = 0
 155              		@ frame_needed = 0, uses_anonymous_args = 0
 156              	.LVL14:
 157 0000 10B5     		push	{r4, lr}
 158              		.cfi_def_cfa_offset 8
 159              		.cfi_offset 4, -8
 160              		.cfi_offset 14, -4
 161 0002 0C00     		movs	r4, r1
 218:..\..\..\arduinoLCD\test\Pain Drain\libraries\lvgl\src\font/lv_font_loader.c ****     unsigned int value = read_bits(it, n_bits, res);
 162              		.loc 1 218 0
 163 0004 FFF7FEFF 		bl	read_bits
 164              	.LVL15:
 219:..\..\..\arduinoLCD\test\Pain Drain\libraries\lvgl\src\font/lv_font_loader.c ****     if(value & (1 << (n_bits - 1))) {
 165              		.loc 1 219 0
 166 0008 621E     		subs	r2, r4, #1
 167 000a 0123     		movs	r3, #1
 168 000c 9340     		lsls	r3, r3, r2
 169 000e 1842     		tst	r0, r3
 170 0010 03D0     		beq	.L9
 220:..\..\..\arduinoLCD\test\Pain Drain\libraries\lvgl\src\font/lv_font_loader.c ****         value |= ~0u << n_bits;
 171              		.loc 1 220 0
 172 0012 0123     		movs	r3, #1
 173 0014 5B42     		rsbs	r3, r3, #0
 174 0016 A340     		lsls	r3, r3, r4
 175 0018 1843     		orrs	r0, r3
 176              	.LVL16:
 177              	.L9:
ARM GAS  C:\Users\haske\AppData\Local\Temp\cc5ISl1k.s 			page 8


 221:..\..\..\arduinoLCD\test\Pain Drain\libraries\lvgl\src\font/lv_font_loader.c ****     }
 222:..\..\..\arduinoLCD\test\Pain Drain\libraries\lvgl\src\font/lv_font_loader.c ****     return value;
 223:..\..\..\arduinoLCD\test\Pain Drain\libraries\lvgl\src\font/lv_font_loader.c **** }
 178              		.loc 1 223 0
 179              		@ sp needed
 180              	.LVL17:
 181 001a 10BD     		pop	{r4, pc}
 182              		.cfi_endproc
 183              	.LFE206:
 184              		.size	read_bits_signed, .-read_bits_signed
 185              		.section	.text.load_cmaps_tables,"ax",%progbits
 186              		.align	2
 187              		.code	16
 188              		.thumb_func
 189              		.type	load_cmaps_tables, %function
 190              	load_cmaps_tables:
 191              	.LFB208:
 224:..\..\..\arduinoLCD\test\Pain Drain\libraries\lvgl\src\font/lv_font_loader.c **** 
 225:..\..\..\arduinoLCD\test\Pain Drain\libraries\lvgl\src\font/lv_font_loader.c **** static int read_label(lv_fs_file_t * fp, int start, const char * label)
 226:..\..\..\arduinoLCD\test\Pain Drain\libraries\lvgl\src\font/lv_font_loader.c **** {
 227:..\..\..\arduinoLCD\test\Pain Drain\libraries\lvgl\src\font/lv_font_loader.c ****     lv_fs_seek(fp, start, LV_FS_SEEK_SET);
 228:..\..\..\arduinoLCD\test\Pain Drain\libraries\lvgl\src\font/lv_font_loader.c **** 
 229:..\..\..\arduinoLCD\test\Pain Drain\libraries\lvgl\src\font/lv_font_loader.c ****     uint32_t length;
 230:..\..\..\arduinoLCD\test\Pain Drain\libraries\lvgl\src\font/lv_font_loader.c ****     char buf[4];
 231:..\..\..\arduinoLCD\test\Pain Drain\libraries\lvgl\src\font/lv_font_loader.c **** 
 232:..\..\..\arduinoLCD\test\Pain Drain\libraries\lvgl\src\font/lv_font_loader.c ****     if(lv_fs_read(fp, &length, 4, NULL) != LV_FS_RES_OK
 233:..\..\..\arduinoLCD\test\Pain Drain\libraries\lvgl\src\font/lv_font_loader.c ****        || lv_fs_read(fp, buf, 4, NULL) != LV_FS_RES_OK
 234:..\..\..\arduinoLCD\test\Pain Drain\libraries\lvgl\src\font/lv_font_loader.c ****        || memcmp(label, buf, 4) != 0) {
 235:..\..\..\arduinoLCD\test\Pain Drain\libraries\lvgl\src\font/lv_font_loader.c ****         LV_LOG_WARN("Error reading '%s' label.", label);
 236:..\..\..\arduinoLCD\test\Pain Drain\libraries\lvgl\src\font/lv_font_loader.c ****         return -1;
 237:..\..\..\arduinoLCD\test\Pain Drain\libraries\lvgl\src\font/lv_font_loader.c ****     }
 238:..\..\..\arduinoLCD\test\Pain Drain\libraries\lvgl\src\font/lv_font_loader.c **** 
 239:..\..\..\arduinoLCD\test\Pain Drain\libraries\lvgl\src\font/lv_font_loader.c ****     return length;
 240:..\..\..\arduinoLCD\test\Pain Drain\libraries\lvgl\src\font/lv_font_loader.c **** }
 241:..\..\..\arduinoLCD\test\Pain Drain\libraries\lvgl\src\font/lv_font_loader.c **** 
 242:..\..\..\arduinoLCD\test\Pain Drain\libraries\lvgl\src\font/lv_font_loader.c **** static bool load_cmaps_tables(lv_fs_file_t * fp, lv_font_fmt_txt_dsc_t * font_dsc,
 243:..\..\..\arduinoLCD\test\Pain Drain\libraries\lvgl\src\font/lv_font_loader.c ****                               uint32_t cmaps_start, cmap_table_bin_t * cmap_table)
 244:..\..\..\arduinoLCD\test\Pain Drain\libraries\lvgl\src\font/lv_font_loader.c **** {
 192              		.loc 1 244 0
 193              		.cfi_startproc
 194              		@ args = 0, pretend = 0, frame = 8
 195              		@ frame_needed = 0, uses_anonymous_args = 0
 196              	.LVL18:
 197 0000 F0B5     		push	{r4, r5, r6, r7, lr}
 198              		.cfi_def_cfa_offset 20
 199              		.cfi_offset 4, -20
 200              		.cfi_offset 5, -16
 201              		.cfi_offset 6, -12
 202              		.cfi_offset 7, -8
 203              		.cfi_offset 14, -4
 204 0002 5746     		mov	r7, r10
 205 0004 4E46     		mov	r6, r9
 206 0006 C0B4     		push	{r6, r7}
 207              		.cfi_def_cfa_offset 28
 208              		.cfi_offset 9, -28
 209              		.cfi_offset 10, -24
 210 0008 83B0     		sub	sp, sp, #12
ARM GAS  C:\Users\haske\AppData\Local\Temp\cc5ISl1k.s 			page 9


 211              		.cfi_def_cfa_offset 40
 212 000a 0090     		str	r0, [sp]
 213 000c 0E00     		movs	r6, r1
 214 000e 9246     		mov	r10, r2
 215 0010 9946     		mov	r9, r3
 245:..\..\..\arduinoLCD\test\Pain Drain\libraries\lvgl\src\font/lv_font_loader.c ****     if(lv_fs_read(fp, cmap_table, font_dsc->cmap_num * sizeof(cmap_table_bin_t), NULL) != LV_FS_RES
 216              		.loc 1 245 0
 217 0012 4A8A     		ldrh	r2, [r1, #18]
 218              	.LVL19:
 219 0014 D205     		lsls	r2, r2, #23
 220 0016 D20C     		lsrs	r2, r2, #19
 221 0018 0023     		movs	r3, #0
 222              	.LVL20:
 223 001a 4946     		mov	r1, r9
 224              	.LVL21:
 225 001c FFF7FEFF 		bl	lv_fs_read
 226              	.LVL22:
 227 0020 0028     		cmp	r0, #0
 228 0022 5FD1     		bne	.L17
 229 0024 0025     		movs	r5, #0
 230 0026 56E0     		b	.L12
 231              	.LVL23:
 232              	.L16:
 233              	.LBB4:
 234              	.LBB5:
 246:..\..\..\arduinoLCD\test\Pain Drain\libraries\lvgl\src\font/lv_font_loader.c ****         return false;
 247:..\..\..\arduinoLCD\test\Pain Drain\libraries\lvgl\src\font/lv_font_loader.c ****     }
 248:..\..\..\arduinoLCD\test\Pain Drain\libraries\lvgl\src\font/lv_font_loader.c **** 
 249:..\..\..\arduinoLCD\test\Pain Drain\libraries\lvgl\src\font/lv_font_loader.c ****     for(unsigned int i = 0; i < font_dsc->cmap_num; ++i) {
 250:..\..\..\arduinoLCD\test\Pain Drain\libraries\lvgl\src\font/lv_font_loader.c ****         lv_fs_res_t res = lv_fs_seek(fp, cmaps_start + cmap_table[i].data_offset, LV_FS_SEEK_SET);
 235              		.loc 1 250 0
 236 0028 2B01     		lsls	r3, r5, #4
 237 002a 4B44     		add	r3, r3, r9
 238 002c 1F00     		movs	r7, r3
 239 002e 1B68     		ldr	r3, [r3]
 240 0030 5344     		add	r3, r3, r10
 241 0032 1900     		movs	r1, r3
 242 0034 0022     		movs	r2, #0
 243 0036 0098     		ldr	r0, [sp]
 244 0038 FFF7FEFF 		bl	lv_fs_seek
 245              	.LVL24:
 251:..\..\..\arduinoLCD\test\Pain Drain\libraries\lvgl\src\font/lv_font_loader.c ****         if(res != LV_FS_RES_OK) {
 246              		.loc 1 251 0
 247 003c 0028     		cmp	r0, #0
 248 003e 53D1     		bne	.L18
 252:..\..\..\arduinoLCD\test\Pain Drain\libraries\lvgl\src\font/lv_font_loader.c ****             return false;
 253:..\..\..\arduinoLCD\test\Pain Drain\libraries\lvgl\src\font/lv_font_loader.c ****         }
 254:..\..\..\arduinoLCD\test\Pain Drain\libraries\lvgl\src\font/lv_font_loader.c **** 
 255:..\..\..\arduinoLCD\test\Pain Drain\libraries\lvgl\src\font/lv_font_loader.c ****         lv_font_fmt_txt_cmap_t * cmap = (lv_font_fmt_txt_cmap_t *) & (font_dsc->cmaps[i]);
 249              		.loc 1 255 0
 250 0040 AB00     		lsls	r3, r5, #2
 251 0042 5B19     		adds	r3, r3, r5
 252 0044 9C00     		lsls	r4, r3, #2
 253 0046 B368     		ldr	r3, [r6, #8]
 254 0048 9C46     		mov	ip, r3
 255 004a 6444     		add	r4, r4, ip
 256              	.LVL25:
ARM GAS  C:\Users\haske\AppData\Local\Temp\cc5ISl1k.s 			page 10


 256:..\..\..\arduinoLCD\test\Pain Drain\libraries\lvgl\src\font/lv_font_loader.c **** 
 257:..\..\..\arduinoLCD\test\Pain Drain\libraries\lvgl\src\font/lv_font_loader.c ****         cmap->range_start = cmap_table[i].range_start;
 257              		.loc 1 257 0
 258 004c 7B68     		ldr	r3, [r7, #4]
 259 004e 2360     		str	r3, [r4]
 258:..\..\..\arduinoLCD\test\Pain Drain\libraries\lvgl\src\font/lv_font_loader.c ****         cmap->range_length = cmap_table[i].range_length;
 260              		.loc 1 258 0
 261 0050 3B89     		ldrh	r3, [r7, #8]
 262 0052 A380     		strh	r3, [r4, #4]
 259:..\..\..\arduinoLCD\test\Pain Drain\libraries\lvgl\src\font/lv_font_loader.c ****         cmap->glyph_id_start = cmap_table[i].glyph_id_start;
 263              		.loc 1 259 0
 264 0054 7B89     		ldrh	r3, [r7, #10]
 265 0056 E380     		strh	r3, [r4, #6]
 260:..\..\..\arduinoLCD\test\Pain Drain\libraries\lvgl\src\font/lv_font_loader.c ****         cmap->type = cmap_table[i].format_type;
 266              		.loc 1 260 0
 267 0058 BB7B     		ldrb	r3, [r7, #14]
 268 005a A374     		strb	r3, [r4, #18]
 261:..\..\..\arduinoLCD\test\Pain Drain\libraries\lvgl\src\font/lv_font_loader.c **** 
 262:..\..\..\arduinoLCD\test\Pain Drain\libraries\lvgl\src\font/lv_font_loader.c ****         switch(cmap_table[i].format_type) {
 269              		.loc 1 262 0
 270 005c BB7B     		ldrb	r3, [r7, #14]
 271 005e 012B     		cmp	r3, #1
 272 0060 16D0     		beq	.L13
 273 0062 002B     		cmp	r3, #0
 274 0064 04D0     		beq	.L14
 275 0066 022B     		cmp	r3, #2
 276 0068 34D0     		beq	.L15
 277 006a 032B     		cmp	r3, #3
 278 006c 3ED1     		bne	.L23
 279 006e 0FE0     		b	.L13
 280              	.L14:
 281              	.LBB6:
 263:..\..\..\arduinoLCD\test\Pain Drain\libraries\lvgl\src\font/lv_font_loader.c ****             case LV_FONT_FMT_TXT_CMAP_FORMAT0_FULL: {
 264:..\..\..\arduinoLCD\test\Pain Drain\libraries\lvgl\src\font/lv_font_loader.c ****                     uint8_t ids_size = sizeof(uint8_t) * cmap_table[i].data_entries_count;
 282              		.loc 1 264 0
 283 0070 3F7B     		ldrb	r7, [r7, #12]
 284              	.LVL26:
 265:..\..\..\arduinoLCD\test\Pain Drain\libraries\lvgl\src\font/lv_font_loader.c ****                     uint8_t * glyph_id_ofs_list = lv_mem_alloc(ids_size);
 285              		.loc 1 265 0
 286 0072 3800     		movs	r0, r7
 287              	.LVL27:
 288 0074 FFF7FEFF 		bl	lv_mem_alloc
 289              	.LVL28:
 290 0078 0100     		movs	r1, r0
 291              	.LVL29:
 266:..\..\..\arduinoLCD\test\Pain Drain\libraries\lvgl\src\font/lv_font_loader.c **** 
 267:..\..\..\arduinoLCD\test\Pain Drain\libraries\lvgl\src\font/lv_font_loader.c ****                     cmap->glyph_id_ofs_list = glyph_id_ofs_list;
 292              		.loc 1 267 0
 293 007a E060     		str	r0, [r4, #12]
 268:..\..\..\arduinoLCD\test\Pain Drain\libraries\lvgl\src\font/lv_font_loader.c **** 
 269:..\..\..\arduinoLCD\test\Pain Drain\libraries\lvgl\src\font/lv_font_loader.c ****                     if(lv_fs_read(fp, glyph_id_ofs_list, ids_size, NULL) != LV_FS_RES_OK) {
 294              		.loc 1 269 0
 295 007c 0023     		movs	r3, #0
 296 007e 3A00     		movs	r2, r7
 297 0080 0098     		ldr	r0, [sp]
 298              	.LVL30:
 299 0082 FFF7FEFF 		bl	lv_fs_read
ARM GAS  C:\Users\haske\AppData\Local\Temp\cc5ISl1k.s 			page 11


 300              	.LVL31:
 301 0086 0028     		cmp	r0, #0
 302 0088 32D1     		bne	.L20
 270:..\..\..\arduinoLCD\test\Pain Drain\libraries\lvgl\src\font/lv_font_loader.c ****                         return false;
 271:..\..\..\arduinoLCD\test\Pain Drain\libraries\lvgl\src\font/lv_font_loader.c ****                     }
 272:..\..\..\arduinoLCD\test\Pain Drain\libraries\lvgl\src\font/lv_font_loader.c **** 
 273:..\..\..\arduinoLCD\test\Pain Drain\libraries\lvgl\src\font/lv_font_loader.c ****                     cmap->list_length = cmap->range_length;
 303              		.loc 1 273 0
 304 008a A388     		ldrh	r3, [r4, #4]
 305 008c 2382     		strh	r3, [r4, #16]
 274:..\..\..\arduinoLCD\test\Pain Drain\libraries\lvgl\src\font/lv_font_loader.c ****                     break;
 306              		.loc 1 274 0
 307 008e 21E0     		b	.L15
 308              	.LVL32:
 309              	.L13:
 310              	.LBE6:
 311              	.LBB7:
 275:..\..\..\arduinoLCD\test\Pain Drain\libraries\lvgl\src\font/lv_font_loader.c ****                 }
 276:..\..\..\arduinoLCD\test\Pain Drain\libraries\lvgl\src\font/lv_font_loader.c ****             case LV_FONT_FMT_TXT_CMAP_FORMAT0_TINY:
 277:..\..\..\arduinoLCD\test\Pain Drain\libraries\lvgl\src\font/lv_font_loader.c ****                 break;
 278:..\..\..\arduinoLCD\test\Pain Drain\libraries\lvgl\src\font/lv_font_loader.c ****             case LV_FONT_FMT_TXT_CMAP_SPARSE_FULL:
 279:..\..\..\arduinoLCD\test\Pain Drain\libraries\lvgl\src\font/lv_font_loader.c ****             case LV_FONT_FMT_TXT_CMAP_SPARSE_TINY: {
 280:..\..\..\arduinoLCD\test\Pain Drain\libraries\lvgl\src\font/lv_font_loader.c ****                     uint32_t list_size = sizeof(uint16_t) * cmap_table[i].data_entries_count;
 312              		.loc 1 280 0
 313 0090 BB89     		ldrh	r3, [r7, #12]
 314 0092 5B00     		lsls	r3, r3, #1
 315              	.LVL33:
 281:..\..\..\arduinoLCD\test\Pain Drain\libraries\lvgl\src\font/lv_font_loader.c ****                     uint16_t * unicode_list = (uint16_t *)lv_mem_alloc(list_size);
 316              		.loc 1 281 0
 317 0094 0193     		str	r3, [sp, #4]
 318 0096 1800     		movs	r0, r3
 319              	.LVL34:
 320 0098 FFF7FEFF 		bl	lv_mem_alloc
 321              	.LVL35:
 322 009c 0100     		movs	r1, r0
 323              	.LVL36:
 282:..\..\..\arduinoLCD\test\Pain Drain\libraries\lvgl\src\font/lv_font_loader.c **** 
 283:..\..\..\arduinoLCD\test\Pain Drain\libraries\lvgl\src\font/lv_font_loader.c ****                     cmap->unicode_list = unicode_list;
 324              		.loc 1 283 0
 325 009e A060     		str	r0, [r4, #8]
 284:..\..\..\arduinoLCD\test\Pain Drain\libraries\lvgl\src\font/lv_font_loader.c ****                     cmap->list_length = cmap_table[i].data_entries_count;
 326              		.loc 1 284 0
 327 00a0 BB89     		ldrh	r3, [r7, #12]
 328 00a2 2382     		strh	r3, [r4, #16]
 285:..\..\..\arduinoLCD\test\Pain Drain\libraries\lvgl\src\font/lv_font_loader.c **** 
 286:..\..\..\arduinoLCD\test\Pain Drain\libraries\lvgl\src\font/lv_font_loader.c ****                     if(lv_fs_read(fp, unicode_list, list_size, NULL) != LV_FS_RES_OK) {
 329              		.loc 1 286 0
 330 00a4 0023     		movs	r3, #0
 331 00a6 019A     		ldr	r2, [sp, #4]
 332 00a8 0098     		ldr	r0, [sp]
 333              	.LVL37:
 334 00aa FFF7FEFF 		bl	lv_fs_read
 335              	.LVL38:
 336 00ae 0028     		cmp	r0, #0
 337 00b0 20D1     		bne	.L21
 287:..\..\..\arduinoLCD\test\Pain Drain\libraries\lvgl\src\font/lv_font_loader.c ****                         return false;
 288:..\..\..\arduinoLCD\test\Pain Drain\libraries\lvgl\src\font/lv_font_loader.c ****                     }
ARM GAS  C:\Users\haske\AppData\Local\Temp\cc5ISl1k.s 			page 12


 289:..\..\..\arduinoLCD\test\Pain Drain\libraries\lvgl\src\font/lv_font_loader.c **** 
 290:..\..\..\arduinoLCD\test\Pain Drain\libraries\lvgl\src\font/lv_font_loader.c ****                     if(cmap_table[i].format_type == LV_FONT_FMT_TXT_CMAP_SPARSE_FULL) {
 338              		.loc 1 290 0
 339 00b2 BB7B     		ldrb	r3, [r7, #14]
 340 00b4 012B     		cmp	r3, #1
 341 00b6 0DD1     		bne	.L15
 342              	.LBB8:
 291:..\..\..\arduinoLCD\test\Pain Drain\libraries\lvgl\src\font/lv_font_loader.c ****                         uint16_t * buf = lv_mem_alloc(sizeof(uint16_t) * cmap->list_length);
 343              		.loc 1 291 0
 344 00b8 208A     		ldrh	r0, [r4, #16]
 345 00ba 4000     		lsls	r0, r0, #1
 346 00bc FFF7FEFF 		bl	lv_mem_alloc
 347              	.LVL39:
 348 00c0 0100     		movs	r1, r0
 349              	.LVL40:
 292:..\..\..\arduinoLCD\test\Pain Drain\libraries\lvgl\src\font/lv_font_loader.c **** 
 293:..\..\..\arduinoLCD\test\Pain Drain\libraries\lvgl\src\font/lv_font_loader.c ****                         cmap->glyph_id_ofs_list = buf;
 350              		.loc 1 293 0
 351 00c2 E060     		str	r0, [r4, #12]
 294:..\..\..\arduinoLCD\test\Pain Drain\libraries\lvgl\src\font/lv_font_loader.c **** 
 295:..\..\..\arduinoLCD\test\Pain Drain\libraries\lvgl\src\font/lv_font_loader.c ****                         if(lv_fs_read(fp, buf, sizeof(uint16_t) * cmap->list_length, NULL) != LV_FS
 352              		.loc 1 295 0
 353 00c4 228A     		ldrh	r2, [r4, #16]
 354 00c6 5200     		lsls	r2, r2, #1
 355 00c8 0023     		movs	r3, #0
 356 00ca 0098     		ldr	r0, [sp]
 357              	.LVL41:
 358 00cc FFF7FEFF 		bl	lv_fs_read
 359              	.LVL42:
 360 00d0 0028     		cmp	r0, #0
 361 00d2 11D1     		bne	.L22
 362              	.LVL43:
 363              	.L15:
 364              	.LBE8:
 365              	.LBE7:
 366              	.LBE5:
 249:..\..\..\arduinoLCD\test\Pain Drain\libraries\lvgl\src\font/lv_font_loader.c ****         lv_fs_res_t res = lv_fs_seek(fp, cmaps_start + cmap_table[i].data_offset, LV_FS_SEEK_SET);
 367              		.loc 1 249 0 discriminator 2
 368 00d4 0135     		adds	r5, r5, #1
 369              	.LVL44:
 370              	.L12:
 249:..\..\..\arduinoLCD\test\Pain Drain\libraries\lvgl\src\font/lv_font_loader.c ****         lv_fs_res_t res = lv_fs_seek(fp, cmaps_start + cmap_table[i].data_offset, LV_FS_SEEK_SET);
 371              		.loc 1 249 0 is_stmt 0 discriminator 1
 372 00d6 738A     		ldrh	r3, [r6, #18]
 373 00d8 DB05     		lsls	r3, r3, #23
 374 00da DB0D     		lsrs	r3, r3, #23
 375 00dc 9D42     		cmp	r5, r3
 376 00de A3D3     		bcc	.L16
 377              	.LBE4:
 296:..\..\..\arduinoLCD\test\Pain Drain\libraries\lvgl\src\font/lv_font_loader.c ****                             return false;
 297:..\..\..\arduinoLCD\test\Pain Drain\libraries\lvgl\src\font/lv_font_loader.c ****                         }
 298:..\..\..\arduinoLCD\test\Pain Drain\libraries\lvgl\src\font/lv_font_loader.c ****                     }
 299:..\..\..\arduinoLCD\test\Pain Drain\libraries\lvgl\src\font/lv_font_loader.c ****                     break;
 300:..\..\..\arduinoLCD\test\Pain Drain\libraries\lvgl\src\font/lv_font_loader.c ****                 }
 301:..\..\..\arduinoLCD\test\Pain Drain\libraries\lvgl\src\font/lv_font_loader.c ****             default:
 302:..\..\..\arduinoLCD\test\Pain Drain\libraries\lvgl\src\font/lv_font_loader.c ****                 LV_LOG_WARN("Unknown cmaps format type %d.", cmap_table[i].format_type);
 303:..\..\..\arduinoLCD\test\Pain Drain\libraries\lvgl\src\font/lv_font_loader.c ****                 return false;
ARM GAS  C:\Users\haske\AppData\Local\Temp\cc5ISl1k.s 			page 13


 304:..\..\..\arduinoLCD\test\Pain Drain\libraries\lvgl\src\font/lv_font_loader.c ****         }
 305:..\..\..\arduinoLCD\test\Pain Drain\libraries\lvgl\src\font/lv_font_loader.c ****     }
 306:..\..\..\arduinoLCD\test\Pain Drain\libraries\lvgl\src\font/lv_font_loader.c ****     return true;
 378              		.loc 1 306 0 is_stmt 1
 379 00e0 0120     		movs	r0, #1
 380              	.LBB13:
 381 00e2 0AE0     		b	.L11
 382              	.LVL45:
 383              	.L17:
 384              	.LBE13:
 246:..\..\..\arduinoLCD\test\Pain Drain\libraries\lvgl\src\font/lv_font_loader.c ****     }
 385              		.loc 1 246 0
 386 00e4 0020     		movs	r0, #0
 387 00e6 08E0     		b	.L11
 388              	.LVL46:
 389              	.L18:
 390              	.LBB14:
 391              	.LBB12:
 252:..\..\..\arduinoLCD\test\Pain Drain\libraries\lvgl\src\font/lv_font_loader.c ****         }
 392              		.loc 1 252 0
 393 00e8 0020     		movs	r0, #0
 394              	.LVL47:
 395 00ea 06E0     		b	.L11
 396              	.LVL48:
 397              	.L23:
 303:..\..\..\arduinoLCD\test\Pain Drain\libraries\lvgl\src\font/lv_font_loader.c ****         }
 398              		.loc 1 303 0
 399 00ec 0020     		movs	r0, #0
 400              	.LVL49:
 401 00ee 04E0     		b	.L11
 402              	.LVL50:
 403              	.L20:
 404              	.LBB10:
 270:..\..\..\arduinoLCD\test\Pain Drain\libraries\lvgl\src\font/lv_font_loader.c ****                     }
 405              		.loc 1 270 0
 406 00f0 0020     		movs	r0, #0
 407 00f2 02E0     		b	.L11
 408              	.LVL51:
 409              	.L21:
 410              	.LBE10:
 411              	.LBB11:
 287:..\..\..\arduinoLCD\test\Pain Drain\libraries\lvgl\src\font/lv_font_loader.c ****                     }
 412              		.loc 1 287 0
 413 00f4 0020     		movs	r0, #0
 414 00f6 00E0     		b	.L11
 415              	.L22:
 416              	.LBB9:
 296:..\..\..\arduinoLCD\test\Pain Drain\libraries\lvgl\src\font/lv_font_loader.c ****                         }
 417              		.loc 1 296 0
 418 00f8 0020     		movs	r0, #0
 419              	.LVL52:
 420              	.L11:
 421              	.LBE9:
 422              	.LBE11:
 423              	.LBE12:
 424              	.LBE14:
 307:..\..\..\arduinoLCD\test\Pain Drain\libraries\lvgl\src\font/lv_font_loader.c **** }
ARM GAS  C:\Users\haske\AppData\Local\Temp\cc5ISl1k.s 			page 14


 425              		.loc 1 307 0
 426 00fa 03B0     		add	sp, sp, #12
 427              	.LVL53:
 428              		@ sp needed
 429              	.LVL54:
 430              	.LVL55:
 431              	.LVL56:
 432 00fc 0CBC     		pop	{r2, r3}
 433 00fe 9146     		mov	r9, r2
 434 0100 9A46     		mov	r10, r3
 435 0102 F0BD     		pop	{r4, r5, r6, r7, pc}
 436              		.cfi_endproc
 437              	.LFE208:
 438              		.size	load_cmaps_tables, .-load_cmaps_tables
 439              		.section	.text.read_label,"ax",%progbits
 440              		.align	2
 441              		.code	16
 442              		.thumb_func
 443              		.type	read_label, %function
 444              	read_label:
 445              	.LFB207:
 226:..\..\..\arduinoLCD\test\Pain Drain\libraries\lvgl\src\font/lv_font_loader.c ****     lv_fs_seek(fp, start, LV_FS_SEEK_SET);
 446              		.loc 1 226 0
 447              		.cfi_startproc
 448              		@ args = 0, pretend = 0, frame = 8
 449              		@ frame_needed = 0, uses_anonymous_args = 0
 450              	.LVL57:
 451 0000 30B5     		push	{r4, r5, lr}
 452              		.cfi_def_cfa_offset 12
 453              		.cfi_offset 4, -12
 454              		.cfi_offset 5, -8
 455              		.cfi_offset 14, -4
 456 0002 83B0     		sub	sp, sp, #12
 457              		.cfi_def_cfa_offset 24
 458 0004 0400     		movs	r4, r0
 459 0006 1500     		movs	r5, r2
 227:..\..\..\arduinoLCD\test\Pain Drain\libraries\lvgl\src\font/lv_font_loader.c **** 
 460              		.loc 1 227 0
 461 0008 0022     		movs	r2, #0
 462              	.LVL58:
 463 000a FFF7FEFF 		bl	lv_fs_seek
 464              	.LVL59:
 232:..\..\..\arduinoLCD\test\Pain Drain\libraries\lvgl\src\font/lv_font_loader.c ****        || lv_fs_read(fp, buf, 4, NULL) != LV_FS_RES_OK
 465              		.loc 1 232 0
 466 000e 0023     		movs	r3, #0
 467 0010 0422     		movs	r2, #4
 468 0012 01A9     		add	r1, sp, #4
 469 0014 2000     		movs	r0, r4
 470 0016 FFF7FEFF 		bl	lv_fs_read
 471              	.LVL60:
 472 001a 0028     		cmp	r0, #0
 473 001c 10D1     		bne	.L26
 233:..\..\..\arduinoLCD\test\Pain Drain\libraries\lvgl\src\font/lv_font_loader.c ****        || memcmp(label, buf, 4) != 0) {
 474              		.loc 1 233 0
 475 001e 0023     		movs	r3, #0
 476 0020 0422     		movs	r2, #4
 477 0022 6946     		mov	r1, sp
ARM GAS  C:\Users\haske\AppData\Local\Temp\cc5ISl1k.s 			page 15


 478 0024 2000     		movs	r0, r4
 479 0026 FFF7FEFF 		bl	lv_fs_read
 480              	.LVL61:
 481 002a 0028     		cmp	r0, #0
 482 002c 0BD1     		bne	.L27
 234:..\..\..\arduinoLCD\test\Pain Drain\libraries\lvgl\src\font/lv_font_loader.c ****         LV_LOG_WARN("Error reading '%s' label.", label);
 483              		.loc 1 234 0
 484 002e 0422     		movs	r2, #4
 485 0030 6946     		mov	r1, sp
 486 0032 2800     		movs	r0, r5
 487 0034 FFF7FEFF 		bl	memcmp
 488              	.LVL62:
 489 0038 0028     		cmp	r0, #0
 490 003a 07D1     		bne	.L28
 239:..\..\..\arduinoLCD\test\Pain Drain\libraries\lvgl\src\font/lv_font_loader.c **** }
 491              		.loc 1 239 0
 492 003c 0198     		ldr	r0, [sp, #4]
 493 003e 07E0     		b	.L25
 494              	.L26:
 236:..\..\..\arduinoLCD\test\Pain Drain\libraries\lvgl\src\font/lv_font_loader.c ****     }
 495              		.loc 1 236 0
 496 0040 0120     		movs	r0, #1
 497 0042 4042     		rsbs	r0, r0, #0
 498 0044 04E0     		b	.L25
 499              	.L27:
 500 0046 0120     		movs	r0, #1
 501 0048 4042     		rsbs	r0, r0, #0
 502 004a 01E0     		b	.L25
 503              	.L28:
 504 004c 0120     		movs	r0, #1
 505 004e 4042     		rsbs	r0, r0, #0
 506              	.L25:
 240:..\..\..\arduinoLCD\test\Pain Drain\libraries\lvgl\src\font/lv_font_loader.c **** 
 507              		.loc 1 240 0
 508 0050 03B0     		add	sp, sp, #12
 509              		@ sp needed
 510              	.LVL63:
 511              	.LVL64:
 512 0052 30BD     		pop	{r4, r5, pc}
 513              		.cfi_endproc
 514              	.LFE207:
 515              		.size	read_label, .-read_label
 516              		.section	.text.load_cmaps,"ax",%progbits
 517              		.align	2
 518              		.code	16
 519              		.thumb_func
 520              		.type	load_cmaps, %function
 521              	load_cmaps:
 522              	.LFB209:
 308:..\..\..\arduinoLCD\test\Pain Drain\libraries\lvgl\src\font/lv_font_loader.c **** 
 309:..\..\..\arduinoLCD\test\Pain Drain\libraries\lvgl\src\font/lv_font_loader.c **** static int32_t load_cmaps(lv_fs_file_t * fp, lv_font_fmt_txt_dsc_t * font_dsc, uint32_t cmaps_start
 310:..\..\..\arduinoLCD\test\Pain Drain\libraries\lvgl\src\font/lv_font_loader.c **** {
 523              		.loc 1 310 0
 524              		.cfi_startproc
 525              		@ args = 0, pretend = 0, frame = 16
 526              		@ frame_needed = 0, uses_anonymous_args = 0
 527              	.LVL65:
ARM GAS  C:\Users\haske\AppData\Local\Temp\cc5ISl1k.s 			page 16


 528 0000 F0B5     		push	{r4, r5, r6, r7, lr}
 529              		.cfi_def_cfa_offset 20
 530              		.cfi_offset 4, -20
 531              		.cfi_offset 5, -16
 532              		.cfi_offset 6, -12
 533              		.cfi_offset 7, -8
 534              		.cfi_offset 14, -4
 535 0002 85B0     		sub	sp, sp, #20
 536              		.cfi_def_cfa_offset 40
 537 0004 0500     		movs	r5, r0
 538 0006 0E00     		movs	r6, r1
 539 0008 1300     		movs	r3, r2
 311:..\..\..\arduinoLCD\test\Pain Drain\libraries\lvgl\src\font/lv_font_loader.c ****     int32_t cmaps_length = read_label(fp, cmaps_start, "cmap");
 540              		.loc 1 311 0
 541 000a 214A     		ldr	r2, .L34
 542              	.LVL66:
 543 000c 0193     		str	r3, [sp, #4]
 544 000e 1900     		movs	r1, r3
 545              	.LVL67:
 546 0010 FFF7FEFF 		bl	read_label
 547              	.LVL68:
 548 0014 041E     		subs	r4, r0, #0
 549              	.LVL69:
 312:..\..\..\arduinoLCD\test\Pain Drain\libraries\lvgl\src\font/lv_font_loader.c ****     if(cmaps_length < 0) {
 550              		.loc 1 312 0
 551 0016 31DB     		blt	.L31
 313:..\..\..\arduinoLCD\test\Pain Drain\libraries\lvgl\src\font/lv_font_loader.c ****         return -1;
 314:..\..\..\arduinoLCD\test\Pain Drain\libraries\lvgl\src\font/lv_font_loader.c ****     }
 315:..\..\..\arduinoLCD\test\Pain Drain\libraries\lvgl\src\font/lv_font_loader.c **** 
 316:..\..\..\arduinoLCD\test\Pain Drain\libraries\lvgl\src\font/lv_font_loader.c ****     uint32_t cmaps_subtables_count;
 317:..\..\..\arduinoLCD\test\Pain Drain\libraries\lvgl\src\font/lv_font_loader.c ****     if(lv_fs_read(fp, &cmaps_subtables_count, sizeof(uint32_t), NULL) != LV_FS_RES_OK) {
 552              		.loc 1 317 0
 553 0018 0023     		movs	r3, #0
 554 001a 0422     		movs	r2, #4
 555 001c 03A9     		add	r1, sp, #12
 556 001e 2800     		movs	r0, r5
 557              	.LVL70:
 558 0020 FFF7FEFF 		bl	lv_fs_read
 559              	.LVL71:
 560 0024 0028     		cmp	r0, #0
 561 0026 2CD1     		bne	.L32
 318:..\..\..\arduinoLCD\test\Pain Drain\libraries\lvgl\src\font/lv_font_loader.c ****         return -1;
 319:..\..\..\arduinoLCD\test\Pain Drain\libraries\lvgl\src\font/lv_font_loader.c ****     }
 320:..\..\..\arduinoLCD\test\Pain Drain\libraries\lvgl\src\font/lv_font_loader.c **** 
 321:..\..\..\arduinoLCD\test\Pain Drain\libraries\lvgl\src\font/lv_font_loader.c ****     lv_font_fmt_txt_cmap_t * cmaps =
 322:..\..\..\arduinoLCD\test\Pain Drain\libraries\lvgl\src\font/lv_font_loader.c ****         lv_mem_alloc(cmaps_subtables_count * sizeof(lv_font_fmt_txt_cmap_t));
 562              		.loc 1 322 0
 563 0028 039B     		ldr	r3, [sp, #12]
 564 002a 9A00     		lsls	r2, r3, #2
 565 002c D318     		adds	r3, r2, r3
 566 002e 9800     		lsls	r0, r3, #2
 321:..\..\..\arduinoLCD\test\Pain Drain\libraries\lvgl\src\font/lv_font_loader.c ****         lv_mem_alloc(cmaps_subtables_count * sizeof(lv_font_fmt_txt_cmap_t));
 567              		.loc 1 321 0
 568 0030 FFF7FEFF 		bl	lv_mem_alloc
 569              	.LVL72:
 570 0034 0700     		movs	r7, r0
 571              	.LVL73:
ARM GAS  C:\Users\haske\AppData\Local\Temp\cc5ISl1k.s 			page 17


 323:..\..\..\arduinoLCD\test\Pain Drain\libraries\lvgl\src\font/lv_font_loader.c **** 
 324:..\..\..\arduinoLCD\test\Pain Drain\libraries\lvgl\src\font/lv_font_loader.c ****     memset(cmaps, 0, cmaps_subtables_count * sizeof(lv_font_fmt_txt_cmap_t));
 572              		.loc 1 324 0
 573 0036 039B     		ldr	r3, [sp, #12]
 574 0038 9A00     		lsls	r2, r3, #2
 575 003a D318     		adds	r3, r2, r3
 576 003c 9A00     		lsls	r2, r3, #2
 577 003e 0021     		movs	r1, #0
 578 0040 FFF7FEFF 		bl	memset
 579              	.LVL74:
 325:..\..\..\arduinoLCD\test\Pain Drain\libraries\lvgl\src\font/lv_font_loader.c **** 
 326:..\..\..\arduinoLCD\test\Pain Drain\libraries\lvgl\src\font/lv_font_loader.c ****     font_dsc->cmaps = cmaps;
 580              		.loc 1 326 0
 581 0044 B760     		str	r7, [r6, #8]
 327:..\..\..\arduinoLCD\test\Pain Drain\libraries\lvgl\src\font/lv_font_loader.c ****     font_dsc->cmap_num = cmaps_subtables_count;
 582              		.loc 1 327 0
 583 0046 0399     		ldr	r1, [sp, #12]
 584 0048 C805     		lsls	r0, r1, #23
 585 004a C00D     		lsrs	r0, r0, #23
 586 004c 738A     		ldrh	r3, [r6, #18]
 587 004e 5B0A     		lsrs	r3, r3, #9
 588 0050 5B02     		lsls	r3, r3, #9
 589 0052 0343     		orrs	r3, r0
 590 0054 7382     		strh	r3, [r6, #18]
 328:..\..\..\arduinoLCD\test\Pain Drain\libraries\lvgl\src\font/lv_font_loader.c **** 
 329:..\..\..\arduinoLCD\test\Pain Drain\libraries\lvgl\src\font/lv_font_loader.c ****     cmap_table_bin_t * cmaps_tables = lv_mem_alloc(sizeof(cmap_table_bin_t) * font_dsc->cmap_num);
 591              		.loc 1 329 0
 592 0056 0001     		lsls	r0, r0, #4
 593 0058 FFF7FEFF 		bl	lv_mem_alloc
 594              	.LVL75:
 595 005c 0700     		movs	r7, r0
 596              	.LVL76:
 330:..\..\..\arduinoLCD\test\Pain Drain\libraries\lvgl\src\font/lv_font_loader.c **** 
 331:..\..\..\arduinoLCD\test\Pain Drain\libraries\lvgl\src\font/lv_font_loader.c ****     bool success = load_cmaps_tables(fp, font_dsc, cmaps_start, cmaps_tables);
 597              		.loc 1 331 0
 598 005e 0300     		movs	r3, r0
 599 0060 019A     		ldr	r2, [sp, #4]
 600 0062 3100     		movs	r1, r6
 601 0064 2800     		movs	r0, r5
 602              	.LVL77:
 603 0066 FFF7FEFF 		bl	load_cmaps_tables
 604              	.LVL78:
 605 006a 0500     		movs	r5, r0
 606              	.LVL79:
 332:..\..\..\arduinoLCD\test\Pain Drain\libraries\lvgl\src\font/lv_font_loader.c **** 
 333:..\..\..\arduinoLCD\test\Pain Drain\libraries\lvgl\src\font/lv_font_loader.c ****     lv_mem_free(cmaps_tables);
 607              		.loc 1 333 0
 608 006c 3800     		movs	r0, r7
 609 006e FFF7FEFF 		bl	lv_mem_free
 610              	.LVL80:
 334:..\..\..\arduinoLCD\test\Pain Drain\libraries\lvgl\src\font/lv_font_loader.c **** 
 335:..\..\..\arduinoLCD\test\Pain Drain\libraries\lvgl\src\font/lv_font_loader.c ****     return success ? cmaps_length : -1;
 611              		.loc 1 335 0
 612 0072 002D     		cmp	r5, #0
 613 0074 08D1     		bne	.L33
 614 0076 0120     		movs	r0, #1
 615 0078 4042     		rsbs	r0, r0, #0
ARM GAS  C:\Users\haske\AppData\Local\Temp\cc5ISl1k.s 			page 18


 616 007a 06E0     		b	.L30
 617              	.LVL81:
 618              	.L31:
 313:..\..\..\arduinoLCD\test\Pain Drain\libraries\lvgl\src\font/lv_font_loader.c ****     }
 619              		.loc 1 313 0
 620 007c 0120     		movs	r0, #1
 621              	.LVL82:
 622 007e 4042     		rsbs	r0, r0, #0
 623 0080 03E0     		b	.L30
 624              	.L32:
 318:..\..\..\arduinoLCD\test\Pain Drain\libraries\lvgl\src\font/lv_font_loader.c ****     }
 625              		.loc 1 318 0
 626 0082 0120     		movs	r0, #1
 627 0084 4042     		rsbs	r0, r0, #0
 628 0086 00E0     		b	.L30
 629              	.LVL83:
 630              	.L33:
 631              		.loc 1 335 0
 632 0088 2000     		movs	r0, r4
 633              	.LVL84:
 634              	.L30:
 336:..\..\..\arduinoLCD\test\Pain Drain\libraries\lvgl\src\font/lv_font_loader.c **** }
 635              		.loc 1 336 0
 636 008a 05B0     		add	sp, sp, #20
 637              		@ sp needed
 638              	.LVL85:
 639              	.LVL86:
 640 008c F0BD     		pop	{r4, r5, r6, r7, pc}
 641              	.L35:
 642 008e C046     		.align	2
 643              	.L34:
 644 0090 00000000 		.word	.LC0
 645              		.cfi_endproc
 646              	.LFE209:
 647              		.size	load_cmaps, .-load_cmaps
 648              		.section	.text.load_glyph,"ax",%progbits
 649              		.align	2
 650              		.code	16
 651              		.thumb_func
 652              		.type	load_glyph, %function
 653              	load_glyph:
 654              	.LFB210:
 337:..\..\..\arduinoLCD\test\Pain Drain\libraries\lvgl\src\font/lv_font_loader.c **** 
 338:..\..\..\arduinoLCD\test\Pain Drain\libraries\lvgl\src\font/lv_font_loader.c **** static int32_t load_glyph(lv_fs_file_t * fp, lv_font_fmt_txt_dsc_t * font_dsc,
 339:..\..\..\arduinoLCD\test\Pain Drain\libraries\lvgl\src\font/lv_font_loader.c ****                           uint32_t start, uint32_t * glyph_offset, uint32_t loca_count, font_header
 340:..\..\..\arduinoLCD\test\Pain Drain\libraries\lvgl\src\font/lv_font_loader.c **** {
 655              		.loc 1 340 0
 656              		.cfi_startproc
 657              		@ args = 8, pretend = 0, frame = 48
 658              		@ frame_needed = 0, uses_anonymous_args = 0
 659              	.LVL87:
 660 0000 F0B5     		push	{r4, r5, r6, r7, lr}
 661              		.cfi_def_cfa_offset 20
 662              		.cfi_offset 4, -20
 663              		.cfi_offset 5, -16
 664              		.cfi_offset 6, -12
 665              		.cfi_offset 7, -8
ARM GAS  C:\Users\haske\AppData\Local\Temp\cc5ISl1k.s 			page 19


 666              		.cfi_offset 14, -4
 667 0002 5F46     		mov	r7, fp
 668 0004 5646     		mov	r6, r10
 669 0006 4D46     		mov	r5, r9
 670 0008 4446     		mov	r4, r8
 671 000a F0B4     		push	{r4, r5, r6, r7}
 672              		.cfi_def_cfa_offset 36
 673              		.cfi_offset 8, -36
 674              		.cfi_offset 9, -32
 675              		.cfi_offset 10, -28
 676              		.cfi_offset 11, -24
 677 000c 8DB0     		sub	sp, sp, #52
 678              		.cfi_def_cfa_offset 88
 679 000e 0190     		str	r0, [sp, #4]
 680 0010 8846     		mov	r8, r1
 681 0012 1100     		movs	r1, r2
 682              	.LVL88:
 683 0014 0292     		str	r2, [sp, #8]
 684 0016 9B46     		mov	fp, r3
 685 0018 179C     		ldr	r4, [sp, #92]
 341:..\..\..\arduinoLCD\test\Pain Drain\libraries\lvgl\src\font/lv_font_loader.c ****     int32_t glyph_length = read_label(fp, start, "glyf");
 686              		.loc 1 341 0
 687 001a C44A     		ldr	r2, .L60
 688              	.LVL89:
 689 001c FFF7FEFF 		bl	read_label
 690              	.LVL90:
 691 0020 0490     		str	r0, [sp, #16]
 692              	.LVL91:
 342:..\..\..\arduinoLCD\test\Pain Drain\libraries\lvgl\src\font/lv_font_loader.c ****     if(glyph_length < 0) {
 693              		.loc 1 342 0
 694 0022 0028     		cmp	r0, #0
 695 0024 00DA     		bge	.LCB739
 696 0026 77E1     		b	.L56	@long jump
 697              	.LCB739:
 343:..\..\..\arduinoLCD\test\Pain Drain\libraries\lvgl\src\font/lv_font_loader.c ****         return -1;
 344:..\..\..\arduinoLCD\test\Pain Drain\libraries\lvgl\src\font/lv_font_loader.c ****     }
 345:..\..\..\arduinoLCD\test\Pain Drain\libraries\lvgl\src\font/lv_font_loader.c **** 
 346:..\..\..\arduinoLCD\test\Pain Drain\libraries\lvgl\src\font/lv_font_loader.c ****     lv_font_fmt_txt_glyph_dsc_t * glyph_dsc = (lv_font_fmt_txt_glyph_dsc_t *)
 347:..\..\..\arduinoLCD\test\Pain Drain\libraries\lvgl\src\font/lv_font_loader.c ****                                               lv_mem_alloc(loca_count * sizeof(lv_font_fmt_txt_glyp
 698              		.loc 1 347 0
 699 0028 169B     		ldr	r3, [sp, #88]
 700 002a DE00     		lsls	r6, r3, #3
 346:..\..\..\arduinoLCD\test\Pain Drain\libraries\lvgl\src\font/lv_font_loader.c ****                                               lv_mem_alloc(loca_count * sizeof(lv_font_fmt_txt_glyp
 701              		.loc 1 346 0
 702 002c 3000     		movs	r0, r6
 703              	.LVL92:
 704 002e FFF7FEFF 		bl	lv_mem_alloc
 705              	.LVL93:
 706 0032 0500     		movs	r5, r0
 707 0034 0390     		str	r0, [sp, #12]
 708              	.LVL94:
 348:..\..\..\arduinoLCD\test\Pain Drain\libraries\lvgl\src\font/lv_font_loader.c **** 
 349:..\..\..\arduinoLCD\test\Pain Drain\libraries\lvgl\src\font/lv_font_loader.c ****     memset(glyph_dsc, 0, loca_count * sizeof(lv_font_fmt_txt_glyph_dsc_t));
 709              		.loc 1 349 0
 710 0036 3200     		movs	r2, r6
 711 0038 0021     		movs	r1, #0
 712 003a FFF7FEFF 		bl	memset
ARM GAS  C:\Users\haske\AppData\Local\Temp\cc5ISl1k.s 			page 20


 713              	.LVL95:
 350:..\..\..\arduinoLCD\test\Pain Drain\libraries\lvgl\src\font/lv_font_loader.c **** 
 351:..\..\..\arduinoLCD\test\Pain Drain\libraries\lvgl\src\font/lv_font_loader.c ****     font_dsc->glyph_dsc = glyph_dsc;
 714              		.loc 1 351 0
 715 003e 4346     		mov	r3, r8
 716 0040 5D60     		str	r5, [r3, #4]
 717              	.LVL96:
 718              	.LBB15:
 352:..\..\..\arduinoLCD\test\Pain Drain\libraries\lvgl\src\font/lv_font_loader.c **** 
 353:..\..\..\arduinoLCD\test\Pain Drain\libraries\lvgl\src\font/lv_font_loader.c ****     int cur_bmp_size = 0;
 354:..\..\..\arduinoLCD\test\Pain Drain\libraries\lvgl\src\font/lv_font_loader.c **** 
 355:..\..\..\arduinoLCD\test\Pain Drain\libraries\lvgl\src\font/lv_font_loader.c ****     for(unsigned int i = 0; i < loca_count; ++i) {
 719              		.loc 1 355 0
 720 0042 0027     		movs	r7, #0
 721              	.LBE15:
 353:..\..\..\arduinoLCD\test\Pain Drain\libraries\lvgl\src\font/lv_font_loader.c **** 
 722              		.loc 1 353 0
 723 0044 0023     		movs	r3, #0
 724 0046 9A46     		mov	r10, r3
 725 0048 4346     		mov	r3, r8
 726 004a 0593     		str	r3, [sp, #20]
 727 004c 169B     		ldr	r3, [sp, #88]
 728 004e 9946     		mov	r9, r3
 729              	.LBB18:
 730              		.loc 1 355 0
 731 0050 B5E0     		b	.L38
 732              	.LVL97:
 733              	.L46:
 734              	.LBB16:
 356:..\..\..\arduinoLCD\test\Pain Drain\libraries\lvgl\src\font/lv_font_loader.c ****         lv_font_fmt_txt_glyph_dsc_t * gdsc = &glyph_dsc[i];
 735              		.loc 1 356 0
 736 0052 FD00     		lsls	r5, r7, #3
 737 0054 039B     		ldr	r3, [sp, #12]
 738 0056 9C46     		mov	ip, r3
 739 0058 6544     		add	r5, r5, ip
 740              	.LVL98:
 357:..\..\..\arduinoLCD\test\Pain Drain\libraries\lvgl\src\font/lv_font_loader.c **** 
 358:..\..\..\arduinoLCD\test\Pain Drain\libraries\lvgl\src\font/lv_font_loader.c ****         lv_fs_res_t res = lv_fs_seek(fp, start + glyph_offset[i], LV_FS_SEEK_SET);
 741              		.loc 1 358 0
 742 005a BE00     		lsls	r6, r7, #2
 743 005c 5E44     		add	r6, r6, fp
 744 005e 029B     		ldr	r3, [sp, #8]
 745 0060 3268     		ldr	r2, [r6]
 746 0062 9446     		mov	ip, r2
 747 0064 6344     		add	r3, r3, ip
 748 0066 1900     		movs	r1, r3
 749 0068 0022     		movs	r2, #0
 750 006a 0198     		ldr	r0, [sp, #4]
 751 006c FFF7FEFF 		bl	lv_fs_seek
 752              	.LVL99:
 753 0070 08AB     		add	r3, sp, #32
 754 0072 D871     		strb	r0, [r3, #7]
 359:..\..\..\arduinoLCD\test\Pain Drain\libraries\lvgl\src\font/lv_font_loader.c ****         if(res != LV_FS_RES_OK) {
 755              		.loc 1 359 0
 756 0074 0028     		cmp	r0, #0
 757 0076 00D0     		beq	.LCB803
 758 0078 9EE0     		b	.L39	@long jump
ARM GAS  C:\Users\haske\AppData\Local\Temp\cc5ISl1k.s 			page 21


 759              	.LCB803:
 360:..\..\..\arduinoLCD\test\Pain Drain\libraries\lvgl\src\font/lv_font_loader.c ****             return -1;
 361:..\..\..\arduinoLCD\test\Pain Drain\libraries\lvgl\src\font/lv_font_loader.c ****         }
 362:..\..\..\arduinoLCD\test\Pain Drain\libraries\lvgl\src\font/lv_font_loader.c **** 
 363:..\..\..\arduinoLCD\test\Pain Drain\libraries\lvgl\src\font/lv_font_loader.c ****         bit_iterator_t bit_it = init_bit_iterator(fp);
 760              		.loc 1 363 0
 761 007a 0199     		ldr	r1, [sp, #4]
 762 007c 0AA8     		add	r0, sp, #40
 763 007e FFF7FEFF 		bl	init_bit_iterator
 764              	.LVL100:
 364:..\..\..\arduinoLCD\test\Pain Drain\libraries\lvgl\src\font/lv_font_loader.c **** 
 365:..\..\..\arduinoLCD\test\Pain Drain\libraries\lvgl\src\font/lv_font_loader.c ****         if(header->advance_width_bits == 0) {
 765              		.loc 1 365 0
 766 0082 2023     		movs	r3, #32
 767 0084 E15C     		ldrb	r1, [r4, r3]
 768 0086 0029     		cmp	r1, #0
 769 0088 07D1     		bne	.L40
 366:..\..\..\arduinoLCD\test\Pain Drain\libraries\lvgl\src\font/lv_font_loader.c ****             gdsc->adv_w = header->default_advance_width;
 770              		.loc 1 366 0
 771 008a E38A     		ldrh	r3, [r4, #22]
 772 008c 1A01     		lsls	r2, r3, #4
 773 008e 6B88     		ldrh	r3, [r5, #2]
 774 0090 0F31     		adds	r1, r1, #15
 775 0092 0B40     		ands	r3, r1
 776 0094 1343     		orrs	r3, r2
 777 0096 6B80     		strh	r3, [r5, #2]
 778 0098 12E0     		b	.L41
 779              	.L40:
 367:..\..\..\arduinoLCD\test\Pain Drain\libraries\lvgl\src\font/lv_font_loader.c ****         }
 368:..\..\..\arduinoLCD\test\Pain Drain\libraries\lvgl\src\font/lv_font_loader.c ****         else {
 369:..\..\..\arduinoLCD\test\Pain Drain\libraries\lvgl\src\font/lv_font_loader.c ****             gdsc->adv_w = read_bits(&bit_it, header->advance_width_bits, &res);
 780              		.loc 1 369 0
 781 009a 0723     		movs	r3, #7
 782 009c 08AA     		add	r2, sp, #32
 783 009e 9446     		mov	ip, r2
 784 00a0 6344     		add	r3, r3, ip
 785 00a2 9846     		mov	r8, r3
 786 00a4 1A00     		movs	r2, r3
 787 00a6 0AA8     		add	r0, sp, #40
 788 00a8 FFF7FEFF 		bl	read_bits
 789              	.LVL101:
 790 00ac 0301     		lsls	r3, r0, #4
 791 00ae 6A88     		ldrh	r2, [r5, #2]
 792 00b0 0F20     		movs	r0, #15
 793 00b2 1040     		ands	r0, r2
 794 00b4 1843     		orrs	r0, r3
 795 00b6 6880     		strh	r0, [r5, #2]
 370:..\..\..\arduinoLCD\test\Pain Drain\libraries\lvgl\src\font/lv_font_loader.c ****             if(res != LV_FS_RES_OK) {
 796              		.loc 1 370 0
 797 00b8 4346     		mov	r3, r8
 798 00ba 1B78     		ldrb	r3, [r3]
 799 00bc 002B     		cmp	r3, #0
 800 00be 7BD1     		bne	.L39
 801              	.L41:
 371:..\..\..\arduinoLCD\test\Pain Drain\libraries\lvgl\src\font/lv_font_loader.c ****                 return -1;
 372:..\..\..\arduinoLCD\test\Pain Drain\libraries\lvgl\src\font/lv_font_loader.c ****             }
 373:..\..\..\arduinoLCD\test\Pain Drain\libraries\lvgl\src\font/lv_font_loader.c ****         }
ARM GAS  C:\Users\haske\AppData\Local\Temp\cc5ISl1k.s 			page 22


 374:..\..\..\arduinoLCD\test\Pain Drain\libraries\lvgl\src\font/lv_font_loader.c **** 
 375:..\..\..\arduinoLCD\test\Pain Drain\libraries\lvgl\src\font/lv_font_loader.c ****         if(header->advance_width_format == 0) {
 802              		.loc 1 375 0
 803 00c0 237F     		ldrb	r3, [r4, #28]
 804 00c2 002B     		cmp	r3, #0
 805 00c4 07D1     		bne	.L42
 376:..\..\..\arduinoLCD\test\Pain Drain\libraries\lvgl\src\font/lv_font_loader.c ****             gdsc->adv_w *= 16;
 806              		.loc 1 376 0
 807 00c6 6B88     		ldrh	r3, [r5, #2]
 808 00c8 1A09     		lsrs	r2, r3, #4
 809 00ca 1206     		lsls	r2, r2, #24
 810 00cc 120C     		lsrs	r2, r2, #16
 811 00ce 0F21     		movs	r1, #15
 812 00d0 0B40     		ands	r3, r1
 813 00d2 1343     		orrs	r3, r2
 814 00d4 6B80     		strh	r3, [r5, #2]
 815              	.L42:
 377:..\..\..\arduinoLCD\test\Pain Drain\libraries\lvgl\src\font/lv_font_loader.c ****         }
 378:..\..\..\arduinoLCD\test\Pain Drain\libraries\lvgl\src\font/lv_font_loader.c **** 
 379:..\..\..\arduinoLCD\test\Pain Drain\libraries\lvgl\src\font/lv_font_loader.c ****         gdsc->ofs_x = read_bits_signed(&bit_it, header->xy_bits, &res);
 816              		.loc 1 379 0
 817 00d6 A17F     		ldrb	r1, [r4, #30]
 818 00d8 0723     		movs	r3, #7
 819 00da 08AA     		add	r2, sp, #32
 820 00dc 9446     		mov	ip, r2
 821 00de 6344     		add	r3, r3, ip
 822 00e0 9846     		mov	r8, r3
 823 00e2 1A00     		movs	r2, r3
 824 00e4 0AA8     		add	r0, sp, #40
 825 00e6 FFF7FEFF 		bl	read_bits_signed
 826              	.LVL102:
 827 00ea A871     		strb	r0, [r5, #6]
 380:..\..\..\arduinoLCD\test\Pain Drain\libraries\lvgl\src\font/lv_font_loader.c ****         if(res != LV_FS_RES_OK) {
 828              		.loc 1 380 0
 829 00ec 4346     		mov	r3, r8
 830 00ee 1B78     		ldrb	r3, [r3]
 831 00f0 002B     		cmp	r3, #0
 832 00f2 61D1     		bne	.L39
 381:..\..\..\arduinoLCD\test\Pain Drain\libraries\lvgl\src\font/lv_font_loader.c ****             return -1;
 382:..\..\..\arduinoLCD\test\Pain Drain\libraries\lvgl\src\font/lv_font_loader.c ****         }
 383:..\..\..\arduinoLCD\test\Pain Drain\libraries\lvgl\src\font/lv_font_loader.c **** 
 384:..\..\..\arduinoLCD\test\Pain Drain\libraries\lvgl\src\font/lv_font_loader.c ****         gdsc->ofs_y = read_bits_signed(&bit_it, header->xy_bits, &res);
 833              		.loc 1 384 0
 834 00f4 A17F     		ldrb	r1, [r4, #30]
 835 00f6 0733     		adds	r3, r3, #7
 836 00f8 08AA     		add	r2, sp, #32
 837 00fa 9446     		mov	ip, r2
 838 00fc 6344     		add	r3, r3, ip
 839 00fe 9846     		mov	r8, r3
 840 0100 1A00     		movs	r2, r3
 841 0102 0AA8     		add	r0, sp, #40
 842 0104 FFF7FEFF 		bl	read_bits_signed
 843              	.LVL103:
 844 0108 E871     		strb	r0, [r5, #7]
 385:..\..\..\arduinoLCD\test\Pain Drain\libraries\lvgl\src\font/lv_font_loader.c ****         if(res != LV_FS_RES_OK) {
 845              		.loc 1 385 0
 846 010a 4346     		mov	r3, r8
ARM GAS  C:\Users\haske\AppData\Local\Temp\cc5ISl1k.s 			page 23


 847 010c 1B78     		ldrb	r3, [r3]
 848 010e 002B     		cmp	r3, #0
 849 0110 52D1     		bne	.L39
 386:..\..\..\arduinoLCD\test\Pain Drain\libraries\lvgl\src\font/lv_font_loader.c ****             return -1;
 387:..\..\..\arduinoLCD\test\Pain Drain\libraries\lvgl\src\font/lv_font_loader.c ****         }
 388:..\..\..\arduinoLCD\test\Pain Drain\libraries\lvgl\src\font/lv_font_loader.c **** 
 389:..\..\..\arduinoLCD\test\Pain Drain\libraries\lvgl\src\font/lv_font_loader.c ****         gdsc->box_w = read_bits(&bit_it, header->wh_bits, &res);
 850              		.loc 1 389 0
 851 0112 E17F     		ldrb	r1, [r4, #31]
 852 0114 0733     		adds	r3, r3, #7
 853 0116 08AA     		add	r2, sp, #32
 854 0118 9446     		mov	ip, r2
 855 011a 6344     		add	r3, r3, ip
 856 011c 9846     		mov	r8, r3
 857 011e 1A00     		movs	r2, r3
 858 0120 0AA8     		add	r0, sp, #40
 859 0122 FFF7FEFF 		bl	read_bits
 860              	.LVL104:
 861 0126 2871     		strb	r0, [r5, #4]
 390:..\..\..\arduinoLCD\test\Pain Drain\libraries\lvgl\src\font/lv_font_loader.c ****         if(res != LV_FS_RES_OK) {
 862              		.loc 1 390 0
 863 0128 4346     		mov	r3, r8
 864 012a 1B78     		ldrb	r3, [r3]
 865 012c 002B     		cmp	r3, #0
 866 012e 43D1     		bne	.L39
 391:..\..\..\arduinoLCD\test\Pain Drain\libraries\lvgl\src\font/lv_font_loader.c ****             return -1;
 392:..\..\..\arduinoLCD\test\Pain Drain\libraries\lvgl\src\font/lv_font_loader.c ****         }
 393:..\..\..\arduinoLCD\test\Pain Drain\libraries\lvgl\src\font/lv_font_loader.c **** 
 394:..\..\..\arduinoLCD\test\Pain Drain\libraries\lvgl\src\font/lv_font_loader.c ****         gdsc->box_h = read_bits(&bit_it, header->wh_bits, &res);
 867              		.loc 1 394 0
 868 0130 E17F     		ldrb	r1, [r4, #31]
 869 0132 0733     		adds	r3, r3, #7
 870 0134 08AA     		add	r2, sp, #32
 871 0136 9446     		mov	ip, r2
 872 0138 6344     		add	r3, r3, ip
 873 013a 9846     		mov	r8, r3
 874 013c 1A00     		movs	r2, r3
 875 013e 0AA8     		add	r0, sp, #40
 876 0140 FFF7FEFF 		bl	read_bits
 877              	.LVL105:
 878 0144 6871     		strb	r0, [r5, #5]
 395:..\..\..\arduinoLCD\test\Pain Drain\libraries\lvgl\src\font/lv_font_loader.c ****         if(res != LV_FS_RES_OK) {
 879              		.loc 1 395 0
 880 0146 4346     		mov	r3, r8
 881 0148 1B78     		ldrb	r3, [r3]
 882 014a 002B     		cmp	r3, #0
 883 014c 34D1     		bne	.L39
 396:..\..\..\arduinoLCD\test\Pain Drain\libraries\lvgl\src\font/lv_font_loader.c ****             return -1;
 397:..\..\..\arduinoLCD\test\Pain Drain\libraries\lvgl\src\font/lv_font_loader.c ****         }
 398:..\..\..\arduinoLCD\test\Pain Drain\libraries\lvgl\src\font/lv_font_loader.c **** 
 399:..\..\..\arduinoLCD\test\Pain Drain\libraries\lvgl\src\font/lv_font_loader.c ****         int nbits = header->advance_width_bits + 2 * header->xy_bits + 2 * header->wh_bits;
 884              		.loc 1 399 0
 885 014e 2033     		adds	r3, r3, #32
 886 0150 E25C     		ldrb	r2, [r4, r3]
 887 0152 A37F     		ldrb	r3, [r4, #30]
 888 0154 5B00     		lsls	r3, r3, #1
 889 0156 D218     		adds	r2, r2, r3
ARM GAS  C:\Users\haske\AppData\Local\Temp\cc5ISl1k.s 			page 24


 890 0158 E37F     		ldrb	r3, [r4, #31]
 891 015a 5B00     		lsls	r3, r3, #1
 892 015c D318     		adds	r3, r2, r3
 893              	.LVL106:
 400:..\..\..\arduinoLCD\test\Pain Drain\libraries\lvgl\src\font/lv_font_loader.c ****         int next_offset = (i < loca_count - 1) ? glyph_offset[i + 1] : (uint32_t)glyph_length;
 894              		.loc 1 400 0
 895 015e 4A46     		mov	r2, r9
 896 0160 013A     		subs	r2, r2, #1
 897 0162 9742     		cmp	r7, r2
 898 0164 04D2     		bcs	.L57
 899              		.loc 1 400 0 is_stmt 0 discriminator 1
 900 0166 7A1C     		adds	r2, r7, #1
 901 0168 9200     		lsls	r2, r2, #2
 902 016a 5946     		mov	r1, fp
 903 016c 5158     		ldr	r1, [r2, r1]
 904 016e 00E0     		b	.L43
 905              	.L57:
 906              		.loc 1 400 0
 907 0170 0499     		ldr	r1, [sp, #16]
 908              	.L43:
 909              	.LVL107:
 401:..\..\..\arduinoLCD\test\Pain Drain\libraries\lvgl\src\font/lv_font_loader.c ****         int bmp_size = next_offset - glyph_offset[i] - nbits / 8;
 910              		.loc 1 401 0 is_stmt 1 discriminator 4
 911 0172 3268     		ldr	r2, [r6]
 912 0174 8A1A     		subs	r2, r1, r2
 913 0176 D917     		asrs	r1, r3, #31
 914              	.LVL108:
 915 0178 0720     		movs	r0, #7
 916 017a 0140     		ands	r1, r0
 917 017c CB18     		adds	r3, r1, r3
 918              	.LVL109:
 919 017e DB10     		asrs	r3, r3, #3
 920 0180 D31A     		subs	r3, r2, r3
 921              	.LVL110:
 402:..\..\..\arduinoLCD\test\Pain Drain\libraries\lvgl\src\font/lv_font_loader.c **** 
 403:..\..\..\arduinoLCD\test\Pain Drain\libraries\lvgl\src\font/lv_font_loader.c ****         if(i == 0) {
 922              		.loc 1 403 0 discriminator 4
 923 0182 002F     		cmp	r7, #0
 924 0184 08D1     		bne	.L44
 404:..\..\..\arduinoLCD\test\Pain Drain\libraries\lvgl\src\font/lv_font_loader.c ****             gdsc->adv_w = 0;
 925              		.loc 1 404 0
 926 0186 6A88     		ldrh	r2, [r5, #2]
 927 0188 0F21     		movs	r1, #15
 928 018a 0A40     		ands	r2, r1
 929 018c 6A80     		strh	r2, [r5, #2]
 930              	.LVL111:
 405:..\..\..\arduinoLCD\test\Pain Drain\libraries\lvgl\src\font/lv_font_loader.c ****             gdsc->box_w = 0;
 931              		.loc 1 405 0
 932 018e 0022     		movs	r2, #0
 933 0190 2A71     		strb	r2, [r5, #4]
 406:..\..\..\arduinoLCD\test\Pain Drain\libraries\lvgl\src\font/lv_font_loader.c ****             gdsc->box_h = 0;
 934              		.loc 1 406 0
 935 0192 6A71     		strb	r2, [r5, #5]
 407:..\..\..\arduinoLCD\test\Pain Drain\libraries\lvgl\src\font/lv_font_loader.c ****             gdsc->ofs_x = 0;
 936              		.loc 1 407 0
 937 0194 AA71     		strb	r2, [r5, #6]
 408:..\..\..\arduinoLCD\test\Pain Drain\libraries\lvgl\src\font/lv_font_loader.c ****             gdsc->ofs_y = 0;
ARM GAS  C:\Users\haske\AppData\Local\Temp\cc5ISl1k.s 			page 25


 938              		.loc 1 408 0
 939 0196 EA71     		strb	r2, [r5, #7]
 940              	.L44:
 409:..\..\..\arduinoLCD\test\Pain Drain\libraries\lvgl\src\font/lv_font_loader.c ****         }
 410:..\..\..\arduinoLCD\test\Pain Drain\libraries\lvgl\src\font/lv_font_loader.c **** 
 411:..\..\..\arduinoLCD\test\Pain Drain\libraries\lvgl\src\font/lv_font_loader.c ****         gdsc->bitmap_index = cur_bmp_size;
 941              		.loc 1 411 0
 942 0198 5246     		mov	r2, r10
 943 019a 1203     		lsls	r2, r2, #12
 944 019c 110B     		lsrs	r1, r2, #12
 945 019e 2A68     		ldr	r2, [r5]
 946 01a0 120D     		lsrs	r2, r2, #20
 947 01a2 1205     		lsls	r2, r2, #20
 948 01a4 0A43     		orrs	r2, r1
 949 01a6 2A60     		str	r2, [r5]
 412:..\..\..\arduinoLCD\test\Pain Drain\libraries\lvgl\src\font/lv_font_loader.c ****         if(gdsc->box_w * gdsc->box_h != 0) {
 950              		.loc 1 412 0
 951 01a8 2979     		ldrb	r1, [r5, #4]
 952 01aa 6A79     		ldrb	r2, [r5, #5]
 953 01ac 4A43     		muls	r2, r1
 954 01ae 002A     		cmp	r2, #0
 955 01b0 00D0     		beq	.L45
 413:..\..\..\arduinoLCD\test\Pain Drain\libraries\lvgl\src\font/lv_font_loader.c ****             cur_bmp_size += bmp_size;
 956              		.loc 1 413 0
 957 01b2 9A44     		add	r10, r10, r3
 958              	.LVL112:
 959              	.L45:
 960              	.LBE16:
 355:..\..\..\arduinoLCD\test\Pain Drain\libraries\lvgl\src\font/lv_font_loader.c ****         lv_font_fmt_txt_glyph_dsc_t * gdsc = &glyph_dsc[i];
 961              		.loc 1 355 0
 962 01b4 0137     		adds	r7, r7, #1
 963              	.LVL113:
 964 01b6 02E0     		b	.L38
 965              	.LVL114:
 966              	.L39:
 967              	.LBB17:
 360:..\..\..\arduinoLCD\test\Pain Drain\libraries\lvgl\src\font/lv_font_loader.c ****         }
 968              		.loc 1 360 0 discriminator 1
 969 01b8 0120     		movs	r0, #1
 970 01ba 4042     		rsbs	r0, r0, #0
 971 01bc AEE0     		b	.L37
 972              	.LVL115:
 973              	.L38:
 974              	.LBE17:
 355:..\..\..\arduinoLCD\test\Pain Drain\libraries\lvgl\src\font/lv_font_loader.c ****         lv_font_fmt_txt_glyph_dsc_t * gdsc = &glyph_dsc[i];
 975              		.loc 1 355 0 discriminator 1
 976 01be 4F45     		cmp	r7, r9
 977 01c0 00D2     		bcs	.LCB1028
 978 01c2 46E7     		b	.L46	@long jump
 979              	.LCB1028:
 980 01c4 059B     		ldr	r3, [sp, #20]
 981 01c6 9846     		mov	r8, r3
 982              	.LBE18:
 414:..\..\..\arduinoLCD\test\Pain Drain\libraries\lvgl\src\font/lv_font_loader.c ****         }
 415:..\..\..\arduinoLCD\test\Pain Drain\libraries\lvgl\src\font/lv_font_loader.c ****     }
 416:..\..\..\arduinoLCD\test\Pain Drain\libraries\lvgl\src\font/lv_font_loader.c **** 
 417:..\..\..\arduinoLCD\test\Pain Drain\libraries\lvgl\src\font/lv_font_loader.c ****     uint8_t * glyph_bmp = (uint8_t *)lv_mem_alloc(sizeof(uint8_t) * cur_bmp_size);
ARM GAS  C:\Users\haske\AppData\Local\Temp\cc5ISl1k.s 			page 26


 983              		.loc 1 417 0
 984 01c8 5046     		mov	r0, r10
 985 01ca FFF7FEFF 		bl	lv_mem_alloc
 986              	.LVL116:
 987 01ce 0590     		str	r0, [sp, #20]
 988              	.LVL117:
 418:..\..\..\arduinoLCD\test\Pain Drain\libraries\lvgl\src\font/lv_font_loader.c **** 
 419:..\..\..\arduinoLCD\test\Pain Drain\libraries\lvgl\src\font/lv_font_loader.c ****     font_dsc->glyph_bitmap = glyph_bmp;
 989              		.loc 1 419 0
 990 01d0 4346     		mov	r3, r8
 991 01d2 1860     		str	r0, [r3]
 992              	.LVL118:
 993              	.LBB19:
 420:..\..\..\arduinoLCD\test\Pain Drain\libraries\lvgl\src\font/lv_font_loader.c **** 
 421:..\..\..\arduinoLCD\test\Pain Drain\libraries\lvgl\src\font/lv_font_loader.c ****     cur_bmp_size = 0;
 422:..\..\..\arduinoLCD\test\Pain Drain\libraries\lvgl\src\font/lv_font_loader.c **** 
 423:..\..\..\arduinoLCD\test\Pain Drain\libraries\lvgl\src\font/lv_font_loader.c ****     for(unsigned int i = 1; i < loca_count; ++i) {
 994              		.loc 1 423 0
 995 01d4 0123     		movs	r3, #1
 996              	.LBE19:
 421:..\..\..\arduinoLCD\test\Pain Drain\libraries\lvgl\src\font/lv_font_loader.c **** 
 997              		.loc 1 421 0
 998 01d6 0022     		movs	r2, #0
 999 01d8 9246     		mov	r10, r2
 1000 01da 9846     		mov	r8, r3
 1001 01dc 5B46     		mov	r3, fp
 1002 01de 0693     		str	r3, [sp, #24]
 1003 01e0 A346     		mov	fp, r4
 1004              	.LVL119:
 1005              	.LBB23:
 1006              		.loc 1 423 0
 1007 01e2 93E0     		b	.L47
 1008              	.LVL120:
 1009              	.L55:
 1010              	.LBB20:
 424:..\..\..\arduinoLCD\test\Pain Drain\libraries\lvgl\src\font/lv_font_loader.c ****         lv_fs_res_t res = lv_fs_seek(fp, start + glyph_offset[i], LV_FS_SEEK_SET);
 1011              		.loc 1 424 0
 1012 01e4 4346     		mov	r3, r8
 1013 01e6 9D00     		lsls	r5, r3, #2
 1014 01e8 069F     		ldr	r7, [sp, #24]
 1015 01ea BC46     		mov	ip, r7
 1016 01ec 6544     		add	r5, r5, ip
 1017 01ee 029B     		ldr	r3, [sp, #8]
 1018 01f0 2A68     		ldr	r2, [r5]
 1019 01f2 9446     		mov	ip, r2
 1020 01f4 6344     		add	r3, r3, ip
 1021 01f6 1900     		movs	r1, r3
 1022 01f8 0022     		movs	r2, #0
 1023 01fa 019C     		ldr	r4, [sp, #4]
 1024 01fc 2000     		movs	r0, r4
 1025 01fe FFF7FEFF 		bl	lv_fs_seek
 1026              	.LVL121:
 1027 0202 08AB     		add	r3, sp, #32
 1028 0204 D871     		strb	r0, [r3, #7]
 425:..\..\..\arduinoLCD\test\Pain Drain\libraries\lvgl\src\font/lv_font_loader.c ****         if(res != LV_FS_RES_OK) {
 1029              		.loc 1 425 0
 1030 0206 0028     		cmp	r0, #0
ARM GAS  C:\Users\haske\AppData\Local\Temp\cc5ISl1k.s 			page 27


 1031 0208 7AD1     		bne	.L48
 426:..\..\..\arduinoLCD\test\Pain Drain\libraries\lvgl\src\font/lv_font_loader.c ****             return -1;
 427:..\..\..\arduinoLCD\test\Pain Drain\libraries\lvgl\src\font/lv_font_loader.c ****         }
 428:..\..\..\arduinoLCD\test\Pain Drain\libraries\lvgl\src\font/lv_font_loader.c ****         bit_iterator_t bit_it = init_bit_iterator(fp);
 1032              		.loc 1 428 0
 1033 020a 2100     		movs	r1, r4
 1034 020c 0AA8     		add	r0, sp, #40
 1035 020e FFF7FEFF 		bl	init_bit_iterator
 1036              	.LVL122:
 429:..\..\..\arduinoLCD\test\Pain Drain\libraries\lvgl\src\font/lv_font_loader.c **** 
 430:..\..\..\arduinoLCD\test\Pain Drain\libraries\lvgl\src\font/lv_font_loader.c ****         int nbits = header->advance_width_bits + 2 * header->xy_bits + 2 * header->wh_bits;
 1037              		.loc 1 430 0
 1038 0212 2023     		movs	r3, #32
 1039 0214 5A46     		mov	r2, fp
 1040 0216 D35C     		ldrb	r3, [r2, r3]
 1041 0218 947F     		ldrb	r4, [r2, #30]
 1042 021a 6400     		lsls	r4, r4, #1
 1043 021c 1B19     		adds	r3, r3, r4
 1044 021e D47F     		ldrb	r4, [r2, #31]
 1045 0220 6400     		lsls	r4, r4, #1
 1046 0222 1C19     		adds	r4, r3, r4
 1047              	.LVL123:
 431:..\..\..\arduinoLCD\test\Pain Drain\libraries\lvgl\src\font/lv_font_loader.c **** 
 432:..\..\..\arduinoLCD\test\Pain Drain\libraries\lvgl\src\font/lv_font_loader.c ****         read_bits(&bit_it, nbits, &res);
 1048              		.loc 1 432 0
 1049 0224 08AB     		add	r3, sp, #32
 1050 0226 DE1D     		adds	r6, r3, #7
 1051 0228 3200     		movs	r2, r6
 1052 022a 2100     		movs	r1, r4
 1053 022c 0AA8     		add	r0, sp, #40
 1054 022e FFF7FEFF 		bl	read_bits
 1055              	.LVL124:
 433:..\..\..\arduinoLCD\test\Pain Drain\libraries\lvgl\src\font/lv_font_loader.c ****         if(res != LV_FS_RES_OK) {
 1056              		.loc 1 433 0
 1057 0232 3378     		ldrb	r3, [r6]
 1058 0234 002B     		cmp	r3, #0
 1059 0236 63D1     		bne	.L48
 434:..\..\..\arduinoLCD\test\Pain Drain\libraries\lvgl\src\font/lv_font_loader.c ****             return -1;
 435:..\..\..\arduinoLCD\test\Pain Drain\libraries\lvgl\src\font/lv_font_loader.c ****         }
 436:..\..\..\arduinoLCD\test\Pain Drain\libraries\lvgl\src\font/lv_font_loader.c **** 
 437:..\..\..\arduinoLCD\test\Pain Drain\libraries\lvgl\src\font/lv_font_loader.c ****         if(glyph_dsc[i].box_w * glyph_dsc[i].box_h == 0) {
 1060              		.loc 1 437 0
 1061 0238 4346     		mov	r3, r8
 1062 023a DB00     		lsls	r3, r3, #3
 1063 023c 039A     		ldr	r2, [sp, #12]
 1064 023e 9446     		mov	ip, r2
 1065 0240 6344     		add	r3, r3, ip
 1066 0242 1A79     		ldrb	r2, [r3, #4]
 1067 0244 5B79     		ldrb	r3, [r3, #5]
 1068 0246 5343     		muls	r3, r2
 1069 0248 002B     		cmp	r3, #0
 1070 024a 5CD0     		beq	.L50
 438:..\..\..\arduinoLCD\test\Pain Drain\libraries\lvgl\src\font/lv_font_loader.c ****             continue;
 439:..\..\..\arduinoLCD\test\Pain Drain\libraries\lvgl\src\font/lv_font_loader.c ****         }
 440:..\..\..\arduinoLCD\test\Pain Drain\libraries\lvgl\src\font/lv_font_loader.c **** 
 441:..\..\..\arduinoLCD\test\Pain Drain\libraries\lvgl\src\font/lv_font_loader.c ****         int next_offset = (i < loca_count - 1) ? glyph_offset[i + 1] : (uint32_t)glyph_length;
 1071              		.loc 1 441 0
ARM GAS  C:\Users\haske\AppData\Local\Temp\cc5ISl1k.s 			page 28


 1072 024c 169B     		ldr	r3, [sp, #88]
 1073 024e 013B     		subs	r3, r3, #1
 1074 0250 9845     		cmp	r8, r3
 1075 0252 04D2     		bcs	.L58
 1076              		.loc 1 441 0 is_stmt 0 discriminator 1
 1077 0254 4346     		mov	r3, r8
 1078 0256 0133     		adds	r3, r3, #1
 1079 0258 9B00     		lsls	r3, r3, #2
 1080 025a DA59     		ldr	r2, [r3, r7]
 1081 025c 00E0     		b	.L51
 1082              	.L58:
 1083              		.loc 1 441 0
 1084 025e 049A     		ldr	r2, [sp, #16]
 1085              	.L51:
 1086              	.LVL125:
 442:..\..\..\arduinoLCD\test\Pain Drain\libraries\lvgl\src\font/lv_font_loader.c ****         int bmp_size = next_offset - glyph_offset[i] - nbits / 8;
 1087              		.loc 1 442 0 is_stmt 1 discriminator 4
 1088 0260 2B68     		ldr	r3, [r5]
 1089 0262 D21A     		subs	r2, r2, r3
 1090              	.LVL126:
 1091 0264 E317     		asrs	r3, r4, #31
 1092 0266 0721     		movs	r1, #7
 1093 0268 0B40     		ands	r3, r1
 1094 026a 1B19     		adds	r3, r3, r4
 1095 026c DB10     		asrs	r3, r3, #3
 1096 026e D31A     		subs	r3, r2, r3
 1097 0270 0793     		str	r3, [sp, #28]
 1098 0272 9946     		mov	r9, r3
 1099              	.LVL127:
 443:..\..\..\arduinoLCD\test\Pain Drain\libraries\lvgl\src\font/lv_font_loader.c **** 
 444:..\..\..\arduinoLCD\test\Pain Drain\libraries\lvgl\src\font/lv_font_loader.c ****         if(nbits % 8 == 0) {  /*Fast path*/
 1100              		.loc 1 444 0 discriminator 4
 1101 0274 2142     		tst	r1, r4
 1102 0276 1CD1     		bne	.L59
 445:..\..\..\arduinoLCD\test\Pain Drain\libraries\lvgl\src\font/lv_font_loader.c ****             if(lv_fs_read(fp, &glyph_bmp[cur_bmp_size], bmp_size, NULL) != LV_FS_RES_OK) {
 1103              		.loc 1 445 0
 1104 0278 059B     		ldr	r3, [sp, #20]
 1105              	.LVL128:
 1106 027a 5344     		add	r3, r3, r10
 1107 027c 1900     		movs	r1, r3
 1108 027e 0023     		movs	r3, #0
 1109 0280 4A46     		mov	r2, r9
 1110 0282 0198     		ldr	r0, [sp, #4]
 1111 0284 FFF7FEFF 		bl	lv_fs_read
 1112              	.LVL129:
 1113 0288 0028     		cmp	r0, #0
 1114 028a 35D0     		beq	.L53
 1115 028c 38E0     		b	.L48
 1116              	.LVL130:
 1117              	.L54:
 1118              	.LBB21:
 446:..\..\..\arduinoLCD\test\Pain Drain\libraries\lvgl\src\font/lv_font_loader.c ****                 return -1;
 447:..\..\..\arduinoLCD\test\Pain Drain\libraries\lvgl\src\font/lv_font_loader.c ****             }
 448:..\..\..\arduinoLCD\test\Pain Drain\libraries\lvgl\src\font/lv_font_loader.c ****         }
 449:..\..\..\arduinoLCD\test\Pain Drain\libraries\lvgl\src\font/lv_font_loader.c ****         else {
 450:..\..\..\arduinoLCD\test\Pain Drain\libraries\lvgl\src\font/lv_font_loader.c ****             for(int k = 0; k < bmp_size - 1; ++k) {
 451:..\..\..\arduinoLCD\test\Pain Drain\libraries\lvgl\src\font/lv_font_loader.c ****                 glyph_bmp[cur_bmp_size + k] = read_bits(&bit_it, 8, &res);
ARM GAS  C:\Users\haske\AppData\Local\Temp\cc5ISl1k.s 			page 29


 1119              		.loc 1 451 0
 1120 028e 5346     		mov	r3, r10
 1121 0290 5E19     		adds	r6, r3, r5
 1122 0292 059B     		ldr	r3, [sp, #20]
 1123 0294 9C46     		mov	ip, r3
 1124 0296 6644     		add	r6, r6, ip
 1125 0298 08AB     		add	r3, sp, #32
 1126 029a DF1D     		adds	r7, r3, #7
 1127 029c 3A00     		movs	r2, r7
 1128 029e 0821     		movs	r1, #8
 1129 02a0 0AA8     		add	r0, sp, #40
 1130 02a2 FFF7FEFF 		bl	read_bits
 1131              	.LVL131:
 1132 02a6 3070     		strb	r0, [r6]
 452:..\..\..\arduinoLCD\test\Pain Drain\libraries\lvgl\src\font/lv_font_loader.c ****                 if(res != LV_FS_RES_OK) {
 1133              		.loc 1 452 0
 1134 02a8 3B78     		ldrb	r3, [r7]
 1135 02aa 002B     		cmp	r3, #0
 1136 02ac 28D1     		bne	.L48
 450:..\..\..\arduinoLCD\test\Pain Drain\libraries\lvgl\src\font/lv_font_loader.c ****                 glyph_bmp[cur_bmp_size + k] = read_bits(&bit_it, 8, &res);
 1137              		.loc 1 450 0 discriminator 2
 1138 02ae 0135     		adds	r5, r5, #1
 1139              	.LVL132:
 1140 02b0 02E0     		b	.L52
 1141              	.LVL133:
 1142              	.L59:
 1143              	.LBE21:
 1144 02b2 0025     		movs	r5, #0
 1145 02b4 A146     		mov	r9, r4
 1146 02b6 1C00     		movs	r4, r3
 1147              	.LVL134:
 1148              	.L52:
 1149              	.LBB22:
 450:..\..\..\arduinoLCD\test\Pain Drain\libraries\lvgl\src\font/lv_font_loader.c ****                 glyph_bmp[cur_bmp_size + k] = read_bits(&bit_it, 8, &res);
 1150              		.loc 1 450 0 is_stmt 0 discriminator 1
 1151 02b8 631E     		subs	r3, r4, #1
 1152 02ba 9D42     		cmp	r5, r3
 1153 02bc E7DB     		blt	.L54
 1154 02be 4C46     		mov	r4, r9
 1155              	.LVL135:
 1156              	.LBE22:
 453:..\..\..\arduinoLCD\test\Pain Drain\libraries\lvgl\src\font/lv_font_loader.c ****                     return -1;
 454:..\..\..\arduinoLCD\test\Pain Drain\libraries\lvgl\src\font/lv_font_loader.c ****                 }
 455:..\..\..\arduinoLCD\test\Pain Drain\libraries\lvgl\src\font/lv_font_loader.c ****             }
 456:..\..\..\arduinoLCD\test\Pain Drain\libraries\lvgl\src\font/lv_font_loader.c ****             glyph_bmp[cur_bmp_size + bmp_size - 1] = read_bits(&bit_it, 8 - nbits % 8, &res);
 1157              		.loc 1 456 0 is_stmt 1
 1158 02c0 079B     		ldr	r3, [sp, #28]
 1159 02c2 5344     		add	r3, r3, r10
 1160 02c4 1D00     		movs	r5, r3
 1161              	.LVL136:
 1162 02c6 013D     		subs	r5, r5, #1
 1163 02c8 059B     		ldr	r3, [sp, #20]
 1164 02ca 9C46     		mov	ip, r3
 1165 02cc 6544     		add	r5, r5, ip
 1166 02ce E317     		asrs	r3, r4, #31
 1167 02d0 5B0F     		lsrs	r3, r3, #29
 1168 02d2 E418     		adds	r4, r4, r3
ARM GAS  C:\Users\haske\AppData\Local\Temp\cc5ISl1k.s 			page 30


 1169 02d4 0722     		movs	r2, #7
 1170 02d6 1440     		ands	r4, r2
 1171 02d8 E41A     		subs	r4, r4, r3
 1172 02da 08AB     		add	r3, sp, #32
 1173 02dc DE1D     		adds	r6, r3, #7
 1174 02de 0821     		movs	r1, #8
 1175 02e0 091B     		subs	r1, r1, r4
 1176 02e2 3200     		movs	r2, r6
 1177 02e4 0AA8     		add	r0, sp, #40
 1178 02e6 FFF7FEFF 		bl	read_bits
 1179              	.LVL137:
 1180 02ea C0B2     		uxtb	r0, r0
 1181 02ec 2870     		strb	r0, [r5]
 457:..\..\..\arduinoLCD\test\Pain Drain\libraries\lvgl\src\font/lv_font_loader.c ****             if(res != LV_FS_RES_OK) {
 1182              		.loc 1 457 0
 1183 02ee 3378     		ldrb	r3, [r6]
 1184 02f0 002B     		cmp	r3, #0
 1185 02f2 05D1     		bne	.L48
 458:..\..\..\arduinoLCD\test\Pain Drain\libraries\lvgl\src\font/lv_font_loader.c ****                 return -1;
 459:..\..\..\arduinoLCD\test\Pain Drain\libraries\lvgl\src\font/lv_font_loader.c ****             }
 460:..\..\..\arduinoLCD\test\Pain Drain\libraries\lvgl\src\font/lv_font_loader.c **** 
 461:..\..\..\arduinoLCD\test\Pain Drain\libraries\lvgl\src\font/lv_font_loader.c ****             /*The last fragment should be on the MSB but read_bits() will place it to the LSB*/
 462:..\..\..\arduinoLCD\test\Pain Drain\libraries\lvgl\src\font/lv_font_loader.c ****             glyph_bmp[cur_bmp_size + bmp_size - 1] = glyph_bmp[cur_bmp_size + bmp_size - 1] << (nbi
 1186              		.loc 1 462 0
 1187 02f4 A040     		lsls	r0, r0, r4
 1188 02f6 2870     		strb	r0, [r5]
 1189              	.LVL138:
 1190              	.L53:
 463:..\..\..\arduinoLCD\test\Pain Drain\libraries\lvgl\src\font/lv_font_loader.c **** 
 464:..\..\..\arduinoLCD\test\Pain Drain\libraries\lvgl\src\font/lv_font_loader.c ****         }
 465:..\..\..\arduinoLCD\test\Pain Drain\libraries\lvgl\src\font/lv_font_loader.c **** 
 466:..\..\..\arduinoLCD\test\Pain Drain\libraries\lvgl\src\font/lv_font_loader.c ****         cur_bmp_size += bmp_size;
 1191              		.loc 1 466 0 discriminator 1
 1192 02f8 079B     		ldr	r3, [sp, #28]
 1193 02fa 9C46     		mov	ip, r3
 1194 02fc E244     		add	r10, r10, ip
 1195              	.LVL139:
 1196 02fe 02E0     		b	.L50
 1197              	.LVL140:
 1198              	.L48:
 426:..\..\..\arduinoLCD\test\Pain Drain\libraries\lvgl\src\font/lv_font_loader.c ****         }
 1199              		.loc 1 426 0 discriminator 1
 1200 0300 0120     		movs	r0, #1
 1201 0302 4042     		rsbs	r0, r0, #0
 1202 0304 0AE0     		b	.L37
 1203              	.L50:
 1204              	.LBE20:
 423:..\..\..\arduinoLCD\test\Pain Drain\libraries\lvgl\src\font/lv_font_loader.c ****         lv_fs_res_t res = lv_fs_seek(fp, start + glyph_offset[i], LV_FS_SEEK_SET);
 1205              		.loc 1 423 0 discriminator 2
 1206 0306 0123     		movs	r3, #1
 1207 0308 9C46     		mov	ip, r3
 1208 030a E044     		add	r8, r8, ip
 1209              	.LVL141:
 1210              	.L47:
 423:..\..\..\arduinoLCD\test\Pain Drain\libraries\lvgl\src\font/lv_font_loader.c ****         lv_fs_res_t res = lv_fs_seek(fp, start + glyph_offset[i], LV_FS_SEEK_SET);
 1211              		.loc 1 423 0 is_stmt 0 discriminator 1
 1212 030c 169B     		ldr	r3, [sp, #88]
ARM GAS  C:\Users\haske\AppData\Local\Temp\cc5ISl1k.s 			page 31


 1213 030e 9845     		cmp	r8, r3
 1214 0310 00D2     		bcs	.LCB1292
 1215 0312 67E7     		b	.L55	@long jump
 1216              	.LCB1292:
 1217              	.LBE23:
 467:..\..\..\arduinoLCD\test\Pain Drain\libraries\lvgl\src\font/lv_font_loader.c ****     }
 468:..\..\..\arduinoLCD\test\Pain Drain\libraries\lvgl\src\font/lv_font_loader.c ****     return glyph_length;
 1218              		.loc 1 468 0 is_stmt 1
 1219 0314 0498     		ldr	r0, [sp, #16]
 1220              	.LBB24:
 1221 0316 01E0     		b	.L37
 1222              	.LVL142:
 1223              	.L56:
 1224              	.LBE24:
 343:..\..\..\arduinoLCD\test\Pain Drain\libraries\lvgl\src\font/lv_font_loader.c ****     }
 1225              		.loc 1 343 0
 1226 0318 0120     		movs	r0, #1
 1227              	.LVL143:
 1228 031a 4042     		rsbs	r0, r0, #0
 1229              	.LVL144:
 1230              	.L37:
 469:..\..\..\arduinoLCD\test\Pain Drain\libraries\lvgl\src\font/lv_font_loader.c **** }
 1231              		.loc 1 469 0
 1232 031c 0DB0     		add	sp, sp, #52
 1233              		@ sp needed
 1234 031e 3CBC     		pop	{r2, r3, r4, r5}
 1235 0320 9046     		mov	r8, r2
 1236 0322 9946     		mov	r9, r3
 1237 0324 A246     		mov	r10, r4
 1238 0326 AB46     		mov	fp, r5
 1239 0328 F0BD     		pop	{r4, r5, r6, r7, pc}
 1240              	.L61:
 1241 032a C046     		.align	2
 1242              	.L60:
 1243 032c 08000000 		.word	.LC2
 1244              		.cfi_endproc
 1245              	.LFE210:
 1246              		.size	load_glyph, .-load_glyph
 1247              		.section	.text.lv_font_free,"ax",%progbits
 1248              		.align	2
 1249              		.global	lv_font_free
 1250              		.code	16
 1251              		.thumb_func
 1252              		.type	lv_font_free, %function
 1253              	lv_font_free:
 1254              	.LFB203:
 118:..\..\..\arduinoLCD\test\Pain Drain\libraries\lvgl\src\font/lv_font_loader.c ****     if(NULL != font) {
 1255              		.loc 1 118 0
 1256              		.cfi_startproc
 1257              		@ args = 0, pretend = 0, frame = 0
 1258              		@ frame_needed = 0, uses_anonymous_args = 0
 1259              	.LVL145:
 1260 0000 F0B5     		push	{r4, r5, r6, r7, lr}
 1261              		.cfi_def_cfa_offset 20
 1262              		.cfi_offset 4, -20
 1263              		.cfi_offset 5, -16
 1264              		.cfi_offset 6, -12
ARM GAS  C:\Users\haske\AppData\Local\Temp\cc5ISl1k.s 			page 32


 1265              		.cfi_offset 7, -8
 1266              		.cfi_offset 14, -4
 1267 0002 4746     		mov	r7, r8
 1268 0004 80B4     		push	{r7}
 1269              		.cfi_def_cfa_offset 24
 1270              		.cfi_offset 8, -24
 1271 0006 8046     		mov	r8, r0
 119:..\..\..\arduinoLCD\test\Pain Drain\libraries\lvgl\src\font/lv_font_loader.c ****         lv_font_fmt_txt_dsc_t * dsc = (lv_font_fmt_txt_dsc_t *)font->dsc;
 1272              		.loc 1 119 0
 1273 0008 0028     		cmp	r0, #0
 1274 000a 58D0     		beq	.L62
 1275              	.LBB25:
 120:..\..\..\arduinoLCD\test\Pain Drain\libraries\lvgl\src\font/lv_font_loader.c **** 
 1276              		.loc 1 120 0
 1277 000c 0669     		ldr	r6, [r0, #16]
 1278              	.LVL146:
 122:..\..\..\arduinoLCD\test\Pain Drain\libraries\lvgl\src\font/lv_font_loader.c **** 
 1279              		.loc 1 122 0
 1280 000e 002E     		cmp	r6, #0
 1281 0010 52D0     		beq	.L64
 1282              	.LBB26:
 124:..\..\..\arduinoLCD\test\Pain Drain\libraries\lvgl\src\font/lv_font_loader.c ****                 lv_font_fmt_txt_kern_pair_t * kern_dsc =
 1283              		.loc 1 124 0
 1284 0012 F37C     		ldrb	r3, [r6, #19]
 1285 0014 9B06     		lsls	r3, r3, #26
 1286 0016 10D4     		bmi	.L65
 1287              	.LBB27:
 125:..\..\..\arduinoLCD\test\Pain Drain\libraries\lvgl\src\font/lv_font_loader.c ****                     (lv_font_fmt_txt_kern_pair_t *)dsc->kern_dsc;
 1288              		.loc 1 125 0
 1289 0018 F468     		ldr	r4, [r6, #12]
 1290              	.LVL147:
 128:..\..\..\arduinoLCD\test\Pain Drain\libraries\lvgl\src\font/lv_font_loader.c ****                     if(kern_dsc->glyph_ids)
 1291              		.loc 1 128 0
 1292 001a 002C     		cmp	r4, #0
 1293 001c 22D0     		beq	.L66
 129:..\..\..\arduinoLCD\test\Pain Drain\libraries\lvgl\src\font/lv_font_loader.c ****                         lv_mem_free((void *)kern_dsc->glyph_ids);
 1294              		.loc 1 129 0
 1295 001e 2068     		ldr	r0, [r4]
 1296              	.LVL148:
 1297 0020 0028     		cmp	r0, #0
 1298 0022 01D0     		beq	.L67
 130:..\..\..\arduinoLCD\test\Pain Drain\libraries\lvgl\src\font/lv_font_loader.c **** 
 1299              		.loc 1 130 0
 1300 0024 FFF7FEFF 		bl	lv_mem_free
 1301              	.LVL149:
 1302              	.L67:
 132:..\..\..\arduinoLCD\test\Pain Drain\libraries\lvgl\src\font/lv_font_loader.c ****                         lv_mem_free((void *)kern_dsc->values);
 1303              		.loc 1 132 0
 1304 0028 6068     		ldr	r0, [r4, #4]
 1305 002a 0028     		cmp	r0, #0
 1306 002c 01D0     		beq	.L68
 133:..\..\..\arduinoLCD\test\Pain Drain\libraries\lvgl\src\font/lv_font_loader.c **** 
 1307              		.loc 1 133 0
 1308 002e FFF7FEFF 		bl	lv_mem_free
 1309              	.LVL150:
 1310              	.L68:
 135:..\..\..\arduinoLCD\test\Pain Drain\libraries\lvgl\src\font/lv_font_loader.c ****                 }
ARM GAS  C:\Users\haske\AppData\Local\Temp\cc5ISl1k.s 			page 33


 1311              		.loc 1 135 0
 1312 0032 2000     		movs	r0, r4
 1313 0034 FFF7FEFF 		bl	lv_mem_free
 1314              	.LVL151:
 1315 0038 14E0     		b	.L66
 1316              	.LVL152:
 1317              	.L65:
 1318              	.LBE27:
 1319              	.LBB28:
 139:..\..\..\arduinoLCD\test\Pain Drain\libraries\lvgl\src\font/lv_font_loader.c ****                     (lv_font_fmt_txt_kern_classes_t *)dsc->kern_dsc;
 1320              		.loc 1 139 0
 1321 003a F468     		ldr	r4, [r6, #12]
 1322              	.LVL153:
 142:..\..\..\arduinoLCD\test\Pain Drain\libraries\lvgl\src\font/lv_font_loader.c ****                     if(kern_dsc->class_pair_values)
 1323              		.loc 1 142 0
 1324 003c 002C     		cmp	r4, #0
 1325 003e 11D0     		beq	.L66
 143:..\..\..\arduinoLCD\test\Pain Drain\libraries\lvgl\src\font/lv_font_loader.c ****                         lv_mem_free((void *)kern_dsc->class_pair_values);
 1326              		.loc 1 143 0
 1327 0040 2068     		ldr	r0, [r4]
 1328              	.LVL154:
 1329 0042 0028     		cmp	r0, #0
 1330 0044 01D0     		beq	.L69
 144:..\..\..\arduinoLCD\test\Pain Drain\libraries\lvgl\src\font/lv_font_loader.c **** 
 1331              		.loc 1 144 0
 1332 0046 FFF7FEFF 		bl	lv_mem_free
 1333              	.LVL155:
 1334              	.L69:
 146:..\..\..\arduinoLCD\test\Pain Drain\libraries\lvgl\src\font/lv_font_loader.c ****                         lv_mem_free((void *)kern_dsc->left_class_mapping);
 1335              		.loc 1 146 0
 1336 004a 6068     		ldr	r0, [r4, #4]
 1337 004c 0028     		cmp	r0, #0
 1338 004e 01D0     		beq	.L70
 147:..\..\..\arduinoLCD\test\Pain Drain\libraries\lvgl\src\font/lv_font_loader.c **** 
 1339              		.loc 1 147 0
 1340 0050 FFF7FEFF 		bl	lv_mem_free
 1341              	.LVL156:
 1342              	.L70:
 149:..\..\..\arduinoLCD\test\Pain Drain\libraries\lvgl\src\font/lv_font_loader.c ****                         lv_mem_free((void *)kern_dsc->right_class_mapping);
 1343              		.loc 1 149 0
 1344 0054 A068     		ldr	r0, [r4, #8]
 1345 0056 0028     		cmp	r0, #0
 1346 0058 01D0     		beq	.L71
 150:..\..\..\arduinoLCD\test\Pain Drain\libraries\lvgl\src\font/lv_font_loader.c **** 
 1347              		.loc 1 150 0
 1348 005a FFF7FEFF 		bl	lv_mem_free
 1349              	.LVL157:
 1350              	.L71:
 152:..\..\..\arduinoLCD\test\Pain Drain\libraries\lvgl\src\font/lv_font_loader.c ****                 }
 1351              		.loc 1 152 0
 1352 005e 2000     		movs	r0, r4
 1353 0060 FFF7FEFF 		bl	lv_mem_free
 1354              	.LVL158:
 1355              	.L66:
 1356              	.LBE28:
 156:..\..\..\arduinoLCD\test\Pain Drain\libraries\lvgl\src\font/lv_font_loader.c ****                 (lv_font_fmt_txt_cmap_t *)dsc->cmaps;
 1357              		.loc 1 156 0
ARM GAS  C:\Users\haske\AppData\Local\Temp\cc5ISl1k.s 			page 34


 1358 0064 B768     		ldr	r7, [r6, #8]
 1359              	.LVL159:
 159:..\..\..\arduinoLCD\test\Pain Drain\libraries\lvgl\src\font/lv_font_loader.c ****                 for(int i = 0; i < dsc->cmap_num; ++i) {
 1360              		.loc 1 159 0
 1361 0066 002F     		cmp	r7, #0
 1362 0068 10D1     		bne	.L79
 1363 006a 18E0     		b	.L73
 1364              	.LVL160:
 1365              	.L76:
 1366              	.LBB29:
 161:..\..\..\arduinoLCD\test\Pain Drain\libraries\lvgl\src\font/lv_font_loader.c ****                         lv_mem_free((void *)cmaps[i].glyph_id_ofs_list);
 1367              		.loc 1 161 0
 1368 006c AB00     		lsls	r3, r5, #2
 1369 006e 5B19     		adds	r3, r3, r5
 1370 0070 9C00     		lsls	r4, r3, #2
 1371 0072 3C19     		adds	r4, r7, r4
 1372 0074 E068     		ldr	r0, [r4, #12]
 1373 0076 0028     		cmp	r0, #0
 1374 0078 01D0     		beq	.L74
 162:..\..\..\arduinoLCD\test\Pain Drain\libraries\lvgl\src\font/lv_font_loader.c ****                     if(NULL != cmaps[i].unicode_list)
 1375              		.loc 1 162 0
 1376 007a FFF7FEFF 		bl	lv_mem_free
 1377              	.LVL161:
 1378              	.L74:
 163:..\..\..\arduinoLCD\test\Pain Drain\libraries\lvgl\src\font/lv_font_loader.c ****                         lv_mem_free((void *)cmaps[i].unicode_list);
 1379              		.loc 1 163 0
 1380 007e A068     		ldr	r0, [r4, #8]
 1381 0080 0028     		cmp	r0, #0
 1382 0082 01D0     		beq	.L75
 164:..\..\..\arduinoLCD\test\Pain Drain\libraries\lvgl\src\font/lv_font_loader.c ****                 }
 1383              		.loc 1 164 0
 1384 0084 FFF7FEFF 		bl	lv_mem_free
 1385              	.LVL162:
 1386              	.L75:
 160:..\..\..\arduinoLCD\test\Pain Drain\libraries\lvgl\src\font/lv_font_loader.c ****                     if(NULL != cmaps[i].glyph_id_ofs_list)
 1387              		.loc 1 160 0 discriminator 2
 1388 0088 0135     		adds	r5, r5, #1
 1389              	.LVL163:
 1390 008a 00E0     		b	.L72
 1391              	.LVL164:
 1392              	.L79:
 1393              	.LBE29:
 1394 008c 0025     		movs	r5, #0
 1395              	.L72:
 1396              	.LVL165:
 1397              	.LBB30:
 160:..\..\..\arduinoLCD\test\Pain Drain\libraries\lvgl\src\font/lv_font_loader.c ****                     if(NULL != cmaps[i].glyph_id_ofs_list)
 1398              		.loc 1 160 0 is_stmt 0 discriminator 1
 1399 008e 738A     		ldrh	r3, [r6, #18]
 1400 0090 DB05     		lsls	r3, r3, #23
 1401 0092 DB0D     		lsrs	r3, r3, #23
 1402 0094 9D42     		cmp	r5, r3
 1403 0096 E9DB     		blt	.L76
 1404              	.LBE30:
 166:..\..\..\arduinoLCD\test\Pain Drain\libraries\lvgl\src\font/lv_font_loader.c ****             }
 1405              		.loc 1 166 0 is_stmt 1
 1406 0098 3800     		movs	r0, r7
ARM GAS  C:\Users\haske\AppData\Local\Temp\cc5ISl1k.s 			page 35


 1407 009a FFF7FEFF 		bl	lv_mem_free
 1408              	.LVL166:
 1409              	.L73:
 169:..\..\..\arduinoLCD\test\Pain Drain\libraries\lvgl\src\font/lv_font_loader.c ****                 lv_mem_free((void *)dsc->glyph_bitmap);
 1410              		.loc 1 169 0
 1411 009e 3068     		ldr	r0, [r6]
 1412 00a0 0028     		cmp	r0, #0
 1413 00a2 01D0     		beq	.L77
 170:..\..\..\arduinoLCD\test\Pain Drain\libraries\lvgl\src\font/lv_font_loader.c ****             }
 1414              		.loc 1 170 0
 1415 00a4 FFF7FEFF 		bl	lv_mem_free
 1416              	.LVL167:
 1417              	.L77:
 172:..\..\..\arduinoLCD\test\Pain Drain\libraries\lvgl\src\font/lv_font_loader.c ****                 lv_mem_free((void *)dsc->glyph_dsc);
 1418              		.loc 1 172 0
 1419 00a8 7068     		ldr	r0, [r6, #4]
 1420 00aa 0028     		cmp	r0, #0
 1421 00ac 01D0     		beq	.L78
 173:..\..\..\arduinoLCD\test\Pain Drain\libraries\lvgl\src\font/lv_font_loader.c ****             }
 1422              		.loc 1 173 0
 1423 00ae FFF7FEFF 		bl	lv_mem_free
 1424              	.LVL168:
 1425              	.L78:
 175:..\..\..\arduinoLCD\test\Pain Drain\libraries\lvgl\src\font/lv_font_loader.c ****         }
 1426              		.loc 1 175 0
 1427 00b2 3000     		movs	r0, r6
 1428 00b4 FFF7FEFF 		bl	lv_mem_free
 1429              	.LVL169:
 1430              	.L64:
 1431              	.LBE26:
 177:..\..\..\arduinoLCD\test\Pain Drain\libraries\lvgl\src\font/lv_font_loader.c ****     }
 1432              		.loc 1 177 0
 1433 00b8 4046     		mov	r0, r8
 1434 00ba FFF7FEFF 		bl	lv_mem_free
 1435              	.LVL170:
 1436              	.L62:
 1437              	.LBE25:
 179:..\..\..\arduinoLCD\test\Pain Drain\libraries\lvgl\src\font/lv_font_loader.c **** 
 1438              		.loc 1 179 0
 1439              		@ sp needed
 1440              	.LVL171:
 1441 00be 04BC     		pop	{r2}
 1442 00c0 9046     		mov	r8, r2
 1443 00c2 F0BD     		pop	{r4, r5, r6, r7, pc}
 1444              		.cfi_endproc
 1445              	.LFE203:
 1446              		.size	lv_font_free, .-lv_font_free
 1447              		.section	.text.load_kern,"ax",%progbits
 1448              		.align	2
 1449              		.global	load_kern
 1450              		.code	16
 1451              		.thumb_func
 1452              		.type	load_kern, %function
 1453              	load_kern:
 1454              	.LFB212:
 470:..\..\..\arduinoLCD\test\Pain Drain\libraries\lvgl\src\font/lv_font_loader.c **** 
 471:..\..\..\arduinoLCD\test\Pain Drain\libraries\lvgl\src\font/lv_font_loader.c **** /*
ARM GAS  C:\Users\haske\AppData\Local\Temp\cc5ISl1k.s 			page 36


 472:..\..\..\arduinoLCD\test\Pain Drain\libraries\lvgl\src\font/lv_font_loader.c ****  * Loads a `lv_font_t` from a binary file, given a `lv_fs_file_t`.
 473:..\..\..\arduinoLCD\test\Pain Drain\libraries\lvgl\src\font/lv_font_loader.c ****  *
 474:..\..\..\arduinoLCD\test\Pain Drain\libraries\lvgl\src\font/lv_font_loader.c ****  * Memory allocations on `lvgl_load_font` should be immediately zeroed and
 475:..\..\..\arduinoLCD\test\Pain Drain\libraries\lvgl\src\font/lv_font_loader.c ****  * the pointer should be set on the `lv_font_t` data before any possible return.
 476:..\..\..\arduinoLCD\test\Pain Drain\libraries\lvgl\src\font/lv_font_loader.c ****  *
 477:..\..\..\arduinoLCD\test\Pain Drain\libraries\lvgl\src\font/lv_font_loader.c ****  * When something fails, it returns `false` and the memory on the `lv_font_t`
 478:..\..\..\arduinoLCD\test\Pain Drain\libraries\lvgl\src\font/lv_font_loader.c ****  * still needs to be freed using `lv_font_free`.
 479:..\..\..\arduinoLCD\test\Pain Drain\libraries\lvgl\src\font/lv_font_loader.c ****  *
 480:..\..\..\arduinoLCD\test\Pain Drain\libraries\lvgl\src\font/lv_font_loader.c ****  * `lv_font_free` will assume that all non-null pointers are allocated and
 481:..\..\..\arduinoLCD\test\Pain Drain\libraries\lvgl\src\font/lv_font_loader.c ****  * should be freed.
 482:..\..\..\arduinoLCD\test\Pain Drain\libraries\lvgl\src\font/lv_font_loader.c ****  */
 483:..\..\..\arduinoLCD\test\Pain Drain\libraries\lvgl\src\font/lv_font_loader.c **** static bool lvgl_load_font(lv_fs_file_t * fp, lv_font_t * font)
 484:..\..\..\arduinoLCD\test\Pain Drain\libraries\lvgl\src\font/lv_font_loader.c **** {
 485:..\..\..\arduinoLCD\test\Pain Drain\libraries\lvgl\src\font/lv_font_loader.c ****     lv_font_fmt_txt_dsc_t * font_dsc = (lv_font_fmt_txt_dsc_t *)
 486:..\..\..\arduinoLCD\test\Pain Drain\libraries\lvgl\src\font/lv_font_loader.c ****                                        lv_mem_alloc(sizeof(lv_font_fmt_txt_dsc_t));
 487:..\..\..\arduinoLCD\test\Pain Drain\libraries\lvgl\src\font/lv_font_loader.c **** 
 488:..\..\..\arduinoLCD\test\Pain Drain\libraries\lvgl\src\font/lv_font_loader.c ****     memset(font_dsc, 0, sizeof(lv_font_fmt_txt_dsc_t));
 489:..\..\..\arduinoLCD\test\Pain Drain\libraries\lvgl\src\font/lv_font_loader.c **** 
 490:..\..\..\arduinoLCD\test\Pain Drain\libraries\lvgl\src\font/lv_font_loader.c ****     font->dsc = font_dsc;
 491:..\..\..\arduinoLCD\test\Pain Drain\libraries\lvgl\src\font/lv_font_loader.c **** 
 492:..\..\..\arduinoLCD\test\Pain Drain\libraries\lvgl\src\font/lv_font_loader.c ****     /*header*/
 493:..\..\..\arduinoLCD\test\Pain Drain\libraries\lvgl\src\font/lv_font_loader.c ****     int32_t header_length = read_label(fp, 0, "head");
 494:..\..\..\arduinoLCD\test\Pain Drain\libraries\lvgl\src\font/lv_font_loader.c ****     if(header_length < 0) {
 495:..\..\..\arduinoLCD\test\Pain Drain\libraries\lvgl\src\font/lv_font_loader.c ****         return false;
 496:..\..\..\arduinoLCD\test\Pain Drain\libraries\lvgl\src\font/lv_font_loader.c ****     }
 497:..\..\..\arduinoLCD\test\Pain Drain\libraries\lvgl\src\font/lv_font_loader.c **** 
 498:..\..\..\arduinoLCD\test\Pain Drain\libraries\lvgl\src\font/lv_font_loader.c ****     font_header_bin_t font_header;
 499:..\..\..\arduinoLCD\test\Pain Drain\libraries\lvgl\src\font/lv_font_loader.c ****     if(lv_fs_read(fp, &font_header, sizeof(font_header_bin_t), NULL) != LV_FS_RES_OK) {
 500:..\..\..\arduinoLCD\test\Pain Drain\libraries\lvgl\src\font/lv_font_loader.c ****         return false;
 501:..\..\..\arduinoLCD\test\Pain Drain\libraries\lvgl\src\font/lv_font_loader.c ****     }
 502:..\..\..\arduinoLCD\test\Pain Drain\libraries\lvgl\src\font/lv_font_loader.c **** 
 503:..\..\..\arduinoLCD\test\Pain Drain\libraries\lvgl\src\font/lv_font_loader.c ****     font->base_line = -font_header.descent;
 504:..\..\..\arduinoLCD\test\Pain Drain\libraries\lvgl\src\font/lv_font_loader.c ****     font->line_height = font_header.ascent - font_header.descent;
 505:..\..\..\arduinoLCD\test\Pain Drain\libraries\lvgl\src\font/lv_font_loader.c ****     font->get_glyph_dsc = lv_font_get_glyph_dsc_fmt_txt;
 506:..\..\..\arduinoLCD\test\Pain Drain\libraries\lvgl\src\font/lv_font_loader.c ****     font->get_glyph_bitmap = lv_font_get_bitmap_fmt_txt;
 507:..\..\..\arduinoLCD\test\Pain Drain\libraries\lvgl\src\font/lv_font_loader.c ****     font->subpx = font_header.subpixels_mode;
 508:..\..\..\arduinoLCD\test\Pain Drain\libraries\lvgl\src\font/lv_font_loader.c ****     font->underline_position = font_header.underline_position;
 509:..\..\..\arduinoLCD\test\Pain Drain\libraries\lvgl\src\font/lv_font_loader.c ****     font->underline_thickness = font_header.underline_thickness;
 510:..\..\..\arduinoLCD\test\Pain Drain\libraries\lvgl\src\font/lv_font_loader.c **** 
 511:..\..\..\arduinoLCD\test\Pain Drain\libraries\lvgl\src\font/lv_font_loader.c ****     font_dsc->bpp = font_header.bits_per_pixel;
 512:..\..\..\arduinoLCD\test\Pain Drain\libraries\lvgl\src\font/lv_font_loader.c ****     font_dsc->kern_scale = font_header.kerning_scale;
 513:..\..\..\arduinoLCD\test\Pain Drain\libraries\lvgl\src\font/lv_font_loader.c ****     font_dsc->bitmap_format = font_header.compression_id;
 514:..\..\..\arduinoLCD\test\Pain Drain\libraries\lvgl\src\font/lv_font_loader.c **** 
 515:..\..\..\arduinoLCD\test\Pain Drain\libraries\lvgl\src\font/lv_font_loader.c ****     /*cmaps*/
 516:..\..\..\arduinoLCD\test\Pain Drain\libraries\lvgl\src\font/lv_font_loader.c ****     uint32_t cmaps_start = header_length;
 517:..\..\..\arduinoLCD\test\Pain Drain\libraries\lvgl\src\font/lv_font_loader.c ****     int32_t cmaps_length = load_cmaps(fp, font_dsc, cmaps_start);
 518:..\..\..\arduinoLCD\test\Pain Drain\libraries\lvgl\src\font/lv_font_loader.c ****     if(cmaps_length < 0) {
 519:..\..\..\arduinoLCD\test\Pain Drain\libraries\lvgl\src\font/lv_font_loader.c ****         return false;
 520:..\..\..\arduinoLCD\test\Pain Drain\libraries\lvgl\src\font/lv_font_loader.c ****     }
 521:..\..\..\arduinoLCD\test\Pain Drain\libraries\lvgl\src\font/lv_font_loader.c **** 
 522:..\..\..\arduinoLCD\test\Pain Drain\libraries\lvgl\src\font/lv_font_loader.c ****     /*loca*/
 523:..\..\..\arduinoLCD\test\Pain Drain\libraries\lvgl\src\font/lv_font_loader.c ****     uint32_t loca_start = cmaps_start + cmaps_length;
 524:..\..\..\arduinoLCD\test\Pain Drain\libraries\lvgl\src\font/lv_font_loader.c ****     int32_t loca_length = read_label(fp, loca_start, "loca");
 525:..\..\..\arduinoLCD\test\Pain Drain\libraries\lvgl\src\font/lv_font_loader.c ****     if(loca_length < 0) {
 526:..\..\..\arduinoLCD\test\Pain Drain\libraries\lvgl\src\font/lv_font_loader.c ****         return false;
 527:..\..\..\arduinoLCD\test\Pain Drain\libraries\lvgl\src\font/lv_font_loader.c ****     }
 528:..\..\..\arduinoLCD\test\Pain Drain\libraries\lvgl\src\font/lv_font_loader.c **** 
ARM GAS  C:\Users\haske\AppData\Local\Temp\cc5ISl1k.s 			page 37


 529:..\..\..\arduinoLCD\test\Pain Drain\libraries\lvgl\src\font/lv_font_loader.c ****     uint32_t loca_count;
 530:..\..\..\arduinoLCD\test\Pain Drain\libraries\lvgl\src\font/lv_font_loader.c ****     if(lv_fs_read(fp, &loca_count, sizeof(uint32_t), NULL) != LV_FS_RES_OK) {
 531:..\..\..\arduinoLCD\test\Pain Drain\libraries\lvgl\src\font/lv_font_loader.c ****         return false;
 532:..\..\..\arduinoLCD\test\Pain Drain\libraries\lvgl\src\font/lv_font_loader.c ****     }
 533:..\..\..\arduinoLCD\test\Pain Drain\libraries\lvgl\src\font/lv_font_loader.c **** 
 534:..\..\..\arduinoLCD\test\Pain Drain\libraries\lvgl\src\font/lv_font_loader.c ****     bool failed = false;
 535:..\..\..\arduinoLCD\test\Pain Drain\libraries\lvgl\src\font/lv_font_loader.c ****     uint32_t * glyph_offset = lv_mem_alloc(sizeof(uint32_t) * (loca_count + 1));
 536:..\..\..\arduinoLCD\test\Pain Drain\libraries\lvgl\src\font/lv_font_loader.c **** 
 537:..\..\..\arduinoLCD\test\Pain Drain\libraries\lvgl\src\font/lv_font_loader.c ****     if(font_header.index_to_loc_format == 0) {
 538:..\..\..\arduinoLCD\test\Pain Drain\libraries\lvgl\src\font/lv_font_loader.c ****         for(unsigned int i = 0; i < loca_count; ++i) {
 539:..\..\..\arduinoLCD\test\Pain Drain\libraries\lvgl\src\font/lv_font_loader.c ****             uint16_t offset;
 540:..\..\..\arduinoLCD\test\Pain Drain\libraries\lvgl\src\font/lv_font_loader.c ****             if(lv_fs_read(fp, &offset, sizeof(uint16_t), NULL) != LV_FS_RES_OK) {
 541:..\..\..\arduinoLCD\test\Pain Drain\libraries\lvgl\src\font/lv_font_loader.c ****                 failed = true;
 542:..\..\..\arduinoLCD\test\Pain Drain\libraries\lvgl\src\font/lv_font_loader.c ****                 break;
 543:..\..\..\arduinoLCD\test\Pain Drain\libraries\lvgl\src\font/lv_font_loader.c ****             }
 544:..\..\..\arduinoLCD\test\Pain Drain\libraries\lvgl\src\font/lv_font_loader.c ****             glyph_offset[i] = offset;
 545:..\..\..\arduinoLCD\test\Pain Drain\libraries\lvgl\src\font/lv_font_loader.c ****         }
 546:..\..\..\arduinoLCD\test\Pain Drain\libraries\lvgl\src\font/lv_font_loader.c ****     }
 547:..\..\..\arduinoLCD\test\Pain Drain\libraries\lvgl\src\font/lv_font_loader.c ****     else if(font_header.index_to_loc_format == 1) {
 548:..\..\..\arduinoLCD\test\Pain Drain\libraries\lvgl\src\font/lv_font_loader.c ****         if(lv_fs_read(fp, glyph_offset, loca_count * sizeof(uint32_t), NULL) != LV_FS_RES_OK) {
 549:..\..\..\arduinoLCD\test\Pain Drain\libraries\lvgl\src\font/lv_font_loader.c ****             failed = true;
 550:..\..\..\arduinoLCD\test\Pain Drain\libraries\lvgl\src\font/lv_font_loader.c ****         }
 551:..\..\..\arduinoLCD\test\Pain Drain\libraries\lvgl\src\font/lv_font_loader.c ****     }
 552:..\..\..\arduinoLCD\test\Pain Drain\libraries\lvgl\src\font/lv_font_loader.c ****     else {
 553:..\..\..\arduinoLCD\test\Pain Drain\libraries\lvgl\src\font/lv_font_loader.c ****         LV_LOG_WARN("Unknown index_to_loc_format: %d.", font_header.index_to_loc_format);
 554:..\..\..\arduinoLCD\test\Pain Drain\libraries\lvgl\src\font/lv_font_loader.c ****         failed = true;
 555:..\..\..\arduinoLCD\test\Pain Drain\libraries\lvgl\src\font/lv_font_loader.c ****     }
 556:..\..\..\arduinoLCD\test\Pain Drain\libraries\lvgl\src\font/lv_font_loader.c **** 
 557:..\..\..\arduinoLCD\test\Pain Drain\libraries\lvgl\src\font/lv_font_loader.c ****     if(failed) {
 558:..\..\..\arduinoLCD\test\Pain Drain\libraries\lvgl\src\font/lv_font_loader.c ****         lv_mem_free(glyph_offset);
 559:..\..\..\arduinoLCD\test\Pain Drain\libraries\lvgl\src\font/lv_font_loader.c ****         return false;
 560:..\..\..\arduinoLCD\test\Pain Drain\libraries\lvgl\src\font/lv_font_loader.c ****     }
 561:..\..\..\arduinoLCD\test\Pain Drain\libraries\lvgl\src\font/lv_font_loader.c **** 
 562:..\..\..\arduinoLCD\test\Pain Drain\libraries\lvgl\src\font/lv_font_loader.c ****     /*glyph*/
 563:..\..\..\arduinoLCD\test\Pain Drain\libraries\lvgl\src\font/lv_font_loader.c ****     uint32_t glyph_start = loca_start + loca_length;
 564:..\..\..\arduinoLCD\test\Pain Drain\libraries\lvgl\src\font/lv_font_loader.c ****     int32_t glyph_length = load_glyph(
 565:..\..\..\arduinoLCD\test\Pain Drain\libraries\lvgl\src\font/lv_font_loader.c ****                                fp, font_dsc, glyph_start, glyph_offset, loca_count, &font_header);
 566:..\..\..\arduinoLCD\test\Pain Drain\libraries\lvgl\src\font/lv_font_loader.c **** 
 567:..\..\..\arduinoLCD\test\Pain Drain\libraries\lvgl\src\font/lv_font_loader.c ****     lv_mem_free(glyph_offset);
 568:..\..\..\arduinoLCD\test\Pain Drain\libraries\lvgl\src\font/lv_font_loader.c **** 
 569:..\..\..\arduinoLCD\test\Pain Drain\libraries\lvgl\src\font/lv_font_loader.c ****     if(glyph_length < 0) {
 570:..\..\..\arduinoLCD\test\Pain Drain\libraries\lvgl\src\font/lv_font_loader.c ****         return false;
 571:..\..\..\arduinoLCD\test\Pain Drain\libraries\lvgl\src\font/lv_font_loader.c ****     }
 572:..\..\..\arduinoLCD\test\Pain Drain\libraries\lvgl\src\font/lv_font_loader.c **** 
 573:..\..\..\arduinoLCD\test\Pain Drain\libraries\lvgl\src\font/lv_font_loader.c ****     if(font_header.tables_count < 4) {
 574:..\..\..\arduinoLCD\test\Pain Drain\libraries\lvgl\src\font/lv_font_loader.c ****         font_dsc->kern_dsc = NULL;
 575:..\..\..\arduinoLCD\test\Pain Drain\libraries\lvgl\src\font/lv_font_loader.c ****         font_dsc->kern_classes = 0;
 576:..\..\..\arduinoLCD\test\Pain Drain\libraries\lvgl\src\font/lv_font_loader.c ****         font_dsc->kern_scale = 0;
 577:..\..\..\arduinoLCD\test\Pain Drain\libraries\lvgl\src\font/lv_font_loader.c ****         return true;
 578:..\..\..\arduinoLCD\test\Pain Drain\libraries\lvgl\src\font/lv_font_loader.c ****     }
 579:..\..\..\arduinoLCD\test\Pain Drain\libraries\lvgl\src\font/lv_font_loader.c **** 
 580:..\..\..\arduinoLCD\test\Pain Drain\libraries\lvgl\src\font/lv_font_loader.c ****     uint32_t kern_start = glyph_start + glyph_length;
 581:..\..\..\arduinoLCD\test\Pain Drain\libraries\lvgl\src\font/lv_font_loader.c **** 
 582:..\..\..\arduinoLCD\test\Pain Drain\libraries\lvgl\src\font/lv_font_loader.c ****     int32_t kern_length = load_kern(fp, font_dsc, font_header.glyph_id_format, kern_start);
 583:..\..\..\arduinoLCD\test\Pain Drain\libraries\lvgl\src\font/lv_font_loader.c **** 
 584:..\..\..\arduinoLCD\test\Pain Drain\libraries\lvgl\src\font/lv_font_loader.c ****     return kern_length >= 0;
 585:..\..\..\arduinoLCD\test\Pain Drain\libraries\lvgl\src\font/lv_font_loader.c **** }
ARM GAS  C:\Users\haske\AppData\Local\Temp\cc5ISl1k.s 			page 38


 586:..\..\..\arduinoLCD\test\Pain Drain\libraries\lvgl\src\font/lv_font_loader.c **** 
 587:..\..\..\arduinoLCD\test\Pain Drain\libraries\lvgl\src\font/lv_font_loader.c **** int32_t load_kern(lv_fs_file_t * fp, lv_font_fmt_txt_dsc_t * font_dsc, uint8_t format, uint32_t sta
 588:..\..\..\arduinoLCD\test\Pain Drain\libraries\lvgl\src\font/lv_font_loader.c **** {
 1455              		.loc 1 588 0
 1456              		.cfi_startproc
 1457              		@ args = 0, pretend = 0, frame = 32
 1458              		@ frame_needed = 0, uses_anonymous_args = 0
 1459              	.LVL172:
 1460 0000 F0B5     		push	{r4, r5, r6, r7, lr}
 1461              		.cfi_def_cfa_offset 20
 1462              		.cfi_offset 4, -20
 1463              		.cfi_offset 5, -16
 1464              		.cfi_offset 6, -12
 1465              		.cfi_offset 7, -8
 1466              		.cfi_offset 14, -4
 1467 0002 89B0     		sub	sp, sp, #36
 1468              		.cfi_def_cfa_offset 56
 1469 0004 0400     		movs	r4, r0
 1470 0006 0090     		str	r0, [sp]
 1471 0008 0F00     		movs	r7, r1
 1472 000a 1600     		movs	r6, r2
 589:..\..\..\arduinoLCD\test\Pain Drain\libraries\lvgl\src\font/lv_font_loader.c ****     int32_t kern_length = read_label(fp, start, "kern");
 1473              		.loc 1 589 0
 1474 000c 6F4A     		ldr	r2, .L91
 1475              	.LVL173:
 1476 000e 1900     		movs	r1, r3
 1477              	.LVL174:
 1478 0010 FFF7FEFF 		bl	read_label
 1479              	.LVL175:
 1480 0014 051E     		subs	r5, r0, #0
 1481              	.LVL176:
 590:..\..\..\arduinoLCD\test\Pain Drain\libraries\lvgl\src\font/lv_font_loader.c ****     if(kern_length < 0) {
 1482              		.loc 1 590 0
 1483 0016 00DA     		bge	.LCB1577
 1484 0018 CBE0     		b	.L87	@long jump
 1485              	.LCB1577:
 591:..\..\..\arduinoLCD\test\Pain Drain\libraries\lvgl\src\font/lv_font_loader.c ****         return -1;
 592:..\..\..\arduinoLCD\test\Pain Drain\libraries\lvgl\src\font/lv_font_loader.c ****     }
 593:..\..\..\arduinoLCD\test\Pain Drain\libraries\lvgl\src\font/lv_font_loader.c **** 
 594:..\..\..\arduinoLCD\test\Pain Drain\libraries\lvgl\src\font/lv_font_loader.c ****     uint8_t kern_format_type;
 595:..\..\..\arduinoLCD\test\Pain Drain\libraries\lvgl\src\font/lv_font_loader.c ****     int32_t padding;
 596:..\..\..\arduinoLCD\test\Pain Drain\libraries\lvgl\src\font/lv_font_loader.c ****     if(lv_fs_read(fp, &kern_format_type, sizeof(uint8_t), NULL) != LV_FS_RES_OK ||
 1486              		.loc 1 596 0
 1487 001a 0023     		movs	r3, #0
 1488 001c 0122     		movs	r2, #1
 1489 001e 0F21     		movs	r1, #15
 1490 0020 04A8     		add	r0, sp, #16
 1491              	.LVL177:
 1492 0022 8446     		mov	ip, r0
 1493 0024 6144     		add	r1, r1, ip
 1494 0026 2000     		movs	r0, r4
 1495 0028 FFF7FEFF 		bl	lv_fs_read
 1496              	.LVL178:
 1497 002c 0028     		cmp	r0, #0
 1498 002e 00D0     		beq	.LCB1589
 1499 0030 C2E0     		b	.L88	@long jump
 1500              	.LCB1589:
ARM GAS  C:\Users\haske\AppData\Local\Temp\cc5ISl1k.s 			page 39


 597:..\..\..\arduinoLCD\test\Pain Drain\libraries\lvgl\src\font/lv_font_loader.c ****        lv_fs_read(fp, &padding, 3 * sizeof(uint8_t), NULL) != LV_FS_RES_OK) {
 1501              		.loc 1 597 0 discriminator 1
 1502 0032 0023     		movs	r3, #0
 1503 0034 0322     		movs	r2, #3
 1504 0036 06A9     		add	r1, sp, #24
 1505 0038 2000     		movs	r0, r4
 1506 003a FFF7FEFF 		bl	lv_fs_read
 1507              	.LVL179:
 596:..\..\..\arduinoLCD\test\Pain Drain\libraries\lvgl\src\font/lv_font_loader.c ****        lv_fs_read(fp, &padding, 3 * sizeof(uint8_t), NULL) != LV_FS_RES_OK) {
 1508              		.loc 1 596 0 discriminator 1
 1509 003e 0028     		cmp	r0, #0
 1510 0040 00D0     		beq	.LCB1597
 1511 0042 BCE0     		b	.L89	@long jump
 1512              	.LCB1597:
 598:..\..\..\arduinoLCD\test\Pain Drain\libraries\lvgl\src\font/lv_font_loader.c ****         return -1;
 599:..\..\..\arduinoLCD\test\Pain Drain\libraries\lvgl\src\font/lv_font_loader.c ****     }
 600:..\..\..\arduinoLCD\test\Pain Drain\libraries\lvgl\src\font/lv_font_loader.c **** 
 601:..\..\..\arduinoLCD\test\Pain Drain\libraries\lvgl\src\font/lv_font_loader.c ****     if(0 == kern_format_type) { /*sorted pairs*/
 1513              		.loc 1 601 0
 1514 0044 0F23     		movs	r3, #15
 1515 0046 04AA     		add	r2, sp, #16
 1516 0048 9446     		mov	ip, r2
 1517 004a 6344     		add	r3, r3, ip
 1518 004c 1B78     		ldrb	r3, [r3]
 1519 004e 002B     		cmp	r3, #0
 1520 0050 49D1     		bne	.L82
 1521              	.LBB31:
 602:..\..\..\arduinoLCD\test\Pain Drain\libraries\lvgl\src\font/lv_font_loader.c ****         lv_font_fmt_txt_kern_pair_t * kern_pair = lv_mem_alloc(sizeof(lv_font_fmt_txt_kern_pair_t))
 1522              		.loc 1 602 0
 1523 0052 0C30     		adds	r0, r0, #12
 1524 0054 FFF7FEFF 		bl	lv_mem_alloc
 1525              	.LVL180:
 1526 0058 0400     		movs	r4, r0
 1527              	.LVL181:
 603:..\..\..\arduinoLCD\test\Pain Drain\libraries\lvgl\src\font/lv_font_loader.c **** 
 604:..\..\..\arduinoLCD\test\Pain Drain\libraries\lvgl\src\font/lv_font_loader.c ****         memset(kern_pair, 0, sizeof(lv_font_fmt_txt_kern_pair_t));
 1528              		.loc 1 604 0
 1529 005a 0C22     		movs	r2, #12
 1530 005c 0021     		movs	r1, #0
 1531 005e FFF7FEFF 		bl	memset
 1532              	.LVL182:
 605:..\..\..\arduinoLCD\test\Pain Drain\libraries\lvgl\src\font/lv_font_loader.c **** 
 606:..\..\..\arduinoLCD\test\Pain Drain\libraries\lvgl\src\font/lv_font_loader.c ****         font_dsc->kern_dsc = kern_pair;
 1533              		.loc 1 606 0
 1534 0062 FC60     		str	r4, [r7, #12]
 607:..\..\..\arduinoLCD\test\Pain Drain\libraries\lvgl\src\font/lv_font_loader.c ****         font_dsc->kern_classes = 0;
 1535              		.loc 1 607 0
 1536 0064 FB7C     		ldrb	r3, [r7, #19]
 1537 0066 2022     		movs	r2, #32
 1538 0068 9343     		bics	r3, r2
 1539 006a FB74     		strb	r3, [r7, #19]
 1540              	.LVL183:
 608:..\..\..\arduinoLCD\test\Pain Drain\libraries\lvgl\src\font/lv_font_loader.c **** 
 609:..\..\..\arduinoLCD\test\Pain Drain\libraries\lvgl\src\font/lv_font_loader.c ****         uint32_t glyph_entries;
 610:..\..\..\arduinoLCD\test\Pain Drain\libraries\lvgl\src\font/lv_font_loader.c ****         if(lv_fs_read(fp, &glyph_entries, sizeof(uint32_t), NULL) != LV_FS_RES_OK) {
 1541              		.loc 1 610 0
 1542 006c 0023     		movs	r3, #0
ARM GAS  C:\Users\haske\AppData\Local\Temp\cc5ISl1k.s 			page 40


 1543 006e 1C3A     		subs	r2, r2, #28
 1544 0070 05A9     		add	r1, sp, #20
 1545 0072 0098     		ldr	r0, [sp]
 1546 0074 FFF7FEFF 		bl	lv_fs_read
 1547              	.LVL184:
 1548 0078 0028     		cmp	r0, #0
 1549 007a 31D1     		bne	.L83
 611:..\..\..\arduinoLCD\test\Pain Drain\libraries\lvgl\src\font/lv_font_loader.c ****             return -1;
 612:..\..\..\arduinoLCD\test\Pain Drain\libraries\lvgl\src\font/lv_font_loader.c ****         }
 613:..\..\..\arduinoLCD\test\Pain Drain\libraries\lvgl\src\font/lv_font_loader.c **** 
 614:..\..\..\arduinoLCD\test\Pain Drain\libraries\lvgl\src\font/lv_font_loader.c ****         int ids_size;
 615:..\..\..\arduinoLCD\test\Pain Drain\libraries\lvgl\src\font/lv_font_loader.c ****         if(format == 0) {
 1550              		.loc 1 615 0
 1551 007c 002E     		cmp	r6, #0
 1552 007e 02D1     		bne	.L84
 616:..\..\..\arduinoLCD\test\Pain Drain\libraries\lvgl\src\font/lv_font_loader.c ****             ids_size = sizeof(int8_t) * 2 * glyph_entries;
 1553              		.loc 1 616 0
 1554 0080 059B     		ldr	r3, [sp, #20]
 1555 0082 5F00     		lsls	r7, r3, #1
 1556              	.LVL185:
 1557 0084 01E0     		b	.L85
 1558              	.LVL186:
 1559              	.L84:
 617:..\..\..\arduinoLCD\test\Pain Drain\libraries\lvgl\src\font/lv_font_loader.c ****         }
 618:..\..\..\arduinoLCD\test\Pain Drain\libraries\lvgl\src\font/lv_font_loader.c ****         else {
 619:..\..\..\arduinoLCD\test\Pain Drain\libraries\lvgl\src\font/lv_font_loader.c ****             ids_size = sizeof(int16_t) * 2 * glyph_entries;
 1560              		.loc 1 619 0
 1561 0086 059B     		ldr	r3, [sp, #20]
 1562 0088 9F00     		lsls	r7, r3, #2
 1563              	.LVL187:
 1564              	.L85:
 620:..\..\..\arduinoLCD\test\Pain Drain\libraries\lvgl\src\font/lv_font_loader.c ****         }
 621:..\..\..\arduinoLCD\test\Pain Drain\libraries\lvgl\src\font/lv_font_loader.c **** 
 622:..\..\..\arduinoLCD\test\Pain Drain\libraries\lvgl\src\font/lv_font_loader.c ****         uint8_t * glyph_ids = lv_mem_alloc(ids_size);
 1565              		.loc 1 622 0
 1566 008a 3800     		movs	r0, r7
 1567 008c FFF7FEFF 		bl	lv_mem_alloc
 1568              	.LVL188:
 1569 0090 0190     		str	r0, [sp, #4]
 1570              	.LVL189:
 623:..\..\..\arduinoLCD\test\Pain Drain\libraries\lvgl\src\font/lv_font_loader.c ****         int8_t * values = lv_mem_alloc(glyph_entries);
 1571              		.loc 1 623 0
 1572 0092 0598     		ldr	r0, [sp, #20]
 1573              	.LVL190:
 1574 0094 FFF7FEFF 		bl	lv_mem_alloc
 1575              	.LVL191:
 624:..\..\..\arduinoLCD\test\Pain Drain\libraries\lvgl\src\font/lv_font_loader.c **** 
 625:..\..\..\arduinoLCD\test\Pain Drain\libraries\lvgl\src\font/lv_font_loader.c ****         kern_pair->glyph_ids_size = format;
 1576              		.loc 1 625 0
 1577 0098 B301     		lsls	r3, r6, #6
 1578 009a E27A     		ldrb	r2, [r4, #11]
 1579 009c 3F26     		movs	r6, #63
 1580 009e 1640     		ands	r6, r2
 1581 00a0 1E43     		orrs	r6, r3
 1582 00a2 E672     		strb	r6, [r4, #11]
 1583              	.LVL192:
 626:..\..\..\arduinoLCD\test\Pain Drain\libraries\lvgl\src\font/lv_font_loader.c ****         kern_pair->pair_cnt = glyph_entries;
ARM GAS  C:\Users\haske\AppData\Local\Temp\cc5ISl1k.s 			page 41


 1584              		.loc 1 626 0
 1585 00a4 059B     		ldr	r3, [sp, #20]
 1586 00a6 9B00     		lsls	r3, r3, #2
 1587 00a8 9A08     		lsrs	r2, r3, #2
 1588 00aa A368     		ldr	r3, [r4, #8]
 1589 00ac 9B0F     		lsrs	r3, r3, #30
 1590 00ae 9B07     		lsls	r3, r3, #30
 1591 00b0 1343     		orrs	r3, r2
 1592 00b2 A360     		str	r3, [r4, #8]
 627:..\..\..\arduinoLCD\test\Pain Drain\libraries\lvgl\src\font/lv_font_loader.c ****         kern_pair->glyph_ids = glyph_ids;
 1593              		.loc 1 627 0
 1594 00b4 0199     		ldr	r1, [sp, #4]
 1595 00b6 2160     		str	r1, [r4]
 628:..\..\..\arduinoLCD\test\Pain Drain\libraries\lvgl\src\font/lv_font_loader.c ****         kern_pair->values = values;
 1596              		.loc 1 628 0
 1597 00b8 0600     		movs	r6, r0
 1598 00ba 6060     		str	r0, [r4, #4]
 629:..\..\..\arduinoLCD\test\Pain Drain\libraries\lvgl\src\font/lv_font_loader.c **** 
 630:..\..\..\arduinoLCD\test\Pain Drain\libraries\lvgl\src\font/lv_font_loader.c ****         if(lv_fs_read(fp, glyph_ids, ids_size, NULL) != LV_FS_RES_OK) {
 1599              		.loc 1 630 0
 1600 00bc 0023     		movs	r3, #0
 1601 00be 3A00     		movs	r2, r7
 1602 00c0 009C     		ldr	r4, [sp]
 1603              	.LVL193:
 1604 00c2 2000     		movs	r0, r4
 1605              	.LVL194:
 1606 00c4 FFF7FEFF 		bl	lv_fs_read
 1607              	.LVL195:
 1608 00c8 0028     		cmp	r0, #0
 1609 00ca 09D1     		bne	.L83
 631:..\..\..\arduinoLCD\test\Pain Drain\libraries\lvgl\src\font/lv_font_loader.c ****             return -1;
 632:..\..\..\arduinoLCD\test\Pain Drain\libraries\lvgl\src\font/lv_font_loader.c ****         }
 633:..\..\..\arduinoLCD\test\Pain Drain\libraries\lvgl\src\font/lv_font_loader.c **** 
 634:..\..\..\arduinoLCD\test\Pain Drain\libraries\lvgl\src\font/lv_font_loader.c ****         if(lv_fs_read(fp, values, glyph_entries, NULL) != LV_FS_RES_OK) {
 1610              		.loc 1 634 0
 1611 00cc 0023     		movs	r3, #0
 1612 00ce 059A     		ldr	r2, [sp, #20]
 1613 00d0 3100     		movs	r1, r6
 1614 00d2 2000     		movs	r0, r4
 1615 00d4 FFF7FEFF 		bl	lv_fs_read
 1616              	.LVL196:
 1617 00d8 0028     		cmp	r0, #0
 1618 00da 01D1     		bne	.L83
 1619              	.LBE31:
 635:..\..\..\arduinoLCD\test\Pain Drain\libraries\lvgl\src\font/lv_font_loader.c ****             return -1;
 636:..\..\..\arduinoLCD\test\Pain Drain\libraries\lvgl\src\font/lv_font_loader.c ****         }
 637:..\..\..\arduinoLCD\test\Pain Drain\libraries\lvgl\src\font/lv_font_loader.c ****     }
 638:..\..\..\arduinoLCD\test\Pain Drain\libraries\lvgl\src\font/lv_font_loader.c ****     else if(3 == kern_format_type) { /*array M*N of classes*/
 639:..\..\..\arduinoLCD\test\Pain Drain\libraries\lvgl\src\font/lv_font_loader.c **** 
 640:..\..\..\arduinoLCD\test\Pain Drain\libraries\lvgl\src\font/lv_font_loader.c ****         lv_font_fmt_txt_kern_classes_t * kern_classes = lv_mem_alloc(sizeof(lv_font_fmt_txt_kern_cl
 641:..\..\..\arduinoLCD\test\Pain Drain\libraries\lvgl\src\font/lv_font_loader.c **** 
 642:..\..\..\arduinoLCD\test\Pain Drain\libraries\lvgl\src\font/lv_font_loader.c ****         memset(kern_classes, 0, sizeof(lv_font_fmt_txt_kern_classes_t));
 643:..\..\..\arduinoLCD\test\Pain Drain\libraries\lvgl\src\font/lv_font_loader.c **** 
 644:..\..\..\arduinoLCD\test\Pain Drain\libraries\lvgl\src\font/lv_font_loader.c ****         font_dsc->kern_dsc = kern_classes;
 645:..\..\..\arduinoLCD\test\Pain Drain\libraries\lvgl\src\font/lv_font_loader.c ****         font_dsc->kern_classes = 1;
 646:..\..\..\arduinoLCD\test\Pain Drain\libraries\lvgl\src\font/lv_font_loader.c **** 
 647:..\..\..\arduinoLCD\test\Pain Drain\libraries\lvgl\src\font/lv_font_loader.c ****         uint16_t kern_class_mapping_length;
ARM GAS  C:\Users\haske\AppData\Local\Temp\cc5ISl1k.s 			page 42


 648:..\..\..\arduinoLCD\test\Pain Drain\libraries\lvgl\src\font/lv_font_loader.c ****         uint8_t kern_table_rows;
 649:..\..\..\arduinoLCD\test\Pain Drain\libraries\lvgl\src\font/lv_font_loader.c ****         uint8_t kern_table_cols;
 650:..\..\..\arduinoLCD\test\Pain Drain\libraries\lvgl\src\font/lv_font_loader.c **** 
 651:..\..\..\arduinoLCD\test\Pain Drain\libraries\lvgl\src\font/lv_font_loader.c ****         if(lv_fs_read(fp, &kern_class_mapping_length, sizeof(uint16_t), NULL) != LV_FS_RES_OK ||
 652:..\..\..\arduinoLCD\test\Pain Drain\libraries\lvgl\src\font/lv_font_loader.c ****            lv_fs_read(fp, &kern_table_rows, sizeof(uint8_t), NULL) != LV_FS_RES_OK ||
 653:..\..\..\arduinoLCD\test\Pain Drain\libraries\lvgl\src\font/lv_font_loader.c ****            lv_fs_read(fp, &kern_table_cols, sizeof(uint8_t), NULL) != LV_FS_RES_OK) {
 654:..\..\..\arduinoLCD\test\Pain Drain\libraries\lvgl\src\font/lv_font_loader.c ****             return -1;
 655:..\..\..\arduinoLCD\test\Pain Drain\libraries\lvgl\src\font/lv_font_loader.c ****         }
 656:..\..\..\arduinoLCD\test\Pain Drain\libraries\lvgl\src\font/lv_font_loader.c **** 
 657:..\..\..\arduinoLCD\test\Pain Drain\libraries\lvgl\src\font/lv_font_loader.c ****         int kern_values_length = sizeof(int8_t) * kern_table_rows * kern_table_cols;
 658:..\..\..\arduinoLCD\test\Pain Drain\libraries\lvgl\src\font/lv_font_loader.c **** 
 659:..\..\..\arduinoLCD\test\Pain Drain\libraries\lvgl\src\font/lv_font_loader.c ****         uint8_t * kern_left = lv_mem_alloc(kern_class_mapping_length);
 660:..\..\..\arduinoLCD\test\Pain Drain\libraries\lvgl\src\font/lv_font_loader.c ****         uint8_t * kern_right = lv_mem_alloc(kern_class_mapping_length);
 661:..\..\..\arduinoLCD\test\Pain Drain\libraries\lvgl\src\font/lv_font_loader.c ****         int8_t * kern_values = lv_mem_alloc(kern_values_length);
 662:..\..\..\arduinoLCD\test\Pain Drain\libraries\lvgl\src\font/lv_font_loader.c **** 
 663:..\..\..\arduinoLCD\test\Pain Drain\libraries\lvgl\src\font/lv_font_loader.c ****         kern_classes->left_class_mapping  = kern_left;
 664:..\..\..\arduinoLCD\test\Pain Drain\libraries\lvgl\src\font/lv_font_loader.c ****         kern_classes->right_class_mapping = kern_right;
 665:..\..\..\arduinoLCD\test\Pain Drain\libraries\lvgl\src\font/lv_font_loader.c ****         kern_classes->left_class_cnt = kern_table_rows;
 666:..\..\..\arduinoLCD\test\Pain Drain\libraries\lvgl\src\font/lv_font_loader.c ****         kern_classes->right_class_cnt = kern_table_cols;
 667:..\..\..\arduinoLCD\test\Pain Drain\libraries\lvgl\src\font/lv_font_loader.c ****         kern_classes->class_pair_values = kern_values;
 668:..\..\..\arduinoLCD\test\Pain Drain\libraries\lvgl\src\font/lv_font_loader.c **** 
 669:..\..\..\arduinoLCD\test\Pain Drain\libraries\lvgl\src\font/lv_font_loader.c ****         if(lv_fs_read(fp, kern_left, kern_class_mapping_length, NULL) != LV_FS_RES_OK ||
 670:..\..\..\arduinoLCD\test\Pain Drain\libraries\lvgl\src\font/lv_font_loader.c ****            lv_fs_read(fp, kern_right, kern_class_mapping_length, NULL) != LV_FS_RES_OK ||
 671:..\..\..\arduinoLCD\test\Pain Drain\libraries\lvgl\src\font/lv_font_loader.c ****            lv_fs_read(fp, kern_values, kern_values_length, NULL) != LV_FS_RES_OK) {
 672:..\..\..\arduinoLCD\test\Pain Drain\libraries\lvgl\src\font/lv_font_loader.c ****             return -1;
 673:..\..\..\arduinoLCD\test\Pain Drain\libraries\lvgl\src\font/lv_font_loader.c ****         }
 674:..\..\..\arduinoLCD\test\Pain Drain\libraries\lvgl\src\font/lv_font_loader.c ****     }
 675:..\..\..\arduinoLCD\test\Pain Drain\libraries\lvgl\src\font/lv_font_loader.c ****     else {
 676:..\..\..\arduinoLCD\test\Pain Drain\libraries\lvgl\src\font/lv_font_loader.c ****         LV_LOG_WARN("Unknown kern_format_type: %d", kern_format_type);
 677:..\..\..\arduinoLCD\test\Pain Drain\libraries\lvgl\src\font/lv_font_loader.c ****         return -1;
 678:..\..\..\arduinoLCD\test\Pain Drain\libraries\lvgl\src\font/lv_font_loader.c ****     }
 679:..\..\..\arduinoLCD\test\Pain Drain\libraries\lvgl\src\font/lv_font_loader.c **** 
 680:..\..\..\arduinoLCD\test\Pain Drain\libraries\lvgl\src\font/lv_font_loader.c ****     return kern_length;
 1620              		.loc 1 680 0
 1621 00dc 2800     		movs	r0, r5
 1622 00de 73E0     		b	.L81
 1623              	.LVL197:
 1624              	.L83:
 1625              	.LBB32:
 611:..\..\..\arduinoLCD\test\Pain Drain\libraries\lvgl\src\font/lv_font_loader.c ****         }
 1626              		.loc 1 611 0 discriminator 1
 1627 00e0 0120     		movs	r0, #1
 1628 00e2 4042     		rsbs	r0, r0, #0
 1629 00e4 70E0     		b	.L81
 1630              	.LVL198:
 1631              	.L82:
 1632              	.LBE32:
 638:..\..\..\arduinoLCD\test\Pain Drain\libraries\lvgl\src\font/lv_font_loader.c **** 
 1633              		.loc 1 638 0
 1634 00e6 032B     		cmp	r3, #3
 1635 00e8 6CD1     		bne	.L90
 1636              	.LBB33:
 640:..\..\..\arduinoLCD\test\Pain Drain\libraries\lvgl\src\font/lv_font_loader.c **** 
 1637              		.loc 1 640 0
 1638 00ea 1020     		movs	r0, #16
 1639 00ec FFF7FEFF 		bl	lv_mem_alloc
 1640              	.LVL199:
ARM GAS  C:\Users\haske\AppData\Local\Temp\cc5ISl1k.s 			page 43


 1641 00f0 0400     		movs	r4, r0
 1642              	.LVL200:
 642:..\..\..\arduinoLCD\test\Pain Drain\libraries\lvgl\src\font/lv_font_loader.c **** 
 1643              		.loc 1 642 0
 1644 00f2 1022     		movs	r2, #16
 1645 00f4 0021     		movs	r1, #0
 1646 00f6 FFF7FEFF 		bl	memset
 1647              	.LVL201:
 644:..\..\..\arduinoLCD\test\Pain Drain\libraries\lvgl\src\font/lv_font_loader.c ****         font_dsc->kern_classes = 1;
 1648              		.loc 1 644 0
 1649 00fa FC60     		str	r4, [r7, #12]
 645:..\..\..\arduinoLCD\test\Pain Drain\libraries\lvgl\src\font/lv_font_loader.c **** 
 1650              		.loc 1 645 0
 1651 00fc FA7C     		ldrb	r2, [r7, #19]
 1652 00fe 2023     		movs	r3, #32
 1653 0100 1343     		orrs	r3, r2
 1654 0102 FB74     		strb	r3, [r7, #19]
 1655              	.LVL202:
 651:..\..\..\arduinoLCD\test\Pain Drain\libraries\lvgl\src\font/lv_font_loader.c ****            lv_fs_read(fp, &kern_table_rows, sizeof(uint8_t), NULL) != LV_FS_RES_OK ||
 1656              		.loc 1 651 0
 1657 0104 0023     		movs	r3, #0
 1658 0106 0222     		movs	r2, #2
 1659 0108 05A9     		add	r1, sp, #20
 1660 010a 009E     		ldr	r6, [sp]
 1661 010c 3000     		movs	r0, r6
 1662 010e FFF7FEFF 		bl	lv_fs_read
 1663              	.LVL203:
 1664 0112 0028     		cmp	r0, #0
 1665 0114 4AD1     		bne	.L86
 652:..\..\..\arduinoLCD\test\Pain Drain\libraries\lvgl\src\font/lv_font_loader.c ****            lv_fs_read(fp, &kern_table_cols, sizeof(uint8_t), NULL) != LV_FS_RES_OK) {
 1666              		.loc 1 652 0 discriminator 1
 1667 0116 0023     		movs	r3, #0
 1668 0118 0122     		movs	r2, #1
 1669 011a 04A9     		add	r1, sp, #16
 1670 011c 0231     		adds	r1, r1, #2
 1671 011e 3000     		movs	r0, r6
 1672 0120 FFF7FEFF 		bl	lv_fs_read
 1673              	.LVL204:
 651:..\..\..\arduinoLCD\test\Pain Drain\libraries\lvgl\src\font/lv_font_loader.c ****            lv_fs_read(fp, &kern_table_rows, sizeof(uint8_t), NULL) != LV_FS_RES_OK ||
 1674              		.loc 1 651 0 discriminator 1
 1675 0124 0028     		cmp	r0, #0
 1676 0126 41D1     		bne	.L86
 653:..\..\..\arduinoLCD\test\Pain Drain\libraries\lvgl\src\font/lv_font_loader.c ****             return -1;
 1677              		.loc 1 653 0
 1678 0128 0023     		movs	r3, #0
 1679 012a 0122     		movs	r2, #1
 1680 012c 04A9     		add	r1, sp, #16
 1681 012e 0331     		adds	r1, r1, #3
 1682 0130 0096     		str	r6, [sp]
 1683 0132 3000     		movs	r0, r6
 1684 0134 FFF7FEFF 		bl	lv_fs_read
 1685              	.LVL205:
 652:..\..\..\arduinoLCD\test\Pain Drain\libraries\lvgl\src\font/lv_font_loader.c ****            lv_fs_read(fp, &kern_table_cols, sizeof(uint8_t), NULL) != LV_FS_RES_OK) {
 1686              		.loc 1 652 0
 1687 0138 0028     		cmp	r0, #0
 1688 013a 37D1     		bne	.L86
 657:..\..\..\arduinoLCD\test\Pain Drain\libraries\lvgl\src\font/lv_font_loader.c **** 
ARM GAS  C:\Users\haske\AppData\Local\Temp\cc5ISl1k.s 			page 44


 1689              		.loc 1 657 0
 1690 013c 04AB     		add	r3, sp, #16
 1691 013e 9F1C     		adds	r7, r3, #2
 1692              	.LVL206:
 1693 0140 9A78     		ldrb	r2, [r3, #2]
 1694 0142 DB78     		ldrb	r3, [r3, #3]
 1695 0144 5A43     		muls	r2, r3
 1696 0146 0292     		str	r2, [sp, #8]
 1697              	.LVL207:
 659:..\..\..\arduinoLCD\test\Pain Drain\libraries\lvgl\src\font/lv_font_loader.c ****         uint8_t * kern_right = lv_mem_alloc(kern_class_mapping_length);
 1698              		.loc 1 659 0
 1699 0148 05AE     		add	r6, sp, #20
 1700 014a 3088     		ldrh	r0, [r6]
 1701 014c FFF7FEFF 		bl	lv_mem_alloc
 1702              	.LVL208:
 1703 0150 0390     		str	r0, [sp, #12]
 1704              	.LVL209:
 660:..\..\..\arduinoLCD\test\Pain Drain\libraries\lvgl\src\font/lv_font_loader.c ****         int8_t * kern_values = lv_mem_alloc(kern_values_length);
 1705              		.loc 1 660 0
 1706 0152 3088     		ldrh	r0, [r6]
 1707              	.LVL210:
 1708 0154 FFF7FEFF 		bl	lv_mem_alloc
 1709              	.LVL211:
 1710 0158 0190     		str	r0, [sp, #4]
 1711              	.LVL212:
 661:..\..\..\arduinoLCD\test\Pain Drain\libraries\lvgl\src\font/lv_font_loader.c **** 
 1712              		.loc 1 661 0
 1713 015a 0298     		ldr	r0, [sp, #8]
 1714              	.LVL213:
 1715 015c FFF7FEFF 		bl	lv_mem_alloc
 1716              	.LVL214:
 663:..\..\..\arduinoLCD\test\Pain Drain\libraries\lvgl\src\font/lv_font_loader.c ****         kern_classes->right_class_mapping = kern_right;
 1717              		.loc 1 663 0
 1718 0160 0399     		ldr	r1, [sp, #12]
 1719 0162 6160     		str	r1, [r4, #4]
 664:..\..\..\arduinoLCD\test\Pain Drain\libraries\lvgl\src\font/lv_font_loader.c ****         kern_classes->left_class_cnt = kern_table_rows;
 1720              		.loc 1 664 0
 1721 0164 019B     		ldr	r3, [sp, #4]
 1722 0166 A360     		str	r3, [r4, #8]
 665:..\..\..\arduinoLCD\test\Pain Drain\libraries\lvgl\src\font/lv_font_loader.c ****         kern_classes->right_class_cnt = kern_table_cols;
 1723              		.loc 1 665 0
 1724 0168 3B78     		ldrb	r3, [r7]
 1725 016a 2373     		strb	r3, [r4, #12]
 666:..\..\..\arduinoLCD\test\Pain Drain\libraries\lvgl\src\font/lv_font_loader.c ****         kern_classes->class_pair_values = kern_values;
 1726              		.loc 1 666 0
 1727 016c 04AF     		add	r7, sp, #16
 1728 016e FB78     		ldrb	r3, [r7, #3]
 1729 0170 6373     		strb	r3, [r4, #13]
 667:..\..\..\arduinoLCD\test\Pain Drain\libraries\lvgl\src\font/lv_font_loader.c **** 
 1730              		.loc 1 667 0
 1731 0172 0700     		movs	r7, r0
 1732 0174 2060     		str	r0, [r4]
 669:..\..\..\arduinoLCD\test\Pain Drain\libraries\lvgl\src\font/lv_font_loader.c ****            lv_fs_read(fp, kern_right, kern_class_mapping_length, NULL) != LV_FS_RES_OK ||
 1733              		.loc 1 669 0
 1734 0176 3288     		ldrh	r2, [r6]
 1735 0178 0023     		movs	r3, #0
 1736 017a 009C     		ldr	r4, [sp]
ARM GAS  C:\Users\haske\AppData\Local\Temp\cc5ISl1k.s 			page 45


 1737              	.LVL215:
 1738 017c 2000     		movs	r0, r4
 1739              	.LVL216:
 1740 017e FFF7FEFF 		bl	lv_fs_read
 1741              	.LVL217:
 1742 0182 0028     		cmp	r0, #0
 1743 0184 12D1     		bne	.L86
 670:..\..\..\arduinoLCD\test\Pain Drain\libraries\lvgl\src\font/lv_font_loader.c ****            lv_fs_read(fp, kern_values, kern_values_length, NULL) != LV_FS_RES_OK) {
 1744              		.loc 1 670 0 discriminator 1
 1745 0186 05AB     		add	r3, sp, #20
 1746 0188 1A88     		ldrh	r2, [r3]
 1747 018a 0023     		movs	r3, #0
 1748 018c 0199     		ldr	r1, [sp, #4]
 1749 018e 2000     		movs	r0, r4
 1750 0190 FFF7FEFF 		bl	lv_fs_read
 1751              	.LVL218:
 669:..\..\..\arduinoLCD\test\Pain Drain\libraries\lvgl\src\font/lv_font_loader.c ****            lv_fs_read(fp, kern_right, kern_class_mapping_length, NULL) != LV_FS_RES_OK ||
 1752              		.loc 1 669 0 discriminator 1
 1753 0194 0028     		cmp	r0, #0
 1754 0196 09D1     		bne	.L86
 671:..\..\..\arduinoLCD\test\Pain Drain\libraries\lvgl\src\font/lv_font_loader.c ****             return -1;
 1755              		.loc 1 671 0
 1756 0198 0023     		movs	r3, #0
 1757 019a 029A     		ldr	r2, [sp, #8]
 1758 019c 3900     		movs	r1, r7
 1759 019e 2000     		movs	r0, r4
 1760 01a0 FFF7FEFF 		bl	lv_fs_read
 1761              	.LVL219:
 670:..\..\..\arduinoLCD\test\Pain Drain\libraries\lvgl\src\font/lv_font_loader.c ****            lv_fs_read(fp, kern_values, kern_values_length, NULL) != LV_FS_RES_OK) {
 1762              		.loc 1 670 0
 1763 01a4 0028     		cmp	r0, #0
 1764 01a6 01D1     		bne	.L86
 1765              	.LBE33:
 1766              		.loc 1 680 0
 1767 01a8 2800     		movs	r0, r5
 1768 01aa 0DE0     		b	.L81
 1769              	.LVL220:
 1770              	.L86:
 1771              	.LBB34:
 654:..\..\..\arduinoLCD\test\Pain Drain\libraries\lvgl\src\font/lv_font_loader.c ****         }
 1772              		.loc 1 654 0 discriminator 1
 1773 01ac 0120     		movs	r0, #1
 1774 01ae 4042     		rsbs	r0, r0, #0
 1775 01b0 0AE0     		b	.L81
 1776              	.LVL221:
 1777              	.L87:
 1778              	.LBE34:
 591:..\..\..\arduinoLCD\test\Pain Drain\libraries\lvgl\src\font/lv_font_loader.c ****     }
 1779              		.loc 1 591 0
 1780 01b2 0120     		movs	r0, #1
 1781              	.LVL222:
 1782 01b4 4042     		rsbs	r0, r0, #0
 1783 01b6 07E0     		b	.L81
 1784              	.L88:
 598:..\..\..\arduinoLCD\test\Pain Drain\libraries\lvgl\src\font/lv_font_loader.c ****     }
 1785              		.loc 1 598 0
 1786 01b8 0120     		movs	r0, #1
ARM GAS  C:\Users\haske\AppData\Local\Temp\cc5ISl1k.s 			page 46


 1787 01ba 4042     		rsbs	r0, r0, #0
 1788 01bc 04E0     		b	.L81
 1789              	.L89:
 1790 01be 0120     		movs	r0, #1
 1791 01c0 4042     		rsbs	r0, r0, #0
 1792 01c2 01E0     		b	.L81
 1793              	.L90:
 677:..\..\..\arduinoLCD\test\Pain Drain\libraries\lvgl\src\font/lv_font_loader.c ****     }
 1794              		.loc 1 677 0
 1795 01c4 0120     		movs	r0, #1
 1796 01c6 4042     		rsbs	r0, r0, #0
 1797              	.LVL223:
 1798              	.L81:
 681:..\..\..\arduinoLCD\test\Pain Drain\libraries\lvgl\src\font/lv_font_loader.c **** }
 1799              		.loc 1 681 0
 1800 01c8 09B0     		add	sp, sp, #36
 1801              		@ sp needed
 1802              	.LVL224:
 1803 01ca F0BD     		pop	{r4, r5, r6, r7, pc}
 1804              	.L92:
 1805              		.align	2
 1806              	.L91:
 1807 01cc 10000000 		.word	.LC4
 1808              		.cfi_endproc
 1809              	.LFE212:
 1810              		.size	load_kern, .-load_kern
 1811              		.section	.text.lvgl_load_font,"ax",%progbits
 1812              		.align	2
 1813              		.code	16
 1814              		.thumb_func
 1815              		.type	lvgl_load_font, %function
 1816              	lvgl_load_font:
 1817              	.LFB211:
 484:..\..\..\arduinoLCD\test\Pain Drain\libraries\lvgl\src\font/lv_font_loader.c ****     lv_font_fmt_txt_dsc_t * font_dsc = (lv_font_fmt_txt_dsc_t *)
 1818              		.loc 1 484 0
 1819              		.cfi_startproc
 1820              		@ args = 0, pretend = 0, frame = 48
 1821              		@ frame_needed = 0, uses_anonymous_args = 0
 1822              	.LVL225:
 1823 0000 F0B5     		push	{r4, r5, r6, r7, lr}
 1824              		.cfi_def_cfa_offset 20
 1825              		.cfi_offset 4, -20
 1826              		.cfi_offset 5, -16
 1827              		.cfi_offset 6, -12
 1828              		.cfi_offset 7, -8
 1829              		.cfi_offset 14, -4
 1830 0002 4F46     		mov	r7, r9
 1831 0004 4646     		mov	r6, r8
 1832 0006 C0B4     		push	{r6, r7}
 1833              		.cfi_def_cfa_offset 28
 1834              		.cfi_offset 8, -28
 1835              		.cfi_offset 9, -24
 1836 0008 8FB0     		sub	sp, sp, #60
 1837              		.cfi_def_cfa_offset 88
 1838 000a 0600     		movs	r6, r0
 1839 000c 0D00     		movs	r5, r1
 485:..\..\..\arduinoLCD\test\Pain Drain\libraries\lvgl\src\font/lv_font_loader.c ****                                        lv_mem_alloc(sizeof(lv_font_fmt_txt_dsc_t));
ARM GAS  C:\Users\haske\AppData\Local\Temp\cc5ISl1k.s 			page 47


 1840              		.loc 1 485 0
 1841 000e 1820     		movs	r0, #24
 1842              	.LVL226:
 1843 0010 FFF7FEFF 		bl	lv_mem_alloc
 1844              	.LVL227:
 1845 0014 0400     		movs	r4, r0
 1846              	.LVL228:
 488:..\..\..\arduinoLCD\test\Pain Drain\libraries\lvgl\src\font/lv_font_loader.c **** 
 1847              		.loc 1 488 0
 1848 0016 1822     		movs	r2, #24
 1849 0018 0021     		movs	r1, #0
 1850 001a FFF7FEFF 		bl	memset
 1851              	.LVL229:
 490:..\..\..\arduinoLCD\test\Pain Drain\libraries\lvgl\src\font/lv_font_loader.c **** 
 1852              		.loc 1 490 0
 1853 001e 2C61     		str	r4, [r5, #16]
 493:..\..\..\arduinoLCD\test\Pain Drain\libraries\lvgl\src\font/lv_font_loader.c ****     if(header_length < 0) {
 1854              		.loc 1 493 0
 1855 0020 644A     		ldr	r2, .L112
 1856 0022 0021     		movs	r1, #0
 1857 0024 3000     		movs	r0, r6
 1858 0026 FFF7FEFF 		bl	read_label
 1859              	.LVL230:
 1860 002a 071E     		subs	r7, r0, #0
 1861              	.LVL231:
 494:..\..\..\arduinoLCD\test\Pain Drain\libraries\lvgl\src\font/lv_font_loader.c ****         return false;
 1862              		.loc 1 494 0
 1863 002c 00DA     		bge	.LCB1957
 1864 002e B1E0     		b	.L102	@long jump
 1865              	.LCB1957:
 499:..\..\..\arduinoLCD\test\Pain Drain\libraries\lvgl\src\font/lv_font_loader.c ****         return false;
 1866              		.loc 1 499 0
 1867 0030 0023     		movs	r3, #0
 1868 0032 2822     		movs	r2, #40
 1869 0034 04A9     		add	r1, sp, #16
 1870 0036 3000     		movs	r0, r6
 1871              	.LVL232:
 1872 0038 FFF7FEFF 		bl	lv_fs_read
 1873              	.LVL233:
 1874 003c 0028     		cmp	r0, #0
 1875 003e 00D0     		beq	.LCB1966
 1876 0040 AAE0     		b	.L103	@long jump
 1877              	.LCB1966:
 503:..\..\..\arduinoLCD\test\Pain Drain\libraries\lvgl\src\font/lv_font_loader.c ****     font->line_height = font_header.ascent - font_header.descent;
 1878              		.loc 1 503 0
 1879 0042 04AB     		add	r3, sp, #16
 1880 0044 0A22     		movs	r2, #10
 1881 0046 995E     		ldrsh	r1, [r3, r2]
 1882 0048 4A42     		rsbs	r2, r1, #0
 1883 004a 6A81     		strh	r2, [r5, #10]
 504:..\..\..\arduinoLCD\test\Pain Drain\libraries\lvgl\src\font/lv_font_loader.c ****     font->get_glyph_dsc = lv_font_get_glyph_dsc_fmt_txt;
 1884              		.loc 1 504 0
 1885 004c 1A89     		ldrh	r2, [r3, #8]
 1886 004e 521A     		subs	r2, r2, r1
 1887 0050 2A81     		strh	r2, [r5, #8]
 505:..\..\..\arduinoLCD\test\Pain Drain\libraries\lvgl\src\font/lv_font_loader.c ****     font->get_glyph_bitmap = lv_font_get_bitmap_fmt_txt;
 1888              		.loc 1 505 0
ARM GAS  C:\Users\haske\AppData\Local\Temp\cc5ISl1k.s 			page 48


 1889 0052 594A     		ldr	r2, .L112+4
 1890 0054 2A60     		str	r2, [r5]
 506:..\..\..\arduinoLCD\test\Pain Drain\libraries\lvgl\src\font/lv_font_loader.c ****     font->subpx = font_header.subpixels_mode;
 1891              		.loc 1 506 0
 1892 0056 594A     		ldr	r2, .L112+8
 1893 0058 6A60     		str	r2, [r5, #4]
 507:..\..\..\arduinoLCD\test\Pain Drain\libraries\lvgl\src\font/lv_font_loader.c ****     font->underline_position = font_header.underline_position;
 1894              		.loc 1 507 0
 1895 005a 2222     		movs	r2, #34
 1896 005c 9A5C     		ldrb	r2, [r3, r2]
 1897 005e 0321     		movs	r1, #3
 1898 0060 1140     		ands	r1, r2
 1899 0062 2A7B     		ldrb	r2, [r5, #12]
 1900 0064 0330     		adds	r0, r0, #3
 1901 0066 8243     		bics	r2, r0
 1902 0068 0A43     		orrs	r2, r1
 1903 006a 2A73     		strb	r2, [r5, #12]
 508:..\..\..\arduinoLCD\test\Pain Drain\libraries\lvgl\src\font/lv_font_loader.c ****     font->underline_thickness = font_header.underline_thickness;
 1904              		.loc 1 508 0
 1905 006c 2421     		movs	r1, #36
 1906 006e 5A5E     		ldrsh	r2, [r3, r1]
 1907 0070 6A73     		strb	r2, [r5, #13]
 509:..\..\..\arduinoLCD\test\Pain Drain\libraries\lvgl\src\font/lv_font_loader.c **** 
 1908              		.loc 1 509 0
 1909 0072 DA8C     		ldrh	r2, [r3, #38]
 1910 0074 AA73     		strb	r2, [r5, #14]
 511:..\..\..\arduinoLCD\test\Pain Drain\libraries\lvgl\src\font/lv_font_loader.c ****     font_dsc->kern_scale = font_header.kerning_scale;
 1911              		.loc 1 511 0
 1912 0076 5A7F     		ldrb	r2, [r3, #29]
 1913 0078 0F21     		movs	r1, #15
 1914 007a 0A40     		ands	r2, r1
 1915 007c 5100     		lsls	r1, r2, #1
 1916 007e E27C     		ldrb	r2, [r4, #19]
 1917 0080 1B30     		adds	r0, r0, #27
 1918 0082 8243     		bics	r2, r0
 1919 0084 0A43     		orrs	r2, r1
 1920 0086 E274     		strb	r2, [r4, #19]
 512:..\..\..\arduinoLCD\test\Pain Drain\libraries\lvgl\src\font/lv_font_loader.c ****     font_dsc->bitmap_format = font_header.compression_id;
 1921              		.loc 1 512 0
 1922 0088 1A8B     		ldrh	r2, [r3, #24]
 1923 008a 2282     		strh	r2, [r4, #16]
 513:..\..\..\arduinoLCD\test\Pain Drain\libraries\lvgl\src\font/lv_font_loader.c **** 
 1924              		.loc 1 513 0
 1925 008c 2122     		movs	r2, #33
 1926 008e 9B5C     		ldrb	r3, [r3, r2]
 1927 0090 9A01     		lsls	r2, r3, #6
 1928 0092 E37C     		ldrb	r3, [r4, #19]
 1929 0094 3F21     		movs	r1, #63
 1930 0096 0B40     		ands	r3, r1
 1931 0098 1343     		orrs	r3, r2
 1932 009a E374     		strb	r3, [r4, #19]
 1933              	.LVL234:
 517:..\..\..\arduinoLCD\test\Pain Drain\libraries\lvgl\src\font/lv_font_loader.c ****     if(cmaps_length < 0) {
 1934              		.loc 1 517 0
 1935 009c 3A00     		movs	r2, r7
 1936 009e 2100     		movs	r1, r4
 1937 00a0 3000     		movs	r0, r6
ARM GAS  C:\Users\haske\AppData\Local\Temp\cc5ISl1k.s 			page 49


 1938 00a2 FFF7FEFF 		bl	load_cmaps
 1939              	.LVL235:
 518:..\..\..\arduinoLCD\test\Pain Drain\libraries\lvgl\src\font/lv_font_loader.c ****         return false;
 1940              		.loc 1 518 0
 1941 00a6 0028     		cmp	r0, #0
 1942 00a8 78DB     		blt	.L104
 523:..\..\..\arduinoLCD\test\Pain Drain\libraries\lvgl\src\font/lv_font_loader.c ****     int32_t loca_length = read_label(fp, loca_start, "loca");
 1943              		.loc 1 523 0
 1944 00aa 3F18     		adds	r7, r7, r0
 1945              	.LVL236:
 524:..\..\..\arduinoLCD\test\Pain Drain\libraries\lvgl\src\font/lv_font_loader.c ****     if(loca_length < 0) {
 1946              		.loc 1 524 0
 1947 00ac 444A     		ldr	r2, .L112+12
 1948 00ae 3900     		movs	r1, r7
 1949 00b0 3000     		movs	r0, r6
 1950              	.LVL237:
 1951 00b2 FFF7FEFF 		bl	read_label
 1952              	.LVL238:
 1953 00b6 8046     		mov	r8, r0
 1954              	.LVL239:
 525:..\..\..\arduinoLCD\test\Pain Drain\libraries\lvgl\src\font/lv_font_loader.c ****         return false;
 1955              		.loc 1 525 0
 1956 00b8 0028     		cmp	r0, #0
 1957 00ba 71DB     		blt	.L105
 530:..\..\..\arduinoLCD\test\Pain Drain\libraries\lvgl\src\font/lv_font_loader.c ****         return false;
 1958              		.loc 1 530 0
 1959 00bc 0023     		movs	r3, #0
 1960 00be 0422     		movs	r2, #4
 1961 00c0 03A9     		add	r1, sp, #12
 1962 00c2 3000     		movs	r0, r6
 1963              	.LVL240:
 1964 00c4 FFF7FEFF 		bl	lv_fs_read
 1965              	.LVL241:
 1966 00c8 0028     		cmp	r0, #0
 1967 00ca 6BD1     		bne	.L106
 1968              	.LVL242:
 535:..\..\..\arduinoLCD\test\Pain Drain\libraries\lvgl\src\font/lv_font_loader.c **** 
 1969              		.loc 1 535 0
 1970 00cc 039B     		ldr	r3, [sp, #12]
 1971 00ce 581C     		adds	r0, r3, #1
 1972 00d0 8000     		lsls	r0, r0, #2
 1973 00d2 FFF7FEFF 		bl	lv_mem_alloc
 1974              	.LVL243:
 1975 00d6 8146     		mov	r9, r0
 1976              	.LVL244:
 537:..\..\..\arduinoLCD\test\Pain Drain\libraries\lvgl\src\font/lv_font_loader.c ****         for(unsigned int i = 0; i < loca_count; ++i) {
 1977              		.loc 1 537 0
 1978 00d8 04AB     		add	r3, sp, #16
 1979 00da 9B7E     		ldrb	r3, [r3, #26]
 1980 00dc 002B     		cmp	r3, #0
 1981 00de 13D0     		beq	.L107
 1982 00e0 18E0     		b	.L111
 1983              	.LVL245:
 1984              	.L99:
 1985              	.LBB35:
 1986              	.LBB36:
 540:..\..\..\arduinoLCD\test\Pain Drain\libraries\lvgl\src\font/lv_font_loader.c ****                 failed = true;
ARM GAS  C:\Users\haske\AppData\Local\Temp\cc5ISl1k.s 			page 50


 1987              		.loc 1 540 0
 1988 00e2 0023     		movs	r3, #0
 1989 00e4 0222     		movs	r2, #2
 1990 00e6 0A21     		movs	r1, #10
 1991 00e8 6944     		add	r1, r1, sp
 1992 00ea 3000     		movs	r0, r6
 1993 00ec FFF7FEFF 		bl	lv_fs_read
 1994              	.LVL246:
 1995 00f0 0028     		cmp	r0, #0
 1996 00f2 01D0     		beq	.L97
 1997              	.LVL247:
 541:..\..\..\arduinoLCD\test\Pain Drain\libraries\lvgl\src\font/lv_font_loader.c ****                 break;
 1998              		.loc 1 541 0
 1999 00f4 0123     		movs	r3, #1
 2000 00f6 1DE0     		b	.L98
 2001              	.LVL248:
 2002              	.L97:
 544:..\..\..\arduinoLCD\test\Pain Drain\libraries\lvgl\src\font/lv_font_loader.c ****         }
 2003              		.loc 1 544 0
 2004 00f8 A900     		lsls	r1, r5, #2
 2005 00fa 0A23     		movs	r3, #10
 2006 00fc 6B44     		add	r3, r3, sp
 2007 00fe 1B88     		ldrh	r3, [r3]
 2008 0100 4A46     		mov	r2, r9
 2009 0102 5350     		str	r3, [r2, r1]
 2010              	.LBE36:
 538:..\..\..\arduinoLCD\test\Pain Drain\libraries\lvgl\src\font/lv_font_loader.c ****             uint16_t offset;
 2011              		.loc 1 538 0
 2012 0104 0135     		adds	r5, r5, #1
 2013              	.LVL249:
 2014 0106 00E0     		b	.L95
 2015              	.LVL250:
 2016              	.L107:
 2017              	.LBE35:
 2018 0108 0025     		movs	r5, #0
 2019              	.LVL251:
 2020              	.L95:
 2021              	.LBB37:
 538:..\..\..\arduinoLCD\test\Pain Drain\libraries\lvgl\src\font/lv_font_loader.c ****             uint16_t offset;
 2022              		.loc 1 538 0 is_stmt 0 discriminator 1
 2023 010a 039B     		ldr	r3, [sp, #12]
 2024 010c 9D42     		cmp	r5, r3
 2025 010e E8D3     		bcc	.L99
 2026              	.LBE37:
 534:..\..\..\arduinoLCD\test\Pain Drain\libraries\lvgl\src\font/lv_font_loader.c ****     uint32_t * glyph_offset = lv_mem_alloc(sizeof(uint32_t) * (loca_count + 1));
 2027              		.loc 1 534 0 is_stmt 1
 2028 0110 0023     		movs	r3, #0
 2029 0112 0FE0     		b	.L98
 2030              	.LVL252:
 2031              	.L111:
 547:..\..\..\arduinoLCD\test\Pain Drain\libraries\lvgl\src\font/lv_font_loader.c ****         if(lv_fs_read(fp, glyph_offset, loca_count * sizeof(uint32_t), NULL) != LV_FS_RES_OK) {
 2032              		.loc 1 547 0
 2033 0114 012B     		cmp	r3, #1
 2034 0116 0AD1     		bne	.L108
 548:..\..\..\arduinoLCD\test\Pain Drain\libraries\lvgl\src\font/lv_font_loader.c ****             failed = true;
 2035              		.loc 1 548 0
 2036 0118 039B     		ldr	r3, [sp, #12]
ARM GAS  C:\Users\haske\AppData\Local\Temp\cc5ISl1k.s 			page 51


 2037 011a 9A00     		lsls	r2, r3, #2
 2038 011c 0023     		movs	r3, #0
 2039 011e 0100     		movs	r1, r0
 2040 0120 3000     		movs	r0, r6
 2041              	.LVL253:
 2042 0122 FFF7FEFF 		bl	lv_fs_read
 2043              	.LVL254:
 2044 0126 0028     		cmp	r0, #0
 2045 0128 03D1     		bne	.L109
 534:..\..\..\arduinoLCD\test\Pain Drain\libraries\lvgl\src\font/lv_font_loader.c ****     uint32_t * glyph_offset = lv_mem_alloc(sizeof(uint32_t) * (loca_count + 1));
 2046              		.loc 1 534 0
 2047 012a 0023     		movs	r3, #0
 2048 012c 02E0     		b	.L98
 2049              	.LVL255:
 2050              	.L108:
 554:..\..\..\arduinoLCD\test\Pain Drain\libraries\lvgl\src\font/lv_font_loader.c ****     }
 2051              		.loc 1 554 0
 2052 012e 0123     		movs	r3, #1
 2053 0130 00E0     		b	.L98
 2054              	.LVL256:
 2055              	.L109:
 549:..\..\..\arduinoLCD\test\Pain Drain\libraries\lvgl\src\font/lv_font_loader.c ****         }
 2056              		.loc 1 549 0
 2057 0132 0123     		movs	r3, #1
 2058              	.LVL257:
 2059              	.L98:
 557:..\..\..\arduinoLCD\test\Pain Drain\libraries\lvgl\src\font/lv_font_loader.c ****         lv_mem_free(glyph_offset);
 2060              		.loc 1 557 0
 2061 0134 002B     		cmp	r3, #0
 2062 0136 04D0     		beq	.L100
 558:..\..\..\arduinoLCD\test\Pain Drain\libraries\lvgl\src\font/lv_font_loader.c ****         return false;
 2063              		.loc 1 558 0
 2064 0138 4846     		mov	r0, r9
 2065 013a FFF7FEFF 		bl	lv_mem_free
 2066              	.LVL258:
 559:..\..\..\arduinoLCD\test\Pain Drain\libraries\lvgl\src\font/lv_font_loader.c ****     }
 2067              		.loc 1 559 0
 2068 013e 0020     		movs	r0, #0
 2069 0140 33E0     		b	.L94
 2070              	.LVL259:
 2071              	.L100:
 563:..\..\..\arduinoLCD\test\Pain Drain\libraries\lvgl\src\font/lv_font_loader.c ****     int32_t glyph_length = load_glyph(
 2072              		.loc 1 563 0
 2073 0142 4744     		add	r7, r7, r8
 2074              	.LVL260:
 564:..\..\..\arduinoLCD\test\Pain Drain\libraries\lvgl\src\font/lv_font_loader.c ****                                fp, font_dsc, glyph_start, glyph_offset, loca_count, &font_header);
 2075              		.loc 1 564 0
 2076 0144 04AB     		add	r3, sp, #16
 2077              	.LVL261:
 2078 0146 0193     		str	r3, [sp, #4]
 2079 0148 039B     		ldr	r3, [sp, #12]
 2080 014a 0093     		str	r3, [sp]
 2081 014c 4B46     		mov	r3, r9
 2082 014e 3A00     		movs	r2, r7
 2083 0150 2100     		movs	r1, r4
 2084 0152 3000     		movs	r0, r6
 2085 0154 FFF7FEFF 		bl	load_glyph
ARM GAS  C:\Users\haske\AppData\Local\Temp\cc5ISl1k.s 			page 52


 2086              	.LVL262:
 2087 0158 0500     		movs	r5, r0
 2088              	.LVL263:
 567:..\..\..\arduinoLCD\test\Pain Drain\libraries\lvgl\src\font/lv_font_loader.c **** 
 2089              		.loc 1 567 0
 2090 015a 4846     		mov	r0, r9
 2091              	.LVL264:
 2092 015c FFF7FEFF 		bl	lv_mem_free
 2093              	.LVL265:
 569:..\..\..\arduinoLCD\test\Pain Drain\libraries\lvgl\src\font/lv_font_loader.c ****         return false;
 2094              		.loc 1 569 0
 2095 0160 002D     		cmp	r5, #0
 2096 0162 21DB     		blt	.L110
 573:..\..\..\arduinoLCD\test\Pain Drain\libraries\lvgl\src\font/lv_font_loader.c ****         font_dsc->kern_dsc = NULL;
 2097              		.loc 1 573 0
 2098 0164 04AB     		add	r3, sp, #16
 2099 0166 9B88     		ldrh	r3, [r3, #4]
 2100 0168 032B     		cmp	r3, #3
 2101 016a 08D8     		bhi	.L101
 574:..\..\..\arduinoLCD\test\Pain Drain\libraries\lvgl\src\font/lv_font_loader.c ****         font_dsc->kern_classes = 0;
 2102              		.loc 1 574 0
 2103 016c 0022     		movs	r2, #0
 2104 016e E260     		str	r2, [r4, #12]
 575:..\..\..\arduinoLCD\test\Pain Drain\libraries\lvgl\src\font/lv_font_loader.c ****         font_dsc->kern_scale = 0;
 2105              		.loc 1 575 0
 2106 0170 E37C     		ldrb	r3, [r4, #19]
 2107 0172 2021     		movs	r1, #32
 2108 0174 8B43     		bics	r3, r1
 2109 0176 E374     		strb	r3, [r4, #19]
 576:..\..\..\arduinoLCD\test\Pain Drain\libraries\lvgl\src\font/lv_font_loader.c ****         return true;
 2110              		.loc 1 576 0
 2111 0178 2282     		strh	r2, [r4, #16]
 577:..\..\..\arduinoLCD\test\Pain Drain\libraries\lvgl\src\font/lv_font_loader.c ****     }
 2112              		.loc 1 577 0
 2113 017a 0120     		movs	r0, #1
 2114 017c 15E0     		b	.L94
 2115              	.L101:
 580:..\..\..\arduinoLCD\test\Pain Drain\libraries\lvgl\src\font/lv_font_loader.c **** 
 2116              		.loc 1 580 0
 2117 017e 7F19     		adds	r7, r7, r5
 2118              	.LVL266:
 582:..\..\..\arduinoLCD\test\Pain Drain\libraries\lvgl\src\font/lv_font_loader.c **** 
 2119              		.loc 1 582 0
 2120 0180 04AB     		add	r3, sp, #16
 2121 0182 DA7E     		ldrb	r2, [r3, #27]
 2122 0184 3B00     		movs	r3, r7
 2123 0186 2100     		movs	r1, r4
 2124 0188 3000     		movs	r0, r6
 2125 018a FFF7FEFF 		bl	load_kern
 2126              	.LVL267:
 584:..\..\..\arduinoLCD\test\Pain Drain\libraries\lvgl\src\font/lv_font_loader.c **** }
 2127              		.loc 1 584 0
 2128 018e C043     		mvns	r0, r0
 2129              	.LVL268:
 2130 0190 C00F     		lsrs	r0, r0, #31
 2131              	.LVL269:
 2132 0192 0AE0     		b	.L94
ARM GAS  C:\Users\haske\AppData\Local\Temp\cc5ISl1k.s 			page 53


 2133              	.LVL270:
 2134              	.L102:
 495:..\..\..\arduinoLCD\test\Pain Drain\libraries\lvgl\src\font/lv_font_loader.c ****     }
 2135              		.loc 1 495 0
 2136 0194 0020     		movs	r0, #0
 2137              	.LVL271:
 2138 0196 08E0     		b	.L94
 2139              	.L103:
 500:..\..\..\arduinoLCD\test\Pain Drain\libraries\lvgl\src\font/lv_font_loader.c ****     }
 2140              		.loc 1 500 0
 2141 0198 0020     		movs	r0, #0
 2142 019a 06E0     		b	.L94
 2143              	.LVL272:
 2144              	.L104:
 519:..\..\..\arduinoLCD\test\Pain Drain\libraries\lvgl\src\font/lv_font_loader.c ****     }
 2145              		.loc 1 519 0
 2146 019c 0020     		movs	r0, #0
 2147              	.LVL273:
 2148 019e 04E0     		b	.L94
 2149              	.LVL274:
 2150              	.L105:
 526:..\..\..\arduinoLCD\test\Pain Drain\libraries\lvgl\src\font/lv_font_loader.c ****     }
 2151              		.loc 1 526 0
 2152 01a0 0020     		movs	r0, #0
 2153              	.LVL275:
 2154 01a2 02E0     		b	.L94
 2155              	.L106:
 531:..\..\..\arduinoLCD\test\Pain Drain\libraries\lvgl\src\font/lv_font_loader.c ****     }
 2156              		.loc 1 531 0
 2157 01a4 0020     		movs	r0, #0
 2158 01a6 00E0     		b	.L94
 2159              	.LVL276:
 2160              	.L110:
 570:..\..\..\arduinoLCD\test\Pain Drain\libraries\lvgl\src\font/lv_font_loader.c ****     }
 2161              		.loc 1 570 0
 2162 01a8 0020     		movs	r0, #0
 2163              	.LVL277:
 2164              	.L94:
 585:..\..\..\arduinoLCD\test\Pain Drain\libraries\lvgl\src\font/lv_font_loader.c **** 
 2165              		.loc 1 585 0
 2166 01aa 0FB0     		add	sp, sp, #60
 2167              		@ sp needed
 2168              	.LVL278:
 2169              	.LVL279:
 2170 01ac 0CBC     		pop	{r2, r3}
 2171 01ae 9046     		mov	r8, r2
 2172 01b0 9946     		mov	r9, r3
 2173 01b2 F0BD     		pop	{r4, r5, r6, r7, pc}
 2174              	.L113:
 2175              		.align	2
 2176              	.L112:
 2177 01b4 18000000 		.word	.LC6
 2178 01b8 00000000 		.word	lv_font_get_glyph_dsc_fmt_txt
 2179 01bc 00000000 		.word	lv_font_get_bitmap_fmt_txt
 2180 01c0 20000000 		.word	.LC10
 2181              		.cfi_endproc
 2182              	.LFE211:
ARM GAS  C:\Users\haske\AppData\Local\Temp\cc5ISl1k.s 			page 54


 2183              		.size	lvgl_load_font, .-lvgl_load_font
 2184              		.section	.text.lv_font_load,"ax",%progbits
 2185              		.align	2
 2186              		.global	lv_font_load
 2187              		.code	16
 2188              		.thumb_func
 2189              		.type	lv_font_load, %function
 2190              	lv_font_load:
 2191              	.LFB202:
  87:..\..\..\arduinoLCD\test\Pain Drain\libraries\lvgl\src\font/lv_font_loader.c ****     lv_fs_file_t file;
 2192              		.loc 1 87 0
 2193              		.cfi_startproc
 2194              		@ args = 0, pretend = 0, frame = 16
 2195              		@ frame_needed = 0, uses_anonymous_args = 0
 2196              	.LVL280:
 2197 0000 10B5     		push	{r4, lr}
 2198              		.cfi_def_cfa_offset 8
 2199              		.cfi_offset 4, -8
 2200              		.cfi_offset 14, -4
 2201 0002 84B0     		sub	sp, sp, #16
 2202              		.cfi_def_cfa_offset 24
 2203 0004 0100     		movs	r1, r0
  89:..\..\..\arduinoLCD\test\Pain Drain\libraries\lvgl\src\font/lv_font_loader.c ****     if(res != LV_FS_RES_OK)
 2204              		.loc 1 89 0
 2205 0006 0222     		movs	r2, #2
 2206 0008 01A8     		add	r0, sp, #4
 2207              	.LVL281:
 2208 000a FFF7FEFF 		bl	lv_fs_open
 2209              	.LVL282:
  90:..\..\..\arduinoLCD\test\Pain Drain\libraries\lvgl\src\font/lv_font_loader.c ****         return NULL;
 2210              		.loc 1 90 0
 2211 000e 0028     		cmp	r0, #0
 2212 0010 17D1     		bne	.L117
  93:..\..\..\arduinoLCD\test\Pain Drain\libraries\lvgl\src\font/lv_font_loader.c ****     if(font) {
 2213              		.loc 1 93 0
 2214 0012 1C30     		adds	r0, r0, #28
 2215              	.LVL283:
 2216 0014 FFF7FEFF 		bl	lv_mem_alloc
 2217              	.LVL284:
 2218 0018 041E     		subs	r4, r0, #0
 2219              	.LVL285:
  94:..\..\..\arduinoLCD\test\Pain Drain\libraries\lvgl\src\font/lv_font_loader.c ****         memset(font, 0, sizeof(lv_font_t));
 2220              		.loc 1 94 0
 2221 001a 0DD0     		beq	.L116
  95:..\..\..\arduinoLCD\test\Pain Drain\libraries\lvgl\src\font/lv_font_loader.c ****         if(!lvgl_load_font(&file, font)) {
 2222              		.loc 1 95 0
 2223 001c 1C22     		movs	r2, #28
 2224 001e 0021     		movs	r1, #0
 2225 0020 FFF7FEFF 		bl	memset
 2226              	.LVL286:
  96:..\..\..\arduinoLCD\test\Pain Drain\libraries\lvgl\src\font/lv_font_loader.c ****             LV_LOG_WARN("Error loading font file: %s\n", font_name);
 2227              		.loc 1 96 0
 2228 0024 2100     		movs	r1, r4
 2229 0026 01A8     		add	r0, sp, #4
 2230 0028 FFF7FEFF 		bl	lvgl_load_font
 2231              	.LVL287:
 2232 002c 0028     		cmp	r0, #0
ARM GAS  C:\Users\haske\AppData\Local\Temp\cc5ISl1k.s 			page 55


 2233 002e 03D1     		bne	.L116
 103:..\..\..\arduinoLCD\test\Pain Drain\libraries\lvgl\src\font/lv_font_loader.c ****             font = NULL;
 2234              		.loc 1 103 0
 2235 0030 2000     		movs	r0, r4
 2236 0032 FFF7FEFF 		bl	lv_font_free
 2237              	.LVL288:
 104:..\..\..\arduinoLCD\test\Pain Drain\libraries\lvgl\src\font/lv_font_loader.c ****         }
 2238              		.loc 1 104 0
 2239 0036 0024     		movs	r4, #0
 2240              	.LVL289:
 2241              	.L116:
 108:..\..\..\arduinoLCD\test\Pain Drain\libraries\lvgl\src\font/lv_font_loader.c **** 
 2242              		.loc 1 108 0
 2243 0038 01A8     		add	r0, sp, #4
 2244 003a FFF7FEFF 		bl	lv_fs_close
 2245              	.LVL290:
 110:..\..\..\arduinoLCD\test\Pain Drain\libraries\lvgl\src\font/lv_font_loader.c **** }
 2246              		.loc 1 110 0
 2247 003e 2000     		movs	r0, r4
 2248 0040 00E0     		b	.L115
 2249              	.LVL291:
 2250              	.L117:
  91:..\..\..\arduinoLCD\test\Pain Drain\libraries\lvgl\src\font/lv_font_loader.c **** 
 2251              		.loc 1 91 0
 2252 0042 0020     		movs	r0, #0
 2253              	.LVL292:
 2254              	.L115:
 111:..\..\..\arduinoLCD\test\Pain Drain\libraries\lvgl\src\font/lv_font_loader.c **** 
 2255              		.loc 1 111 0
 2256 0044 04B0     		add	sp, sp, #16
 2257              		@ sp needed
 2258 0046 10BD     		pop	{r4, pc}
 2259              		.cfi_endproc
 2260              	.LFE202:
 2261              		.size	lv_font_load, .-lv_font_load
 2262              		.section	.rodata.str1.4,"aMS",%progbits,1
 2263              		.align	2
 2264              	.LC0:
 2265 0000 636D6170 		.ascii	"cmap\000"
 2265      00
 2266 0005 000000   		.space	3
 2267              	.LC2:
 2268 0008 676C7966 		.ascii	"glyf\000"
 2268      00
 2269 000d 000000   		.space	3
 2270              	.LC4:
 2271 0010 6B65726E 		.ascii	"kern\000"
 2271      00
 2272 0015 000000   		.space	3
 2273              	.LC6:
 2274 0018 68656164 		.ascii	"head\000"
 2274      00
 2275 001d 000000   		.space	3
 2276              	.LC10:
 2277 0020 6C6F6361 		.ascii	"loca\000"
 2277      00
 2278              		.text
ARM GAS  C:\Users\haske\AppData\Local\Temp\cc5ISl1k.s 			page 56


 2279              	.Letext0:
 2280              		.file 2 "c:\\program files (x86)\\cypress\\psoc creator\\4.4\\psoc creator\\import\\gnu\\arm\\5.4.
 2281              		.file 3 "c:\\program files (x86)\\cypress\\psoc creator\\4.4\\psoc creator\\import\\gnu\\arm\\5.4.
 2282              		.file 4 "c:\\projects\\paindrain\\arduinolcd\\test\\pain drain\\libraries\\lvgl\\src\\misc\\lv_are
 2283              		.file 5 "c:\\projects\\paindrain\\arduinolcd\\test\\pain drain\\libraries\\lvgl\\src\\font\\lv_fon
 2284              		.file 6 "c:\\projects\\paindrain\\arduinolcd\\test\\pain drain\\libraries\\lvgl\\src\\misc\\lv_sty
 2285              		.file 7 "c:\\projects\\paindrain\\arduinolcd\\test\\pain drain\\libraries\\lvgl\\src\\misc\\lv_fs.
 2286              		.file 8 "c:\\projects\\paindrain\\arduinolcd\\test\\pain drain\\libraries\\lvgl\\src/font/lv_font_
 2287              		.file 9 "c:\\projects\\paindrain\\arduinolcd\\test\\pain drain\\libraries\\lvgl\\src/extra/layouts
 2288              		.file 10 "c:\\projects\\paindrain\\arduinolcd\\test\\pain drain\\libraries\\lvgl\\src/extra/layout
 2289              		.file 11 "c:\\projects\\paindrain\\arduinolcd\\test\\pain drain\\libraries\\lvgl\\src/misc/lv_mem.
 2290              		.file 12 "c:\\program files (x86)\\cypress\\psoc creator\\4.4\\psoc creator\\import\\gnu\\arm\\5.4
 2291              		.section	.debug_info,"",%progbits
 2292              	.Ldebug_info0:
 2293 0000 F81E0000 		.4byte	0x1ef8
 2294 0004 0400     		.2byte	0x4
 2295 0006 00000000 		.4byte	.Ldebug_abbrev0
 2296 000a 04       		.byte	0x4
 2297 000b 01       		.uleb128 0x1
 2298 000c 91040000 		.4byte	.LASF328
 2299 0010 0C       		.byte	0xc
 2300 0011 BC100000 		.4byte	.LASF329
 2301 0015 D20A0000 		.4byte	.LASF330
 2302 0019 60010000 		.4byte	.Ldebug_ranges0+0x160
 2303 001d 00000000 		.4byte	0
 2304 0021 00000000 		.4byte	.Ldebug_line0
 2305 0025 02       		.uleb128 0x2
 2306 0026 86100000 		.4byte	.LASF0
 2307 002a 02       		.byte	0x2
 2308 002b 1B       		.byte	0x1b
 2309 002c 30000000 		.4byte	0x30
 2310 0030 03       		.uleb128 0x3
 2311 0031 01       		.byte	0x1
 2312 0032 06       		.byte	0x6
 2313 0033 AA130000 		.4byte	.LASF2
 2314 0037 02       		.uleb128 0x2
 2315 0038 56100000 		.4byte	.LASF1
 2316 003c 02       		.byte	0x2
 2317 003d 1D       		.byte	0x1d
 2318 003e 42000000 		.4byte	0x42
 2319 0042 03       		.uleb128 0x3
 2320 0043 01       		.byte	0x1
 2321 0044 08       		.byte	0x8
 2322 0045 26120000 		.4byte	.LASF3
 2323 0049 02       		.uleb128 0x2
 2324 004a 860B0000 		.4byte	.LASF4
 2325 004e 02       		.byte	0x2
 2326 004f 29       		.byte	0x29
 2327 0050 54000000 		.4byte	0x54
 2328 0054 03       		.uleb128 0x3
 2329 0055 02       		.byte	0x2
 2330 0056 05       		.byte	0x5
 2331 0057 AE020000 		.4byte	.LASF5
 2332 005b 02       		.uleb128 0x2
 2333 005c D4080000 		.4byte	.LASF6
 2334 0060 02       		.byte	0x2
 2335 0061 2B       		.byte	0x2b
ARM GAS  C:\Users\haske\AppData\Local\Temp\cc5ISl1k.s 			page 57


 2336 0062 66000000 		.4byte	0x66
 2337 0066 03       		.uleb128 0x3
 2338 0067 02       		.byte	0x2
 2339 0068 07       		.byte	0x7
 2340 0069 C5130000 		.4byte	.LASF7
 2341 006d 02       		.uleb128 0x2
 2342 006e 30020000 		.4byte	.LASF8
 2343 0072 02       		.byte	0x2
 2344 0073 3F       		.byte	0x3f
 2345 0074 78000000 		.4byte	0x78
 2346 0078 03       		.uleb128 0x3
 2347 0079 04       		.byte	0x4
 2348 007a 05       		.byte	0x5
 2349 007b 0E0F0000 		.4byte	.LASF9
 2350 007f 02       		.uleb128 0x2
 2351 0080 34120000 		.4byte	.LASF10
 2352 0084 02       		.byte	0x2
 2353 0085 41       		.byte	0x41
 2354 0086 8A000000 		.4byte	0x8a
 2355 008a 03       		.uleb128 0x3
 2356 008b 04       		.byte	0x4
 2357 008c 07       		.byte	0x7
 2358 008d BF030000 		.4byte	.LASF11
 2359 0091 03       		.uleb128 0x3
 2360 0092 08       		.byte	0x8
 2361 0093 05       		.byte	0x5
 2362 0094 770A0000 		.4byte	.LASF12
 2363 0098 03       		.uleb128 0x3
 2364 0099 08       		.byte	0x8
 2365 009a 07       		.byte	0x7
 2366 009b D6050000 		.4byte	.LASF13
 2367 009f 04       		.uleb128 0x4
 2368 00a0 04       		.byte	0x4
 2369 00a1 05       		.byte	0x5
 2370 00a2 696E7400 		.ascii	"int\000"
 2371 00a6 03       		.uleb128 0x3
 2372 00a7 04       		.byte	0x4
 2373 00a8 07       		.byte	0x7
 2374 00a9 EB010000 		.4byte	.LASF14
 2375 00ad 02       		.uleb128 0x2
 2376 00ae 5B040000 		.4byte	.LASF15
 2377 00b2 03       		.byte	0x3
 2378 00b3 14       		.byte	0x14
 2379 00b4 25000000 		.4byte	0x25
 2380 00b8 02       		.uleb128 0x2
 2381 00b9 B3090000 		.4byte	.LASF16
 2382 00bd 03       		.byte	0x3
 2383 00be 18       		.byte	0x18
 2384 00bf 37000000 		.4byte	0x37
 2385 00c3 02       		.uleb128 0x2
 2386 00c4 9D050000 		.4byte	.LASF17
 2387 00c8 03       		.byte	0x3
 2388 00c9 20       		.byte	0x20
 2389 00ca 49000000 		.4byte	0x49
 2390 00ce 02       		.uleb128 0x2
 2391 00cf 140E0000 		.4byte	.LASF18
 2392 00d3 03       		.byte	0x3
ARM GAS  C:\Users\haske\AppData\Local\Temp\cc5ISl1k.s 			page 58


 2393 00d4 24       		.byte	0x24
 2394 00d5 5B000000 		.4byte	0x5b
 2395 00d9 02       		.uleb128 0x2
 2396 00da B9110000 		.4byte	.LASF19
 2397 00de 03       		.byte	0x3
 2398 00df 2C       		.byte	0x2c
 2399 00e0 6D000000 		.4byte	0x6d
 2400 00e4 02       		.uleb128 0x2
 2401 00e5 52040000 		.4byte	.LASF20
 2402 00e9 03       		.byte	0x3
 2403 00ea 30       		.byte	0x30
 2404 00eb 7F000000 		.4byte	0x7f
 2405 00ef 05       		.uleb128 0x5
 2406 00f0 04       		.byte	0x4
 2407 00f1 03       		.uleb128 0x3
 2408 00f2 08       		.byte	0x8
 2409 00f3 04       		.byte	0x4
 2410 00f4 FA0D0000 		.4byte	.LASF21
 2411 00f8 03       		.uleb128 0x3
 2412 00f9 04       		.byte	0x4
 2413 00fa 07       		.byte	0x7
 2414 00fb 9D0E0000 		.4byte	.LASF22
 2415 00ff 06       		.uleb128 0x6
 2416 0100 04       		.byte	0x4
 2417 0101 05010000 		.4byte	0x105
 2418 0105 03       		.uleb128 0x3
 2419 0106 01       		.byte	0x1
 2420 0107 08       		.byte	0x8
 2421 0108 15090000 		.4byte	.LASF23
 2422 010c 06       		.uleb128 0x6
 2423 010d 04       		.byte	0x4
 2424 010e 12010000 		.4byte	0x112
 2425 0112 07       		.uleb128 0x7
 2426 0113 05010000 		.4byte	0x105
 2427 0117 02       		.uleb128 0x2
 2428 0118 04100000 		.4byte	.LASF24
 2429 011c 04       		.byte	0x4
 2430 011d 1B       		.byte	0x1b
 2431 011e C3000000 		.4byte	0xc3
 2432 0122 08       		.uleb128 0x8
 2433 0123 10       		.byte	0x10
 2434 0124 05       		.byte	0x5
 2435 0125 29       		.byte	0x29
 2436 0126 91010000 		.4byte	0x191
 2437 012a 09       		.uleb128 0x9
 2438 012b 4F060000 		.4byte	.LASF25
 2439 012f 05       		.byte	0x5
 2440 0130 2B       		.byte	0x2b
 2441 0131 19020000 		.4byte	0x219
 2442 0135 00       		.byte	0
 2443 0136 09       		.uleb128 0x9
 2444 0137 26150000 		.4byte	.LASF26
 2445 013b 05       		.byte	0x5
 2446 013c 2C       		.byte	0x2c
 2447 013d CE000000 		.4byte	0xce
 2448 0141 04       		.byte	0x4
 2449 0142 09       		.uleb128 0x9
ARM GAS  C:\Users\haske\AppData\Local\Temp\cc5ISl1k.s 			page 59


 2450 0143 2C110000 		.4byte	.LASF27
 2451 0147 05       		.byte	0x5
 2452 0148 2D       		.byte	0x2d
 2453 0149 CE000000 		.4byte	0xce
 2454 014d 06       		.byte	0x6
 2455 014e 09       		.uleb128 0x9
 2456 014f 99100000 		.4byte	.LASF28
 2457 0153 05       		.byte	0x5
 2458 0154 2E       		.byte	0x2e
 2459 0155 CE000000 		.4byte	0xce
 2460 0159 08       		.byte	0x8
 2461 015a 09       		.uleb128 0x9
 2462 015b F8010000 		.4byte	.LASF29
 2463 015f 05       		.byte	0x5
 2464 0160 2F       		.byte	0x2f
 2465 0161 C3000000 		.4byte	0xc3
 2466 0165 0A       		.byte	0xa
 2467 0166 09       		.uleb128 0x9
 2468 0167 FE010000 		.4byte	.LASF30
 2469 016b 05       		.byte	0x5
 2470 016c 30       		.byte	0x30
 2471 016d C3000000 		.4byte	0xc3
 2472 0171 0C       		.byte	0xc
 2473 0172 0A       		.uleb128 0xa
 2474 0173 62707000 		.ascii	"bpp\000"
 2475 0177 05       		.byte	0x5
 2476 0178 31       		.byte	0x31
 2477 0179 B8000000 		.4byte	0xb8
 2478 017d 01       		.byte	0x1
 2479 017e 04       		.byte	0x4
 2480 017f 04       		.byte	0x4
 2481 0180 0E       		.byte	0xe
 2482 0181 0B       		.uleb128 0xb
 2483 0182 4D140000 		.4byte	.LASF31
 2484 0186 05       		.byte	0x5
 2485 0187 32       		.byte	0x32
 2486 0188 B8000000 		.4byte	0xb8
 2487 018c 01       		.byte	0x1
 2488 018d 01       		.byte	0x1
 2489 018e 03       		.byte	0x3
 2490 018f 0E       		.byte	0xe
 2491 0190 00       		.byte	0
 2492 0191 0C       		.uleb128 0xc
 2493 0192 C7090000 		.4byte	.LASF155
 2494 0196 1C       		.byte	0x1c
 2495 0197 05       		.byte	0x5
 2496 0198 40       		.byte	0x40
 2497 0199 19020000 		.4byte	0x219
 2498 019d 09       		.uleb128 0x9
 2499 019e 0C020000 		.4byte	.LASF32
 2500 01a2 05       		.byte	0x5
 2501 01a3 42       		.byte	0x42
 2502 01a4 5A020000 		.4byte	0x25a
 2503 01a8 00       		.byte	0
 2504 01a9 09       		.uleb128 0x9
 2505 01aa 51120000 		.4byte	.LASF33
 2506 01ae 05       		.byte	0x5
ARM GAS  C:\Users\haske\AppData\Local\Temp\cc5ISl1k.s 			page 60


 2507 01af 45       		.byte	0x45
 2508 01b0 7F020000 		.4byte	0x27f
 2509 01b4 04       		.byte	0x4
 2510 01b5 09       		.uleb128 0x9
 2511 01b6 61080000 		.4byte	.LASF34
 2512 01ba 05       		.byte	0x5
 2513 01bb 48       		.byte	0x48
 2514 01bc 17010000 		.4byte	0x117
 2515 01c0 08       		.byte	0x8
 2516 01c1 09       		.uleb128 0x9
 2517 01c2 C1110000 		.4byte	.LASF35
 2518 01c6 05       		.byte	0x5
 2519 01c7 49       		.byte	0x49
 2520 01c8 17010000 		.4byte	0x117
 2521 01cc 0A       		.byte	0xa
 2522 01cd 0B       		.uleb128 0xb
 2523 01ce 740D0000 		.4byte	.LASF36
 2524 01d2 05       		.byte	0x5
 2525 01d3 4A       		.byte	0x4a
 2526 01d4 B8000000 		.4byte	0xb8
 2527 01d8 01       		.byte	0x1
 2528 01d9 02       		.byte	0x2
 2529 01da 06       		.byte	0x6
 2530 01db 0C       		.byte	0xc
 2531 01dc 09       		.uleb128 0x9
 2532 01dd 7E040000 		.4byte	.LASF37
 2533 01e1 05       		.byte	0x5
 2534 01e2 4C       		.byte	0x4c
 2535 01e3 AD000000 		.4byte	0xad
 2536 01e7 0D       		.byte	0xd
 2537 01e8 09       		.uleb128 0x9
 2538 01e9 AB030000 		.4byte	.LASF38
 2539 01ed 05       		.byte	0x5
 2540 01ee 4D       		.byte	0x4d
 2541 01ef AD000000 		.4byte	0xad
 2542 01f3 0E       		.byte	0xe
 2543 01f4 0D       		.uleb128 0xd
 2544 01f5 64736300 		.ascii	"dsc\000"
 2545 01f9 05       		.byte	0x5
 2546 01fa 4F       		.byte	0x4f
 2547 01fb 85020000 		.4byte	0x285
 2548 01ff 10       		.byte	0x10
 2549 0200 09       		.uleb128 0x9
 2550 0201 82130000 		.4byte	.LASF39
 2551 0205 05       		.byte	0x5
 2552 0206 50       		.byte	0x50
 2553 0207 19020000 		.4byte	0x219
 2554 020b 14       		.byte	0x14
 2555 020c 09       		.uleb128 0x9
 2556 020d 8F100000 		.4byte	.LASF40
 2557 0211 05       		.byte	0x5
 2558 0212 52       		.byte	0x52
 2559 0213 EF000000 		.4byte	0xef
 2560 0217 18       		.byte	0x18
 2561 0218 00       		.byte	0
 2562 0219 06       		.uleb128 0x6
 2563 021a 04       		.byte	0x4
ARM GAS  C:\Users\haske\AppData\Local\Temp\cc5ISl1k.s 			page 61


 2564 021b 1F020000 		.4byte	0x21f
 2565 021f 07       		.uleb128 0x7
 2566 0220 91010000 		.4byte	0x191
 2567 0224 02       		.uleb128 0x2
 2568 0225 77090000 		.4byte	.LASF41
 2569 0229 05       		.byte	0x5
 2570 022a 33       		.byte	0x33
 2571 022b 22010000 		.4byte	0x122
 2572 022f 0E       		.uleb128 0xe
 2573 0230 4D020000 		.4byte	0x24d
 2574 0234 4D020000 		.4byte	0x24d
 2575 0238 0F       		.uleb128 0xf
 2576 0239 19020000 		.4byte	0x219
 2577 023d 0F       		.uleb128 0xf
 2578 023e 54020000 		.4byte	0x254
 2579 0242 0F       		.uleb128 0xf
 2580 0243 E4000000 		.4byte	0xe4
 2581 0247 0F       		.uleb128 0xf
 2582 0248 E4000000 		.4byte	0xe4
 2583 024c 00       		.byte	0
 2584 024d 03       		.uleb128 0x3
 2585 024e 01       		.byte	0x1
 2586 024f 02       		.byte	0x2
 2587 0250 A2070000 		.4byte	.LASF42
 2588 0254 06       		.uleb128 0x6
 2589 0255 04       		.byte	0x4
 2590 0256 24020000 		.4byte	0x224
 2591 025a 06       		.uleb128 0x6
 2592 025b 04       		.byte	0x4
 2593 025c 2F020000 		.4byte	0x22f
 2594 0260 0E       		.uleb128 0xe
 2595 0261 74020000 		.4byte	0x274
 2596 0265 74020000 		.4byte	0x274
 2597 0269 0F       		.uleb128 0xf
 2598 026a 19020000 		.4byte	0x219
 2599 026e 0F       		.uleb128 0xf
 2600 026f E4000000 		.4byte	0xe4
 2601 0273 00       		.byte	0
 2602 0274 06       		.uleb128 0x6
 2603 0275 04       		.byte	0x4
 2604 0276 7A020000 		.4byte	0x27a
 2605 027a 07       		.uleb128 0x7
 2606 027b B8000000 		.4byte	0xb8
 2607 027f 06       		.uleb128 0x6
 2608 0280 04       		.byte	0x4
 2609 0281 60020000 		.4byte	0x260
 2610 0285 06       		.uleb128 0x6
 2611 0286 04       		.byte	0x4
 2612 0287 8B020000 		.4byte	0x28b
 2613 028b 10       		.uleb128 0x10
 2614 028c 02       		.uleb128 0x2
 2615 028d A60E0000 		.4byte	.LASF43
 2616 0291 05       		.byte	0x5
 2617 0292 54       		.byte	0x54
 2618 0293 91010000 		.4byte	0x191
 2619 0297 11       		.uleb128 0x11
 2620 0298 02       		.byte	0x2
ARM GAS  C:\Users\haske\AppData\Local\Temp\cc5ISl1k.s 			page 62


 2621 0299 66000000 		.4byte	0x66
 2622 029d 06       		.byte	0x6
 2623 029e B2       		.byte	0xb2
 2624 029f BC040000 		.4byte	0x4bc
 2625 02a3 12       		.uleb128 0x12
 2626 02a4 90000000 		.4byte	.LASF44
 2627 02a8 00       		.byte	0
 2628 02a9 12       		.uleb128 0x12
 2629 02aa B6130000 		.4byte	.LASF45
 2630 02ae 01       		.byte	0x1
 2631 02af 12       		.uleb128 0x12
 2632 02b0 33130000 		.4byte	.LASF46
 2633 02b4 02       		.byte	0x2
 2634 02b5 12       		.uleb128 0x12
 2635 02b6 900B0000 		.4byte	.LASF47
 2636 02ba 03       		.byte	0x3
 2637 02bb 12       		.uleb128 0x12
 2638 02bc 2A010000 		.4byte	.LASF48
 2639 02c0 04       		.byte	0x4
 2640 02c1 12       		.uleb128 0x12
 2641 02c2 73120000 		.4byte	.LASF49
 2642 02c6 05       		.byte	0x5
 2643 02c7 12       		.uleb128 0x12
 2644 02c8 3D0F0000 		.4byte	.LASF50
 2645 02cc 06       		.byte	0x6
 2646 02cd 12       		.uleb128 0x12
 2647 02ce E6030000 		.4byte	.LASF51
 2648 02d2 07       		.byte	0x7
 2649 02d3 12       		.uleb128 0x12
 2650 02d4 F1030000 		.4byte	.LASF52
 2651 02d8 08       		.byte	0x8
 2652 02d9 12       		.uleb128 0x12
 2653 02da 8B090000 		.4byte	.LASF53
 2654 02de 09       		.byte	0x9
 2655 02df 12       		.uleb128 0x12
 2656 02e0 4D030000 		.4byte	.LASF54
 2657 02e4 0A       		.byte	0xa
 2658 02e5 12       		.uleb128 0x12
 2659 02e6 9E060000 		.4byte	.LASF55
 2660 02ea 0B       		.byte	0xb
 2661 02eb 12       		.uleb128 0x12
 2662 02ec D5060000 		.4byte	.LASF56
 2663 02f0 10       		.byte	0x10
 2664 02f1 12       		.uleb128 0x12
 2665 02f2 4D080000 		.4byte	.LASF57
 2666 02f6 11       		.byte	0x11
 2667 02f7 12       		.uleb128 0x12
 2668 02f8 490B0000 		.4byte	.LASF58
 2669 02fc 12       		.byte	0x12
 2670 02fd 12       		.uleb128 0x12
 2671 02fe F6090000 		.4byte	.LASF59
 2672 0302 13       		.byte	0x13
 2673 0303 12       		.uleb128 0x12
 2674 0304 980A0000 		.4byte	.LASF60
 2675 0308 14       		.byte	0x14
 2676 0309 12       		.uleb128 0x12
 2677 030a 890E0000 		.4byte	.LASF61
ARM GAS  C:\Users\haske\AppData\Local\Temp\cc5ISl1k.s 			page 63


 2678 030e 15       		.byte	0x15
 2679 030f 12       		.uleb128 0x12
 2680 0310 07080000 		.4byte	.LASF62
 2681 0314 16       		.byte	0x16
 2682 0315 12       		.uleb128 0x12
 2683 0316 04130000 		.4byte	.LASF63
 2684 031a 17       		.byte	0x17
 2685 031b 12       		.uleb128 0x12
 2686 031c 7E000000 		.4byte	.LASF64
 2687 0320 20       		.byte	0x20
 2688 0321 12       		.uleb128 0x12
 2689 0322 3A020000 		.4byte	.LASF65
 2690 0326 21       		.byte	0x21
 2691 0327 12       		.uleb128 0x12
 2692 0328 8D080000 		.4byte	.LASF66
 2693 032c 22       		.byte	0x22
 2694 032d 12       		.uleb128 0x12
 2695 032e 96030000 		.4byte	.LASF67
 2696 0332 23       		.byte	0x23
 2697 0333 12       		.uleb128 0x12
 2698 0334 BE080000 		.4byte	.LASF68
 2699 0338 24       		.byte	0x24
 2700 0339 12       		.uleb128 0x12
 2701 033a 06060000 		.4byte	.LASF69
 2702 033e 25       		.byte	0x25
 2703 033f 12       		.uleb128 0x12
 2704 0340 EB020000 		.4byte	.LASF70
 2705 0344 26       		.byte	0x26
 2706 0345 12       		.uleb128 0x12
 2707 0346 8A070000 		.4byte	.LASF71
 2708 034a 27       		.byte	0x27
 2709 034b 12       		.uleb128 0x12
 2710 034c 25140000 		.4byte	.LASF72
 2711 0350 28       		.byte	0x28
 2712 0351 12       		.uleb128 0x12
 2713 0352 23050000 		.4byte	.LASF73
 2714 0356 29       		.byte	0x29
 2715 0357 12       		.uleb128 0x12
 2716 0358 26060000 		.4byte	.LASF74
 2717 035c 2A       		.byte	0x2a
 2718 035d 12       		.uleb128 0x12
 2719 035e 46130000 		.4byte	.LASF75
 2720 0362 2B       		.byte	0x2b
 2721 0363 12       		.uleb128 0x12
 2722 0364 66140000 		.4byte	.LASF76
 2723 0368 2C       		.byte	0x2c
 2724 0369 12       		.uleb128 0x12
 2725 036a B0120000 		.4byte	.LASF77
 2726 036e 30       		.byte	0x30
 2727 036f 12       		.uleb128 0x12
 2728 0370 3D110000 		.4byte	.LASF78
 2729 0374 31       		.byte	0x31
 2730 0375 12       		.uleb128 0x12
 2731 0376 1A020000 		.4byte	.LASF79
 2732 037a 32       		.byte	0x32
 2733 037b 12       		.uleb128 0x12
 2734 037c A30B0000 		.4byte	.LASF80
ARM GAS  C:\Users\haske\AppData\Local\Temp\cc5ISl1k.s 			page 64


 2735 0380 33       		.byte	0x33
 2736 0381 12       		.uleb128 0x12
 2737 0382 FC030000 		.4byte	.LASF81
 2738 0386 34       		.byte	0x34
 2739 0387 12       		.uleb128 0x12
 2740 0388 FC020000 		.4byte	.LASF82
 2741 038c 35       		.byte	0x35
 2742 038d 12       		.uleb128 0x12
 2743 038e 7C140000 		.4byte	.LASF83
 2744 0392 36       		.byte	0x36
 2745 0393 12       		.uleb128 0x12
 2746 0394 D1030000 		.4byte	.LASF84
 2747 0398 37       		.byte	0x37
 2748 0399 12       		.uleb128 0x12
 2749 039a 120D0000 		.4byte	.LASF85
 2750 039e 38       		.byte	0x38
 2751 039f 12       		.uleb128 0x12
 2752 03a0 380D0000 		.4byte	.LASF86
 2753 03a4 40       		.byte	0x40
 2754 03a5 12       		.uleb128 0x12
 2755 03a6 C3070000 		.4byte	.LASF87
 2756 03aa 41       		.byte	0x41
 2757 03ab 12       		.uleb128 0x12
 2758 03ac D9070000 		.4byte	.LASF88
 2759 03b0 42       		.byte	0x42
 2760 03b1 12       		.uleb128 0x12
 2761 03b2 FE130000 		.4byte	.LASF89
 2762 03b6 43       		.byte	0x43
 2763 03b7 12       		.uleb128 0x12
 2764 03b8 EE120000 		.4byte	.LASF90
 2765 03bc 44       		.byte	0x44
 2766 03bd 12       		.uleb128 0x12
 2767 03be 1A090000 		.4byte	.LASF91
 2768 03c2 45       		.byte	0x45
 2769 03c3 12       		.uleb128 0x12
 2770 03c4 600F0000 		.4byte	.LASF92
 2771 03c8 46       		.byte	0x46
 2772 03c9 12       		.uleb128 0x12
 2773 03ca 73060000 		.4byte	.LASF93
 2774 03ce 47       		.byte	0x47
 2775 03cf 12       		.uleb128 0x12
 2776 03d0 39040000 		.4byte	.LASF94
 2777 03d4 48       		.byte	0x48
 2778 03d5 12       		.uleb128 0x12
 2779 03d6 F2050000 		.4byte	.LASF95
 2780 03da 49       		.byte	0x49
 2781 03db 12       		.uleb128 0x12
 2782 03dc D60B0000 		.4byte	.LASF96
 2783 03e0 4A       		.byte	0x4a
 2784 03e1 12       		.uleb128 0x12
 2785 03e2 D30F0000 		.4byte	.LASF97
 2786 03e6 4B       		.byte	0x4b
 2787 03e7 12       		.uleb128 0x12
 2788 03e8 88060000 		.4byte	.LASF98
 2789 03ec 4C       		.byte	0x4c
 2790 03ed 12       		.uleb128 0x12
 2791 03ee 6A000000 		.4byte	.LASF99
ARM GAS  C:\Users\haske\AppData\Local\Temp\cc5ISl1k.s 			page 65


 2792 03f2 4D       		.byte	0x4d
 2793 03f3 12       		.uleb128 0x12
 2794 03f4 76050000 		.4byte	.LASF100
 2795 03f8 4E       		.byte	0x4e
 2796 03f9 12       		.uleb128 0x12
 2797 03fa C10D0000 		.4byte	.LASF101
 2798 03fe 50       		.byte	0x50
 2799 03ff 12       		.uleb128 0x12
 2800 0400 C1010000 		.4byte	.LASF102
 2801 0404 51       		.byte	0x51
 2802 0405 12       		.uleb128 0x12
 2803 0406 8B130000 		.4byte	.LASF103
 2804 040a 52       		.byte	0x52
 2805 040b 12       		.uleb128 0x12
 2806 040c CE0E0000 		.4byte	.LASF104
 2807 0410 53       		.byte	0x53
 2808 0411 12       		.uleb128 0x12
 2809 0412 A5050000 		.4byte	.LASF105
 2810 0416 54       		.byte	0x54
 2811 0417 12       		.uleb128 0x12
 2812 0418 0C070000 		.4byte	.LASF106
 2813 041c 55       		.byte	0x55
 2814 041d 12       		.uleb128 0x12
 2815 041e 7C0F0000 		.4byte	.LASF107
 2816 0422 56       		.byte	0x56
 2817 0423 12       		.uleb128 0x12
 2818 0424 9A110000 		.4byte	.LASF108
 2819 0428 57       		.byte	0x57
 2820 0429 12       		.uleb128 0x12
 2821 042a 0F100000 		.4byte	.LASF109
 2822 042e 58       		.byte	0x58
 2823 042f 12       		.uleb128 0x12
 2824 0430 8A020000 		.4byte	.LASF110
 2825 0434 59       		.byte	0x59
 2826 0435 12       		.uleb128 0x12
 2827 0436 18110000 		.4byte	.LASF111
 2828 043a 5A       		.byte	0x5a
 2829 043b 12       		.uleb128 0x12
 2830 043c 830C0000 		.4byte	.LASF112
 2831 0440 5B       		.byte	0x5b
 2832 0441 12       		.uleb128 0x12
 2833 0442 39140000 		.4byte	.LASF113
 2834 0446 60       		.byte	0x60
 2835 0447 12       		.uleb128 0x12
 2836 0448 EA0F0000 		.4byte	.LASF114
 2837 044c 61       		.byte	0x61
 2838 044d 12       		.uleb128 0x12
 2839 044e A4080000 		.4byte	.LASF115
 2840 0452 62       		.byte	0x62
 2841 0453 12       		.uleb128 0x12
 2842 0454 F70B0000 		.4byte	.LASF116
 2843 0458 63       		.byte	0x63
 2844 0459 12       		.uleb128 0x12
 2845 045a AE0D0000 		.4byte	.LASF117
 2846 045e 64       		.byte	0x64
 2847 045f 12       		.uleb128 0x12
 2848 0460 320C0000 		.4byte	.LASF118
ARM GAS  C:\Users\haske\AppData\Local\Temp\cc5ISl1k.s 			page 66


 2849 0464 65       		.byte	0x65
 2850 0465 12       		.uleb128 0x12
 2851 0466 7A0D0000 		.4byte	.LASF119
 2852 046a 66       		.byte	0x66
 2853 046b 12       		.uleb128 0x12
 2854 046c E0140000 		.4byte	.LASF120
 2855 0470 67       		.byte	0x67
 2856 0471 12       		.uleb128 0x12
 2857 0472 E50C0000 		.4byte	.LASF121
 2858 0476 68       		.byte	0x68
 2859 0477 12       		.uleb128 0x12
 2860 0478 19130000 		.4byte	.LASF122
 2861 047c 69       		.byte	0x69
 2862 047d 12       		.uleb128 0x12
 2863 047e 43070000 		.4byte	.LASF123
 2864 0482 6A       		.byte	0x6a
 2865 0483 12       		.uleb128 0x12
 2866 0484 58070000 		.4byte	.LASF124
 2867 0488 6B       		.byte	0x6b
 2868 0489 12       		.uleb128 0x12
 2869 048a 250B0000 		.4byte	.LASF125
 2870 048e 6C       		.byte	0x6c
 2871 048f 12       		.uleb128 0x12
 2872 0490 81110000 		.4byte	.LASF126
 2873 0494 6D       		.byte	0x6d
 2874 0495 12       		.uleb128 0x12
 2875 0496 D3110000 		.4byte	.LASF127
 2876 049a 6E       		.byte	0x6e
 2877 049b 12       		.uleb128 0x12
 2878 049c 13000000 		.4byte	.LASF128
 2879 04a0 6F       		.byte	0x6f
 2880 04a1 12       		.uleb128 0x12
 2881 04a2 30030000 		.4byte	.LASF129
 2882 04a6 6F       		.byte	0x6f
 2883 04a7 12       		.uleb128 0x12
 2884 04a8 13030000 		.4byte	.LASF130
 2885 04ac 70       		.byte	0x70
 2886 04ad 13       		.uleb128 0x13
 2887 04ae 3F120000 		.4byte	.LASF131
 2888 04b2 FFFF     		.2byte	0xffff
 2889 04b4 13       		.uleb128 0x13
 2890 04b5 88050000 		.4byte	.LASF132
 2891 04b9 FFFF     		.2byte	0xffff
 2892 04bb 00       		.byte	0
 2893 04bc 14       		.uleb128 0x14
 2894 04bd A5140000 		.4byte	.LASF133
 2895 04c1 06       		.byte	0x6
 2896 04c2 1C01     		.2byte	0x11c
 2897 04c4 97020000 		.4byte	0x297
 2898 04c8 06       		.uleb128 0x6
 2899 04c9 04       		.byte	0x4
 2900 04ca B8000000 		.4byte	0xb8
 2901 04ce 11       		.uleb128 0x11
 2902 04cf 01       		.byte	0x1
 2903 04d0 42000000 		.4byte	0x42
 2904 04d4 07       		.byte	0x7
 2905 04d5 22       		.byte	0x22
ARM GAS  C:\Users\haske\AppData\Local\Temp\cc5ISl1k.s 			page 67


 2906 04d6 29050000 		.4byte	0x529
 2907 04da 12       		.uleb128 0x12
 2908 04db 57020000 		.4byte	.LASF134
 2909 04df 00       		.byte	0
 2910 04e0 12       		.uleb128 0x12
 2911 04e1 62120000 		.4byte	.LASF135
 2912 04e5 01       		.byte	0x1
 2913 04e6 12       		.uleb128 0x12
 2914 04e7 3E060000 		.4byte	.LASF136
 2915 04eb 02       		.byte	0x2
 2916 04ec 12       		.uleb128 0x12
 2917 04ed 7C080000 		.4byte	.LASF137
 2918 04f1 03       		.byte	0x3
 2919 04f2 12       		.uleb128 0x12
 2920 04f3 AE060000 		.4byte	.LASF138
 2921 04f7 04       		.byte	0x4
 2922 04f8 12       		.uleb128 0x12
 2923 04f9 EF070000 		.4byte	.LASF139
 2924 04fd 05       		.byte	0x5
 2925 04fe 12       		.uleb128 0x12
 2926 04ff 270D0000 		.4byte	.LASF140
 2927 0503 06       		.byte	0x6
 2928 0504 12       		.uleb128 0x12
 2929 0505 52090000 		.4byte	.LASF141
 2930 0509 07       		.byte	0x7
 2931 050a 12       		.uleb128 0x12
 2932 050b 180C0000 		.4byte	.LASF142
 2933 050f 08       		.byte	0x8
 2934 0510 12       		.uleb128 0x12
 2935 0511 E4000000 		.4byte	.LASF143
 2936 0515 09       		.byte	0x9
 2937 0516 12       		.uleb128 0x12
 2938 0517 D6010000 		.4byte	.LASF144
 2939 051b 0A       		.byte	0xa
 2940 051c 12       		.uleb128 0x12
 2941 051d 62050000 		.4byte	.LASF145
 2942 0521 0B       		.byte	0xb
 2943 0522 12       		.uleb128 0x12
 2944 0523 92120000 		.4byte	.LASF146
 2945 0527 0C       		.byte	0xc
 2946 0528 00       		.byte	0
 2947 0529 02       		.uleb128 0x2
 2948 052a 090A0000 		.4byte	.LASF147
 2949 052e 07       		.byte	0x7
 2950 052f 31       		.byte	0x31
 2951 0530 B8000000 		.4byte	0xb8
 2952 0534 11       		.uleb128 0x11
 2953 0535 01       		.byte	0x1
 2954 0536 42000000 		.4byte	0x42
 2955 053a 07       		.byte	0x7
 2956 053b 36       		.byte	0x36
 2957 053c 4D050000 		.4byte	0x54d
 2958 0540 12       		.uleb128 0x12
 2959 0541 D2140000 		.4byte	.LASF148
 2960 0545 01       		.byte	0x1
 2961 0546 12       		.uleb128 0x12
 2962 0547 060E0000 		.4byte	.LASF149
ARM GAS  C:\Users\haske\AppData\Local\Temp\cc5ISl1k.s 			page 68


 2963 054b 02       		.byte	0x2
 2964 054c 00       		.byte	0
 2965 054d 02       		.uleb128 0x2
 2966 054e 4E0D0000 		.4byte	.LASF150
 2967 0552 07       		.byte	0x7
 2968 0553 3A       		.byte	0x3a
 2969 0554 B8000000 		.4byte	0xb8
 2970 0558 11       		.uleb128 0x11
 2971 0559 01       		.byte	0x1
 2972 055a 42000000 		.4byte	0x42
 2973 055e 07       		.byte	0x7
 2974 055f 40       		.byte	0x40
 2975 0560 77050000 		.4byte	0x577
 2976 0564 12       		.uleb128 0x12
 2977 0565 C6060000 		.4byte	.LASF151
 2978 0569 00       		.byte	0
 2979 056a 12       		.uleb128 0x12
 2980 056b F4140000 		.4byte	.LASF152
 2981 056f 01       		.byte	0x1
 2982 0570 12       		.uleb128 0x12
 2983 0571 FD060000 		.4byte	.LASF153
 2984 0575 02       		.byte	0x2
 2985 0576 00       		.byte	0
 2986 0577 02       		.uleb128 0x2
 2987 0578 F3080000 		.4byte	.LASF154
 2988 057c 07       		.byte	0x7
 2989 057d 44       		.byte	0x44
 2990 057e 58050000 		.4byte	0x558
 2991 0582 0C       		.uleb128 0xc
 2992 0583 DF0E0000 		.4byte	.LASF156
 2993 0587 30       		.byte	0x30
 2994 0588 07       		.byte	0x7
 2995 0589 46       		.byte	0x46
 2996 058a 2B060000 		.4byte	0x62b
 2997 058e 09       		.uleb128 0x9
 2998 058f 46080000 		.4byte	.LASF157
 2999 0593 07       		.byte	0x7
 3000 0594 47       		.byte	0x47
 3001 0595 05010000 		.4byte	0x105
 3002 0599 00       		.byte	0
 3003 059a 09       		.uleb128 0x9
 3004 059b 690D0000 		.4byte	.LASF158
 3005 059f 07       		.byte	0x7
 3006 05a0 48       		.byte	0x48
 3007 05a1 CE000000 		.4byte	0xce
 3008 05a5 02       		.byte	0x2
 3009 05a6 09       		.uleb128 0x9
 3010 05a7 D3020000 		.4byte	.LASF159
 3011 05ab 07       		.byte	0x7
 3012 05ac 49       		.byte	0x49
 3013 05ad 40060000 		.4byte	0x640
 3014 05b1 04       		.byte	0x4
 3015 05b2 09       		.uleb128 0x9
 3016 05b3 CB0F0000 		.4byte	.LASF160
 3017 05b7 07       		.byte	0x7
 3018 05b8 4B       		.byte	0x4b
 3019 05b9 5F060000 		.4byte	0x65f
ARM GAS  C:\Users\haske\AppData\Local\Temp\cc5ISl1k.s 			page 69


 3020 05bd 08       		.byte	0x8
 3021 05be 09       		.uleb128 0x9
 3022 05bf BD060000 		.4byte	.LASF161
 3023 05c3 07       		.byte	0x7
 3024 05c4 4C       		.byte	0x4c
 3025 05c5 79060000 		.4byte	0x679
 3026 05c9 0C       		.byte	0xc
 3027 05ca 09       		.uleb128 0x9
 3028 05cb 6D070000 		.4byte	.LASF162
 3029 05cf 07       		.byte	0x7
 3030 05d0 4D       		.byte	0x4d
 3031 05d1 A8060000 		.4byte	0x6a8
 3032 05d5 10       		.byte	0x10
 3033 05d6 09       		.uleb128 0x9
 3034 05d7 A1090000 		.4byte	.LASF163
 3035 05db 07       		.byte	0x7
 3036 05dc 4E       		.byte	0x4e
 3037 05dd D1060000 		.4byte	0x6d1
 3038 05e1 14       		.byte	0x14
 3039 05e2 09       		.uleb128 0x9
 3040 05e3 D40D0000 		.4byte	.LASF164
 3041 05e7 07       		.byte	0x7
 3042 05e8 4F       		.byte	0x4f
 3043 05e9 F5060000 		.4byte	0x6f5
 3044 05ed 18       		.byte	0x18
 3045 05ee 09       		.uleb128 0x9
 3046 05ef BA050000 		.4byte	.LASF165
 3047 05f3 07       		.byte	0x7
 3048 05f4 50       		.byte	0x50
 3049 05f5 14070000 		.4byte	0x714
 3050 05f9 1C       		.byte	0x1c
 3051 05fa 09       		.uleb128 0x9
 3052 05fb AD110000 		.4byte	.LASF166
 3053 05ff 07       		.byte	0x7
 3054 0600 52       		.byte	0x52
 3055 0601 2E070000 		.4byte	0x72e
 3056 0605 20       		.byte	0x20
 3057 0606 09       		.uleb128 0x9
 3058 0607 3D0B0000 		.4byte	.LASF167
 3059 060b 07       		.byte	0x7
 3060 060c 53       		.byte	0x53
 3061 060d 4D070000 		.4byte	0x74d
 3062 0611 24       		.byte	0x24
 3063 0612 09       		.uleb128 0x9
 3064 0613 11040000 		.4byte	.LASF168
 3065 0617 07       		.byte	0x7
 3066 0618 54       		.byte	0x54
 3067 0619 79060000 		.4byte	0x679
 3068 061d 28       		.byte	0x28
 3069 061e 09       		.uleb128 0x9
 3070 061f 8F100000 		.4byte	.LASF40
 3071 0623 07       		.byte	0x7
 3072 0624 57       		.byte	0x57
 3073 0625 EF000000 		.4byte	0xef
 3074 0629 2C       		.byte	0x2c
 3075 062a 00       		.byte	0
 3076 062b 0E       		.uleb128 0xe
ARM GAS  C:\Users\haske\AppData\Local\Temp\cc5ISl1k.s 			page 70


 3077 062c 4D020000 		.4byte	0x24d
 3078 0630 3A060000 		.4byte	0x63a
 3079 0634 0F       		.uleb128 0xf
 3080 0635 3A060000 		.4byte	0x63a
 3081 0639 00       		.byte	0
 3082 063a 06       		.uleb128 0x6
 3083 063b 04       		.byte	0x4
 3084 063c 82050000 		.4byte	0x582
 3085 0640 06       		.uleb128 0x6
 3086 0641 04       		.byte	0x4
 3087 0642 2B060000 		.4byte	0x62b
 3088 0646 0E       		.uleb128 0xe
 3089 0647 EF000000 		.4byte	0xef
 3090 064b 5F060000 		.4byte	0x65f
 3091 064f 0F       		.uleb128 0xf
 3092 0650 3A060000 		.4byte	0x63a
 3093 0654 0F       		.uleb128 0xf
 3094 0655 0C010000 		.4byte	0x10c
 3095 0659 0F       		.uleb128 0xf
 3096 065a 4D050000 		.4byte	0x54d
 3097 065e 00       		.byte	0
 3098 065f 06       		.uleb128 0x6
 3099 0660 04       		.byte	0x4
 3100 0661 46060000 		.4byte	0x646
 3101 0665 0E       		.uleb128 0xe
 3102 0666 29050000 		.4byte	0x529
 3103 066a 79060000 		.4byte	0x679
 3104 066e 0F       		.uleb128 0xf
 3105 066f 3A060000 		.4byte	0x63a
 3106 0673 0F       		.uleb128 0xf
 3107 0674 EF000000 		.4byte	0xef
 3108 0678 00       		.byte	0
 3109 0679 06       		.uleb128 0x6
 3110 067a 04       		.byte	0x4
 3111 067b 65060000 		.4byte	0x665
 3112 067f 0E       		.uleb128 0xe
 3113 0680 29050000 		.4byte	0x529
 3114 0684 A2060000 		.4byte	0x6a2
 3115 0688 0F       		.uleb128 0xf
 3116 0689 3A060000 		.4byte	0x63a
 3117 068d 0F       		.uleb128 0xf
 3118 068e EF000000 		.4byte	0xef
 3119 0692 0F       		.uleb128 0xf
 3120 0693 EF000000 		.4byte	0xef
 3121 0697 0F       		.uleb128 0xf
 3122 0698 E4000000 		.4byte	0xe4
 3123 069c 0F       		.uleb128 0xf
 3124 069d A2060000 		.4byte	0x6a2
 3125 06a1 00       		.byte	0
 3126 06a2 06       		.uleb128 0x6
 3127 06a3 04       		.byte	0x4
 3128 06a4 E4000000 		.4byte	0xe4
 3129 06a8 06       		.uleb128 0x6
 3130 06a9 04       		.byte	0x4
 3131 06aa 7F060000 		.4byte	0x67f
 3132 06ae 0E       		.uleb128 0xe
 3133 06af 29050000 		.4byte	0x529
ARM GAS  C:\Users\haske\AppData\Local\Temp\cc5ISl1k.s 			page 71


 3134 06b3 D1060000 		.4byte	0x6d1
 3135 06b7 0F       		.uleb128 0xf
 3136 06b8 3A060000 		.4byte	0x63a
 3137 06bc 0F       		.uleb128 0xf
 3138 06bd EF000000 		.4byte	0xef
 3139 06c1 0F       		.uleb128 0xf
 3140 06c2 85020000 		.4byte	0x285
 3141 06c6 0F       		.uleb128 0xf
 3142 06c7 E4000000 		.4byte	0xe4
 3143 06cb 0F       		.uleb128 0xf
 3144 06cc A2060000 		.4byte	0x6a2
 3145 06d0 00       		.byte	0
 3146 06d1 06       		.uleb128 0x6
 3147 06d2 04       		.byte	0x4
 3148 06d3 AE060000 		.4byte	0x6ae
 3149 06d7 0E       		.uleb128 0xe
 3150 06d8 29050000 		.4byte	0x529
 3151 06dc F5060000 		.4byte	0x6f5
 3152 06e0 0F       		.uleb128 0xf
 3153 06e1 3A060000 		.4byte	0x63a
 3154 06e5 0F       		.uleb128 0xf
 3155 06e6 EF000000 		.4byte	0xef
 3156 06ea 0F       		.uleb128 0xf
 3157 06eb E4000000 		.4byte	0xe4
 3158 06ef 0F       		.uleb128 0xf
 3159 06f0 77050000 		.4byte	0x577
 3160 06f4 00       		.byte	0
 3161 06f5 06       		.uleb128 0x6
 3162 06f6 04       		.byte	0x4
 3163 06f7 D7060000 		.4byte	0x6d7
 3164 06fb 0E       		.uleb128 0xe
 3165 06fc 29050000 		.4byte	0x529
 3166 0700 14070000 		.4byte	0x714
 3167 0704 0F       		.uleb128 0xf
 3168 0705 3A060000 		.4byte	0x63a
 3169 0709 0F       		.uleb128 0xf
 3170 070a EF000000 		.4byte	0xef
 3171 070e 0F       		.uleb128 0xf
 3172 070f A2060000 		.4byte	0x6a2
 3173 0713 00       		.byte	0
 3174 0714 06       		.uleb128 0x6
 3175 0715 04       		.byte	0x4
 3176 0716 FB060000 		.4byte	0x6fb
 3177 071a 0E       		.uleb128 0xe
 3178 071b EF000000 		.4byte	0xef
 3179 071f 2E070000 		.4byte	0x72e
 3180 0723 0F       		.uleb128 0xf
 3181 0724 3A060000 		.4byte	0x63a
 3182 0728 0F       		.uleb128 0xf
 3183 0729 0C010000 		.4byte	0x10c
 3184 072d 00       		.byte	0
 3185 072e 06       		.uleb128 0x6
 3186 072f 04       		.byte	0x4
 3187 0730 1A070000 		.4byte	0x71a
 3188 0734 0E       		.uleb128 0xe
 3189 0735 29050000 		.4byte	0x529
 3190 0739 4D070000 		.4byte	0x74d
ARM GAS  C:\Users\haske\AppData\Local\Temp\cc5ISl1k.s 			page 72


 3191 073d 0F       		.uleb128 0xf
 3192 073e 3A060000 		.4byte	0x63a
 3193 0742 0F       		.uleb128 0xf
 3194 0743 EF000000 		.4byte	0xef
 3195 0747 0F       		.uleb128 0xf
 3196 0748 FF000000 		.4byte	0xff
 3197 074c 00       		.byte	0
 3198 074d 06       		.uleb128 0x6
 3199 074e 04       		.byte	0x4
 3200 074f 34070000 		.4byte	0x734
 3201 0753 02       		.uleb128 0x2
 3202 0754 6B010000 		.4byte	.LASF169
 3203 0758 07       		.byte	0x7
 3204 0759 59       		.byte	0x59
 3205 075a 82050000 		.4byte	0x582
 3206 075e 08       		.uleb128 0x8
 3207 075f 10       		.byte	0x10
 3208 0760 07       		.byte	0x7
 3209 0761 5B       		.byte	0x5b
 3210 0762 97070000 		.4byte	0x797
 3211 0766 09       		.uleb128 0x9
 3212 0767 050D0000 		.4byte	.LASF170
 3213 076b 07       		.byte	0x7
 3214 076c 5C       		.byte	0x5c
 3215 076d E4000000 		.4byte	0xe4
 3216 0771 00       		.byte	0
 3217 0772 0D       		.uleb128 0xd
 3218 0773 656E6400 		.ascii	"end\000"
 3219 0777 07       		.byte	0x7
 3220 0778 5D       		.byte	0x5d
 3221 0779 E4000000 		.4byte	0xe4
 3222 077d 04       		.byte	0x4
 3223 077e 09       		.uleb128 0x9
 3224 077f 7B0E0000 		.4byte	.LASF171
 3225 0783 07       		.byte	0x7
 3226 0784 5E       		.byte	0x5e
 3227 0785 E4000000 		.4byte	0xe4
 3228 0789 08       		.byte	0x8
 3229 078a 09       		.uleb128 0x9
 3230 078b 90010000 		.4byte	.LASF172
 3231 078f 07       		.byte	0x7
 3232 0790 5F       		.byte	0x5f
 3233 0791 EF000000 		.4byte	0xef
 3234 0795 0C       		.byte	0xc
 3235 0796 00       		.byte	0
 3236 0797 02       		.uleb128 0x2
 3237 0798 68100000 		.4byte	.LASF173
 3238 079c 07       		.byte	0x7
 3239 079d 60       		.byte	0x60
 3240 079e 5E070000 		.4byte	0x75e
 3241 07a2 08       		.uleb128 0x8
 3242 07a3 0C       		.byte	0xc
 3243 07a4 07       		.byte	0x7
 3244 07a5 62       		.byte	0x62
 3245 07a6 CF070000 		.4byte	0x7cf
 3246 07aa 09       		.uleb128 0x9
 3247 07ab 00080000 		.4byte	.LASF174
ARM GAS  C:\Users\haske\AppData\Local\Temp\cc5ISl1k.s 			page 73


 3248 07af 07       		.byte	0x7
 3249 07b0 63       		.byte	0x63
 3250 07b1 EF000000 		.4byte	0xef
 3251 07b5 00       		.byte	0
 3252 07b6 0D       		.uleb128 0xd
 3253 07b7 64727600 		.ascii	"drv\000"
 3254 07bb 07       		.byte	0x7
 3255 07bc 64       		.byte	0x64
 3256 07bd CF070000 		.4byte	0x7cf
 3257 07c1 04       		.byte	0x4
 3258 07c2 09       		.uleb128 0x9
 3259 07c3 62130000 		.4byte	.LASF175
 3260 07c7 07       		.byte	0x7
 3261 07c8 65       		.byte	0x65
 3262 07c9 D5070000 		.4byte	0x7d5
 3263 07cd 08       		.byte	0x8
 3264 07ce 00       		.byte	0
 3265 07cf 06       		.uleb128 0x6
 3266 07d0 04       		.byte	0x4
 3267 07d1 53070000 		.4byte	0x753
 3268 07d5 06       		.uleb128 0x6
 3269 07d6 04       		.byte	0x4
 3270 07d7 97070000 		.4byte	0x797
 3271 07db 02       		.uleb128 0x2
 3272 07dc 4C010000 		.4byte	.LASF176
 3273 07e0 07       		.byte	0x7
 3274 07e1 66       		.byte	0x66
 3275 07e2 A2070000 		.4byte	0x7a2
 3276 07e6 07       		.uleb128 0x7
 3277 07e7 8C020000 		.4byte	0x28c
 3278 07eb 06       		.uleb128 0x6
 3279 07ec 04       		.byte	0x4
 3280 07ed CE000000 		.4byte	0xce
 3281 07f1 08       		.uleb128 0x8
 3282 07f2 08       		.byte	0x8
 3283 07f3 08       		.byte	0x8
 3284 07f4 1E       		.byte	0x1e
 3285 07f5 48080000 		.4byte	0x848
 3286 07f9 0B       		.uleb128 0xb
 3287 07fa 260E0000 		.4byte	.LASF177
 3288 07fe 08       		.byte	0x8
 3289 07ff 20       		.byte	0x20
 3290 0800 E4000000 		.4byte	0xe4
 3291 0804 04       		.byte	0x4
 3292 0805 14       		.byte	0x14
 3293 0806 0C       		.byte	0xc
 3294 0807 00       		.byte	0
 3295 0808 0B       		.uleb128 0xb
 3296 0809 26150000 		.4byte	.LASF26
 3297 080d 08       		.byte	0x8
 3298 080e 21       		.byte	0x21
 3299 080f E4000000 		.4byte	0xe4
 3300 0813 04       		.byte	0x4
 3301 0814 0C       		.byte	0xc
 3302 0815 00       		.byte	0
 3303 0816 00       		.byte	0
 3304 0817 09       		.uleb128 0x9
ARM GAS  C:\Users\haske\AppData\Local\Temp\cc5ISl1k.s 			page 74


 3305 0818 2C110000 		.4byte	.LASF27
 3306 081c 08       		.byte	0x8
 3307 081d 22       		.byte	0x22
 3308 081e B8000000 		.4byte	0xb8
 3309 0822 04       		.byte	0x4
 3310 0823 09       		.uleb128 0x9
 3311 0824 99100000 		.4byte	.LASF28
 3312 0828 08       		.byte	0x8
 3313 0829 23       		.byte	0x23
 3314 082a B8000000 		.4byte	0xb8
 3315 082e 05       		.byte	0x5
 3316 082f 09       		.uleb128 0x9
 3317 0830 F8010000 		.4byte	.LASF29
 3318 0834 08       		.byte	0x8
 3319 0835 24       		.byte	0x24
 3320 0836 AD000000 		.4byte	0xad
 3321 083a 06       		.byte	0x6
 3322 083b 09       		.uleb128 0x9
 3323 083c FE010000 		.4byte	.LASF30
 3324 0840 08       		.byte	0x8
 3325 0841 25       		.byte	0x25
 3326 0842 AD000000 		.4byte	0xad
 3327 0846 07       		.byte	0x7
 3328 0847 00       		.byte	0
 3329 0848 02       		.uleb128 0x2
 3330 0849 CC120000 		.4byte	.LASF178
 3331 084d 08       		.byte	0x8
 3332 084e 2E       		.byte	0x2e
 3333 084f F1070000 		.4byte	0x7f1
 3334 0853 11       		.uleb128 0x11
 3335 0854 01       		.byte	0x1
 3336 0855 42000000 		.4byte	0x42
 3337 0859 08       		.byte	0x8
 3338 085a 31       		.byte	0x31
 3339 085b 78080000 		.4byte	0x878
 3340 085f 12       		.uleb128 0x12
 3341 0860 460C0000 		.4byte	.LASF179
 3342 0864 00       		.byte	0
 3343 0865 12       		.uleb128 0x12
 3344 0866 09010000 		.4byte	.LASF180
 3345 086a 01       		.byte	0x1
 3346 086b 12       		.uleb128 0x12
 3347 086c A2000000 		.4byte	.LASF181
 3348 0870 02       		.byte	0x2
 3349 0871 12       		.uleb128 0x12
 3350 0872 A90A0000 		.4byte	.LASF182
 3351 0876 03       		.byte	0x3
 3352 0877 00       		.byte	0
 3353 0878 02       		.uleb128 0x2
 3354 0879 20070000 		.4byte	.LASF183
 3355 087d 08       		.byte	0x8
 3356 087e 38       		.byte	0x38
 3357 087f B8000000 		.4byte	0xb8
 3358 0883 08       		.uleb128 0x8
 3359 0884 14       		.byte	0x14
 3360 0885 08       		.byte	0x8
 3361 0886 3F       		.byte	0x3f
ARM GAS  C:\Users\haske\AppData\Local\Temp\cc5ISl1k.s 			page 75


 3362 0887 E0080000 		.4byte	0x8e0
 3363 088b 09       		.uleb128 0x9
 3364 088c EA090000 		.4byte	.LASF184
 3365 0890 08       		.byte	0x8
 3366 0891 41       		.byte	0x41
 3367 0892 E4000000 		.4byte	0xe4
 3368 0896 00       		.byte	0
 3369 0897 09       		.uleb128 0x9
 3370 0898 D8130000 		.4byte	.LASF185
 3371 089c 08       		.byte	0x8
 3372 089d 45       		.byte	0x45
 3373 089e CE000000 		.4byte	0xce
 3374 08a2 04       		.byte	0x4
 3375 08a3 09       		.uleb128 0x9
 3376 08a4 87030000 		.4byte	.LASF186
 3377 08a8 08       		.byte	0x8
 3378 08a9 48       		.byte	0x48
 3379 08aa CE000000 		.4byte	0xce
 3380 08ae 06       		.byte	0x6
 3381 08af 09       		.uleb128 0x9
 3382 08b0 5D030000 		.4byte	.LASF187
 3383 08b4 08       		.byte	0x8
 3384 08b5 65       		.byte	0x65
 3385 08b6 E0080000 		.4byte	0x8e0
 3386 08ba 08       		.byte	0x8
 3387 08bb 09       		.uleb128 0x9
 3388 08bc 59010000 		.4byte	.LASF188
 3389 08c0 08       		.byte	0x8
 3390 08c1 6A       		.byte	0x6a
 3391 08c2 85020000 		.4byte	0x285
 3392 08c6 0C       		.byte	0xc
 3393 08c7 09       		.uleb128 0x9
 3394 08c8 7E070000 		.4byte	.LASF189
 3395 08cc 08       		.byte	0x8
 3396 08cd 6D       		.byte	0x6d
 3397 08ce CE000000 		.4byte	0xce
 3398 08d2 10       		.byte	0x10
 3399 08d3 09       		.uleb128 0x9
 3400 08d4 14120000 		.4byte	.LASF190
 3401 08d8 08       		.byte	0x8
 3402 08d9 70       		.byte	0x70
 3403 08da 78080000 		.4byte	0x878
 3404 08de 12       		.byte	0x12
 3405 08df 00       		.byte	0
 3406 08e0 06       		.uleb128 0x6
 3407 08e1 04       		.byte	0x4
 3408 08e2 E6080000 		.4byte	0x8e6
 3409 08e6 07       		.uleb128 0x7
 3410 08e7 CE000000 		.4byte	0xce
 3411 08eb 02       		.uleb128 0x2
 3412 08ec 8E0F0000 		.4byte	.LASF191
 3413 08f0 08       		.byte	0x8
 3414 08f1 71       		.byte	0x71
 3415 08f2 83080000 		.4byte	0x883
 3416 08f6 08       		.uleb128 0x8
 3417 08f7 0C       		.byte	0xc
 3418 08f8 08       		.byte	0x8
ARM GAS  C:\Users\haske\AppData\Local\Temp\cc5ISl1k.s 			page 76


 3419 08f9 74       		.byte	0x74
 3420 08fa 35090000 		.4byte	0x935
 3421 08fe 09       		.uleb128 0x9
 3422 08ff B5140000 		.4byte	.LASF192
 3423 0903 08       		.byte	0x8
 3424 0904 7C       		.byte	0x7c
 3425 0905 85020000 		.4byte	0x285
 3426 0909 00       		.byte	0
 3427 090a 09       		.uleb128 0x9
 3428 090b 0B0D0000 		.4byte	.LASF193
 3429 090f 08       		.byte	0x8
 3430 0910 7D       		.byte	0x7d
 3431 0911 35090000 		.4byte	0x935
 3432 0915 04       		.byte	0x4
 3433 0916 0B       		.uleb128 0xb
 3434 0917 49090000 		.4byte	.LASF194
 3435 091b 08       		.byte	0x8
 3436 091c 7E       		.byte	0x7e
 3437 091d E4000000 		.4byte	0xe4
 3438 0921 04       		.byte	0x4
 3439 0922 1E       		.byte	0x1e
 3440 0923 02       		.byte	0x2
 3441 0924 08       		.byte	0x8
 3442 0925 0B       		.uleb128 0xb
 3443 0926 6D080000 		.4byte	.LASF195
 3444 092a 08       		.byte	0x8
 3445 092b 7F       		.byte	0x7f
 3446 092c E4000000 		.4byte	0xe4
 3447 0930 04       		.byte	0x4
 3448 0931 02       		.byte	0x2
 3449 0932 00       		.byte	0
 3450 0933 08       		.byte	0x8
 3451 0934 00       		.byte	0
 3452 0935 06       		.uleb128 0x6
 3453 0936 04       		.byte	0x4
 3454 0937 3B090000 		.4byte	0x93b
 3455 093b 07       		.uleb128 0x7
 3456 093c AD000000 		.4byte	0xad
 3457 0940 02       		.uleb128 0x2
 3458 0941 46050000 		.4byte	.LASF196
 3459 0945 08       		.byte	0x8
 3460 0946 80       		.byte	0x80
 3461 0947 F6080000 		.4byte	0x8f6
 3462 094b 08       		.uleb128 0x8
 3463 094c 10       		.byte	0x10
 3464 094d 08       		.byte	0x8
 3465 094e 83       		.byte	0x83
 3466 094f 90090000 		.4byte	0x990
 3467 0953 09       		.uleb128 0x9
 3468 0954 9F100000 		.4byte	.LASF197
 3469 0958 08       		.byte	0x8
 3470 0959 8C       		.byte	0x8c
 3471 095a 35090000 		.4byte	0x935
 3472 095e 00       		.byte	0
 3473 095f 09       		.uleb128 0x9
 3474 0960 02090000 		.4byte	.LASF198
 3475 0964 08       		.byte	0x8
ARM GAS  C:\Users\haske\AppData\Local\Temp\cc5ISl1k.s 			page 77


 3476 0965 8D       		.byte	0x8d
 3477 0966 74020000 		.4byte	0x274
 3478 096a 04       		.byte	0x4
 3479 096b 09       		.uleb128 0x9
 3480 096c AD010000 		.4byte	.LASF199
 3481 0970 08       		.byte	0x8
 3482 0971 8E       		.byte	0x8e
 3483 0972 74020000 		.4byte	0x274
 3484 0976 08       		.byte	0x8
 3485 0977 09       		.uleb128 0x9
 3486 0978 37050000 		.4byte	.LASF200
 3487 097c 08       		.byte	0x8
 3488 097d 8F       		.byte	0x8f
 3489 097e B8000000 		.4byte	0xb8
 3490 0982 0C       		.byte	0xc
 3491 0983 09       		.uleb128 0x9
 3492 0984 15140000 		.4byte	.LASF201
 3493 0988 08       		.byte	0x8
 3494 0989 90       		.byte	0x90
 3495 098a B8000000 		.4byte	0xb8
 3496 098e 0D       		.byte	0xd
 3497 098f 00       		.byte	0
 3498 0990 02       		.uleb128 0x2
 3499 0991 F5110000 		.4byte	.LASF202
 3500 0995 08       		.byte	0x8
 3501 0996 91       		.byte	0x91
 3502 0997 4B090000 		.4byte	0x94b
 3503 099b 08       		.uleb128 0x8
 3504 099c 08       		.byte	0x8
 3505 099d 08       		.byte	0x8
 3506 099e 9A       		.byte	0x9a
 3507 099f BC090000 		.4byte	0x9bc
 3508 09a3 09       		.uleb128 0x9
 3509 09a4 77010000 		.4byte	.LASF203
 3510 09a8 08       		.byte	0x8
 3511 09a9 9B       		.byte	0x9b
 3512 09aa E4000000 		.4byte	0xe4
 3513 09ae 00       		.byte	0
 3514 09af 09       		.uleb128 0x9
 3515 09b0 5B0D0000 		.4byte	.LASF204
 3516 09b4 08       		.byte	0x8
 3517 09b5 9C       		.byte	0x9c
 3518 09b6 E4000000 		.4byte	0xe4
 3519 09ba 04       		.byte	0x4
 3520 09bb 00       		.byte	0
 3521 09bc 02       		.uleb128 0x2
 3522 09bd DC0D0000 		.4byte	.LASF205
 3523 09c1 08       		.byte	0x8
 3524 09c2 9D       		.byte	0x9d
 3525 09c3 9B090000 		.4byte	0x99b
 3526 09c7 08       		.uleb128 0x8
 3527 09c8 18       		.byte	0x18
 3528 09c9 08       		.byte	0x8
 3529 09ca A0       		.byte	0xa0
 3530 09cb 540A0000 		.4byte	0xa54
 3531 09cf 09       		.uleb128 0x9
 3532 09d0 970C0000 		.4byte	.LASF206
ARM GAS  C:\Users\haske\AppData\Local\Temp\cc5ISl1k.s 			page 78


 3533 09d4 08       		.byte	0x8
 3534 09d5 A2       		.byte	0xa2
 3535 09d6 74020000 		.4byte	0x274
 3536 09da 00       		.byte	0
 3537 09db 09       		.uleb128 0x9
 3538 09dc 5C140000 		.4byte	.LASF207
 3539 09e0 08       		.byte	0x8
 3540 09e1 A5       		.byte	0xa5
 3541 09e2 540A0000 		.4byte	0xa54
 3542 09e6 04       		.byte	0x4
 3543 09e7 09       		.uleb128 0x9
 3544 09e8 77030000 		.4byte	.LASF208
 3545 09ec 08       		.byte	0x8
 3546 09ed A9       		.byte	0xa9
 3547 09ee 5F0A0000 		.4byte	0xa5f
 3548 09f2 08       		.byte	0x8
 3549 09f3 09       		.uleb128 0x9
 3550 09f4 AA090000 		.4byte	.LASF209
 3551 09f8 08       		.byte	0x8
 3552 09f9 B0       		.byte	0xb0
 3553 09fa 85020000 		.4byte	0x285
 3554 09fe 0C       		.byte	0xc
 3555 09ff 09       		.uleb128 0x9
 3556 0a00 270C0000 		.4byte	.LASF210
 3557 0a04 08       		.byte	0x8
 3558 0a05 B3       		.byte	0xb3
 3559 0a06 CE000000 		.4byte	0xce
 3560 0a0a 10       		.byte	0x10
 3561 0a0b 0B       		.uleb128 0xb
 3562 0a0c 75070000 		.4byte	.LASF211
 3563 0a10 08       		.byte	0x8
 3564 0a11 B6       		.byte	0xb6
 3565 0a12 CE000000 		.4byte	0xce
 3566 0a16 02       		.byte	0x2
 3567 0a17 09       		.byte	0x9
 3568 0a18 07       		.byte	0x7
 3569 0a19 12       		.byte	0x12
 3570 0a1a 0A       		.uleb128 0xa
 3571 0a1b 62707000 		.ascii	"bpp\000"
 3572 0a1f 08       		.byte	0x8
 3573 0a20 B9       		.byte	0xb9
 3574 0a21 CE000000 		.4byte	0xce
 3575 0a25 02       		.byte	0x2
 3576 0a26 04       		.byte	0x4
 3577 0a27 03       		.byte	0x3
 3578 0a28 12       		.byte	0x12
 3579 0a29 0B       		.uleb128 0xb
 3580 0a2a 19120000 		.4byte	.LASF212
 3581 0a2e 08       		.byte	0x8
 3582 0a2f BC       		.byte	0xbc
 3583 0a30 CE000000 		.4byte	0xce
 3584 0a34 02       		.byte	0x2
 3585 0a35 01       		.byte	0x1
 3586 0a36 02       		.byte	0x2
 3587 0a37 12       		.byte	0x12
 3588 0a38 0B       		.uleb128 0xb
 3589 0a39 3B090000 		.4byte	.LASF213
ARM GAS  C:\Users\haske\AppData\Local\Temp\cc5ISl1k.s 			page 79


 3590 0a3d 08       		.byte	0x8
 3591 0a3e C2       		.byte	0xc2
 3592 0a3f CE000000 		.4byte	0xce
 3593 0a43 02       		.byte	0x2
 3594 0a44 02       		.byte	0x2
 3595 0a45 00       		.byte	0
 3596 0a46 12       		.byte	0x12
 3597 0a47 09       		.uleb128 0x9
 3598 0a48 62130000 		.4byte	.LASF175
 3599 0a4c 08       		.byte	0x8
 3600 0a4d C5       		.byte	0xc5
 3601 0a4e 6A0A0000 		.4byte	0xa6a
 3602 0a52 14       		.byte	0x14
 3603 0a53 00       		.byte	0
 3604 0a54 06       		.uleb128 0x6
 3605 0a55 04       		.byte	0x4
 3606 0a56 5A0A0000 		.4byte	0xa5a
 3607 0a5a 07       		.uleb128 0x7
 3608 0a5b 48080000 		.4byte	0x848
 3609 0a5f 06       		.uleb128 0x6
 3610 0a60 04       		.byte	0x4
 3611 0a61 650A0000 		.4byte	0xa65
 3612 0a65 07       		.uleb128 0x7
 3613 0a66 EB080000 		.4byte	0x8eb
 3614 0a6a 06       		.uleb128 0x6
 3615 0a6b 04       		.byte	0x4
 3616 0a6c BC090000 		.4byte	0x9bc
 3617 0a70 02       		.uleb128 0x2
 3618 0a71 40100000 		.4byte	.LASF214
 3619 0a75 08       		.byte	0x8
 3620 0a76 C6       		.byte	0xc6
 3621 0a77 C7090000 		.4byte	0x9c7
 3622 0a7b 15       		.uleb128 0x15
 3623 0a7c 05010000 		.4byte	0x105
 3624 0a80 8B0A0000 		.4byte	0xa8b
 3625 0a84 16       		.uleb128 0x16
 3626 0a85 F8000000 		.4byte	0xf8
 3627 0a89 03       		.byte	0x3
 3628 0a8a 00       		.byte	0
 3629 0a8b 08       		.uleb128 0x8
 3630 0a8c 08       		.byte	0x8
 3631 0a8d 01       		.byte	0x1
 3632 0a8e 14       		.byte	0x14
 3633 0a8f B70A0000 		.4byte	0xab7
 3634 0a93 0D       		.uleb128 0xd
 3635 0a94 667000   		.ascii	"fp\000"
 3636 0a97 01       		.byte	0x1
 3637 0a98 15       		.byte	0x15
 3638 0a99 B70A0000 		.4byte	0xab7
 3639 0a9d 00       		.byte	0
 3640 0a9e 09       		.uleb128 0x9
 3641 0a9f 3C0A0000 		.4byte	.LASF215
 3642 0aa3 01       		.byte	0x1
 3643 0aa4 16       		.byte	0x16
 3644 0aa5 AD000000 		.4byte	0xad
 3645 0aa9 04       		.byte	0x4
 3646 0aaa 09       		.uleb128 0x9
ARM GAS  C:\Users\haske\AppData\Local\Temp\cc5ISl1k.s 			page 80


 3647 0aab CF0C0000 		.4byte	.LASF216
 3648 0aaf 01       		.byte	0x1
 3649 0ab0 17       		.byte	0x17
 3650 0ab1 B8000000 		.4byte	0xb8
 3651 0ab5 05       		.byte	0x5
 3652 0ab6 00       		.byte	0
 3653 0ab7 06       		.uleb128 0x6
 3654 0ab8 04       		.byte	0x4
 3655 0ab9 DB070000 		.4byte	0x7db
 3656 0abd 02       		.uleb128 0x2
 3657 0abe C4000000 		.4byte	.LASF217
 3658 0ac2 01       		.byte	0x1
 3659 0ac3 18       		.byte	0x18
 3660 0ac4 8B0A0000 		.4byte	0xa8b
 3661 0ac8 0C       		.uleb128 0xc
 3662 0ac9 19080000 		.4byte	.LASF218
 3663 0acd 28       		.byte	0x28
 3664 0ace 01       		.byte	0x1
 3665 0acf 1A       		.byte	0x1a
 3666 0ad0 F50B0000 		.4byte	0xbf5
 3667 0ad4 09       		.uleb128 0x9
 3668 0ad5 04020000 		.4byte	.LASF219
 3669 0ad9 01       		.byte	0x1
 3670 0ada 1B       		.byte	0x1b
 3671 0adb E4000000 		.4byte	0xe4
 3672 0adf 00       		.byte	0
 3673 0ae0 09       		.uleb128 0x9
 3674 0ae1 F1130000 		.4byte	.LASF220
 3675 0ae5 01       		.byte	0x1
 3676 0ae6 1C       		.byte	0x1c
 3677 0ae7 CE000000 		.4byte	0xce
 3678 0aeb 04       		.byte	0x4
 3679 0aec 09       		.uleb128 0x9
 3680 0aed 7D030000 		.4byte	.LASF221
 3681 0af1 01       		.byte	0x1
 3682 0af2 1D       		.byte	0x1d
 3683 0af3 CE000000 		.4byte	0xce
 3684 0af7 06       		.byte	0x6
 3685 0af8 09       		.uleb128 0x9
 3686 0af9 2F0F0000 		.4byte	.LASF222
 3687 0afd 01       		.byte	0x1
 3688 0afe 1E       		.byte	0x1e
 3689 0aff CE000000 		.4byte	0xce
 3690 0b03 08       		.byte	0x8
 3691 0b04 09       		.uleb128 0x9
 3692 0b05 CB110000 		.4byte	.LASF223
 3693 0b09 01       		.byte	0x1
 3694 0b0a 1F       		.byte	0x1f
 3695 0b0b C3000000 		.4byte	0xc3
 3696 0b0f 0A       		.byte	0xa
 3697 0b10 09       		.uleb128 0x9
 3698 0b11 2C150000 		.4byte	.LASF224
 3699 0b15 01       		.byte	0x1
 3700 0b16 20       		.byte	0x20
 3701 0b17 CE000000 		.4byte	0xce
 3702 0b1b 0C       		.byte	0xc
 3703 0b1c 09       		.uleb128 0x9
ARM GAS  C:\Users\haske\AppData\Local\Temp\cc5ISl1k.s 			page 81


 3704 0b1d 70020000 		.4byte	.LASF225
 3705 0b21 01       		.byte	0x1
 3706 0b22 21       		.byte	0x21
 3707 0b23 C3000000 		.4byte	0xc3
 3708 0b27 0E       		.byte	0xe
 3709 0b28 09       		.uleb128 0x9
 3710 0b29 C80B0000 		.4byte	.LASF226
 3711 0b2d 01       		.byte	0x1
 3712 0b2e 22       		.byte	0x22
 3713 0b2f CE000000 		.4byte	0xce
 3714 0b33 10       		.byte	0x10
 3715 0b34 09       		.uleb128 0x9
 3716 0b35 5B0B0000 		.4byte	.LASF227
 3717 0b39 01       		.byte	0x1
 3718 0b3a 23       		.byte	0x23
 3719 0b3b C3000000 		.4byte	0xc3
 3720 0b3f 12       		.byte	0x12
 3721 0b40 09       		.uleb128 0x9
 3722 0b41 C6120000 		.4byte	.LASF228
 3723 0b45 01       		.byte	0x1
 3724 0b46 24       		.byte	0x24
 3725 0b47 C3000000 		.4byte	0xc3
 3726 0b4b 14       		.byte	0x14
 3727 0b4c 09       		.uleb128 0x9
 3728 0b4d 2A100000 		.4byte	.LASF229
 3729 0b51 01       		.byte	0x1
 3730 0b52 25       		.byte	0x25
 3731 0b53 CE000000 		.4byte	0xce
 3732 0b57 16       		.byte	0x16
 3733 0b58 09       		.uleb128 0x9
 3734 0b59 C00E0000 		.4byte	.LASF230
 3735 0b5d 01       		.byte	0x1
 3736 0b5e 26       		.byte	0x26
 3737 0b5f CE000000 		.4byte	0xce
 3738 0b63 18       		.byte	0x18
 3739 0b64 09       		.uleb128 0x9
 3740 0b65 560A0000 		.4byte	.LASF231
 3741 0b69 01       		.byte	0x1
 3742 0b6a 27       		.byte	0x27
 3743 0b6b B8000000 		.4byte	0xb8
 3744 0b6f 1A       		.byte	0x1a
 3745 0b70 09       		.uleb128 0x9
 3746 0b71 B80B0000 		.4byte	.LASF232
 3747 0b75 01       		.byte	0x1
 3748 0b76 28       		.byte	0x28
 3749 0b77 B8000000 		.4byte	0xb8
 3750 0b7b 1B       		.byte	0x1b
 3751 0b7c 09       		.uleb128 0x9
 3752 0b7d 660E0000 		.4byte	.LASF233
 3753 0b81 01       		.byte	0x1
 3754 0b82 29       		.byte	0x29
 3755 0b83 B8000000 		.4byte	0xb8
 3756 0b87 1C       		.byte	0x1c
 3757 0b88 09       		.uleb128 0x9
 3758 0b89 C00C0000 		.4byte	.LASF234
 3759 0b8d 01       		.byte	0x1
 3760 0b8e 2A       		.byte	0x2a
ARM GAS  C:\Users\haske\AppData\Local\Temp\cc5ISl1k.s 			page 82


 3761 0b8f B8000000 		.4byte	0xb8
 3762 0b93 1D       		.byte	0x1d
 3763 0b94 09       		.uleb128 0x9
 3764 0b95 850A0000 		.4byte	.LASF235
 3765 0b99 01       		.byte	0x1
 3766 0b9a 2B       		.byte	0x2b
 3767 0b9b B8000000 		.4byte	0xb8
 3768 0b9f 1E       		.byte	0x1e
 3769 0ba0 09       		.uleb128 0x9
 3770 0ba1 EF0B0000 		.4byte	.LASF236
 3771 0ba5 01       		.byte	0x1
 3772 0ba6 2C       		.byte	0x2c
 3773 0ba7 B8000000 		.4byte	0xb8
 3774 0bab 1F       		.byte	0x1f
 3775 0bac 09       		.uleb128 0x9
 3776 0bad 33080000 		.4byte	.LASF237
 3777 0bb1 01       		.byte	0x1
 3778 0bb2 2D       		.byte	0x2d
 3779 0bb3 B8000000 		.4byte	0xb8
 3780 0bb7 20       		.byte	0x20
 3781 0bb8 09       		.uleb128 0x9
 3782 0bb9 DC020000 		.4byte	.LASF238
 3783 0bbd 01       		.byte	0x1
 3784 0bbe 2E       		.byte	0x2e
 3785 0bbf B8000000 		.4byte	0xb8
 3786 0bc3 21       		.byte	0x21
 3787 0bc4 09       		.uleb128 0x9
 3788 0bc5 DF080000 		.4byte	.LASF239
 3789 0bc9 01       		.byte	0x1
 3790 0bca 2F       		.byte	0x2f
 3791 0bcb B8000000 		.4byte	0xb8
 3792 0bcf 22       		.byte	0x22
 3793 0bd0 09       		.uleb128 0x9
 3794 0bd1 CA0A0000 		.4byte	.LASF240
 3795 0bd5 01       		.byte	0x1
 3796 0bd6 30       		.byte	0x30
 3797 0bd7 B8000000 		.4byte	0xb8
 3798 0bdb 23       		.byte	0x23
 3799 0bdc 09       		.uleb128 0x9
 3800 0bdd 7E040000 		.4byte	.LASF37
 3801 0be1 01       		.byte	0x1
 3802 0be2 31       		.byte	0x31
 3803 0be3 C3000000 		.4byte	0xc3
 3804 0be7 24       		.byte	0x24
 3805 0be8 09       		.uleb128 0x9
 3806 0be9 AB030000 		.4byte	.LASF38
 3807 0bed 01       		.byte	0x1
 3808 0bee 32       		.byte	0x32
 3809 0bef CE000000 		.4byte	0xce
 3810 0bf3 26       		.byte	0x26
 3811 0bf4 00       		.byte	0
 3812 0bf5 02       		.uleb128 0x2
 3813 0bf6 3A010000 		.4byte	.LASF241
 3814 0bfa 01       		.byte	0x1
 3815 0bfb 33       		.byte	0x33
 3816 0bfc C80A0000 		.4byte	0xac8
 3817 0c00 0C       		.uleb128 0xc
ARM GAS  C:\Users\haske\AppData\Local\Temp\cc5ISl1k.s 			page 83


 3818 0c01 9F0D0000 		.4byte	.LASF242
 3819 0c05 10       		.byte	0x10
 3820 0c06 01       		.byte	0x1
 3821 0c07 35       		.byte	0x35
 3822 0c08 610C0000 		.4byte	0xc61
 3823 0c0c 09       		.uleb128 0x9
 3824 0c0d A4120000 		.4byte	.LASF243
 3825 0c11 01       		.byte	0x1
 3826 0c12 36       		.byte	0x36
 3827 0c13 E4000000 		.4byte	0xe4
 3828 0c17 00       		.byte	0
 3829 0c18 09       		.uleb128 0x9
 3830 0c19 EA090000 		.4byte	.LASF184
 3831 0c1d 01       		.byte	0x1
 3832 0c1e 37       		.byte	0x37
 3833 0c1f E4000000 		.4byte	0xe4
 3834 0c23 04       		.byte	0x4
 3835 0c24 09       		.uleb128 0x9
 3836 0c25 D8130000 		.4byte	.LASF185
 3837 0c29 01       		.byte	0x1
 3838 0c2a 38       		.byte	0x38
 3839 0c2b CE000000 		.4byte	0xce
 3840 0c2f 08       		.byte	0x8
 3841 0c30 09       		.uleb128 0x9
 3842 0c31 87030000 		.4byte	.LASF186
 3843 0c35 01       		.byte	0x1
 3844 0c36 39       		.byte	0x39
 3845 0c37 CE000000 		.4byte	0xce
 3846 0c3b 0A       		.byte	0xa
 3847 0c3c 09       		.uleb128 0x9
 3848 0c3d 00000000 		.4byte	.LASF244
 3849 0c41 01       		.byte	0x1
 3850 0c42 3A       		.byte	0x3a
 3851 0c43 CE000000 		.4byte	0xce
 3852 0c47 0C       		.byte	0xc
 3853 0c48 09       		.uleb128 0x9
 3854 0c49 F1060000 		.4byte	.LASF245
 3855 0c4d 01       		.byte	0x1
 3856 0c4e 3B       		.byte	0x3b
 3857 0c4f B8000000 		.4byte	0xb8
 3858 0c53 0E       		.byte	0xe
 3859 0c54 09       		.uleb128 0x9
 3860 0c55 CA0A0000 		.4byte	.LASF240
 3861 0c59 01       		.byte	0x1
 3862 0c5a 3C       		.byte	0x3c
 3863 0c5b B8000000 		.4byte	0xb8
 3864 0c5f 0F       		.byte	0xf
 3865 0c60 00       		.byte	0
 3866 0c61 02       		.uleb128 0x2
 3867 0c62 8E0D0000 		.4byte	.LASF246
 3868 0c66 01       		.byte	0x1
 3869 0c67 3D       		.byte	0x3d
 3870 0c68 000C0000 		.4byte	0xc00
 3871 0c6c 17       		.uleb128 0x17
 3872 0c6d 440A0000 		.4byte	.LASF247
 3873 0c71 01       		.byte	0x1
 3874 0c72 B9       		.byte	0xb9
ARM GAS  C:\Users\haske\AppData\Local\Temp\cc5ISl1k.s 			page 84


 3875 0c73 BD0A0000 		.4byte	0xabd
 3876 0c77 00000000 		.4byte	.LFB204
 3877 0c7b 0C000000 		.4byte	.LFE204-.LFB204
 3878 0c7f 01       		.uleb128 0x1
 3879 0c80 9C       		.byte	0x9c
 3880 0c81 9F0C0000 		.4byte	0xc9f
 3881 0c85 18       		.uleb128 0x18
 3882 0c86 667000   		.ascii	"fp\000"
 3883 0c89 01       		.byte	0x1
 3884 0c8a B9       		.byte	0xb9
 3885 0c8b B70A0000 		.4byte	0xab7
 3886 0c8f 01       		.uleb128 0x1
 3887 0c90 51       		.byte	0x51
 3888 0c91 19       		.uleb128 0x19
 3889 0c92 697400   		.ascii	"it\000"
 3890 0c95 01       		.byte	0x1
 3891 0c96 BB       		.byte	0xbb
 3892 0c97 BD0A0000 		.4byte	0xabd
 3893 0c9b 02       		.uleb128 0x2
 3894 0c9c 70       		.byte	0x70
 3895 0c9d 00       		.sleb128 0
 3896 0c9e 00       		.byte	0
 3897 0c9f 17       		.uleb128 0x17
 3898 0ca0 E0090000 		.4byte	.LASF248
 3899 0ca4 01       		.byte	0x1
 3900 0ca5 C2       		.byte	0xc2
 3901 0ca6 A6000000 		.4byte	0xa6
 3902 0caa 00000000 		.4byte	.LFB205
 3903 0cae 50000000 		.4byte	.LFE205-.LFB205
 3904 0cb2 01       		.uleb128 0x1
 3905 0cb3 9C       		.byte	0x9c
 3906 0cb4 230D0000 		.4byte	0xd23
 3907 0cb8 1A       		.uleb128 0x1a
 3908 0cb9 697400   		.ascii	"it\000"
 3909 0cbc 01       		.byte	0x1
 3910 0cbd C2       		.byte	0xc2
 3911 0cbe 230D0000 		.4byte	0xd23
 3912 0cc2 00000000 		.4byte	.LLST0
 3913 0cc6 1B       		.uleb128 0x1b
 3914 0cc7 46140000 		.4byte	.LASF249
 3915 0ccb 01       		.byte	0x1
 3916 0ccc C2       		.byte	0xc2
 3917 0ccd 9F000000 		.4byte	0x9f
 3918 0cd1 2C000000 		.4byte	.LLST1
 3919 0cd5 1A       		.uleb128 0x1a
 3920 0cd6 72657300 		.ascii	"res\000"
 3921 0cda 01       		.byte	0x1
 3922 0cdb C2       		.byte	0xc2
 3923 0cdc 290D0000 		.4byte	0xd29
 3924 0ce0 60000000 		.4byte	.LLST2
 3925 0ce4 1C       		.uleb128 0x1c
 3926 0ce5 E6060000 		.4byte	.LASF250
 3927 0ce9 01       		.byte	0x1
 3928 0cea C4       		.byte	0xc4
 3929 0ceb A6000000 		.4byte	0xa6
 3930 0cef 8C000000 		.4byte	.LLST3
 3931 0cf3 1D       		.uleb128 0x1d
ARM GAS  C:\Users\haske\AppData\Local\Temp\cc5ISl1k.s 			page 85


 3932 0cf4 00000000 		.4byte	.Ldebug_ranges0+0
 3933 0cf8 1E       		.uleb128 0x1e
 3934 0cf9 62697400 		.ascii	"bit\000"
 3935 0cfd 01       		.byte	0x1
 3936 0cfe D0       		.byte	0xd0
 3937 0cff AD000000 		.4byte	0xad
 3938 0d03 AB000000 		.4byte	.LLST4
 3939 0d07 1F       		.uleb128 0x1f
 3940 0d08 2E000000 		.4byte	.LVL4
 3941 0d0c A51E0000 		.4byte	0x1ea5
 3942 0d10 20       		.uleb128 0x20
 3943 0d11 01       		.uleb128 0x1
 3944 0d12 51       		.byte	0x51
 3945 0d13 02       		.uleb128 0x2
 3946 0d14 74       		.byte	0x74
 3947 0d15 05       		.sleb128 5
 3948 0d16 20       		.uleb128 0x20
 3949 0d17 01       		.uleb128 0x1
 3950 0d18 52       		.byte	0x52
 3951 0d19 01       		.uleb128 0x1
 3952 0d1a 31       		.byte	0x31
 3953 0d1b 20       		.uleb128 0x20
 3954 0d1c 01       		.uleb128 0x1
 3955 0d1d 53       		.byte	0x53
 3956 0d1e 01       		.uleb128 0x1
 3957 0d1f 30       		.byte	0x30
 3958 0d20 00       		.byte	0
 3959 0d21 00       		.byte	0
 3960 0d22 00       		.byte	0
 3961 0d23 06       		.uleb128 0x6
 3962 0d24 04       		.byte	0x4
 3963 0d25 BD0A0000 		.4byte	0xabd
 3964 0d29 06       		.uleb128 0x6
 3965 0d2a 04       		.byte	0x4
 3966 0d2b 29050000 		.4byte	0x529
 3967 0d2f 17       		.uleb128 0x17
 3968 0d30 D3000000 		.4byte	.LASF251
 3969 0d34 01       		.byte	0x1
 3970 0d35 D8       		.byte	0xd8
 3971 0d36 9F000000 		.4byte	0x9f
 3972 0d3a 00000000 		.4byte	.LFB206
 3973 0d3e 1C000000 		.4byte	.LFE206-.LFB206
 3974 0d42 01       		.uleb128 0x1
 3975 0d43 9C       		.byte	0x9c
 3976 0d44 A00D0000 		.4byte	0xda0
 3977 0d48 1A       		.uleb128 0x1a
 3978 0d49 697400   		.ascii	"it\000"
 3979 0d4c 01       		.byte	0x1
 3980 0d4d D8       		.byte	0xd8
 3981 0d4e 230D0000 		.4byte	0xd23
 3982 0d52 CF000000 		.4byte	.LLST5
 3983 0d56 1B       		.uleb128 0x1b
 3984 0d57 46140000 		.4byte	.LASF249
 3985 0d5b 01       		.byte	0x1
 3986 0d5c D8       		.byte	0xd8
 3987 0d5d 9F000000 		.4byte	0x9f
 3988 0d61 F0000000 		.4byte	.LLST6
ARM GAS  C:\Users\haske\AppData\Local\Temp\cc5ISl1k.s 			page 86


 3989 0d65 1A       		.uleb128 0x1a
 3990 0d66 72657300 		.ascii	"res\000"
 3991 0d6a 01       		.byte	0x1
 3992 0d6b D8       		.byte	0xd8
 3993 0d6c 290D0000 		.4byte	0xd29
 3994 0d70 1B010000 		.4byte	.LLST7
 3995 0d74 21       		.uleb128 0x21
 3996 0d75 E6060000 		.4byte	.LASF250
 3997 0d79 01       		.byte	0x1
 3998 0d7a DA       		.byte	0xda
 3999 0d7b A6000000 		.4byte	0xa6
 4000 0d7f 01       		.uleb128 0x1
 4001 0d80 50       		.byte	0x50
 4002 0d81 1F       		.uleb128 0x1f
 4003 0d82 08000000 		.4byte	.LVL15
 4004 0d86 9F0C0000 		.4byte	0xc9f
 4005 0d8a 20       		.uleb128 0x20
 4006 0d8b 01       		.uleb128 0x1
 4007 0d8c 50       		.byte	0x50
 4008 0d8d 03       		.uleb128 0x3
 4009 0d8e F3       		.byte	0xf3
 4010 0d8f 01       		.uleb128 0x1
 4011 0d90 50       		.byte	0x50
 4012 0d91 20       		.uleb128 0x20
 4013 0d92 01       		.uleb128 0x1
 4014 0d93 51       		.byte	0x51
 4015 0d94 02       		.uleb128 0x2
 4016 0d95 74       		.byte	0x74
 4017 0d96 00       		.sleb128 0
 4018 0d97 20       		.uleb128 0x20
 4019 0d98 01       		.uleb128 0x1
 4020 0d99 52       		.byte	0x52
 4021 0d9a 03       		.uleb128 0x3
 4022 0d9b F3       		.byte	0xf3
 4023 0d9c 01       		.uleb128 0x1
 4024 0d9d 52       		.byte	0x52
 4025 0d9e 00       		.byte	0
 4026 0d9f 00       		.byte	0
 4027 0da0 17       		.uleb128 0x17
 4028 0da1 93140000 		.4byte	.LASF252
 4029 0da5 01       		.byte	0x1
 4030 0da6 F2       		.byte	0xf2
 4031 0da7 4D020000 		.4byte	0x24d
 4032 0dab 00000000 		.4byte	.LFB208
 4033 0daf 04010000 		.4byte	.LFE208-.LFB208
 4034 0db3 01       		.uleb128 0x1
 4035 0db4 9C       		.byte	0x9c
 4036 0db5 510F0000 		.4byte	0xf51
 4037 0db9 1A       		.uleb128 0x1a
 4038 0dba 667000   		.ascii	"fp\000"
 4039 0dbd 01       		.byte	0x1
 4040 0dbe F2       		.byte	0xf2
 4041 0dbf B70A0000 		.4byte	0xab7
 4042 0dc3 3C010000 		.4byte	.LLST8
 4043 0dc7 1B       		.uleb128 0x1b
 4044 0dc8 050F0000 		.4byte	.LASF253
 4045 0dcc 01       		.byte	0x1
ARM GAS  C:\Users\haske\AppData\Local\Temp\cc5ISl1k.s 			page 87


 4046 0dcd F2       		.byte	0xf2
 4047 0dce 510F0000 		.4byte	0xf51
 4048 0dd2 67010000 		.4byte	.LLST9
 4049 0dd6 1B       		.uleb128 0x1b
 4050 0dd7 0C0C0000 		.4byte	.LASF254
 4051 0ddb 01       		.byte	0x1
 4052 0ddc F3       		.byte	0xf3
 4053 0ddd E4000000 		.4byte	0xe4
 4054 0de1 93010000 		.4byte	.LLST10
 4055 0de5 1B       		.uleb128 0x1b
 4056 0de6 32110000 		.4byte	.LASF255
 4057 0dea 01       		.byte	0x1
 4058 0deb F3       		.byte	0xf3
 4059 0dec 570F0000 		.4byte	0xf57
 4060 0df0 BF010000 		.4byte	.LLST11
 4061 0df4 22       		.uleb128 0x22
 4062 0df5 18000000 		.4byte	.Ldebug_ranges0+0x18
 4063 0df9 340F0000 		.4byte	0xf34
 4064 0dfd 1E       		.uleb128 0x1e
 4065 0dfe 6900     		.ascii	"i\000"
 4066 0e00 01       		.byte	0x1
 4067 0e01 F9       		.byte	0xf9
 4068 0e02 A6000000 		.4byte	0xa6
 4069 0e06 EB010000 		.4byte	.LLST12
 4070 0e0a 1D       		.uleb128 0x1d
 4071 0e0b 38000000 		.4byte	.Ldebug_ranges0+0x38
 4072 0e0f 1E       		.uleb128 0x1e
 4073 0e10 72657300 		.ascii	"res\000"
 4074 0e14 01       		.byte	0x1
 4075 0e15 FA       		.byte	0xfa
 4076 0e16 29050000 		.4byte	0x529
 4077 0e1a 09020000 		.4byte	.LLST13
 4078 0e1e 1C       		.uleb128 0x1c
 4079 0e1f EE080000 		.4byte	.LASF256
 4080 0e23 01       		.byte	0x1
 4081 0e24 FF       		.byte	0xff
 4082 0e25 5D0F0000 		.4byte	0xf5d
 4083 0e29 3D020000 		.4byte	.LLST14
 4084 0e2d 22       		.uleb128 0x22
 4085 0e2e 50000000 		.4byte	.Ldebug_ranges0+0x50
 4086 0e32 870E0000 		.4byte	0xe87
 4087 0e36 23       		.uleb128 0x23
 4088 0e37 1D150000 		.4byte	.LASF257
 4089 0e3b 01       		.byte	0x1
 4090 0e3c 0801     		.2byte	0x108
 4091 0e3e B8000000 		.4byte	0xb8
 4092 0e42 5B020000 		.4byte	.LLST15
 4093 0e46 23       		.uleb128 0x23
 4094 0e47 59010000 		.4byte	.LASF188
 4095 0e4b 01       		.byte	0x1
 4096 0e4c 0901     		.2byte	0x109
 4097 0e4e C8040000 		.4byte	0x4c8
 4098 0e52 79020000 		.4byte	.LLST16
 4099 0e56 24       		.uleb128 0x24
 4100 0e57 78000000 		.4byte	.LVL28
 4101 0e5b B01E0000 		.4byte	0x1eb0
 4102 0e5f 6A0E0000 		.4byte	0xe6a
ARM GAS  C:\Users\haske\AppData\Local\Temp\cc5ISl1k.s 			page 88


 4103 0e63 20       		.uleb128 0x20
 4104 0e64 01       		.uleb128 0x1
 4105 0e65 50       		.byte	0x50
 4106 0e66 02       		.uleb128 0x2
 4107 0e67 77       		.byte	0x77
 4108 0e68 00       		.sleb128 0
 4109 0e69 00       		.byte	0
 4110 0e6a 1F       		.uleb128 0x1f
 4111 0e6b 86000000 		.4byte	.LVL31
 4112 0e6f A51E0000 		.4byte	0x1ea5
 4113 0e73 20       		.uleb128 0x20
 4114 0e74 01       		.uleb128 0x1
 4115 0e75 50       		.byte	0x50
 4116 0e76 03       		.uleb128 0x3
 4117 0e77 7D       		.byte	0x7d
 4118 0e78 00       		.sleb128 0
 4119 0e79 06       		.byte	0x6
 4120 0e7a 20       		.uleb128 0x20
 4121 0e7b 01       		.uleb128 0x1
 4122 0e7c 52       		.byte	0x52
 4123 0e7d 02       		.uleb128 0x2
 4124 0e7e 77       		.byte	0x77
 4125 0e7f 00       		.sleb128 0
 4126 0e80 20       		.uleb128 0x20
 4127 0e81 01       		.uleb128 0x1
 4128 0e82 53       		.byte	0x53
 4129 0e83 01       		.uleb128 0x1
 4130 0e84 30       		.byte	0x30
 4131 0e85 00       		.byte	0
 4132 0e86 00       		.byte	0
 4133 0e87 22       		.uleb128 0x22
 4134 0e88 68000000 		.4byte	.Ldebug_ranges0+0x68
 4135 0e8c 1C0F0000 		.4byte	0xf1c
 4136 0e90 23       		.uleb128 0x23
 4137 0e91 6D090000 		.4byte	.LASF258
 4138 0e95 01       		.byte	0x1
 4139 0e96 1801     		.2byte	0x118
 4140 0e98 E4000000 		.4byte	0xe4
 4141 0e9c 97020000 		.4byte	.LLST17
 4142 0ea0 23       		.uleb128 0x23
 4143 0ea1 5D030000 		.4byte	.LASF187
 4144 0ea5 01       		.byte	0x1
 4145 0ea6 1901     		.2byte	0x119
 4146 0ea8 EB070000 		.4byte	0x7eb
 4147 0eac C2020000 		.4byte	.LLST18
 4148 0eb0 22       		.uleb128 0x22
 4149 0eb1 80000000 		.4byte	.Ldebug_ranges0+0x80
 4150 0eb5 E90E0000 		.4byte	0xee9
 4151 0eb9 25       		.uleb128 0x25
 4152 0eba 62756600 		.ascii	"buf\000"
 4153 0ebe 01       		.byte	0x1
 4154 0ebf 2301     		.2byte	0x123
 4155 0ec1 EB070000 		.4byte	0x7eb
 4156 0ec5 E0020000 		.4byte	.LLST19
 4157 0ec9 26       		.uleb128 0x26
 4158 0eca C0000000 		.4byte	.LVL39
 4159 0ece B01E0000 		.4byte	0x1eb0
ARM GAS  C:\Users\haske\AppData\Local\Temp\cc5ISl1k.s 			page 89


 4160 0ed2 1F       		.uleb128 0x1f
 4161 0ed3 D0000000 		.4byte	.LVL42
 4162 0ed7 A51E0000 		.4byte	0x1ea5
 4163 0edb 20       		.uleb128 0x20
 4164 0edc 01       		.uleb128 0x1
 4165 0edd 50       		.byte	0x50
 4166 0ede 03       		.uleb128 0x3
 4167 0edf 7D       		.byte	0x7d
 4168 0ee0 00       		.sleb128 0
 4169 0ee1 06       		.byte	0x6
 4170 0ee2 20       		.uleb128 0x20
 4171 0ee3 01       		.uleb128 0x1
 4172 0ee4 53       		.byte	0x53
 4173 0ee5 01       		.uleb128 0x1
 4174 0ee6 30       		.byte	0x30
 4175 0ee7 00       		.byte	0
 4176 0ee8 00       		.byte	0
 4177 0ee9 24       		.uleb128 0x24
 4178 0eea 9C000000 		.4byte	.LVL35
 4179 0eee B01E0000 		.4byte	0x1eb0
 4180 0ef2 FE0E0000 		.4byte	0xefe
 4181 0ef6 20       		.uleb128 0x20
 4182 0ef7 01       		.uleb128 0x1
 4183 0ef8 50       		.byte	0x50
 4184 0ef9 03       		.uleb128 0x3
 4185 0efa 91       		.byte	0x91
 4186 0efb 5C       		.sleb128 -36
 4187 0efc 06       		.byte	0x6
 4188 0efd 00       		.byte	0
 4189 0efe 1F       		.uleb128 0x1f
 4190 0eff AE000000 		.4byte	.LVL38
 4191 0f03 A51E0000 		.4byte	0x1ea5
 4192 0f07 20       		.uleb128 0x20
 4193 0f08 01       		.uleb128 0x1
 4194 0f09 50       		.byte	0x50
 4195 0f0a 03       		.uleb128 0x3
 4196 0f0b 7D       		.byte	0x7d
 4197 0f0c 00       		.sleb128 0
 4198 0f0d 06       		.byte	0x6
 4199 0f0e 20       		.uleb128 0x20
 4200 0f0f 01       		.uleb128 0x1
 4201 0f10 52       		.byte	0x52
 4202 0f11 03       		.uleb128 0x3
 4203 0f12 91       		.byte	0x91
 4204 0f13 5C       		.sleb128 -36
 4205 0f14 06       		.byte	0x6
 4206 0f15 20       		.uleb128 0x20
 4207 0f16 01       		.uleb128 0x1
 4208 0f17 53       		.byte	0x53
 4209 0f18 01       		.uleb128 0x1
 4210 0f19 30       		.byte	0x30
 4211 0f1a 00       		.byte	0
 4212 0f1b 00       		.byte	0
 4213 0f1c 1F       		.uleb128 0x1f
 4214 0f1d 3C000000 		.4byte	.LVL24
 4215 0f21 BB1E0000 		.4byte	0x1ebb
 4216 0f25 20       		.uleb128 0x20
ARM GAS  C:\Users\haske\AppData\Local\Temp\cc5ISl1k.s 			page 90


 4217 0f26 01       		.uleb128 0x1
 4218 0f27 50       		.byte	0x50
 4219 0f28 03       		.uleb128 0x3
 4220 0f29 7D       		.byte	0x7d
 4221 0f2a 00       		.sleb128 0
 4222 0f2b 06       		.byte	0x6
 4223 0f2c 20       		.uleb128 0x20
 4224 0f2d 01       		.uleb128 0x1
 4225 0f2e 52       		.byte	0x52
 4226 0f2f 01       		.uleb128 0x1
 4227 0f30 30       		.byte	0x30
 4228 0f31 00       		.byte	0
 4229 0f32 00       		.byte	0
 4230 0f33 00       		.byte	0
 4231 0f34 1F       		.uleb128 0x1f
 4232 0f35 20000000 		.4byte	.LVL22
 4233 0f39 A51E0000 		.4byte	0x1ea5
 4234 0f3d 20       		.uleb128 0x20
 4235 0f3e 01       		.uleb128 0x1
 4236 0f3f 50       		.byte	0x50
 4237 0f40 03       		.uleb128 0x3
 4238 0f41 7D       		.byte	0x7d
 4239 0f42 00       		.sleb128 0
 4240 0f43 06       		.byte	0x6
 4241 0f44 20       		.uleb128 0x20
 4242 0f45 01       		.uleb128 0x1
 4243 0f46 51       		.byte	0x51
 4244 0f47 02       		.uleb128 0x2
 4245 0f48 79       		.byte	0x79
 4246 0f49 00       		.sleb128 0
 4247 0f4a 20       		.uleb128 0x20
 4248 0f4b 01       		.uleb128 0x1
 4249 0f4c 53       		.byte	0x53
 4250 0f4d 01       		.uleb128 0x1
 4251 0f4e 30       		.byte	0x30
 4252 0f4f 00       		.byte	0
 4253 0f50 00       		.byte	0
 4254 0f51 06       		.uleb128 0x6
 4255 0f52 04       		.byte	0x4
 4256 0f53 700A0000 		.4byte	0xa70
 4257 0f57 06       		.uleb128 0x6
 4258 0f58 04       		.byte	0x4
 4259 0f59 610C0000 		.4byte	0xc61
 4260 0f5d 06       		.uleb128 0x6
 4261 0f5e 04       		.byte	0x4
 4262 0f5f EB080000 		.4byte	0x8eb
 4263 0f63 17       		.uleb128 0x17
 4264 0f64 FA0E0000 		.4byte	.LASF259
 4265 0f68 01       		.byte	0x1
 4266 0f69 E1       		.byte	0xe1
 4267 0f6a 9F000000 		.4byte	0x9f
 4268 0f6e 00000000 		.4byte	.LFB207
 4269 0f72 54000000 		.4byte	.LFE207-.LFB207
 4270 0f76 01       		.uleb128 0x1
 4271 0f77 9C       		.byte	0x9c
 4272 0f78 48100000 		.4byte	0x1048
 4273 0f7c 1A       		.uleb128 0x1a
ARM GAS  C:\Users\haske\AppData\Local\Temp\cc5ISl1k.s 			page 91


 4274 0f7d 667000   		.ascii	"fp\000"
 4275 0f80 01       		.byte	0x1
 4276 0f81 E1       		.byte	0xe1
 4277 0f82 B70A0000 		.4byte	0xab7
 4278 0f86 FE020000 		.4byte	.LLST20
 4279 0f8a 1B       		.uleb128 0x1b
 4280 0f8b 050D0000 		.4byte	.LASF170
 4281 0f8f 01       		.byte	0x1
 4282 0f90 E1       		.byte	0xe1
 4283 0f91 9F000000 		.4byte	0x9f
 4284 0f95 2A030000 		.4byte	.LLST21
 4285 0f99 1B       		.uleb128 0x1b
 4286 0f9a E8120000 		.4byte	.LASF260
 4287 0f9e 01       		.byte	0x1
 4288 0f9f E1       		.byte	0xe1
 4289 0fa0 0C010000 		.4byte	0x10c
 4290 0fa4 4B030000 		.4byte	.LLST22
 4291 0fa8 21       		.uleb128 0x21
 4292 0fa9 360F0000 		.4byte	.LASF261
 4293 0fad 01       		.byte	0x1
 4294 0fae E5       		.byte	0xe5
 4295 0faf E4000000 		.4byte	0xe4
 4296 0fb3 02       		.uleb128 0x2
 4297 0fb4 91       		.byte	0x91
 4298 0fb5 6C       		.sleb128 -20
 4299 0fb6 19       		.uleb128 0x19
 4300 0fb7 62756600 		.ascii	"buf\000"
 4301 0fbb 01       		.byte	0x1
 4302 0fbc E6       		.byte	0xe6
 4303 0fbd 7B0A0000 		.4byte	0xa7b
 4304 0fc1 02       		.uleb128 0x2
 4305 0fc2 91       		.byte	0x91
 4306 0fc3 68       		.sleb128 -24
 4307 0fc4 24       		.uleb128 0x24
 4308 0fc5 0E000000 		.4byte	.LVL59
 4309 0fc9 BB1E0000 		.4byte	0x1ebb
 4310 0fcd E40F0000 		.4byte	0xfe4
 4311 0fd1 20       		.uleb128 0x20
 4312 0fd2 01       		.uleb128 0x1
 4313 0fd3 50       		.byte	0x50
 4314 0fd4 02       		.uleb128 0x2
 4315 0fd5 74       		.byte	0x74
 4316 0fd6 00       		.sleb128 0
 4317 0fd7 20       		.uleb128 0x20
 4318 0fd8 01       		.uleb128 0x1
 4319 0fd9 51       		.byte	0x51
 4320 0fda 03       		.uleb128 0x3
 4321 0fdb F3       		.byte	0xf3
 4322 0fdc 01       		.uleb128 0x1
 4323 0fdd 51       		.byte	0x51
 4324 0fde 20       		.uleb128 0x20
 4325 0fdf 01       		.uleb128 0x1
 4326 0fe0 52       		.byte	0x52
 4327 0fe1 01       		.uleb128 0x1
 4328 0fe2 30       		.byte	0x30
 4329 0fe3 00       		.byte	0
 4330 0fe4 24       		.uleb128 0x24
ARM GAS  C:\Users\haske\AppData\Local\Temp\cc5ISl1k.s 			page 92


 4331 0fe5 1A000000 		.4byte	.LVL60
 4332 0fe9 A51E0000 		.4byte	0x1ea5
 4333 0fed 08100000 		.4byte	0x1008
 4334 0ff1 20       		.uleb128 0x20
 4335 0ff2 01       		.uleb128 0x1
 4336 0ff3 50       		.byte	0x50
 4337 0ff4 02       		.uleb128 0x2
 4338 0ff5 74       		.byte	0x74
 4339 0ff6 00       		.sleb128 0
 4340 0ff7 20       		.uleb128 0x20
 4341 0ff8 01       		.uleb128 0x1
 4342 0ff9 51       		.byte	0x51
 4343 0ffa 02       		.uleb128 0x2
 4344 0ffb 91       		.byte	0x91
 4345 0ffc 6C       		.sleb128 -20
 4346 0ffd 20       		.uleb128 0x20
 4347 0ffe 01       		.uleb128 0x1
 4348 0fff 52       		.byte	0x52
 4349 1000 01       		.uleb128 0x1
 4350 1001 34       		.byte	0x34
 4351 1002 20       		.uleb128 0x20
 4352 1003 01       		.uleb128 0x1
 4353 1004 53       		.byte	0x53
 4354 1005 01       		.uleb128 0x1
 4355 1006 30       		.byte	0x30
 4356 1007 00       		.byte	0
 4357 1008 24       		.uleb128 0x24
 4358 1009 2A000000 		.4byte	.LVL61
 4359 100d A51E0000 		.4byte	0x1ea5
 4360 1011 2C100000 		.4byte	0x102c
 4361 1015 20       		.uleb128 0x20
 4362 1016 01       		.uleb128 0x1
 4363 1017 50       		.byte	0x50
 4364 1018 02       		.uleb128 0x2
 4365 1019 74       		.byte	0x74
 4366 101a 00       		.sleb128 0
 4367 101b 20       		.uleb128 0x20
 4368 101c 01       		.uleb128 0x1
 4369 101d 51       		.byte	0x51
 4370 101e 02       		.uleb128 0x2
 4371 101f 7D       		.byte	0x7d
 4372 1020 00       		.sleb128 0
 4373 1021 20       		.uleb128 0x20
 4374 1022 01       		.uleb128 0x1
 4375 1023 52       		.byte	0x52
 4376 1024 01       		.uleb128 0x1
 4377 1025 34       		.byte	0x34
 4378 1026 20       		.uleb128 0x20
 4379 1027 01       		.uleb128 0x1
 4380 1028 53       		.byte	0x53
 4381 1029 01       		.uleb128 0x1
 4382 102a 30       		.byte	0x30
 4383 102b 00       		.byte	0
 4384 102c 1F       		.uleb128 0x1f
 4385 102d 38000000 		.4byte	.LVL62
 4386 1031 C61E0000 		.4byte	0x1ec6
 4387 1035 20       		.uleb128 0x20
ARM GAS  C:\Users\haske\AppData\Local\Temp\cc5ISl1k.s 			page 93


 4388 1036 01       		.uleb128 0x1
 4389 1037 50       		.byte	0x50
 4390 1038 02       		.uleb128 0x2
 4391 1039 75       		.byte	0x75
 4392 103a 00       		.sleb128 0
 4393 103b 20       		.uleb128 0x20
 4394 103c 01       		.uleb128 0x1
 4395 103d 51       		.byte	0x51
 4396 103e 02       		.uleb128 0x2
 4397 103f 7D       		.byte	0x7d
 4398 1040 00       		.sleb128 0
 4399 1041 20       		.uleb128 0x20
 4400 1042 01       		.uleb128 0x1
 4401 1043 52       		.byte	0x52
 4402 1044 01       		.uleb128 0x1
 4403 1045 34       		.byte	0x34
 4404 1046 00       		.byte	0
 4405 1047 00       		.byte	0
 4406 1048 27       		.uleb128 0x27
 4407 1049 DA0C0000 		.4byte	.LASF262
 4408 104d 01       		.byte	0x1
 4409 104e 3501     		.2byte	0x135
 4410 1050 D9000000 		.4byte	0xd9
 4411 1054 00000000 		.4byte	.LFB209
 4412 1058 94000000 		.4byte	.LFE209-.LFB209
 4413 105c 01       		.uleb128 0x1
 4414 105d 9C       		.byte	0x9c
 4415 105e 8B110000 		.4byte	0x118b
 4416 1062 28       		.uleb128 0x28
 4417 1063 667000   		.ascii	"fp\000"
 4418 1066 01       		.byte	0x1
 4419 1067 3501     		.2byte	0x135
 4420 1069 B70A0000 		.4byte	0xab7
 4421 106d 77030000 		.4byte	.LLST23
 4422 1071 29       		.uleb128 0x29
 4423 1072 050F0000 		.4byte	.LASF253
 4424 1076 01       		.byte	0x1
 4425 1077 3501     		.2byte	0x135
 4426 1079 510F0000 		.4byte	0xf51
 4427 107d BC030000 		.4byte	.LLST24
 4428 1081 29       		.uleb128 0x29
 4429 1082 0C0C0000 		.4byte	.LASF254
 4430 1086 01       		.byte	0x1
 4431 1087 3501     		.2byte	0x135
 4432 1089 E4000000 		.4byte	0xe4
 4433 108d E8030000 		.4byte	.LLST25
 4434 1091 23       		.uleb128 0x23
 4435 1092 7D020000 		.4byte	.LASF263
 4436 1096 01       		.byte	0x1
 4437 1097 3701     		.2byte	0x137
 4438 1099 D9000000 		.4byte	0xd9
 4439 109d 12040000 		.4byte	.LLST26
 4440 10a1 2A       		.uleb128 0x2a
 4441 10a2 5D060000 		.4byte	.LASF264
 4442 10a6 01       		.byte	0x1
 4443 10a7 3C01     		.2byte	0x13c
 4444 10a9 E4000000 		.4byte	0xe4
ARM GAS  C:\Users\haske\AppData\Local\Temp\cc5ISl1k.s 			page 94


 4445 10ad 02       		.uleb128 0x2
 4446 10ae 91       		.byte	0x91
 4447 10af 64       		.sleb128 -28
 4448 10b0 23       		.uleb128 0x23
 4449 10b1 77030000 		.4byte	.LASF208
 4450 10b5 01       		.byte	0x1
 4451 10b6 4101     		.2byte	0x141
 4452 10b8 5D0F0000 		.4byte	0xf5d
 4453 10bc 46040000 		.4byte	.LLST27
 4454 10c0 23       		.uleb128 0x23
 4455 10c1 6A0A0000 		.4byte	.LASF265
 4456 10c5 01       		.byte	0x1
 4457 10c6 4901     		.2byte	0x149
 4458 10c8 570F0000 		.4byte	0xf57
 4459 10cc 64040000 		.4byte	.LLST28
 4460 10d0 23       		.uleb128 0x23
 4461 10d1 60100000 		.4byte	.LASF266
 4462 10d5 01       		.byte	0x1
 4463 10d6 4B01     		.2byte	0x14b
 4464 10d8 4D020000 		.4byte	0x24d
 4465 10dc 98040000 		.4byte	.LLST29
 4466 10e0 24       		.uleb128 0x24
 4467 10e1 14000000 		.4byte	.LVL68
 4468 10e5 630F0000 		.4byte	0xf63
 4469 10e9 04110000 		.4byte	0x1104
 4470 10ed 20       		.uleb128 0x20
 4471 10ee 01       		.uleb128 0x1
 4472 10ef 50       		.byte	0x50
 4473 10f0 02       		.uleb128 0x2
 4474 10f1 75       		.byte	0x75
 4475 10f2 00       		.sleb128 0
 4476 10f3 20       		.uleb128 0x20
 4477 10f4 01       		.uleb128 0x1
 4478 10f5 51       		.byte	0x51
 4479 10f6 03       		.uleb128 0x3
 4480 10f7 91       		.byte	0x91
 4481 10f8 5C       		.sleb128 -36
 4482 10f9 06       		.byte	0x6
 4483 10fa 20       		.uleb128 0x20
 4484 10fb 01       		.uleb128 0x1
 4485 10fc 52       		.byte	0x52
 4486 10fd 05       		.uleb128 0x5
 4487 10fe 03       		.byte	0x3
 4488 10ff 00000000 		.4byte	.LC0
 4489 1103 00       		.byte	0
 4490 1104 24       		.uleb128 0x24
 4491 1105 24000000 		.4byte	.LVL71
 4492 1109 A51E0000 		.4byte	0x1ea5
 4493 110d 28110000 		.4byte	0x1128
 4494 1111 20       		.uleb128 0x20
 4495 1112 01       		.uleb128 0x1
 4496 1113 50       		.byte	0x50
 4497 1114 02       		.uleb128 0x2
 4498 1115 75       		.byte	0x75
 4499 1116 00       		.sleb128 0
 4500 1117 20       		.uleb128 0x20
 4501 1118 01       		.uleb128 0x1
ARM GAS  C:\Users\haske\AppData\Local\Temp\cc5ISl1k.s 			page 95


 4502 1119 51       		.byte	0x51
 4503 111a 02       		.uleb128 0x2
 4504 111b 91       		.byte	0x91
 4505 111c 64       		.sleb128 -28
 4506 111d 20       		.uleb128 0x20
 4507 111e 01       		.uleb128 0x1
 4508 111f 52       		.byte	0x52
 4509 1120 01       		.uleb128 0x1
 4510 1121 34       		.byte	0x34
 4511 1122 20       		.uleb128 0x20
 4512 1123 01       		.uleb128 0x1
 4513 1124 53       		.byte	0x53
 4514 1125 01       		.uleb128 0x1
 4515 1126 30       		.byte	0x30
 4516 1127 00       		.byte	0
 4517 1128 26       		.uleb128 0x26
 4518 1129 34000000 		.4byte	.LVL72
 4519 112d B01E0000 		.4byte	0x1eb0
 4520 1131 24       		.uleb128 0x24
 4521 1132 44000000 		.4byte	.LVL74
 4522 1136 D11E0000 		.4byte	0x1ed1
 4523 113a 4A110000 		.4byte	0x114a
 4524 113e 20       		.uleb128 0x20
 4525 113f 01       		.uleb128 0x1
 4526 1140 50       		.byte	0x50
 4527 1141 02       		.uleb128 0x2
 4528 1142 77       		.byte	0x77
 4529 1143 00       		.sleb128 0
 4530 1144 20       		.uleb128 0x20
 4531 1145 01       		.uleb128 0x1
 4532 1146 51       		.byte	0x51
 4533 1147 01       		.uleb128 0x1
 4534 1148 30       		.byte	0x30
 4535 1149 00       		.byte	0
 4536 114a 26       		.uleb128 0x26
 4537 114b 5C000000 		.4byte	.LVL75
 4538 114f B01E0000 		.4byte	0x1eb0
 4539 1153 24       		.uleb128 0x24
 4540 1154 6A000000 		.4byte	.LVL78
 4541 1158 A00D0000 		.4byte	0xda0
 4542 115c 7A110000 		.4byte	0x117a
 4543 1160 20       		.uleb128 0x20
 4544 1161 01       		.uleb128 0x1
 4545 1162 50       		.byte	0x50
 4546 1163 02       		.uleb128 0x2
 4547 1164 75       		.byte	0x75
 4548 1165 00       		.sleb128 0
 4549 1166 20       		.uleb128 0x20
 4550 1167 01       		.uleb128 0x1
 4551 1168 51       		.byte	0x51
 4552 1169 02       		.uleb128 0x2
 4553 116a 76       		.byte	0x76
 4554 116b 00       		.sleb128 0
 4555 116c 20       		.uleb128 0x20
 4556 116d 01       		.uleb128 0x1
 4557 116e 52       		.byte	0x52
 4558 116f 03       		.uleb128 0x3
ARM GAS  C:\Users\haske\AppData\Local\Temp\cc5ISl1k.s 			page 96


 4559 1170 91       		.byte	0x91
 4560 1171 5C       		.sleb128 -36
 4561 1172 06       		.byte	0x6
 4562 1173 20       		.uleb128 0x20
 4563 1174 01       		.uleb128 0x1
 4564 1175 53       		.byte	0x53
 4565 1176 02       		.uleb128 0x2
 4566 1177 77       		.byte	0x77
 4567 1178 00       		.sleb128 0
 4568 1179 00       		.byte	0
 4569 117a 1F       		.uleb128 0x1f
 4570 117b 72000000 		.4byte	.LVL80
 4571 117f DA1E0000 		.4byte	0x1eda
 4572 1183 20       		.uleb128 0x20
 4573 1184 01       		.uleb128 0x1
 4574 1185 50       		.byte	0x50
 4575 1186 02       		.uleb128 0x2
 4576 1187 77       		.byte	0x77
 4577 1188 00       		.sleb128 0
 4578 1189 00       		.byte	0
 4579 118a 00       		.byte	0
 4580 118b 27       		.uleb128 0x27
 4581 118c 2E000000 		.4byte	.LASF267
 4582 1190 01       		.byte	0x1
 4583 1191 5201     		.2byte	0x152
 4584 1193 D9000000 		.4byte	0xd9
 4585 1197 00000000 		.4byte	.LFB210
 4586 119b 30030000 		.4byte	.LFE210-.LFB210
 4587 119f 01       		.uleb128 0x1
 4588 11a0 9C       		.byte	0x9c
 4589 11a1 1E150000 		.4byte	0x151e
 4590 11a5 28       		.uleb128 0x28
 4591 11a6 667000   		.ascii	"fp\000"
 4592 11a9 01       		.byte	0x1
 4593 11aa 5201     		.2byte	0x152
 4594 11ac B70A0000 		.4byte	0xab7
 4595 11b0 B6040000 		.4byte	.LLST30
 4596 11b4 29       		.uleb128 0x29
 4597 11b5 050F0000 		.4byte	.LASF253
 4598 11b9 01       		.byte	0x1
 4599 11ba 5201     		.2byte	0x152
 4600 11bc 510F0000 		.4byte	0xf51
 4601 11c0 FF040000 		.4byte	.LLST31
 4602 11c4 29       		.uleb128 0x29
 4603 11c5 050D0000 		.4byte	.LASF170
 4604 11c9 01       		.byte	0x1
 4605 11ca 5301     		.2byte	0x153
 4606 11cc E4000000 		.4byte	0xe4
 4607 11d0 44050000 		.4byte	.LLST32
 4608 11d4 29       		.uleb128 0x29
 4609 11d5 83010000 		.4byte	.LASF268
 4610 11d9 01       		.byte	0x1
 4611 11da 5301     		.2byte	0x153
 4612 11dc A2060000 		.4byte	0x6a2
 4613 11e0 98050000 		.4byte	.LLST33
 4614 11e4 2B       		.uleb128 0x2b
 4615 11e5 310A0000 		.4byte	.LASF269
ARM GAS  C:\Users\haske\AppData\Local\Temp\cc5ISl1k.s 			page 97


 4616 11e9 01       		.byte	0x1
 4617 11ea 5301     		.2byte	0x153
 4618 11ec E4000000 		.4byte	0xe4
 4619 11f0 02       		.uleb128 0x2
 4620 11f1 91       		.byte	0x91
 4621 11f2 00       		.sleb128 0
 4622 11f3 2B       		.uleb128 0x2b
 4623 11f4 9A090000 		.4byte	.LASF270
 4624 11f8 01       		.byte	0x1
 4625 11f9 5301     		.2byte	0x153
 4626 11fb 1E150000 		.4byte	0x151e
 4627 11ff 02       		.uleb128 0x2
 4628 1200 91       		.byte	0x91
 4629 1201 04       		.sleb128 4
 4630 1202 23       		.uleb128 0x23
 4631 1203 2E090000 		.4byte	.LASF271
 4632 1207 01       		.byte	0x1
 4633 1208 5501     		.2byte	0x155
 4634 120a D9000000 		.4byte	0xd9
 4635 120e E6050000 		.4byte	.LLST34
 4636 1212 23       		.uleb128 0x23
 4637 1213 5C140000 		.4byte	.LASF207
 4638 1217 01       		.byte	0x1
 4639 1218 5A01     		.2byte	0x15a
 4640 121a 24150000 		.4byte	0x1524
 4641 121e 1E060000 		.4byte	.LLST35
 4642 1222 23       		.uleb128 0x23
 4643 1223 4A020000 		.4byte	.LASF272
 4644 1227 01       		.byte	0x1
 4645 1228 6101     		.2byte	0x161
 4646 122a 9F000000 		.4byte	0x9f
 4647 122e 3C060000 		.4byte	.LLST36
 4648 1232 23       		.uleb128 0x23
 4649 1233 0E110000 		.4byte	.LASF273
 4650 1237 01       		.byte	0x1
 4651 1238 A101     		.2byte	0x1a1
 4652 123a C8040000 		.4byte	0x4c8
 4653 123e 72060000 		.4byte	.LLST37
 4654 1242 22       		.uleb128 0x22
 4655 1243 98000000 		.4byte	.Ldebug_ranges0+0x98
 4656 1247 73130000 		.4byte	0x1373
 4657 124b 25       		.uleb128 0x25
 4658 124c 6900     		.ascii	"i\000"
 4659 124e 01       		.byte	0x1
 4660 124f 6301     		.2byte	0x163
 4661 1251 A6000000 		.4byte	0xa6
 4662 1255 92060000 		.4byte	.LLST38
 4663 1259 1D       		.uleb128 0x1d
 4664 125a B0000000 		.4byte	.Ldebug_ranges0+0xb0
 4665 125e 23       		.uleb128 0x23
 4666 125f EC060000 		.4byte	.LASF274
 4667 1263 01       		.byte	0x1
 4668 1264 6401     		.2byte	0x164
 4669 1266 24150000 		.4byte	0x1524
 4670 126a B1060000 		.4byte	.LLST39
 4671 126e 2C       		.uleb128 0x2c
 4672 126f 72657300 		.ascii	"res\000"
ARM GAS  C:\Users\haske\AppData\Local\Temp\cc5ISl1k.s 			page 98


 4673 1273 01       		.byte	0x1
 4674 1274 6601     		.2byte	0x166
 4675 1276 29050000 		.4byte	0x529
 4676 127a 02       		.uleb128 0x2
 4677 127b 91       		.byte	0x91
 4678 127c 4F       		.sleb128 -49
 4679 127d 2A       		.uleb128 0x2a
 4680 127e EE110000 		.4byte	.LASF275
 4681 1282 01       		.byte	0x1
 4682 1283 6B01     		.2byte	0x16b
 4683 1285 BD0A0000 		.4byte	0xabd
 4684 1289 02       		.uleb128 0x2
 4685 128a 91       		.byte	0x91
 4686 128b 50       		.sleb128 -48
 4687 128c 23       		.uleb128 0x23
 4688 128d 610B0000 		.4byte	.LASF276
 4689 1291 01       		.byte	0x1
 4690 1292 8F01     		.2byte	0x18f
 4691 1294 9F000000 		.4byte	0x9f
 4692 1298 C4060000 		.4byte	.LLST40
 4693 129c 23       		.uleb128 0x23
 4694 129d 64020000 		.4byte	.LASF277
 4695 12a1 01       		.byte	0x1
 4696 12a2 9001     		.2byte	0x190
 4697 12a4 9F000000 		.4byte	0x9f
 4698 12a8 07070000 		.4byte	.LLST41
 4699 12ac 23       		.uleb128 0x23
 4700 12ad 1D0E0000 		.4byte	.LASF278
 4701 12b1 01       		.byte	0x1
 4702 12b2 9101     		.2byte	0x191
 4703 12b4 9F000000 		.4byte	0x9f
 4704 12b8 1A070000 		.4byte	.LLST42
 4705 12bc 24       		.uleb128 0x24
 4706 12bd 70000000 		.4byte	.LVL99
 4707 12c1 BB1E0000 		.4byte	0x1ebb
 4708 12c5 D7120000 		.4byte	0x12d7
 4709 12c9 20       		.uleb128 0x20
 4710 12ca 01       		.uleb128 0x1
 4711 12cb 50       		.byte	0x50
 4712 12cc 04       		.uleb128 0x4
 4713 12cd 91       		.byte	0x91
 4714 12ce AC7F     		.sleb128 -84
 4715 12d0 06       		.byte	0x6
 4716 12d1 20       		.uleb128 0x20
 4717 12d2 01       		.uleb128 0x1
 4718 12d3 52       		.byte	0x52
 4719 12d4 01       		.uleb128 0x1
 4720 12d5 30       		.byte	0x30
 4721 12d6 00       		.byte	0
 4722 12d7 24       		.uleb128 0x24
 4723 12d8 82000000 		.4byte	.LVL100
 4724 12dc 6C0C0000 		.4byte	0xc6c
 4725 12e0 F3120000 		.4byte	0x12f3
 4726 12e4 20       		.uleb128 0x20
 4727 12e5 01       		.uleb128 0x1
 4728 12e6 50       		.byte	0x50
 4729 12e7 02       		.uleb128 0x2
ARM GAS  C:\Users\haske\AppData\Local\Temp\cc5ISl1k.s 			page 99


 4730 12e8 91       		.byte	0x91
 4731 12e9 50       		.sleb128 -48
 4732 12ea 20       		.uleb128 0x20
 4733 12eb 01       		.uleb128 0x1
 4734 12ec 51       		.byte	0x51
 4735 12ed 04       		.uleb128 0x4
 4736 12ee 91       		.byte	0x91
 4737 12ef AC7F     		.sleb128 -84
 4738 12f1 06       		.byte	0x6
 4739 12f2 00       		.byte	0
 4740 12f3 24       		.uleb128 0x24
 4741 12f4 AC000000 		.4byte	.LVL101
 4742 12f8 9F0C0000 		.4byte	0xc9f
 4743 12fc 0D130000 		.4byte	0x130d
 4744 1300 20       		.uleb128 0x20
 4745 1301 01       		.uleb128 0x1
 4746 1302 50       		.byte	0x50
 4747 1303 02       		.uleb128 0x2
 4748 1304 91       		.byte	0x91
 4749 1305 50       		.sleb128 -48
 4750 1306 20       		.uleb128 0x20
 4751 1307 01       		.uleb128 0x1
 4752 1308 52       		.byte	0x52
 4753 1309 02       		.uleb128 0x2
 4754 130a 78       		.byte	0x78
 4755 130b 00       		.sleb128 0
 4756 130c 00       		.byte	0
 4757 130d 24       		.uleb128 0x24
 4758 130e EA000000 		.4byte	.LVL102
 4759 1312 2F0D0000 		.4byte	0xd2f
 4760 1316 27130000 		.4byte	0x1327
 4761 131a 20       		.uleb128 0x20
 4762 131b 01       		.uleb128 0x1
 4763 131c 50       		.byte	0x50
 4764 131d 02       		.uleb128 0x2
 4765 131e 91       		.byte	0x91
 4766 131f 50       		.sleb128 -48
 4767 1320 20       		.uleb128 0x20
 4768 1321 01       		.uleb128 0x1
 4769 1322 52       		.byte	0x52
 4770 1323 02       		.uleb128 0x2
 4771 1324 78       		.byte	0x78
 4772 1325 00       		.sleb128 0
 4773 1326 00       		.byte	0
 4774 1327 24       		.uleb128 0x24
 4775 1328 08010000 		.4byte	.LVL103
 4776 132c 2F0D0000 		.4byte	0xd2f
 4777 1330 41130000 		.4byte	0x1341
 4778 1334 20       		.uleb128 0x20
 4779 1335 01       		.uleb128 0x1
 4780 1336 50       		.byte	0x50
 4781 1337 02       		.uleb128 0x2
 4782 1338 91       		.byte	0x91
 4783 1339 50       		.sleb128 -48
 4784 133a 20       		.uleb128 0x20
 4785 133b 01       		.uleb128 0x1
 4786 133c 52       		.byte	0x52
ARM GAS  C:\Users\haske\AppData\Local\Temp\cc5ISl1k.s 			page 100


 4787 133d 02       		.uleb128 0x2
 4788 133e 78       		.byte	0x78
 4789 133f 00       		.sleb128 0
 4790 1340 00       		.byte	0
 4791 1341 24       		.uleb128 0x24
 4792 1342 26010000 		.4byte	.LVL104
 4793 1346 9F0C0000 		.4byte	0xc9f
 4794 134a 5B130000 		.4byte	0x135b
 4795 134e 20       		.uleb128 0x20
 4796 134f 01       		.uleb128 0x1
 4797 1350 50       		.byte	0x50
 4798 1351 02       		.uleb128 0x2
 4799 1352 91       		.byte	0x91
 4800 1353 50       		.sleb128 -48
 4801 1354 20       		.uleb128 0x20
 4802 1355 01       		.uleb128 0x1
 4803 1356 52       		.byte	0x52
 4804 1357 02       		.uleb128 0x2
 4805 1358 78       		.byte	0x78
 4806 1359 00       		.sleb128 0
 4807 135a 00       		.byte	0
 4808 135b 1F       		.uleb128 0x1f
 4809 135c 44010000 		.4byte	.LVL105
 4810 1360 9F0C0000 		.4byte	0xc9f
 4811 1364 20       		.uleb128 0x20
 4812 1365 01       		.uleb128 0x1
 4813 1366 50       		.byte	0x50
 4814 1367 02       		.uleb128 0x2
 4815 1368 91       		.byte	0x91
 4816 1369 50       		.sleb128 -48
 4817 136a 20       		.uleb128 0x20
 4818 136b 01       		.uleb128 0x1
 4819 136c 52       		.byte	0x52
 4820 136d 02       		.uleb128 0x2
 4821 136e 78       		.byte	0x78
 4822 136f 00       		.sleb128 0
 4823 1370 00       		.byte	0
 4824 1371 00       		.byte	0
 4825 1372 00       		.byte	0
 4826 1373 22       		.uleb128 0x22
 4827 1374 C8000000 		.4byte	.Ldebug_ranges0+0xc8
 4828 1378 B3140000 		.4byte	0x14b3
 4829 137c 25       		.uleb128 0x25
 4830 137d 6900     		.ascii	"i\000"
 4831 137f 01       		.byte	0x1
 4832 1380 A701     		.2byte	0x1a7
 4833 1382 A6000000 		.4byte	0xa6
 4834 1386 2D070000 		.4byte	.LLST43
 4835 138a 2D       		.uleb128 0x2d
 4836 138b E4010000 		.4byte	.LBB20
 4837 138f 22010000 		.4byte	.LBE20-.LBB20
 4838 1393 2C       		.uleb128 0x2c
 4839 1394 72657300 		.ascii	"res\000"
 4840 1398 01       		.byte	0x1
 4841 1399 A801     		.2byte	0x1a8
 4842 139b 29050000 		.4byte	0x529
 4843 139f 02       		.uleb128 0x2
ARM GAS  C:\Users\haske\AppData\Local\Temp\cc5ISl1k.s 			page 101


 4844 13a0 91       		.byte	0x91
 4845 13a1 4F       		.sleb128 -49
 4846 13a2 2A       		.uleb128 0x2a
 4847 13a3 EE110000 		.4byte	.LASF275
 4848 13a7 01       		.byte	0x1
 4849 13a8 AC01     		.2byte	0x1ac
 4850 13aa BD0A0000 		.4byte	0xabd
 4851 13ae 02       		.uleb128 0x2
 4852 13af 91       		.byte	0x91
 4853 13b0 50       		.sleb128 -48
 4854 13b1 23       		.uleb128 0x23
 4855 13b2 610B0000 		.4byte	.LASF276
 4856 13b6 01       		.byte	0x1
 4857 13b7 AE01     		.2byte	0x1ae
 4858 13b9 9F000000 		.4byte	0x9f
 4859 13bd 4C070000 		.4byte	.LLST44
 4860 13c1 23       		.uleb128 0x23
 4861 13c2 64020000 		.4byte	.LASF277
 4862 13c6 01       		.byte	0x1
 4863 13c7 B901     		.2byte	0x1b9
 4864 13c9 9F000000 		.4byte	0x9f
 4865 13cd 80070000 		.4byte	.LLST45
 4866 13d1 23       		.uleb128 0x23
 4867 13d2 1D0E0000 		.4byte	.LASF278
 4868 13d6 01       		.byte	0x1
 4869 13d7 BA01     		.2byte	0x1ba
 4870 13d9 9F000000 		.4byte	0x9f
 4871 13dd 93070000 		.4byte	.LLST46
 4872 13e1 22       		.uleb128 0x22
 4873 13e2 E8000000 		.4byte	.Ldebug_ranges0+0xe8
 4874 13e6 14140000 		.4byte	0x1414
 4875 13ea 25       		.uleb128 0x25
 4876 13eb 6B00     		.ascii	"k\000"
 4877 13ed 01       		.byte	0x1
 4878 13ee C201     		.2byte	0x1c2
 4879 13f0 9F000000 		.4byte	0x9f
 4880 13f4 DE070000 		.4byte	.LLST47
 4881 13f8 1F       		.uleb128 0x1f
 4882 13f9 A6020000 		.4byte	.LVL131
 4883 13fd 9F0C0000 		.4byte	0xc9f
 4884 1401 20       		.uleb128 0x20
 4885 1402 01       		.uleb128 0x1
 4886 1403 50       		.byte	0x50
 4887 1404 02       		.uleb128 0x2
 4888 1405 91       		.byte	0x91
 4889 1406 50       		.sleb128 -48
 4890 1407 20       		.uleb128 0x20
 4891 1408 01       		.uleb128 0x1
 4892 1409 51       		.byte	0x51
 4893 140a 01       		.uleb128 0x1
 4894 140b 38       		.byte	0x38
 4895 140c 20       		.uleb128 0x20
 4896 140d 01       		.uleb128 0x1
 4897 140e 52       		.byte	0x52
 4898 140f 02       		.uleb128 0x2
 4899 1410 77       		.byte	0x77
 4900 1411 00       		.sleb128 0
ARM GAS  C:\Users\haske\AppData\Local\Temp\cc5ISl1k.s 			page 102


 4901 1412 00       		.byte	0
 4902 1413 00       		.byte	0
 4903 1414 24       		.uleb128 0x24
 4904 1415 02020000 		.4byte	.LVL121
 4905 1419 BB1E0000 		.4byte	0x1ebb
 4906 141d 2D140000 		.4byte	0x142d
 4907 1421 20       		.uleb128 0x20
 4908 1422 01       		.uleb128 0x1
 4909 1423 50       		.byte	0x50
 4910 1424 02       		.uleb128 0x2
 4911 1425 74       		.byte	0x74
 4912 1426 00       		.sleb128 0
 4913 1427 20       		.uleb128 0x20
 4914 1428 01       		.uleb128 0x1
 4915 1429 52       		.byte	0x52
 4916 142a 01       		.uleb128 0x1
 4917 142b 30       		.byte	0x30
 4918 142c 00       		.byte	0
 4919 142d 24       		.uleb128 0x24
 4920 142e 12020000 		.4byte	.LVL122
 4921 1432 6C0C0000 		.4byte	0xc6c
 4922 1436 47140000 		.4byte	0x1447
 4923 143a 20       		.uleb128 0x20
 4924 143b 01       		.uleb128 0x1
 4925 143c 50       		.byte	0x50
 4926 143d 02       		.uleb128 0x2
 4927 143e 91       		.byte	0x91
 4928 143f 50       		.sleb128 -48
 4929 1440 20       		.uleb128 0x20
 4930 1441 01       		.uleb128 0x1
 4931 1442 51       		.byte	0x51
 4932 1443 02       		.uleb128 0x2
 4933 1444 74       		.byte	0x74
 4934 1445 00       		.sleb128 0
 4935 1446 00       		.byte	0
 4936 1447 24       		.uleb128 0x24
 4937 1448 32020000 		.4byte	.LVL124
 4938 144c 9F0C0000 		.4byte	0xc9f
 4939 1450 67140000 		.4byte	0x1467
 4940 1454 20       		.uleb128 0x20
 4941 1455 01       		.uleb128 0x1
 4942 1456 50       		.byte	0x50
 4943 1457 02       		.uleb128 0x2
 4944 1458 91       		.byte	0x91
 4945 1459 50       		.sleb128 -48
 4946 145a 20       		.uleb128 0x20
 4947 145b 01       		.uleb128 0x1
 4948 145c 51       		.byte	0x51
 4949 145d 02       		.uleb128 0x2
 4950 145e 74       		.byte	0x74
 4951 145f 00       		.sleb128 0
 4952 1460 20       		.uleb128 0x20
 4953 1461 01       		.uleb128 0x1
 4954 1462 52       		.byte	0x52
 4955 1463 02       		.uleb128 0x2
 4956 1464 76       		.byte	0x76
 4957 1465 00       		.sleb128 0
ARM GAS  C:\Users\haske\AppData\Local\Temp\cc5ISl1k.s 			page 103


 4958 1466 00       		.byte	0
 4959 1467 24       		.uleb128 0x24
 4960 1468 88020000 		.4byte	.LVL129
 4961 146c A51E0000 		.4byte	0x1ea5
 4962 1470 93140000 		.4byte	0x1493
 4963 1474 20       		.uleb128 0x20
 4964 1475 01       		.uleb128 0x1
 4965 1476 50       		.byte	0x50
 4966 1477 04       		.uleb128 0x4
 4967 1478 91       		.byte	0x91
 4968 1479 AC7F     		.sleb128 -84
 4969 147b 06       		.byte	0x6
 4970 147c 20       		.uleb128 0x20
 4971 147d 01       		.uleb128 0x1
 4972 147e 51       		.byte	0x51
 4973 147f 07       		.uleb128 0x7
 4974 1480 91       		.byte	0x91
 4975 1481 BC7F     		.sleb128 -68
 4976 1483 06       		.byte	0x6
 4977 1484 7A       		.byte	0x7a
 4978 1485 00       		.sleb128 0
 4979 1486 22       		.byte	0x22
 4980 1487 20       		.uleb128 0x20
 4981 1488 01       		.uleb128 0x1
 4982 1489 52       		.byte	0x52
 4983 148a 02       		.uleb128 0x2
 4984 148b 79       		.byte	0x79
 4985 148c 00       		.sleb128 0
 4986 148d 20       		.uleb128 0x20
 4987 148e 01       		.uleb128 0x1
 4988 148f 53       		.byte	0x53
 4989 1490 01       		.uleb128 0x1
 4990 1491 30       		.byte	0x30
 4991 1492 00       		.byte	0
 4992 1493 1F       		.uleb128 0x1f
 4993 1494 EA020000 		.4byte	.LVL137
 4994 1498 9F0C0000 		.4byte	0xc9f
 4995 149c 20       		.uleb128 0x20
 4996 149d 01       		.uleb128 0x1
 4997 149e 50       		.byte	0x50
 4998 149f 02       		.uleb128 0x2
 4999 14a0 91       		.byte	0x91
 5000 14a1 50       		.sleb128 -48
 5001 14a2 20       		.uleb128 0x20
 5002 14a3 01       		.uleb128 0x1
 5003 14a4 51       		.byte	0x51
 5004 14a5 04       		.uleb128 0x4
 5005 14a6 38       		.byte	0x38
 5006 14a7 74       		.byte	0x74
 5007 14a8 00       		.sleb128 0
 5008 14a9 1C       		.byte	0x1c
 5009 14aa 20       		.uleb128 0x20
 5010 14ab 01       		.uleb128 0x1
 5011 14ac 52       		.byte	0x52
 5012 14ad 02       		.uleb128 0x2
 5013 14ae 76       		.byte	0x76
 5014 14af 00       		.sleb128 0
ARM GAS  C:\Users\haske\AppData\Local\Temp\cc5ISl1k.s 			page 104


 5015 14b0 00       		.byte	0
 5016 14b1 00       		.byte	0
 5017 14b2 00       		.byte	0
 5018 14b3 24       		.uleb128 0x24
 5019 14b4 20000000 		.4byte	.LVL90
 5020 14b8 630F0000 		.4byte	0xf63
 5021 14bc DA140000 		.4byte	0x14da
 5022 14c0 20       		.uleb128 0x20
 5023 14c1 01       		.uleb128 0x1
 5024 14c2 50       		.byte	0x50
 5025 14c3 04       		.uleb128 0x4
 5026 14c4 91       		.byte	0x91
 5027 14c5 AC7F     		.sleb128 -84
 5028 14c7 06       		.byte	0x6
 5029 14c8 20       		.uleb128 0x20
 5030 14c9 01       		.uleb128 0x1
 5031 14ca 51       		.byte	0x51
 5032 14cb 04       		.uleb128 0x4
 5033 14cc 91       		.byte	0x91
 5034 14cd B07F     		.sleb128 -80
 5035 14cf 06       		.byte	0x6
 5036 14d0 20       		.uleb128 0x20
 5037 14d1 01       		.uleb128 0x1
 5038 14d2 52       		.byte	0x52
 5039 14d3 05       		.uleb128 0x5
 5040 14d4 03       		.byte	0x3
 5041 14d5 08000000 		.4byte	.LC2
 5042 14d9 00       		.byte	0
 5043 14da 24       		.uleb128 0x24
 5044 14db 32000000 		.4byte	.LVL93
 5045 14df B01E0000 		.4byte	0x1eb0
 5046 14e3 EE140000 		.4byte	0x14ee
 5047 14e7 20       		.uleb128 0x20
 5048 14e8 01       		.uleb128 0x1
 5049 14e9 50       		.byte	0x50
 5050 14ea 02       		.uleb128 0x2
 5051 14eb 76       		.byte	0x76
 5052 14ec 00       		.sleb128 0
 5053 14ed 00       		.byte	0
 5054 14ee 24       		.uleb128 0x24
 5055 14ef 3E000000 		.4byte	.LVL95
 5056 14f3 D11E0000 		.4byte	0x1ed1
 5057 14f7 0D150000 		.4byte	0x150d
 5058 14fb 20       		.uleb128 0x20
 5059 14fc 01       		.uleb128 0x1
 5060 14fd 50       		.byte	0x50
 5061 14fe 02       		.uleb128 0x2
 5062 14ff 75       		.byte	0x75
 5063 1500 00       		.sleb128 0
 5064 1501 20       		.uleb128 0x20
 5065 1502 01       		.uleb128 0x1
 5066 1503 51       		.byte	0x51
 5067 1504 01       		.uleb128 0x1
 5068 1505 30       		.byte	0x30
 5069 1506 20       		.uleb128 0x20
 5070 1507 01       		.uleb128 0x1
 5071 1508 52       		.byte	0x52
ARM GAS  C:\Users\haske\AppData\Local\Temp\cc5ISl1k.s 			page 105


 5072 1509 02       		.uleb128 0x2
 5073 150a 76       		.byte	0x76
 5074 150b 00       		.sleb128 0
 5075 150c 00       		.byte	0
 5076 150d 1F       		.uleb128 0x1f
 5077 150e CE010000 		.4byte	.LVL116
 5078 1512 B01E0000 		.4byte	0x1eb0
 5079 1516 20       		.uleb128 0x20
 5080 1517 01       		.uleb128 0x1
 5081 1518 50       		.byte	0x50
 5082 1519 02       		.uleb128 0x2
 5083 151a 7A       		.byte	0x7a
 5084 151b 00       		.sleb128 0
 5085 151c 00       		.byte	0
 5086 151d 00       		.byte	0
 5087 151e 06       		.uleb128 0x6
 5088 151f 04       		.byte	0x4
 5089 1520 F50B0000 		.4byte	0xbf5
 5090 1524 06       		.uleb128 0x6
 5091 1525 04       		.byte	0x4
 5092 1526 48080000 		.4byte	0x848
 5093 152a 2E       		.uleb128 0x2e
 5094 152b 03150000 		.4byte	.LASF331
 5095 152f 01       		.byte	0x1
 5096 1530 75       		.byte	0x75
 5097 1531 00000000 		.4byte	.LFB203
 5098 1535 C4000000 		.4byte	.LFE203-.LFB203
 5099 1539 01       		.uleb128 0x1
 5100 153a 9C       		.byte	0x9c
 5101 153b 7B160000 		.4byte	0x167b
 5102 153f 1B       		.uleb128 0x1b
 5103 1540 09110000 		.4byte	.LASF279
 5104 1544 01       		.byte	0x1
 5105 1545 75       		.byte	0x75
 5106 1546 7B160000 		.4byte	0x167b
 5107 154a FC070000 		.4byte	.LLST48
 5108 154e 2D       		.uleb128 0x2d
 5109 154f 0C000000 		.4byte	.LBB25
 5110 1553 B2000000 		.4byte	.LBE25-.LBB25
 5111 1557 1E       		.uleb128 0x1e
 5112 1558 64736300 		.ascii	"dsc\000"
 5113 155c 01       		.byte	0x1
 5114 155d 78       		.byte	0x78
 5115 155e 510F0000 		.4byte	0xf51
 5116 1562 3E080000 		.4byte	.LLST49
 5117 1566 2F       		.uleb128 0x2f
 5118 1567 12000000 		.4byte	.LBB26
 5119 156b A6000000 		.4byte	.LBE26-.LBB26
 5120 156f 69160000 		.4byte	0x1669
 5121 1573 1C       		.uleb128 0x1c
 5122 1574 77030000 		.4byte	.LASF208
 5123 1578 01       		.byte	0x1
 5124 1579 9C       		.byte	0x9c
 5125 157a 5D0F0000 		.4byte	0xf5d
 5126 157e 51080000 		.4byte	.LLST50
 5127 1582 2F       		.uleb128 0x2f
 5128 1583 18000000 		.4byte	.LBB27
ARM GAS  C:\Users\haske\AppData\Local\Temp\cc5ISl1k.s 			page 106


 5129 1587 22000000 		.4byte	.LBE27-.LBB27
 5130 158b C1150000 		.4byte	0x15c1
 5131 158f 1C       		.uleb128 0x1c
 5132 1590 AA090000 		.4byte	.LASF209
 5133 1594 01       		.byte	0x1
 5134 1595 7D       		.byte	0x7d
 5135 1596 81160000 		.4byte	0x1681
 5136 159a 64080000 		.4byte	.LLST51
 5137 159e 26       		.uleb128 0x26
 5138 159f 28000000 		.4byte	.LVL149
 5139 15a3 DA1E0000 		.4byte	0x1eda
 5140 15a7 26       		.uleb128 0x26
 5141 15a8 32000000 		.4byte	.LVL150
 5142 15ac DA1E0000 		.4byte	0x1eda
 5143 15b0 1F       		.uleb128 0x1f
 5144 15b1 38000000 		.4byte	.LVL151
 5145 15b5 DA1E0000 		.4byte	0x1eda
 5146 15b9 20       		.uleb128 0x20
 5147 15ba 01       		.uleb128 0x1
 5148 15bb 50       		.byte	0x50
 5149 15bc 02       		.uleb128 0x2
 5150 15bd 74       		.byte	0x74
 5151 15be 00       		.sleb128 0
 5152 15bf 00       		.byte	0
 5153 15c0 00       		.byte	0
 5154 15c1 2F       		.uleb128 0x2f
 5155 15c2 3A000000 		.4byte	.LBB28
 5156 15c6 2A000000 		.4byte	.LBE28-.LBB28
 5157 15ca 09160000 		.4byte	0x1609
 5158 15ce 1C       		.uleb128 0x1c
 5159 15cf AA090000 		.4byte	.LASF209
 5160 15d3 01       		.byte	0x1
 5161 15d4 8B       		.byte	0x8b
 5162 15d5 87160000 		.4byte	0x1687
 5163 15d9 77080000 		.4byte	.LLST52
 5164 15dd 26       		.uleb128 0x26
 5165 15de 4A000000 		.4byte	.LVL155
 5166 15e2 DA1E0000 		.4byte	0x1eda
 5167 15e6 26       		.uleb128 0x26
 5168 15e7 54000000 		.4byte	.LVL156
 5169 15eb DA1E0000 		.4byte	0x1eda
 5170 15ef 26       		.uleb128 0x26
 5171 15f0 5E000000 		.4byte	.LVL157
 5172 15f4 DA1E0000 		.4byte	0x1eda
 5173 15f8 1F       		.uleb128 0x1f
 5174 15f9 64000000 		.4byte	.LVL158
 5175 15fd DA1E0000 		.4byte	0x1eda
 5176 1601 20       		.uleb128 0x20
 5177 1602 01       		.uleb128 0x1
 5178 1603 50       		.byte	0x50
 5179 1604 02       		.uleb128 0x2
 5180 1605 74       		.byte	0x74
 5181 1606 00       		.sleb128 0
 5182 1607 00       		.byte	0
 5183 1608 00       		.byte	0
 5184 1609 22       		.uleb128 0x22
 5185 160a 00010000 		.4byte	.Ldebug_ranges0+0x100
ARM GAS  C:\Users\haske\AppData\Local\Temp\cc5ISl1k.s 			page 107


 5186 160e 32160000 		.4byte	0x1632
 5187 1612 1E       		.uleb128 0x1e
 5188 1613 6900     		.ascii	"i\000"
 5189 1615 01       		.byte	0x1
 5190 1616 A0       		.byte	0xa0
 5191 1617 9F000000 		.4byte	0x9f
 5192 161b 8A080000 		.4byte	.LLST53
 5193 161f 26       		.uleb128 0x26
 5194 1620 7E000000 		.4byte	.LVL161
 5195 1624 DA1E0000 		.4byte	0x1eda
 5196 1628 26       		.uleb128 0x26
 5197 1629 88000000 		.4byte	.LVL162
 5198 162d DA1E0000 		.4byte	0x1eda
 5199 1631 00       		.byte	0
 5200 1632 24       		.uleb128 0x24
 5201 1633 9E000000 		.4byte	.LVL166
 5202 1637 DA1E0000 		.4byte	0x1eda
 5203 163b 46160000 		.4byte	0x1646
 5204 163f 20       		.uleb128 0x20
 5205 1640 01       		.uleb128 0x1
 5206 1641 50       		.byte	0x50
 5207 1642 02       		.uleb128 0x2
 5208 1643 77       		.byte	0x77
 5209 1644 00       		.sleb128 0
 5210 1645 00       		.byte	0
 5211 1646 26       		.uleb128 0x26
 5212 1647 A8000000 		.4byte	.LVL167
 5213 164b DA1E0000 		.4byte	0x1eda
 5214 164f 26       		.uleb128 0x26
 5215 1650 B2000000 		.4byte	.LVL168
 5216 1654 DA1E0000 		.4byte	0x1eda
 5217 1658 1F       		.uleb128 0x1f
 5218 1659 B8000000 		.4byte	.LVL169
 5219 165d DA1E0000 		.4byte	0x1eda
 5220 1661 20       		.uleb128 0x20
 5221 1662 01       		.uleb128 0x1
 5222 1663 50       		.byte	0x50
 5223 1664 02       		.uleb128 0x2
 5224 1665 76       		.byte	0x76
 5225 1666 00       		.sleb128 0
 5226 1667 00       		.byte	0
 5227 1668 00       		.byte	0
 5228 1669 1F       		.uleb128 0x1f
 5229 166a BE000000 		.4byte	.LVL170
 5230 166e DA1E0000 		.4byte	0x1eda
 5231 1672 20       		.uleb128 0x20
 5232 1673 01       		.uleb128 0x1
 5233 1674 50       		.byte	0x50
 5234 1675 02       		.uleb128 0x2
 5235 1676 78       		.byte	0x78
 5236 1677 00       		.sleb128 0
 5237 1678 00       		.byte	0
 5238 1679 00       		.byte	0
 5239 167a 00       		.byte	0
 5240 167b 06       		.uleb128 0x6
 5241 167c 04       		.byte	0x4
 5242 167d 8C020000 		.4byte	0x28c
ARM GAS  C:\Users\haske\AppData\Local\Temp\cc5ISl1k.s 			page 108


 5243 1681 06       		.uleb128 0x6
 5244 1682 04       		.byte	0x4
 5245 1683 40090000 		.4byte	0x940
 5246 1687 06       		.uleb128 0x6
 5247 1688 04       		.byte	0x4
 5248 1689 90090000 		.4byte	0x990
 5249 168d 30       		.uleb128 0x30
 5250 168e C2050000 		.4byte	.LASF301
 5251 1692 01       		.byte	0x1
 5252 1693 4B02     		.2byte	0x24b
 5253 1695 D9000000 		.4byte	0xd9
 5254 1699 00000000 		.4byte	.LFB212
 5255 169d D0010000 		.4byte	.LFE212-.LFB212
 5256 16a1 01       		.uleb128 0x1
 5257 16a2 9C       		.byte	0x9c
 5258 16a3 2D1A0000 		.4byte	0x1a2d
 5259 16a7 28       		.uleb128 0x28
 5260 16a8 667000   		.ascii	"fp\000"
 5261 16ab 01       		.byte	0x1
 5262 16ac 4B02     		.2byte	0x24b
 5263 16ae B70A0000 		.4byte	0xab7
 5264 16b2 A8080000 		.4byte	.LLST54
 5265 16b6 29       		.uleb128 0x29
 5266 16b7 050F0000 		.4byte	.LASF253
 5267 16bb 01       		.byte	0x1
 5268 16bc 4B02     		.2byte	0x24b
 5269 16be 510F0000 		.4byte	0xf51
 5270 16c2 1E090000 		.4byte	.LLST55
 5271 16c6 29       		.uleb128 0x29
 5272 16c7 02010000 		.4byte	.LASF280
 5273 16cb 01       		.byte	0x1
 5274 16cc 4B02     		.2byte	0x24b
 5275 16ce B8000000 		.4byte	0xb8
 5276 16d2 95090000 		.4byte	.LLST56
 5277 16d6 29       		.uleb128 0x29
 5278 16d7 050D0000 		.4byte	.LASF170
 5279 16db 01       		.byte	0x1
 5280 16dc 4B02     		.2byte	0x24b
 5281 16de E4000000 		.4byte	0xe4
 5282 16e2 B6090000 		.4byte	.LLST57
 5283 16e6 23       		.uleb128 0x23
 5284 16e7 F6000000 		.4byte	.LASF281
 5285 16eb 01       		.byte	0x1
 5286 16ec 4D02     		.2byte	0x24d
 5287 16ee D9000000 		.4byte	0xd9
 5288 16f2 D7090000 		.4byte	.LLST58
 5289 16f6 2A       		.uleb128 0x2a
 5290 16f7 51110000 		.4byte	.LASF282
 5291 16fb 01       		.byte	0x1
 5292 16fc 5202     		.2byte	0x252
 5293 16fe B8000000 		.4byte	0xb8
 5294 1702 02       		.uleb128 0x2
 5295 1703 91       		.byte	0x91
 5296 1704 67       		.sleb128 -25
 5297 1705 2A       		.uleb128 0x2a
 5298 1706 CA0A0000 		.4byte	.LASF240
 5299 170a 01       		.byte	0x1
ARM GAS  C:\Users\haske\AppData\Local\Temp\cc5ISl1k.s 			page 109


 5300 170b 5302     		.2byte	0x253
 5301 170d D9000000 		.4byte	0xd9
 5302 1711 02       		.uleb128 0x2
 5303 1712 91       		.byte	0x91
 5304 1713 60       		.sleb128 -32
 5305 1714 22       		.uleb128 0x22
 5306 1715 18010000 		.4byte	.Ldebug_ranges0+0x118
 5307 1719 17180000 		.4byte	0x1817
 5308 171d 23       		.uleb128 0x23
 5309 171e 29080000 		.4byte	.LASF283
 5310 1722 01       		.byte	0x1
 5311 1723 5A02     		.2byte	0x25a
 5312 1725 81160000 		.4byte	0x1681
 5313 1729 0B0A0000 		.4byte	.LLST59
 5314 172d 2A       		.uleb128 0x2a
 5315 172e EC0E0000 		.4byte	.LASF284
 5316 1732 01       		.byte	0x1
 5317 1733 6102     		.2byte	0x261
 5318 1735 E4000000 		.4byte	0xe4
 5319 1739 02       		.uleb128 0x2
 5320 173a 91       		.byte	0x91
 5321 173b 5C       		.sleb128 -36
 5322 173c 23       		.uleb128 0x23
 5323 173d 1D150000 		.4byte	.LASF257
 5324 1741 01       		.byte	0x1
 5325 1742 6602     		.2byte	0x266
 5326 1744 9F000000 		.4byte	0x9f
 5327 1748 290A0000 		.4byte	.LLST60
 5328 174c 23       		.uleb128 0x23
 5329 174d B5140000 		.4byte	.LASF192
 5330 1751 01       		.byte	0x1
 5331 1752 6E02     		.2byte	0x26e
 5332 1754 C8040000 		.4byte	0x4c8
 5333 1758 470A0000 		.4byte	.LLST61
 5334 175c 23       		.uleb128 0x23
 5335 175d 0B0D0000 		.4byte	.LASF193
 5336 1761 01       		.byte	0x1
 5337 1762 6F02     		.2byte	0x26f
 5338 1764 2D1A0000 		.4byte	0x1a2d
 5339 1768 660A0000 		.4byte	.LLST62
 5340 176c 26       		.uleb128 0x26
 5341 176d 58000000 		.4byte	.LVL180
 5342 1771 B01E0000 		.4byte	0x1eb0
 5343 1775 24       		.uleb128 0x24
 5344 1776 62000000 		.4byte	.LVL182
 5345 177a D11E0000 		.4byte	0x1ed1
 5346 177e 93170000 		.4byte	0x1793
 5347 1782 20       		.uleb128 0x20
 5348 1783 01       		.uleb128 0x1
 5349 1784 50       		.byte	0x50
 5350 1785 02       		.uleb128 0x2
 5351 1786 74       		.byte	0x74
 5352 1787 00       		.sleb128 0
 5353 1788 20       		.uleb128 0x20
 5354 1789 01       		.uleb128 0x1
 5355 178a 51       		.byte	0x51
 5356 178b 01       		.uleb128 0x1
ARM GAS  C:\Users\haske\AppData\Local\Temp\cc5ISl1k.s 			page 110


 5357 178c 30       		.byte	0x30
 5358 178d 20       		.uleb128 0x20
 5359 178e 01       		.uleb128 0x1
 5360 178f 52       		.byte	0x52
 5361 1790 01       		.uleb128 0x1
 5362 1791 3C       		.byte	0x3c
 5363 1792 00       		.byte	0
 5364 1793 24       		.uleb128 0x24
 5365 1794 78000000 		.4byte	.LVL184
 5366 1798 A51E0000 		.4byte	0x1ea5
 5367 179c B8170000 		.4byte	0x17b8
 5368 17a0 20       		.uleb128 0x20
 5369 17a1 01       		.uleb128 0x1
 5370 17a2 50       		.byte	0x50
 5371 17a3 03       		.uleb128 0x3
 5372 17a4 7D       		.byte	0x7d
 5373 17a5 00       		.sleb128 0
 5374 17a6 06       		.byte	0x6
 5375 17a7 20       		.uleb128 0x20
 5376 17a8 01       		.uleb128 0x1
 5377 17a9 51       		.byte	0x51
 5378 17aa 02       		.uleb128 0x2
 5379 17ab 91       		.byte	0x91
 5380 17ac 5C       		.sleb128 -36
 5381 17ad 20       		.uleb128 0x20
 5382 17ae 01       		.uleb128 0x1
 5383 17af 52       		.byte	0x52
 5384 17b0 01       		.uleb128 0x1
 5385 17b1 34       		.byte	0x34
 5386 17b2 20       		.uleb128 0x20
 5387 17b3 01       		.uleb128 0x1
 5388 17b4 53       		.byte	0x53
 5389 17b5 01       		.uleb128 0x1
 5390 17b6 30       		.byte	0x30
 5391 17b7 00       		.byte	0
 5392 17b8 24       		.uleb128 0x24
 5393 17b9 90000000 		.4byte	.LVL188
 5394 17bd B01E0000 		.4byte	0x1eb0
 5395 17c1 CC170000 		.4byte	0x17cc
 5396 17c5 20       		.uleb128 0x20
 5397 17c6 01       		.uleb128 0x1
 5398 17c7 50       		.byte	0x50
 5399 17c8 02       		.uleb128 0x2
 5400 17c9 77       		.byte	0x77
 5401 17ca 00       		.sleb128 0
 5402 17cb 00       		.byte	0
 5403 17cc 26       		.uleb128 0x26
 5404 17cd 98000000 		.4byte	.LVL191
 5405 17d1 B01E0000 		.4byte	0x1eb0
 5406 17d5 24       		.uleb128 0x24
 5407 17d6 C8000000 		.4byte	.LVL195
 5408 17da A51E0000 		.4byte	0x1ea5
 5409 17de FB170000 		.4byte	0x17fb
 5410 17e2 20       		.uleb128 0x20
 5411 17e3 01       		.uleb128 0x1
 5412 17e4 50       		.byte	0x50
 5413 17e5 02       		.uleb128 0x2
ARM GAS  C:\Users\haske\AppData\Local\Temp\cc5ISl1k.s 			page 111


 5414 17e6 74       		.byte	0x74
 5415 17e7 00       		.sleb128 0
 5416 17e8 20       		.uleb128 0x20
 5417 17e9 01       		.uleb128 0x1
 5418 17ea 51       		.byte	0x51
 5419 17eb 03       		.uleb128 0x3
 5420 17ec 91       		.byte	0x91
 5421 17ed 4C       		.sleb128 -52
 5422 17ee 06       		.byte	0x6
 5423 17ef 20       		.uleb128 0x20
 5424 17f0 01       		.uleb128 0x1
 5425 17f1 52       		.byte	0x52
 5426 17f2 02       		.uleb128 0x2
 5427 17f3 77       		.byte	0x77
 5428 17f4 00       		.sleb128 0
 5429 17f5 20       		.uleb128 0x20
 5430 17f6 01       		.uleb128 0x1
 5431 17f7 53       		.byte	0x53
 5432 17f8 01       		.uleb128 0x1
 5433 17f9 30       		.byte	0x30
 5434 17fa 00       		.byte	0
 5435 17fb 1F       		.uleb128 0x1f
 5436 17fc D8000000 		.4byte	.LVL196
 5437 1800 A51E0000 		.4byte	0x1ea5
 5438 1804 20       		.uleb128 0x20
 5439 1805 01       		.uleb128 0x1
 5440 1806 50       		.byte	0x50
 5441 1807 02       		.uleb128 0x2
 5442 1808 74       		.byte	0x74
 5443 1809 00       		.sleb128 0
 5444 180a 20       		.uleb128 0x20
 5445 180b 01       		.uleb128 0x1
 5446 180c 51       		.byte	0x51
 5447 180d 02       		.uleb128 0x2
 5448 180e 76       		.byte	0x76
 5449 180f 00       		.sleb128 0
 5450 1810 20       		.uleb128 0x20
 5451 1811 01       		.uleb128 0x1
 5452 1812 53       		.byte	0x53
 5453 1813 01       		.uleb128 0x1
 5454 1814 30       		.byte	0x30
 5455 1815 00       		.byte	0
 5456 1816 00       		.byte	0
 5457 1817 22       		.uleb128 0x22
 5458 1818 30010000 		.4byte	.Ldebug_ranges0+0x130
 5459 181c C4190000 		.4byte	0x19c4
 5460 1820 23       		.uleb128 0x23
 5461 1821 19120000 		.4byte	.LASF212
 5462 1825 01       		.byte	0x1
 5463 1826 8002     		.2byte	0x280
 5464 1828 87160000 		.4byte	0x1687
 5465 182c 840A0000 		.4byte	.LLST63
 5466 1830 2A       		.uleb128 0x2a
 5467 1831 0B0B0000 		.4byte	.LASF285
 5468 1835 01       		.byte	0x1
 5469 1836 8702     		.2byte	0x287
 5470 1838 CE000000 		.4byte	0xce
ARM GAS  C:\Users\haske\AppData\Local\Temp\cc5ISl1k.s 			page 112


 5471 183c 02       		.uleb128 0x2
 5472 183d 91       		.byte	0x91
 5473 183e 5C       		.sleb128 -36
 5474 183f 2A       		.uleb128 0x2a
 5475 1840 62040000 		.4byte	.LASF286
 5476 1844 01       		.byte	0x1
 5477 1845 8802     		.2byte	0x288
 5478 1847 B8000000 		.4byte	0xb8
 5479 184b 02       		.uleb128 0x2
 5480 184c 91       		.byte	0x91
 5481 184d 5A       		.sleb128 -38
 5482 184e 2A       		.uleb128 0x2a
 5483 184f B00E0000 		.4byte	.LASF287
 5484 1853 01       		.byte	0x1
 5485 1854 8902     		.2byte	0x289
 5486 1856 B8000000 		.4byte	0xb8
 5487 185a 02       		.uleb128 0x2
 5488 185b 91       		.byte	0x91
 5489 185c 5B       		.sleb128 -37
 5490 185d 23       		.uleb128 0x23
 5491 185e 730B0000 		.4byte	.LASF288
 5492 1862 01       		.byte	0x1
 5493 1863 9102     		.2byte	0x291
 5494 1865 9F000000 		.4byte	0x9f
 5495 1869 A20A0000 		.4byte	.LLST64
 5496 186d 23       		.uleb128 0x23
 5497 186e 1C060000 		.4byte	.LASF289
 5498 1872 01       		.byte	0x1
 5499 1873 9302     		.2byte	0x293
 5500 1875 C8040000 		.4byte	0x4c8
 5501 1879 C10A0000 		.4byte	.LLST65
 5502 187d 23       		.uleb128 0x23
 5503 187e 8D0A0000 		.4byte	.LASF290
 5504 1882 01       		.byte	0x1
 5505 1883 9402     		.2byte	0x294
 5506 1885 C8040000 		.4byte	0x4c8
 5507 1889 E00A0000 		.4byte	.LLST66
 5508 188d 23       		.uleb128 0x23
 5509 188e E5130000 		.4byte	.LASF291
 5510 1892 01       		.byte	0x1
 5511 1893 9502     		.2byte	0x295
 5512 1895 2D1A0000 		.4byte	0x1a2d
 5513 1899 FF0A0000 		.4byte	.LLST67
 5514 189d 24       		.uleb128 0x24
 5515 189e F0000000 		.4byte	.LVL199
 5516 18a2 B01E0000 		.4byte	0x1eb0
 5517 18a6 B0180000 		.4byte	0x18b0
 5518 18aa 20       		.uleb128 0x20
 5519 18ab 01       		.uleb128 0x1
 5520 18ac 50       		.byte	0x50
 5521 18ad 01       		.uleb128 0x1
 5522 18ae 40       		.byte	0x40
 5523 18af 00       		.byte	0
 5524 18b0 24       		.uleb128 0x24
 5525 18b1 FA000000 		.4byte	.LVL201
 5526 18b5 D11E0000 		.4byte	0x1ed1
 5527 18b9 CE180000 		.4byte	0x18ce
ARM GAS  C:\Users\haske\AppData\Local\Temp\cc5ISl1k.s 			page 113


 5528 18bd 20       		.uleb128 0x20
 5529 18be 01       		.uleb128 0x1
 5530 18bf 50       		.byte	0x50
 5531 18c0 02       		.uleb128 0x2
 5532 18c1 74       		.byte	0x74
 5533 18c2 00       		.sleb128 0
 5534 18c3 20       		.uleb128 0x20
 5535 18c4 01       		.uleb128 0x1
 5536 18c5 51       		.byte	0x51
 5537 18c6 01       		.uleb128 0x1
 5538 18c7 30       		.byte	0x30
 5539 18c8 20       		.uleb128 0x20
 5540 18c9 01       		.uleb128 0x1
 5541 18ca 52       		.byte	0x52
 5542 18cb 01       		.uleb128 0x1
 5543 18cc 40       		.byte	0x40
 5544 18cd 00       		.byte	0
 5545 18ce 24       		.uleb128 0x24
 5546 18cf 12010000 		.4byte	.LVL203
 5547 18d3 A51E0000 		.4byte	0x1ea5
 5548 18d7 F2180000 		.4byte	0x18f2
 5549 18db 20       		.uleb128 0x20
 5550 18dc 01       		.uleb128 0x1
 5551 18dd 50       		.byte	0x50
 5552 18de 02       		.uleb128 0x2
 5553 18df 76       		.byte	0x76
 5554 18e0 00       		.sleb128 0
 5555 18e1 20       		.uleb128 0x20
 5556 18e2 01       		.uleb128 0x1
 5557 18e3 51       		.byte	0x51
 5558 18e4 02       		.uleb128 0x2
 5559 18e5 91       		.byte	0x91
 5560 18e6 5C       		.sleb128 -36
 5561 18e7 20       		.uleb128 0x20
 5562 18e8 01       		.uleb128 0x1
 5563 18e9 52       		.byte	0x52
 5564 18ea 01       		.uleb128 0x1
 5565 18eb 32       		.byte	0x32
 5566 18ec 20       		.uleb128 0x20
 5567 18ed 01       		.uleb128 0x1
 5568 18ee 53       		.byte	0x53
 5569 18ef 01       		.uleb128 0x1
 5570 18f0 30       		.byte	0x30
 5571 18f1 00       		.byte	0
 5572 18f2 24       		.uleb128 0x24
 5573 18f3 24010000 		.4byte	.LVL204
 5574 18f7 A51E0000 		.4byte	0x1ea5
 5575 18fb 16190000 		.4byte	0x1916
 5576 18ff 20       		.uleb128 0x20
 5577 1900 01       		.uleb128 0x1
 5578 1901 50       		.byte	0x50
 5579 1902 02       		.uleb128 0x2
 5580 1903 76       		.byte	0x76
 5581 1904 00       		.sleb128 0
 5582 1905 20       		.uleb128 0x20
 5583 1906 01       		.uleb128 0x1
 5584 1907 51       		.byte	0x51
ARM GAS  C:\Users\haske\AppData\Local\Temp\cc5ISl1k.s 			page 114


 5585 1908 02       		.uleb128 0x2
 5586 1909 91       		.byte	0x91
 5587 190a 5A       		.sleb128 -38
 5588 190b 20       		.uleb128 0x20
 5589 190c 01       		.uleb128 0x1
 5590 190d 52       		.byte	0x52
 5591 190e 01       		.uleb128 0x1
 5592 190f 31       		.byte	0x31
 5593 1910 20       		.uleb128 0x20
 5594 1911 01       		.uleb128 0x1
 5595 1912 53       		.byte	0x53
 5596 1913 01       		.uleb128 0x1
 5597 1914 30       		.byte	0x30
 5598 1915 00       		.byte	0
 5599 1916 24       		.uleb128 0x24
 5600 1917 38010000 		.4byte	.LVL205
 5601 191b A51E0000 		.4byte	0x1ea5
 5602 191f 3A190000 		.4byte	0x193a
 5603 1923 20       		.uleb128 0x20
 5604 1924 01       		.uleb128 0x1
 5605 1925 50       		.byte	0x50
 5606 1926 02       		.uleb128 0x2
 5607 1927 76       		.byte	0x76
 5608 1928 00       		.sleb128 0
 5609 1929 20       		.uleb128 0x20
 5610 192a 01       		.uleb128 0x1
 5611 192b 51       		.byte	0x51
 5612 192c 02       		.uleb128 0x2
 5613 192d 91       		.byte	0x91
 5614 192e 5B       		.sleb128 -37
 5615 192f 20       		.uleb128 0x20
 5616 1930 01       		.uleb128 0x1
 5617 1931 52       		.byte	0x52
 5618 1932 01       		.uleb128 0x1
 5619 1933 31       		.byte	0x31
 5620 1934 20       		.uleb128 0x20
 5621 1935 01       		.uleb128 0x1
 5622 1936 53       		.byte	0x53
 5623 1937 01       		.uleb128 0x1
 5624 1938 30       		.byte	0x30
 5625 1939 00       		.byte	0
 5626 193a 26       		.uleb128 0x26
 5627 193b 50010000 		.4byte	.LVL208
 5628 193f B01E0000 		.4byte	0x1eb0
 5629 1943 26       		.uleb128 0x26
 5630 1944 58010000 		.4byte	.LVL211
 5631 1948 B01E0000 		.4byte	0x1eb0
 5632 194c 24       		.uleb128 0x24
 5633 194d 60010000 		.4byte	.LVL214
 5634 1951 B01E0000 		.4byte	0x1eb0
 5635 1955 61190000 		.4byte	0x1961
 5636 1959 20       		.uleb128 0x20
 5637 195a 01       		.uleb128 0x1
 5638 195b 50       		.byte	0x50
 5639 195c 03       		.uleb128 0x3
 5640 195d 91       		.byte	0x91
 5641 195e 50       		.sleb128 -48
ARM GAS  C:\Users\haske\AppData\Local\Temp\cc5ISl1k.s 			page 115


 5642 195f 06       		.byte	0x6
 5643 1960 00       		.byte	0
 5644 1961 24       		.uleb128 0x24
 5645 1962 82010000 		.4byte	.LVL217
 5646 1966 A51E0000 		.4byte	0x1ea5
 5647 196a 81190000 		.4byte	0x1981
 5648 196e 20       		.uleb128 0x20
 5649 196f 01       		.uleb128 0x1
 5650 1970 50       		.byte	0x50
 5651 1971 02       		.uleb128 0x2
 5652 1972 74       		.byte	0x74
 5653 1973 00       		.sleb128 0
 5654 1974 20       		.uleb128 0x20
 5655 1975 01       		.uleb128 0x1
 5656 1976 51       		.byte	0x51
 5657 1977 03       		.uleb128 0x3
 5658 1978 91       		.byte	0x91
 5659 1979 54       		.sleb128 -44
 5660 197a 06       		.byte	0x6
 5661 197b 20       		.uleb128 0x20
 5662 197c 01       		.uleb128 0x1
 5663 197d 53       		.byte	0x53
 5664 197e 01       		.uleb128 0x1
 5665 197f 30       		.byte	0x30
 5666 1980 00       		.byte	0
 5667 1981 24       		.uleb128 0x24
 5668 1982 94010000 		.4byte	.LVL218
 5669 1986 A51E0000 		.4byte	0x1ea5
 5670 198a A1190000 		.4byte	0x19a1
 5671 198e 20       		.uleb128 0x20
 5672 198f 01       		.uleb128 0x1
 5673 1990 50       		.byte	0x50
 5674 1991 02       		.uleb128 0x2
 5675 1992 74       		.byte	0x74
 5676 1993 00       		.sleb128 0
 5677 1994 20       		.uleb128 0x20
 5678 1995 01       		.uleb128 0x1
 5679 1996 51       		.byte	0x51
 5680 1997 03       		.uleb128 0x3
 5681 1998 91       		.byte	0x91
 5682 1999 4C       		.sleb128 -52
 5683 199a 06       		.byte	0x6
 5684 199b 20       		.uleb128 0x20
 5685 199c 01       		.uleb128 0x1
 5686 199d 53       		.byte	0x53
 5687 199e 01       		.uleb128 0x1
 5688 199f 30       		.byte	0x30
 5689 19a0 00       		.byte	0
 5690 19a1 1F       		.uleb128 0x1f
 5691 19a2 A4010000 		.4byte	.LVL219
 5692 19a6 A51E0000 		.4byte	0x1ea5
 5693 19aa 20       		.uleb128 0x20
 5694 19ab 01       		.uleb128 0x1
 5695 19ac 50       		.byte	0x50
 5696 19ad 02       		.uleb128 0x2
 5697 19ae 74       		.byte	0x74
 5698 19af 00       		.sleb128 0
ARM GAS  C:\Users\haske\AppData\Local\Temp\cc5ISl1k.s 			page 116


 5699 19b0 20       		.uleb128 0x20
 5700 19b1 01       		.uleb128 0x1
 5701 19b2 51       		.byte	0x51
 5702 19b3 02       		.uleb128 0x2
 5703 19b4 77       		.byte	0x77
 5704 19b5 00       		.sleb128 0
 5705 19b6 20       		.uleb128 0x20
 5706 19b7 01       		.uleb128 0x1
 5707 19b8 52       		.byte	0x52
 5708 19b9 03       		.uleb128 0x3
 5709 19ba 91       		.byte	0x91
 5710 19bb 50       		.sleb128 -48
 5711 19bc 06       		.byte	0x6
 5712 19bd 20       		.uleb128 0x20
 5713 19be 01       		.uleb128 0x1
 5714 19bf 53       		.byte	0x53
 5715 19c0 01       		.uleb128 0x1
 5716 19c1 30       		.byte	0x30
 5717 19c2 00       		.byte	0
 5718 19c3 00       		.byte	0
 5719 19c4 24       		.uleb128 0x24
 5720 19c5 14000000 		.4byte	.LVL175
 5721 19c9 630F0000 		.4byte	0xf63
 5722 19cd E8190000 		.4byte	0x19e8
 5723 19d1 20       		.uleb128 0x20
 5724 19d2 01       		.uleb128 0x1
 5725 19d3 50       		.byte	0x50
 5726 19d4 02       		.uleb128 0x2
 5727 19d5 74       		.byte	0x74
 5728 19d6 00       		.sleb128 0
 5729 19d7 20       		.uleb128 0x20
 5730 19d8 01       		.uleb128 0x1
 5731 19d9 51       		.byte	0x51
 5732 19da 03       		.uleb128 0x3
 5733 19db F3       		.byte	0xf3
 5734 19dc 01       		.uleb128 0x1
 5735 19dd 53       		.byte	0x53
 5736 19de 20       		.uleb128 0x20
 5737 19df 01       		.uleb128 0x1
 5738 19e0 52       		.byte	0x52
 5739 19e1 05       		.uleb128 0x5
 5740 19e2 03       		.byte	0x3
 5741 19e3 10000000 		.4byte	.LC4
 5742 19e7 00       		.byte	0
 5743 19e8 24       		.uleb128 0x24
 5744 19e9 2C000000 		.4byte	.LVL178
 5745 19ed A51E0000 		.4byte	0x1ea5
 5746 19f1 0C1A0000 		.4byte	0x1a0c
 5747 19f5 20       		.uleb128 0x20
 5748 19f6 01       		.uleb128 0x1
 5749 19f7 50       		.byte	0x50
 5750 19f8 02       		.uleb128 0x2
 5751 19f9 74       		.byte	0x74
 5752 19fa 00       		.sleb128 0
 5753 19fb 20       		.uleb128 0x20
 5754 19fc 01       		.uleb128 0x1
 5755 19fd 51       		.byte	0x51
ARM GAS  C:\Users\haske\AppData\Local\Temp\cc5ISl1k.s 			page 117


 5756 19fe 02       		.uleb128 0x2
 5757 19ff 91       		.byte	0x91
 5758 1a00 67       		.sleb128 -25
 5759 1a01 20       		.uleb128 0x20
 5760 1a02 01       		.uleb128 0x1
 5761 1a03 52       		.byte	0x52
 5762 1a04 01       		.uleb128 0x1
 5763 1a05 31       		.byte	0x31
 5764 1a06 20       		.uleb128 0x20
 5765 1a07 01       		.uleb128 0x1
 5766 1a08 53       		.byte	0x53
 5767 1a09 01       		.uleb128 0x1
 5768 1a0a 30       		.byte	0x30
 5769 1a0b 00       		.byte	0
 5770 1a0c 1F       		.uleb128 0x1f
 5771 1a0d 3E000000 		.4byte	.LVL179
 5772 1a11 A51E0000 		.4byte	0x1ea5
 5773 1a15 20       		.uleb128 0x20
 5774 1a16 01       		.uleb128 0x1
 5775 1a17 50       		.byte	0x50
 5776 1a18 02       		.uleb128 0x2
 5777 1a19 74       		.byte	0x74
 5778 1a1a 00       		.sleb128 0
 5779 1a1b 20       		.uleb128 0x20
 5780 1a1c 01       		.uleb128 0x1
 5781 1a1d 51       		.byte	0x51
 5782 1a1e 02       		.uleb128 0x2
 5783 1a1f 91       		.byte	0x91
 5784 1a20 60       		.sleb128 -32
 5785 1a21 20       		.uleb128 0x20
 5786 1a22 01       		.uleb128 0x1
 5787 1a23 52       		.byte	0x52
 5788 1a24 01       		.uleb128 0x1
 5789 1a25 33       		.byte	0x33
 5790 1a26 20       		.uleb128 0x20
 5791 1a27 01       		.uleb128 0x1
 5792 1a28 53       		.byte	0x53
 5793 1a29 01       		.uleb128 0x1
 5794 1a2a 30       		.byte	0x30
 5795 1a2b 00       		.byte	0
 5796 1a2c 00       		.byte	0
 5797 1a2d 06       		.uleb128 0x6
 5798 1a2e 04       		.byte	0x4
 5799 1a2f AD000000 		.4byte	0xad
 5800 1a33 27       		.uleb128 0x27
 5801 1a34 510F0000 		.4byte	.LASF292
 5802 1a38 01       		.byte	0x1
 5803 1a39 E301     		.2byte	0x1e3
 5804 1a3b 4D020000 		.4byte	0x24d
 5805 1a3f 00000000 		.4byte	.LFB211
 5806 1a43 C4010000 		.4byte	.LFE211-.LFB211
 5807 1a47 01       		.uleb128 0x1
 5808 1a48 9C       		.byte	0x9c
 5809 1a49 1B1D0000 		.4byte	0x1d1b
 5810 1a4d 28       		.uleb128 0x28
 5811 1a4e 667000   		.ascii	"fp\000"
 5812 1a51 01       		.byte	0x1
ARM GAS  C:\Users\haske\AppData\Local\Temp\cc5ISl1k.s 			page 118


 5813 1a52 E301     		.2byte	0x1e3
 5814 1a54 B70A0000 		.4byte	0xab7
 5815 1a58 1D0B0000 		.4byte	.LLST68
 5816 1a5c 29       		.uleb128 0x29
 5817 1a5d 09110000 		.4byte	.LASF279
 5818 1a61 01       		.byte	0x1
 5819 1a62 E301     		.2byte	0x1e3
 5820 1a64 7B160000 		.4byte	0x167b
 5821 1a68 490B0000 		.4byte	.LLST69
 5822 1a6c 23       		.uleb128 0x23
 5823 1a6d 050F0000 		.4byte	.LASF253
 5824 1a71 01       		.byte	0x1
 5825 1a72 E501     		.2byte	0x1e5
 5826 1a74 510F0000 		.4byte	0xf51
 5827 1a78 C00B0000 		.4byte	.LLST70
 5828 1a7c 23       		.uleb128 0x23
 5829 1a7d D2090000 		.4byte	.LASF293
 5830 1a81 01       		.byte	0x1
 5831 1a82 ED01     		.2byte	0x1ed
 5832 1a84 D9000000 		.4byte	0xd9
 5833 1a88 DE0B0000 		.4byte	.LLST71
 5834 1a8c 2A       		.uleb128 0x2a
 5835 1a8d 72040000 		.4byte	.LASF294
 5836 1a91 01       		.byte	0x1
 5837 1a92 F201     		.2byte	0x1f2
 5838 1a94 F50B0000 		.4byte	0xbf5
 5839 1a98 03       		.uleb128 0x3
 5840 1a99 91       		.byte	0x91
 5841 1a9a B87F     		.sleb128 -72
 5842 1a9c 23       		.uleb128 0x23
 5843 1a9d 0C0C0000 		.4byte	.LASF254
 5844 1aa1 01       		.byte	0x1
 5845 1aa2 0402     		.2byte	0x204
 5846 1aa4 E4000000 		.4byte	0xe4
 5847 1aa8 120C0000 		.4byte	.LLST72
 5848 1aac 23       		.uleb128 0x23
 5849 1aad 7D020000 		.4byte	.LASF263
 5850 1ab1 01       		.byte	0x1
 5851 1ab2 0502     		.2byte	0x205
 5852 1ab4 D9000000 		.4byte	0xd9
 5853 1ab8 300C0000 		.4byte	.LLST73
 5854 1abc 23       		.uleb128 0x23
 5855 1abd A3020000 		.4byte	.LASF295
 5856 1ac1 01       		.byte	0x1
 5857 1ac2 0B02     		.2byte	0x20b
 5858 1ac4 E4000000 		.4byte	0xe4
 5859 1ac8 4E0C0000 		.4byte	.LLST74
 5860 1acc 23       		.uleb128 0x23
 5861 1acd 670B0000 		.4byte	.LASF296
 5862 1ad1 01       		.byte	0x1
 5863 1ad2 0C02     		.2byte	0x20c
 5864 1ad4 D9000000 		.4byte	0xd9
 5865 1ad8 6C0C0000 		.4byte	.LLST75
 5866 1adc 2A       		.uleb128 0x2a
 5867 1add 310A0000 		.4byte	.LASF269
 5868 1ae1 01       		.byte	0x1
 5869 1ae2 1102     		.2byte	0x211
ARM GAS  C:\Users\haske\AppData\Local\Temp\cc5ISl1k.s 			page 119


 5870 1ae4 E4000000 		.4byte	0xe4
 5871 1ae8 03       		.uleb128 0x3
 5872 1ae9 91       		.byte	0x91
 5873 1aea B47F     		.sleb128 -76
 5874 1aec 23       		.uleb128 0x23
 5875 1aed FE0C0000 		.4byte	.LASF297
 5876 1af1 01       		.byte	0x1
 5877 1af2 1602     		.2byte	0x216
 5878 1af4 4D020000 		.4byte	0x24d
 5879 1af8 A00C0000 		.4byte	.LLST76
 5880 1afc 23       		.uleb128 0x23
 5881 1afd 83010000 		.4byte	.LASF268
 5882 1b01 01       		.byte	0x1
 5883 1b02 1702     		.2byte	0x217
 5884 1b04 A2060000 		.4byte	0x6a2
 5885 1b08 E20C0000 		.4byte	.LLST77
 5886 1b0c 23       		.uleb128 0x23
 5887 1b0d 61090000 		.4byte	.LASF298
 5888 1b11 01       		.byte	0x1
 5889 1b12 3302     		.2byte	0x233
 5890 1b14 E4000000 		.4byte	0xe4
 5891 1b18 4D0D0000 		.4byte	.LLST78
 5892 1b1c 23       		.uleb128 0x23
 5893 1b1d 2E090000 		.4byte	.LASF271
 5894 1b21 01       		.byte	0x1
 5895 1b22 3402     		.2byte	0x234
 5896 1b24 D9000000 		.4byte	0xd9
 5897 1b28 6B0D0000 		.4byte	.LLST79
 5898 1b2c 23       		.uleb128 0x23
 5899 1b2d B1100000 		.4byte	.LASF299
 5900 1b31 01       		.byte	0x1
 5901 1b32 4402     		.2byte	0x244
 5902 1b34 E4000000 		.4byte	0xe4
 5903 1b38 940D0000 		.4byte	.LLST80
 5904 1b3c 23       		.uleb128 0x23
 5905 1b3d F6000000 		.4byte	.LASF281
 5906 1b41 01       		.byte	0x1
 5907 1b42 4602     		.2byte	0x246
 5908 1b44 D9000000 		.4byte	0xd9
 5909 1b48 A70D0000 		.4byte	.LLST81
 5910 1b4c 22       		.uleb128 0x22
 5911 1b4d 48010000 		.4byte	.Ldebug_ranges0+0x148
 5912 1b51 9F1B0000 		.4byte	0x1b9f
 5913 1b55 25       		.uleb128 0x25
 5914 1b56 6900     		.ascii	"i\000"
 5915 1b58 01       		.byte	0x1
 5916 1b59 1A02     		.2byte	0x21a
 5917 1b5b A6000000 		.4byte	0xa6
 5918 1b5f C80D0000 		.4byte	.LLST82
 5919 1b63 2D       		.uleb128 0x2d
 5920 1b64 E2000000 		.4byte	.LBB36
 5921 1b68 22000000 		.4byte	.LBE36-.LBB36
 5922 1b6c 2A       		.uleb128 0x2a
 5923 1b6d 3C070000 		.4byte	.LASF300
 5924 1b71 01       		.byte	0x1
 5925 1b72 1B02     		.2byte	0x21b
 5926 1b74 CE000000 		.4byte	0xce
ARM GAS  C:\Users\haske\AppData\Local\Temp\cc5ISl1k.s 			page 120


 5927 1b78 03       		.uleb128 0x3
 5928 1b79 91       		.byte	0x91
 5929 1b7a B27F     		.sleb128 -78
 5930 1b7c 1F       		.uleb128 0x1f
 5931 1b7d F0000000 		.4byte	.LVL246
 5932 1b81 A51E0000 		.4byte	0x1ea5
 5933 1b85 20       		.uleb128 0x20
 5934 1b86 01       		.uleb128 0x1
 5935 1b87 50       		.byte	0x50
 5936 1b88 02       		.uleb128 0x2
 5937 1b89 76       		.byte	0x76
 5938 1b8a 00       		.sleb128 0
 5939 1b8b 20       		.uleb128 0x20
 5940 1b8c 01       		.uleb128 0x1
 5941 1b8d 51       		.byte	0x51
 5942 1b8e 03       		.uleb128 0x3
 5943 1b8f 91       		.byte	0x91
 5944 1b90 B27F     		.sleb128 -78
 5945 1b92 20       		.uleb128 0x20
 5946 1b93 01       		.uleb128 0x1
 5947 1b94 52       		.byte	0x52
 5948 1b95 01       		.uleb128 0x1
 5949 1b96 32       		.byte	0x32
 5950 1b97 20       		.uleb128 0x20
 5951 1b98 01       		.uleb128 0x1
 5952 1b99 53       		.byte	0x53
 5953 1b9a 01       		.uleb128 0x1
 5954 1b9b 30       		.byte	0x30
 5955 1b9c 00       		.byte	0
 5956 1b9d 00       		.byte	0
 5957 1b9e 00       		.byte	0
 5958 1b9f 24       		.uleb128 0x24
 5959 1ba0 14000000 		.4byte	.LVL227
 5960 1ba4 B01E0000 		.4byte	0x1eb0
 5961 1ba8 B21B0000 		.4byte	0x1bb2
 5962 1bac 20       		.uleb128 0x20
 5963 1bad 01       		.uleb128 0x1
 5964 1bae 50       		.byte	0x50
 5965 1baf 01       		.uleb128 0x1
 5966 1bb0 48       		.byte	0x48
 5967 1bb1 00       		.byte	0
 5968 1bb2 24       		.uleb128 0x24
 5969 1bb3 1E000000 		.4byte	.LVL229
 5970 1bb7 D11E0000 		.4byte	0x1ed1
 5971 1bbb D01B0000 		.4byte	0x1bd0
 5972 1bbf 20       		.uleb128 0x20
 5973 1bc0 01       		.uleb128 0x1
 5974 1bc1 50       		.byte	0x50
 5975 1bc2 02       		.uleb128 0x2
 5976 1bc3 74       		.byte	0x74
 5977 1bc4 00       		.sleb128 0
 5978 1bc5 20       		.uleb128 0x20
 5979 1bc6 01       		.uleb128 0x1
 5980 1bc7 51       		.byte	0x51
 5981 1bc8 01       		.uleb128 0x1
 5982 1bc9 30       		.byte	0x30
 5983 1bca 20       		.uleb128 0x20
ARM GAS  C:\Users\haske\AppData\Local\Temp\cc5ISl1k.s 			page 121


 5984 1bcb 01       		.uleb128 0x1
 5985 1bcc 52       		.byte	0x52
 5986 1bcd 01       		.uleb128 0x1
 5987 1bce 48       		.byte	0x48
 5988 1bcf 00       		.byte	0
 5989 1bd0 24       		.uleb128 0x24
 5990 1bd1 2A000000 		.4byte	.LVL230
 5991 1bd5 630F0000 		.4byte	0xf63
 5992 1bd9 F21B0000 		.4byte	0x1bf2
 5993 1bdd 20       		.uleb128 0x20
 5994 1bde 01       		.uleb128 0x1
 5995 1bdf 50       		.byte	0x50
 5996 1be0 02       		.uleb128 0x2
 5997 1be1 76       		.byte	0x76
 5998 1be2 00       		.sleb128 0
 5999 1be3 20       		.uleb128 0x20
 6000 1be4 01       		.uleb128 0x1
 6001 1be5 51       		.byte	0x51
 6002 1be6 01       		.uleb128 0x1
 6003 1be7 30       		.byte	0x30
 6004 1be8 20       		.uleb128 0x20
 6005 1be9 01       		.uleb128 0x1
 6006 1bea 52       		.byte	0x52
 6007 1beb 05       		.uleb128 0x5
 6008 1bec 03       		.byte	0x3
 6009 1bed 18000000 		.4byte	.LC6
 6010 1bf1 00       		.byte	0
 6011 1bf2 24       		.uleb128 0x24
 6012 1bf3 3C000000 		.4byte	.LVL233
 6013 1bf7 A51E0000 		.4byte	0x1ea5
 6014 1bfb 181C0000 		.4byte	0x1c18
 6015 1bff 20       		.uleb128 0x20
 6016 1c00 01       		.uleb128 0x1
 6017 1c01 50       		.byte	0x50
 6018 1c02 02       		.uleb128 0x2
 6019 1c03 76       		.byte	0x76
 6020 1c04 00       		.sleb128 0
 6021 1c05 20       		.uleb128 0x20
 6022 1c06 01       		.uleb128 0x1
 6023 1c07 51       		.byte	0x51
 6024 1c08 03       		.uleb128 0x3
 6025 1c09 91       		.byte	0x91
 6026 1c0a B87F     		.sleb128 -72
 6027 1c0c 20       		.uleb128 0x20
 6028 1c0d 01       		.uleb128 0x1
 6029 1c0e 52       		.byte	0x52
 6030 1c0f 02       		.uleb128 0x2
 6031 1c10 08       		.byte	0x8
 6032 1c11 28       		.byte	0x28
 6033 1c12 20       		.uleb128 0x20
 6034 1c13 01       		.uleb128 0x1
 6035 1c14 53       		.byte	0x53
 6036 1c15 01       		.uleb128 0x1
 6037 1c16 30       		.byte	0x30
 6038 1c17 00       		.byte	0
 6039 1c18 24       		.uleb128 0x24
 6040 1c19 A6000000 		.4byte	.LVL235
ARM GAS  C:\Users\haske\AppData\Local\Temp\cc5ISl1k.s 			page 122


 6041 1c1d 48100000 		.4byte	0x1048
 6042 1c21 381C0000 		.4byte	0x1c38
 6043 1c25 20       		.uleb128 0x20
 6044 1c26 01       		.uleb128 0x1
 6045 1c27 50       		.byte	0x50
 6046 1c28 02       		.uleb128 0x2
 6047 1c29 76       		.byte	0x76
 6048 1c2a 00       		.sleb128 0
 6049 1c2b 20       		.uleb128 0x20
 6050 1c2c 01       		.uleb128 0x1
 6051 1c2d 51       		.byte	0x51
 6052 1c2e 02       		.uleb128 0x2
 6053 1c2f 74       		.byte	0x74
 6054 1c30 00       		.sleb128 0
 6055 1c31 20       		.uleb128 0x20
 6056 1c32 01       		.uleb128 0x1
 6057 1c33 52       		.byte	0x52
 6058 1c34 02       		.uleb128 0x2
 6059 1c35 77       		.byte	0x77
 6060 1c36 00       		.sleb128 0
 6061 1c37 00       		.byte	0
 6062 1c38 24       		.uleb128 0x24
 6063 1c39 B6000000 		.4byte	.LVL238
 6064 1c3d 630F0000 		.4byte	0xf63
 6065 1c41 5B1C0000 		.4byte	0x1c5b
 6066 1c45 20       		.uleb128 0x20
 6067 1c46 01       		.uleb128 0x1
 6068 1c47 50       		.byte	0x50
 6069 1c48 02       		.uleb128 0x2
 6070 1c49 76       		.byte	0x76
 6071 1c4a 00       		.sleb128 0
 6072 1c4b 20       		.uleb128 0x20
 6073 1c4c 01       		.uleb128 0x1
 6074 1c4d 51       		.byte	0x51
 6075 1c4e 02       		.uleb128 0x2
 6076 1c4f 77       		.byte	0x77
 6077 1c50 00       		.sleb128 0
 6078 1c51 20       		.uleb128 0x20
 6079 1c52 01       		.uleb128 0x1
 6080 1c53 52       		.byte	0x52
 6081 1c54 05       		.uleb128 0x5
 6082 1c55 03       		.byte	0x3
 6083 1c56 20000000 		.4byte	.LC10
 6084 1c5a 00       		.byte	0
 6085 1c5b 24       		.uleb128 0x24
 6086 1c5c C8000000 		.4byte	.LVL241
 6087 1c60 A51E0000 		.4byte	0x1ea5
 6088 1c64 801C0000 		.4byte	0x1c80
 6089 1c68 20       		.uleb128 0x20
 6090 1c69 01       		.uleb128 0x1
 6091 1c6a 50       		.byte	0x50
 6092 1c6b 02       		.uleb128 0x2
 6093 1c6c 76       		.byte	0x76
 6094 1c6d 00       		.sleb128 0
 6095 1c6e 20       		.uleb128 0x20
 6096 1c6f 01       		.uleb128 0x1
 6097 1c70 51       		.byte	0x51
ARM GAS  C:\Users\haske\AppData\Local\Temp\cc5ISl1k.s 			page 123


 6098 1c71 03       		.uleb128 0x3
 6099 1c72 91       		.byte	0x91
 6100 1c73 B47F     		.sleb128 -76
 6101 1c75 20       		.uleb128 0x20
 6102 1c76 01       		.uleb128 0x1
 6103 1c77 52       		.byte	0x52
 6104 1c78 01       		.uleb128 0x1
 6105 1c79 34       		.byte	0x34
 6106 1c7a 20       		.uleb128 0x20
 6107 1c7b 01       		.uleb128 0x1
 6108 1c7c 53       		.byte	0x53
 6109 1c7d 01       		.uleb128 0x1
 6110 1c7e 30       		.byte	0x30
 6111 1c7f 00       		.byte	0
 6112 1c80 26       		.uleb128 0x26
 6113 1c81 D6000000 		.4byte	.LVL243
 6114 1c85 B01E0000 		.4byte	0x1eb0
 6115 1c89 24       		.uleb128 0x24
 6116 1c8a 26010000 		.4byte	.LVL254
 6117 1c8e A51E0000 		.4byte	0x1ea5
 6118 1c92 A81C0000 		.4byte	0x1ca8
 6119 1c96 20       		.uleb128 0x20
 6120 1c97 01       		.uleb128 0x1
 6121 1c98 50       		.byte	0x50
 6122 1c99 02       		.uleb128 0x2
 6123 1c9a 76       		.byte	0x76
 6124 1c9b 00       		.sleb128 0
 6125 1c9c 20       		.uleb128 0x20
 6126 1c9d 01       		.uleb128 0x1
 6127 1c9e 51       		.byte	0x51
 6128 1c9f 02       		.uleb128 0x2
 6129 1ca0 79       		.byte	0x79
 6130 1ca1 00       		.sleb128 0
 6131 1ca2 20       		.uleb128 0x20
 6132 1ca3 01       		.uleb128 0x1
 6133 1ca4 53       		.byte	0x53
 6134 1ca5 01       		.uleb128 0x1
 6135 1ca6 30       		.byte	0x30
 6136 1ca7 00       		.byte	0
 6137 1ca8 24       		.uleb128 0x24
 6138 1ca9 3E010000 		.4byte	.LVL258
 6139 1cad DA1E0000 		.4byte	0x1eda
 6140 1cb1 BC1C0000 		.4byte	0x1cbc
 6141 1cb5 20       		.uleb128 0x20
 6142 1cb6 01       		.uleb128 0x1
 6143 1cb7 50       		.byte	0x50
 6144 1cb8 02       		.uleb128 0x2
 6145 1cb9 79       		.byte	0x79
 6146 1cba 00       		.sleb128 0
 6147 1cbb 00       		.byte	0
 6148 1cbc 24       		.uleb128 0x24
 6149 1cbd 58010000 		.4byte	.LVL262
 6150 1cc1 8B110000 		.4byte	0x118b
 6151 1cc5 EA1C0000 		.4byte	0x1cea
 6152 1cc9 20       		.uleb128 0x20
 6153 1cca 01       		.uleb128 0x1
 6154 1ccb 50       		.byte	0x50
ARM GAS  C:\Users\haske\AppData\Local\Temp\cc5ISl1k.s 			page 124


 6155 1ccc 02       		.uleb128 0x2
 6156 1ccd 76       		.byte	0x76
 6157 1cce 00       		.sleb128 0
 6158 1ccf 20       		.uleb128 0x20
 6159 1cd0 01       		.uleb128 0x1
 6160 1cd1 51       		.byte	0x51
 6161 1cd2 02       		.uleb128 0x2
 6162 1cd3 74       		.byte	0x74
 6163 1cd4 00       		.sleb128 0
 6164 1cd5 20       		.uleb128 0x20
 6165 1cd6 01       		.uleb128 0x1
 6166 1cd7 52       		.byte	0x52
 6167 1cd8 02       		.uleb128 0x2
 6168 1cd9 77       		.byte	0x77
 6169 1cda 00       		.sleb128 0
 6170 1cdb 20       		.uleb128 0x20
 6171 1cdc 01       		.uleb128 0x1
 6172 1cdd 53       		.byte	0x53
 6173 1cde 02       		.uleb128 0x2
 6174 1cdf 79       		.byte	0x79
 6175 1ce0 00       		.sleb128 0
 6176 1ce1 20       		.uleb128 0x20
 6177 1ce2 02       		.uleb128 0x2
 6178 1ce3 7D       		.byte	0x7d
 6179 1ce4 04       		.sleb128 4
 6180 1ce5 03       		.uleb128 0x3
 6181 1ce6 91       		.byte	0x91
 6182 1ce7 B87F     		.sleb128 -72
 6183 1ce9 00       		.byte	0
 6184 1cea 24       		.uleb128 0x24
 6185 1ceb 60010000 		.4byte	.LVL265
 6186 1cef DA1E0000 		.4byte	0x1eda
 6187 1cf3 FE1C0000 		.4byte	0x1cfe
 6188 1cf7 20       		.uleb128 0x20
 6189 1cf8 01       		.uleb128 0x1
 6190 1cf9 50       		.byte	0x50
 6191 1cfa 02       		.uleb128 0x2
 6192 1cfb 79       		.byte	0x79
 6193 1cfc 00       		.sleb128 0
 6194 1cfd 00       		.byte	0
 6195 1cfe 1F       		.uleb128 0x1f
 6196 1cff 8E010000 		.4byte	.LVL267
 6197 1d03 8D160000 		.4byte	0x168d
 6198 1d07 20       		.uleb128 0x20
 6199 1d08 01       		.uleb128 0x1
 6200 1d09 50       		.byte	0x50
 6201 1d0a 02       		.uleb128 0x2
 6202 1d0b 76       		.byte	0x76
 6203 1d0c 00       		.sleb128 0
 6204 1d0d 20       		.uleb128 0x20
 6205 1d0e 01       		.uleb128 0x1
 6206 1d0f 51       		.byte	0x51
 6207 1d10 02       		.uleb128 0x2
 6208 1d11 74       		.byte	0x74
 6209 1d12 00       		.sleb128 0
 6210 1d13 20       		.uleb128 0x20
 6211 1d14 01       		.uleb128 0x1
ARM GAS  C:\Users\haske\AppData\Local\Temp\cc5ISl1k.s 			page 125


 6212 1d15 53       		.byte	0x53
 6213 1d16 02       		.uleb128 0x2
 6214 1d17 77       		.byte	0x77
 6215 1d18 00       		.sleb128 0
 6216 1d19 00       		.byte	0
 6217 1d1a 00       		.byte	0
 6218 1d1b 31       		.uleb128 0x31
 6219 1d1c 10150000 		.4byte	.LASF302
 6220 1d20 01       		.byte	0x1
 6221 1d21 56       		.byte	0x56
 6222 1d22 7B160000 		.4byte	0x167b
 6223 1d26 00000000 		.4byte	.LFB202
 6224 1d2a 48000000 		.4byte	.LFE202-.LFB202
 6225 1d2e 01       		.uleb128 0x1
 6226 1d2f 9C       		.byte	0x9c
 6227 1d30 F51D0000 		.4byte	0x1df5
 6228 1d34 1B       		.uleb128 0x1b
 6229 1d35 CC050000 		.4byte	.LASF303
 6230 1d39 01       		.byte	0x1
 6231 1d3a 56       		.byte	0x56
 6232 1d3b 0C010000 		.4byte	0x10c
 6233 1d3f E60D0000 		.4byte	.LLST83
 6234 1d43 21       		.uleb128 0x21
 6235 1d44 ED050000 		.4byte	.LASF304
 6236 1d48 01       		.byte	0x1
 6237 1d49 58       		.byte	0x58
 6238 1d4a DB070000 		.4byte	0x7db
 6239 1d4e 02       		.uleb128 0x2
 6240 1d4f 91       		.byte	0x91
 6241 1d50 6C       		.sleb128 -20
 6242 1d51 1E       		.uleb128 0x1e
 6243 1d52 72657300 		.ascii	"res\000"
 6244 1d56 01       		.byte	0x1
 6245 1d57 59       		.byte	0x59
 6246 1d58 29050000 		.4byte	0x529
 6247 1d5c 120E0000 		.4byte	.LLST84
 6248 1d60 1C       		.uleb128 0x1c
 6249 1d61 09110000 		.4byte	.LASF279
 6250 1d65 01       		.byte	0x1
 6251 1d66 5D       		.byte	0x5d
 6252 1d67 7B160000 		.4byte	0x167b
 6253 1d6b 300E0000 		.4byte	.LLST85
 6254 1d6f 24       		.uleb128 0x24
 6255 1d70 0E000000 		.4byte	.LVL282
 6256 1d74 E51E0000 		.4byte	0x1ee5
 6257 1d78 8F1D0000 		.4byte	0x1d8f
 6258 1d7c 20       		.uleb128 0x20
 6259 1d7d 01       		.uleb128 0x1
 6260 1d7e 50       		.byte	0x50
 6261 1d7f 02       		.uleb128 0x2
 6262 1d80 91       		.byte	0x91
 6263 1d81 6C       		.sleb128 -20
 6264 1d82 20       		.uleb128 0x20
 6265 1d83 01       		.uleb128 0x1
 6266 1d84 51       		.byte	0x51
 6267 1d85 03       		.uleb128 0x3
 6268 1d86 F3       		.byte	0xf3
ARM GAS  C:\Users\haske\AppData\Local\Temp\cc5ISl1k.s 			page 126


 6269 1d87 01       		.uleb128 0x1
 6270 1d88 50       		.byte	0x50
 6271 1d89 20       		.uleb128 0x20
 6272 1d8a 01       		.uleb128 0x1
 6273 1d8b 52       		.byte	0x52
 6274 1d8c 01       		.uleb128 0x1
 6275 1d8d 32       		.byte	0x32
 6276 1d8e 00       		.byte	0
 6277 1d8f 26       		.uleb128 0x26
 6278 1d90 18000000 		.4byte	.LVL284
 6279 1d94 B01E0000 		.4byte	0x1eb0
 6280 1d98 24       		.uleb128 0x24
 6281 1d99 24000000 		.4byte	.LVL286
 6282 1d9d D11E0000 		.4byte	0x1ed1
 6283 1da1 B61D0000 		.4byte	0x1db6
 6284 1da5 20       		.uleb128 0x20
 6285 1da6 01       		.uleb128 0x1
 6286 1da7 50       		.byte	0x50
 6287 1da8 02       		.uleb128 0x2
 6288 1da9 74       		.byte	0x74
 6289 1daa 00       		.sleb128 0
 6290 1dab 20       		.uleb128 0x20
 6291 1dac 01       		.uleb128 0x1
 6292 1dad 51       		.byte	0x51
 6293 1dae 01       		.uleb128 0x1
 6294 1daf 30       		.byte	0x30
 6295 1db0 20       		.uleb128 0x20
 6296 1db1 01       		.uleb128 0x1
 6297 1db2 52       		.byte	0x52
 6298 1db3 01       		.uleb128 0x1
 6299 1db4 4C       		.byte	0x4c
 6300 1db5 00       		.byte	0
 6301 1db6 24       		.uleb128 0x24
 6302 1db7 2C000000 		.4byte	.LVL287
 6303 1dbb 331A0000 		.4byte	0x1a33
 6304 1dbf D01D0000 		.4byte	0x1dd0
 6305 1dc3 20       		.uleb128 0x20
 6306 1dc4 01       		.uleb128 0x1
 6307 1dc5 50       		.byte	0x50
 6308 1dc6 02       		.uleb128 0x2
 6309 1dc7 91       		.byte	0x91
 6310 1dc8 6C       		.sleb128 -20
 6311 1dc9 20       		.uleb128 0x20
 6312 1dca 01       		.uleb128 0x1
 6313 1dcb 51       		.byte	0x51
 6314 1dcc 02       		.uleb128 0x2
 6315 1dcd 74       		.byte	0x74
 6316 1dce 00       		.sleb128 0
 6317 1dcf 00       		.byte	0
 6318 1dd0 24       		.uleb128 0x24
 6319 1dd1 36000000 		.4byte	.LVL288
 6320 1dd5 2A150000 		.4byte	0x152a
 6321 1dd9 E41D0000 		.4byte	0x1de4
 6322 1ddd 20       		.uleb128 0x20
 6323 1dde 01       		.uleb128 0x1
 6324 1ddf 50       		.byte	0x50
 6325 1de0 02       		.uleb128 0x2
ARM GAS  C:\Users\haske\AppData\Local\Temp\cc5ISl1k.s 			page 127


 6326 1de1 74       		.byte	0x74
 6327 1de2 00       		.sleb128 0
 6328 1de3 00       		.byte	0
 6329 1de4 1F       		.uleb128 0x1f
 6330 1de5 3E000000 		.4byte	.LVL290
 6331 1de9 F01E0000 		.4byte	0x1ef0
 6332 1ded 20       		.uleb128 0x20
 6333 1dee 01       		.uleb128 0x1
 6334 1def 50       		.byte	0x50
 6335 1df0 02       		.uleb128 0x2
 6336 1df1 91       		.byte	0x91
 6337 1df2 6C       		.sleb128 -20
 6338 1df3 00       		.byte	0
 6339 1df4 00       		.byte	0
 6340 1df5 32       		.uleb128 0x32
 6341 1df6 97010000 		.4byte	.LASF305
 6342 1dfa 05       		.byte	0x5
 6343 1dfb 94       		.byte	0x94
 6344 1dfc E6070000 		.4byte	0x7e6
 6345 1e00 32       		.uleb128 0x32
 6346 1e01 57000000 		.4byte	.LASF306
 6347 1e05 09       		.byte	0x9
 6348 1e06 3D       		.byte	0x3d
 6349 1e07 BC040000 		.4byte	0x4bc
 6350 1e0b 32       		.uleb128 0x32
 6351 1e0c 330E0000 		.4byte	.LASF307
 6352 1e10 09       		.byte	0x9
 6353 1e11 3E       		.byte	0x3e
 6354 1e12 BC040000 		.4byte	0x4bc
 6355 1e16 32       		.uleb128 0x32
 6356 1e17 68130000 		.4byte	.LASF308
 6357 1e1b 09       		.byte	0x9
 6358 1e1c 3F       		.byte	0x3f
 6359 1e1d BC040000 		.4byte	0x4bc
 6360 1e21 32       		.uleb128 0x32
 6361 1e22 4C0E0000 		.4byte	.LASF309
 6362 1e26 09       		.byte	0x9
 6363 1e27 40       		.byte	0x40
 6364 1e28 BC040000 		.4byte	0x4bc
 6365 1e2c 32       		.uleb128 0x32
 6366 1e2d BF140000 		.4byte	.LASF310
 6367 1e31 09       		.byte	0x9
 6368 1e32 41       		.byte	0x41
 6369 1e33 BC040000 		.4byte	0x4bc
 6370 1e37 32       		.uleb128 0x32
 6371 1e38 A50F0000 		.4byte	.LASF311
 6372 1e3c 0A       		.byte	0xa
 6373 1e3d 39       		.byte	0x39
 6374 1e3e BC040000 		.4byte	0x4bc
 6375 1e42 32       		.uleb128 0x32
 6376 1e43 A8070000 		.4byte	.LASF312
 6377 1e47 0A       		.byte	0xa
 6378 1e48 3A       		.byte	0x3a
 6379 1e49 BC040000 		.4byte	0x4bc
 6380 1e4d 32       		.uleb128 0x32
 6381 1e4e 150A0000 		.4byte	.LASF313
 6382 1e52 0A       		.byte	0xa
ARM GAS  C:\Users\haske\AppData\Local\Temp\cc5ISl1k.s 			page 128


 6383 1e53 3B       		.byte	0x3b
 6384 1e54 BC040000 		.4byte	0x4bc
 6385 1e58 32       		.uleb128 0x32
 6386 1e59 170F0000 		.4byte	.LASF314
 6387 1e5d 0A       		.byte	0xa
 6388 1e5e 3C       		.byte	0x3c
 6389 1e5f BC040000 		.4byte	0x4bc
 6390 1e63 32       		.uleb128 0x32
 6391 1e64 39000000 		.4byte	.LASF315
 6392 1e68 0A       		.byte	0xa
 6393 1e69 3D       		.byte	0x3d
 6394 1e6a BC040000 		.4byte	0x4bc
 6395 1e6e 32       		.uleb128 0x32
 6396 1e6f 62110000 		.4byte	.LASF316
 6397 1e73 0A       		.byte	0xa
 6398 1e74 3E       		.byte	0x3e
 6399 1e75 BC040000 		.4byte	0x4bc
 6400 1e79 32       		.uleb128 0x32
 6401 1e7a 680C0000 		.4byte	.LASF317
 6402 1e7e 0A       		.byte	0xa
 6403 1e7f 3F       		.byte	0x3f
 6404 1e80 BC040000 		.4byte	0x4bc
 6405 1e84 32       		.uleb128 0x32
 6406 1e85 1E040000 		.4byte	.LASF318
 6407 1e89 0A       		.byte	0xa
 6408 1e8a 40       		.byte	0x40
 6409 1e8b BC040000 		.4byte	0x4bc
 6410 1e8f 32       		.uleb128 0x32
 6411 1e90 A40C0000 		.4byte	.LASF319
 6412 1e94 0A       		.byte	0xa
 6413 1e95 41       		.byte	0x41
 6414 1e96 BC040000 		.4byte	0x4bc
 6415 1e9a 32       		.uleb128 0x32
 6416 1e9b B8020000 		.4byte	.LASF320
 6417 1e9f 0A       		.byte	0xa
 6418 1ea0 42       		.byte	0x42
 6419 1ea1 BC040000 		.4byte	0x4bc
 6420 1ea5 33       		.uleb128 0x33
 6421 1ea6 87120000 		.4byte	.LASF321
 6422 1eaa 87120000 		.4byte	.LASF321
 6423 1eae 07       		.byte	0x7
 6424 1eaf AD       		.byte	0xad
 6425 1eb0 33       		.uleb128 0x33
 6426 1eb1 6A030000 		.4byte	.LASF322
 6427 1eb5 6A030000 		.4byte	.LASF322
 6428 1eb9 0B       		.byte	0xb
 6429 1eba 4A       		.byte	0x4a
 6430 1ebb 33       		.uleb128 0x33
 6431 1ebc 710F0000 		.4byte	.LASF323
 6432 1ec0 710F0000 		.4byte	.LASF323
 6433 1ec4 07       		.byte	0x7
 6434 1ec5 C0       		.byte	0xc0
 6435 1ec6 33       		.uleb128 0x33
 6436 1ec7 C40F0000 		.4byte	.LASF324
 6437 1ecb C40F0000 		.4byte	.LASF324
 6438 1ecf 0C       		.byte	0xc
 6439 1ed0 16       		.byte	0x16
ARM GAS  C:\Users\haske\AppData\Local\Temp\cc5ISl1k.s 			page 129


 6440 1ed1 34       		.uleb128 0x34
 6441 1ed2 050C0000 		.4byte	.LASF332
 6442 1ed6 050C0000 		.4byte	.LASF332
 6443 1eda 33       		.uleb128 0x33
 6444 1edb 9E130000 		.4byte	.LASF325
 6445 1edf 9E130000 		.4byte	.LASF325
 6446 1ee3 0B       		.byte	0xb
 6447 1ee4 50       		.byte	0x50
 6448 1ee5 33       		.uleb128 0x33
 6449 1ee6 7B100000 		.4byte	.LASF326
 6450 1eea 7B100000 		.4byte	.LASF326
 6451 1eee 07       		.byte	0x7
 6452 1eef 9C       		.byte	0x9c
 6453 1ef0 33       		.uleb128 0x33
 6454 1ef1 BB090000 		.4byte	.LASF327
 6455 1ef5 BB090000 		.4byte	.LASF327
 6456 1ef9 07       		.byte	0x7
 6457 1efa A3       		.byte	0xa3
 6458 1efb 00       		.byte	0
 6459              		.section	.debug_abbrev,"",%progbits
 6460              	.Ldebug_abbrev0:
 6461 0000 01       		.uleb128 0x1
 6462 0001 11       		.uleb128 0x11
 6463 0002 01       		.byte	0x1
 6464 0003 25       		.uleb128 0x25
 6465 0004 0E       		.uleb128 0xe
 6466 0005 13       		.uleb128 0x13
 6467 0006 0B       		.uleb128 0xb
 6468 0007 03       		.uleb128 0x3
 6469 0008 0E       		.uleb128 0xe
 6470 0009 1B       		.uleb128 0x1b
 6471 000a 0E       		.uleb128 0xe
 6472 000b 55       		.uleb128 0x55
 6473 000c 17       		.uleb128 0x17
 6474 000d 11       		.uleb128 0x11
 6475 000e 01       		.uleb128 0x1
 6476 000f 10       		.uleb128 0x10
 6477 0010 17       		.uleb128 0x17
 6478 0011 00       		.byte	0
 6479 0012 00       		.byte	0
 6480 0013 02       		.uleb128 0x2
 6481 0014 16       		.uleb128 0x16
 6482 0015 00       		.byte	0
 6483 0016 03       		.uleb128 0x3
 6484 0017 0E       		.uleb128 0xe
 6485 0018 3A       		.uleb128 0x3a
 6486 0019 0B       		.uleb128 0xb
 6487 001a 3B       		.uleb128 0x3b
 6488 001b 0B       		.uleb128 0xb
 6489 001c 49       		.uleb128 0x49
 6490 001d 13       		.uleb128 0x13
 6491 001e 00       		.byte	0
 6492 001f 00       		.byte	0
 6493 0020 03       		.uleb128 0x3
 6494 0021 24       		.uleb128 0x24
 6495 0022 00       		.byte	0
 6496 0023 0B       		.uleb128 0xb
ARM GAS  C:\Users\haske\AppData\Local\Temp\cc5ISl1k.s 			page 130


 6497 0024 0B       		.uleb128 0xb
 6498 0025 3E       		.uleb128 0x3e
 6499 0026 0B       		.uleb128 0xb
 6500 0027 03       		.uleb128 0x3
 6501 0028 0E       		.uleb128 0xe
 6502 0029 00       		.byte	0
 6503 002a 00       		.byte	0
 6504 002b 04       		.uleb128 0x4
 6505 002c 24       		.uleb128 0x24
 6506 002d 00       		.byte	0
 6507 002e 0B       		.uleb128 0xb
 6508 002f 0B       		.uleb128 0xb
 6509 0030 3E       		.uleb128 0x3e
 6510 0031 0B       		.uleb128 0xb
 6511 0032 03       		.uleb128 0x3
 6512 0033 08       		.uleb128 0x8
 6513 0034 00       		.byte	0
 6514 0035 00       		.byte	0
 6515 0036 05       		.uleb128 0x5
 6516 0037 0F       		.uleb128 0xf
 6517 0038 00       		.byte	0
 6518 0039 0B       		.uleb128 0xb
 6519 003a 0B       		.uleb128 0xb
 6520 003b 00       		.byte	0
 6521 003c 00       		.byte	0
 6522 003d 06       		.uleb128 0x6
 6523 003e 0F       		.uleb128 0xf
 6524 003f 00       		.byte	0
 6525 0040 0B       		.uleb128 0xb
 6526 0041 0B       		.uleb128 0xb
 6527 0042 49       		.uleb128 0x49
 6528 0043 13       		.uleb128 0x13
 6529 0044 00       		.byte	0
 6530 0045 00       		.byte	0
 6531 0046 07       		.uleb128 0x7
 6532 0047 26       		.uleb128 0x26
 6533 0048 00       		.byte	0
 6534 0049 49       		.uleb128 0x49
 6535 004a 13       		.uleb128 0x13
 6536 004b 00       		.byte	0
 6537 004c 00       		.byte	0
 6538 004d 08       		.uleb128 0x8
 6539 004e 13       		.uleb128 0x13
 6540 004f 01       		.byte	0x1
 6541 0050 0B       		.uleb128 0xb
 6542 0051 0B       		.uleb128 0xb
 6543 0052 3A       		.uleb128 0x3a
 6544 0053 0B       		.uleb128 0xb
 6545 0054 3B       		.uleb128 0x3b
 6546 0055 0B       		.uleb128 0xb
 6547 0056 01       		.uleb128 0x1
 6548 0057 13       		.uleb128 0x13
 6549 0058 00       		.byte	0
 6550 0059 00       		.byte	0
 6551 005a 09       		.uleb128 0x9
 6552 005b 0D       		.uleb128 0xd
 6553 005c 00       		.byte	0
ARM GAS  C:\Users\haske\AppData\Local\Temp\cc5ISl1k.s 			page 131


 6554 005d 03       		.uleb128 0x3
 6555 005e 0E       		.uleb128 0xe
 6556 005f 3A       		.uleb128 0x3a
 6557 0060 0B       		.uleb128 0xb
 6558 0061 3B       		.uleb128 0x3b
 6559 0062 0B       		.uleb128 0xb
 6560 0063 49       		.uleb128 0x49
 6561 0064 13       		.uleb128 0x13
 6562 0065 38       		.uleb128 0x38
 6563 0066 0B       		.uleb128 0xb
 6564 0067 00       		.byte	0
 6565 0068 00       		.byte	0
 6566 0069 0A       		.uleb128 0xa
 6567 006a 0D       		.uleb128 0xd
 6568 006b 00       		.byte	0
 6569 006c 03       		.uleb128 0x3
 6570 006d 08       		.uleb128 0x8
 6571 006e 3A       		.uleb128 0x3a
 6572 006f 0B       		.uleb128 0xb
 6573 0070 3B       		.uleb128 0x3b
 6574 0071 0B       		.uleb128 0xb
 6575 0072 49       		.uleb128 0x49
 6576 0073 13       		.uleb128 0x13
 6577 0074 0B       		.uleb128 0xb
 6578 0075 0B       		.uleb128 0xb
 6579 0076 0D       		.uleb128 0xd
 6580 0077 0B       		.uleb128 0xb
 6581 0078 0C       		.uleb128 0xc
 6582 0079 0B       		.uleb128 0xb
 6583 007a 38       		.uleb128 0x38
 6584 007b 0B       		.uleb128 0xb
 6585 007c 00       		.byte	0
 6586 007d 00       		.byte	0
 6587 007e 0B       		.uleb128 0xb
 6588 007f 0D       		.uleb128 0xd
 6589 0080 00       		.byte	0
 6590 0081 03       		.uleb128 0x3
 6591 0082 0E       		.uleb128 0xe
 6592 0083 3A       		.uleb128 0x3a
 6593 0084 0B       		.uleb128 0xb
 6594 0085 3B       		.uleb128 0x3b
 6595 0086 0B       		.uleb128 0xb
 6596 0087 49       		.uleb128 0x49
 6597 0088 13       		.uleb128 0x13
 6598 0089 0B       		.uleb128 0xb
 6599 008a 0B       		.uleb128 0xb
 6600 008b 0D       		.uleb128 0xd
 6601 008c 0B       		.uleb128 0xb
 6602 008d 0C       		.uleb128 0xc
 6603 008e 0B       		.uleb128 0xb
 6604 008f 38       		.uleb128 0x38
 6605 0090 0B       		.uleb128 0xb
 6606 0091 00       		.byte	0
 6607 0092 00       		.byte	0
 6608 0093 0C       		.uleb128 0xc
 6609 0094 13       		.uleb128 0x13
 6610 0095 01       		.byte	0x1
ARM GAS  C:\Users\haske\AppData\Local\Temp\cc5ISl1k.s 			page 132


 6611 0096 03       		.uleb128 0x3
 6612 0097 0E       		.uleb128 0xe
 6613 0098 0B       		.uleb128 0xb
 6614 0099 0B       		.uleb128 0xb
 6615 009a 3A       		.uleb128 0x3a
 6616 009b 0B       		.uleb128 0xb
 6617 009c 3B       		.uleb128 0x3b
 6618 009d 0B       		.uleb128 0xb
 6619 009e 01       		.uleb128 0x1
 6620 009f 13       		.uleb128 0x13
 6621 00a0 00       		.byte	0
 6622 00a1 00       		.byte	0
 6623 00a2 0D       		.uleb128 0xd
 6624 00a3 0D       		.uleb128 0xd
 6625 00a4 00       		.byte	0
 6626 00a5 03       		.uleb128 0x3
 6627 00a6 08       		.uleb128 0x8
 6628 00a7 3A       		.uleb128 0x3a
 6629 00a8 0B       		.uleb128 0xb
 6630 00a9 3B       		.uleb128 0x3b
 6631 00aa 0B       		.uleb128 0xb
 6632 00ab 49       		.uleb128 0x49
 6633 00ac 13       		.uleb128 0x13
 6634 00ad 38       		.uleb128 0x38
 6635 00ae 0B       		.uleb128 0xb
 6636 00af 00       		.byte	0
 6637 00b0 00       		.byte	0
 6638 00b1 0E       		.uleb128 0xe
 6639 00b2 15       		.uleb128 0x15
 6640 00b3 01       		.byte	0x1
 6641 00b4 27       		.uleb128 0x27
 6642 00b5 19       		.uleb128 0x19
 6643 00b6 49       		.uleb128 0x49
 6644 00b7 13       		.uleb128 0x13
 6645 00b8 01       		.uleb128 0x1
 6646 00b9 13       		.uleb128 0x13
 6647 00ba 00       		.byte	0
 6648 00bb 00       		.byte	0
 6649 00bc 0F       		.uleb128 0xf
 6650 00bd 05       		.uleb128 0x5
 6651 00be 00       		.byte	0
 6652 00bf 49       		.uleb128 0x49
 6653 00c0 13       		.uleb128 0x13
 6654 00c1 00       		.byte	0
 6655 00c2 00       		.byte	0
 6656 00c3 10       		.uleb128 0x10
 6657 00c4 26       		.uleb128 0x26
 6658 00c5 00       		.byte	0
 6659 00c6 00       		.byte	0
 6660 00c7 00       		.byte	0
 6661 00c8 11       		.uleb128 0x11
 6662 00c9 04       		.uleb128 0x4
 6663 00ca 01       		.byte	0x1
 6664 00cb 0B       		.uleb128 0xb
 6665 00cc 0B       		.uleb128 0xb
 6666 00cd 49       		.uleb128 0x49
 6667 00ce 13       		.uleb128 0x13
ARM GAS  C:\Users\haske\AppData\Local\Temp\cc5ISl1k.s 			page 133


 6668 00cf 3A       		.uleb128 0x3a
 6669 00d0 0B       		.uleb128 0xb
 6670 00d1 3B       		.uleb128 0x3b
 6671 00d2 0B       		.uleb128 0xb
 6672 00d3 01       		.uleb128 0x1
 6673 00d4 13       		.uleb128 0x13
 6674 00d5 00       		.byte	0
 6675 00d6 00       		.byte	0
 6676 00d7 12       		.uleb128 0x12
 6677 00d8 28       		.uleb128 0x28
 6678 00d9 00       		.byte	0
 6679 00da 03       		.uleb128 0x3
 6680 00db 0E       		.uleb128 0xe
 6681 00dc 1C       		.uleb128 0x1c
 6682 00dd 0B       		.uleb128 0xb
 6683 00de 00       		.byte	0
 6684 00df 00       		.byte	0
 6685 00e0 13       		.uleb128 0x13
 6686 00e1 28       		.uleb128 0x28
 6687 00e2 00       		.byte	0
 6688 00e3 03       		.uleb128 0x3
 6689 00e4 0E       		.uleb128 0xe
 6690 00e5 1C       		.uleb128 0x1c
 6691 00e6 05       		.uleb128 0x5
 6692 00e7 00       		.byte	0
 6693 00e8 00       		.byte	0
 6694 00e9 14       		.uleb128 0x14
 6695 00ea 16       		.uleb128 0x16
 6696 00eb 00       		.byte	0
 6697 00ec 03       		.uleb128 0x3
 6698 00ed 0E       		.uleb128 0xe
 6699 00ee 3A       		.uleb128 0x3a
 6700 00ef 0B       		.uleb128 0xb
 6701 00f0 3B       		.uleb128 0x3b
 6702 00f1 05       		.uleb128 0x5
 6703 00f2 49       		.uleb128 0x49
 6704 00f3 13       		.uleb128 0x13
 6705 00f4 00       		.byte	0
 6706 00f5 00       		.byte	0
 6707 00f6 15       		.uleb128 0x15
 6708 00f7 01       		.uleb128 0x1
 6709 00f8 01       		.byte	0x1
 6710 00f9 49       		.uleb128 0x49
 6711 00fa 13       		.uleb128 0x13
 6712 00fb 01       		.uleb128 0x1
 6713 00fc 13       		.uleb128 0x13
 6714 00fd 00       		.byte	0
 6715 00fe 00       		.byte	0
 6716 00ff 16       		.uleb128 0x16
 6717 0100 21       		.uleb128 0x21
 6718 0101 00       		.byte	0
 6719 0102 49       		.uleb128 0x49
 6720 0103 13       		.uleb128 0x13
 6721 0104 2F       		.uleb128 0x2f
 6722 0105 0B       		.uleb128 0xb
 6723 0106 00       		.byte	0
 6724 0107 00       		.byte	0
ARM GAS  C:\Users\haske\AppData\Local\Temp\cc5ISl1k.s 			page 134


 6725 0108 17       		.uleb128 0x17
 6726 0109 2E       		.uleb128 0x2e
 6727 010a 01       		.byte	0x1
 6728 010b 03       		.uleb128 0x3
 6729 010c 0E       		.uleb128 0xe
 6730 010d 3A       		.uleb128 0x3a
 6731 010e 0B       		.uleb128 0xb
 6732 010f 3B       		.uleb128 0x3b
 6733 0110 0B       		.uleb128 0xb
 6734 0111 27       		.uleb128 0x27
 6735 0112 19       		.uleb128 0x19
 6736 0113 49       		.uleb128 0x49
 6737 0114 13       		.uleb128 0x13
 6738 0115 11       		.uleb128 0x11
 6739 0116 01       		.uleb128 0x1
 6740 0117 12       		.uleb128 0x12
 6741 0118 06       		.uleb128 0x6
 6742 0119 40       		.uleb128 0x40
 6743 011a 18       		.uleb128 0x18
 6744 011b 9742     		.uleb128 0x2117
 6745 011d 19       		.uleb128 0x19
 6746 011e 01       		.uleb128 0x1
 6747 011f 13       		.uleb128 0x13
 6748 0120 00       		.byte	0
 6749 0121 00       		.byte	0
 6750 0122 18       		.uleb128 0x18
 6751 0123 05       		.uleb128 0x5
 6752 0124 00       		.byte	0
 6753 0125 03       		.uleb128 0x3
 6754 0126 08       		.uleb128 0x8
 6755 0127 3A       		.uleb128 0x3a
 6756 0128 0B       		.uleb128 0xb
 6757 0129 3B       		.uleb128 0x3b
 6758 012a 0B       		.uleb128 0xb
 6759 012b 49       		.uleb128 0x49
 6760 012c 13       		.uleb128 0x13
 6761 012d 02       		.uleb128 0x2
 6762 012e 18       		.uleb128 0x18
 6763 012f 00       		.byte	0
 6764 0130 00       		.byte	0
 6765 0131 19       		.uleb128 0x19
 6766 0132 34       		.uleb128 0x34
 6767 0133 00       		.byte	0
 6768 0134 03       		.uleb128 0x3
 6769 0135 08       		.uleb128 0x8
 6770 0136 3A       		.uleb128 0x3a
 6771 0137 0B       		.uleb128 0xb
 6772 0138 3B       		.uleb128 0x3b
 6773 0139 0B       		.uleb128 0xb
 6774 013a 49       		.uleb128 0x49
 6775 013b 13       		.uleb128 0x13
 6776 013c 02       		.uleb128 0x2
 6777 013d 18       		.uleb128 0x18
 6778 013e 00       		.byte	0
 6779 013f 00       		.byte	0
 6780 0140 1A       		.uleb128 0x1a
 6781 0141 05       		.uleb128 0x5
ARM GAS  C:\Users\haske\AppData\Local\Temp\cc5ISl1k.s 			page 135


 6782 0142 00       		.byte	0
 6783 0143 03       		.uleb128 0x3
 6784 0144 08       		.uleb128 0x8
 6785 0145 3A       		.uleb128 0x3a
 6786 0146 0B       		.uleb128 0xb
 6787 0147 3B       		.uleb128 0x3b
 6788 0148 0B       		.uleb128 0xb
 6789 0149 49       		.uleb128 0x49
 6790 014a 13       		.uleb128 0x13
 6791 014b 02       		.uleb128 0x2
 6792 014c 17       		.uleb128 0x17
 6793 014d 00       		.byte	0
 6794 014e 00       		.byte	0
 6795 014f 1B       		.uleb128 0x1b
 6796 0150 05       		.uleb128 0x5
 6797 0151 00       		.byte	0
 6798 0152 03       		.uleb128 0x3
 6799 0153 0E       		.uleb128 0xe
 6800 0154 3A       		.uleb128 0x3a
 6801 0155 0B       		.uleb128 0xb
 6802 0156 3B       		.uleb128 0x3b
 6803 0157 0B       		.uleb128 0xb
 6804 0158 49       		.uleb128 0x49
 6805 0159 13       		.uleb128 0x13
 6806 015a 02       		.uleb128 0x2
 6807 015b 17       		.uleb128 0x17
 6808 015c 00       		.byte	0
 6809 015d 00       		.byte	0
 6810 015e 1C       		.uleb128 0x1c
 6811 015f 34       		.uleb128 0x34
 6812 0160 00       		.byte	0
 6813 0161 03       		.uleb128 0x3
 6814 0162 0E       		.uleb128 0xe
 6815 0163 3A       		.uleb128 0x3a
 6816 0164 0B       		.uleb128 0xb
 6817 0165 3B       		.uleb128 0x3b
 6818 0166 0B       		.uleb128 0xb
 6819 0167 49       		.uleb128 0x49
 6820 0168 13       		.uleb128 0x13
 6821 0169 02       		.uleb128 0x2
 6822 016a 17       		.uleb128 0x17
 6823 016b 00       		.byte	0
 6824 016c 00       		.byte	0
 6825 016d 1D       		.uleb128 0x1d
 6826 016e 0B       		.uleb128 0xb
 6827 016f 01       		.byte	0x1
 6828 0170 55       		.uleb128 0x55
 6829 0171 17       		.uleb128 0x17
 6830 0172 00       		.byte	0
 6831 0173 00       		.byte	0
 6832 0174 1E       		.uleb128 0x1e
 6833 0175 34       		.uleb128 0x34
 6834 0176 00       		.byte	0
 6835 0177 03       		.uleb128 0x3
 6836 0178 08       		.uleb128 0x8
 6837 0179 3A       		.uleb128 0x3a
 6838 017a 0B       		.uleb128 0xb
ARM GAS  C:\Users\haske\AppData\Local\Temp\cc5ISl1k.s 			page 136


 6839 017b 3B       		.uleb128 0x3b
 6840 017c 0B       		.uleb128 0xb
 6841 017d 49       		.uleb128 0x49
 6842 017e 13       		.uleb128 0x13
 6843 017f 02       		.uleb128 0x2
 6844 0180 17       		.uleb128 0x17
 6845 0181 00       		.byte	0
 6846 0182 00       		.byte	0
 6847 0183 1F       		.uleb128 0x1f
 6848 0184 898201   		.uleb128 0x4109
 6849 0187 01       		.byte	0x1
 6850 0188 11       		.uleb128 0x11
 6851 0189 01       		.uleb128 0x1
 6852 018a 31       		.uleb128 0x31
 6853 018b 13       		.uleb128 0x13
 6854 018c 00       		.byte	0
 6855 018d 00       		.byte	0
 6856 018e 20       		.uleb128 0x20
 6857 018f 8A8201   		.uleb128 0x410a
 6858 0192 00       		.byte	0
 6859 0193 02       		.uleb128 0x2
 6860 0194 18       		.uleb128 0x18
 6861 0195 9142     		.uleb128 0x2111
 6862 0197 18       		.uleb128 0x18
 6863 0198 00       		.byte	0
 6864 0199 00       		.byte	0
 6865 019a 21       		.uleb128 0x21
 6866 019b 34       		.uleb128 0x34
 6867 019c 00       		.byte	0
 6868 019d 03       		.uleb128 0x3
 6869 019e 0E       		.uleb128 0xe
 6870 019f 3A       		.uleb128 0x3a
 6871 01a0 0B       		.uleb128 0xb
 6872 01a1 3B       		.uleb128 0x3b
 6873 01a2 0B       		.uleb128 0xb
 6874 01a3 49       		.uleb128 0x49
 6875 01a4 13       		.uleb128 0x13
 6876 01a5 02       		.uleb128 0x2
 6877 01a6 18       		.uleb128 0x18
 6878 01a7 00       		.byte	0
 6879 01a8 00       		.byte	0
 6880 01a9 22       		.uleb128 0x22
 6881 01aa 0B       		.uleb128 0xb
 6882 01ab 01       		.byte	0x1
 6883 01ac 55       		.uleb128 0x55
 6884 01ad 17       		.uleb128 0x17
 6885 01ae 01       		.uleb128 0x1
 6886 01af 13       		.uleb128 0x13
 6887 01b0 00       		.byte	0
 6888 01b1 00       		.byte	0
 6889 01b2 23       		.uleb128 0x23
 6890 01b3 34       		.uleb128 0x34
 6891 01b4 00       		.byte	0
 6892 01b5 03       		.uleb128 0x3
 6893 01b6 0E       		.uleb128 0xe
 6894 01b7 3A       		.uleb128 0x3a
 6895 01b8 0B       		.uleb128 0xb
ARM GAS  C:\Users\haske\AppData\Local\Temp\cc5ISl1k.s 			page 137


 6896 01b9 3B       		.uleb128 0x3b
 6897 01ba 05       		.uleb128 0x5
 6898 01bb 49       		.uleb128 0x49
 6899 01bc 13       		.uleb128 0x13
 6900 01bd 02       		.uleb128 0x2
 6901 01be 17       		.uleb128 0x17
 6902 01bf 00       		.byte	0
 6903 01c0 00       		.byte	0
 6904 01c1 24       		.uleb128 0x24
 6905 01c2 898201   		.uleb128 0x4109
 6906 01c5 01       		.byte	0x1
 6907 01c6 11       		.uleb128 0x11
 6908 01c7 01       		.uleb128 0x1
 6909 01c8 31       		.uleb128 0x31
 6910 01c9 13       		.uleb128 0x13
 6911 01ca 01       		.uleb128 0x1
 6912 01cb 13       		.uleb128 0x13
 6913 01cc 00       		.byte	0
 6914 01cd 00       		.byte	0
 6915 01ce 25       		.uleb128 0x25
 6916 01cf 34       		.uleb128 0x34
 6917 01d0 00       		.byte	0
 6918 01d1 03       		.uleb128 0x3
 6919 01d2 08       		.uleb128 0x8
 6920 01d3 3A       		.uleb128 0x3a
 6921 01d4 0B       		.uleb128 0xb
 6922 01d5 3B       		.uleb128 0x3b
 6923 01d6 05       		.uleb128 0x5
 6924 01d7 49       		.uleb128 0x49
 6925 01d8 13       		.uleb128 0x13
 6926 01d9 02       		.uleb128 0x2
 6927 01da 17       		.uleb128 0x17
 6928 01db 00       		.byte	0
 6929 01dc 00       		.byte	0
 6930 01dd 26       		.uleb128 0x26
 6931 01de 898201   		.uleb128 0x4109
 6932 01e1 00       		.byte	0
 6933 01e2 11       		.uleb128 0x11
 6934 01e3 01       		.uleb128 0x1
 6935 01e4 31       		.uleb128 0x31
 6936 01e5 13       		.uleb128 0x13
 6937 01e6 00       		.byte	0
 6938 01e7 00       		.byte	0
 6939 01e8 27       		.uleb128 0x27
 6940 01e9 2E       		.uleb128 0x2e
 6941 01ea 01       		.byte	0x1
 6942 01eb 03       		.uleb128 0x3
 6943 01ec 0E       		.uleb128 0xe
 6944 01ed 3A       		.uleb128 0x3a
 6945 01ee 0B       		.uleb128 0xb
 6946 01ef 3B       		.uleb128 0x3b
 6947 01f0 05       		.uleb128 0x5
 6948 01f1 27       		.uleb128 0x27
 6949 01f2 19       		.uleb128 0x19
 6950 01f3 49       		.uleb128 0x49
 6951 01f4 13       		.uleb128 0x13
 6952 01f5 11       		.uleb128 0x11
ARM GAS  C:\Users\haske\AppData\Local\Temp\cc5ISl1k.s 			page 138


 6953 01f6 01       		.uleb128 0x1
 6954 01f7 12       		.uleb128 0x12
 6955 01f8 06       		.uleb128 0x6
 6956 01f9 40       		.uleb128 0x40
 6957 01fa 18       		.uleb128 0x18
 6958 01fb 9742     		.uleb128 0x2117
 6959 01fd 19       		.uleb128 0x19
 6960 01fe 01       		.uleb128 0x1
 6961 01ff 13       		.uleb128 0x13
 6962 0200 00       		.byte	0
 6963 0201 00       		.byte	0
 6964 0202 28       		.uleb128 0x28
 6965 0203 05       		.uleb128 0x5
 6966 0204 00       		.byte	0
 6967 0205 03       		.uleb128 0x3
 6968 0206 08       		.uleb128 0x8
 6969 0207 3A       		.uleb128 0x3a
 6970 0208 0B       		.uleb128 0xb
 6971 0209 3B       		.uleb128 0x3b
 6972 020a 05       		.uleb128 0x5
 6973 020b 49       		.uleb128 0x49
 6974 020c 13       		.uleb128 0x13
 6975 020d 02       		.uleb128 0x2
 6976 020e 17       		.uleb128 0x17
 6977 020f 00       		.byte	0
 6978 0210 00       		.byte	0
 6979 0211 29       		.uleb128 0x29
 6980 0212 05       		.uleb128 0x5
 6981 0213 00       		.byte	0
 6982 0214 03       		.uleb128 0x3
 6983 0215 0E       		.uleb128 0xe
 6984 0216 3A       		.uleb128 0x3a
 6985 0217 0B       		.uleb128 0xb
 6986 0218 3B       		.uleb128 0x3b
 6987 0219 05       		.uleb128 0x5
 6988 021a 49       		.uleb128 0x49
 6989 021b 13       		.uleb128 0x13
 6990 021c 02       		.uleb128 0x2
 6991 021d 17       		.uleb128 0x17
 6992 021e 00       		.byte	0
 6993 021f 00       		.byte	0
 6994 0220 2A       		.uleb128 0x2a
 6995 0221 34       		.uleb128 0x34
 6996 0222 00       		.byte	0
 6997 0223 03       		.uleb128 0x3
 6998 0224 0E       		.uleb128 0xe
 6999 0225 3A       		.uleb128 0x3a
 7000 0226 0B       		.uleb128 0xb
 7001 0227 3B       		.uleb128 0x3b
 7002 0228 05       		.uleb128 0x5
 7003 0229 49       		.uleb128 0x49
 7004 022a 13       		.uleb128 0x13
 7005 022b 02       		.uleb128 0x2
 7006 022c 18       		.uleb128 0x18
 7007 022d 00       		.byte	0
 7008 022e 00       		.byte	0
 7009 022f 2B       		.uleb128 0x2b
ARM GAS  C:\Users\haske\AppData\Local\Temp\cc5ISl1k.s 			page 139


 7010 0230 05       		.uleb128 0x5
 7011 0231 00       		.byte	0
 7012 0232 03       		.uleb128 0x3
 7013 0233 0E       		.uleb128 0xe
 7014 0234 3A       		.uleb128 0x3a
 7015 0235 0B       		.uleb128 0xb
 7016 0236 3B       		.uleb128 0x3b
 7017 0237 05       		.uleb128 0x5
 7018 0238 49       		.uleb128 0x49
 7019 0239 13       		.uleb128 0x13
 7020 023a 02       		.uleb128 0x2
 7021 023b 18       		.uleb128 0x18
 7022 023c 00       		.byte	0
 7023 023d 00       		.byte	0
 7024 023e 2C       		.uleb128 0x2c
 7025 023f 34       		.uleb128 0x34
 7026 0240 00       		.byte	0
 7027 0241 03       		.uleb128 0x3
 7028 0242 08       		.uleb128 0x8
 7029 0243 3A       		.uleb128 0x3a
 7030 0244 0B       		.uleb128 0xb
 7031 0245 3B       		.uleb128 0x3b
 7032 0246 05       		.uleb128 0x5
 7033 0247 49       		.uleb128 0x49
 7034 0248 13       		.uleb128 0x13
 7035 0249 02       		.uleb128 0x2
 7036 024a 18       		.uleb128 0x18
 7037 024b 00       		.byte	0
 7038 024c 00       		.byte	0
 7039 024d 2D       		.uleb128 0x2d
 7040 024e 0B       		.uleb128 0xb
 7041 024f 01       		.byte	0x1
 7042 0250 11       		.uleb128 0x11
 7043 0251 01       		.uleb128 0x1
 7044 0252 12       		.uleb128 0x12
 7045 0253 06       		.uleb128 0x6
 7046 0254 00       		.byte	0
 7047 0255 00       		.byte	0
 7048 0256 2E       		.uleb128 0x2e
 7049 0257 2E       		.uleb128 0x2e
 7050 0258 01       		.byte	0x1
 7051 0259 3F       		.uleb128 0x3f
 7052 025a 19       		.uleb128 0x19
 7053 025b 03       		.uleb128 0x3
 7054 025c 0E       		.uleb128 0xe
 7055 025d 3A       		.uleb128 0x3a
 7056 025e 0B       		.uleb128 0xb
 7057 025f 3B       		.uleb128 0x3b
 7058 0260 0B       		.uleb128 0xb
 7059 0261 27       		.uleb128 0x27
 7060 0262 19       		.uleb128 0x19
 7061 0263 11       		.uleb128 0x11
 7062 0264 01       		.uleb128 0x1
 7063 0265 12       		.uleb128 0x12
 7064 0266 06       		.uleb128 0x6
 7065 0267 40       		.uleb128 0x40
 7066 0268 18       		.uleb128 0x18
ARM GAS  C:\Users\haske\AppData\Local\Temp\cc5ISl1k.s 			page 140


 7067 0269 9742     		.uleb128 0x2117
 7068 026b 19       		.uleb128 0x19
 7069 026c 01       		.uleb128 0x1
 7070 026d 13       		.uleb128 0x13
 7071 026e 00       		.byte	0
 7072 026f 00       		.byte	0
 7073 0270 2F       		.uleb128 0x2f
 7074 0271 0B       		.uleb128 0xb
 7075 0272 01       		.byte	0x1
 7076 0273 11       		.uleb128 0x11
 7077 0274 01       		.uleb128 0x1
 7078 0275 12       		.uleb128 0x12
 7079 0276 06       		.uleb128 0x6
 7080 0277 01       		.uleb128 0x1
 7081 0278 13       		.uleb128 0x13
 7082 0279 00       		.byte	0
 7083 027a 00       		.byte	0
 7084 027b 30       		.uleb128 0x30
 7085 027c 2E       		.uleb128 0x2e
 7086 027d 01       		.byte	0x1
 7087 027e 3F       		.uleb128 0x3f
 7088 027f 19       		.uleb128 0x19
 7089 0280 03       		.uleb128 0x3
 7090 0281 0E       		.uleb128 0xe
 7091 0282 3A       		.uleb128 0x3a
 7092 0283 0B       		.uleb128 0xb
 7093 0284 3B       		.uleb128 0x3b
 7094 0285 05       		.uleb128 0x5
 7095 0286 27       		.uleb128 0x27
 7096 0287 19       		.uleb128 0x19
 7097 0288 49       		.uleb128 0x49
 7098 0289 13       		.uleb128 0x13
 7099 028a 11       		.uleb128 0x11
 7100 028b 01       		.uleb128 0x1
 7101 028c 12       		.uleb128 0x12
 7102 028d 06       		.uleb128 0x6
 7103 028e 40       		.uleb128 0x40
 7104 028f 18       		.uleb128 0x18
 7105 0290 9742     		.uleb128 0x2117
 7106 0292 19       		.uleb128 0x19
 7107 0293 01       		.uleb128 0x1
 7108 0294 13       		.uleb128 0x13
 7109 0295 00       		.byte	0
 7110 0296 00       		.byte	0
 7111 0297 31       		.uleb128 0x31
 7112 0298 2E       		.uleb128 0x2e
 7113 0299 01       		.byte	0x1
 7114 029a 3F       		.uleb128 0x3f
 7115 029b 19       		.uleb128 0x19
 7116 029c 03       		.uleb128 0x3
 7117 029d 0E       		.uleb128 0xe
 7118 029e 3A       		.uleb128 0x3a
 7119 029f 0B       		.uleb128 0xb
 7120 02a0 3B       		.uleb128 0x3b
 7121 02a1 0B       		.uleb128 0xb
 7122 02a2 27       		.uleb128 0x27
 7123 02a3 19       		.uleb128 0x19
ARM GAS  C:\Users\haske\AppData\Local\Temp\cc5ISl1k.s 			page 141


 7124 02a4 49       		.uleb128 0x49
 7125 02a5 13       		.uleb128 0x13
 7126 02a6 11       		.uleb128 0x11
 7127 02a7 01       		.uleb128 0x1
 7128 02a8 12       		.uleb128 0x12
 7129 02a9 06       		.uleb128 0x6
 7130 02aa 40       		.uleb128 0x40
 7131 02ab 18       		.uleb128 0x18
 7132 02ac 9742     		.uleb128 0x2117
 7133 02ae 19       		.uleb128 0x19
 7134 02af 01       		.uleb128 0x1
 7135 02b0 13       		.uleb128 0x13
 7136 02b1 00       		.byte	0
 7137 02b2 00       		.byte	0
 7138 02b3 32       		.uleb128 0x32
 7139 02b4 34       		.uleb128 0x34
 7140 02b5 00       		.byte	0
 7141 02b6 03       		.uleb128 0x3
 7142 02b7 0E       		.uleb128 0xe
 7143 02b8 3A       		.uleb128 0x3a
 7144 02b9 0B       		.uleb128 0xb
 7145 02ba 3B       		.uleb128 0x3b
 7146 02bb 0B       		.uleb128 0xb
 7147 02bc 49       		.uleb128 0x49
 7148 02bd 13       		.uleb128 0x13
 7149 02be 3F       		.uleb128 0x3f
 7150 02bf 19       		.uleb128 0x19
 7151 02c0 3C       		.uleb128 0x3c
 7152 02c1 19       		.uleb128 0x19
 7153 02c2 00       		.byte	0
 7154 02c3 00       		.byte	0
 7155 02c4 33       		.uleb128 0x33
 7156 02c5 2E       		.uleb128 0x2e
 7157 02c6 00       		.byte	0
 7158 02c7 3F       		.uleb128 0x3f
 7159 02c8 19       		.uleb128 0x19
 7160 02c9 3C       		.uleb128 0x3c
 7161 02ca 19       		.uleb128 0x19
 7162 02cb 6E       		.uleb128 0x6e
 7163 02cc 0E       		.uleb128 0xe
 7164 02cd 03       		.uleb128 0x3
 7165 02ce 0E       		.uleb128 0xe
 7166 02cf 3A       		.uleb128 0x3a
 7167 02d0 0B       		.uleb128 0xb
 7168 02d1 3B       		.uleb128 0x3b
 7169 02d2 0B       		.uleb128 0xb
 7170 02d3 00       		.byte	0
 7171 02d4 00       		.byte	0
 7172 02d5 34       		.uleb128 0x34
 7173 02d6 2E       		.uleb128 0x2e
 7174 02d7 00       		.byte	0
 7175 02d8 3F       		.uleb128 0x3f
 7176 02d9 19       		.uleb128 0x19
 7177 02da 3C       		.uleb128 0x3c
 7178 02db 19       		.uleb128 0x19
 7179 02dc 6E       		.uleb128 0x6e
 7180 02dd 0E       		.uleb128 0xe
ARM GAS  C:\Users\haske\AppData\Local\Temp\cc5ISl1k.s 			page 142


 7181 02de 03       		.uleb128 0x3
 7182 02df 0E       		.uleb128 0xe
 7183 02e0 00       		.byte	0
 7184 02e1 00       		.byte	0
 7185 02e2 00       		.byte	0
 7186              		.section	.debug_loc,"",%progbits
 7187              	.Ldebug_loc0:
 7188              	.LLST0:
 7189 0000 00000000 		.4byte	.LVL1
 7190 0004 0A000000 		.4byte	.LVL3
 7191 0008 0100     		.2byte	0x1
 7192 000a 50       		.byte	0x50
 7193 000b 0A000000 		.4byte	.LVL3
 7194 000f 4E000000 		.4byte	.LVL10
 7195 0013 0100     		.2byte	0x1
 7196 0015 54       		.byte	0x54
 7197 0016 4E000000 		.4byte	.LVL10
 7198 001a 50000000 		.4byte	.LFE205
 7199 001e 0400     		.2byte	0x4
 7200 0020 F3       		.byte	0xf3
 7201 0021 01       		.uleb128 0x1
 7202 0022 50       		.byte	0x50
 7203 0023 9F       		.byte	0x9f
 7204 0024 00000000 		.4byte	0
 7205 0028 00000000 		.4byte	0
 7206              	.LLST1:
 7207 002c 00000000 		.4byte	.LVL1
 7208 0030 0A000000 		.4byte	.LVL3
 7209 0034 0100     		.2byte	0x1
 7210 0036 51       		.byte	0x51
 7211 0037 0A000000 		.4byte	.LVL3
 7212 003b 3E000000 		.4byte	.LVL8
 7213 003f 0100     		.2byte	0x1
 7214 0041 55       		.byte	0x55
 7215 0042 3E000000 		.4byte	.LVL8
 7216 0046 40000000 		.4byte	.LVL9
 7217 004a 0100     		.2byte	0x1
 7218 004c 51       		.byte	0x51
 7219 004d 40000000 		.4byte	.LVL9
 7220 0051 4E000000 		.4byte	.LVL11
 7221 0055 0100     		.2byte	0x1
 7222 0057 55       		.byte	0x55
 7223 0058 00000000 		.4byte	0
 7224 005c 00000000 		.4byte	0
 7225              	.LLST2:
 7226 0060 00000000 		.4byte	.LVL1
 7227 0064 0A000000 		.4byte	.LVL3
 7228 0068 0100     		.2byte	0x1
 7229 006a 52       		.byte	0x52
 7230 006b 0A000000 		.4byte	.LVL3
 7231 006f 4E000000 		.4byte	.LVL13
 7232 0073 0100     		.2byte	0x1
 7233 0075 57       		.byte	0x57
 7234 0076 4E000000 		.4byte	.LVL13
 7235 007a 50000000 		.4byte	.LFE205
 7236 007e 0400     		.2byte	0x4
 7237 0080 F3       		.byte	0xf3
ARM GAS  C:\Users\haske\AppData\Local\Temp\cc5ISl1k.s 			page 143


 7238 0081 01       		.uleb128 0x1
 7239 0082 52       		.byte	0x52
 7240 0083 9F       		.byte	0x9f
 7241 0084 00000000 		.4byte	0
 7242 0088 00000000 		.4byte	0
 7243              	.LLST3:
 7244 008c 06000000 		.4byte	.LVL2
 7245 0090 0A000000 		.4byte	.LVL3
 7246 0094 0200     		.2byte	0x2
 7247 0096 30       		.byte	0x30
 7248 0097 9F       		.byte	0x9f
 7249 0098 0A000000 		.4byte	.LVL3
 7250 009c 4E000000 		.4byte	.LVL12
 7251 00a0 0100     		.2byte	0x1
 7252 00a2 56       		.byte	0x56
 7253 00a3 00000000 		.4byte	0
 7254 00a7 00000000 		.4byte	0
 7255              	.LLST4:
 7256 00ab 38000000 		.4byte	.LVL5
 7257 00af 3A000000 		.4byte	.LVL6
 7258 00b3 0100     		.2byte	0x1
 7259 00b5 53       		.byte	0x53
 7260 00b6 3A000000 		.4byte	.LVL6
 7261 00ba 3E000000 		.4byte	.LVL8
 7262 00be 0700     		.2byte	0x7
 7263 00c0 74       		.byte	0x74
 7264 00c1 05       		.sleb128 5
 7265 00c2 94       		.byte	0x94
 7266 00c3 01       		.byte	0x1
 7267 00c4 37       		.byte	0x37
 7268 00c5 25       		.byte	0x25
 7269 00c6 9F       		.byte	0x9f
 7270 00c7 00000000 		.4byte	0
 7271 00cb 00000000 		.4byte	0
 7272              	.LLST5:
 7273 00cf 00000000 		.4byte	.LVL14
 7274 00d3 07000000 		.4byte	.LVL15-1
 7275 00d7 0100     		.2byte	0x1
 7276 00d9 50       		.byte	0x50
 7277 00da 07000000 		.4byte	.LVL15-1
 7278 00de 1C000000 		.4byte	.LFE206
 7279 00e2 0400     		.2byte	0x4
 7280 00e4 F3       		.byte	0xf3
 7281 00e5 01       		.uleb128 0x1
 7282 00e6 50       		.byte	0x50
 7283 00e7 9F       		.byte	0x9f
 7284 00e8 00000000 		.4byte	0
 7285 00ec 00000000 		.4byte	0
 7286              	.LLST6:
 7287 00f0 00000000 		.4byte	.LVL14
 7288 00f4 07000000 		.4byte	.LVL15-1
 7289 00f8 0100     		.2byte	0x1
 7290 00fa 51       		.byte	0x51
 7291 00fb 07000000 		.4byte	.LVL15-1
 7292 00ff 1A000000 		.4byte	.LVL17
 7293 0103 0100     		.2byte	0x1
 7294 0105 54       		.byte	0x54
ARM GAS  C:\Users\haske\AppData\Local\Temp\cc5ISl1k.s 			page 144


 7295 0106 1A000000 		.4byte	.LVL17
 7296 010a 1C000000 		.4byte	.LFE206
 7297 010e 0300     		.2byte	0x3
 7298 0110 72       		.byte	0x72
 7299 0111 01       		.sleb128 1
 7300 0112 9F       		.byte	0x9f
 7301 0113 00000000 		.4byte	0
 7302 0117 00000000 		.4byte	0
 7303              	.LLST7:
 7304 011b 00000000 		.4byte	.LVL14
 7305 011f 07000000 		.4byte	.LVL15-1
 7306 0123 0100     		.2byte	0x1
 7307 0125 52       		.byte	0x52
 7308 0126 07000000 		.4byte	.LVL15-1
 7309 012a 1C000000 		.4byte	.LFE206
 7310 012e 0400     		.2byte	0x4
 7311 0130 F3       		.byte	0xf3
 7312 0131 01       		.uleb128 0x1
 7313 0132 52       		.byte	0x52
 7314 0133 9F       		.byte	0x9f
 7315 0134 00000000 		.4byte	0
 7316 0138 00000000 		.4byte	0
 7317              	.LLST8:
 7318 013c 00000000 		.4byte	.LVL18
 7319 0140 1F000000 		.4byte	.LVL22-1
 7320 0144 0100     		.2byte	0x1
 7321 0146 50       		.byte	0x50
 7322 0147 1F000000 		.4byte	.LVL22-1
 7323 014b FC000000 		.4byte	.LVL53
 7324 014f 0200     		.2byte	0x2
 7325 0151 7D       		.byte	0x7d
 7326 0152 00       		.sleb128 0
 7327 0153 FC000000 		.4byte	.LVL53
 7328 0157 04010000 		.4byte	.LFE208
 7329 015b 0200     		.2byte	0x2
 7330 015d 91       		.byte	0x91
 7331 015e 58       		.sleb128 -40
 7332 015f 00000000 		.4byte	0
 7333 0163 00000000 		.4byte	0
 7334              	.LLST9:
 7335 0167 00000000 		.4byte	.LVL18
 7336 016b 1C000000 		.4byte	.LVL21
 7337 016f 0100     		.2byte	0x1
 7338 0171 51       		.byte	0x51
 7339 0172 1C000000 		.4byte	.LVL21
 7340 0176 FC000000 		.4byte	.LVL54
 7341 017a 0100     		.2byte	0x1
 7342 017c 56       		.byte	0x56
 7343 017d FC000000 		.4byte	.LVL54
 7344 0181 04010000 		.4byte	.LFE208
 7345 0185 0400     		.2byte	0x4
 7346 0187 F3       		.byte	0xf3
 7347 0188 01       		.uleb128 0x1
 7348 0189 51       		.byte	0x51
 7349 018a 9F       		.byte	0x9f
 7350 018b 00000000 		.4byte	0
 7351 018f 00000000 		.4byte	0
ARM GAS  C:\Users\haske\AppData\Local\Temp\cc5ISl1k.s 			page 145


 7352              	.LLST10:
 7353 0193 00000000 		.4byte	.LVL18
 7354 0197 14000000 		.4byte	.LVL19
 7355 019b 0100     		.2byte	0x1
 7356 019d 52       		.byte	0x52
 7357 019e 14000000 		.4byte	.LVL19
 7358 01a2 FC000000 		.4byte	.LVL56
 7359 01a6 0100     		.2byte	0x1
 7360 01a8 5A       		.byte	0x5a
 7361 01a9 FC000000 		.4byte	.LVL56
 7362 01ad 04010000 		.4byte	.LFE208
 7363 01b1 0400     		.2byte	0x4
 7364 01b3 F3       		.byte	0xf3
 7365 01b4 01       		.uleb128 0x1
 7366 01b5 52       		.byte	0x52
 7367 01b6 9F       		.byte	0x9f
 7368 01b7 00000000 		.4byte	0
 7369 01bb 00000000 		.4byte	0
 7370              	.LLST11:
 7371 01bf 00000000 		.4byte	.LVL18
 7372 01c3 1A000000 		.4byte	.LVL20
 7373 01c7 0100     		.2byte	0x1
 7374 01c9 53       		.byte	0x53
 7375 01ca 1A000000 		.4byte	.LVL20
 7376 01ce FC000000 		.4byte	.LVL55
 7377 01d2 0100     		.2byte	0x1
 7378 01d4 59       		.byte	0x59
 7379 01d5 FC000000 		.4byte	.LVL55
 7380 01d9 04010000 		.4byte	.LFE208
 7381 01dd 0400     		.2byte	0x4
 7382 01df F3       		.byte	0xf3
 7383 01e0 01       		.uleb128 0x1
 7384 01e1 53       		.byte	0x53
 7385 01e2 9F       		.byte	0x9f
 7386 01e3 00000000 		.4byte	0
 7387 01e7 00000000 		.4byte	0
 7388              	.LLST12:
 7389 01eb 28000000 		.4byte	.LVL23
 7390 01ef E4000000 		.4byte	.LVL45
 7391 01f3 0100     		.2byte	0x1
 7392 01f5 55       		.byte	0x55
 7393 01f6 E8000000 		.4byte	.LVL46
 7394 01fa FA000000 		.4byte	.LVL52
 7395 01fe 0100     		.2byte	0x1
 7396 0200 55       		.byte	0x55
 7397 0201 00000000 		.4byte	0
 7398 0205 00000000 		.4byte	0
 7399              	.LLST13:
 7400 0209 3C000000 		.4byte	.LVL24
 7401 020d 74000000 		.4byte	.LVL27
 7402 0211 0100     		.2byte	0x1
 7403 0213 50       		.byte	0x50
 7404 0214 90000000 		.4byte	.LVL32
 7405 0218 98000000 		.4byte	.LVL34
 7406 021c 0100     		.2byte	0x1
 7407 021e 50       		.byte	0x50
 7408 021f E8000000 		.4byte	.LVL46
ARM GAS  C:\Users\haske\AppData\Local\Temp\cc5ISl1k.s 			page 146


 7409 0223 EA000000 		.4byte	.LVL47
 7410 0227 0100     		.2byte	0x1
 7411 0229 50       		.byte	0x50
 7412 022a EC000000 		.4byte	.LVL48
 7413 022e EE000000 		.4byte	.LVL49
 7414 0232 0100     		.2byte	0x1
 7415 0234 50       		.byte	0x50
 7416 0235 00000000 		.4byte	0
 7417 0239 00000000 		.4byte	0
 7418              	.LLST14:
 7419 023d 4C000000 		.4byte	.LVL25
 7420 0241 D6000000 		.4byte	.LVL44
 7421 0245 0100     		.2byte	0x1
 7422 0247 54       		.byte	0x54
 7423 0248 EC000000 		.4byte	.LVL48
 7424 024c FA000000 		.4byte	.LVL52
 7425 0250 0100     		.2byte	0x1
 7426 0252 54       		.byte	0x54
 7427 0253 00000000 		.4byte	0
 7428 0257 00000000 		.4byte	0
 7429              	.LLST15:
 7430 025b 72000000 		.4byte	.LVL26
 7431 025f 90000000 		.4byte	.LVL32
 7432 0263 0100     		.2byte	0x1
 7433 0265 57       		.byte	0x57
 7434 0266 F0000000 		.4byte	.LVL50
 7435 026a F4000000 		.4byte	.LVL51
 7436 026e 0100     		.2byte	0x1
 7437 0270 57       		.byte	0x57
 7438 0271 00000000 		.4byte	0
 7439 0275 00000000 		.4byte	0
 7440              	.LLST16:
 7441 0279 7A000000 		.4byte	.LVL29
 7442 027d 82000000 		.4byte	.LVL30
 7443 0281 0100     		.2byte	0x1
 7444 0283 50       		.byte	0x50
 7445 0284 82000000 		.4byte	.LVL30
 7446 0288 85000000 		.4byte	.LVL31-1
 7447 028c 0100     		.2byte	0x1
 7448 028e 51       		.byte	0x51
 7449 028f 00000000 		.4byte	0
 7450 0293 00000000 		.4byte	0
 7451              	.LLST17:
 7452 0297 94000000 		.4byte	.LVL33
 7453 029b 9B000000 		.4byte	.LVL35-1
 7454 029f 0100     		.2byte	0x1
 7455 02a1 53       		.byte	0x53
 7456 02a2 9B000000 		.4byte	.LVL35-1
 7457 02a6 D4000000 		.4byte	.LVL43
 7458 02aa 0200     		.2byte	0x2
 7459 02ac 91       		.byte	0x91
 7460 02ad 5C       		.sleb128 -36
 7461 02ae F4000000 		.4byte	.LVL51
 7462 02b2 FA000000 		.4byte	.LVL52
 7463 02b6 0200     		.2byte	0x2
 7464 02b8 91       		.byte	0x91
 7465 02b9 5C       		.sleb128 -36
ARM GAS  C:\Users\haske\AppData\Local\Temp\cc5ISl1k.s 			page 147


 7466 02ba 00000000 		.4byte	0
 7467 02be 00000000 		.4byte	0
 7468              	.LLST18:
 7469 02c2 9E000000 		.4byte	.LVL36
 7470 02c6 AA000000 		.4byte	.LVL37
 7471 02ca 0100     		.2byte	0x1
 7472 02cc 50       		.byte	0x50
 7473 02cd AA000000 		.4byte	.LVL37
 7474 02d1 AD000000 		.4byte	.LVL38-1
 7475 02d5 0100     		.2byte	0x1
 7476 02d7 51       		.byte	0x51
 7477 02d8 00000000 		.4byte	0
 7478 02dc 00000000 		.4byte	0
 7479              	.LLST19:
 7480 02e0 C2000000 		.4byte	.LVL40
 7481 02e4 CC000000 		.4byte	.LVL41
 7482 02e8 0100     		.2byte	0x1
 7483 02ea 50       		.byte	0x50
 7484 02eb CC000000 		.4byte	.LVL41
 7485 02ef CF000000 		.4byte	.LVL42-1
 7486 02f3 0100     		.2byte	0x1
 7487 02f5 51       		.byte	0x51
 7488 02f6 00000000 		.4byte	0
 7489 02fa 00000000 		.4byte	0
 7490              	.LLST20:
 7491 02fe 00000000 		.4byte	.LVL57
 7492 0302 0D000000 		.4byte	.LVL59-1
 7493 0306 0100     		.2byte	0x1
 7494 0308 50       		.byte	0x50
 7495 0309 0D000000 		.4byte	.LVL59-1
 7496 030d 52000000 		.4byte	.LVL63
 7497 0311 0100     		.2byte	0x1
 7498 0313 54       		.byte	0x54
 7499 0314 52000000 		.4byte	.LVL63
 7500 0318 54000000 		.4byte	.LFE207
 7501 031c 0400     		.2byte	0x4
 7502 031e F3       		.byte	0xf3
 7503 031f 01       		.uleb128 0x1
 7504 0320 50       		.byte	0x50
 7505 0321 9F       		.byte	0x9f
 7506 0322 00000000 		.4byte	0
 7507 0326 00000000 		.4byte	0
 7508              	.LLST21:
 7509 032a 00000000 		.4byte	.LVL57
 7510 032e 0D000000 		.4byte	.LVL59-1
 7511 0332 0100     		.2byte	0x1
 7512 0334 51       		.byte	0x51
 7513 0335 0D000000 		.4byte	.LVL59-1
 7514 0339 54000000 		.4byte	.LFE207
 7515 033d 0400     		.2byte	0x4
 7516 033f F3       		.byte	0xf3
 7517 0340 01       		.uleb128 0x1
 7518 0341 51       		.byte	0x51
 7519 0342 9F       		.byte	0x9f
 7520 0343 00000000 		.4byte	0
 7521 0347 00000000 		.4byte	0
 7522              	.LLST22:
ARM GAS  C:\Users\haske\AppData\Local\Temp\cc5ISl1k.s 			page 148


 7523 034b 00000000 		.4byte	.LVL57
 7524 034f 0A000000 		.4byte	.LVL58
 7525 0353 0100     		.2byte	0x1
 7526 0355 52       		.byte	0x52
 7527 0356 0A000000 		.4byte	.LVL58
 7528 035a 52000000 		.4byte	.LVL64
 7529 035e 0100     		.2byte	0x1
 7530 0360 55       		.byte	0x55
 7531 0361 52000000 		.4byte	.LVL64
 7532 0365 54000000 		.4byte	.LFE207
 7533 0369 0400     		.2byte	0x4
 7534 036b F3       		.byte	0xf3
 7535 036c 01       		.uleb128 0x1
 7536 036d 52       		.byte	0x52
 7537 036e 9F       		.byte	0x9f
 7538 036f 00000000 		.4byte	0
 7539 0373 00000000 		.4byte	0
 7540              	.LLST23:
 7541 0377 00000000 		.4byte	.LVL65
 7542 037b 13000000 		.4byte	.LVL68-1
 7543 037f 0100     		.2byte	0x1
 7544 0381 50       		.byte	0x50
 7545 0382 13000000 		.4byte	.LVL68-1
 7546 0386 6C000000 		.4byte	.LVL79
 7547 038a 0100     		.2byte	0x1
 7548 038c 55       		.byte	0x55
 7549 038d 6C000000 		.4byte	.LVL79
 7550 0391 7C000000 		.4byte	.LVL81
 7551 0395 0400     		.2byte	0x4
 7552 0397 F3       		.byte	0xf3
 7553 0398 01       		.uleb128 0x1
 7554 0399 50       		.byte	0x50
 7555 039a 9F       		.byte	0x9f
 7556 039b 7C000000 		.4byte	.LVL81
 7557 039f 88000000 		.4byte	.LVL83
 7558 03a3 0100     		.2byte	0x1
 7559 03a5 55       		.byte	0x55
 7560 03a6 88000000 		.4byte	.LVL83
 7561 03aa 94000000 		.4byte	.LFE209
 7562 03ae 0400     		.2byte	0x4
 7563 03b0 F3       		.byte	0xf3
 7564 03b1 01       		.uleb128 0x1
 7565 03b2 50       		.byte	0x50
 7566 03b3 9F       		.byte	0x9f
 7567 03b4 00000000 		.4byte	0
 7568 03b8 00000000 		.4byte	0
 7569              	.LLST24:
 7570 03bc 00000000 		.4byte	.LVL65
 7571 03c0 10000000 		.4byte	.LVL67
 7572 03c4 0100     		.2byte	0x1
 7573 03c6 51       		.byte	0x51
 7574 03c7 10000000 		.4byte	.LVL67
 7575 03cb 8C000000 		.4byte	.LVL86
 7576 03cf 0100     		.2byte	0x1
 7577 03d1 56       		.byte	0x56
 7578 03d2 8C000000 		.4byte	.LVL86
 7579 03d6 94000000 		.4byte	.LFE209
ARM GAS  C:\Users\haske\AppData\Local\Temp\cc5ISl1k.s 			page 149


 7580 03da 0400     		.2byte	0x4
 7581 03dc F3       		.byte	0xf3
 7582 03dd 01       		.uleb128 0x1
 7583 03de 51       		.byte	0x51
 7584 03df 9F       		.byte	0x9f
 7585 03e0 00000000 		.4byte	0
 7586 03e4 00000000 		.4byte	0
 7587              	.LLST25:
 7588 03e8 00000000 		.4byte	.LVL65
 7589 03ec 0C000000 		.4byte	.LVL66
 7590 03f0 0100     		.2byte	0x1
 7591 03f2 52       		.byte	0x52
 7592 03f3 0C000000 		.4byte	.LVL66
 7593 03f7 13000000 		.4byte	.LVL68-1
 7594 03fb 0100     		.2byte	0x1
 7595 03fd 53       		.byte	0x53
 7596 03fe 13000000 		.4byte	.LVL68-1
 7597 0402 94000000 		.4byte	.LFE209
 7598 0406 0200     		.2byte	0x2
 7599 0408 91       		.byte	0x91
 7600 0409 5C       		.sleb128 -36
 7601 040a 00000000 		.4byte	0
 7602 040e 00000000 		.4byte	0
 7603              	.LLST26:
 7604 0412 16000000 		.4byte	.LVL69
 7605 0416 20000000 		.4byte	.LVL70
 7606 041a 0100     		.2byte	0x1
 7607 041c 50       		.byte	0x50
 7608 041d 20000000 		.4byte	.LVL70
 7609 0421 7C000000 		.4byte	.LVL81
 7610 0425 0100     		.2byte	0x1
 7611 0427 54       		.byte	0x54
 7612 0428 7C000000 		.4byte	.LVL81
 7613 042c 7E000000 		.4byte	.LVL82
 7614 0430 0100     		.2byte	0x1
 7615 0432 50       		.byte	0x50
 7616 0433 7E000000 		.4byte	.LVL82
 7617 0437 8C000000 		.4byte	.LVL85
 7618 043b 0100     		.2byte	0x1
 7619 043d 54       		.byte	0x54
 7620 043e 00000000 		.4byte	0
 7621 0442 00000000 		.4byte	0
 7622              	.LLST27:
 7623 0446 36000000 		.4byte	.LVL73
 7624 044a 43000000 		.4byte	.LVL74-1
 7625 044e 0100     		.2byte	0x1
 7626 0450 50       		.byte	0x50
 7627 0451 43000000 		.4byte	.LVL74-1
 7628 0455 5E000000 		.4byte	.LVL76
 7629 0459 0100     		.2byte	0x1
 7630 045b 57       		.byte	0x57
 7631 045c 00000000 		.4byte	0
 7632 0460 00000000 		.4byte	0
 7633              	.LLST28:
 7634 0464 5E000000 		.4byte	.LVL76
 7635 0468 66000000 		.4byte	.LVL77
 7636 046c 0100     		.2byte	0x1
ARM GAS  C:\Users\haske\AppData\Local\Temp\cc5ISl1k.s 			page 150


 7637 046e 50       		.byte	0x50
 7638 046f 66000000 		.4byte	.LVL77
 7639 0473 69000000 		.4byte	.LVL78-1
 7640 0477 0100     		.2byte	0x1
 7641 0479 53       		.byte	0x53
 7642 047a 69000000 		.4byte	.LVL78-1
 7643 047e 7C000000 		.4byte	.LVL81
 7644 0482 0100     		.2byte	0x1
 7645 0484 57       		.byte	0x57
 7646 0485 88000000 		.4byte	.LVL83
 7647 0489 8A000000 		.4byte	.LVL84
 7648 048d 0100     		.2byte	0x1
 7649 048f 57       		.byte	0x57
 7650 0490 00000000 		.4byte	0
 7651 0494 00000000 		.4byte	0
 7652              	.LLST29:
 7653 0498 6C000000 		.4byte	.LVL79
 7654 049c 7C000000 		.4byte	.LVL81
 7655 04a0 0100     		.2byte	0x1
 7656 04a2 55       		.byte	0x55
 7657 04a3 88000000 		.4byte	.LVL83
 7658 04a7 8A000000 		.4byte	.LVL84
 7659 04ab 0100     		.2byte	0x1
 7660 04ad 55       		.byte	0x55
 7661 04ae 00000000 		.4byte	0
 7662 04b2 00000000 		.4byte	0
 7663              	.LLST30:
 7664 04b6 00000000 		.4byte	.LVL87
 7665 04ba 1F000000 		.4byte	.LVL90-1
 7666 04be 0100     		.2byte	0x1
 7667 04c0 50       		.byte	0x50
 7668 04c1 1F000000 		.4byte	.LVL90-1
 7669 04c5 52000000 		.4byte	.LVL97
 7670 04c9 0300     		.2byte	0x3
 7671 04cb 91       		.byte	0x91
 7672 04cc AC7F     		.sleb128 -84
 7673 04ce 52000000 		.4byte	.LVL97
 7674 04d2 18030000 		.4byte	.LVL142
 7675 04d6 0400     		.2byte	0x4
 7676 04d8 F3       		.byte	0xf3
 7677 04d9 01       		.uleb128 0x1
 7678 04da 50       		.byte	0x50
 7679 04db 9F       		.byte	0x9f
 7680 04dc 18030000 		.4byte	.LVL142
 7681 04e0 1C030000 		.4byte	.LVL144
 7682 04e4 0300     		.2byte	0x3
 7683 04e6 91       		.byte	0x91
 7684 04e7 AC7F     		.sleb128 -84
 7685 04e9 1C030000 		.4byte	.LVL144
 7686 04ed 30030000 		.4byte	.LFE210
 7687 04f1 0400     		.2byte	0x4
 7688 04f3 F3       		.byte	0xf3
 7689 04f4 01       		.uleb128 0x1
 7690 04f5 50       		.byte	0x50
 7691 04f6 9F       		.byte	0x9f
 7692 04f7 00000000 		.4byte	0
 7693 04fb 00000000 		.4byte	0
ARM GAS  C:\Users\haske\AppData\Local\Temp\cc5ISl1k.s 			page 151


 7694              	.LLST31:
 7695 04ff 00000000 		.4byte	.LVL87
 7696 0503 14000000 		.4byte	.LVL88
 7697 0507 0100     		.2byte	0x1
 7698 0509 51       		.byte	0x51
 7699 050a 14000000 		.4byte	.LVL88
 7700 050e 52000000 		.4byte	.LVL97
 7701 0512 0100     		.2byte	0x1
 7702 0514 58       		.byte	0x58
 7703 0515 52000000 		.4byte	.LVL97
 7704 0519 18030000 		.4byte	.LVL142
 7705 051d 0400     		.2byte	0x4
 7706 051f F3       		.byte	0xf3
 7707 0520 01       		.uleb128 0x1
 7708 0521 51       		.byte	0x51
 7709 0522 9F       		.byte	0x9f
 7710 0523 18030000 		.4byte	.LVL142
 7711 0527 1C030000 		.4byte	.LVL144
 7712 052b 0100     		.2byte	0x1
 7713 052d 58       		.byte	0x58
 7714 052e 1C030000 		.4byte	.LVL144
 7715 0532 30030000 		.4byte	.LFE210
 7716 0536 0400     		.2byte	0x4
 7717 0538 F3       		.byte	0xf3
 7718 0539 01       		.uleb128 0x1
 7719 053a 51       		.byte	0x51
 7720 053b 9F       		.byte	0x9f
 7721 053c 00000000 		.4byte	0
 7722 0540 00000000 		.4byte	0
 7723              	.LLST32:
 7724 0544 00000000 		.4byte	.LVL87
 7725 0548 1C000000 		.4byte	.LVL89
 7726 054c 0100     		.2byte	0x1
 7727 054e 52       		.byte	0x52
 7728 054f 1C000000 		.4byte	.LVL89
 7729 0553 1F000000 		.4byte	.LVL90-1
 7730 0557 0100     		.2byte	0x1
 7731 0559 51       		.byte	0x51
 7732 055a 1F000000 		.4byte	.LVL90-1
 7733 055e 52000000 		.4byte	.LVL97
 7734 0562 0300     		.2byte	0x3
 7735 0564 91       		.byte	0x91
 7736 0565 B07F     		.sleb128 -80
 7737 0567 52000000 		.4byte	.LVL97
 7738 056b 18030000 		.4byte	.LVL142
 7739 056f 0400     		.2byte	0x4
 7740 0571 F3       		.byte	0xf3
 7741 0572 01       		.uleb128 0x1
 7742 0573 52       		.byte	0x52
 7743 0574 9F       		.byte	0x9f
 7744 0575 18030000 		.4byte	.LVL142
 7745 0579 1C030000 		.4byte	.LVL144
 7746 057d 0300     		.2byte	0x3
 7747 057f 91       		.byte	0x91
 7748 0580 B07F     		.sleb128 -80
 7749 0582 1C030000 		.4byte	.LVL144
 7750 0586 30030000 		.4byte	.LFE210
ARM GAS  C:\Users\haske\AppData\Local\Temp\cc5ISl1k.s 			page 152


 7751 058a 0400     		.2byte	0x4
 7752 058c F3       		.byte	0xf3
 7753 058d 01       		.uleb128 0x1
 7754 058e 52       		.byte	0x52
 7755 058f 9F       		.byte	0x9f
 7756 0590 00000000 		.4byte	0
 7757 0594 00000000 		.4byte	0
 7758              	.LLST33:
 7759 0598 00000000 		.4byte	.LVL87
 7760 059c 1F000000 		.4byte	.LVL90-1
 7761 05a0 0100     		.2byte	0x1
 7762 05a2 53       		.byte	0x53
 7763 05a3 1F000000 		.4byte	.LVL90-1
 7764 05a7 E2010000 		.4byte	.LVL119
 7765 05ab 0100     		.2byte	0x1
 7766 05ad 5B       		.byte	0x5b
 7767 05ae E2010000 		.4byte	.LVL119
 7768 05b2 E4010000 		.4byte	.LVL120
 7769 05b6 0100     		.2byte	0x1
 7770 05b8 53       		.byte	0x53
 7771 05b9 E4010000 		.4byte	.LVL120
 7772 05bd 18030000 		.4byte	.LVL142
 7773 05c1 0200     		.2byte	0x2
 7774 05c3 91       		.byte	0x91
 7775 05c4 40       		.sleb128 -64
 7776 05c5 18030000 		.4byte	.LVL142
 7777 05c9 1C030000 		.4byte	.LVL144
 7778 05cd 0100     		.2byte	0x1
 7779 05cf 5B       		.byte	0x5b
 7780 05d0 1C030000 		.4byte	.LVL144
 7781 05d4 30030000 		.4byte	.LFE210
 7782 05d8 0400     		.2byte	0x4
 7783 05da F3       		.byte	0xf3
 7784 05db 01       		.uleb128 0x1
 7785 05dc 53       		.byte	0x53
 7786 05dd 9F       		.byte	0x9f
 7787 05de 00000000 		.4byte	0
 7788 05e2 00000000 		.4byte	0
 7789              	.LLST34:
 7790 05e6 22000000 		.4byte	.LVL91
 7791 05ea 2E000000 		.4byte	.LVL92
 7792 05ee 0100     		.2byte	0x1
 7793 05f0 50       		.byte	0x50
 7794 05f1 2E000000 		.4byte	.LVL92
 7795 05f5 52000000 		.4byte	.LVL97
 7796 05f9 0300     		.2byte	0x3
 7797 05fb 91       		.byte	0x91
 7798 05fc B87F     		.sleb128 -72
 7799 05fe 18030000 		.4byte	.LVL142
 7800 0602 1A030000 		.4byte	.LVL143
 7801 0606 0100     		.2byte	0x1
 7802 0608 50       		.byte	0x50
 7803 0609 1A030000 		.4byte	.LVL143
 7804 060d 1C030000 		.4byte	.LVL144
 7805 0611 0300     		.2byte	0x3
 7806 0613 91       		.byte	0x91
 7807 0614 B87F     		.sleb128 -72
ARM GAS  C:\Users\haske\AppData\Local\Temp\cc5ISl1k.s 			page 153


 7808 0616 00000000 		.4byte	0
 7809 061a 00000000 		.4byte	0
 7810              	.LLST35:
 7811 061e 36000000 		.4byte	.LVL94
 7812 0622 3D000000 		.4byte	.LVL95-1
 7813 0626 0100     		.2byte	0x1
 7814 0628 50       		.byte	0x50
 7815 0629 3D000000 		.4byte	.LVL95-1
 7816 062d 52000000 		.4byte	.LVL97
 7817 0631 0100     		.2byte	0x1
 7818 0633 55       		.byte	0x55
 7819 0634 00000000 		.4byte	0
 7820 0638 00000000 		.4byte	0
 7821              	.LLST36:
 7822 063c 42000000 		.4byte	.LVL96
 7823 0640 52000000 		.4byte	.LVL97
 7824 0644 0200     		.2byte	0x2
 7825 0646 30       		.byte	0x30
 7826 0647 9F       		.byte	0x9f
 7827 0648 52000000 		.4byte	.LVL97
 7828 064c D4010000 		.4byte	.LVL118
 7829 0650 0100     		.2byte	0x1
 7830 0652 5A       		.byte	0x5a
 7831 0653 D4010000 		.4byte	.LVL118
 7832 0657 E4010000 		.4byte	.LVL120
 7833 065b 0200     		.2byte	0x2
 7834 065d 30       		.byte	0x30
 7835 065e 9F       		.byte	0x9f
 7836 065f E4010000 		.4byte	.LVL120
 7837 0663 18030000 		.4byte	.LVL142
 7838 0667 0100     		.2byte	0x1
 7839 0669 5A       		.byte	0x5a
 7840 066a 00000000 		.4byte	0
 7841 066e 00000000 		.4byte	0
 7842              	.LLST37:
 7843 0672 D0010000 		.4byte	.LVL117
 7844 0676 E4010000 		.4byte	.LVL120
 7845 067a 0100     		.2byte	0x1
 7846 067c 50       		.byte	0x50
 7847 067d E4010000 		.4byte	.LVL120
 7848 0681 18030000 		.4byte	.LVL142
 7849 0685 0300     		.2byte	0x3
 7850 0687 91       		.byte	0x91
 7851 0688 BC7F     		.sleb128 -68
 7852 068a 00000000 		.4byte	0
 7853 068e 00000000 		.4byte	0
 7854              	.LLST38:
 7855 0692 42000000 		.4byte	.LVL96
 7856 0696 52000000 		.4byte	.LVL97
 7857 069a 0200     		.2byte	0x2
 7858 069c 30       		.byte	0x30
 7859 069d 9F       		.byte	0x9f
 7860 069e 52000000 		.4byte	.LVL97
 7861 06a2 E4010000 		.4byte	.LVL120
 7862 06a6 0100     		.2byte	0x1
 7863 06a8 57       		.byte	0x57
 7864 06a9 00000000 		.4byte	0
ARM GAS  C:\Users\haske\AppData\Local\Temp\cc5ISl1k.s 			page 154


 7865 06ad 00000000 		.4byte	0
 7866              	.LLST39:
 7867 06b1 5A000000 		.4byte	.LVL98
 7868 06b5 BE010000 		.4byte	.LVL115
 7869 06b9 0100     		.2byte	0x1
 7870 06bb 55       		.byte	0x55
 7871 06bc 00000000 		.4byte	0
 7872 06c0 00000000 		.4byte	0
 7873              	.LLST40:
 7874 06c4 5E010000 		.4byte	.LVL106
 7875 06c8 7E010000 		.4byte	.LVL109
 7876 06cc 0100     		.2byte	0x1
 7877 06ce 53       		.byte	0x53
 7878 06cf 7E010000 		.4byte	.LVL109
 7879 06d3 8E010000 		.4byte	.LVL111
 7880 06d7 2600     		.2byte	0x26
 7881 06d9 74       		.byte	0x74
 7882 06da 1E       		.sleb128 30
 7883 06db 94       		.byte	0x94
 7884 06dc 01       		.byte	0x1
 7885 06dd 08       		.byte	0x8
 7886 06de FF       		.byte	0xff
 7887 06df 1A       		.byte	0x1a
 7888 06e0 31       		.byte	0x31
 7889 06e1 24       		.byte	0x24
 7890 06e2 74       		.byte	0x74
 7891 06e3 1F       		.sleb128 31
 7892 06e4 94       		.byte	0x94
 7893 06e5 01       		.byte	0x1
 7894 06e6 08       		.byte	0x8
 7895 06e7 FF       		.byte	0xff
 7896 06e8 1A       		.byte	0x1a
 7897 06e9 31       		.byte	0x31
 7898 06ea 24       		.byte	0x24
 7899 06eb 22       		.byte	0x22
 7900 06ec 78       		.byte	0x78
 7901 06ed 00       		.sleb128 0
 7902 06ee 94       		.byte	0x94
 7903 06ef 01       		.byte	0x1
 7904 06f0 08       		.byte	0x8
 7905 06f1 FF       		.byte	0xff
 7906 06f2 1A       		.byte	0x1a
 7907 06f3 74       		.byte	0x74
 7908 06f4 00       		.sleb128 0
 7909 06f5 22       		.byte	0x22
 7910 06f6 23       		.byte	0x23
 7911 06f7 20       		.uleb128 0x20
 7912 06f8 94       		.byte	0x94
 7913 06f9 01       		.byte	0x1
 7914 06fa 08       		.byte	0x8
 7915 06fb FF       		.byte	0xff
 7916 06fc 1A       		.byte	0x1a
 7917 06fd 22       		.byte	0x22
 7918 06fe 9F       		.byte	0x9f
 7919 06ff 00000000 		.4byte	0
 7920 0703 00000000 		.4byte	0
 7921              	.LLST41:
ARM GAS  C:\Users\haske\AppData\Local\Temp\cc5ISl1k.s 			page 155


 7922 0707 72010000 		.4byte	.LVL107
 7923 070b 78010000 		.4byte	.LVL108
 7924 070f 0100     		.2byte	0x1
 7925 0711 51       		.byte	0x51
 7926 0712 00000000 		.4byte	0
 7927 0716 00000000 		.4byte	0
 7928              	.LLST42:
 7929 071a 82010000 		.4byte	.LVL110
 7930 071e B8010000 		.4byte	.LVL114
 7931 0722 0100     		.2byte	0x1
 7932 0724 53       		.byte	0x53
 7933 0725 00000000 		.4byte	0
 7934 0729 00000000 		.4byte	0
 7935              	.LLST43:
 7936 072d D4010000 		.4byte	.LVL118
 7937 0731 E4010000 		.4byte	.LVL120
 7938 0735 0200     		.2byte	0x2
 7939 0737 31       		.byte	0x31
 7940 0738 9F       		.byte	0x9f
 7941 0739 E4010000 		.4byte	.LVL120
 7942 073d 18030000 		.4byte	.LVL142
 7943 0741 0100     		.2byte	0x1
 7944 0743 58       		.byte	0x58
 7945 0744 00000000 		.4byte	0
 7946 0748 00000000 		.4byte	0
 7947              	.LLST44:
 7948 074c 24020000 		.4byte	.LVL123
 7949 0750 8E020000 		.4byte	.LVL130
 7950 0754 0100     		.2byte	0x1
 7951 0756 54       		.byte	0x54
 7952 0757 8E020000 		.4byte	.LVL130
 7953 075b B2020000 		.4byte	.LVL133
 7954 075f 0100     		.2byte	0x1
 7955 0761 59       		.byte	0x59
 7956 0762 B2020000 		.4byte	.LVL133
 7957 0766 B8020000 		.4byte	.LVL134
 7958 076a 0100     		.2byte	0x1
 7959 076c 54       		.byte	0x54
 7960 076d B8020000 		.4byte	.LVL134
 7961 0771 F8020000 		.4byte	.LVL138
 7962 0775 0100     		.2byte	0x1
 7963 0777 59       		.byte	0x59
 7964 0778 00000000 		.4byte	0
 7965 077c 00000000 		.4byte	0
 7966              	.LLST45:
 7967 0780 60020000 		.4byte	.LVL125
 7968 0784 64020000 		.4byte	.LVL126
 7969 0788 0100     		.2byte	0x1
 7970 078a 52       		.byte	0x52
 7971 078b 00000000 		.4byte	0
 7972 078f 00000000 		.4byte	0
 7973              	.LLST46:
 7974 0793 74020000 		.4byte	.LVL127
 7975 0797 7A020000 		.4byte	.LVL128
 7976 079b 0100     		.2byte	0x1
 7977 079d 53       		.byte	0x53
 7978 079e 7A020000 		.4byte	.LVL128
ARM GAS  C:\Users\haske\AppData\Local\Temp\cc5ISl1k.s 			page 156


 7979 07a2 8E020000 		.4byte	.LVL130
 7980 07a6 0100     		.2byte	0x1
 7981 07a8 59       		.byte	0x59
 7982 07a9 8E020000 		.4byte	.LVL130
 7983 07ad B2020000 		.4byte	.LVL133
 7984 07b1 0100     		.2byte	0x1
 7985 07b3 54       		.byte	0x54
 7986 07b4 B2020000 		.4byte	.LVL133
 7987 07b8 B8020000 		.4byte	.LVL134
 7988 07bc 0100     		.2byte	0x1
 7989 07be 53       		.byte	0x53
 7990 07bf B8020000 		.4byte	.LVL134
 7991 07c3 C0020000 		.4byte	.LVL135
 7992 07c7 0100     		.2byte	0x1
 7993 07c9 54       		.byte	0x54
 7994 07ca C0020000 		.4byte	.LVL135
 7995 07ce 00030000 		.4byte	.LVL140
 7996 07d2 0200     		.2byte	0x2
 7997 07d4 91       		.byte	0x91
 7998 07d5 44       		.sleb128 -60
 7999 07d6 00000000 		.4byte	0
 8000 07da 00000000 		.4byte	0
 8001              	.LLST47:
 8002 07de 8E020000 		.4byte	.LVL130
 8003 07e2 B2020000 		.4byte	.LVL133
 8004 07e6 0100     		.2byte	0x1
 8005 07e8 55       		.byte	0x55
 8006 07e9 B8020000 		.4byte	.LVL134
 8007 07ed C6020000 		.4byte	.LVL136
 8008 07f1 0100     		.2byte	0x1
 8009 07f3 55       		.byte	0x55
 8010 07f4 00000000 		.4byte	0
 8011 07f8 00000000 		.4byte	0
 8012              	.LLST48:
 8013 07fc 00000000 		.4byte	.LVL145
 8014 0800 20000000 		.4byte	.LVL148
 8015 0804 0100     		.2byte	0x1
 8016 0806 50       		.byte	0x50
 8017 0807 20000000 		.4byte	.LVL148
 8018 080b 3A000000 		.4byte	.LVL152
 8019 080f 0100     		.2byte	0x1
 8020 0811 58       		.byte	0x58
 8021 0812 3A000000 		.4byte	.LVL152
 8022 0816 42000000 		.4byte	.LVL154
 8023 081a 0100     		.2byte	0x1
 8024 081c 50       		.byte	0x50
 8025 081d 42000000 		.4byte	.LVL154
 8026 0821 BE000000 		.4byte	.LVL171
 8027 0825 0100     		.2byte	0x1
 8028 0827 58       		.byte	0x58
 8029 0828 BE000000 		.4byte	.LVL171
 8030 082c C4000000 		.4byte	.LFE203
 8031 0830 0400     		.2byte	0x4
 8032 0832 F3       		.byte	0xf3
 8033 0833 01       		.uleb128 0x1
 8034 0834 50       		.byte	0x50
 8035 0835 9F       		.byte	0x9f
ARM GAS  C:\Users\haske\AppData\Local\Temp\cc5ISl1k.s 			page 157


 8036 0836 00000000 		.4byte	0
 8037 083a 00000000 		.4byte	0
 8038              	.LLST49:
 8039 083e 0E000000 		.4byte	.LVL146
 8040 0842 BE000000 		.4byte	.LVL170
 8041 0846 0100     		.2byte	0x1
 8042 0848 56       		.byte	0x56
 8043 0849 00000000 		.4byte	0
 8044 084d 00000000 		.4byte	0
 8045              	.LLST50:
 8046 0851 66000000 		.4byte	.LVL159
 8047 0855 B8000000 		.4byte	.LVL169
 8048 0859 0100     		.2byte	0x1
 8049 085b 57       		.byte	0x57
 8050 085c 00000000 		.4byte	0
 8051 0860 00000000 		.4byte	0
 8052              	.LLST51:
 8053 0864 1A000000 		.4byte	.LVL147
 8054 0868 3A000000 		.4byte	.LVL152
 8055 086c 0100     		.2byte	0x1
 8056 086e 54       		.byte	0x54
 8057 086f 00000000 		.4byte	0
 8058 0873 00000000 		.4byte	0
 8059              	.LLST52:
 8060 0877 3C000000 		.4byte	.LVL153
 8061 087b 64000000 		.4byte	.LVL158
 8062 087f 0100     		.2byte	0x1
 8063 0881 54       		.byte	0x54
 8064 0882 00000000 		.4byte	0
 8065 0886 00000000 		.4byte	0
 8066              	.LLST53:
 8067 088a 6C000000 		.4byte	.LVL160
 8068 088e 8C000000 		.4byte	.LVL164
 8069 0892 0100     		.2byte	0x1
 8070 0894 55       		.byte	0x55
 8071 0895 8E000000 		.4byte	.LVL165
 8072 0899 9E000000 		.4byte	.LVL166
 8073 089d 0100     		.2byte	0x1
 8074 089f 55       		.byte	0x55
 8075 08a0 00000000 		.4byte	0
 8076 08a4 00000000 		.4byte	0
 8077              	.LLST54:
 8078 08a8 00000000 		.4byte	.LVL172
 8079 08ac 13000000 		.4byte	.LVL175-1
 8080 08b0 0100     		.2byte	0x1
 8081 08b2 50       		.byte	0x50
 8082 08b3 13000000 		.4byte	.LVL175-1
 8083 08b7 5A000000 		.4byte	.LVL181
 8084 08bb 0100     		.2byte	0x1
 8085 08bd 54       		.byte	0x54
 8086 08be 5A000000 		.4byte	.LVL181
 8087 08c2 6C000000 		.4byte	.LVL183
 8088 08c6 0200     		.2byte	0x2
 8089 08c8 7D       		.byte	0x7d
 8090 08c9 00       		.sleb128 0
 8091 08ca 6C000000 		.4byte	.LVL183
 8092 08ce E6000000 		.4byte	.LVL198
ARM GAS  C:\Users\haske\AppData\Local\Temp\cc5ISl1k.s 			page 158


 8093 08d2 0400     		.2byte	0x4
 8094 08d4 F3       		.byte	0xf3
 8095 08d5 01       		.uleb128 0x1
 8096 08d6 50       		.byte	0x50
 8097 08d7 9F       		.byte	0x9f
 8098 08d8 E6000000 		.4byte	.LVL198
 8099 08dc F2000000 		.4byte	.LVL200
 8100 08e0 0100     		.2byte	0x1
 8101 08e2 54       		.byte	0x54
 8102 08e3 F2000000 		.4byte	.LVL200
 8103 08e7 04010000 		.4byte	.LVL202
 8104 08eb 0200     		.2byte	0x2
 8105 08ed 7D       		.byte	0x7d
 8106 08ee 00       		.sleb128 0
 8107 08ef 04010000 		.4byte	.LVL202
 8108 08f3 B2010000 		.4byte	.LVL221
 8109 08f7 0400     		.2byte	0x4
 8110 08f9 F3       		.byte	0xf3
 8111 08fa 01       		.uleb128 0x1
 8112 08fb 50       		.byte	0x50
 8113 08fc 9F       		.byte	0x9f
 8114 08fd B2010000 		.4byte	.LVL221
 8115 0901 C8010000 		.4byte	.LVL223
 8116 0905 0100     		.2byte	0x1
 8117 0907 54       		.byte	0x54
 8118 0908 C8010000 		.4byte	.LVL223
 8119 090c D0010000 		.4byte	.LFE212
 8120 0910 0400     		.2byte	0x4
 8121 0912 F3       		.byte	0xf3
 8122 0913 01       		.uleb128 0x1
 8123 0914 50       		.byte	0x50
 8124 0915 9F       		.byte	0x9f
 8125 0916 00000000 		.4byte	0
 8126 091a 00000000 		.4byte	0
 8127              	.LLST55:
 8128 091e 00000000 		.4byte	.LVL172
 8129 0922 10000000 		.4byte	.LVL174
 8130 0926 0100     		.2byte	0x1
 8131 0928 51       		.byte	0x51
 8132 0929 10000000 		.4byte	.LVL174
 8133 092d 84000000 		.4byte	.LVL185
 8134 0931 0100     		.2byte	0x1
 8135 0933 57       		.byte	0x57
 8136 0934 84000000 		.4byte	.LVL185
 8137 0938 86000000 		.4byte	.LVL186
 8138 093c 0400     		.2byte	0x4
 8139 093e F3       		.byte	0xf3
 8140 093f 01       		.uleb128 0x1
 8141 0940 51       		.byte	0x51
 8142 0941 9F       		.byte	0x9f
 8143 0942 86000000 		.4byte	.LVL186
 8144 0946 8A000000 		.4byte	.LVL187
 8145 094a 0100     		.2byte	0x1
 8146 094c 57       		.byte	0x57
 8147 094d 8A000000 		.4byte	.LVL187
 8148 0951 E6000000 		.4byte	.LVL198
 8149 0955 0400     		.2byte	0x4
ARM GAS  C:\Users\haske\AppData\Local\Temp\cc5ISl1k.s 			page 159


 8150 0957 F3       		.byte	0xf3
 8151 0958 01       		.uleb128 0x1
 8152 0959 51       		.byte	0x51
 8153 095a 9F       		.byte	0x9f
 8154 095b E6000000 		.4byte	.LVL198
 8155 095f 40010000 		.4byte	.LVL206
 8156 0963 0100     		.2byte	0x1
 8157 0965 57       		.byte	0x57
 8158 0966 40010000 		.4byte	.LVL206
 8159 096a B2010000 		.4byte	.LVL221
 8160 096e 0400     		.2byte	0x4
 8161 0970 F3       		.byte	0xf3
 8162 0971 01       		.uleb128 0x1
 8163 0972 51       		.byte	0x51
 8164 0973 9F       		.byte	0x9f
 8165 0974 B2010000 		.4byte	.LVL221
 8166 0978 C8010000 		.4byte	.LVL223
 8167 097c 0100     		.2byte	0x1
 8168 097e 57       		.byte	0x57
 8169 097f C8010000 		.4byte	.LVL223
 8170 0983 D0010000 		.4byte	.LFE212
 8171 0987 0400     		.2byte	0x4
 8172 0989 F3       		.byte	0xf3
 8173 098a 01       		.uleb128 0x1
 8174 098b 51       		.byte	0x51
 8175 098c 9F       		.byte	0x9f
 8176 098d 00000000 		.4byte	0
 8177 0991 00000000 		.4byte	0
 8178              	.LLST56:
 8179 0995 00000000 		.4byte	.LVL172
 8180 0999 0E000000 		.4byte	.LVL173
 8181 099d 0100     		.2byte	0x1
 8182 099f 52       		.byte	0x52
 8183 09a0 0E000000 		.4byte	.LVL173
 8184 09a4 D0010000 		.4byte	.LFE212
 8185 09a8 0400     		.2byte	0x4
 8186 09aa F3       		.byte	0xf3
 8187 09ab 01       		.uleb128 0x1
 8188 09ac 52       		.byte	0x52
 8189 09ad 9F       		.byte	0x9f
 8190 09ae 00000000 		.4byte	0
 8191 09b2 00000000 		.4byte	0
 8192              	.LLST57:
 8193 09b6 00000000 		.4byte	.LVL172
 8194 09ba 13000000 		.4byte	.LVL175-1
 8195 09be 0100     		.2byte	0x1
 8196 09c0 53       		.byte	0x53
 8197 09c1 13000000 		.4byte	.LVL175-1
 8198 09c5 D0010000 		.4byte	.LFE212
 8199 09c9 0400     		.2byte	0x4
 8200 09cb F3       		.byte	0xf3
 8201 09cc 01       		.uleb128 0x1
 8202 09cd 53       		.byte	0x53
 8203 09ce 9F       		.byte	0x9f
 8204 09cf 00000000 		.4byte	0
 8205 09d3 00000000 		.4byte	0
 8206              	.LLST58:
ARM GAS  C:\Users\haske\AppData\Local\Temp\cc5ISl1k.s 			page 160


 8207 09d7 16000000 		.4byte	.LVL176
 8208 09db 22000000 		.4byte	.LVL177
 8209 09df 0100     		.2byte	0x1
 8210 09e1 50       		.byte	0x50
 8211 09e2 22000000 		.4byte	.LVL177
 8212 09e6 B2010000 		.4byte	.LVL221
 8213 09ea 0100     		.2byte	0x1
 8214 09ec 55       		.byte	0x55
 8215 09ed B2010000 		.4byte	.LVL221
 8216 09f1 B4010000 		.4byte	.LVL222
 8217 09f5 0100     		.2byte	0x1
 8218 09f7 50       		.byte	0x50
 8219 09f8 B4010000 		.4byte	.LVL222
 8220 09fc CA010000 		.4byte	.LVL224
 8221 0a00 0100     		.2byte	0x1
 8222 0a02 55       		.byte	0x55
 8223 0a03 00000000 		.4byte	0
 8224 0a07 00000000 		.4byte	0
 8225              	.LLST59:
 8226 0a0b 5A000000 		.4byte	.LVL181
 8227 0a0f 61000000 		.4byte	.LVL182-1
 8228 0a13 0100     		.2byte	0x1
 8229 0a15 50       		.byte	0x50
 8230 0a16 61000000 		.4byte	.LVL182-1
 8231 0a1a C2000000 		.4byte	.LVL193
 8232 0a1e 0100     		.2byte	0x1
 8233 0a20 54       		.byte	0x54
 8234 0a21 00000000 		.4byte	0
 8235 0a25 00000000 		.4byte	0
 8236              	.LLST60:
 8237 0a29 84000000 		.4byte	.LVL185
 8238 0a2d 86000000 		.4byte	.LVL186
 8239 0a31 0100     		.2byte	0x1
 8240 0a33 57       		.byte	0x57
 8241 0a34 8A000000 		.4byte	.LVL187
 8242 0a38 E0000000 		.4byte	.LVL197
 8243 0a3c 0100     		.2byte	0x1
 8244 0a3e 57       		.byte	0x57
 8245 0a3f 00000000 		.4byte	0
 8246 0a43 00000000 		.4byte	0
 8247              	.LLST61:
 8248 0a47 92000000 		.4byte	.LVL189
 8249 0a4b 94000000 		.4byte	.LVL190
 8250 0a4f 0100     		.2byte	0x1
 8251 0a51 50       		.byte	0x50
 8252 0a52 94000000 		.4byte	.LVL190
 8253 0a56 A4000000 		.4byte	.LVL192
 8254 0a5a 0200     		.2byte	0x2
 8255 0a5c 91       		.byte	0x91
 8256 0a5d 4C       		.sleb128 -52
 8257 0a5e 00000000 		.4byte	0
 8258 0a62 00000000 		.4byte	0
 8259              	.LLST62:
 8260 0a66 98000000 		.4byte	.LVL191
 8261 0a6a C4000000 		.4byte	.LVL194
 8262 0a6e 0100     		.2byte	0x1
 8263 0a70 50       		.byte	0x50
ARM GAS  C:\Users\haske\AppData\Local\Temp\cc5ISl1k.s 			page 161


 8264 0a71 C4000000 		.4byte	.LVL194
 8265 0a75 E0000000 		.4byte	.LVL197
 8266 0a79 0100     		.2byte	0x1
 8267 0a7b 56       		.byte	0x56
 8268 0a7c 00000000 		.4byte	0
 8269 0a80 00000000 		.4byte	0
 8270              	.LLST63:
 8271 0a84 F2000000 		.4byte	.LVL200
 8272 0a88 F9000000 		.4byte	.LVL201-1
 8273 0a8c 0100     		.2byte	0x1
 8274 0a8e 50       		.byte	0x50
 8275 0a8f F9000000 		.4byte	.LVL201-1
 8276 0a93 7C010000 		.4byte	.LVL215
 8277 0a97 0100     		.2byte	0x1
 8278 0a99 54       		.byte	0x54
 8279 0a9a 00000000 		.4byte	0
 8280 0a9e 00000000 		.4byte	0
 8281              	.LLST64:
 8282 0aa2 48010000 		.4byte	.LVL207
 8283 0aa6 4F010000 		.4byte	.LVL208-1
 8284 0aaa 0100     		.2byte	0x1
 8285 0aac 52       		.byte	0x52
 8286 0aad 4F010000 		.4byte	.LVL208-1
 8287 0ab1 AC010000 		.4byte	.LVL220
 8288 0ab5 0200     		.2byte	0x2
 8289 0ab7 91       		.byte	0x91
 8290 0ab8 50       		.sleb128 -48
 8291 0ab9 00000000 		.4byte	0
 8292 0abd 00000000 		.4byte	0
 8293              	.LLST65:
 8294 0ac1 52010000 		.4byte	.LVL209
 8295 0ac5 54010000 		.4byte	.LVL210
 8296 0ac9 0100     		.2byte	0x1
 8297 0acb 50       		.byte	0x50
 8298 0acc 54010000 		.4byte	.LVL210
 8299 0ad0 AC010000 		.4byte	.LVL220
 8300 0ad4 0200     		.2byte	0x2
 8301 0ad6 91       		.byte	0x91
 8302 0ad7 54       		.sleb128 -44
 8303 0ad8 00000000 		.4byte	0
 8304 0adc 00000000 		.4byte	0
 8305              	.LLST66:
 8306 0ae0 5A010000 		.4byte	.LVL212
 8307 0ae4 5C010000 		.4byte	.LVL213
 8308 0ae8 0100     		.2byte	0x1
 8309 0aea 50       		.byte	0x50
 8310 0aeb 5C010000 		.4byte	.LVL213
 8311 0aef AC010000 		.4byte	.LVL220
 8312 0af3 0200     		.2byte	0x2
 8313 0af5 91       		.byte	0x91
 8314 0af6 4C       		.sleb128 -52
 8315 0af7 00000000 		.4byte	0
 8316 0afb 00000000 		.4byte	0
 8317              	.LLST67:
 8318 0aff 60010000 		.4byte	.LVL214
 8319 0b03 7E010000 		.4byte	.LVL216
 8320 0b07 0100     		.2byte	0x1
ARM GAS  C:\Users\haske\AppData\Local\Temp\cc5ISl1k.s 			page 162


 8321 0b09 50       		.byte	0x50
 8322 0b0a 7E010000 		.4byte	.LVL216
 8323 0b0e AC010000 		.4byte	.LVL220
 8324 0b12 0100     		.2byte	0x1
 8325 0b14 57       		.byte	0x57
 8326 0b15 00000000 		.4byte	0
 8327 0b19 00000000 		.4byte	0
 8328              	.LLST68:
 8329 0b1d 00000000 		.4byte	.LVL225
 8330 0b21 10000000 		.4byte	.LVL226
 8331 0b25 0100     		.2byte	0x1
 8332 0b27 50       		.byte	0x50
 8333 0b28 10000000 		.4byte	.LVL226
 8334 0b2c AC010000 		.4byte	.LVL279
 8335 0b30 0100     		.2byte	0x1
 8336 0b32 56       		.byte	0x56
 8337 0b33 AC010000 		.4byte	.LVL279
 8338 0b37 C4010000 		.4byte	.LFE211
 8339 0b3b 0400     		.2byte	0x4
 8340 0b3d F3       		.byte	0xf3
 8341 0b3e 01       		.uleb128 0x1
 8342 0b3f 50       		.byte	0x50
 8343 0b40 9F       		.byte	0x9f
 8344 0b41 00000000 		.4byte	0
 8345 0b45 00000000 		.4byte	0
 8346              	.LLST69:
 8347 0b49 00000000 		.4byte	.LVL225
 8348 0b4d 13000000 		.4byte	.LVL227-1
 8349 0b51 0100     		.2byte	0x1
 8350 0b53 51       		.byte	0x51
 8351 0b54 13000000 		.4byte	.LVL227-1
 8352 0b58 E2000000 		.4byte	.LVL245
 8353 0b5c 0100     		.2byte	0x1
 8354 0b5e 55       		.byte	0x55
 8355 0b5f E2000000 		.4byte	.LVL245
 8356 0b63 08010000 		.4byte	.LVL250
 8357 0b67 0400     		.2byte	0x4
 8358 0b69 F3       		.byte	0xf3
 8359 0b6a 01       		.uleb128 0x1
 8360 0b6b 51       		.byte	0x51
 8361 0b6c 9F       		.byte	0x9f
 8362 0b6d 08010000 		.4byte	.LVL250
 8363 0b71 0A010000 		.4byte	.LVL251
 8364 0b75 0100     		.2byte	0x1
 8365 0b77 55       		.byte	0x55
 8366 0b78 0A010000 		.4byte	.LVL251
 8367 0b7c 14010000 		.4byte	.LVL252
 8368 0b80 0400     		.2byte	0x4
 8369 0b82 F3       		.byte	0xf3
 8370 0b83 01       		.uleb128 0x1
 8371 0b84 51       		.byte	0x51
 8372 0b85 9F       		.byte	0x9f
 8373 0b86 14010000 		.4byte	.LVL252
 8374 0b8a 34010000 		.4byte	.LVL257
 8375 0b8e 0100     		.2byte	0x1
 8376 0b90 55       		.byte	0x55
 8377 0b91 34010000 		.4byte	.LVL257
ARM GAS  C:\Users\haske\AppData\Local\Temp\cc5ISl1k.s 			page 163


 8378 0b95 94010000 		.4byte	.LVL270
 8379 0b99 0400     		.2byte	0x4
 8380 0b9b F3       		.byte	0xf3
 8381 0b9c 01       		.uleb128 0x1
 8382 0b9d 51       		.byte	0x51
 8383 0b9e 9F       		.byte	0x9f
 8384 0b9f 94010000 		.4byte	.LVL270
 8385 0ba3 A8010000 		.4byte	.LVL276
 8386 0ba7 0100     		.2byte	0x1
 8387 0ba9 55       		.byte	0x55
 8388 0baa A8010000 		.4byte	.LVL276
 8389 0bae C4010000 		.4byte	.LFE211
 8390 0bb2 0400     		.2byte	0x4
 8391 0bb4 F3       		.byte	0xf3
 8392 0bb5 01       		.uleb128 0x1
 8393 0bb6 51       		.byte	0x51
 8394 0bb7 9F       		.byte	0x9f
 8395 0bb8 00000000 		.4byte	0
 8396 0bbc 00000000 		.4byte	0
 8397              	.LLST70:
 8398 0bc0 16000000 		.4byte	.LVL228
 8399 0bc4 1D000000 		.4byte	.LVL229-1
 8400 0bc8 0100     		.2byte	0x1
 8401 0bca 50       		.byte	0x50
 8402 0bcb 1D000000 		.4byte	.LVL229-1
 8403 0bcf AC010000 		.4byte	.LVL278
 8404 0bd3 0100     		.2byte	0x1
 8405 0bd5 54       		.byte	0x54
 8406 0bd6 00000000 		.4byte	0
 8407 0bda 00000000 		.4byte	0
 8408              	.LLST71:
 8409 0bde 2C000000 		.4byte	.LVL231
 8410 0be2 38000000 		.4byte	.LVL232
 8411 0be6 0100     		.2byte	0x1
 8412 0be8 50       		.byte	0x50
 8413 0be9 38000000 		.4byte	.LVL232
 8414 0bed AC000000 		.4byte	.LVL236
 8415 0bf1 0100     		.2byte	0x1
 8416 0bf3 57       		.byte	0x57
 8417 0bf4 94010000 		.4byte	.LVL270
 8418 0bf8 96010000 		.4byte	.LVL271
 8419 0bfc 0100     		.2byte	0x1
 8420 0bfe 50       		.byte	0x50
 8421 0bff 96010000 		.4byte	.LVL271
 8422 0c03 A0010000 		.4byte	.LVL274
 8423 0c07 0100     		.2byte	0x1
 8424 0c09 57       		.byte	0x57
 8425 0c0a 00000000 		.4byte	0
 8426 0c0e 00000000 		.4byte	0
 8427              	.LLST72:
 8428 0c12 9C000000 		.4byte	.LVL234
 8429 0c16 AC000000 		.4byte	.LVL236
 8430 0c1a 0100     		.2byte	0x1
 8431 0c1c 57       		.byte	0x57
 8432 0c1d 9C010000 		.4byte	.LVL272
 8433 0c21 A0010000 		.4byte	.LVL274
 8434 0c25 0100     		.2byte	0x1
ARM GAS  C:\Users\haske\AppData\Local\Temp\cc5ISl1k.s 			page 164


 8435 0c27 57       		.byte	0x57
 8436 0c28 00000000 		.4byte	0
 8437 0c2c 00000000 		.4byte	0
 8438              	.LLST73:
 8439 0c30 A6000000 		.4byte	.LVL235
 8440 0c34 B2000000 		.4byte	.LVL237
 8441 0c38 0100     		.2byte	0x1
 8442 0c3a 50       		.byte	0x50
 8443 0c3b 9C010000 		.4byte	.LVL272
 8444 0c3f 9E010000 		.4byte	.LVL273
 8445 0c43 0100     		.2byte	0x1
 8446 0c45 50       		.byte	0x50
 8447 0c46 00000000 		.4byte	0
 8448 0c4a 00000000 		.4byte	0
 8449              	.LLST74:
 8450 0c4e AC000000 		.4byte	.LVL236
 8451 0c52 44010000 		.4byte	.LVL260
 8452 0c56 0100     		.2byte	0x1
 8453 0c58 57       		.byte	0x57
 8454 0c59 A0010000 		.4byte	.LVL274
 8455 0c5d A8010000 		.4byte	.LVL276
 8456 0c61 0100     		.2byte	0x1
 8457 0c63 57       		.byte	0x57
 8458 0c64 00000000 		.4byte	0
 8459 0c68 00000000 		.4byte	0
 8460              	.LLST75:
 8461 0c6c B8000000 		.4byte	.LVL239
 8462 0c70 C4000000 		.4byte	.LVL240
 8463 0c74 0100     		.2byte	0x1
 8464 0c76 50       		.byte	0x50
 8465 0c77 C4000000 		.4byte	.LVL240
 8466 0c7b 94010000 		.4byte	.LVL270
 8467 0c7f 0100     		.2byte	0x1
 8468 0c81 58       		.byte	0x58
 8469 0c82 A0010000 		.4byte	.LVL274
 8470 0c86 A2010000 		.4byte	.LVL275
 8471 0c8a 0100     		.2byte	0x1
 8472 0c8c 50       		.byte	0x50
 8473 0c8d A2010000 		.4byte	.LVL275
 8474 0c91 AA010000 		.4byte	.LVL277
 8475 0c95 0100     		.2byte	0x1
 8476 0c97 58       		.byte	0x58
 8477 0c98 00000000 		.4byte	0
 8478 0c9c 00000000 		.4byte	0
 8479              	.LLST76:
 8480 0ca0 CC000000 		.4byte	.LVL242
 8481 0ca4 F4000000 		.4byte	.LVL247
 8482 0ca8 0200     		.2byte	0x2
 8483 0caa 30       		.byte	0x30
 8484 0cab 9F       		.byte	0x9f
 8485 0cac F4000000 		.4byte	.LVL247
 8486 0cb0 F8000000 		.4byte	.LVL248
 8487 0cb4 0200     		.2byte	0x2
 8488 0cb6 31       		.byte	0x31
 8489 0cb7 9F       		.byte	0x9f
 8490 0cb8 F8000000 		.4byte	.LVL248
 8491 0cbc 34010000 		.4byte	.LVL257
ARM GAS  C:\Users\haske\AppData\Local\Temp\cc5ISl1k.s 			page 165


 8492 0cc0 0200     		.2byte	0x2
 8493 0cc2 30       		.byte	0x30
 8494 0cc3 9F       		.byte	0x9f
 8495 0cc4 34010000 		.4byte	.LVL257
 8496 0cc8 3D010000 		.4byte	.LVL258-1
 8497 0ccc 0100     		.2byte	0x1
 8498 0cce 53       		.byte	0x53
 8499 0ccf 42010000 		.4byte	.LVL259
 8500 0cd3 46010000 		.4byte	.LVL261
 8501 0cd7 0100     		.2byte	0x1
 8502 0cd9 53       		.byte	0x53
 8503 0cda 00000000 		.4byte	0
 8504 0cde 00000000 		.4byte	0
 8505              	.LLST77:
 8506 0ce2 D8000000 		.4byte	.LVL244
 8507 0ce6 E2000000 		.4byte	.LVL245
 8508 0cea 0100     		.2byte	0x1
 8509 0cec 50       		.byte	0x50
 8510 0ced E2000000 		.4byte	.LVL245
 8511 0cf1 08010000 		.4byte	.LVL250
 8512 0cf5 0100     		.2byte	0x1
 8513 0cf7 59       		.byte	0x59
 8514 0cf8 08010000 		.4byte	.LVL250
 8515 0cfc 0A010000 		.4byte	.LVL251
 8516 0d00 0100     		.2byte	0x1
 8517 0d02 50       		.byte	0x50
 8518 0d03 0A010000 		.4byte	.LVL251
 8519 0d07 14010000 		.4byte	.LVL252
 8520 0d0b 0100     		.2byte	0x1
 8521 0d0d 59       		.byte	0x59
 8522 0d0e 14010000 		.4byte	.LVL252
 8523 0d12 22010000 		.4byte	.LVL253
 8524 0d16 0100     		.2byte	0x1
 8525 0d18 50       		.byte	0x50
 8526 0d19 22010000 		.4byte	.LVL253
 8527 0d1d 2E010000 		.4byte	.LVL255
 8528 0d21 0100     		.2byte	0x1
 8529 0d23 59       		.byte	0x59
 8530 0d24 2E010000 		.4byte	.LVL255
 8531 0d28 32010000 		.4byte	.LVL256
 8532 0d2c 0100     		.2byte	0x1
 8533 0d2e 50       		.byte	0x50
 8534 0d2f 32010000 		.4byte	.LVL256
 8535 0d33 94010000 		.4byte	.LVL270
 8536 0d37 0100     		.2byte	0x1
 8537 0d39 59       		.byte	0x59
 8538 0d3a A8010000 		.4byte	.LVL276
 8539 0d3e AA010000 		.4byte	.LVL277
 8540 0d42 0100     		.2byte	0x1
 8541 0d44 59       		.byte	0x59
 8542 0d45 00000000 		.4byte	0
 8543 0d49 00000000 		.4byte	0
 8544              	.LLST78:
 8545 0d4d 44010000 		.4byte	.LVL260
 8546 0d51 80010000 		.4byte	.LVL266
 8547 0d55 0100     		.2byte	0x1
 8548 0d57 57       		.byte	0x57
ARM GAS  C:\Users\haske\AppData\Local\Temp\cc5ISl1k.s 			page 166


 8549 0d58 A8010000 		.4byte	.LVL276
 8550 0d5c AA010000 		.4byte	.LVL277
 8551 0d60 0100     		.2byte	0x1
 8552 0d62 57       		.byte	0x57
 8553 0d63 00000000 		.4byte	0
 8554 0d67 00000000 		.4byte	0
 8555              	.LLST79:
 8556 0d6b 5A010000 		.4byte	.LVL263
 8557 0d6f 5C010000 		.4byte	.LVL264
 8558 0d73 0100     		.2byte	0x1
 8559 0d75 50       		.byte	0x50
 8560 0d76 5C010000 		.4byte	.LVL264
 8561 0d7a 94010000 		.4byte	.LVL270
 8562 0d7e 0100     		.2byte	0x1
 8563 0d80 55       		.byte	0x55
 8564 0d81 A8010000 		.4byte	.LVL276
 8565 0d85 AA010000 		.4byte	.LVL277
 8566 0d89 0100     		.2byte	0x1
 8567 0d8b 55       		.byte	0x55
 8568 0d8c 00000000 		.4byte	0
 8569 0d90 00000000 		.4byte	0
 8570              	.LLST80:
 8571 0d94 80010000 		.4byte	.LVL266
 8572 0d98 94010000 		.4byte	.LVL270
 8573 0d9c 0100     		.2byte	0x1
 8574 0d9e 57       		.byte	0x57
 8575 0d9f 00000000 		.4byte	0
 8576 0da3 00000000 		.4byte	0
 8577              	.LLST81:
 8578 0da7 8E010000 		.4byte	.LVL267
 8579 0dab 90010000 		.4byte	.LVL268
 8580 0daf 0100     		.2byte	0x1
 8581 0db1 50       		.byte	0x50
 8582 0db2 90010000 		.4byte	.LVL268
 8583 0db6 92010000 		.4byte	.LVL269
 8584 0dba 0400     		.2byte	0x4
 8585 0dbc 70       		.byte	0x70
 8586 0dbd 00       		.sleb128 0
 8587 0dbe 20       		.byte	0x20
 8588 0dbf 9F       		.byte	0x9f
 8589 0dc0 00000000 		.4byte	0
 8590 0dc4 00000000 		.4byte	0
 8591              	.LLST82:
 8592 0dc8 E2000000 		.4byte	.LVL245
 8593 0dcc 08010000 		.4byte	.LVL250
 8594 0dd0 0100     		.2byte	0x1
 8595 0dd2 55       		.byte	0x55
 8596 0dd3 0A010000 		.4byte	.LVL251
 8597 0dd7 14010000 		.4byte	.LVL252
 8598 0ddb 0100     		.2byte	0x1
 8599 0ddd 55       		.byte	0x55
 8600 0dde 00000000 		.4byte	0
 8601 0de2 00000000 		.4byte	0
 8602              	.LLST83:
 8603 0de6 00000000 		.4byte	.LVL280
 8604 0dea 0A000000 		.4byte	.LVL281
 8605 0dee 0100     		.2byte	0x1
ARM GAS  C:\Users\haske\AppData\Local\Temp\cc5ISl1k.s 			page 167


 8606 0df0 50       		.byte	0x50
 8607 0df1 0A000000 		.4byte	.LVL281
 8608 0df5 0D000000 		.4byte	.LVL282-1
 8609 0df9 0100     		.2byte	0x1
 8610 0dfb 51       		.byte	0x51
 8611 0dfc 0D000000 		.4byte	.LVL282-1
 8612 0e00 48000000 		.4byte	.LFE202
 8613 0e04 0400     		.2byte	0x4
 8614 0e06 F3       		.byte	0xf3
 8615 0e07 01       		.uleb128 0x1
 8616 0e08 50       		.byte	0x50
 8617 0e09 9F       		.byte	0x9f
 8618 0e0a 00000000 		.4byte	0
 8619 0e0e 00000000 		.4byte	0
 8620              	.LLST84:
 8621 0e12 0E000000 		.4byte	.LVL282
 8622 0e16 14000000 		.4byte	.LVL283
 8623 0e1a 0100     		.2byte	0x1
 8624 0e1c 50       		.byte	0x50
 8625 0e1d 42000000 		.4byte	.LVL291
 8626 0e21 44000000 		.4byte	.LVL292
 8627 0e25 0100     		.2byte	0x1
 8628 0e27 50       		.byte	0x50
 8629 0e28 00000000 		.4byte	0
 8630 0e2c 00000000 		.4byte	0
 8631              	.LLST85:
 8632 0e30 1A000000 		.4byte	.LVL285
 8633 0e34 23000000 		.4byte	.LVL286-1
 8634 0e38 0100     		.2byte	0x1
 8635 0e3a 50       		.byte	0x50
 8636 0e3b 23000000 		.4byte	.LVL286-1
 8637 0e3f 36000000 		.4byte	.LVL288
 8638 0e43 0100     		.2byte	0x1
 8639 0e45 54       		.byte	0x54
 8640 0e46 36000000 		.4byte	.LVL288
 8641 0e4a 38000000 		.4byte	.LVL289
 8642 0e4e 0200     		.2byte	0x2
 8643 0e50 30       		.byte	0x30
 8644 0e51 9F       		.byte	0x9f
 8645 0e52 38000000 		.4byte	.LVL289
 8646 0e56 42000000 		.4byte	.LVL291
 8647 0e5a 0100     		.2byte	0x1
 8648 0e5c 54       		.byte	0x54
 8649 0e5d 00000000 		.4byte	0
 8650 0e61 00000000 		.4byte	0
 8651              		.section	.debug_aranges,"",%progbits
 8652 0000 6C000000 		.4byte	0x6c
 8653 0004 0200     		.2byte	0x2
 8654 0006 00000000 		.4byte	.Ldebug_info0
 8655 000a 04       		.byte	0x4
 8656 000b 00       		.byte	0
 8657 000c 0000     		.2byte	0
 8658 000e 0000     		.2byte	0
 8659 0010 00000000 		.4byte	.LFB204
 8660 0014 0C000000 		.4byte	.LFE204-.LFB204
 8661 0018 00000000 		.4byte	.LFB205
 8662 001c 50000000 		.4byte	.LFE205-.LFB205
ARM GAS  C:\Users\haske\AppData\Local\Temp\cc5ISl1k.s 			page 168


 8663 0020 00000000 		.4byte	.LFB206
 8664 0024 1C000000 		.4byte	.LFE206-.LFB206
 8665 0028 00000000 		.4byte	.LFB208
 8666 002c 04010000 		.4byte	.LFE208-.LFB208
 8667 0030 00000000 		.4byte	.LFB207
 8668 0034 54000000 		.4byte	.LFE207-.LFB207
 8669 0038 00000000 		.4byte	.LFB209
 8670 003c 94000000 		.4byte	.LFE209-.LFB209
 8671 0040 00000000 		.4byte	.LFB210
 8672 0044 30030000 		.4byte	.LFE210-.LFB210
 8673 0048 00000000 		.4byte	.LFB203
 8674 004c C4000000 		.4byte	.LFE203-.LFB203
 8675 0050 00000000 		.4byte	.LFB212
 8676 0054 D0010000 		.4byte	.LFE212-.LFB212
 8677 0058 00000000 		.4byte	.LFB211
 8678 005c C4010000 		.4byte	.LFE211-.LFB211
 8679 0060 00000000 		.4byte	.LFB202
 8680 0064 48000000 		.4byte	.LFE202-.LFB202
 8681 0068 00000000 		.4byte	0
 8682 006c 00000000 		.4byte	0
 8683              		.section	.debug_ranges,"",%progbits
 8684              	.Ldebug_ranges0:
 8685 0000 0A000000 		.4byte	.LBB2
 8686 0004 3C000000 		.4byte	.LBE2
 8687 0008 4C000000 		.4byte	.LBB3
 8688 000c 4E000000 		.4byte	.LBE3
 8689 0010 00000000 		.4byte	0
 8690 0014 00000000 		.4byte	0
 8691 0018 28000000 		.4byte	.LBB4
 8692 001c E0000000 		.4byte	.LBE4
 8693 0020 E2000000 		.4byte	.LBB13
 8694 0024 E4000000 		.4byte	.LBE13
 8695 0028 E8000000 		.4byte	.LBB14
 8696 002c FA000000 		.4byte	.LBE14
 8697 0030 00000000 		.4byte	0
 8698 0034 00000000 		.4byte	0
 8699 0038 28000000 		.4byte	.LBB5
 8700 003c D4000000 		.4byte	.LBE5
 8701 0040 E8000000 		.4byte	.LBB12
 8702 0044 FA000000 		.4byte	.LBE12
 8703 0048 00000000 		.4byte	0
 8704 004c 00000000 		.4byte	0
 8705 0050 70000000 		.4byte	.LBB6
 8706 0054 90000000 		.4byte	.LBE6
 8707 0058 F0000000 		.4byte	.LBB10
 8708 005c F4000000 		.4byte	.LBE10
 8709 0060 00000000 		.4byte	0
 8710 0064 00000000 		.4byte	0
 8711 0068 90000000 		.4byte	.LBB7
 8712 006c D4000000 		.4byte	.LBE7
 8713 0070 F4000000 		.4byte	.LBB11
 8714 0074 FA000000 		.4byte	.LBE11
 8715 0078 00000000 		.4byte	0
 8716 007c 00000000 		.4byte	0
 8717 0080 B8000000 		.4byte	.LBB8
 8718 0084 D4000000 		.4byte	.LBE8
 8719 0088 F8000000 		.4byte	.LBB9
ARM GAS  C:\Users\haske\AppData\Local\Temp\cc5ISl1k.s 			page 169


 8720 008c FA000000 		.4byte	.LBE9
 8721 0090 00000000 		.4byte	0
 8722 0094 00000000 		.4byte	0
 8723 0098 42000000 		.4byte	.LBB15
 8724 009c 44000000 		.4byte	.LBE15
 8725 00a0 50000000 		.4byte	.LBB18
 8726 00a4 C8010000 		.4byte	.LBE18
 8727 00a8 00000000 		.4byte	0
 8728 00ac 00000000 		.4byte	0
 8729 00b0 52000000 		.4byte	.LBB16
 8730 00b4 B4010000 		.4byte	.LBE16
 8731 00b8 B8010000 		.4byte	.LBB17
 8732 00bc BE010000 		.4byte	.LBE17
 8733 00c0 00000000 		.4byte	0
 8734 00c4 00000000 		.4byte	0
 8735 00c8 D4010000 		.4byte	.LBB19
 8736 00cc D6010000 		.4byte	.LBE19
 8737 00d0 E2010000 		.4byte	.LBB23
 8738 00d4 14030000 		.4byte	.LBE23
 8739 00d8 16030000 		.4byte	.LBB24
 8740 00dc 18030000 		.4byte	.LBE24
 8741 00e0 00000000 		.4byte	0
 8742 00e4 00000000 		.4byte	0
 8743 00e8 8E020000 		.4byte	.LBB21
 8744 00ec B2020000 		.4byte	.LBE21
 8745 00f0 B8020000 		.4byte	.LBB22
 8746 00f4 C0020000 		.4byte	.LBE22
 8747 00f8 00000000 		.4byte	0
 8748 00fc 00000000 		.4byte	0
 8749 0100 6C000000 		.4byte	.LBB29
 8750 0104 8C000000 		.4byte	.LBE29
 8751 0108 8E000000 		.4byte	.LBB30
 8752 010c 98000000 		.4byte	.LBE30
 8753 0110 00000000 		.4byte	0
 8754 0114 00000000 		.4byte	0
 8755 0118 52000000 		.4byte	.LBB31
 8756 011c DC000000 		.4byte	.LBE31
 8757 0120 E0000000 		.4byte	.LBB32
 8758 0124 E6000000 		.4byte	.LBE32
 8759 0128 00000000 		.4byte	0
 8760 012c 00000000 		.4byte	0
 8761 0130 EA000000 		.4byte	.LBB33
 8762 0134 A8010000 		.4byte	.LBE33
 8763 0138 AC010000 		.4byte	.LBB34
 8764 013c B2010000 		.4byte	.LBE34
 8765 0140 00000000 		.4byte	0
 8766 0144 00000000 		.4byte	0
 8767 0148 E2000000 		.4byte	.LBB35
 8768 014c 08010000 		.4byte	.LBE35
 8769 0150 0A010000 		.4byte	.LBB37
 8770 0154 10010000 		.4byte	.LBE37
 8771 0158 00000000 		.4byte	0
 8772 015c 00000000 		.4byte	0
 8773 0160 00000000 		.4byte	.LFB204
 8774 0164 0C000000 		.4byte	.LFE204
 8775 0168 00000000 		.4byte	.LFB205
 8776 016c 50000000 		.4byte	.LFE205
ARM GAS  C:\Users\haske\AppData\Local\Temp\cc5ISl1k.s 			page 170


 8777 0170 00000000 		.4byte	.LFB206
 8778 0174 1C000000 		.4byte	.LFE206
 8779 0178 00000000 		.4byte	.LFB208
 8780 017c 04010000 		.4byte	.LFE208
 8781 0180 00000000 		.4byte	.LFB207
 8782 0184 54000000 		.4byte	.LFE207
 8783 0188 00000000 		.4byte	.LFB209
 8784 018c 94000000 		.4byte	.LFE209
 8785 0190 00000000 		.4byte	.LFB210
 8786 0194 30030000 		.4byte	.LFE210
 8787 0198 00000000 		.4byte	.LFB203
 8788 019c C4000000 		.4byte	.LFE203
 8789 01a0 00000000 		.4byte	.LFB212
 8790 01a4 D0010000 		.4byte	.LFE212
 8791 01a8 00000000 		.4byte	.LFB211
 8792 01ac C4010000 		.4byte	.LFE211
 8793 01b0 00000000 		.4byte	.LFB202
 8794 01b4 48000000 		.4byte	.LFE202
 8795 01b8 00000000 		.4byte	0
 8796 01bc 00000000 		.4byte	0
 8797              		.section	.debug_line,"",%progbits
 8798              	.Ldebug_line0:
 8799 0000 3E060000 		.section	.debug_str,"MS",%progbits,1
 8799      02008203 
 8799      00000201 
 8799      FB0E0D00 
 8799      01010101 
 8800              	.LASF244:
 8801 0000 64617461 		.ascii	"data_entries_count\000"
 8801      5F656E74 
 8801      72696573 
 8801      5F636F75 
 8801      6E7400
 8802              	.LASF128:
 8803 0013 4C565F53 		.ascii	"LV_STYLE_TRANSFORM_PIVOT_Y\000"
 8803      54594C45 
 8803      5F545241 
 8803      4E53464F 
 8803      524D5F50 
 8804              	.LASF267:
 8805 002e 6C6F6164 		.ascii	"load_glyph\000"
 8805      5F676C79 
 8805      706800
 8806              	.LASF315:
 8807 0039 4C565F53 		.ascii	"LV_STYLE_GRID_CELL_COLUMN_POS\000"
 8807      54594C45 
 8807      5F475249 
 8807      445F4345 
 8807      4C4C5F43 
 8808              	.LASF306:
 8809 0057 4C565F53 		.ascii	"LV_STYLE_FLEX_FLOW\000"
 8809      54594C45 
 8809      5F464C45 
 8809      585F464C 
 8809      4F5700
 8810              	.LASF99:
 8811 006a 4C565F53 		.ascii	"LV_STYLE_LINE_COLOR\000"
ARM GAS  C:\Users\haske\AppData\Local\Temp\cc5ISl1k.s 			page 171


 8811      54594C45 
 8811      5F4C494E 
 8811      455F434F 
 8811      4C4F5200 
 8812              	.LASF64:
 8813 007e 4C565F53 		.ascii	"LV_STYLE_BG_COLOR\000"
 8813      54594C45 
 8813      5F42475F 
 8813      434F4C4F 
 8813      5200
 8814              	.LASF44:
 8815 0090 4C565F53 		.ascii	"LV_STYLE_PROP_INV\000"
 8815      54594C45 
 8815      5F50524F 
 8815      505F494E 
 8815      5600
 8816              	.LASF181:
 8817 00a2 4C565F46 		.ascii	"LV_FONT_FMT_TXT_CMAP_FORMAT0_TINY\000"
 8817      4F4E545F 
 8817      464D545F 
 8817      5458545F 
 8817      434D4150 
 8818              	.LASF217:
 8819 00c4 6269745F 		.ascii	"bit_iterator_t\000"
 8819      69746572 
 8819      61746F72 
 8819      5F7400
 8820              	.LASF251:
 8821 00d3 72656164 		.ascii	"read_bits_signed\000"
 8821      5F626974 
 8821      735F7369 
 8821      676E6564 
 8821      00
 8822              	.LASF143:
 8823 00e4 4C565F46 		.ascii	"LV_FS_RES_NOT_IMP\000"
 8823      535F5245 
 8823      535F4E4F 
 8823      545F494D 
 8823      5000
 8824              	.LASF281:
 8825 00f6 6B65726E 		.ascii	"kern_length\000"
 8825      5F6C656E 
 8825      67746800 
 8826              	.LASF280:
 8827 0102 666F726D 		.ascii	"format\000"
 8827      617400
 8828              	.LASF180:
 8829 0109 4C565F46 		.ascii	"LV_FONT_FMT_TXT_CMAP_SPARSE_FULL\000"
 8829      4F4E545F 
 8829      464D545F 
 8829      5458545F 
 8829      434D4150 
 8830              	.LASF48:
 8831 012a 4C565F53 		.ascii	"LV_STYLE_HEIGHT\000"
 8831      54594C45 
 8831      5F484549 
 8831      47485400 
ARM GAS  C:\Users\haske\AppData\Local\Temp\cc5ISl1k.s 			page 172


 8832              	.LASF241:
 8833 013a 666F6E74 		.ascii	"font_header_bin_t\000"
 8833      5F686561 
 8833      6465725F 
 8833      62696E5F 
 8833      7400
 8834              	.LASF176:
 8835 014c 6C765F66 		.ascii	"lv_fs_file_t\000"
 8835      735F6669 
 8835      6C655F74 
 8835      00
 8836              	.LASF188:
 8837 0159 676C7970 		.ascii	"glyph_id_ofs_list\000"
 8837      685F6964 
 8837      5F6F6673 
 8837      5F6C6973 
 8837      7400
 8838              	.LASF169:
 8839 016b 6C765F66 		.ascii	"lv_fs_drv_t\000"
 8839      735F6472 
 8839      765F7400 
 8840              	.LASF203:
 8841 0177 6C617374 		.ascii	"last_letter\000"
 8841      5F6C6574 
 8841      74657200 
 8842              	.LASF268:
 8843 0183 676C7970 		.ascii	"glyph_offset\000"
 8843      685F6F66 
 8843      66736574 
 8843      00
 8844              	.LASF172:
 8845 0190 62756666 		.ascii	"buffer\000"
 8845      657200
 8846              	.LASF305:
 8847 0197 6C765F66 		.ascii	"lv_font_montserrat_14\000"
 8847      6F6E745F 
 8847      6D6F6E74 
 8847      73657272 
 8847      61745F31 
 8848              	.LASF199:
 8849 01ad 72696768 		.ascii	"right_class_mapping\000"
 8849      745F636C 
 8849      6173735F 
 8849      6D617070 
 8849      696E6700 
 8850              	.LASF102:
 8851 01c1 4C565F53 		.ascii	"LV_STYLE_ARC_ROUNDED\000"
 8851      54594C45 
 8851      5F415243 
 8851      5F524F55 
 8851      4E444544 
 8852              	.LASF144:
 8853 01d6 4C565F46 		.ascii	"LV_FS_RES_OUT_OF_MEM\000"
 8853      535F5245 
 8853      535F4F55 
 8853      545F4F46 
 8853      5F4D454D 
ARM GAS  C:\Users\haske\AppData\Local\Temp\cc5ISl1k.s 			page 173


 8854              	.LASF14:
 8855 01eb 756E7369 		.ascii	"unsigned int\000"
 8855      676E6564 
 8855      20696E74 
 8855      00
 8856              	.LASF29:
 8857 01f8 6F66735F 		.ascii	"ofs_x\000"
 8857      7800
 8858              	.LASF30:
 8859 01fe 6F66735F 		.ascii	"ofs_y\000"
 8859      7900
 8860              	.LASF219:
 8861 0204 76657273 		.ascii	"version\000"
 8861      696F6E00 
 8862              	.LASF32:
 8863 020c 6765745F 		.ascii	"get_glyph_dsc\000"
 8863      676C7970 
 8863      685F6473 
 8863      6300
 8864              	.LASF79:
 8865 021a 4C565F53 		.ascii	"LV_STYLE_BORDER_WIDTH\000"
 8865      54594C45 
 8865      5F424F52 
 8865      4445525F 
 8865      57494454 
 8866              	.LASF8:
 8867 0230 5F5F696E 		.ascii	"__int32_t\000"
 8867      7433325F 
 8867      7400
 8868              	.LASF65:
 8869 023a 4C565F53 		.ascii	"LV_STYLE_BG_OPA\000"
 8869      54594C45 
 8869      5F42475F 
 8869      4F504100 
 8870              	.LASF272:
 8871 024a 6375725F 		.ascii	"cur_bmp_size\000"
 8871      626D705F 
 8871      73697A65 
 8871      00
 8872              	.LASF134:
 8873 0257 4C565F46 		.ascii	"LV_FS_RES_OK\000"
 8873      535F5245 
 8873      535F4F4B 
 8873      00
 8874              	.LASF277:
 8875 0264 6E657874 		.ascii	"next_offset\000"
 8875      5F6F6666 
 8875      73657400 
 8876              	.LASF225:
 8877 0270 7479706F 		.ascii	"typo_descent\000"
 8877      5F646573 
 8877      63656E74 
 8877      00
 8878              	.LASF263:
 8879 027d 636D6170 		.ascii	"cmaps_length\000"
 8879      735F6C65 
 8879      6E677468 
ARM GAS  C:\Users\haske\AppData\Local\Temp\cc5ISl1k.s 			page 174


 8879      00
 8880              	.LASF110:
 8881 028a 4C565F53 		.ascii	"LV_STYLE_TEXT_LINE_SPACE\000"
 8881      54594C45 
 8881      5F544558 
 8881      545F4C49 
 8881      4E455F53 
 8882              	.LASF295:
 8883 02a3 6C6F6361 		.ascii	"loca_start\000"
 8883      5F737461 
 8883      727400
 8884              	.LASF5:
 8885 02ae 73686F72 		.ascii	"short int\000"
 8885      7420696E 
 8885      7400
 8886              	.LASF320:
 8887 02b8 4C565F53 		.ascii	"LV_STYLE_GRID_CELL_Y_ALIGN\000"
 8887      54594C45 
 8887      5F475249 
 8887      445F4345 
 8887      4C4C5F59 
 8888              	.LASF159:
 8889 02d3 72656164 		.ascii	"ready_cb\000"
 8889      795F6362 
 8889      00
 8890              	.LASF238:
 8891 02dc 636F6D70 		.ascii	"compression_id\000"
 8891      72657373 
 8891      696F6E5F 
 8891      696400
 8892              	.LASF70:
 8893 02eb 4C565F53 		.ascii	"LV_STYLE_BG_GRAD\000"
 8893      54594C45 
 8893      5F42475F 
 8893      47524144 
 8893      00
 8894              	.LASF82:
 8895 02fc 4C565F53 		.ascii	"LV_STYLE_OUTLINE_WIDTH\000"
 8895      54594C45 
 8895      5F4F5554 
 8895      4C494E45 
 8895      5F574944 
 8896              	.LASF130:
 8897 0313 5F4C565F 		.ascii	"_LV_STYLE_NUM_BUILT_IN_PROPS\000"
 8897      5354594C 
 8897      455F4E55 
 8897      4D5F4255 
 8897      494C545F 
 8898              	.LASF129:
 8899 0330 5F4C565F 		.ascii	"_LV_STYLE_LAST_BUILT_IN_PROP\000"
 8899      5354594C 
 8899      455F4C41 
 8899      53545F42 
 8899      55494C54 
 8900              	.LASF54:
 8901 034d 4C565F53 		.ascii	"LV_STYLE_LAYOUT\000"
 8901      54594C45 
ARM GAS  C:\Users\haske\AppData\Local\Temp\cc5ISl1k.s 			page 175


 8901      5F4C4159 
 8901      4F555400 
 8902              	.LASF187:
 8903 035d 756E6963 		.ascii	"unicode_list\000"
 8903      6F64655F 
 8903      6C697374 
 8903      00
 8904              	.LASF322:
 8905 036a 6C765F6D 		.ascii	"lv_mem_alloc\000"
 8905      656D5F61 
 8905      6C6C6F63 
 8905      00
 8906              	.LASF208:
 8907 0377 636D6170 		.ascii	"cmaps\000"
 8907      7300
 8908              	.LASF221:
 8909 037d 666F6E74 		.ascii	"font_size\000"
 8909      5F73697A 
 8909      6500
 8910              	.LASF186:
 8911 0387 676C7970 		.ascii	"glyph_id_start\000"
 8911      685F6964 
 8911      5F737461 
 8911      727400
 8912              	.LASF67:
 8913 0396 4C565F53 		.ascii	"LV_STYLE_BG_GRAD_DIR\000"
 8913      54594C45 
 8913      5F42475F 
 8913      47524144 
 8913      5F444952 
 8914              	.LASF38:
 8915 03ab 756E6465 		.ascii	"underline_thickness\000"
 8915      726C696E 
 8915      655F7468 
 8915      69636B6E 
 8915      65737300 
 8916              	.LASF11:
 8917 03bf 6C6F6E67 		.ascii	"long unsigned int\000"
 8917      20756E73 
 8917      69676E65 
 8917      6420696E 
 8917      7400
 8918              	.LASF84:
 8919 03d1 4C565F53 		.ascii	"LV_STYLE_OUTLINE_OPA\000"
 8919      54594C45 
 8919      5F4F5554 
 8919      4C494E45 
 8919      5F4F5041 
 8920              	.LASF51:
 8921 03e6 4C565F53 		.ascii	"LV_STYLE_X\000"
 8921      54594C45 
 8921      5F5800
 8922              	.LASF52:
 8923 03f1 4C565F53 		.ascii	"LV_STYLE_Y\000"
 8923      54594C45 
 8923      5F5900
 8924              	.LASF81:
ARM GAS  C:\Users\haske\AppData\Local\Temp\cc5ISl1k.s 			page 176


 8925 03fc 4C565F53 		.ascii	"LV_STYLE_BORDER_POST\000"
 8925      54594C45 
 8925      5F424F52 
 8925      4445525F 
 8925      504F5354 
 8926              	.LASF168:
 8927 0411 6469725F 		.ascii	"dir_close_cb\000"
 8927      636C6F73 
 8927      655F6362 
 8927      00
 8928              	.LASF318:
 8929 041e 4C565F53 		.ascii	"LV_STYLE_GRID_CELL_ROW_POS\000"
 8929      54594C45 
 8929      5F475249 
 8929      445F4345 
 8929      4C4C5F52 
 8930              	.LASF94:
 8931 0439 4C565F53 		.ascii	"LV_STYLE_IMG_RECOLOR_OPA\000"
 8931      54594C45 
 8931      5F494D47 
 8931      5F524543 
 8931      4F4C4F52 
 8932              	.LASF20:
 8933 0452 75696E74 		.ascii	"uint32_t\000"
 8933      33325F74 
 8933      00
 8934              	.LASF15:
 8935 045b 696E7438 		.ascii	"int8_t\000"
 8935      5F7400
 8936              	.LASF286:
 8937 0462 6B65726E 		.ascii	"kern_table_rows\000"
 8937      5F746162 
 8937      6C655F72 
 8937      6F777300 
 8938              	.LASF294:
 8939 0472 666F6E74 		.ascii	"font_header\000"
 8939      5F686561 
 8939      64657200 
 8940              	.LASF37:
 8941 047e 756E6465 		.ascii	"underline_position\000"
 8941      726C696E 
 8941      655F706F 
 8941      73697469 
 8941      6F6E00
 8942              	.LASF328:
 8943 0491 474E5520 		.ascii	"GNU C11 5.4.1 20160609 (release) [ARM/embedded-5-br"
 8943      43313120 
 8943      352E342E 
 8943      31203230 
 8943      31363036 
 8944 04c4 616E6368 		.ascii	"anch revision 237715] -mcpu=cortex-m0plus -mthumb -"
 8944      20726576 
 8944      6973696F 
 8944      6E203233 
 8944      37373135 
 8945 04f7 67202D4F 		.ascii	"g -Og -ffunction-sections -ffat-lto-objects\000"
 8945      67202D66 
ARM GAS  C:\Users\haske\AppData\Local\Temp\cc5ISl1k.s 			page 177


 8945      66756E63 
 8945      74696F6E 
 8945      2D736563 
 8946              	.LASF73:
 8947 0523 4C565F53 		.ascii	"LV_STYLE_BG_IMG_OPA\000"
 8947      54594C45 
 8947      5F42475F 
 8947      494D475F 
 8947      4F504100 
 8948              	.LASF200:
 8949 0537 6C656674 		.ascii	"left_class_cnt\000"
 8949      5F636C61 
 8949      73735F63 
 8949      6E7400
 8950              	.LASF196:
 8951 0546 6C765F66 		.ascii	"lv_font_fmt_txt_kern_pair_t\000"
 8951      6F6E745F 
 8951      666D745F 
 8951      7478745F 
 8951      6B65726E 
 8952              	.LASF145:
 8953 0562 4C565F46 		.ascii	"LV_FS_RES_INV_PARAM\000"
 8953      535F5245 
 8953      535F494E 
 8953      565F5041 
 8953      52414D00 
 8954              	.LASF100:
 8955 0576 4C565F53 		.ascii	"LV_STYLE_LINE_OPA\000"
 8955      54594C45 
 8955      5F4C494E 
 8955      455F4F50 
 8955      4100
 8956              	.LASF132:
 8957 0588 5F4C565F 		.ascii	"_LV_STYLE_PROP_CONST\000"
 8957      5354594C 
 8957      455F5052 
 8957      4F505F43 
 8957      4F4E5354 
 8958              	.LASF17:
 8959 059d 696E7431 		.ascii	"int16_t\000"
 8959      365F7400 
 8960              	.LASF105:
 8961 05a5 4C565F53 		.ascii	"LV_STYLE_ARC_IMG_SRC\000"
 8961      54594C45 
 8961      5F415243 
 8961      5F494D47 
 8961      5F535243 
 8962              	.LASF165:
 8963 05ba 74656C6C 		.ascii	"tell_cb\000"
 8963      5F636200 
 8964              	.LASF301:
 8965 05c2 6C6F6164 		.ascii	"load_kern\000"
 8965      5F6B6572 
 8965      6E00
 8966              	.LASF303:
 8967 05cc 666F6E74 		.ascii	"font_name\000"
 8967      5F6E616D 
ARM GAS  C:\Users\haske\AppData\Local\Temp\cc5ISl1k.s 			page 178


 8967      6500
 8968              	.LASF13:
 8969 05d6 6C6F6E67 		.ascii	"long long unsigned int\000"
 8969      206C6F6E 
 8969      6720756E 
 8969      7369676E 
 8969      65642069 
 8970              	.LASF304:
 8971 05ed 66696C65 		.ascii	"file\000"
 8971      00
 8972              	.LASF95:
 8973 05f2 4C565F53 		.ascii	"LV_STYLE_LINE_WIDTH\000"
 8973      54594C45 
 8973      5F4C494E 
 8973      455F5749 
 8973      44544800 
 8974              	.LASF69:
 8975 0606 4C565F53 		.ascii	"LV_STYLE_BG_GRAD_STOP\000"
 8975      54594C45 
 8975      5F42475F 
 8975      47524144 
 8975      5F53544F 
 8976              	.LASF289:
 8977 061c 6B65726E 		.ascii	"kern_left\000"
 8977      5F6C6566 
 8977      7400
 8978              	.LASF74:
 8979 0626 4C565F53 		.ascii	"LV_STYLE_BG_IMG_RECOLOR\000"
 8979      54594C45 
 8979      5F42475F 
 8979      494D475F 
 8979      5245434F 
 8980              	.LASF136:
 8981 063e 4C565F46 		.ascii	"LV_FS_RES_FS_ERR\000"
 8981      535F5245 
 8981      535F4653 
 8981      5F455252 
 8981      00
 8982              	.LASF25:
 8983 064f 7265736F 		.ascii	"resolved_font\000"
 8983      6C766564 
 8983      5F666F6E 
 8983      7400
 8984              	.LASF264:
 8985 065d 636D6170 		.ascii	"cmaps_subtables_count\000"
 8985      735F7375 
 8985      62746162 
 8985      6C65735F 
 8985      636F756E 
 8986              	.LASF93:
 8987 0673 4C565F53 		.ascii	"LV_STYLE_IMG_RECOLOR\000"
 8987      54594C45 
 8987      5F494D47 
 8987      5F524543 
 8987      4F4C4F52 
 8988              	.LASF98:
 8989 0688 4C565F53 		.ascii	"LV_STYLE_LINE_ROUNDED\000"
ARM GAS  C:\Users\haske\AppData\Local\Temp\cc5ISl1k.s 			page 179


 8989      54594C45 
 8989      5F4C494E 
 8989      455F524F 
 8989      554E4445 
 8990              	.LASF55:
 8991 069e 4C565F53 		.ascii	"LV_STYLE_RADIUS\000"
 8991      54594C45 
 8991      5F524144 
 8991      49555300 
 8992              	.LASF138:
 8993 06ae 4C565F46 		.ascii	"LV_FS_RES_FULL\000"
 8993      535F5245 
 8993      535F4655 
 8993      4C4C00
 8994              	.LASF161:
 8995 06bd 636C6F73 		.ascii	"close_cb\000"
 8995      655F6362 
 8995      00
 8996              	.LASF151:
 8997 06c6 4C565F46 		.ascii	"LV_FS_SEEK_SET\000"
 8997      535F5345 
 8997      454B5F53 
 8997      455400
 8998              	.LASF56:
 8999 06d5 4C565F53 		.ascii	"LV_STYLE_PAD_TOP\000"
 8999      54594C45 
 8999      5F504144 
 8999      5F544F50 
 8999      00
 9000              	.LASF250:
 9001 06e6 76616C75 		.ascii	"value\000"
 9001      6500
 9002              	.LASF274:
 9003 06ec 67647363 		.ascii	"gdsc\000"
 9003      00
 9004              	.LASF245:
 9005 06f1 666F726D 		.ascii	"format_type\000"
 9005      61745F74 
 9005      79706500 
 9006              	.LASF153:
 9007 06fd 4C565F46 		.ascii	"LV_FS_SEEK_END\000"
 9007      535F5345 
 9007      454B5F45 
 9007      4E4400
 9008              	.LASF106:
 9009 070c 4C565F53 		.ascii	"LV_STYLE_TEXT_COLOR\000"
 9009      54594C45 
 9009      5F544558 
 9009      545F434F 
 9009      4C4F5200 
 9010              	.LASF183:
 9011 0720 6C765F66 		.ascii	"lv_font_fmt_txt_cmap_type_t\000"
 9011      6F6E745F 
 9011      666D745F 
 9011      7478745F 
 9011      636D6170 
 9012              	.LASF300:
ARM GAS  C:\Users\haske\AppData\Local\Temp\cc5ISl1k.s 			page 180


 9013 073c 6F666673 		.ascii	"offset\000"
 9013      657400
 9014              	.LASF123:
 9015 0743 4C565F53 		.ascii	"LV_STYLE_TRANSLATE_X\000"
 9015      54594C45 
 9015      5F545241 
 9015      4E534C41 
 9015      54455F58 
 9016              	.LASF124:
 9017 0758 4C565F53 		.ascii	"LV_STYLE_TRANSLATE_Y\000"
 9017      54594C45 
 9017      5F545241 
 9017      4E534C41 
 9017      54455F59 
 9018              	.LASF162:
 9019 076d 72656164 		.ascii	"read_cb\000"
 9019      5F636200 
 9020              	.LASF211:
 9021 0775 636D6170 		.ascii	"cmap_num\000"
 9021      5F6E756D 
 9021      00
 9022              	.LASF189:
 9023 077e 6C697374 		.ascii	"list_length\000"
 9023      5F6C656E 
 9023      67746800 
 9024              	.LASF71:
 9025 078a 4C565F53 		.ascii	"LV_STYLE_BG_DITHER_MODE\000"
 9025      54594C45 
 9025      5F42475F 
 9025      44495448 
 9025      45525F4D 
 9026              	.LASF42:
 9027 07a2 5F426F6F 		.ascii	"_Bool\000"
 9027      6C00
 9028              	.LASF312:
 9029 07a8 4C565F53 		.ascii	"LV_STYLE_GRID_COLUMN_ALIGN\000"
 9029      54594C45 
 9029      5F475249 
 9029      445F434F 
 9029      4C554D4E 
 9030              	.LASF87:
 9031 07c3 4C565F53 		.ascii	"LV_STYLE_SHADOW_OFS_X\000"
 9031      54594C45 
 9031      5F534841 
 9031      444F575F 
 9031      4F46535F 
 9032              	.LASF88:
 9033 07d9 4C565F53 		.ascii	"LV_STYLE_SHADOW_OFS_Y\000"
 9033      54594C45 
 9033      5F534841 
 9033      444F575F 
 9033      4F46535F 
 9034              	.LASF139:
 9035 07ef 4C565F46 		.ascii	"LV_FS_RES_LOCKED\000"
 9035      535F5245 
 9035      535F4C4F 
 9035      434B4544 
ARM GAS  C:\Users\haske\AppData\Local\Temp\cc5ISl1k.s 			page 181


 9035      00
 9036              	.LASF174:
 9037 0800 66696C65 		.ascii	"file_d\000"
 9037      5F6400
 9038              	.LASF62:
 9039 0807 4C565F53 		.ascii	"LV_STYLE_BASE_DIR\000"
 9039      54594C45 
 9039      5F424153 
 9039      455F4449 
 9039      5200
 9040              	.LASF218:
 9041 0819 666F6E74 		.ascii	"font_header_bin\000"
 9041      5F686561 
 9041      6465725F 
 9041      62696E00 
 9042              	.LASF283:
 9043 0829 6B65726E 		.ascii	"kern_pair\000"
 9043      5F706169 
 9043      7200
 9044              	.LASF237:
 9045 0833 61647661 		.ascii	"advance_width_bits\000"
 9045      6E63655F 
 9045      77696474 
 9045      685F6269 
 9045      747300
 9046              	.LASF157:
 9047 0846 6C657474 		.ascii	"letter\000"
 9047      657200
 9048              	.LASF57:
 9049 084d 4C565F53 		.ascii	"LV_STYLE_PAD_BOTTOM\000"
 9049      54594C45 
 9049      5F504144 
 9049      5F424F54 
 9049      544F4D00 
 9050              	.LASF34:
 9051 0861 6C696E65 		.ascii	"line_height\000"
 9051      5F686569 
 9051      67687400 
 9052              	.LASF195:
 9053 086d 676C7970 		.ascii	"glyph_ids_size\000"
 9053      685F6964 
 9053      735F7369 
 9053      7A6500
 9054              	.LASF137:
 9055 087c 4C565F46 		.ascii	"LV_FS_RES_NOT_EX\000"
 9055      535F5245 
 9055      535F4E4F 
 9055      545F4558 
 9055      00
 9056              	.LASF66:
 9057 088d 4C565F53 		.ascii	"LV_STYLE_BG_GRAD_COLOR\000"
 9057      54594C45 
 9057      5F42475F 
 9057      47524144 
 9057      5F434F4C 
 9058              	.LASF115:
 9059 08a4 4C565F53 		.ascii	"LV_STYLE_COLOR_FILTER_OPA\000"
ARM GAS  C:\Users\haske\AppData\Local\Temp\cc5ISl1k.s 			page 182


 9059      54594C45 
 9059      5F434F4C 
 9059      4F525F46 
 9059      494C5445 
 9060              	.LASF68:
 9061 08be 4C565F53 		.ascii	"LV_STYLE_BG_MAIN_STOP\000"
 9061      54594C45 
 9061      5F42475F 
 9061      4D41494E 
 9061      5F53544F 
 9062              	.LASF6:
 9063 08d4 5F5F7569 		.ascii	"__uint16_t\000"
 9063      6E743136 
 9063      5F7400
 9064              	.LASF239:
 9065 08df 73756270 		.ascii	"subpixels_mode\000"
 9065      6978656C 
 9065      735F6D6F 
 9065      646500
 9066              	.LASF256:
 9067 08ee 636D6170 		.ascii	"cmap\000"
 9067      00
 9068              	.LASF154:
 9069 08f3 6C765F66 		.ascii	"lv_fs_whence_t\000"
 9069      735F7768 
 9069      656E6365 
 9069      5F7400
 9070              	.LASF198:
 9071 0902 6C656674 		.ascii	"left_class_mapping\000"
 9071      5F636C61 
 9071      73735F6D 
 9071      61707069 
 9071      6E6700
 9072              	.LASF23:
 9073 0915 63686172 		.ascii	"char\000"
 9073      00
 9074              	.LASF91:
 9075 091a 4C565F53 		.ascii	"LV_STYLE_SHADOW_OPA\000"
 9075      54594C45 
 9075      5F534841 
 9075      444F575F 
 9075      4F504100 
 9076              	.LASF271:
 9077 092e 676C7970 		.ascii	"glyph_length\000"
 9077      685F6C65 
 9077      6E677468 
 9077      00
 9078              	.LASF213:
 9079 093b 6269746D 		.ascii	"bitmap_format\000"
 9079      61705F66 
 9079      6F726D61 
 9079      7400
 9080              	.LASF194:
 9081 0949 70616972 		.ascii	"pair_cnt\000"
 9081      5F636E74 
 9081      00
 9082              	.LASF141:
ARM GAS  C:\Users\haske\AppData\Local\Temp\cc5ISl1k.s 			page 183


 9083 0952 4C565F46 		.ascii	"LV_FS_RES_BUSY\000"
 9083      535F5245 
 9083      535F4255 
 9083      535900
 9084              	.LASF298:
 9085 0961 676C7970 		.ascii	"glyph_start\000"
 9085      685F7374 
 9085      61727400 
 9086              	.LASF258:
 9087 096d 6C697374 		.ascii	"list_size\000"
 9087      5F73697A 
 9087      6500
 9088              	.LASF41:
 9089 0977 6C765F66 		.ascii	"lv_font_glyph_dsc_t\000"
 9089      6F6E745F 
 9089      676C7970 
 9089      685F6473 
 9089      635F7400 
 9090              	.LASF53:
 9091 098b 4C565F53 		.ascii	"LV_STYLE_ALIGN\000"
 9091      54594C45 
 9091      5F414C49 
 9091      474E00
 9092              	.LASF270:
 9093 099a 68656164 		.ascii	"header\000"
 9093      657200
 9094              	.LASF163:
 9095 09a1 77726974 		.ascii	"write_cb\000"
 9095      655F6362 
 9095      00
 9096              	.LASF209:
 9097 09aa 6B65726E 		.ascii	"kern_dsc\000"
 9097      5F647363 
 9097      00
 9098              	.LASF16:
 9099 09b3 75696E74 		.ascii	"uint8_t\000"
 9099      385F7400 
 9100              	.LASF327:
 9101 09bb 6C765F66 		.ascii	"lv_fs_close\000"
 9101      735F636C 
 9101      6F736500 
 9102              	.LASF155:
 9103 09c7 5F6C765F 		.ascii	"_lv_font_t\000"
 9103      666F6E74 
 9103      5F7400
 9104              	.LASF293:
 9105 09d2 68656164 		.ascii	"header_length\000"
 9105      65725F6C 
 9105      656E6774 
 9105      6800
 9106              	.LASF248:
 9107 09e0 72656164 		.ascii	"read_bits\000"
 9107      5F626974 
 9107      7300
 9108              	.LASF184:
 9109 09ea 72616E67 		.ascii	"range_start\000"
 9109      655F7374 
ARM GAS  C:\Users\haske\AppData\Local\Temp\cc5ISl1k.s 			page 184


 9109      61727400 
 9110              	.LASF59:
 9111 09f6 4C565F53 		.ascii	"LV_STYLE_PAD_RIGHT\000"
 9111      54594C45 
 9111      5F504144 
 9111      5F524947 
 9111      485400
 9112              	.LASF147:
 9113 0a09 6C765F66 		.ascii	"lv_fs_res_t\000"
 9113      735F7265 
 9113      735F7400 
 9114              	.LASF313:
 9115 0a15 4C565F53 		.ascii	"LV_STYLE_GRID_ROW_DSC_ARRAY\000"
 9115      54594C45 
 9115      5F475249 
 9115      445F524F 
 9115      575F4453 
 9116              	.LASF269:
 9117 0a31 6C6F6361 		.ascii	"loca_count\000"
 9117      5F636F75 
 9117      6E7400
 9118              	.LASF215:
 9119 0a3c 6269745F 		.ascii	"bit_pos\000"
 9119      706F7300 
 9120              	.LASF247:
 9121 0a44 696E6974 		.ascii	"init_bit_iterator\000"
 9121      5F626974 
 9121      5F697465 
 9121      7261746F 
 9121      7200
 9122              	.LASF231:
 9123 0a56 696E6465 		.ascii	"index_to_loc_format\000"
 9123      785F746F 
 9123      5F6C6F63 
 9123      5F666F72 
 9123      6D617400 
 9124              	.LASF265:
 9125 0a6a 636D6170 		.ascii	"cmaps_tables\000"
 9125      735F7461 
 9125      626C6573 
 9125      00
 9126              	.LASF12:
 9127 0a77 6C6F6E67 		.ascii	"long long int\000"
 9127      206C6F6E 
 9127      6720696E 
 9127      7400
 9128              	.LASF235:
 9129 0a85 78795F62 		.ascii	"xy_bits\000"
 9129      69747300 
 9130              	.LASF290:
 9131 0a8d 6B65726E 		.ascii	"kern_right\000"
 9131      5F726967 
 9131      687400
 9132              	.LASF60:
 9133 0a98 4C565F53 		.ascii	"LV_STYLE_PAD_ROW\000"
 9133      54594C45 
 9133      5F504144 
ARM GAS  C:\Users\haske\AppData\Local\Temp\cc5ISl1k.s 			page 185


 9133      5F524F57 
 9133      00
 9134              	.LASF182:
 9135 0aa9 4C565F46 		.ascii	"LV_FONT_FMT_TXT_CMAP_SPARSE_TINY\000"
 9135      4F4E545F 
 9135      464D545F 
 9135      5458545F 
 9135      434D4150 
 9136              	.LASF240:
 9137 0aca 70616464 		.ascii	"padding\000"
 9137      696E6700 
 9138              	.LASF330:
 9139 0ad2 433A5C50 		.ascii	"C:\\Projects\\PainDrain\\firmware\\PainDrain\\PainD"
 9139      726F6A65 
 9139      6374735C 
 9139      5061696E 
 9139      44726169 
 9140 0b00 7261696E 		.ascii	"rain.cydsn\000"
 9140      2E637964 
 9140      736E00
 9141              	.LASF285:
 9142 0b0b 6B65726E 		.ascii	"kern_class_mapping_length\000"
 9142      5F636C61 
 9142      73735F6D 
 9142      61707069 
 9142      6E675F6C 
 9143              	.LASF125:
 9144 0b25 4C565F53 		.ascii	"LV_STYLE_TRANSFORM_ZOOM\000"
 9144      54594C45 
 9144      5F545241 
 9144      4E53464F 
 9144      524D5F5A 
 9145              	.LASF167:
 9146 0b3d 6469725F 		.ascii	"dir_read_cb\000"
 9146      72656164 
 9146      5F636200 
 9147              	.LASF58:
 9148 0b49 4C565F53 		.ascii	"LV_STYLE_PAD_LEFT\000"
 9148      54594C45 
 9148      5F504144 
 9148      5F4C4546 
 9148      5400
 9149              	.LASF227:
 9150 0b5b 6D696E5F 		.ascii	"min_y\000"
 9150      7900
 9151              	.LASF276:
 9152 0b61 6E626974 		.ascii	"nbits\000"
 9152      7300
 9153              	.LASF296:
 9154 0b67 6C6F6361 		.ascii	"loca_length\000"
 9154      5F6C656E 
 9154      67746800 
 9155              	.LASF288:
 9156 0b73 6B65726E 		.ascii	"kern_values_length\000"
 9156      5F76616C 
 9156      7565735F 
 9156      6C656E67 
ARM GAS  C:\Users\haske\AppData\Local\Temp\cc5ISl1k.s 			page 186


 9156      746800
 9157              	.LASF4:
 9158 0b86 5F5F696E 		.ascii	"__int16_t\000"
 9158      7431365F 
 9158      7400
 9159              	.LASF47:
 9160 0b90 4C565F53 		.ascii	"LV_STYLE_MAX_WIDTH\000"
 9160      54594C45 
 9160      5F4D4158 
 9160      5F574944 
 9160      544800
 9161              	.LASF80:
 9162 0ba3 4C565F53 		.ascii	"LV_STYLE_BORDER_SIDE\000"
 9162      54594C45 
 9162      5F424F52 
 9162      4445525F 
 9162      53494445 
 9163              	.LASF232:
 9164 0bb8 676C7970 		.ascii	"glyph_id_format\000"
 9164      685F6964 
 9164      5F666F72 
 9164      6D617400 
 9165              	.LASF226:
 9166 0bc8 7479706F 		.ascii	"typo_line_gap\000"
 9166      5F6C696E 
 9166      655F6761 
 9166      7000
 9167              	.LASF96:
 9168 0bd6 4C565F53 		.ascii	"LV_STYLE_LINE_DASH_WIDTH\000"
 9168      54594C45 
 9168      5F4C494E 
 9168      455F4441 
 9168      53485F57 
 9169              	.LASF236:
 9170 0bef 77685F62 		.ascii	"wh_bits\000"
 9170      69747300 
 9171              	.LASF116:
 9172 0bf7 4C565F53 		.ascii	"LV_STYLE_ANIM\000"
 9172      54594C45 
 9172      5F414E49 
 9172      4D00
 9173              	.LASF332:
 9174 0c05 6D656D73 		.ascii	"memset\000"
 9174      657400
 9175              	.LASF254:
 9176 0c0c 636D6170 		.ascii	"cmaps_start\000"
 9176      735F7374 
 9176      61727400 
 9177              	.LASF142:
 9178 0c18 4C565F46 		.ascii	"LV_FS_RES_TOUT\000"
 9178      535F5245 
 9178      535F544F 
 9178      555400
 9179              	.LASF210:
 9180 0c27 6B65726E 		.ascii	"kern_scale\000"
 9180      5F736361 
 9180      6C6500
ARM GAS  C:\Users\haske\AppData\Local\Temp\cc5ISl1k.s 			page 187


 9181              	.LASF118:
 9182 0c32 4C565F53 		.ascii	"LV_STYLE_ANIM_SPEED\000"
 9182      54594C45 
 9182      5F414E49 
 9182      4D5F5350 
 9182      45454400 
 9183              	.LASF179:
 9184 0c46 4C565F46 		.ascii	"LV_FONT_FMT_TXT_CMAP_FORMAT0_FULL\000"
 9184      4F4E545F 
 9184      464D545F 
 9184      5458545F 
 9184      434D4150 
 9185              	.LASF317:
 9186 0c68 4C565F53 		.ascii	"LV_STYLE_GRID_CELL_X_ALIGN\000"
 9186      54594C45 
 9186      5F475249 
 9186      445F4345 
 9186      4C4C5F58 
 9187              	.LASF112:
 9188 0c83 4C565F53 		.ascii	"LV_STYLE_TEXT_ALIGN\000"
 9188      54594C45 
 9188      5F544558 
 9188      545F414C 
 9188      49474E00 
 9189              	.LASF206:
 9190 0c97 676C7970 		.ascii	"glyph_bitmap\000"
 9190      685F6269 
 9190      746D6170 
 9190      00
 9191              	.LASF319:
 9192 0ca4 4C565F53 		.ascii	"LV_STYLE_GRID_CELL_ROW_SPAN\000"
 9192      54594C45 
 9192      5F475249 
 9192      445F4345 
 9192      4C4C5F52 
 9193              	.LASF234:
 9194 0cc0 62697473 		.ascii	"bits_per_pixel\000"
 9194      5F706572 
 9194      5F706978 
 9194      656C00
 9195              	.LASF216:
 9196 0ccf 62797465 		.ascii	"byte_value\000"
 9196      5F76616C 
 9196      756500
 9197              	.LASF262:
 9198 0cda 6C6F6164 		.ascii	"load_cmaps\000"
 9198      5F636D61 
 9198      707300
 9199              	.LASF121:
 9200 0ce5 4C565F53 		.ascii	"LV_STYLE_TRANSFORM_WIDTH\000"
 9200      54594C45 
 9200      5F545241 
 9200      4E53464F 
 9200      524D5F57 
 9201              	.LASF297:
 9202 0cfe 6661696C 		.ascii	"failed\000"
 9202      656400
ARM GAS  C:\Users\haske\AppData\Local\Temp\cc5ISl1k.s 			page 188


 9203              	.LASF170:
 9204 0d05 73746172 		.ascii	"start\000"
 9204      7400
 9205              	.LASF193:
 9206 0d0b 76616C75 		.ascii	"values\000"
 9206      657300
 9207              	.LASF85:
 9208 0d12 4C565F53 		.ascii	"LV_STYLE_OUTLINE_PAD\000"
 9208      54594C45 
 9208      5F4F5554 
 9208      4C494E45 
 9208      5F504144 
 9209              	.LASF140:
 9210 0d27 4C565F46 		.ascii	"LV_FS_RES_DENIED\000"
 9210      535F5245 
 9210      535F4445 
 9210      4E494544 
 9210      00
 9211              	.LASF86:
 9212 0d38 4C565F53 		.ascii	"LV_STYLE_SHADOW_WIDTH\000"
 9212      54594C45 
 9212      5F534841 
 9212      444F575F 
 9212      57494454 
 9213              	.LASF150:
 9214 0d4e 6C765F66 		.ascii	"lv_fs_mode_t\000"
 9214      735F6D6F 
 9214      64655F74 
 9214      00
 9215              	.LASF204:
 9216 0d5b 6C617374 		.ascii	"last_glyph_id\000"
 9216      5F676C79 
 9216      70685F69 
 9216      6400
 9217              	.LASF158:
 9218 0d69 63616368 		.ascii	"cache_size\000"
 9218      655F7369 
 9218      7A6500
 9219              	.LASF36:
 9220 0d74 73756270 		.ascii	"subpx\000"
 9220      7800
 9221              	.LASF119:
 9222 0d7a 4C565F53 		.ascii	"LV_STYLE_TRANSITION\000"
 9222      54594C45 
 9222      5F545241 
 9222      4E534954 
 9222      494F4E00 
 9223              	.LASF246:
 9224 0d8e 636D6170 		.ascii	"cmap_table_bin_t\000"
 9224      5F746162 
 9224      6C655F62 
 9224      696E5F74 
 9224      00
 9225              	.LASF242:
 9226 0d9f 636D6170 		.ascii	"cmap_table_bin\000"
 9226      5F746162 
 9226      6C655F62 
ARM GAS  C:\Users\haske\AppData\Local\Temp\cc5ISl1k.s 			page 189


 9226      696E00
 9227              	.LASF117:
 9228 0dae 4C565F53 		.ascii	"LV_STYLE_ANIM_TIME\000"
 9228      54594C45 
 9228      5F414E49 
 9228      4D5F5449 
 9228      4D4500
 9229              	.LASF101:
 9230 0dc1 4C565F53 		.ascii	"LV_STYLE_ARC_WIDTH\000"
 9230      54594C45 
 9230      5F415243 
 9230      5F574944 
 9230      544800
 9231              	.LASF164:
 9232 0dd4 7365656B 		.ascii	"seek_cb\000"
 9232      5F636200 
 9233              	.LASF205:
 9234 0ddc 6C765F66 		.ascii	"lv_font_fmt_txt_glyph_cache_t\000"
 9234      6F6E745F 
 9234      666D745F 
 9234      7478745F 
 9234      676C7970 
 9235              	.LASF21:
 9236 0dfa 6C6F6E67 		.ascii	"long double\000"
 9236      20646F75 
 9236      626C6500 
 9237              	.LASF149:
 9238 0e06 4C565F46 		.ascii	"LV_FS_MODE_RD\000"
 9238      535F4D4F 
 9238      44455F52 
 9238      4400
 9239              	.LASF18:
 9240 0e14 75696E74 		.ascii	"uint16_t\000"
 9240      31365F74 
 9240      00
 9241              	.LASF278:
 9242 0e1d 626D705F 		.ascii	"bmp_size\000"
 9242      73697A65 
 9242      00
 9243              	.LASF177:
 9244 0e26 6269746D 		.ascii	"bitmap_index\000"
 9244      61705F69 
 9244      6E646578 
 9244      00
 9245              	.LASF307:
 9246 0e33 4C565F53 		.ascii	"LV_STYLE_FLEX_MAIN_PLACE\000"
 9246      54594C45 
 9246      5F464C45 
 9246      585F4D41 
 9246      494E5F50 
 9247              	.LASF309:
 9248 0e4c 4C565F53 		.ascii	"LV_STYLE_FLEX_TRACK_PLACE\000"
 9248      54594C45 
 9248      5F464C45 
 9248      585F5452 
 9248      41434B5F 
 9249              	.LASF233:
ARM GAS  C:\Users\haske\AppData\Local\Temp\cc5ISl1k.s 			page 190


 9250 0e66 61647661 		.ascii	"advance_width_format\000"
 9250      6E63655F 
 9250      77696474 
 9250      685F666F 
 9250      726D6174 
 9251              	.LASF171:
 9252 0e7b 66696C65 		.ascii	"file_position\000"
 9252      5F706F73 
 9252      6974696F 
 9252      6E00
 9253              	.LASF61:
 9254 0e89 4C565F53 		.ascii	"LV_STYLE_PAD_COLUMN\000"
 9254      54594C45 
 9254      5F504144 
 9254      5F434F4C 
 9254      554D4E00 
 9255              	.LASF22:
 9256 0e9d 73697A65 		.ascii	"sizetype\000"
 9256      74797065 
 9256      00
 9257              	.LASF43:
 9258 0ea6 6C765F66 		.ascii	"lv_font_t\000"
 9258      6F6E745F 
 9258      7400
 9259              	.LASF287:
 9260 0eb0 6B65726E 		.ascii	"kern_table_cols\000"
 9260      5F746162 
 9260      6C655F63 
 9260      6F6C7300 
 9261              	.LASF230:
 9262 0ec0 6B65726E 		.ascii	"kerning_scale\000"
 9262      696E675F 
 9262      7363616C 
 9262      6500
 9263              	.LASF104:
 9264 0ece 4C565F53 		.ascii	"LV_STYLE_ARC_OPA\000"
 9264      54594C45 
 9264      5F415243 
 9264      5F4F5041 
 9264      00
 9265              	.LASF156:
 9266 0edf 5F6C765F 		.ascii	"_lv_fs_drv_t\000"
 9266      66735F64 
 9266      72765F74 
 9266      00
 9267              	.LASF284:
 9268 0eec 676C7970 		.ascii	"glyph_entries\000"
 9268      685F656E 
 9268      74726965 
 9268      7300
 9269              	.LASF259:
 9270 0efa 72656164 		.ascii	"read_label\000"
 9270      5F6C6162 
 9270      656C00
 9271              	.LASF253:
 9272 0f05 666F6E74 		.ascii	"font_dsc\000"
 9272      5F647363 
ARM GAS  C:\Users\haske\AppData\Local\Temp\cc5ISl1k.s 			page 191


 9272      00
 9273              	.LASF9:
 9274 0f0e 6C6F6E67 		.ascii	"long int\000"
 9274      20696E74 
 9274      00
 9275              	.LASF314:
 9276 0f17 4C565F53 		.ascii	"LV_STYLE_GRID_ROW_ALIGN\000"
 9276      54594C45 
 9276      5F475249 
 9276      445F524F 
 9276      575F414C 
 9277              	.LASF222:
 9278 0f2f 61736365 		.ascii	"ascent\000"
 9278      6E7400
 9279              	.LASF261:
 9280 0f36 6C656E67 		.ascii	"length\000"
 9280      746800
 9281              	.LASF50:
 9282 0f3d 4C565F53 		.ascii	"LV_STYLE_MAX_HEIGHT\000"
 9282      54594C45 
 9282      5F4D4158 
 9282      5F484549 
 9282      47485400 
 9283              	.LASF292:
 9284 0f51 6C76676C 		.ascii	"lvgl_load_font\000"
 9284      5F6C6F61 
 9284      645F666F 
 9284      6E7400
 9285              	.LASF92:
 9286 0f60 4C565F53 		.ascii	"LV_STYLE_IMG_OPA\000"
 9286      54594C45 
 9286      5F494D47 
 9286      5F4F5041 
 9286      00
 9287              	.LASF323:
 9288 0f71 6C765F66 		.ascii	"lv_fs_seek\000"
 9288      735F7365 
 9288      656B00
 9289              	.LASF107:
 9290 0f7c 4C565F53 		.ascii	"LV_STYLE_TEXT_OPA\000"
 9290      54594C45 
 9290      5F544558 
 9290      545F4F50 
 9290      4100
 9291              	.LASF191:
 9292 0f8e 6C765F66 		.ascii	"lv_font_fmt_txt_cmap_t\000"
 9292      6F6E745F 
 9292      666D745F 
 9292      7478745F 
 9292      636D6170 
 9293              	.LASF311:
 9294 0fa5 4C565F53 		.ascii	"LV_STYLE_GRID_COLUMN_DSC_ARRAY\000"
 9294      54594C45 
 9294      5F475249 
 9294      445F434F 
 9294      4C554D4E 
 9295              	.LASF324:
ARM GAS  C:\Users\haske\AppData\Local\Temp\cc5ISl1k.s 			page 192


 9296 0fc4 6D656D63 		.ascii	"memcmp\000"
 9296      6D7000
 9297              	.LASF160:
 9298 0fcb 6F70656E 		.ascii	"open_cb\000"
 9298      5F636200 
 9299              	.LASF97:
 9300 0fd3 4C565F53 		.ascii	"LV_STYLE_LINE_DASH_GAP\000"
 9300      54594C45 
 9300      5F4C494E 
 9300      455F4441 
 9300      53485F47 
 9301              	.LASF114:
 9302 0fea 4C565F53 		.ascii	"LV_STYLE_COLOR_FILTER_DSC\000"
 9302      54594C45 
 9302      5F434F4C 
 9302      4F525F46 
 9302      494C5445 
 9303              	.LASF24:
 9304 1004 6C765F63 		.ascii	"lv_coord_t\000"
 9304      6F6F7264 
 9304      5F7400
 9305              	.LASF109:
 9306 100f 4C565F53 		.ascii	"LV_STYLE_TEXT_LETTER_SPACE\000"
 9306      54594C45 
 9306      5F544558 
 9306      545F4C45 
 9306      54544552 
 9307              	.LASF229:
 9308 102a 64656661 		.ascii	"default_advance_width\000"
 9308      756C745F 
 9308      61647661 
 9308      6E63655F 
 9308      77696474 
 9309              	.LASF214:
 9310 1040 6C765F66 		.ascii	"lv_font_fmt_txt_dsc_t\000"
 9310      6F6E745F 
 9310      666D745F 
 9310      7478745F 
 9310      6473635F 
 9311              	.LASF1:
 9312 1056 5F5F7569 		.ascii	"__uint8_t\000"
 9312      6E74385F 
 9312      7400
 9313              	.LASF266:
 9314 1060 73756363 		.ascii	"success\000"
 9314      65737300 
 9315              	.LASF173:
 9316 1068 6C765F66 		.ascii	"lv_fs_file_cache_t\000"
 9316      735F6669 
 9316      6C655F63 
 9316      61636865 
 9316      5F7400
 9317              	.LASF326:
 9318 107b 6C765F66 		.ascii	"lv_fs_open\000"
 9318      735F6F70 
 9318      656E00
 9319              	.LASF0:
ARM GAS  C:\Users\haske\AppData\Local\Temp\cc5ISl1k.s 			page 193


 9320 1086 5F5F696E 		.ascii	"__int8_t\000"
 9320      74385F74 
 9320      00
 9321              	.LASF40:
 9322 108f 75736572 		.ascii	"user_data\000"
 9322      5F646174 
 9322      6100
 9323              	.LASF28:
 9324 1099 626F785F 		.ascii	"box_h\000"
 9324      6800
 9325              	.LASF197:
 9326 109f 636C6173 		.ascii	"class_pair_values\000"
 9326      735F7061 
 9326      69725F76 
 9326      616C7565 
 9326      7300
 9327              	.LASF299:
 9328 10b1 6B65726E 		.ascii	"kern_start\000"
 9328      5F737461 
 9328      727400
 9329              	.LASF329:
 9330 10bc 2E2E5C2E 		.ascii	"..\\..\\..\\arduinoLCD\\test\\Pain Drain\\libraries"
 9330      2E5C2E2E 
 9330      5C617264 
 9330      75696E6F 
 9330      4C43445C 
 9331 10e9 5C6C7667 		.ascii	"\\lvgl\\src\\font\\lv_font_loader.c\000"
 9331      6C5C7372 
 9331      635C666F 
 9331      6E745C6C 
 9331      765F666F 
 9332              	.LASF279:
 9333 1109 666F6E74 		.ascii	"font\000"
 9333      00
 9334              	.LASF273:
 9335 110e 676C7970 		.ascii	"glyph_bmp\000"
 9335      685F626D 
 9335      7000
 9336              	.LASF111:
 9337 1118 4C565F53 		.ascii	"LV_STYLE_TEXT_DECOR\000"
 9337      54594C45 
 9337      5F544558 
 9337      545F4445 
 9337      434F5200 
 9338              	.LASF27:
 9339 112c 626F785F 		.ascii	"box_w\000"
 9339      7700
 9340              	.LASF255:
 9341 1132 636D6170 		.ascii	"cmap_table\000"
 9341      5F746162 
 9341      6C6500
 9342              	.LASF78:
 9343 113d 4C565F53 		.ascii	"LV_STYLE_BORDER_OPA\000"
 9343      54594C45 
 9343      5F424F52 
 9343      4445525F 
 9343      4F504100 
ARM GAS  C:\Users\haske\AppData\Local\Temp\cc5ISl1k.s 			page 194


 9344              	.LASF282:
 9345 1151 6B65726E 		.ascii	"kern_format_type\000"
 9345      5F666F72 
 9345      6D61745F 
 9345      74797065 
 9345      00
 9346              	.LASF316:
 9347 1162 4C565F53 		.ascii	"LV_STYLE_GRID_CELL_COLUMN_SPAN\000"
 9347      54594C45 
 9347      5F475249 
 9347      445F4345 
 9347      4C4C5F43 
 9348              	.LASF126:
 9349 1181 4C565F53 		.ascii	"LV_STYLE_TRANSFORM_ANGLE\000"
 9349      54594C45 
 9349      5F545241 
 9349      4E53464F 
 9349      524D5F41 
 9350              	.LASF108:
 9351 119a 4C565F53 		.ascii	"LV_STYLE_TEXT_FONT\000"
 9351      54594C45 
 9351      5F544558 
 9351      545F464F 
 9351      4E5400
 9352              	.LASF166:
 9353 11ad 6469725F 		.ascii	"dir_open_cb\000"
 9353      6F70656E 
 9353      5F636200 
 9354              	.LASF19:
 9355 11b9 696E7433 		.ascii	"int32_t\000"
 9355      325F7400 
 9356              	.LASF35:
 9357 11c1 62617365 		.ascii	"base_line\000"
 9357      5F6C696E 
 9357      6500
 9358              	.LASF223:
 9359 11cb 64657363 		.ascii	"descent\000"
 9359      656E7400 
 9360              	.LASF127:
 9361 11d3 4C565F53 		.ascii	"LV_STYLE_TRANSFORM_PIVOT_X\000"
 9361      54594C45 
 9361      5F545241 
 9361      4E53464F 
 9361      524D5F50 
 9362              	.LASF275:
 9363 11ee 6269745F 		.ascii	"bit_it\000"
 9363      697400
 9364              	.LASF202:
 9365 11f5 6C765F66 		.ascii	"lv_font_fmt_txt_kern_classes_t\000"
 9365      6F6E745F 
 9365      666D745F 
 9365      7478745F 
 9365      6B65726E 
 9366              	.LASF190:
 9367 1214 74797065 		.ascii	"type\000"
 9367      00
 9368              	.LASF212:
ARM GAS  C:\Users\haske\AppData\Local\Temp\cc5ISl1k.s 			page 195


 9369 1219 6B65726E 		.ascii	"kern_classes\000"
 9369      5F636C61 
 9369      73736573 
 9369      00
 9370              	.LASF3:
 9371 1226 756E7369 		.ascii	"unsigned char\000"
 9371      676E6564 
 9371      20636861 
 9371      7200
 9372              	.LASF10:
 9373 1234 5F5F7569 		.ascii	"__uint32_t\000"
 9373      6E743332 
 9373      5F7400
 9374              	.LASF131:
 9375 123f 4C565F53 		.ascii	"LV_STYLE_PROP_ANY\000"
 9375      54594C45 
 9375      5F50524F 
 9375      505F414E 
 9375      5900
 9376              	.LASF33:
 9377 1251 6765745F 		.ascii	"get_glyph_bitmap\000"
 9377      676C7970 
 9377      685F6269 
 9377      746D6170 
 9377      00
 9378              	.LASF135:
 9379 1262 4C565F46 		.ascii	"LV_FS_RES_HW_ERR\000"
 9379      535F5245 
 9379      535F4857 
 9379      5F455252 
 9379      00
 9380              	.LASF49:
 9381 1273 4C565F53 		.ascii	"LV_STYLE_MIN_HEIGHT\000"
 9381      54594C45 
 9381      5F4D494E 
 9381      5F484549 
 9381      47485400 
 9382              	.LASF321:
 9383 1287 6C765F66 		.ascii	"lv_fs_read\000"
 9383      735F7265 
 9383      616400
 9384              	.LASF146:
 9385 1292 4C565F46 		.ascii	"LV_FS_RES_UNKNOWN\000"
 9385      535F5245 
 9385      535F554E 
 9385      4B4E4F57 
 9385      4E00
 9386              	.LASF243:
 9387 12a4 64617461 		.ascii	"data_offset\000"
 9387      5F6F6666 
 9387      73657400 
 9388              	.LASF77:
 9389 12b0 4C565F53 		.ascii	"LV_STYLE_BORDER_COLOR\000"
 9389      54594C45 
 9389      5F424F52 
 9389      4445525F 
 9389      434F4C4F 
ARM GAS  C:\Users\haske\AppData\Local\Temp\cc5ISl1k.s 			page 196


 9390              	.LASF228:
 9391 12c6 6D61785F 		.ascii	"max_y\000"
 9391      7900
 9392              	.LASF178:
 9393 12cc 6C765F66 		.ascii	"lv_font_fmt_txt_glyph_dsc_t\000"
 9393      6F6E745F 
 9393      666D745F 
 9393      7478745F 
 9393      676C7970 
 9394              	.LASF260:
 9395 12e8 6C616265 		.ascii	"label\000"
 9395      6C00
 9396              	.LASF90:
 9397 12ee 4C565F53 		.ascii	"LV_STYLE_SHADOW_COLOR\000"
 9397      54594C45 
 9397      5F534841 
 9397      444F575F 
 9397      434F4C4F 
 9398              	.LASF63:
 9399 1304 4C565F53 		.ascii	"LV_STYLE_CLIP_CORNER\000"
 9399      54594C45 
 9399      5F434C49 
 9399      505F434F 
 9399      524E4552 
 9400              	.LASF122:
 9401 1319 4C565F53 		.ascii	"LV_STYLE_TRANSFORM_HEIGHT\000"
 9401      54594C45 
 9401      5F545241 
 9401      4E53464F 
 9401      524D5F48 
 9402              	.LASF46:
 9403 1333 4C565F53 		.ascii	"LV_STYLE_MIN_WIDTH\000"
 9403      54594C45 
 9403      5F4D494E 
 9403      5F574944 
 9403      544800
 9404              	.LASF75:
 9405 1346 4C565F53 		.ascii	"LV_STYLE_BG_IMG_RECOLOR_OPA\000"
 9405      54594C45 
 9405      5F42475F 
 9405      494D475F 
 9405      5245434F 
 9406              	.LASF175:
 9407 1362 63616368 		.ascii	"cache\000"
 9407      6500
 9408              	.LASF308:
 9409 1368 4C565F53 		.ascii	"LV_STYLE_FLEX_CROSS_PLACE\000"
 9409      54594C45 
 9409      5F464C45 
 9409      585F4352 
 9409      4F53535F 
 9410              	.LASF39:
 9411 1382 66616C6C 		.ascii	"fallback\000"
 9411      6261636B 
 9411      00
 9412              	.LASF103:
 9413 138b 4C565F53 		.ascii	"LV_STYLE_ARC_COLOR\000"
ARM GAS  C:\Users\haske\AppData\Local\Temp\cc5ISl1k.s 			page 197


 9413      54594C45 
 9413      5F415243 
 9413      5F434F4C 
 9413      4F5200
 9414              	.LASF325:
 9415 139e 6C765F6D 		.ascii	"lv_mem_free\000"
 9415      656D5F66 
 9415      72656500 
 9416              	.LASF2:
 9417 13aa 7369676E 		.ascii	"signed char\000"
 9417      65642063 
 9417      68617200 
 9418              	.LASF45:
 9419 13b6 4C565F53 		.ascii	"LV_STYLE_WIDTH\000"
 9419      54594C45 
 9419      5F574944 
 9419      544800
 9420              	.LASF7:
 9421 13c5 73686F72 		.ascii	"short unsigned int\000"
 9421      7420756E 
 9421      7369676E 
 9421      65642069 
 9421      6E7400
 9422              	.LASF185:
 9423 13d8 72616E67 		.ascii	"range_length\000"
 9423      655F6C65 
 9423      6E677468 
 9423      00
 9424              	.LASF291:
 9425 13e5 6B65726E 		.ascii	"kern_values\000"
 9425      5F76616C 
 9425      75657300 
 9426              	.LASF220:
 9427 13f1 7461626C 		.ascii	"tables_count\000"
 9427      65735F63 
 9427      6F756E74 
 9427      00
 9428              	.LASF89:
 9429 13fe 4C565F53 		.ascii	"LV_STYLE_SHADOW_SPREAD\000"
 9429      54594C45 
 9429      5F534841 
 9429      444F575F 
 9429      53505245 
 9430              	.LASF201:
 9431 1415 72696768 		.ascii	"right_class_cnt\000"
 9431      745F636C 
 9431      6173735F 
 9431      636E7400 
 9432              	.LASF72:
 9433 1425 4C565F53 		.ascii	"LV_STYLE_BG_IMG_SRC\000"
 9433      54594C45 
 9433      5F42475F 
 9433      494D475F 
 9433      53524300 
 9434              	.LASF113:
 9435 1439 4C565F53 		.ascii	"LV_STYLE_OPA\000"
 9435      54594C45 
ARM GAS  C:\Users\haske\AppData\Local\Temp\cc5ISl1k.s 			page 198


 9435      5F4F5041 
 9435      00
 9436              	.LASF249:
 9437 1446 6E5F6269 		.ascii	"n_bits\000"
 9437      747300
 9438              	.LASF31:
 9439 144d 69735F70 		.ascii	"is_placeholder\000"
 9439      6C616365 
 9439      686F6C64 
 9439      657200
 9440              	.LASF207:
 9441 145c 676C7970 		.ascii	"glyph_dsc\000"
 9441      685F6473 
 9441      6300
 9442              	.LASF76:
 9443 1466 4C565F53 		.ascii	"LV_STYLE_BG_IMG_TILED\000"
 9443      54594C45 
 9443      5F42475F 
 9443      494D475F 
 9443      54494C45 
 9444              	.LASF83:
 9445 147c 4C565F53 		.ascii	"LV_STYLE_OUTLINE_COLOR\000"
 9445      54594C45 
 9445      5F4F5554 
 9445      4C494E45 
 9445      5F434F4C 
 9446              	.LASF252:
 9447 1493 6C6F6164 		.ascii	"load_cmaps_tables\000"
 9447      5F636D61 
 9447      70735F74 
 9447      61626C65 
 9447      7300
 9448              	.LASF133:
 9449 14a5 6C765F73 		.ascii	"lv_style_prop_t\000"
 9449      74796C65 
 9449      5F70726F 
 9449      705F7400 
 9450              	.LASF192:
 9451 14b5 676C7970 		.ascii	"glyph_ids\000"
 9451      685F6964 
 9451      7300
 9452              	.LASF310:
 9453 14bf 4C565F53 		.ascii	"LV_STYLE_FLEX_GROW\000"
 9453      54594C45 
 9453      5F464C45 
 9453      585F4752 
 9453      4F5700
 9454              	.LASF148:
 9455 14d2 4C565F46 		.ascii	"LV_FS_MODE_WR\000"
 9455      535F4D4F 
 9455      44455F57 
 9455      5200
 9456              	.LASF120:
 9457 14e0 4C565F53 		.ascii	"LV_STYLE_BLEND_MODE\000"
 9457      54594C45 
 9457      5F424C45 
 9457      4E445F4D 
ARM GAS  C:\Users\haske\AppData\Local\Temp\cc5ISl1k.s 			page 199


 9457      4F444500 
 9458              	.LASF152:
 9459 14f4 4C565F46 		.ascii	"LV_FS_SEEK_CUR\000"
 9459      535F5345 
 9459      454B5F43 
 9459      555200
 9460              	.LASF331:
 9461 1503 6C765F66 		.ascii	"lv_font_free\000"
 9461      6F6E745F 
 9461      66726565 
 9461      00
 9462              	.LASF302:
 9463 1510 6C765F66 		.ascii	"lv_font_load\000"
 9463      6F6E745F 
 9463      6C6F6164 
 9463      00
 9464              	.LASF257:
 9465 151d 6964735F 		.ascii	"ids_size\000"
 9465      73697A65 
 9465      00
 9466              	.LASF26:
 9467 1526 6164765F 		.ascii	"adv_w\000"
 9467      7700
 9468              	.LASF224:
 9469 152c 7479706F 		.ascii	"typo_ascent\000"
 9469      5F617363 
 9469      656E7400 
 9470              		.ident	"GCC: (GNU Tools for ARM Embedded Processors) 5.4.1 20160609 (release) [ARM/embedded-5-bran
