ARM GAS  C:\Users\haske\AppData\Local\Temp\cc5ISl1k.s 			page 1


   1              		.syntax unified
   2              		.cpu cortex-m0plus
   3              		.fpu softvfp
   4              		.eabi_attribute 20, 1
   5              		.eabi_attribute 21, 1
   6              		.eabi_attribute 23, 3
   7              		.eabi_attribute 24, 1
   8              		.eabi_attribute 25, 1
   9              		.eabi_attribute 26, 1
  10              		.eabi_attribute 30, 1
  11              		.eabi_attribute 34, 0
  12              		.eabi_attribute 18, 4
  13              		.thumb
  14              		.syntax unified
  15              		.file	"lv_font_loader.c"
  16              		.text
  17              	.Ltext0:
  18              		.cfi_sections	.debug_frame
  19              		.section	.text.init_bit_iterator,"ax",%progbits
  20              		.align	2
  21              		.code	16
  22              		.thumb_func
  23              		.type	init_bit_iterator, %function
  24              	init_bit_iterator:
  25              	.LFB204:
  26              		.file 1 "..\\..\\..\\arduinoLCD\\test\\Pain Drain\\libraries\\lvgl\\src\\font\\lv_font_loader.c"
   1:..\..\..\arduinoLCD\test\Pain Drain\libraries\lvgl\src\font/lv_font_loader.c **** /**
   2:..\..\..\arduinoLCD\test\Pain Drain\libraries\lvgl\src\font/lv_font_loader.c ****  * @file lv_font_loader.c
   3:..\..\..\arduinoLCD\test\Pain Drain\libraries\lvgl\src\font/lv_font_loader.c ****  *
   4:..\..\..\arduinoLCD\test\Pain Drain\libraries\lvgl\src\font/lv_font_loader.c ****  */
   5:..\..\..\arduinoLCD\test\Pain Drain\libraries\lvgl\src\font/lv_font_loader.c **** 
   6:..\..\..\arduinoLCD\test\Pain Drain\libraries\lvgl\src\font/lv_font_loader.c **** /*********************
   7:..\..\..\arduinoLCD\test\Pain Drain\libraries\lvgl\src\font/lv_font_loader.c ****  *      INCLUDES
   8:..\..\..\arduinoLCD\test\Pain Drain\libraries\lvgl\src\font/lv_font_loader.c ****  *********************/
   9:..\..\..\arduinoLCD\test\Pain Drain\libraries\lvgl\src\font/lv_font_loader.c **** 
  10:..\..\..\arduinoLCD\test\Pain Drain\libraries\lvgl\src\font/lv_font_loader.c **** #include <stdint.h>
  11:..\..\..\arduinoLCD\test\Pain Drain\libraries\lvgl\src\font/lv_font_loader.c **** #include <stdbool.h>
  12:..\..\..\arduinoLCD\test\Pain Drain\libraries\lvgl\src\font/lv_font_loader.c **** 
  13:..\..\..\arduinoLCD\test\Pain Drain\libraries\lvgl\src\font/lv_font_loader.c **** #include "../lvgl.h"
  14:..\..\..\arduinoLCD\test\Pain Drain\libraries\lvgl\src\font/lv_font_loader.c **** #include "../misc/lv_fs.h"
  15:..\..\..\arduinoLCD\test\Pain Drain\libraries\lvgl\src\font/lv_font_loader.c **** #include "lv_font_loader.h"
  16:..\..\..\arduinoLCD\test\Pain Drain\libraries\lvgl\src\font/lv_font_loader.c **** 
  17:..\..\..\arduinoLCD\test\Pain Drain\libraries\lvgl\src\font/lv_font_loader.c **** /**********************
  18:..\..\..\arduinoLCD\test\Pain Drain\libraries\lvgl\src\font/lv_font_loader.c ****  *      TYPEDEFS
  19:..\..\..\arduinoLCD\test\Pain Drain\libraries\lvgl\src\font/lv_font_loader.c ****  **********************/
  20:..\..\..\arduinoLCD\test\Pain Drain\libraries\lvgl\src\font/lv_font_loader.c **** typedef struct {
  21:..\..\..\arduinoLCD\test\Pain Drain\libraries\lvgl\src\font/lv_font_loader.c ****     lv_fs_file_t * fp;
  22:..\..\..\arduinoLCD\test\Pain Drain\libraries\lvgl\src\font/lv_font_loader.c ****     int8_t bit_pos;
  23:..\..\..\arduinoLCD\test\Pain Drain\libraries\lvgl\src\font/lv_font_loader.c ****     uint8_t byte_value;
  24:..\..\..\arduinoLCD\test\Pain Drain\libraries\lvgl\src\font/lv_font_loader.c **** } bit_iterator_t;
  25:..\..\..\arduinoLCD\test\Pain Drain\libraries\lvgl\src\font/lv_font_loader.c **** 
  26:..\..\..\arduinoLCD\test\Pain Drain\libraries\lvgl\src\font/lv_font_loader.c **** typedef struct font_header_bin {
  27:..\..\..\arduinoLCD\test\Pain Drain\libraries\lvgl\src\font/lv_font_loader.c ****     uint32_t version;
  28:..\..\..\arduinoLCD\test\Pain Drain\libraries\lvgl\src\font/lv_font_loader.c ****     uint16_t tables_count;
  29:..\..\..\arduinoLCD\test\Pain Drain\libraries\lvgl\src\font/lv_font_loader.c ****     uint16_t font_size;
  30:..\..\..\arduinoLCD\test\Pain Drain\libraries\lvgl\src\font/lv_font_loader.c ****     uint16_t ascent;
  31:..\..\..\arduinoLCD\test\Pain Drain\libraries\lvgl\src\font/lv_font_loader.c ****     int16_t descent;
ARM GAS  C:\Users\haske\AppData\Local\Temp\cc5ISl1k.s 			page 2


  32:..\..\..\arduinoLCD\test\Pain Drain\libraries\lvgl\src\font/lv_font_loader.c ****     uint16_t typo_ascent;
  33:..\..\..\arduinoLCD\test\Pain Drain\libraries\lvgl\src\font/lv_font_loader.c ****     int16_t typo_descent;
  34:..\..\..\arduinoLCD\test\Pain Drain\libraries\lvgl\src\font/lv_font_loader.c ****     uint16_t typo_line_gap;
  35:..\..\..\arduinoLCD\test\Pain Drain\libraries\lvgl\src\font/lv_font_loader.c ****     int16_t min_y;
  36:..\..\..\arduinoLCD\test\Pain Drain\libraries\lvgl\src\font/lv_font_loader.c ****     int16_t max_y;
  37:..\..\..\arduinoLCD\test\Pain Drain\libraries\lvgl\src\font/lv_font_loader.c ****     uint16_t default_advance_width;
  38:..\..\..\arduinoLCD\test\Pain Drain\libraries\lvgl\src\font/lv_font_loader.c ****     uint16_t kerning_scale;
  39:..\..\..\arduinoLCD\test\Pain Drain\libraries\lvgl\src\font/lv_font_loader.c ****     uint8_t index_to_loc_format;
  40:..\..\..\arduinoLCD\test\Pain Drain\libraries\lvgl\src\font/lv_font_loader.c ****     uint8_t glyph_id_format;
  41:..\..\..\arduinoLCD\test\Pain Drain\libraries\lvgl\src\font/lv_font_loader.c ****     uint8_t advance_width_format;
  42:..\..\..\arduinoLCD\test\Pain Drain\libraries\lvgl\src\font/lv_font_loader.c ****     uint8_t bits_per_pixel;
  43:..\..\..\arduinoLCD\test\Pain Drain\libraries\lvgl\src\font/lv_font_loader.c ****     uint8_t xy_bits;
  44:..\..\..\arduinoLCD\test\Pain Drain\libraries\lvgl\src\font/lv_font_loader.c ****     uint8_t wh_bits;
  45:..\..\..\arduinoLCD\test\Pain Drain\libraries\lvgl\src\font/lv_font_loader.c ****     uint8_t advance_width_bits;
  46:..\..\..\arduinoLCD\test\Pain Drain\libraries\lvgl\src\font/lv_font_loader.c ****     uint8_t compression_id;
  47:..\..\..\arduinoLCD\test\Pain Drain\libraries\lvgl\src\font/lv_font_loader.c ****     uint8_t subpixels_mode;
  48:..\..\..\arduinoLCD\test\Pain Drain\libraries\lvgl\src\font/lv_font_loader.c ****     uint8_t padding;
  49:..\..\..\arduinoLCD\test\Pain Drain\libraries\lvgl\src\font/lv_font_loader.c ****     int16_t underline_position;
  50:..\..\..\arduinoLCD\test\Pain Drain\libraries\lvgl\src\font/lv_font_loader.c ****     uint16_t underline_thickness;
  51:..\..\..\arduinoLCD\test\Pain Drain\libraries\lvgl\src\font/lv_font_loader.c **** } font_header_bin_t;
  52:..\..\..\arduinoLCD\test\Pain Drain\libraries\lvgl\src\font/lv_font_loader.c **** 
  53:..\..\..\arduinoLCD\test\Pain Drain\libraries\lvgl\src\font/lv_font_loader.c **** typedef struct cmap_table_bin {
  54:..\..\..\arduinoLCD\test\Pain Drain\libraries\lvgl\src\font/lv_font_loader.c ****     uint32_t data_offset;
  55:..\..\..\arduinoLCD\test\Pain Drain\libraries\lvgl\src\font/lv_font_loader.c ****     uint32_t range_start;
  56:..\..\..\arduinoLCD\test\Pain Drain\libraries\lvgl\src\font/lv_font_loader.c ****     uint16_t range_length;
  57:..\..\..\arduinoLCD\test\Pain Drain\libraries\lvgl\src\font/lv_font_loader.c ****     uint16_t glyph_id_start;
  58:..\..\..\arduinoLCD\test\Pain Drain\libraries\lvgl\src\font/lv_font_loader.c ****     uint16_t data_entries_count;
  59:..\..\..\arduinoLCD\test\Pain Drain\libraries\lvgl\src\font/lv_font_loader.c ****     uint8_t format_type;
  60:..\..\..\arduinoLCD\test\Pain Drain\libraries\lvgl\src\font/lv_font_loader.c ****     uint8_t padding;
  61:..\..\..\arduinoLCD\test\Pain Drain\libraries\lvgl\src\font/lv_font_loader.c **** } cmap_table_bin_t;
  62:..\..\..\arduinoLCD\test\Pain Drain\libraries\lvgl\src\font/lv_font_loader.c **** 
  63:..\..\..\arduinoLCD\test\Pain Drain\libraries\lvgl\src\font/lv_font_loader.c **** /**********************
  64:..\..\..\arduinoLCD\test\Pain Drain\libraries\lvgl\src\font/lv_font_loader.c ****  *  STATIC PROTOTYPES
  65:..\..\..\arduinoLCD\test\Pain Drain\libraries\lvgl\src\font/lv_font_loader.c ****  **********************/
  66:..\..\..\arduinoLCD\test\Pain Drain\libraries\lvgl\src\font/lv_font_loader.c **** static bit_iterator_t init_bit_iterator(lv_fs_file_t * fp);
  67:..\..\..\arduinoLCD\test\Pain Drain\libraries\lvgl\src\font/lv_font_loader.c **** static bool lvgl_load_font(lv_fs_file_t * fp, lv_font_t * font);
  68:..\..\..\arduinoLCD\test\Pain Drain\libraries\lvgl\src\font/lv_font_loader.c **** int32_t load_kern(lv_fs_file_t * fp, lv_font_fmt_txt_dsc_t * font_dsc, uint8_t format, uint32_t sta
  69:..\..\..\arduinoLCD\test\Pain Drain\libraries\lvgl\src\font/lv_font_loader.c **** 
  70:..\..\..\arduinoLCD\test\Pain Drain\libraries\lvgl\src\font/lv_font_loader.c **** static int read_bits_signed(bit_iterator_t * it, int n_bits, lv_fs_res_t * res);
  71:..\..\..\arduinoLCD\test\Pain Drain\libraries\lvgl\src\font/lv_font_loader.c **** static unsigned int read_bits(bit_iterator_t * it, int n_bits, lv_fs_res_t * res);
  72:..\..\..\arduinoLCD\test\Pain Drain\libraries\lvgl\src\font/lv_font_loader.c **** 
  73:..\..\..\arduinoLCD\test\Pain Drain\libraries\lvgl\src\font/lv_font_loader.c **** /**********************
  74:..\..\..\arduinoLCD\test\Pain Drain\libraries\lvgl\src\font/lv_font_loader.c ****  *      MACROS
  75:..\..\..\arduinoLCD\test\Pain Drain\libraries\lvgl\src\font/lv_font_loader.c ****  **********************/
  76:..\..\..\arduinoLCD\test\Pain Drain\libraries\lvgl\src\font/lv_font_loader.c **** 
  77:..\..\..\arduinoLCD\test\Pain Drain\libraries\lvgl\src\font/lv_font_loader.c **** /**********************
  78:..\..\..\arduinoLCD\test\Pain Drain\libraries\lvgl\src\font/lv_font_loader.c ****  *   GLOBAL FUNCTIONS
  79:..\..\..\arduinoLCD\test\Pain Drain\libraries\lvgl\src\font/lv_font_loader.c ****  **********************/
  80:..\..\..\arduinoLCD\test\Pain Drain\libraries\lvgl\src\font/lv_font_loader.c **** 
  81:..\..\..\arduinoLCD\test\Pain Drain\libraries\lvgl\src\font/lv_font_loader.c **** /**
  82:..\..\..\arduinoLCD\test\Pain Drain\libraries\lvgl\src\font/lv_font_loader.c ****  * Loads a `lv_font_t` object from a binary font file
  83:..\..\..\arduinoLCD\test\Pain Drain\libraries\lvgl\src\font/lv_font_loader.c ****  * @param font_name filename where the font file is located
  84:..\..\..\arduinoLCD\test\Pain Drain\libraries\lvgl\src\font/lv_font_loader.c ****  * @return a pointer to the font or NULL in case of error
  85:..\..\..\arduinoLCD\test\Pain Drain\libraries\lvgl\src\font/lv_font_loader.c ****  */
  86:..\..\..\arduinoLCD\test\Pain Drain\libraries\lvgl\src\font/lv_font_loader.c **** lv_font_t * lv_font_load(const char * font_name)
  87:..\..\..\arduinoLCD\test\Pain Drain\libraries\lvgl\src\font/lv_font_loader.c **** {
  88:..\..\..\arduinoLCD\test\Pain Drain\libraries\lvgl\src\font/lv_font_loader.c ****     lv_fs_file_t file;
ARM GAS  C:\Users\haske\AppData\Local\Temp\cc5ISl1k.s 			page 3


  89:..\..\..\arduinoLCD\test\Pain Drain\libraries\lvgl\src\font/lv_font_loader.c ****     lv_fs_res_t res = lv_fs_open(&file, font_name, LV_FS_MODE_RD);
  90:..\..\..\arduinoLCD\test\Pain Drain\libraries\lvgl\src\font/lv_font_loader.c ****     if(res != LV_FS_RES_OK)
  91:..\..\..\arduinoLCD\test\Pain Drain\libraries\lvgl\src\font/lv_font_loader.c ****         return NULL;
  92:..\..\..\arduinoLCD\test\Pain Drain\libraries\lvgl\src\font/lv_font_loader.c **** 
  93:..\..\..\arduinoLCD\test\Pain Drain\libraries\lvgl\src\font/lv_font_loader.c ****     lv_font_t * font = lv_mem_alloc(sizeof(lv_font_t));
  94:..\..\..\arduinoLCD\test\Pain Drain\libraries\lvgl\src\font/lv_font_loader.c ****     if(font) {
  95:..\..\..\arduinoLCD\test\Pain Drain\libraries\lvgl\src\font/lv_font_loader.c ****         memset(font, 0, sizeof(lv_font_t));
  96:..\..\..\arduinoLCD\test\Pain Drain\libraries\lvgl\src\font/lv_font_loader.c ****         if(!lvgl_load_font(&file, font)) {
  97:..\..\..\arduinoLCD\test\Pain Drain\libraries\lvgl\src\font/lv_font_loader.c ****             LV_LOG_WARN("Error loading font file: %s\n", font_name);
  98:..\..\..\arduinoLCD\test\Pain Drain\libraries\lvgl\src\font/lv_font_loader.c ****             /*
  99:..\..\..\arduinoLCD\test\Pain Drain\libraries\lvgl\src\font/lv_font_loader.c ****             * When `lvgl_load_font` fails it can leak some pointers.
 100:..\..\..\arduinoLCD\test\Pain Drain\libraries\lvgl\src\font/lv_font_loader.c ****             * All non-null pointers can be assumed as allocated and
 101:..\..\..\arduinoLCD\test\Pain Drain\libraries\lvgl\src\font/lv_font_loader.c ****             * `lv_font_free` should free them correctly.
 102:..\..\..\arduinoLCD\test\Pain Drain\libraries\lvgl\src\font/lv_font_loader.c ****             */
 103:..\..\..\arduinoLCD\test\Pain Drain\libraries\lvgl\src\font/lv_font_loader.c ****             lv_font_free(font);
 104:..\..\..\arduinoLCD\test\Pain Drain\libraries\lvgl\src\font/lv_font_loader.c ****             font = NULL;
 105:..\..\..\arduinoLCD\test\Pain Drain\libraries\lvgl\src\font/lv_font_loader.c ****         }
 106:..\..\..\arduinoLCD\test\Pain Drain\libraries\lvgl\src\font/lv_font_loader.c ****     }
 107:..\..\..\arduinoLCD\test\Pain Drain\libraries\lvgl\src\font/lv_font_loader.c **** 
 108:..\..\..\arduinoLCD\test\Pain Drain\libraries\lvgl\src\font/lv_font_loader.c ****     lv_fs_close(&file);
 109:..\..\..\arduinoLCD\test\Pain Drain\libraries\lvgl\src\font/lv_font_loader.c **** 
 110:..\..\..\arduinoLCD\test\Pain Drain\libraries\lvgl\src\font/lv_font_loader.c ****     return font;
 111:..\..\..\arduinoLCD\test\Pain Drain\libraries\lvgl\src\font/lv_font_loader.c **** }
 112:..\..\..\arduinoLCD\test\Pain Drain\libraries\lvgl\src\font/lv_font_loader.c **** 
 113:..\..\..\arduinoLCD\test\Pain Drain\libraries\lvgl\src\font/lv_font_loader.c **** /**
 114:..\..\..\arduinoLCD\test\Pain Drain\libraries\lvgl\src\font/lv_font_loader.c ****  * Frees the memory allocated by the `lv_font_load()` function
 115:..\..\..\arduinoLCD\test\Pain Drain\libraries\lvgl\src\font/lv_font_loader.c ****  * @param font lv_font_t object created by the lv_font_load function
 116:..\..\..\arduinoLCD\test\Pain Drain\libraries\lvgl\src\font/lv_font_loader.c ****  */
 117:..\..\..\arduinoLCD\test\Pain Drain\libraries\lvgl\src\font/lv_font_loader.c **** void lv_font_free(lv_font_t * font)
 118:..\..\..\arduinoLCD\test\Pain Drain\libraries\lvgl\src\font/lv_font_loader.c **** {
 119:..\..\..\arduinoLCD\test\Pain Drain\libraries\lvgl\src\font/lv_font_loader.c ****     if(NULL != font) {
 120:..\..\..\arduinoLCD\test\Pain Drain\libraries\lvgl\src\font/lv_font_loader.c ****         lv_font_fmt_txt_dsc_t * dsc = (lv_font_fmt_txt_dsc_t *)font->dsc;
 121:..\..\..\arduinoLCD\test\Pain Drain\libraries\lvgl\src\font/lv_font_loader.c **** 
 122:..\..\..\arduinoLCD\test\Pain Drain\libraries\lvgl\src\font/lv_font_loader.c ****         if(NULL != dsc) {
 123:..\..\..\arduinoLCD\test\Pain Drain\libraries\lvgl\src\font/lv_font_loader.c **** 
 124:..\..\..\arduinoLCD\test\Pain Drain\libraries\lvgl\src\font/lv_font_loader.c ****             if(dsc->kern_classes == 0) {
 125:..\..\..\arduinoLCD\test\Pain Drain\libraries\lvgl\src\font/lv_font_loader.c ****                 lv_font_fmt_txt_kern_pair_t * kern_dsc =
 126:..\..\..\arduinoLCD\test\Pain Drain\libraries\lvgl\src\font/lv_font_loader.c ****                     (lv_font_fmt_txt_kern_pair_t *)dsc->kern_dsc;
 127:..\..\..\arduinoLCD\test\Pain Drain\libraries\lvgl\src\font/lv_font_loader.c **** 
 128:..\..\..\arduinoLCD\test\Pain Drain\libraries\lvgl\src\font/lv_font_loader.c ****                 if(NULL != kern_dsc) {
 129:..\..\..\arduinoLCD\test\Pain Drain\libraries\lvgl\src\font/lv_font_loader.c ****                     if(kern_dsc->glyph_ids)
 130:..\..\..\arduinoLCD\test\Pain Drain\libraries\lvgl\src\font/lv_font_loader.c ****                         lv_mem_free((void *)kern_dsc->glyph_ids);
 131:..\..\..\arduinoLCD\test\Pain Drain\libraries\lvgl\src\font/lv_font_loader.c **** 
 132:..\..\..\arduinoLCD\test\Pain Drain\libraries\lvgl\src\font/lv_font_loader.c ****                     if(kern_dsc->values)
 133:..\..\..\arduinoLCD\test\Pain Drain\libraries\lvgl\src\font/lv_font_loader.c ****                         lv_mem_free((void *)kern_dsc->values);
 134:..\..\..\arduinoLCD\test\Pain Drain\libraries\lvgl\src\font/lv_font_loader.c **** 
 135:..\..\..\arduinoLCD\test\Pain Drain\libraries\lvgl\src\font/lv_font_loader.c ****                     lv_mem_free((void *)kern_dsc);
 136:..\..\..\arduinoLCD\test\Pain Drain\libraries\lvgl\src\font/lv_font_loader.c ****                 }
 137:..\..\..\arduinoLCD\test\Pain Drain\libraries\lvgl\src\font/lv_font_loader.c ****             }
 138:..\..\..\arduinoLCD\test\Pain Drain\libraries\lvgl\src\font/lv_font_loader.c ****             else {
 139:..\..\..\arduinoLCD\test\Pain Drain\libraries\lvgl\src\font/lv_font_loader.c ****                 lv_font_fmt_txt_kern_classes_t * kern_dsc =
 140:..\..\..\arduinoLCD\test\Pain Drain\libraries\lvgl\src\font/lv_font_loader.c ****                     (lv_font_fmt_txt_kern_classes_t *)dsc->kern_dsc;
 141:..\..\..\arduinoLCD\test\Pain Drain\libraries\lvgl\src\font/lv_font_loader.c **** 
 142:..\..\..\arduinoLCD\test\Pain Drain\libraries\lvgl\src\font/lv_font_loader.c ****                 if(NULL != kern_dsc) {
 143:..\..\..\arduinoLCD\test\Pain Drain\libraries\lvgl\src\font/lv_font_loader.c ****                     if(kern_dsc->class_pair_values)
 144:..\..\..\arduinoLCD\test\Pain Drain\libraries\lvgl\src\font/lv_font_loader.c ****                         lv_mem_free((void *)kern_dsc->class_pair_values);
 145:..\..\..\arduinoLCD\test\Pain Drain\libraries\lvgl\src\font/lv_font_loader.c **** 
ARM GAS  C:\Users\haske\AppData\Local\Temp\cc5ISl1k.s 			page 4


 146:..\..\..\arduinoLCD\test\Pain Drain\libraries\lvgl\src\font/lv_font_loader.c ****                     if(kern_dsc->left_class_mapping)
 147:..\..\..\arduinoLCD\test\Pain Drain\libraries\lvgl\src\font/lv_font_loader.c ****                         lv_mem_free((void *)kern_dsc->left_class_mapping);
 148:..\..\..\arduinoLCD\test\Pain Drain\libraries\lvgl\src\font/lv_font_loader.c **** 
 149:..\..\..\arduinoLCD\test\Pain Drain\libraries\lvgl\src\font/lv_font_loader.c ****                     if(kern_dsc->right_class_mapping)
 150:..\..\..\arduinoLCD\test\Pain Drain\libraries\lvgl\src\font/lv_font_loader.c ****                         lv_mem_free((void *)kern_dsc->right_class_mapping);
 151:..\..\..\arduinoLCD\test\Pain Drain\libraries\lvgl\src\font/lv_font_loader.c **** 
 152:..\..\..\arduinoLCD\test\Pain Drain\libraries\lvgl\src\font/lv_font_loader.c ****                     lv_mem_free((void *)kern_dsc);
 153:..\..\..\arduinoLCD\test\Pain Drain\libraries\lvgl\src\font/lv_font_loader.c ****                 }
 154:..\..\..\arduinoLCD\test\Pain Drain\libraries\lvgl\src\font/lv_font_loader.c ****             }
 155:..\..\..\arduinoLCD\test\Pain Drain\libraries\lvgl\src\font/lv_font_loader.c **** 
 156:..\..\..\arduinoLCD\test\Pain Drain\libraries\lvgl\src\font/lv_font_loader.c ****             lv_font_fmt_txt_cmap_t * cmaps =
 157:..\..\..\arduinoLCD\test\Pain Drain\libraries\lvgl\src\font/lv_font_loader.c ****                 (lv_font_fmt_txt_cmap_t *)dsc->cmaps;
 158:..\..\..\arduinoLCD\test\Pain Drain\libraries\lvgl\src\font/lv_font_loader.c **** 
 159:..\..\..\arduinoLCD\test\Pain Drain\libraries\lvgl\src\font/lv_font_loader.c ****             if(NULL != cmaps) {
 160:..\..\..\arduinoLCD\test\Pain Drain\libraries\lvgl\src\font/lv_font_loader.c ****                 for(int i = 0; i < dsc->cmap_num; ++i) {
 161:..\..\..\arduinoLCD\test\Pain Drain\libraries\lvgl\src\font/lv_font_loader.c ****                     if(NULL != cmaps[i].glyph_id_ofs_list)
 162:..\..\..\arduinoLCD\test\Pain Drain\libraries\lvgl\src\font/lv_font_loader.c ****                         lv_mem_free((void *)cmaps[i].glyph_id_ofs_list);
 163:..\..\..\arduinoLCD\test\Pain Drain\libraries\lvgl\src\font/lv_font_loader.c ****                     if(NULL != cmaps[i].unicode_list)
 164:..\..\..\arduinoLCD\test\Pain Drain\libraries\lvgl\src\font/lv_font_loader.c ****                         lv_mem_free((void *)cmaps[i].unicode_list);
 165:..\..\..\arduinoLCD\test\Pain Drain\libraries\lvgl\src\font/lv_font_loader.c ****                 }
 166:..\..\..\arduinoLCD\test\Pain Drain\libraries\lvgl\src\font/lv_font_loader.c ****                 lv_mem_free(cmaps);
 167:..\..\..\arduinoLCD\test\Pain Drain\libraries\lvgl\src\font/lv_font_loader.c ****             }
 168:..\..\..\arduinoLCD\test\Pain Drain\libraries\lvgl\src\font/lv_font_loader.c **** 
 169:..\..\..\arduinoLCD\test\Pain Drain\libraries\lvgl\src\font/lv_font_loader.c ****             if(NULL != dsc->glyph_bitmap) {
 170:..\..\..\arduinoLCD\test\Pain Drain\libraries\lvgl\src\font/lv_font_loader.c ****                 lv_mem_free((void *)dsc->glyph_bitmap);
 171:..\..\..\arduinoLCD\test\Pain Drain\libraries\lvgl\src\font/lv_font_loader.c ****             }
 172:..\..\..\arduinoLCD\test\Pain Drain\libraries\lvgl\src\font/lv_font_loader.c ****             if(NULL != dsc->glyph_dsc) {
 173:..\..\..\arduinoLCD\test\Pain Drain\libraries\lvgl\src\font/lv_font_loader.c ****                 lv_mem_free((void *)dsc->glyph_dsc);
 174:..\..\..\arduinoLCD\test\Pain Drain\libraries\lvgl\src\font/lv_font_loader.c ****             }
 175:..\..\..\arduinoLCD\test\Pain Drain\libraries\lvgl\src\font/lv_font_loader.c ****             lv_mem_free(dsc);
 176:..\..\..\arduinoLCD\test\Pain Drain\libraries\lvgl\src\font/lv_font_loader.c ****         }
 177:..\..\..\arduinoLCD\test\Pain Drain\libraries\lvgl\src\font/lv_font_loader.c ****         lv_mem_free(font);
 178:..\..\..\arduinoLCD\test\Pain Drain\libraries\lvgl\src\font/lv_font_loader.c ****     }
 179:..\..\..\arduinoLCD\test\Pain Drain\libraries\lvgl\src\font/lv_font_loader.c **** }
 180:..\..\..\arduinoLCD\test\Pain Drain\libraries\lvgl\src\font/lv_font_loader.c **** 
 181:..\..\..\arduinoLCD\test\Pain Drain\libraries\lvgl\src\font/lv_font_loader.c **** /**********************
 182:..\..\..\arduinoLCD\test\Pain Drain\libraries\lvgl\src\font/lv_font_loader.c ****  *   STATIC FUNCTIONS
 183:..\..\..\arduinoLCD\test\Pain Drain\libraries\lvgl\src\font/lv_font_loader.c ****  **********************/
 184:..\..\..\arduinoLCD\test\Pain Drain\libraries\lvgl\src\font/lv_font_loader.c **** 
 185:..\..\..\arduinoLCD\test\Pain Drain\libraries\lvgl\src\font/lv_font_loader.c **** static bit_iterator_t init_bit_iterator(lv_fs_file_t * fp)
 186:..\..\..\arduinoLCD\test\Pain Drain\libraries\lvgl\src\font/lv_font_loader.c **** {
  27              		.loc 1 186 0
  28              		.cfi_startproc
  29              		@ args = 0, pretend = 0, frame = 0
  30              		@ frame_needed = 0, uses_anonymous_args = 0
  31              		@ link register save eliminated.
  32              	.LVL0:
 187:..\..\..\arduinoLCD\test\Pain Drain\libraries\lvgl\src\font/lv_font_loader.c ****     bit_iterator_t it;
 188:..\..\..\arduinoLCD\test\Pain Drain\libraries\lvgl\src\font/lv_font_loader.c ****     it.fp = fp;
  33              		.loc 1 188 0
  34 0000 0160     		str	r1, [r0]
 189:..\..\..\arduinoLCD\test\Pain Drain\libraries\lvgl\src\font/lv_font_loader.c ****     it.bit_pos = -1;
  35              		.loc 1 189 0
  36 0002 FF23     		movs	r3, #255
  37 0004 0371     		strb	r3, [r0, #4]
 190:..\..\..\arduinoLCD\test\Pain Drain\libraries\lvgl\src\font/lv_font_loader.c ****     it.byte_value = 0;
  38              		.loc 1 190 0
ARM GAS  C:\Users\haske\AppData\Local\Temp\cc5ISl1k.s 			page 5


  39 0006 0023     		movs	r3, #0
  40 0008 4371     		strb	r3, [r0, #5]
 191:..\..\..\arduinoLCD\test\Pain Drain\libraries\lvgl\src\font/lv_font_loader.c ****     return it;
 192:..\..\..\arduinoLCD\test\Pain Drain\libraries\lvgl\src\font/lv_font_loader.c **** }
  41              		.loc 1 192 0
  42              		@ sp needed
  43 000a 7047     		bx	lr
  44              		.cfi_endproc
  45              	.LFE204:
  46              		.size	init_bit_iterator, .-init_bit_iterator
  47              		.section	.text.read_bits,"ax",%progbits
  48              		.align	2
  49              		.code	16
  50              		.thumb_func
  51              		.type	read_bits, %function
  52              	read_bits:
  53              	.LFB205:
 193:..\..\..\arduinoLCD\test\Pain Drain\libraries\lvgl\src\font/lv_font_loader.c **** 
 194:..\..\..\arduinoLCD\test\Pain Drain\libraries\lvgl\src\font/lv_font_loader.c **** static unsigned int read_bits(bit_iterator_t * it, int n_bits, lv_fs_res_t * res)
 195:..\..\..\arduinoLCD\test\Pain Drain\libraries\lvgl\src\font/lv_font_loader.c **** {
  54              		.loc 1 195 0
  55              		.cfi_startproc
  56              		@ args = 0, pretend = 0, frame = 0
  57              		@ frame_needed = 0, uses_anonymous_args = 0
  58              	.LVL1:
  59 0000 F8B5     		push	{r3, r4, r5, r6, r7, lr}
  60              		.cfi_def_cfa_offset 24
  61              		.cfi_offset 3, -24
  62              		.cfi_offset 4, -20
  63              		.cfi_offset 5, -16
  64              		.cfi_offset 6, -12
  65              		.cfi_offset 7, -8
  66              		.cfi_offset 14, -4
  67 0002 0400     		movs	r4, r0
  68 0004 1700     		movs	r7, r2
  69              	.LVL2:
 196:..\..\..\arduinoLCD\test\Pain Drain\libraries\lvgl\src\font/lv_font_loader.c ****     unsigned int value = 0;
  70              		.loc 1 196 0
  71 0006 0026     		movs	r6, #0
 197:..\..\..\arduinoLCD\test\Pain Drain\libraries\lvgl\src\font/lv_font_loader.c ****     while(n_bits--) {
  72              		.loc 1 197 0
  73 0008 19E0     		b	.L3
  74              	.LVL3:
  75              	.L6:
  76              	.LBB2:
 198:..\..\..\arduinoLCD\test\Pain Drain\libraries\lvgl\src\font/lv_font_loader.c ****         it->byte_value = it->byte_value << 1;
  77              		.loc 1 198 0
  78 000a 6379     		ldrb	r3, [r4, #5]
  79 000c 5B00     		lsls	r3, r3, #1
  80 000e 6371     		strb	r3, [r4, #5]
 199:..\..\..\arduinoLCD\test\Pain Drain\libraries\lvgl\src\font/lv_font_loader.c ****         it->bit_pos--;
  81              		.loc 1 199 0
  82 0010 0423     		movs	r3, #4
  83 0012 E356     		ldrsb	r3, [r4, r3]
  84 0014 013B     		subs	r3, r3, #1
  85 0016 5BB2     		sxtb	r3, r3
  86 0018 2371     		strb	r3, [r4, #4]
ARM GAS  C:\Users\haske\AppData\Local\Temp\cc5ISl1k.s 			page 6


 200:..\..\..\arduinoLCD\test\Pain Drain\libraries\lvgl\src\font/lv_font_loader.c **** 
 201:..\..\..\arduinoLCD\test\Pain Drain\libraries\lvgl\src\font/lv_font_loader.c ****         if(it->bit_pos < 0) {
  87              		.loc 1 201 0
  88 001a 002B     		cmp	r3, #0
  89 001c 0ADA     		bge	.L4
 202:..\..\..\arduinoLCD\test\Pain Drain\libraries\lvgl\src\font/lv_font_loader.c ****             it->bit_pos = 7;
  90              		.loc 1 202 0
  91 001e 0723     		movs	r3, #7
  92 0020 2371     		strb	r3, [r4, #4]
 203:..\..\..\arduinoLCD\test\Pain Drain\libraries\lvgl\src\font/lv_font_loader.c ****             *res = lv_fs_read(it->fp, &(it->byte_value), 1, NULL);
  93              		.loc 1 203 0
  94 0022 611D     		adds	r1, r4, #5
  95 0024 0023     		movs	r3, #0
  96 0026 0122     		movs	r2, #1
  97 0028 2068     		ldr	r0, [r4]
  98 002a FFF7FEFF 		bl	lv_fs_read
  99              	.LVL4:
 100 002e 3870     		strb	r0, [r7]
 204:..\..\..\arduinoLCD\test\Pain Drain\libraries\lvgl\src\font/lv_font_loader.c ****             if(*res != LV_FS_RES_OK) {
 101              		.loc 1 204 0
 102 0030 0028     		cmp	r0, #0
 103 0032 0BD1     		bne	.L7
 104              	.L4:
 205:..\..\..\arduinoLCD\test\Pain Drain\libraries\lvgl\src\font/lv_font_loader.c ****                 return 0;
 206:..\..\..\arduinoLCD\test\Pain Drain\libraries\lvgl\src\font/lv_font_loader.c ****             }
 207:..\..\..\arduinoLCD\test\Pain Drain\libraries\lvgl\src\font/lv_font_loader.c ****         }
 208:..\..\..\arduinoLCD\test\Pain Drain\libraries\lvgl\src\font/lv_font_loader.c ****         int8_t bit = (it->byte_value & 0x80) ? 1 : 0;
 105              		.loc 1 208 0
 106 0034 6379     		ldrb	r3, [r4, #5]
 107 0036 DB09     		lsrs	r3, r3, #7
 108              	.LVL5:
 209:..\..\..\arduinoLCD\test\Pain Drain\libraries\lvgl\src\font/lv_font_loader.c **** 
 210:..\..\..\arduinoLCD\test\Pain Drain\libraries\lvgl\src\font/lv_font_loader.c ****         value |= (bit << n_bits);
 109              		.loc 1 210 0
 110 0038 AB40     		lsls	r3, r3, r5
 111              	.LVL6:
 112 003a 1E43     		orrs	r6, r3
 113              	.LVL7:
 114              	.LBE2:
 197:..\..\..\arduinoLCD\test\Pain Drain\libraries\lvgl\src\font/lv_font_loader.c ****         it->byte_value = it->byte_value << 1;
 115              		.loc 1 197 0
 116 003c 2900     		movs	r1, r5
 117              	.LVL8:
 118              	.L3:
 119 003e 4D1E     		subs	r5, r1, #1
 120              	.LVL9:
 121 0040 0029     		cmp	r1, #0
 122 0042 E2D1     		bne	.L6
 211:..\..\..\arduinoLCD\test\Pain Drain\libraries\lvgl\src\font/lv_font_loader.c ****     }
 212:..\..\..\arduinoLCD\test\Pain Drain\libraries\lvgl\src\font/lv_font_loader.c ****     *res = LV_FS_RES_OK;
 123              		.loc 1 212 0
 124 0044 0023     		movs	r3, #0
 125 0046 3B70     		strb	r3, [r7]
 213:..\..\..\arduinoLCD\test\Pain Drain\libraries\lvgl\src\font/lv_font_loader.c ****     return value;
 126              		.loc 1 213 0
 127 0048 3000     		movs	r0, r6
 128 004a 00E0     		b	.L5
ARM GAS  C:\Users\haske\AppData\Local\Temp\cc5ISl1k.s 			page 7


 129              	.L7:
 130              	.LBB3:
 205:..\..\..\arduinoLCD\test\Pain Drain\libraries\lvgl\src\font/lv_font_loader.c ****             }
 131              		.loc 1 205 0
 132 004c 0020     		movs	r0, #0
 133              	.L5:
 134              	.LBE3:
 214:..\..\..\arduinoLCD\test\Pain Drain\libraries\lvgl\src\font/lv_font_loader.c **** }
 135              		.loc 1 214 0
 136              		@ sp needed
 137              	.LVL10:
 138              	.LVL11:
 139              	.LVL12:
 140              	.LVL13:
 141 004e F8BD     		pop	{r3, r4, r5, r6, r7, pc}
 142              		.cfi_endproc
 143              	.LFE205:
 144              		.size	read_bits, .-read_bits
 145              		.section	.text.read_bits_signed,"ax",%progbits
 146              		.align	2
 147              		.code	16
 148              		.thumb_func
 149              		.type	read_bits_signed, %function
 150              	read_bits_signed:
 151              	.LFB206:
 215:..\..\..\arduinoLCD\test\Pain Drain\libraries\lvgl\src\font/lv_font_loader.c **** 
 216:..\..\..\arduinoLCD\test\Pain Drain\libraries\lvgl\src\font/lv_font_loader.c **** static int read_bits_signed(bit_iterator_t * it, int n_bits, lv_fs_res_t * res)
 217:..\..\..\arduinoLCD\test\Pain Drain\libraries\lvgl\src\font/lv_font_loader.c **** {
 152              		.loc 1 217 0
 153              		.cfi_startproc
 154              		@ args = 0, pretend = 0, frame = 0
 155              		@ frame_needed = 0, uses_anonymous_args = 0
 156              	.LVL14:
 157 0000 10B5     		push	{r4, lr}
 158              		.cfi_def_cfa_offset 8
 159              		.cfi_offset 4, -8
 160              		.cfi_offset 14, -4
 161 0002 0C00     		movs	r4, r1
 218:..\..\..\arduinoLCD\test\Pain Drain\libraries\lvgl\src\font/lv_font_loader.c ****     unsigned int value = read_bits(it, n_bits, res);
 162              		.loc 1 218 0
 163 0004 FFF7FEFF 		bl	read_bits
 164              	.LVL15:
 219:..\..\..\arduinoLCD\test\Pain Drain\libraries\lvgl\src\font/lv_font_loader.c ****     if(value & (1 << (n_bits - 1))) {
 165              		.loc 1 219 0
 166 0008 621E     		subs	r2, r4, #1
 167 000a 0123     		movs	r3, #1
 168 000c 9340     		lsls	r3, r3, r2
 169 000e 1842     		tst	r0, r3
 170 0010 03D0     		beq	.L9
 220:..\..\..\arduinoLCD\test\Pain Drain\libraries\lvgl\src\font/lv_font_loader.c ****         value |= ~0u << n_bits;
 171              		.loc 1 220 0
 172 0012 0123     		movs	r3, #1
 173 0014 5B42     		rsbs	r3, r3, #0
 174 0016 A340     		lsls	r3, r3, r4
 175 0018 1843     		orrs	r0, r3
 176              	.LVL16:
 177              	.L9:
ARM GAS  C:\Users\haske\AppData\Local\Temp\cc5ISl1k.s 			page 8


 221:..\..\..\arduinoLCD\test\Pain Drain\libraries\lvgl\src\font/lv_font_loader.c ****     }
 222:..\..\..\arduinoLCD\test\Pain Drain\libraries\lvgl\src\font/lv_font_loader.c ****     return value;
 223:..\..\..\arduinoLCD\test\Pain Drain\libraries\lvgl\src\font/lv_font_loader.c **** }
 178              		.loc 1 223 0
 179              		@ sp needed
 180              	.LVL17:
 181 001a 10BD     		pop	{r4, pc}
 182              		.cfi_endproc
 183              	.LFE206:
 184              		.size	read_bits_signed, .-read_bits_signed
 185              		.section	.text.load_cmaps_tables,"ax",%progbits
 186              		.align	2
 187              		.code	16
 188              		.thumb_func
 189              		.type	load_cmaps_tables, %function
 190              	load_cmaps_tables:
 191              	.LFB208:
 224:..\..\..\arduinoLCD\test\Pain Drain\libraries\lvgl\src\font/lv_font_loader.c **** 
 225:..\..\..\arduinoLCD\test\Pain Drain\libraries\lvgl\src\font/lv_font_loader.c **** static int read_label(lv_fs_file_t * fp, int start, const char * label)
 226:..\..\..\arduinoLCD\test\Pain Drain\libraries\lvgl\src\font/lv_font_loader.c **** {
 227:..\..\..\arduinoLCD\test\Pain Drain\libraries\lvgl\src\font/lv_font_loader.c ****     lv_fs_seek(fp, start, LV_FS_SEEK_SET);
 228:..\..\..\arduinoLCD\test\Pain Drain\libraries\lvgl\src\font/lv_font_loader.c **** 
 229:..\..\..\arduinoLCD\test\Pain Drain\libraries\lvgl\src\font/lv_font_loader.c ****     uint32_t length;
 230:..\..\..\arduinoLCD\test\Pain Drain\libraries\lvgl\src\font/lv_font_loader.c ****     char buf[4];
 231:..\..\..\arduinoLCD\test\Pain Drain\libraries\lvgl\src\font/lv_font_loader.c **** 
 232:..\..\..\arduinoLCD\test\Pain Drain\libraries\lvgl\src\font/lv_font_loader.c ****     if(lv_fs_read(fp, &length, 4, NULL) != LV_FS_RES_OK
 233:..\..\..\arduinoLCD\test\Pain Drain\libraries\lvgl\src\font/lv_font_loader.c ****        || lv_fs_read(fp, buf, 4, NULL) != LV_FS_RES_OK
 234:..\..\..\arduinoLCD\test\Pain Drain\libraries\lvgl\src\font/lv_font_loader.c ****        || memcmp(label, buf, 4) != 0) {
 235:..\..\..\arduinoLCD\test\Pain Drain\libraries\lvgl\src\font/lv_font_loader.c ****         LV_LOG_WARN("Error reading '%s' label.", label);
 236:..\..\..\arduinoLCD\test\Pain Drain\libraries\lvgl\src\font/lv_font_loader.c ****         return -1;
 237:..\..\..\arduinoLCD\test\Pain Drain\libraries\lvgl\src\font/lv_font_loader.c ****     }
 238:..\..\..\arduinoLCD\test\Pain Drain\libraries\lvgl\src\font/lv_font_loader.c **** 
 239:..\..\..\arduinoLCD\test\Pain Drain\libraries\lvgl\src\font/lv_font_loader.c ****     return length;
 240:..\..\..\arduinoLCD\test\Pain Drain\libraries\lvgl\src\font/lv_font_loader.c **** }
 241:..\..\..\arduinoLCD\test\Pain Drain\libraries\lvgl\src\font/lv_font_loader.c **** 
 242:..\..\..\arduinoLCD\test\Pain Drain\libraries\lvgl\src\font/lv_font_loader.c **** static bool load_cmaps_tables(lv_fs_file_t * fp, lv_font_fmt_txt_dsc_t * font_dsc,
 243:..\..\..\arduinoLCD\test\Pain Drain\libraries\lvgl\src\font/lv_font_loader.c ****                               uint32_t cmaps_start, cmap_table_bin_t * cmap_table)
 244:..\..\..\arduinoLCD\test\Pain Drain\libraries\lvgl\src\font/lv_font_loader.c **** {
 192              		.loc 1 244 0
 193              		.cfi_startproc
 194              		@ args = 0, pretend = 0, frame = 8
 195              		@ frame_needed = 0, uses_anonymous_args = 0
 196              	.LVL18:
 197 0000 F0B5     		push	{r4, r5, r6, r7, lr}
 198              		.cfi_def_cfa_offset 20
 199              		.cfi_offset 4, -20
 200              		.cfi_offset 5, -16
 201              		.cfi_offset 6, -12
 202              		.cfi_offset 7, -8
 203              		.cfi_offset 14, -4
 204 0002 5746     		mov	r7, r10
 205 0004 4E46     		mov	r6, r9
 206 0006 C0B4     		push	{r6, r7}
 207              		.cfi_def_cfa_offset 28
 208              		.cfi_offset 9, -28
 209              		.cfi_offset 10, -24
 210 0008 83B0     		sub	sp, sp, #12
ARM GAS  C:\Users\haske\AppData\Local\Temp\cc5ISl1k.s 			page 9


 211              		.cfi_def_cfa_offset 40
 212 000a 0090     		str	r0, [sp]
 213 000c 0E00     		movs	r6, r1
 214 000e 9246     		mov	r10, r2
 215 0010 9946     		mov	r9, r3
 245:..\..\..\arduinoLCD\test\Pain Drain\libraries\lvgl\src\font/lv_font_loader.c ****     if(lv_fs_read(fp, cmap_table, font_dsc->cmap_num * sizeof(cmap_table_bin_t), NULL) != LV_FS_RES
 216              		.loc 1 245 0
 217 0012 4A8A     		ldrh	r2, [r1, #18]
 218              	.LVL19:
 219 0014 D205     		lsls	r2, r2, #23
 220 0016 D20C     		lsrs	r2, r2, #19
 221 0018 0023     		movs	r3, #0
 222              	.LVL20:
 223 001a 4946     		mov	r1, r9
 224              	.LVL21:
 225 001c FFF7FEFF 		bl	lv_fs_read
 226              	.LVL22:
 227 0020 0028     		cmp	r0, #0
 228 0022 5FD1     		bne	.L17
 229 0024 0025     		movs	r5, #0
 230 0026 56E0     		b	.L12
 231              	.LVL23:
 232              	.L16:
 233              	.LBB4:
 234              	.LBB5:
 246:..\..\..\arduinoLCD\test\Pain Drain\libraries\lvgl\src\font/lv_font_loader.c ****         return false;
 247:..\..\..\arduinoLCD\test\Pain Drain\libraries\lvgl\src\font/lv_font_loader.c ****     }
 248:..\..\..\arduinoLCD\test\Pain Drain\libraries\lvgl\src\font/lv_font_loader.c **** 
 249:..\..\..\arduinoLCD\test\Pain Drain\libraries\lvgl\src\font/lv_font_loader.c ****     for(unsigned int i = 0; i < font_dsc->cmap_num; ++i) {
 250:..\..\..\arduinoLCD\test\Pain Drain\libraries\lvgl\src\font/lv_font_loader.c ****         lv_fs_res_t res = lv_fs_seek(fp, cmaps_start + cmap_table[i].data_offset, LV_FS_SEEK_SET);
 235              		.loc 1 250 0
 236 0028 2B01     		lsls	r3, r5, #4
 237 002a 4B44     		add	r3, r3, r9
 238 002c 1F00     		movs	r7, r3
 239 002e 1B68     		ldr	r3, [r3]
 240 0030 5344     		add	r3, r3, r10
 241 0032 1900     		movs	r1, r3
 242 0034 0022     		movs	r2, #0
 243 0036 0098     		ldr	r0, [sp]
 244 0038 FFF7FEFF 		bl	lv_fs_seek
 245              	.LVL24:
 251:..\..\..\arduinoLCD\test\Pain Drain\libraries\lvgl\src\font/lv_font_loader.c ****         if(res != LV_FS_RES_OK) {
 246              		.loc 1 251 0
 247 003c 0028     		cmp	r0, #0
 248 003e 53D1     		bne	.L18
 252:..\..\..\arduinoLCD\test\Pain Drain\libraries\lvgl\src\font/lv_font_loader.c ****             return false;
 253:..\..\..\arduinoLCD\test\Pain Drain\libraries\lvgl\src\font/lv_font_loader.c ****         }
 254:..\..\..\arduinoLCD\test\Pain Drain\libraries\lvgl\src\font/lv_font_loader.c **** 
 255:..\..\..\arduinoLCD\test\Pain Drain\libraries\lvgl\src\font/lv_font_loader.c ****         lv_font_fmt_txt_cmap_t * cmap = (lv_font_fmt_txt_cmap_t *) & (font_dsc->cmaps[i]);
 249              		.loc 1 255 0
 250 0040 AB00     		lsls	r3, r5, #2
 251 0042 5B19     		adds	r3, r3, r5
 252 0044 9C00     		lsls	r4, r3, #2
 253 0046 B368     		ldr	r3, [r6, #8]
 254 0048 9C46     		mov	ip, r3
 255 004a 6444     		add	r4, r4, ip
 256              	.LVL25:
ARM GAS  C:\Users\haske\AppData\Local\Temp\cc5ISl1k.s 			page 10


 256:..\..\..\arduinoLCD\test\Pain Drain\libraries\lvgl\src\font/lv_font_loader.c **** 
 257:..\..\..\arduinoLCD\test\Pain Drain\libraries\lvgl\src\font/lv_font_loader.c ****         cmap->range_start = cmap_table[i].range_start;
 257              		.loc 1 257 0
 258 004c 7B68     		ldr	r3, [r7, #4]
 259 004e 2360     		str	r3, [r4]
 258:..\..\..\arduinoLCD\test\Pain Drain\libraries\lvgl\src\font/lv_font_loader.c ****         cmap->range_length = cmap_table[i].range_length;
 260              		.loc 1 258 0
 261 0050 3B89     		ldrh	r3, [r7, #8]
 262 0052 A380     		strh	r3, [r4, #4]
 259:..\..\..\arduinoLCD\test\Pain Drain\libraries\lvgl\src\font/lv_font_loader.c ****         cmap->glyph_id_start = cmap_table[i].glyph_id_start;
 263              		.loc 1 259 0
 264 0054 7B89     		ldrh	r3, [r7, #10]
 265 0056 E380     		strh	r3, [r4, #6]
 260:..\..\..\arduinoLCD\test\Pain Drain\libraries\lvgl\src\font/lv_font_loader.c ****         cmap->type = cmap_table[i].format_type;
 266              		.loc 1 260 0
 267 0058 BB7B     		ldrb	r3, [r7, #14]
 268 005a A374     		strb	r3, [r4, #18]
 261:..\..\..\arduinoLCD\test\Pain Drain\libraries\lvgl\src\font/lv_font_loader.c **** 
 262:..\..\..\arduinoLCD\test\Pain Drain\libraries\lvgl\src\font/lv_font_loader.c ****         switch(cmap_table[i].format_type) {
 269              		.loc 1 262 0
 270 005c BB7B     		ldrb	r3, [r7, #14]
 271 005e 012B     		cmp	r3, #1
 272 0060 16D0     		beq	.L13
 273 0062 002B     		cmp	r3, #0
 274 0064 04D0     		beq	.L14
 275 0066 022B     		cmp	r3, #2
 276 0068 34D0     		beq	.L15
 277 006a 032B     		cmp	r3, #3
 278 006c 3ED1     		bne	.L23
 279 006e 0FE0     		b	.L13
 280              	.L14:
 281              	.LBB6:
 263:..\..\..\arduinoLCD\test\Pain Drain\libraries\lvgl\src\font/lv_font_loader.c ****             case LV_FONT_FMT_TXT_CMAP_FORMAT0_FULL: {
 264:..\..\..\arduinoLCD\test\Pain Drain\libraries\lvgl\src\font/lv_font_loader.c ****                     uint8_t ids_size = sizeof(uint8_t) * cmap_table[i].data_entries_count;
 282              		.loc 1 264 0
 283 0070 3F7B     		ldrb	r7, [r7, #12]
 284              	.LVL26:
 265:..\..\..\arduinoLCD\test\Pain Drain\libraries\lvgl\src\font/lv_font_loader.c ****                     uint8_t * glyph_id_ofs_list = lv_mem_alloc(ids_size);
 285              		.loc 1 265 0
 286 0072 3800     		movs	r0, r7
 287              	.LVL27:
 288 0074 FFF7FEFF 		bl	lv_mem_alloc
 289              	.LVL28:
 290 0078 0100     		movs	r1, r0
 291              	.LVL29:
 266:..\..\..\arduinoLCD\test\Pain Drain\libraries\lvgl\src\font/lv_font_loader.c **** 
 267:..\..\..\arduinoLCD\test\Pain Drain\libraries\lvgl\src\font/lv_font_loader.c ****                     cmap->glyph_id_ofs_list = glyph_id_ofs_list;
 292              		.loc 1 267 0
 293 007a E060     		str	r0, [r4, #12]
 268:..\..\..\arduinoLCD\test\Pain Drain\libraries\lvgl\src\font/lv_font_loader.c **** 
 269:..\..\..\arduinoLCD\test\Pain Drain\libraries\lvgl\src\font/lv_font_loader.c ****                     if(lv_fs_read(fp, glyph_id_ofs_list, ids_size, NULL) != LV_FS_RES_OK) {
 294              		.loc 1 269 0
 295 007c 0023     		movs	r3, #0
 296 007e 3A00     		movs	r2, r7
 297 0080 0098     		ldr	r0, [sp]
 298              	.LVL30:
 299 0082 FFF7FEFF 		bl	lv_fs_read
ARM GAS  C:\Users\haske\AppData\Local\Temp\cc5ISl1k.s 			page 11


 300              	.LVL31:
 301 0086 0028     		cmp	r0, #0
 302 0088 32D1     		bne	.L20
 270:..\..\..\arduinoLCD\test\Pain Drain\libraries\lvgl\src\font/lv_font_loader.c ****                         return false;
 271:..\..\..\arduinoLCD\test\Pain Drain\libraries\lvgl\src\font/lv_font_loader.c ****                     }
 272:..\..\..\arduinoLCD\test\Pain Drain\libraries\lvgl\src\font/lv_font_loader.c **** 
 273:..\..\..\arduinoLCD\test\Pain Drain\libraries\lvgl\src\font/lv_font_loader.c ****                     cmap->list_length = cmap->range_length;
 303              		.loc 1 273 0
 304 008a A388     		ldrh	r3, [r4, #4]
 305 008c 2382     		strh	r3, [r4, #16]
 274:..\..\..\arduinoLCD\test\Pain Drain\libraries\lvgl\src\font/lv_font_loader.c ****                     break;
 306              		.loc 1 274 0
 307 008e 21E0     		b	.L15
 308              	.LVL32:
 309              	.L13:
 310              	.LBE6:
 311              	.LBB7:
 275:..\..\..\arduinoLCD\test\Pain Drain\libraries\lvgl\src\font/lv_font_loader.c ****                 }
 276:..\..\..\arduinoLCD\test\Pain Drain\libraries\lvgl\src\font/lv_font_loader.c ****             case LV_FONT_FMT_TXT_CMAP_FORMAT0_TINY:
 277:..\..\..\arduinoLCD\test\Pain Drain\libraries\lvgl\src\font/lv_font_loader.c ****                 break;
 278:..\..\..\arduinoLCD\test\Pain Drain\libraries\lvgl\src\font/lv_font_loader.c ****             case LV_FONT_FMT_TXT_CMAP_SPARSE_FULL:
 279:..\..\..\arduinoLCD\test\Pain Drain\libraries\lvgl\src\font/lv_font_loader.c ****             case LV_FONT_FMT_TXT_CMAP_SPARSE_TINY: {
 280:..\..\..\arduinoLCD\test\Pain Drain\libraries\lvgl\src\font/lv_font_loader.c ****                     uint32_t list_size = sizeof(uint16_t) * cmap_table[i].data_entries_count;
 312              		.loc 1 280 0
 313 0090 BB89     		ldrh	r3, [r7, #12]
 314 0092 5B00     		lsls	r3, r3, #1
 315              	.LVL33:
 281:..\..\..\arduinoLCD\test\Pain Drain\libraries\lvgl\src\font/lv_font_loader.c ****                     uint16_t * unicode_list = (uint16_t *)lv_mem_alloc(list_size);
 316              		.loc 1 281 0
 317 0094 0193     		str	r3, [sp, #4]
 318 0096 1800     		movs	r0, r3
 319              	.LVL34:
 320 0098 FFF7FEFF 		bl	lv_mem_alloc
 321              	.LVL35:
 322 009c 0100     		movs	r1, r0
 323              	.LVL36:
 282:..\..\..\arduinoLCD\test\Pain Drain\libraries\lvgl\src\font/lv_font_loader.c **** 
 283:..\..\..\arduinoLCD\test\Pain Drain\libraries\lvgl\src\font/lv_font_loader.c ****                     cmap->unicode_list = unicode_list;
 324              		.loc 1 283 0
 325 009e A060     		str	r0, [r4, #8]
 284:..\..\..\arduinoLCD\test\Pain Drain\libraries\lvgl\src\font/lv_font_loader.c ****                     cmap->list_length = cmap_table[i].data_entries_count;
 326              		.loc 1 284 0
 327 00a0 BB89     		ldrh	r3, [r7, #12]
 328 00a2 2382     		strh	r3, [r4, #16]
 285:..\..\..\arduinoLCD\test\Pain Drain\libraries\lvgl\src\font/lv_font_loader.c **** 
 286:..\..\..\arduinoLCD\test\Pain Drain\libraries\lvgl\src\font/lv_font_loader.c ****                     if(lv_fs_read(fp, unicode_list, list_size, NULL) != LV_FS_RES_OK) {
 329              		.loc 1 286 0
 330 00a4 0023     		movs	r3, #0
 331 00a6 019A     		ldr	r2, [sp, #4]
 332 00a8 0098     		ldr	r0, [sp]
 333              	.LVL37:
 334 00aa FFF7FEFF 		bl	lv_fs_read
 335              	.LVL38:
 336 00ae 0028     		cmp	r0, #0
 337 00b0 20D1     		bne	.L21
 287:..\..\..\arduinoLCD\test\Pain Drain\libraries\lvgl\src\font/lv_font_loader.c ****                         return false;
 288:..\..\..\arduinoLCD\test\Pain Drain\libraries\lvgl\src\font/lv_font_loader.c ****                     }
ARM GAS  C:\Users\haske\AppData\Local\Temp\cc5ISl1k.s 			page 12


 289:..\..\..\arduinoLCD\test\Pain Drain\libraries\lvgl\src\font/lv_font_loader.c **** 
 290:..\..\..\arduinoLCD\test\Pain Drain\libraries\lvgl\src\font/lv_font_loader.c ****                     if(cmap_table[i].format_type == LV_FONT_FMT_TXT_CMAP_SPARSE_FULL) {
 338              		.loc 1 290 0
 339 00b2 BB7B     		ldrb	r3, [r7, #14]
 340 00b4 012B     		cmp	r3, #1
 341 00b6 0DD1     		bne	.L15
 342              	.LBB8:
 291:..\..\..\arduinoLCD\test\Pain Drain\libraries\lvgl\src\font/lv_font_loader.c ****                         uint16_t * buf = lv_mem_alloc(sizeof(uint16_t) * cmap->list_length);
 343              		.loc 1 291 0
 344 00b8 208A     		ldrh	r0, [r4, #16]
 345 00ba 4000     		lsls	r0, r0, #1
 346 00bc FFF7FEFF 		bl	lv_mem_alloc
 347              	.LVL39:
 348 00c0 0100     		movs	r1, r0
 349              	.LVL40:
 292:..\..\..\arduinoLCD\test\Pain Drain\libraries\lvgl\src\font/lv_font_loader.c **** 
 293:..\..\..\arduinoLCD\test\Pain Drain\libraries\lvgl\src\font/lv_font_loader.c ****                         cmap->glyph_id_ofs_list = buf;
 350              		.loc 1 293 0
 351 00c2 E060     		str	r0, [r4, #12]
 294:..\..\..\arduinoLCD\test\Pain Drain\libraries\lvgl\src\font/lv_font_loader.c **** 
 295:..\..\..\arduinoLCD\test\Pain Drain\libraries\lvgl\src\font/lv_font_loader.c ****                         if(lv_fs_read(fp, buf, sizeof(uint16_t) * cmap->list_length, NULL) != LV_FS
 352              		.loc 1 295 0
 353 00c4 228A     		ldrh	r2, [r4, #16]
 354 00c6 5200     		lsls	r2, r2, #1
 355 00c8 0023     		movs	r3, #0
 356 00ca 0098     		ldr	r0, [sp]
 357              	.LVL41:
 358 00cc FFF7FEFF 		bl	lv_fs_read
 359              	.LVL42:
 360 00d0 0028     		cmp	r0, #0
 361 00d2 11D1     		bne	.L22
 362              	.LVL43:
 363              	.L15:
 364              	.LBE8:
 365              	.LBE7:
 366              	.LBE5:
 249:..\..\..\arduinoLCD\test\Pain Drain\libraries\lvgl\src\font/lv_font_loader.c ****         lv_fs_res_t res = lv_fs_seek(fp, cmaps_start + cmap_table[i].data_offset, LV_FS_SEEK_SET);
 367              		.loc 1 249 0 discriminator 2
 368 00d4 0135     		adds	r5, r5, #1
 369              	.LVL44:
 370              	.L12:
 249:..\..\..\arduinoLCD\test\Pain Drain\libraries\lvgl\src\font/lv_font_loader.c ****         lv_fs_res_t res = lv_fs_seek(fp, cmaps_start + cmap_table[i].data_offset, LV_FS_SEEK_SET);
 371              		.loc 1 249 0 is_stmt 0 discriminator 1
 372 00d6 738A     		ldrh	r3, [r6, #18]
 373 00d8 DB05     		lsls	r3, r3, #23
 374 00da DB0D     		lsrs	r3, r3, #23
 375 00dc 9D42     		cmp	r5, r3
 376 00de A3D3     		bcc	.L16
 377              	.LBE4:
 296:..\..\..\arduinoLCD\test\Pain Drain\libraries\lvgl\src\font/lv_font_loader.c ****                             return false;
 297:..\..\..\arduinoLCD\test\Pain Drain\libraries\lvgl\src\font/lv_font_loader.c ****                         }
 298:..\..\..\arduinoLCD\test\Pain Drain\libraries\lvgl\src\font/lv_font_loader.c ****                     }
 299:..\..\..\arduinoLCD\test\Pain Drain\libraries\lvgl\src\font/lv_font_loader.c ****                     break;
 300:..\..\..\arduinoLCD\test\Pain Drain\libraries\lvgl\src\font/lv_font_loader.c ****                 }
 301:..\..\..\arduinoLCD\test\Pain Drain\libraries\lvgl\src\font/lv_font_loader.c ****             default:
 302:..\..\..\arduinoLCD\test\Pain Drain\libraries\lvgl\src\font/lv_font_loader.c ****                 LV_LOG_WARN("Unknown cmaps format type %d.", cmap_table[i].format_type);
 303:..\..\..\arduinoLCD\test\Pain Drain\libraries\lvgl\src\font/lv_font_loader.c ****                 return false;
ARM GAS  C:\Users\haske\AppData\Local\Temp\cc5ISl1k.s 			page 13


 304:..\..\..\arduinoLCD\test\Pain Drain\libraries\lvgl\src\font/lv_font_loader.c ****         }
 305:..\..\..\arduinoLCD\test\Pain Drain\libraries\lvgl\src\font/lv_font_loader.c ****     }
 306:..\..\..\arduinoLCD\test\Pain Drain\libraries\lvgl\src\font/lv_font_loader.c ****     return true;
 378              		.loc 1 306 0 is_stmt 1
 379 00e0 0120     		movs	r0, #1
 380              	.LBB13:
 381 00e2 0AE0     		b	.L11
 382              	.LVL45:
 383              	.L17:
 384              	.LBE13:
 246:..\..\..\arduinoLCD\test\Pain Drain\libraries\lvgl\src\font/lv_font_loader.c ****     }
 385              		.loc 1 246 0
 386 00e4 0020     		movs	r0, #0
 387 00e6 08E0     		b	.L11
 388              	.LVL46:
 389              	.L18:
 390              	.LBB14:
 391              	.LBB12:
 252:..\..\..\arduinoLCD\test\Pain Drain\libraries\lvgl\src\font/lv_font_loader.c ****         }
 392              		.loc 1 252 0
 393 00e8 0020     		movs	r0, #0
 394              	.LVL47:
 395 00ea 06E0     		b	.L11
 396              	.LVL48:
 397              	.L23:
 303:..\..\..\arduinoLCD\test\Pain Drain\libraries\lvgl\src\font/lv_font_loader.c ****         }
 398              		.loc 1 303 0
 399 00ec 0020     		movs	r0, #0
 400              	.LVL49:
 401 00ee 04E0     		b	.L11
 402              	.LVL50:
 403              	.L20:
 404              	.LBB10:
 270:..\..\..\arduinoLCD\test\Pain Drain\libraries\lvgl\src\font/lv_font_loader.c ****                     }
 405              		.loc 1 270 0
 406 00f0 0020     		movs	r0, #0
 407 00f2 02E0     		b	.L11
 408              	.LVL51:
 409              	.L21:
 410              	.LBE10:
 411              	.LBB11:
 287:..\..\..\arduinoLCD\test\Pain Drain\libraries\lvgl\src\font/lv_font_loader.c ****                     }
 412              		.loc 1 287 0
 413 00f4 0020     		movs	r0, #0
 414 00f6 00E0     		b	.L11
 415              	.L22:
 416              	.LBB9:
 296:..\..\..\arduinoLCD\test\Pain Drain\libraries\lvgl\src\font/lv_font_loader.c ****                         }
 417              		.loc 1 296 0
 418 00f8 0020     		movs	r0, #0
 419              	.LVL52:
 420              	.L11:
 421              	.LBE9:
 422              	.LBE11:
 423              	.LBE12:
 424              	.LBE14:
 307:..\..\..\arduinoLCD\test\Pain Drain\libraries\lvgl\src\font/lv_font_loader.c **** }
ARM GAS  C:\Users\haske\AppData\Local\Temp\cc5ISl1k.s 			page 14


 425              		.loc 1 307 0
 426 00fa 03B0     		add	sp, sp, #12
 427              	.LVL53:
 428              		@ sp needed
 429              	.LVL54:
 430              	.LVL55:
 431              	.LVL56:
 432 00fc 0CBC     		pop	{r2, r3}
 433 00fe 9146     		mov	r9, r2
 434 0100 9A46     		mov	r10, r3
 435 0102 F0BD     		pop	{r4, r5, r6, r7, pc}
 436              		.cfi_endproc
 437              	.LFE208:
 438              		.size	load_cmaps_tables, .-load_cmaps_tables
 439              		.section	.text.read_label,"ax",%progbits
 440              		.align	2
 441              		.code	16
 442              		.thumb_func
 443              		.type	read_label, %function
 444              	read_label:
 445              	.LFB207:
 226:..\..\..\arduinoLCD\test\Pain Drain\libraries\lvgl\src\font/lv_font_loader.c ****     lv_fs_seek(fp, start, LV_FS_SEEK_SET);
 446              		.loc 1 226 0
 447              		.cfi_startproc
 448              		@ args = 0, pretend = 0, frame = 8
 449              		@ frame_needed = 0, uses_anonymous_args = 0
 450              	.LVL57:
 451 0000 30B5     		push	{r4, r5, lr}
 452              		.cfi_def_cfa_offset 12
 453              		.cfi_offset 4, -12
 454              		.cfi_offset 5, -8
 455              		.cfi_offset 14, -4
 456 0002 83B0     		sub	sp, sp, #12
 457              		.cfi_def_cfa_offset 24
 458 0004 0400     		movs	r4, r0
 459 0006 1500     		movs	r5, r2
 227:..\..\..\arduinoLCD\test\Pain Drain\libraries\lvgl\src\font/lv_font_loader.c **** 
 460              		.loc 1 227 0
 461 0008 0022     		movs	r2, #0
 462              	.LVL58:
 463 000a FFF7FEFF 		bl	lv_fs_seek
 464              	.LVL59:
 232:..\..\..\arduinoLCD\test\Pain Drain\libraries\lvgl\src\font/lv_font_loader.c ****        || lv_fs_read(fp, buf, 4, NULL) != LV_FS_RES_OK
 465              		.loc 1 232 0
 466 000e 0023     		movs	r3, #0
 467 0010 0422     		movs	r2, #4
 468 0012 01A9     		add	r1, sp, #4
 469 0014 2000     		movs	r0, r4
 470 0016 FFF7FEFF 		bl	lv_fs_read
 471              	.LVL60:
 472 001a 0028     		cmp	r0, #0
 473 001c 10D1     		bne	.L26
 233:..\..\..\arduinoLCD\test\Pain Drain\libraries\lvgl\src\font/lv_font_loader.c ****        || memcmp(label, buf, 4) != 0) {
 474              		.loc 1 233 0
 475 001e 0023     		movs	r3, #0
 476 0020 0422     		movs	r2, #4
 477 0022 6946     		mov	r1, sp
ARM GAS  C:\Users\haske\AppData\Local\Temp\cc5ISl1k.s 			page 15


 478 0024 2000     		movs	r0, r4
 479 0026 FFF7FEFF 		bl	lv_fs_read
 480              	.LVL61:
 481 002a 0028     		cmp	r0, #0
 482 002c 0BD1     		bne	.L27
 234:..\..\..\arduinoLCD\test\Pain Drain\libraries\lvgl\src\font/lv_font_loader.c ****         LV_LOG_WARN("Error reading '%s' label.", label);
 483              		.loc 1 234 0
 484 002e 0422     		movs	r2, #4
 485 0030 6946     		mov	r1, sp
 486 0032 2800     		movs	r0, r5
 487 0034 FFF7FEFF 		bl	memcmp
 488              	.LVL62:
 489 0038 0028     		cmp	r0, #0
 490 003a 07D1     		bne	.L28
 239:..\..\..\arduinoLCD\test\Pain Drain\libraries\lvgl\src\font/lv_font_loader.c **** }
 491              		.loc 1 239 0
 492 003c 0198     		ldr	r0, [sp, #4]
 493 003e 07E0     		b	.L25
 494              	.L26:
 236:..\..\..\arduinoLCD\test\Pain Drain\libraries\lvgl\src\font/lv_font_loader.c ****     }
 495              		.loc 1 236 0
 496 0040 0120     		movs	r0, #1
 497 0042 4042     		rsbs	r0, r0, #0
 498 0044 04E0     		b	.L25
 499              	.L27:
 500 0046 0120     		movs	r0, #1
 501 0048 4042     		rsbs	r0, r0, #0
 502 004a 01E0     		b	.L25
 503              	.L28:
 504 004c 0120     		movs	r0, #1
 505 004e 4042     		rsbs	r0, r0, #0
 506              	.L25:
 240:..\..\..\arduinoLCD\test\Pain Drain\libraries\lvgl\src\font/lv_font_loader.c **** 
 507              		.loc 1 240 0
 508 0050 03B0     		add	sp, sp, #12
 509              		@ sp needed
 510              	.LVL63:
 511              	.LVL64:
 512 0052 30BD     		pop	{r4, r5, pc}
 513              		.cfi_endproc
 514              	.LFE207:
 515              		.size	read_label, .-read_label
 516              		.section	.text.load_cmaps,"ax",%progbits
 517              		.align	2
 518              		.code	16
 519              		.thumb_func
 520              		.type	load_cmaps, %function
 521              	load_cmaps:
 522              	.LFB209:
 308:..\..\..\arduinoLCD\test\Pain Drain\libraries\lvgl\src\font/lv_font_loader.c **** 
 309:..\..\..\arduinoLCD\test\Pain Drain\libraries\lvgl\src\font/lv_font_loader.c **** static int32_t load_cmaps(lv_fs_file_t * fp, lv_font_fmt_txt_dsc_t * font_dsc, uint32_t cmaps_start
 310:..\..\..\arduinoLCD\test\Pain Drain\libraries\lvgl\src\font/lv_font_loader.c **** {
 523              		.loc 1 310 0
 524              		.cfi_startproc
 525              		@ args = 0, pretend = 0, frame = 16
 526              		@ frame_needed = 0, uses_anonymous_args = 0
 527              	.LVL65:
ARM GAS  C:\Users\haske\AppData\Local\Temp\cc5ISl1k.s 			page 16


 528 0000 F0B5     		push	{r4, r5, r6, r7, lr}
 529              		.cfi_def_cfa_offset 20
 530              		.cfi_offset 4, -20
 531              		.cfi_offset 5, -16
 532              		.cfi_offset 6, -12
 533              		.cfi_offset 7, -8
 534              		.cfi_offset 14, -4
 535 0002 85B0     		sub	sp, sp, #20
 536              		.cfi_def_cfa_offset 40
 537 0004 0500     		movs	r5, r0
 538 0006 0E00     		movs	r6, r1
 539 0008 1300     		movs	r3, r2
 311:..\..\..\arduinoLCD\test\Pain Drain\libraries\lvgl\src\font/lv_font_loader.c ****     int32_t cmaps_length = read_label(fp, cmaps_start, "cmap");
 540              		.loc 1 311 0
 541 000a 214A     		ldr	r2, .L34
 542              	.LVL66:
 543 000c 0193     		str	r3, [sp, #4]
 544 000e 1900     		movs	r1, r3
 545              	.LVL67:
 546 0010 FFF7FEFF 		bl	read_label
 547              	.LVL68:
 548 0014 041E     		subs	r4, r0, #0
 549              	.LVL69:
 312:..\..\..\arduinoLCD\test\Pain Drain\libraries\lvgl\src\font/lv_font_loader.c ****     if(cmaps_length < 0) {
 550              		.loc 1 312 0
 551 0016 31DB     		blt	.L31
 313:..\..\..\arduinoLCD\test\Pain Drain\libraries\lvgl\src\font/lv_font_loader.c ****         return -1;
 314:..\..\..\arduinoLCD\test\Pain Drain\libraries\lvgl\src\font/lv_font_loader.c ****     }
 315:..\..\..\arduinoLCD\test\Pain Drain\libraries\lvgl\src\font/lv_font_loader.c **** 
 316:..\..\..\arduinoLCD\test\Pain Drain\libraries\lvgl\src\font/lv_font_loader.c ****     uint32_t cmaps_subtables_count;
 317:..\..\..\arduinoLCD\test\Pain Drain\libraries\lvgl\src\font/lv_font_loader.c ****     if(lv_fs_read(fp, &cmaps_subtables_count, sizeof(uint32_t), NULL) != LV_FS_RES_OK) {
 552              		.loc 1 317 0
 553 0018 0023     		movs	r3, #0
 554 001a 0422     		movs	r2, #4
 555 001c 03A9     		add	r1, sp, #12
 556 001e 2800     		movs	r0, r5
 557              	.LVL70:
 558 0020 FFF7FEFF 		bl	lv_fs_read
 559              	.LVL71:
 560 0024 0028     		cmp	r0, #0
 561 0026 2CD1     		bne	.L32
 318:..\..\..\arduinoLCD\test\Pain Drain\libraries\lvgl\src\font/lv_font_loader.c ****         return -1;
 319:..\..\..\arduinoLCD\test\Pain Drain\libraries\lvgl\src\font/lv_font_loader.c ****     }
 320:..\..\..\arduinoLCD\test\Pain Drain\libraries\lvgl\src\font/lv_font_loader.c **** 
 321:..\..\..\arduinoLCD\test\Pain Drain\libraries\lvgl\src\font/lv_font_loader.c ****     lv_font_fmt_txt_cmap_t * cmaps =
 322:..\..\..\arduinoLCD\test\Pain Drain\libraries\lvgl\src\font/lv_font_loader.c ****         lv_mem_alloc(cmaps_subtables_count * sizeof(lv_font_fmt_txt_cmap_t));
 562              		.loc 1 322 0
 563 0028 039B     		ldr	r3, [sp, #12]
 564 002a 9A00     		lsls	r2, r3, #2
 565 002c D318     		adds	r3, r2, r3
 566 002e 9800     		lsls	r0, r3, #2
 321:..\..\..\arduinoLCD\test\Pain Drain\libraries\lvgl\src\font/lv_font_loader.c ****         lv_mem_alloc(cmaps_subtables_count * sizeof(lv_font_fmt_txt_cmap_t));
 567              		.loc 1 321 0
 568 0030 FFF7FEFF 		bl	lv_mem_alloc
 569              	.LVL72:
 570 0034 0700     		movs	r7, r0
 571              	.LVL73:
ARM GAS  C:\Users\haske\AppData\Local\Temp\cc5ISl1k.s 			page 17


 323:..\..\..\arduinoLCD\test\Pain Drain\libraries\lvgl\src\font/lv_font_loader.c **** 
 324:..\..\..\arduinoLCD\test\Pain Drain\libraries\lvgl\src\font/lv_font_loader.c ****     memset(cmaps, 0, cmaps_subtables_count * sizeof(lv_font_fmt_txt_cmap_t));
 572              		.loc 1 324 0
 573 0036 039B     		ldr	r3, [sp, #12]
 574 0038 9A00     		lsls	r2, r3, #2
 575 003a D318     		adds	r3, r2, r3
 576 003c 9A00     		lsls	r2, r3, #2
 577 003e 0021     		movs	r1, #0
 578 0040 FFF7FEFF 		bl	memset
 579              	.LVL74:
 325:..\..\..\arduinoLCD\test\Pain Drain\libraries\lvgl\src\font/lv_font_loader.c **** 
 326:..\..\..\arduinoLCD\test\Pain Drain\libraries\lvgl\src\font/lv_font_loader.c ****     font_dsc->cmaps = cmaps;
 580              		.loc 1 326 0
 581 0044 B760     		str	r7, [r6, #8]
 327:..\..\..\arduinoLCD\test\Pain Drain\libraries\lvgl\src\font/lv_font_loader.c ****     font_dsc->cmap_num = cmaps_subtables_count;
 582              		.loc 1 327 0
 583 0046 0399     		ldr	r1, [sp, #12]
 584 0048 C805     		lsls	r0, r1, #23
 585 004a C00D     		lsrs	r0, r0, #23
 586 004c 738A     		ldrh	r3, [r6, #18]
 587 004e 5B0A     		lsrs	r3, r3, #9
 588 0050 5B02     		lsls	r3, r3, #9
 589 0052 0343     		orrs	r3, r0
 590 0054 7382     		strh	r3, [r6, #18]
 328:..\..\..\arduinoLCD\test\Pain Drain\libraries\lvgl\src\font/lv_font_loader.c **** 
 329:..\..\..\arduinoLCD\test\Pain Drain\libraries\lvgl\src\font/lv_font_loader.c ****     cmap_table_bin_t * cmaps_tables = lv_mem_alloc(sizeof(cmap_table_bin_t) * font_dsc->cmap_num);
 591              		.loc 1 329 0
 592 0056 0001     		lsls	r0, r0, #4
 593 0058 FFF7FEFF 		bl	lv_mem_alloc
 594              	.LVL75:
 595 005c 0700     		movs	r7, r0
 596              	.LVL76:
 330:..\..\..\arduinoLCD\test\Pain Drain\libraries\lvgl\src\font/lv_font_loader.c **** 
 331:..\..\..\arduinoLCD\test\Pain Drain\libraries\lvgl\src\font/lv_font_loader.c ****     bool success = load_cmaps_tables(fp, font_dsc, cmaps_start, cmaps_tables);
 597              		.loc 1 331 0
 598 005e 0300     		movs	r3, r0
 599 0060 019A     		ldr	r2, [sp, #4]
 600 0062 3100     		movs	r1, r6
 601 0064 2800     		movs	r0, r5
 602              	.LVL77:
 603 0066 FFF7FEFF 		bl	load_cmaps_tables
 604              	.LVL78:
 605 006a 0500     		movs	r5, r0
 606              	.LVL79:
 332:..\..\..\arduinoLCD\test\Pain Drain\libraries\lvgl\src\font/lv_font_loader.c **** 
 333:..\..\..\arduinoLCD\test\Pain Drain\libraries\lvgl\src\font/lv_font_loader.c ****     lv_mem_free(cmaps_tables);
 607              		.loc 1 333 0
 608 006c 3800     		movs	r0, r7
 609 006e FFF7FEFF 		bl	lv_mem_free
 610              	.LVL80:
 334:..\..\..\arduinoLCD\test\Pain Drain\libraries\lvgl\src\font/lv_font_loader.c **** 
 335:..\..\..\arduinoLCD\test\Pain Drain\libraries\lvgl\src\font/lv_font_loader.c ****     return success ? cmaps_length : -1;
 611              		.loc 1 335 0
 612 0072 002D     		cmp	r5, #0
 613 0074 08D1     		bne	.L33
 614 0076 0120     		movs	r0, #1
 615 0078 4042     		rsbs	r0, r0, #0
ARM GAS  C:\Users\haske\AppData\Local\Temp\cc5ISl1k.s 			page 18


 616 007a 06E0     		b	.L30
 617              	.LVL81:
 618              	.L31:
 313:..\..\..\arduinoLCD\test\Pain Drain\libraries\lvgl\src\font/lv_font_loader.c ****     }
 619              		.loc 1 313 0
 620 007c 0120     		movs	r0, #1
 621              	.LVL82:
 622 007e 4042     		rsbs	r0, r0, #0
 623 0080 03E0     		b	.L30
 624              	.L32:
 318:..\..\..\arduinoLCD\test\Pain Drain\libraries\lvgl\src\font/lv_font_loader.c ****     }
 625              		.loc 1 318 0
 626 0082 0120     		movs	r0, #1
 627 0084 4042     		rsbs	r0, r0, #0
 628 0086 00E0     		b	.L30
 629              	.LVL83:
 630              	.L33:
 631              		.loc 1 335 0
 632 0088 2000     		movs	r0, r4
 633              	.LVL84:
 634              	.L30:
 336:..\..\..\arduinoLCD\test\Pain Drain\libraries\lvgl\src\font/lv_font_loader.c **** }
 635              		.loc 1 336 0
 636 008a 05B0     		add	sp, sp, #20
 637              		@ sp needed
 638              	.LVL85:
 639              	.LVL86:
 640 008c F0BD     		pop	{r4, r5, r6, r7, pc}
 641              	.L35:
 642 008e C046     		.align	2
 643              	.L34:
 644 0090 00000000 		.word	.LC0
 645              		.cfi_endproc
 646              	.LFE209:
 647              		.size	load_cmaps, .-load_cmaps
 648              		.section	.text.load_glyph,"ax",%progbits
 649              		.align	2
 650              		.code	16
 651              		.thumb_func
 652              		.type	load_glyph, %function
 653              	load_glyph:
 654              	.LFB210:
 337:..\..\..\arduinoLCD\test\Pain Drain\libraries\lvgl\src\font/lv_font_loader.c **** 
 338:..\..\..\arduinoLCD\test\Pain Drain\libraries\lvgl\src\font/lv_font_loader.c **** static int32_t load_glyph(lv_fs_file_t * fp, lv_font_fmt_txt_dsc_t * font_dsc,
 339:..\..\..\arduinoLCD\test\Pain Drain\libraries\lvgl\src\font/lv_font_loader.c ****                           uint32_t start, uint32_t * glyph_offset, uint32_t loca_count, font_header
 340:..\..\..\arduinoLCD\test\Pain Drain\libraries\lvgl\src\font/lv_font_loader.c **** {
 655              		.loc 1 340 0
 656              		.cfi_startproc
 657              		@ args = 8, pretend = 0, frame = 48
 658              		@ frame_needed = 0, uses_anonymous_args = 0
 659              	.LVL87:
 660 0000 F0B5     		push	{r4, r5, r6, r7, lr}
 661              		.cfi_def_cfa_offset 20
 662              		.cfi_offset 4, -20
 663              		.cfi_offset 5, -16
 664              		.cfi_offset 6, -12
 665              		.cfi_offset 7, -8
ARM GAS  C:\Users\haske\AppData\Local\Temp\cc5ISl1k.s 			page 19


 666              		.cfi_offset 14, -4
 667 0002 5F46     		mov	r7, fp
 668 0004 5646     		mov	r6, r10
 669 0006 4D46     		mov	r5, r9
 670 0008 4446     		mov	r4, r8
 671 000a F0B4     		push	{r4, r5, r6, r7}
 672              		.cfi_def_cfa_offset 36
 673              		.cfi_offset 8, -36
 674              		.cfi_offset 9, -32
 675              		.cfi_offset 10, -28
 676              		.cfi_offset 11, -24
 677 000c 8DB0     		sub	sp, sp, #52
 678              		.cfi_def_cfa_offset 88
 679 000e 0190     		str	r0, [sp, #4]
 680 0010 8846     		mov	r8, r1
 681 0012 1100     		movs	r1, r2
 682              	.LVL88:
 683 0014 0292     		str	r2, [sp, #8]
 684 0016 9B46     		mov	fp, r3
 685 0018 179C     		ldr	r4, [sp, #92]
 341:..\..\..\arduinoLCD\test\Pain Drain\libraries\lvgl\src\font/lv_font_loader.c ****     int32_t glyph_length = read_label(fp, start, "glyf");
 686              		.loc 1 341 0
 687 001a C44A     		ldr	r2, .L60
 688              	.LVL89:
 689 001c FFF7FEFF 		bl	read_label
 690              	.LVL90:
 691 0020 0490     		str	r0, [sp, #16]
 692              	.LVL91:
 342:..\..\..\arduinoLCD\test\Pain Drain\libraries\lvgl\src\font/lv_font_loader.c ****     if(glyph_length < 0) {
 693              		.loc 1 342 0
 694 0022 0028     		cmp	r0, #0
 695 0024 00DA     		bge	.LCB739
 696 0026 77E1     		b	.L56	@long jump
 697              	.LCB739:
 343:..\..\..\arduinoLCD\test\Pain Drain\libraries\lvgl\src\font/lv_font_loader.c ****         return -1;
 344:..\..\..\arduinoLCD\test\Pain Drain\libraries\lvgl\src\font/lv_font_loader.c ****     }
 345:..\..\..\arduinoLCD\test\Pain Drain\libraries\lvgl\src\font/lv_font_loader.c **** 
 346:..\..\..\arduinoLCD\test\Pain Drain\libraries\lvgl\src\font/lv_font_loader.c ****     lv_font_fmt_txt_glyph_dsc_t * glyph_dsc = (lv_font_fmt_txt_glyph_dsc_t *)
 347:..\..\..\arduinoLCD\test\Pain Drain\libraries\lvgl\src\font/lv_font_loader.c ****                                               lv_mem_alloc(loca_count * sizeof(lv_font_fmt_txt_glyp
 698              		.loc 1 347 0
 699 0028 169B     		ldr	r3, [sp, #88]
 700 002a DE00     		lsls	r6, r3, #3
 346:..\..\..\arduinoLCD\test\Pain Drain\libraries\lvgl\src\font/lv_font_loader.c ****                                               lv_mem_alloc(loca_count * sizeof(lv_font_fmt_txt_glyp
 701              		.loc 1 346 0
 702 002c 3000     		movs	r0, r6
 703              	.LVL92:
 704 002e FFF7FEFF 		bl	lv_mem_alloc
 705              	.LVL93:
 706 0032 0500     		movs	r5, r0
 707 0034 0390     		str	r0, [sp, #12]
 708              	.LVL94:
 348:..\..\..\arduinoLCD\test\Pain Drain\libraries\lvgl\src\font/lv_font_loader.c **** 
 349:..\..\..\arduinoLCD\test\Pain Drain\libraries\lvgl\src\font/lv_font_loader.c ****     memset(glyph_dsc, 0, loca_count * sizeof(lv_font_fmt_txt_glyph_dsc_t));
 709              		.loc 1 349 0
 710 0036 3200     		movs	r2, r6
 711 0038 0021     		movs	r1, #0
 712 003a FFF7FEFF 		bl	memset
ARM GAS  C:\Users\haske\AppData\Local\Temp\cc5ISl1k.s 			page 20


 713              	.LVL95:
 350:..\..\..\arduinoLCD\test\Pain Drain\libraries\lvgl\src\font/lv_font_loader.c **** 
 351:..\..\..\arduinoLCD\test\Pain Drain\libraries\lvgl\src\font/lv_font_loader.c ****     font_dsc->glyph_dsc = glyph_dsc;
 714              		.loc 1 351 0
 715 003e 4346     		mov	r3, r8
 716 0040 5D60     		str	r5, [r3, #4]
 717              	.LVL96:
 718              	.LBB15:
 352:..\..\..\arduinoLCD\test\Pain Drain\libraries\lvgl\src\font/lv_font_loader.c **** 
 353:..\..\..\arduinoLCD\test\Pain Drain\libraries\lvgl\src\font/lv_font_loader.c ****     int cur_bmp_size = 0;
 354:..\..\..\arduinoLCD\test\Pain Drain\libraries\lvgl\src\font/lv_font_loader.c **** 
 355:..\..\..\arduinoLCD\test\Pain Drain\libraries\lvgl\src\font/lv_font_loader.c ****     for(unsigned int i = 0; i < loca_count; ++i) {
 719              		.loc 1 355 0
 720 0042 0027     		movs	r7, #0
 721              	.LBE15:
 353:..\..\..\arduinoLCD\test\Pain Drain\libraries\lvgl\src\font/lv_font_loader.c **** 
 722              		.loc 1 353 0
 723 0044 0023     		movs	r3, #0
 724 0046 9A46     		mov	r10, r3
 725 0048 4346     		mov	r3, r8
 726 004a 0593     		str	r3, [sp, #20]
 727 004c 169B     		ldr	r3, [sp, #88]
 728 004e 9946     		mov	r9, r3
 729              	.LBB18:
 730              		.loc 1 355 0
 731 0050 B5E0     		b	.L38
 732              	.LVL97:
 733              	.L46:
 734              	.LBB16:
 356:..\..\..\arduinoLCD\test\Pain Drain\libraries\lvgl\src\font/lv_font_loader.c ****         lv_font_fmt_txt_glyph_dsc_t * gdsc = &glyph_dsc[i];
 735              		.loc 1 356 0
 736 0052 FD00     		lsls	r5, r7, #3
 737 0054 039B     		ldr	r3, [sp, #12]
 738 0056 9C46     		mov	ip, r3
 739 0058 6544     		add	r5, r5, ip
 740              	.LVL98:
 357:..\..\..\arduinoLCD\test\Pain Drain\libraries\lvgl\src\font/lv_font_loader.c **** 
 358:..\..\..\arduinoLCD\test\Pain Drain\libraries\lvgl\src\font/lv_font_loader.c ****         lv_fs_res_t res = lv_fs_seek(fp, start + glyph_offset[i], LV_FS_SEEK_SET);
 741              		.loc 1 358 0
 742 005a BE00     		lsls	r6, r7, #2
 743 005c 5E44     		add	r6, r6, fp
 744 005e 029B     		ldr	r3, [sp, #8]
 745 0060 3268     		ldr	r2, [r6]
 746 0062 9446     		mov	ip, r2
 747 0064 6344     		add	r3, r3, ip
 748 0066 1900     		movs	r1, r3
 749 0068 0022     		movs	r2, #0
 750 006a 0198     		ldr	r0, [sp, #4]
 751 006c FFF7FEFF 		bl	lv_fs_seek
 752              	.LVL99:
 753 0070 08AB     		add	r3, sp, #32
 754 0072 D871     		strb	r0, [r3, #7]
 359:..\..\..\arduinoLCD\test\Pain Drain\libraries\lvgl\src\font/lv_font_loader.c ****         if(res != LV_FS_RES_OK) {
 755              		.loc 1 359 0
 756 0074 0028     		cmp	r0, #0
 757 0076 00D0     		beq	.LCB803
 758 0078 9EE0     		b	.L39	@long jump
ARM GAS  C:\Users\haske\AppData\Local\Temp\cc5ISl1k.s 			page 21


 759              	.LCB803:
 360:..\..\..\arduinoLCD\test\Pain Drain\libraries\lvgl\src\font/lv_font_loader.c ****             return -1;
 361:..\..\..\arduinoLCD\test\Pain Drain\libraries\lvgl\src\font/lv_font_loader.c ****         }
 362:..\..\..\arduinoLCD\test\Pain Drain\libraries\lvgl\src\font/lv_font_loader.c **** 
 363:..\..\..\arduinoLCD\test\Pain Drain\libraries\lvgl\src\font/lv_font_loader.c ****         bit_iterator_t bit_it = init_bit_iterator(fp);
 760              		.loc 1 363 0
 761 007a 0199     		ldr	r1, [sp, #4]
 762 007c 0AA8     		add	r0, sp, #40
 763 007e FFF7FEFF 		bl	init_bit_iterator
 764              	.LVL100:
 364:..\..\..\arduinoLCD\test\Pain Drain\libraries\lvgl\src\font/lv_font_loader.c **** 
 365:..\..\..\arduinoLCD\test\Pain Drain\libraries\lvgl\src\font/lv_font_loader.c ****         if(header->advance_width_bits == 0) {
 765              		.loc 1 365 0
 766 0082 2023     		movs	r3, #32
 767 0084 E15C     		ldrb	r1, [r4, r3]
 768 0086 0029     		cmp	r1, #0
 769 0088 07D1     		bne	.L40
 366:..\..\..\arduinoLCD\test\Pain Drain\libraries\lvgl\src\font/lv_font_loader.c ****             gdsc->adv_w = header->default_advance_width;
 770              		.loc 1 366 0
 771 008a E38A     		ldrh	r3, [r4, #22]
 772 008c 1A01     		lsls	r2, r3, #4
 773 008e 6B88     		ldrh	r3, [r5, #2]
 774 0090 0F31     		adds	r1, r1, #15
 775 0092 0B40     		ands	r3, r1
 776 0094 1343     		orrs	r3, r2
 777 0096 6B80     		strh	r3, [r5, #2]
 778 0098 12E0     		b	.L41
 779              	.L40:
 367:..\..\..\arduinoLCD\test\Pain Drain\libraries\lvgl\src\font/lv_font_loader.c ****         }
 368:..\..\..\arduinoLCD\test\Pain Drain\libraries\lvgl\src\font/lv_font_loader.c ****         else {
 369:..\..\..\arduinoLCD\test\Pain Drain\libraries\lvgl\src\font/lv_font_loader.c ****             gdsc->adv_w = read_bits(&bit_it, header->advance_width_bits, &res);
 780              		.loc 1 369 0
 781 009a 0723     		movs	r3, #7
 782 009c 08AA     		add	r2, sp, #32
 783 009e 9446     		mov	ip, r2
 784 00a0 6344     		add	r3, r3, ip
 785 00a2 9846     		mov	r8, r3
 786 00a4 1A00     		movs	r2, r3
 787 00a6 0AA8     		add	r0, sp, #40
 788 00a8 FFF7FEFF 		bl	read_bits
 789              	.LVL101:
 790 00ac 0301     		lsls	r3, r0, #4
 791 00ae 6A88     		ldrh	r2, [r5, #2]
 792 00b0 0F20     		movs	r0, #15
 793 00b2 1040     		ands	r0, r2
 794 00b4 1843     		orrs	r0, r3
 795 00b6 6880     		strh	r0, [r5, #2]
 370:..\..\..\arduinoLCD\test\Pain Drain\libraries\lvgl\src\font/lv_font_loader.c ****             if(res != LV_FS_RES_OK) {
 796              		.loc 1 370 0
 797 00b8 4346     		mov	r3, r8
 798 00ba 1B78     		ldrb	r3, [r3]
 799 00bc 002B     		cmp	r3, #0
 800 00be 7BD1     		bne	.L39
 801              	.L41:
 371:..\..\..\arduinoLCD\test\Pain Drain\libraries\lvgl\src\font/lv_font_loader.c ****                 return -1;
 372:..\..\..\arduinoLCD\test\Pain Drain\libraries\lvgl\src\font/lv_font_loader.c ****             }
 373:..\..\..\arduinoLCD\test\Pain Drain\libraries\lvgl\src\font/lv_font_loader.c ****         }
ARM GAS  C:\Users\haske\AppData\Local\Temp\cc5ISl1k.s 			page 22


 374:..\..\..\arduinoLCD\test\Pain Drain\libraries\lvgl\src\font/lv_font_loader.c **** 
 375:..\..\..\arduinoLCD\test\Pain Drain\libraries\lvgl\src\font/lv_font_loader.c ****         if(header->advance_width_format == 0) {
 802              		.loc 1 375 0
 803 00c0 237F     		ldrb	r3, [r4, #28]
 804 00c2 002B     		cmp	r3, #0
 805 00c4 07D1     		bne	.L42
 376:..\..\..\arduinoLCD\test\Pain Drain\libraries\lvgl\src\font/lv_font_loader.c ****             gdsc->adv_w *= 16;
 806              		.loc 1 376 0
 807 00c6 6B88     		ldrh	r3, [r5, #2]
 808 00c8 1A09     		lsrs	r2, r3, #4
 809 00ca 1206     		lsls	r2, r2, #24
 810 00cc 120C     		lsrs	r2, r2, #16
 811 00ce 0F21     		movs	r1, #15
 812 00d0 0B40     		ands	r3, r1
 813 00d2 1343     		orrs	r3, r2
 814 00d4 6B80     		strh	r3, [r5, #2]
 815              	.L42:
 377:..\..\..\arduinoLCD\test\Pain Drain\libraries\lvgl\src\font/lv_font_loader.c ****         }
 378:..\..\..\arduinoLCD\test\Pain Drain\libraries\lvgl\src\font/lv_font_loader.c **** 
 379:..\..\..\arduinoLCD\test\Pain Drain\libraries\lvgl\src\font/lv_font_loader.c ****         gdsc->ofs_x = read_bits_signed(&bit_it, header->xy_bits, &res);
 816              		.loc 1 379 0
 817 00d6 A17F     		ldrb	r1, [r4, #30]
 818 00d8 0723     		movs	r3, #7
 819 00da 08AA     		add	r2, sp, #32
 820 00dc 9446     		mov	ip, r2
 821 00de 6344     		add	r3, r3, ip
 822 00e0 9846     		mov	r8, r3
 823 00e2 1A00     		movs	r2, r3
 824 00e4 0AA8     		add	r0, sp, #40
 825 00e6 FFF7FEFF 		bl	read_bits_signed
 826              	.LVL102:
 827 00ea A871     		strb	r0, [r5, #6]
 380:..\..\..\arduinoLCD\test\Pain Drain\libraries\lvgl\src\font/lv_font_loader.c ****         if(res != LV_FS_RES_OK) {
 828              		.loc 1 380 0
 829 00ec 4346     		mov	r3, r8
 830 00ee 1B78     		ldrb	r3, [r3]
 831 00f0 002B     		cmp	r3, #0
 832 00f2 61D1     		bne	.L39
 381:..\..\..\arduinoLCD\test\Pain Drain\libraries\lvgl\src\font/lv_font_loader.c ****             return -1;
 382:..\..\..\arduinoLCD\test\Pain Drain\libraries\lvgl\src\font/lv_font_loader.c ****         }
 383:..\..\..\arduinoLCD\test\Pain Drain\libraries\lvgl\src\font/lv_font_loader.c **** 
 384:..\..\..\arduinoLCD\test\Pain Drain\libraries\lvgl\src\font/lv_font_loader.c ****         gdsc->ofs_y = read_bits_signed(&bit_it, header->xy_bits, &res);
 833              		.loc 1 384 0
 834 00f4 A17F     		ldrb	r1, [r4, #30]
 835 00f6 0733     		adds	r3, r3, #7
 836 00f8 08AA     		add	r2, sp, #32
 837 00fa 9446     		mov	ip, r2
 838 00fc 6344     		add	r3, r3, ip
 839 00fe 9846     		mov	r8, r3
 840 0100 1A00     		movs	r2, r3
 841 0102 0AA8     		add	r0, sp, #40
 842 0104 FFF7FEFF 		bl	read_bits_signed
 843              	.LVL103:
 844 0108 E871     		strb	r0, [r5, #7]
 385:..\..\..\arduinoLCD\test\Pain Drain\libraries\lvgl\src\font/lv_font_loader.c ****         if(res != LV_FS_RES_OK) {
 845              		.loc 1 385 0
 846 010a 4346     		mov	r3, r8
ARM GAS  C:\Users\haske\AppData\Local\Temp\cc5ISl1k.s 			page 23


 847 010c 1B78     		ldrb	r3, [r3]
 848 010e 002B     		cmp	r3, #0
 849 0110 52D1     		bne	.L39
 386:..\..\..\arduinoLCD\test\Pain Drain\libraries\lvgl\src\font/lv_font_loader.c ****             return -1;
 387:..\..\..\arduinoLCD\test\Pain Drain\libraries\lvgl\src\font/lv_font_loader.c ****         }
 388:..\..\..\arduinoLCD\test\Pain Drain\libraries\lvgl\src\font/lv_font_loader.c **** 
 389:..\..\..\arduinoLCD\test\Pain Drain\libraries\lvgl\src\font/lv_font_loader.c ****         gdsc->box_w = read_bits(&bit_it, header->wh_bits, &res);
 850              		.loc 1 389 0
 851 0112 E17F     		ldrb	r1, [r4, #31]
 852 0114 0733     		adds	r3, r3, #7
 853 0116 08AA     		add	r2, sp, #32
 854 0118 9446     		mov	ip, r2
 855 011a 6344     		add	r3, r3, ip
 856 011c 9846     		mov	r8, r3
 857 011e 1A00     		movs	r2, r3
 858 0120 0AA8     		add	r0, sp, #40
 859 0122 FFF7FEFF 		bl	read_bits
 860              	.LVL104:
 861 0126 2871     		strb	r0, [r5, #4]
 390:..\..\..\arduinoLCD\test\Pain Drain\libraries\lvgl\src\font/lv_font_loader.c ****         if(res != LV_FS_RES_OK) {
 862              		.loc 1 390 0
 863 0128 4346     		mov	r3, r8
 864 012a 1B78     		ldrb	r3, [r3]
 865 012c 002B     		cmp	r3, #0
 866 012e 43D1     		bne	.L39
 391:..\..\..\arduinoLCD\test\Pain Drain\libraries\lvgl\src\font/lv_font_loader.c ****             return -1;
 392:..\..\..\arduinoLCD\test\Pain Drain\libraries\lvgl\src\font/lv_font_loader.c ****         }
 393:..\..\..\arduinoLCD\test\Pain Drain\libraries\lvgl\src\font/lv_font_loader.c **** 
 394:..\..\..\arduinoLCD\test\Pain Drain\libraries\lvgl\src\font/lv_font_loader.c ****         gdsc->box_h = read_bits(&bit_it, header->wh_bits, &res);
 867              		.loc 1 394 0
 868 0130 E17F     		ldrb	r1, [r4, #31]
 869 0132 0733     		adds	r3, r3, #7
 870 0134 08AA     		add	r2, sp, #32
 871 0136 9446     		mov	ip, r2
 872 0138 6344     		add	r3, r3, ip
 873 013a 9846     		mov	r8, r3
 874 013c 1A00     		movs	r2, r3
 875 013e 0AA8     		add	r0, sp, #40
 876 0140 FFF7FEFF 		bl	read_bits
 877              	.LVL105:
 878 0144 6871     		strb	r0, [r5, #5]
 395:..\..\..\arduinoLCD\test\Pain Drain\libraries\lvgl\src\font/lv_font_loader.c ****         if(res != LV_FS_RES_OK) {
 879              		.loc 1 395 0
 880 0146 4346     		mov	r3, r8
 881 0148 1B78     		ldrb	r3, [r3]
 882 014a 002B     		cmp	r3, #0
 883 014c 34D1     		bne	.L39
 396:..\..\..\arduinoLCD\test\Pain Drain\libraries\lvgl\src\font/lv_font_loader.c ****             return -1;
 397:..\..\..\arduinoLCD\test\Pain Drain\libraries\lvgl\src\font/lv_font_loader.c ****         }
 398:..\..\..\arduinoLCD\test\Pain Drain\libraries\lvgl\src\font/lv_font_loader.c **** 
 399:..\..\..\arduinoLCD\test\Pain Drain\libraries\lvgl\src\font/lv_font_loader.c ****         int nbits = header->advance_width_bits + 2 * header->xy_bits + 2 * header->wh_bits;
 884              		.loc 1 399 0
 885 014e 2033     		adds	r3, r3, #32
 886 0150 E25C     		ldrb	r2, [r4, r3]
 887 0152 A37F     		ldrb	r3, [r4, #30]
 888 0154 5B00     		lsls	r3, r3, #1
 889 0156 D218     		adds	r2, r2, r3
ARM GAS  C:\Users\haske\AppData\Local\Temp\cc5ISl1k.s 			page 24


 890 0158 E37F     		ldrb	r3, [r4, #31]
 891 015a 5B00     		lsls	r3, r3, #1
 892 015c D318     		adds	r3, r2, r3
 893              	.LVL106:
 400:..\..\..\arduinoLCD\test\Pain Drain\libraries\lvgl\src\font/lv_font_loader.c ****         int next_offset = (i < loca_count - 1) ? glyph_offset[i + 1] : (uint32_t)glyph_length;
 894              		.loc 1 400 0
 895 015e 4A46     		mov	r2, r9
 896 0160 013A     		subs	r2, r2, #1
 897 0162 9742     		cmp	r7, r2
 898 0164 04D2     		bcs	.L57
 899              		.loc 1 400 0 is_stmt 0 discriminator 1
 900 0166 7A1C     		adds	r2, r7, #1
 901 0168 9200     		lsls	r2, r2, #2
 902 016a 5946     		mov	r1, fp
 903 016c 5158     		ldr	r1, [r2, r1]
 904 016e 00E0     		b	.L43
 905              	.L57:
 906              		.loc 1 400 0
 907 0170 0499     		ldr	r1, [sp, #16]
 908              	.L43:
 909              	.LVL107:
 401:..\..\..\arduinoLCD\test\Pain Drain\libraries\lvgl\src\font/lv_font_loader.c ****         int bmp_size = next_offset - glyph_offset[i] - nbits / 8;
 910              		.loc 1 401 0 is_stmt 1 discriminator 4
 911 0172 3268     		ldr	r2, [r6]
 912 0174 8A1A     		subs	r2, r1, r2
 913 0176 D917     		asrs	r1, r3, #31
 914              	.LVL108:
 915 0178 0720     		movs	r0, #7
 916 017a 0140     		ands	r1, r0
 917 017c CB18     		adds	r3, r1, r3
 918              	.LVL109:
 919 017e DB10     		asrs	r3, r3, #3
 920 0180 D31A     		subs	r3, r2, r3
 921              	.LVL110:
 402:..\..\..\arduinoLCD\test\Pain Drain\libraries\lvgl\src\font/lv_font_loader.c **** 
 403:..\..\..\arduinoLCD\test\Pain Drain\libraries\lvgl\src\font/lv_font_loader.c ****         if(i == 0) {
 922              		.loc 1 403 0 discriminator 4
 923 0182 002F     		cmp	r7, #0
 924 0184 08D1     		bne	.L44
 404:..\..\..\arduinoLCD\test\Pain Drain\libraries\lvgl\src\font/lv_font_loader.c ****             gdsc->adv_w = 0;
 925              		.loc 1 404 0
 926 0186 6A88     		ldrh	r2, [r5, #2]
 927 0188 0F21     		movs	r1, #15
 928 018a 0A40     		ands	r2, r1
 929 018c 6A80     		strh	r2, [r5, #2]
 930              	.LVL111:
 405:..\..\..\arduinoLCD\test\Pain Drain\libraries\lvgl\src\font/lv_font_loader.c ****             gdsc->box_w = 0;
 931              		.loc 1 405 0
 932 018e 0022     		movs	r2, #0
 933 0190 2A71     		strb	r2, [r5, #4]
 406:..\..\..\arduinoLCD\test\Pain Drain\libraries\lvgl\src\font/lv_font_loader.c ****             gdsc->box_h = 0;
 934              		.loc 1 406 0
 935 0192 6A71     		strb	r2, [r5, #5]
 407:..\..\..\arduinoLCD\test\Pain Drain\libraries\lvgl\src\font/lv_font_loader.c ****             gdsc->ofs_x = 0;
 936              		.loc 1 407 0
 937 0194 AA71     		strb	r2, [r5, #6]
 408:..\..\..\arduinoLCD\test\Pain Drain\libraries\lvgl\src\font/lv_font_loader.c ****             gdsc->ofs_y = 0;
ARM GAS  C:\Users\haske\AppData\Local\Temp\cc5ISl1k.s 			page 25


 938              		.loc 1 408 0
 939 0196 EA71     		strb	r2, [r5, #7]
 940              	.L44:
 409:..\..\..\arduinoLCD\test\Pain Drain\libraries\lvgl\src\font/lv_font_loader.c ****         }
 410:..\..\..\arduinoLCD\test\Pain Drain\libraries\lvgl\src\font/lv_font_loader.c **** 
 411:..\..\..\arduinoLCD\test\Pain Drain\libraries\lvgl\src\font/lv_font_loader.c ****         gdsc->bitmap_index = cur_bmp_size;
 941              		.loc 1 411 0
 942 0198 5246     		mov	r2, r10
 943 019a 1203     		lsls	r2, r2, #12
 944 019c 110B     		lsrs	r1, r2, #12
 945 019e 2A68     		ldr	r2, [r5]
 946 01a0 120D     		lsrs	r2, r2, #20
 947 01a2 1205     		lsls	r2, r2, #20
 948 01a4 0A43     		orrs	r2, r1
 949 01a6 2A60     		str	r2, [r5]
 412:..\..\..\arduinoLCD\test\Pain Drain\libraries\lvgl\src\font/lv_font_loader.c ****         if(gdsc->box_w * gdsc->box_h != 0) {
 950              		.loc 1 412 0
 951 01a8 2979     		ldrb	r1, [r5, #4]
 952 01aa 6A79     		ldrb	r2, [r5, #5]
 953 01ac 4A43     		muls	r2, r1
 954 01ae 002A     		cmp	r2, #0
 955 01b0 00D0     		beq	.L45
 413:..\..\..\arduinoLCD\test\Pain Drain\libraries\lvgl\src\font/lv_font_loader.c ****             cur_bmp_size += bmp_size;
 956              		.loc 1 413 0
 957 01b2 9A44     		add	r10, r10, r3
 958              	.LVL112:
 959              	.L45:
 960              	.LBE16:
 355:..\..\..\arduinoLCD\test\Pain Drain\libraries\lvgl\src\font/lv_font_loader.c ****         lv_font_fmt_txt_glyph_dsc_t * gdsc = &glyph_dsc[i];
 961              		.loc 1 355 0
 962 01b4 0137     		adds	r7, r7, #1
 963              	.LVL113:
 964 01b6 02E0     		b	.L38
 965              	.LVL114:
 966              	.L39:
 967              	.LBB17:
 360:..\..\..\arduinoLCD\test\Pain Drain\libraries\lvgl\src\font/lv_font_loader.c ****         }
 968              		.loc 1 360 0 discriminator 1
 969 01b8 0120     		movs	r0, #1
 970 01ba 4042     		rsbs	r0, r0, #0
 971 01bc AEE0     		b	.L37
 972              	.LVL115:
 973              	.L38:
 974              	.LBE17:
 355:..\..\..\arduinoLCD\test\Pain Drain\libraries\lvgl\src\font/lv_font_loader.c ****         lv_font_fmt_txt_glyph_dsc_t * gdsc = &glyph_dsc[i];
 975              		.loc 1 355 0 discriminator 1
 976 01be 4F45     		cmp	r7, r9
 977 01c0 00D2     		bcs	.LCB1028
 978 01c2 46E7     		b	.L46	@long jump
 979              	.LCB1028:
 980 01c4 059B     		ldr	r3, [sp, #20]
 981 01c6 9846     		mov	r8, r3
 982              	.LBE18:
 414:..\..\..\arduinoLCD\test\Pain Drain\libraries\lvgl\src\font/lv_font_loader.c ****         }
 415:..\..\..\arduinoLCD\test\Pain Drain\libraries\lvgl\src\font/lv_font_loader.c ****     }
 416:..\..\..\arduinoLCD\test\Pain Drain\libraries\lvgl\src\font/lv_font_loader.c **** 
 417:..\..\..\arduinoLCD\test\Pain Drain\libraries\lvgl\src\font/lv_font_loader.c ****     uint8_t * glyph_bmp = (uint8_t *)lv_mem_alloc(sizeof(uint8_t) * cur_bmp_size);
ARM GAS  C:\Users\haske\AppData\Local\Temp\cc5ISl1k.s 			page 26


 983              		.loc 1 417 0
 984 01c8 5046     		mov	r0, r10
 985 01ca FFF7FEFF 		bl	lv_mem_alloc
 986              	.LVL116:
 987 01ce 0590     		str	r0, [sp, #20]
 988              	.LVL117:
 418:..\..\..\arduinoLCD\test\Pain Drain\libraries\lvgl\src\font/lv_font_loader.c **** 
 419:..\..\..\arduinoLCD\test\Pain Drain\libraries\lvgl\src\font/lv_font_loader.c ****     font_dsc->glyph_bitmap = glyph_bmp;
 989              		.loc 1 419 0
 990 01d0 4346     		mov	r3, r8
 991 01d2 1860     		str	r0, [r3]
 992              	.LVL118:
 993              	.LBB19:
 420:..\..\..\arduinoLCD\test\Pain Drain\libraries\lvgl\src\font/lv_font_loader.c **** 
 421:..\..\..\arduinoLCD\test\Pain Drain\libraries\lvgl\src\font/lv_font_loader.c ****     cur_bmp_size = 0;
 422:..\..\..\arduinoLCD\test\Pain Drain\libraries\lvgl\src\font/lv_font_loader.c **** 
 423:..\..\..\arduinoLCD\test\Pain Drain\libraries\lvgl\src\font/lv_font_loader.c ****     for(unsigned int i = 1; i < loca_count; ++i) {
 994              		.loc 1 423 0
 995 01d4 0123     		movs	r3, #1
 996              	.LBE19:
 421:..\..\..\arduinoLCD\test\Pain Drain\libraries\lvgl\src\font/lv_font_loader.c **** 
 997              		.loc 1 421 0
 998 01d6 0022     		movs	r2, #0
 999 01d8 9246     		mov	r10, r2
 1000 01da 9846     		mov	r8, r3
 1001 01dc 5B46     		mov	r3, fp
 1002 01de 0693     		str	r3, [sp, #24]
 1003 01e0 A346     		mov	fp, r4
 1004              	.LVL119:
 1005              	.LBB23:
 1006              		.loc 1 423 0
 1007 01e2 93E0     		b	.L47
 1008              	.LVL120:
 1009              	.L55:
 1010              	.LBB20:
 424:..\..\..\arduinoLCD\test\Pain Drain\libraries\lvgl\src\font/lv_font_loader.c ****         lv_fs_res_t res = lv_fs_seek(fp, start + glyph_offset[i], LV_FS_SEEK_SET);
 1011              		.loc 1 424 0
 1012 01e4 4346     		mov	r3, r8
 1013 01e6 9D00     		lsls	r5, r3, #2
 1014 01e8 069F     		ldr	r7, [sp, #24]
 1015 01ea BC46     		mov	ip, r7
 1016 01ec 6544     		add	r5, r5, ip
 1017 01ee 029B     		ldr	r3, [sp, #8]
 1018 01f0 2A68     		ldr	r2, [r5]
 1019 01f2 9446     		mov	ip, r2
 1020 01f4 6344     		add	r3, r3, ip
 1021 01f6 1900     		movs	r1, r3
 1022 01f8 0022     		movs	r2, #0
 1023 01fa 019C     		ldr	r4, [sp, #4]
 1024 01fc 2000     		movs	r0, r4
 1025 01fe FFF7FEFF 		bl	lv_fs_seek
 1026              	.LVL121:
 1027 0202 08AB     		add	r3, sp, #32
 1028 0204 D871     		strb	r0, [r3, #7]
 425:..\..\..\arduinoLCD\test\Pain Drain\libraries\lvgl\src\font/lv_font_loader.c ****         if(res != LV_FS_RES_OK) {
 1029              		.loc 1 425 0
 1030 0206 0028     		cmp	r0, #0
ARM GAS  C:\Users\haske\AppData\Local\Temp\cc5ISl1k.s 			page 27


 1031 0208 7AD1     		bne	.L48
 426:..\..\..\arduinoLCD\test\Pain Drain\libraries\lvgl\src\font/lv_font_loader.c ****             return -1;
 427:..\..\..\arduinoLCD\test\Pain Drain\libraries\lvgl\src\font/lv_font_loader.c ****         }
 428:..\..\..\arduinoLCD\test\Pain Drain\libraries\lvgl\src\font/lv_font_loader.c ****         bit_iterator_t bit_it = init_bit_iterator(fp);
 1032              		.loc 1 428 0
 1033 020a 2100     		movs	r1, r4
 1034 020c 0AA8     		add	r0, sp, #40
 1035 020e FFF7FEFF 		bl	init_bit_iterator
 1036              	.LVL122:
 429:..\..\..\arduinoLCD\test\Pain Drain\libraries\lvgl\src\font/lv_font_loader.c **** 
 430:..\..\..\arduinoLCD\test\Pain Drain\libraries\lvgl\src\font/lv_font_loader.c ****         int nbits = header->advance_width_bits + 2 * header->xy_bits + 2 * header->wh_bits;
 1037              		.loc 1 430 0
 1038 0212 2023     		movs	r3, #32
 1039 0214 5A46     		mov	r2, fp
 1040 0216 D35C     		ldrb	r3, [r2, r3]
 1041 0218 947F     		ldrb	r4, [r2, #30]
 1042 021a 6400     		lsls	r4, r4, #1
 1043 021c 1B19     		adds	r3, r3, r4
 1044 021e D47F     		ldrb	r4, [r2, #31]
 1045 0220 6400     		lsls	r4, r4, #1
 1046 0222 1C19     		adds	r4, r3, r4
 1047              	.LVL123:
 431:..\..\..\arduinoLCD\test\Pain Drain\libraries\lvgl\src\font/lv_font_loader.c **** 
 432:..\..\..\arduinoLCD\test\Pain Drain\libraries\lvgl\src\font/lv_font_loader.c ****         read_bits(&bit_it, nbits, &res);
 1048              		.loc 1 432 0
 1049 0224 08AB     		add	r3, sp, #32
 1050 0226 DE1D     		adds	r6, r3, #7
 1051 0228 3200     		movs	r2, r6
 1052 022a 2100     		movs	r1, r4
 1053 022c 0AA8     		add	r0, sp, #40
 1054 022e FFF7FEFF 		bl	read_bits
 1055              	.LVL124:
 433:..\..\..\arduinoLCD\test\Pain Drain\libraries\lvgl\src\font/lv_font_loader.c ****         if(res != LV_FS_RES_OK) {
 1056              		.loc 1 433 0
 1057 0232 3378     		ldrb	r3, [r6]
 1058 0234 002B     		cmp	r3, #0
 1059 0236 63D1     		bne	.L48
 434:..\..\..\arduinoLCD\test\Pain Drain\libraries\lvgl\src\font/lv_font_loader.c ****             return -1;
 435:..\..\..\arduinoLCD\test\Pain Drain\libraries\lvgl\src\font/lv_font_loader.c ****         }
 436:..\..\..\arduinoLCD\test\Pain Drain\libraries\lvgl\src\font/lv_font_loader.c **** 
 437:..\..\..\arduinoLCD\test\Pain Drain\libraries\lvgl\src\font/lv_font_loader.c ****         if(glyph_dsc[i].box_w * glyph_dsc[i].box_h == 0) {
 1060              		.loc 1 437 0
 1061 0238 4346     		mov	r3, r8
 1062 023a DB00     		lsls	r3, r3, #3
 1063 023c 039A     		ldr	r2, [sp, #12]
 1064 023e 9446     		mov	ip, r2
 1065 0240 6344     		add	r3, r3, ip
 1066 0242 1A79     		ldrb	r2, [r3, #4]
 1067 0244 5B79     		ldrb	r3, [r3, #5]
 1068 0246 5343     		muls	r3, r2
 1069 0248 002B     		cmp	r3, #0
 1070 024a 5CD0     		beq	.L50
 438:..\..\..\arduinoLCD\test\Pain Drain\libraries\lvgl\src\font/lv_font_loader.c ****             continue;
 439:..\..\..\arduinoLCD\test\Pain Drain\libraries\lvgl\src\font/lv_font_loader.c ****         }
 440:..\..\..\arduinoLCD\test\Pain Drain\libraries\lvgl\src\font/lv_font_loader.c **** 
 441:..\..\..\arduinoLCD\test\Pain Drain\libraries\lvgl\src\font/lv_font_loader.c ****         int next_offset = (i < loca_count - 1) ? glyph_offset[i + 1] : (uint32_t)glyph_length;
 1071              		.loc 1 441 0
ARM GAS  C:\Users\haske\AppData\Local\Temp\cc5ISl1k.s 			page 28


 1072 024c 169B     		ldr	r3, [sp, #88]
 1073 024e 013B     		subs	r3, r3, #1
 1074 0250 9845     		cmp	r8, r3
 1075 0252 04D2     		bcs	.L58
 1076              		.loc 1 441 0 is_stmt 0 discriminator 1
 1077 0254 4346     		mov	r3, r8
 1078 0256 0133     		adds	r3, r3, #1
 1079 0258 9B00     		lsls	r3, r3, #2
 1080 025a DA59     		ldr	r2, [r3, r7]
 1081 025c 00E0     		b	.L51
 1082              	.L58:
 1083              		.loc 1 441 0
 1084 025e 049A     		ldr	r2, [sp, #16]
 1085              	.L51:
 1086              	.LVL125:
 442:..\..\..\arduinoLCD\test\Pain Drain\libraries\lvgl\src\font/lv_font_loader.c ****         int bmp_size = next_offset - glyph_offset[i] - nbits / 8;
 1087              		.loc 1 442 0 is_stmt 1 discriminator 4
 1088 0260 2B68     		ldr	r3, [r5]
 1089 0262 D21A     		subs	r2, r2, r3
 1090              	.LVL126:
 1091 0264 E317     		asrs	r3, r4, #31
 1092 0266 0721     		movs	r1, #7
 1093 0268 0B40     		ands	r3, r1
 1094 026a 1B19     		adds	r3, r3, r4
 1095 026c DB10     		asrs	r3, r3, #3
 1096 026e D31A     		subs	r3, r2, r3
 1097 0270 0793     		str	r3, [sp, #28]
 1098 0272 9946     		mov	r9, r3
 1099              	.LVL127:
 443:..\..\..\arduinoLCD\test\Pain Drain\libraries\lvgl\src\font/lv_font_loader.c **** 
 444:..\..\..\arduinoLCD\test\Pain Drain\libraries\lvgl\src\font/lv_font_loader.c ****         if(nbits % 8 == 0) {  /*Fast path*/
 1100              		.loc 1 444 0 discriminator 4
 1101 0274 2142     		tst	r1, r4
 1102 0276 1CD1     		bne	.L59
 445:..\..\..\arduinoLCD\test\Pain Drain\libraries\lvgl\src\font/lv_font_loader.c ****             if(lv_fs_read(fp, &glyph_bmp[cur_bmp_size], bmp_size, NULL) != LV_FS_RES_OK) {
 1103              		.loc 1 445 0
 1104 0278 059B     		ldr	r3, [sp, #20]
 1105              	.LVL128:
 1106 027a 5344     		add	r3, r3, r10
 1107 027c 1900     		movs	r1, r3
 1108 027e 0023     		movs	r3, #0
 1109 0280 4A46     		mov	r2, r9
 1110 0282 0198     		ldr	r0, [sp, #4]
 1111 0284 FFF7FEFF 		bl	lv_fs_read
 1112              	.LVL129:
 1113 0288 0028     		cmp	r0, #0
 1114 028a 35D0     		beq	.L53
 1115 028c 38E0     		b	.L48
 1116              	.LVL130:
 1117              	.L54:
 1118              	.LBB21:
 446:..\..\..\arduinoLCD\test\Pain Drain\libraries\lvgl\src\font/lv_font_loader.c ****                 return -1;
 447:..\..\..\arduinoLCD\test\Pain Drain\libraries\lvgl\src\font/lv_font_loader.c ****             }
 448:..\..\..\arduinoLCD\test\Pain Drain\libraries\lvgl\src\font/lv_font_loader.c ****         }
 449:..\..\..\arduinoLCD\test\Pain Drain\libraries\lvgl\src\font/lv_font_loader.c ****         else {
 450:..\..\..\arduinoLCD\test\Pain Drain\libraries\lvgl\src\font/lv_font_loader.c ****             for(int k = 0; k < bmp_size - 1; ++k) {
 451:..\..\..\arduinoLCD\test\Pain Drain\libraries\lvgl\src\font/lv_font_loader.c ****                 glyph_bmp[cur_bmp_size + k] = read_bits(&bit_it, 8, &res);
ARM GAS  C:\Users\haske\AppData\Local\Temp\cc5ISl1k.s 			page 29


 1119              		.loc 1 451 0
 1120 028e 5346     		mov	r3, r10
 1121 0290 5E19     		adds	r6, r3, r5
 1122 0292 059B     		ldr	r3, [sp, #20]
 1123 0294 9C46     		mov	ip, r3
 1124 0296 6644     		add	r6, r6, ip
 1125 0298 08AB     		add	r3, sp, #32
 1126 029a DF1D     		adds	r7, r3, #7
 1127 029c 3A00     		movs	r2, r7
 1128 029e 0821     		movs	r1, #8
 1129 02a0 0AA8     		add	r0, sp, #40
 1130 02a2 FFF7FEFF 		bl	read_bits
 1131              	.LVL131:
 1132 02a6 3070     		strb	r0, [r6]
 452:..\..\..\arduinoLCD\test\Pain Drain\libraries\lvgl\src\font/lv_font_loader.c ****                 if(res != LV_FS_RES_OK) {
 1133              		.loc 1 452 0
 1134 02a8 3B78     		ldrb	r3, [r7]
 1135 02aa 002B     		cmp	r3, #0
 1136 02ac 28D1     		bne	.L48
 450:..\..\..\arduinoLCD\test\Pain Drain\libraries\lvgl\src\font/lv_font_loader.c ****                 glyph_bmp[cur_bmp_size + k] = read_bits(&bit_it, 8, &res);
 1137              		.loc 1 450 0 discriminator 2
 1138 02ae 0135     		adds	r5, r5, #1
 1139              	.LVL132:
 1140 02b0 02E0     		b	.L52
 1141              	.LVL133:
 1142              	.L59:
 1143              	.LBE21:
 1144 02b2 0025     		movs	r5, #0
 1145 02b4 A146     		mov	r9, r4
 1146 02b6 1C00     		movs	r4, r3
 1147              	.LVL134:
 1148              	.L52:
 1149              	.LBB22:
 450:..\..\..\arduinoLCD\test\Pain Drain\libraries\lvgl\src\font/lv_font_loader.c ****                 glyph_bmp[cur_bmp_size + k] = read_bits(&bit_it, 8, &res);
 1150              		.loc 1 450 0 is_stmt 0 discriminator 1
 1151 02b8 631E     		subs	r3, r4, #1
 1152 02ba 9D42     		cmp	r5, r3
 1153 02bc E7DB     		blt	.L54
 1154 02be 4C46     		mov	r4, r9
 1155              	.LVL135:
 1156              	.LBE22:
 453:..\..\..\arduinoLCD\test\Pain Drain\libraries\lvgl\src\font/lv_font_loader.c ****                     return -1;
 454:..\..\..\arduinoLCD\test\Pain Drain\libraries\lvgl\src\font/lv_font_loader.c ****                 }
 455:..\..\..\arduinoLCD\test\Pain Drain\libraries\lvgl\src\font/lv_font_loader.c ****             }
 456:..\..\..\arduinoLCD\test\Pain Drain\libraries\lvgl\src\font/lv_font_loader.c ****             glyph_bmp[cur_bmp_size + bmp_size - 1] = read_bits(&bit_it, 8 - nbits % 8, &res);
 1157              		.loc 1 456 0 is_stmt 1
 1158 02c0 079B     		ldr	r3, [sp, #28]
 1159 02c2 5344     		add	r3, r3, r10
 1160 02c4 1D00     		movs	r5, r3
 1161              	.LVL136:
 1162 02c6 013D     		subs	r5, r5, #1
 1163 02c8 059B     		ldr	r3, [sp, #20]
 1164 02ca 9C46     		mov	ip, r3
 1165 02cc 6544     		add	r5, r5, ip
 1166 02ce E317     		asrs	r3, r4, #31
 1167 02d0 5B0F     		lsrs	r3, r3, #29
 1168 02d2 E418     		adds	r4, r4, r3
ARM GAS  C:\Users\haske\AppData\Local\Temp\cc5ISl1k.s 			page 30


 1169 02d4 0722     		movs	r2, #7
 1170 02d6 1440     		ands	r4, r2
 1171 02d8 E41A     		subs	r4, r4, r3
 1172 02da 08AB     		add	r3, sp, #32
 1173 02dc DE1D     		adds	r6, r3, #7
 1174 02de 0821     		movs	r1, #8
 1175 02e0 091B     		subs	r1, r1, r4
 1176 02e2 3200     		movs	r2, r6
 1177 02e4 0AA8     		add	r0, sp, #40
 1178 02e6 FFF7FEFF 		bl	read_bits
 1179              	.LVL137:
 1180 02ea C0B2     		uxtb	r0, r0
 1181 02ec 2870     		strb	r0, [r5]
 457:..\..\..\arduinoLCD\test\Pain Drain\libraries\lvgl\src\font/lv_font_loader.c ****             if(res != LV_FS_RES_OK) {
 1182              		.loc 1 457 0
 1183 02ee 3378     		ldrb	r3, [r6]
 1184 02f0 002B     		cmp	r3, #0
 1185 02f2 05D1     		bne	.L48
 458:..\..\..\arduinoLCD\test\Pain Drain\libraries\lvgl\src\font/lv_font_loader.c ****                 return -1;
 459:..\..\..\arduinoLCD\test\Pain Drain\libraries\lvgl\src\font/lv_font_loader.c ****             }
 460:..\..\..\arduinoLCD\test\Pain Drain\libraries\lvgl\src\font/lv_font_loader.c **** 
 461:..\..\..\arduinoLCD\test\Pain Drain\libraries\lvgl\src\font/lv_font_loader.c ****             /*The last fragment should be on the MSB but read_bits() will place it to the LSB*/
 462:..\..\..\arduinoLCD\test\Pain Drain\libraries\lvgl\src\font/lv_font_loader.c ****             glyph_bmp[cur_bmp_size + bmp_size - 1] = glyph_bmp[cur_bmp_size + bmp_size - 1] << (nbi
 1186              		.loc 1 462 0
 1187 02f4 A040     		lsls	r0, r0, r4
 1188 02f6 2870     		strb	r0, [r5]
 1189              	.LVL138:
 1190              	.L53:
 463:..\..\..\arduinoLCD\test\Pain Drain\libraries\lvgl\src\font/lv_font_loader.c **** 
 464:..\..\..\arduinoLCD\test\Pain Drain\libraries\lvgl\src\font/lv_font_loader.c ****         }
 465:..\..\..\arduinoLCD\test\Pain Drain\libraries\lvgl\src\font/lv_font_loader.c **** 
 466:..\..\..\arduinoLCD\test\Pain Drain\libraries\lvgl\src\font/lv_font_loader.c ****         cur_bmp_size += bmp_size;
 1191              		.loc 1 466 0 discriminator 1
 1192 02f8 079B     		ldr	r3, [sp, #28]
 1193 02fa 9C46     		mov	ip, r3
 1194 02fc E244     		add	r10, r10, ip
 1195              	.LVL139:
 1196 02fe 02E0     		b	.L50
 1197              	.LVL140:
 1198              	.L48:
 426:..\..\..\arduinoLCD\test\Pain Drain\libraries\lvgl\src\font/lv_font_loader.c ****         }
 1199              		.loc 1 426 0 discriminator 1
 1200 0300 0120     		movs	r0, #1
 1201 0302 4042     		rsbs	r0, r0, #0
 1202 0304 0AE0     		b	.L37
 1203              	.L50:
 1204              	.LBE20:
 423:..\..\..\arduinoLCD\test\Pain Drain\libraries\lvgl\src\font/lv_font_loader.c ****         lv_fs_res_t res = lv_fs_seek(fp, start + glyph_offset[i], LV_FS_SEEK_SET);
 1205              		.loc 1 423 0 discriminator 2
 1206 0306 0123     		movs	r3, #1
 1207 0308 9C46     		mov	ip, r3
 1208 030a E044     		add	r8, r8, ip
 1209              	.LVL141:
 1210              	.L47:
 423:..\..\..\arduinoLCD\test\Pain Drain\libraries\lvgl\src\font/lv_font_loader.c ****         lv_fs_res_t res = lv_fs_seek(fp, start + glyph_offset[i], LV_FS_SEEK_SET);
 1211              		.loc 1 423 0 is_stmt 0 discriminator 1
 1212 030c 169B     		ldr	r3, [sp, #88]
ARM GAS  C:\Users\haske\AppData\Local\Temp\cc5ISl1k.s 			page 31


 1213 030e 9845     		cmp	r8, r3
 1214 0310 00D2     		bcs	.LCB1292
 1215 0312 67E7     		b	.L55	@long jump
 1216              	.LCB1292:
 1217              	.LBE23:
 467:..\..\..\arduinoLCD\test\Pain Drain\libraries\lvgl\src\font/lv_font_loader.c ****     }
 468:..\..\..\arduinoLCD\test\Pain Drain\libraries\lvgl\src\font/lv_font_loader.c ****     return glyph_length;
 1218              		.loc 1 468 0 is_stmt 1
 1219 0314 0498     		ldr	r0, [sp, #16]
 1220              	.LBB24:
 1221 0316 01E0     		b	.L37
 1222              	.LVL142:
 1223              	.L56:
 1224              	.LBE24:
 343:..\..\..\arduinoLCD\test\Pain Drain\libraries\lvgl\src\font/lv_font_loader.c ****     }
 1225              		.loc 1 343 0
 1226 0318 0120     		movs	r0, #1
 1227              	.LVL143:
 1228 031a 4042     		rsbs	r0, r0, #0
 1229              	.LVL144:
 1230              	.L37:
 469:..\..\..\arduinoLCD\test\Pain Drain\libraries\lvgl\src\font/lv_font_loader.c **** }
 1231              		.loc 1 469 0
 1232 031c 0DB0     		add	sp, sp, #52
 1233              		@ sp needed
 1234 031e 3CBC     		pop	{r2, r3, r4, r5}
 1235 0320 9046     		mov	r8, r2
 1236 0322 9946     		mov	r9, r3
 1237 0324 A246     		mov	r10, r4
 1238 0326 AB46     		mov	fp, r5
 1239 0328 F0BD     		pop	{r4, r5, r6, r7, pc}
 1240              	.L61:
 1241 032a C046     		.align	2
 1242              	.L60:
 1243 032c 08000000 		.word	.LC2
 1244              		.cfi_endproc
 1245              	.LFE210:
 1246              		.size	load_glyph, .-load_glyph
 1247              		.section	.text.lv_font_free,"ax",%progbits
 1248              		.align	2
 1249              		.global	lv_font_free
 1250              		.code	16
 1251              		.thumb_func
 1252              		.type	lv_font_free, %function
 1253              	lv_font_free:
 1254              	.LFB203:
 118:..\..\..\arduinoLCD\test\Pain Drain\libraries\lvgl\src\font/lv_font_loader.c ****     if(NULL != font) {
 1255              		.loc 1 118 0
 1256              		.cfi_startproc
 1257              		@ args = 0, pretend = 0, frame = 0
 1258              		@ frame_needed = 0, uses_anonymous_args = 0
 1259              	.LVL145:
 1260 0000 F0B5     		push	{r4, r5, r6, r7, lr}
 1261              		.cfi_def_cfa_offset 20
 1262              		.cfi_offset 4, -20
 1263              		.cfi_offset 5, -16
 1264              		.cfi_offset 6, -12
ARM GAS  C:\Users\haske\AppData\Local\Temp\cc5ISl1k.s 			page 32


 1265              		.cfi_offset 7, -8
 1266              		.cfi_offset 14, -4
 1267 0002 4746     		mov	r7, r8
 1268 0004 80B4     		push	{r7}
 1269              		.cfi_def_cfa_offset 24
 1270              		.cfi_offset 8, -24
 1271 0006 8046     		mov	r8, r0
 119:..\..\..\arduinoLCD\test\Pain Drain\libraries\lvgl\src\font/lv_font_loader.c ****         lv_font_fmt_txt_dsc_t * dsc = (lv_font_fmt_txt_dsc_t *)font->dsc;
 1272              		.loc 1 119 0
 1273 0008 0028     		cmp	r0, #0
 1274 000a 58D0     		beq	.L62
 1275              	.LBB25:
 120:..\..\..\arduinoLCD\test\Pain Drain\libraries\lvgl\src\font/lv_font_loader.c **** 
 1276              		.loc 1 120 0
 1277 000c 0669     		ldr	r6, [r0, #16]
 1278              	.LVL146:
 122:..\..\..\arduinoLCD\test\Pain Drain\libraries\lvgl\src\font/lv_font_loader.c **** 
 1279              		.loc 1 122 0
 1280 000e 002E     		cmp	r6, #0
 1281 0010 52D0     		beq	.L64
 1282              	.LBB26:
 124:..\..\..\arduinoLCD\test\Pain Drain\libraries\lvgl\src\font/lv_font_loader.c ****                 lv_font_fmt_txt_kern_pair_t * kern_dsc =
 1283              		.loc 1 124 0
 1284 0012 F37C     		ldrb	r3, [r6, #19]
 1285 0014 9B06     		lsls	r3, r3, #26
 1286 0016 10D4     		bmi	.L65
 1287              	.LBB27:
 125:..\..\..\arduinoLCD\test\Pain Drain\libraries\lvgl\src\font/lv_font_loader.c ****                     (lv_font_fmt_txt_kern_pair_t *)dsc->kern_dsc;
 1288              		.loc 1 125 0
 1289 0018 F468     		ldr	r4, [r6, #12]
 1290              	.LVL147:
 128:..\..\..\arduinoLCD\test\Pain Drain\libraries\lvgl\src\font/lv_font_loader.c ****                     if(kern_dsc->glyph_ids)
 1291              		.loc 1 128 0
 1292 001a 002C     		cmp	r4, #0
 1293 001c 22D0     		beq	.L66
 129:..\..\..\arduinoLCD\test\Pain Drain\libraries\lvgl\src\font/lv_font_loader.c ****                         lv_mem_free((void *)kern_dsc->glyph_ids);
 1294              		.loc 1 129 0
 1295 001e 2068     		ldr	r0, [r4]
 1296              	.LVL148:
 1297 0020 0028     		cmp	r0, #0
 1298 0022 01D0     		beq	.L67
 130:..\..\..\arduinoLCD\test\Pain Drain\libraries\lvgl\src\font/lv_font_loader.c **** 
 1299              		.loc 1 130 0
 1300 0024 FFF7FEFF 		bl	lv_mem_free
 1301              	.LVL149:
 1302              	.L67:
 132:..\..\..\arduinoLCD\test\Pain Drain\libraries\lvgl\src\font/lv_font_loader.c ****                         lv_mem_free((void *)kern_dsc->values);
 1303              		.loc 1 132 0
 1304 0028 6068     		ldr	r0, [r4, #4]
 1305 002a 0028     		cmp	r0, #0
 1306 002c 01D0     		beq	.L68
 133:..\..\..\arduinoLCD\test\Pain Drain\libraries\lvgl\src\font/lv_font_loader.c **** 
 1307              		.loc 1 133 0
 1308 002e FFF7FEFF 		bl	lv_mem_free
 1309              	.LVL150:
 1310              	.L68:
 135:..\..\..\arduinoLCD\test\Pain Drain\libraries\lvgl\src\font/lv_font_loader.c ****                 }
ARM GAS  C:\Users\haske\AppData\Local\Temp\cc5ISl1k.s 			page 33


 1311              		.loc 1 135 0
 1312 0032 2000     		movs	r0, r4
 1313 0034 FFF7FEFF 		bl	lv_mem_free
 1314              	.LVL151:
 1315 0038 14E0     		b	.L66
 1316              	.LVL152:
 1317              	.L65:
 1318              	.LBE27:
 1319              	.LBB28:
 139:..\..\..\arduinoLCD\test\Pain Drain\libraries\lvgl\src\font/lv_font_loader.c ****                     (lv_font_fmt_txt_kern_classes_t *)dsc->kern_dsc;
 1320              		.loc 1 139 0
 1321 003a F468     		ldr	r4, [r6, #12]
 1322              	.LVL153:
 142:..\..\..\arduinoLCD\test\Pain Drain\libraries\lvgl\src\font/lv_font_loader.c ****                     if(kern_dsc->class_pair_values)
 1323              		.loc 1 142 0
 1324 003c 002C     		cmp	r4, #0
 1325 003e 11D0     		beq	.L66
 143:..\..\..\arduinoLCD\test\Pain Drain\libraries\lvgl\src\font/lv_font_loader.c ****                         lv_mem_free((void *)kern_dsc->class_pair_values);
 1326              		.loc 1 143 0
 1327 0040 2068     		ldr	r0, [r4]
 1328              	.LVL154:
 1329 0042 0028     		cmp	r0, #0
 1330 0044 01D0     		beq	.L69
 144:..\..\..\arduinoLCD\test\Pain Drain\libraries\lvgl\src\font/lv_font_loader.c **** 
 1331              		.loc 1 144 0
 1332 0046 FFF7FEFF 		bl	lv_mem_free
 1333              	.LVL155:
 1334              	.L69:
 146:..\..\..\arduinoLCD\test\Pain Drain\libraries\lvgl\src\font/lv_font_loader.c ****                         lv_mem_free((void *)kern_dsc->left_class_mapping);
 1335              		.loc 1 146 0
 1336 004a 6068     		ldr	r0, [r4, #4]
 1337 004c 0028     		cmp	r0, #0
 1338 004e 01D0     		beq	.L70
 147:..\..\..\arduinoLCD\test\Pain Drain\libraries\lvgl\src\font/lv_font_loader.c **** 
 1339              		.loc 1 147 0
 1340 0050 FFF7FEFF 		bl	lv_mem_free
 1341              	.LVL156:
 1342              	.L70:
 149:..\..\..\arduinoLCD\test\Pain Drain\libraries\lvgl\src\font/lv_font_loader.c ****                         lv_mem_free((void *)kern_dsc->right_class_mapping);
 1343              		.loc 1 149 0
 1344 0054 A068     		ldr	r0, [r4, #8]
 1345 0056 0028     		cmp	r0, #0
 1346 0058 01D0     		beq	.L71
 150:..\..\..\arduinoLCD\test\Pain Drain\libraries\lvgl\src\font/lv_font_loader.c **** 
 1347              		.loc 1 150 0
 1348 005a FFF7FEFF 		bl	lv_mem_free
 1349              	.LVL157:
 1350              	.L71:
 152:..\..\..\arduinoLCD\test\Pain Drain\libraries\lvgl\src\font/lv_font_loader.c ****                 }
 1351              		.loc 1 152 0
 1352 005e 2000     		movs	r0, r4
 1353 0060 FFF7FEFF 		bl	lv_mem_free
 1354              	.LVL158:
 1355              	.L66:
 1356              	.LBE28:
 156:..\..\..\arduinoLCD\test\Pain Drain\libraries\lvgl\src\font/lv_font_loader.c ****                 (lv_font_fmt_txt_cmap_t *)dsc->cmaps;
 1357              		.loc 1 156 0
ARM GAS  C:\Users\haske\AppData\Local\Temp\cc5ISl1k.s 			page 34


 1358 0064 B768     		ldr	r7, [r6, #8]
 1359              	.LVL159:
 159:..\..\..\arduinoLCD\test\Pain Drain\libraries\lvgl\src\font/lv_font_loader.c ****                 for(int i = 0; i < dsc->cmap_num; ++i) {
 1360              		.loc 1 159 0
 1361 0066 002F     		cmp	r7, #0
 1362 0068 10D1     		bne	.L79
 1363 006a 18E0     		b	.L73
 1364              	.LVL160:
 1365              	.L76:
 1366              	.LBB29:
 161:..\..\..\arduinoLCD\test\Pain Drain\libraries\lvgl\src\font/lv_font_loader.c ****                         lv_mem_free((void *)cmaps[i].glyph_id_ofs_list);
 1367              		.loc 1 161 0
 1368 006c AB00     		lsls	r3, r5, #2
 1369 006e 5B19     		adds	r3, r3, r5
 1370 0070 9C00     		lsls	r4, r3, #2
 1371 0072 3C19     		adds	r4, r7, r4
 1372 0074 E068     		ldr	r0, [r4, #12]
 1373 0076 0028     		cmp	r0, #0
 1374 0078 01D0     		beq	.L74
 162:..\..\..\arduinoLCD\test\Pain Drain\libraries\lvgl\src\font/lv_font_loader.c ****                     if(NULL != cmaps[i].unicode_list)
 1375              		.loc 1 162 0
 1376 007a FFF7FEFF 		bl	lv_mem_free
 1377              	.LVL161:
 1378              	.L74:
 163:..\..\..\arduinoLCD\test\Pain Drain\libraries\lvgl\src\font/lv_font_loader.c ****                         lv_mem_free((void *)cmaps[i].unicode_list);
 1379              		.loc 1 163 0
 1380 007e A068     		ldr	r0, [r4, #8]
 1381 0080 0028     		cmp	r0, #0
 1382 0082 01D0     		beq	.L75
 164:..\..\..\arduinoLCD\test\Pain Drain\libraries\lvgl\src\font/lv_font_loader.c ****                 }
 1383              		.loc 1 164 0
 1384 0084 FFF7FEFF 		bl	lv_mem_free
 1385              	.LVL162:
 1386              	.L75:
 160:..\..\..\arduinoLCD\test\Pain Drain\libraries\lvgl\src\font/lv_font_loader.c ****                     if(NULL != cmaps[i].glyph_id_ofs_list)
 1387              		.loc 1 160 0 discriminator 2
 1388 0088 0135     		adds	r5, r5, #1
 1389              	.LVL163:
 1390 008a 00E0     		b	.L72
 1391              	.LVL164:
 1392              	.L79:
 1393              	.LBE29:
 1394 008c 0025     		movs	r5, #0
 1395              	.L72:
 1396              	.LVL165:
 1397              	.LBB30:
 160:..\..\..\arduinoLCD\test\Pain Drain\libraries\lvgl\src\font/lv_font_loader.c ****                     if(NULL != cmaps[i].glyph_id_ofs_list)
 1398              		.loc 1 160 0 is_stmt 0 discriminator 1
 1399 008e 738A     		ldrh	r3, [r6, #18]
 1400 0090 DB05     		lsls	r3, r3, #23
 1401 0092 DB0D     		lsrs	r3, r3, #23
 1402 0094 9D42     		cmp	r5, r3
 1403 0096 E9DB     		blt	.L76
 1404              	.LBE30:
 166:..\..\..\arduinoLCD\test\Pain Drain\libraries\lvgl\src\font/lv_font_loader.c ****             }
 1405              		.loc 1 166 0 is_stmt 1
 1406 0098 3800     		movs	r0, r7
ARM GAS  C:\Users\haske\AppData\Local\Temp\cc5ISl1k.s 			page 35


 1407 009a FFF7FEFF 		bl	lv_mem_free
 1408              	.LVL166:
 1409              	.L73:
 169:..\..\..\arduinoLCD\test\Pain Drain\libraries\lvgl\src\font/lv_font_loader.c ****                 lv_mem_free((void *)dsc->glyph_bitmap);
 1410              		.loc 1 169 0
 1411 009e 3068     		ldr	r0, [r6]
 1412 00a0 0028     		cmp	r0, #0
 1413 00a2 01D0     		beq	.L77
 170:..\..\..\arduinoLCD\test\Pain Drain\libraries\lvgl\src\font/lv_font_loader.c ****             }
 1414              		.loc 1 170 0
 1415 00a4 FFF7FEFF 		bl	lv_mem_free
 1416              	.LVL167:
 1417              	.L77:
 172:..\..\..\arduinoLCD\test\Pain Drain\libraries\lvgl\src\font/lv_font_loader.c ****                 lv_mem_free((void *)dsc->glyph_dsc);
 1418              		.loc 1 172 0
 1419 00a8 7068     		ldr	r0, [r6, #4]
 1420 00aa 0028     		cmp	r0, #0
 1421 00ac 01D0     		beq	.L78
 173:..\..\..\arduinoLCD\test\Pain Drain\libraries\lvgl\src\font/lv_font_loader.c ****             }
 1422              		.loc 1 173 0
 1423 00ae FFF7FEFF 		bl	lv_mem_free
 1424              	.LVL168:
 1425              	.L78:
 175:..\..\..\arduinoLCD\test\Pain Drain\libraries\lvgl\src\font/lv_font_loader.c ****         }
 1426              		.loc 1 175 0
 1427 00b2 3000     		movs	r0, r6
 1428 00b4 FFF7FEFF 		bl	lv_mem_free
 1429              	.LVL169:
 1430              	.L64:
 1431              	.LBE26:
 177:..\..\..\arduinoLCD\test\Pain Drain\libraries\lvgl\src\font/lv_font_loader.c ****     }
 1432              		.loc 1 177 0
 1433 00b8 4046     		mov	r0, r8
 1434 00ba FFF7FEFF 		bl	lv_mem_free
 1435              	.LVL170:
 1436              	.L62:
 1437              	.LBE25:
 179:..\..\..\arduinoLCD\test\Pain Drain\libraries\lvgl\src\font/lv_font_loader.c **** 
 1438              		.loc 1 179 0
 1439              		@ sp needed
 1440              	.LVL171:
 1441 00be 04BC     		pop	{r2}
 1442 00c0 9046     		mov	r8, r2
 1443 00c2 F0BD     		pop	{r4, r5, r6, r7, pc}
 1444              		.cfi_endproc
 1445              	.LFE203:
 1446              		.size	lv_font_free, .-lv_font_free
 1447              		.section	.text.load_kern,"ax",%progbits
 1448              		.align	2
 1449              		.global	load_kern
 1450              		.code	16
 1451              		.thumb_func
 1452              		.type	load_kern, %function
 1453              	load_kern:
 1454              	.LFB212:
 470:..\..\..\arduinoLCD\test\Pain Drain\libraries\lvgl\src\font/lv_font_loader.c **** 
 471:..\..\..\arduinoLCD\test\Pain Drain\libraries\lvgl\src\font/lv_font_loader.c **** /*
ARM GAS  C:\Users\haske\AppData\Local\Temp\cc5ISl1k.s 			page 36


 472:..\..\..\arduinoLCD\test\Pain Drain\libraries\lvgl\src\font/lv_font_loader.c ****  * Loads a `lv_font_t` from a binary file, given a `lv_fs_file_t`.
 473:..\..\..\arduinoLCD\test\Pain Drain\libraries\lvgl\src\font/lv_font_loader.c ****  *
 474:..\..\..\arduinoLCD\test\Pain Drain\libraries\lvgl\src\font/lv_font_loader.c ****  * Memory allocations on `lvgl_load_font` should be immediately zeroed and
 475:..\..\..\arduinoLCD\test\Pain Drain\libraries\lvgl\src\font/lv_font_loader.c ****  * the pointer should be set on the `lv_font_t` data before any possible return.
 476:..\..\..\arduinoLCD\test\Pain Drain\libraries\lvgl\src\font/lv_font_loader.c ****  *
 477:..\..\..\arduinoLCD\test\Pain Drain\libraries\lvgl\src\font/lv_font_loader.c ****  * When something fails, it returns `false` and the memory on the `lv_font_t`
 478:..\..\..\arduinoLCD\test\Pain Drain\libraries\lvgl\src\font/lv_font_loader.c ****  * still needs to be freed using `lv_font_free`.
 479:..\..\..\arduinoLCD\test\Pain Drain\libraries\lvgl\src\font/lv_font_loader.c ****  *
 480:..\..\..\arduinoLCD\test\Pain Drain\libraries\lvgl\src\font/lv_font_loader.c ****  * `lv_font_free` will assume that all non-null pointers are allocated and
 481:..\..\..\arduinoLCD\test\Pain Drain\libraries\lvgl\src\font/lv_font_loader.c ****  * should be freed.
 482:..\..\..\arduinoLCD\test\Pain Drain\libraries\lvgl\src\font/lv_font_loader.c ****  */
 483:..\..\..\arduinoLCD\test\Pain Drain\libraries\lvgl\src\font/lv_font_loader.c **** static bool lvgl_load_font(lv_fs_file_t * fp, lv_font_t * font)
 484:..\..\..\arduinoLCD\test\Pain Drain\libraries\lvgl\src\font/lv_font_loader.c **** {
 485:..\..\..\arduinoLCD\test\Pain Drain\libraries\lvgl\src\font/lv_font_loader.c ****     lv_font_fmt_txt_dsc_t * font_dsc = (lv_font_fmt_txt_dsc_t *)
 486:..\..\..\arduinoLCD\test\Pain Drain\libraries\lvgl\src\font/lv_font_loader.c ****                                        lv_mem_alloc(sizeof(lv_font_fmt_txt_dsc_t));
 487:..\..\..\arduinoLCD\test\Pain Drain\libraries\lvgl\src\font/lv_font_loader.c **** 
 488:..\..\..\arduinoLCD\test\Pain Drain\libraries\lvgl\src\font/lv_font_loader.c ****     memset(font_dsc, 0, sizeof(lv_font_fmt_txt_dsc_t));
 489:..\..\..\arduinoLCD\test\Pain Drain\libraries\lvgl\src\font/lv_font_loader.c **** 
 490:..\..\..\arduinoLCD\test\Pain Drain\libraries\lvgl\src\font/lv_font_loader.c ****     font->dsc = font_dsc;
 491:..\..\..\arduinoLCD\test\Pain Drain\libraries\lvgl\src\font/lv_font_loader.c **** 
 492:..\..\..\arduinoLCD\test\Pain Drain\libraries\lvgl\src\font/lv_font_loader.c ****     /*header*/
 493:..\..\..\arduinoLCD\test\Pain Drain\libraries\lvgl\src\font/lv_font_loader.c ****     int32_t header_length = read_label(fp, 0, "head");
 494:..\..\..\arduinoLCD\test\Pain Drain\libraries\lvgl\src\font/lv_font_loader.c ****     if(header_length < 0) {
 495:..\..\..\arduinoLCD\test\Pain Drain\libraries\lvgl\src\font/lv_font_loader.c ****         return false;
 496:..\..\..\arduinoLCD\test\Pain Drain\libraries\lvgl\src\font/lv_font_loader.c ****     }
 497:..\..\..\arduinoLCD\test\Pain Drain\libraries\lvgl\src\font/lv_font_loader.c **** 
 498:..\..\..\arduinoLCD\test\Pain Drain\libraries\lvgl\src\font/lv_font_loader.c ****     font_header_bin_t font_header;
 499:..\..\..\arduinoLCD\test\Pain Drain\libraries\lvgl\src\font/lv_font_loader.c ****     if(lv_fs_read(fp, &font_header, sizeof(font_header_bin_t), NULL) != LV_FS_RES_OK) {
 500:..\..\..\arduinoLCD\test\Pain Drain\libraries\lvgl\src\font/lv_font_loader.c ****         return false;
 501:..\..\..\arduinoLCD\test\Pain Drain\libraries\lvgl\src\font/lv_font_loader.c ****     }
 502:..\..\..\arduinoLCD\test\Pain Drain\libraries\lvgl\src\font/lv_font_loader.c **** 
 503:..\..\..\arduinoLCD\test\Pain Drain\libraries\lvgl\src\font/lv_font_loader.c ****     font->base_line = -font_header.descent;
 504:..\..\..\arduinoLCD\test\Pain Drain\libraries\lvgl\src\font/lv_font_loader.c ****     font->line_height = font_header.ascent - font_header.descent;
 505:..\..\..\arduinoLCD\test\Pain Drain\libraries\lvgl\src\font/lv_font_loader.c ****     font->get_glyph_dsc = lv_font_get_glyph_dsc_fmt_txt;
 506:..\..\..\arduinoLCD\test\Pain Drain\libraries\lvgl\src\font/lv_font_loader.c ****     font->get_glyph_bitmap = lv_font_get_bitmap_fmt_txt;
 507:..\..\..\arduinoLCD\test\Pain Drain\libraries\lvgl\src\font/lv_font_loader.c ****     font->subpx = font_header.subpixels_mode;
 508:..\..\..\arduinoLCD\test\Pain Drain\libraries\lvgl\src\font/lv_font_loader.c ****     font->underline_position = font_header.underline_position;
 509:..\..\..\arduinoLCD\test\Pain Drain\libraries\lvgl\src\font/lv_font_loader.c ****     font->underline_thickness = font_header.underline_thickness;
 510:..\..\..\arduinoLCD\test\Pain Drain\libraries\lvgl\src\font/lv_font_loader.c **** 
 511:..\..\..\arduinoLCD\test\Pain Drain\libraries\lvgl\src\font/lv_font_loader.c ****     font_dsc->bpp = font_header.bits_per_pixel;
 512:..\..\..\arduinoLCD\test\Pain Drain\libraries\lvgl\src\font/lv_font_loader.c ****     font_dsc->kern_scale = font_header.kerning_scale;
 513:..\..\..\arduinoLCD\test\Pain Drain\libraries\lvgl\src\font/lv_font_loader.c ****     font_dsc->bitmap_format = font_header.compression_id;
 514:..\..\..\arduinoLCD\test\Pain Drain\libraries\lvgl\src\font/lv_font_loader.c **** 
 515:..\..\..\arduinoLCD\test\Pain Drain\libraries\lvgl\src\font/lv_font_loader.c ****     /*cmaps*/
 516:..\..\..\arduinoLCD\test\Pain Drain\libraries\lvgl\src\font/lv_font_loader.c ****     uint32_t cmaps_start = header_length;
 517:..\..\..\arduinoLCD\test\Pain Drain\libraries\lvgl\src\font/lv_font_loader.c ****     int32_t cmaps_length = load_cmaps(fp, font_dsc, cmaps_start);
 518:..\..\..\arduinoLCD\test\Pain Drain\libraries\lvgl\src\font/lv_font_loader.c ****     if(cmaps_length < 0) {
 519:..\..\..\arduinoLCD\test\Pain Drain\libraries\lvgl\src\font/lv_font_loader.c ****         return false;
 520:..\..\..\arduinoLCD\test\Pain Drain\libraries\lvgl\src\font/lv_font_loader.c ****     }
 521:..\..\..\arduinoLCD\test\Pain Drain\libraries\lvgl\src\font/lv_font_loader.c **** 
 522:..\..\..\arduinoLCD\test\Pain Drain\libraries\lvgl\src\font/lv_font_loader.c ****     /*loca*/
 523:..\..\..\arduinoLCD\test\Pain Drain\libraries\lvgl\src\font/lv_font_loader.c ****     uint32_t loca_start = cmaps_start + cmaps_length;
 524:..\..\..\arduinoLCD\test\Pain Drain\libraries\lvgl\src\font/lv_font_loader.c ****     int32_t loca_length = read_label(fp, loca_start, "loca");
 525:..\..\..\arduinoLCD\test\Pain Drain\libraries\lvgl\src\font/lv_font_loader.c ****     if(loca_length < 0) {
 526:..\..\..\arduinoLCD\test\Pain Drain\libraries\lvgl\src\font/lv_font_loader.c ****         return false;
 527:..\..\..\arduinoLCD\test\Pain Drain\libraries\lvgl\src\font/lv_font_loader.c ****     }
 528:..\..\..\arduinoLCD\test\Pain Drain\libraries\lvgl\src\font/lv_font_loader.c **** 
ARM GAS  C:\Users\haske\AppData\Local\Temp\cc5ISl1k.s 			page 37


 529:..\..\..\arduinoLCD\test\Pain Drain\libraries\lvgl\src\font/lv_font_loader.c ****     uint32_t loca_count;
 530:..\..\..\arduinoLCD\test\Pain Drain\libraries\lvgl\src\font/lv_font_loader.c ****     if(lv_fs_read(fp, &loca_count, sizeof(uint32_t), NULL) != LV_FS_RES_OK) {
 531:..\..\..\arduinoLCD\test\Pain Drain\libraries\lvgl\src\font/lv_font_loader.c ****         return false;
 532:..\..\..\arduinoLCD\test\Pain Drain\libraries\lvgl\src\font/lv_font_loader.c ****     }
 533:..\..\..\arduinoLCD\test\Pain Drain\libraries\lvgl\src\font/lv_font_loader.c **** 
 534:..\..\..\arduinoLCD\test\Pain Drain\libraries\lvgl\src\font/lv_font_loader.c ****     bool failed = false;
 535:..\..\..\arduinoLCD\test\Pain Drain\libraries\lvgl\src\font/lv_font_loader.c ****     uint32_t * glyph_offset = lv_mem_alloc(sizeof(uint32_t) * (loca_count + 1));
 536:..\..\..\arduinoLCD\test\Pain Drain\libraries\lvgl\src\font/lv_font_loader.c **** 
 537:..\..\..\arduinoLCD\test\Pain Drain\libraries\lvgl\src\font/lv_font_loader.c ****     if(font_header.index_to_loc_format == 0) {
 538:..\..\..\arduinoLCD\test\Pain Drain\libraries\lvgl\src\font/lv_font_loader.c ****         for(unsigned int i = 0; i < loca_count; ++i) {
 539:..\..\..\arduinoLCD\test\Pain Drain\libraries\lvgl\src\font/lv_font_loader.c ****             uint16_t offset;
 540:..\..\..\arduinoLCD\test\Pain Drain\libraries\lvgl\src\font/lv_font_loader.c ****             if(lv_fs_read(fp, &offset, sizeof(uint16_t), NULL) != LV_FS_RES_OK) {
 541:..\..\..\arduinoLCD\test\Pain Drain\libraries\lvgl\src\font/lv_font_loader.c ****                 failed = true;
 542:..\..\..\arduinoLCD\test\Pain Drain\libraries\lvgl\src\font/lv_font_loader.c ****                 break;
 543:..\..\..\arduinoLCD\test\Pain Drain\libraries\lvgl\src\font/lv_font_loader.c ****             }
 544:..\..\..\arduinoLCD\test\Pain Drain\libraries\lvgl\src\font/lv_font_loader.c ****             glyph_offset[i] = offset;
 545:..\..\..\arduinoLCD\test\Pain Drain\libraries\lvgl\src\font/lv_font_loader.c ****         }
 546:..\..\..\arduinoLCD\test\Pain Drain\libraries\lvgl\src\font/lv_font_loader.c ****     }
 547:..\..\..\arduinoLCD\test\Pain Drain\libraries\lvgl\src\font/lv_font_loader.c ****     else if(font_header.index_to_loc_format == 1) {
 548:..\..\..\arduinoLCD\test\Pain Drain\libraries\lvgl\src\font/lv_font_loader.c ****         if(lv_fs_read(fp, glyph_offset, loca_count * sizeof(uint32_t), NULL) != LV_FS_RES_OK) {
 549:..\..\..\arduinoLCD\test\Pain Drain\libraries\lvgl\src\font/lv_font_loader.c ****             failed = true;
 550:..\..\..\arduinoLCD\test\Pain Drain\libraries\lvgl\src\font/lv_font_loader.c ****         }
 551:..\..\..\arduinoLCD\test\Pain Drain\libraries\lvgl\src\font/lv_font_loader.c ****     }
 552:..\..\..\arduinoLCD\test\Pain Drain\libraries\lvgl\src\font/lv_font_loader.c ****     else {
 553:..\..\..\arduinoLCD\test\Pain Drain\libraries\lvgl\src\font/lv_font_loader.c ****         LV_LOG_WARN("Unknown index_to_loc_format: %d.", font_header.index_to_loc_format);
 554:..\..\..\arduinoLCD\test\Pain Drain\libraries\lvgl\src\font/lv_font_loader.c ****         failed = true;
 555:..\..\..\arduinoLCD\test\Pain Drain\libraries\lvgl\src\font/lv_font_loader.c ****     }
 556:..\..\..\arduinoLCD\test\Pain Drain\libraries\lvgl\src\font/lv_font_loader.c **** 
 557:..\..\..\arduinoLCD\test\Pain Drain\libraries\lvgl\src\font/lv_font_loader.c ****     if(failed) {
 558:..\..\..\arduinoLCD\test\Pain Drain\libraries\lvgl\src\font/lv_font_loader.c ****         lv_mem_free(glyph_offset);
 559:..\..\..\arduinoLCD\test\Pain Drain\libraries\lvgl\src\font/lv_font_loader.c ****         return false;
 560:..\..\..\arduinoLCD\test\Pain Drain\libraries\lvgl\src\font/lv_font_loader.c ****     }
 561:..\..\..\arduinoLCD\test\Pain Drain\libraries\lvgl\src\font/lv_font_loader.c **** 
 562:..\..\..\arduinoLCD\test\Pain Drain\libraries\lvgl\src\font/lv_font_loader.c ****     /*glyph*/
 563:..\..\..\arduinoLCD\test\Pain Drain\libraries\lvgl\src\font/lv_font_loader.c ****     uint32_t glyph_start = loca_start + loca_length;
 564:..\..\..\arduinoLCD\test\Pain Drain\libraries\lvgl\src\font/lv_font_loader.c ****     int32_t glyph_length = load_glyph(
 565:..\..\..\arduinoLCD\test\Pain Drain\libraries\lvgl\src\font/lv_font_loader.c ****                                fp, font_dsc, glyph_start, glyph_offset, loca_count, &font_header);
 566:..\..\..\arduinoLCD\test\Pain Drain\libraries\lvgl\src\font/lv_font_loader.c **** 
 567:..\..\..\arduinoLCD\test\Pain Drain\libraries\lvgl\src\font/lv_font_loader.c ****     lv_mem_free(glyph_offset);
 568:..\..\..\arduinoLCD\test\Pain Drain\libraries\lvgl\src\font/lv_font_loader.c **** 
 569:..\..\..\arduinoLCD\test\Pain Drain\libraries\lvgl\src\font/lv_font_loader.c ****     if(glyph_length < 0) {
 570:..\..\..\arduinoLCD\test\Pain Drain\libraries\lvgl\src\font/lv_font_loader.c ****         return false;
 571:..\..\..\arduinoLCD\test\Pain Drain\libraries\lvgl\src\font/lv_font_loader.c ****     }
 572:..\..\..\arduinoLCD\test\Pain Drain\libraries\lvgl\src\font/lv_font_loader.c **** 
 573:..\..\..\arduinoLCD\test\Pain Drain\libraries\lvgl\src\font/lv_font_loader.c ****     if(font_header.tables_count < 4) {
 574:..\..\..\arduinoLCD\test\Pain Drain\libraries\lvgl\src\font/lv_font_loader.c ****         font_dsc->kern_dsc = NULL;
 575:..\..\..\arduinoLCD\test\Pain Drain\libraries\lvgl\src\font/lv_font_loader.c ****         font_dsc->kern_classes = 0;
 576:..\..\..\arduinoLCD\test\Pain Drain\libraries\lvgl\src\font/lv_font_loader.c ****         font_dsc->kern_scale = 0;
 577:..\..\..\arduinoLCD\test\Pain Drain\libraries\lvgl\src\font/lv_font_loader.c ****         return true;
 578:..\..\..\arduinoLCD\test\Pain Drain\libraries\lvgl\src\font/lv_font_loader.c ****     }
 579:..\..\..\arduinoLCD\test\Pain Drain\libraries\lvgl\src\font/lv_font_loader.c **** 
 580:..\..\..\arduinoLCD\test\Pain Drain\libraries\lvgl\src\font/lv_font_loader.c ****     uint32_t kern_start = glyph_start + glyph_length;
 581:..\..\..\arduinoLCD\test\Pain Drain\libraries\lvgl\src\font/lv_font_loader.c **** 
 582:..\..\..\arduinoLCD\test\Pain Drain\libraries\lvgl\src\font/lv_font_loader.c ****     int32_t kern_length = load_kern(fp, font_dsc, font_header.glyph_id_format, kern_start);
 583:..\..\..\arduinoLCD\test\Pain Drain\libraries\lvgl\src\font/lv_font_loader.c **** 
 584:..\..\..\arduinoLCD\test\Pain Drain\libraries\lvgl\src\font/lv_font_loader.c ****     return kern_length >= 0;
 585:..\..\..\arduinoLCD\test\Pain Drain\libraries\lvgl\src\font/lv_font_loader.c **** }
ARM GAS  C:\Users\haske\AppData\Local\Temp\cc5ISl1k.s 			page 38


 586:..\..\..\arduinoLCD\test\Pain Drain\libraries\lvgl\src\font/lv_font_loader.c **** 
 587:..\..\..\arduinoLCD\test\Pain Drain\libraries\lvgl\src\font/lv_font_loader.c **** int32_t load_kern(lv_fs_file_t * fp, lv_font_fmt_txt_dsc_t * font_dsc, uint8_t format, uint32_t sta
 588:..\..\..\arduinoLCD\test\Pain Drain\libraries\lvgl\src\font/lv_font_loader.c **** {
 1455              		.loc 1 588 0
 1456              		.cfi_startproc
 1457              		@ args = 0, pretend = 0, frame = 32
 1458              		@ frame_needed = 0, uses_anonymous_args = 0
 1459              	.LVL172:
 1460 0000 F0B5     		push	{r4, r5, r6, r7, lr}
 1461              		.cfi_def_cfa_offset 20
 1462              		.cfi_offset 4, -20
 1463              		.cfi_offset 5, -16
 1464              		.cfi_offset 6, -12
 1465              		.cfi_offset 7, -8
 1466              		.cfi_offset 14, -4
 1467 0002 89B0     		sub	sp, sp, #36
 1468              		.cfi_def_cfa_offset 56
 1469 0004 0400     		movs	r4, r0
 1470 0006 0090     		str	r0, [sp]
 1471 0008 0F00     		movs	r7, r1
 1472 000a 1600     		movs	r6, r2
 589:..\..\..\arduinoLCD\test\Pain Drain\libraries\lvgl\src\font/lv_font_loader.c ****     int32_t kern_length = read_label(fp, start, "kern");
 1473              		.loc 1 589 0
 1474 000c 6F4A     		ldr	r2, .L91
 1475              	.LVL173:
 1476 000e 1900     		movs	r1, r3
 1477              	.LVL174:
 1478 0010 FFF7FEFF 		bl	read_label
 1479              	.LVL175:
 1480 0014 051E     		subs	r5, r0, #0
 1481              	.LVL176:
 590:..\..\..\arduinoLCD\test\Pain Drain\libraries\lvgl\src\font/lv_font_loader.c ****     if(kern_length < 0) {
 1482              		.loc 1 590 0
 1483 0016 00DA     		bge	.LCB1577
 1484 0018 CBE0     		b	.L87	@long jump
 1485              	.LCB1577:
 591:..\..\..\arduinoLCD\test\Pain Drain\libraries\lvgl\src\font/lv_font_loader.c ****         return -1;
 592:..\..\..\arduinoLCD\test\Pain Drain\libraries\lvgl\src\font/lv_font_loader.c ****     }
 593:..\..\..\arduinoLCD\test\Pain Drain\libraries\lvgl\src\font/lv_font_loader.c **** 
 594:..\..\..\arduinoLCD\test\Pain Drain\libraries\lvgl\src\font/lv_font_loader.c ****     uint8_t kern_format_type;
 595:..\..\..\arduinoLCD\test\Pain Drain\libraries\lvgl\src\font/lv_font_loader.c ****     int32_t padding;
 596:..\..\..\arduinoLCD\test\Pain Drain\libraries\lvgl\src\font/lv_font_loader.c ****     if(lv_fs_read(fp, &kern_format_type, sizeof(uint8_t), NULL) != LV_FS_RES_OK ||
 1486              		.loc 1 596 0
 1487 001a 0023     		movs	r3, #0
 1488 001c 0122     		movs	r2, #1
 1489 001e 0F21     		movs	r1, #15
 1490 0020 04A8     		add	r0, sp, #16
 1491              	.LVL177:
 1492 0022 8446     		mov	ip, r0
 1493 0024 6144     		add	r1, r1, ip
 1494 0026 2000     		movs	r0, r4
 1495 0028 FFF7FEFF 		bl	lv_fs_read
 1496              	.LVL178:
 1497 002c 0028     		cmp	r0, #0
 1498 002e 00D0     		beq	.LCB1589
 1499 0030 C2E0     		b	.L88	@long jump
 1500              	.LCB1589:
ARM GAS  C:\Users\haske\AppData\Local\Temp\cc5ISl1k.s 			page 39


 597:..\..\..\arduinoLCD\test\Pain Drain\libraries\lvgl\src\font/lv_font_loader.c ****        lv_fs_read(fp, &padding, 3 * sizeof(uint8_t), NULL) != LV_FS_RES_OK) {
 1501              		.loc 1 597 0 discriminator 1
 1502 0032 0023     		movs	r3, #0
 1503 0034 0322     		movs	r2, #3
 1504 0036 06A9     		add	r1, sp, #24
 1505 0038 2000     		movs	r0, r4
 1506 003a FFF7FEFF 		bl	lv_fs_read
 1507              	.LVL179:
 596:..\..\..\arduinoLCD\test\Pain Drain\libraries\lvgl\src\font/lv_font_loader.c ****        lv_fs_read(fp, &padding, 3 * sizeof(uint8_t), NULL) != LV_FS_RES_OK) {
 1508              		.loc 1 596 0 discriminator 1
 1509 003e 0028     		cmp	r0, #0
 1510 0040 00D0     		beq	.LCB1597
 1511 0042 BCE0     		b	.L89	@long jump
 1512              	.LCB1597:
 598:..\..\..\arduinoLCD\test\Pain Drain\libraries\lvgl\src\font/lv_font_loader.c ****         return -1;
 599:..\..\..\arduinoLCD\test\Pain Drain\libraries\lvgl\src\font/lv_font_loader.c ****     }
 600:..\..\..\arduinoLCD\test\Pain Drain\libraries\lvgl\src\font/lv_font_loader.c **** 
 601:..\..\..\arduinoLCD\test\Pain Drain\libraries\lvgl\src\font/lv_font_loader.c ****     if(0 == kern_format_type) { /*sorted pairs*/
 1513              		.loc 1 601 0
 1514 0044 0F23     		movs	r3, #15
 1515 0046 04AA     		add	r2, sp, #16
 1516 0048 9446     		mov	ip, r2
 1517 004a 6344     		add	r3, r3, ip
 1518 004c 1B78     		ldrb	r3, [r3]
 1519 004e 002B     		cmp	r3, #0
 1520 0050 49D1     		bne	.L82
 1521              	.LBB31:
 602:..\..\..\arduinoLCD\test\Pain Drain\libraries\lvgl\src\font/lv_font_loader.c ****         lv_font_fmt_txt_kern_pair_t * kern_pair = lv_mem_alloc(sizeof(lv_font_fmt_txt_kern_pair_t))
 1522              		.loc 1 602 0
 1523 0052 0C30     		adds	r0, r0, #12
 1524 0054 FFF7FEFF 		bl	lv_mem_alloc
 1525              	.LVL180:
 1526 0058 0400     		movs	r4, r0
 1527              	.LVL181:
 603:..\..\..\arduinoLCD\test\Pain Drain\libraries\lvgl\src\font/lv_font_loader.c **** 
 604:..\..\..\arduinoLCD\test\Pain Drain\libraries\lvgl\src\font/lv_font_loader.c ****         memset(kern_pair, 0, sizeof(lv_font_fmt_txt_kern_pair_t));
 1528              		.loc 1 604 0
 1529 005a 0C22     		movs	r2, #12
 1530 005c 0021     		movs	r1, #0
 1531 005e FFF7FEFF 		bl	memset
 1532              	.LVL182:
 605:..\..\..\arduinoLCD\test\Pain Drain\libraries\lvgl\src\font/lv_font_loader.c **** 
 606:..\..\..\arduinoLCD\test\Pain Drain\libraries\lvgl\src\font/lv_font_loader.c ****         font_dsc->kern_dsc = kern_pair;
 1533              		.loc 1 606 0
 1534 0062 FC60     		str	r4, [r7, #12]
 607:..\..\..\arduinoLCD\test\Pain Drain\libraries\lvgl\src\font/lv_font_loader.c ****         font_dsc->kern_classes = 0;
 1535              		.loc 1 607 0
 1536 0064 FB7C     		ldrb	r3, [r7, #19]
 1537 0066 2022     		movs	r2, #32
 1538 0068 9343     		bics	r3, r2
 1539 006a FB74     		strb	r3, [r7, #19]
 1540              	.LVL183:
 608:..\..\..\arduinoLCD\test\Pain Drain\libraries\lvgl\src\font/lv_font_loader.c **** 
 609:..\..\..\arduinoLCD\test\Pain Drain\libraries\lvgl\src\font/lv_font_loader.c ****         uint32_t glyph_entries;
 610:..\..\..\arduinoLCD\test\Pain Drain\libraries\lvgl\src\font/lv_font_loader.c ****         if(lv_fs_read(fp, &glyph_entries, sizeof(uint32_t), NULL) != LV_FS_RES_OK) {
 1541              		.loc 1 610 0
 1542 006c 0023     		movs	r3, #0
ARM GAS  C:\Users\haske\AppData\Local\Temp\cc5ISl1k.s 			page 40


 1543 006e 1C3A     		subs	r2, r2, #28
 1544 0070 05A9     		add	r1, sp, #20
 1545 0072 0098     		ldr	r0, [sp]
 1546 0074 FFF7FEFF 		bl	lv_fs_read
 1547              	.LVL184:
 1548 0078 0028     		cmp	r0, #0
 1549 007a 31D1     		bne	.L83
 611:..\..\..\arduinoLCD\test\Pain Drain\libraries\lvgl\src\font/lv_font_loader.c ****             return -1;
 612:..\..\..\arduinoLCD\test\Pain Drain\libraries\lvgl\src\font/lv_font_loader.c ****         }
 613:..\..\..\arduinoLCD\test\Pain Drain\libraries\lvgl\src\font/lv_font_loader.c **** 
 614:..\..\..\arduinoLCD\test\Pain Drain\libraries\lvgl\src\font/lv_font_loader.c ****         int ids_size;
 615:..\..\..\arduinoLCD\test\Pain Drain\libraries\lvgl\src\font/lv_font_loader.c ****         if(format == 0) {
 1550              		.loc 1 615 0
 1551 007c 002E     		cmp	r6, #0
 1552 007e 02D1     		bne	.L84
 616:..\..\..\arduinoLCD\test\Pain Drain\libraries\lvgl\src\font/lv_font_loader.c ****             ids_size = sizeof(int8_t) * 2 * glyph_entries;
 1553              		.loc 1 616 0
 1554 0080 059B     		ldr	r3, [sp, #20]
 1555 0082 5F00     		lsls	r7, r3, #1
 1556              	.LVL185:
 1557 0084 01E0     		b	.L85
 1558              	.LVL186:
 1559              	.L84:
 617:..\..\..\arduinoLCD\test\Pain Drain\libraries\lvgl\src\font/lv_font_loader.c ****         }
 618:..\..\..\arduinoLCD\test\Pain Drain\libraries\lvgl\src\font/lv_font_loader.c ****         else {
 619:..\..\..\arduinoLCD\test\Pain Drain\libraries\lvgl\src\font/lv_font_loader.c ****             ids_size = sizeof(int16_t) * 2 * glyph_entries;
 1560              		.loc 1 619 0
 1561 0086 059B     		ldr	r3, [sp, #20]
 1562 0088 9F00     		lsls	r7, r3, #2
 1563              	.LVL187:
 1564              	.L85:
 620:..\..\..\arduinoLCD\test\Pain Drain\libraries\lvgl\src\font/lv_font_loader.c ****         }
 621:..\..\..\arduinoLCD\test\Pain Drain\libraries\lvgl\src\font/lv_font_loader.c **** 
 622:..\..\..\arduinoLCD\test\Pain Drain\libraries\lvgl\src\font/lv_font_loader.c ****         uint8_t * glyph_ids = lv_mem_alloc(ids_size);
 1565              		.loc 1 622 0
 1566 008a 3800     		movs	r0, r7
 1567 008c FFF7FEFF 		bl	lv_mem_alloc
 1568              	.LVL188:
 1569 0090 0190     		str	r0, [sp, #4]
 1570              	.LVL189:
 623:..\..\..\arduinoLCD\test\Pain Drain\libraries\lvgl\src\font/lv_font_loader.c ****         int8_t * values = lv_mem_alloc(glyph_entries);
 1571              		.loc 1 623 0
 1572 0092 0598     		ldr	r0, [sp, #20]
 1573              	.LVL190:
 1574 0094 FFF7FEFF 		bl	lv_mem_alloc
 1575              	.LVL191:
 624:..\..\..\arduinoLCD\test\Pain Drain\libraries\lvgl\src\font/lv_font_loader.c **** 
 625:..\..\..\arduinoLCD\test\Pain Drain\libraries\lvgl\src\font/lv_font_loader.c ****         kern_pair->glyph_ids_size = format;
 1576              		.loc 1 625 0
 1577 0098 B301     		lsls	r3, r6, #6
 1578 009a E27A     		ldrb	r2, [r4, #11]
 1579 009c 3F26     		movs	r6, #63
 1580 009e 1640     		ands	r6, r2
 1581 00a0 1E43     		orrs	r6, r3
 1582 00a2 E672     		strb	r6, [r4, #11]
 1583              	.LVL192:
 626:..\..\..\arduinoLCD\test\Pain Drain\libraries\lvgl\src\font/lv_font_loader.c ****         kern_pair->pair_cnt = glyph_entries;
ARM GAS  C:\Users\haske\AppData\Local\Temp\cc5ISl1k.s 			page 41


 1584              		.loc 1 626 0
 1585 00a4 059B     		ldr	r3, [sp, #20]
 1586 00a6 9B00     		lsls	r3, r3, #2
 1587 00a8 9A08     		lsrs	r2, r3, #2
 1588 00aa A368     		ldr	r3, [r4, #8]
 1589 00ac 9B0F     		lsrs	r3, r3, #30
 1590 00ae 9B07     		lsls	r3, r3, #30
 1591 00b0 1343     		orrs	r3, r2
 1592 00b2 A360     		str	r3, [r4, #8]
 627:..\..\..\arduinoLCD\test\Pain Drain\libraries\lvgl\src\font/lv_font_loader.c ****         kern_pair->glyph_ids = glyph_ids;
 1593              		.loc 1 627 0
 1594 00b4 0199     		ldr	r1, [sp, #4]
 1595 00b6 2160     		str	r1, [r4]
 628:..\..\..\arduinoLCD\test\Pain Drain\libraries\lvgl\src\font/lv_font_loader.c ****         kern_pair->values = values;
 1596              		.loc 1 628 0
 1597 00b8 0600     		movs	r6, r0
 1598 00ba 6060     		str	r0, [r4, #4]
 629:..\..\..\arduinoLCD\test\Pain Drain\libraries\lvgl\src\font/lv_font_loader.c **** 
 630:..\..\..\arduinoLCD\test\Pain Drain\libraries\lvgl\src\font/lv_font_loader.c ****         if(lv_fs_read(fp, glyph_ids, ids_size, NULL) != LV_FS_RES_OK) {
 1599              		.loc 1 630 0
 1600 00bc 0023     		movs	r3, #0
 1601 00be 3A00     		movs	r2, r7
 1602 00c0 009C     		ldr	r4, [sp]
 1603              	.LVL193:
 1604 00c2 2000     		movs	r0, r4
 1605              	.LVL194:
 1606 00c4 FFF7FEFF 		bl	lv_fs_read
 1607              	.LVL195:
 1608 00c8 0028     		cmp	r0, #0
 1609 00ca 09D1     		bne	.L83
 631:..\..\..\arduinoLCD\test\Pain Drain\libraries\lvgl\src\font/lv_font_loader.c ****             return -1;
 632:..\..\..\arduinoLCD\test\Pain Drain\libraries\lvgl\src\font/lv_font_loader.c ****         }
 633:..\..\..\arduinoLCD\test\Pain Drain\libraries\lvgl\src\font/lv_font_loader.c **** 
 634:..\..\..\arduinoLCD\test\Pain Drain\libraries\lvgl\src\font/lv_font_loader.c ****         if(lv_fs_read(fp, values, glyph_entries, NULL) != LV_FS_RES_OK) {
 1610              		.loc 1 634 0
 1611 00cc 0023     		movs	r3, #0
 1612 00ce 059A     		ldr	r2, [sp, #20]
 1613 00d0 3100     		movs	r1, r6
 1614 00d2 2000     		movs	r0, r4
 1615 00d4 FFF7FEFF 		bl	lv_fs_read
 1616              	.LVL196:
 1617 00d8 0028     		cmp	r0, #0
 1618 00da 01D1     		bne	.L83
 1619              	.LBE31:
 635:..\..\..\arduinoLCD\test\Pain Drain\libraries\lvgl\src\font/lv_font_loader.c ****             return -1;
 636:..\..\..\arduinoLCD\test\Pain Drain\libraries\lvgl\src\font/lv_font_loader.c ****         }
 637:..\..\..\arduinoLCD\test\Pain Drain\libraries\lvgl\src\font/lv_font_loader.c ****     }
 638:..\..\..\arduinoLCD\test\Pain Drain\libraries\lvgl\src\font/lv_font_loader.c ****     else if(3 == kern_format_type) { /*array M*N of classes*/
 639:..\..\..\arduinoLCD\test\Pain Drain\libraries\lvgl\src\font/lv_font_loader.c **** 
 640:..\..\..\arduinoLCD\test\Pain Drain\libraries\lvgl\src\font/lv_font_loader.c ****         lv_font_fmt_txt_kern_classes_t * kern_classes = lv_mem_alloc(sizeof(lv_font_fmt_txt_kern_cl
 641:..\..\..\arduinoLCD\test\Pain Drain\libraries\lvgl\src\font/lv_font_loader.c **** 
 642:..\..\..\arduinoLCD\test\Pain Drain\libraries\lvgl\src\font/lv_font_loader.c ****         memset(kern_classes, 0, sizeof(lv_font_fmt_txt_kern_classes_t));
 643:..\..\..\arduinoLCD\test\Pain Drain\libraries\lvgl\src\font/lv_font_loader.c **** 
 644:..\..\..\arduinoLCD\test\Pain Drain\libraries\lvgl\src\font/lv_font_loader.c ****         font_dsc->kern_dsc = kern_classes;
 645:..\..\..\arduinoLCD\test\Pain Drain\libraries\lvgl\src\font/lv_font_loader.c ****         font_dsc->kern_classes = 1;
 646:..\..\..\arduinoLCD\test\Pain Drain\libraries\lvgl\src\font/lv_font_loader.c **** 
 647:..\..\..\arduinoLCD\test\Pain Drain\libraries\lvgl\src\font/lv_font_loader.c ****         uint16_t kern_class_mapping_length;
ARM GAS  C:\Users\haske\AppData\Local\Temp\cc5ISl1k.s 			page 42


 648:..\..\..\arduinoLCD\test\Pain Drain\libraries\lvgl\src\font/lv_font_loader.c ****         uint8_t kern_table_rows;
 649:..\..\..\arduinoLCD\test\Pain Drain\libraries\lvgl\src\font/lv_font_loader.c ****         uint8_t kern_table_cols;
 650:..\..\..\arduinoLCD\test\Pain Drain\libraries\lvgl\src\font/lv_font_loader.c **** 
 651:..\..\..\arduinoLCD\test\Pain Drain\libraries\lvgl\src\font/lv_font_loader.c ****         if(lv_fs_read(fp, &kern_class_mapping_length, sizeof(uint16_t), NULL) != LV_FS_RES_OK ||
 652:..\..\..\arduinoLCD\test\Pain Drain\libraries\lvgl\src\font/lv_font_loader.c ****            lv_fs_read(fp, &kern_table_rows, sizeof(uint8_t), NULL) != LV_FS_RES_OK ||
 653:..\..\..\arduinoLCD\test\Pain Drain\libraries\lvgl\src\font/lv_font_loader.c ****            lv_fs_read(fp, &kern_table_cols, sizeof(uint8_t), NULL) != LV_FS_RES_OK) {
 654:..\..\..\arduinoLCD\test\Pain Drain\libraries\lvgl\src\font/lv_font_loader.c ****             return -1;
 655:..\..\..\arduinoLCD\test\Pain Drain\libraries\lvgl\src\font/lv_font_loader.c ****         }
 656:..\..\..\arduinoLCD\test\Pain Drain\libraries\lvgl\src\font/lv_font_loader.c **** 
 657:..\..\..\arduinoLCD\test\Pain Drain\libraries\lvgl\src\font/lv_font_loader.c ****         int kern_values_length = sizeof(int8_t) * kern_table_rows * kern_table_cols;
 658:..\..\..\arduinoLCD\test\Pain Drain\libraries\lvgl\src\font/lv_font_loader.c **** 
 659:..\..\..\arduinoLCD\test\Pain Drain\libraries\lvgl\src\font/lv_font_loader.c ****         uint8_t * kern_left = lv_mem_alloc(kern_class_mapping_length);
 660:..\..\..\arduinoLCD\test\Pain Drain\libraries\lvgl\src\font/lv_font_loader.c ****         uint8_t * kern_right = lv_mem_alloc(kern_class_mapping_length);
 661:..\..\..\arduinoLCD\test\Pain Drain\libraries\lvgl\src\font/lv_font_loader.c ****         int8_t * kern_values = lv_mem_alloc(kern_values_length);
 662:..\..\..\arduinoLCD\test\Pain Drain\libraries\lvgl\src\font/lv_font_loader.c **** 
 663:..\..\..\arduinoLCD\test\Pain Drain\libraries\lvgl\src\font/lv_font_loader.c ****         kern_classes->left_class_mapping  = kern_left;
 664:..\..\..\arduinoLCD\test\Pain Drain\libraries\lvgl\src\font/lv_font_loader.c ****         kern_classes->right_class_mapping = kern_right;
 665:..\..\..\arduinoLCD\test\Pain Drain\libraries\lvgl\src\font/lv_font_loader.c ****         kern_classes->left_class_cnt = kern_table_rows;
 666:..\..\..\arduinoLCD\test\Pain Drain\libraries\lvgl\src\font/lv_font_loader.c ****         kern_classes->right_class_cnt = kern_table_cols;
 667:..\..\..\arduinoLCD\test\Pain Drain\libraries\lvgl\src\font/lv_font_loader.c ****         kern_classes->class_pair_values = kern_values;
 668:..\..\..\arduinoLCD\test\Pain Drain\libraries\lvgl\src\font/lv_font_loader.c **** 
 669:..\..\..\arduinoLCD\test\Pain Drain\libraries\lvgl\src\font/lv_font_loader.c ****         if(lv_fs_read(fp, kern_left, kern_class_mapping_length, NULL) != LV_FS_RES_OK ||
 670:..\..\..\arduinoLCD\test\Pain Drain\libraries\lvgl\src\font/lv_font_loader.c ****            lv_fs_read(fp, kern_right, kern_class_mapping_length, NULL) != LV_FS_RES_OK ||
 671:..\..\..\arduinoLCD\test\Pain Drain\libraries\lvgl\src\font/lv_font_loader.c ****            lv_fs_read(fp, kern_values, kern_values_length, NULL) != LV_FS_RES_OK) {
 672:..\..\..\arduinoLCD\test\Pain Drain\libraries\lvgl\src\font/lv_font_loader.c ****             return -1;
 673:..\..\..\arduinoLCD\test\Pain Drain\libraries\lvgl\src\font/lv_font_loader.c ****         }
 674:..\..\..\arduinoLCD\test\Pain Drain\libraries\lvgl\src\font/lv_font_loader.c ****     }
 675:..\..\..\arduinoLCD\test\Pain Drain\libraries\lvgl\src\font/lv_font_loader.c ****     else {
 676:..\..\..\arduinoLCD\test\Pain Drain\libraries\lvgl\src\font/lv_font_loader.c ****         LV_LOG_WARN("Unknown kern_format_type: %d", kern_format_type);
 677:..\..\..\arduinoLCD\test\Pain Drain\libraries\lvgl\src\font/lv_font_loader.c ****         return -1;
 678:..\..\..\arduinoLCD\test\Pain Drain\libraries\lvgl\src\font/lv_font_loader.c ****     }
 679:..\..\..\arduinoLCD\test\Pain Drain\libraries\lvgl\src\font/lv_font_loader.c **** 
 680:..\..\..\arduinoLCD\test\Pain Drain\libraries\lvgl\src\font/lv_font_loader.c ****     return kern_length;
 1620              		.loc 1 680 0
 1621 00dc 2800     		movs	r0, r5
 1622 00de 73E0     		b	.L81
 1623              	.LVL197:
 1624              	.L83:
 1625              	.LBB32:
 611:..\..\..\arduinoLCD\test\Pain Drain\libraries\lvgl\src\font/lv_font_loader.c ****         }
 1626              		.loc 1 611 0 discriminator 1
 1627 00e0 0120     		movs	r0, #1
 1628 00e2 4042     		rsbs	r0, r0, #0
 1629 00e4 70E0     		b	.L81
 1630              	.LVL198:
 1631              	.L82:
 1632              	.LBE32:
 638:..\..\..\arduinoLCD\test\Pain Drain\libraries\lvgl\src\font/lv_font_loader.c **** 
 1633              		.loc 1 638 0
 1634 00e6 032B     		cmp	r3, #3
 1635 00e8 6CD1     		bne	.L90
 1636              	.LBB33:
 640:..\..\..\arduinoLCD\test\Pain Drain\libraries\lvgl\src\font/lv_font_loader.c **** 
 1637              		.loc 1 640 0
 1638 00ea 1020     		movs	r0, #16
 1639 00ec FFF7FEFF 		bl	lv_mem_alloc
 1640              	.LVL199:
ARM GAS  C:\Users\haske\AppData\Local\Temp\cc5ISl1k.s 			page 43


 1641 00f0 0400     		movs	r4, r0
 1642              	.LVL200:
 642:..\..\..\arduinoLCD\test\Pain Drain\libraries\lvgl\src\font/lv_font_loader.c **** 
 1643              		.loc 1 642 0
 1644 00f2 1022     		movs	r2, #16
 1645 00f4 0021     		movs	r1, #0
 1646 00f6 FFF7FEFF 		bl	memset
 1647              	.LVL201:
 644:..\..\..\arduinoLCD\test\Pain Drain\libraries\lvgl\src\font/lv_font_loader.c ****         font_dsc->kern_classes = 1;
 1648              		.loc 1 644 0
 1649 00fa FC60     		str	r4, [r7, #12]
 645:..\..\..\arduinoLCD\test\Pain Drain\libraries\lvgl\src\font/lv_font_loader.c **** 
 1650              		.loc 1 645 0
 1651 00fc FA7C     		ldrb	r2, [r7, #19]
 1652 00fe 2023     		movs	r3, #32
 1653 0100 1343     		orrs	r3, r2
 1654 0102 FB74     		strb	r3, [r7, #19]
 1655              	.LVL202:
 651:..\..\..\arduinoLCD\test\Pain Drain\libraries\lvgl\src\font/lv_font_loader.c ****            lv_fs_read(fp, &kern_table_rows, sizeof(uint8_t), NULL) != LV_FS_RES_OK ||
 1656              		.loc 1 651 0
 1657 0104 0023     		movs	r3, #0
 1658 0106 0222     		movs	r2, #2
 1659 0108 05A9     		add	r1, sp, #20
 1660 010a 009E     		ldr	r6, [sp]
 1661 010c 3000     		movs	r0, r6
 1662 010e FFF7FEFF 		bl	lv_fs_read
 1663              	.LVL203:
 1664 0112 0028     		cmp	r0, #0
 1665 0114 4AD1     		bne	.L86
 652:..\..\..\arduinoLCD\test\Pain Drain\libraries\lvgl\src\font/lv_font_loader.c ****            lv_fs_read(fp, &kern_table_cols, sizeof(uint8_t), NULL) != LV_FS_RES_OK) {
 1666              		.loc 1 652 0 discriminator 1
 1667 0116 0023     		movs	r3, #0
 1668 0118 0122     		movs	r2, #1
 1669 011a 04A9     		add	r1, sp, #16
 1670 011c 0231     		adds	r1, r1, #2
 1671 011e 3000     		movs	r0, r6
 1672 0120 FFF7FEFF 		bl	lv_fs_read
 1673              	.LVL204:
 651:..\..\..\arduinoLCD\test\Pain Drain\libraries\lvgl\src\font/lv_font_loader.c ****            lv_fs_read(fp, &kern_table_rows, sizeof(uint8_t), NULL) != LV_FS_RES_OK ||
 1674              		.loc 1 651 0 discriminator 1
 1675 0124 0028     		cmp	r0, #0
 1676 0126 41D1     		bne	.L86
 653:..\..\..\arduinoLCD\test\Pain Drain\libraries\lvgl\src\font/lv_font_loader.c ****             return -1;
 1677              		.loc 1 653 0
 1678 0128 0023     		movs	r3, #0
 1679 012a 0122     		movs	r2, #1
 1680 012c 04A9     		add	r1, sp, #16
 1681 012e 0331     		adds	r1, r1, #3
 1682 0130 0096     		str	r6, [sp]
 1683 0132 3000     		movs	r0, r6
 1684 0134 FFF7FEFF 		bl	lv_fs_read
 1685              	.LVL205:
 652:..\..\..\arduinoLCD\test\Pain Drain\libraries\lvgl\src\font/lv_font_loader.c ****            lv_fs_read(fp, &kern_table_cols, sizeof(uint8_t), NULL) != LV_FS_RES_OK) {
 1686              		.loc 1 652 0
 1687 0138 0028     		cmp	r0, #0
 1688 013a 37D1     		bne	.L86
 657:..\..\..\arduinoLCD\test\Pain Drain\libraries\lvgl\src\font/lv_font_loader.c **** 
ARM GAS  C:\Users\haske\AppData\Local\Temp\cc5ISl1k.s 			page 44


 1689              		.loc 1 657 0
 1690 013c 04AB     		add	r3, sp, #16
 1691 013e 9F1C     		adds	r7, r3, #2
 1692              	.LVL206:
 1693 0140 9A78     		ldrb	r2, [r3, #2]
 1694 0142 DB78     		ldrb	r3, [r3, #3]
 1695 0144 5A43     		muls	r2, r3
 1696 0146 0292     		str	r2, [sp, #8]
 1697              	.LVL207:
 659:..\..\..\arduinoLCD\test\Pain Drain\libraries\lvgl\src\font/lv_font_loader.c ****         uint8_t * kern_right = lv_mem_alloc(kern_class_mapping_length);
 1698              		.loc 1 659 0
 1699 0148 05AE     		add	r6, sp, #20
 1700 014a 3088     		ldrh	r0, [r6]
 1701 014c FFF7FEFF 		bl	lv_mem_alloc
 1702              	.LVL208:
 1703 0150 0390     		str	r0, [sp, #12]
 1704              	.LVL209:
 660:..\..\..\arduinoLCD\test\Pain Drain\libraries\lvgl\src\font/lv_font_loader.c ****         int8_t * kern_values = lv_mem_alloc(kern_values_length);
 1705              		.loc 1 660 0
 1706 0152 3088     		ldrh	r0, [r6]
 1707              	.LVL210:
 1708 0154 FFF7FEFF 		bl	lv_mem_alloc
 1709              	.LVL211:
 1710 0158 0190     		str	r0, [sp, #4]
 1711              	.LVL212:
 661:..\..\..\arduinoLCD\test\Pain Drain\libraries\lvgl\src\font/lv_font_loader.c **** 
 1712              		.loc 1 661 0
 1713 015a 0298     		ldr	r0, [sp, #8]
 1714              	.LVL213:
 1715 015c FFF7FEFF 		bl	lv_mem_alloc
 1716              	.LVL214:
 663:..\..\..\arduinoLCD\test\Pain Drain\libraries\lvgl\src\font/lv_font_loader.c ****         kern_classes->right_class_mapping = kern_right;
 1717              		.loc 1 663 0
 1718 0160 0399     		ldr	r1, [sp, #12]
 1719 0162 6160     		str	r1, [r4, #4]
 664:..\..\..\arduinoLCD\test\Pain Drain\libraries\lvgl\src\font/lv_font_loader.c ****         kern_classes->left_class_cnt = kern_table_rows;
 1720              		.loc 1 664 0
 1721 0164 019B     		ldr	r3, [sp, #4]
 1722 0166 A360     		str	r3, [r4, #8]
 665:..\..\..\arduinoLCD\test\Pain Drain\libraries\lvgl\src\font/lv_font_loader.c ****         kern_classes->right_class_cnt = kern_table_cols;
 1723              		.loc 1 665 0
 1724 0168 3B78     		ldrb	r3, [r7]
 1725 016a 2373     		strb	r3, [r4, #12]
 666:..\..\..\arduinoLCD\test\Pain Drain\libraries\lvgl\src\font/lv_font_loader.c ****         kern_classes->class_pair_values = kern_values;
 1726              		.loc 1 666 0
 1727 016c 04AF     		add	r7, sp, #16
 1728 016e FB78     		ldrb	r3, [r7, #3]
 1729 0170 6373     		strb	r3, [r4, #13]
 667:..\..\..\arduinoLCD\test\Pain Drain\libraries\lvgl\src\font/lv_font_loader.c **** 
 1730              		.loc 1 667 0
 1731 0172 0700     		movs	r7, r0
 1732 0174 2060     		str	r0, [r4]
 669:..\..\..\arduinoLCD\test\Pain Drain\libraries\lvgl\src\font/lv_font_loader.c ****            lv_fs_read(fp, kern_right, kern_class_mapping_length, NULL) != LV_FS_RES_OK ||
 1733              		.loc 1 669 0
 1734 0176 3288     		ldrh	r2, [r6]
 1735 0178 0023     		movs	r3, #0
 1736 017a 009C     		ldr	r4, [sp]
ARM GAS  C:\Users\haske\AppData\Local\Temp\cc5ISl1k.s 			page 45


 1737              	.LVL215:
 1738 017c 2000     		movs	r0, r4
 1739              	.LVL216:
 1740 017e FFF7FEFF 		bl	lv_fs_read
 1741              	.LVL217:
 1742 0182 0028     		cmp	r0, #0
 1743 0184 12D1     		bne	.L86
 670:..\..\..\arduinoLCD\test\Pain Drain\libraries\lvgl\src\font/lv_font_loader.c ****            lv_fs_read(fp, kern_values, kern_values_length, NULL) != LV_FS_RES_OK) {
 1744              		.loc 1 670 0 discriminator 1
 1745 0186 05AB     		add	r3, sp, #20
 1746 0188 1A88     		ldrh	r2, [r3]
 1747 018a 0023     		movs	r3, #0
 1748 018c 0199     		ldr	r1, [sp, #4]
 1749 018e 2000     		movs	r0, r4
 1750 0190 FFF7FEFF 		bl	lv_fs_read
 1751              	.LVL218:
 669:..\..\..\arduinoLCD\test\Pain Drain\libraries\lvgl\src\font/lv_font_loader.c ****            lv_fs_read(fp, kern_right, kern_class_mapping_length, NULL) != LV_FS_RES_OK ||
 1752              		.loc 1 669 0 discriminator 1
 1753 0194 0028     		cmp	r0, #0
 1754 0196 09D1     		bne	.L86
 671:..\..\..\arduinoLCD\test\Pain Drain\libraries\lvgl\src\font/lv_font_loader.c ****             return -1;
 1755              		.loc 1 671 0
 1756 0198 0023     		movs	r3, #0
 1757 019a 029A     		ldr	r2, [sp, #8]
 1758 019c 3900     		movs	r1, r7
 1759 019e 2000     		movs	r0, r4
 1760 01a0 FFF7FEFF 		bl	lv_fs_read
 1761              	.LVL219:
 670:..\..\..\arduinoLCD\test\Pain Drain\libraries\lvgl\src\font/lv_font_loader.c ****            lv_fs_read(fp, kern_values, kern_values_length, NULL) != LV_FS_RES_OK) {
 1762              		.loc 1 670 0
 1763 01a4 0028     		cmp	r0, #0
 1764 01a6 01D1     		bne	.L86
 1765              	.LBE33:
 1766              		.loc 1 680 0
 1767 01a8 2800     		movs	r0, r5
 1768 01aa 0DE0     		b	.L81
 1769              	.LVL220:
 1770              	.L86:
 1771              	.LBB34:
 654:..\..\..\arduinoLCD\test\Pain Drain\libraries\lvgl\src\font/lv_font_loader.c ****         }
 1772              		.loc 1 654 0 discriminator 1
 1773 01ac 0120     		movs	r0, #1
 1774 01ae 4042     		rsbs	r0, r0, #0
 1775 01b0 0AE0     		b	.L81
 1776              	.LVL221:
 1777              	.L87:
 1778              	.LBE34:
 591:..\..\..\arduinoLCD\test\Pain Drain\libraries\lvgl\src\font/lv_font_loader.c ****     }
 1779              		.loc 1 591 0
 1780 01b2 0120     		movs	r0, #1
 1781              	.LVL222:
 1782 01b4 4042     		rsbs	r0, r0, #0
 1783 01b6 07E0     		b	.L81
 1784              	.L88:
 598:..\..\..\arduinoLCD\test\Pain Drain\libraries\lvgl\src\font/lv_font_loader.c ****     }
 1785              		.loc 1 598 0
 1786 01b8 0120     		movs	r0, #1
ARM GAS  C:\Users\haske\AppData\Local\Temp\cc5ISl1k.s 			page 46


 1787 01ba 4042     		rsbs	r0, r0, #0
 1788 01bc 04E0     		b	.L81
 1789              	.L89:
 1790 01be 0120     		movs	r0, #1
 1791 01c0 4042     		rsbs	r0, r0, #0
 1792 01c2 01E0     		b	.L81
 1793              	.L90:
 677:..\..\..\arduinoLCD\test\Pain Drain\libraries\lvgl\src\font/lv_font_loader.c ****     }
 1794              		.loc 1 677 0
 1795 01c4 0120     		movs	r0, #1
 1796 01c6 4042     		rsbs	r0, r0, #0
 1797              	.LVL223:
 1798              	.L81:
 681:..\..\..\arduinoLCD\test\Pain Drain\libraries\lvgl\src\font/lv_font_loader.c **** }
 1799              		.loc 1 681 0
 1800 01c8 09B0     		add	sp, sp, #36
 1801              		@ sp needed
 1802              	.LVL224:
 1803 01ca F0BD     		pop	{r4, r5, r6, r7, pc}
 1804              	.L92:
 1805              		.align	2
 1806              	.L91:
 1807 01cc 10000000 		.word	.LC4
 1808              		.cfi_endproc
 1809              	.LFE212:
 1810              		.size	load_kern, .-load_kern
 1811              		.section	.text.lvgl_load_font,"ax",%progbits
 1812              		.align	2
 1813              		.code	16
 1814              		.thumb_func
 1815              		.type	lvgl_load_font, %function
 1816              	lvgl_load_font:
 1817              	.LFB211:
 484:..\..\..\arduinoLCD\test\Pain Drain\libraries\lvgl\src\font/lv_font_loader.c ****     lv_font_fmt_txt_dsc_t * font_dsc = (lv_font_fmt_txt_dsc_t *)
 1818              		.loc 1 484 0
 1819              		.cfi_startproc
 1820              		@ args = 0, pretend = 0, frame = 48
 1821              		@ frame_needed = 0, uses_anonymous_args = 0
 1822              	.LVL225:
 1823 0000 F0B5     		push	{r4, r5, r6, r7, lr}
 1824              		.cfi_def_cfa_offset 20
 1825              		.cfi_offset 4, -20
 1826              		.cfi_offset 5, -16
 1827              		.cfi_offset 6, -12
 1828              		.cfi_offset 7, -8
 1829              		.cfi_offset 14, -4
 1830 0002 4F46     		mov	r7, r9
 1831 0004 4646     		mov	r6, r8
 1832 0006 C0B4     		push	{r6, r7}
 1833              		.cfi_def_cfa_offset 28
 1834              		.cfi_offset 8, -28
 1835              		.cfi_offset 9, -24
 1836 0008 8FB0     		sub	sp, sp, #60
 1837              		.cfi_def_cfa_offset 88
 1838 000a 0600     		movs	r6, r0
 1839 000c 0D00     		movs	r5, r1
 485:..\..\..\arduinoLCD\test\Pain Drain\libraries\lvgl\src\font/lv_font_loader.c ****                                        lv_mem_alloc(sizeof(lv_font_fmt_txt_dsc_t));
ARM GAS  C:\Users\haske\AppData\Local\Temp\cc5ISl1k.s 			page 47


 1840              		.loc 1 485 0
 1841 000e 1820     		movs	r0, #24
 1842              	.LVL226:
 1843 0010 FFF7FEFF 		bl	lv_mem_alloc
 1844              	.LVL227:
 1845 0014 0400     		movs	r4, r0
 1846              	.LVL228:
 488:..\..\..\arduinoLCD\test\Pain Drain\libraries\lvgl\src\font/lv_font_loader.c **** 
 1847              		.loc 1 488 0
 1848 0016 1822     		movs	r2, #24
 1849 0018 0021     		movs	r1, #0
 1850 001a FFF7FEFF 		bl	memset
 1851              	.LVL229:
 490:..\..\..\arduinoLCD\test\Pain Drain\libraries\lvgl\src\font/lv_font_loader.c **** 
 1852              		.loc 1 490 0
 1853 001e 2C61     		str	r4, [r5, #16]
 493:..\..\..\arduinoLCD\test\Pain Drain\libraries\lvgl\src\font/lv_font_loader.c ****     if(header_length < 0) {
 1854              		.loc 1 493 0
 1855 0020 644A     		ldr	r2, .L112
 1856 0022 0021     		movs	r1, #0
 1857 0024 3000     		movs	r0, r6
 1858 0026 FFF7FEFF 		bl	read_label
 1859              	.LVL230:
 1860 002a 071E     		subs	r7, r0, #0
 1861              	.LVL231:
 494:..\..\..\arduinoLCD\test\Pain Drain\libraries\lvgl\src\font/lv_font_loader.c ****         return false;
 1862              		.loc 1 494 0
 1863 002c 00DA     		bge	.LCB1957
 1864 002e B1E0     		b	.L102	@long jump
 1865              	.LCB1957:
 499:..\..\..\arduinoLCD\test\Pain Drain\libraries\lvgl\src\font/lv_font_loader.c ****         return false;
 1866              		.loc 1 499 0
 1867 0030 0023     		movs	r3, #0
 1868 0032 2822     		movs	r2, #40
 1869 0034 04A9     		add	r1, sp, #16
 1870 0036 3000     		movs	r0, r6
 1871              	.LVL232:
 1872 0038 FFF7FEFF 		bl	lv_fs_read
 1873              	.LVL233:
 1874 003c 0028     		cmp	r0, #0
 1875 003e 00D0     		beq	.LCB1966
 1876 0040 AAE0     		b	.L103	@long jump
 1877              	.LCB1966:
 503:..\..\..\arduinoLCD\test\Pain Drain\libraries\lvgl\src\font/lv_font_loader.c ****     font->line_height = font_header.ascent - font_header.descent;
 1878              		.loc 1 503 0
 1879 0042 04AB     		add	r3, sp, #16
 1880 0044 0A22     		movs	r2, #10
 1881 0046 995E     		ldrsh	r1, [r3, r2]
 1882 0048 4A42     		rsbs	r2, r1, #0
 1883 004a 6A81     		strh	r2, [r5, #10]
 504:..\..\..\arduinoLCD\test\Pain Drain\libraries\lvgl\src\font/lv_font_loader.c ****     font->get_glyph_dsc = lv_font_get_glyph_dsc_fmt_txt;
 1884              		.loc 1 504 0
 1885 004c 1A89     		ldrh	r2, [r3, #8]
 1886 004e 521A     		subs	r2, r2, r1
 1887 0050 2A81     		strh	r2, [r5, #8]
 505:..\..\..\arduinoLCD\test\Pain Drain\libraries\lvgl\src\font/lv_font_loader.c ****     font->get_glyph_bitmap = lv_font_get_bitmap_fmt_txt;
 1888              		.loc 1 505 0
ARM GAS  C:\Users\haske\AppData\Local\Temp\cc5ISl1k.s 			page 48


 1889 0052 594A     		ldr	r2, .L112+4
 1890 0054 2A60     		str	r2, [r5]
 506:..\..\..\arduinoLCD\test\Pain Drain\libraries\lvgl\src\font/lv_font_loader.c ****     font->subpx = font_header.subpixels_mode;
 1891              		.loc 1 506 0
 1892 0056 594A     		ldr	r2, .L112+8
 1893 0058 6A60     		str	r2, [r5, #4]
 507:..\..\..\arduinoLCD\test\Pain Drain\libraries\lvgl\src\font/lv_font_loader.c ****     font->underline_position = font_header.underline_position;
 1894              		.loc 1 507 0
 1895 005a 2222     		movs	r2, #34
 1896 005c 9A5C     		ldrb	r2, [r3, r2]
 1897 005e 0321     		movs	r1, #3
 1898 0060 1140     		ands	r1, r2
 1899 0062 2A7B     		ldrb	r2, [r5, #12]
 1900 0064 0330     		adds	r0, r0, #3
 1901 0066 8243     		bics	r2, r0
 1902 0068 0A43     		orrs	r2, r1
 1903 006a 2A73     		strb	r2, [r5, #12]
 508:..\..\..\arduinoLCD\test\Pain Drain\libraries\lvgl\src\font/lv_font_loader.c ****     font->underline_thickness = font_header.underline_thickness;
 1904              		.loc 1 508 0
 1905 006c 2421     		movs	r1, #36
 1906 006e 5A5E     		ldrsh	r2, [r3, r1]
 1907 0070 6A73     		strb	r2, [r5, #13]
 509:..\..\..\arduinoLCD\test\Pain Drain\libraries\lvgl\src\font/lv_font_loader.c **** 
 1908              		.loc 1 509 0
 1909 0072 DA8C     		ldrh	r2, [r3, #38]
 1910 0074 AA73     		strb	r2, [r5, #14]
 511:..\..\..\arduinoLCD\test\Pain Drain\libraries\lvgl\src\font/lv_font_loader.c ****     font_dsc->kern_scale = font_header.kerning_scale;
 1911              		.loc 1 511 0
 1912 0076 5A7F     		ldrb	r2, [r3, #29]
 1913 0078 0F21     		movs	r1, #15
 1914 007a 0A40     		ands	r2, r1
 1915 007c 5100     		lsls	r1, r2, #1
 1916 007e E27C     		ldrb	r2, [r4, #19]
 1917 0080 1B30     		adds	r0, r0, #27
 1918 0082 8243     		bics	r2, r0
 1919 0084 0A43     		orrs	r2, r1
 1920 0086 E274     		strb	r2, [r4, #19]
 512:..\..\..\arduinoLCD\test\Pain Drain\libraries\lvgl\src\font/lv_font_loader.c ****     font_dsc->bitmap_format = font_header.compression_id;
 1921              		.loc 1 512 0
 1922 0088 1A8B     		ldrh	r2, [r3, #24]
 1923 008a 2282     		strh	r2, [r4, #16]
 513:..\..\..\arduinoLCD\test\Pain Drain\libraries\lvgl\src\font/lv_font_loader.c **** 
 1924              		.loc 1 513 0
 1925 008c 2122     		movs	r2, #33
 1926 008e 9B5C     		ldrb	r3, [r3, r2]
 1927 0090 9A01     		lsls	r2, r3, #6
 1928 0092 E37C     		ldrb	r3, [r4, #19]
 1929 0094 3F21     		movs	r1, #63
 1930 0096 0B40     		ands	r3, r1
 1931 0098 1343     		orrs	r3, r2
 1932 009a E374     		strb	r3, [r4, #19]
 1933              	.LVL234:
 517:..\..\..\arduinoLCD\test\Pain Drain\libraries\lvgl\src\font/lv_font_loader.c ****     if(cmaps_length < 0) {
 1934              		.loc 1 517 0
 1935 009c 3A00     		movs	r2, r7
 1936 009e 2100     		movs	r1, r4
 1937 00a0 3000     		movs	r0, r6
ARM GAS  C:\Users\haske\AppData\Local\Temp\cc5ISl1k.s 			page 49


 1938 00a2 FFF7FEFF 		bl	load_cmaps
 1939              	.LVL235:
 518:..\..\..\arduinoLCD\test\Pain Drain\libraries\lvgl\src\font/lv_font_loader.c ****         return false;
 1940              		.loc 1 518 0
 1941 00a6 0028     		cmp	r0, #0
 1942 00a8 78DB     		blt	.L104
 523:..\..\..\arduinoLCD\test\Pain Drain\libraries\lvgl\src\font/lv_font_loader.c ****     int32_t loca_length = read_label(fp, loca_start, "loca");
 1943              		.loc 1 523 0
 1944 00aa 3F18     		adds	r7, r7, r0
 1945              	.LVL236:
 524:..\..\..\arduinoLCD\test\Pain Drain\libraries\lvgl\src\font/lv_font_loader.c ****     if(loca_length < 0) {
 1946              		.loc 1 524 0
 1947 00ac 444A     		ldr	r2, .L112+12
 1948 00ae 3900     		movs	r1, r7
 1949 00b0 3000     		movs	r0, r6
 1950              	.LVL237:
 1951 00b2 FFF7FEFF 		bl	read_label
 1952              	.LVL238:
 1953 00b6 8046     		mov	r8, r0
 1954              	.LVL239:
 525:..\..\..\arduinoLCD\test\Pain Drain\libraries\lvgl\src\font/lv_font_loader.c ****         return false;
 1955              		.loc 1 525 0
 1956 00b8 0028     		cmp	r0, #0
 1957 00ba 71DB     		blt	.L105
 530:..\..\..\arduinoLCD\test\Pain Drain\libraries\lvgl\src\font/lv_font_loader.c ****         return false;
 1958              		.loc 1 530 0
 1959 00bc 0023     		movs	r3, #0
 1960 00be 0422     		movs	r2, #4
 1961 00c0 03A9     		add	r1, sp, #12
 1962 00c2 3000     		movs	r0, r6
 1963              	.LVL240:
 1964 00c4 FFF7FEFF 		bl	lv_fs_read
 1965              	.LVL241:
 1966 00c8 0028     		cmp	r0, #0
 1967 00ca 6BD1     		bne	.L106
 1968              	.LVL242:
 535:..\..\..\arduinoLCD\test\Pain Drain\libraries\lvgl\src\font/lv_font_loader.c **** 
 1969              		.loc 1 535 0
 1970 00cc 039B     		ldr	r3, [sp, #12]
 1971 00ce 581C     		adds	r0, r3, #1
 1972 00d0 8000     		lsls	r0, r0, #2
 1973 00d2 FFF7FEFF 		bl	lv_mem_alloc
 1974              	.LVL243:
 1975 00d6 8146     		mov	r9, r0
 1976              	.LVL244:
 537:..\..\..\arduinoLCD\test\Pain Drain\libraries\lvgl\src\font/lv_font_loader.c ****         for(unsigned int i = 0; i < loca_count; ++i) {
 1977              		.loc 1 537 0
 1978 00d8 04AB     		add	r3, sp, #16
 1979 00da 9B7E     		ldrb	r3, [r3, #26]
 1980 00dc 002B     		cmp	r3, #0
 1981 00de 13D0     		beq	.L107
 1982 00e0 18E0     		b	.L111
 1983              	.LVL245:
 1984              	.L99:
 1985              	.LBB35:
 1986              	.LBB36:
 540:..\..\..\arduinoLCD\test\Pain Drain\libraries\lvgl\src\font/lv_font_loader.c ****                 failed = true;
ARM GAS  C:\Users\haske\AppData\Local\Temp\cc5ISl1k.s 			page 50


 1987              		.loc 1 540 0
 1988 00e2 0023     		movs	r3, #0
 1989 00e4 0222     		movs	r2, #2
 1990 00e6 0A21     		movs	r1, #10
 1991 00e8 6944     		add	r1, r1, sp
 1992 00ea 3000     		movs	r0, r6
 1993 00ec FFF7FEFF 		bl	lv_fs_read
 1994              	.LVL246:
 1995 00f0 0028     		cmp	r0, #0
 1996 00f2 01D0     		beq	.L97
 1997              	.LVL247:
 541:..\..\..\arduinoLCD\test\Pain Drain\libraries\lvgl\src\font/lv_font_loader.c ****                 break;
 1998              		.loc 1 541 0
 1999 00f4 0123     		movs	r3, #1
 2000 00f6 1DE0     		b	.L98
 2001              	.LVL248:
 2002              	.L97:
 544:..\..\..\arduinoLCD\test\Pain Drain\libraries\lvgl\src\font/lv_font_loader.c ****         }
 2003              		.loc 1 544 0
 2004 00f8 A900     		lsls	r1, r5, #2
 2005 00fa 0A23     		movs	r3, #10
 2006 00fc 6B44     		add	r3, r3, sp
 2007 00fe 1B88     		ldrh	r3, [r3]
 2008 0100 4A46     		mov	r2, r9
 2009 0102 5350     		str	r3, [r2, r1]
 2010              	.LBE36:
 538:..\..\..\arduinoLCD\test\Pain Drain\libraries\lvgl\src\font/lv_font_loader.c ****             uint16_t offset;
 2011              		.loc 1 538 0
 2012 0104 0135     		adds	r5, r5, #1
 2013              	.LVL249:
 2014 0106 00E0     		b	.L95
 2015              	.LVL250:
 2016              	.L107:
 2017              	.LBE35:
 2018 0108 0025     		movs	r5, #0
 2019              	.LVL251:
 2020              	.L95:
 2021              	.LBB37:
 538:..\..\..\arduinoLCD\test\Pain Drain\libraries\lvgl\src\font/lv_font_loader.c ****             uint16_t offset;
 2022              		.loc 1 538 0 is_stmt 0 discriminator 1
 2023 010a 039B     		ldr	r3, [sp, #12]
 2024 010c 9D42     		cmp	r5, r3
 2025 010e E8D3     		bcc	.L99
 2026              	.LBE37:
 534:..\..\..\arduinoLCD\test\Pain Drain\libraries\lvgl\src\font/lv_font_loader.c ****     uint32_t * glyph_offset = lv_mem_alloc(sizeof(uint32_t) * (loca_count + 1));
 2027              		.loc 1 534 0 is_stmt 1
 2028 0110 0023     		movs	r3, #0
 2029 0112 0FE0     		b	.L98
 2030              	.LVL252:
 2031              	.L111:
 547:..\..\..\arduinoLCD\test\Pain Drain\libraries\lvgl\src\font/lv_font_loader.c ****         if(lv_fs_read(fp, glyph_offset, loca_count * sizeof(uint32_t), NULL) != LV_FS_RES_OK) {
 2032              		.loc 1 547 0
 2033 0114 012B     		cmp	r3, #1
 2034 0116 0AD1     		bne	.L108
 548:..\..\..\arduinoLCD\test\Pain Drain\libraries\lvgl\src\font/lv_font_loader.c ****             failed = true;
 2035              		.loc 1 548 0
 2036 0118 039B     		ldr	r3, [sp, #12]
ARM GAS  C:\Users\haske\AppData\Local\Temp\cc5ISl1k.s 			page 51


 2037 011a 9A00     		lsls	r2, r3, #2
 2038 011c 0023     		movs	r3, #0
 2039 011e 0100     		movs	r1, r0
 2040 0120 3000     		movs	r0, r6
 2041              	.LVL253:
 2042 0122 FFF7FEFF 		bl	lv_fs_read
 2043              	.LVL254:
 2044 0126 0028     		cmp	r0, #0
 2045 0128 03D1     		bne	.L109
 534:..\..\..\arduinoLCD\test\Pain Drain\libraries\lvgl\src\font/lv_font_loader.c ****     uint32_t * glyph_offset = lv_mem_alloc(sizeof(uint32_t) * (loca_count + 1));
 2046              		.loc 1 534 0
 2047 012a 0023     		movs	r3, #0
 2048 012c 02E0     		b	.L98
 2049              	.LVL255:
 2050              	.L108:
 554:..\..\..\arduinoLCD\test\Pain Drain\libraries\lvgl\src\font/lv_font_loader.c ****     }
 2051              		.loc 1 554 0
 2052 012e 0123     		movs	r3, #1
 2053 0130 00E0     		b	.L98
 2054              	.LVL256:
 2055              	.L109:
 549:..\..\..\arduinoLCD\test\Pain Drain\libraries\lvgl\src\font/lv_font_loader.c ****         }
 2056              		.loc 1 549 0
 2057 0132 0123     		movs	r3, #1
 2058              	.LVL257:
 2059              	.L98:
 557:..\..\..\arduinoLCD\test\Pain Drain\libraries\lvgl\src\font/lv_font_loader.c ****         lv_mem_free(glyph_offset);
 2060              		.loc 1 557 0
 2061 0134 002B     		cmp	r3, #0
 2062 0136 04D0     		beq	.L100
 558:..\..\..\arduinoLCD\test\Pain Drain\libraries\lvgl\src\font/lv_font_loader.c ****         return false;
 2063              		.loc 1 558 0
 2064 0138 4846     		mov	r0, r9
 2065 013a FFF7FEFF 		bl	lv_mem_free
 2066              	.LVL258:
 559:..\..\..\arduinoLCD\test\Pain Drain\libraries\lvgl\src\font/lv_font_loader.c ****     }
 2067              		.loc 1 559 0
 2068 013e 0020     		movs	r0, #0
 2069 0140 33E0     		b	.L94
 2070              	.LVL259:
 2071              	.L100:
 563:..\..\..\arduinoLCD\test\Pain Drain\libraries\lvgl\src\font/lv_font_loader.c ****     int32_t glyph_length = load_glyph(
 2072              		.loc 1 563 0
 2073 0142 4744     		add	r7, r7, r8
 2074              	.LVL260:
 564:..\..\..\arduinoLCD\test\Pain Drain\libraries\lvgl\src\font/lv_font_loader.c ****                                fp, font_dsc, glyph_start, glyph_offset, loca_count, &font_header);
 2075              		.loc 1 564 0
 2076 0144 04AB     		add	r3, sp, #16
 2077              	.LVL261:
 2078 0146 0193     		str	r3, [sp, #4]
 2079 0148 039B     		ldr	r3, [sp, #12]
 2080 014a 0093     		str	r3, [sp]
 2081 014c 4B46     		mov	r3, r9
 2082 014e 3A00     		movs	r2, r7
 2083 0150 2100     		movs	r1, r4
 2084 0152 3000     		movs	r0, r6
 2085 0154 FFF7FEFF 		bl	load_glyph
ARM GAS  C:\Users\haske\AppData\Local\Temp\cc5ISl1k.s 			page 52


 2086              	.LVL262:
 2087 0158 0500     		movs	r5, r0
 2088              	.LVL263:
 567:..\..\..\arduinoLCD\test\Pain Drain\libraries\lvgl\src\font/lv_font_loader.c **** 
 2089              		.loc 1 567 0
 2090 015a 4846     		mov	r0, r9
 2091              	.LVL264:
 2092 015c FFF7FEFF 		bl	lv_mem_free
 2093              	.LVL265:
 569:..\..\..\arduinoLCD\test\Pain Drain\libraries\lvgl\src\font/lv_font_loader.c ****         return false;
 2094              		.loc 1 569 0
 2095 0160 002D     		cmp	r5, #0
 2096 0162 21DB     		blt	.L110
 573:..\..\..\arduinoLCD\test\Pain Drain\libraries\lvgl\src\font/lv_font_loader.c ****         font_dsc->kern_dsc = NULL;
 2097              		.loc 1 573 0
 2098 0164 04AB     		add	r3, sp, #16
 2099 0166 9B88     		ldrh	r3, [r3, #4]
 2100 0168 032B     		cmp	r3, #3
 2101 016a 08D8     		bhi	.L101
 574:..\..\..\arduinoLCD\test\Pain Drain\libraries\lvgl\src\font/lv_font_loader.c ****         font_dsc->kern_classes = 0;
 2102              		.loc 1 574 0
 2103 016c 0022     		movs	r2, #0
 2104 016e E260     		str	r2, [r4, #12]
 575:..\..\..\arduinoLCD\test\Pain Drain\libraries\lvgl\src\font/lv_font_loader.c ****         font_dsc->kern_scale = 0;
 2105              		.loc 1 575 0
 2106 0170 E37C     		ldrb	r3, [r4, #19]
 2107 0172 2021     		movs	r1, #32
 2108 0174 8B43     		bics	r3, r1
 2109 0176 E374     		strb	r3, [r4, #19]
 576:..\..\..\arduinoLCD\test\Pain Drain\libraries\lvgl\src\font/lv_font_loader.c ****         return true;
 2110              		.loc 1 576 0
 2111 0178 2282     		strh	r2, [r4, #16]
 577:..\..\..\arduinoLCD\test\Pain Drain\libraries\lvgl\src\font/lv_font_loader.c ****     }
 2112              		.loc 1 577 0
 2113 017a 0120     		movs	r0, #1
 2114 017c 15E0     		b	.L94
 2115              	.L101:
 580:..\..\..\arduinoLCD\test\Pain Drain\libraries\lvgl\src\font/lv_font_loader.c **** 
 2116              		.loc 1 580 0
 2117 017e 7F19     		adds	r7, r7, r5
 2118              	.LVL266:
 582:..\..\..\arduinoLCD\test\Pain Drain\libraries\lvgl\src\font/lv_font_loader.c **** 
 2119              		.loc 1 582 0
 2120 0180 04AB     		add	r3, sp, #16
 2121 0182 DA7E     		ldrb	r2, [r3, #27]
 2122 0184 3B00     		movs	r3, r7
 2123 0186 2100     		movs	r1, r4
 2124 0188 3000     		movs	r0, r6
 2125 018a FFF7FEFF 		bl	load_kern
 2126              	.LVL267:
 584:..\..\..\arduinoLCD\test\Pain Drain\libraries\lvgl\src\font/lv_font_loader.c **** }
 2127              		.loc 1 584 0
 2128 018e C043     		mvns	r0, r0
 2129              	.LVL268:
 2130 0190 C00F     		lsrs	r0, r0, #31
 2131              	.LVL269:
 2132 0192 0AE0     		b	.L94
ARM GAS  C:\Users\haske\AppData\Local\Temp\cc5ISl1k.s 			page 53


 2133              	.LVL270:
 2134              	.L102:
 495:..\..\..\arduinoLCD\test\Pain Drain\libraries\lvgl\src\font/lv_font_loader.c ****     }
 2135              		.loc 1 495 0
 2136 0194 0020     		movs	r0, #0
 2137              	.LVL271:
 2138 0196 08E0     		b	.L94
 2139              	.L103:
 500:..\..\..\arduinoLCD\test\Pain Drain\libraries\lvgl\src\font/lv_font_loader.c ****     }
 2140              		.loc 1 500 0
 2141 0198 0020     		movs	r0, #0
 2142 019a 06E0     		b	.L94
 2143              	.LVL272:
 2144              	.L104:
 519:..\..\..\arduinoLCD\test\Pain Drain\libraries\lvgl\src\font/lv_font_loader.c ****     }
 2145              		.loc 1 519 0
 2146 019c 0020     		movs	r0, #0
 2147              	.LVL273:
 2148 019e 04E0     		b	.L94
 2149              	.LVL274:
 2150              	.L105:
 526:..\..\..\arduinoLCD\test\Pain Drain\libraries\lvgl\src\font/lv_font_loader.c ****     }
 2151              		.loc 1 526 0
 2152 01a0 0020     		movs	r0, #0
 2153              	.LVL275:
 2154 01a2 02E0     		b	.L94
 2155              	.L106:
 531:..\..\..\arduinoLCD\test\Pain Drain\libraries\lvgl\src\font/lv_font_loader.c ****     }
 2156              		.loc 1 531 0
 2157 01a4 0020     		movs	r0, #0
 2158 01a6 00E0     		b	.L94
 2159              	.LVL276:
 2160              	.L110:
 570:..\..\..\arduinoLCD\test\Pain Drain\libraries\lvgl\src\font/lv_font_loader.c ****     }
 2161              		.loc 1 570 0
 2162 01a8 0020     		movs	r0, #0
 2163              	.LVL277:
 2164              	.L94:
 585:..\..\..\arduinoLCD\test\Pain Drain\libraries\lvgl\src\font/lv_font_loader.c **** 
 2165              		.loc 1 585 0
 2166 01aa 0FB0     		add	sp, sp, #60
 2167              		@ sp needed
 2168              	.LVL278:
 2169              	.LVL279:
 2170 01ac 0CBC     		pop	{r2, r3}
 2171 01ae 9046     		mov	r8, r2
 2172 01b0 9946     		mov	r9, r3
 2173 01b2 F0BD     		pop	{r4, r5, r6, r7, pc}
 2174              	.L113:
 2175              		.align	2
 2176              	.L112:
 2177 01b4 18000000 		.word	.LC6
 2178 01b8 00000000 		.word	lv_font_get_glyph_dsc_fmt_txt
 2179 01bc 00000000 		.word	lv_font_get_bitmap_fmt_txt
 2180 01c0 20000000 		.word	.LC10
 2181              		.cfi_endproc
 2182              	.LFE211:
ARM GAS  C:\Users\haske\AppData\Local\Temp\cc5ISl1k.s 			page 54


 2183              		.size	lvgl_load_font, .-lvgl_load_font
 2184              		.section	.text.lv_font_load,"ax",%progbits
 2185              		.align	2
 2186              		.global	lv_font_load
 2187              		.code	16
 2188              		.thumb_func
 2189              		.type	lv_font_load, %function
 2190              	lv_font_load:
 2191              	.LFB202:
  87:..\..\..\arduinoLCD\test\Pain Drain\libraries\lvgl\src\font/lv_font_loader.c ****     lv_fs_file_t file;
 2192              		.loc 1 87 0
 2193              		.cfi_startproc
 2194              		@ args = 0, pretend = 0, frame = 16
 2195              		@ frame_needed = 0, uses_anonymous_args = 0
 2196              	.LVL280:
 2197 0000 10B5     		push	{r4, lr}
 2198              		.cfi_def_cfa_offset 8
 2199              		.cfi_offset 4, -8
 2200              		.cfi_offset 14, -4
 2201 0002 84B0     		sub	sp, sp, #16
 2202              		.cfi_def_cfa_offset 24
 2203 0004 0100     		movs	r1, r0
  89:..\..\..\arduinoLCD\test\Pain Drain\libraries\lvgl\src\font/lv_font_loader.c ****     if(res != LV_FS_RES_OK)
 2204              		.loc 1 89 0
 2205 0006 0222     		movs	r2, #2
 2206 0008 01A8     		add	r0, sp, #4
 2207              	.LVL281:
 2208 000a FFF7FEFF 		bl	lv_fs_open
 2209              	.LVL282:
  90:..\..\..\arduinoLCD\test\Pain Drain\libraries\lvgl\src\font/lv_font_loader.c ****         return NULL;
 2210              		.loc 1 90 0
 2211 000e 0028     		cmp	r0, #0
 2212 0010 17D1     		bne	.L117
  93:..\..\..\arduinoLCD\test\Pain Drain\libraries\lvgl\src\font/lv_font_loader.c ****     if(font) {
 2213              		.loc 1 93 0
 2214 0012 1C30     		adds	r0, r0, #28
 2215              	.LVL283:
 2216 0014 FFF7FEFF 		bl	lv_mem_alloc
 2217              	.LVL284:
 2218 0018 041E     		subs	r4, r0, #0
 2219              	.LVL285:
  94:..\..\..\arduinoLCD\test\Pain Drain\libraries\lvgl\src\font/lv_font_loader.c ****         memset(font, 0, sizeof(lv_font_t));
 2220              		.loc 1 94 0
 2221 001a 0DD0     		beq	.L116
  95:..\..\..\arduinoLCD\test\Pain Drain\libraries\lvgl\src\font/lv_font_loader.c ****         if(!lvgl_load_font(&file, font)) {
 2222              		.loc 1 95 0
 2223 001c 1C22     		movs	r2, #28
 2224 001e 0021     		movs	r1, #0
 2225 0020 FFF7FEFF 		bl	memset
 2226              	.LVL286:
  96:..\..\..\arduinoLCD\test\Pain Drain\libraries\lvgl\src\font/lv_font_loader.c ****             LV_LOG_WARN("Error loading font file: %s\n", font_name);
 2227              		.loc 1 96 0
 2228 0024 2100     		movs	r1, r4
 2229 0026 01A8     		add	r0, sp, #4
 2230 0028 FFF7FEFF 		bl	lvgl_load_font
 2231              	.LVL287:
 2232 002c 0028     		cmp	r0, #0
ARM GAS  C:\Users\haske\AppData\Local\Temp\cc5ISl1k.s 			page 55


 2233 002e 03D1     		bne	.L116
 103:..\..\..\arduinoLCD\test\Pain Drain\libraries\lvgl\src\font/lv_font_loader.c ****             font = NULL;
 2234              		.loc 1 103 0
 2235 0030 2000     		movs	r0, r4
 2236 0032 FFF7FEFF 		bl	lv_font_free
 2237              	.LVL288:
 104:..\..\..\arduinoLCD\test\Pain Drain\libraries\lvgl\src\font/lv_font_loader.c ****         }
 2238              		.loc 1 104 0
 2239 0036 0024     		movs	r4, #0
 2240              	.LVL289:
 2241              	.L116:
 108:..\..\..\arduinoLCD\test\Pain Drain\libraries\lvgl\src\font/lv_font_loader.c **** 
 2242              		.loc 1 108 0
 2243 0038 01A8     		add	r0, sp, #4
 2244 003a FFF7FEFF 		bl	lv_fs_close
 2245              	.LVL290:
 110:..\..\..\arduinoLCD\test\Pain Drain\libraries\lvgl\src\font/lv_font_loader.c **** }
 2246              		.loc 1 110 0
 2247 003e 2000     		movs	r0, r4
 2248 0040 00E0     		b	.L115
 2249              	.LVL291:
 2250              	.L117:
  91:..\..\..\arduinoLCD\test\Pain Drain\libraries\lvgl\src\font/lv_font_loader.c **** 
 2251              		.loc 1 91 0
 2252 0042 0020     		movs	r0, #0
 2253              	.LVL292:
 2254              	.L115:
 111:..\..\..\arduinoLCD\test\Pain Drain\libraries\lvgl\src\font/lv_font_loader.c **** 
 2255              		.loc 1 111 0
 2256 0044 04B0     		add	sp, sp, #16
 2257              		@ sp needed
 2258 0046 10BD     		pop	{r4, pc}
 2259              		.cfi_endproc
 2260              	.LFE202:
 2261              		.size	lv_font_load, .-lv_font_load
 2262              		.section	.rodata.str1.4,"aMS",%progbits,1
 2263              		.align	2
 2264              	.LC0:
 2265 0000 636D6170 		.ascii	"cmap\000"
 2265      00
 2266 0005 000000   		.space	3
 2267              	.LC2:
 2268 0008 676C7966 		.ascii	"glyf\000"
 2268      00
 2269 000d 000000   		.space	3
 2270              	.LC4:
 2271 0010 6B65726E 		.ascii	"kern\000"
 2271      00
 2272 0015 000000   		.space	3
 2273              	.LC6:
 2274 0018 68656164 		.ascii	"head\000"
 2274      00
 2275 001d 000000   		.space	3
 2276              	.LC10:
 2277 0020 6C6F6361 		.ascii	"loca\000"
 2277      00
 2278              		.text
ARM GAS  C:\Users\haske\AppData\Local\Temp\cc5ISl1k.s 			page 56


 2279              	.Letext0:
 2280              		.file 2 "c:\\program files (x86)\\cypress\\psoc creator\\4.4\\psoc creator\\import\\gnu\\arm\\5.4.
 2281              		.file 3 "c:\\program files (x86)\\cypress\\psoc creator\\4.4\\psoc creator\\import\\gnu\\arm\\5.4.
 2282              		.file 4 "c:\\projects\\paindrain\\arduinolcd\\test\\pain drain\\libraries\\lvgl\\src\\misc\\lv_are
 2283              		.file 5 "c:\\projects\\paindrain\\arduinolcd\\test\\pain drain\\libraries\\lvgl\\src\\font\\lv_fon
 2284              		.file 6 "c:\\projects\\paindrain\\arduinolcd\\test\\pain drain\\libraries\\lvgl\\src\\misc\\lv_sty
 2285              		.file 7 "c:\\projects\\paindrain\\arduinolcd\\test\\pain drain\\libraries\\lvgl\\src\\misc\\lv_fs.
 2286              		.file 8 "c:\\projects\\paindrain\\arduinolcd\\test\\pain drain\\libraries\\lvgl\\src/font/lv_font_
 2287              		.file 9 "c:\\projects\\paindrain\\arduinolcd\\test\\pain drain\\libraries\\lvgl\\src/extra/layouts
 2288              		.file 10 "c:\\projects\\paindrain\\arduinolcd\\test\\pain drain\\libraries\\lvgl\\src/extra/layout
 2289              		.file 11 "c:\\projects\\paindrain\\arduinolcd\\test\\pain drain\\libraries\\lvgl\\src/misc/lv_mem.
 2290              		.file 12 "c:\\program files (x86)\\cypress\\psoc creator\\4.4\\psoc creator\\import\\gnu\\arm\\5.4