ARM GAS  C:\Users\haske\AppData\Local\Temp\ccO4eRZa.s 			page 1


   1              		.syntax unified
   2              		.cpu cortex-m0plus
   3              		.fpu softvfp
   4              		.eabi_attribute 20, 1
   5              		.eabi_attribute 21, 1
   6              		.eabi_attribute 23, 3
   7              		.eabi_attribute 24, 1
   8              		.eabi_attribute 25, 1
   9              		.eabi_attribute 26, 1
  10              		.eabi_attribute 30, 1
  11              		.eabi_attribute 34, 0
  12              		.eabi_attribute 18, 4
  13              		.thumb
  14              		.syntax unified
  15              		.file	"lv_font.c"
  16              		.text
  17              	.Ltext0:
  18              		.cfi_sections	.debug_frame
  19              		.section	.text.lv_font_get_glyph_bitmap,"ax",%progbits
  20              		.align	2
  21              		.global	lv_font_get_glyph_bitmap
  22              		.code	16
  23              		.thumb_func
  24              		.type	lv_font_get_glyph_bitmap, %function
  25              	lv_font_get_glyph_bitmap:
  26              	.LFB7:
  27              		.file 1 "..\\..\\..\\arduinoLCD\\test\\Pain Drain\\libraries\\lvgl\\src\\font\\lv_font.c"
   1:..\..\..\arduinoLCD\test\Pain Drain\libraries\lvgl\src\font/lv_font.c **** /**
   2:..\..\..\arduinoLCD\test\Pain Drain\libraries\lvgl\src\font/lv_font.c ****  * @file lv_font.c
   3:..\..\..\arduinoLCD\test\Pain Drain\libraries\lvgl\src\font/lv_font.c ****  *
   4:..\..\..\arduinoLCD\test\Pain Drain\libraries\lvgl\src\font/lv_font.c ****  */
   5:..\..\..\arduinoLCD\test\Pain Drain\libraries\lvgl\src\font/lv_font.c **** 
   6:..\..\..\arduinoLCD\test\Pain Drain\libraries\lvgl\src\font/lv_font.c **** /*********************
   7:..\..\..\arduinoLCD\test\Pain Drain\libraries\lvgl\src\font/lv_font.c ****  *      INCLUDES
   8:..\..\..\arduinoLCD\test\Pain Drain\libraries\lvgl\src\font/lv_font.c ****  *********************/
   9:..\..\..\arduinoLCD\test\Pain Drain\libraries\lvgl\src\font/lv_font.c **** 
  10:..\..\..\arduinoLCD\test\Pain Drain\libraries\lvgl\src\font/lv_font.c **** #include "lv_font.h"
  11:..\..\..\arduinoLCD\test\Pain Drain\libraries\lvgl\src\font/lv_font.c **** #include "../misc/lv_utils.h"
  12:..\..\..\arduinoLCD\test\Pain Drain\libraries\lvgl\src\font/lv_font.c **** #include "../misc/lv_log.h"
  13:..\..\..\arduinoLCD\test\Pain Drain\libraries\lvgl\src\font/lv_font.c **** #include "../misc/lv_assert.h"
  14:..\..\..\arduinoLCD\test\Pain Drain\libraries\lvgl\src\font/lv_font.c **** 
  15:..\..\..\arduinoLCD\test\Pain Drain\libraries\lvgl\src\font/lv_font.c **** /*********************
  16:..\..\..\arduinoLCD\test\Pain Drain\libraries\lvgl\src\font/lv_font.c ****  *      DEFINES
  17:..\..\..\arduinoLCD\test\Pain Drain\libraries\lvgl\src\font/lv_font.c ****  *********************/
  18:..\..\..\arduinoLCD\test\Pain Drain\libraries\lvgl\src\font/lv_font.c **** 
  19:..\..\..\arduinoLCD\test\Pain Drain\libraries\lvgl\src\font/lv_font.c **** /**********************
  20:..\..\..\arduinoLCD\test\Pain Drain\libraries\lvgl\src\font/lv_font.c ****  *      TYPEDEFS
  21:..\..\..\arduinoLCD\test\Pain Drain\libraries\lvgl\src\font/lv_font.c ****  **********************/
  22:..\..\..\arduinoLCD\test\Pain Drain\libraries\lvgl\src\font/lv_font.c **** 
  23:..\..\..\arduinoLCD\test\Pain Drain\libraries\lvgl\src\font/lv_font.c **** /**********************
  24:..\..\..\arduinoLCD\test\Pain Drain\libraries\lvgl\src\font/lv_font.c ****  *  STATIC PROTOTYPES
  25:..\..\..\arduinoLCD\test\Pain Drain\libraries\lvgl\src\font/lv_font.c ****  **********************/
  26:..\..\..\arduinoLCD\test\Pain Drain\libraries\lvgl\src\font/lv_font.c **** 
  27:..\..\..\arduinoLCD\test\Pain Drain\libraries\lvgl\src\font/lv_font.c **** /**********************
  28:..\..\..\arduinoLCD\test\Pain Drain\libraries\lvgl\src\font/lv_font.c ****  *  STATIC VARIABLES
  29:..\..\..\arduinoLCD\test\Pain Drain\libraries\lvgl\src\font/lv_font.c ****  **********************/
  30:..\..\..\arduinoLCD\test\Pain Drain\libraries\lvgl\src\font/lv_font.c **** 
ARM GAS  C:\Users\haske\AppData\Local\Temp\ccO4eRZa.s 			page 2


  31:..\..\..\arduinoLCD\test\Pain Drain\libraries\lvgl\src\font/lv_font.c **** /**********************
  32:..\..\..\arduinoLCD\test\Pain Drain\libraries\lvgl\src\font/lv_font.c ****  * GLOBAL PROTOTYPES
  33:..\..\..\arduinoLCD\test\Pain Drain\libraries\lvgl\src\font/lv_font.c ****  **********************/
  34:..\..\..\arduinoLCD\test\Pain Drain\libraries\lvgl\src\font/lv_font.c **** 
  35:..\..\..\arduinoLCD\test\Pain Drain\libraries\lvgl\src\font/lv_font.c **** /**********************
  36:..\..\..\arduinoLCD\test\Pain Drain\libraries\lvgl\src\font/lv_font.c ****  *      MACROS
  37:..\..\..\arduinoLCD\test\Pain Drain\libraries\lvgl\src\font/lv_font.c ****  **********************/
  38:..\..\..\arduinoLCD\test\Pain Drain\libraries\lvgl\src\font/lv_font.c **** 
  39:..\..\..\arduinoLCD\test\Pain Drain\libraries\lvgl\src\font/lv_font.c **** /**********************
  40:..\..\..\arduinoLCD\test\Pain Drain\libraries\lvgl\src\font/lv_font.c ****  *   GLOBAL FUNCTIONS
  41:..\..\..\arduinoLCD\test\Pain Drain\libraries\lvgl\src\font/lv_font.c ****  **********************/
  42:..\..\..\arduinoLCD\test\Pain Drain\libraries\lvgl\src\font/lv_font.c **** 
  43:..\..\..\arduinoLCD\test\Pain Drain\libraries\lvgl\src\font/lv_font.c **** /**
  44:..\..\..\arduinoLCD\test\Pain Drain\libraries\lvgl\src\font/lv_font.c ****  * Return with the bitmap of a font.
  45:..\..\..\arduinoLCD\test\Pain Drain\libraries\lvgl\src\font/lv_font.c ****  * @param font_p pointer to a font
  46:..\..\..\arduinoLCD\test\Pain Drain\libraries\lvgl\src\font/lv_font.c ****  * @param letter a UNICODE character code
  47:..\..\..\arduinoLCD\test\Pain Drain\libraries\lvgl\src\font/lv_font.c ****  * @return pointer to the bitmap of the letter
  48:..\..\..\arduinoLCD\test\Pain Drain\libraries\lvgl\src\font/lv_font.c ****  */
  49:..\..\..\arduinoLCD\test\Pain Drain\libraries\lvgl\src\font/lv_font.c **** const uint8_t * lv_font_get_glyph_bitmap(const lv_font_t * font_p, uint32_t letter)
  50:..\..\..\arduinoLCD\test\Pain Drain\libraries\lvgl\src\font/lv_font.c **** {
  28              		.loc 1 50 0
  29              		.cfi_startproc
  30              		@ args = 0, pretend = 0, frame = 0
  31              		@ frame_needed = 0, uses_anonymous_args = 0
  32              	.LVL0:
  33 0000 10B5     		push	{r4, lr}
  34              		.cfi_def_cfa_offset 8
  35              		.cfi_offset 4, -8
  36              		.cfi_offset 14, -4
  51:..\..\..\arduinoLCD\test\Pain Drain\libraries\lvgl\src\font/lv_font.c ****     LV_ASSERT_NULL(font_p);
  37              		.loc 1 51 0
  38 0002 0028     		cmp	r0, #0
  39 0004 00D1     		bne	.L2
  40              	.L3:
  41 0006 FEE7     		b	.L3
  42              	.L2:
  52:..\..\..\arduinoLCD\test\Pain Drain\libraries\lvgl\src\font/lv_font.c ****     return font_p->get_glyph_bitmap(font_p, letter);
  43              		.loc 1 52 0
  44 0008 4368     		ldr	r3, [r0, #4]
  45 000a 9847     		blx	r3
  46              	.LVL1:
  53:..\..\..\arduinoLCD\test\Pain Drain\libraries\lvgl\src\font/lv_font.c **** }
  47              		.loc 1 53 0
  48              		@ sp needed
  49 000c 10BD     		pop	{r4, pc}
  50              		.cfi_endproc
  51              	.LFE7:
  52              		.size	lv_font_get_glyph_bitmap, .-lv_font_get_glyph_bitmap
  53 000e C046     		.section	.text.lv_font_get_glyph_dsc,"ax",%progbits
  54              		.align	2
  55              		.global	lv_font_get_glyph_dsc
  56              		.code	16
  57              		.thumb_func
  58              		.type	lv_font_get_glyph_dsc, %function
  59              	lv_font_get_glyph_dsc:
  60              	.LFB8:
  54:..\..\..\arduinoLCD\test\Pain Drain\libraries\lvgl\src\font/lv_font.c **** 
ARM GAS  C:\Users\haske\AppData\Local\Temp\ccO4eRZa.s 			page 3


  55:..\..\..\arduinoLCD\test\Pain Drain\libraries\lvgl\src\font/lv_font.c **** /**
  56:..\..\..\arduinoLCD\test\Pain Drain\libraries\lvgl\src\font/lv_font.c ****  * Get the descriptor of a glyph
  57:..\..\..\arduinoLCD\test\Pain Drain\libraries\lvgl\src\font/lv_font.c ****  * @param font_p pointer to font
  58:..\..\..\arduinoLCD\test\Pain Drain\libraries\lvgl\src\font/lv_font.c ****  * @param dsc_out store the result descriptor here
  59:..\..\..\arduinoLCD\test\Pain Drain\libraries\lvgl\src\font/lv_font.c ****  * @param letter a UNICODE letter code
  60:..\..\..\arduinoLCD\test\Pain Drain\libraries\lvgl\src\font/lv_font.c ****  * @param letter_next the next letter after `letter`. Used for kerning
  61:..\..\..\arduinoLCD\test\Pain Drain\libraries\lvgl\src\font/lv_font.c ****  * @return true: descriptor is successfully loaded into `dsc_out`.
  62:..\..\..\arduinoLCD\test\Pain Drain\libraries\lvgl\src\font/lv_font.c ****  *         false: the letter was not found, no data is loaded to `dsc_out`
  63:..\..\..\arduinoLCD\test\Pain Drain\libraries\lvgl\src\font/lv_font.c ****  */
  64:..\..\..\arduinoLCD\test\Pain Drain\libraries\lvgl\src\font/lv_font.c **** bool lv_font_get_glyph_dsc(const lv_font_t * font_p, lv_font_glyph_dsc_t * dsc_out, uint32_t letter
  65:..\..\..\arduinoLCD\test\Pain Drain\libraries\lvgl\src\font/lv_font.c ****                            uint32_t letter_next)
  66:..\..\..\arduinoLCD\test\Pain Drain\libraries\lvgl\src\font/lv_font.c **** {
  61              		.loc 1 66 0
  62              		.cfi_startproc
  63              		@ args = 0, pretend = 0, frame = 8
  64              		@ frame_needed = 0, uses_anonymous_args = 0
  65              	.LVL2:
  66 0000 F0B5     		push	{r4, r5, r6, r7, lr}
  67              		.cfi_def_cfa_offset 20
  68              		.cfi_offset 4, -20
  69              		.cfi_offset 5, -16
  70              		.cfi_offset 6, -12
  71              		.cfi_offset 7, -8
  72              		.cfi_offset 14, -4
  73 0002 4F46     		mov	r7, r9
  74 0004 4646     		mov	r6, r8
  75 0006 C0B4     		push	{r6, r7}
  76              		.cfi_def_cfa_offset 28
  77              		.cfi_offset 8, -28
  78              		.cfi_offset 9, -24
  79 0008 83B0     		sub	sp, sp, #12
  80              		.cfi_def_cfa_offset 40
  81 000a 8046     		mov	r8, r0
  82 000c 0D00     		movs	r5, r1
  83 000e 1600     		movs	r6, r2
  84 0010 0193     		str	r3, [sp, #4]
  67:..\..\..\arduinoLCD\test\Pain Drain\libraries\lvgl\src\font/lv_font.c **** 
  68:..\..\..\arduinoLCD\test\Pain Drain\libraries\lvgl\src\font/lv_font.c ****     LV_ASSERT_NULL(font_p);
  85              		.loc 1 68 0
  86 0012 0028     		cmp	r0, #0
  87 0014 00D1     		bne	.L5
  88              	.L6:
  89 0016 FEE7     		b	.L6
  90              	.L5:
  69:..\..\..\arduinoLCD\test\Pain Drain\libraries\lvgl\src\font/lv_font.c ****     LV_ASSERT_NULL(dsc_out);
  91              		.loc 1 69 0
  92 0018 0029     		cmp	r1, #0
  93 001a 00D1     		bne	.L7
  94              	.L8:
  95 001c FEE7     		b	.L8
  96              	.L7:
  97              	.LVL3:
  70:..\..\..\arduinoLCD\test\Pain Drain\libraries\lvgl\src\font/lv_font.c **** 
  71:..\..\..\arduinoLCD\test\Pain Drain\libraries\lvgl\src\font/lv_font.c **** #if LV_USE_FONT_PLACEHOLDER
  72:..\..\..\arduinoLCD\test\Pain Drain\libraries\lvgl\src\font/lv_font.c ****     const lv_font_t * placeholder_font = NULL;
  73:..\..\..\arduinoLCD\test\Pain Drain\libraries\lvgl\src\font/lv_font.c **** #endif
  74:..\..\..\arduinoLCD\test\Pain Drain\libraries\lvgl\src\font/lv_font.c **** 
ARM GAS  C:\Users\haske\AppData\Local\Temp\ccO4eRZa.s 			page 4


  75:..\..\..\arduinoLCD\test\Pain Drain\libraries\lvgl\src\font/lv_font.c ****     const lv_font_t * f = font_p;
  76:..\..\..\arduinoLCD\test\Pain Drain\libraries\lvgl\src\font/lv_font.c **** 
  77:..\..\..\arduinoLCD\test\Pain Drain\libraries\lvgl\src\font/lv_font.c ****     dsc_out->resolved_font = NULL;
  98              		.loc 1 77 0
  99 001e 0023     		movs	r3, #0
 100              	.LVL4:
 101 0020 0B60     		str	r3, [r1]
  75:..\..\..\arduinoLCD\test\Pain Drain\libraries\lvgl\src\font/lv_font.c **** 
 102              		.loc 1 75 0
 103 0022 0400     		movs	r4, r0
  72:..\..\..\arduinoLCD\test\Pain Drain\libraries\lvgl\src\font/lv_font.c **** #endif
 104              		.loc 1 72 0
 105 0024 9946     		mov	r9, r3
  78:..\..\..\arduinoLCD\test\Pain Drain\libraries\lvgl\src\font/lv_font.c **** 
  79:..\..\..\arduinoLCD\test\Pain Drain\libraries\lvgl\src\font/lv_font.c ****     while(f) {
 106              		.loc 1 79 0
 107 0026 12E0     		b	.L9
 108              	.LVL5:
 109              	.L13:
 110              	.LBB2:
  80:..\..\..\arduinoLCD\test\Pain Drain\libraries\lvgl\src\font/lv_font.c ****         bool found = f->get_glyph_dsc(f, dsc_out, letter, letter_next);
 111              		.loc 1 80 0
 112 0028 019B     		ldr	r3, [sp, #4]
 113 002a 3200     		movs	r2, r6
 114 002c 2900     		movs	r1, r5
 115 002e 2000     		movs	r0, r4
 116 0030 2768     		ldr	r7, [r4]
 117 0032 B847     		blx	r7
 118              	.LVL6:
  81:..\..\..\arduinoLCD\test\Pain Drain\libraries\lvgl\src\font/lv_font.c ****         if(found) {
 119              		.loc 1 81 0
 120 0034 0028     		cmp	r0, #0
 121 0036 09D0     		beq	.L10
  82:..\..\..\arduinoLCD\test\Pain Drain\libraries\lvgl\src\font/lv_font.c ****             if(!dsc_out->is_placeholder) {
 122              		.loc 1 82 0
 123 0038 AB7B     		ldrb	r3, [r5, #14]
 124 003a DB06     		lsls	r3, r3, #27
 125 003c 02D4     		bmi	.L11
  83:..\..\..\arduinoLCD\test\Pain Drain\libraries\lvgl\src\font/lv_font.c ****                 dsc_out->resolved_font = f;
 126              		.loc 1 83 0
 127 003e 2C60     		str	r4, [r5]
  84:..\..\..\arduinoLCD\test\Pain Drain\libraries\lvgl\src\font/lv_font.c ****                 return true;
 128              		.loc 1 84 0
 129 0040 0120     		movs	r0, #1
 130              	.LVL7:
 131 0042 3CE0     		b	.L12
 132              	.LVL8:
 133              	.L11:
  85:..\..\..\arduinoLCD\test\Pain Drain\libraries\lvgl\src\font/lv_font.c ****             }
  86:..\..\..\arduinoLCD\test\Pain Drain\libraries\lvgl\src\font/lv_font.c **** #if LV_USE_FONT_PLACEHOLDER
  87:..\..\..\arduinoLCD\test\Pain Drain\libraries\lvgl\src\font/lv_font.c ****             else if(placeholder_font == NULL) {
 134              		.loc 1 87 0
 135 0044 4B46     		mov	r3, r9
 136 0046 002B     		cmp	r3, #0
 137 0048 00D1     		bne	.L10
 138              	.LVL9:
  88:..\..\..\arduinoLCD\test\Pain Drain\libraries\lvgl\src\font/lv_font.c ****                 placeholder_font = f;
ARM GAS  C:\Users\haske\AppData\Local\Temp\ccO4eRZa.s 			page 5


 139              		.loc 1 88 0
 140 004a A146     		mov	r9, r4
 141              	.LVL10:
 142              	.L10:
  89:..\..\..\arduinoLCD\test\Pain Drain\libraries\lvgl\src\font/lv_font.c ****             }
  90:..\..\..\arduinoLCD\test\Pain Drain\libraries\lvgl\src\font/lv_font.c **** #endif
  91:..\..\..\arduinoLCD\test\Pain Drain\libraries\lvgl\src\font/lv_font.c ****         }
  92:..\..\..\arduinoLCD\test\Pain Drain\libraries\lvgl\src\font/lv_font.c ****         f = f->fallback;
 143              		.loc 1 92 0
 144 004c 6469     		ldr	r4, [r4, #20]
 145              	.LVL11:
 146              	.L9:
 147              	.LBE2:
  79:..\..\..\arduinoLCD\test\Pain Drain\libraries\lvgl\src\font/lv_font.c ****         bool found = f->get_glyph_dsc(f, dsc_out, letter, letter_next);
 148              		.loc 1 79 0
 149 004e 002C     		cmp	r4, #0
 150 0050 EAD1     		bne	.L13
  93:..\..\..\arduinoLCD\test\Pain Drain\libraries\lvgl\src\font/lv_font.c ****     }
  94:..\..\..\arduinoLCD\test\Pain Drain\libraries\lvgl\src\font/lv_font.c **** 
  95:..\..\..\arduinoLCD\test\Pain Drain\libraries\lvgl\src\font/lv_font.c **** #if LV_USE_FONT_PLACEHOLDER
  96:..\..\..\arduinoLCD\test\Pain Drain\libraries\lvgl\src\font/lv_font.c ****     if(placeholder_font != NULL) {
 151              		.loc 1 96 0
 152 0052 4B46     		mov	r3, r9
 153 0054 002B     		cmp	r3, #0
 154 0056 09D0     		beq	.L14
  97:..\..\..\arduinoLCD\test\Pain Drain\libraries\lvgl\src\font/lv_font.c ****         placeholder_font->get_glyph_dsc(placeholder_font, dsc_out, letter, letter_next);
 155              		.loc 1 97 0
 156 0058 019B     		ldr	r3, [sp, #4]
 157 005a 3200     		movs	r2, r6
 158 005c 2900     		movs	r1, r5
 159 005e 4846     		mov	r0, r9
 160 0060 0468     		ldr	r4, [r0]
 161              	.LVL12:
 162 0062 A047     		blx	r4
 163              	.LVL13:
  98:..\..\..\arduinoLCD\test\Pain Drain\libraries\lvgl\src\font/lv_font.c ****         dsc_out->resolved_font = placeholder_font;
 164              		.loc 1 98 0
 165 0064 4B46     		mov	r3, r9
 166 0066 2B60     		str	r3, [r5]
  99:..\..\..\arduinoLCD\test\Pain Drain\libraries\lvgl\src\font/lv_font.c ****         return true;
 167              		.loc 1 99 0
 168 0068 0120     		movs	r0, #1
 169 006a 28E0     		b	.L12
 170              	.LVL14:
 171              	.L14:
 100:..\..\..\arduinoLCD\test\Pain Drain\libraries\lvgl\src\font/lv_font.c ****     }
 101:..\..\..\arduinoLCD\test\Pain Drain\libraries\lvgl\src\font/lv_font.c **** #endif
 102:..\..\..\arduinoLCD\test\Pain Drain\libraries\lvgl\src\font/lv_font.c **** 
 103:..\..\..\arduinoLCD\test\Pain Drain\libraries\lvgl\src\font/lv_font.c ****     if(letter < 0x20 ||
 172              		.loc 1 103 0
 173 006c 1F2E     		cmp	r6, #31
 174 006e 05D9     		bls	.L15
 175              		.loc 1 103 0 is_stmt 0 discriminator 1
 176 0070 154B     		ldr	r3, .L19
 177              	.LVL15:
 178 0072 9E42     		cmp	r6, r3
 179 0074 02D0     		beq	.L15
ARM GAS  C:\Users\haske\AppData\Local\Temp\ccO4eRZa.s 			page 6


 104:..\..\..\arduinoLCD\test\Pain Drain\libraries\lvgl\src\font/lv_font.c ****        letter == 0xf8ff || /*LV_SYMBOL_DUMMY*/
 180              		.loc 1 104 0 is_stmt 1
 181 0076 154B     		ldr	r3, .L19+4
 182 0078 9E42     		cmp	r6, r3
 183 007a 03D1     		bne	.L16
 184              	.L15:
 105:..\..\..\arduinoLCD\test\Pain Drain\libraries\lvgl\src\font/lv_font.c ****        letter == 0x200c) { /*ZERO WIDTH NON-JOINER*/
 106:..\..\..\arduinoLCD\test\Pain Drain\libraries\lvgl\src\font/lv_font.c ****         dsc_out->box_w = 0;
 185              		.loc 1 106 0
 186 007c 0023     		movs	r3, #0
 187 007e EB80     		strh	r3, [r5, #6]
 107:..\..\..\arduinoLCD\test\Pain Drain\libraries\lvgl\src\font/lv_font.c ****         dsc_out->adv_w = 0;
 188              		.loc 1 107 0
 189 0080 AB80     		strh	r3, [r5, #4]
 190 0082 09E0     		b	.L17
 191              	.L16:
 108:..\..\..\arduinoLCD\test\Pain Drain\libraries\lvgl\src\font/lv_font.c ****     }
 109:..\..\..\arduinoLCD\test\Pain Drain\libraries\lvgl\src\font/lv_font.c ****     else {
 110:..\..\..\arduinoLCD\test\Pain Drain\libraries\lvgl\src\font/lv_font.c **** #if LV_USE_FONT_PLACEHOLDER
 111:..\..\..\arduinoLCD\test\Pain Drain\libraries\lvgl\src\font/lv_font.c ****         dsc_out->box_w = font_p->line_height / 2;
 192              		.loc 1 111 0
 193 0084 4346     		mov	r3, r8
 194 0086 0822     		movs	r2, #8
 195 0088 9B5E     		ldrsh	r3, [r3, r2]
 196 008a DA0F     		lsrs	r2, r3, #31
 197 008c D318     		adds	r3, r2, r3
 198 008e 5B10     		asrs	r3, r3, #1
 199 0090 9BB2     		uxth	r3, r3
 200 0092 EB80     		strh	r3, [r5, #6]
 112:..\..\..\arduinoLCD\test\Pain Drain\libraries\lvgl\src\font/lv_font.c ****         dsc_out->adv_w = dsc_out->box_w + 2;
 201              		.loc 1 112 0
 202 0094 0233     		adds	r3, r3, #2
 203 0096 AB80     		strh	r3, [r5, #4]
 204              	.L17:
 113:..\..\..\arduinoLCD\test\Pain Drain\libraries\lvgl\src\font/lv_font.c **** #else
 114:..\..\..\arduinoLCD\test\Pain Drain\libraries\lvgl\src\font/lv_font.c ****         dsc_out->box_w = 0;
 115:..\..\..\arduinoLCD\test\Pain Drain\libraries\lvgl\src\font/lv_font.c ****         dsc_out->adv_w = 0;
 116:..\..\..\arduinoLCD\test\Pain Drain\libraries\lvgl\src\font/lv_font.c **** #endif
 117:..\..\..\arduinoLCD\test\Pain Drain\libraries\lvgl\src\font/lv_font.c ****     }
 118:..\..\..\arduinoLCD\test\Pain Drain\libraries\lvgl\src\font/lv_font.c **** 
 119:..\..\..\arduinoLCD\test\Pain Drain\libraries\lvgl\src\font/lv_font.c ****     dsc_out->resolved_font = NULL;
 205              		.loc 1 119 0
 206 0098 0023     		movs	r3, #0
 207 009a 2B60     		str	r3, [r5]
 120:..\..\..\arduinoLCD\test\Pain Drain\libraries\lvgl\src\font/lv_font.c ****     dsc_out->box_h = font_p->line_height;
 208              		.loc 1 120 0
 209 009c 4246     		mov	r2, r8
 210 009e 0821     		movs	r1, #8
 211 00a0 525E     		ldrsh	r2, [r2, r1]
 212 00a2 2A81     		strh	r2, [r5, #8]
 121:..\..\..\arduinoLCD\test\Pain Drain\libraries\lvgl\src\font/lv_font.c ****     dsc_out->ofs_x = 0;
 213              		.loc 1 121 0
 214 00a4 6B81     		strh	r3, [r5, #10]
 122:..\..\..\arduinoLCD\test\Pain Drain\libraries\lvgl\src\font/lv_font.c ****     dsc_out->ofs_y = 0;
 215              		.loc 1 122 0
 216 00a6 AB81     		strh	r3, [r5, #12]
 123:..\..\..\arduinoLCD\test\Pain Drain\libraries\lvgl\src\font/lv_font.c ****     dsc_out->bpp   = 1;
ARM GAS  C:\Users\haske\AppData\Local\Temp\ccO4eRZa.s 			page 7


 217              		.loc 1 123 0
 218 00a8 AB7B     		ldrb	r3, [r5, #14]
 219 00aa 0F22     		movs	r2, #15
 220 00ac 9343     		bics	r3, r2
 221 00ae 1A00     		movs	r2, r3
 222 00b0 0123     		movs	r3, #1
 223 00b2 1343     		orrs	r3, r2
 124:..\..\..\arduinoLCD\test\Pain Drain\libraries\lvgl\src\font/lv_font.c ****     dsc_out->is_placeholder = true;
 224              		.loc 1 124 0
 225 00b4 DBB2     		uxtb	r3, r3
 226 00b6 1022     		movs	r2, #16
 227 00b8 1343     		orrs	r3, r2
 228 00ba AB73     		strb	r3, [r5, #14]
 125:..\..\..\arduinoLCD\test\Pain Drain\libraries\lvgl\src\font/lv_font.c **** 
 126:..\..\..\arduinoLCD\test\Pain Drain\libraries\lvgl\src\font/lv_font.c ****     return false;
 229              		.loc 1 126 0
 230 00bc 0020     		movs	r0, #0
 231              	.LVL16:
 232              	.L12:
 127:..\..\..\arduinoLCD\test\Pain Drain\libraries\lvgl\src\font/lv_font.c **** }
 233              		.loc 1 127 0
 234 00be 03B0     		add	sp, sp, #12
 235              		@ sp needed
 236              	.LVL17:
 237              	.LVL18:
 238              	.LVL19:
 239              	.LVL20:
 240 00c0 0CBC     		pop	{r2, r3}
 241 00c2 9046     		mov	r8, r2
 242 00c4 9946     		mov	r9, r3
 243 00c6 F0BD     		pop	{r4, r5, r6, r7, pc}
 244              	.L20:
 245              		.align	2
 246              	.L19:
 247 00c8 FFF80000 		.word	63743
 248 00cc 0C200000 		.word	8204
 249              		.cfi_endproc
 250              	.LFE8:
 251              		.size	lv_font_get_glyph_dsc, .-lv_font_get_glyph_dsc
 252              		.section	.text.lv_font_get_glyph_width,"ax",%progbits
 253              		.align	2
 254              		.global	lv_font_get_glyph_width
 255              		.code	16
 256              		.thumb_func
 257              		.type	lv_font_get_glyph_width, %function
 258              	lv_font_get_glyph_width:
 259              	.LFB9:
 128:..\..\..\arduinoLCD\test\Pain Drain\libraries\lvgl\src\font/lv_font.c **** 
 129:..\..\..\arduinoLCD\test\Pain Drain\libraries\lvgl\src\font/lv_font.c **** /**
 130:..\..\..\arduinoLCD\test\Pain Drain\libraries\lvgl\src\font/lv_font.c ****  * Get the width of a glyph with kerning
 131:..\..\..\arduinoLCD\test\Pain Drain\libraries\lvgl\src\font/lv_font.c ****  * @param font pointer to a font
 132:..\..\..\arduinoLCD\test\Pain Drain\libraries\lvgl\src\font/lv_font.c ****  * @param letter a UNICODE letter
 133:..\..\..\arduinoLCD\test\Pain Drain\libraries\lvgl\src\font/lv_font.c ****  * @param letter_next the next letter after `letter`. Used for kerning
 134:..\..\..\arduinoLCD\test\Pain Drain\libraries\lvgl\src\font/lv_font.c ****  * @return the width of the glyph
 135:..\..\..\arduinoLCD\test\Pain Drain\libraries\lvgl\src\font/lv_font.c ****  */
 136:..\..\..\arduinoLCD\test\Pain Drain\libraries\lvgl\src\font/lv_font.c **** uint16_t lv_font_get_glyph_width(const lv_font_t * font, uint32_t letter, uint32_t letter_next)
 137:..\..\..\arduinoLCD\test\Pain Drain\libraries\lvgl\src\font/lv_font.c **** {
ARM GAS  C:\Users\haske\AppData\Local\Temp\ccO4eRZa.s 			page 8


 260              		.loc 1 137 0
 261              		.cfi_startproc
 262              		@ args = 0, pretend = 0, frame = 16
 263              		@ frame_needed = 0, uses_anonymous_args = 0
 264              	.LVL21:
 265 0000 00B5     		push	{lr}
 266              		.cfi_def_cfa_offset 4
 267              		.cfi_offset 14, -4
 268 0002 85B0     		sub	sp, sp, #20
 269              		.cfi_def_cfa_offset 24
 270 0004 1300     		movs	r3, r2
 138:..\..\..\arduinoLCD\test\Pain Drain\libraries\lvgl\src\font/lv_font.c ****     LV_ASSERT_NULL(font);
 271              		.loc 1 138 0
 272 0006 0028     		cmp	r0, #0
 273 0008 00D1     		bne	.L22
 274              	.L23:
 275 000a FEE7     		b	.L23
 276              	.L22:
 139:..\..\..\arduinoLCD\test\Pain Drain\libraries\lvgl\src\font/lv_font.c ****     lv_font_glyph_dsc_t g;
 140:..\..\..\arduinoLCD\test\Pain Drain\libraries\lvgl\src\font/lv_font.c ****     lv_font_get_glyph_dsc(font, &g, letter, letter_next);
 277              		.loc 1 140 0
 278 000c 0A00     		movs	r2, r1
 279              	.LVL22:
 280 000e 6946     		mov	r1, sp
 281              	.LVL23:
 282 0010 FFF7FEFF 		bl	lv_font_get_glyph_dsc
 283              	.LVL24:
 141:..\..\..\arduinoLCD\test\Pain Drain\libraries\lvgl\src\font/lv_font.c ****     return g.adv_w;
 284              		.loc 1 141 0
 285 0014 6B46     		mov	r3, sp
 286 0016 9888     		ldrh	r0, [r3, #4]
 142:..\..\..\arduinoLCD\test\Pain Drain\libraries\lvgl\src\font/lv_font.c **** }
 287              		.loc 1 142 0
 288 0018 05B0     		add	sp, sp, #20
 289              		@ sp needed
 290 001a 00BD     		pop	{pc}
 291              		.cfi_endproc
 292              	.LFE9:
 293              		.size	lv_font_get_glyph_width, .-lv_font_get_glyph_width
 294              		.text
 295              	.Letext0:
 296              		.file 2 "c:\\program files (x86)\\cypress\\psoc creator\\4.4\\psoc creator\\import\\gnu\\arm\\5.4.
 297              		.file 3 "c:\\program files (x86)\\cypress\\psoc creator\\4.4\\psoc creator\\import\\gnu\\arm\\5.4.
 298              		.file 4 "..\\..\\..\\arduinoLCD\\test\\Pain Drain\\libraries\\lvgl\\src\\font\\../misc/lv_area.h"
 299              		.file 5 "..\\..\\..\\arduinoLCD\\test\\Pain Drain\\libraries\\lvgl\\src\\font\\lv_font.h"