ARM GAS  C:\Users\haske\AppData\Local\Temp\ccHGZgRG.s 			page 1


   1              		.syntax unified
   2              		.cpu cortex-m0plus
   3              		.fpu softvfp
   4              		.eabi_attribute 20, 1
   5              		.eabi_attribute 21, 1
   6              		.eabi_attribute 23, 3
   7              		.eabi_attribute 24, 1
   8              		.eabi_attribute 25, 1
   9              		.eabi_attribute 26, 1
  10              		.eabi_attribute 30, 1
  11              		.eabi_attribute 34, 0
  12              		.eabi_attribute 18, 4
  13              		.thumb
  14              		.syntax unified
  15              		.file	"lv_group.c"
  16              		.text
  17              	.Ltext0:
  18              		.cfi_sections	.debug_frame
  19              		.section	.text.get_indev,"ax",%progbits
  20              		.align	2
  21              		.code	16
  22              		.thumb_func
  23              		.type	get_indev, %function
  24              	get_indev:
  25              	.LFB186:
  26              		.file 1 "..\\..\\..\\arduinoLCD\\test\\Pain Drain\\libraries\\lvgl\\src\\core\\lv_group.c"
   1:..\..\..\arduinoLCD\test\Pain Drain\libraries\lvgl\src\core/lv_group.c **** /**
   2:..\..\..\arduinoLCD\test\Pain Drain\libraries\lvgl\src\core/lv_group.c ****  * @file lv_group.c
   3:..\..\..\arduinoLCD\test\Pain Drain\libraries\lvgl\src\core/lv_group.c ****  *
   4:..\..\..\arduinoLCD\test\Pain Drain\libraries\lvgl\src\core/lv_group.c ****  */
   5:..\..\..\arduinoLCD\test\Pain Drain\libraries\lvgl\src\core/lv_group.c **** 
   6:..\..\..\arduinoLCD\test\Pain Drain\libraries\lvgl\src\core/lv_group.c **** /*********************
   7:..\..\..\arduinoLCD\test\Pain Drain\libraries\lvgl\src\core/lv_group.c ****  *      INCLUDES
   8:..\..\..\arduinoLCD\test\Pain Drain\libraries\lvgl\src\core/lv_group.c ****  *********************/
   9:..\..\..\arduinoLCD\test\Pain Drain\libraries\lvgl\src\core/lv_group.c **** #include <stddef.h>
  10:..\..\..\arduinoLCD\test\Pain Drain\libraries\lvgl\src\core/lv_group.c **** 
  11:..\..\..\arduinoLCD\test\Pain Drain\libraries\lvgl\src\core/lv_group.c **** #include "lv_group.h"
  12:..\..\..\arduinoLCD\test\Pain Drain\libraries\lvgl\src\core/lv_group.c **** #include "../misc/lv_gc.h"
  13:..\..\..\arduinoLCD\test\Pain Drain\libraries\lvgl\src\core/lv_group.c **** #include "../core/lv_obj.h"
  14:..\..\..\arduinoLCD\test\Pain Drain\libraries\lvgl\src\core/lv_group.c **** #include "../core/lv_indev.h"
  15:..\..\..\arduinoLCD\test\Pain Drain\libraries\lvgl\src\core/lv_group.c **** 
  16:..\..\..\arduinoLCD\test\Pain Drain\libraries\lvgl\src\core/lv_group.c **** /*********************
  17:..\..\..\arduinoLCD\test\Pain Drain\libraries\lvgl\src\core/lv_group.c ****  *      DEFINES
  18:..\..\..\arduinoLCD\test\Pain Drain\libraries\lvgl\src\core/lv_group.c ****  *********************/
  19:..\..\..\arduinoLCD\test\Pain Drain\libraries\lvgl\src\core/lv_group.c **** 
  20:..\..\..\arduinoLCD\test\Pain Drain\libraries\lvgl\src\core/lv_group.c **** /**********************
  21:..\..\..\arduinoLCD\test\Pain Drain\libraries\lvgl\src\core/lv_group.c ****  *      TYPEDEFS
  22:..\..\..\arduinoLCD\test\Pain Drain\libraries\lvgl\src\core/lv_group.c ****  **********************/
  23:..\..\..\arduinoLCD\test\Pain Drain\libraries\lvgl\src\core/lv_group.c **** 
  24:..\..\..\arduinoLCD\test\Pain Drain\libraries\lvgl\src\core/lv_group.c **** /**********************
  25:..\..\..\arduinoLCD\test\Pain Drain\libraries\lvgl\src\core/lv_group.c ****  *  STATIC PROTOTYPES
  26:..\..\..\arduinoLCD\test\Pain Drain\libraries\lvgl\src\core/lv_group.c ****  **********************/
  27:..\..\..\arduinoLCD\test\Pain Drain\libraries\lvgl\src\core/lv_group.c **** static bool focus_next_core(lv_group_t * group, void * (*begin)(const lv_ll_t *),
  28:..\..\..\arduinoLCD\test\Pain Drain\libraries\lvgl\src\core/lv_group.c ****                             void * (*move)(const lv_ll_t *, const void *));
  29:..\..\..\arduinoLCD\test\Pain Drain\libraries\lvgl\src\core/lv_group.c **** static void lv_group_refocus(lv_group_t * g);
  30:..\..\..\arduinoLCD\test\Pain Drain\libraries\lvgl\src\core/lv_group.c **** static lv_indev_t * get_indev(const lv_group_t * g);
  31:..\..\..\arduinoLCD\test\Pain Drain\libraries\lvgl\src\core/lv_group.c **** 
ARM GAS  C:\Users\haske\AppData\Local\Temp\ccHGZgRG.s 			page 2


  32:..\..\..\arduinoLCD\test\Pain Drain\libraries\lvgl\src\core/lv_group.c **** /**********************
  33:..\..\..\arduinoLCD\test\Pain Drain\libraries\lvgl\src\core/lv_group.c ****  *  STATIC VARIABLES
  34:..\..\..\arduinoLCD\test\Pain Drain\libraries\lvgl\src\core/lv_group.c ****  **********************/
  35:..\..\..\arduinoLCD\test\Pain Drain\libraries\lvgl\src\core/lv_group.c **** static lv_group_t * default_group;
  36:..\..\..\arduinoLCD\test\Pain Drain\libraries\lvgl\src\core/lv_group.c **** 
  37:..\..\..\arduinoLCD\test\Pain Drain\libraries\lvgl\src\core/lv_group.c **** /**********************
  38:..\..\..\arduinoLCD\test\Pain Drain\libraries\lvgl\src\core/lv_group.c ****  *      MACROS
  39:..\..\..\arduinoLCD\test\Pain Drain\libraries\lvgl\src\core/lv_group.c ****  **********************/
  40:..\..\..\arduinoLCD\test\Pain Drain\libraries\lvgl\src\core/lv_group.c **** 
  41:..\..\..\arduinoLCD\test\Pain Drain\libraries\lvgl\src\core/lv_group.c **** /**********************
  42:..\..\..\arduinoLCD\test\Pain Drain\libraries\lvgl\src\core/lv_group.c ****  *   GLOBAL FUNCTIONS
  43:..\..\..\arduinoLCD\test\Pain Drain\libraries\lvgl\src\core/lv_group.c ****  **********************/
  44:..\..\..\arduinoLCD\test\Pain Drain\libraries\lvgl\src\core/lv_group.c **** 
  45:..\..\..\arduinoLCD\test\Pain Drain\libraries\lvgl\src\core/lv_group.c **** void _lv_group_init(void)
  46:..\..\..\arduinoLCD\test\Pain Drain\libraries\lvgl\src\core/lv_group.c **** {
  47:..\..\..\arduinoLCD\test\Pain Drain\libraries\lvgl\src\core/lv_group.c ****     _lv_ll_init(&LV_GC_ROOT(_lv_group_ll), sizeof(lv_group_t));
  48:..\..\..\arduinoLCD\test\Pain Drain\libraries\lvgl\src\core/lv_group.c **** }
  49:..\..\..\arduinoLCD\test\Pain Drain\libraries\lvgl\src\core/lv_group.c **** 
  50:..\..\..\arduinoLCD\test\Pain Drain\libraries\lvgl\src\core/lv_group.c **** lv_group_t * lv_group_create(void)
  51:..\..\..\arduinoLCD\test\Pain Drain\libraries\lvgl\src\core/lv_group.c **** {
  52:..\..\..\arduinoLCD\test\Pain Drain\libraries\lvgl\src\core/lv_group.c ****     lv_group_t * group = _lv_ll_ins_head(&LV_GC_ROOT(_lv_group_ll));
  53:..\..\..\arduinoLCD\test\Pain Drain\libraries\lvgl\src\core/lv_group.c ****     LV_ASSERT_MALLOC(group);
  54:..\..\..\arduinoLCD\test\Pain Drain\libraries\lvgl\src\core/lv_group.c ****     if(group == NULL) return NULL;
  55:..\..\..\arduinoLCD\test\Pain Drain\libraries\lvgl\src\core/lv_group.c ****     _lv_ll_init(&group->obj_ll, sizeof(lv_obj_t *));
  56:..\..\..\arduinoLCD\test\Pain Drain\libraries\lvgl\src\core/lv_group.c **** 
  57:..\..\..\arduinoLCD\test\Pain Drain\libraries\lvgl\src\core/lv_group.c ****     group->obj_focus      = NULL;
  58:..\..\..\arduinoLCD\test\Pain Drain\libraries\lvgl\src\core/lv_group.c ****     group->frozen         = 0;
  59:..\..\..\arduinoLCD\test\Pain Drain\libraries\lvgl\src\core/lv_group.c ****     group->focus_cb       = NULL;
  60:..\..\..\arduinoLCD\test\Pain Drain\libraries\lvgl\src\core/lv_group.c ****     group->edge_cb        = NULL;
  61:..\..\..\arduinoLCD\test\Pain Drain\libraries\lvgl\src\core/lv_group.c ****     group->editing        = 0;
  62:..\..\..\arduinoLCD\test\Pain Drain\libraries\lvgl\src\core/lv_group.c ****     group->refocus_policy = LV_GROUP_REFOCUS_POLICY_PREV;
  63:..\..\..\arduinoLCD\test\Pain Drain\libraries\lvgl\src\core/lv_group.c ****     group->wrap           = 1;
  64:..\..\..\arduinoLCD\test\Pain Drain\libraries\lvgl\src\core/lv_group.c **** 
  65:..\..\..\arduinoLCD\test\Pain Drain\libraries\lvgl\src\core/lv_group.c **** #if LV_USE_USER_DATA
  66:..\..\..\arduinoLCD\test\Pain Drain\libraries\lvgl\src\core/lv_group.c ****     group->user_data = NULL;
  67:..\..\..\arduinoLCD\test\Pain Drain\libraries\lvgl\src\core/lv_group.c **** #endif
  68:..\..\..\arduinoLCD\test\Pain Drain\libraries\lvgl\src\core/lv_group.c **** 
  69:..\..\..\arduinoLCD\test\Pain Drain\libraries\lvgl\src\core/lv_group.c ****     return group;
  70:..\..\..\arduinoLCD\test\Pain Drain\libraries\lvgl\src\core/lv_group.c **** }
  71:..\..\..\arduinoLCD\test\Pain Drain\libraries\lvgl\src\core/lv_group.c **** 
  72:..\..\..\arduinoLCD\test\Pain Drain\libraries\lvgl\src\core/lv_group.c **** void lv_group_del(lv_group_t * group)
  73:..\..\..\arduinoLCD\test\Pain Drain\libraries\lvgl\src\core/lv_group.c **** {
  74:..\..\..\arduinoLCD\test\Pain Drain\libraries\lvgl\src\core/lv_group.c ****     /*Defocus the currently focused object*/
  75:..\..\..\arduinoLCD\test\Pain Drain\libraries\lvgl\src\core/lv_group.c ****     if(group->obj_focus != NULL) {
  76:..\..\..\arduinoLCD\test\Pain Drain\libraries\lvgl\src\core/lv_group.c ****         lv_event_send(*group->obj_focus, LV_EVENT_DEFOCUSED, get_indev(group));
  77:..\..\..\arduinoLCD\test\Pain Drain\libraries\lvgl\src\core/lv_group.c ****         lv_obj_invalidate(*group->obj_focus);
  78:..\..\..\arduinoLCD\test\Pain Drain\libraries\lvgl\src\core/lv_group.c ****     }
  79:..\..\..\arduinoLCD\test\Pain Drain\libraries\lvgl\src\core/lv_group.c **** 
  80:..\..\..\arduinoLCD\test\Pain Drain\libraries\lvgl\src\core/lv_group.c ****     /*Remove the objects from the group*/
  81:..\..\..\arduinoLCD\test\Pain Drain\libraries\lvgl\src\core/lv_group.c ****     lv_obj_t ** obj;
  82:..\..\..\arduinoLCD\test\Pain Drain\libraries\lvgl\src\core/lv_group.c ****     _LV_LL_READ(&group->obj_ll, obj) {
  83:..\..\..\arduinoLCD\test\Pain Drain\libraries\lvgl\src\core/lv_group.c ****         if((*obj)->spec_attr)(*obj)->spec_attr->group_p = NULL;
  84:..\..\..\arduinoLCD\test\Pain Drain\libraries\lvgl\src\core/lv_group.c ****     }
  85:..\..\..\arduinoLCD\test\Pain Drain\libraries\lvgl\src\core/lv_group.c **** 
  86:..\..\..\arduinoLCD\test\Pain Drain\libraries\lvgl\src\core/lv_group.c ****     /*Remove the group from any indev devices */
  87:..\..\..\arduinoLCD\test\Pain Drain\libraries\lvgl\src\core/lv_group.c ****     lv_indev_t * indev = lv_indev_get_next(NULL);
  88:..\..\..\arduinoLCD\test\Pain Drain\libraries\lvgl\src\core/lv_group.c ****     while(indev) {
ARM GAS  C:\Users\haske\AppData\Local\Temp\ccHGZgRG.s 			page 3


  89:..\..\..\arduinoLCD\test\Pain Drain\libraries\lvgl\src\core/lv_group.c ****         if(indev->group == group) {
  90:..\..\..\arduinoLCD\test\Pain Drain\libraries\lvgl\src\core/lv_group.c ****             lv_indev_set_group(indev, NULL);
  91:..\..\..\arduinoLCD\test\Pain Drain\libraries\lvgl\src\core/lv_group.c ****         }
  92:..\..\..\arduinoLCD\test\Pain Drain\libraries\lvgl\src\core/lv_group.c ****         indev = lv_indev_get_next(indev);
  93:..\..\..\arduinoLCD\test\Pain Drain\libraries\lvgl\src\core/lv_group.c ****     }
  94:..\..\..\arduinoLCD\test\Pain Drain\libraries\lvgl\src\core/lv_group.c **** 
  95:..\..\..\arduinoLCD\test\Pain Drain\libraries\lvgl\src\core/lv_group.c ****     if(default_group == group) default_group = NULL;
  96:..\..\..\arduinoLCD\test\Pain Drain\libraries\lvgl\src\core/lv_group.c ****     _lv_ll_clear(&(group->obj_ll));
  97:..\..\..\arduinoLCD\test\Pain Drain\libraries\lvgl\src\core/lv_group.c ****     _lv_ll_remove(&LV_GC_ROOT(_lv_group_ll), group);
  98:..\..\..\arduinoLCD\test\Pain Drain\libraries\lvgl\src\core/lv_group.c ****     lv_mem_free(group);
  99:..\..\..\arduinoLCD\test\Pain Drain\libraries\lvgl\src\core/lv_group.c **** }
 100:..\..\..\arduinoLCD\test\Pain Drain\libraries\lvgl\src\core/lv_group.c **** 
 101:..\..\..\arduinoLCD\test\Pain Drain\libraries\lvgl\src\core/lv_group.c **** void lv_group_set_default(lv_group_t * group)
 102:..\..\..\arduinoLCD\test\Pain Drain\libraries\lvgl\src\core/lv_group.c **** {
 103:..\..\..\arduinoLCD\test\Pain Drain\libraries\lvgl\src\core/lv_group.c ****     default_group = group;
 104:..\..\..\arduinoLCD\test\Pain Drain\libraries\lvgl\src\core/lv_group.c **** }
 105:..\..\..\arduinoLCD\test\Pain Drain\libraries\lvgl\src\core/lv_group.c **** 
 106:..\..\..\arduinoLCD\test\Pain Drain\libraries\lvgl\src\core/lv_group.c **** lv_group_t * lv_group_get_default(void)
 107:..\..\..\arduinoLCD\test\Pain Drain\libraries\lvgl\src\core/lv_group.c **** {
 108:..\..\..\arduinoLCD\test\Pain Drain\libraries\lvgl\src\core/lv_group.c ****     return default_group;
 109:..\..\..\arduinoLCD\test\Pain Drain\libraries\lvgl\src\core/lv_group.c **** }
 110:..\..\..\arduinoLCD\test\Pain Drain\libraries\lvgl\src\core/lv_group.c **** 
 111:..\..\..\arduinoLCD\test\Pain Drain\libraries\lvgl\src\core/lv_group.c **** void lv_group_add_obj(lv_group_t * group, lv_obj_t * obj)
 112:..\..\..\arduinoLCD\test\Pain Drain\libraries\lvgl\src\core/lv_group.c **** {
 113:..\..\..\arduinoLCD\test\Pain Drain\libraries\lvgl\src\core/lv_group.c ****     if(group == NULL) return;
 114:..\..\..\arduinoLCD\test\Pain Drain\libraries\lvgl\src\core/lv_group.c **** 
 115:..\..\..\arduinoLCD\test\Pain Drain\libraries\lvgl\src\core/lv_group.c ****     LV_LOG_TRACE("begin");
 116:..\..\..\arduinoLCD\test\Pain Drain\libraries\lvgl\src\core/lv_group.c **** 
 117:..\..\..\arduinoLCD\test\Pain Drain\libraries\lvgl\src\core/lv_group.c ****     /*Be sure the object is removed from its current group*/
 118:..\..\..\arduinoLCD\test\Pain Drain\libraries\lvgl\src\core/lv_group.c ****     lv_group_remove_obj(obj);
 119:..\..\..\arduinoLCD\test\Pain Drain\libraries\lvgl\src\core/lv_group.c **** 
 120:..\..\..\arduinoLCD\test\Pain Drain\libraries\lvgl\src\core/lv_group.c ****     /*Do not add the object twice*/
 121:..\..\..\arduinoLCD\test\Pain Drain\libraries\lvgl\src\core/lv_group.c ****     lv_obj_t ** obj_i;
 122:..\..\..\arduinoLCD\test\Pain Drain\libraries\lvgl\src\core/lv_group.c ****     _LV_LL_READ(&group->obj_ll, obj_i) {
 123:..\..\..\arduinoLCD\test\Pain Drain\libraries\lvgl\src\core/lv_group.c ****         if((*obj_i) == obj) {
 124:..\..\..\arduinoLCD\test\Pain Drain\libraries\lvgl\src\core/lv_group.c ****             LV_LOG_INFO("the object is already added to this group");
 125:..\..\..\arduinoLCD\test\Pain Drain\libraries\lvgl\src\core/lv_group.c ****             return;
 126:..\..\..\arduinoLCD\test\Pain Drain\libraries\lvgl\src\core/lv_group.c ****         }
 127:..\..\..\arduinoLCD\test\Pain Drain\libraries\lvgl\src\core/lv_group.c ****     }
 128:..\..\..\arduinoLCD\test\Pain Drain\libraries\lvgl\src\core/lv_group.c **** 
 129:..\..\..\arduinoLCD\test\Pain Drain\libraries\lvgl\src\core/lv_group.c ****     /*If the object is already in a group and focused then refocus it*/
 130:..\..\..\arduinoLCD\test\Pain Drain\libraries\lvgl\src\core/lv_group.c ****     lv_group_t * group_cur = lv_obj_get_group(obj);
 131:..\..\..\arduinoLCD\test\Pain Drain\libraries\lvgl\src\core/lv_group.c ****     if(group_cur) {
 132:..\..\..\arduinoLCD\test\Pain Drain\libraries\lvgl\src\core/lv_group.c ****         if(obj->spec_attr->group_p && *(obj->spec_attr->group_p->obj_focus) == obj) {
 133:..\..\..\arduinoLCD\test\Pain Drain\libraries\lvgl\src\core/lv_group.c ****             lv_group_refocus(group_cur);
 134:..\..\..\arduinoLCD\test\Pain Drain\libraries\lvgl\src\core/lv_group.c **** 
 135:..\..\..\arduinoLCD\test\Pain Drain\libraries\lvgl\src\core/lv_group.c ****             LV_LOG_INFO("changing object's group");
 136:..\..\..\arduinoLCD\test\Pain Drain\libraries\lvgl\src\core/lv_group.c ****         }
 137:..\..\..\arduinoLCD\test\Pain Drain\libraries\lvgl\src\core/lv_group.c ****     }
 138:..\..\..\arduinoLCD\test\Pain Drain\libraries\lvgl\src\core/lv_group.c **** 
 139:..\..\..\arduinoLCD\test\Pain Drain\libraries\lvgl\src\core/lv_group.c ****     if(obj->spec_attr == NULL) lv_obj_allocate_spec_attr(obj);
 140:..\..\..\arduinoLCD\test\Pain Drain\libraries\lvgl\src\core/lv_group.c ****     obj->spec_attr->group_p = group;
 141:..\..\..\arduinoLCD\test\Pain Drain\libraries\lvgl\src\core/lv_group.c **** 
 142:..\..\..\arduinoLCD\test\Pain Drain\libraries\lvgl\src\core/lv_group.c ****     lv_obj_t ** next = _lv_ll_ins_tail(&group->obj_ll);
 143:..\..\..\arduinoLCD\test\Pain Drain\libraries\lvgl\src\core/lv_group.c ****     LV_ASSERT_MALLOC(next);
 144:..\..\..\arduinoLCD\test\Pain Drain\libraries\lvgl\src\core/lv_group.c ****     if(next == NULL) return;
 145:..\..\..\arduinoLCD\test\Pain Drain\libraries\lvgl\src\core/lv_group.c ****     *next = obj;
ARM GAS  C:\Users\haske\AppData\Local\Temp\ccHGZgRG.s 			page 4


 146:..\..\..\arduinoLCD\test\Pain Drain\libraries\lvgl\src\core/lv_group.c **** 
 147:..\..\..\arduinoLCD\test\Pain Drain\libraries\lvgl\src\core/lv_group.c ****     /*If the head and the tail is equal then there is only one object in the linked list.
 148:..\..\..\arduinoLCD\test\Pain Drain\libraries\lvgl\src\core/lv_group.c ****      *In this case automatically activate it*/
 149:..\..\..\arduinoLCD\test\Pain Drain\libraries\lvgl\src\core/lv_group.c ****     if(_lv_ll_get_head(&group->obj_ll) == next) {
 150:..\..\..\arduinoLCD\test\Pain Drain\libraries\lvgl\src\core/lv_group.c ****         lv_group_refocus(group);
 151:..\..\..\arduinoLCD\test\Pain Drain\libraries\lvgl\src\core/lv_group.c ****     }
 152:..\..\..\arduinoLCD\test\Pain Drain\libraries\lvgl\src\core/lv_group.c **** 
 153:..\..\..\arduinoLCD\test\Pain Drain\libraries\lvgl\src\core/lv_group.c ****     LV_LOG_TRACE("finished");
 154:..\..\..\arduinoLCD\test\Pain Drain\libraries\lvgl\src\core/lv_group.c **** }
 155:..\..\..\arduinoLCD\test\Pain Drain\libraries\lvgl\src\core/lv_group.c **** 
 156:..\..\..\arduinoLCD\test\Pain Drain\libraries\lvgl\src\core/lv_group.c **** void lv_group_swap_obj(lv_obj_t * obj1, lv_obj_t * obj2)
 157:..\..\..\arduinoLCD\test\Pain Drain\libraries\lvgl\src\core/lv_group.c **** {
 158:..\..\..\arduinoLCD\test\Pain Drain\libraries\lvgl\src\core/lv_group.c ****     lv_group_t * g1 = lv_obj_get_group(obj1);
 159:..\..\..\arduinoLCD\test\Pain Drain\libraries\lvgl\src\core/lv_group.c ****     lv_group_t * g2 = lv_obj_get_group(obj2);
 160:..\..\..\arduinoLCD\test\Pain Drain\libraries\lvgl\src\core/lv_group.c ****     if(g1 != g2) return;
 161:..\..\..\arduinoLCD\test\Pain Drain\libraries\lvgl\src\core/lv_group.c ****     if(g1 == NULL) return;
 162:..\..\..\arduinoLCD\test\Pain Drain\libraries\lvgl\src\core/lv_group.c **** 
 163:..\..\..\arduinoLCD\test\Pain Drain\libraries\lvgl\src\core/lv_group.c ****     /*Do not add the object twice*/
 164:..\..\..\arduinoLCD\test\Pain Drain\libraries\lvgl\src\core/lv_group.c ****     lv_obj_t ** obj_i;
 165:..\..\..\arduinoLCD\test\Pain Drain\libraries\lvgl\src\core/lv_group.c ****     _LV_LL_READ(&g1->obj_ll, obj_i) {
 166:..\..\..\arduinoLCD\test\Pain Drain\libraries\lvgl\src\core/lv_group.c ****         if((*obj_i) == obj1)(*obj_i) = obj2;
 167:..\..\..\arduinoLCD\test\Pain Drain\libraries\lvgl\src\core/lv_group.c ****         else if((*obj_i) == obj2)(*obj_i) = obj1;
 168:..\..\..\arduinoLCD\test\Pain Drain\libraries\lvgl\src\core/lv_group.c ****     }
 169:..\..\..\arduinoLCD\test\Pain Drain\libraries\lvgl\src\core/lv_group.c **** 
 170:..\..\..\arduinoLCD\test\Pain Drain\libraries\lvgl\src\core/lv_group.c ****     if(*g1->obj_focus == obj1) lv_group_focus_obj(obj2);
 171:..\..\..\arduinoLCD\test\Pain Drain\libraries\lvgl\src\core/lv_group.c ****     else if(*g1->obj_focus == obj2) lv_group_focus_obj(obj1);
 172:..\..\..\arduinoLCD\test\Pain Drain\libraries\lvgl\src\core/lv_group.c **** 
 173:..\..\..\arduinoLCD\test\Pain Drain\libraries\lvgl\src\core/lv_group.c **** }
 174:..\..\..\arduinoLCD\test\Pain Drain\libraries\lvgl\src\core/lv_group.c **** 
 175:..\..\..\arduinoLCD\test\Pain Drain\libraries\lvgl\src\core/lv_group.c **** void lv_group_remove_obj(lv_obj_t * obj)
 176:..\..\..\arduinoLCD\test\Pain Drain\libraries\lvgl\src\core/lv_group.c **** {
 177:..\..\..\arduinoLCD\test\Pain Drain\libraries\lvgl\src\core/lv_group.c ****     lv_group_t * g = lv_obj_get_group(obj);
 178:..\..\..\arduinoLCD\test\Pain Drain\libraries\lvgl\src\core/lv_group.c ****     if(g == NULL) return;
 179:..\..\..\arduinoLCD\test\Pain Drain\libraries\lvgl\src\core/lv_group.c **** 
 180:..\..\..\arduinoLCD\test\Pain Drain\libraries\lvgl\src\core/lv_group.c ****     LV_LOG_TRACE("begin");
 181:..\..\..\arduinoLCD\test\Pain Drain\libraries\lvgl\src\core/lv_group.c **** 
 182:..\..\..\arduinoLCD\test\Pain Drain\libraries\lvgl\src\core/lv_group.c ****     /*Focus on the next object*/
 183:..\..\..\arduinoLCD\test\Pain Drain\libraries\lvgl\src\core/lv_group.c ****     if(g->obj_focus && *g->obj_focus == obj) {
 184:..\..\..\arduinoLCD\test\Pain Drain\libraries\lvgl\src\core/lv_group.c ****         if(g->frozen) g->frozen = 0;
 185:..\..\..\arduinoLCD\test\Pain Drain\libraries\lvgl\src\core/lv_group.c **** 
 186:..\..\..\arduinoLCD\test\Pain Drain\libraries\lvgl\src\core/lv_group.c ****         /*If this is the only object in the group then focus to nothing.*/
 187:..\..\..\arduinoLCD\test\Pain Drain\libraries\lvgl\src\core/lv_group.c ****         if(_lv_ll_get_head(&g->obj_ll) == g->obj_focus && _lv_ll_get_tail(&g->obj_ll) == g->obj_foc
 188:..\..\..\arduinoLCD\test\Pain Drain\libraries\lvgl\src\core/lv_group.c ****             lv_event_send(*g->obj_focus, LV_EVENT_DEFOCUSED, get_indev(g));
 189:..\..\..\arduinoLCD\test\Pain Drain\libraries\lvgl\src\core/lv_group.c ****         }
 190:..\..\..\arduinoLCD\test\Pain Drain\libraries\lvgl\src\core/lv_group.c ****         /*If there more objects in the group then focus to the next/prev object*/
 191:..\..\..\arduinoLCD\test\Pain Drain\libraries\lvgl\src\core/lv_group.c ****         else {
 192:..\..\..\arduinoLCD\test\Pain Drain\libraries\lvgl\src\core/lv_group.c ****             lv_group_refocus(g);
 193:..\..\..\arduinoLCD\test\Pain Drain\libraries\lvgl\src\core/lv_group.c ****         }
 194:..\..\..\arduinoLCD\test\Pain Drain\libraries\lvgl\src\core/lv_group.c ****     }
 195:..\..\..\arduinoLCD\test\Pain Drain\libraries\lvgl\src\core/lv_group.c **** 
 196:..\..\..\arduinoLCD\test\Pain Drain\libraries\lvgl\src\core/lv_group.c ****     /*If the focuses object is still the same then it was the only object in the group but it will
 197:..\..\..\arduinoLCD\test\Pain Drain\libraries\lvgl\src\core/lv_group.c ****      *be deleted. Set the `obj_focus` to NULL to get back to the initial state of the group with
 198:..\..\..\arduinoLCD\test\Pain Drain\libraries\lvgl\src\core/lv_group.c ****      *zero objects*/
 199:..\..\..\arduinoLCD\test\Pain Drain\libraries\lvgl\src\core/lv_group.c ****     if(g->obj_focus && *g->obj_focus == obj) {
 200:..\..\..\arduinoLCD\test\Pain Drain\libraries\lvgl\src\core/lv_group.c ****         g->obj_focus = NULL;
 201:..\..\..\arduinoLCD\test\Pain Drain\libraries\lvgl\src\core/lv_group.c ****     }
 202:..\..\..\arduinoLCD\test\Pain Drain\libraries\lvgl\src\core/lv_group.c **** 
ARM GAS  C:\Users\haske\AppData\Local\Temp\ccHGZgRG.s 			page 5


 203:..\..\..\arduinoLCD\test\Pain Drain\libraries\lvgl\src\core/lv_group.c ****     /*Search the object and remove it from its group*/
 204:..\..\..\arduinoLCD\test\Pain Drain\libraries\lvgl\src\core/lv_group.c ****     lv_obj_t ** i;
 205:..\..\..\arduinoLCD\test\Pain Drain\libraries\lvgl\src\core/lv_group.c ****     _LV_LL_READ(&g->obj_ll, i) {
 206:..\..\..\arduinoLCD\test\Pain Drain\libraries\lvgl\src\core/lv_group.c ****         if(*i == obj) {
 207:..\..\..\arduinoLCD\test\Pain Drain\libraries\lvgl\src\core/lv_group.c ****             _lv_ll_remove(&g->obj_ll, i);
 208:..\..\..\arduinoLCD\test\Pain Drain\libraries\lvgl\src\core/lv_group.c ****             lv_mem_free(i);
 209:..\..\..\arduinoLCD\test\Pain Drain\libraries\lvgl\src\core/lv_group.c ****             if(obj->spec_attr) obj->spec_attr->group_p = NULL;
 210:..\..\..\arduinoLCD\test\Pain Drain\libraries\lvgl\src\core/lv_group.c ****             break;
 211:..\..\..\arduinoLCD\test\Pain Drain\libraries\lvgl\src\core/lv_group.c ****         }
 212:..\..\..\arduinoLCD\test\Pain Drain\libraries\lvgl\src\core/lv_group.c ****     }
 213:..\..\..\arduinoLCD\test\Pain Drain\libraries\lvgl\src\core/lv_group.c ****     LV_LOG_TRACE("finished");
 214:..\..\..\arduinoLCD\test\Pain Drain\libraries\lvgl\src\core/lv_group.c **** }
 215:..\..\..\arduinoLCD\test\Pain Drain\libraries\lvgl\src\core/lv_group.c **** 
 216:..\..\..\arduinoLCD\test\Pain Drain\libraries\lvgl\src\core/lv_group.c **** void lv_group_remove_all_objs(lv_group_t * group)
 217:..\..\..\arduinoLCD\test\Pain Drain\libraries\lvgl\src\core/lv_group.c **** {
 218:..\..\..\arduinoLCD\test\Pain Drain\libraries\lvgl\src\core/lv_group.c ****     /*Defocus the currently focused object*/
 219:..\..\..\arduinoLCD\test\Pain Drain\libraries\lvgl\src\core/lv_group.c ****     if(group->obj_focus != NULL) {
 220:..\..\..\arduinoLCD\test\Pain Drain\libraries\lvgl\src\core/lv_group.c ****         lv_event_send(*group->obj_focus, LV_EVENT_DEFOCUSED, get_indev(group));
 221:..\..\..\arduinoLCD\test\Pain Drain\libraries\lvgl\src\core/lv_group.c ****         lv_obj_invalidate(*group->obj_focus);
 222:..\..\..\arduinoLCD\test\Pain Drain\libraries\lvgl\src\core/lv_group.c ****         group->obj_focus = NULL;
 223:..\..\..\arduinoLCD\test\Pain Drain\libraries\lvgl\src\core/lv_group.c ****     }
 224:..\..\..\arduinoLCD\test\Pain Drain\libraries\lvgl\src\core/lv_group.c **** 
 225:..\..\..\arduinoLCD\test\Pain Drain\libraries\lvgl\src\core/lv_group.c ****     /*Remove the objects from the group*/
 226:..\..\..\arduinoLCD\test\Pain Drain\libraries\lvgl\src\core/lv_group.c ****     lv_obj_t ** obj;
 227:..\..\..\arduinoLCD\test\Pain Drain\libraries\lvgl\src\core/lv_group.c ****     _LV_LL_READ(&group->obj_ll, obj) {
 228:..\..\..\arduinoLCD\test\Pain Drain\libraries\lvgl\src\core/lv_group.c ****         if((*obj)->spec_attr)(*obj)->spec_attr->group_p = NULL;
 229:..\..\..\arduinoLCD\test\Pain Drain\libraries\lvgl\src\core/lv_group.c ****     }
 230:..\..\..\arduinoLCD\test\Pain Drain\libraries\lvgl\src\core/lv_group.c **** 
 231:..\..\..\arduinoLCD\test\Pain Drain\libraries\lvgl\src\core/lv_group.c ****     _lv_ll_clear(&(group->obj_ll));
 232:..\..\..\arduinoLCD\test\Pain Drain\libraries\lvgl\src\core/lv_group.c **** }
 233:..\..\..\arduinoLCD\test\Pain Drain\libraries\lvgl\src\core/lv_group.c **** 
 234:..\..\..\arduinoLCD\test\Pain Drain\libraries\lvgl\src\core/lv_group.c **** void lv_group_focus_obj(lv_obj_t * obj)
 235:..\..\..\arduinoLCD\test\Pain Drain\libraries\lvgl\src\core/lv_group.c **** {
 236:..\..\..\arduinoLCD\test\Pain Drain\libraries\lvgl\src\core/lv_group.c ****     if(obj == NULL) return;
 237:..\..\..\arduinoLCD\test\Pain Drain\libraries\lvgl\src\core/lv_group.c ****     lv_group_t * g = lv_obj_get_group(obj);
 238:..\..\..\arduinoLCD\test\Pain Drain\libraries\lvgl\src\core/lv_group.c ****     if(g == NULL) return;
 239:..\..\..\arduinoLCD\test\Pain Drain\libraries\lvgl\src\core/lv_group.c **** 
 240:..\..\..\arduinoLCD\test\Pain Drain\libraries\lvgl\src\core/lv_group.c ****     if(g->frozen != 0) return;
 241:..\..\..\arduinoLCD\test\Pain Drain\libraries\lvgl\src\core/lv_group.c **** 
 242:..\..\..\arduinoLCD\test\Pain Drain\libraries\lvgl\src\core/lv_group.c ****     /*On defocus edit mode must be leaved*/
 243:..\..\..\arduinoLCD\test\Pain Drain\libraries\lvgl\src\core/lv_group.c ****     lv_group_set_editing(g, false);
 244:..\..\..\arduinoLCD\test\Pain Drain\libraries\lvgl\src\core/lv_group.c **** 
 245:..\..\..\arduinoLCD\test\Pain Drain\libraries\lvgl\src\core/lv_group.c ****     lv_obj_t ** i;
 246:..\..\..\arduinoLCD\test\Pain Drain\libraries\lvgl\src\core/lv_group.c ****     _LV_LL_READ(&g->obj_ll, i) {
 247:..\..\..\arduinoLCD\test\Pain Drain\libraries\lvgl\src\core/lv_group.c ****         if(*i == obj) {
 248:..\..\..\arduinoLCD\test\Pain Drain\libraries\lvgl\src\core/lv_group.c ****             if(g->obj_focus != NULL && obj != *g->obj_focus) {  /*Do not defocus if the same object
 249:..\..\..\arduinoLCD\test\Pain Drain\libraries\lvgl\src\core/lv_group.c ****                 lv_res_t res = lv_event_send(*g->obj_focus, LV_EVENT_DEFOCUSED, get_indev(g));
 250:..\..\..\arduinoLCD\test\Pain Drain\libraries\lvgl\src\core/lv_group.c ****                 if(res != LV_RES_OK) return;
 251:..\..\..\arduinoLCD\test\Pain Drain\libraries\lvgl\src\core/lv_group.c ****                 lv_obj_invalidate(*g->obj_focus);
 252:..\..\..\arduinoLCD\test\Pain Drain\libraries\lvgl\src\core/lv_group.c ****             }
 253:..\..\..\arduinoLCD\test\Pain Drain\libraries\lvgl\src\core/lv_group.c **** 
 254:..\..\..\arduinoLCD\test\Pain Drain\libraries\lvgl\src\core/lv_group.c ****             g->obj_focus = i;
 255:..\..\..\arduinoLCD\test\Pain Drain\libraries\lvgl\src\core/lv_group.c **** 
 256:..\..\..\arduinoLCD\test\Pain Drain\libraries\lvgl\src\core/lv_group.c ****             if(g->obj_focus != NULL) {
 257:..\..\..\arduinoLCD\test\Pain Drain\libraries\lvgl\src\core/lv_group.c ****                 if(g->focus_cb) g->focus_cb(g);
 258:..\..\..\arduinoLCD\test\Pain Drain\libraries\lvgl\src\core/lv_group.c ****                 lv_res_t res = lv_event_send(*g->obj_focus, LV_EVENT_FOCUSED, get_indev(g));
 259:..\..\..\arduinoLCD\test\Pain Drain\libraries\lvgl\src\core/lv_group.c ****                 if(res != LV_RES_OK) return;
ARM GAS  C:\Users\haske\AppData\Local\Temp\ccHGZgRG.s 			page 6


 260:..\..\..\arduinoLCD\test\Pain Drain\libraries\lvgl\src\core/lv_group.c ****                 lv_obj_invalidate(*g->obj_focus);
 261:..\..\..\arduinoLCD\test\Pain Drain\libraries\lvgl\src\core/lv_group.c ****             }
 262:..\..\..\arduinoLCD\test\Pain Drain\libraries\lvgl\src\core/lv_group.c ****             break;
 263:..\..\..\arduinoLCD\test\Pain Drain\libraries\lvgl\src\core/lv_group.c ****         }
 264:..\..\..\arduinoLCD\test\Pain Drain\libraries\lvgl\src\core/lv_group.c ****     }
 265:..\..\..\arduinoLCD\test\Pain Drain\libraries\lvgl\src\core/lv_group.c **** }
 266:..\..\..\arduinoLCD\test\Pain Drain\libraries\lvgl\src\core/lv_group.c **** 
 267:..\..\..\arduinoLCD\test\Pain Drain\libraries\lvgl\src\core/lv_group.c **** void lv_group_focus_next(lv_group_t * group)
 268:..\..\..\arduinoLCD\test\Pain Drain\libraries\lvgl\src\core/lv_group.c **** {
 269:..\..\..\arduinoLCD\test\Pain Drain\libraries\lvgl\src\core/lv_group.c ****     bool focus_changed = focus_next_core(group, _lv_ll_get_head, _lv_ll_get_next);
 270:..\..\..\arduinoLCD\test\Pain Drain\libraries\lvgl\src\core/lv_group.c ****     if(group->edge_cb) {
 271:..\..\..\arduinoLCD\test\Pain Drain\libraries\lvgl\src\core/lv_group.c ****         if(!focus_changed)
 272:..\..\..\arduinoLCD\test\Pain Drain\libraries\lvgl\src\core/lv_group.c ****             group->edge_cb(group, true);
 273:..\..\..\arduinoLCD\test\Pain Drain\libraries\lvgl\src\core/lv_group.c ****     }
 274:..\..\..\arduinoLCD\test\Pain Drain\libraries\lvgl\src\core/lv_group.c **** }
 275:..\..\..\arduinoLCD\test\Pain Drain\libraries\lvgl\src\core/lv_group.c **** 
 276:..\..\..\arduinoLCD\test\Pain Drain\libraries\lvgl\src\core/lv_group.c **** void lv_group_focus_prev(lv_group_t * group)
 277:..\..\..\arduinoLCD\test\Pain Drain\libraries\lvgl\src\core/lv_group.c **** {
 278:..\..\..\arduinoLCD\test\Pain Drain\libraries\lvgl\src\core/lv_group.c ****     bool focus_changed = focus_next_core(group, _lv_ll_get_tail, _lv_ll_get_prev);
 279:..\..\..\arduinoLCD\test\Pain Drain\libraries\lvgl\src\core/lv_group.c ****     if(group->edge_cb) {
 280:..\..\..\arduinoLCD\test\Pain Drain\libraries\lvgl\src\core/lv_group.c ****         if(!focus_changed)
 281:..\..\..\arduinoLCD\test\Pain Drain\libraries\lvgl\src\core/lv_group.c ****             group->edge_cb(group, false);
 282:..\..\..\arduinoLCD\test\Pain Drain\libraries\lvgl\src\core/lv_group.c ****     }
 283:..\..\..\arduinoLCD\test\Pain Drain\libraries\lvgl\src\core/lv_group.c **** }
 284:..\..\..\arduinoLCD\test\Pain Drain\libraries\lvgl\src\core/lv_group.c **** 
 285:..\..\..\arduinoLCD\test\Pain Drain\libraries\lvgl\src\core/lv_group.c **** void lv_group_focus_freeze(lv_group_t * group, bool en)
 286:..\..\..\arduinoLCD\test\Pain Drain\libraries\lvgl\src\core/lv_group.c **** {
 287:..\..\..\arduinoLCD\test\Pain Drain\libraries\lvgl\src\core/lv_group.c ****     if(en == false) group->frozen = 0;
 288:..\..\..\arduinoLCD\test\Pain Drain\libraries\lvgl\src\core/lv_group.c ****     else group->frozen = 1;
 289:..\..\..\arduinoLCD\test\Pain Drain\libraries\lvgl\src\core/lv_group.c **** }
 290:..\..\..\arduinoLCD\test\Pain Drain\libraries\lvgl\src\core/lv_group.c **** 
 291:..\..\..\arduinoLCD\test\Pain Drain\libraries\lvgl\src\core/lv_group.c **** lv_res_t lv_group_send_data(lv_group_t * group, uint32_t c)
 292:..\..\..\arduinoLCD\test\Pain Drain\libraries\lvgl\src\core/lv_group.c **** {
 293:..\..\..\arduinoLCD\test\Pain Drain\libraries\lvgl\src\core/lv_group.c ****     lv_obj_t * act = lv_group_get_focused(group);
 294:..\..\..\arduinoLCD\test\Pain Drain\libraries\lvgl\src\core/lv_group.c ****     if(act == NULL) return LV_RES_OK;
 295:..\..\..\arduinoLCD\test\Pain Drain\libraries\lvgl\src\core/lv_group.c **** 
 296:..\..\..\arduinoLCD\test\Pain Drain\libraries\lvgl\src\core/lv_group.c ****     if(lv_obj_has_state(act, LV_STATE_DISABLED)) return LV_RES_OK;
 297:..\..\..\arduinoLCD\test\Pain Drain\libraries\lvgl\src\core/lv_group.c **** 
 298:..\..\..\arduinoLCD\test\Pain Drain\libraries\lvgl\src\core/lv_group.c ****     return lv_event_send(act, LV_EVENT_KEY, &c);
 299:..\..\..\arduinoLCD\test\Pain Drain\libraries\lvgl\src\core/lv_group.c **** }
 300:..\..\..\arduinoLCD\test\Pain Drain\libraries\lvgl\src\core/lv_group.c **** 
 301:..\..\..\arduinoLCD\test\Pain Drain\libraries\lvgl\src\core/lv_group.c **** void lv_group_set_focus_cb(lv_group_t * group, lv_group_focus_cb_t focus_cb)
 302:..\..\..\arduinoLCD\test\Pain Drain\libraries\lvgl\src\core/lv_group.c **** {
 303:..\..\..\arduinoLCD\test\Pain Drain\libraries\lvgl\src\core/lv_group.c ****     group->focus_cb = focus_cb;
 304:..\..\..\arduinoLCD\test\Pain Drain\libraries\lvgl\src\core/lv_group.c **** }
 305:..\..\..\arduinoLCD\test\Pain Drain\libraries\lvgl\src\core/lv_group.c **** 
 306:..\..\..\arduinoLCD\test\Pain Drain\libraries\lvgl\src\core/lv_group.c **** void lv_group_set_edge_cb(lv_group_t * group, lv_group_edge_cb_t edge_cb)
 307:..\..\..\arduinoLCD\test\Pain Drain\libraries\lvgl\src\core/lv_group.c **** {
 308:..\..\..\arduinoLCD\test\Pain Drain\libraries\lvgl\src\core/lv_group.c ****     group->edge_cb = edge_cb;
 309:..\..\..\arduinoLCD\test\Pain Drain\libraries\lvgl\src\core/lv_group.c **** }
 310:..\..\..\arduinoLCD\test\Pain Drain\libraries\lvgl\src\core/lv_group.c **** 
 311:..\..\..\arduinoLCD\test\Pain Drain\libraries\lvgl\src\core/lv_group.c **** void lv_group_set_editing(lv_group_t * group, bool edit)
 312:..\..\..\arduinoLCD\test\Pain Drain\libraries\lvgl\src\core/lv_group.c **** {
 313:..\..\..\arduinoLCD\test\Pain Drain\libraries\lvgl\src\core/lv_group.c ****     if(group == NULL) return;
 314:..\..\..\arduinoLCD\test\Pain Drain\libraries\lvgl\src\core/lv_group.c ****     uint8_t en_val = edit ? 1 : 0;
 315:..\..\..\arduinoLCD\test\Pain Drain\libraries\lvgl\src\core/lv_group.c **** 
 316:..\..\..\arduinoLCD\test\Pain Drain\libraries\lvgl\src\core/lv_group.c ****     if(en_val == group->editing) return; /*Do not set the same mode again*/
ARM GAS  C:\Users\haske\AppData\Local\Temp\ccHGZgRG.s 			page 7


 317:..\..\..\arduinoLCD\test\Pain Drain\libraries\lvgl\src\core/lv_group.c **** 
 318:..\..\..\arduinoLCD\test\Pain Drain\libraries\lvgl\src\core/lv_group.c ****     group->editing     = en_val;
 319:..\..\..\arduinoLCD\test\Pain Drain\libraries\lvgl\src\core/lv_group.c ****     lv_obj_t * focused = lv_group_get_focused(group);
 320:..\..\..\arduinoLCD\test\Pain Drain\libraries\lvgl\src\core/lv_group.c **** 
 321:..\..\..\arduinoLCD\test\Pain Drain\libraries\lvgl\src\core/lv_group.c ****     if(focused) {
 322:..\..\..\arduinoLCD\test\Pain Drain\libraries\lvgl\src\core/lv_group.c ****         lv_res_t res = lv_event_send(*group->obj_focus, LV_EVENT_FOCUSED, get_indev(group));
 323:..\..\..\arduinoLCD\test\Pain Drain\libraries\lvgl\src\core/lv_group.c ****         if(res != LV_RES_OK) return;
 324:..\..\..\arduinoLCD\test\Pain Drain\libraries\lvgl\src\core/lv_group.c **** 
 325:..\..\..\arduinoLCD\test\Pain Drain\libraries\lvgl\src\core/lv_group.c ****         lv_obj_invalidate(focused);
 326:..\..\..\arduinoLCD\test\Pain Drain\libraries\lvgl\src\core/lv_group.c ****     }
 327:..\..\..\arduinoLCD\test\Pain Drain\libraries\lvgl\src\core/lv_group.c **** }
 328:..\..\..\arduinoLCD\test\Pain Drain\libraries\lvgl\src\core/lv_group.c **** 
 329:..\..\..\arduinoLCD\test\Pain Drain\libraries\lvgl\src\core/lv_group.c **** void lv_group_set_refocus_policy(lv_group_t * group, lv_group_refocus_policy_t policy)
 330:..\..\..\arduinoLCD\test\Pain Drain\libraries\lvgl\src\core/lv_group.c **** {
 331:..\..\..\arduinoLCD\test\Pain Drain\libraries\lvgl\src\core/lv_group.c ****     group->refocus_policy = policy & 0x01;
 332:..\..\..\arduinoLCD\test\Pain Drain\libraries\lvgl\src\core/lv_group.c **** }
 333:..\..\..\arduinoLCD\test\Pain Drain\libraries\lvgl\src\core/lv_group.c **** 
 334:..\..\..\arduinoLCD\test\Pain Drain\libraries\lvgl\src\core/lv_group.c **** void lv_group_set_wrap(lv_group_t * group, bool en)
 335:..\..\..\arduinoLCD\test\Pain Drain\libraries\lvgl\src\core/lv_group.c **** {
 336:..\..\..\arduinoLCD\test\Pain Drain\libraries\lvgl\src\core/lv_group.c ****     group->wrap = en ? 1 : 0;
 337:..\..\..\arduinoLCD\test\Pain Drain\libraries\lvgl\src\core/lv_group.c **** }
 338:..\..\..\arduinoLCD\test\Pain Drain\libraries\lvgl\src\core/lv_group.c **** 
 339:..\..\..\arduinoLCD\test\Pain Drain\libraries\lvgl\src\core/lv_group.c **** lv_obj_t * lv_group_get_focused(const lv_group_t * group)
 340:..\..\..\arduinoLCD\test\Pain Drain\libraries\lvgl\src\core/lv_group.c **** {
 341:..\..\..\arduinoLCD\test\Pain Drain\libraries\lvgl\src\core/lv_group.c ****     if(!group) return NULL;
 342:..\..\..\arduinoLCD\test\Pain Drain\libraries\lvgl\src\core/lv_group.c ****     if(group->obj_focus == NULL) return NULL;
 343:..\..\..\arduinoLCD\test\Pain Drain\libraries\lvgl\src\core/lv_group.c **** 
 344:..\..\..\arduinoLCD\test\Pain Drain\libraries\lvgl\src\core/lv_group.c ****     return *group->obj_focus;
 345:..\..\..\arduinoLCD\test\Pain Drain\libraries\lvgl\src\core/lv_group.c **** }
 346:..\..\..\arduinoLCD\test\Pain Drain\libraries\lvgl\src\core/lv_group.c **** 
 347:..\..\..\arduinoLCD\test\Pain Drain\libraries\lvgl\src\core/lv_group.c **** lv_group_focus_cb_t lv_group_get_focus_cb(const lv_group_t * group)
 348:..\..\..\arduinoLCD\test\Pain Drain\libraries\lvgl\src\core/lv_group.c **** {
 349:..\..\..\arduinoLCD\test\Pain Drain\libraries\lvgl\src\core/lv_group.c ****     if(!group) return NULL;
 350:..\..\..\arduinoLCD\test\Pain Drain\libraries\lvgl\src\core/lv_group.c ****     return group->focus_cb;
 351:..\..\..\arduinoLCD\test\Pain Drain\libraries\lvgl\src\core/lv_group.c **** }
 352:..\..\..\arduinoLCD\test\Pain Drain\libraries\lvgl\src\core/lv_group.c **** 
 353:..\..\..\arduinoLCD\test\Pain Drain\libraries\lvgl\src\core/lv_group.c **** lv_group_edge_cb_t lv_group_get_edge_cb(const lv_group_t * group)
 354:..\..\..\arduinoLCD\test\Pain Drain\libraries\lvgl\src\core/lv_group.c **** {
 355:..\..\..\arduinoLCD\test\Pain Drain\libraries\lvgl\src\core/lv_group.c ****     if(!group) return NULL;
 356:..\..\..\arduinoLCD\test\Pain Drain\libraries\lvgl\src\core/lv_group.c ****     return group->edge_cb;
 357:..\..\..\arduinoLCD\test\Pain Drain\libraries\lvgl\src\core/lv_group.c **** }
 358:..\..\..\arduinoLCD\test\Pain Drain\libraries\lvgl\src\core/lv_group.c **** 
 359:..\..\..\arduinoLCD\test\Pain Drain\libraries\lvgl\src\core/lv_group.c **** bool lv_group_get_editing(const lv_group_t * group)
 360:..\..\..\arduinoLCD\test\Pain Drain\libraries\lvgl\src\core/lv_group.c **** {
 361:..\..\..\arduinoLCD\test\Pain Drain\libraries\lvgl\src\core/lv_group.c ****     if(!group) return false;
 362:..\..\..\arduinoLCD\test\Pain Drain\libraries\lvgl\src\core/lv_group.c ****     return group->editing ? true : false;
 363:..\..\..\arduinoLCD\test\Pain Drain\libraries\lvgl\src\core/lv_group.c **** }
 364:..\..\..\arduinoLCD\test\Pain Drain\libraries\lvgl\src\core/lv_group.c **** 
 365:..\..\..\arduinoLCD\test\Pain Drain\libraries\lvgl\src\core/lv_group.c **** bool lv_group_get_wrap(lv_group_t * group)
 366:..\..\..\arduinoLCD\test\Pain Drain\libraries\lvgl\src\core/lv_group.c **** {
 367:..\..\..\arduinoLCD\test\Pain Drain\libraries\lvgl\src\core/lv_group.c ****     if(!group) return false;
 368:..\..\..\arduinoLCD\test\Pain Drain\libraries\lvgl\src\core/lv_group.c ****     return group->wrap ? true : false;
 369:..\..\..\arduinoLCD\test\Pain Drain\libraries\lvgl\src\core/lv_group.c **** }
 370:..\..\..\arduinoLCD\test\Pain Drain\libraries\lvgl\src\core/lv_group.c **** 
 371:..\..\..\arduinoLCD\test\Pain Drain\libraries\lvgl\src\core/lv_group.c **** uint32_t lv_group_get_obj_count(lv_group_t * group)
 372:..\..\..\arduinoLCD\test\Pain Drain\libraries\lvgl\src\core/lv_group.c **** {
 373:..\..\..\arduinoLCD\test\Pain Drain\libraries\lvgl\src\core/lv_group.c ****     return _lv_ll_get_len(&group->obj_ll);
ARM GAS  C:\Users\haske\AppData\Local\Temp\ccHGZgRG.s 			page 8


 374:..\..\..\arduinoLCD\test\Pain Drain\libraries\lvgl\src\core/lv_group.c **** }
 375:..\..\..\arduinoLCD\test\Pain Drain\libraries\lvgl\src\core/lv_group.c **** /**********************
 376:..\..\..\arduinoLCD\test\Pain Drain\libraries\lvgl\src\core/lv_group.c ****  *   STATIC FUNCTIONS
 377:..\..\..\arduinoLCD\test\Pain Drain\libraries\lvgl\src\core/lv_group.c ****  **********************/
 378:..\..\..\arduinoLCD\test\Pain Drain\libraries\lvgl\src\core/lv_group.c **** 
 379:..\..\..\arduinoLCD\test\Pain Drain\libraries\lvgl\src\core/lv_group.c **** static void lv_group_refocus(lv_group_t * g)
 380:..\..\..\arduinoLCD\test\Pain Drain\libraries\lvgl\src\core/lv_group.c **** {
 381:..\..\..\arduinoLCD\test\Pain Drain\libraries\lvgl\src\core/lv_group.c ****     /*Refocus must temporarily allow wrapping to work correctly*/
 382:..\..\..\arduinoLCD\test\Pain Drain\libraries\lvgl\src\core/lv_group.c ****     uint8_t temp_wrap = g->wrap;
 383:..\..\..\arduinoLCD\test\Pain Drain\libraries\lvgl\src\core/lv_group.c ****     g->wrap           = 1;
 384:..\..\..\arduinoLCD\test\Pain Drain\libraries\lvgl\src\core/lv_group.c **** 
 385:..\..\..\arduinoLCD\test\Pain Drain\libraries\lvgl\src\core/lv_group.c ****     if(g->refocus_policy == LV_GROUP_REFOCUS_POLICY_NEXT)
 386:..\..\..\arduinoLCD\test\Pain Drain\libraries\lvgl\src\core/lv_group.c ****         lv_group_focus_next(g);
 387:..\..\..\arduinoLCD\test\Pain Drain\libraries\lvgl\src\core/lv_group.c ****     else if(g->refocus_policy == LV_GROUP_REFOCUS_POLICY_PREV)
 388:..\..\..\arduinoLCD\test\Pain Drain\libraries\lvgl\src\core/lv_group.c ****         lv_group_focus_prev(g);
 389:..\..\..\arduinoLCD\test\Pain Drain\libraries\lvgl\src\core/lv_group.c ****     /*Restore wrap property*/
 390:..\..\..\arduinoLCD\test\Pain Drain\libraries\lvgl\src\core/lv_group.c ****     g->wrap = temp_wrap;
 391:..\..\..\arduinoLCD\test\Pain Drain\libraries\lvgl\src\core/lv_group.c **** }
 392:..\..\..\arduinoLCD\test\Pain Drain\libraries\lvgl\src\core/lv_group.c **** 
 393:..\..\..\arduinoLCD\test\Pain Drain\libraries\lvgl\src\core/lv_group.c **** static bool focus_next_core(lv_group_t * group, void * (*begin)(const lv_ll_t *),
 394:..\..\..\arduinoLCD\test\Pain Drain\libraries\lvgl\src\core/lv_group.c ****                             void * (*move)(const lv_ll_t *, const void *))
 395:..\..\..\arduinoLCD\test\Pain Drain\libraries\lvgl\src\core/lv_group.c **** {
 396:..\..\..\arduinoLCD\test\Pain Drain\libraries\lvgl\src\core/lv_group.c ****     bool focus_changed = false;
 397:..\..\..\arduinoLCD\test\Pain Drain\libraries\lvgl\src\core/lv_group.c ****     if(group->frozen) return focus_changed;
 398:..\..\..\arduinoLCD\test\Pain Drain\libraries\lvgl\src\core/lv_group.c **** 
 399:..\..\..\arduinoLCD\test\Pain Drain\libraries\lvgl\src\core/lv_group.c ****     lv_obj_t ** obj_next     = group->obj_focus;
 400:..\..\..\arduinoLCD\test\Pain Drain\libraries\lvgl\src\core/lv_group.c ****     lv_obj_t ** obj_sentinel = NULL;
 401:..\..\..\arduinoLCD\test\Pain Drain\libraries\lvgl\src\core/lv_group.c ****     bool can_move            = true;
 402:..\..\..\arduinoLCD\test\Pain Drain\libraries\lvgl\src\core/lv_group.c ****     bool can_begin           = true;
 403:..\..\..\arduinoLCD\test\Pain Drain\libraries\lvgl\src\core/lv_group.c **** 
 404:..\..\..\arduinoLCD\test\Pain Drain\libraries\lvgl\src\core/lv_group.c ****     for(;;) {
 405:..\..\..\arduinoLCD\test\Pain Drain\libraries\lvgl\src\core/lv_group.c ****         if(obj_next == NULL) {
 406:..\..\..\arduinoLCD\test\Pain Drain\libraries\lvgl\src\core/lv_group.c ****             if(group->wrap || obj_sentinel == NULL) {
 407:..\..\..\arduinoLCD\test\Pain Drain\libraries\lvgl\src\core/lv_group.c ****                 if(!can_begin) return focus_changed;
 408:..\..\..\arduinoLCD\test\Pain Drain\libraries\lvgl\src\core/lv_group.c ****                 obj_next  = begin(&group->obj_ll);
 409:..\..\..\arduinoLCD\test\Pain Drain\libraries\lvgl\src\core/lv_group.c ****                 can_move  = false;
 410:..\..\..\arduinoLCD\test\Pain Drain\libraries\lvgl\src\core/lv_group.c ****                 can_begin = false;
 411:..\..\..\arduinoLCD\test\Pain Drain\libraries\lvgl\src\core/lv_group.c ****             }
 412:..\..\..\arduinoLCD\test\Pain Drain\libraries\lvgl\src\core/lv_group.c ****             else {
 413:..\..\..\arduinoLCD\test\Pain Drain\libraries\lvgl\src\core/lv_group.c ****                 /*Currently focused object is the last/first in the group, keep it that way*/
 414:..\..\..\arduinoLCD\test\Pain Drain\libraries\lvgl\src\core/lv_group.c ****                 return focus_changed;
 415:..\..\..\arduinoLCD\test\Pain Drain\libraries\lvgl\src\core/lv_group.c ****             }
 416:..\..\..\arduinoLCD\test\Pain Drain\libraries\lvgl\src\core/lv_group.c ****         }
 417:..\..\..\arduinoLCD\test\Pain Drain\libraries\lvgl\src\core/lv_group.c **** 
 418:..\..\..\arduinoLCD\test\Pain Drain\libraries\lvgl\src\core/lv_group.c ****         if(obj_sentinel == NULL) {
 419:..\..\..\arduinoLCD\test\Pain Drain\libraries\lvgl\src\core/lv_group.c ****             obj_sentinel = obj_next;
 420:..\..\..\arduinoLCD\test\Pain Drain\libraries\lvgl\src\core/lv_group.c ****             if(obj_sentinel == NULL) return focus_changed; /*Group is empty*/
 421:..\..\..\arduinoLCD\test\Pain Drain\libraries\lvgl\src\core/lv_group.c ****         }
 422:..\..\..\arduinoLCD\test\Pain Drain\libraries\lvgl\src\core/lv_group.c **** 
 423:..\..\..\arduinoLCD\test\Pain Drain\libraries\lvgl\src\core/lv_group.c ****         if(can_move) {
 424:..\..\..\arduinoLCD\test\Pain Drain\libraries\lvgl\src\core/lv_group.c ****             obj_next = move(&group->obj_ll, obj_next);
 425:..\..\..\arduinoLCD\test\Pain Drain\libraries\lvgl\src\core/lv_group.c **** 
 426:..\..\..\arduinoLCD\test\Pain Drain\libraries\lvgl\src\core/lv_group.c ****             /*Give up if we walked the entire list and haven't found another visible object*/
 427:..\..\..\arduinoLCD\test\Pain Drain\libraries\lvgl\src\core/lv_group.c ****             if(obj_next == obj_sentinel) return focus_changed;
 428:..\..\..\arduinoLCD\test\Pain Drain\libraries\lvgl\src\core/lv_group.c ****         }
 429:..\..\..\arduinoLCD\test\Pain Drain\libraries\lvgl\src\core/lv_group.c **** 
 430:..\..\..\arduinoLCD\test\Pain Drain\libraries\lvgl\src\core/lv_group.c ****         can_move = true;
ARM GAS  C:\Users\haske\AppData\Local\Temp\ccHGZgRG.s 			page 9


 431:..\..\..\arduinoLCD\test\Pain Drain\libraries\lvgl\src\core/lv_group.c **** 
 432:..\..\..\arduinoLCD\test\Pain Drain\libraries\lvgl\src\core/lv_group.c ****         if(obj_next == NULL) continue;
 433:..\..\..\arduinoLCD\test\Pain Drain\libraries\lvgl\src\core/lv_group.c ****         if(lv_obj_get_state(*obj_next) & LV_STATE_DISABLED) continue;
 434:..\..\..\arduinoLCD\test\Pain Drain\libraries\lvgl\src\core/lv_group.c **** 
 435:..\..\..\arduinoLCD\test\Pain Drain\libraries\lvgl\src\core/lv_group.c ****         /*Hidden objects don't receive focus.
 436:..\..\..\arduinoLCD\test\Pain Drain\libraries\lvgl\src\core/lv_group.c ****          *If any parent is hidden, the object is also hidden)*/
 437:..\..\..\arduinoLCD\test\Pain Drain\libraries\lvgl\src\core/lv_group.c ****         lv_obj_t * parent = *obj_next;
 438:..\..\..\arduinoLCD\test\Pain Drain\libraries\lvgl\src\core/lv_group.c ****         while(parent) {
 439:..\..\..\arduinoLCD\test\Pain Drain\libraries\lvgl\src\core/lv_group.c ****             if(lv_obj_has_flag(parent, LV_OBJ_FLAG_HIDDEN)) break;
 440:..\..\..\arduinoLCD\test\Pain Drain\libraries\lvgl\src\core/lv_group.c ****             parent = lv_obj_get_parent(parent);
 441:..\..\..\arduinoLCD\test\Pain Drain\libraries\lvgl\src\core/lv_group.c ****         }
 442:..\..\..\arduinoLCD\test\Pain Drain\libraries\lvgl\src\core/lv_group.c **** 
 443:..\..\..\arduinoLCD\test\Pain Drain\libraries\lvgl\src\core/lv_group.c ****         if(parent && lv_obj_has_flag(parent, LV_OBJ_FLAG_HIDDEN)) continue;
 444:..\..\..\arduinoLCD\test\Pain Drain\libraries\lvgl\src\core/lv_group.c **** 
 445:..\..\..\arduinoLCD\test\Pain Drain\libraries\lvgl\src\core/lv_group.c ****         /*If we got her a good candidate is found*/
 446:..\..\..\arduinoLCD\test\Pain Drain\libraries\lvgl\src\core/lv_group.c ****         break;
 447:..\..\..\arduinoLCD\test\Pain Drain\libraries\lvgl\src\core/lv_group.c ****     }
 448:..\..\..\arduinoLCD\test\Pain Drain\libraries\lvgl\src\core/lv_group.c **** 
 449:..\..\..\arduinoLCD\test\Pain Drain\libraries\lvgl\src\core/lv_group.c ****     if(obj_next == group->obj_focus) return focus_changed; /*There's only one visible object and it
 450:..\..\..\arduinoLCD\test\Pain Drain\libraries\lvgl\src\core/lv_group.c **** 
 451:..\..\..\arduinoLCD\test\Pain Drain\libraries\lvgl\src\core/lv_group.c ****     if(group->obj_focus) {
 452:..\..\..\arduinoLCD\test\Pain Drain\libraries\lvgl\src\core/lv_group.c ****         lv_res_t res = lv_event_send(*group->obj_focus, LV_EVENT_DEFOCUSED, get_indev(group));
 453:..\..\..\arduinoLCD\test\Pain Drain\libraries\lvgl\src\core/lv_group.c ****         if(res != LV_RES_OK) return focus_changed;
 454:..\..\..\arduinoLCD\test\Pain Drain\libraries\lvgl\src\core/lv_group.c ****         lv_obj_invalidate(*group->obj_focus);
 455:..\..\..\arduinoLCD\test\Pain Drain\libraries\lvgl\src\core/lv_group.c ****     }
 456:..\..\..\arduinoLCD\test\Pain Drain\libraries\lvgl\src\core/lv_group.c **** 
 457:..\..\..\arduinoLCD\test\Pain Drain\libraries\lvgl\src\core/lv_group.c ****     group->obj_focus = obj_next;
 458:..\..\..\arduinoLCD\test\Pain Drain\libraries\lvgl\src\core/lv_group.c **** 
 459:..\..\..\arduinoLCD\test\Pain Drain\libraries\lvgl\src\core/lv_group.c ****     lv_res_t res = lv_event_send(*group->obj_focus, LV_EVENT_FOCUSED, get_indev(group));
 460:..\..\..\arduinoLCD\test\Pain Drain\libraries\lvgl\src\core/lv_group.c ****     if(res != LV_RES_OK) return focus_changed;
 461:..\..\..\arduinoLCD\test\Pain Drain\libraries\lvgl\src\core/lv_group.c **** 
 462:..\..\..\arduinoLCD\test\Pain Drain\libraries\lvgl\src\core/lv_group.c ****     lv_obj_invalidate(*group->obj_focus);
 463:..\..\..\arduinoLCD\test\Pain Drain\libraries\lvgl\src\core/lv_group.c **** 
 464:..\..\..\arduinoLCD\test\Pain Drain\libraries\lvgl\src\core/lv_group.c ****     if(group->focus_cb) group->focus_cb(group);
 465:..\..\..\arduinoLCD\test\Pain Drain\libraries\lvgl\src\core/lv_group.c ****     focus_changed = true;
 466:..\..\..\arduinoLCD\test\Pain Drain\libraries\lvgl\src\core/lv_group.c ****     return focus_changed;
 467:..\..\..\arduinoLCD\test\Pain Drain\libraries\lvgl\src\core/lv_group.c **** }
 468:..\..\..\arduinoLCD\test\Pain Drain\libraries\lvgl\src\core/lv_group.c **** 
 469:..\..\..\arduinoLCD\test\Pain Drain\libraries\lvgl\src\core/lv_group.c **** /**
 470:..\..\..\arduinoLCD\test\Pain Drain\libraries\lvgl\src\core/lv_group.c ****  * Find an indev preferably with KEYPAD or ENCOEDR type that uses the given group.
 471:..\..\..\arduinoLCD\test\Pain Drain\libraries\lvgl\src\core/lv_group.c ****  * In other words, find an indev, that is related to the given group.
 472:..\..\..\arduinoLCD\test\Pain Drain\libraries\lvgl\src\core/lv_group.c ****  * In the worst case simply return the latest indev
 473:..\..\..\arduinoLCD\test\Pain Drain\libraries\lvgl\src\core/lv_group.c ****  * @param g     a group the find in the indevs
 474:..\..\..\arduinoLCD\test\Pain Drain\libraries\lvgl\src\core/lv_group.c ****  * @return      the suggested indev
 475:..\..\..\arduinoLCD\test\Pain Drain\libraries\lvgl\src\core/lv_group.c ****  */
 476:..\..\..\arduinoLCD\test\Pain Drain\libraries\lvgl\src\core/lv_group.c **** static lv_indev_t * get_indev(const lv_group_t * g)
 477:..\..\..\arduinoLCD\test\Pain Drain\libraries\lvgl\src\core/lv_group.c **** {
  27              		.loc 1 477 0
  28              		.cfi_startproc
  29              		@ args = 0, pretend = 0, frame = 0
  30              		@ frame_needed = 0, uses_anonymous_args = 0
  31              	.LVL0:
  32 0000 F8B5     		push	{r3, r4, r5, r6, r7, lr}
  33              		.cfi_def_cfa_offset 24
  34              		.cfi_offset 3, -24
  35              		.cfi_offset 4, -20
  36              		.cfi_offset 5, -16
ARM GAS  C:\Users\haske\AppData\Local\Temp\ccHGZgRG.s 			page 10


  37              		.cfi_offset 6, -12
  38              		.cfi_offset 7, -8
  39              		.cfi_offset 14, -4
  40 0002 0700     		movs	r7, r0
  41              	.LVL1:
 478:..\..\..\arduinoLCD\test\Pain Drain\libraries\lvgl\src\core/lv_group.c ****     lv_indev_t * indev_encoder = NULL;
 479:..\..\..\arduinoLCD\test\Pain Drain\libraries\lvgl\src\core/lv_group.c ****     lv_indev_t * indev_group = NULL;
 480:..\..\..\arduinoLCD\test\Pain Drain\libraries\lvgl\src\core/lv_group.c ****     lv_indev_t * indev = lv_indev_get_next(NULL);
  42              		.loc 1 480 0
  43 0004 0020     		movs	r0, #0
  44              	.LVL2:
  45 0006 FFF7FEFF 		bl	lv_indev_get_next
  46              	.LVL3:
  47 000a 0400     		movs	r4, r0
  48              	.LVL4:
 479:..\..\..\arduinoLCD\test\Pain Drain\libraries\lvgl\src\core/lv_group.c ****     lv_indev_t * indev = lv_indev_get_next(NULL);
  49              		.loc 1 479 0
  50 000c 0025     		movs	r5, #0
 478:..\..\..\arduinoLCD\test\Pain Drain\libraries\lvgl\src\core/lv_group.c ****     lv_indev_t * indev_encoder = NULL;
  51              		.loc 1 478 0
  52 000e 0026     		movs	r6, #0
 481:..\..\..\arduinoLCD\test\Pain Drain\libraries\lvgl\src\core/lv_group.c ****     while(indev) {
  53              		.loc 1 481 0
  54 0010 11E0     		b	.L2
  55              	.LVL5:
  56              	.L5:
  57              	.LBB2:
 482:..\..\..\arduinoLCD\test\Pain Drain\libraries\lvgl\src\core/lv_group.c ****         lv_indev_type_t indev_type = lv_indev_get_type(indev);
  58              		.loc 1 482 0
  59 0012 2000     		movs	r0, r4
  60              	.LVL6:
  61 0014 FFF7FEFF 		bl	lv_indev_get_type
  62              	.LVL7:
 483:..\..\..\arduinoLCD\test\Pain Drain\libraries\lvgl\src\core/lv_group.c ****         if(indev->group == g) {
  63              		.loc 1 483 0
  64 0018 636D     		ldr	r3, [r4, #84]
  65 001a BB42     		cmp	r3, r7
  66 001c 07D1     		bne	.L3
 484:..\..\..\arduinoLCD\test\Pain Drain\libraries\lvgl\src\core/lv_group.c ****             /*Prefer KEYPAD*/
 485:..\..\..\arduinoLCD\test\Pain Drain\libraries\lvgl\src\core/lv_group.c ****             if(indev_type == LV_INDEV_TYPE_KEYPAD) return indev;
  67              		.loc 1 485 0
  68 001e 0228     		cmp	r0, #2
  69 0020 13D0     		beq	.L6
 486:..\..\..\arduinoLCD\test\Pain Drain\libraries\lvgl\src\core/lv_group.c ****             if(indev_type == LV_INDEV_TYPE_ENCODER) indev_encoder = indev;
  70              		.loc 1 486 0
  71 0022 0428     		cmp	r0, #4
  72 0024 01D0     		beq	.L7
 487:..\..\..\arduinoLCD\test\Pain Drain\libraries\lvgl\src\core/lv_group.c ****             indev_group = indev;
  73              		.loc 1 487 0
  74 0026 2500     		movs	r5, r4
  75              	.LVL8:
  76 0028 01E0     		b	.L3
  77              	.LVL9:
  78              	.L7:
  79 002a 2500     		movs	r5, r4
  80              	.LVL10:
 486:..\..\..\arduinoLCD\test\Pain Drain\libraries\lvgl\src\core/lv_group.c ****             if(indev_type == LV_INDEV_TYPE_ENCODER) indev_encoder = indev;
ARM GAS  C:\Users\haske\AppData\Local\Temp\ccHGZgRG.s 			page 11


  81              		.loc 1 486 0
  82 002c 2600     		movs	r6, r4
  83              	.LVL11:
  84              	.L3:
 488:..\..\..\arduinoLCD\test\Pain Drain\libraries\lvgl\src\core/lv_group.c ****         }
 489:..\..\..\arduinoLCD\test\Pain Drain\libraries\lvgl\src\core/lv_group.c ****         indev = lv_indev_get_next(indev);
  85              		.loc 1 489 0
  86 002e 2000     		movs	r0, r4
  87              	.LVL12:
  88 0030 FFF7FEFF 		bl	lv_indev_get_next
  89              	.LVL13:
  90 0034 0400     		movs	r4, r0
  91              	.LVL14:
  92              	.L2:
  93              	.LBE2:
 481:..\..\..\arduinoLCD\test\Pain Drain\libraries\lvgl\src\core/lv_group.c ****         lv_indev_type_t indev_type = lv_indev_get_type(indev);
  94              		.loc 1 481 0
  95 0036 002C     		cmp	r4, #0
  96 0038 EBD1     		bne	.L5
 490:..\..\..\arduinoLCD\test\Pain Drain\libraries\lvgl\src\core/lv_group.c ****     }
 491:..\..\..\arduinoLCD\test\Pain Drain\libraries\lvgl\src\core/lv_group.c **** 
 492:..\..\..\arduinoLCD\test\Pain Drain\libraries\lvgl\src\core/lv_group.c ****     if(indev_encoder) return indev_encoder;
  97              		.loc 1 492 0
  98 003a 002E     		cmp	r6, #0
  99 003c 07D1     		bne	.L8
 493:..\..\..\arduinoLCD\test\Pain Drain\libraries\lvgl\src\core/lv_group.c ****     if(indev_group) return indev_group;
 100              		.loc 1 493 0
 101 003e 002D     		cmp	r5, #0
 102 0040 07D1     		bne	.L9
 494:..\..\..\arduinoLCD\test\Pain Drain\libraries\lvgl\src\core/lv_group.c **** 
 495:..\..\..\arduinoLCD\test\Pain Drain\libraries\lvgl\src\core/lv_group.c ****     /*In lack of a better option use the first input device. (It can be NULL if there is no input d
 496:..\..\..\arduinoLCD\test\Pain Drain\libraries\lvgl\src\core/lv_group.c ****     return lv_indev_get_next(NULL);
 103              		.loc 1 496 0
 104 0042 0020     		movs	r0, #0
 105              	.LVL15:
 106 0044 FFF7FEFF 		bl	lv_indev_get_next
 107              	.LVL16:
 108 0048 04E0     		b	.L4
 109              	.LVL17:
 110              	.L6:
 111              	.LBB3:
 485:..\..\..\arduinoLCD\test\Pain Drain\libraries\lvgl\src\core/lv_group.c ****             if(indev_type == LV_INDEV_TYPE_ENCODER) indev_encoder = indev;
 112              		.loc 1 485 0
 113 004a 2000     		movs	r0, r4
 114              	.LVL18:
 115 004c 02E0     		b	.L4
 116              	.LVL19:
 117              	.L8:
 118              	.LBE3:
 492:..\..\..\arduinoLCD\test\Pain Drain\libraries\lvgl\src\core/lv_group.c ****     if(indev_group) return indev_group;
 119              		.loc 1 492 0
 120 004e 3000     		movs	r0, r6
 121              	.LVL20:
 122 0050 00E0     		b	.L4
 123              	.LVL21:
 124              	.L9:
 493:..\..\..\arduinoLCD\test\Pain Drain\libraries\lvgl\src\core/lv_group.c **** 
ARM GAS  C:\Users\haske\AppData\Local\Temp\ccHGZgRG.s 			page 12


 125              		.loc 1 493 0
 126 0052 2800     		movs	r0, r5
 127              	.LVL22:
 128              	.L4:
 497:..\..\..\arduinoLCD\test\Pain Drain\libraries\lvgl\src\core/lv_group.c **** }
 129              		.loc 1 497 0
 130              		@ sp needed
 131              	.LVL23:
 132              	.LVL24:
 133              	.LVL25:
 134              	.LVL26:
 135 0054 F8BD     		pop	{r3, r4, r5, r6, r7, pc}
 136              		.cfi_endproc
 137              	.LFE186:
 138              		.size	get_indev, .-get_indev
 139 0056 C046     		.section	.text.focus_next_core,"ax",%progbits
 140              		.align	2
 141              		.code	16
 142              		.thumb_func
 143              		.type	focus_next_core, %function
 144              	focus_next_core:
 145              	.LFB185:
 395:..\..\..\arduinoLCD\test\Pain Drain\libraries\lvgl\src\core/lv_group.c ****     bool focus_changed = false;
 146              		.loc 1 395 0
 147              		.cfi_startproc
 148              		@ args = 0, pretend = 0, frame = 8
 149              		@ frame_needed = 0, uses_anonymous_args = 0
 150              	.LVL27:
 151 0000 F0B5     		push	{r4, r5, r6, r7, lr}
 152              		.cfi_def_cfa_offset 20
 153              		.cfi_offset 4, -20
 154              		.cfi_offset 5, -16
 155              		.cfi_offset 6, -12
 156              		.cfi_offset 7, -8
 157              		.cfi_offset 14, -4
 158 0002 5746     		mov	r7, r10
 159 0004 4E46     		mov	r6, r9
 160 0006 C0B4     		push	{r6, r7}
 161              		.cfi_def_cfa_offset 28
 162              		.cfi_offset 9, -28
 163              		.cfi_offset 10, -24
 164 0008 83B0     		sub	sp, sp, #12
 165              		.cfi_def_cfa_offset 40
 166 000a 0700     		movs	r7, r0
 167 000c 0191     		str	r1, [sp, #4]
 168 000e 9146     		mov	r9, r2
 169              	.LVL28:
 397:..\..\..\arduinoLCD\test\Pain Drain\libraries\lvgl\src\core/lv_group.c **** 
 170              		.loc 1 397 0
 171 0010 037F     		ldrb	r3, [r0, #28]
 172 0012 DB07     		lsls	r3, r3, #31
 173 0014 6AD4     		bmi	.L23
 399:..\..\..\arduinoLCD\test\Pain Drain\libraries\lvgl\src\core/lv_group.c ****     lv_obj_t ** obj_sentinel = NULL;
 174              		.loc 1 399 0
 175 0016 C568     		ldr	r5, [r0, #12]
 176              	.LVL29:
 402:..\..\..\arduinoLCD\test\Pain Drain\libraries\lvgl\src\core/lv_group.c **** 
ARM GAS  C:\Users\haske\AppData\Local\Temp\ccHGZgRG.s 			page 13


 177              		.loc 1 402 0
 178 0018 0123     		movs	r3, #1
 179 001a 9A46     		mov	r10, r3
 400:..\..\..\arduinoLCD\test\Pain Drain\libraries\lvgl\src\core/lv_group.c ****     bool can_move            = true;
 180              		.loc 1 400 0
 181 001c 0026     		movs	r6, #0
 182              	.LVL30:
 183              	.L12:
 184              	.LBB4:
 405:..\..\..\arduinoLCD\test\Pain Drain\libraries\lvgl\src\core/lv_group.c ****             if(group->wrap || obj_sentinel == NULL) {
 185              		.loc 1 405 0
 186 001e 002D     		cmp	r5, #0
 187 0020 0ED1     		bne	.L24
 406:..\..\..\arduinoLCD\test\Pain Drain\libraries\lvgl\src\core/lv_group.c ****                 if(!can_begin) return focus_changed;
 188              		.loc 1 406 0
 189 0022 3B7F     		ldrb	r3, [r7, #28]
 190 0024 1B07     		lsls	r3, r3, #28
 191 0026 01D4     		bmi	.L14
 406:..\..\..\arduinoLCD\test\Pain Drain\libraries\lvgl\src\core/lv_group.c ****                 if(!can_begin) return focus_changed;
 192              		.loc 1 406 0 is_stmt 0 discriminator 1
 193 0028 002E     		cmp	r6, #0
 194 002a 61D1     		bne	.L25
 195              	.L14:
 407:..\..\..\arduinoLCD\test\Pain Drain\libraries\lvgl\src\core/lv_group.c ****                 obj_next  = begin(&group->obj_ll);
 196              		.loc 1 407 0 is_stmt 1
 197 002c 5346     		mov	r3, r10
 198 002e 002B     		cmp	r3, #0
 199 0030 60D0     		beq	.L26
 408:..\..\..\arduinoLCD\test\Pain Drain\libraries\lvgl\src\core/lv_group.c ****                 can_move  = false;
 200              		.loc 1 408 0
 201 0032 3800     		movs	r0, r7
 202 0034 019B     		ldr	r3, [sp, #4]
 203 0036 9847     		blx	r3
 204              	.LVL31:
 205 0038 0500     		movs	r5, r0
 206              	.LVL32:
 410:..\..\..\arduinoLCD\test\Pain Drain\libraries\lvgl\src\core/lv_group.c ****             }
 207              		.loc 1 410 0
 208 003a 0023     		movs	r3, #0
 209 003c 9A46     		mov	r10, r3
 210 003e 00E0     		b	.L13
 211              	.LVL33:
 212              	.L24:
 213 0040 0123     		movs	r3, #1
 214              	.LVL34:
 215              	.L13:
 418:..\..\..\arduinoLCD\test\Pain Drain\libraries\lvgl\src\core/lv_group.c ****             obj_sentinel = obj_next;
 216              		.loc 1 418 0
 217 0042 002E     		cmp	r6, #0
 218 0044 02D1     		bne	.L15
 219              	.LVL35:
 420:..\..\..\arduinoLCD\test\Pain Drain\libraries\lvgl\src\core/lv_group.c ****         }
 220              		.loc 1 420 0
 221 0046 002D     		cmp	r5, #0
 222 0048 56D0     		beq	.L27
 419:..\..\..\arduinoLCD\test\Pain Drain\libraries\lvgl\src\core/lv_group.c ****             if(obj_sentinel == NULL) return focus_changed; /*Group is empty*/
 223              		.loc 1 419 0
ARM GAS  C:\Users\haske\AppData\Local\Temp\ccHGZgRG.s 			page 14


 224 004a 2E00     		movs	r6, r5
 225              	.LVL36:
 226              	.L15:
 423:..\..\..\arduinoLCD\test\Pain Drain\libraries\lvgl\src\core/lv_group.c ****             obj_next = move(&group->obj_ll, obj_next);
 227              		.loc 1 423 0
 228 004c 002B     		cmp	r3, #0
 229 004e 05D0     		beq	.L16
 424:..\..\..\arduinoLCD\test\Pain Drain\libraries\lvgl\src\core/lv_group.c **** 
 230              		.loc 1 424 0
 231 0050 2900     		movs	r1, r5
 232 0052 3800     		movs	r0, r7
 233 0054 C847     		blx	r9
 234              	.LVL37:
 235 0056 0500     		movs	r5, r0
 236              	.LVL38:
 427:..\..\..\arduinoLCD\test\Pain Drain\libraries\lvgl\src\core/lv_group.c ****         }
 237              		.loc 1 427 0
 238 0058 8642     		cmp	r6, r0
 239 005a 4FD0     		beq	.L28
 240              	.LVL39:
 241              	.L16:
 432:..\..\..\arduinoLCD\test\Pain Drain\libraries\lvgl\src\core/lv_group.c ****         if(lv_obj_get_state(*obj_next) & LV_STATE_DISABLED) continue;
 242              		.loc 1 432 0
 243 005c 002D     		cmp	r5, #0
 244 005e DED0     		beq	.L12
 433:..\..\..\arduinoLCD\test\Pain Drain\libraries\lvgl\src\core/lv_group.c **** 
 245              		.loc 1 433 0
 246 0060 2868     		ldr	r0, [r5]
 247 0062 FFF7FEFF 		bl	lv_obj_get_state
 248              	.LVL40:
 249 0066 0306     		lsls	r3, r0, #24
 250 0068 D9D4     		bmi	.L12
 437:..\..\..\arduinoLCD\test\Pain Drain\libraries\lvgl\src\core/lv_group.c ****         while(parent) {
 251              		.loc 1 437 0
 252 006a 2C68     		ldr	r4, [r5]
 253              	.LVL41:
 438:..\..\..\arduinoLCD\test\Pain Drain\libraries\lvgl\src\core/lv_group.c ****             if(lv_obj_has_flag(parent, LV_OBJ_FLAG_HIDDEN)) break;
 254              		.loc 1 438 0
 255 006c 09E0     		b	.L18
 256              	.L20:
 439:..\..\..\arduinoLCD\test\Pain Drain\libraries\lvgl\src\core/lv_group.c ****             parent = lv_obj_get_parent(parent);
 257              		.loc 1 439 0
 258 006e 0121     		movs	r1, #1
 259 0070 2000     		movs	r0, r4
 260 0072 FFF7FEFF 		bl	lv_obj_has_flag
 261              	.LVL42:
 262 0076 0028     		cmp	r0, #0
 263 0078 05D1     		bne	.L19
 440:..\..\..\arduinoLCD\test\Pain Drain\libraries\lvgl\src\core/lv_group.c ****         }
 264              		.loc 1 440 0
 265 007a 2000     		movs	r0, r4
 266 007c FFF7FEFF 		bl	lv_obj_get_parent
 267              	.LVL43:
 268 0080 0400     		movs	r4, r0
 269              	.LVL44:
 270              	.L18:
 438:..\..\..\arduinoLCD\test\Pain Drain\libraries\lvgl\src\core/lv_group.c ****             if(lv_obj_has_flag(parent, LV_OBJ_FLAG_HIDDEN)) break;
ARM GAS  C:\Users\haske\AppData\Local\Temp\ccHGZgRG.s 			page 15


 271              		.loc 1 438 0
 272 0082 002C     		cmp	r4, #0
 273 0084 F3D1     		bne	.L20
 274              	.L19:
 443:..\..\..\arduinoLCD\test\Pain Drain\libraries\lvgl\src\core/lv_group.c **** 
 275              		.loc 1 443 0
 276 0086 002C     		cmp	r4, #0
 277 0088 05D0     		beq	.L21
 443:..\..\..\arduinoLCD\test\Pain Drain\libraries\lvgl\src\core/lv_group.c **** 
 278              		.loc 1 443 0 is_stmt 0 discriminator 1
 279 008a 0121     		movs	r1, #1
 280 008c 2000     		movs	r0, r4
 281 008e FFF7FEFF 		bl	lv_obj_has_flag
 282              	.LVL45:
 283 0092 0028     		cmp	r0, #0
 284 0094 C3D1     		bne	.L12
 285              	.L21:
 286              	.LBE4:
 449:..\..\..\arduinoLCD\test\Pain Drain\libraries\lvgl\src\core/lv_group.c **** 
 287              		.loc 1 449 0 is_stmt 1
 288 0096 FB68     		ldr	r3, [r7, #12]
 289 0098 9D42     		cmp	r5, r3
 290 009a 31D0     		beq	.L29
 451:..\..\..\arduinoLCD\test\Pain Drain\libraries\lvgl\src\core/lv_group.c ****         lv_res_t res = lv_event_send(*group->obj_focus, LV_EVENT_DEFOCUSED, get_indev(group));
 291              		.loc 1 451 0
 292 009c 002B     		cmp	r3, #0
 293 009e 0ED0     		beq	.L22
 294              	.LBB5:
 452:..\..\..\arduinoLCD\test\Pain Drain\libraries\lvgl\src\core/lv_group.c ****         if(res != LV_RES_OK) return focus_changed;
 295              		.loc 1 452 0
 296 00a0 1C68     		ldr	r4, [r3]
 297              	.LVL46:
 298 00a2 3800     		movs	r0, r7
 299 00a4 FFF7FEFF 		bl	get_indev
 300              	.LVL47:
 301 00a8 0200     		movs	r2, r0
 302 00aa 0F21     		movs	r1, #15
 303 00ac 2000     		movs	r0, r4
 304 00ae FFF7FEFF 		bl	lv_event_send
 305              	.LVL48:
 453:..\..\..\arduinoLCD\test\Pain Drain\libraries\lvgl\src\core/lv_group.c ****         lv_obj_invalidate(*group->obj_focus);
 306              		.loc 1 453 0
 307 00b2 0128     		cmp	r0, #1
 308 00b4 26D1     		bne	.L30
 454:..\..\..\arduinoLCD\test\Pain Drain\libraries\lvgl\src\core/lv_group.c ****     }
 309              		.loc 1 454 0
 310 00b6 FB68     		ldr	r3, [r7, #12]
 311 00b8 1868     		ldr	r0, [r3]
 312              	.LVL49:
 313 00ba FFF7FEFF 		bl	lv_obj_invalidate
 314              	.LVL50:
 315              	.L22:
 316              	.LBE5:
 457:..\..\..\arduinoLCD\test\Pain Drain\libraries\lvgl\src\core/lv_group.c **** 
 317              		.loc 1 457 0
 318 00be FD60     		str	r5, [r7, #12]
 459:..\..\..\arduinoLCD\test\Pain Drain\libraries\lvgl\src\core/lv_group.c ****     if(res != LV_RES_OK) return focus_changed;
ARM GAS  C:\Users\haske\AppData\Local\Temp\ccHGZgRG.s 			page 16


 319              		.loc 1 459 0
 320 00c0 2C68     		ldr	r4, [r5]
 321 00c2 3800     		movs	r0, r7
 322 00c4 FFF7FEFF 		bl	get_indev
 323              	.LVL51:
 324 00c8 0200     		movs	r2, r0
 325 00ca 0E21     		movs	r1, #14
 326 00cc 2000     		movs	r0, r4
 327 00ce FFF7FEFF 		bl	lv_event_send
 328              	.LVL52:
 460:..\..\..\arduinoLCD\test\Pain Drain\libraries\lvgl\src\core/lv_group.c **** 
 329              		.loc 1 460 0
 330 00d2 0128     		cmp	r0, #1
 331 00d4 18D1     		bne	.L31
 462:..\..\..\arduinoLCD\test\Pain Drain\libraries\lvgl\src\core/lv_group.c **** 
 332              		.loc 1 462 0
 333 00d6 FB68     		ldr	r3, [r7, #12]
 334 00d8 1868     		ldr	r0, [r3]
 335              	.LVL53:
 336 00da FFF7FEFF 		bl	lv_obj_invalidate
 337              	.LVL54:
 464:..\..\..\arduinoLCD\test\Pain Drain\libraries\lvgl\src\core/lv_group.c ****     focus_changed = true;
 338              		.loc 1 464 0
 339 00de 3B69     		ldr	r3, [r7, #16]
 340 00e0 002B     		cmp	r3, #0
 341 00e2 13D0     		beq	.L32
 464:..\..\..\arduinoLCD\test\Pain Drain\libraries\lvgl\src\core/lv_group.c ****     focus_changed = true;
 342              		.loc 1 464 0 is_stmt 0 discriminator 1
 343 00e4 3800     		movs	r0, r7
 344 00e6 9847     		blx	r3
 345              	.LVL55:
 466:..\..\..\arduinoLCD\test\Pain Drain\libraries\lvgl\src\core/lv_group.c **** }
 346              		.loc 1 466 0 is_stmt 1 discriminator 1
 347 00e8 0120     		movs	r0, #1
 348 00ea 10E0     		b	.L11
 349              	.LVL56:
 350              	.L23:
 397:..\..\..\arduinoLCD\test\Pain Drain\libraries\lvgl\src\core/lv_group.c **** 
 351              		.loc 1 397 0
 352 00ec 0020     		movs	r0, #0
 353              	.LVL57:
 354 00ee 0EE0     		b	.L11
 355              	.LVL58:
 356              	.L25:
 357              	.LBB6:
 414:..\..\..\arduinoLCD\test\Pain Drain\libraries\lvgl\src\core/lv_group.c ****             }
 358              		.loc 1 414 0
 359 00f0 0020     		movs	r0, #0
 360 00f2 0CE0     		b	.L11
 361              	.L26:
 407:..\..\..\arduinoLCD\test\Pain Drain\libraries\lvgl\src\core/lv_group.c ****                 obj_next  = begin(&group->obj_ll);
 362              		.loc 1 407 0
 363 00f4 0020     		movs	r0, #0
 364 00f6 0AE0     		b	.L11
 365              	.LVL59:
 366              	.L27:
 420:..\..\..\arduinoLCD\test\Pain Drain\libraries\lvgl\src\core/lv_group.c ****         }
ARM GAS  C:\Users\haske\AppData\Local\Temp\ccHGZgRG.s 			page 17


 367              		.loc 1 420 0
 368 00f8 0020     		movs	r0, #0
 369 00fa 08E0     		b	.L11
 370              	.LVL60:
 371              	.L28:
 427:..\..\..\arduinoLCD\test\Pain Drain\libraries\lvgl\src\core/lv_group.c ****         }
 372              		.loc 1 427 0
 373 00fc 0020     		movs	r0, #0
 374              	.LVL61:
 375 00fe 06E0     		b	.L11
 376              	.LVL62:
 377              	.L29:
 378              	.LBE6:
 449:..\..\..\arduinoLCD\test\Pain Drain\libraries\lvgl\src\core/lv_group.c **** 
 379              		.loc 1 449 0
 380 0100 0020     		movs	r0, #0
 381 0102 04E0     		b	.L11
 382              	.LVL63:
 383              	.L30:
 384              	.LBB7:
 453:..\..\..\arduinoLCD\test\Pain Drain\libraries\lvgl\src\core/lv_group.c ****         lv_obj_invalidate(*group->obj_focus);
 385              		.loc 1 453 0
 386 0104 0020     		movs	r0, #0
 387              	.LVL64:
 388 0106 02E0     		b	.L11
 389              	.LVL65:
 390              	.L31:
 391              	.LBE7:
 460:..\..\..\arduinoLCD\test\Pain Drain\libraries\lvgl\src\core/lv_group.c **** 
 392              		.loc 1 460 0
 393 0108 0020     		movs	r0, #0
 394              	.LVL66:
 395 010a 00E0     		b	.L11
 396              	.L32:
 466:..\..\..\arduinoLCD\test\Pain Drain\libraries\lvgl\src\core/lv_group.c **** }
 397              		.loc 1 466 0
 398 010c 0120     		movs	r0, #1
 399              	.LVL67:
 400              	.L11:
 467:..\..\..\arduinoLCD\test\Pain Drain\libraries\lvgl\src\core/lv_group.c **** 
 401              		.loc 1 467 0
 402 010e 03B0     		add	sp, sp, #12
 403              		@ sp needed
 404              	.LVL68:
 405              	.LVL69:
 406 0110 0CBC     		pop	{r2, r3}
 407 0112 9146     		mov	r9, r2
 408 0114 9A46     		mov	r10, r3
 409 0116 F0BD     		pop	{r4, r5, r6, r7, pc}
 410              		.cfi_endproc
 411              	.LFE185:
 412              		.size	focus_next_core, .-focus_next_core
 413              		.section	.text._lv_group_init,"ax",%progbits
 414              		.align	2
 415              		.global	_lv_group_init
 416              		.code	16
 417              		.thumb_func
ARM GAS  C:\Users\haske\AppData\Local\Temp\ccHGZgRG.s 			page 18


 418              		.type	_lv_group_init, %function
 419              	_lv_group_init:
 420              	.LFB159:
  46:..\..\..\arduinoLCD\test\Pain Drain\libraries\lvgl\src\core/lv_group.c ****     _lv_ll_init(&LV_GC_ROOT(_lv_group_ll), sizeof(lv_group_t));
 421              		.loc 1 46 0
 422              		.cfi_startproc
 423              		@ args = 0, pretend = 0, frame = 0
 424              		@ frame_needed = 0, uses_anonymous_args = 0
 425 0000 10B5     		push	{r4, lr}
 426              		.cfi_def_cfa_offset 8
 427              		.cfi_offset 4, -8
 428              		.cfi_offset 14, -4
  47:..\..\..\arduinoLCD\test\Pain Drain\libraries\lvgl\src\core/lv_group.c **** }
 429              		.loc 1 47 0
 430 0002 2021     		movs	r1, #32
 431 0004 0148     		ldr	r0, .L34
 432 0006 FFF7FEFF 		bl	_lv_ll_init
 433              	.LVL70:
  48:..\..\..\arduinoLCD\test\Pain Drain\libraries\lvgl\src\core/lv_group.c **** 
 434              		.loc 1 48 0
 435              		@ sp needed
 436 000a 10BD     		pop	{r4, pc}
 437              	.L35:
 438              		.align	2
 439              	.L34:
 440 000c 00000000 		.word	_lv_group_ll
 441              		.cfi_endproc
 442              	.LFE159:
 443              		.size	_lv_group_init, .-_lv_group_init
 444              		.section	.text.lv_group_create,"ax",%progbits
 445              		.align	2
 446              		.global	lv_group_create
 447              		.code	16
 448              		.thumb_func
 449              		.type	lv_group_create, %function
 450              	lv_group_create:
 451              	.LFB160:
  51:..\..\..\arduinoLCD\test\Pain Drain\libraries\lvgl\src\core/lv_group.c ****     lv_group_t * group = _lv_ll_ins_head(&LV_GC_ROOT(_lv_group_ll));
 452              		.loc 1 51 0
 453              		.cfi_startproc
 454              		@ args = 0, pretend = 0, frame = 0
 455              		@ frame_needed = 0, uses_anonymous_args = 0
 456 0000 10B5     		push	{r4, lr}
 457              		.cfi_def_cfa_offset 8
 458              		.cfi_offset 4, -8
 459              		.cfi_offset 14, -4
  52:..\..\..\arduinoLCD\test\Pain Drain\libraries\lvgl\src\core/lv_group.c ****     LV_ASSERT_MALLOC(group);
 460              		.loc 1 52 0
 461 0002 1048     		ldr	r0, .L41
 462 0004 FFF7FEFF 		bl	_lv_ll_ins_head
 463              	.LVL71:
 464 0008 041E     		subs	r4, r0, #0
 465              	.LVL72:
  53:..\..\..\arduinoLCD\test\Pain Drain\libraries\lvgl\src\core/lv_group.c ****     if(group == NULL) return NULL;
 466              		.loc 1 53 0
 467 000a 00D1     		bne	.L37
 468              	.L38:
ARM GAS  C:\Users\haske\AppData\Local\Temp\ccHGZgRG.s 			page 19


 469 000c FEE7     		b	.L38
 470              	.L37:
  54:..\..\..\arduinoLCD\test\Pain Drain\libraries\lvgl\src\core/lv_group.c ****     _lv_ll_init(&group->obj_ll, sizeof(lv_obj_t *));
 471              		.loc 1 54 0
 472 000e 0028     		cmp	r0, #0
 473 0010 15D0     		beq	.L40
  55:..\..\..\arduinoLCD\test\Pain Drain\libraries\lvgl\src\core/lv_group.c **** 
 474              		.loc 1 55 0
 475 0012 0421     		movs	r1, #4
 476 0014 FFF7FEFF 		bl	_lv_ll_init
 477              	.LVL73:
  57:..\..\..\arduinoLCD\test\Pain Drain\libraries\lvgl\src\core/lv_group.c ****     group->frozen         = 0;
 478              		.loc 1 57 0
 479 0018 0021     		movs	r1, #0
 480 001a E160     		str	r1, [r4, #12]
  58:..\..\..\arduinoLCD\test\Pain Drain\libraries\lvgl\src\core/lv_group.c ****     group->focus_cb       = NULL;
 481              		.loc 1 58 0
 482 001c 237F     		ldrb	r3, [r4, #28]
  59:..\..\..\arduinoLCD\test\Pain Drain\libraries\lvgl\src\core/lv_group.c ****     group->edge_cb        = NULL;
 483              		.loc 1 59 0
 484 001e 2161     		str	r1, [r4, #16]
  60:..\..\..\arduinoLCD\test\Pain Drain\libraries\lvgl\src\core/lv_group.c ****     group->editing        = 0;
 485              		.loc 1 60 0
 486 0020 6161     		str	r1, [r4, #20]
  61:..\..\..\arduinoLCD\test\Pain Drain\libraries\lvgl\src\core/lv_group.c ****     group->refocus_policy = LV_GROUP_REFOCUS_POLICY_PREV;
 487              		.loc 1 61 0
 488 0022 0122     		movs	r2, #1
 489 0024 9343     		bics	r3, r2
  62:..\..\..\arduinoLCD\test\Pain Drain\libraries\lvgl\src\core/lv_group.c ****     group->wrap           = 1;
 490              		.loc 1 62 0
 491 0026 0132     		adds	r2, r2, #1
 492 0028 9343     		bics	r3, r2
 493 002a 1A00     		movs	r2, r3
 494 002c 0423     		movs	r3, #4
 495 002e 1343     		orrs	r3, r2
  63:..\..\..\arduinoLCD\test\Pain Drain\libraries\lvgl\src\core/lv_group.c **** 
 496              		.loc 1 63 0
 497 0030 DBB2     		uxtb	r3, r3
 498 0032 0822     		movs	r2, #8
 499 0034 1343     		orrs	r3, r2
 500 0036 2377     		strb	r3, [r4, #28]
  66:..\..\..\arduinoLCD\test\Pain Drain\libraries\lvgl\src\core/lv_group.c **** #endif
 501              		.loc 1 66 0
 502 0038 A161     		str	r1, [r4, #24]
  69:..\..\..\arduinoLCD\test\Pain Drain\libraries\lvgl\src\core/lv_group.c **** }
 503              		.loc 1 69 0
 504 003a 2000     		movs	r0, r4
 505 003c 00E0     		b	.L39
 506              	.LVL74:
 507              	.L40:
  54:..\..\..\arduinoLCD\test\Pain Drain\libraries\lvgl\src\core/lv_group.c ****     _lv_ll_init(&group->obj_ll, sizeof(lv_obj_t *));
 508              		.loc 1 54 0
 509 003e 0020     		movs	r0, #0
 510              	.LVL75:
 511              	.L39:
  70:..\..\..\arduinoLCD\test\Pain Drain\libraries\lvgl\src\core/lv_group.c **** 
 512              		.loc 1 70 0
ARM GAS  C:\Users\haske\AppData\Local\Temp\ccHGZgRG.s 			page 20


 513              		@ sp needed
 514              	.LVL76:
 515 0040 10BD     		pop	{r4, pc}
 516              	.L42:
 517 0042 C046     		.align	2
 518              	.L41:
 519 0044 00000000 		.word	_lv_group_ll
 520              		.cfi_endproc
 521              	.LFE160:
 522              		.size	lv_group_create, .-lv_group_create
 523              		.section	.text.lv_group_del,"ax",%progbits
 524              		.align	2
 525              		.global	lv_group_del
 526              		.code	16
 527              		.thumb_func
 528              		.type	lv_group_del, %function
 529              	lv_group_del:
 530              	.LFB161:
  73:..\..\..\arduinoLCD\test\Pain Drain\libraries\lvgl\src\core/lv_group.c ****     /*Defocus the currently focused object*/
 531              		.loc 1 73 0
 532              		.cfi_startproc
 533              		@ args = 0, pretend = 0, frame = 0
 534              		@ frame_needed = 0, uses_anonymous_args = 0
 535              	.LVL77:
 536 0000 70B5     		push	{r4, r5, r6, lr}
 537              		.cfi_def_cfa_offset 16
 538              		.cfi_offset 4, -16
 539              		.cfi_offset 5, -12
 540              		.cfi_offset 6, -8
 541              		.cfi_offset 14, -4
 542 0002 0500     		movs	r5, r0
  75:..\..\..\arduinoLCD\test\Pain Drain\libraries\lvgl\src\core/lv_group.c ****         lv_event_send(*group->obj_focus, LV_EVENT_DEFOCUSED, get_indev(group));
 543              		.loc 1 75 0
 544 0004 C368     		ldr	r3, [r0, #12]
 545 0006 002B     		cmp	r3, #0
 546 0008 0BD0     		beq	.L44
  76:..\..\..\arduinoLCD\test\Pain Drain\libraries\lvgl\src\core/lv_group.c ****         lv_obj_invalidate(*group->obj_focus);
 547              		.loc 1 76 0
 548 000a 1C68     		ldr	r4, [r3]
 549 000c FFF7FEFF 		bl	get_indev
 550              	.LVL78:
 551 0010 0200     		movs	r2, r0
 552 0012 0F21     		movs	r1, #15
 553 0014 2000     		movs	r0, r4
 554 0016 FFF7FEFF 		bl	lv_event_send
 555              	.LVL79:
  77:..\..\..\arduinoLCD\test\Pain Drain\libraries\lvgl\src\core/lv_group.c ****     }
 556              		.loc 1 77 0
 557 001a EB68     		ldr	r3, [r5, #12]
 558 001c 1868     		ldr	r0, [r3]
 559 001e FFF7FEFF 		bl	lv_obj_invalidate
 560              	.LVL80:
 561              	.L44:
  82:..\..\..\arduinoLCD\test\Pain Drain\libraries\lvgl\src\core/lv_group.c ****         if((*obj)->spec_attr)(*obj)->spec_attr->group_p = NULL;
 562              		.loc 1 82 0
 563 0022 2C00     		movs	r4, r5
 564 0024 2800     		movs	r0, r5
ARM GAS  C:\Users\haske\AppData\Local\Temp\ccHGZgRG.s 			page 21


 565 0026 FFF7FEFF 		bl	_lv_ll_get_head
 566              	.LVL81:
 567 002a 09E0     		b	.L45
 568              	.LVL82:
 569              	.L47:
  83:..\..\..\arduinoLCD\test\Pain Drain\libraries\lvgl\src\core/lv_group.c ****     }
 570              		.loc 1 83 0
 571 002c 0368     		ldr	r3, [r0]
 572 002e 9B68     		ldr	r3, [r3, #8]
 573 0030 002B     		cmp	r3, #0
 574 0032 01D0     		beq	.L46
  83:..\..\..\arduinoLCD\test\Pain Drain\libraries\lvgl\src\core/lv_group.c ****     }
 575              		.loc 1 83 0 is_stmt 0 discriminator 1
 576 0034 0022     		movs	r2, #0
 577 0036 9A60     		str	r2, [r3, #8]
 578              	.L46:
  82:..\..\..\arduinoLCD\test\Pain Drain\libraries\lvgl\src\core/lv_group.c ****         if((*obj)->spec_attr)(*obj)->spec_attr->group_p = NULL;
 579              		.loc 1 82 0 is_stmt 1 discriminator 2
 580 0038 0100     		movs	r1, r0
 581 003a 2000     		movs	r0, r4
 582              	.LVL83:
 583 003c FFF7FEFF 		bl	_lv_ll_get_next
 584              	.LVL84:
 585              	.L45:
  82:..\..\..\arduinoLCD\test\Pain Drain\libraries\lvgl\src\core/lv_group.c ****         if((*obj)->spec_attr)(*obj)->spec_attr->group_p = NULL;
 586              		.loc 1 82 0 is_stmt 0 discriminator 1
 587 0040 0028     		cmp	r0, #0
 588 0042 F3D1     		bne	.L47
  87:..\..\..\arduinoLCD\test\Pain Drain\libraries\lvgl\src\core/lv_group.c ****     while(indev) {
 589              		.loc 1 87 0 is_stmt 1
 590 0044 FFF7FEFF 		bl	lv_indev_get_next
 591              	.LVL85:
 592 0048 0400     		movs	r4, r0
 593              	.LVL86:
  88:..\..\..\arduinoLCD\test\Pain Drain\libraries\lvgl\src\core/lv_group.c ****         if(indev->group == group) {
 594              		.loc 1 88 0
 595 004a 0AE0     		b	.L48
 596              	.L50:
  89:..\..\..\arduinoLCD\test\Pain Drain\libraries\lvgl\src\core/lv_group.c ****             lv_indev_set_group(indev, NULL);
 597              		.loc 1 89 0
 598 004c 636D     		ldr	r3, [r4, #84]
 599 004e 9D42     		cmp	r5, r3
 600 0050 03D1     		bne	.L49
  90:..\..\..\arduinoLCD\test\Pain Drain\libraries\lvgl\src\core/lv_group.c ****         }
 601              		.loc 1 90 0
 602 0052 0021     		movs	r1, #0
 603 0054 2000     		movs	r0, r4
 604 0056 FFF7FEFF 		bl	lv_indev_set_group
 605              	.LVL87:
 606              	.L49:
  92:..\..\..\arduinoLCD\test\Pain Drain\libraries\lvgl\src\core/lv_group.c ****     }
 607              		.loc 1 92 0
 608 005a 2000     		movs	r0, r4
 609 005c FFF7FEFF 		bl	lv_indev_get_next
 610              	.LVL88:
 611 0060 0400     		movs	r4, r0
 612              	.LVL89:
ARM GAS  C:\Users\haske\AppData\Local\Temp\ccHGZgRG.s 			page 22


 613              	.L48:
  88:..\..\..\arduinoLCD\test\Pain Drain\libraries\lvgl\src\core/lv_group.c ****         if(indev->group == group) {
 614              		.loc 1 88 0
 615 0062 002C     		cmp	r4, #0
 616 0064 F2D1     		bne	.L50
  95:..\..\..\arduinoLCD\test\Pain Drain\libraries\lvgl\src\core/lv_group.c ****     _lv_ll_clear(&(group->obj_ll));
 617              		.loc 1 95 0
 618 0066 094B     		ldr	r3, .L52
 619 0068 1B68     		ldr	r3, [r3]
 620 006a 9D42     		cmp	r5, r3
 621 006c 02D1     		bne	.L51
  95:..\..\..\arduinoLCD\test\Pain Drain\libraries\lvgl\src\core/lv_group.c ****     _lv_ll_clear(&(group->obj_ll));
 622              		.loc 1 95 0 is_stmt 0 discriminator 1
 623 006e 0022     		movs	r2, #0
 624 0070 064B     		ldr	r3, .L52
 625 0072 1A60     		str	r2, [r3]
 626              	.L51:
  96:..\..\..\arduinoLCD\test\Pain Drain\libraries\lvgl\src\core/lv_group.c ****     _lv_ll_remove(&LV_GC_ROOT(_lv_group_ll), group);
 627              		.loc 1 96 0 is_stmt 1
 628 0074 2800     		movs	r0, r5
 629              	.LVL90:
 630 0076 FFF7FEFF 		bl	_lv_ll_clear
 631              	.LVL91:
  97:..\..\..\arduinoLCD\test\Pain Drain\libraries\lvgl\src\core/lv_group.c ****     lv_mem_free(group);
 632              		.loc 1 97 0
 633 007a 2900     		movs	r1, r5
 634 007c 0448     		ldr	r0, .L52+4
 635 007e FFF7FEFF 		bl	_lv_ll_remove
 636              	.LVL92:
  98:..\..\..\arduinoLCD\test\Pain Drain\libraries\lvgl\src\core/lv_group.c **** }
 637              		.loc 1 98 0
 638 0082 2800     		movs	r0, r5
 639 0084 FFF7FEFF 		bl	lv_mem_free
 640              	.LVL93:
  99:..\..\..\arduinoLCD\test\Pain Drain\libraries\lvgl\src\core/lv_group.c **** 
 641              		.loc 1 99 0
 642              		@ sp needed
 643              	.LVL94:
 644              	.LVL95:
 645 0088 70BD     		pop	{r4, r5, r6, pc}
 646              	.L53:
 647 008a C046     		.align	2
 648              	.L52:
 649 008c 00000000 		.word	.LANCHOR0
 650 0090 00000000 		.word	_lv_group_ll
 651              		.cfi_endproc
 652              	.LFE161:
 653              		.size	lv_group_del, .-lv_group_del
 654              		.section	.text.lv_group_set_default,"ax",%progbits
 655              		.align	2
 656              		.global	lv_group_set_default
 657              		.code	16
 658              		.thumb_func
 659              		.type	lv_group_set_default, %function
 660              	lv_group_set_default:
 661              	.LFB162:
 102:..\..\..\arduinoLCD\test\Pain Drain\libraries\lvgl\src\core/lv_group.c ****     default_group = group;
ARM GAS  C:\Users\haske\AppData\Local\Temp\ccHGZgRG.s 			page 23


 662              		.loc 1 102 0
 663              		.cfi_startproc
 664              		@ args = 0, pretend = 0, frame = 0
 665              		@ frame_needed = 0, uses_anonymous_args = 0
 666              		@ link register save eliminated.
 667              	.LVL96:
 103:..\..\..\arduinoLCD\test\Pain Drain\libraries\lvgl\src\core/lv_group.c **** }
 668              		.loc 1 103 0
 669 0000 014B     		ldr	r3, .L55
 670 0002 1860     		str	r0, [r3]
 104:..\..\..\arduinoLCD\test\Pain Drain\libraries\lvgl\src\core/lv_group.c **** 
 671              		.loc 1 104 0
 672              		@ sp needed
 673 0004 7047     		bx	lr
 674              	.L56:
 675 0006 C046     		.align	2
 676              	.L55:
 677 0008 00000000 		.word	.LANCHOR0
 678              		.cfi_endproc
 679              	.LFE162:
 680              		.size	lv_group_set_default, .-lv_group_set_default
 681              		.section	.text.lv_group_get_default,"ax",%progbits
 682              		.align	2
 683              		.global	lv_group_get_default
 684              		.code	16
 685              		.thumb_func
 686              		.type	lv_group_get_default, %function
 687              	lv_group_get_default:
 688              	.LFB163:
 107:..\..\..\arduinoLCD\test\Pain Drain\libraries\lvgl\src\core/lv_group.c ****     return default_group;
 689              		.loc 1 107 0
 690              		.cfi_startproc
 691              		@ args = 0, pretend = 0, frame = 0
 692              		@ frame_needed = 0, uses_anonymous_args = 0
 693              		@ link register save eliminated.
 108:..\..\..\arduinoLCD\test\Pain Drain\libraries\lvgl\src\core/lv_group.c **** }
 694              		.loc 1 108 0
 695 0000 014B     		ldr	r3, .L58
 696 0002 1868     		ldr	r0, [r3]
 109:..\..\..\arduinoLCD\test\Pain Drain\libraries\lvgl\src\core/lv_group.c **** 
 697              		.loc 1 109 0
 698              		@ sp needed
 699 0004 7047     		bx	lr
 700              	.L59:
 701 0006 C046     		.align	2
 702              	.L58:
 703 0008 00000000 		.word	.LANCHOR0
 704              		.cfi_endproc
 705              	.LFE163:
 706              		.size	lv_group_get_default, .-lv_group_get_default
 707              		.section	.text.lv_group_remove_all_objs,"ax",%progbits
 708              		.align	2
 709              		.global	lv_group_remove_all_objs
 710              		.code	16
 711              		.thumb_func
 712              		.type	lv_group_remove_all_objs, %function
 713              	lv_group_remove_all_objs:
ARM GAS  C:\Users\haske\AppData\Local\Temp\ccHGZgRG.s 			page 24


 714              	.LFB167:
 217:..\..\..\arduinoLCD\test\Pain Drain\libraries\lvgl\src\core/lv_group.c ****     /*Defocus the currently focused object*/
 715              		.loc 1 217 0
 716              		.cfi_startproc
 717              		@ args = 0, pretend = 0, frame = 0
 718              		@ frame_needed = 0, uses_anonymous_args = 0
 719              	.LVL97:
 720 0000 70B5     		push	{r4, r5, r6, lr}
 721              		.cfi_def_cfa_offset 16
 722              		.cfi_offset 4, -16
 723              		.cfi_offset 5, -12
 724              		.cfi_offset 6, -8
 725              		.cfi_offset 14, -4
 726 0002 0500     		movs	r5, r0
 219:..\..\..\arduinoLCD\test\Pain Drain\libraries\lvgl\src\core/lv_group.c ****         lv_event_send(*group->obj_focus, LV_EVENT_DEFOCUSED, get_indev(group));
 727              		.loc 1 219 0
 728 0004 C368     		ldr	r3, [r0, #12]
 729 0006 002B     		cmp	r3, #0
 730 0008 0DD0     		beq	.L61
 220:..\..\..\arduinoLCD\test\Pain Drain\libraries\lvgl\src\core/lv_group.c ****         lv_obj_invalidate(*group->obj_focus);
 731              		.loc 1 220 0
 732 000a 1C68     		ldr	r4, [r3]
 733 000c FFF7FEFF 		bl	get_indev
 734              	.LVL98:
 735 0010 0200     		movs	r2, r0
 736 0012 0F21     		movs	r1, #15
 737 0014 2000     		movs	r0, r4
 738 0016 FFF7FEFF 		bl	lv_event_send
 739              	.LVL99:
 221:..\..\..\arduinoLCD\test\Pain Drain\libraries\lvgl\src\core/lv_group.c ****         group->obj_focus = NULL;
 740              		.loc 1 221 0
 741 001a EB68     		ldr	r3, [r5, #12]
 742 001c 1868     		ldr	r0, [r3]
 743 001e FFF7FEFF 		bl	lv_obj_invalidate
 744              	.LVL100:
 222:..\..\..\arduinoLCD\test\Pain Drain\libraries\lvgl\src\core/lv_group.c ****     }
 745              		.loc 1 222 0
 746 0022 0023     		movs	r3, #0
 747 0024 EB60     		str	r3, [r5, #12]
 748              	.L61:
 227:..\..\..\arduinoLCD\test\Pain Drain\libraries\lvgl\src\core/lv_group.c ****         if((*obj)->spec_attr)(*obj)->spec_attr->group_p = NULL;
 749              		.loc 1 227 0
 750 0026 2C00     		movs	r4, r5
 751 0028 2800     		movs	r0, r5
 752 002a FFF7FEFF 		bl	_lv_ll_get_head
 753              	.LVL101:
 754 002e 09E0     		b	.L62
 755              	.LVL102:
 756              	.L64:
 228:..\..\..\arduinoLCD\test\Pain Drain\libraries\lvgl\src\core/lv_group.c ****     }
 757              		.loc 1 228 0
 758 0030 0368     		ldr	r3, [r0]
 759 0032 9B68     		ldr	r3, [r3, #8]
 760 0034 002B     		cmp	r3, #0
 761 0036 01D0     		beq	.L63
 228:..\..\..\arduinoLCD\test\Pain Drain\libraries\lvgl\src\core/lv_group.c ****     }
 762              		.loc 1 228 0 is_stmt 0 discriminator 1
ARM GAS  C:\Users\haske\AppData\Local\Temp\ccHGZgRG.s 			page 25


 763 0038 0022     		movs	r2, #0
 764 003a 9A60     		str	r2, [r3, #8]
 765              	.L63:
 227:..\..\..\arduinoLCD\test\Pain Drain\libraries\lvgl\src\core/lv_group.c ****         if((*obj)->spec_attr)(*obj)->spec_attr->group_p = NULL;
 766              		.loc 1 227 0 is_stmt 1 discriminator 2
 767 003c 0100     		movs	r1, r0
 768 003e 2000     		movs	r0, r4
 769              	.LVL103:
 770 0040 FFF7FEFF 		bl	_lv_ll_get_next
 771              	.LVL104:
 772              	.L62:
 227:..\..\..\arduinoLCD\test\Pain Drain\libraries\lvgl\src\core/lv_group.c ****         if((*obj)->spec_attr)(*obj)->spec_attr->group_p = NULL;
 773              		.loc 1 227 0 is_stmt 0 discriminator 1
 774 0044 0028     		cmp	r0, #0
 775 0046 F3D1     		bne	.L64
 231:..\..\..\arduinoLCD\test\Pain Drain\libraries\lvgl\src\core/lv_group.c **** }
 776              		.loc 1 231 0 is_stmt 1
 777 0048 2800     		movs	r0, r5
 778              	.LVL105:
 779 004a FFF7FEFF 		bl	_lv_ll_clear
 780              	.LVL106:
 232:..\..\..\arduinoLCD\test\Pain Drain\libraries\lvgl\src\core/lv_group.c **** 
 781              		.loc 1 232 0
 782              		@ sp needed
 783              	.LVL107:
 784              	.LVL108:
 785 004e 70BD     		pop	{r4, r5, r6, pc}
 786              		.cfi_endproc
 787              	.LFE167:
 788              		.size	lv_group_remove_all_objs, .-lv_group_remove_all_objs
 789              		.section	.text.lv_group_focus_next,"ax",%progbits
 790              		.align	2
 791              		.global	lv_group_focus_next
 792              		.code	16
 793              		.thumb_func
 794              		.type	lv_group_focus_next, %function
 795              	lv_group_focus_next:
 796              	.LFB169:
 268:..\..\..\arduinoLCD\test\Pain Drain\libraries\lvgl\src\core/lv_group.c ****     bool focus_changed = focus_next_core(group, _lv_ll_get_head, _lv_ll_get_next);
 797              		.loc 1 268 0
 798              		.cfi_startproc
 799              		@ args = 0, pretend = 0, frame = 0
 800              		@ frame_needed = 0, uses_anonymous_args = 0
 801              	.LVL109:
 802 0000 10B5     		push	{r4, lr}
 803              		.cfi_def_cfa_offset 8
 804              		.cfi_offset 4, -8
 805              		.cfi_offset 14, -4
 806 0002 0400     		movs	r4, r0
 269:..\..\..\arduinoLCD\test\Pain Drain\libraries\lvgl\src\core/lv_group.c ****     if(group->edge_cb) {
 807              		.loc 1 269 0
 808 0004 064A     		ldr	r2, .L67
 809 0006 0749     		ldr	r1, .L67+4
 810 0008 FFF7FEFF 		bl	focus_next_core
 811              	.LVL110:
 270:..\..\..\arduinoLCD\test\Pain Drain\libraries\lvgl\src\core/lv_group.c ****         if(!focus_changed)
 812              		.loc 1 270 0
ARM GAS  C:\Users\haske\AppData\Local\Temp\ccHGZgRG.s 			page 26


 813 000c 6369     		ldr	r3, [r4, #20]
 814 000e 002B     		cmp	r3, #0
 815 0010 04D0     		beq	.L65
 271:..\..\..\arduinoLCD\test\Pain Drain\libraries\lvgl\src\core/lv_group.c ****             group->edge_cb(group, true);
 816              		.loc 1 271 0
 817 0012 0028     		cmp	r0, #0
 818 0014 02D1     		bne	.L65
 272:..\..\..\arduinoLCD\test\Pain Drain\libraries\lvgl\src\core/lv_group.c ****     }
 819              		.loc 1 272 0
 820 0016 0121     		movs	r1, #1
 821 0018 2000     		movs	r0, r4
 822              	.LVL111:
 823 001a 9847     		blx	r3
 824              	.LVL112:
 825              	.L65:
 274:..\..\..\arduinoLCD\test\Pain Drain\libraries\lvgl\src\core/lv_group.c **** 
 826              		.loc 1 274 0
 827              		@ sp needed
 828              	.LVL113:
 829 001c 10BD     		pop	{r4, pc}
 830              	.L68:
 831 001e C046     		.align	2
 832              	.L67:
 833 0020 00000000 		.word	_lv_ll_get_next
 834 0024 00000000 		.word	_lv_ll_get_head
 835              		.cfi_endproc
 836              	.LFE169:
 837              		.size	lv_group_focus_next, .-lv_group_focus_next
 838              		.section	.text.lv_group_focus_prev,"ax",%progbits
 839              		.align	2
 840              		.global	lv_group_focus_prev
 841              		.code	16
 842              		.thumb_func
 843              		.type	lv_group_focus_prev, %function
 844              	lv_group_focus_prev:
 845              	.LFB170:
 277:..\..\..\arduinoLCD\test\Pain Drain\libraries\lvgl\src\core/lv_group.c ****     bool focus_changed = focus_next_core(group, _lv_ll_get_tail, _lv_ll_get_prev);
 846              		.loc 1 277 0
 847              		.cfi_startproc
 848              		@ args = 0, pretend = 0, frame = 0
 849              		@ frame_needed = 0, uses_anonymous_args = 0
 850              	.LVL114:
 851 0000 10B5     		push	{r4, lr}
 852              		.cfi_def_cfa_offset 8
 853              		.cfi_offset 4, -8
 854              		.cfi_offset 14, -4
 855 0002 0400     		movs	r4, r0
 278:..\..\..\arduinoLCD\test\Pain Drain\libraries\lvgl\src\core/lv_group.c ****     if(group->edge_cb) {
 856              		.loc 1 278 0
 857 0004 064A     		ldr	r2, .L71
 858 0006 0749     		ldr	r1, .L71+4
 859 0008 FFF7FEFF 		bl	focus_next_core
 860              	.LVL115:
 279:..\..\..\arduinoLCD\test\Pain Drain\libraries\lvgl\src\core/lv_group.c ****         if(!focus_changed)
 861              		.loc 1 279 0
 862 000c 6369     		ldr	r3, [r4, #20]
 863 000e 002B     		cmp	r3, #0
ARM GAS  C:\Users\haske\AppData\Local\Temp\ccHGZgRG.s 			page 27


 864 0010 04D0     		beq	.L69
 280:..\..\..\arduinoLCD\test\Pain Drain\libraries\lvgl\src\core/lv_group.c ****             group->edge_cb(group, false);
 865              		.loc 1 280 0
 866 0012 0028     		cmp	r0, #0
 867 0014 02D1     		bne	.L69
 281:..\..\..\arduinoLCD\test\Pain Drain\libraries\lvgl\src\core/lv_group.c ****     }
 868              		.loc 1 281 0
 869 0016 0021     		movs	r1, #0
 870 0018 2000     		movs	r0, r4
 871              	.LVL116:
 872 001a 9847     		blx	r3
 873              	.LVL117:
 874              	.L69:
 283:..\..\..\arduinoLCD\test\Pain Drain\libraries\lvgl\src\core/lv_group.c **** 
 875              		.loc 1 283 0
 876              		@ sp needed
 877              	.LVL118:
 878 001c 10BD     		pop	{r4, pc}
 879              	.L72:
 880 001e C046     		.align	2
 881              	.L71:
 882 0020 00000000 		.word	_lv_ll_get_prev
 883 0024 00000000 		.word	_lv_ll_get_tail
 884              		.cfi_endproc
 885              	.LFE170:
 886              		.size	lv_group_focus_prev, .-lv_group_focus_prev
 887              		.section	.text.lv_group_refocus,"ax",%progbits
 888              		.align	2
 889              		.code	16
 890              		.thumb_func
 891              		.type	lv_group_refocus, %function
 892              	lv_group_refocus:
 893              	.LFB184:
 380:..\..\..\arduinoLCD\test\Pain Drain\libraries\lvgl\src\core/lv_group.c ****     /*Refocus must temporarily allow wrapping to work correctly*/
 894              		.loc 1 380 0
 895              		.cfi_startproc
 896              		@ args = 0, pretend = 0, frame = 0
 897              		@ frame_needed = 0, uses_anonymous_args = 0
 898              	.LVL119:
 899 0000 70B5     		push	{r4, r5, r6, lr}
 900              		.cfi_def_cfa_offset 16
 901              		.cfi_offset 4, -16
 902              		.cfi_offset 5, -12
 903              		.cfi_offset 6, -8
 904              		.cfi_offset 14, -4
 905 0002 0500     		movs	r5, r0
 382:..\..\..\arduinoLCD\test\Pain Drain\libraries\lvgl\src\core/lv_group.c ****     g->wrap           = 1;
 906              		.loc 1 382 0
 907 0004 027F     		ldrb	r2, [r0, #28]
 908 0006 1407     		lsls	r4, r2, #28
 909 0008 E40F     		lsrs	r4, r4, #31
 910              	.LVL120:
 383:..\..\..\arduinoLCD\test\Pain Drain\libraries\lvgl\src\core/lv_group.c **** 
 911              		.loc 1 383 0
 912 000a 0823     		movs	r3, #8
 913 000c 1343     		orrs	r3, r2
 914 000e 0377     		strb	r3, [r0, #28]
ARM GAS  C:\Users\haske\AppData\Local\Temp\ccHGZgRG.s 			page 28


 385:..\..\..\arduinoLCD\test\Pain Drain\libraries\lvgl\src\core/lv_group.c ****         lv_group_focus_next(g);
 915              		.loc 1 385 0
 916 0010 0422     		movs	r2, #4
 917              	.LVL121:
 918 0012 1340     		ands	r3, r2
 919 0014 02D1     		bne	.L74
 386:..\..\..\arduinoLCD\test\Pain Drain\libraries\lvgl\src\core/lv_group.c ****     else if(g->refocus_policy == LV_GROUP_REFOCUS_POLICY_PREV)
 920              		.loc 1 386 0
 921 0016 FFF7FEFF 		bl	lv_group_focus_next
 922              	.LVL122:
 923 001a 03E0     		b	.L75
 924              	.LVL123:
 925              	.L74:
 387:..\..\..\arduinoLCD\test\Pain Drain\libraries\lvgl\src\core/lv_group.c ****         lv_group_focus_prev(g);
 926              		.loc 1 387 0
 927 001c 002B     		cmp	r3, #0
 928 001e 01D0     		beq	.L75
 388:..\..\..\arduinoLCD\test\Pain Drain\libraries\lvgl\src\core/lv_group.c ****     /*Restore wrap property*/
 929              		.loc 1 388 0
 930 0020 FFF7FEFF 		bl	lv_group_focus_prev
 931              	.LVL124:
 932              	.L75:
 390:..\..\..\arduinoLCD\test\Pain Drain\libraries\lvgl\src\core/lv_group.c **** }
 933              		.loc 1 390 0
 934 0024 E400     		lsls	r4, r4, #3
 935 0026 2B7F     		ldrb	r3, [r5, #28]
 936 0028 0822     		movs	r2, #8
 937 002a 9343     		bics	r3, r2
 938 002c 1C43     		orrs	r4, r3
 939 002e 2C77     		strb	r4, [r5, #28]
 391:..\..\..\arduinoLCD\test\Pain Drain\libraries\lvgl\src\core/lv_group.c **** 
 940              		.loc 1 391 0
 941              		@ sp needed
 942              	.LVL125:
 943 0030 70BD     		pop	{r4, r5, r6, pc}
 944              		.cfi_endproc
 945              	.LFE184:
 946              		.size	lv_group_refocus, .-lv_group_refocus
 947 0032 C046     		.section	.text.lv_group_remove_obj,"ax",%progbits
 948              		.align	2
 949              		.global	lv_group_remove_obj
 950              		.code	16
 951              		.thumb_func
 952              		.type	lv_group_remove_obj, %function
 953              	lv_group_remove_obj:
 954              	.LFB166:
 176:..\..\..\arduinoLCD\test\Pain Drain\libraries\lvgl\src\core/lv_group.c ****     lv_group_t * g = lv_obj_get_group(obj);
 955              		.loc 1 176 0
 956              		.cfi_startproc
 957              		@ args = 0, pretend = 0, frame = 0
 958              		@ frame_needed = 0, uses_anonymous_args = 0
 959              	.LVL126:
 960 0000 F8B5     		push	{r3, r4, r5, r6, r7, lr}
 961              		.cfi_def_cfa_offset 24
 962              		.cfi_offset 3, -24
 963              		.cfi_offset 4, -20
 964              		.cfi_offset 5, -16
ARM GAS  C:\Users\haske\AppData\Local\Temp\ccHGZgRG.s 			page 29


 965              		.cfi_offset 6, -12
 966              		.cfi_offset 7, -8
 967              		.cfi_offset 14, -4
 968 0002 0500     		movs	r5, r0
 177:..\..\..\arduinoLCD\test\Pain Drain\libraries\lvgl\src\core/lv_group.c ****     if(g == NULL) return;
 969              		.loc 1 177 0
 970 0004 FFF7FEFF 		bl	lv_obj_get_group
 971              	.LVL127:
 972 0008 071E     		subs	r7, r0, #0
 973              	.LVL128:
 178:..\..\..\arduinoLCD\test\Pain Drain\libraries\lvgl\src\core/lv_group.c **** 
 974              		.loc 1 178 0
 975 000a 4AD0     		beq	.L76
 183:..\..\..\arduinoLCD\test\Pain Drain\libraries\lvgl\src\core/lv_group.c ****         if(g->frozen) g->frozen = 0;
 976              		.loc 1 183 0
 977 000c C368     		ldr	r3, [r0, #12]
 978 000e 002B     		cmp	r3, #0
 979 0010 22D0     		beq	.L78
 183:..\..\..\arduinoLCD\test\Pain Drain\libraries\lvgl\src\core/lv_group.c ****         if(g->frozen) g->frozen = 0;
 980              		.loc 1 183 0 is_stmt 0 discriminator 1
 981 0012 1B68     		ldr	r3, [r3]
 982 0014 9D42     		cmp	r5, r3
 983 0016 1FD1     		bne	.L78
 184:..\..\..\arduinoLCD\test\Pain Drain\libraries\lvgl\src\core/lv_group.c **** 
 984              		.loc 1 184 0 is_stmt 1
 985 0018 037F     		ldrb	r3, [r0, #28]
 986 001a DB07     		lsls	r3, r3, #31
 987 001c 03D5     		bpl	.L79
 184:..\..\..\arduinoLCD\test\Pain Drain\libraries\lvgl\src\core/lv_group.c **** 
 988              		.loc 1 184 0 is_stmt 0 discriminator 1
 989 001e 037F     		ldrb	r3, [r0, #28]
 990 0020 0122     		movs	r2, #1
 991 0022 9343     		bics	r3, r2
 992 0024 0377     		strb	r3, [r0, #28]
 993              	.L79:
 187:..\..\..\arduinoLCD\test\Pain Drain\libraries\lvgl\src\core/lv_group.c ****             lv_event_send(*g->obj_focus, LV_EVENT_DEFOCUSED, get_indev(g));
 994              		.loc 1 187 0 is_stmt 1
 995 0026 3800     		movs	r0, r7
 996              	.LVL129:
 997 0028 FFF7FEFF 		bl	_lv_ll_get_head
 998              	.LVL130:
 999 002c FB68     		ldr	r3, [r7, #12]
 1000 002e 9842     		cmp	r0, r3
 1001 0030 0FD1     		bne	.L80
 187:..\..\..\arduinoLCD\test\Pain Drain\libraries\lvgl\src\core/lv_group.c ****             lv_event_send(*g->obj_focus, LV_EVENT_DEFOCUSED, get_indev(g));
 1002              		.loc 1 187 0 is_stmt 0 discriminator 1
 1003 0032 3800     		movs	r0, r7
 1004 0034 FFF7FEFF 		bl	_lv_ll_get_tail
 1005              	.LVL131:
 1006 0038 FB68     		ldr	r3, [r7, #12]
 1007 003a 9842     		cmp	r0, r3
 1008 003c 09D1     		bne	.L80
 188:..\..\..\arduinoLCD\test\Pain Drain\libraries\lvgl\src\core/lv_group.c ****         }
 1009              		.loc 1 188 0 is_stmt 1
 1010 003e 1C68     		ldr	r4, [r3]
 1011 0040 3800     		movs	r0, r7
 1012 0042 FFF7FEFF 		bl	get_indev
ARM GAS  C:\Users\haske\AppData\Local\Temp\ccHGZgRG.s 			page 30


 1013              	.LVL132:
 1014 0046 0200     		movs	r2, r0
 1015 0048 0F21     		movs	r1, #15
 1016 004a 2000     		movs	r0, r4
 1017 004c FFF7FEFF 		bl	lv_event_send
 1018              	.LVL133:
 1019 0050 02E0     		b	.L78
 1020              	.L80:
 192:..\..\..\arduinoLCD\test\Pain Drain\libraries\lvgl\src\core/lv_group.c ****         }
 1021              		.loc 1 192 0
 1022 0052 3800     		movs	r0, r7
 1023 0054 FFF7FEFF 		bl	lv_group_refocus
 1024              	.LVL134:
 1025              	.L78:
 199:..\..\..\arduinoLCD\test\Pain Drain\libraries\lvgl\src\core/lv_group.c ****         g->obj_focus = NULL;
 1026              		.loc 1 199 0
 1027 0058 FB68     		ldr	r3, [r7, #12]
 1028 005a 002B     		cmp	r3, #0
 1029 005c 04D0     		beq	.L81
 199:..\..\..\arduinoLCD\test\Pain Drain\libraries\lvgl\src\core/lv_group.c ****         g->obj_focus = NULL;
 1030              		.loc 1 199 0 is_stmt 0 discriminator 1
 1031 005e 1B68     		ldr	r3, [r3]
 1032 0060 9D42     		cmp	r5, r3
 1033 0062 01D1     		bne	.L81
 200:..\..\..\arduinoLCD\test\Pain Drain\libraries\lvgl\src\core/lv_group.c ****     }
 1034              		.loc 1 200 0 is_stmt 1
 1035 0064 0023     		movs	r3, #0
 1036 0066 FB60     		str	r3, [r7, #12]
 1037              	.L81:
 205:..\..\..\arduinoLCD\test\Pain Drain\libraries\lvgl\src\core/lv_group.c ****         if(*i == obj) {
 1038              		.loc 1 205 0
 1039 0068 3E00     		movs	r6, r7
 1040 006a 3800     		movs	r0, r7
 1041 006c FFF7FEFF 		bl	_lv_ll_get_head
 1042              	.LVL135:
 1043 0070 0400     		movs	r4, r0
 1044              	.LVL136:
 1045 0072 14E0     		b	.L82
 1046              	.LVL137:
 1047              	.L84:
 206:..\..\..\arduinoLCD\test\Pain Drain\libraries\lvgl\src\core/lv_group.c ****             _lv_ll_remove(&g->obj_ll, i);
 1048              		.loc 1 206 0
 1049 0074 2368     		ldr	r3, [r4]
 1050 0076 9D42     		cmp	r5, r3
 1051 0078 0CD1     		bne	.L83
 207:..\..\..\arduinoLCD\test\Pain Drain\libraries\lvgl\src\core/lv_group.c ****             lv_mem_free(i);
 1052              		.loc 1 207 0
 1053 007a 2100     		movs	r1, r4
 1054 007c 3800     		movs	r0, r7
 1055              	.LVL138:
 1056 007e FFF7FEFF 		bl	_lv_ll_remove
 1057              	.LVL139:
 208:..\..\..\arduinoLCD\test\Pain Drain\libraries\lvgl\src\core/lv_group.c ****             if(obj->spec_attr) obj->spec_attr->group_p = NULL;
 1058              		.loc 1 208 0
 1059 0082 2000     		movs	r0, r4
 1060 0084 FFF7FEFF 		bl	lv_mem_free
 1061              	.LVL140:
ARM GAS  C:\Users\haske\AppData\Local\Temp\ccHGZgRG.s 			page 31


 209:..\..\..\arduinoLCD\test\Pain Drain\libraries\lvgl\src\core/lv_group.c ****             break;
 1062              		.loc 1 209 0
 1063 0088 AB68     		ldr	r3, [r5, #8]
 1064 008a 002B     		cmp	r3, #0
 1065 008c 09D0     		beq	.L76
 209:..\..\..\arduinoLCD\test\Pain Drain\libraries\lvgl\src\core/lv_group.c ****             break;
 1066              		.loc 1 209 0 is_stmt 0 discriminator 1
 1067 008e 0022     		movs	r2, #0
 1068 0090 9A60     		str	r2, [r3, #8]
 1069 0092 06E0     		b	.L76
 1070              	.LVL141:
 1071              	.L83:
 205:..\..\..\arduinoLCD\test\Pain Drain\libraries\lvgl\src\core/lv_group.c ****         if(*i == obj) {
 1072              		.loc 1 205 0 is_stmt 1 discriminator 2
 1073 0094 2100     		movs	r1, r4
 1074 0096 3000     		movs	r0, r6
 1075              	.LVL142:
 1076 0098 FFF7FEFF 		bl	_lv_ll_get_next
 1077              	.LVL143:
 1078 009c 0400     		movs	r4, r0
 1079              	.LVL144:
 1080              	.L82:
 205:..\..\..\arduinoLCD\test\Pain Drain\libraries\lvgl\src\core/lv_group.c ****         if(*i == obj) {
 1081              		.loc 1 205 0 is_stmt 0 discriminator 1
 1082 009e 002C     		cmp	r4, #0
 1083 00a0 E8D1     		bne	.L84
 1084              	.LVL145:
 1085              	.L76:
 214:..\..\..\arduinoLCD\test\Pain Drain\libraries\lvgl\src\core/lv_group.c **** 
 1086              		.loc 1 214 0 is_stmt 1
 1087              		@ sp needed
 1088              	.LVL146:
 1089              	.LVL147:
 1090 00a2 F8BD     		pop	{r3, r4, r5, r6, r7, pc}
 1091              		.cfi_endproc
 1092              	.LFE166:
 1093              		.size	lv_group_remove_obj, .-lv_group_remove_obj
 1094              		.section	.text.lv_group_add_obj,"ax",%progbits
 1095              		.align	2
 1096              		.global	lv_group_add_obj
 1097              		.code	16
 1098              		.thumb_func
 1099              		.type	lv_group_add_obj, %function
 1100              	lv_group_add_obj:
 1101              	.LFB164:
 112:..\..\..\arduinoLCD\test\Pain Drain\libraries\lvgl\src\core/lv_group.c ****     if(group == NULL) return;
 1102              		.loc 1 112 0
 1103              		.cfi_startproc
 1104              		@ args = 0, pretend = 0, frame = 0
 1105              		@ frame_needed = 0, uses_anonymous_args = 0
 1106              	.LVL148:
 1107 0000 70B5     		push	{r4, r5, r6, lr}
 1108              		.cfi_def_cfa_offset 16
 1109              		.cfi_offset 4, -16
 1110              		.cfi_offset 5, -12
 1111              		.cfi_offset 6, -8
 1112              		.cfi_offset 14, -4
ARM GAS  C:\Users\haske\AppData\Local\Temp\ccHGZgRG.s 			page 32


 1113 0002 0600     		movs	r6, r0
 1114 0004 0C00     		movs	r4, r1
 113:..\..\..\arduinoLCD\test\Pain Drain\libraries\lvgl\src\core/lv_group.c **** 
 1115              		.loc 1 113 0
 1116 0006 0028     		cmp	r0, #0
 1117 0008 38D0     		beq	.L85
 118:..\..\..\arduinoLCD\test\Pain Drain\libraries\lvgl\src\core/lv_group.c **** 
 1118              		.loc 1 118 0
 1119 000a 0800     		movs	r0, r1
 1120              	.LVL149:
 1121 000c FFF7FEFF 		bl	lv_group_remove_obj
 1122              	.LVL150:
 122:..\..\..\arduinoLCD\test\Pain Drain\libraries\lvgl\src\core/lv_group.c ****         if((*obj_i) == obj) {
 1123              		.loc 1 122 0
 1124 0010 3500     		movs	r5, r6
 1125 0012 3000     		movs	r0, r6
 1126 0014 FFF7FEFF 		bl	_lv_ll_get_head
 1127              	.LVL151:
 1128 0018 06E0     		b	.L87
 1129              	.L88:
 123:..\..\..\arduinoLCD\test\Pain Drain\libraries\lvgl\src\core/lv_group.c ****             LV_LOG_INFO("the object is already added to this group");
 1130              		.loc 1 123 0
 1131 001a 0368     		ldr	r3, [r0]
 1132 001c 9C42     		cmp	r4, r3
 1133 001e 2DD0     		beq	.L85
 122:..\..\..\arduinoLCD\test\Pain Drain\libraries\lvgl\src\core/lv_group.c ****         if((*obj_i) == obj) {
 1134              		.loc 1 122 0 discriminator 2
 1135 0020 0100     		movs	r1, r0
 1136 0022 2800     		movs	r0, r5
 1137              	.LVL152:
 1138 0024 FFF7FEFF 		bl	_lv_ll_get_next
 1139              	.LVL153:
 1140              	.L87:
 122:..\..\..\arduinoLCD\test\Pain Drain\libraries\lvgl\src\core/lv_group.c ****         if((*obj_i) == obj) {
 1141              		.loc 1 122 0 is_stmt 0 discriminator 1
 1142 0028 0028     		cmp	r0, #0
 1143 002a F6D1     		bne	.L88
 130:..\..\..\arduinoLCD\test\Pain Drain\libraries\lvgl\src\core/lv_group.c ****     if(group_cur) {
 1144              		.loc 1 130 0 is_stmt 1
 1145 002c 2000     		movs	r0, r4
 1146              	.LVL154:
 1147 002e FFF7FEFF 		bl	lv_obj_get_group
 1148              	.LVL155:
 131:..\..\..\arduinoLCD\test\Pain Drain\libraries\lvgl\src\core/lv_group.c ****         if(obj->spec_attr->group_p && *(obj->spec_attr->group_p->obj_focus) == obj) {
 1149              		.loc 1 131 0
 1150 0032 0028     		cmp	r0, #0
 1151 0034 09D0     		beq	.L89
 132:..\..\..\arduinoLCD\test\Pain Drain\libraries\lvgl\src\core/lv_group.c ****             lv_group_refocus(group_cur);
 1152              		.loc 1 132 0
 1153 0036 A368     		ldr	r3, [r4, #8]
 1154 0038 9B68     		ldr	r3, [r3, #8]
 1155 003a 002B     		cmp	r3, #0
 1156 003c 05D0     		beq	.L89
 132:..\..\..\arduinoLCD\test\Pain Drain\libraries\lvgl\src\core/lv_group.c ****             lv_group_refocus(group_cur);
 1157              		.loc 1 132 0 is_stmt 0 discriminator 1
 1158 003e DB68     		ldr	r3, [r3, #12]
 1159 0040 1B68     		ldr	r3, [r3]
ARM GAS  C:\Users\haske\AppData\Local\Temp\ccHGZgRG.s 			page 33


 1160 0042 9C42     		cmp	r4, r3
 1161 0044 01D1     		bne	.L89
 133:..\..\..\arduinoLCD\test\Pain Drain\libraries\lvgl\src\core/lv_group.c **** 
 1162              		.loc 1 133 0 is_stmt 1
 1163 0046 FFF7FEFF 		bl	lv_group_refocus
 1164              	.LVL156:
 1165              	.L89:
 139:..\..\..\arduinoLCD\test\Pain Drain\libraries\lvgl\src\core/lv_group.c ****     obj->spec_attr->group_p = group;
 1166              		.loc 1 139 0
 1167 004a A368     		ldr	r3, [r4, #8]
 1168 004c 002B     		cmp	r3, #0
 1169 004e 02D1     		bne	.L90
 139:..\..\..\arduinoLCD\test\Pain Drain\libraries\lvgl\src\core/lv_group.c ****     obj->spec_attr->group_p = group;
 1170              		.loc 1 139 0 is_stmt 0 discriminator 1
 1171 0050 2000     		movs	r0, r4
 1172 0052 FFF7FEFF 		bl	lv_obj_allocate_spec_attr
 1173              	.LVL157:
 1174              	.L90:
 140:..\..\..\arduinoLCD\test\Pain Drain\libraries\lvgl\src\core/lv_group.c **** 
 1175              		.loc 1 140 0 is_stmt 1
 1176 0056 A368     		ldr	r3, [r4, #8]
 1177 0058 9E60     		str	r6, [r3, #8]
 142:..\..\..\arduinoLCD\test\Pain Drain\libraries\lvgl\src\core/lv_group.c ****     LV_ASSERT_MALLOC(next);
 1178              		.loc 1 142 0
 1179 005a 3000     		movs	r0, r6
 1180 005c FFF7FEFF 		bl	_lv_ll_ins_tail
 1181              	.LVL158:
 1182 0060 051E     		subs	r5, r0, #0
 1183              	.LVL159:
 143:..\..\..\arduinoLCD\test\Pain Drain\libraries\lvgl\src\core/lv_group.c ****     if(next == NULL) return;
 1184              		.loc 1 143 0
 1185 0062 00D1     		bne	.L91
 1186              	.L92:
 1187 0064 FEE7     		b	.L92
 1188              	.L91:
 144:..\..\..\arduinoLCD\test\Pain Drain\libraries\lvgl\src\core/lv_group.c ****     *next = obj;
 1189              		.loc 1 144 0
 1190 0066 0028     		cmp	r0, #0
 1191 0068 08D0     		beq	.L85
 145:..\..\..\arduinoLCD\test\Pain Drain\libraries\lvgl\src\core/lv_group.c **** 
 1192              		.loc 1 145 0
 1193 006a 0460     		str	r4, [r0]
 149:..\..\..\arduinoLCD\test\Pain Drain\libraries\lvgl\src\core/lv_group.c ****         lv_group_refocus(group);
 1194              		.loc 1 149 0
 1195 006c 3000     		movs	r0, r6
 1196              	.LVL160:
 1197 006e FFF7FEFF 		bl	_lv_ll_get_head
 1198              	.LVL161:
 1199 0072 8542     		cmp	r5, r0
 1200 0074 02D1     		bne	.L85
 150:..\..\..\arduinoLCD\test\Pain Drain\libraries\lvgl\src\core/lv_group.c ****     }
 1201              		.loc 1 150 0
 1202 0076 3000     		movs	r0, r6
 1203 0078 FFF7FEFF 		bl	lv_group_refocus
 1204              	.LVL162:
 1205              	.L85:
 154:..\..\..\arduinoLCD\test\Pain Drain\libraries\lvgl\src\core/lv_group.c **** 
ARM GAS  C:\Users\haske\AppData\Local\Temp\ccHGZgRG.s 			page 34


 1206              		.loc 1 154 0
 1207              		@ sp needed
 1208              	.LVL163:
 1209              	.LVL164:
 1210 007c 70BD     		pop	{r4, r5, r6, pc}
 1211              		.cfi_endproc
 1212              	.LFE164:
 1213              		.size	lv_group_add_obj, .-lv_group_add_obj
 1214 007e C046     		.section	.text.lv_group_focus_freeze,"ax",%progbits
 1215              		.align	2
 1216              		.global	lv_group_focus_freeze
 1217              		.code	16
 1218              		.thumb_func
 1219              		.type	lv_group_focus_freeze, %function
 1220              	lv_group_focus_freeze:
 1221              	.LFB171:
 286:..\..\..\arduinoLCD\test\Pain Drain\libraries\lvgl\src\core/lv_group.c ****     if(en == false) group->frozen = 0;
 1222              		.loc 1 286 0
 1223              		.cfi_startproc
 1224              		@ args = 0, pretend = 0, frame = 0
 1225              		@ frame_needed = 0, uses_anonymous_args = 0
 1226              		@ link register save eliminated.
 1227              	.LVL165:
 287:..\..\..\arduinoLCD\test\Pain Drain\libraries\lvgl\src\core/lv_group.c ****     else group->frozen = 1;
 1228              		.loc 1 287 0
 1229 0000 0029     		cmp	r1, #0
 1230 0002 04D1     		bne	.L94
 287:..\..\..\arduinoLCD\test\Pain Drain\libraries\lvgl\src\core/lv_group.c ****     else group->frozen = 1;
 1231              		.loc 1 287 0 is_stmt 0 discriminator 1
 1232 0004 037F     		ldrb	r3, [r0, #28]
 1233 0006 0122     		movs	r2, #1
 1234 0008 9343     		bics	r3, r2
 1235 000a 0377     		strb	r3, [r0, #28]
 1236 000c 03E0     		b	.L93
 1237              	.L94:
 288:..\..\..\arduinoLCD\test\Pain Drain\libraries\lvgl\src\core/lv_group.c **** }
 1238              		.loc 1 288 0 is_stmt 1
 1239 000e 027F     		ldrb	r2, [r0, #28]
 1240 0010 0123     		movs	r3, #1
 1241 0012 1343     		orrs	r3, r2
 1242 0014 0377     		strb	r3, [r0, #28]
 1243              	.L93:
 289:..\..\..\arduinoLCD\test\Pain Drain\libraries\lvgl\src\core/lv_group.c **** 
 1244              		.loc 1 289 0
 1245              		@ sp needed
 1246 0016 7047     		bx	lr
 1247              		.cfi_endproc
 1248              	.LFE171:
 1249              		.size	lv_group_focus_freeze, .-lv_group_focus_freeze
 1250              		.section	.text.lv_group_set_focus_cb,"ax",%progbits
 1251              		.align	2
 1252              		.global	lv_group_set_focus_cb
 1253              		.code	16
 1254              		.thumb_func
 1255              		.type	lv_group_set_focus_cb, %function
 1256              	lv_group_set_focus_cb:
 1257              	.LFB173:
ARM GAS  C:\Users\haske\AppData\Local\Temp\ccHGZgRG.s 			page 35


 302:..\..\..\arduinoLCD\test\Pain Drain\libraries\lvgl\src\core/lv_group.c ****     group->focus_cb = focus_cb;
 1258              		.loc 1 302 0
 1259              		.cfi_startproc
 1260              		@ args = 0, pretend = 0, frame = 0
 1261              		@ frame_needed = 0, uses_anonymous_args = 0
 1262              		@ link register save eliminated.
 1263              	.LVL166:
 303:..\..\..\arduinoLCD\test\Pain Drain\libraries\lvgl\src\core/lv_group.c **** }
 1264              		.loc 1 303 0
 1265 0000 0161     		str	r1, [r0, #16]
 304:..\..\..\arduinoLCD\test\Pain Drain\libraries\lvgl\src\core/lv_group.c **** 
 1266              		.loc 1 304 0
 1267              		@ sp needed
 1268 0002 7047     		bx	lr
 1269              		.cfi_endproc
 1270              	.LFE173:
 1271              		.size	lv_group_set_focus_cb, .-lv_group_set_focus_cb
 1272              		.section	.text.lv_group_set_edge_cb,"ax",%progbits
 1273              		.align	2
 1274              		.global	lv_group_set_edge_cb
 1275              		.code	16
 1276              		.thumb_func
 1277              		.type	lv_group_set_edge_cb, %function
 1278              	lv_group_set_edge_cb:
 1279              	.LFB174:
 307:..\..\..\arduinoLCD\test\Pain Drain\libraries\lvgl\src\core/lv_group.c ****     group->edge_cb = edge_cb;
 1280              		.loc 1 307 0
 1281              		.cfi_startproc
 1282              		@ args = 0, pretend = 0, frame = 0
 1283              		@ frame_needed = 0, uses_anonymous_args = 0
 1284              		@ link register save eliminated.
 1285              	.LVL167:
 308:..\..\..\arduinoLCD\test\Pain Drain\libraries\lvgl\src\core/lv_group.c **** }
 1286              		.loc 1 308 0
 1287 0000 4161     		str	r1, [r0, #20]
 309:..\..\..\arduinoLCD\test\Pain Drain\libraries\lvgl\src\core/lv_group.c **** 
 1288              		.loc 1 309 0
 1289              		@ sp needed
 1290 0002 7047     		bx	lr
 1291              		.cfi_endproc
 1292              	.LFE174:
 1293              		.size	lv_group_set_edge_cb, .-lv_group_set_edge_cb
 1294              		.section	.text.lv_group_set_refocus_policy,"ax",%progbits
 1295              		.align	2
 1296              		.global	lv_group_set_refocus_policy
 1297              		.code	16
 1298              		.thumb_func
 1299              		.type	lv_group_set_refocus_policy, %function
 1300              	lv_group_set_refocus_policy:
 1301              	.LFB176:
 330:..\..\..\arduinoLCD\test\Pain Drain\libraries\lvgl\src\core/lv_group.c ****     group->refocus_policy = policy & 0x01;
 1302              		.loc 1 330 0
 1303              		.cfi_startproc
 1304              		@ args = 0, pretend = 0, frame = 0
 1305              		@ frame_needed = 0, uses_anonymous_args = 0
 1306              		@ link register save eliminated.
 1307              	.LVL168:
ARM GAS  C:\Users\haske\AppData\Local\Temp\ccHGZgRG.s 			page 36


 331:..\..\..\arduinoLCD\test\Pain Drain\libraries\lvgl\src\core/lv_group.c **** }
 1308              		.loc 1 331 0
 1309 0000 0123     		movs	r3, #1
 1310 0002 1940     		ands	r1, r3
 1311              	.LVL169:
 1312 0004 8B00     		lsls	r3, r1, #2
 1313 0006 017F     		ldrb	r1, [r0, #28]
 1314 0008 0422     		movs	r2, #4
 1315 000a 9143     		bics	r1, r2
 1316 000c 1943     		orrs	r1, r3
 1317 000e 0177     		strb	r1, [r0, #28]
 332:..\..\..\arduinoLCD\test\Pain Drain\libraries\lvgl\src\core/lv_group.c **** 
 1318              		.loc 1 332 0
 1319              		@ sp needed
 1320 0010 7047     		bx	lr
 1321              		.cfi_endproc
 1322              	.LFE176:
 1323              		.size	lv_group_set_refocus_policy, .-lv_group_set_refocus_policy
 1324 0012 C046     		.section	.text.lv_group_set_wrap,"ax",%progbits
 1325              		.align	2
 1326              		.global	lv_group_set_wrap
 1327              		.code	16
 1328              		.thumb_func
 1329              		.type	lv_group_set_wrap, %function
 1330              	lv_group_set_wrap:
 1331              	.LFB177:
 335:..\..\..\arduinoLCD\test\Pain Drain\libraries\lvgl\src\core/lv_group.c ****     group->wrap = en ? 1 : 0;
 1332              		.loc 1 335 0
 1333              		.cfi_startproc
 1334              		@ args = 0, pretend = 0, frame = 0
 1335              		@ frame_needed = 0, uses_anonymous_args = 0
 1336              		@ link register save eliminated.
 1337              	.LVL170:
 336:..\..\..\arduinoLCD\test\Pain Drain\libraries\lvgl\src\core/lv_group.c **** }
 1338              		.loc 1 336 0
 1339 0000 0123     		movs	r3, #1
 1340 0002 1940     		ands	r1, r3
 1341              	.LVL171:
 1342 0004 CB00     		lsls	r3, r1, #3
 1343 0006 017F     		ldrb	r1, [r0, #28]
 1344 0008 0822     		movs	r2, #8
 1345 000a 9143     		bics	r1, r2
 1346 000c 1943     		orrs	r1, r3
 1347 000e 0177     		strb	r1, [r0, #28]
 337:..\..\..\arduinoLCD\test\Pain Drain\libraries\lvgl\src\core/lv_group.c **** 
 1348              		.loc 1 337 0
 1349              		@ sp needed
 1350 0010 7047     		bx	lr
 1351              		.cfi_endproc
 1352              	.LFE177:
 1353              		.size	lv_group_set_wrap, .-lv_group_set_wrap
 1354 0012 C046     		.section	.text.lv_group_get_focused,"ax",%progbits
 1355              		.align	2
 1356              		.global	lv_group_get_focused
 1357              		.code	16
 1358              		.thumb_func
 1359              		.type	lv_group_get_focused, %function
ARM GAS  C:\Users\haske\AppData\Local\Temp\ccHGZgRG.s 			page 37


 1360              	lv_group_get_focused:
 1361              	.LFB178:
 340:..\..\..\arduinoLCD\test\Pain Drain\libraries\lvgl\src\core/lv_group.c ****     if(!group) return NULL;
 1362              		.loc 1 340 0
 1363              		.cfi_startproc
 1364              		@ args = 0, pretend = 0, frame = 0
 1365              		@ frame_needed = 0, uses_anonymous_args = 0
 1366              		@ link register save eliminated.
 1367              	.LVL172:
 341:..\..\..\arduinoLCD\test\Pain Drain\libraries\lvgl\src\core/lv_group.c ****     if(group->obj_focus == NULL) return NULL;
 1368              		.loc 1 341 0
 1369 0000 0028     		cmp	r0, #0
 1370 0002 04D0     		beq	.L102
 342:..\..\..\arduinoLCD\test\Pain Drain\libraries\lvgl\src\core/lv_group.c **** 
 1371              		.loc 1 342 0
 1372 0004 C368     		ldr	r3, [r0, #12]
 1373 0006 002B     		cmp	r3, #0
 1374 0008 03D0     		beq	.L103
 344:..\..\..\arduinoLCD\test\Pain Drain\libraries\lvgl\src\core/lv_group.c **** }
 1375              		.loc 1 344 0
 1376 000a 1868     		ldr	r0, [r3]
 1377              	.LVL173:
 1378 000c 02E0     		b	.L101
 1379              	.LVL174:
 1380              	.L102:
 341:..\..\..\arduinoLCD\test\Pain Drain\libraries\lvgl\src\core/lv_group.c ****     if(group->obj_focus == NULL) return NULL;
 1381              		.loc 1 341 0
 1382 000e 0020     		movs	r0, #0
 1383              	.LVL175:
 1384 0010 00E0     		b	.L101
 1385              	.LVL176:
 1386              	.L103:
 342:..\..\..\arduinoLCD\test\Pain Drain\libraries\lvgl\src\core/lv_group.c **** 
 1387              		.loc 1 342 0
 1388 0012 0020     		movs	r0, #0
 1389              	.LVL177:
 1390              	.L101:
 345:..\..\..\arduinoLCD\test\Pain Drain\libraries\lvgl\src\core/lv_group.c **** 
 1391              		.loc 1 345 0
 1392              		@ sp needed
 1393 0014 7047     		bx	lr
 1394              		.cfi_endproc
 1395              	.LFE178:
 1396              		.size	lv_group_get_focused, .-lv_group_get_focused
 1397 0016 C046     		.section	.text.lv_group_send_data,"ax",%progbits
 1398              		.align	2
 1399              		.global	lv_group_send_data
 1400              		.code	16
 1401              		.thumb_func
 1402              		.type	lv_group_send_data, %function
 1403              	lv_group_send_data:
 1404              	.LFB172:
 292:..\..\..\arduinoLCD\test\Pain Drain\libraries\lvgl\src\core/lv_group.c ****     lv_obj_t * act = lv_group_get_focused(group);
 1405              		.loc 1 292 0
 1406              		.cfi_startproc
 1407              		@ args = 0, pretend = 0, frame = 8
 1408              		@ frame_needed = 0, uses_anonymous_args = 0
ARM GAS  C:\Users\haske\AppData\Local\Temp\ccHGZgRG.s 			page 38


 1409              	.LVL178:
 1410 0000 10B5     		push	{r4, lr}
 1411              		.cfi_def_cfa_offset 8
 1412              		.cfi_offset 4, -8
 1413              		.cfi_offset 14, -4
 1414 0002 82B0     		sub	sp, sp, #8
 1415              		.cfi_def_cfa_offset 16
 1416 0004 0191     		str	r1, [sp, #4]
 293:..\..\..\arduinoLCD\test\Pain Drain\libraries\lvgl\src\core/lv_group.c ****     if(act == NULL) return LV_RES_OK;
 1417              		.loc 1 293 0
 1418 0006 FFF7FEFF 		bl	lv_group_get_focused
 1419              	.LVL179:
 1420 000a 041E     		subs	r4, r0, #0
 1421              	.LVL180:
 294:..\..\..\arduinoLCD\test\Pain Drain\libraries\lvgl\src\core/lv_group.c **** 
 1422              		.loc 1 294 0
 1423 000c 0AD0     		beq	.L106
 296:..\..\..\arduinoLCD\test\Pain Drain\libraries\lvgl\src\core/lv_group.c **** 
 1424              		.loc 1 296 0
 1425 000e 8021     		movs	r1, #128
 1426 0010 FFF7FEFF 		bl	lv_obj_has_state
 1427              	.LVL181:
 1428 0014 0028     		cmp	r0, #0
 1429 0016 07D1     		bne	.L107
 298:..\..\..\arduinoLCD\test\Pain Drain\libraries\lvgl\src\core/lv_group.c **** }
 1430              		.loc 1 298 0
 1431 0018 01AA     		add	r2, sp, #4
 1432              	.LVL182:
 1433 001a 0D21     		movs	r1, #13
 1434 001c 2000     		movs	r0, r4
 1435 001e FFF7FEFF 		bl	lv_event_send
 1436              	.LVL183:
 1437 0022 02E0     		b	.L105
 1438              	.LVL184:
 1439              	.L106:
 294:..\..\..\arduinoLCD\test\Pain Drain\libraries\lvgl\src\core/lv_group.c **** 
 1440              		.loc 1 294 0
 1441 0024 0120     		movs	r0, #1
 1442              	.LVL185:
 1443 0026 00E0     		b	.L105
 1444              	.L107:
 296:..\..\..\arduinoLCD\test\Pain Drain\libraries\lvgl\src\core/lv_group.c **** 
 1445              		.loc 1 296 0
 1446 0028 0120     		movs	r0, #1
 1447              	.L105:
 299:..\..\..\arduinoLCD\test\Pain Drain\libraries\lvgl\src\core/lv_group.c **** 
 1448              		.loc 1 299 0
 1449 002a 02B0     		add	sp, sp, #8
 1450              		@ sp needed
 1451              	.LVL186:
 1452 002c 10BD     		pop	{r4, pc}
 1453              		.cfi_endproc
 1454              	.LFE172:
 1455              		.size	lv_group_send_data, .-lv_group_send_data
 1456 002e C046     		.section	.text.lv_group_set_editing,"ax",%progbits
 1457              		.align	2
 1458              		.global	lv_group_set_editing
ARM GAS  C:\Users\haske\AppData\Local\Temp\ccHGZgRG.s 			page 39


 1459              		.code	16
 1460              		.thumb_func
 1461              		.type	lv_group_set_editing, %function
 1462              	lv_group_set_editing:
 1463              	.LFB175:
 312:..\..\..\arduinoLCD\test\Pain Drain\libraries\lvgl\src\core/lv_group.c ****     if(group == NULL) return;
 1464              		.loc 1 312 0
 1465              		.cfi_startproc
 1466              		@ args = 0, pretend = 0, frame = 0
 1467              		@ frame_needed = 0, uses_anonymous_args = 0
 1468              	.LVL187:
 1469 0000 70B5     		push	{r4, r5, r6, lr}
 1470              		.cfi_def_cfa_offset 16
 1471              		.cfi_offset 4, -16
 1472              		.cfi_offset 5, -12
 1473              		.cfi_offset 6, -8
 1474              		.cfi_offset 14, -4
 1475 0002 041E     		subs	r4, r0, #0
 313:..\..\..\arduinoLCD\test\Pain Drain\libraries\lvgl\src\core/lv_group.c ****     uint8_t en_val = edit ? 1 : 0;
 1476              		.loc 1 313 0
 1477 0004 1FD0     		beq	.L108
 1478              	.LVL188:
 316:..\..\..\arduinoLCD\test\Pain Drain\libraries\lvgl\src\core/lv_group.c **** 
 1479              		.loc 1 316 0
 1480 0006 037F     		ldrb	r3, [r0, #28]
 1481 0008 9B07     		lsls	r3, r3, #30
 1482 000a DB0F     		lsrs	r3, r3, #31
 1483 000c 9942     		cmp	r1, r3
 1484 000e 1AD0     		beq	.L108
 318:..\..\..\arduinoLCD\test\Pain Drain\libraries\lvgl\src\core/lv_group.c ****     lv_obj_t * focused = lv_group_get_focused(group);
 1485              		.loc 1 318 0
 1486 0010 0123     		movs	r3, #1
 1487 0012 1940     		ands	r1, r3
 1488              	.LVL189:
 1489 0014 4900     		lsls	r1, r1, #1
 1490 0016 037F     		ldrb	r3, [r0, #28]
 1491 0018 0222     		movs	r2, #2
 1492 001a 9343     		bics	r3, r2
 1493 001c 1943     		orrs	r1, r3
 1494 001e 0177     		strb	r1, [r0, #28]
 319:..\..\..\arduinoLCD\test\Pain Drain\libraries\lvgl\src\core/lv_group.c **** 
 1495              		.loc 1 319 0
 1496 0020 FFF7FEFF 		bl	lv_group_get_focused
 1497              	.LVL190:
 1498 0024 051E     		subs	r5, r0, #0
 1499              	.LVL191:
 321:..\..\..\arduinoLCD\test\Pain Drain\libraries\lvgl\src\core/lv_group.c ****         lv_res_t res = lv_event_send(*group->obj_focus, LV_EVENT_FOCUSED, get_indev(group));
 1500              		.loc 1 321 0
 1501 0026 0ED0     		beq	.L108
 1502              	.LBB8:
 322:..\..\..\arduinoLCD\test\Pain Drain\libraries\lvgl\src\core/lv_group.c ****         if(res != LV_RES_OK) return;
 1503              		.loc 1 322 0
 1504 0028 E368     		ldr	r3, [r4, #12]
 1505 002a 1E68     		ldr	r6, [r3]
 1506 002c 2000     		movs	r0, r4
 1507              	.LVL192:
 1508 002e FFF7FEFF 		bl	get_indev
ARM GAS  C:\Users\haske\AppData\Local\Temp\ccHGZgRG.s 			page 40


 1509              	.LVL193:
 1510 0032 0200     		movs	r2, r0
 1511 0034 0E21     		movs	r1, #14
 1512 0036 3000     		movs	r0, r6
 1513 0038 FFF7FEFF 		bl	lv_event_send
 1514              	.LVL194:
 323:..\..\..\arduinoLCD\test\Pain Drain\libraries\lvgl\src\core/lv_group.c **** 
 1515              		.loc 1 323 0
 1516 003c 0128     		cmp	r0, #1
 1517 003e 02D1     		bne	.L108
 325:..\..\..\arduinoLCD\test\Pain Drain\libraries\lvgl\src\core/lv_group.c ****     }
 1518              		.loc 1 325 0
 1519 0040 2800     		movs	r0, r5
 1520              	.LVL195:
 1521 0042 FFF7FEFF 		bl	lv_obj_invalidate
 1522              	.LVL196:
 1523              	.L108:
 1524              	.LBE8:
 327:..\..\..\arduinoLCD\test\Pain Drain\libraries\lvgl\src\core/lv_group.c **** 
 1525              		.loc 1 327 0
 1526              		@ sp needed
 1527              	.LVL197:
 1528 0046 70BD     		pop	{r4, r5, r6, pc}
 1529              		.cfi_endproc
 1530              	.LFE175:
 1531              		.size	lv_group_set_editing, .-lv_group_set_editing
 1532              		.section	.text.lv_group_focus_obj,"ax",%progbits
 1533              		.align	2
 1534              		.global	lv_group_focus_obj
 1535              		.code	16
 1536              		.thumb_func
 1537              		.type	lv_group_focus_obj, %function
 1538              	lv_group_focus_obj:
 1539              	.LFB168:
 235:..\..\..\arduinoLCD\test\Pain Drain\libraries\lvgl\src\core/lv_group.c ****     if(obj == NULL) return;
 1540              		.loc 1 235 0
 1541              		.cfi_startproc
 1542              		@ args = 0, pretend = 0, frame = 0
 1543              		@ frame_needed = 0, uses_anonymous_args = 0
 1544              	.LVL198:
 1545 0000 F8B5     		push	{r3, r4, r5, r6, r7, lr}
 1546              		.cfi_def_cfa_offset 24
 1547              		.cfi_offset 3, -24
 1548              		.cfi_offset 4, -20
 1549              		.cfi_offset 5, -16
 1550              		.cfi_offset 6, -12
 1551              		.cfi_offset 7, -8
 1552              		.cfi_offset 14, -4
 1553 0002 051E     		subs	r5, r0, #0
 236:..\..\..\arduinoLCD\test\Pain Drain\libraries\lvgl\src\core/lv_group.c ****     lv_group_t * g = lv_obj_get_group(obj);
 1554              		.loc 1 236 0
 1555 0004 46D0     		beq	.L110
 237:..\..\..\arduinoLCD\test\Pain Drain\libraries\lvgl\src\core/lv_group.c ****     if(g == NULL) return;
 1556              		.loc 1 237 0
 1557 0006 FFF7FEFF 		bl	lv_obj_get_group
 1558              	.LVL199:
 1559 000a 061E     		subs	r6, r0, #0
ARM GAS  C:\Users\haske\AppData\Local\Temp\ccHGZgRG.s 			page 41


 1560              	.LVL200:
 238:..\..\..\arduinoLCD\test\Pain Drain\libraries\lvgl\src\core/lv_group.c **** 
 1561              		.loc 1 238 0
 1562 000c 42D0     		beq	.L110
 240:..\..\..\arduinoLCD\test\Pain Drain\libraries\lvgl\src\core/lv_group.c **** 
 1563              		.loc 1 240 0
 1564 000e 037F     		ldrb	r3, [r0, #28]
 1565 0010 DB07     		lsls	r3, r3, #31
 1566 0012 3FD4     		bmi	.L110
 243:..\..\..\arduinoLCD\test\Pain Drain\libraries\lvgl\src\core/lv_group.c **** 
 1567              		.loc 1 243 0
 1568 0014 0021     		movs	r1, #0
 1569 0016 FFF7FEFF 		bl	lv_group_set_editing
 1570              	.LVL201:
 246:..\..\..\arduinoLCD\test\Pain Drain\libraries\lvgl\src\core/lv_group.c ****         if(*i == obj) {
 1571              		.loc 1 246 0
 1572 001a 3700     		movs	r7, r6
 1573 001c 3000     		movs	r0, r6
 1574 001e FFF7FEFF 		bl	_lv_ll_get_head
 1575              	.LVL202:
 1576 0022 0400     		movs	r4, r0
 1577              	.LVL203:
 1578 0024 34E0     		b	.L112
 1579              	.L116:
 247:..\..\..\arduinoLCD\test\Pain Drain\libraries\lvgl\src\core/lv_group.c ****             if(g->obj_focus != NULL && obj != *g->obj_focus) {  /*Do not defocus if the same object
 1580              		.loc 1 247 0
 1581 0026 2368     		ldr	r3, [r4]
 1582 0028 9D42     		cmp	r5, r3
 1583 002a 2CD1     		bne	.L113
 248:..\..\..\arduinoLCD\test\Pain Drain\libraries\lvgl\src\core/lv_group.c ****                 lv_res_t res = lv_event_send(*g->obj_focus, LV_EVENT_DEFOCUSED, get_indev(g));
 1584              		.loc 1 248 0
 1585 002c F368     		ldr	r3, [r6, #12]
 1586 002e 002B     		cmp	r3, #0
 1587 0030 10D0     		beq	.L114
 248:..\..\..\arduinoLCD\test\Pain Drain\libraries\lvgl\src\core/lv_group.c ****                 lv_res_t res = lv_event_send(*g->obj_focus, LV_EVENT_DEFOCUSED, get_indev(g));
 1588              		.loc 1 248 0 is_stmt 0 discriminator 1
 1589 0032 1F68     		ldr	r7, [r3]
 1590 0034 BD42     		cmp	r5, r7
 1591 0036 0DD0     		beq	.L114
 1592              	.LBB9:
 249:..\..\..\arduinoLCD\test\Pain Drain\libraries\lvgl\src\core/lv_group.c ****                 if(res != LV_RES_OK) return;
 1593              		.loc 1 249 0 is_stmt 1
 1594 0038 3000     		movs	r0, r6
 1595              	.LVL204:
 1596 003a FFF7FEFF 		bl	get_indev
 1597              	.LVL205:
 1598 003e 0200     		movs	r2, r0
 1599 0040 0F21     		movs	r1, #15
 1600 0042 3800     		movs	r0, r7
 1601 0044 FFF7FEFF 		bl	lv_event_send
 1602              	.LVL206:
 250:..\..\..\arduinoLCD\test\Pain Drain\libraries\lvgl\src\core/lv_group.c ****                 lv_obj_invalidate(*g->obj_focus);
 1603              		.loc 1 250 0
 1604 0048 0128     		cmp	r0, #1
 1605 004a 23D1     		bne	.L110
 251:..\..\..\arduinoLCD\test\Pain Drain\libraries\lvgl\src\core/lv_group.c ****             }
 1606              		.loc 1 251 0
ARM GAS  C:\Users\haske\AppData\Local\Temp\ccHGZgRG.s 			page 42


 1607 004c F368     		ldr	r3, [r6, #12]
 1608 004e 1868     		ldr	r0, [r3]
 1609              	.LVL207:
 1610 0050 FFF7FEFF 		bl	lv_obj_invalidate
 1611              	.LVL208:
 1612              	.L114:
 1613              	.LBE9:
 254:..\..\..\arduinoLCD\test\Pain Drain\libraries\lvgl\src\core/lv_group.c **** 
 1614              		.loc 1 254 0
 1615 0054 F460     		str	r4, [r6, #12]
 256:..\..\..\arduinoLCD\test\Pain Drain\libraries\lvgl\src\core/lv_group.c ****                 if(g->focus_cb) g->focus_cb(g);
 1616              		.loc 1 256 0
 1617 0056 002C     		cmp	r4, #0
 1618 0058 1CD0     		beq	.L110
 1619              	.LBB10:
 257:..\..\..\arduinoLCD\test\Pain Drain\libraries\lvgl\src\core/lv_group.c ****                 lv_res_t res = lv_event_send(*g->obj_focus, LV_EVENT_FOCUSED, get_indev(g));
 1620              		.loc 1 257 0
 1621 005a 3369     		ldr	r3, [r6, #16]
 1622 005c 002B     		cmp	r3, #0
 1623 005e 01D0     		beq	.L115
 257:..\..\..\arduinoLCD\test\Pain Drain\libraries\lvgl\src\core/lv_group.c ****                 lv_res_t res = lv_event_send(*g->obj_focus, LV_EVENT_FOCUSED, get_indev(g));
 1624              		.loc 1 257 0 is_stmt 0 discriminator 1
 1625 0060 3000     		movs	r0, r6
 1626 0062 9847     		blx	r3
 1627              	.LVL209:
 1628              	.L115:
 258:..\..\..\arduinoLCD\test\Pain Drain\libraries\lvgl\src\core/lv_group.c ****                 if(res != LV_RES_OK) return;
 1629              		.loc 1 258 0 is_stmt 1
 1630 0064 F368     		ldr	r3, [r6, #12]
 1631 0066 1C68     		ldr	r4, [r3]
 1632              	.LVL210:
 1633 0068 3000     		movs	r0, r6
 1634 006a FFF7FEFF 		bl	get_indev
 1635              	.LVL211:
 1636 006e 0200     		movs	r2, r0
 1637 0070 0E21     		movs	r1, #14
 1638 0072 2000     		movs	r0, r4
 1639 0074 FFF7FEFF 		bl	lv_event_send
 1640              	.LVL212:
 259:..\..\..\arduinoLCD\test\Pain Drain\libraries\lvgl\src\core/lv_group.c ****                 lv_obj_invalidate(*g->obj_focus);
 1641              		.loc 1 259 0
 1642 0078 0128     		cmp	r0, #1
 1643 007a 0BD1     		bne	.L110
 260:..\..\..\arduinoLCD\test\Pain Drain\libraries\lvgl\src\core/lv_group.c ****             }
 1644              		.loc 1 260 0
 1645 007c F368     		ldr	r3, [r6, #12]
 1646 007e 1868     		ldr	r0, [r3]
 1647              	.LVL213:
 1648 0080 FFF7FEFF 		bl	lv_obj_invalidate
 1649              	.LVL214:
 1650 0084 06E0     		b	.L110
 1651              	.LVL215:
 1652              	.L113:
 1653              	.LBE10:
 246:..\..\..\arduinoLCD\test\Pain Drain\libraries\lvgl\src\core/lv_group.c ****         if(*i == obj) {
 1654              		.loc 1 246 0 discriminator 2
 1655 0086 2100     		movs	r1, r4
ARM GAS  C:\Users\haske\AppData\Local\Temp\ccHGZgRG.s 			page 43


 1656 0088 3800     		movs	r0, r7
 1657              	.LVL216:
 1658 008a FFF7FEFF 		bl	_lv_ll_get_next
 1659              	.LVL217:
 1660 008e 0400     		movs	r4, r0
 1661              	.LVL218:
 1662              	.L112:
 246:..\..\..\arduinoLCD\test\Pain Drain\libraries\lvgl\src\core/lv_group.c ****         if(*i == obj) {
 1663              		.loc 1 246 0 is_stmt 0 discriminator 1
 1664 0090 002C     		cmp	r4, #0
 1665 0092 C8D1     		bne	.L116
 1666              	.LVL219:
 1667              	.L110:
 265:..\..\..\arduinoLCD\test\Pain Drain\libraries\lvgl\src\core/lv_group.c **** 
 1668              		.loc 1 265 0 is_stmt 1
 1669              		@ sp needed
 1670              	.LVL220:
 1671 0094 F8BD     		pop	{r3, r4, r5, r6, r7, pc}
 1672              		.cfi_endproc
 1673              	.LFE168:
 1674              		.size	lv_group_focus_obj, .-lv_group_focus_obj
 1675 0096 C046     		.section	.text.lv_group_swap_obj,"ax",%progbits
 1676              		.align	2
 1677              		.global	lv_group_swap_obj
 1678              		.code	16
 1679              		.thumb_func
 1680              		.type	lv_group_swap_obj, %function
 1681              	lv_group_swap_obj:
 1682              	.LFB165:
 157:..\..\..\arduinoLCD\test\Pain Drain\libraries\lvgl\src\core/lv_group.c ****     lv_group_t * g1 = lv_obj_get_group(obj1);
 1683              		.loc 1 157 0
 1684              		.cfi_startproc
 1685              		@ args = 0, pretend = 0, frame = 0
 1686              		@ frame_needed = 0, uses_anonymous_args = 0
 1687              	.LVL221:
 1688 0000 F8B5     		push	{r3, r4, r5, r6, r7, lr}
 1689              		.cfi_def_cfa_offset 24
 1690              		.cfi_offset 3, -24
 1691              		.cfi_offset 4, -20
 1692              		.cfi_offset 5, -16
 1693              		.cfi_offset 6, -12
 1694              		.cfi_offset 7, -8
 1695              		.cfi_offset 14, -4
 1696 0002 0400     		movs	r4, r0
 1697 0004 0E00     		movs	r6, r1
 158:..\..\..\arduinoLCD\test\Pain Drain\libraries\lvgl\src\core/lv_group.c ****     lv_group_t * g2 = lv_obj_get_group(obj2);
 1698              		.loc 1 158 0
 1699 0006 FFF7FEFF 		bl	lv_obj_get_group
 1700              	.LVL222:
 1701 000a 0700     		movs	r7, r0
 1702              	.LVL223:
 159:..\..\..\arduinoLCD\test\Pain Drain\libraries\lvgl\src\core/lv_group.c ****     if(g1 != g2) return;
 1703              		.loc 1 159 0
 1704 000c 3000     		movs	r0, r6
 1705              	.LVL224:
 1706 000e FFF7FEFF 		bl	lv_obj_get_group
 1707              	.LVL225:
ARM GAS  C:\Users\haske\AppData\Local\Temp\ccHGZgRG.s 			page 44


 160:..\..\..\arduinoLCD\test\Pain Drain\libraries\lvgl\src\core/lv_group.c ****     if(g1 == NULL) return;
 1708              		.loc 1 160 0
 1709 0012 8742     		cmp	r7, r0
 1710 0014 21D1     		bne	.L117
 161:..\..\..\arduinoLCD\test\Pain Drain\libraries\lvgl\src\core/lv_group.c **** 
 1711              		.loc 1 161 0
 1712 0016 002F     		cmp	r7, #0
 1713 0018 1FD0     		beq	.L117
 165:..\..\..\arduinoLCD\test\Pain Drain\libraries\lvgl\src\core/lv_group.c ****         if((*obj_i) == obj1)(*obj_i) = obj2;
 1714              		.loc 1 165 0
 1715 001a 3D00     		movs	r5, r7
 1716 001c 3800     		movs	r0, r7
 1717              	.LVL226:
 1718 001e FFF7FEFF 		bl	_lv_ll_get_head
 1719              	.LVL227:
 1720 0022 0BE0     		b	.L119
 1721              	.L122:
 166:..\..\..\arduinoLCD\test\Pain Drain\libraries\lvgl\src\core/lv_group.c ****         else if((*obj_i) == obj2)(*obj_i) = obj1;
 1722              		.loc 1 166 0
 1723 0024 0368     		ldr	r3, [r0]
 1724 0026 9C42     		cmp	r4, r3
 1725 0028 01D1     		bne	.L120
 166:..\..\..\arduinoLCD\test\Pain Drain\libraries\lvgl\src\core/lv_group.c ****         else if((*obj_i) == obj2)(*obj_i) = obj1;
 1726              		.loc 1 166 0 is_stmt 0 discriminator 1
 1727 002a 0660     		str	r6, [r0]
 1728 002c 02E0     		b	.L121
 1729              	.L120:
 167:..\..\..\arduinoLCD\test\Pain Drain\libraries\lvgl\src\core/lv_group.c ****     }
 1730              		.loc 1 167 0 is_stmt 1
 1731 002e 9E42     		cmp	r6, r3
 1732 0030 00D1     		bne	.L121
 167:..\..\..\arduinoLCD\test\Pain Drain\libraries\lvgl\src\core/lv_group.c ****     }
 1733              		.loc 1 167 0 is_stmt 0 discriminator 1
 1734 0032 0460     		str	r4, [r0]
 1735              	.L121:
 165:..\..\..\arduinoLCD\test\Pain Drain\libraries\lvgl\src\core/lv_group.c ****         if((*obj_i) == obj1)(*obj_i) = obj2;
 1736              		.loc 1 165 0 is_stmt 1 discriminator 2
 1737 0034 0100     		movs	r1, r0
 1738 0036 2800     		movs	r0, r5
 1739              	.LVL228:
 1740 0038 FFF7FEFF 		bl	_lv_ll_get_next
 1741              	.LVL229:
 1742              	.L119:
 165:..\..\..\arduinoLCD\test\Pain Drain\libraries\lvgl\src\core/lv_group.c ****         if((*obj_i) == obj1)(*obj_i) = obj2;
 1743              		.loc 1 165 0 is_stmt 0 discriminator 1
 1744 003c 0028     		cmp	r0, #0
 1745 003e F1D1     		bne	.L122
 170:..\..\..\arduinoLCD\test\Pain Drain\libraries\lvgl\src\core/lv_group.c ****     else if(*g1->obj_focus == obj2) lv_group_focus_obj(obj1);
 1746              		.loc 1 170 0 is_stmt 1
 1747 0040 FB68     		ldr	r3, [r7, #12]
 1748 0042 1B68     		ldr	r3, [r3]
 1749 0044 9C42     		cmp	r4, r3
 1750 0046 03D1     		bne	.L123
 170:..\..\..\arduinoLCD\test\Pain Drain\libraries\lvgl\src\core/lv_group.c ****     else if(*g1->obj_focus == obj2) lv_group_focus_obj(obj1);
 1751              		.loc 1 170 0 is_stmt 0 discriminator 1
 1752 0048 3000     		movs	r0, r6
 1753              	.LVL230:
ARM GAS  C:\Users\haske\AppData\Local\Temp\ccHGZgRG.s 			page 45


 1754 004a FFF7FEFF 		bl	lv_group_focus_obj
 1755              	.LVL231:
 1756 004e 04E0     		b	.L117
 1757              	.LVL232:
 1758              	.L123:
 171:..\..\..\arduinoLCD\test\Pain Drain\libraries\lvgl\src\core/lv_group.c **** 
 1759              		.loc 1 171 0 is_stmt 1
 1760 0050 9E42     		cmp	r6, r3
 1761 0052 02D1     		bne	.L117
 171:..\..\..\arduinoLCD\test\Pain Drain\libraries\lvgl\src\core/lv_group.c **** 
 1762              		.loc 1 171 0 is_stmt 0 discriminator 1
 1763 0054 2000     		movs	r0, r4
 1764              	.LVL233:
 1765 0056 FFF7FEFF 		bl	lv_group_focus_obj
 1766              	.LVL234:
 1767              	.L117:
 173:..\..\..\arduinoLCD\test\Pain Drain\libraries\lvgl\src\core/lv_group.c **** 
 1768              		.loc 1 173 0 is_stmt 1
 1769              		@ sp needed
 1770              	.LVL235:
 1771              	.LVL236:
 1772              	.LVL237:
 1773 005a F8BD     		pop	{r3, r4, r5, r6, r7, pc}
 1774              		.cfi_endproc
 1775              	.LFE165:
 1776              		.size	lv_group_swap_obj, .-lv_group_swap_obj
 1777              		.section	.text.lv_group_get_focus_cb,"ax",%progbits
 1778              		.align	2
 1779              		.global	lv_group_get_focus_cb
 1780              		.code	16
 1781              		.thumb_func
 1782              		.type	lv_group_get_focus_cb, %function
 1783              	lv_group_get_focus_cb:
 1784              	.LFB179:
 348:..\..\..\arduinoLCD\test\Pain Drain\libraries\lvgl\src\core/lv_group.c ****     if(!group) return NULL;
 1785              		.loc 1 348 0
 1786              		.cfi_startproc
 1787              		@ args = 0, pretend = 0, frame = 0
 1788              		@ frame_needed = 0, uses_anonymous_args = 0
 1789              		@ link register save eliminated.
 1790              	.LVL238:
 349:..\..\..\arduinoLCD\test\Pain Drain\libraries\lvgl\src\core/lv_group.c ****     return group->focus_cb;
 1791              		.loc 1 349 0
 1792 0000 0028     		cmp	r0, #0
 1793 0002 01D0     		beq	.L126
 350:..\..\..\arduinoLCD\test\Pain Drain\libraries\lvgl\src\core/lv_group.c **** }
 1794              		.loc 1 350 0
 1795 0004 0069     		ldr	r0, [r0, #16]
 1796              	.LVL239:
 1797 0006 00E0     		b	.L125
 1798              	.LVL240:
 1799              	.L126:
 349:..\..\..\arduinoLCD\test\Pain Drain\libraries\lvgl\src\core/lv_group.c ****     return group->focus_cb;
 1800              		.loc 1 349 0
 1801 0008 0020     		movs	r0, #0
 1802              	.LVL241:
 1803              	.L125:
ARM GAS  C:\Users\haske\AppData\Local\Temp\ccHGZgRG.s 			page 46


 351:..\..\..\arduinoLCD\test\Pain Drain\libraries\lvgl\src\core/lv_group.c **** 
 1804              		.loc 1 351 0
 1805              		@ sp needed
 1806 000a 7047     		bx	lr
 1807              		.cfi_endproc
 1808              	.LFE179:
 1809              		.size	lv_group_get_focus_cb, .-lv_group_get_focus_cb
 1810              		.section	.text.lv_group_get_edge_cb,"ax",%progbits
 1811              		.align	2
 1812              		.global	lv_group_get_edge_cb
 1813              		.code	16
 1814              		.thumb_func
 1815              		.type	lv_group_get_edge_cb, %function
 1816              	lv_group_get_edge_cb:
 1817              	.LFB180:
 354:..\..\..\arduinoLCD\test\Pain Drain\libraries\lvgl\src\core/lv_group.c ****     if(!group) return NULL;
 1818              		.loc 1 354 0
 1819              		.cfi_startproc
 1820              		@ args = 0, pretend = 0, frame = 0
 1821              		@ frame_needed = 0, uses_anonymous_args = 0
 1822              		@ link register save eliminated.
 1823              	.LVL242:
 355:..\..\..\arduinoLCD\test\Pain Drain\libraries\lvgl\src\core/lv_group.c ****     return group->edge_cb;
 1824              		.loc 1 355 0
 1825 0000 0028     		cmp	r0, #0
 1826 0002 01D0     		beq	.L129
 356:..\..\..\arduinoLCD\test\Pain Drain\libraries\lvgl\src\core/lv_group.c **** }
 1827              		.loc 1 356 0
 1828 0004 4069     		ldr	r0, [r0, #20]
 1829              	.LVL243:
 1830 0006 00E0     		b	.L128
 1831              	.LVL244:
 1832              	.L129:
 355:..\..\..\arduinoLCD\test\Pain Drain\libraries\lvgl\src\core/lv_group.c ****     return group->edge_cb;
 1833              		.loc 1 355 0
 1834 0008 0020     		movs	r0, #0
 1835              	.LVL245:
 1836              	.L128:
 357:..\..\..\arduinoLCD\test\Pain Drain\libraries\lvgl\src\core/lv_group.c **** 
 1837              		.loc 1 357 0
 1838              		@ sp needed
 1839 000a 7047     		bx	lr
 1840              		.cfi_endproc
 1841              	.LFE180:
 1842              		.size	lv_group_get_edge_cb, .-lv_group_get_edge_cb
 1843              		.section	.text.lv_group_get_editing,"ax",%progbits
 1844              		.align	2
 1845              		.global	lv_group_get_editing
 1846              		.code	16
 1847              		.thumb_func
 1848              		.type	lv_group_get_editing, %function
 1849              	lv_group_get_editing:
 1850              	.LFB181:
 360:..\..\..\arduinoLCD\test\Pain Drain\libraries\lvgl\src\core/lv_group.c ****     if(!group) return false;
 1851              		.loc 1 360 0
 1852              		.cfi_startproc
 1853              		@ args = 0, pretend = 0, frame = 0
ARM GAS  C:\Users\haske\AppData\Local\Temp\ccHGZgRG.s 			page 47


 1854              		@ frame_needed = 0, uses_anonymous_args = 0
 1855              		@ link register save eliminated.
 1856              	.LVL246:
 361:..\..\..\arduinoLCD\test\Pain Drain\libraries\lvgl\src\core/lv_group.c ****     return group->editing ? true : false;
 1857              		.loc 1 361 0
 1858 0000 0028     		cmp	r0, #0
 1859 0002 06D0     		beq	.L132
 362:..\..\..\arduinoLCD\test\Pain Drain\libraries\lvgl\src\core/lv_group.c **** }
 1860              		.loc 1 362 0
 1861 0004 037F     		ldrb	r3, [r0, #28]
 1862 0006 0220     		movs	r0, #2
 1863              	.LVL247:
 1864 0008 1840     		ands	r0, r3
 1865 000a 431E     		subs	r3, r0, #1
 1866 000c 9841     		sbcs	r0, r0, r3
 1867 000e C0B2     		uxtb	r0, r0
 1868 0010 00E0     		b	.L131
 1869              	.LVL248:
 1870              	.L132:
 361:..\..\..\arduinoLCD\test\Pain Drain\libraries\lvgl\src\core/lv_group.c ****     return group->editing ? true : false;
 1871              		.loc 1 361 0
 1872 0012 0020     		movs	r0, #0
 1873              	.LVL249:
 1874              	.L131:
 363:..\..\..\arduinoLCD\test\Pain Drain\libraries\lvgl\src\core/lv_group.c **** 
 1875              		.loc 1 363 0
 1876              		@ sp needed
 1877 0014 7047     		bx	lr
 1878              		.cfi_endproc
 1879              	.LFE181:
 1880              		.size	lv_group_get_editing, .-lv_group_get_editing
 1881 0016 C046     		.section	.text.lv_group_get_wrap,"ax",%progbits
 1882              		.align	2
 1883              		.global	lv_group_get_wrap
 1884              		.code	16
 1885              		.thumb_func
 1886              		.type	lv_group_get_wrap, %function
 1887              	lv_group_get_wrap:
 1888              	.LFB182:
 366:..\..\..\arduinoLCD\test\Pain Drain\libraries\lvgl\src\core/lv_group.c ****     if(!group) return false;
 1889              		.loc 1 366 0
 1890              		.cfi_startproc
 1891              		@ args = 0, pretend = 0, frame = 0
 1892              		@ frame_needed = 0, uses_anonymous_args = 0
 1893              		@ link register save eliminated.
 1894              	.LVL250:
 367:..\..\..\arduinoLCD\test\Pain Drain\libraries\lvgl\src\core/lv_group.c ****     return group->wrap ? true : false;
 1895              		.loc 1 367 0
 1896 0000 0028     		cmp	r0, #0
 1897 0002 06D0     		beq	.L135
 368:..\..\..\arduinoLCD\test\Pain Drain\libraries\lvgl\src\core/lv_group.c **** }
 1898              		.loc 1 368 0
 1899 0004 037F     		ldrb	r3, [r0, #28]
 1900 0006 0820     		movs	r0, #8
 1901              	.LVL251:
 1902 0008 1840     		ands	r0, r3
 1903 000a 431E     		subs	r3, r0, #1
ARM GAS  C:\Users\haske\AppData\Local\Temp\ccHGZgRG.s 			page 48


 1904 000c 9841     		sbcs	r0, r0, r3
 1905 000e C0B2     		uxtb	r0, r0
 1906 0010 00E0     		b	.L134
 1907              	.LVL252:
 1908              	.L135:
 367:..\..\..\arduinoLCD\test\Pain Drain\libraries\lvgl\src\core/lv_group.c ****     return group->wrap ? true : false;
 1909              		.loc 1 367 0
 1910 0012 0020     		movs	r0, #0
 1911              	.LVL253:
 1912              	.L134:
 369:..\..\..\arduinoLCD\test\Pain Drain\libraries\lvgl\src\core/lv_group.c **** 
 1913              		.loc 1 369 0
 1914              		@ sp needed
 1915 0014 7047     		bx	lr
 1916              		.cfi_endproc
 1917              	.LFE182:
 1918              		.size	lv_group_get_wrap, .-lv_group_get_wrap
 1919 0016 C046     		.section	.text.lv_group_get_obj_count,"ax",%progbits
 1920              		.align	2
 1921              		.global	lv_group_get_obj_count
 1922              		.code	16
 1923              		.thumb_func
 1924              		.type	lv_group_get_obj_count, %function
 1925              	lv_group_get_obj_count:
 1926              	.LFB183:
 372:..\..\..\arduinoLCD\test\Pain Drain\libraries\lvgl\src\core/lv_group.c ****     return _lv_ll_get_len(&group->obj_ll);
 1927              		.loc 1 372 0
 1928              		.cfi_startproc
 1929              		@ args = 0, pretend = 0, frame = 0
 1930              		@ frame_needed = 0, uses_anonymous_args = 0
 1931              	.LVL254:
 1932 0000 10B5     		push	{r4, lr}
 1933              		.cfi_def_cfa_offset 8
 1934              		.cfi_offset 4, -8
 1935              		.cfi_offset 14, -4
 373:..\..\..\arduinoLCD\test\Pain Drain\libraries\lvgl\src\core/lv_group.c **** }
 1936              		.loc 1 373 0
 1937 0002 FFF7FEFF 		bl	_lv_ll_get_len
 1938              	.LVL255:
 374:..\..\..\arduinoLCD\test\Pain Drain\libraries\lvgl\src\core/lv_group.c **** /**********************
 1939              		.loc 1 374 0
 1940              		@ sp needed
 1941 0006 10BD     		pop	{r4, pc}
 1942              		.cfi_endproc
 1943              	.LFE183:
 1944              		.size	lv_group_get_obj_count, .-lv_group_get_obj_count
 1945              		.bss
 1946              		.align	2
 1947              		.set	.LANCHOR0,. + 0
 1948              		.type	default_group, %object
 1949              		.size	default_group, 4
 1950              	default_group:
 1951 0000 00000000 		.space	4
 1952              		.text
 1953              	.Letext0:
 1954              		.file 2 "c:\\program files (x86)\\cypress\\psoc creator\\4.4\\psoc creator\\import\\gnu\\arm\\5.4.
 1955              		.file 3 "c:\\program files (x86)\\cypress\\psoc creator\\4.4\\psoc creator\\import\\gnu\\arm\\5.4.
ARM GAS  C:\Users\haske\AppData\Local\Temp\ccHGZgRG.s 			page 49


 1956              		.file 4 "c:\\program files (x86)\\cypress\\psoc creator\\4.4\\psoc creator\\import\\gnu\\arm\\5.4.
 1957              		.file 5 "..\\..\\..\\arduinoLCD\\test\\Pain Drain\\libraries\\lvgl\\src\\core\\../misc/lv_ll.h"
 1958              		.file 6 "..\\..\\..\\arduinoLCD\\test\\Pain Drain\\libraries\\lvgl\\src\\core\\../misc/lv_types.h"
 1959              		.file 7 "..\\..\\..\\arduinoLCD\\test\\Pain Drain\\libraries\\lvgl\\src\\core\\lv_group.h"
 1960              		.file 8 "..\\..\\..\\arduinoLCD\\test\\Pain Drain\\libraries\\lvgl\\src\\core\\../core/lv_obj.h"
 1961              		.file 9 "..\\..\\..\\arduinoLCD\\test\\Pain Drain\\libraries\\lvgl\\src\\core\\../misc/lv_timer.h"
 1962              		.file 10 "c:\\projects\\paindrain\\arduinolcd\\test\\pain drain\\libraries\\lvgl\\src\\misc\\lv_co
 1963              		.file 11 "c:\\projects\\paindrain\\arduinolcd\\test\\pain drain\\libraries\\lvgl\\src\\misc\\lv_ar
 1964              		.file 12 "c:\\projects\\paindrain\\arduinolcd\\test\\pain drain\\libraries\\lvgl\\src\\draw\\lv_im
 1965              		.file 13 "c:\\projects\\paindrain\\arduinolcd\\test\\pain drain\\libraries\\lvgl\\src\\font\\lv_fo
 1966              		.file 14 "c:\\projects\\paindrain\\arduinolcd\\test\\pain drain\\libraries\\lvgl\\src\\misc\\lv_tx
 1967              		.file 15 "c:\\projects\\paindrain\\arduinolcd\\test\\pain drain\\libraries\\lvgl\\src\\misc\\lv_bi
 1968              		.file 16 "c:\\projects\\paindrain\\arduinolcd\\test\\pain drain\\libraries\\lvgl\\src\\misc\\lv_st
 1969              		.file 17 "c:\\projects\\paindrain\\arduinolcd\\test\\pain drain\\libraries\\lvgl\\src\\draw\\lv_dr
 1970              		.file 18 "c:\\projects\\paindrain\\arduinolcd\\test\\pain drain\\libraries\\lvgl\\src\\draw\\lv_dr
 1971              		.file 19 "c:\\projects\\paindrain\\arduinolcd\\test\\pain drain\\libraries\\lvgl\\src\\draw\\lv_dr
 1972              		.file 20 "c:\\projects\\paindrain\\arduinolcd\\test\\pain drain\\libraries\\lvgl\\src\\draw\\lv_dr
 1973              		.file 21 "c:\\projects\\paindrain\\arduinolcd\\test\\pain drain\\libraries\\lvgl\\src\\draw\\lv_dr
 1974              		.file 22 "c:\\projects\\paindrain\\arduinolcd\\test\\pain drain\\libraries\\lvgl\\src\\draw\\lv_dr
 1975              		.file 23 "c:\\projects\\paindrain\\arduinolcd\\test\\pain drain\\libraries\\lvgl\\src\\draw\\lv_dr
 1976              		.file 24 "c:\\projects\\paindrain\\arduinolcd\\test\\pain drain\\libraries\\lvgl\\src\\hal\\lv_hal
 1977              		.file 25 "c:\\projects\\paindrain\\arduinolcd\\test\\pain drain\\libraries\\lvgl\\src\\hal\\lv_hal
 1978              		.file 26 "..\\..\\..\\arduinoLCD\\test\\Pain Drain\\libraries\\lvgl\\src\\core\\../core/lv_obj_scr
 1979              		.file 27 "..\\..\\..\\arduinoLCD\\test\\Pain Drain\\libraries\\lvgl\\src\\core\\../core/lv_obj_sty
 1980              		.file 28 "..\\..\\..\\arduinoLCD\\test\\Pain Drain\\libraries\\lvgl\\src\\core\\../core/lv_obj_cla
 1981              		.file 29 "..\\..\\..\\arduinoLCD\\test\\Pain Drain\\libraries\\lvgl\\src\\core\\../core/lv_event.h
 1982              		.file 30 "..\\..\\..\\arduinoLCD\\test\\Pain Drain\\libraries\\lvgl\\src\\core\\../misc/lv_gc.h"
 1983              		.file 31 "..\\..\\..\\arduinoLCD\\test\\Pain Drain\\libraries\\lvgl\\src\\core\\../core/lv_indev.h
 1984              		.file 32 "..\\..\\..\\arduinoLCD\\test\\Pain Drain\\libraries\\lvgl\\src\\core\\../core/lv_obj_tre
 1985              		.file 33 "c:\\projects\\paindrain\\arduinolcd\\test\\pain drain\\libraries\\lvgl\\src\\core\\lv_ob
 1986              		.file 34 "..\\..\\..\\arduinoLCD\\test\\Pain Drain\\libraries\\lvgl\\src\\core\\../misc/lv_mem.h"
 1987              		.section	.debug_info,"",%progbits
 1988              	.Ldebug_info0:
 1989 0000 F62D0000 		.4byte	0x2df6
 1990 0004 0400     		.2byte	0x4
 1991 0006 00000000 		.4byte	.Ldebug_abbrev0
 1992 000a 04       		.byte	0x4
 1993 000b 01       		.uleb128 0x1
 1994 000c 5D090000 		.4byte	.LASF634
 1995 0010 0C       		.byte	0xc
 1996 0011 040C0000 		.4byte	.LASF635
 1997 0015 2F200000 		.4byte	.LASF636
 1998 0019 48000000 		.4byte	.Ldebug_ranges0+0x48
 1999 001d 00000000 		.4byte	0
 2000 0021 00000000 		.4byte	.Ldebug_line0
 2001 0025 02       		.uleb128 0x2
 2002 0026 04       		.byte	0x4
 2003 0027 05       		.byte	0x5
 2004 0028 696E7400 		.ascii	"int\000"
 2005 002c 03       		.uleb128 0x3
 2006 002d 4E000000 		.4byte	.LASF3
 2007 0031 02       		.byte	0x2
 2008 0032 D8       		.byte	0xd8
 2009 0033 37000000 		.4byte	0x37
 2010 0037 04       		.uleb128 0x4
 2011 0038 04       		.byte	0x4
 2012 0039 07       		.byte	0x7
ARM GAS  C:\Users\haske\AppData\Local\Temp\ccHGZgRG.s 			page 50


 2013 003a B8150000 		.4byte	.LASF0
 2014 003e 04       		.uleb128 0x4
 2015 003f 08       		.byte	0x8
 2016 0040 05       		.byte	0x5
 2017 0041 6F130000 		.4byte	.LASF1
 2018 0045 04       		.uleb128 0x4
 2019 0046 08       		.byte	0x8
 2020 0047 04       		.byte	0x4
 2021 0048 9E180000 		.4byte	.LASF2
 2022 004c 03       		.uleb128 0x3
 2023 004d 241A0000 		.4byte	.LASF4
 2024 0051 03       		.byte	0x3
 2025 0052 1B       		.byte	0x1b
 2026 0053 57000000 		.4byte	0x57
 2027 0057 04       		.uleb128 0x4
 2028 0058 01       		.byte	0x1
 2029 0059 06       		.byte	0x6
 2030 005a B2060000 		.4byte	.LASF5
 2031 005e 03       		.uleb128 0x3
 2032 005f AD030000 		.4byte	.LASF6
 2033 0063 03       		.byte	0x3
 2034 0064 1D       		.byte	0x1d
 2035 0065 69000000 		.4byte	0x69
 2036 0069 04       		.uleb128 0x4
 2037 006a 01       		.byte	0x1
 2038 006b 08       		.byte	0x8
 2039 006c B6070000 		.4byte	.LASF7
 2040 0070 03       		.uleb128 0x3
 2041 0071 6D1C0000 		.4byte	.LASF8
 2042 0075 03       		.byte	0x3
 2043 0076 29       		.byte	0x29
 2044 0077 7B000000 		.4byte	0x7b
 2045 007b 04       		.uleb128 0x4
 2046 007c 02       		.byte	0x2
 2047 007d 05       		.byte	0x5
 2048 007e 541E0000 		.4byte	.LASF9
 2049 0082 03       		.uleb128 0x3
 2050 0083 EE0A0000 		.4byte	.LASF10
 2051 0087 03       		.byte	0x3
 2052 0088 2B       		.byte	0x2b
 2053 0089 8D000000 		.4byte	0x8d
 2054 008d 04       		.uleb128 0x4
 2055 008e 02       		.byte	0x2
 2056 008f 07       		.byte	0x7
 2057 0090 CA220000 		.4byte	.LASF11
 2058 0094 03       		.uleb128 0x3
 2059 0095 7B230000 		.4byte	.LASF12
 2060 0099 03       		.byte	0x3
 2061 009a 3F       		.byte	0x3f
 2062 009b 9F000000 		.4byte	0x9f
 2063 009f 04       		.uleb128 0x4
 2064 00a0 04       		.byte	0x4
 2065 00a1 05       		.byte	0x5
 2066 00a2 CC040000 		.4byte	.LASF13
 2067 00a6 03       		.uleb128 0x3
 2068 00a7 2F130000 		.4byte	.LASF14
 2069 00ab 03       		.byte	0x3
ARM GAS  C:\Users\haske\AppData\Local\Temp\ccHGZgRG.s 			page 51


 2070 00ac 41       		.byte	0x41
 2071 00ad B1000000 		.4byte	0xb1
 2072 00b1 04       		.uleb128 0x4
 2073 00b2 04       		.byte	0x4
 2074 00b3 07       		.byte	0x7
 2075 00b4 58100000 		.4byte	.LASF15
 2076 00b8 04       		.uleb128 0x4
 2077 00b9 08       		.byte	0x8
 2078 00ba 07       		.byte	0x7
 2079 00bb 7A1A0000 		.4byte	.LASF16
 2080 00bf 03       		.uleb128 0x3
 2081 00c0 09000000 		.4byte	.LASF17
 2082 00c4 04       		.byte	0x4
 2083 00c5 14       		.byte	0x14
 2084 00c6 4C000000 		.4byte	0x4c
 2085 00ca 03       		.uleb128 0x3
 2086 00cb BE060000 		.4byte	.LASF18
 2087 00cf 04       		.byte	0x4
 2088 00d0 18       		.byte	0x18
 2089 00d1 5E000000 		.4byte	0x5e
 2090 00d5 03       		.uleb128 0x3
 2091 00d6 211F0000 		.4byte	.LASF19
 2092 00da 04       		.byte	0x4
 2093 00db 20       		.byte	0x20
 2094 00dc 70000000 		.4byte	0x70
 2095 00e0 03       		.uleb128 0x3
 2096 00e1 051B0000 		.4byte	.LASF20
 2097 00e5 04       		.byte	0x4
 2098 00e6 24       		.byte	0x24
 2099 00e7 82000000 		.4byte	0x82
 2100 00eb 03       		.uleb128 0x3
 2101 00ec 07010000 		.4byte	.LASF21
 2102 00f0 04       		.byte	0x4
 2103 00f1 2C       		.byte	0x2c
 2104 00f2 94000000 		.4byte	0x94
 2105 00f6 03       		.uleb128 0x3
 2106 00f7 E9210000 		.4byte	.LASF22
 2107 00fb 04       		.byte	0x4
 2108 00fc 30       		.byte	0x30
 2109 00fd A6000000 		.4byte	0xa6
 2110 0101 03       		.uleb128 0x3
 2111 0102 2E000000 		.4byte	.LASF23
 2112 0106 05       		.byte	0x5
 2113 0107 1D       		.byte	0x1d
 2114 0108 CA000000 		.4byte	0xca
 2115 010c 05       		.uleb128 0x5
 2116 010d 0C       		.byte	0xc
 2117 010e 05       		.byte	0x5
 2118 010f 20       		.byte	0x20
 2119 0110 39010000 		.4byte	0x139
 2120 0114 06       		.uleb128 0x6
 2121 0115 14250000 		.4byte	.LASF24
 2122 0119 05       		.byte	0x5
 2123 011a 21       		.byte	0x21
 2124 011b F6000000 		.4byte	0xf6
 2125 011f 00       		.byte	0
 2126 0120 06       		.uleb128 0x6
ARM GAS  C:\Users\haske\AppData\Local\Temp\ccHGZgRG.s 			page 52


 2127 0121 1C060000 		.4byte	.LASF25
 2128 0125 05       		.byte	0x5
 2129 0126 22       		.byte	0x22
 2130 0127 39010000 		.4byte	0x139
 2131 012b 04       		.byte	0x4
 2132 012c 06       		.uleb128 0x6
 2133 012d B9000000 		.4byte	.LASF26
 2134 0131 05       		.byte	0x5
 2135 0132 23       		.byte	0x23
 2136 0133 39010000 		.4byte	0x139
 2137 0137 08       		.byte	0x8
 2138 0138 00       		.byte	0
 2139 0139 07       		.uleb128 0x7
 2140 013a 04       		.byte	0x4
 2141 013b 01010000 		.4byte	0x101
 2142 013f 03       		.uleb128 0x3
 2143 0140 6C1E0000 		.4byte	.LASF27
 2144 0144 05       		.byte	0x5
 2145 0145 24       		.byte	0x24
 2146 0146 0C010000 		.4byte	0x10c
 2147 014a 08       		.uleb128 0x8
 2148 014b 01       		.byte	0x1
 2149 014c 69000000 		.4byte	0x69
 2150 0150 06       		.byte	0x6
 2151 0151 2A       		.byte	0x2a
 2152 0152 63010000 		.4byte	0x163
 2153 0156 09       		.uleb128 0x9
 2154 0157 55020000 		.4byte	.LASF28
 2155 015b 00       		.byte	0
 2156 015c 09       		.uleb128 0x9
 2157 015d 0E1B0000 		.4byte	.LASF29
 2158 0161 01       		.byte	0x1
 2159 0162 00       		.byte	0
 2160 0163 03       		.uleb128 0x3
 2161 0164 73180000 		.4byte	.LASF30
 2162 0168 06       		.byte	0x6
 2163 0169 2F       		.byte	0x2f
 2164 016a CA000000 		.4byte	0xca
 2165 016e 03       		.uleb128 0x3
 2166 016f 6D250000 		.4byte	.LASF31
 2167 0173 07       		.byte	0x7
 2168 0174 34       		.byte	0x34
 2169 0175 79010000 		.4byte	0x179
 2170 0179 07       		.uleb128 0x7
 2171 017a 04       		.byte	0x4
 2172 017b 7F010000 		.4byte	0x17f
 2173 017f 0A       		.uleb128 0xa
 2174 0180 8A010000 		.4byte	0x18a
 2175 0184 0B       		.uleb128 0xb
 2176 0185 8A010000 		.4byte	0x18a
 2177 0189 00       		.byte	0
 2178 018a 07       		.uleb128 0x7
 2179 018b 04       		.byte	0x4
 2180 018c 90010000 		.4byte	0x190
 2181 0190 0C       		.uleb128 0xc
 2182 0191 2F250000 		.4byte	.LASF43
 2183 0195 20       		.byte	0x20
ARM GAS  C:\Users\haske\AppData\Local\Temp\ccHGZgRG.s 			page 53


 2184 0196 07       		.byte	0x7
 2185 0197 3B       		.byte	0x3b
 2186 0198 15020000 		.4byte	0x215
 2187 019c 06       		.uleb128 0x6
 2188 019d 4C110000 		.4byte	.LASF32
 2189 01a1 07       		.byte	0x7
 2190 01a2 3C       		.byte	0x3c
 2191 01a3 3F010000 		.4byte	0x13f
 2192 01a7 00       		.byte	0
 2193 01a8 06       		.uleb128 0x6
 2194 01a9 97250000 		.4byte	.LASF33
 2195 01ad 07       		.byte	0x7
 2196 01ae 3D       		.byte	0x3d
 2197 01af 04030000 		.4byte	0x304
 2198 01b3 0C       		.byte	0xc
 2199 01b4 06       		.uleb128 0x6
 2200 01b5 4E180000 		.4byte	.LASF34
 2201 01b9 07       		.byte	0x7
 2202 01ba 3F       		.byte	0x3f
 2203 01bb 6E010000 		.4byte	0x16e
 2204 01bf 10       		.byte	0x10
 2205 01c0 06       		.uleb128 0x6
 2206 01c1 E2050000 		.4byte	.LASF35
 2207 01c5 07       		.byte	0x7
 2208 01c6 40       		.byte	0x40
 2209 01c7 15020000 		.4byte	0x215
 2210 01cb 14       		.byte	0x14
 2211 01cc 06       		.uleb128 0x6
 2212 01cd 28230000 		.4byte	.LASF36
 2213 01d1 07       		.byte	0x7
 2214 01d2 45       		.byte	0x45
 2215 01d3 10030000 		.4byte	0x310
 2216 01d7 18       		.byte	0x18
 2217 01d8 0D       		.uleb128 0xd
 2218 01d9 4D060000 		.4byte	.LASF37
 2219 01dd 07       		.byte	0x7
 2220 01de 48       		.byte	0x48
 2221 01df CA000000 		.4byte	0xca
 2222 01e3 01       		.byte	0x1
 2223 01e4 01       		.byte	0x1
 2224 01e5 07       		.byte	0x7
 2225 01e6 1C       		.byte	0x1c
 2226 01e7 0D       		.uleb128 0xd
 2227 01e8 5E1E0000 		.4byte	.LASF38
 2228 01ec 07       		.byte	0x7
 2229 01ed 49       		.byte	0x49
 2230 01ee CA000000 		.4byte	0xca
 2231 01f2 01       		.byte	0x1
 2232 01f3 01       		.byte	0x1
 2233 01f4 06       		.byte	0x6
 2234 01f5 1C       		.byte	0x1c
 2235 01f6 0D       		.uleb128 0xd
 2236 01f7 DC230000 		.4byte	.LASF39
 2237 01fb 07       		.byte	0x7
 2238 01fc 4A       		.byte	0x4a
 2239 01fd CA000000 		.4byte	0xca
 2240 0201 01       		.byte	0x1
ARM GAS  C:\Users\haske\AppData\Local\Temp\ccHGZgRG.s 			page 54


 2241 0202 01       		.byte	0x1
 2242 0203 05       		.byte	0x5
 2243 0204 1C       		.byte	0x1c
 2244 0205 0D       		.uleb128 0xd
 2245 0206 211B0000 		.4byte	.LASF40
 2246 020a 07       		.byte	0x7
 2247 020b 4C       		.byte	0x4c
 2248 020c CA000000 		.4byte	0xca
 2249 0210 01       		.byte	0x1
 2250 0211 01       		.byte	0x1
 2251 0212 04       		.byte	0x4
 2252 0213 1C       		.byte	0x1c
 2253 0214 00       		.byte	0
 2254 0215 03       		.uleb128 0x3
 2255 0216 930D0000 		.4byte	.LASF41
 2256 021a 07       		.byte	0x7
 2257 021b 35       		.byte	0x35
 2258 021c 20020000 		.4byte	0x220
 2259 0220 07       		.uleb128 0x7
 2260 0221 04       		.byte	0x4
 2261 0222 26020000 		.4byte	0x226
 2262 0226 0A       		.uleb128 0xa
 2263 0227 36020000 		.4byte	0x236
 2264 022b 0B       		.uleb128 0xb
 2265 022c 8A010000 		.4byte	0x18a
 2266 0230 0B       		.uleb128 0xb
 2267 0231 36020000 		.4byte	0x236
 2268 0235 00       		.byte	0
 2269 0236 04       		.uleb128 0x4
 2270 0237 01       		.byte	0x1
 2271 0238 02       		.byte	0x2
 2272 0239 04090000 		.4byte	.LASF42
 2273 023d 0C       		.uleb128 0xc
 2274 023e 7C1D0000 		.4byte	.LASF44
 2275 0242 24       		.byte	0x24
 2276 0243 08       		.byte	0x8
 2277 0244 AE       		.byte	0xae
 2278 0245 04030000 		.4byte	0x304
 2279 0249 06       		.uleb128 0x6
 2280 024a 97150000 		.4byte	.LASF45
 2281 024e 08       		.byte	0x8
 2282 024f AF       		.byte	0xaf
 2283 0250 ED1E0000 		.4byte	0x1eed
 2284 0254 00       		.byte	0
 2285 0255 06       		.uleb128 0x6
 2286 0256 E2140000 		.4byte	.LASF46
 2287 025a 08       		.byte	0x8
 2288 025b B0       		.byte	0xb0
 2289 025c 0A030000 		.4byte	0x30a
 2290 0260 04       		.byte	0x4
 2291 0261 06       		.uleb128 0x6
 2292 0262 B4010000 		.4byte	.LASF47
 2293 0266 08       		.byte	0x8
 2294 0267 B1       		.byte	0xb1
 2295 0268 F81E0000 		.4byte	0x1ef8
 2296 026c 08       		.byte	0x8
 2297 026d 06       		.uleb128 0x6
ARM GAS  C:\Users\haske\AppData\Local\Temp\ccHGZgRG.s 			page 55


 2298 026e E90F0000 		.4byte	.LASF48
 2299 0272 08       		.byte	0x8
 2300 0273 B2       		.byte	0xb2
 2301 0274 FE1E0000 		.4byte	0x1efe
 2302 0278 0C       		.byte	0xc
 2303 0279 06       		.uleb128 0x6
 2304 027a 28230000 		.4byte	.LASF36
 2305 027e 08       		.byte	0x8
 2306 027f B4       		.byte	0xb4
 2307 0280 10030000 		.4byte	0x310
 2308 0284 10       		.byte	0x10
 2309 0285 06       		.uleb128 0x6
 2310 0286 421F0000 		.4byte	.LASF49
 2311 028a 08       		.byte	0x8
 2312 028b B6       		.byte	0xb6
 2313 028c B1040000 		.4byte	0x4b1
 2314 0290 14       		.byte	0x14
 2315 0291 06       		.uleb128 0x6
 2316 0292 A80B0000 		.4byte	.LASF50
 2317 0296 08       		.byte	0x8
 2318 0297 B7       		.byte	0xb7
 2319 0298 1C1B0000 		.4byte	0x1b1c
 2320 029c 1C       		.byte	0x1c
 2321 029d 06       		.uleb128 0x6
 2322 029e 0E020000 		.4byte	.LASF51
 2323 02a2 08       		.byte	0x8
 2324 02a3 B8       		.byte	0xb8
 2325 02a4 291A0000 		.4byte	0x1a29
 2326 02a8 20       		.byte	0x20
 2327 02a9 0D       		.uleb128 0xd
 2328 02aa A7060000 		.4byte	.LASF52
 2329 02ae 08       		.byte	0x8
 2330 02af B9       		.byte	0xb9
 2331 02b0 E0000000 		.4byte	0xe0
 2332 02b4 02       		.byte	0x2
 2333 02b5 01       		.byte	0x1
 2334 02b6 0F       		.byte	0xf
 2335 02b7 22       		.byte	0x22
 2336 02b8 0D       		.uleb128 0xd
 2337 02b9 E3030000 		.4byte	.LASF53
 2338 02bd 08       		.byte	0x8
 2339 02be BA       		.byte	0xba
 2340 02bf E0000000 		.4byte	0xe0
 2341 02c3 02       		.byte	0x2
 2342 02c4 01       		.byte	0x1
 2343 02c5 0E       		.byte	0xe
 2344 02c6 22       		.byte	0x22
 2345 02c7 0D       		.uleb128 0xd
 2346 02c8 4F150000 		.4byte	.LASF54
 2347 02cc 08       		.byte	0x8
 2348 02cd BB       		.byte	0xbb
 2349 02ce E0000000 		.4byte	0xe0
 2350 02d2 02       		.byte	0x2
 2351 02d3 01       		.byte	0x1
 2352 02d4 0D       		.byte	0xd
 2353 02d5 22       		.byte	0x22
 2354 02d6 0D       		.uleb128 0xd
ARM GAS  C:\Users\haske\AppData\Local\Temp\ccHGZgRG.s 			page 56


 2355 02d7 9D060000 		.4byte	.LASF55
 2356 02db 08       		.byte	0x8
 2357 02dc BC       		.byte	0xbc
 2358 02dd E0000000 		.4byte	0xe0
 2359 02e1 02       		.byte	0x2
 2360 02e2 06       		.byte	0x6
 2361 02e3 07       		.byte	0x7
 2362 02e4 22       		.byte	0x22
 2363 02e5 0D       		.uleb128 0xd
 2364 02e6 ED080000 		.4byte	.LASF56
 2365 02ea 08       		.byte	0x8
 2366 02eb BD       		.byte	0xbd
 2367 02ec E0000000 		.4byte	0xe0
 2368 02f0 02       		.byte	0x2
 2369 02f1 01       		.byte	0x1
 2370 02f2 06       		.byte	0x6
 2371 02f3 22       		.byte	0x22
 2372 02f4 0D       		.uleb128 0xd
 2373 02f5 B7030000 		.4byte	.LASF57
 2374 02f9 08       		.byte	0x8
 2375 02fa BE       		.byte	0xbe
 2376 02fb E0000000 		.4byte	0xe0
 2377 02ff 02       		.byte	0x2
 2378 0300 01       		.byte	0x1
 2379 0301 05       		.byte	0x5
 2380 0302 22       		.byte	0x22
 2381 0303 00       		.byte	0
 2382 0304 07       		.uleb128 0x7
 2383 0305 04       		.byte	0x4
 2384 0306 0A030000 		.4byte	0x30a
 2385 030a 07       		.uleb128 0x7
 2386 030b 04       		.byte	0x4
 2387 030c 3D020000 		.4byte	0x23d
 2388 0310 0E       		.uleb128 0xe
 2389 0311 04       		.byte	0x4
 2390 0312 03       		.uleb128 0x3
 2391 0313 53080000 		.4byte	.LASF58
 2392 0317 07       		.byte	0x7
 2393 0318 4E       		.byte	0x4e
 2394 0319 90010000 		.4byte	0x190
 2395 031d 08       		.uleb128 0x8
 2396 031e 01       		.byte	0x1
 2397 031f 69000000 		.4byte	0x69
 2398 0323 07       		.byte	0x7
 2399 0324 51       		.byte	0x51
 2400 0325 36030000 		.4byte	0x336
 2401 0329 09       		.uleb128 0x9
 2402 032a 92130000 		.4byte	.LASF59
 2403 032e 00       		.byte	0
 2404 032f 09       		.uleb128 0x9
 2405 0330 D7130000 		.4byte	.LASF60
 2406 0334 01       		.byte	0x1
 2407 0335 00       		.byte	0
 2408 0336 03       		.uleb128 0x3
 2409 0337 C41F0000 		.4byte	.LASF61
 2410 033b 07       		.byte	0x7
 2411 033c 54       		.byte	0x54
ARM GAS  C:\Users\haske\AppData\Local\Temp\ccHGZgRG.s 			page 57


 2412 033d 1D030000 		.4byte	0x31d
 2413 0341 04       		.uleb128 0x4
 2414 0342 04       		.byte	0x4
 2415 0343 07       		.byte	0x7
 2416 0344 71000000 		.4byte	.LASF62
 2417 0348 04       		.uleb128 0x4
 2418 0349 01       		.byte	0x1
 2419 034a 08       		.byte	0x8
 2420 034b 300A0000 		.4byte	.LASF63
 2421 034f 03       		.uleb128 0x3
 2422 0350 7E120000 		.4byte	.LASF64
 2423 0354 09       		.byte	0x9
 2424 0355 27       		.byte	0x27
 2425 0356 5A030000 		.4byte	0x35a
 2426 035a 07       		.uleb128 0x7
 2427 035b 04       		.byte	0x4
 2428 035c 60030000 		.4byte	0x360
 2429 0360 0A       		.uleb128 0xa
 2430 0361 6B030000 		.4byte	0x36b
 2431 0365 0B       		.uleb128 0xb
 2432 0366 6B030000 		.4byte	0x36b
 2433 036a 00       		.byte	0
 2434 036b 07       		.uleb128 0x7
 2435 036c 04       		.byte	0x4
 2436 036d 71030000 		.4byte	0x371
 2437 0371 0C       		.uleb128 0xc
 2438 0372 49020000 		.4byte	.LASF65
 2439 0376 18       		.byte	0x18
 2440 0377 09       		.byte	0x9
 2441 0378 2C       		.byte	0x2c
 2442 0379 C9030000 		.4byte	0x3c9
 2443 037d 06       		.uleb128 0x6
 2444 037e 451C0000 		.4byte	.LASF66
 2445 0382 09       		.byte	0x9
 2446 0383 2D       		.byte	0x2d
 2447 0384 F6000000 		.4byte	0xf6
 2448 0388 00       		.byte	0
 2449 0389 06       		.uleb128 0x6
 2450 038a 181B0000 		.4byte	.LASF67
 2451 038e 09       		.byte	0x9
 2452 038f 2E       		.byte	0x2e
 2453 0390 F6000000 		.4byte	0xf6
 2454 0394 04       		.byte	0x4
 2455 0395 06       		.uleb128 0x6
 2456 0396 9E190000 		.4byte	.LASF68
 2457 039a 09       		.byte	0x9
 2458 039b 2F       		.byte	0x2f
 2459 039c 4F030000 		.4byte	0x34f
 2460 03a0 08       		.byte	0x8
 2461 03a1 06       		.uleb128 0x6
 2462 03a2 28230000 		.4byte	.LASF36
 2463 03a6 09       		.byte	0x9
 2464 03a7 30       		.byte	0x30
 2465 03a8 10030000 		.4byte	0x310
 2466 03ac 0C       		.byte	0xc
 2467 03ad 06       		.uleb128 0x6
 2468 03ae 24020000 		.4byte	.LASF69
ARM GAS  C:\Users\haske\AppData\Local\Temp\ccHGZgRG.s 			page 58


 2469 03b2 09       		.byte	0x9
 2470 03b3 31       		.byte	0x31
 2471 03b4 EB000000 		.4byte	0xeb
 2472 03b8 10       		.byte	0x10
 2473 03b9 0D       		.uleb128 0xd
 2474 03ba D6150000 		.4byte	.LASF70
 2475 03be 09       		.byte	0x9
 2476 03bf 32       		.byte	0x32
 2477 03c0 F6000000 		.4byte	0xf6
 2478 03c4 04       		.byte	0x4
 2479 03c5 01       		.byte	0x1
 2480 03c6 1F       		.byte	0x1f
 2481 03c7 14       		.byte	0x14
 2482 03c8 00       		.byte	0
 2483 03c9 03       		.uleb128 0x3
 2484 03ca A90C0000 		.4byte	.LASF71
 2485 03ce 09       		.byte	0x9
 2486 03cf 33       		.byte	0x33
 2487 03d0 71030000 		.4byte	0x371
 2488 03d4 05       		.uleb128 0x5
 2489 03d5 02       		.byte	0x2
 2490 03d6 0A       		.byte	0xa
 2491 03d7 D1       		.byte	0xd1
 2492 03d8 0A040000 		.4byte	0x40a
 2493 03dc 0D       		.uleb128 0xd
 2494 03dd 3F070000 		.4byte	.LASF72
 2495 03e1 0A       		.byte	0xa
 2496 03e2 D3       		.byte	0xd3
 2497 03e3 E0000000 		.4byte	0xe0
 2498 03e7 02       		.byte	0x2
 2499 03e8 05       		.byte	0x5
 2500 03e9 0B       		.byte	0xb
 2501 03ea 00       		.byte	0
 2502 03eb 0D       		.uleb128 0xd
 2503 03ec 73220000 		.4byte	.LASF73
 2504 03f0 0A       		.byte	0xa
 2505 03f1 D4       		.byte	0xd4
 2506 03f2 E0000000 		.4byte	0xe0
 2507 03f6 02       		.byte	0x2
 2508 03f7 06       		.byte	0x6
 2509 03f8 05       		.byte	0x5
 2510 03f9 00       		.byte	0
 2511 03fa 0F       		.uleb128 0xf
 2512 03fb 72656400 		.ascii	"red\000"
 2513 03ff 0A       		.byte	0xa
 2514 0400 D5       		.byte	0xd5
 2515 0401 E0000000 		.4byte	0xe0
 2516 0405 02       		.byte	0x2
 2517 0406 05       		.byte	0x5
 2518 0407 00       		.byte	0
 2519 0408 00       		.byte	0
 2520 0409 00       		.byte	0
 2521 040a 10       		.uleb128 0x10
 2522 040b 02       		.byte	0x2
 2523 040c 0A       		.byte	0xa
 2524 040d D0       		.byte	0xd0
 2525 040e 28040000 		.4byte	0x428
ARM GAS  C:\Users\haske\AppData\Local\Temp\ccHGZgRG.s 			page 59


 2526 0412 11       		.uleb128 0x11
 2527 0413 636800   		.ascii	"ch\000"
 2528 0416 0A       		.byte	0xa
 2529 0417 DC       		.byte	0xdc
 2530 0418 D4030000 		.4byte	0x3d4
 2531 041c 12       		.uleb128 0x12
 2532 041d C21C0000 		.4byte	.LASF74
 2533 0421 0A       		.byte	0xa
 2534 0422 DD       		.byte	0xdd
 2535 0423 E0000000 		.4byte	0xe0
 2536 0427 00       		.byte	0
 2537 0428 03       		.uleb128 0x3
 2538 0429 411E0000 		.4byte	.LASF75
 2539 042d 0A       		.byte	0xa
 2540 042e DE       		.byte	0xde
 2541 042f 0A040000 		.4byte	0x40a
 2542 0433 03       		.uleb128 0x3
 2543 0434 261B0000 		.4byte	.LASF76
 2544 0438 0A       		.byte	0xa
 2545 0439 EB       		.byte	0xeb
 2546 043a 28040000 		.4byte	0x428
 2547 043e 03       		.uleb128 0x3
 2548 043f E5000000 		.4byte	.LASF77
 2549 0443 0A       		.byte	0xa
 2550 0444 F5       		.byte	0xf5
 2551 0445 CA000000 		.4byte	0xca
 2552 0449 03       		.uleb128 0x3
 2553 044a EA220000 		.4byte	.LASF78
 2554 044e 0B       		.byte	0xb
 2555 044f 1B       		.byte	0x1b
 2556 0450 D5000000 		.4byte	0xd5
 2557 0454 05       		.uleb128 0x5
 2558 0455 04       		.byte	0x4
 2559 0456 0B       		.byte	0xb
 2560 0457 25       		.byte	0x25
 2561 0458 71040000 		.4byte	0x471
 2562 045c 13       		.uleb128 0x13
 2563 045d 7800     		.ascii	"x\000"
 2564 045f 0B       		.byte	0xb
 2565 0460 26       		.byte	0x26
 2566 0461 49040000 		.4byte	0x449
 2567 0465 00       		.byte	0
 2568 0466 13       		.uleb128 0x13
 2569 0467 7900     		.ascii	"y\000"
 2570 0469 0B       		.byte	0xb
 2571 046a 27       		.byte	0x27
 2572 046b 49040000 		.4byte	0x449
 2573 046f 02       		.byte	0x2
 2574 0470 00       		.byte	0
 2575 0471 03       		.uleb128 0x3
 2576 0472 52010000 		.4byte	.LASF79
 2577 0476 0B       		.byte	0xb
 2578 0477 28       		.byte	0x28
 2579 0478 54040000 		.4byte	0x454
 2580 047c 05       		.uleb128 0x5
 2581 047d 08       		.byte	0x8
 2582 047e 0B       		.byte	0xb
ARM GAS  C:\Users\haske\AppData\Local\Temp\ccHGZgRG.s 			page 60


 2583 047f 2B       		.byte	0x2b
 2584 0480 B1040000 		.4byte	0x4b1
 2585 0484 13       		.uleb128 0x13
 2586 0485 783100   		.ascii	"x1\000"
 2587 0488 0B       		.byte	0xb
 2588 0489 2C       		.byte	0x2c
 2589 048a 49040000 		.4byte	0x449
 2590 048e 00       		.byte	0
 2591 048f 13       		.uleb128 0x13
 2592 0490 793100   		.ascii	"y1\000"
 2593 0493 0B       		.byte	0xb
 2594 0494 2D       		.byte	0x2d
 2595 0495 49040000 		.4byte	0x449
 2596 0499 02       		.byte	0x2
 2597 049a 13       		.uleb128 0x13
 2598 049b 783200   		.ascii	"x2\000"
 2599 049e 0B       		.byte	0xb
 2600 049f 2E       		.byte	0x2e
 2601 04a0 49040000 		.4byte	0x449
 2602 04a4 04       		.byte	0x4
 2603 04a5 13       		.uleb128 0x13
 2604 04a6 793200   		.ascii	"y2\000"
 2605 04a9 0B       		.byte	0xb
 2606 04aa 2F       		.byte	0x2f
 2607 04ab 49040000 		.4byte	0x449
 2608 04af 06       		.byte	0x6
 2609 04b0 00       		.byte	0
 2610 04b1 03       		.uleb128 0x3
 2611 04b2 4C0D0000 		.4byte	.LASF80
 2612 04b6 0B       		.byte	0xb
 2613 04b7 30       		.byte	0x30
 2614 04b8 7C040000 		.4byte	0x47c
 2615 04bc 03       		.uleb128 0x3
 2616 04bd AE0B0000 		.4byte	.LASF81
 2617 04c1 0B       		.byte	0xb
 2618 04c2 59       		.byte	0x59
 2619 04c3 CA000000 		.4byte	0xca
 2620 04c7 03       		.uleb128 0x3
 2621 04c8 7E100000 		.4byte	.LASF82
 2622 04cc 0C       		.byte	0xc
 2623 04cd 69       		.byte	0x69
 2624 04ce CA000000 		.4byte	0xca
 2625 04d2 07       		.uleb128 0x7
 2626 04d3 04       		.byte	0x4
 2627 04d4 D8040000 		.4byte	0x4d8
 2628 04d8 14       		.uleb128 0x14
 2629 04d9 CA000000 		.4byte	0xca
 2630 04dd 07       		.uleb128 0x7
 2631 04de 04       		.byte	0x4
 2632 04df E3040000 		.4byte	0x4e3
 2633 04e3 15       		.uleb128 0x15
 2634 04e4 07       		.uleb128 0x7
 2635 04e5 04       		.byte	0x4
 2636 04e6 CA000000 		.4byte	0xca
 2637 04ea 07       		.uleb128 0x7
 2638 04eb 04       		.byte	0x4
 2639 04ec 3E040000 		.4byte	0x43e
ARM GAS  C:\Users\haske\AppData\Local\Temp\ccHGZgRG.s 			page 61


 2640 04f0 05       		.uleb128 0x5
 2641 04f1 10       		.byte	0x10
 2642 04f2 0D       		.byte	0xd
 2643 04f3 29       		.byte	0x29
 2644 04f4 5F050000 		.4byte	0x55f
 2645 04f8 06       		.uleb128 0x6
 2646 04f9 28110000 		.4byte	.LASF83
 2647 04fd 0D       		.byte	0xd
 2648 04fe 2B       		.byte	0x2b
 2649 04ff E7050000 		.4byte	0x5e7
 2650 0503 00       		.byte	0
 2651 0504 06       		.uleb128 0x6
 2652 0505 55000000 		.4byte	.LASF84
 2653 0509 0D       		.byte	0xd
 2654 050a 2C       		.byte	0x2c
 2655 050b E0000000 		.4byte	0xe0
 2656 050f 04       		.byte	0x4
 2657 0510 06       		.uleb128 0x6
 2658 0511 4E1E0000 		.4byte	.LASF85
 2659 0515 0D       		.byte	0xd
 2660 0516 2D       		.byte	0x2d
 2661 0517 E0000000 		.4byte	0xe0
 2662 051b 06       		.byte	0x6
 2663 051c 06       		.uleb128 0x6
 2664 051d FE1D0000 		.4byte	.LASF86
 2665 0521 0D       		.byte	0xd
 2666 0522 2E       		.byte	0x2e
 2667 0523 E0000000 		.4byte	0xe0
 2668 0527 08       		.byte	0x8
 2669 0528 06       		.uleb128 0x6
 2670 0529 BD080000 		.4byte	.LASF87
 2671 052d 0D       		.byte	0xd
 2672 052e 2F       		.byte	0x2f
 2673 052f D5000000 		.4byte	0xd5
 2674 0533 0A       		.byte	0xa
 2675 0534 06       		.uleb128 0x6
 2676 0535 C3080000 		.4byte	.LASF88
 2677 0539 0D       		.byte	0xd
 2678 053a 30       		.byte	0x30
 2679 053b D5000000 		.4byte	0xd5
 2680 053f 0C       		.byte	0xc
 2681 0540 0F       		.uleb128 0xf
 2682 0541 62707000 		.ascii	"bpp\000"
 2683 0545 0D       		.byte	0xd
 2684 0546 31       		.byte	0x31
 2685 0547 CA000000 		.4byte	0xca
 2686 054b 01       		.byte	0x1
 2687 054c 04       		.byte	0x4
 2688 054d 04       		.byte	0x4
 2689 054e 0E       		.byte	0xe
 2690 054f 0D       		.uleb128 0xd
 2691 0550 5E250000 		.4byte	.LASF89
 2692 0554 0D       		.byte	0xd
 2693 0555 32       		.byte	0x32
 2694 0556 CA000000 		.4byte	0xca
 2695 055a 01       		.byte	0x1
 2696 055b 01       		.byte	0x1
ARM GAS  C:\Users\haske\AppData\Local\Temp\ccHGZgRG.s 			page 62


 2697 055c 03       		.byte	0x3
 2698 055d 0E       		.byte	0xe
 2699 055e 00       		.byte	0
 2700 055f 0C       		.uleb128 0xc
 2701 0560 1C130000 		.4byte	.LASF90
 2702 0564 1C       		.byte	0x1c
 2703 0565 0D       		.byte	0xd
 2704 0566 40       		.byte	0x40
 2705 0567 E7050000 		.4byte	0x5e7
 2706 056b 06       		.uleb128 0x6
 2707 056c 6D230000 		.4byte	.LASF91
 2708 0570 0D       		.byte	0xd
 2709 0571 42       		.byte	0x42
 2710 0572 21060000 		.4byte	0x621
 2711 0576 00       		.byte	0
 2712 0577 06       		.uleb128 0x6
 2713 0578 24070000 		.4byte	.LASF92
 2714 057c 0D       		.byte	0xd
 2715 057d 45       		.byte	0x45
 2716 057e 3B060000 		.4byte	0x63b
 2717 0582 04       		.byte	0x4
 2718 0583 06       		.uleb128 0x6
 2719 0584 6D010000 		.4byte	.LASF93
 2720 0588 0D       		.byte	0xd
 2721 0589 48       		.byte	0x48
 2722 058a 49040000 		.4byte	0x449
 2723 058e 08       		.byte	0x8
 2724 058f 06       		.uleb128 0x6
 2725 0590 371E0000 		.4byte	.LASF94
 2726 0594 0D       		.byte	0xd
 2727 0595 49       		.byte	0x49
 2728 0596 49040000 		.4byte	0x449
 2729 059a 0A       		.byte	0xa
 2730 059b 0D       		.uleb128 0xd
 2731 059c 12190000 		.4byte	.LASF95
 2732 05a0 0D       		.byte	0xd
 2733 05a1 4A       		.byte	0x4a
 2734 05a2 CA000000 		.4byte	0xca
 2735 05a6 01       		.byte	0x1
 2736 05a7 02       		.byte	0x2
 2737 05a8 06       		.byte	0x6
 2738 05a9 0C       		.byte	0xc
 2739 05aa 06       		.uleb128 0x6
 2740 05ab 4E0A0000 		.4byte	.LASF96
 2741 05af 0D       		.byte	0xd
 2742 05b0 4C       		.byte	0x4c
 2743 05b1 BF000000 		.4byte	0xbf
 2744 05b5 0D       		.byte	0xd
 2745 05b6 06       		.uleb128 0x6
 2746 05b7 79010000 		.4byte	.LASF97
 2747 05bb 0D       		.byte	0xd
 2748 05bc 4D       		.byte	0x4d
 2749 05bd BF000000 		.4byte	0xbf
 2750 05c1 0E       		.byte	0xe
 2751 05c2 13       		.uleb128 0x13
 2752 05c3 64736300 		.ascii	"dsc\000"
 2753 05c7 0D       		.byte	0xd
ARM GAS  C:\Users\haske\AppData\Local\Temp\ccHGZgRG.s 			page 63


 2754 05c8 4F       		.byte	0x4f
 2755 05c9 DD040000 		.4byte	0x4dd
 2756 05cd 10       		.byte	0x10
 2757 05ce 06       		.uleb128 0x6
 2758 05cf F80C0000 		.4byte	.LASF98
 2759 05d3 0D       		.byte	0xd
 2760 05d4 50       		.byte	0x50
 2761 05d5 E7050000 		.4byte	0x5e7
 2762 05d9 14       		.byte	0x14
 2763 05da 06       		.uleb128 0x6
 2764 05db 28230000 		.4byte	.LASF36
 2765 05df 0D       		.byte	0xd
 2766 05e0 52       		.byte	0x52
 2767 05e1 10030000 		.4byte	0x310
 2768 05e5 18       		.byte	0x18
 2769 05e6 00       		.byte	0
 2770 05e7 07       		.uleb128 0x7
 2771 05e8 04       		.byte	0x4
 2772 05e9 ED050000 		.4byte	0x5ed
 2773 05ed 14       		.uleb128 0x14
 2774 05ee 5F050000 		.4byte	0x55f
 2775 05f2 03       		.uleb128 0x3
 2776 05f3 19170000 		.4byte	.LASF99
 2777 05f7 0D       		.byte	0xd
 2778 05f8 33       		.byte	0x33
 2779 05f9 F0040000 		.4byte	0x4f0
 2780 05fd 16       		.uleb128 0x16
 2781 05fe 36020000 		.4byte	0x236
 2782 0602 1B060000 		.4byte	0x61b
 2783 0606 0B       		.uleb128 0xb
 2784 0607 E7050000 		.4byte	0x5e7
 2785 060b 0B       		.uleb128 0xb
 2786 060c 1B060000 		.4byte	0x61b
 2787 0610 0B       		.uleb128 0xb
 2788 0611 F6000000 		.4byte	0xf6
 2789 0615 0B       		.uleb128 0xb
 2790 0616 F6000000 		.4byte	0xf6
 2791 061a 00       		.byte	0
 2792 061b 07       		.uleb128 0x7
 2793 061c 04       		.byte	0x4
 2794 061d F2050000 		.4byte	0x5f2
 2795 0621 07       		.uleb128 0x7
 2796 0622 04       		.byte	0x4
 2797 0623 FD050000 		.4byte	0x5fd
 2798 0627 16       		.uleb128 0x16
 2799 0628 D2040000 		.4byte	0x4d2
 2800 062c 3B060000 		.4byte	0x63b
 2801 0630 0B       		.uleb128 0xb
 2802 0631 E7050000 		.4byte	0x5e7
 2803 0635 0B       		.uleb128 0xb
 2804 0636 F6000000 		.4byte	0xf6
 2805 063a 00       		.byte	0
 2806 063b 07       		.uleb128 0x7
 2807 063c 04       		.byte	0x4
 2808 063d 27060000 		.4byte	0x627
 2809 0641 03       		.uleb128 0x3
 2810 0642 79220000 		.4byte	.LASF100
ARM GAS  C:\Users\haske\AppData\Local\Temp\ccHGZgRG.s 			page 64


 2811 0646 0D       		.byte	0xd
 2812 0647 54       		.byte	0x54
 2813 0648 5F050000 		.4byte	0x55f
 2814 064c 03       		.uleb128 0x3
 2815 064d 911B0000 		.4byte	.LASF101
 2816 0651 0E       		.byte	0xe
 2817 0652 30       		.byte	0x30
 2818 0653 CA000000 		.4byte	0xca
 2819 0657 03       		.uleb128 0x3
 2820 0658 AD140000 		.4byte	.LASF102
 2821 065c 0E       		.byte	0xe
 2822 065d 42       		.byte	0x42
 2823 065e CA000000 		.4byte	0xca
 2824 0662 03       		.uleb128 0x3
 2825 0663 C9080000 		.4byte	.LASF103
 2826 0667 0F       		.byte	0xf
 2827 0668 2A       		.byte	0x2a
 2828 0669 CA000000 		.4byte	0xca
 2829 066d 03       		.uleb128 0x3
 2830 066e 01100000 		.4byte	.LASF104
 2831 0672 10       		.byte	0x10
 2832 0673 5E       		.byte	0x5e
 2833 0674 CA000000 		.4byte	0xca
 2834 0678 03       		.uleb128 0x3
 2835 0679 53130000 		.4byte	.LASF105
 2836 067d 10       		.byte	0x10
 2837 067e 6A       		.byte	0x6a
 2838 067f CA000000 		.4byte	0xca
 2839 0683 03       		.uleb128 0x3
 2840 0684 661D0000 		.4byte	.LASF106
 2841 0688 10       		.byte	0x10
 2842 0689 79       		.byte	0x79
 2843 068a CA000000 		.4byte	0xca
 2844 068e 03       		.uleb128 0x3
 2845 068f BF230000 		.4byte	.LASF107
 2846 0693 10       		.byte	0x10
 2847 0694 84       		.byte	0x84
 2848 0695 CA000000 		.4byte	0xca
 2849 0699 03       		.uleb128 0x3
 2850 069a B0180000 		.4byte	.LASF108
 2851 069e 10       		.byte	0x10
 2852 069f 90       		.byte	0x90
 2853 06a0 CA000000 		.4byte	0xca
 2854 06a4 05       		.uleb128 0x5
 2855 06a5 04       		.byte	0x4
 2856 06a6 10       		.byte	0x10
 2857 06a7 95       		.byte	0x95
 2858 06a8 C5060000 		.4byte	0x6c5
 2859 06ac 06       		.uleb128 0x6
 2860 06ad DB1C0000 		.4byte	.LASF109
 2861 06b1 10       		.byte	0x10
 2862 06b2 96       		.byte	0x96
 2863 06b3 33040000 		.4byte	0x433
 2864 06b7 00       		.byte	0
 2865 06b8 06       		.uleb128 0x6
 2866 06b9 771D0000 		.4byte	.LASF110
 2867 06bd 10       		.byte	0x10
ARM GAS  C:\Users\haske\AppData\Local\Temp\ccHGZgRG.s 			page 65


 2868 06be 97       		.byte	0x97
 2869 06bf CA000000 		.4byte	0xca
 2870 06c3 02       		.byte	0x2
 2871 06c4 00       		.byte	0
 2872 06c5 03       		.uleb128 0x3
 2873 06c6 4B210000 		.4byte	.LASF111
 2874 06ca 10       		.byte	0x10
 2875 06cb 98       		.byte	0x98
 2876 06cc A4060000 		.4byte	0x6a4
 2877 06d0 05       		.uleb128 0x5
 2878 06d1 0A       		.byte	0xa
 2879 06d2 10       		.byte	0x10
 2880 06d3 9B       		.byte	0x9b
 2881 06d4 0F070000 		.4byte	0x70f
 2882 06d8 06       		.uleb128 0x6
 2883 06d9 FC1C0000 		.4byte	.LASF112
 2884 06dd 10       		.byte	0x10
 2885 06de 9C       		.byte	0x9c
 2886 06df 0F070000 		.4byte	0x70f
 2887 06e3 00       		.byte	0
 2888 06e4 06       		.uleb128 0x6
 2889 06e5 D50A0000 		.4byte	.LASF113
 2890 06e9 10       		.byte	0x10
 2891 06ea 9D       		.byte	0x9d
 2892 06eb CA000000 		.4byte	0xca
 2893 06ef 08       		.byte	0x8
 2894 06f0 0F       		.uleb128 0xf
 2895 06f1 64697200 		.ascii	"dir\000"
 2896 06f5 10       		.byte	0x10
 2897 06f6 9E       		.byte	0x9e
 2898 06f7 8E060000 		.4byte	0x68e
 2899 06fb 01       		.byte	0x1
 2900 06fc 03       		.byte	0x3
 2901 06fd 05       		.byte	0x5
 2902 06fe 09       		.byte	0x9
 2903 06ff 0D       		.uleb128 0xd
 2904 0700 C3220000 		.4byte	.LASF114
 2905 0704 10       		.byte	0x10
 2906 0705 A0       		.byte	0xa0
 2907 0706 99060000 		.4byte	0x699
 2908 070a 01       		.byte	0x1
 2909 070b 03       		.byte	0x3
 2910 070c 02       		.byte	0x2
 2911 070d 09       		.byte	0x9
 2912 070e 00       		.byte	0
 2913 070f 17       		.uleb128 0x17
 2914 0710 C5060000 		.4byte	0x6c5
 2915 0714 1F070000 		.4byte	0x71f
 2916 0718 18       		.uleb128 0x18
 2917 0719 41030000 		.4byte	0x341
 2918 071d 01       		.byte	0x1
 2919 071e 00       		.byte	0
 2920 071f 03       		.uleb128 0x3
 2921 0720 06250000 		.4byte	.LASF115
 2922 0724 10       		.byte	0x10
 2923 0725 A2       		.byte	0xa2
 2924 0726 D0060000 		.4byte	0x6d0
ARM GAS  C:\Users\haske\AppData\Local\Temp\ccHGZgRG.s 			page 66


 2925 072a 10       		.uleb128 0x10
 2926 072b 04       		.byte	0x4
 2927 072c 10       		.byte	0x10
 2928 072d A7       		.byte	0xa7
 2929 072e 54070000 		.4byte	0x754
 2930 0732 11       		.uleb128 0x11
 2931 0733 6E756D00 		.ascii	"num\000"
 2932 0737 10       		.byte	0x10
 2933 0738 A8       		.byte	0xa8
 2934 0739 EB000000 		.4byte	0xeb
 2935 073d 11       		.uleb128 0x11
 2936 073e 70747200 		.ascii	"ptr\000"
 2937 0742 10       		.byte	0x10
 2938 0743 A9       		.byte	0xa9
 2939 0744 DD040000 		.4byte	0x4dd
 2940 0748 12       		.uleb128 0x12
 2941 0749 DB1C0000 		.4byte	.LASF109
 2942 074d 10       		.byte	0x10
 2943 074e AA       		.byte	0xaa
 2944 074f 33040000 		.4byte	0x433
 2945 0753 00       		.byte	0
 2946 0754 03       		.uleb128 0x3
 2947 0755 E7150000 		.4byte	.LASF116
 2948 0759 10       		.byte	0x10
 2949 075a AB       		.byte	0xab
 2950 075b 2A070000 		.4byte	0x72a
 2951 075f 08       		.uleb128 0x8
 2952 0760 02       		.byte	0x2
 2953 0761 8D000000 		.4byte	0x8d
 2954 0765 10       		.byte	0x10
 2955 0766 B2       		.byte	0xb2
 2956 0767 84090000 		.4byte	0x984
 2957 076b 09       		.uleb128 0x9
 2958 076c 020E0000 		.4byte	.LASF117
 2959 0770 00       		.byte	0
 2960 0771 09       		.uleb128 0x9
 2961 0772 491B0000 		.4byte	.LASF118
 2962 0776 01       		.byte	0x1
 2963 0777 09       		.uleb128 0x9
 2964 0778 7E1B0000 		.4byte	.LASF119
 2965 077c 02       		.byte	0x2
 2966 077d 09       		.uleb128 0x9
 2967 077e F2030000 		.4byte	.LASF120
 2968 0782 03       		.byte	0x3
 2969 0783 09       		.uleb128 0x9
 2970 0784 14020000 		.4byte	.LASF121
 2971 0788 04       		.byte	0x4
 2972 0789 09       		.uleb128 0x9
 2973 078a AE200000 		.4byte	.LASF122
 2974 078e 05       		.byte	0x5
 2975 078f 09       		.uleb128 0x9
 2976 0790 A51D0000 		.4byte	.LASF123
 2977 0794 06       		.byte	0x6
 2978 0795 09       		.uleb128 0x9
 2979 0796 9A120000 		.4byte	.LASF124
 2980 079a 07       		.byte	0x7
 2981 079b 09       		.uleb128 0x9
ARM GAS  C:\Users\haske\AppData\Local\Temp\ccHGZgRG.s 			page 67


 2982 079c 5E210000 		.4byte	.LASF125
 2983 07a0 08       		.byte	0x8
 2984 07a1 09       		.uleb128 0x9
 2985 07a2 A7070000 		.4byte	.LASF126
 2986 07a6 09       		.byte	0x9
 2987 07a7 09       		.uleb128 0x9
 2988 07a8 09170000 		.4byte	.LASF127
 2989 07ac 0A       		.byte	0xa
 2990 07ad 09       		.uleb128 0x9
 2991 07ae CB030000 		.4byte	.LASF128
 2992 07b2 0B       		.byte	0xb
 2993 07b3 09       		.uleb128 0x9
 2994 07b4 AA1F0000 		.4byte	.LASF129
 2995 07b8 10       		.byte	0x10
 2996 07b9 09       		.uleb128 0x9
 2997 07ba 2A0F0000 		.4byte	.LASF130
 2998 07be 11       		.byte	0x11
 2999 07bf 09       		.uleb128 0x9
 3000 07c0 DE110000 		.4byte	.LASF131
 3001 07c4 12       		.byte	0x12
 3002 07c5 09       		.uleb128 0x9
 3003 07c6 99040000 		.4byte	.LASF132
 3004 07ca 13       		.byte	0x13
 3005 07cb 09       		.uleb128 0x9
 3006 07cc 83110000 		.4byte	.LASF133
 3007 07d0 14       		.byte	0x14
 3008 07d1 09       		.uleb128 0x9
 3009 07d2 41030000 		.4byte	.LASF134
 3010 07d6 15       		.byte	0x15
 3011 07d7 09       		.uleb128 0x9
 3012 07d8 AE0A0000 		.4byte	.LASF135
 3013 07dc 16       		.byte	0x16
 3014 07dd 09       		.uleb128 0x9
 3015 07de CD170000 		.4byte	.LASF136
 3016 07e2 17       		.byte	0x17
 3017 07e3 09       		.uleb128 0x9
 3018 07e4 6B0B0000 		.4byte	.LASF137
 3019 07e8 20       		.byte	0x20
 3020 07e9 09       		.uleb128 0x9
 3021 07ea 830F0000 		.4byte	.LASF138
 3022 07ee 21       		.byte	0x21
 3023 07ef 09       		.uleb128 0x9
 3024 07f0 DE1D0000 		.4byte	.LASF139
 3025 07f4 22       		.byte	0x22
 3026 07f5 09       		.uleb128 0x9
 3027 07f6 0F070000 		.4byte	.LASF140
 3028 07fa 23       		.byte	0x23
 3029 07fb 09       		.uleb128 0x9
 3030 07fc B60F0000 		.4byte	.LASF141
 3031 0800 24       		.byte	0x24
 3032 0801 09       		.uleb128 0x9
 3033 0802 9B1A0000 		.4byte	.LASF142
 3034 0806 25       		.byte	0x25
 3035 0807 09       		.uleb128 0x9
 3036 0808 3B250000 		.4byte	.LASF143
 3037 080c 26       		.byte	0x26
 3038 080d 09       		.uleb128 0x9
ARM GAS  C:\Users\haske\AppData\Local\Temp\ccHGZgRG.s 			page 68


 3039 080e 89030000 		.4byte	.LASF144
 3040 0812 27       		.byte	0x27
 3041 0813 09       		.uleb128 0x9
 3042 0814 F71B0000 		.4byte	.LASF145
 3043 0818 28       		.byte	0x28
 3044 0819 09       		.uleb128 0x9
 3045 081a E51F0000 		.4byte	.LASF146
 3046 081e 29       		.byte	0x29
 3047 081f 09       		.uleb128 0x9
 3048 0820 0D040000 		.4byte	.LASF147
 3049 0824 2A       		.byte	0x2a
 3050 0825 09       		.uleb128 0x9
 3051 0826 27050000 		.4byte	.LASF148
 3052 082a 2B       		.byte	0x2b
 3053 082b 09       		.uleb128 0x9
 3054 082c FA050000 		.4byte	.LASF149
 3055 0830 2C       		.byte	0x2c
 3056 0831 09       		.uleb128 0x9
 3057 0832 DE190000 		.4byte	.LASF150
 3058 0836 30       		.byte	0x30
 3059 0837 09       		.uleb128 0x9
 3060 0838 F9020000 		.4byte	.LASF151
 3061 083c 31       		.byte	0x31
 3062 083d 09       		.uleb128 0x9
 3063 083e E3020000 		.4byte	.LASF152
 3064 0842 32       		.byte	0x32
 3065 0843 09       		.uleb128 0x9
 3066 0844 B11A0000 		.4byte	.LASF153
 3067 0848 33       		.byte	0x33
 3068 0849 09       		.uleb128 0x9
 3069 084a 24210000 		.4byte	.LASF154
 3070 084e 34       		.byte	0x34
 3071 084f 09       		.uleb128 0x9
 3072 0850 6E0D0000 		.4byte	.LASF155
 3073 0854 35       		.byte	0x35
 3074 0855 09       		.uleb128 0x9
 3075 0856 11230000 		.4byte	.LASF156
 3076 085a 36       		.byte	0x36
 3077 085b 09       		.uleb128 0x9
 3078 085c C00A0000 		.4byte	.LASF157
 3079 0860 37       		.byte	0x37
 3080 0861 09       		.uleb128 0x9
 3081 0862 02140000 		.4byte	.LASF158
 3082 0866 38       		.byte	0x38
 3083 0867 09       		.uleb128 0x9
 3084 0868 64170000 		.4byte	.LASF159
 3085 086c 40       		.byte	0x40
 3086 086d 09       		.uleb128 0x9
 3087 086e B61B0000 		.4byte	.LASF160
 3088 0872 41       		.byte	0x41
 3089 0873 09       		.uleb128 0x9
 3090 0874 CC1B0000 		.4byte	.LASF161
 3091 0878 42       		.byte	0x42
 3092 0879 09       		.uleb128 0x9
 3093 087a 56230000 		.4byte	.LASF162
 3094 087e 43       		.byte	0x43
 3095 087f 09       		.uleb128 0x9
ARM GAS  C:\Users\haske\AppData\Local\Temp\ccHGZgRG.s 			page 69


 3096 0880 87060000 		.4byte	.LASF163
 3097 0884 44       		.byte	0x44
 3098 0885 09       		.uleb128 0x9
 3099 0886 3B040000 		.4byte	.LASF164
 3100 088a 45       		.byte	0x45
 3101 088b 09       		.uleb128 0x9
 3102 088c 1B100000 		.4byte	.LASF165
 3103 0890 46       		.byte	0x46
 3104 0891 09       		.uleb128 0x9
 3105 0892 76080000 		.4byte	.LASF166
 3106 0896 47       		.byte	0x47
 3107 0897 09       		.uleb128 0x9
 3108 0898 7D0B0000 		.4byte	.LASF167
 3109 089c 48       		.byte	0x48
 3110 089d 09       		.uleb128 0x9
 3111 089e F91F0000 		.4byte	.LASF168
 3112 08a2 49       		.byte	0x49
 3113 08a3 09       		.uleb128 0x9
 3114 08a4 6A0C0000 		.4byte	.LASF169
 3115 08a8 4A       		.byte	0x4a
 3116 08a9 09       		.uleb128 0x9
 3117 08aa A2000000 		.4byte	.LASF170
 3118 08ae 4B       		.byte	0x4b
 3119 08af 09       		.uleb128 0x9
 3120 08b0 69210000 		.4byte	.LASF171
 3121 08b4 4C       		.byte	0x4c
 3122 08b5 09       		.uleb128 0x9
 3123 08b6 5C110000 		.4byte	.LASF172
 3124 08ba 4D       		.byte	0x4d
 3125 08bb 09       		.uleb128 0x9
 3126 08bc 930F0000 		.4byte	.LASF173
 3127 08c0 4E       		.byte	0x4e
 3128 08c1 09       		.uleb128 0x9
 3129 08c2 AA080000 		.4byte	.LASF174
 3130 08c6 50       		.byte	0x50
 3131 08c7 09       		.uleb128 0x9
 3132 08c8 19150000 		.4byte	.LASF175
 3133 08cc 51       		.byte	0x51
 3134 08cd 09       		.uleb128 0x9
 3135 08ce FF1E0000 		.4byte	.LASF176
 3136 08d2 52       		.byte	0x52
 3137 08d3 09       		.uleb128 0x9
 3138 08d4 EE000000 		.4byte	.LASF177
 3139 08d8 53       		.byte	0x53
 3140 08d9 09       		.uleb128 0x9
 3141 08da 161C0000 		.4byte	.LASF178
 3142 08de 54       		.byte	0x54
 3143 08df 09       		.uleb128 0x9
 3144 08e0 73150000 		.4byte	.LASF179
 3145 08e4 55       		.byte	0x55
 3146 08e5 09       		.uleb128 0x9
 3147 08e6 A6100000 		.4byte	.LASF180
 3148 08ea 56       		.byte	0x56
 3149 08eb 09       		.uleb128 0x9
 3150 08ec 841C0000 		.4byte	.LASF181
 3151 08f0 57       		.byte	0x57
 3152 08f1 09       		.uleb128 0x9
ARM GAS  C:\Users\haske\AppData\Local\Temp\ccHGZgRG.s 			page 70


 3153 08f2 A1250000 		.4byte	.LASF182
 3154 08f6 58       		.byte	0x58
 3155 08f7 09       		.uleb128 0x9
 3156 08f8 140E0000 		.4byte	.LASF183
 3157 08fc 59       		.byte	0x59
 3158 08fd 09       		.uleb128 0x9
 3159 08fe E9140000 		.4byte	.LASF184
 3160 0902 5A       		.byte	0x5a
 3161 0903 09       		.uleb128 0x9
 3162 0904 F3120000 		.4byte	.LASF185
 3163 0908 5B       		.byte	0x5b
 3164 0909 09       		.uleb128 0x9
 3165 090a 10000000 		.4byte	.LASF186
 3166 090e 60       		.byte	0x60
 3167 090f 09       		.uleb128 0x9
 3168 0910 93140000 		.4byte	.LASF187
 3169 0914 61       		.byte	0x61
 3170 0915 09       		.uleb128 0x9
 3171 0916 7C180000 		.4byte	.LASF188
 3172 091a 62       		.byte	0x62
 3173 091b 09       		.uleb128 0x9
 3174 091c 8C120000 		.4byte	.LASF189
 3175 0920 63       		.byte	0x63
 3176 0921 09       		.uleb128 0x9
 3177 0922 EC0E0000 		.4byte	.LASF190
 3178 0926 64       		.byte	0x64
 3179 0927 09       		.uleb128 0x9
 3180 0928 380D0000 		.4byte	.LASF191
 3181 092c 65       		.byte	0x65
 3182 092d 09       		.uleb128 0x9
 3183 092e E6040000 		.4byte	.LASF192
 3184 0932 66       		.byte	0x66
 3185 0933 09       		.uleb128 0x9
 3186 0934 6A160000 		.4byte	.LASF193
 3187 0938 67       		.byte	0x67
 3188 0939 09       		.uleb128 0x9
 3189 093a 900C0000 		.4byte	.LASF194
 3190 093e 68       		.byte	0x68
 3191 093f 09       		.uleb128 0x9
 3192 0940 68040000 		.4byte	.LASF195
 3193 0944 69       		.byte	0x69
 3194 0945 09       		.uleb128 0x9
 3195 0946 33090000 		.4byte	.LASF196
 3196 094a 6A       		.byte	0x6a
 3197 094b 09       		.uleb128 0x9
 3198 094c 48090000 		.4byte	.LASF197
 3199 0950 6B       		.byte	0x6b
 3200 0951 09       		.uleb128 0x9
 3201 0952 2C100000 		.4byte	.LASF198
 3202 0956 6C       		.byte	0x6c
 3203 0957 09       		.uleb128 0x9
 3204 0958 4F140000 		.4byte	.LASF199
 3205 095c 6D       		.byte	0x6d
 3206 095d 09       		.uleb128 0x9
 3207 095e 11080000 		.4byte	.LASF200
 3208 0962 6E       		.byte	0x6e
 3209 0963 09       		.uleb128 0x9
ARM GAS  C:\Users\haske\AppData\Local\Temp\ccHGZgRG.s 			page 71


 3210 0964 2C080000 		.4byte	.LASF201
 3211 0968 6F       		.byte	0x6f
 3212 0969 09       		.uleb128 0x9
 3213 096a 80020000 		.4byte	.LASF202
 3214 096e 6F       		.byte	0x6f
 3215 096f 09       		.uleb128 0x9
 3216 0970 761F0000 		.4byte	.LASF203
 3217 0974 70       		.byte	0x70
 3218 0975 19       		.uleb128 0x19
 3219 0976 B01C0000 		.4byte	.LASF204
 3220 097a FFFF     		.2byte	0xffff
 3221 097c 19       		.uleb128 0x19
 3222 097d 14160000 		.4byte	.LASF205
 3223 0981 FFFF     		.2byte	0xffff
 3224 0983 00       		.byte	0
 3225 0984 1A       		.uleb128 0x1a
 3226 0985 BC0C0000 		.4byte	.LASF206
 3227 0989 10       		.byte	0x10
 3228 098a 1C01     		.2byte	0x11c
 3229 098c 5F070000 		.4byte	0x75f
 3230 0990 1B       		.uleb128 0x1b
 3231 0991 08       		.byte	0x8
 3232 0992 10       		.byte	0x10
 3233 0993 3601     		.2byte	0x136
 3234 0995 B4090000 		.4byte	0x9b4
 3235 0999 1C       		.uleb128 0x1c
 3236 099a CE0B0000 		.4byte	.LASF207
 3237 099e 10       		.byte	0x10
 3238 099f 3701     		.2byte	0x137
 3239 09a1 84090000 		.4byte	0x984
 3240 09a5 00       		.byte	0
 3241 09a6 1C       		.uleb128 0x1c
 3242 09a7 FF090000 		.4byte	.LASF208
 3243 09ab 10       		.byte	0x10
 3244 09ac 3801     		.2byte	0x138
 3245 09ae 54070000 		.4byte	0x754
 3246 09b2 04       		.byte	0x4
 3247 09b3 00       		.byte	0
 3248 09b4 1A       		.uleb128 0x1a
 3249 09b5 3C0E0000 		.4byte	.LASF209
 3250 09b9 10       		.byte	0x10
 3251 09ba 3901     		.2byte	0x139
 3252 09bc 90090000 		.4byte	0x990
 3253 09c0 1D       		.uleb128 0x1d
 3254 09c1 04       		.byte	0x4
 3255 09c2 10       		.byte	0x10
 3256 09c3 4601     		.2byte	0x146
 3257 09c5 EE090000 		.4byte	0x9ee
 3258 09c9 1E       		.uleb128 0x1e
 3259 09ca 2B1C0000 		.4byte	.LASF210
 3260 09ce 10       		.byte	0x10
 3261 09cf 4701     		.2byte	0x147
 3262 09d1 54070000 		.4byte	0x754
 3263 09d5 1E       		.uleb128 0x1e
 3264 09d6 010D0000 		.4byte	.LASF211
 3265 09da 10       		.byte	0x10
 3266 09db 4801     		.2byte	0x148
ARM GAS  C:\Users\haske\AppData\Local\Temp\ccHGZgRG.s 			page 72


 3267 09dd E4040000 		.4byte	0x4e4
 3268 09e1 1E       		.uleb128 0x1e
 3269 09e2 D30B0000 		.4byte	.LASF212
 3270 09e6 10       		.byte	0x10
 3271 09e7 4901     		.2byte	0x149
 3272 09e9 EE090000 		.4byte	0x9ee
 3273 09ed 00       		.byte	0
 3274 09ee 07       		.uleb128 0x7
 3275 09ef 04       		.byte	0x4
 3276 09f0 F4090000 		.4byte	0x9f4
 3277 09f4 14       		.uleb128 0x14
 3278 09f5 B4090000 		.4byte	0x9b4
 3279 09f9 1B       		.uleb128 0x1b
 3280 09fa 08       		.byte	0x8
 3281 09fb 10       		.byte	0x10
 3282 09fc 3E01     		.2byte	0x13e
 3283 09fe 370A0000 		.4byte	0xa37
 3284 0a02 1F       		.uleb128 0x1f
 3285 0a03 765F7000 		.ascii	"v_p\000"
 3286 0a07 10       		.byte	0x10
 3287 0a08 4A01     		.2byte	0x14a
 3288 0a0a C0090000 		.4byte	0x9c0
 3289 0a0e 00       		.byte	0
 3290 0a0f 1C       		.uleb128 0x1c
 3291 0a10 68200000 		.4byte	.LASF213
 3292 0a14 10       		.byte	0x10
 3293 0a15 4C01     		.2byte	0x14c
 3294 0a17 E0000000 		.4byte	0xe0
 3295 0a1b 04       		.byte	0x4
 3296 0a1c 1C       		.uleb128 0x1c
 3297 0a1d 38010000 		.4byte	.LASF214
 3298 0a21 10       		.byte	0x10
 3299 0a22 4D01     		.2byte	0x14d
 3300 0a24 CA000000 		.4byte	0xca
 3301 0a28 06       		.byte	0x6
 3302 0a29 1C       		.uleb128 0x1c
 3303 0a2a 00000000 		.4byte	.LASF215
 3304 0a2e 10       		.byte	0x10
 3305 0a2f 4E01     		.2byte	0x14e
 3306 0a31 CA000000 		.4byte	0xca
 3307 0a35 07       		.byte	0x7
 3308 0a36 00       		.byte	0
 3309 0a37 1A       		.uleb128 0x1a
 3310 0a38 A50F0000 		.4byte	.LASF216
 3311 0a3c 10       		.byte	0x10
 3312 0a3d 4F01     		.2byte	0x14f
 3313 0a3f F9090000 		.4byte	0x9f9
 3314 0a43 07       		.uleb128 0x7
 3315 0a44 04       		.byte	0x4
 3316 0a45 33040000 		.4byte	0x433
 3317 0a49 05       		.uleb128 0x5
 3318 0a4a 38       		.byte	0x38
 3319 0a4b 11       		.byte	0x11
 3320 0a4c 20       		.byte	0x20
 3321 0a4d 900B0000 		.4byte	0xb90
 3322 0a51 06       		.uleb128 0x6
 3323 0a52 5D010000 		.4byte	.LASF217
ARM GAS  C:\Users\haske\AppData\Local\Temp\ccHGZgRG.s 			page 73


 3324 0a56 11       		.byte	0x11
 3325 0a57 21       		.byte	0x21
 3326 0a58 49040000 		.4byte	0x449
 3327 0a5c 00       		.byte	0
 3328 0a5d 06       		.uleb128 0x6
 3329 0a5e C0030000 		.4byte	.LASF218
 3330 0a62 11       		.byte	0x11
 3331 0a63 22       		.byte	0x22
 3332 0a64 6D060000 		.4byte	0x66d
 3333 0a68 02       		.byte	0x2
 3334 0a69 06       		.uleb128 0x6
 3335 0a6a 54050000 		.4byte	.LASF219
 3336 0a6e 11       		.byte	0x11
 3337 0a6f 25       		.byte	0x25
 3338 0a70 3E040000 		.4byte	0x43e
 3339 0a74 03       		.byte	0x3
 3340 0a75 06       		.uleb128 0x6
 3341 0a76 64010000 		.4byte	.LASF220
 3342 0a7a 11       		.byte	0x11
 3343 0a7b 26       		.byte	0x26
 3344 0a7c 33040000 		.4byte	0x433
 3345 0a80 04       		.byte	0x4
 3346 0a81 06       		.uleb128 0x6
 3347 0a82 0C210000 		.4byte	.LASF221
 3348 0a86 11       		.byte	0x11
 3349 0a87 27       		.byte	0x27
 3350 0a88 1F070000 		.4byte	0x71f
 3351 0a8c 06       		.byte	0x6
 3352 0a8d 06       		.uleb128 0x6
 3353 0a8e D8020000 		.4byte	.LASF222
 3354 0a92 11       		.byte	0x11
 3355 0a93 2A       		.byte	0x2a
 3356 0a94 DD040000 		.4byte	0x4dd
 3357 0a98 10       		.byte	0x10
 3358 0a99 06       		.uleb128 0x6
 3359 0a9a CD240000 		.4byte	.LASF223
 3360 0a9e 11       		.byte	0x11
 3361 0a9f 2B       		.byte	0x2b
 3362 0aa0 DD040000 		.4byte	0x4dd
 3363 0aa4 14       		.byte	0x14
 3364 0aa5 06       		.uleb128 0x6
 3365 0aa6 281E0000 		.4byte	.LASF224
 3366 0aaa 11       		.byte	0x11
 3367 0aab 2C       		.byte	0x2c
 3368 0aac 33040000 		.4byte	0x433
 3369 0ab0 18       		.byte	0x18
 3370 0ab1 06       		.uleb128 0x6
 3371 0ab2 5D070000 		.4byte	.LASF225
 3372 0ab6 11       		.byte	0x11
 3373 0ab7 2D       		.byte	0x2d
 3374 0ab8 3E040000 		.4byte	0x43e
 3375 0abc 1A       		.byte	0x1a
 3376 0abd 06       		.uleb128 0x6
 3377 0abe 3F190000 		.4byte	.LASF226
 3378 0ac2 11       		.byte	0x11
 3379 0ac3 2E       		.byte	0x2e
 3380 0ac4 3E040000 		.4byte	0x43e
ARM GAS  C:\Users\haske\AppData\Local\Temp\ccHGZgRG.s 			page 74


 3381 0ac8 1B       		.byte	0x1b
 3382 0ac9 06       		.uleb128 0x6
 3383 0aca 02070000 		.4byte	.LASF227
 3384 0ace 11       		.byte	0x11
 3385 0acf 2F       		.byte	0x2f
 3386 0ad0 CA000000 		.4byte	0xca
 3387 0ad4 1C       		.byte	0x1c
 3388 0ad5 06       		.uleb128 0x6
 3389 0ad6 9B0B0000 		.4byte	.LASF228
 3390 0ada 11       		.byte	0x11
 3391 0adb 32       		.byte	0x32
 3392 0adc 33040000 		.4byte	0x433
 3393 0ae0 1E       		.byte	0x1e
 3394 0ae1 06       		.uleb128 0x6
 3395 0ae2 711B0000 		.4byte	.LASF229
 3396 0ae6 11       		.byte	0x11
 3397 0ae7 33       		.byte	0x33
 3398 0ae8 49040000 		.4byte	0x449
 3399 0aec 20       		.byte	0x20
 3400 0aed 06       		.uleb128 0x6
 3401 0aee A3200000 		.4byte	.LASF230
 3402 0af2 11       		.byte	0x11
 3403 0af3 34       		.byte	0x34
 3404 0af4 3E040000 		.4byte	0x43e
 3405 0af8 22       		.byte	0x22
 3406 0af9 0D       		.uleb128 0xd
 3407 0afa 4B0C0000 		.4byte	.LASF231
 3408 0afe 11       		.byte	0x11
 3409 0aff 35       		.byte	0x35
 3410 0b00 CA000000 		.4byte	0xca
 3411 0b04 01       		.byte	0x1
 3412 0b05 01       		.byte	0x1
 3413 0b06 07       		.byte	0x7
 3414 0b07 23       		.byte	0x23
 3415 0b08 0D       		.uleb128 0xd
 3416 0b09 A1030000 		.4byte	.LASF232
 3417 0b0d 11       		.byte	0x11
 3418 0b0e 36       		.byte	0x36
 3419 0b0f 83060000 		.4byte	0x683
 3420 0b13 01       		.byte	0x1
 3421 0b14 05       		.byte	0x5
 3422 0b15 02       		.byte	0x2
 3423 0b16 23       		.byte	0x23
 3424 0b17 06       		.uleb128 0x6
 3425 0b18 79060000 		.4byte	.LASF233
 3426 0b1c 11       		.byte	0x11
 3427 0b1d 39       		.byte	0x39
 3428 0b1e 33040000 		.4byte	0x433
 3429 0b22 24       		.byte	0x24
 3430 0b23 06       		.uleb128 0x6
 3431 0b24 56170000 		.4byte	.LASF234
 3432 0b28 11       		.byte	0x11
 3433 0b29 3A       		.byte	0x3a
 3434 0b2a 49040000 		.4byte	0x449
 3435 0b2e 26       		.byte	0x26
 3436 0b2f 06       		.uleb128 0x6
 3437 0b30 510B0000 		.4byte	.LASF235
ARM GAS  C:\Users\haske\AppData\Local\Temp\ccHGZgRG.s 			page 75


 3438 0b34 11       		.byte	0x11
 3439 0b35 3B       		.byte	0x3b
 3440 0b36 49040000 		.4byte	0x449
 3441 0b3a 28       		.byte	0x28
 3442 0b3b 06       		.uleb128 0x6
 3443 0b3c 7E160000 		.4byte	.LASF236
 3444 0b40 11       		.byte	0x11
 3445 0b41 3C       		.byte	0x3c
 3446 0b42 3E040000 		.4byte	0x43e
 3447 0b46 2A       		.byte	0x2a
 3448 0b47 06       		.uleb128 0x6
 3449 0b48 7D130000 		.4byte	.LASF237
 3450 0b4c 11       		.byte	0x11
 3451 0b4d 3F       		.byte	0x3f
 3452 0b4e 33040000 		.4byte	0x433
 3453 0b52 2C       		.byte	0x2c
 3454 0b53 06       		.uleb128 0x6
 3455 0b54 5D220000 		.4byte	.LASF238
 3456 0b58 11       		.byte	0x11
 3457 0b59 40       		.byte	0x40
 3458 0b5a 49040000 		.4byte	0x449
 3459 0b5e 2E       		.byte	0x2e
 3460 0b5f 06       		.uleb128 0x6
 3461 0b60 830C0000 		.4byte	.LASF239
 3462 0b64 11       		.byte	0x11
 3463 0b65 41       		.byte	0x41
 3464 0b66 49040000 		.4byte	0x449
 3465 0b6a 30       		.byte	0x30
 3466 0b6b 06       		.uleb128 0x6
 3467 0b6c E0240000 		.4byte	.LASF240
 3468 0b70 11       		.byte	0x11
 3469 0b71 42       		.byte	0x42
 3470 0b72 49040000 		.4byte	0x449
 3471 0b76 32       		.byte	0x32
 3472 0b77 06       		.uleb128 0x6
 3473 0b78 DE0E0000 		.4byte	.LASF241
 3474 0b7c 11       		.byte	0x11
 3475 0b7d 43       		.byte	0x43
 3476 0b7e 49040000 		.4byte	0x449
 3477 0b82 34       		.byte	0x34
 3478 0b83 06       		.uleb128 0x6
 3479 0b84 F41E0000 		.4byte	.LASF242
 3480 0b88 11       		.byte	0x11
 3481 0b89 44       		.byte	0x44
 3482 0b8a 3E040000 		.4byte	0x43e
 3483 0b8e 36       		.byte	0x36
 3484 0b8f 00       		.byte	0
 3485 0b90 03       		.uleb128 0x3
 3486 0b91 D61A0000 		.4byte	.LASF243
 3487 0b95 11       		.byte	0x11
 3488 0b96 45       		.byte	0x45
 3489 0b97 490A0000 		.4byte	0xa49
 3490 0b9b 05       		.uleb128 0x5
 3491 0b9c 20       		.byte	0x20
 3492 0b9d 12       		.byte	0x12
 3493 0b9e 1E       		.byte	0x1e
 3494 0b9f 6A0C0000 		.4byte	0xc6a
ARM GAS  C:\Users\haske\AppData\Local\Temp\ccHGZgRG.s 			page 76


 3495 0ba3 06       		.uleb128 0x6
 3496 0ba4 861D0000 		.4byte	.LASF244
 3497 0ba8 12       		.byte	0x12
 3498 0ba9 1F       		.byte	0x1f
 3499 0baa 6A0C0000 		.4byte	0xc6a
 3500 0bae 00       		.byte	0
 3501 0baf 06       		.uleb128 0x6
 3502 0bb0 CC210000 		.4byte	.LASF245
 3503 0bb4 12       		.byte	0x12
 3504 0bb5 20       		.byte	0x20
 3505 0bb6 F6000000 		.4byte	0xf6
 3506 0bba 04       		.byte	0x4
 3507 0bbb 06       		.uleb128 0x6
 3508 0bbc 0C160000 		.4byte	.LASF246
 3509 0bc0 12       		.byte	0x12
 3510 0bc1 21       		.byte	0x21
 3511 0bc2 F6000000 		.4byte	0xf6
 3512 0bc6 08       		.byte	0x8
 3513 0bc7 06       		.uleb128 0x6
 3514 0bc8 DB1C0000 		.4byte	.LASF109
 3515 0bcc 12       		.byte	0x12
 3516 0bcd 22       		.byte	0x22
 3517 0bce 33040000 		.4byte	0x433
 3518 0bd2 0C       		.byte	0xc
 3519 0bd3 06       		.uleb128 0x6
 3520 0bd4 81240000 		.4byte	.LASF247
 3521 0bd8 12       		.byte	0x12
 3522 0bd9 23       		.byte	0x23
 3523 0bda 33040000 		.4byte	0x433
 3524 0bde 0E       		.byte	0xe
 3525 0bdf 06       		.uleb128 0x6
 3526 0be0 B0050000 		.4byte	.LASF248
 3527 0be4 12       		.byte	0x12
 3528 0be5 24       		.byte	0x24
 3529 0be6 33040000 		.4byte	0x433
 3530 0bea 10       		.byte	0x10
 3531 0beb 06       		.uleb128 0x6
 3532 0bec 0B1D0000 		.4byte	.LASF249
 3533 0bf0 12       		.byte	0x12
 3534 0bf1 25       		.byte	0x25
 3535 0bf2 49040000 		.4byte	0x449
 3536 0bf6 12       		.byte	0x12
 3537 0bf7 06       		.uleb128 0x6
 3538 0bf8 8B1D0000 		.4byte	.LASF250
 3539 0bfc 12       		.byte	0x12
 3540 0bfd 26       		.byte	0x26
 3541 0bfe 49040000 		.4byte	0x449
 3542 0c02 14       		.byte	0x14
 3543 0c03 06       		.uleb128 0x6
 3544 0c04 BD080000 		.4byte	.LASF87
 3545 0c08 12       		.byte	0x12
 3546 0c09 27       		.byte	0x27
 3547 0c0a 49040000 		.4byte	0x449
 3548 0c0e 16       		.byte	0x16
 3549 0c0f 06       		.uleb128 0x6
 3550 0c10 C3080000 		.4byte	.LASF88
 3551 0c14 12       		.byte	0x12
ARM GAS  C:\Users\haske\AppData\Local\Temp\ccHGZgRG.s 			page 77


 3552 0c15 28       		.byte	0x28
 3553 0c16 49040000 		.4byte	0x449
 3554 0c1a 18       		.byte	0x18
 3555 0c1b 13       		.uleb128 0x13
 3556 0c1c 6F706100 		.ascii	"opa\000"
 3557 0c20 12       		.byte	0x12
 3558 0c21 29       		.byte	0x29
 3559 0c22 3E040000 		.4byte	0x43e
 3560 0c26 1A       		.byte	0x1a
 3561 0c27 06       		.uleb128 0x6
 3562 0c28 8D010000 		.4byte	.LASF251
 3563 0c2c 12       		.byte	0x12
 3564 0c2d 2A       		.byte	0x2a
 3565 0c2e 62060000 		.4byte	0x662
 3566 0c32 1B       		.byte	0x1b
 3567 0c33 06       		.uleb128 0x6
 3568 0c34 13150000 		.4byte	.LASF252
 3569 0c38 12       		.byte	0x12
 3570 0c39 2B       		.byte	0x2b
 3571 0c3a 57060000 		.4byte	0x657
 3572 0c3e 1C       		.byte	0x1c
 3573 0c3f 06       		.uleb128 0x6
 3574 0c40 33160000 		.4byte	.LASF253
 3575 0c44 12       		.byte	0x12
 3576 0c45 2C       		.byte	0x2c
 3577 0c46 4C060000 		.4byte	0x64c
 3578 0c4a 1D       		.byte	0x1d
 3579 0c4b 0D       		.uleb128 0xd
 3580 0c4c 571C0000 		.4byte	.LASF254
 3581 0c50 12       		.byte	0x12
 3582 0c51 2D       		.byte	0x2d
 3583 0c52 78060000 		.4byte	0x678
 3584 0c56 01       		.byte	0x1
 3585 0c57 03       		.byte	0x3
 3586 0c58 05       		.byte	0x5
 3587 0c59 1E       		.byte	0x1e
 3588 0c5a 0D       		.uleb128 0xd
 3589 0c5b C0030000 		.4byte	.LASF218
 3590 0c5f 12       		.byte	0x12
 3591 0c60 2E       		.byte	0x2e
 3592 0c61 6D060000 		.4byte	0x66d
 3593 0c65 01       		.byte	0x1
 3594 0c66 03       		.byte	0x3
 3595 0c67 02       		.byte	0x2
 3596 0c68 1E       		.byte	0x1e
 3597 0c69 00       		.byte	0
 3598 0c6a 07       		.uleb128 0x7
 3599 0c6b 04       		.byte	0x4
 3600 0c6c 700C0000 		.4byte	0xc70
 3601 0c70 14       		.uleb128 0x14
 3602 0c71 41060000 		.4byte	0x641
 3603 0c75 03       		.uleb128 0x3
 3604 0c76 79050000 		.4byte	.LASF255
 3605 0c7a 12       		.byte	0x12
 3606 0c7b 2F       		.byte	0x2f
 3607 0c7c 9B0B0000 		.4byte	0xb9b
 3608 0c80 05       		.uleb128 0x5
ARM GAS  C:\Users\haske\AppData\Local\Temp\ccHGZgRG.s 			page 78


 3609 0c81 18       		.byte	0x18
 3610 0c82 13       		.byte	0x13
 3611 0c83 20       		.byte	0x20
 3612 0c84 FB0C0000 		.4byte	0xcfb
 3613 0c88 06       		.uleb128 0x6
 3614 0c89 D8110000 		.4byte	.LASF256
 3615 0c8d 13       		.byte	0x13
 3616 0c8e 22       		.byte	0x22
 3617 0c8f D5000000 		.4byte	0xd5
 3618 0c93 00       		.byte	0
 3619 0c94 06       		.uleb128 0x6
 3620 0c95 31020000 		.4byte	.LASF257
 3621 0c99 13       		.byte	0x13
 3622 0c9a 23       		.byte	0x23
 3623 0c9b E0000000 		.4byte	0xe0
 3624 0c9f 02       		.byte	0x2
 3625 0ca0 06       		.uleb128 0x6
 3626 0ca1 101C0000 		.4byte	.LASF258
 3627 0ca5 13       		.byte	0x13
 3628 0ca6 24       		.byte	0x24
 3629 0ca7 71040000 		.4byte	0x471
 3630 0cab 04       		.byte	0x4
 3631 0cac 06       		.uleb128 0x6
 3632 0cad B1110000 		.4byte	.LASF259
 3633 0cb1 13       		.byte	0x13
 3634 0cb2 26       		.byte	0x26
 3635 0cb3 33040000 		.4byte	0x433
 3636 0cb7 08       		.byte	0x8
 3637 0cb8 06       		.uleb128 0x6
 3638 0cb9 FD160000 		.4byte	.LASF260
 3639 0cbd 13       		.byte	0x13
 3640 0cbe 27       		.byte	0x27
 3641 0cbf 3E040000 		.4byte	0x43e
 3642 0cc3 0A       		.byte	0xa
 3643 0cc4 13       		.uleb128 0x13
 3644 0cc5 6F706100 		.ascii	"opa\000"
 3645 0cc9 13       		.byte	0x13
 3646 0cca 29       		.byte	0x29
 3647 0ccb 3E040000 		.4byte	0x43e
 3648 0ccf 0B       		.byte	0xb
 3649 0cd0 0D       		.uleb128 0xd
 3650 0cd1 C0030000 		.4byte	.LASF218
 3651 0cd5 13       		.byte	0x13
 3652 0cd6 2A       		.byte	0x2a
 3653 0cd7 6D060000 		.4byte	0x66d
 3654 0cdb 01       		.byte	0x1
 3655 0cdc 04       		.byte	0x4
 3656 0cdd 04       		.byte	0x4
 3657 0cde 0C       		.byte	0xc
 3658 0cdf 06       		.uleb128 0x6
 3659 0ce0 F4160000 		.4byte	.LASF261
 3660 0ce4 13       		.byte	0x13
 3661 0ce5 2C       		.byte	0x2c
 3662 0ce6 EB000000 		.4byte	0xeb
 3663 0cea 10       		.byte	0x10
 3664 0ceb 0D       		.uleb128 0xd
 3665 0cec E2170000 		.4byte	.LASF262
ARM GAS  C:\Users\haske\AppData\Local\Temp\ccHGZgRG.s 			page 79


 3666 0cf0 13       		.byte	0x13
 3667 0cf1 2D       		.byte	0x2d
 3668 0cf2 CA000000 		.4byte	0xca
 3669 0cf6 01       		.byte	0x1
 3670 0cf7 01       		.byte	0x1
 3671 0cf8 07       		.byte	0x7
 3672 0cf9 14       		.byte	0x14
 3673 0cfa 00       		.byte	0
 3674 0cfb 03       		.uleb128 0x3
 3675 0cfc 350A0000 		.4byte	.LASF263
 3676 0d00 13       		.byte	0x13
 3677 0d01 2E       		.byte	0x2e
 3678 0d02 800C0000 		.4byte	0xc80
 3679 0d06 05       		.uleb128 0x5
 3680 0d07 0A       		.byte	0xa
 3681 0d08 14       		.byte	0x14
 3682 0d09 1C       		.byte	0x1c
 3683 0d0a 870D0000 		.4byte	0xd87
 3684 0d0e 06       		.uleb128 0x6
 3685 0d0f DB1C0000 		.4byte	.LASF109
 3686 0d13 14       		.byte	0x14
 3687 0d14 1D       		.byte	0x1d
 3688 0d15 33040000 		.4byte	0x433
 3689 0d19 00       		.byte	0
 3690 0d1a 06       		.uleb128 0x6
 3691 0d1b AF130000 		.4byte	.LASF264
 3692 0d1f 14       		.byte	0x14
 3693 0d20 1E       		.byte	0x1e
 3694 0d21 49040000 		.4byte	0x449
 3695 0d25 02       		.byte	0x2
 3696 0d26 06       		.uleb128 0x6
 3697 0d27 F2100000 		.4byte	.LASF265
 3698 0d2b 14       		.byte	0x14
 3699 0d2c 1F       		.byte	0x1f
 3700 0d2d 49040000 		.4byte	0x449
 3701 0d31 04       		.byte	0x4
 3702 0d32 06       		.uleb128 0x6
 3703 0d33 750A0000 		.4byte	.LASF266
 3704 0d37 14       		.byte	0x14
 3705 0d38 20       		.byte	0x20
 3706 0d39 49040000 		.4byte	0x449
 3707 0d3d 06       		.byte	0x6
 3708 0d3e 13       		.uleb128 0x13
 3709 0d3f 6F706100 		.ascii	"opa\000"
 3710 0d43 14       		.byte	0x14
 3711 0d44 21       		.byte	0x21
 3712 0d45 3E040000 		.4byte	0x43e
 3713 0d49 08       		.byte	0x8
 3714 0d4a 0D       		.uleb128 0xd
 3715 0d4b C0030000 		.4byte	.LASF218
 3716 0d4f 14       		.byte	0x14
 3717 0d50 22       		.byte	0x22
 3718 0d51 6D060000 		.4byte	0x66d
 3719 0d55 01       		.byte	0x1
 3720 0d56 02       		.byte	0x2
 3721 0d57 06       		.byte	0x6
 3722 0d58 09       		.byte	0x9
ARM GAS  C:\Users\haske\AppData\Local\Temp\ccHGZgRG.s 			page 80


 3723 0d59 0D       		.uleb128 0xd
 3724 0d5a E50C0000 		.4byte	.LASF267
 3725 0d5e 14       		.byte	0x14
 3726 0d5f 23       		.byte	0x23
 3727 0d60 CA000000 		.4byte	0xca
 3728 0d64 01       		.byte	0x1
 3729 0d65 01       		.byte	0x1
 3730 0d66 05       		.byte	0x5
 3731 0d67 09       		.byte	0x9
 3732 0d68 0D       		.uleb128 0xd
 3733 0d69 7E0E0000 		.4byte	.LASF268
 3734 0d6d 14       		.byte	0x14
 3735 0d6e 24       		.byte	0x24
 3736 0d6f CA000000 		.4byte	0xca
 3737 0d73 01       		.byte	0x1
 3738 0d74 01       		.byte	0x1
 3739 0d75 04       		.byte	0x4
 3740 0d76 09       		.byte	0x9
 3741 0d77 0D       		.uleb128 0xd
 3742 0d78 FF000000 		.4byte	.LASF269
 3743 0d7c 14       		.byte	0x14
 3744 0d7d 25       		.byte	0x25
 3745 0d7e CA000000 		.4byte	0xca
 3746 0d82 01       		.byte	0x1
 3747 0d83 01       		.byte	0x1
 3748 0d84 03       		.byte	0x3
 3749 0d85 09       		.byte	0x9
 3750 0d86 00       		.byte	0
 3751 0d87 03       		.uleb128 0x3
 3752 0d88 FE070000 		.4byte	.LASF270
 3753 0d8c 14       		.byte	0x14
 3754 0d8d 26       		.byte	0x26
 3755 0d8e 060D0000 		.4byte	0xd06
 3756 0d92 05       		.uleb128 0x5
 3757 0d93 10       		.byte	0x10
 3758 0d94 15       		.byte	0x15
 3759 0d95 1C       		.byte	0x1c
 3760 0d96 010E0000 		.4byte	0xe01
 3761 0d9a 06       		.uleb128 0x6
 3762 0d9b DB1C0000 		.4byte	.LASF109
 3763 0d9f 15       		.byte	0x15
 3764 0da0 1D       		.byte	0x1d
 3765 0da1 33040000 		.4byte	0x433
 3766 0da5 00       		.byte	0
 3767 0da6 06       		.uleb128 0x6
 3768 0da7 AF130000 		.4byte	.LASF264
 3769 0dab 15       		.byte	0x15
 3770 0dac 1E       		.byte	0x1e
 3771 0dad 49040000 		.4byte	0x449
 3772 0db1 02       		.byte	0x2
 3773 0db2 06       		.uleb128 0x6
 3774 0db3 B8100000 		.4byte	.LASF271
 3775 0db7 15       		.byte	0x15
 3776 0db8 1F       		.byte	0x1f
 3777 0db9 E0000000 		.4byte	0xe0
 3778 0dbd 04       		.byte	0x4
 3779 0dbe 06       		.uleb128 0x6
ARM GAS  C:\Users\haske\AppData\Local\Temp\ccHGZgRG.s 			page 81


 3780 0dbf 35070000 		.4byte	.LASF272
 3781 0dc3 15       		.byte	0x15
 3782 0dc4 20       		.byte	0x20
 3783 0dc5 E0000000 		.4byte	0xe0
 3784 0dc9 06       		.byte	0x6
 3785 0dca 06       		.uleb128 0x6
 3786 0dcb 880E0000 		.4byte	.LASF273
 3787 0dcf 15       		.byte	0x15
 3788 0dd0 21       		.byte	0x21
 3789 0dd1 DD040000 		.4byte	0x4dd
 3790 0dd5 08       		.byte	0x8
 3791 0dd6 13       		.uleb128 0x13
 3792 0dd7 6F706100 		.ascii	"opa\000"
 3793 0ddb 15       		.byte	0x15
 3794 0ddc 22       		.byte	0x22
 3795 0ddd 3E040000 		.4byte	0x43e
 3796 0de1 0C       		.byte	0xc
 3797 0de2 0D       		.uleb128 0xd
 3798 0de3 C0030000 		.4byte	.LASF218
 3799 0de7 15       		.byte	0x15
 3800 0de8 23       		.byte	0x23
 3801 0de9 6D060000 		.4byte	0x66d
 3802 0ded 01       		.byte	0x1
 3803 0dee 02       		.byte	0x2
 3804 0def 06       		.byte	0x6
 3805 0df0 0D       		.byte	0xd
 3806 0df1 0D       		.uleb128 0xd
 3807 0df2 78020000 		.4byte	.LASF274
 3808 0df6 15       		.byte	0x15
 3809 0df7 24       		.byte	0x24
 3810 0df8 CA000000 		.4byte	0xca
 3811 0dfc 01       		.byte	0x1
 3812 0dfd 01       		.byte	0x1
 3813 0dfe 05       		.byte	0x5
 3814 0dff 0D       		.byte	0xd
 3815 0e00 00       		.byte	0
 3816 0e01 03       		.uleb128 0x3
 3817 0e02 CC1D0000 		.4byte	.LASF275
 3818 0e06 15       		.byte	0x15
 3819 0e07 25       		.byte	0x25
 3820 0e08 920D0000 		.4byte	0xd92
 3821 0e0c 08       		.uleb128 0x8
 3822 0e0d 01       		.byte	0x1
 3823 0e0e 69000000 		.4byte	0x69
 3824 0e12 16       		.byte	0x16
 3825 0e13 1C       		.byte	0x1c
 3826 0e14 2B0E0000 		.4byte	0xe2b
 3827 0e18 09       		.uleb128 0x9
 3828 0e19 7B140000 		.4byte	.LASF276
 3829 0e1d 00       		.byte	0
 3830 0e1e 09       		.uleb128 0x9
 3831 0e1f DA010000 		.4byte	.LASF277
 3832 0e23 01       		.byte	0x1
 3833 0e24 09       		.uleb128 0x9
 3834 0e25 71190000 		.4byte	.LASF278
 3835 0e29 02       		.byte	0x2
 3836 0e2a 00       		.byte	0
ARM GAS  C:\Users\haske\AppData\Local\Temp\ccHGZgRG.s 			page 82


 3837 0e2b 03       		.uleb128 0x3
 3838 0e2c 050A0000 		.4byte	.LASF279
 3839 0e30 16       		.byte	0x16
 3840 0e31 20       		.byte	0x20
 3841 0e32 0C0E0000 		.4byte	0xe0c
 3842 0e36 05       		.uleb128 0x5
 3843 0e37 10       		.byte	0x10
 3844 0e38 17       		.byte	0x17
 3845 0e39 33       		.byte	0x33
 3846 0e3a 6F0E0000 		.4byte	0xe6f
 3847 0e3e 06       		.uleb128 0x6
 3848 0e3f DD150000 		.4byte	.LASF280
 3849 0e43 17       		.byte	0x17
 3850 0e44 34       		.byte	0x34
 3851 0e45 6F0E0000 		.4byte	0xe6f
 3852 0e49 00       		.byte	0
 3853 0e4a 06       		.uleb128 0x6
 3854 0e4b A8110000 		.4byte	.LASF281
 3855 0e4f 17       		.byte	0x17
 3856 0e50 35       		.byte	0x35
 3857 0e51 7A0E0000 		.4byte	0xe7a
 3858 0e55 04       		.byte	0x4
 3859 0e56 13       		.uleb128 0x13
 3860 0e57 62756600 		.ascii	"buf\000"
 3861 0e5b 17       		.byte	0x17
 3862 0e5c 36       		.byte	0x36
 3863 0e5d 10030000 		.4byte	0x310
 3864 0e61 08       		.byte	0x8
 3865 0e62 06       		.uleb128 0x6
 3866 0e63 341F0000 		.4byte	.LASF282
 3867 0e67 17       		.byte	0x17
 3868 0e68 37       		.byte	0x37
 3869 0e69 36020000 		.4byte	0x236
 3870 0e6d 0C       		.byte	0xc
 3871 0e6e 00       		.byte	0
 3872 0e6f 07       		.uleb128 0x7
 3873 0e70 04       		.byte	0x4
 3874 0e71 750E0000 		.4byte	0xe75
 3875 0e75 14       		.uleb128 0x14
 3876 0e76 B1040000 		.4byte	0x4b1
 3877 0e7a 07       		.uleb128 0x7
 3878 0e7b 04       		.byte	0x4
 3879 0e7c B1040000 		.4byte	0x4b1
 3880 0e80 0C       		.uleb128 0xc
 3881 0e81 23010000 		.4byte	.LASF283
 3882 0e85 28       		.byte	0x28
 3883 0e86 17       		.byte	0x17
 3884 0e87 2D       		.byte	0x2d
 3885 0e88 D50E0000 		.4byte	0xed5
 3886 0e8c 06       		.uleb128 0x6
 3887 0e8d 29160000 		.4byte	.LASF284
 3888 0e91 17       		.byte	0x17
 3889 0e92 2E       		.byte	0x2e
 3890 0e93 B1040000 		.4byte	0x4b1
 3891 0e97 00       		.byte	0
 3892 0e98 06       		.uleb128 0x6
 3893 0e99 8B080000 		.4byte	.LASF285
ARM GAS  C:\Users\haske\AppData\Local\Temp\ccHGZgRG.s 			page 83


 3894 0e9d 17       		.byte	0x17
 3895 0e9e 2F       		.byte	0x2f
 3896 0e9f B1040000 		.4byte	0x4b1
 3897 0ea3 08       		.byte	0x8
 3898 0ea4 06       		.uleb128 0x6
 3899 0ea5 B0160000 		.4byte	.LASF286
 3900 0ea9 17       		.byte	0x17
 3901 0eaa 30       		.byte	0x30
 3902 0eab 49040000 		.4byte	0x449
 3903 0eaf 10       		.byte	0x10
 3904 0eb0 06       		.uleb128 0x6
 3905 0eb1 541A0000 		.4byte	.LASF287
 3906 0eb5 17       		.byte	0x17
 3907 0eb6 31       		.byte	0x31
 3908 0eb7 49040000 		.4byte	0x449
 3909 0ebb 12       		.byte	0x12
 3910 0ebc 13       		.uleb128 0x13
 3911 0ebd 62756600 		.ascii	"buf\000"
 3912 0ec1 17       		.byte	0x17
 3913 0ec2 32       		.byte	0x32
 3914 0ec3 10030000 		.4byte	0x310
 3915 0ec7 14       		.byte	0x14
 3916 0ec8 06       		.uleb128 0x6
 3917 0ec9 2A090000 		.4byte	.LASF288
 3918 0ecd 17       		.byte	0x17
 3919 0ece 38       		.byte	0x38
 3920 0ecf 360E0000 		.4byte	0xe36
 3921 0ed3 18       		.byte	0x18
 3922 0ed4 00       		.byte	0
 3923 0ed5 03       		.uleb128 0x3
 3924 0ed6 C71C0000 		.4byte	.LASF289
 3925 0eda 17       		.byte	0x17
 3926 0edb 39       		.byte	0x39
 3927 0edc 800E0000 		.4byte	0xe80
 3928 0ee0 0C       		.uleb128 0xc
 3929 0ee1 9D020000 		.4byte	.LASF290
 3930 0ee5 54       		.byte	0x54
 3931 0ee6 17       		.byte	0x17
 3932 0ee7 3B       		.byte	0x3b
 3933 0ee8 E90F0000 		.4byte	0xfe9
 3934 0eec 13       		.uleb128 0x13
 3935 0eed 62756600 		.ascii	"buf\000"
 3936 0ef1 17       		.byte	0x17
 3937 0ef2 3F       		.byte	0x3f
 3938 0ef3 10030000 		.4byte	0x310
 3939 0ef7 00       		.byte	0
 3940 0ef8 06       		.uleb128 0x6
 3941 0ef9 A8110000 		.4byte	.LASF281
 3942 0efd 17       		.byte	0x17
 3943 0efe 44       		.byte	0x44
 3944 0eff 7A0E0000 		.4byte	0xe7a
 3945 0f03 04       		.byte	0x4
 3946 0f04 06       		.uleb128 0x6
 3947 0f05 DD150000 		.4byte	.LASF280
 3948 0f09 17       		.byte	0x17
 3949 0f0a 49       		.byte	0x49
 3950 0f0b 6F0E0000 		.4byte	0xe6f
ARM GAS  C:\Users\haske\AppData\Local\Temp\ccHGZgRG.s 			page 84


 3951 0f0f 08       		.byte	0x8
 3952 0f10 06       		.uleb128 0x6
 3953 0f11 60020000 		.4byte	.LASF291
 3954 0f15 17       		.byte	0x17
 3955 0f16 4B       		.byte	0x4b
 3956 0f17 FA0F0000 		.4byte	0xffa
 3957 0f1b 0C       		.byte	0xc
 3958 0f1c 06       		.uleb128 0x6
 3959 0f1d 3F020000 		.4byte	.LASF292
 3960 0f21 17       		.byte	0x17
 3961 0f22 4D       		.byte	0x4d
 3962 0f23 20100000 		.4byte	0x1020
 3963 0f27 10       		.byte	0x10
 3964 0f28 06       		.uleb128 0x6
 3965 0f29 53110000 		.4byte	.LASF293
 3966 0f2d 17       		.byte	0x17
 3967 0f2e 4F       		.byte	0x4f
 3968 0f2f 60100000 		.4byte	0x1060
 3969 0f33 14       		.byte	0x14
 3970 0f34 06       		.uleb128 0x6
 3971 0f35 6D120000 		.4byte	.LASF294
 3972 0f39 17       		.byte	0x17
 3973 0f3a 52       		.byte	0x52
 3974 0f3b 90100000 		.4byte	0x1090
 3975 0f3f 18       		.byte	0x18
 3976 0f40 06       		.uleb128 0x6
 3977 0f41 42210000 		.4byte	.LASF295
 3978 0f45 17       		.byte	0x17
 3979 0f46 55       		.byte	0x55
 3980 0f47 B4100000 		.4byte	0x10b4
 3981 0f4b 1C       		.byte	0x1c
 3982 0f4c 06       		.uleb128 0x6
 3983 0f4d 311B0000 		.4byte	.LASF296
 3984 0f51 17       		.byte	0x17
 3985 0f52 58       		.byte	0x58
 3986 0f53 DF100000 		.4byte	0x10df
 3987 0f57 20       		.byte	0x20
 3988 0f58 06       		.uleb128 0x6
 3989 0f59 C6060000 		.4byte	.LASF297
 3990 0f5d 17       		.byte	0x17
 3991 0f5e 5C       		.byte	0x5c
 3992 0f5f 0A110000 		.4byte	0x110a
 3993 0f63 24       		.byte	0x24
 3994 0f64 06       		.uleb128 0x6
 3995 0f65 99210000 		.4byte	.LASF298
 3996 0f69 17       		.byte	0x17
 3997 0f6a 60       		.byte	0x60
 3998 0f6b 2A110000 		.4byte	0x112a
 3999 0f6f 28       		.byte	0x28
 4000 0f70 06       		.uleb128 0x6
 4001 0f71 7E0A0000 		.4byte	.LASF299
 4002 0f75 17       		.byte	0x17
 4003 0f76 71       		.byte	0x71
 4004 0f77 68110000 		.4byte	0x1168
 4005 0f7b 2C       		.byte	0x2c
 4006 0f7c 06       		.uleb128 0x6
 4007 0f7d D1000000 		.4byte	.LASF300
ARM GAS  C:\Users\haske\AppData\Local\Temp\ccHGZgRG.s 			page 85


 4008 0f81 17       		.byte	0x17
 4009 0f82 78       		.byte	0x78
 4010 0f83 20100000 		.4byte	0x1020
 4011 0f87 30       		.byte	0x30
 4012 0f88 06       		.uleb128 0x6
 4013 0f89 29190000 		.4byte	.LASF301
 4014 0f8d 17       		.byte	0x17
 4015 0f8e 7D       		.byte	0x7d
 4016 0f8f FA0F0000 		.4byte	0xffa
 4017 0f93 34       		.byte	0x34
 4018 0f94 06       		.uleb128 0x6
 4019 0f95 60060000 		.4byte	.LASF302
 4020 0f99 17       		.byte	0x17
 4021 0f9a 8D       		.byte	0x8d
 4022 0f9b 97110000 		.4byte	0x1197
 4023 0f9f 38       		.byte	0x38
 4024 0fa0 06       		.uleb128 0x6
 4025 0fa1 560D0000 		.4byte	.LASF303
 4026 0fa5 17       		.byte	0x17
 4027 0fa6 99       		.byte	0x99
 4028 0fa7 BC110000 		.4byte	0x11bc
 4029 0fab 3C       		.byte	0x3c
 4030 0fac 06       		.uleb128 0x6
 4031 0fad 771C0000 		.4byte	.LASF304
 4032 0fb1 17       		.byte	0x17
 4033 0fb2 A3       		.byte	0xa3
 4034 0fb3 D7110000 		.4byte	0x11d7
 4035 0fb7 40       		.byte	0x40
 4036 0fb8 06       		.uleb128 0x6
 4037 0fb9 2E1D0000 		.4byte	.LASF305
 4038 0fbd 17       		.byte	0x17
 4039 0fbe AC       		.byte	0xac
 4040 0fbf F2110000 		.4byte	0x11f2
 4041 0fc3 44       		.byte	0x44
 4042 0fc4 06       		.uleb128 0x6
 4043 0fc5 E4100000 		.4byte	.LASF306
 4044 0fc9 17       		.byte	0x17
 4045 0fca B5       		.byte	0xb5
 4046 0fcb 0E120000 		.4byte	0x120e
 4047 0fcf 48       		.byte	0x48
 4048 0fd0 06       		.uleb128 0x6
 4049 0fd1 610A0000 		.4byte	.LASF307
 4050 0fd5 17       		.byte	0x17
 4051 0fd6 BA       		.byte	0xba
 4052 0fd7 2C000000 		.4byte	0x2c
 4053 0fdb 4C       		.byte	0x4c
 4054 0fdc 06       		.uleb128 0x6
 4055 0fdd 28230000 		.4byte	.LASF36
 4056 0fe1 17       		.byte	0x17
 4057 0fe2 BD       		.byte	0xbd
 4058 0fe3 10030000 		.4byte	0x310
 4059 0fe7 50       		.byte	0x50
 4060 0fe8 00       		.byte	0
 4061 0fe9 0A       		.uleb128 0xa
 4062 0fea F40F0000 		.4byte	0xff4
 4063 0fee 0B       		.uleb128 0xb
 4064 0fef F40F0000 		.4byte	0xff4
ARM GAS  C:\Users\haske\AppData\Local\Temp\ccHGZgRG.s 			page 86


 4065 0ff3 00       		.byte	0
 4066 0ff4 07       		.uleb128 0x7
 4067 0ff5 04       		.byte	0x4
 4068 0ff6 E00E0000 		.4byte	0xee0
 4069 0ffa 07       		.uleb128 0x7
 4070 0ffb 04       		.byte	0x4
 4071 0ffc E90F0000 		.4byte	0xfe9
 4072 1000 0A       		.uleb128 0xa
 4073 1001 15100000 		.4byte	0x1015
 4074 1005 0B       		.uleb128 0xb
 4075 1006 F40F0000 		.4byte	0xff4
 4076 100a 0B       		.uleb128 0xb
 4077 100b 15100000 		.4byte	0x1015
 4078 100f 0B       		.uleb128 0xb
 4079 1010 6F0E0000 		.4byte	0xe6f
 4080 1014 00       		.byte	0
 4081 1015 07       		.uleb128 0x7
 4082 1016 04       		.byte	0x4
 4083 1017 1B100000 		.4byte	0x101b
 4084 101b 14       		.uleb128 0x14
 4085 101c 900B0000 		.4byte	0xb90
 4086 1020 07       		.uleb128 0x7
 4087 1021 04       		.byte	0x4
 4088 1022 00100000 		.4byte	0x1000
 4089 1026 0A       		.uleb128 0xa
 4090 1027 4A100000 		.4byte	0x104a
 4091 102b 0B       		.uleb128 0xb
 4092 102c F40F0000 		.4byte	0xff4
 4093 1030 0B       		.uleb128 0xb
 4094 1031 4A100000 		.4byte	0x104a
 4095 1035 0B       		.uleb128 0xb
 4096 1036 55100000 		.4byte	0x1055
 4097 103a 0B       		.uleb128 0xb
 4098 103b E0000000 		.4byte	0xe0
 4099 103f 0B       		.uleb128 0xb
 4100 1040 E0000000 		.4byte	0xe0
 4101 1044 0B       		.uleb128 0xb
 4102 1045 E0000000 		.4byte	0xe0
 4103 1049 00       		.byte	0
 4104 104a 07       		.uleb128 0x7
 4105 104b 04       		.byte	0x4
 4106 104c 50100000 		.4byte	0x1050
 4107 1050 14       		.uleb128 0x14
 4108 1051 010E0000 		.4byte	0xe01
 4109 1055 07       		.uleb128 0x7
 4110 1056 04       		.byte	0x4
 4111 1057 5B100000 		.4byte	0x105b
 4112 105b 14       		.uleb128 0x14
 4113 105c 71040000 		.4byte	0x471
 4114 1060 07       		.uleb128 0x7
 4115 1061 04       		.byte	0x4
 4116 1062 26100000 		.4byte	0x1026
 4117 1066 0A       		.uleb128 0xa
 4118 1067 85100000 		.4byte	0x1085
 4119 106b 0B       		.uleb128 0xb
 4120 106c F40F0000 		.4byte	0xff4
 4121 1070 0B       		.uleb128 0xb
ARM GAS  C:\Users\haske\AppData\Local\Temp\ccHGZgRG.s 			page 87


 4122 1071 85100000 		.4byte	0x1085
 4123 1075 0B       		.uleb128 0xb
 4124 1076 6F0E0000 		.4byte	0xe6f
 4125 107a 0B       		.uleb128 0xb
 4126 107b D2040000 		.4byte	0x4d2
 4127 107f 0B       		.uleb128 0xb
 4128 1080 C7040000 		.4byte	0x4c7
 4129 1084 00       		.byte	0
 4130 1085 07       		.uleb128 0x7
 4131 1086 04       		.byte	0x4
 4132 1087 8B100000 		.4byte	0x108b
 4133 108b 14       		.uleb128 0x14
 4134 108c FB0C0000 		.4byte	0xcfb
 4135 1090 07       		.uleb128 0x7
 4136 1091 04       		.byte	0x4
 4137 1092 66100000 		.4byte	0x1066
 4138 1096 16       		.uleb128 0x16
 4139 1097 63010000 		.4byte	0x163
 4140 109b B4100000 		.4byte	0x10b4
 4141 109f 0B       		.uleb128 0xb
 4142 10a0 F40F0000 		.4byte	0xff4
 4143 10a4 0B       		.uleb128 0xb
 4144 10a5 85100000 		.4byte	0x1085
 4145 10a9 0B       		.uleb128 0xb
 4146 10aa 6F0E0000 		.4byte	0xe6f
 4147 10ae 0B       		.uleb128 0xb
 4148 10af DD040000 		.4byte	0x4dd
 4149 10b3 00       		.byte	0
 4150 10b4 07       		.uleb128 0x7
 4151 10b5 04       		.byte	0x4
 4152 10b6 96100000 		.4byte	0x1096
 4153 10ba 0A       		.uleb128 0xa
 4154 10bb D4100000 		.4byte	0x10d4
 4155 10bf 0B       		.uleb128 0xb
 4156 10c0 F40F0000 		.4byte	0xff4
 4157 10c4 0B       		.uleb128 0xb
 4158 10c5 D4100000 		.4byte	0x10d4
 4159 10c9 0B       		.uleb128 0xb
 4160 10ca 55100000 		.4byte	0x1055
 4161 10ce 0B       		.uleb128 0xb
 4162 10cf F6000000 		.4byte	0xf6
 4163 10d3 00       		.byte	0
 4164 10d4 07       		.uleb128 0x7
 4165 10d5 04       		.byte	0x4
 4166 10d6 DA100000 		.4byte	0x10da
 4167 10da 14       		.uleb128 0x14
 4168 10db 750C0000 		.4byte	0xc75
 4169 10df 07       		.uleb128 0x7
 4170 10e0 04       		.byte	0x4
 4171 10e1 BA100000 		.4byte	0x10ba
 4172 10e5 0A       		.uleb128 0xa
 4173 10e6 FF100000 		.4byte	0x10ff
 4174 10ea 0B       		.uleb128 0xb
 4175 10eb F40F0000 		.4byte	0xff4
 4176 10ef 0B       		.uleb128 0xb
 4177 10f0 FF100000 		.4byte	0x10ff
 4178 10f4 0B       		.uleb128 0xb
ARM GAS  C:\Users\haske\AppData\Local\Temp\ccHGZgRG.s 			page 88


 4179 10f5 55100000 		.4byte	0x1055
 4180 10f9 0B       		.uleb128 0xb
 4181 10fa 55100000 		.4byte	0x1055
 4182 10fe 00       		.byte	0
 4183 10ff 07       		.uleb128 0x7
 4184 1100 04       		.byte	0x4
 4185 1101 05110000 		.4byte	0x1105
 4186 1105 14       		.uleb128 0x14
 4187 1106 870D0000 		.4byte	0xd87
 4188 110a 07       		.uleb128 0x7
 4189 110b 04       		.byte	0x4
 4190 110c E5100000 		.4byte	0x10e5
 4191 1110 0A       		.uleb128 0xa
 4192 1111 2A110000 		.4byte	0x112a
 4193 1115 0B       		.uleb128 0xb
 4194 1116 F40F0000 		.4byte	0xff4
 4195 111a 0B       		.uleb128 0xb
 4196 111b 15100000 		.4byte	0x1015
 4197 111f 0B       		.uleb128 0xb
 4198 1120 55100000 		.4byte	0x1055
 4199 1124 0B       		.uleb128 0xb
 4200 1125 E0000000 		.4byte	0xe0
 4201 1129 00       		.byte	0
 4202 112a 07       		.uleb128 0x7
 4203 112b 04       		.byte	0x4
 4204 112c 10110000 		.4byte	0x1110
 4205 1130 0A       		.uleb128 0xa
 4206 1131 68110000 		.4byte	0x1168
 4207 1135 0B       		.uleb128 0xb
 4208 1136 F40F0000 		.4byte	0xff4
 4209 113a 0B       		.uleb128 0xb
 4210 113b 6F0E0000 		.4byte	0xe6f
 4211 113f 0B       		.uleb128 0xb
 4212 1140 DD040000 		.4byte	0x4dd
 4213 1144 0B       		.uleb128 0xb
 4214 1145 49040000 		.4byte	0x449
 4215 1149 0B       		.uleb128 0xb
 4216 114a 49040000 		.4byte	0x449
 4217 114e 0B       		.uleb128 0xb
 4218 114f 49040000 		.4byte	0x449
 4219 1153 0B       		.uleb128 0xb
 4220 1154 85100000 		.4byte	0x1085
 4221 1158 0B       		.uleb128 0xb
 4222 1159 C7040000 		.4byte	0x4c7
 4223 115d 0B       		.uleb128 0xb
 4224 115e 430A0000 		.4byte	0xa43
 4225 1162 0B       		.uleb128 0xb
 4226 1163 EA040000 		.4byte	0x4ea
 4227 1167 00       		.byte	0
 4228 1168 07       		.uleb128 0x7
 4229 1169 04       		.byte	0x4
 4230 116a 30110000 		.4byte	0x1130
 4231 116e 0A       		.uleb128 0xa
 4232 116f 97110000 		.4byte	0x1197
 4233 1173 0B       		.uleb128 0xb
 4234 1174 F40F0000 		.4byte	0xff4
 4235 1178 0B       		.uleb128 0xb
ARM GAS  C:\Users\haske\AppData\Local\Temp\ccHGZgRG.s 			page 89


 4236 1179 10030000 		.4byte	0x310
 4237 117d 0B       		.uleb128 0xb
 4238 117e 49040000 		.4byte	0x449
 4239 1182 0B       		.uleb128 0xb
 4240 1183 6F0E0000 		.4byte	0xe6f
 4241 1187 0B       		.uleb128 0xb
 4242 1188 10030000 		.4byte	0x310
 4243 118c 0B       		.uleb128 0xb
 4244 118d 49040000 		.4byte	0x449
 4245 1191 0B       		.uleb128 0xb
 4246 1192 6F0E0000 		.4byte	0xe6f
 4247 1196 00       		.byte	0
 4248 1197 07       		.uleb128 0x7
 4249 1198 04       		.byte	0x4
 4250 1199 6E110000 		.4byte	0x116e
 4251 119d 16       		.uleb128 0x16
 4252 119e B6110000 		.4byte	0x11b6
 4253 11a2 B6110000 		.4byte	0x11b6
 4254 11a6 0B       		.uleb128 0xb
 4255 11a7 F40F0000 		.4byte	0xff4
 4256 11ab 0B       		.uleb128 0xb
 4257 11ac B6110000 		.4byte	0x11b6
 4258 11b0 0B       		.uleb128 0xb
 4259 11b1 2B0E0000 		.4byte	0xe2b
 4260 11b5 00       		.byte	0
 4261 11b6 07       		.uleb128 0x7
 4262 11b7 04       		.byte	0x4
 4263 11b8 800E0000 		.4byte	0xe80
 4264 11bc 07       		.uleb128 0x7
 4265 11bd 04       		.byte	0x4
 4266 11be 9D110000 		.4byte	0x119d
 4267 11c2 0A       		.uleb128 0xa
 4268 11c3 D7110000 		.4byte	0x11d7
 4269 11c7 0B       		.uleb128 0xb
 4270 11c8 F40F0000 		.4byte	0xff4
 4271 11cc 0B       		.uleb128 0xb
 4272 11cd B6110000 		.4byte	0x11b6
 4273 11d1 0B       		.uleb128 0xb
 4274 11d2 2B0E0000 		.4byte	0xe2b
 4275 11d6 00       		.byte	0
 4276 11d7 07       		.uleb128 0x7
 4277 11d8 04       		.byte	0x4
 4278 11d9 C2110000 		.4byte	0x11c2
 4279 11dd 0A       		.uleb128 0xa
 4280 11de F2110000 		.4byte	0x11f2
 4281 11e2 0B       		.uleb128 0xb
 4282 11e3 F40F0000 		.4byte	0xff4
 4283 11e7 0B       		.uleb128 0xb
 4284 11e8 B6110000 		.4byte	0x11b6
 4285 11ec 0B       		.uleb128 0xb
 4286 11ed 85100000 		.4byte	0x1085
 4287 11f1 00       		.byte	0
 4288 11f2 07       		.uleb128 0x7
 4289 11f3 04       		.byte	0x4
 4290 11f4 DD110000 		.4byte	0x11dd
 4291 11f8 0A       		.uleb128 0xa
 4292 11f9 08120000 		.4byte	0x1208
ARM GAS  C:\Users\haske\AppData\Local\Temp\ccHGZgRG.s 			page 90


 4293 11fd 0B       		.uleb128 0xb
 4294 11fe F40F0000 		.4byte	0xff4
 4295 1202 0B       		.uleb128 0xb
 4296 1203 08120000 		.4byte	0x1208
 4297 1207 00       		.byte	0
 4298 1208 07       		.uleb128 0x7
 4299 1209 04       		.byte	0x4
 4300 120a D50E0000 		.4byte	0xed5
 4301 120e 07       		.uleb128 0x7
 4302 120f 04       		.byte	0x4
 4303 1210 F8110000 		.4byte	0x11f8
 4304 1214 03       		.uleb128 0x3
 4305 1215 5D0B0000 		.4byte	.LASF308
 4306 1219 17       		.byte	0x17
 4307 121a C0       		.byte	0xc0
 4308 121b E00E0000 		.4byte	0xee0
 4309 121f 0C       		.uleb128 0xc
 4310 1220 94110000 		.4byte	.LASF309
 4311 1224 1C       		.byte	0x1c
 4312 1225 18       		.byte	0x18
 4313 1226 32       		.byte	0x32
 4314 1227 92120000 		.4byte	0x1292
 4315 122b 06       		.uleb128 0x6
 4316 122c 45140000 		.4byte	.LASF310
 4317 1230 18       		.byte	0x18
 4318 1231 33       		.byte	0x33
 4319 1232 10030000 		.4byte	0x310
 4320 1236 00       		.byte	0
 4321 1237 06       		.uleb128 0x6
 4322 1238 4A140000 		.4byte	.LASF311
 4323 123c 18       		.byte	0x18
 4324 123d 34       		.byte	0x34
 4325 123e 10030000 		.4byte	0x310
 4326 1242 04       		.byte	0x4
 4327 1243 06       		.uleb128 0x6
 4328 1244 96180000 		.4byte	.LASF312
 4329 1248 18       		.byte	0x18
 4330 1249 37       		.byte	0x37
 4331 124a 10030000 		.4byte	0x310
 4332 124e 08       		.byte	0x8
 4333 124f 06       		.uleb128 0x6
 4334 1250 4F1A0000 		.4byte	.LASF313
 4335 1254 18       		.byte	0x18
 4336 1255 38       		.byte	0x38
 4337 1256 F6000000 		.4byte	0xf6
 4338 125a 0C       		.byte	0xc
 4339 125b 06       		.uleb128 0x6
 4340 125c 610C0000 		.4byte	.LASF314
 4341 1260 18       		.byte	0x18
 4342 1261 3A       		.byte	0x3a
 4343 1262 92120000 		.4byte	0x1292
 4344 1266 10       		.byte	0x10
 4345 1267 06       		.uleb128 0x6
 4346 1268 F6080000 		.4byte	.LASF315
 4347 126c 18       		.byte	0x18
 4348 126d 3C       		.byte	0x3c
 4349 126e 92120000 		.4byte	0x1292
ARM GAS  C:\Users\haske\AppData\Local\Temp\ccHGZgRG.s 			page 91


 4350 1272 14       		.byte	0x14
 4351 1273 0D       		.uleb128 0xd
 4352 1274 D8140000 		.4byte	.LASF316
 4353 1278 18       		.byte	0x18
 4354 1279 3D       		.byte	0x3d
 4355 127a 97120000 		.4byte	0x1297
 4356 127e 04       		.byte	0x4
 4357 127f 01       		.byte	0x1
 4358 1280 1F       		.byte	0x1f
 4359 1281 18       		.byte	0x18
 4360 1282 0D       		.uleb128 0xd
 4361 1283 FD100000 		.4byte	.LASF317
 4362 1287 18       		.byte	0x18
 4363 1288 3E       		.byte	0x3e
 4364 1289 97120000 		.4byte	0x1297
 4365 128d 04       		.byte	0x4
 4366 128e 01       		.byte	0x1
 4367 128f 1E       		.byte	0x1e
 4368 1290 18       		.byte	0x18
 4369 1291 00       		.byte	0
 4370 1292 20       		.uleb128 0x20
 4371 1293 25000000 		.4byte	0x25
 4372 1297 20       		.uleb128 0x20
 4373 1298 F6000000 		.4byte	0xf6
 4374 129c 03       		.uleb128 0x3
 4375 129d 3B000000 		.4byte	.LASF318
 4376 12a1 18       		.byte	0x18
 4377 12a2 3F       		.byte	0x3f
 4378 12a3 1F120000 		.4byte	0x121f
 4379 12a7 0C       		.uleb128 0xc
 4380 12a8 EB230000 		.4byte	.LASF319
 4381 12ac 50       		.byte	0x50
 4382 12ad 18       		.byte	0x18
 4383 12ae 4D       		.byte	0x4d
 4384 12af 25140000 		.4byte	0x1425
 4385 12b3 06       		.uleb128 0x6
 4386 12b4 D0060000 		.4byte	.LASF320
 4387 12b8 18       		.byte	0x18
 4388 12b9 4F       		.byte	0x4f
 4389 12ba 49040000 		.4byte	0x449
 4390 12be 00       		.byte	0
 4391 12bf 06       		.uleb128 0x6
 4392 12c0 DB030000 		.4byte	.LASF321
 4393 12c4 18       		.byte	0x18
 4394 12c5 50       		.byte	0x50
 4395 12c6 49040000 		.4byte	0x449
 4396 12ca 02       		.byte	0x2
 4397 12cb 06       		.uleb128 0x6
 4398 12cc 3E1A0000 		.4byte	.LASF322
 4399 12d0 18       		.byte	0x18
 4400 12d1 53       		.byte	0x53
 4401 12d2 49040000 		.4byte	0x449
 4402 12d6 04       		.byte	0x4
 4403 12d7 06       		.uleb128 0x6
 4404 12d8 19090000 		.4byte	.LASF323
 4405 12dc 18       		.byte	0x18
 4406 12dd 55       		.byte	0x55
ARM GAS  C:\Users\haske\AppData\Local\Temp\ccHGZgRG.s 			page 92


 4407 12de 49040000 		.4byte	0x449
 4408 12e2 06       		.byte	0x6
 4409 12e3 06       		.uleb128 0x6
 4410 12e4 16110000 		.4byte	.LASF324
 4411 12e8 18       		.byte	0x18
 4412 12e9 57       		.byte	0x57
 4413 12ea 49040000 		.4byte	0x449
 4414 12ee 08       		.byte	0x8
 4415 12ef 06       		.uleb128 0x6
 4416 12f0 1F110000 		.4byte	.LASF325
 4417 12f4 18       		.byte	0x18
 4418 12f5 58       		.byte	0x58
 4419 12f6 49040000 		.4byte	0x449
 4420 12fa 0A       		.byte	0xa
 4421 12fb 06       		.uleb128 0x6
 4422 12fc 3C1C0000 		.4byte	.LASF326
 4423 1300 18       		.byte	0x18
 4424 1301 5C       		.byte	0x5c
 4425 1302 25140000 		.4byte	0x1425
 4426 1306 0C       		.byte	0xc
 4427 1307 0D       		.uleb128 0xd
 4428 1308 8D0A0000 		.4byte	.LASF327
 4429 130c 18       		.byte	0x18
 4430 130d 5E       		.byte	0x5e
 4431 130e F6000000 		.4byte	0xf6
 4432 1312 04       		.byte	0x4
 4433 1313 01       		.byte	0x1
 4434 1314 1F       		.byte	0x1f
 4435 1315 10       		.byte	0x10
 4436 1316 0D       		.uleb128 0xd
 4437 1317 710E0000 		.4byte	.LASF328
 4438 131b 18       		.byte	0x18
 4439 131c 5F       		.byte	0x5f
 4440 131d F6000000 		.4byte	0xf6
 4441 1321 04       		.byte	0x4
 4442 1322 01       		.byte	0x1
 4443 1323 1E       		.byte	0x1e
 4444 1324 10       		.byte	0x10
 4445 1325 0D       		.uleb128 0xd
 4446 1326 230D0000 		.4byte	.LASF329
 4447 132a 18       		.byte	0x18
 4448 132b 60       		.byte	0x60
 4449 132c F6000000 		.4byte	0xf6
 4450 1330 04       		.byte	0x4
 4451 1331 01       		.byte	0x1
 4452 1332 1D       		.byte	0x1d
 4453 1333 10       		.byte	0x10
 4454 1334 0D       		.uleb128 0xd
 4455 1335 E10A0000 		.4byte	.LASF330
 4456 1339 18       		.byte	0x18
 4457 133a 61       		.byte	0x61
 4458 133b F6000000 		.4byte	0xf6
 4459 133f 04       		.byte	0x4
 4460 1340 01       		.byte	0x1
 4461 1341 1C       		.byte	0x1c
 4462 1342 10       		.byte	0x10
 4463 1343 0D       		.uleb128 0xd
ARM GAS  C:\Users\haske\AppData\Local\Temp\ccHGZgRG.s 			page 93


 4464 1344 FA040000 		.4byte	.LASF331
 4465 1348 18       		.byte	0x18
 4466 1349 62       		.byte	0x62
 4467 134a F6000000 		.4byte	0xf6
 4468 134e 04       		.byte	0x4
 4469 134f 02       		.byte	0x2
 4470 1350 1A       		.byte	0x1a
 4471 1351 10       		.byte	0x10
 4472 1352 0D       		.uleb128 0xd
 4473 1353 341F0000 		.4byte	.LASF282
 4474 1357 18       		.byte	0x18
 4475 1358 63       		.byte	0x63
 4476 1359 F6000000 		.4byte	0xf6
 4477 135d 04       		.byte	0x4
 4478 135e 01       		.byte	0x1
 4479 135f 19       		.byte	0x19
 4480 1360 10       		.byte	0x10
 4481 1361 0F       		.uleb128 0xf
 4482 1362 64706900 		.ascii	"dpi\000"
 4483 1366 18       		.byte	0x18
 4484 1367 66       		.byte	0x66
 4485 1368 F6000000 		.4byte	0xf6
 4486 136c 04       		.byte	0x4
 4487 136d 0A       		.byte	0xa
 4488 136e 0F       		.byte	0xf
 4489 136f 10       		.byte	0x10
 4490 1370 06       		.uleb128 0x6
 4491 1371 08230000 		.4byte	.LASF332
 4492 1375 18       		.byte	0x18
 4493 1376 6A       		.byte	0x6a
 4494 1377 46140000 		.4byte	0x1446
 4495 137b 14       		.byte	0x14
 4496 137c 06       		.uleb128 0x6
 4497 137d 4C1C0000 		.4byte	.LASF333
 4498 1381 18       		.byte	0x18
 4499 1382 6E       		.byte	0x6e
 4500 1383 5C140000 		.4byte	0x145c
 4501 1387 18       		.byte	0x18
 4502 1388 06       		.uleb128 0x6
 4503 1389 6E200000 		.4byte	.LASF334
 4504 138d 18       		.byte	0x18
 4505 138e 73       		.byte	0x73
 4506 138f 8B140000 		.4byte	0x148b
 4507 1393 1C       		.byte	0x1c
 4508 1394 06       		.uleb128 0x6
 4509 1395 7A0F0000 		.4byte	.LASF335
 4510 1399 18       		.byte	0x18
 4511 139a 76       		.byte	0x76
 4512 139b A6140000 		.4byte	0x14a6
 4513 139f 20       		.byte	0x20
 4514 13a0 06       		.uleb128 0x6
 4515 13a1 44150000 		.4byte	.LASF336
 4516 13a5 18       		.byte	0x18
 4517 13a6 7B       		.byte	0x7b
 4518 13a7 C1140000 		.4byte	0x14c1
 4519 13ab 24       		.byte	0x24
 4520 13ac 06       		.uleb128 0x6
ARM GAS  C:\Users\haske\AppData\Local\Temp\ccHGZgRG.s 			page 94


 4521 13ad 27130000 		.4byte	.LASF337
 4522 13b1 18       		.byte	0x18
 4523 13b2 80       		.byte	0x80
 4524 13b3 D2140000 		.4byte	0x14d2
 4525 13b7 28       		.byte	0x28
 4526 13b8 06       		.uleb128 0x6
 4527 13b9 63240000 		.4byte	.LASF338
 4528 13bd 18       		.byte	0x18
 4529 13be 83       		.byte	0x83
 4530 13bf D2140000 		.4byte	0x14d2
 4531 13c3 2C       		.byte	0x2c
 4532 13c4 06       		.uleb128 0x6
 4533 13c5 041A0000 		.4byte	.LASF339
 4534 13c9 18       		.byte	0x18
 4535 13ca 86       		.byte	0x86
 4536 13cb D2140000 		.4byte	0x14d2
 4537 13cf 30       		.byte	0x30
 4538 13d0 06       		.uleb128 0x6
 4539 13d1 F4190000 		.4byte	.LASF340
 4540 13d5 18       		.byte	0x18
 4541 13d6 89       		.byte	0x89
 4542 13d7 D2140000 		.4byte	0x14d2
 4543 13db 34       		.byte	0x34
 4544 13dc 06       		.uleb128 0x6
 4545 13dd 1D000000 		.4byte	.LASF341
 4546 13e1 18       		.byte	0x18
 4547 13e2 8D       		.byte	0x8d
 4548 13e3 33040000 		.4byte	0x433
 4549 13e7 38       		.byte	0x38
 4550 13e8 06       		.uleb128 0x6
 4551 13e9 39210000 		.4byte	.LASF342
 4552 13ed 18       		.byte	0x18
 4553 13ee 8F       		.byte	0x8f
 4554 13ef D8140000 		.4byte	0x14d8
 4555 13f3 3C       		.byte	0x3c
 4556 13f4 06       		.uleb128 0x6
 4557 13f5 06120000 		.4byte	.LASF343
 4558 13f9 18       		.byte	0x18
 4559 13fa 90       		.byte	0x90
 4560 13fb EE140000 		.4byte	0x14ee
 4561 13ff 40       		.byte	0x40
 4562 1400 06       		.uleb128 0x6
 4563 1401 17050000 		.4byte	.LASF344
 4564 1405 18       		.byte	0x18
 4565 1406 91       		.byte	0x91
 4566 1407 EE140000 		.4byte	0x14ee
 4567 140b 44       		.byte	0x44
 4568 140c 06       		.uleb128 0x6
 4569 140d 96010000 		.4byte	.LASF345
 4570 1411 18       		.byte	0x18
 4571 1412 92       		.byte	0x92
 4572 1413 2C000000 		.4byte	0x2c
 4573 1417 48       		.byte	0x48
 4574 1418 06       		.uleb128 0x6
 4575 1419 28230000 		.4byte	.LASF36
 4576 141d 18       		.byte	0x18
 4577 141e 95       		.byte	0x95
ARM GAS  C:\Users\haske\AppData\Local\Temp\ccHGZgRG.s 			page 95


 4578 141f 10030000 		.4byte	0x310
 4579 1423 4C       		.byte	0x4c
 4580 1424 00       		.byte	0
 4581 1425 07       		.uleb128 0x7
 4582 1426 04       		.byte	0x4
 4583 1427 9C120000 		.4byte	0x129c
 4584 142b 0A       		.uleb128 0xa
 4585 142c 40140000 		.4byte	0x1440
 4586 1430 0B       		.uleb128 0xb
 4587 1431 40140000 		.4byte	0x1440
 4588 1435 0B       		.uleb128 0xb
 4589 1436 6F0E0000 		.4byte	0xe6f
 4590 143a 0B       		.uleb128 0xb
 4591 143b 430A0000 		.4byte	0xa43
 4592 143f 00       		.byte	0
 4593 1440 07       		.uleb128 0x7
 4594 1441 04       		.byte	0x4
 4595 1442 A7120000 		.4byte	0x12a7
 4596 1446 07       		.uleb128 0x7
 4597 1447 04       		.byte	0x4
 4598 1448 2B140000 		.4byte	0x142b
 4599 144c 0A       		.uleb128 0xa
 4600 144d 5C140000 		.4byte	0x145c
 4601 1451 0B       		.uleb128 0xb
 4602 1452 40140000 		.4byte	0x1440
 4603 1456 0B       		.uleb128 0xb
 4604 1457 7A0E0000 		.4byte	0xe7a
 4605 145b 00       		.byte	0
 4606 145c 07       		.uleb128 0x7
 4607 145d 04       		.byte	0x4
 4608 145e 4C140000 		.4byte	0x144c
 4609 1462 0A       		.uleb128 0xa
 4610 1463 8B140000 		.4byte	0x148b
 4611 1467 0B       		.uleb128 0xb
 4612 1468 40140000 		.4byte	0x1440
 4613 146c 0B       		.uleb128 0xb
 4614 146d E4040000 		.4byte	0x4e4
 4615 1471 0B       		.uleb128 0xb
 4616 1472 49040000 		.4byte	0x449
 4617 1476 0B       		.uleb128 0xb
 4618 1477 49040000 		.4byte	0x449
 4619 147b 0B       		.uleb128 0xb
 4620 147c 49040000 		.4byte	0x449
 4621 1480 0B       		.uleb128 0xb
 4622 1481 33040000 		.4byte	0x433
 4623 1485 0B       		.uleb128 0xb
 4624 1486 3E040000 		.4byte	0x43e
 4625 148a 00       		.byte	0
 4626 148b 07       		.uleb128 0x7
 4627 148c 04       		.byte	0x4
 4628 148d 62140000 		.4byte	0x1462
 4629 1491 0A       		.uleb128 0xa
 4630 1492 A6140000 		.4byte	0x14a6
 4631 1496 0B       		.uleb128 0xb
 4632 1497 40140000 		.4byte	0x1440
 4633 149b 0B       		.uleb128 0xb
 4634 149c E4040000 		.4byte	0x4e4
ARM GAS  C:\Users\haske\AppData\Local\Temp\ccHGZgRG.s 			page 96


 4635 14a0 0B       		.uleb128 0xb
 4636 14a1 F6000000 		.4byte	0xf6
 4637 14a5 00       		.byte	0
 4638 14a6 07       		.uleb128 0x7
 4639 14a7 04       		.byte	0x4
 4640 14a8 91140000 		.4byte	0x1491
 4641 14ac 0A       		.uleb128 0xa
 4642 14ad C1140000 		.4byte	0x14c1
 4643 14b1 0B       		.uleb128 0xb
 4644 14b2 40140000 		.4byte	0x1440
 4645 14b6 0B       		.uleb128 0xb
 4646 14b7 F6000000 		.4byte	0xf6
 4647 14bb 0B       		.uleb128 0xb
 4648 14bc F6000000 		.4byte	0xf6
 4649 14c0 00       		.byte	0
 4650 14c1 07       		.uleb128 0x7
 4651 14c2 04       		.byte	0x4
 4652 14c3 AC140000 		.4byte	0x14ac
 4653 14c7 0A       		.uleb128 0xa
 4654 14c8 D2140000 		.4byte	0x14d2
 4655 14cc 0B       		.uleb128 0xb
 4656 14cd 40140000 		.4byte	0x1440
 4657 14d1 00       		.byte	0
 4658 14d2 07       		.uleb128 0x7
 4659 14d3 04       		.byte	0x4
 4660 14d4 C7140000 		.4byte	0x14c7
 4661 14d8 07       		.uleb128 0x7
 4662 14d9 04       		.byte	0x4
 4663 14da 14120000 		.4byte	0x1214
 4664 14de 0A       		.uleb128 0xa
 4665 14df EE140000 		.4byte	0x14ee
 4666 14e3 0B       		.uleb128 0xb
 4667 14e4 40140000 		.4byte	0x1440
 4668 14e8 0B       		.uleb128 0xb
 4669 14e9 D8140000 		.4byte	0x14d8
 4670 14ed 00       		.byte	0
 4671 14ee 07       		.uleb128 0x7
 4672 14ef 04       		.byte	0x4
 4673 14f0 DE140000 		.4byte	0x14de
 4674 14f4 21       		.uleb128 0x21
 4675 14f5 48160000 		.4byte	.LASF346
 4676 14f9 5C01     		.2byte	0x15c
 4677 14fb 18       		.byte	0x18
 4678 14fc 9E       		.byte	0x9e
 4679 14fd 0B160000 		.4byte	0x160b
 4680 1501 06       		.uleb128 0x6
 4681 1502 B91D0000 		.4byte	.LASF347
 4682 1506 18       		.byte	0x18
 4683 1507 A0       		.byte	0xa0
 4684 1508 40140000 		.4byte	0x1440
 4685 150c 00       		.byte	0
 4686 150d 06       		.uleb128 0x6
 4687 150e 5B050000 		.4byte	.LASF348
 4688 1512 18       		.byte	0x18
 4689 1513 A3       		.byte	0xa3
 4690 1514 0B160000 		.4byte	0x160b
 4691 1518 04       		.byte	0x4
ARM GAS  C:\Users\haske\AppData\Local\Temp\ccHGZgRG.s 			page 97


 4692 1519 06       		.uleb128 0x6
 4693 151a 10110000 		.4byte	.LASF349
 4694 151e 18       		.byte	0x18
 4695 151f A6       		.byte	0xa6
 4696 1520 16160000 		.4byte	0x1616
 4697 1524 08       		.byte	0x8
 4698 1525 06       		.uleb128 0x6
 4699 1526 05040000 		.4byte	.LASF350
 4700 152a 18       		.byte	0x18
 4701 152b A9       		.byte	0xa9
 4702 152c 04030000 		.4byte	0x304
 4703 1530 0C       		.byte	0xc
 4704 1531 06       		.uleb128 0x6
 4705 1532 BE000000 		.4byte	.LASF351
 4706 1536 18       		.byte	0x18
 4707 1537 AA       		.byte	0xaa
 4708 1538 0A030000 		.4byte	0x30a
 4709 153c 10       		.byte	0x10
 4710 153d 06       		.uleb128 0x6
 4711 153e F51D0000 		.4byte	.LASF352
 4712 1542 18       		.byte	0x18
 4713 1543 AB       		.byte	0xab
 4714 1544 0A030000 		.4byte	0x30a
 4715 1548 14       		.byte	0x14
 4716 1549 06       		.uleb128 0x6
 4717 154a 10060000 		.4byte	.LASF353
 4718 154e 18       		.byte	0x18
 4719 154f AC       		.byte	0xac
 4720 1550 0A030000 		.4byte	0x30a
 4721 1554 18       		.byte	0x18
 4722 1555 06       		.uleb128 0x6
 4723 1556 C4070000 		.4byte	.LASF354
 4724 155a 18       		.byte	0x18
 4725 155b AD       		.byte	0xad
 4726 155c 0A030000 		.4byte	0x30a
 4727 1560 1C       		.byte	0x1c
 4728 1561 06       		.uleb128 0x6
 4729 1562 911A0000 		.4byte	.LASF355
 4730 1566 18       		.byte	0x18
 4731 1567 AE       		.byte	0xae
 4732 1568 0A030000 		.4byte	0x30a
 4733 156c 20       		.byte	0x20
 4734 156d 06       		.uleb128 0x6
 4735 156e C6000000 		.4byte	.LASF356
 4736 1572 18       		.byte	0x18
 4737 1573 AF       		.byte	0xaf
 4738 1574 F6000000 		.4byte	0xf6
 4739 1578 24       		.byte	0x24
 4740 1579 0D       		.uleb128 0xd
 4741 157a D1100000 		.4byte	.LASF357
 4742 157e 18       		.byte	0x18
 4743 157f B0       		.byte	0xb0
 4744 1580 CA000000 		.4byte	0xca
 4745 1584 01       		.byte	0x1
 4746 1585 01       		.byte	0x1
 4747 1586 07       		.byte	0x7
 4748 1587 28       		.byte	0x28
ARM GAS  C:\Users\haske\AppData\Local\Temp\ccHGZgRG.s 			page 98


 4749 1588 0D       		.uleb128 0xd
 4750 1589 BB1F0000 		.4byte	.LASF358
 4751 158d 18       		.byte	0x18
 4752 158e B2       		.byte	0xb2
 4753 158f CA000000 		.4byte	0xca
 4754 1593 01       		.byte	0x1
 4755 1594 01       		.byte	0x1
 4756 1595 06       		.byte	0x6
 4757 1596 28       		.byte	0x28
 4758 1597 0D       		.uleb128 0xd
 4759 1598 D7080000 		.4byte	.LASF359
 4760 159c 18       		.byte	0x18
 4761 159d B4       		.byte	0xb4
 4762 159e CA000000 		.4byte	0xca
 4763 15a2 01       		.byte	0x1
 4764 15a3 01       		.byte	0x1
 4765 15a4 05       		.byte	0x5
 4766 15a5 28       		.byte	0x28
 4767 15a6 06       		.uleb128 0x6
 4768 15a7 54050000 		.4byte	.LASF219
 4769 15ab 18       		.byte	0x18
 4770 15ac B6       		.byte	0xb6
 4771 15ad 3E040000 		.4byte	0x43e
 4772 15b1 29       		.byte	0x29
 4773 15b2 06       		.uleb128 0x6
 4774 15b3 64010000 		.4byte	.LASF220
 4775 15b7 18       		.byte	0x18
 4776 15b8 B7       		.byte	0xb7
 4777 15b9 33040000 		.4byte	0x433
 4778 15bd 2A       		.byte	0x2a
 4779 15be 06       		.uleb128 0x6
 4780 15bf DE1F0000 		.4byte	.LASF360
 4781 15c3 18       		.byte	0x18
 4782 15c4 B8       		.byte	0xb8
 4783 15c5 DD040000 		.4byte	0x4dd
 4784 15c9 2C       		.byte	0x2c
 4785 15ca 06       		.uleb128 0x6
 4786 15cb A6160000 		.4byte	.LASF361
 4787 15cf 18       		.byte	0x18
 4788 15d0 BB       		.byte	0xbb
 4789 15d1 1C160000 		.4byte	0x161c
 4790 15d5 30       		.byte	0x30
 4791 15d6 22       		.uleb128 0x22
 4792 15d7 EA050000 		.4byte	.LASF362
 4793 15db 18       		.byte	0x18
 4794 15dc BC       		.byte	0xbc
 4795 15dd 2C160000 		.4byte	0x162c
 4796 15e1 3001     		.2byte	0x130
 4797 15e3 22       		.uleb128 0x22
 4798 15e4 661E0000 		.4byte	.LASF363
 4799 15e8 18       		.byte	0x18
 4800 15e9 BD       		.byte	0xbd
 4801 15ea E0000000 		.4byte	0xe0
 4802 15ee 5001     		.2byte	0x150
 4803 15f0 22       		.uleb128 0x22
 4804 15f1 291F0000 		.4byte	.LASF364
 4805 15f5 18       		.byte	0x18
ARM GAS  C:\Users\haske\AppData\Local\Temp\ccHGZgRG.s 			page 99


 4806 15f6 BE       		.byte	0xbe
 4807 15f7 EB000000 		.4byte	0xeb
 4808 15fb 5401     		.2byte	0x154
 4809 15fd 22       		.uleb128 0x22
 4810 15fe B9040000 		.4byte	.LASF365
 4811 1602 18       		.byte	0x18
 4812 1603 C1       		.byte	0xc1
 4813 1604 F6000000 		.4byte	0xf6
 4814 1608 5801     		.2byte	0x158
 4815 160a 00       		.byte	0
 4816 160b 07       		.uleb128 0x7
 4817 160c 04       		.byte	0x4
 4818 160d C9030000 		.4byte	0x3c9
 4819 1611 23       		.uleb128 0x23
 4820 1612 C01D0000 		.4byte	.LASF559
 4821 1616 07       		.uleb128 0x7
 4822 1617 04       		.byte	0x4
 4823 1618 11160000 		.4byte	0x1611
 4824 161c 17       		.uleb128 0x17
 4825 161d B1040000 		.4byte	0x4b1
 4826 1621 2C160000 		.4byte	0x162c
 4827 1625 18       		.uleb128 0x18
 4828 1626 41030000 		.4byte	0x341
 4829 162a 1F       		.byte	0x1f
 4830 162b 00       		.byte	0
 4831 162c 17       		.uleb128 0x17
 4832 162d CA000000 		.4byte	0xca
 4833 1631 3C160000 		.4byte	0x163c
 4834 1635 18       		.uleb128 0x18
 4835 1636 41030000 		.4byte	0x341
 4836 163a 1F       		.byte	0x1f
 4837 163b 00       		.byte	0
 4838 163c 08       		.uleb128 0x8
 4839 163d 01       		.byte	0x1
 4840 163e 69000000 		.4byte	0x69
 4841 1642 19       		.byte	0x19
 4842 1643 3E       		.byte	0x3e
 4843 1644 67160000 		.4byte	0x1667
 4844 1648 09       		.uleb128 0x9
 4845 1649 F5220000 		.4byte	.LASF366
 4846 164d 00       		.byte	0
 4847 164e 09       		.uleb128 0x9
 4848 164f DD180000 		.4byte	.LASF367
 4849 1653 01       		.byte	0x1
 4850 1654 09       		.uleb128 0x9
 4851 1655 E21B0000 		.4byte	.LASF368
 4852 1659 02       		.byte	0x2
 4853 165a 09       		.uleb128 0x9
 4854 165b 07130000 		.4byte	.LASF369
 4855 165f 03       		.byte	0x3
 4856 1660 09       		.uleb128 0x9
 4857 1661 5B000000 		.4byte	.LASF370
 4858 1665 04       		.byte	0x4
 4859 1666 00       		.byte	0
 4860 1667 03       		.uleb128 0x3
 4861 1668 C4120000 		.4byte	.LASF371
 4862 166c 19       		.byte	0x19
ARM GAS  C:\Users\haske\AppData\Local\Temp\ccHGZgRG.s 			page 100


 4863 166d 44       		.byte	0x44
 4864 166e 3C160000 		.4byte	0x163c
 4865 1672 08       		.uleb128 0x8
 4866 1673 01       		.byte	0x1
 4867 1674 69000000 		.4byte	0x69
 4868 1678 19       		.byte	0x19
 4869 1679 47       		.byte	0x47
 4870 167a 8B160000 		.4byte	0x168b
 4871 167e 09       		.uleb128 0x9
 4872 167f 5E080000 		.4byte	.LASF372
 4873 1683 00       		.byte	0
 4874 1684 09       		.uleb128 0x9
 4875 1685 56120000 		.4byte	.LASF373
 4876 1689 01       		.byte	0x1
 4877 168a 00       		.byte	0
 4878 168b 03       		.uleb128 0x3
 4879 168c 120D0000 		.4byte	.LASF374
 4880 1690 19       		.byte	0x19
 4881 1691 4A       		.byte	0x4a
 4882 1692 72160000 		.4byte	0x1672
 4883 1696 05       		.uleb128 0x5
 4884 1697 10       		.byte	0x10
 4885 1698 19       		.byte	0x19
 4886 1699 4D       		.byte	0x4d
 4887 169a E7160000 		.4byte	0x16e7
 4888 169e 06       		.uleb128 0x6
 4889 169f 83030000 		.4byte	.LASF375
 4890 16a3 19       		.byte	0x19
 4891 16a4 4E       		.byte	0x4e
 4892 16a5 71040000 		.4byte	0x471
 4893 16a9 00       		.byte	0
 4894 16aa 13       		.uleb128 0x13
 4895 16ab 6B657900 		.ascii	"key\000"
 4896 16af 19       		.byte	0x19
 4897 16b0 4F       		.byte	0x4f
 4898 16b1 F6000000 		.4byte	0xf6
 4899 16b5 04       		.byte	0x4
 4900 16b6 06       		.uleb128 0x6
 4901 16b7 470A0000 		.4byte	.LASF376
 4902 16bb 19       		.byte	0x19
 4903 16bc 50       		.byte	0x50
 4904 16bd F6000000 		.4byte	0xf6
 4905 16c1 08       		.byte	0x8
 4906 16c2 06       		.uleb128 0x6
 4907 16c3 03160000 		.4byte	.LASF377
 4908 16c7 19       		.byte	0x19
 4909 16c8 51       		.byte	0x51
 4910 16c9 D5000000 		.4byte	0xd5
 4911 16cd 0C       		.byte	0xc
 4912 16ce 06       		.uleb128 0x6
 4913 16cf 0E020000 		.4byte	.LASF51
 4914 16d3 19       		.byte	0x19
 4915 16d4 53       		.byte	0x53
 4916 16d5 8B160000 		.4byte	0x168b
 4917 16d9 0E       		.byte	0xe
 4918 16da 06       		.uleb128 0x6
 4919 16db F00F0000 		.4byte	.LASF378
ARM GAS  C:\Users\haske\AppData\Local\Temp\ccHGZgRG.s 			page 101


 4920 16df 19       		.byte	0x19
 4921 16e0 54       		.byte	0x54
 4922 16e1 36020000 		.4byte	0x236
 4923 16e5 0F       		.byte	0xf
 4924 16e6 00       		.byte	0
 4925 16e7 03       		.uleb128 0x3
 4926 16e8 14210000 		.4byte	.LASF379
 4927 16ec 19       		.byte	0x19
 4928 16ed 55       		.byte	0x55
 4929 16ee 96160000 		.4byte	0x1696
 4930 16f2 0C       		.uleb128 0xc
 4931 16f3 55030000 		.4byte	.LASF380
 4932 16f7 20       		.byte	0x20
 4933 16f8 19       		.byte	0x19
 4934 16f9 58       		.byte	0x58
 4935 16fa 8F170000 		.4byte	0x178f
 4936 16fe 06       		.uleb128 0x6
 4937 16ff AC020000 		.4byte	.LASF381
 4938 1703 19       		.byte	0x19
 4939 1704 5B       		.byte	0x5b
 4940 1705 67160000 		.4byte	0x1667
 4941 1709 00       		.byte	0
 4942 170a 06       		.uleb128 0x6
 4943 170b 2E060000 		.4byte	.LASF382
 4944 170f 19       		.byte	0x19
 4945 1710 5E       		.byte	0x5e
 4946 1711 AB170000 		.4byte	0x17ab
 4947 1715 04       		.byte	0x4
 4948 1716 06       		.uleb128 0x6
 4949 1717 92190000 		.4byte	.LASF383
 4950 171b 19       		.byte	0x19
 4951 171c 62       		.byte	0x62
 4952 171d C1170000 		.4byte	0x17c1
 4953 1721 08       		.byte	0x8
 4954 1722 06       		.uleb128 0x6
 4955 1723 28230000 		.4byte	.LASF36
 4956 1727 19       		.byte	0x19
 4957 1728 65       		.byte	0x65
 4958 1729 10030000 		.4byte	0x310
 4959 172d 0C       		.byte	0xc
 4960 172e 06       		.uleb128 0x6
 4961 172f D1150000 		.4byte	.LASF384
 4962 1733 19       		.byte	0x19
 4963 1734 69       		.byte	0x69
 4964 1735 C7170000 		.4byte	0x17c7
 4965 1739 10       		.byte	0x10
 4966 173a 06       		.uleb128 0x6
 4967 173b 57180000 		.4byte	.LASF385
 4968 173f 19       		.byte	0x19
 4969 1740 6C       		.byte	0x6c
 4970 1741 0B160000 		.4byte	0x160b
 4971 1745 14       		.byte	0x14
 4972 1746 06       		.uleb128 0x6
 4973 1747 981D0000 		.4byte	.LASF386
 4974 174b 19       		.byte	0x19
 4975 174c 6F       		.byte	0x6f
 4976 174d CA000000 		.4byte	0xca
ARM GAS  C:\Users\haske\AppData\Local\Temp\ccHGZgRG.s 			page 102


 4977 1751 18       		.byte	0x18
 4978 1752 06       		.uleb128 0x6
 4979 1753 A7190000 		.4byte	.LASF387
 4980 1757 19       		.byte	0x19
 4981 1758 72       		.byte	0x72
 4982 1759 CA000000 		.4byte	0xca
 4983 175d 19       		.byte	0x19
 4984 175e 06       		.uleb128 0x6
 4985 175f AE220000 		.4byte	.LASF388
 4986 1763 19       		.byte	0x19
 4987 1764 75       		.byte	0x75
 4988 1765 CA000000 		.4byte	0xca
 4989 1769 1A       		.byte	0x1a
 4990 176a 06       		.uleb128 0x6
 4991 176b 73240000 		.4byte	.LASF389
 4992 176f 19       		.byte	0x19
 4993 1770 78       		.byte	0x78
 4994 1771 CA000000 		.4byte	0xca
 4995 1775 1B       		.byte	0x1b
 4996 1776 06       		.uleb128 0x6
 4997 1777 6A1A0000 		.4byte	.LASF390
 4998 177b 19       		.byte	0x19
 4999 177c 7B       		.byte	0x7b
 5000 177d E0000000 		.4byte	0xe0
 5001 1781 1C       		.byte	0x1c
 5002 1782 06       		.uleb128 0x6
 5003 1783 78200000 		.4byte	.LASF391
 5004 1787 19       		.byte	0x19
 5005 1788 7E       		.byte	0x7e
 5006 1789 E0000000 		.4byte	0xe0
 5007 178d 1E       		.byte	0x1e
 5008 178e 00       		.byte	0
 5009 178f 0A       		.uleb128 0xa
 5010 1790 9F170000 		.4byte	0x179f
 5011 1794 0B       		.uleb128 0xb
 5012 1795 9F170000 		.4byte	0x179f
 5013 1799 0B       		.uleb128 0xb
 5014 179a A5170000 		.4byte	0x17a5
 5015 179e 00       		.byte	0
 5016 179f 07       		.uleb128 0x7
 5017 17a0 04       		.byte	0x4
 5018 17a1 F2160000 		.4byte	0x16f2
 5019 17a5 07       		.uleb128 0x7
 5020 17a6 04       		.byte	0x4
 5021 17a7 E7160000 		.4byte	0x16e7
 5022 17ab 07       		.uleb128 0x7
 5023 17ac 04       		.byte	0x4
 5024 17ad 8F170000 		.4byte	0x178f
 5025 17b1 0A       		.uleb128 0xa
 5026 17b2 C1170000 		.4byte	0x17c1
 5027 17b6 0B       		.uleb128 0xb
 5028 17b7 9F170000 		.4byte	0x179f
 5029 17bb 0B       		.uleb128 0xb
 5030 17bc CA000000 		.4byte	0xca
 5031 17c0 00       		.byte	0
 5032 17c1 07       		.uleb128 0x7
 5033 17c2 04       		.byte	0x4
ARM GAS  C:\Users\haske\AppData\Local\Temp\ccHGZgRG.s 			page 103


 5034 17c3 B1170000 		.4byte	0x17b1
 5035 17c7 07       		.uleb128 0x7
 5036 17c8 04       		.byte	0x4
 5037 17c9 F4140000 		.4byte	0x14f4
 5038 17cd 05       		.uleb128 0x5
 5039 17ce 40       		.byte	0x40
 5040 17cf 19       		.byte	0x19
 5041 17d0 8D       		.byte	0x8d
 5042 17d1 AB180000 		.4byte	0x18ab
 5043 17d5 06       		.uleb128 0x6
 5044 17d6 8A1E0000 		.4byte	.LASF392
 5045 17da 19       		.byte	0x19
 5046 17db 8F       		.byte	0x8f
 5047 17dc 71040000 		.4byte	0x471
 5048 17e0 00       		.byte	0
 5049 17e1 06       		.uleb128 0x6
 5050 17e2 C5150000 		.4byte	.LASF393
 5051 17e6 19       		.byte	0x19
 5052 17e7 90       		.byte	0x90
 5053 17e8 71040000 		.4byte	0x471
 5054 17ec 04       		.byte	0x4
 5055 17ed 06       		.uleb128 0x6
 5056 17ee 68140000 		.4byte	.LASF394
 5057 17f2 19       		.byte	0x19
 5058 17f3 91       		.byte	0x91
 5059 17f4 71040000 		.4byte	0x471
 5060 17f8 08       		.byte	0x8
 5061 17f9 06       		.uleb128 0x6
 5062 17fa CD230000 		.4byte	.LASF395
 5063 17fe 19       		.byte	0x19
 5064 17ff 92       		.byte	0x92
 5065 1800 71040000 		.4byte	0x471
 5066 1804 0C       		.byte	0xc
 5067 1805 06       		.uleb128 0x6
 5068 1806 92250000 		.4byte	.LASF396
 5069 180a 19       		.byte	0x19
 5070 180b 93       		.byte	0x93
 5071 180c 71040000 		.4byte	0x471
 5072 1810 10       		.byte	0x10
 5073 1811 06       		.uleb128 0x6
 5074 1812 F8150000 		.4byte	.LASF397
 5075 1816 19       		.byte	0x19
 5076 1817 94       		.byte	0x94
 5077 1818 71040000 		.4byte	0x471
 5078 181c 14       		.byte	0x14
 5079 181d 06       		.uleb128 0x6
 5080 181e 121A0000 		.4byte	.LASF398
 5081 1822 19       		.byte	0x19
 5082 1823 95       		.byte	0x95
 5083 1824 71040000 		.4byte	0x471
 5084 1828 18       		.byte	0x18
 5085 1829 06       		.uleb128 0x6
 5086 182a A01B0000 		.4byte	.LASF399
 5087 182e 19       		.byte	0x19
 5088 182f 96       		.byte	0x96
 5089 1830 71040000 		.4byte	0x471
 5090 1834 1C       		.byte	0x1c
ARM GAS  C:\Users\haske\AppData\Local\Temp\ccHGZgRG.s 			page 104


 5091 1835 06       		.uleb128 0x6
 5092 1836 73140000 		.4byte	.LASF400
 5093 183a 19       		.byte	0x19
 5094 183b 97       		.byte	0x97
 5095 183c 0A030000 		.4byte	0x30a
 5096 1840 20       		.byte	0x20
 5097 1841 06       		.uleb128 0x6
 5098 1842 A5120000 		.4byte	.LASF401
 5099 1846 19       		.byte	0x19
 5100 1847 98       		.byte	0x98
 5101 1848 0A030000 		.4byte	0x30a
 5102 184c 24       		.byte	0x24
 5103 184d 06       		.uleb128 0x6
 5104 184e 5D040000 		.4byte	.LASF402
 5105 1852 19       		.byte	0x19
 5106 1853 99       		.byte	0x99
 5107 1854 0A030000 		.4byte	0x30a
 5108 1858 28       		.byte	0x28
 5109 1859 06       		.uleb128 0x6
 5110 185a 6C060000 		.4byte	.LASF403
 5111 185e 19       		.byte	0x19
 5112 185f 9A       		.byte	0x9a
 5113 1860 0A030000 		.4byte	0x30a
 5114 1864 2C       		.byte	0x2c
 5115 1865 06       		.uleb128 0x6
 5116 1866 F90A0000 		.4byte	.LASF404
 5117 186a 19       		.byte	0x19
 5118 186b 9B       		.byte	0x9b
 5119 186c B1040000 		.4byte	0x4b1
 5120 1870 30       		.byte	0x30
 5121 1871 06       		.uleb128 0x6
 5122 1872 54060000 		.4byte	.LASF405
 5123 1876 19       		.byte	0x19
 5124 1877 9D       		.byte	0x9d
 5125 1878 71040000 		.4byte	0x471
 5126 187c 38       		.byte	0x38
 5127 187d 0D       		.uleb128 0xd
 5128 187e 02050000 		.4byte	.LASF406
 5129 1882 19       		.byte	0x19
 5130 1883 9F       		.byte	0x9f
 5131 1884 BC040000 		.4byte	0x4bc
 5132 1888 01       		.byte	0x1
 5133 1889 04       		.byte	0x4
 5134 188a 04       		.byte	0x4
 5135 188b 3C       		.byte	0x3c
 5136 188c 0D       		.uleb128 0xd
 5137 188d 221D0000 		.4byte	.LASF407
 5138 1891 19       		.byte	0x19
 5139 1892 A0       		.byte	0xa0
 5140 1893 BC040000 		.4byte	0x4bc
 5141 1897 01       		.byte	0x1
 5142 1898 04       		.byte	0x4
 5143 1899 00       		.byte	0
 5144 189a 3C       		.byte	0x3c
 5145 189b 0D       		.uleb128 0xd
 5146 189c 441D0000 		.4byte	.LASF408
 5147 18a0 19       		.byte	0x19
ARM GAS  C:\Users\haske\AppData\Local\Temp\ccHGZgRG.s 			page 105


 5148 18a1 A1       		.byte	0xa1
 5149 18a2 CA000000 		.4byte	0xca
 5150 18a6 01       		.byte	0x1
 5151 18a7 01       		.byte	0x1
 5152 18a8 07       		.byte	0x7
 5153 18a9 3D       		.byte	0x3d
 5154 18aa 00       		.byte	0
 5155 18ab 05       		.uleb128 0x5
 5156 18ac 08       		.byte	0x8
 5157 18ad 19       		.byte	0x19
 5158 18ae A3       		.byte	0xa3
 5159 18af CC180000 		.4byte	0x18cc
 5160 18b3 06       		.uleb128 0x6
 5161 18b4 D2180000 		.4byte	.LASF409
 5162 18b8 19       		.byte	0x19
 5163 18b9 A5       		.byte	0xa5
 5164 18ba 8B160000 		.4byte	0x168b
 5165 18be 00       		.byte	0
 5166 18bf 06       		.uleb128 0x6
 5167 18c0 021D0000 		.4byte	.LASF410
 5168 18c4 19       		.byte	0x19
 5169 18c5 A6       		.byte	0xa6
 5170 18c6 F6000000 		.4byte	0xf6
 5171 18ca 04       		.byte	0x4
 5172 18cb 00       		.byte	0
 5173 18cc 10       		.uleb128 0x10
 5174 18cd 40       		.byte	0x40
 5175 18ce 19       		.byte	0x19
 5176 18cf 8C       		.byte	0x8c
 5177 18d0 EB180000 		.4byte	0x18eb
 5178 18d4 12       		.uleb128 0x12
 5179 18d5 690E0000 		.4byte	.LASF411
 5180 18d9 19       		.byte	0x19
 5181 18da A2       		.byte	0xa2
 5182 18db CD170000 		.4byte	0x17cd
 5183 18df 12       		.uleb128 0x12
 5184 18e0 ED1E0000 		.4byte	.LASF412
 5185 18e4 19       		.byte	0x19
 5186 18e5 A7       		.byte	0xa7
 5187 18e6 AB180000 		.4byte	0x18ab
 5188 18ea 00       		.byte	0
 5189 18eb 0C       		.uleb128 0xc
 5190 18ec 2D1A0000 		.4byte	.LASF413
 5191 18f0 4C       		.byte	0x4c
 5192 18f1 19       		.byte	0x19
 5193 18f2 84       		.byte	0x84
 5194 18f3 64190000 		.4byte	0x1964
 5195 18f7 06       		.uleb128 0x6
 5196 18f8 0E020000 		.4byte	.LASF51
 5197 18fc 19       		.byte	0x19
 5198 18fd 85       		.byte	0x85
 5199 18fe 8B160000 		.4byte	0x168b
 5200 1902 00       		.byte	0
 5201 1903 0D       		.uleb128 0xd
 5202 1904 FA230000 		.4byte	.LASF414
 5203 1908 19       		.byte	0x19
 5204 1909 87       		.byte	0x87
ARM GAS  C:\Users\haske\AppData\Local\Temp\ccHGZgRG.s 			page 106


 5205 190a CA000000 		.4byte	0xca
 5206 190e 01       		.byte	0x1
 5207 190f 01       		.byte	0x1
 5208 1910 07       		.byte	0x7
 5209 1911 01       		.byte	0x1
 5210 1912 0D       		.uleb128 0xd
 5211 1913 3D1B0000 		.4byte	.LASF415
 5212 1917 19       		.byte	0x19
 5213 1918 88       		.byte	0x88
 5214 1919 CA000000 		.4byte	0xca
 5215 191d 01       		.byte	0x1
 5216 191e 01       		.byte	0x1
 5217 191f 06       		.byte	0x6
 5218 1920 01       		.byte	0x1
 5219 1921 0D       		.uleb128 0xd
 5220 1922 6A220000 		.4byte	.LASF416
 5221 1926 19       		.byte	0x19
 5222 1927 89       		.byte	0x89
 5223 1928 CA000000 		.4byte	0xca
 5224 192c 01       		.byte	0x1
 5225 192d 01       		.byte	0x1
 5226 192e 05       		.byte	0x5
 5227 192f 01       		.byte	0x1
 5228 1930 0D       		.uleb128 0xd
 5229 1931 050F0000 		.4byte	.LASF417
 5230 1935 19       		.byte	0x19
 5231 1936 8A       		.byte	0x8a
 5232 1937 CA000000 		.4byte	0xca
 5233 193b 01       		.byte	0x1
 5234 193c 01       		.byte	0x1
 5235 193d 04       		.byte	0x4
 5236 193e 01       		.byte	0x1
 5237 193f 06       		.uleb128 0x6
 5238 1940 CE070000 		.4byte	.LASF418
 5239 1944 19       		.byte	0x19
 5240 1945 A8       		.byte	0xa8
 5241 1946 CC180000 		.4byte	0x18cc
 5242 194a 04       		.byte	0x4
 5243 194b 06       		.uleb128 0x6
 5244 194c F3180000 		.4byte	.LASF419
 5245 1950 19       		.byte	0x19
 5246 1951 AA       		.byte	0xaa
 5247 1952 F6000000 		.4byte	0xf6
 5248 1956 44       		.byte	0x44
 5249 1957 06       		.uleb128 0x6
 5250 1958 C3160000 		.4byte	.LASF420
 5251 195c 19       		.byte	0x19
 5252 195d AB       		.byte	0xab
 5253 195e F6000000 		.4byte	0xf6
 5254 1962 48       		.byte	0x48
 5255 1963 00       		.byte	0
 5256 1964 03       		.uleb128 0x3
 5257 1965 2D1A0000 		.4byte	.LASF413
 5258 1969 19       		.byte	0x19
 5259 196a AC       		.byte	0xac
 5260 196b EB180000 		.4byte	0x18eb
 5261 196f 0C       		.uleb128 0xc
ARM GAS  C:\Users\haske\AppData\Local\Temp\ccHGZgRG.s 			page 107


 5262 1970 161D0000 		.4byte	.LASF421
 5263 1974 5C       		.byte	0x5c
 5264 1975 19       		.byte	0x19
 5265 1976 B0       		.byte	0xb0
 5266 1977 B8190000 		.4byte	0x19b8
 5267 197b 06       		.uleb128 0x6
 5268 197c B91D0000 		.4byte	.LASF347
 5269 1980 19       		.byte	0x19
 5270 1981 B1       		.byte	0xb1
 5271 1982 9F170000 		.4byte	0x179f
 5272 1986 00       		.byte	0
 5273 1987 06       		.uleb128 0x6
 5274 1988 960B0000 		.4byte	.LASF422
 5275 198c 19       		.byte	0x19
 5276 198d B2       		.byte	0xb2
 5277 198e 64190000 		.4byte	0x1964
 5278 1992 04       		.byte	0x4
 5279 1993 06       		.uleb128 0x6
 5280 1994 28250000 		.4byte	.LASF423
 5281 1998 19       		.byte	0x19
 5282 1999 B3       		.byte	0xb3
 5283 199a 0A030000 		.4byte	0x30a
 5284 199e 50       		.byte	0x50
 5285 199f 06       		.uleb128 0x6
 5286 19a0 2B120000 		.4byte	.LASF424
 5287 19a4 19       		.byte	0x19
 5288 19a5 B4       		.byte	0xb4
 5289 19a6 8A010000 		.4byte	0x18a
 5290 19aa 54       		.byte	0x54
 5291 19ab 06       		.uleb128 0x6
 5292 19ac D30E0000 		.4byte	.LASF425
 5293 19b0 19       		.byte	0x19
 5294 19b1 B5       		.byte	0xb5
 5295 19b2 55100000 		.4byte	0x1055
 5296 19b6 58       		.byte	0x58
 5297 19b7 00       		.byte	0
 5298 19b8 03       		.uleb128 0x3
 5299 19b9 C80E0000 		.4byte	.LASF426
 5300 19bd 19       		.byte	0x19
 5301 19be B7       		.byte	0xb7
 5302 19bf 6F190000 		.4byte	0x196f
 5303 19c3 08       		.uleb128 0x8
 5304 19c4 02       		.byte	0x2
 5305 19c5 8D000000 		.4byte	0x8d
 5306 19c9 08       		.byte	0x8
 5307 19ca 29       		.byte	0x29
 5308 19cb 291A0000 		.4byte	0x1a29
 5309 19cf 09       		.uleb128 0x9
 5310 19d0 041E0000 		.4byte	.LASF427
 5311 19d4 00       		.byte	0
 5312 19d5 09       		.uleb128 0x9
 5313 19d6 651F0000 		.4byte	.LASF428
 5314 19da 01       		.byte	0x1
 5315 19db 09       		.uleb128 0x9
 5316 19dc 18240000 		.4byte	.LASF429
 5317 19e0 02       		.byte	0x2
 5318 19e1 09       		.uleb128 0x9
ARM GAS  C:\Users\haske\AppData\Local\Temp\ccHGZgRG.s 			page 108


 5319 19e2 66050000 		.4byte	.LASF430
 5320 19e6 04       		.byte	0x4
 5321 19e7 09       		.uleb128 0x9
 5322 19e8 A4010000 		.4byte	.LASF431
 5323 19ec 08       		.byte	0x8
 5324 19ed 09       		.uleb128 0x9
 5325 19ee 43050000 		.4byte	.LASF432
 5326 19f2 10       		.byte	0x10
 5327 19f3 09       		.uleb128 0x9
 5328 19f4 62180000 		.4byte	.LASF433
 5329 19f8 20       		.byte	0x20
 5330 19f9 09       		.uleb128 0x9
 5331 19fa 050B0000 		.4byte	.LASF434
 5332 19fe 40       		.byte	0x40
 5333 19ff 09       		.uleb128 0x9
 5334 1a00 CC0D0000 		.4byte	.LASF435
 5335 1a04 80       		.byte	0x80
 5336 1a05 19       		.uleb128 0x19
 5337 1a06 C2200000 		.4byte	.LASF436
 5338 1a0a 0010     		.2byte	0x1000
 5339 1a0c 19       		.uleb128 0x19
 5340 1a0d D2200000 		.4byte	.LASF437
 5341 1a11 0020     		.2byte	0x2000
 5342 1a13 19       		.uleb128 0x19
 5343 1a14 E2200000 		.4byte	.LASF438
 5344 1a18 0040     		.2byte	0x4000
 5345 1a1a 19       		.uleb128 0x19
 5346 1a1b F2200000 		.4byte	.LASF439
 5347 1a1f 0080     		.2byte	0x8000
 5348 1a21 19       		.uleb128 0x19
 5349 1a22 21060000 		.4byte	.LASF440
 5350 1a26 FFFF     		.2byte	0xffff
 5351 1a28 00       		.byte	0
 5352 1a29 03       		.uleb128 0x3
 5353 1a2a 8D050000 		.4byte	.LASF441
 5354 1a2e 08       		.byte	0x8
 5355 1a2f 3C       		.byte	0x3c
 5356 1a30 E0000000 		.4byte	0xe0
 5357 1a34 08       		.uleb128 0x8
 5358 1a35 04       		.byte	0x4
 5359 1a36 37000000 		.4byte	0x37
 5360 1a3a 08       		.byte	0x8
 5361 1a3b 59       		.byte	0x59
 5362 1a3c 1C1B0000 		.4byte	0x1b1c
 5363 1a40 09       		.uleb128 0x9
 5364 1a41 70110000 		.4byte	.LASF442
 5365 1a45 01       		.byte	0x1
 5366 1a46 09       		.uleb128 0x9
 5367 1a47 2E150000 		.4byte	.LASF443
 5368 1a4b 02       		.byte	0x2
 5369 1a4c 09       		.uleb128 0x9
 5370 1a4d E91A0000 		.4byte	.LASF444
 5371 1a51 04       		.byte	0x4
 5372 1a52 09       		.uleb128 0x9
 5373 1a53 36110000 		.4byte	.LASF445
 5374 1a57 08       		.byte	0x8
 5375 1a58 09       		.uleb128 0x9
ARM GAS  C:\Users\haske\AppData\Local\Temp\ccHGZgRG.s 			page 109


 5376 1a59 82040000 		.4byte	.LASF446
 5377 1a5d 10       		.byte	0x10
 5378 1a5e 09       		.uleb128 0x9
 5379 1a5f BD140000 		.4byte	.LASF447
 5380 1a63 20       		.byte	0x20
 5381 1a64 09       		.uleb128 0x9
 5382 1a65 8A100000 		.4byte	.LASF448
 5383 1a69 40       		.byte	0x40
 5384 1a6a 09       		.uleb128 0x9
 5385 1a6b B6240000 		.4byte	.LASF449
 5386 1a6f 80       		.byte	0x80
 5387 1a70 19       		.uleb128 0x19
 5388 1a71 02220000 		.4byte	.LASF450
 5389 1a75 0001     		.2byte	0x100
 5390 1a77 19       		.uleb128 0x19
 5391 1a78 5D0F0000 		.4byte	.LASF451
 5392 1a7c 0002     		.2byte	0x200
 5393 1a7e 19       		.uleb128 0x19
 5394 1a7f 44070000 		.4byte	.LASF452
 5395 1a83 0003     		.2byte	0x300
 5396 1a85 19       		.uleb128 0x19
 5397 1a86 D8160000 		.4byte	.LASF453
 5398 1a8a 0004     		.2byte	0x400
 5399 1a8c 19       		.uleb128 0x19
 5400 1a8d C4050000 		.4byte	.LASF454
 5401 1a91 0008     		.2byte	0x800
 5402 1a93 19       		.uleb128 0x19
 5403 1a94 AE120000 		.4byte	.LASF455
 5404 1a98 0010     		.2byte	0x1000
 5405 1a9a 19       		.uleb128 0x19
 5406 1a9b 941E0000 		.4byte	.LASF456
 5407 1a9f 0020     		.2byte	0x2000
 5408 1aa1 19       		.uleb128 0x19
 5409 1aa2 CC0C0000 		.4byte	.LASF457
 5410 1aa6 0040     		.2byte	0x4000
 5411 1aa8 19       		.uleb128 0x19
 5412 1aa9 17140000 		.4byte	.LASF458
 5413 1aad 0080     		.2byte	0x8000
 5414 1aaf 24       		.uleb128 0x24
 5415 1ab0 98050000 		.4byte	.LASF459
 5416 1ab4 00000100 		.4byte	0x10000
 5417 1ab8 24       		.uleb128 0x24
 5418 1ab9 8C170000 		.4byte	.LASF460
 5419 1abd 00000200 		.4byte	0x20000
 5420 1ac1 24       		.uleb128 0x24
 5421 1ac2 480F0000 		.4byte	.LASF461
 5422 1ac6 00000400 		.4byte	0x40000
 5423 1aca 24       		.uleb128 0x24
 5424 1acb CC0F0000 		.4byte	.LASF462
 5425 1acf 00000800 		.4byte	0x80000
 5426 1ad3 24       		.uleb128 0x24
 5427 1ad4 D8060000 		.4byte	.LASF463
 5428 1ad8 00008000 		.4byte	0x800000
 5429 1adc 24       		.uleb128 0x24
 5430 1add ED060000 		.4byte	.LASF464
 5431 1ae1 00000001 		.4byte	0x1000000
 5432 1ae5 24       		.uleb128 0x24
ARM GAS  C:\Users\haske\AppData\Local\Temp\ccHGZgRG.s 			page 110


 5433 1ae6 7D070000 		.4byte	.LASF465
 5434 1aea 00000002 		.4byte	0x2000000
 5435 1aee 24       		.uleb128 0x24
 5436 1aef 92070000 		.4byte	.LASF466
 5437 1af3 00000004 		.4byte	0x4000000
 5438 1af7 24       		.uleb128 0x24
 5439 1af8 A60D0000 		.4byte	.LASF467
 5440 1afc 00000008 		.4byte	0x8000000
 5441 1b00 24       		.uleb128 0x24
 5442 1b01 B90D0000 		.4byte	.LASF468
 5443 1b05 00000010 		.4byte	0x10000000
 5444 1b09 24       		.uleb128 0x24
 5445 1b0a 9B220000 		.4byte	.LASF469
 5446 1b0e 00000020 		.4byte	0x20000000
 5447 1b12 24       		.uleb128 0x24
 5448 1b13 DE0D0000 		.4byte	.LASF470
 5449 1b17 00000040 		.4byte	0x40000000
 5450 1b1b 00       		.byte	0
 5451 1b1c 03       		.uleb128 0x3
 5452 1b1d 39220000 		.4byte	.LASF471
 5453 1b21 08       		.byte	0x8
 5454 1b22 7D       		.byte	0x7d
 5455 1b23 F6000000 		.4byte	0xf6
 5456 1b27 03       		.uleb128 0x3
 5457 1b28 0F010000 		.4byte	.LASF472
 5458 1b2c 1A       		.byte	0x1a
 5459 1b2d 26       		.byte	0x26
 5460 1b2e CA000000 		.4byte	0xca
 5461 1b32 03       		.uleb128 0x3
 5462 1b33 C1180000 		.4byte	.LASF473
 5463 1b37 1A       		.byte	0x1a
 5464 1b38 30       		.byte	0x30
 5465 1b39 CA000000 		.4byte	0xca
 5466 1b3d 05       		.uleb128 0x5
 5467 1b3e 08       		.byte	0x8
 5468 1b3f 1B       		.byte	0x1b
 5469 1b40 27       		.byte	0x27
 5470 1b41 7F1B0000 		.4byte	0x1b7f
 5471 1b45 06       		.uleb128 0x6
 5472 1b46 AA180000 		.4byte	.LASF474
 5473 1b4a 1B       		.byte	0x1b
 5474 1b4b 28       		.byte	0x28
 5475 1b4c 7F1B0000 		.4byte	0x1b7f
 5476 1b50 00       		.byte	0
 5477 1b51 0D       		.uleb128 0xd
 5478 1b52 95230000 		.4byte	.LASF475
 5479 1b56 1B       		.byte	0x1b
 5480 1b57 29       		.byte	0x29
 5481 1b58 F6000000 		.4byte	0xf6
 5482 1b5c 04       		.byte	0x4
 5483 1b5d 18       		.byte	0x18
 5484 1b5e 08       		.byte	0x8
 5485 1b5f 04       		.byte	0x4
 5486 1b60 0D       		.uleb128 0xd
 5487 1b61 36020000 		.4byte	.LASF476
 5488 1b65 1B       		.byte	0x1b
 5489 1b66 2A       		.byte	0x2a
ARM GAS  C:\Users\haske\AppData\Local\Temp\ccHGZgRG.s 			page 111


 5490 1b67 F6000000 		.4byte	0xf6
 5491 1b6b 04       		.byte	0x4
 5492 1b6c 01       		.byte	0x1
 5493 1b6d 07       		.byte	0x7
 5494 1b6e 04       		.byte	0x4
 5495 1b6f 0D       		.uleb128 0xd
 5496 1b70 A50E0000 		.4byte	.LASF477
 5497 1b74 1B       		.byte	0x1b
 5498 1b75 2B       		.byte	0x2b
 5499 1b76 F6000000 		.4byte	0xf6
 5500 1b7a 04       		.byte	0x4
 5501 1b7b 01       		.byte	0x1
 5502 1b7c 06       		.byte	0x6
 5503 1b7d 04       		.byte	0x4
 5504 1b7e 00       		.byte	0
 5505 1b7f 07       		.uleb128 0x7
 5506 1b80 04       		.byte	0x4
 5507 1b81 370A0000 		.4byte	0xa37
 5508 1b85 03       		.uleb128 0x3
 5509 1b86 F40B0000 		.4byte	.LASF478
 5510 1b8a 1B       		.byte	0x1b
 5511 1b8b 2C       		.byte	0x2c
 5512 1b8c 3D1B0000 		.4byte	0x1b3d
 5513 1b90 0C       		.uleb128 0xc
 5514 1b91 C61A0000 		.4byte	.LASF479
 5515 1b95 1C       		.byte	0x1c
 5516 1b96 1C       		.byte	0x1c
 5517 1b97 31       		.byte	0x31
 5518 1b98 1E1C0000 		.4byte	0x1c1e
 5519 1b9c 06       		.uleb128 0x6
 5520 1b9d FD170000 		.4byte	.LASF480
 5521 1ba1 1C       		.byte	0x1c
 5522 1ba2 32       		.byte	0x32
 5523 1ba3 1E1C0000 		.4byte	0x1c1e
 5524 1ba7 00       		.byte	0
 5525 1ba8 06       		.uleb128 0x6
 5526 1ba9 69020000 		.4byte	.LASF481
 5527 1bad 1C       		.byte	0x1c
 5528 1bae 33       		.byte	0x33
 5529 1baf C11C0000 		.4byte	0x1cc1
 5530 1bb3 04       		.byte	0x4
 5531 1bb4 06       		.uleb128 0x6
 5532 1bb5 581D0000 		.4byte	.LASF482
 5533 1bb9 1C       		.byte	0x1c
 5534 1bba 34       		.byte	0x34
 5535 1bbb C11C0000 		.4byte	0x1cc1
 5536 1bbf 08       		.byte	0x8
 5537 1bc0 06       		.uleb128 0x6
 5538 1bc1 28230000 		.4byte	.LASF36
 5539 1bc5 1C       		.byte	0x1c
 5540 1bc6 36       		.byte	0x36
 5541 1bc7 10030000 		.4byte	0x310
 5542 1bcb 0C       		.byte	0xc
 5543 1bcc 06       		.uleb128 0x6
 5544 1bcd 3A130000 		.4byte	.LASF483
 5545 1bd1 1C       		.byte	0x1c
 5546 1bd2 38       		.byte	0x38
ARM GAS  C:\Users\haske\AppData\Local\Temp\ccHGZgRG.s 			page 112


 5547 1bd3 D71C0000 		.4byte	0x1cd7
 5548 1bd7 10       		.byte	0x10
 5549 1bd8 06       		.uleb128 0x6
 5550 1bd9 3E0F0000 		.4byte	.LASF484
 5551 1bdd 1C       		.byte	0x1c
 5552 1bde 3A       		.byte	0x3a
 5553 1bdf 49040000 		.4byte	0x449
 5554 1be3 14       		.byte	0x14
 5555 1be4 06       		.uleb128 0x6
 5556 1be5 29240000 		.4byte	.LASF485
 5557 1be9 1C       		.byte	0x1c
 5558 1bea 3B       		.byte	0x3b
 5559 1beb 49040000 		.4byte	0x449
 5560 1bef 16       		.byte	0x16
 5561 1bf0 0D       		.uleb128 0xd
 5562 1bf1 07110000 		.4byte	.LASF486
 5563 1bf5 1C       		.byte	0x1c
 5564 1bf6 3C       		.byte	0x3c
 5565 1bf7 F6000000 		.4byte	0xf6
 5566 1bfb 04       		.byte	0x4
 5567 1bfc 02       		.byte	0x2
 5568 1bfd 1E       		.byte	0x1e
 5569 1bfe 18       		.byte	0x18
 5570 1bff 0D       		.uleb128 0xd
 5571 1c00 0D050000 		.4byte	.LASF487
 5572 1c04 1C       		.byte	0x1c
 5573 1c05 3D       		.byte	0x3d
 5574 1c06 F6000000 		.4byte	0xf6
 5575 1c0a 04       		.byte	0x4
 5576 1c0b 02       		.byte	0x2
 5577 1c0c 1C       		.byte	0x1c
 5578 1c0d 18       		.byte	0x18
 5579 1c0e 0D       		.uleb128 0xd
 5580 1c0f CA110000 		.4byte	.LASF488
 5581 1c13 1C       		.byte	0x1c
 5582 1c14 3E       		.byte	0x3e
 5583 1c15 F6000000 		.4byte	0xf6
 5584 1c19 04       		.byte	0x4
 5585 1c1a 10       		.byte	0x10
 5586 1c1b 0C       		.byte	0xc
 5587 1c1c 18       		.byte	0x18
 5588 1c1d 00       		.byte	0
 5589 1c1e 07       		.uleb128 0x7
 5590 1c1f 04       		.byte	0x4
 5591 1c20 241C0000 		.4byte	0x1c24
 5592 1c24 14       		.uleb128 0x14
 5593 1c25 901B0000 		.4byte	0x1b90
 5594 1c29 07       		.uleb128 0x7
 5595 1c2a 04       		.byte	0x4
 5596 1c2b 2F1C0000 		.4byte	0x1c2f
 5597 1c2f 0C       		.uleb128 0xc
 5598 1c30 63130000 		.4byte	.LASF489
 5599 1c34 1C       		.byte	0x1c
 5600 1c35 1D       		.byte	0x1d
 5601 1c36 5E       		.byte	0x5e
 5602 1c37 B11C0000 		.4byte	0x1cb1
 5603 1c3b 06       		.uleb128 0x6
ARM GAS  C:\Users\haske\AppData\Local\Temp\ccHGZgRG.s 			page 113


 5604 1c3c CA100000 		.4byte	.LASF490
 5605 1c40 1D       		.byte	0x1d
 5606 1c41 5F       		.byte	0x5f
 5607 1c42 0A030000 		.4byte	0x30a
 5608 1c46 00       		.byte	0
 5609 1c47 06       		.uleb128 0x6
 5610 1c48 121F0000 		.4byte	.LASF491
 5611 1c4c 1D       		.byte	0x1d
 5612 1c4d 60       		.byte	0x60
 5613 1c4e 0A030000 		.4byte	0x30a
 5614 1c52 04       		.byte	0x4
 5615 1c53 06       		.uleb128 0x6
 5616 1c54 0D190000 		.4byte	.LASF492
 5617 1c58 1D       		.byte	0x1d
 5618 1c59 61       		.byte	0x61
 5619 1c5a 0F1E0000 		.4byte	0x1e0f
 5620 1c5e 08       		.byte	0x8
 5621 1c5f 06       		.uleb128 0x6
 5622 1c60 28230000 		.4byte	.LASF36
 5623 1c64 1D       		.byte	0x1d
 5624 1c65 62       		.byte	0x62
 5625 1c66 10030000 		.4byte	0x310
 5626 1c6a 0C       		.byte	0xc
 5627 1c6b 06       		.uleb128 0x6
 5628 1c6c C4100000 		.4byte	.LASF493
 5629 1c70 1D       		.byte	0x1d
 5630 1c71 63       		.byte	0x63
 5631 1c72 10030000 		.4byte	0x310
 5632 1c76 10       		.byte	0x10
 5633 1c77 06       		.uleb128 0x6
 5634 1c78 01250000 		.4byte	.LASF494
 5635 1c7c 1D       		.byte	0x1d
 5636 1c7d 64       		.byte	0x64
 5637 1c7e 291C0000 		.4byte	0x1c29
 5638 1c82 14       		.byte	0x14
 5639 1c83 0D       		.uleb128 0xd
 5640 1c84 8A130000 		.4byte	.LASF495
 5641 1c88 1D       		.byte	0x1d
 5642 1c89 65       		.byte	0x65
 5643 1c8a CA000000 		.4byte	0xca
 5644 1c8e 01       		.byte	0x1
 5645 1c8f 01       		.byte	0x1
 5646 1c90 07       		.byte	0x7
 5647 1c91 18       		.byte	0x18
 5648 1c92 0D       		.uleb128 0xd
 5649 1c93 EF090000 		.4byte	.LASF496
 5650 1c97 1D       		.byte	0x1d
 5651 1c98 66       		.byte	0x66
 5652 1c99 CA000000 		.4byte	0xca
 5653 1c9d 01       		.byte	0x1
 5654 1c9e 01       		.byte	0x1
 5655 1c9f 06       		.byte	0x6
 5656 1ca0 18       		.byte	0x18
 5657 1ca1 0D       		.uleb128 0xd
 5658 1ca2 48170000 		.4byte	.LASF497
 5659 1ca6 1D       		.byte	0x1d
 5660 1ca7 67       		.byte	0x67
ARM GAS  C:\Users\haske\AppData\Local\Temp\ccHGZgRG.s 			page 114


 5661 1ca8 CA000000 		.4byte	0xca
 5662 1cac 01       		.byte	0x1
 5663 1cad 01       		.byte	0x1
 5664 1cae 05       		.byte	0x5
 5665 1caf 18       		.byte	0x18
 5666 1cb0 00       		.byte	0
 5667 1cb1 0A       		.uleb128 0xa
 5668 1cb2 C11C0000 		.4byte	0x1cc1
 5669 1cb6 0B       		.uleb128 0xb
 5670 1cb7 1E1C0000 		.4byte	0x1c1e
 5671 1cbb 0B       		.uleb128 0xb
 5672 1cbc 0A030000 		.4byte	0x30a
 5673 1cc0 00       		.byte	0
 5674 1cc1 07       		.uleb128 0x7
 5675 1cc2 04       		.byte	0x4
 5676 1cc3 B11C0000 		.4byte	0x1cb1
 5677 1cc7 0A       		.uleb128 0xa
 5678 1cc8 D71C0000 		.4byte	0x1cd7
 5679 1ccc 0B       		.uleb128 0xb
 5680 1ccd 1E1C0000 		.4byte	0x1c1e
 5681 1cd1 0B       		.uleb128 0xb
 5682 1cd2 291C0000 		.4byte	0x1c29
 5683 1cd6 00       		.byte	0
 5684 1cd7 07       		.uleb128 0x7
 5685 1cd8 04       		.byte	0x4
 5686 1cd9 C71C0000 		.4byte	0x1cc7
 5687 1cdd 03       		.uleb128 0x3
 5688 1cde 2D0E0000 		.4byte	.LASF498
 5689 1ce2 1C       		.byte	0x1c
 5690 1ce3 3F       		.byte	0x3f
 5691 1ce4 901B0000 		.4byte	0x1b90
 5692 1ce8 08       		.uleb128 0x8
 5693 1ce9 01       		.byte	0x1
 5694 1cea 69000000 		.4byte	0x69
 5695 1cee 1D       		.byte	0x1d
 5696 1cef 20       		.byte	0x20
 5697 1cf0 0F1E0000 		.4byte	0x1e0f
 5698 1cf4 09       		.uleb128 0x9
 5699 1cf5 AC040000 		.4byte	.LASF499
 5700 1cf9 00       		.byte	0
 5701 1cfa 09       		.uleb128 0x9
 5702 1cfb B4190000 		.4byte	.LASF500
 5703 1cff 01       		.byte	0x1
 5704 1d00 09       		.uleb128 0x9
 5705 1d01 7A170000 		.4byte	.LASF501
 5706 1d05 02       		.byte	0x2
 5707 1d06 09       		.uleb128 0x9
 5708 1d07 32230000 		.4byte	.LASF502
 5709 1d0b 03       		.byte	0x3
 5710 1d0c 09       		.uleb128 0x9
 5711 1d0d 08180000 		.4byte	.LASF503
 5712 1d11 04       		.byte	0x4
 5713 1d12 09       		.uleb128 0x9
 5714 1d13 C2020000 		.4byte	.LASF504
 5715 1d17 05       		.byte	0x5
 5716 1d18 09       		.uleb128 0x9
 5717 1d19 31180000 		.4byte	.LASF505
ARM GAS  C:\Users\haske\AppData\Local\Temp\ccHGZgRG.s 			page 115


 5718 1d1d 06       		.byte	0x6
 5719 1d1e 09       		.uleb128 0x9
 5720 1d1f F10D0000 		.4byte	.LASF506
 5721 1d23 07       		.byte	0x7
 5722 1d24 09       		.uleb128 0x9
 5723 1d25 4C250000 		.4byte	.LASF507
 5724 1d29 08       		.byte	0x8
 5725 1d2a 09       		.uleb128 0x9
 5726 1d2b FD140000 		.4byte	.LASF508
 5727 1d2f 09       		.byte	0x9
 5728 1d30 09       		.uleb128 0x9
 5729 1d31 8F200000 		.4byte	.LASF509
 5730 1d35 0A       		.byte	0xa
 5731 1d36 09       		.uleb128 0x9
 5732 1d37 B5130000 		.4byte	.LASF510
 5733 1d3b 0B       		.byte	0xb
 5734 1d3c 09       		.uleb128 0x9
 5735 1d3d B1020000 		.4byte	.LASF511
 5736 1d41 0C       		.byte	0xc
 5737 1d42 09       		.uleb128 0x9
 5738 1d43 DD220000 		.4byte	.LASF512
 5739 1d47 0D       		.byte	0xd
 5740 1d48 09       		.uleb128 0x9
 5741 1d49 AE230000 		.4byte	.LASF513
 5742 1d4d 0E       		.byte	0xe
 5743 1d4e 09       		.uleb128 0x9
 5744 1d4f 0D200000 		.4byte	.LASF514
 5745 1d53 0F       		.byte	0xf
 5746 1d54 09       		.uleb128 0x9
 5747 1d55 44100000 		.4byte	.LASF515
 5748 1d59 10       		.byte	0x10
 5749 1d5a 09       		.uleb128 0x9
 5750 1d5b 170B0000 		.4byte	.LASF516
 5751 1d5f 11       		.byte	0x11
 5752 1d60 09       		.uleb128 0x9
 5753 1d61 990A0000 		.4byte	.LASF517
 5754 1d65 12       		.byte	0x12
 5755 1d66 09       		.uleb128 0x9
 5756 1d67 3A120000 		.4byte	.LASF518
 5757 1d6b 13       		.byte	0x13
 5758 1d6c 09       		.uleb128 0x9
 5759 1d6d 7A000000 		.4byte	.LASF519
 5760 1d71 14       		.byte	0x14
 5761 1d72 09       		.uleb128 0x9
 5762 1d73 EB070000 		.4byte	.LASF520
 5763 1d77 15       		.byte	0x15
 5764 1d78 09       		.uleb128 0x9
 5765 1d79 520E0000 		.4byte	.LASF521
 5766 1d7d 16       		.byte	0x16
 5767 1d7e 09       		.uleb128 0x9
 5768 1d7f 9F150000 		.4byte	.LASF522
 5769 1d83 17       		.byte	0x17
 5770 1d84 09       		.uleb128 0x9
 5771 1d85 D6210000 		.4byte	.LASF523
 5772 1d89 18       		.byte	0x18
 5773 1d8a 09       		.uleb128 0x9
 5774 1d8b BD1E0000 		.4byte	.LASF524
ARM GAS  C:\Users\haske\AppData\Local\Temp\ccHGZgRG.s 			page 116


 5775 1d8f 19       		.byte	0x19
 5776 1d90 09       		.uleb128 0x9
 5777 1d91 D41E0000 		.4byte	.LASF525
 5778 1d95 1A       		.byte	0x1a
 5779 1d96 09       		.uleb128 0x9
 5780 1d97 36060000 		.4byte	.LASF526
 5781 1d9b 1B       		.byte	0x1b
 5782 1d9c 09       		.uleb128 0x9
 5783 1d9d 53160000 		.4byte	.LASF527
 5784 1da1 1C       		.byte	0x1c
 5785 1da2 09       		.uleb128 0x9
 5786 1da3 42010000 		.4byte	.LASF528
 5787 1da7 1D       		.byte	0x1d
 5788 1da8 09       		.uleb128 0x9
 5789 1da9 B9110000 		.4byte	.LASF529
 5790 1dad 1E       		.byte	0x1e
 5791 1dae 09       		.uleb128 0x9
 5792 1daf BD210000 		.4byte	.LASF530
 5793 1db3 1F       		.byte	0x1f
 5794 1db4 09       		.uleb128 0x9
 5795 1db5 C5190000 		.4byte	.LASF531
 5796 1db9 20       		.byte	0x20
 5797 1dba 09       		.uleb128 0x9
 5798 1dbb 87150000 		.4byte	.LASF532
 5799 1dbf 21       		.byte	0x21
 5800 1dc0 09       		.uleb128 0x9
 5801 1dc1 F7010000 		.4byte	.LASF533
 5802 1dc5 22       		.byte	0x22
 5803 1dc6 09       		.uleb128 0x9
 5804 1dc7 1A030000 		.4byte	.LASF534
 5805 1dcb 23       		.byte	0x23
 5806 1dcc 09       		.uleb128 0x9
 5807 1dcd 14120000 		.4byte	.LASF535
 5808 1dd1 24       		.byte	0x24
 5809 1dd2 09       		.uleb128 0x9
 5810 1dd3 46240000 		.4byte	.LASF536
 5811 1dd7 25       		.byte	0x25
 5812 1dd8 09       		.uleb128 0x9
 5813 1dd9 2D170000 		.4byte	.LASF537
 5814 1ddd 26       		.byte	0x26
 5815 1dde 09       		.uleb128 0x9
 5816 1ddf B70B0000 		.4byte	.LASF538
 5817 1de3 27       		.byte	0x27
 5818 1de4 09       		.uleb128 0x9
 5819 1de5 971C0000 		.4byte	.LASF539
 5820 1de9 28       		.byte	0x28
 5821 1dea 09       		.uleb128 0x9
 5822 1deb 47220000 		.4byte	.LASF540
 5823 1def 29       		.byte	0x29
 5824 1df0 09       		.uleb128 0x9
 5825 1df1 A6210000 		.4byte	.LASF541
 5826 1df5 2A       		.byte	0x2a
 5827 1df6 09       		.uleb128 0x9
 5828 1df7 83220000 		.4byte	.LASF542
 5829 1dfb 2B       		.byte	0x2b
 5830 1dfc 09       		.uleb128 0x9
 5831 1dfd D4070000 		.4byte	.LASF543
ARM GAS  C:\Users\haske\AppData\Local\Temp\ccHGZgRG.s 			page 117


 5832 1e01 2C       		.byte	0x2c
 5833 1e02 09       		.uleb128 0x9
 5834 1e03 93000000 		.4byte	.LASF544
 5835 1e07 2D       		.byte	0x2d
 5836 1e08 09       		.uleb128 0x9
 5837 1e09 6A100000 		.4byte	.LASF545
 5838 1e0d 80       		.byte	0x80
 5839 1e0e 00       		.byte	0
 5840 1e0f 03       		.uleb128 0x3
 5841 1e10 43130000 		.4byte	.LASF546
 5842 1e14 1D       		.byte	0x1d
 5843 1e15 5C       		.byte	0x5c
 5844 1e16 E81C0000 		.4byte	0x1ce8
 5845 1e1a 05       		.uleb128 0x5
 5846 1e1b 1C       		.byte	0x1c
 5847 1e1c 08       		.byte	0x8
 5848 1e1d 9B       		.byte	0x9b
 5849 1e1e D11E0000 		.4byte	0x1ed1
 5850 1e22 06       		.uleb128 0x6
 5851 1e23 7A030000 		.4byte	.LASF547
 5852 1e27 08       		.byte	0x8
 5853 1e28 9C       		.byte	0x9c
 5854 1e29 04030000 		.4byte	0x304
 5855 1e2d 00       		.byte	0
 5856 1e2e 06       		.uleb128 0x6
 5857 1e2f 11100000 		.4byte	.LASF548
 5858 1e33 08       		.byte	0x8
 5859 1e34 9D       		.byte	0x9d
 5860 1e35 F6000000 		.4byte	0xf6
 5861 1e39 04       		.byte	0x4
 5862 1e3a 06       		.uleb128 0x6
 5863 1e3b B40C0000 		.4byte	.LASF549
 5864 1e3f 08       		.byte	0x8
 5865 1e40 9E       		.byte	0x9e
 5866 1e41 D11E0000 		.4byte	0x1ed1
 5867 1e45 08       		.byte	0x8
 5868 1e46 06       		.uleb128 0x6
 5869 1e47 570C0000 		.4byte	.LASF550
 5870 1e4b 08       		.byte	0x8
 5871 1e4c A0       		.byte	0xa0
 5872 1e4d DC1E0000 		.4byte	0x1edc
 5873 1e51 0C       		.byte	0xc
 5874 1e52 06       		.uleb128 0x6
 5875 1e53 F10C0000 		.4byte	.LASF551
 5876 1e57 08       		.byte	0x8
 5877 1e58 A1       		.byte	0xa1
 5878 1e59 71040000 		.4byte	0x471
 5879 1e5d 10       		.byte	0x10
 5880 1e5e 06       		.uleb128 0x6
 5881 1e5f 491F0000 		.4byte	.LASF552
 5882 1e63 08       		.byte	0x8
 5883 1e64 A3       		.byte	0xa3
 5884 1e65 49040000 		.4byte	0x449
 5885 1e69 14       		.byte	0x14
 5886 1e6a 06       		.uleb128 0x6
 5887 1e6b 850D0000 		.4byte	.LASF553
 5888 1e6f 08       		.byte	0x8
ARM GAS  C:\Users\haske\AppData\Local\Temp\ccHGZgRG.s 			page 118


 5889 1e70 A4       		.byte	0xa4
 5890 1e71 49040000 		.4byte	0x449
 5891 1e75 16       		.byte	0x16
 5892 1e76 0D       		.uleb128 0xd
 5893 1e77 0A090000 		.4byte	.LASF554
 5894 1e7b 08       		.byte	0x8
 5895 1e7c A6       		.byte	0xa6
 5896 1e7d 271B0000 		.4byte	0x1b27
 5897 1e81 01       		.byte	0x1
 5898 1e82 02       		.byte	0x2
 5899 1e83 06       		.byte	0x6
 5900 1e84 18       		.byte	0x18
 5901 1e85 0D       		.uleb128 0xd
 5902 1e86 BE010000 		.4byte	.LASF555
 5903 1e8a 08       		.byte	0x8
 5904 1e8b A7       		.byte	0xa7
 5905 1e8c 321B0000 		.4byte	0x1b32
 5906 1e90 01       		.byte	0x1
 5907 1e91 02       		.byte	0x2
 5908 1e92 04       		.byte	0x4
 5909 1e93 18       		.byte	0x18
 5910 1e94 0D       		.uleb128 0xd
 5911 1e95 CC010000 		.4byte	.LASF556
 5912 1e99 08       		.byte	0x8
 5913 1e9a A8       		.byte	0xa8
 5914 1e9b 321B0000 		.4byte	0x1b32
 5915 1e9f 01       		.byte	0x1
 5916 1ea0 02       		.byte	0x2
 5917 1ea1 02       		.byte	0x2
 5918 1ea2 18       		.byte	0x18
 5919 1ea3 0D       		.uleb128 0xd
 5920 1ea4 02050000 		.4byte	.LASF406
 5921 1ea8 08       		.byte	0x8
 5922 1ea9 A9       		.byte	0xa9
 5923 1eaa BC040000 		.4byte	0x4bc
 5924 1eae 01       		.byte	0x1
 5925 1eaf 04       		.byte	0x4
 5926 1eb0 04       		.byte	0x4
 5927 1eb1 19       		.byte	0x19
 5928 1eb2 0D       		.uleb128 0xd
 5929 1eb3 C5250000 		.4byte	.LASF557
 5930 1eb7 08       		.byte	0x8
 5931 1eb8 AA       		.byte	0xaa
 5932 1eb9 CA000000 		.4byte	0xca
 5933 1ebd 01       		.byte	0x1
 5934 1ebe 06       		.byte	0x6
 5935 1ebf 02       		.byte	0x2
 5936 1ec0 1A       		.byte	0x1a
 5937 1ec1 0D       		.uleb128 0xd
 5938 1ec2 2D0D0000 		.4byte	.LASF558
 5939 1ec6 08       		.byte	0x8
 5940 1ec7 AB       		.byte	0xab
 5941 1ec8 CA000000 		.4byte	0xca
 5942 1ecc 01       		.byte	0x1
 5943 1ecd 02       		.byte	0x2
 5944 1ece 00       		.byte	0
 5945 1ecf 1A       		.byte	0x1a
ARM GAS  C:\Users\haske\AppData\Local\Temp\ccHGZgRG.s 			page 119


 5946 1ed0 00       		.byte	0
 5947 1ed1 07       		.uleb128 0x7
 5948 1ed2 04       		.byte	0x4
 5949 1ed3 12030000 		.4byte	0x312
 5950 1ed7 23       		.uleb128 0x23
 5951 1ed8 46230000 		.4byte	.LASF560
 5952 1edc 07       		.uleb128 0x7
 5953 1edd 04       		.byte	0x4
 5954 1ede D71E0000 		.4byte	0x1ed7
 5955 1ee2 03       		.uleb128 0x3
 5956 1ee3 3D0B0000 		.4byte	.LASF561
 5957 1ee7 08       		.byte	0x8
 5958 1ee8 AC       		.byte	0xac
 5959 1ee9 1A1E0000 		.4byte	0x1e1a
 5960 1eed 07       		.uleb128 0x7
 5961 1eee 04       		.byte	0x4
 5962 1eef F31E0000 		.4byte	0x1ef3
 5963 1ef3 14       		.uleb128 0x14
 5964 1ef4 DD1C0000 		.4byte	0x1cdd
 5965 1ef8 07       		.uleb128 0x7
 5966 1ef9 04       		.byte	0x4
 5967 1efa E21E0000 		.4byte	0x1ee2
 5968 1efe 07       		.uleb128 0x7
 5969 1eff 04       		.byte	0x4
 5970 1f00 851B0000 		.4byte	0x1b85
 5971 1f04 03       		.uleb128 0x3
 5972 1f05 BC250000 		.4byte	.LASF562
 5973 1f09 08       		.byte	0x8
 5974 1f0a BF       		.byte	0xbf
 5975 1f0b 3D020000 		.4byte	0x23d
 5976 1f0f 25       		.uleb128 0x25
 5977 1f10 52190000 		.4byte	.LASF567
 5978 1f14 01       		.byte	0x1
 5979 1f15 DC01     		.2byte	0x1dc
 5980 1f17 C81F0000 		.4byte	0x1fc8
 5981 1f1b 00000000 		.4byte	.LFB186
 5982 1f1f 56000000 		.4byte	.LFE186-.LFB186
 5983 1f23 01       		.uleb128 0x1
 5984 1f24 9C       		.byte	0x9c
 5985 1f25 C81F0000 		.4byte	0x1fc8
 5986 1f29 26       		.uleb128 0x26
 5987 1f2a 6700     		.ascii	"g\000"
 5988 1f2c 01       		.byte	0x1
 5989 1f2d DC01     		.2byte	0x1dc
 5990 1f2f CE1F0000 		.4byte	0x1fce
 5991 1f33 00000000 		.4byte	.LLST0
 5992 1f37 27       		.uleb128 0x27
 5993 1f38 1F220000 		.4byte	.LASF563
 5994 1f3c 01       		.byte	0x1
 5995 1f3d DE01     		.2byte	0x1de
 5996 1f3f C81F0000 		.4byte	0x1fc8
 5997 1f43 2C000000 		.4byte	.LLST1
 5998 1f47 27       		.uleb128 0x27
 5999 1f48 2D220000 		.4byte	.LASF564
 6000 1f4c 01       		.byte	0x1
 6001 1f4d DF01     		.2byte	0x1df
 6002 1f4f C81F0000 		.4byte	0x1fc8
ARM GAS  C:\Users\haske\AppData\Local\Temp\ccHGZgRG.s 			page 120


 6003 1f53 4B000000 		.4byte	.LLST2
 6004 1f57 27       		.uleb128 0x27
 6005 1f58 FF0E0000 		.4byte	.LASF565
 6006 1f5c 01       		.byte	0x1
 6007 1f5d E001     		.2byte	0x1e0
 6008 1f5f C81F0000 		.4byte	0x1fc8
 6009 1f63 80000000 		.4byte	.LLST3
 6010 1f67 28       		.uleb128 0x28
 6011 1f68 00000000 		.4byte	.Ldebug_ranges0+0
 6012 1f6c A51F0000 		.4byte	0x1fa5
 6013 1f70 27       		.uleb128 0x27
 6014 1f71 5A150000 		.4byte	.LASF566
 6015 1f75 01       		.byte	0x1
 6016 1f76 E201     		.2byte	0x1e2
 6017 1f78 67160000 		.4byte	0x1667
 6018 1f7c E0000000 		.4byte	.LLST4
 6019 1f80 29       		.uleb128 0x29
 6020 1f81 18000000 		.4byte	.LVL7
 6021 1f85 0C2D0000 		.4byte	0x2d0c
 6022 1f89 941F0000 		.4byte	0x1f94
 6023 1f8d 2A       		.uleb128 0x2a
 6024 1f8e 01       		.uleb128 0x1
 6025 1f8f 50       		.byte	0x50
 6026 1f90 02       		.uleb128 0x2
 6027 1f91 74       		.byte	0x74
 6028 1f92 00       		.sleb128 0
 6029 1f93 00       		.byte	0
 6030 1f94 2B       		.uleb128 0x2b
 6031 1f95 34000000 		.4byte	.LVL13
 6032 1f99 172D0000 		.4byte	0x2d17
 6033 1f9d 2A       		.uleb128 0x2a
 6034 1f9e 01       		.uleb128 0x1
 6035 1f9f 50       		.byte	0x50
 6036 1fa0 02       		.uleb128 0x2
 6037 1fa1 74       		.byte	0x74
 6038 1fa2 00       		.sleb128 0
 6039 1fa3 00       		.byte	0
 6040 1fa4 00       		.byte	0
 6041 1fa5 29       		.uleb128 0x29
 6042 1fa6 0A000000 		.4byte	.LVL3
 6043 1faa 172D0000 		.4byte	0x2d17
 6044 1fae B81F0000 		.4byte	0x1fb8
 6045 1fb2 2A       		.uleb128 0x2a
 6046 1fb3 01       		.uleb128 0x1
 6047 1fb4 50       		.byte	0x50
 6048 1fb5 01       		.uleb128 0x1
 6049 1fb6 30       		.byte	0x30
 6050 1fb7 00       		.byte	0
 6051 1fb8 2B       		.uleb128 0x2b
 6052 1fb9 48000000 		.4byte	.LVL16
 6053 1fbd 172D0000 		.4byte	0x2d17
 6054 1fc1 2A       		.uleb128 0x2a
 6055 1fc2 01       		.uleb128 0x1
 6056 1fc3 50       		.byte	0x50
 6057 1fc4 01       		.uleb128 0x1
 6058 1fc5 30       		.byte	0x30
 6059 1fc6 00       		.byte	0
ARM GAS  C:\Users\haske\AppData\Local\Temp\ccHGZgRG.s 			page 121


 6060 1fc7 00       		.byte	0
 6061 1fc8 07       		.uleb128 0x7
 6062 1fc9 04       		.byte	0x4
 6063 1fca B8190000 		.4byte	0x19b8
 6064 1fce 07       		.uleb128 0x7
 6065 1fcf 04       		.byte	0x4
 6066 1fd0 D41F0000 		.4byte	0x1fd4
 6067 1fd4 14       		.uleb128 0x14
 6068 1fd5 12030000 		.4byte	0x312
 6069 1fd9 25       		.uleb128 0x25
 6070 1fda 31030000 		.4byte	.LASF568
 6071 1fde 01       		.byte	0x1
 6072 1fdf 8901     		.2byte	0x189
 6073 1fe1 36020000 		.4byte	0x236
 6074 1fe5 00000000 		.4byte	.LFB185
 6075 1fe9 18010000 		.4byte	.LFE185-.LFB185
 6076 1fed 01       		.uleb128 0x1
 6077 1fee 9C       		.byte	0x9c
 6078 1fef A2210000 		.4byte	0x21a2
 6079 1ff3 2C       		.uleb128 0x2c
 6080 1ff4 2B120000 		.4byte	.LASF424
 6081 1ff8 01       		.byte	0x1
 6082 1ff9 8901     		.2byte	0x189
 6083 1ffb D11E0000 		.4byte	0x1ed1
 6084 1fff FE000000 		.4byte	.LLST5
 6085 2003 2C       		.uleb128 0x2c
 6086 2004 39190000 		.4byte	.LASF569
 6087 2008 01       		.byte	0x1
 6088 2009 8901     		.2byte	0x189
 6089 200b BC210000 		.4byte	0x21bc
 6090 200f 40010000 		.4byte	.LLST6
 6091 2013 2C       		.uleb128 0x2c
 6092 2014 53100000 		.4byte	.LASF570
 6093 2018 01       		.byte	0x1
 6094 2019 8A01     		.2byte	0x18a
 6095 201b D6210000 		.4byte	0x21d6
 6096 201f 76010000 		.4byte	.LLST7
 6097 2023 2D       		.uleb128 0x2d
 6098 2024 65150000 		.4byte	.LASF571
 6099 2028 01       		.byte	0x1
 6100 2029 8C01     		.2byte	0x18c
 6101 202b 36020000 		.4byte	0x236
 6102 202f 00       		.byte	0
 6103 2030 27       		.uleb128 0x27
 6104 2031 31120000 		.4byte	.LASF572
 6105 2035 01       		.byte	0x1
 6106 2036 8F01     		.2byte	0x18f
 6107 2038 DC210000 		.4byte	0x21dc
 6108 203c B8010000 		.4byte	.LLST8
 6109 2040 27       		.uleb128 0x27
 6110 2041 0D030000 		.4byte	.LASF573
 6111 2045 01       		.byte	0x1
 6112 2046 9001     		.2byte	0x190
 6113 2048 DC210000 		.4byte	0x21dc
 6114 204c 18020000 		.4byte	.LLST9
 6115 2050 27       		.uleb128 0x27
 6116 2051 D5190000 		.4byte	.LASF574
ARM GAS  C:\Users\haske\AppData\Local\Temp\ccHGZgRG.s 			page 122


 6117 2055 01       		.byte	0x1
 6118 2056 9101     		.2byte	0x191
 6119 2058 36020000 		.4byte	0x236
 6120 205c 6E020000 		.4byte	.LLST10
 6121 2060 27       		.uleb128 0x27
 6122 2061 02210000 		.4byte	.LASF575
 6123 2065 01       		.byte	0x1
 6124 2066 9201     		.2byte	0x192
 6125 2068 36020000 		.4byte	0x236
 6126 206c D4020000 		.4byte	.LLST11
 6127 2070 2E       		.uleb128 0x2e
 6128 2071 72657300 		.ascii	"res\000"
 6129 2075 01       		.byte	0x1
 6130 2076 CB01     		.2byte	0x1cb
 6131 2078 63010000 		.4byte	0x163
 6132 207c 15030000 		.4byte	.LLST12
 6133 2080 28       		.uleb128 0x28
 6134 2081 18000000 		.4byte	.Ldebug_ranges0+0x18
 6135 2085 0F210000 		.4byte	0x210f
 6136 2089 27       		.uleb128 0x27
 6137 208a E2140000 		.4byte	.LASF46
 6138 208e 01       		.byte	0x1
 6139 208f B501     		.2byte	0x1b5
 6140 2091 E2210000 		.4byte	0x21e2
 6141 2095 33030000 		.4byte	.LLST13
 6142 2099 2F       		.uleb128 0x2f
 6143 209a 38000000 		.4byte	.LVL31
 6144 209e 03       		.uleb128 0x3
 6145 209f 91       		.byte	0x91
 6146 20a0 5C       		.sleb128 -36
 6147 20a1 06       		.byte	0x6
 6148 20a2 AD200000 		.4byte	0x20ad
 6149 20a6 2A       		.uleb128 0x2a
 6150 20a7 01       		.uleb128 0x1
 6151 20a8 50       		.byte	0x50
 6152 20a9 02       		.uleb128 0x2
 6153 20aa 77       		.byte	0x77
 6154 20ab 00       		.sleb128 0
 6155 20ac 00       		.byte	0
 6156 20ad 30       		.uleb128 0x30
 6157 20ae 56000000 		.4byte	.LVL37
 6158 20b2 C3200000 		.4byte	0x20c3
 6159 20b6 2A       		.uleb128 0x2a
 6160 20b7 01       		.uleb128 0x1
 6161 20b8 50       		.byte	0x50
 6162 20b9 02       		.uleb128 0x2
 6163 20ba 77       		.byte	0x77
 6164 20bb 00       		.sleb128 0
 6165 20bc 2A       		.uleb128 0x2a
 6166 20bd 01       		.uleb128 0x1
 6167 20be 51       		.byte	0x51
 6168 20bf 02       		.uleb128 0x2
 6169 20c0 75       		.byte	0x75
 6170 20c1 00       		.sleb128 0
 6171 20c2 00       		.byte	0
 6172 20c3 31       		.uleb128 0x31
 6173 20c4 66000000 		.4byte	.LVL40
ARM GAS  C:\Users\haske\AppData\Local\Temp\ccHGZgRG.s 			page 123


 6174 20c8 222D0000 		.4byte	0x2d22
 6175 20cc 29       		.uleb128 0x29
 6176 20cd 76000000 		.4byte	.LVL42
 6177 20d1 2E2D0000 		.4byte	0x2d2e
 6178 20d5 E5200000 		.4byte	0x20e5
 6179 20d9 2A       		.uleb128 0x2a
 6180 20da 01       		.uleb128 0x1
 6181 20db 50       		.byte	0x50
 6182 20dc 02       		.uleb128 0x2
 6183 20dd 74       		.byte	0x74
 6184 20de 00       		.sleb128 0
 6185 20df 2A       		.uleb128 0x2a
 6186 20e0 01       		.uleb128 0x1
 6187 20e1 51       		.byte	0x51
 6188 20e2 01       		.uleb128 0x1
 6189 20e3 31       		.byte	0x31
 6190 20e4 00       		.byte	0
 6191 20e5 29       		.uleb128 0x29
 6192 20e6 80000000 		.4byte	.LVL43
 6193 20ea 3A2D0000 		.4byte	0x2d3a
 6194 20ee F9200000 		.4byte	0x20f9
 6195 20f2 2A       		.uleb128 0x2a
 6196 20f3 01       		.uleb128 0x1
 6197 20f4 50       		.byte	0x50
 6198 20f5 02       		.uleb128 0x2
 6199 20f6 74       		.byte	0x74
 6200 20f7 00       		.sleb128 0
 6201 20f8 00       		.byte	0
 6202 20f9 2B       		.uleb128 0x2b
 6203 20fa 92000000 		.4byte	.LVL45
 6204 20fe 2E2D0000 		.4byte	0x2d2e
 6205 2102 2A       		.uleb128 0x2a
 6206 2103 01       		.uleb128 0x1
 6207 2104 50       		.byte	0x50
 6208 2105 02       		.uleb128 0x2
 6209 2106 74       		.byte	0x74
 6210 2107 00       		.sleb128 0
 6211 2108 2A       		.uleb128 0x2a
 6212 2109 01       		.uleb128 0x1
 6213 210a 51       		.byte	0x51
 6214 210b 01       		.uleb128 0x1
 6215 210c 31       		.byte	0x31
 6216 210d 00       		.byte	0
 6217 210e 00       		.byte	0
 6218 210f 28       		.uleb128 0x28
 6219 2110 30000000 		.4byte	.Ldebug_ranges0+0x30
 6220 2114 5F210000 		.4byte	0x215f
 6221 2118 2E       		.uleb128 0x2e
 6222 2119 72657300 		.ascii	"res\000"
 6223 211d 01       		.byte	0x1
 6224 211e C401     		.2byte	0x1c4
 6225 2120 63010000 		.4byte	0x163
 6226 2124 51030000 		.4byte	.LLST14
 6227 2128 29       		.uleb128 0x29
 6228 2129 A8000000 		.4byte	.LVL47
 6229 212d 0F1F0000 		.4byte	0x1f0f
 6230 2131 3C210000 		.4byte	0x213c
ARM GAS  C:\Users\haske\AppData\Local\Temp\ccHGZgRG.s 			page 124


 6231 2135 2A       		.uleb128 0x2a
 6232 2136 01       		.uleb128 0x1
 6233 2137 50       		.byte	0x50
 6234 2138 02       		.uleb128 0x2
 6235 2139 77       		.byte	0x77
 6236 213a 00       		.sleb128 0
 6237 213b 00       		.byte	0
 6238 213c 29       		.uleb128 0x29
 6239 213d B2000000 		.4byte	.LVL48
 6240 2141 452D0000 		.4byte	0x2d45
 6241 2145 55210000 		.4byte	0x2155
 6242 2149 2A       		.uleb128 0x2a
 6243 214a 01       		.uleb128 0x1
 6244 214b 50       		.byte	0x50
 6245 214c 02       		.uleb128 0x2
 6246 214d 74       		.byte	0x74
 6247 214e 00       		.sleb128 0
 6248 214f 2A       		.uleb128 0x2a
 6249 2150 01       		.uleb128 0x1
 6250 2151 51       		.byte	0x51
 6251 2152 01       		.uleb128 0x1
 6252 2153 3F       		.byte	0x3f
 6253 2154 00       		.byte	0
 6254 2155 31       		.uleb128 0x31
 6255 2156 BE000000 		.4byte	.LVL50
 6256 215a 502D0000 		.4byte	0x2d50
 6257 215e 00       		.byte	0
 6258 215f 29       		.uleb128 0x29
 6259 2160 C8000000 		.4byte	.LVL51
 6260 2164 0F1F0000 		.4byte	0x1f0f
 6261 2168 73210000 		.4byte	0x2173
 6262 216c 2A       		.uleb128 0x2a
 6263 216d 01       		.uleb128 0x1
 6264 216e 50       		.byte	0x50
 6265 216f 02       		.uleb128 0x2
 6266 2170 77       		.byte	0x77
 6267 2171 00       		.sleb128 0
 6268 2172 00       		.byte	0
 6269 2173 29       		.uleb128 0x29
 6270 2174 D2000000 		.4byte	.LVL52
 6271 2178 452D0000 		.4byte	0x2d45
 6272 217c 8C210000 		.4byte	0x218c
 6273 2180 2A       		.uleb128 0x2a
 6274 2181 01       		.uleb128 0x1
 6275 2182 50       		.byte	0x50
 6276 2183 02       		.uleb128 0x2
 6277 2184 74       		.byte	0x74
 6278 2185 00       		.sleb128 0
 6279 2186 2A       		.uleb128 0x2a
 6280 2187 01       		.uleb128 0x1
 6281 2188 51       		.byte	0x51
 6282 2189 01       		.uleb128 0x1
 6283 218a 3E       		.byte	0x3e
 6284 218b 00       		.byte	0
 6285 218c 31       		.uleb128 0x31
 6286 218d DE000000 		.4byte	.LVL54
 6287 2191 502D0000 		.4byte	0x2d50
ARM GAS  C:\Users\haske\AppData\Local\Temp\ccHGZgRG.s 			page 125


 6288 2195 32       		.uleb128 0x32
 6289 2196 E8000000 		.4byte	.LVL55
 6290 219a 2A       		.uleb128 0x2a
 6291 219b 01       		.uleb128 0x1
 6292 219c 50       		.byte	0x50
 6293 219d 02       		.uleb128 0x2
 6294 219e 77       		.byte	0x77
 6295 219f 00       		.sleb128 0
 6296 21a0 00       		.byte	0
 6297 21a1 00       		.byte	0
 6298 21a2 16       		.uleb128 0x16
 6299 21a3 10030000 		.4byte	0x310
 6300 21a7 B1210000 		.4byte	0x21b1
 6301 21ab 0B       		.uleb128 0xb
 6302 21ac B1210000 		.4byte	0x21b1
 6303 21b0 00       		.byte	0
 6304 21b1 07       		.uleb128 0x7
 6305 21b2 04       		.byte	0x4
 6306 21b3 B7210000 		.4byte	0x21b7
 6307 21b7 14       		.uleb128 0x14
 6308 21b8 3F010000 		.4byte	0x13f
 6309 21bc 07       		.uleb128 0x7
 6310 21bd 04       		.byte	0x4
 6311 21be A2210000 		.4byte	0x21a2
 6312 21c2 16       		.uleb128 0x16
 6313 21c3 10030000 		.4byte	0x310
 6314 21c7 D6210000 		.4byte	0x21d6
 6315 21cb 0B       		.uleb128 0xb
 6316 21cc B1210000 		.4byte	0x21b1
 6317 21d0 0B       		.uleb128 0xb
 6318 21d1 DD040000 		.4byte	0x4dd
 6319 21d5 00       		.byte	0
 6320 21d6 07       		.uleb128 0x7
 6321 21d7 04       		.byte	0x4
 6322 21d8 C2210000 		.4byte	0x21c2
 6323 21dc 07       		.uleb128 0x7
 6324 21dd 04       		.byte	0x4
 6325 21de E2210000 		.4byte	0x21e2
 6326 21e2 07       		.uleb128 0x7
 6327 21e3 04       		.byte	0x4
 6328 21e4 041F0000 		.4byte	0x1f04
 6329 21e8 33       		.uleb128 0x33
 6330 21e9 20200000 		.4byte	.LASF576
 6331 21ed 01       		.byte	0x1
 6332 21ee 2D       		.byte	0x2d
 6333 21ef 00000000 		.4byte	.LFB159
 6334 21f3 10000000 		.4byte	.LFE159-.LFB159
 6335 21f7 01       		.uleb128 0x1
 6336 21f8 9C       		.byte	0x9c
 6337 21f9 0E220000 		.4byte	0x220e
 6338 21fd 2B       		.uleb128 0x2b
 6339 21fe 0A000000 		.4byte	.LVL70
 6340 2202 5C2D0000 		.4byte	0x2d5c
 6341 2206 2A       		.uleb128 0x2a
 6342 2207 01       		.uleb128 0x1
 6343 2208 51       		.byte	0x51
 6344 2209 02       		.uleb128 0x2
ARM GAS  C:\Users\haske\AppData\Local\Temp\ccHGZgRG.s 			page 126


 6345 220a 08       		.byte	0x8
 6346 220b 20       		.byte	0x20
 6347 220c 00       		.byte	0
 6348 220d 00       		.byte	0
 6349 220e 34       		.uleb128 0x34
 6350 220f 38160000 		.4byte	.LASF594
 6351 2213 01       		.byte	0x1
 6352 2214 32       		.byte	0x32
 6353 2215 D11E0000 		.4byte	0x1ed1
 6354 2219 00000000 		.4byte	.LFB160
 6355 221d 48000000 		.4byte	.LFE160-.LFB160
 6356 2221 01       		.uleb128 0x1
 6357 2222 9C       		.byte	0x9c
 6358 2223 4F220000 		.4byte	0x224f
 6359 2227 35       		.uleb128 0x35
 6360 2228 2B120000 		.4byte	.LASF424
 6361 222c 01       		.byte	0x1
 6362 222d 34       		.byte	0x34
 6363 222e D11E0000 		.4byte	0x1ed1
 6364 2232 6F030000 		.4byte	.LLST15
 6365 2236 31       		.uleb128 0x31
 6366 2237 08000000 		.4byte	.LVL71
 6367 223b 672D0000 		.4byte	0x2d67
 6368 223f 2B       		.uleb128 0x2b
 6369 2240 18000000 		.4byte	.LVL73
 6370 2244 5C2D0000 		.4byte	0x2d5c
 6371 2248 2A       		.uleb128 0x2a
 6372 2249 01       		.uleb128 0x1
 6373 224a 51       		.byte	0x51
 6374 224b 01       		.uleb128 0x1
 6375 224c 34       		.byte	0x34
 6376 224d 00       		.byte	0
 6377 224e 00       		.byte	0
 6378 224f 33       		.uleb128 0x33
 6379 2250 1B250000 		.4byte	.LASF577
 6380 2254 01       		.byte	0x1
 6381 2255 48       		.byte	0x48
 6382 2256 00000000 		.4byte	.LFB161
 6383 225a 94000000 		.4byte	.LFE161-.LFB161
 6384 225e 01       		.uleb128 0x1
 6385 225f 9C       		.byte	0x9c
 6386 2260 5E230000 		.4byte	0x235e
 6387 2264 36       		.uleb128 0x36
 6388 2265 2B120000 		.4byte	.LASF424
 6389 2269 01       		.byte	0x1
 6390 226a 48       		.byte	0x48
 6391 226b D11E0000 		.4byte	0x1ed1
 6392 226f A3030000 		.4byte	.LLST16
 6393 2273 37       		.uleb128 0x37
 6394 2274 6F626A00 		.ascii	"obj\000"
 6395 2278 01       		.byte	0x1
 6396 2279 51       		.byte	0x51
 6397 227a DC210000 		.4byte	0x21dc
 6398 227e E5030000 		.4byte	.LLST17
 6399 2282 35       		.uleb128 0x35
 6400 2283 FF0E0000 		.4byte	.LASF565
 6401 2287 01       		.byte	0x1
ARM GAS  C:\Users\haske\AppData\Local\Temp\ccHGZgRG.s 			page 127


 6402 2288 57       		.byte	0x57
 6403 2289 C81F0000 		.4byte	0x1fc8
 6404 228d 0E040000 		.4byte	.LLST18
 6405 2291 29       		.uleb128 0x29
 6406 2292 10000000 		.4byte	.LVL78
 6407 2296 0F1F0000 		.4byte	0x1f0f
 6408 229a A5220000 		.4byte	0x22a5
 6409 229e 2A       		.uleb128 0x2a
 6410 229f 01       		.uleb128 0x1
 6411 22a0 50       		.byte	0x50
 6412 22a1 02       		.uleb128 0x2
 6413 22a2 75       		.byte	0x75
 6414 22a3 00       		.sleb128 0
 6415 22a4 00       		.byte	0
 6416 22a5 29       		.uleb128 0x29
 6417 22a6 1A000000 		.4byte	.LVL79
 6418 22aa 452D0000 		.4byte	0x2d45
 6419 22ae BE220000 		.4byte	0x22be
 6420 22b2 2A       		.uleb128 0x2a
 6421 22b3 01       		.uleb128 0x1
 6422 22b4 50       		.byte	0x50
 6423 22b5 02       		.uleb128 0x2
 6424 22b6 74       		.byte	0x74
 6425 22b7 00       		.sleb128 0
 6426 22b8 2A       		.uleb128 0x2a
 6427 22b9 01       		.uleb128 0x1
 6428 22ba 51       		.byte	0x51
 6429 22bb 01       		.uleb128 0x1
 6430 22bc 3F       		.byte	0x3f
 6431 22bd 00       		.byte	0
 6432 22be 31       		.uleb128 0x31
 6433 22bf 22000000 		.4byte	.LVL80
 6434 22c3 502D0000 		.4byte	0x2d50
 6435 22c7 29       		.uleb128 0x29
 6436 22c8 2A000000 		.4byte	.LVL81
 6437 22cc 722D0000 		.4byte	0x2d72
 6438 22d0 DB220000 		.4byte	0x22db
 6439 22d4 2A       		.uleb128 0x2a
 6440 22d5 01       		.uleb128 0x1
 6441 22d6 50       		.byte	0x50
 6442 22d7 02       		.uleb128 0x2
 6443 22d8 74       		.byte	0x74
 6444 22d9 00       		.sleb128 0
 6445 22da 00       		.byte	0
 6446 22db 29       		.uleb128 0x29
 6447 22dc 40000000 		.4byte	.LVL84
 6448 22e0 7D2D0000 		.4byte	0x2d7d
 6449 22e4 EF220000 		.4byte	0x22ef
 6450 22e8 2A       		.uleb128 0x2a
 6451 22e9 01       		.uleb128 0x1
 6452 22ea 50       		.byte	0x50
 6453 22eb 02       		.uleb128 0x2
 6454 22ec 74       		.byte	0x74
 6455 22ed 00       		.sleb128 0
 6456 22ee 00       		.byte	0
 6457 22ef 31       		.uleb128 0x31
 6458 22f0 48000000 		.4byte	.LVL85
ARM GAS  C:\Users\haske\AppData\Local\Temp\ccHGZgRG.s 			page 128


 6459 22f4 172D0000 		.4byte	0x2d17
 6460 22f8 29       		.uleb128 0x29
 6461 22f9 5A000000 		.4byte	.LVL87
 6462 22fd 882D0000 		.4byte	0x2d88
 6463 2301 11230000 		.4byte	0x2311
 6464 2305 2A       		.uleb128 0x2a
 6465 2306 01       		.uleb128 0x1
 6466 2307 50       		.byte	0x50
 6467 2308 02       		.uleb128 0x2
 6468 2309 74       		.byte	0x74
 6469 230a 00       		.sleb128 0
 6470 230b 2A       		.uleb128 0x2a
 6471 230c 01       		.uleb128 0x1
 6472 230d 51       		.byte	0x51
 6473 230e 01       		.uleb128 0x1
 6474 230f 30       		.byte	0x30
 6475 2310 00       		.byte	0
 6476 2311 29       		.uleb128 0x29
 6477 2312 60000000 		.4byte	.LVL88
 6478 2316 172D0000 		.4byte	0x2d17
 6479 231a 25230000 		.4byte	0x2325
 6480 231e 2A       		.uleb128 0x2a
 6481 231f 01       		.uleb128 0x1
 6482 2320 50       		.byte	0x50
 6483 2321 02       		.uleb128 0x2
 6484 2322 74       		.byte	0x74
 6485 2323 00       		.sleb128 0
 6486 2324 00       		.byte	0
 6487 2325 29       		.uleb128 0x29
 6488 2326 7A000000 		.4byte	.LVL91
 6489 232a 932D0000 		.4byte	0x2d93
 6490 232e 39230000 		.4byte	0x2339
 6491 2332 2A       		.uleb128 0x2a
 6492 2333 01       		.uleb128 0x1
 6493 2334 50       		.byte	0x50
 6494 2335 02       		.uleb128 0x2
 6495 2336 75       		.byte	0x75
 6496 2337 00       		.sleb128 0
 6497 2338 00       		.byte	0
 6498 2339 29       		.uleb128 0x29
 6499 233a 82000000 		.4byte	.LVL92
 6500 233e 9E2D0000 		.4byte	0x2d9e
 6501 2342 4D230000 		.4byte	0x234d
 6502 2346 2A       		.uleb128 0x2a
 6503 2347 01       		.uleb128 0x1
 6504 2348 51       		.byte	0x51
 6505 2349 02       		.uleb128 0x2
 6506 234a 75       		.byte	0x75
 6507 234b 00       		.sleb128 0
 6508 234c 00       		.byte	0
 6509 234d 2B       		.uleb128 0x2b
 6510 234e 88000000 		.4byte	.LVL93
 6511 2352 A92D0000 		.4byte	0x2da9
 6512 2356 2A       		.uleb128 0x2a
 6513 2357 01       		.uleb128 0x1
 6514 2358 50       		.byte	0x50
 6515 2359 02       		.uleb128 0x2
ARM GAS  C:\Users\haske\AppData\Local\Temp\ccHGZgRG.s 			page 129


 6516 235a 75       		.byte	0x75
 6517 235b 00       		.sleb128 0
 6518 235c 00       		.byte	0
 6519 235d 00       		.byte	0
 6520 235e 33       		.uleb128 0x33
 6521 235f 65030000 		.4byte	.LASF578
 6522 2363 01       		.byte	0x1
 6523 2364 65       		.byte	0x65
 6524 2365 00000000 		.4byte	.LFB162
 6525 2369 0C000000 		.4byte	.LFE162-.LFB162
 6526 236d 01       		.uleb128 0x1
 6527 236e 9C       		.byte	0x9c
 6528 236f 81230000 		.4byte	0x2381
 6529 2373 38       		.uleb128 0x38
 6530 2374 2B120000 		.4byte	.LASF424
 6531 2378 01       		.byte	0x1
 6532 2379 65       		.byte	0x65
 6533 237a D11E0000 		.4byte	0x1ed1
 6534 237e 01       		.uleb128 0x1
 6535 237f 50       		.byte	0x50
 6536 2380 00       		.byte	0
 6537 2381 39       		.uleb128 0x39
 6538 2382 900E0000 		.4byte	.LASF637
 6539 2386 01       		.byte	0x1
 6540 2387 6A       		.byte	0x6a
 6541 2388 D11E0000 		.4byte	0x1ed1
 6542 238c 00000000 		.4byte	.LFB163
 6543 2390 0C000000 		.4byte	.LFE163-.LFB163
 6544 2394 01       		.uleb128 0x1
 6545 2395 9C       		.byte	0x9c
 6546 2396 33       		.uleb128 0x33
 6547 2397 581B0000 		.4byte	.LASF579
 6548 239b 01       		.byte	0x1
 6549 239c D8       		.byte	0xd8
 6550 239d 00000000 		.4byte	.LFB167
 6551 23a1 50000000 		.4byte	.LFE167-.LFB167
 6552 23a5 01       		.uleb128 0x1
 6553 23a6 9C       		.byte	0x9c
 6554 23a7 38240000 		.4byte	0x2438
 6555 23ab 36       		.uleb128 0x36
 6556 23ac 2B120000 		.4byte	.LASF424
 6557 23b0 01       		.byte	0x1
 6558 23b1 D8       		.byte	0xd8
 6559 23b2 D11E0000 		.4byte	0x1ed1
 6560 23b6 42040000 		.4byte	.LLST19
 6561 23ba 37       		.uleb128 0x37
 6562 23bb 6F626A00 		.ascii	"obj\000"
 6563 23bf 01       		.byte	0x1
 6564 23c0 E2       		.byte	0xe2
 6565 23c1 DC210000 		.4byte	0x21dc
 6566 23c5 84040000 		.4byte	.LLST20
 6567 23c9 29       		.uleb128 0x29
 6568 23ca 10000000 		.4byte	.LVL98
 6569 23ce 0F1F0000 		.4byte	0x1f0f
 6570 23d2 DD230000 		.4byte	0x23dd
 6571 23d6 2A       		.uleb128 0x2a
 6572 23d7 01       		.uleb128 0x1
ARM GAS  C:\Users\haske\AppData\Local\Temp\ccHGZgRG.s 			page 130


 6573 23d8 50       		.byte	0x50
 6574 23d9 02       		.uleb128 0x2
 6575 23da 75       		.byte	0x75
 6576 23db 00       		.sleb128 0
 6577 23dc 00       		.byte	0
 6578 23dd 29       		.uleb128 0x29
 6579 23de 1A000000 		.4byte	.LVL99
 6580 23e2 452D0000 		.4byte	0x2d45
 6581 23e6 F6230000 		.4byte	0x23f6
 6582 23ea 2A       		.uleb128 0x2a
 6583 23eb 01       		.uleb128 0x1
 6584 23ec 50       		.byte	0x50
 6585 23ed 02       		.uleb128 0x2
 6586 23ee 74       		.byte	0x74
 6587 23ef 00       		.sleb128 0
 6588 23f0 2A       		.uleb128 0x2a
 6589 23f1 01       		.uleb128 0x1
 6590 23f2 51       		.byte	0x51
 6591 23f3 01       		.uleb128 0x1
 6592 23f4 3F       		.byte	0x3f
 6593 23f5 00       		.byte	0
 6594 23f6 31       		.uleb128 0x31
 6595 23f7 22000000 		.4byte	.LVL100
 6596 23fb 502D0000 		.4byte	0x2d50
 6597 23ff 29       		.uleb128 0x29
 6598 2400 2E000000 		.4byte	.LVL101
 6599 2404 722D0000 		.4byte	0x2d72
 6600 2408 13240000 		.4byte	0x2413
 6601 240c 2A       		.uleb128 0x2a
 6602 240d 01       		.uleb128 0x1
 6603 240e 50       		.byte	0x50
 6604 240f 02       		.uleb128 0x2
 6605 2410 74       		.byte	0x74
 6606 2411 00       		.sleb128 0
 6607 2412 00       		.byte	0
 6608 2413 29       		.uleb128 0x29
 6609 2414 44000000 		.4byte	.LVL104
 6610 2418 7D2D0000 		.4byte	0x2d7d
 6611 241c 27240000 		.4byte	0x2427
 6612 2420 2A       		.uleb128 0x2a
 6613 2421 01       		.uleb128 0x1
 6614 2422 50       		.byte	0x50
 6615 2423 02       		.uleb128 0x2
 6616 2424 74       		.byte	0x74
 6617 2425 00       		.sleb128 0
 6618 2426 00       		.byte	0
 6619 2427 2B       		.uleb128 0x2b
 6620 2428 4E000000 		.4byte	.LVL106
 6621 242c 932D0000 		.4byte	0x2d93
 6622 2430 2A       		.uleb128 0x2a
 6623 2431 01       		.uleb128 0x1
 6624 2432 50       		.byte	0x50
 6625 2433 02       		.uleb128 0x2
 6626 2434 74       		.byte	0x74
 6627 2435 00       		.sleb128 0
 6628 2436 00       		.byte	0
 6629 2437 00       		.byte	0
ARM GAS  C:\Users\haske\AppData\Local\Temp\ccHGZgRG.s 			page 131


 6630 2438 3A       		.uleb128 0x3a
 6631 2439 9D240000 		.4byte	.LASF580
 6632 243d 01       		.byte	0x1
 6633 243e 0B01     		.2byte	0x10b
 6634 2440 00000000 		.4byte	.LFB169
 6635 2444 28000000 		.4byte	.LFE169-.LFB169
 6636 2448 01       		.uleb128 0x1
 6637 2449 9C       		.byte	0x9c
 6638 244a 94240000 		.4byte	0x2494
 6639 244e 2C       		.uleb128 0x2c
 6640 244f 2B120000 		.4byte	.LASF424
 6641 2453 01       		.byte	0x1
 6642 2454 0B01     		.2byte	0x10b
 6643 2456 D11E0000 		.4byte	0x1ed1
 6644 245a AD040000 		.4byte	.LLST21
 6645 245e 27       		.uleb128 0x27
 6646 245f 65150000 		.4byte	.LASF571
 6647 2463 01       		.byte	0x1
 6648 2464 0D01     		.2byte	0x10d
 6649 2466 36020000 		.4byte	0x236
 6650 246a D9040000 		.4byte	.LLST22
 6651 246e 29       		.uleb128 0x29
 6652 246f 0C000000 		.4byte	.LVL110
 6653 2473 D91F0000 		.4byte	0x1fd9
 6654 2477 82240000 		.4byte	0x2482
 6655 247b 2A       		.uleb128 0x2a
 6656 247c 01       		.uleb128 0x1
 6657 247d 50       		.byte	0x50
 6658 247e 02       		.uleb128 0x2
 6659 247f 74       		.byte	0x74
 6660 2480 00       		.sleb128 0
 6661 2481 00       		.byte	0
 6662 2482 32       		.uleb128 0x32
 6663 2483 1C000000 		.4byte	.LVL112
 6664 2487 2A       		.uleb128 0x2a
 6665 2488 01       		.uleb128 0x1
 6666 2489 50       		.byte	0x50
 6667 248a 02       		.uleb128 0x2
 6668 248b 74       		.byte	0x74
 6669 248c 00       		.sleb128 0
 6670 248d 2A       		.uleb128 0x2a
 6671 248e 01       		.uleb128 0x1
 6672 248f 51       		.byte	0x51
 6673 2490 01       		.uleb128 0x1
 6674 2491 31       		.byte	0x31
 6675 2492 00       		.byte	0
 6676 2493 00       		.byte	0
 6677 2494 3A       		.uleb128 0x3a
 6678 2495 ED240000 		.4byte	.LASF581
 6679 2499 01       		.byte	0x1
 6680 249a 1401     		.2byte	0x114
 6681 249c 00000000 		.4byte	.LFB170
 6682 24a0 28000000 		.4byte	.LFE170-.LFB170
 6683 24a4 01       		.uleb128 0x1
 6684 24a5 9C       		.byte	0x9c
 6685 24a6 F0240000 		.4byte	0x24f0
 6686 24aa 2C       		.uleb128 0x2c
ARM GAS  C:\Users\haske\AppData\Local\Temp\ccHGZgRG.s 			page 132


 6687 24ab 2B120000 		.4byte	.LASF424
 6688 24af 01       		.byte	0x1
 6689 24b0 1401     		.2byte	0x114
 6690 24b2 D11E0000 		.4byte	0x1ed1
 6691 24b6 EC040000 		.4byte	.LLST23
 6692 24ba 27       		.uleb128 0x27
 6693 24bb 65150000 		.4byte	.LASF571
 6694 24bf 01       		.byte	0x1
 6695 24c0 1601     		.2byte	0x116
 6696 24c2 36020000 		.4byte	0x236
 6697 24c6 18050000 		.4byte	.LLST24
 6698 24ca 29       		.uleb128 0x29
 6699 24cb 0C000000 		.4byte	.LVL115
 6700 24cf D91F0000 		.4byte	0x1fd9
 6701 24d3 DE240000 		.4byte	0x24de
 6702 24d7 2A       		.uleb128 0x2a
 6703 24d8 01       		.uleb128 0x1
 6704 24d9 50       		.byte	0x50
 6705 24da 02       		.uleb128 0x2
 6706 24db 74       		.byte	0x74
 6707 24dc 00       		.sleb128 0
 6708 24dd 00       		.byte	0
 6709 24de 32       		.uleb128 0x32
 6710 24df 1C000000 		.4byte	.LVL117
 6711 24e3 2A       		.uleb128 0x2a
 6712 24e4 01       		.uleb128 0x1
 6713 24e5 50       		.byte	0x50
 6714 24e6 02       		.uleb128 0x2
 6715 24e7 74       		.byte	0x74
 6716 24e8 00       		.sleb128 0
 6717 24e9 2A       		.uleb128 0x2a
 6718 24ea 01       		.uleb128 0x1
 6719 24eb 51       		.byte	0x51
 6720 24ec 01       		.uleb128 0x1
 6721 24ed 30       		.byte	0x30
 6722 24ee 00       		.byte	0
 6723 24ef 00       		.byte	0
 6724 24f0 3B       		.uleb128 0x3b
 6725 24f1 EC170000 		.4byte	.LASF638
 6726 24f5 01       		.byte	0x1
 6727 24f6 7B01     		.2byte	0x17b
 6728 24f8 00000000 		.4byte	.LFB184
 6729 24fc 32000000 		.4byte	.LFE184-.LFB184
 6730 2500 01       		.uleb128 0x1
 6731 2501 9C       		.byte	0x9c
 6732 2502 42250000 		.4byte	0x2542
 6733 2506 26       		.uleb128 0x26
 6734 2507 6700     		.ascii	"g\000"
 6735 2509 01       		.byte	0x1
 6736 250a 7B01     		.2byte	0x17b
 6737 250c D11E0000 		.4byte	0x1ed1
 6738 2510 2B050000 		.4byte	.LLST25
 6739 2514 27       		.uleb128 0x27
 6740 2515 321C0000 		.4byte	.LASF582
 6741 2519 01       		.byte	0x1
 6742 251a 7E01     		.2byte	0x17e
 6743 251c CA000000 		.4byte	0xca
ARM GAS  C:\Users\haske\AppData\Local\Temp\ccHGZgRG.s 			page 133


 6744 2520 6D050000 		.4byte	.LLST26
 6745 2524 29       		.uleb128 0x29
 6746 2525 1A000000 		.4byte	.LVL122
 6747 2529 38240000 		.4byte	0x2438
 6748 252d 38250000 		.4byte	0x2538
 6749 2531 2A       		.uleb128 0x2a
 6750 2532 01       		.uleb128 0x1
 6751 2533 50       		.byte	0x50
 6752 2534 02       		.uleb128 0x2
 6753 2535 75       		.byte	0x75
 6754 2536 00       		.sleb128 0
 6755 2537 00       		.byte	0
 6756 2538 31       		.uleb128 0x31
 6757 2539 24000000 		.4byte	.LVL124
 6758 253d 94240000 		.4byte	0x2494
 6759 2541 00       		.byte	0
 6760 2542 33       		.uleb128 0x33
 6761 2543 290B0000 		.4byte	.LASF583
 6762 2547 01       		.byte	0x1
 6763 2548 AF       		.byte	0xaf
 6764 2549 00000000 		.4byte	.LFB166
 6765 254d A4000000 		.4byte	.LFE166-.LFB166
 6766 2551 01       		.uleb128 0x1
 6767 2552 9C       		.byte	0x9c
 6768 2553 56260000 		.4byte	0x2656
 6769 2557 3C       		.uleb128 0x3c
 6770 2558 6F626A00 		.ascii	"obj\000"
 6771 255c 01       		.byte	0x1
 6772 255d AF       		.byte	0xaf
 6773 255e E2210000 		.4byte	0x21e2
 6774 2562 86050000 		.4byte	.LLST27
 6775 2566 37       		.uleb128 0x37
 6776 2567 6700     		.ascii	"g\000"
 6777 2569 01       		.byte	0x1
 6778 256a B1       		.byte	0xb1
 6779 256b D11E0000 		.4byte	0x1ed1
 6780 256f B2050000 		.4byte	.LLST28
 6781 2573 37       		.uleb128 0x37
 6782 2574 6900     		.ascii	"i\000"
 6783 2576 01       		.byte	0x1
 6784 2577 CC       		.byte	0xcc
 6785 2578 DC210000 		.4byte	0x21dc
 6786 257c E6050000 		.4byte	.LLST29
 6787 2580 29       		.uleb128 0x29
 6788 2581 08000000 		.4byte	.LVL127
 6789 2585 B42D0000 		.4byte	0x2db4
 6790 2589 94250000 		.4byte	0x2594
 6791 258d 2A       		.uleb128 0x2a
 6792 258e 01       		.uleb128 0x1
 6793 258f 50       		.byte	0x50
 6794 2590 02       		.uleb128 0x2
 6795 2591 75       		.byte	0x75
 6796 2592 00       		.sleb128 0
 6797 2593 00       		.byte	0
 6798 2594 29       		.uleb128 0x29
 6799 2595 2C000000 		.4byte	.LVL130
 6800 2599 722D0000 		.4byte	0x2d72
ARM GAS  C:\Users\haske\AppData\Local\Temp\ccHGZgRG.s 			page 134


 6801 259d A8250000 		.4byte	0x25a8
 6802 25a1 2A       		.uleb128 0x2a
 6803 25a2 01       		.uleb128 0x1
 6804 25a3 50       		.byte	0x50
 6805 25a4 02       		.uleb128 0x2
 6806 25a5 77       		.byte	0x77
 6807 25a6 00       		.sleb128 0
 6808 25a7 00       		.byte	0
 6809 25a8 29       		.uleb128 0x29
 6810 25a9 38000000 		.4byte	.LVL131
 6811 25ad C02D0000 		.4byte	0x2dc0
 6812 25b1 BC250000 		.4byte	0x25bc
 6813 25b5 2A       		.uleb128 0x2a
 6814 25b6 01       		.uleb128 0x1
 6815 25b7 50       		.byte	0x50
 6816 25b8 02       		.uleb128 0x2
 6817 25b9 77       		.byte	0x77
 6818 25ba 00       		.sleb128 0
 6819 25bb 00       		.byte	0
 6820 25bc 29       		.uleb128 0x29
 6821 25bd 46000000 		.4byte	.LVL132
 6822 25c1 0F1F0000 		.4byte	0x1f0f
 6823 25c5 D0250000 		.4byte	0x25d0
 6824 25c9 2A       		.uleb128 0x2a
 6825 25ca 01       		.uleb128 0x1
 6826 25cb 50       		.byte	0x50
 6827 25cc 02       		.uleb128 0x2
 6828 25cd 77       		.byte	0x77
 6829 25ce 00       		.sleb128 0
 6830 25cf 00       		.byte	0
 6831 25d0 29       		.uleb128 0x29
 6832 25d1 50000000 		.4byte	.LVL133
 6833 25d5 452D0000 		.4byte	0x2d45
 6834 25d9 E9250000 		.4byte	0x25e9
 6835 25dd 2A       		.uleb128 0x2a
 6836 25de 01       		.uleb128 0x1
 6837 25df 50       		.byte	0x50
 6838 25e0 02       		.uleb128 0x2
 6839 25e1 74       		.byte	0x74
 6840 25e2 00       		.sleb128 0
 6841 25e3 2A       		.uleb128 0x2a
 6842 25e4 01       		.uleb128 0x1
 6843 25e5 51       		.byte	0x51
 6844 25e6 01       		.uleb128 0x1
 6845 25e7 3F       		.byte	0x3f
 6846 25e8 00       		.byte	0
 6847 25e9 29       		.uleb128 0x29
 6848 25ea 58000000 		.4byte	.LVL134
 6849 25ee F0240000 		.4byte	0x24f0
 6850 25f2 FD250000 		.4byte	0x25fd
 6851 25f6 2A       		.uleb128 0x2a
 6852 25f7 01       		.uleb128 0x1
 6853 25f8 50       		.byte	0x50
 6854 25f9 02       		.uleb128 0x2
 6855 25fa 77       		.byte	0x77
 6856 25fb 00       		.sleb128 0
 6857 25fc 00       		.byte	0
ARM GAS  C:\Users\haske\AppData\Local\Temp\ccHGZgRG.s 			page 135


 6858 25fd 29       		.uleb128 0x29
 6859 25fe 70000000 		.4byte	.LVL135
 6860 2602 722D0000 		.4byte	0x2d72
 6861 2606 11260000 		.4byte	0x2611
 6862 260a 2A       		.uleb128 0x2a
 6863 260b 01       		.uleb128 0x1
 6864 260c 50       		.byte	0x50
 6865 260d 02       		.uleb128 0x2
 6866 260e 76       		.byte	0x76
 6867 260f 00       		.sleb128 0
 6868 2610 00       		.byte	0
 6869 2611 29       		.uleb128 0x29
 6870 2612 82000000 		.4byte	.LVL139
 6871 2616 9E2D0000 		.4byte	0x2d9e
 6872 261a 2B260000 		.4byte	0x262b
 6873 261e 2A       		.uleb128 0x2a
 6874 261f 01       		.uleb128 0x1
 6875 2620 50       		.byte	0x50
 6876 2621 02       		.uleb128 0x2
 6877 2622 76       		.byte	0x76
 6878 2623 00       		.sleb128 0
 6879 2624 2A       		.uleb128 0x2a
 6880 2625 01       		.uleb128 0x1
 6881 2626 51       		.byte	0x51
 6882 2627 02       		.uleb128 0x2
 6883 2628 74       		.byte	0x74
 6884 2629 00       		.sleb128 0
 6885 262a 00       		.byte	0
 6886 262b 29       		.uleb128 0x29
 6887 262c 88000000 		.4byte	.LVL140
 6888 2630 A92D0000 		.4byte	0x2da9
 6889 2634 3F260000 		.4byte	0x263f
 6890 2638 2A       		.uleb128 0x2a
 6891 2639 01       		.uleb128 0x1
 6892 263a 50       		.byte	0x50
 6893 263b 02       		.uleb128 0x2
 6894 263c 74       		.byte	0x74
 6895 263d 00       		.sleb128 0
 6896 263e 00       		.byte	0
 6897 263f 2B       		.uleb128 0x2b
 6898 2640 9C000000 		.4byte	.LVL143
 6899 2644 7D2D0000 		.4byte	0x2d7d
 6900 2648 2A       		.uleb128 0x2a
 6901 2649 01       		.uleb128 0x1
 6902 264a 50       		.byte	0x50
 6903 264b 02       		.uleb128 0x2
 6904 264c 76       		.byte	0x76
 6905 264d 00       		.sleb128 0
 6906 264e 2A       		.uleb128 0x2a
 6907 264f 01       		.uleb128 0x1
 6908 2650 51       		.byte	0x51
 6909 2651 02       		.uleb128 0x2
 6910 2652 74       		.byte	0x74
 6911 2653 00       		.sleb128 0
 6912 2654 00       		.byte	0
 6913 2655 00       		.byte	0
 6914 2656 33       		.uleb128 0x33
ARM GAS  C:\Users\haske\AppData\Local\Temp\ccHGZgRG.s 			page 136


 6915 2657 D5040000 		.4byte	.LASF584
 6916 265b 01       		.byte	0x1
 6917 265c 6F       		.byte	0x6f
 6918 265d 00000000 		.4byte	.LFB164
 6919 2661 7E000000 		.4byte	.LFE164-.LFB164
 6920 2665 01       		.uleb128 0x1
 6921 2666 9C       		.byte	0x9c
 6922 2667 5C270000 		.4byte	0x275c
 6923 266b 36       		.uleb128 0x36
 6924 266c 2B120000 		.4byte	.LASF424
 6925 2670 01       		.byte	0x1
 6926 2671 6F       		.byte	0x6f
 6927 2672 D11E0000 		.4byte	0x1ed1
 6928 2676 30060000 		.4byte	.LLST30
 6929 267a 3C       		.uleb128 0x3c
 6930 267b 6F626A00 		.ascii	"obj\000"
 6931 267f 01       		.byte	0x1
 6932 2680 6F       		.byte	0x6f
 6933 2681 E2210000 		.4byte	0x21e2
 6934 2685 72060000 		.4byte	.LLST31
 6935 2689 35       		.uleb128 0x35
 6936 268a B00F0000 		.4byte	.LASF585
 6937 268e 01       		.byte	0x1
 6938 268f 79       		.byte	0x79
 6939 2690 DC210000 		.4byte	0x21dc
 6940 2694 9E060000 		.4byte	.LLST32
 6941 2698 35       		.uleb128 0x35
 6942 2699 3A1D0000 		.4byte	.LASF586
 6943 269d 01       		.byte	0x1
 6944 269e 82       		.byte	0x82
 6945 269f D11E0000 		.4byte	0x1ed1
 6946 26a3 C7060000 		.4byte	.LLST33
 6947 26a7 35       		.uleb128 0x35
 6948 26a8 B1240000 		.4byte	.LASF587
 6949 26ac 01       		.byte	0x1
 6950 26ad 8E       		.byte	0x8e
 6951 26ae DC210000 		.4byte	0x21dc
 6952 26b2 DA060000 		.4byte	.LLST34
 6953 26b6 29       		.uleb128 0x29
 6954 26b7 10000000 		.4byte	.LVL150
 6955 26bb 42250000 		.4byte	0x2542
 6956 26bf CA260000 		.4byte	0x26ca
 6957 26c3 2A       		.uleb128 0x2a
 6958 26c4 01       		.uleb128 0x1
 6959 26c5 50       		.byte	0x50
 6960 26c6 02       		.uleb128 0x2
 6961 26c7 74       		.byte	0x74
 6962 26c8 00       		.sleb128 0
 6963 26c9 00       		.byte	0
 6964 26ca 29       		.uleb128 0x29
 6965 26cb 18000000 		.4byte	.LVL151
 6966 26cf 722D0000 		.4byte	0x2d72
 6967 26d3 DE260000 		.4byte	0x26de
 6968 26d7 2A       		.uleb128 0x2a
 6969 26d8 01       		.uleb128 0x1
 6970 26d9 50       		.byte	0x50
 6971 26da 02       		.uleb128 0x2
ARM GAS  C:\Users\haske\AppData\Local\Temp\ccHGZgRG.s 			page 137


 6972 26db 76       		.byte	0x76
 6973 26dc 00       		.sleb128 0
 6974 26dd 00       		.byte	0
 6975 26de 29       		.uleb128 0x29
 6976 26df 28000000 		.4byte	.LVL153
 6977 26e3 7D2D0000 		.4byte	0x2d7d
 6978 26e7 F2260000 		.4byte	0x26f2
 6979 26eb 2A       		.uleb128 0x2a
 6980 26ec 01       		.uleb128 0x1
 6981 26ed 50       		.byte	0x50
 6982 26ee 02       		.uleb128 0x2
 6983 26ef 76       		.byte	0x76
 6984 26f0 00       		.sleb128 0
 6985 26f1 00       		.byte	0
 6986 26f2 29       		.uleb128 0x29
 6987 26f3 32000000 		.4byte	.LVL155
 6988 26f7 B42D0000 		.4byte	0x2db4
 6989 26fb 06270000 		.4byte	0x2706
 6990 26ff 2A       		.uleb128 0x2a
 6991 2700 01       		.uleb128 0x1
 6992 2701 50       		.byte	0x50
 6993 2702 02       		.uleb128 0x2
 6994 2703 74       		.byte	0x74
 6995 2704 00       		.sleb128 0
 6996 2705 00       		.byte	0
 6997 2706 31       		.uleb128 0x31
 6998 2707 4A000000 		.4byte	.LVL156
 6999 270b F0240000 		.4byte	0x24f0
 7000 270f 29       		.uleb128 0x29
 7001 2710 56000000 		.4byte	.LVL157
 7002 2714 CB2D0000 		.4byte	0x2dcb
 7003 2718 23270000 		.4byte	0x2723
 7004 271c 2A       		.uleb128 0x2a
 7005 271d 01       		.uleb128 0x1
 7006 271e 50       		.byte	0x50
 7007 271f 02       		.uleb128 0x2
 7008 2720 74       		.byte	0x74
 7009 2721 00       		.sleb128 0
 7010 2722 00       		.byte	0
 7011 2723 29       		.uleb128 0x29
 7012 2724 60000000 		.4byte	.LVL158
 7013 2728 D72D0000 		.4byte	0x2dd7
 7014 272c 37270000 		.4byte	0x2737
 7015 2730 2A       		.uleb128 0x2a
 7016 2731 01       		.uleb128 0x1
 7017 2732 50       		.byte	0x50
 7018 2733 02       		.uleb128 0x2
 7019 2734 75       		.byte	0x75
 7020 2735 00       		.sleb128 0
 7021 2736 00       		.byte	0
 7022 2737 29       		.uleb128 0x29
 7023 2738 72000000 		.4byte	.LVL161
 7024 273c 722D0000 		.4byte	0x2d72
 7025 2740 4B270000 		.4byte	0x274b
 7026 2744 2A       		.uleb128 0x2a
 7027 2745 01       		.uleb128 0x1
 7028 2746 50       		.byte	0x50
ARM GAS  C:\Users\haske\AppData\Local\Temp\ccHGZgRG.s 			page 138


 7029 2747 02       		.uleb128 0x2
 7030 2748 76       		.byte	0x76
 7031 2749 00       		.sleb128 0
 7032 274a 00       		.byte	0
 7033 274b 2B       		.uleb128 0x2b
 7034 274c 7C000000 		.4byte	.LVL162
 7035 2750 F0240000 		.4byte	0x24f0
 7036 2754 2A       		.uleb128 0x2a
 7037 2755 01       		.uleb128 0x1
 7038 2756 50       		.byte	0x50
 7039 2757 02       		.uleb128 0x2
 7040 2758 76       		.byte	0x76
 7041 2759 00       		.sleb128 0
 7042 275a 00       		.byte	0
 7043 275b 00       		.byte	0
 7044 275c 3A       		.uleb128 0x3a
 7045 275d 25040000 		.4byte	.LASF588
 7046 2761 01       		.byte	0x1
 7047 2762 1D01     		.2byte	0x11d
 7048 2764 00000000 		.4byte	.LFB171
 7049 2768 18000000 		.4byte	.LFE171-.LFB171
 7050 276c 01       		.uleb128 0x1
 7051 276d 9C       		.byte	0x9c
 7052 276e 8E270000 		.4byte	0x278e
 7053 2772 3D       		.uleb128 0x3d
 7054 2773 2B120000 		.4byte	.LASF424
 7055 2777 01       		.byte	0x1
 7056 2778 1D01     		.2byte	0x11d
 7057 277a D11E0000 		.4byte	0x1ed1
 7058 277e 01       		.uleb128 0x1
 7059 277f 50       		.byte	0x50
 7060 2780 3E       		.uleb128 0x3e
 7061 2781 656E00   		.ascii	"en\000"
 7062 2784 01       		.byte	0x1
 7063 2785 1D01     		.2byte	0x11d
 7064 2787 36020000 		.4byte	0x236
 7065 278b 01       		.uleb128 0x1
 7066 278c 51       		.byte	0x51
 7067 278d 00       		.byte	0
 7068 278e 3A       		.uleb128 0x3a
 7069 278f F0110000 		.4byte	.LASF589
 7070 2793 01       		.byte	0x1
 7071 2794 2D01     		.2byte	0x12d
 7072 2796 00000000 		.4byte	.LFB173
 7073 279a 04000000 		.4byte	.LFE173-.LFB173
 7074 279e 01       		.uleb128 0x1
 7075 279f 9C       		.byte	0x9c
 7076 27a0 C1270000 		.4byte	0x27c1
 7077 27a4 3D       		.uleb128 0x3d
 7078 27a5 2B120000 		.4byte	.LASF424
 7079 27a9 01       		.byte	0x1
 7080 27aa 2D01     		.2byte	0x12d
 7081 27ac D11E0000 		.4byte	0x1ed1
 7082 27b0 01       		.uleb128 0x1
 7083 27b1 50       		.byte	0x50
 7084 27b2 3D       		.uleb128 0x3d
 7085 27b3 4E180000 		.4byte	.LASF34
ARM GAS  C:\Users\haske\AppData\Local\Temp\ccHGZgRG.s 			page 139


 7086 27b7 01       		.byte	0x1
 7087 27b8 2D01     		.2byte	0x12d
 7088 27ba 6E010000 		.4byte	0x16e
 7089 27be 01       		.uleb128 0x1
 7090 27bf 51       		.byte	0x51
 7091 27c0 00       		.byte	0
 7092 27c1 3A       		.uleb128 0x3a
 7093 27c2 5C190000 		.4byte	.LASF590
 7094 27c6 01       		.byte	0x1
 7095 27c7 3201     		.2byte	0x132
 7096 27c9 00000000 		.4byte	.LFB174
 7097 27cd 04000000 		.4byte	.LFE174-.LFB174
 7098 27d1 01       		.uleb128 0x1
 7099 27d2 9C       		.byte	0x9c
 7100 27d3 F4270000 		.4byte	0x27f4
 7101 27d7 3D       		.uleb128 0x3d
 7102 27d8 2B120000 		.4byte	.LASF424
 7103 27dc 01       		.byte	0x1
 7104 27dd 3201     		.2byte	0x132
 7105 27df D11E0000 		.4byte	0x1ed1
 7106 27e3 01       		.uleb128 0x1
 7107 27e4 50       		.byte	0x50
 7108 27e5 3D       		.uleb128 0x3d
 7109 27e6 E2050000 		.4byte	.LASF35
 7110 27ea 01       		.byte	0x1
 7111 27eb 3201     		.2byte	0x132
 7112 27ed 15020000 		.4byte	0x215
 7113 27f1 01       		.uleb128 0x1
 7114 27f2 51       		.byte	0x51
 7115 27f3 00       		.byte	0
 7116 27f4 3A       		.uleb128 0x3a
 7117 27f5 8A160000 		.4byte	.LASF591
 7118 27f9 01       		.byte	0x1
 7119 27fa 4901     		.2byte	0x149
 7120 27fc 00000000 		.4byte	.LFB176
 7121 2800 12000000 		.4byte	.LFE176-.LFB176
 7122 2804 01       		.uleb128 0x1
 7123 2805 9C       		.byte	0x9c
 7124 2806 29280000 		.4byte	0x2829
 7125 280a 3D       		.uleb128 0x3d
 7126 280b 2B120000 		.4byte	.LASF424
 7127 280f 01       		.byte	0x1
 7128 2810 4901     		.2byte	0x149
 7129 2812 D11E0000 		.4byte	0x1ed1
 7130 2816 01       		.uleb128 0x1
 7131 2817 50       		.byte	0x50
 7132 2818 2C       		.uleb128 0x2c
 7133 2819 511D0000 		.4byte	.LASF592
 7134 281d 01       		.byte	0x1
 7135 281e 4901     		.2byte	0x149
 7136 2820 36030000 		.4byte	0x336
 7137 2824 F8060000 		.4byte	.LLST35
 7138 2828 00       		.byte	0
 7139 2829 3A       		.uleb128 0x3a
 7140 282a C5130000 		.4byte	.LASF593
 7141 282e 01       		.byte	0x1
 7142 282f 4E01     		.2byte	0x14e
ARM GAS  C:\Users\haske\AppData\Local\Temp\ccHGZgRG.s 			page 140


 7143 2831 00000000 		.4byte	.LFB177
 7144 2835 12000000 		.4byte	.LFE177-.LFB177
 7145 2839 01       		.uleb128 0x1
 7146 283a 9C       		.byte	0x9c
 7147 283b 5D280000 		.4byte	0x285d
 7148 283f 3D       		.uleb128 0x3d
 7149 2840 2B120000 		.4byte	.LASF424
 7150 2844 01       		.byte	0x1
 7151 2845 4E01     		.2byte	0x14e
 7152 2847 D11E0000 		.4byte	0x1ed1
 7153 284b 01       		.uleb128 0x1
 7154 284c 50       		.byte	0x50
 7155 284d 26       		.uleb128 0x26
 7156 284e 656E00   		.ascii	"en\000"
 7157 2851 01       		.byte	0x1
 7158 2852 4E01     		.2byte	0x14e
 7159 2854 36020000 		.4byte	0x236
 7160 2858 19070000 		.4byte	.LLST36
 7161 285c 00       		.byte	0
 7162 285d 3F       		.uleb128 0x3f
 7163 285e 68070000 		.4byte	.LASF595
 7164 2862 01       		.byte	0x1
 7165 2863 5301     		.2byte	0x153
 7166 2865 E2210000 		.4byte	0x21e2
 7167 2869 00000000 		.4byte	.LFB178
 7168 286d 16000000 		.4byte	.LFE178-.LFB178
 7169 2871 01       		.uleb128 0x1
 7170 2872 9C       		.byte	0x9c
 7171 2873 88280000 		.4byte	0x2888
 7172 2877 2C       		.uleb128 0x2c
 7173 2878 2B120000 		.4byte	.LASF424
 7174 287c 01       		.byte	0x1
 7175 287d 5301     		.2byte	0x153
 7176 287f CE1F0000 		.4byte	0x1fce
 7177 2883 3A070000 		.4byte	.LLST37
 7178 2887 00       		.byte	0
 7179 2888 3F       		.uleb128 0x3f
 7180 2889 151E0000 		.4byte	.LASF596
 7181 288d 01       		.byte	0x1
 7182 288e 2301     		.2byte	0x123
 7183 2890 63010000 		.4byte	0x163
 7184 2894 00000000 		.4byte	.LFB172
 7185 2898 2E000000 		.4byte	.LFE172-.LFB172
 7186 289c 01       		.uleb128 0x1
 7187 289d 9C       		.byte	0x9c
 7188 289e 1B290000 		.4byte	0x291b
 7189 28a2 2C       		.uleb128 0x2c
 7190 28a3 2B120000 		.4byte	.LASF424
 7191 28a7 01       		.byte	0x1
 7192 28a8 2301     		.2byte	0x123
 7193 28aa D11E0000 		.4byte	0x1ed1
 7194 28ae 8D070000 		.4byte	.LLST38
 7195 28b2 26       		.uleb128 0x26
 7196 28b3 6300     		.ascii	"c\000"
 7197 28b5 01       		.byte	0x1
 7198 28b6 2301     		.2byte	0x123
 7199 28b8 F6000000 		.4byte	0xf6
ARM GAS  C:\Users\haske\AppData\Local\Temp\ccHGZgRG.s 			page 141


 7200 28bc AE070000 		.4byte	.LLST39
 7201 28c0 2E       		.uleb128 0x2e
 7202 28c1 61637400 		.ascii	"act\000"
 7203 28c5 01       		.byte	0x1
 7204 28c6 2501     		.2byte	0x125
 7205 28c8 E2210000 		.4byte	0x21e2
 7206 28cc E5070000 		.4byte	.LLST40
 7207 28d0 29       		.uleb128 0x29
 7208 28d1 0A000000 		.4byte	.LVL179
 7209 28d5 5D280000 		.4byte	0x285d
 7210 28d9 E5280000 		.4byte	0x28e5
 7211 28dd 2A       		.uleb128 0x2a
 7212 28de 01       		.uleb128 0x1
 7213 28df 50       		.byte	0x50
 7214 28e0 03       		.uleb128 0x3
 7215 28e1 F3       		.byte	0xf3
 7216 28e2 01       		.uleb128 0x1
 7217 28e3 50       		.byte	0x50
 7218 28e4 00       		.byte	0
 7219 28e5 29       		.uleb128 0x29
 7220 28e6 14000000 		.4byte	.LVL181
 7221 28ea E22D0000 		.4byte	0x2de2
 7222 28ee FF280000 		.4byte	0x28ff
 7223 28f2 2A       		.uleb128 0x2a
 7224 28f3 01       		.uleb128 0x1
 7225 28f4 50       		.byte	0x50
 7226 28f5 02       		.uleb128 0x2
 7227 28f6 74       		.byte	0x74
 7228 28f7 00       		.sleb128 0
 7229 28f8 2A       		.uleb128 0x2a
 7230 28f9 01       		.uleb128 0x1
 7231 28fa 51       		.byte	0x51
 7232 28fb 02       		.uleb128 0x2
 7233 28fc 08       		.byte	0x8
 7234 28fd 80       		.byte	0x80
 7235 28fe 00       		.byte	0
 7236 28ff 2B       		.uleb128 0x2b
 7237 2900 22000000 		.4byte	.LVL183
 7238 2904 452D0000 		.4byte	0x2d45
 7239 2908 2A       		.uleb128 0x2a
 7240 2909 01       		.uleb128 0x1
 7241 290a 50       		.byte	0x50
 7242 290b 02       		.uleb128 0x2
 7243 290c 74       		.byte	0x74
 7244 290d 00       		.sleb128 0
 7245 290e 2A       		.uleb128 0x2a
 7246 290f 01       		.uleb128 0x1
 7247 2910 51       		.byte	0x51
 7248 2911 01       		.uleb128 0x1
 7249 2912 3D       		.byte	0x3d
 7250 2913 2A       		.uleb128 0x2a
 7251 2914 01       		.uleb128 0x1
 7252 2915 52       		.byte	0x52
 7253 2916 02       		.uleb128 0x2
 7254 2917 91       		.byte	0x91
 7255 2918 74       		.sleb128 -12
 7256 2919 00       		.byte	0
ARM GAS  C:\Users\haske\AppData\Local\Temp\ccHGZgRG.s 			page 142


 7257 291a 00       		.byte	0
 7258 291b 3A       		.uleb128 0x3a
 7259 291c DF0B0000 		.4byte	.LASF597
 7260 2920 01       		.byte	0x1
 7261 2921 3701     		.2byte	0x137
 7262 2923 00000000 		.4byte	.LFB175
 7263 2927 48000000 		.4byte	.LFE175-.LFB175
 7264 292b 01       		.uleb128 0x1
 7265 292c 9C       		.byte	0x9c
 7266 292d DD290000 		.4byte	0x29dd
 7267 2931 2C       		.uleb128 0x2c
 7268 2932 2B120000 		.4byte	.LASF424
 7269 2936 01       		.byte	0x1
 7270 2937 3701     		.2byte	0x137
 7271 2939 D11E0000 		.4byte	0x1ed1
 7272 293d 19080000 		.4byte	.LLST41
 7273 2941 2C       		.uleb128 0x2c
 7274 2942 0B1C0000 		.4byte	.LASF598
 7275 2946 01       		.byte	0x1
 7276 2947 3701     		.2byte	0x137
 7277 2949 36020000 		.4byte	0x236
 7278 294d 45080000 		.4byte	.LLST42
 7279 2951 27       		.uleb128 0x27
 7280 2952 BD050000 		.4byte	.LASF599
 7281 2956 01       		.byte	0x1
 7282 2957 3A01     		.2byte	0x13a
 7283 2959 CA000000 		.4byte	0xca
 7284 295d 66080000 		.4byte	.LLST43
 7285 2961 27       		.uleb128 0x27
 7286 2962 E11C0000 		.4byte	.LASF600
 7287 2966 01       		.byte	0x1
 7288 2967 3F01     		.2byte	0x13f
 7289 2969 E2210000 		.4byte	0x21e2
 7290 296d 87080000 		.4byte	.LLST44
 7291 2971 40       		.uleb128 0x40
 7292 2972 28000000 		.4byte	.LBB8
 7293 2976 1E000000 		.4byte	.LBE8-.LBB8
 7294 297a CC290000 		.4byte	0x29cc
 7295 297e 2E       		.uleb128 0x2e
 7296 297f 72657300 		.ascii	"res\000"
 7297 2983 01       		.byte	0x1
 7298 2984 4201     		.2byte	0x142
 7299 2986 63010000 		.4byte	0x163
 7300 298a A5080000 		.4byte	.LLST45
 7301 298e 29       		.uleb128 0x29
 7302 298f 32000000 		.4byte	.LVL193
 7303 2993 0F1F0000 		.4byte	0x1f0f
 7304 2997 A2290000 		.4byte	0x29a2
 7305 299b 2A       		.uleb128 0x2a
 7306 299c 01       		.uleb128 0x1
 7307 299d 50       		.byte	0x50
 7308 299e 02       		.uleb128 0x2
 7309 299f 74       		.byte	0x74
 7310 29a0 00       		.sleb128 0
 7311 29a1 00       		.byte	0
 7312 29a2 29       		.uleb128 0x29
 7313 29a3 3C000000 		.4byte	.LVL194
ARM GAS  C:\Users\haske\AppData\Local\Temp\ccHGZgRG.s 			page 143


 7314 29a7 452D0000 		.4byte	0x2d45
 7315 29ab BB290000 		.4byte	0x29bb
 7316 29af 2A       		.uleb128 0x2a
 7317 29b0 01       		.uleb128 0x1
 7318 29b1 50       		.byte	0x50
 7319 29b2 02       		.uleb128 0x2
 7320 29b3 76       		.byte	0x76
 7321 29b4 00       		.sleb128 0
 7322 29b5 2A       		.uleb128 0x2a
 7323 29b6 01       		.uleb128 0x1
 7324 29b7 51       		.byte	0x51
 7325 29b8 01       		.uleb128 0x1
 7326 29b9 3E       		.byte	0x3e
 7327 29ba 00       		.byte	0
 7328 29bb 2B       		.uleb128 0x2b
 7329 29bc 46000000 		.4byte	.LVL196
 7330 29c0 502D0000 		.4byte	0x2d50
 7331 29c4 2A       		.uleb128 0x2a
 7332 29c5 01       		.uleb128 0x1
 7333 29c6 50       		.byte	0x50
 7334 29c7 02       		.uleb128 0x2
 7335 29c8 75       		.byte	0x75
 7336 29c9 00       		.sleb128 0
 7337 29ca 00       		.byte	0
 7338 29cb 00       		.byte	0
 7339 29cc 2B       		.uleb128 0x2b
 7340 29cd 24000000 		.4byte	.LVL190
 7341 29d1 5D280000 		.4byte	0x285d
 7342 29d5 2A       		.uleb128 0x2a
 7343 29d6 01       		.uleb128 0x1
 7344 29d7 50       		.byte	0x50
 7345 29d8 02       		.uleb128 0x2
 7346 29d9 74       		.byte	0x74
 7347 29da 00       		.sleb128 0
 7348 29db 00       		.byte	0
 7349 29dc 00       		.byte	0
 7350 29dd 33       		.uleb128 0x33
 7351 29de E91C0000 		.4byte	.LASF601
 7352 29e2 01       		.byte	0x1
 7353 29e3 EA       		.byte	0xea
 7354 29e4 00000000 		.4byte	.LFB168
 7355 29e8 96000000 		.4byte	.LFE168-.LFB168
 7356 29ec 01       		.uleb128 0x1
 7357 29ed 9C       		.byte	0x9c
 7358 29ee 2A2B0000 		.4byte	0x2b2a
 7359 29f2 3C       		.uleb128 0x3c
 7360 29f3 6F626A00 		.ascii	"obj\000"
 7361 29f7 01       		.byte	0x1
 7362 29f8 EA       		.byte	0xea
 7363 29f9 E2210000 		.4byte	0x21e2
 7364 29fd B8080000 		.4byte	.LLST46
 7365 2a01 37       		.uleb128 0x37
 7366 2a02 6700     		.ascii	"g\000"
 7367 2a04 01       		.byte	0x1
 7368 2a05 ED       		.byte	0xed
 7369 2a06 D11E0000 		.4byte	0x1ed1
 7370 2a0a E4080000 		.4byte	.LLST47
ARM GAS  C:\Users\haske\AppData\Local\Temp\ccHGZgRG.s 			page 144


 7371 2a0e 37       		.uleb128 0x37
 7372 2a0f 6900     		.ascii	"i\000"
 7373 2a11 01       		.byte	0x1
 7374 2a12 F5       		.byte	0xf5
 7375 2a13 DC210000 		.4byte	0x21dc
 7376 2a17 02090000 		.4byte	.LLST48
 7377 2a1b 40       		.uleb128 0x40
 7378 2a1c 38000000 		.4byte	.LBB9
 7379 2a20 1C000000 		.4byte	.LBE9-.LBB9
 7380 2a24 6E2A0000 		.4byte	0x2a6e
 7381 2a28 37       		.uleb128 0x37
 7382 2a29 72657300 		.ascii	"res\000"
 7383 2a2d 01       		.byte	0x1
 7384 2a2e F9       		.byte	0xf9
 7385 2a2f 63010000 		.4byte	0x163
 7386 2a33 41090000 		.4byte	.LLST49
 7387 2a37 29       		.uleb128 0x29
 7388 2a38 3E000000 		.4byte	.LVL205
 7389 2a3c 0F1F0000 		.4byte	0x1f0f
 7390 2a40 4B2A0000 		.4byte	0x2a4b
 7391 2a44 2A       		.uleb128 0x2a
 7392 2a45 01       		.uleb128 0x1
 7393 2a46 50       		.byte	0x50
 7394 2a47 02       		.uleb128 0x2
 7395 2a48 76       		.byte	0x76
 7396 2a49 00       		.sleb128 0
 7397 2a4a 00       		.byte	0
 7398 2a4b 29       		.uleb128 0x29
 7399 2a4c 48000000 		.4byte	.LVL206
 7400 2a50 452D0000 		.4byte	0x2d45
 7401 2a54 642A0000 		.4byte	0x2a64
 7402 2a58 2A       		.uleb128 0x2a
 7403 2a59 01       		.uleb128 0x1
 7404 2a5a 50       		.byte	0x50
 7405 2a5b 02       		.uleb128 0x2
 7406 2a5c 77       		.byte	0x77
 7407 2a5d 00       		.sleb128 0
 7408 2a5e 2A       		.uleb128 0x2a
 7409 2a5f 01       		.uleb128 0x1
 7410 2a60 51       		.byte	0x51
 7411 2a61 01       		.uleb128 0x1
 7412 2a62 3F       		.byte	0x3f
 7413 2a63 00       		.byte	0
 7414 2a64 31       		.uleb128 0x31
 7415 2a65 54000000 		.4byte	.LVL208
 7416 2a69 502D0000 		.4byte	0x2d50
 7417 2a6d 00       		.byte	0
 7418 2a6e 40       		.uleb128 0x40
 7419 2a6f 5A000000 		.4byte	.LBB10
 7420 2a73 2C000000 		.4byte	.LBE10-.LBB10
 7421 2a77 D22A0000 		.4byte	0x2ad2
 7422 2a7b 2E       		.uleb128 0x2e
 7423 2a7c 72657300 		.ascii	"res\000"
 7424 2a80 01       		.byte	0x1
 7425 2a81 0201     		.2byte	0x102
 7426 2a83 63010000 		.4byte	0x163
 7427 2a87 54090000 		.4byte	.LLST50
ARM GAS  C:\Users\haske\AppData\Local\Temp\ccHGZgRG.s 			page 145


 7428 2a8b 30       		.uleb128 0x30
 7429 2a8c 64000000 		.4byte	.LVL209
 7430 2a90 9B2A0000 		.4byte	0x2a9b
 7431 2a94 2A       		.uleb128 0x2a
 7432 2a95 01       		.uleb128 0x1
 7433 2a96 50       		.byte	0x50
 7434 2a97 02       		.uleb128 0x2
 7435 2a98 76       		.byte	0x76
 7436 2a99 00       		.sleb128 0
 7437 2a9a 00       		.byte	0
 7438 2a9b 29       		.uleb128 0x29
 7439 2a9c 6E000000 		.4byte	.LVL211
 7440 2aa0 0F1F0000 		.4byte	0x1f0f
 7441 2aa4 AF2A0000 		.4byte	0x2aaf
 7442 2aa8 2A       		.uleb128 0x2a
 7443 2aa9 01       		.uleb128 0x1
 7444 2aaa 50       		.byte	0x50
 7445 2aab 02       		.uleb128 0x2
 7446 2aac 76       		.byte	0x76
 7447 2aad 00       		.sleb128 0
 7448 2aae 00       		.byte	0
 7449 2aaf 29       		.uleb128 0x29
 7450 2ab0 78000000 		.4byte	.LVL212
 7451 2ab4 452D0000 		.4byte	0x2d45
 7452 2ab8 C82A0000 		.4byte	0x2ac8
 7453 2abc 2A       		.uleb128 0x2a
 7454 2abd 01       		.uleb128 0x1
 7455 2abe 50       		.byte	0x50
 7456 2abf 02       		.uleb128 0x2
 7457 2ac0 74       		.byte	0x74
 7458 2ac1 00       		.sleb128 0
 7459 2ac2 2A       		.uleb128 0x2a
 7460 2ac3 01       		.uleb128 0x1
 7461 2ac4 51       		.byte	0x51
 7462 2ac5 01       		.uleb128 0x1
 7463 2ac6 3E       		.byte	0x3e
 7464 2ac7 00       		.byte	0
 7465 2ac8 31       		.uleb128 0x31
 7466 2ac9 84000000 		.4byte	.LVL214
 7467 2acd 502D0000 		.4byte	0x2d50
 7468 2ad1 00       		.byte	0
 7469 2ad2 29       		.uleb128 0x29
 7470 2ad3 0A000000 		.4byte	.LVL199
 7471 2ad7 B42D0000 		.4byte	0x2db4
 7472 2adb E62A0000 		.4byte	0x2ae6
 7473 2adf 2A       		.uleb128 0x2a
 7474 2ae0 01       		.uleb128 0x1
 7475 2ae1 50       		.byte	0x50
 7476 2ae2 02       		.uleb128 0x2
 7477 2ae3 75       		.byte	0x75
 7478 2ae4 00       		.sleb128 0
 7479 2ae5 00       		.byte	0
 7480 2ae6 29       		.uleb128 0x29
 7481 2ae7 1A000000 		.4byte	.LVL201
 7482 2aeb 1B290000 		.4byte	0x291b
 7483 2aef FF2A0000 		.4byte	0x2aff
 7484 2af3 2A       		.uleb128 0x2a
ARM GAS  C:\Users\haske\AppData\Local\Temp\ccHGZgRG.s 			page 146


 7485 2af4 01       		.uleb128 0x1
 7486 2af5 50       		.byte	0x50
 7487 2af6 02       		.uleb128 0x2
 7488 2af7 76       		.byte	0x76
 7489 2af8 00       		.sleb128 0
 7490 2af9 2A       		.uleb128 0x2a
 7491 2afa 01       		.uleb128 0x1
 7492 2afb 51       		.byte	0x51
 7493 2afc 01       		.uleb128 0x1
 7494 2afd 30       		.byte	0x30
 7495 2afe 00       		.byte	0
 7496 2aff 29       		.uleb128 0x29
 7497 2b00 22000000 		.4byte	.LVL202
 7498 2b04 722D0000 		.4byte	0x2d72
 7499 2b08 132B0000 		.4byte	0x2b13
 7500 2b0c 2A       		.uleb128 0x2a
 7501 2b0d 01       		.uleb128 0x1
 7502 2b0e 50       		.byte	0x50
 7503 2b0f 02       		.uleb128 0x2
 7504 2b10 76       		.byte	0x76
 7505 2b11 00       		.sleb128 0
 7506 2b12 00       		.byte	0
 7507 2b13 2B       		.uleb128 0x2b
 7508 2b14 8E000000 		.4byte	.LVL217
 7509 2b18 7D2D0000 		.4byte	0x2d7d
 7510 2b1c 2A       		.uleb128 0x2a
 7511 2b1d 01       		.uleb128 0x1
 7512 2b1e 50       		.byte	0x50
 7513 2b1f 02       		.uleb128 0x2
 7514 2b20 76       		.byte	0x76
 7515 2b21 00       		.sleb128 0
 7516 2b22 2A       		.uleb128 0x2a
 7517 2b23 01       		.uleb128 0x1
 7518 2b24 51       		.byte	0x51
 7519 2b25 02       		.uleb128 0x2
 7520 2b26 74       		.byte	0x74
 7521 2b27 00       		.sleb128 0
 7522 2b28 00       		.byte	0
 7523 2b29 00       		.byte	0
 7524 2b2a 33       		.uleb128 0x33
 7525 2b2b AB1E0000 		.4byte	.LASF602
 7526 2b2f 01       		.byte	0x1
 7527 2b30 9C       		.byte	0x9c
 7528 2b31 00000000 		.4byte	.LFB165
 7529 2b35 5C000000 		.4byte	.LFE165-.LFB165
 7530 2b39 01       		.uleb128 0x1
 7531 2b3a 9C       		.byte	0x9c
 7532 2b3b FD2B0000 		.4byte	0x2bfd
 7533 2b3f 36       		.uleb128 0x36
 7534 2b40 BE0E0000 		.4byte	.LASF603
 7535 2b44 01       		.byte	0x1
 7536 2b45 9C       		.byte	0x9c
 7537 2b46 E2210000 		.4byte	0x21e2
 7538 2b4a 67090000 		.4byte	.LLST51
 7539 2b4e 36       		.uleb128 0x36
 7540 2b4f C30E0000 		.4byte	.LASF604
 7541 2b53 01       		.byte	0x1
ARM GAS  C:\Users\haske\AppData\Local\Temp\ccHGZgRG.s 			page 147


 7542 2b54 9C       		.byte	0x9c
 7543 2b55 E2210000 		.4byte	0x21e2
 7544 2b59 93090000 		.4byte	.LLST52
 7545 2b5d 37       		.uleb128 0x37
 7546 2b5e 673100   		.ascii	"g1\000"
 7547 2b61 01       		.byte	0x1
 7548 2b62 9E       		.byte	0x9e
 7549 2b63 D11E0000 		.4byte	0x1ed1
 7550 2b67 BF090000 		.4byte	.LLST53
 7551 2b6b 37       		.uleb128 0x37
 7552 2b6c 673200   		.ascii	"g2\000"
 7553 2b6f 01       		.byte	0x1
 7554 2b70 9F       		.byte	0x9f
 7555 2b71 D11E0000 		.4byte	0x1ed1
 7556 2b75 F3090000 		.4byte	.LLST54
 7557 2b79 35       		.uleb128 0x35
 7558 2b7a B00F0000 		.4byte	.LASF585
 7559 2b7e 01       		.byte	0x1
 7560 2b7f A4       		.byte	0xa4
 7561 2b80 DC210000 		.4byte	0x21dc
 7562 2b84 060A0000 		.4byte	.LLST55
 7563 2b88 29       		.uleb128 0x29
 7564 2b89 0A000000 		.4byte	.LVL222
 7565 2b8d B42D0000 		.4byte	0x2db4
 7566 2b91 9C2B0000 		.4byte	0x2b9c
 7567 2b95 2A       		.uleb128 0x2a
 7568 2b96 01       		.uleb128 0x1
 7569 2b97 50       		.byte	0x50
 7570 2b98 02       		.uleb128 0x2
 7571 2b99 74       		.byte	0x74
 7572 2b9a 00       		.sleb128 0
 7573 2b9b 00       		.byte	0
 7574 2b9c 29       		.uleb128 0x29
 7575 2b9d 12000000 		.4byte	.LVL225
 7576 2ba1 B42D0000 		.4byte	0x2db4
 7577 2ba5 B02B0000 		.4byte	0x2bb0
 7578 2ba9 2A       		.uleb128 0x2a
 7579 2baa 01       		.uleb128 0x1
 7580 2bab 50       		.byte	0x50
 7581 2bac 02       		.uleb128 0x2
 7582 2bad 76       		.byte	0x76
 7583 2bae 00       		.sleb128 0
 7584 2baf 00       		.byte	0
 7585 2bb0 29       		.uleb128 0x29
 7586 2bb1 22000000 		.4byte	.LVL227
 7587 2bb5 722D0000 		.4byte	0x2d72
 7588 2bb9 C42B0000 		.4byte	0x2bc4
 7589 2bbd 2A       		.uleb128 0x2a
 7590 2bbe 01       		.uleb128 0x1
 7591 2bbf 50       		.byte	0x50
 7592 2bc0 02       		.uleb128 0x2
 7593 2bc1 77       		.byte	0x77
 7594 2bc2 00       		.sleb128 0
 7595 2bc3 00       		.byte	0
 7596 2bc4 29       		.uleb128 0x29
 7597 2bc5 3C000000 		.4byte	.LVL229
 7598 2bc9 7D2D0000 		.4byte	0x2d7d
ARM GAS  C:\Users\haske\AppData\Local\Temp\ccHGZgRG.s 			page 148


 7599 2bcd D82B0000 		.4byte	0x2bd8
 7600 2bd1 2A       		.uleb128 0x2a
 7601 2bd2 01       		.uleb128 0x1
 7602 2bd3 50       		.byte	0x50
 7603 2bd4 02       		.uleb128 0x2
 7604 2bd5 77       		.byte	0x77
 7605 2bd6 00       		.sleb128 0
 7606 2bd7 00       		.byte	0
 7607 2bd8 29       		.uleb128 0x29
 7608 2bd9 4E000000 		.4byte	.LVL231
 7609 2bdd DD290000 		.4byte	0x29dd
 7610 2be1 EC2B0000 		.4byte	0x2bec
 7611 2be5 2A       		.uleb128 0x2a
 7612 2be6 01       		.uleb128 0x1
 7613 2be7 50       		.byte	0x50
 7614 2be8 02       		.uleb128 0x2
 7615 2be9 76       		.byte	0x76
 7616 2bea 00       		.sleb128 0
 7617 2beb 00       		.byte	0
 7618 2bec 2B       		.uleb128 0x2b
 7619 2bed 5A000000 		.4byte	.LVL234
 7620 2bf1 DD290000 		.4byte	0x29dd
 7621 2bf5 2A       		.uleb128 0x2a
 7622 2bf6 01       		.uleb128 0x1
 7623 2bf7 50       		.byte	0x50
 7624 2bf8 02       		.uleb128 0x2
 7625 2bf9 74       		.byte	0x74
 7626 2bfa 00       		.sleb128 0
 7627 2bfb 00       		.byte	0
 7628 2bfc 00       		.byte	0
 7629 2bfd 3F       		.uleb128 0x3f
 7630 2bfe 94080000 		.4byte	.LASF605
 7631 2c02 01       		.byte	0x1
 7632 2c03 5B01     		.2byte	0x15b
 7633 2c05 6E010000 		.4byte	0x16e
 7634 2c09 00000000 		.4byte	.LFB179
 7635 2c0d 0C000000 		.4byte	.LFE179-.LFB179
 7636 2c11 01       		.uleb128 0x1
 7637 2c12 9C       		.byte	0x9c
 7638 2c13 282C0000 		.4byte	0x2c28
 7639 2c17 2C       		.uleb128 0x2c
 7640 2c18 2B120000 		.4byte	.LASF424
 7641 2c1c 01       		.byte	0x1
 7642 2c1d 5B01     		.2byte	0x15b
 7643 2c1f CE1F0000 		.4byte	0x1fce
 7644 2c23 3A0A0000 		.4byte	.LLST56
 7645 2c27 00       		.byte	0
 7646 2c28 3F       		.uleb128 0x3f
 7647 2c29 B8170000 		.4byte	.LASF606
 7648 2c2d 01       		.byte	0x1
 7649 2c2e 6101     		.2byte	0x161
 7650 2c30 15020000 		.4byte	0x215
 7651 2c34 00000000 		.4byte	.LFB180
 7652 2c38 0C000000 		.4byte	.LFE180-.LFB180
 7653 2c3c 01       		.uleb128 0x1
 7654 2c3d 9C       		.byte	0x9c
 7655 2c3e 532C0000 		.4byte	0x2c53
ARM GAS  C:\Users\haske\AppData\Local\Temp\ccHGZgRG.s 			page 149


 7656 2c42 2C       		.uleb128 0x2c
 7657 2c43 2B120000 		.4byte	.LASF424
 7658 2c47 01       		.byte	0x1
 7659 2c48 6101     		.2byte	0x161
 7660 2c4a CE1F0000 		.4byte	0x1fce
 7661 2c4e 740A0000 		.4byte	.LLST57
 7662 2c52 00       		.byte	0
 7663 2c53 3F       		.uleb128 0x3f
 7664 2c54 1B0A0000 		.4byte	.LASF607
 7665 2c58 01       		.byte	0x1
 7666 2c59 6701     		.2byte	0x167
 7667 2c5b 36020000 		.4byte	0x236
 7668 2c5f 00000000 		.4byte	.LFB181
 7669 2c63 16000000 		.4byte	.LFE181-.LFB181
 7670 2c67 01       		.uleb128 0x1
 7671 2c68 9C       		.byte	0x9c
 7672 2c69 7E2C0000 		.4byte	0x2c7e
 7673 2c6d 2C       		.uleb128 0x2c
 7674 2c6e 2B120000 		.4byte	.LASF424
 7675 2c72 01       		.byte	0x1
 7676 2c73 6701     		.2byte	0x167
 7677 2c75 CE1F0000 		.4byte	0x1fce
 7678 2c79 AE0A0000 		.4byte	.LLST58
 7679 2c7d 00       		.byte	0
 7680 2c7e 3F       		.uleb128 0x3f
 7681 2c7f 180F0000 		.4byte	.LASF608
 7682 2c83 01       		.byte	0x1
 7683 2c84 6D01     		.2byte	0x16d
 7684 2c86 36020000 		.4byte	0x236
 7685 2c8a 00000000 		.4byte	.LFB182
 7686 2c8e 16000000 		.4byte	.LFE182-.LFB182
 7687 2c92 01       		.uleb128 0x1
 7688 2c93 9C       		.byte	0x9c
 7689 2c94 A92C0000 		.4byte	0x2ca9
 7690 2c98 2C       		.uleb128 0x2c
 7691 2c99 2B120000 		.4byte	.LASF424
 7692 2c9d 01       		.byte	0x1
 7693 2c9e 6D01     		.2byte	0x16d
 7694 2ca0 D11E0000 		.4byte	0x1ed1
 7695 2ca4 E80A0000 		.4byte	.LLST59
 7696 2ca8 00       		.byte	0
 7697 2ca9 3F       		.uleb128 0x3f
 7698 2caa 931F0000 		.4byte	.LASF609
 7699 2cae 01       		.byte	0x1
 7700 2caf 7301     		.2byte	0x173
 7701 2cb1 F6000000 		.4byte	0xf6
 7702 2cb5 00000000 		.4byte	.LFB183
 7703 2cb9 08000000 		.4byte	.LFE183-.LFB183
 7704 2cbd 01       		.uleb128 0x1
 7705 2cbe 9C       		.byte	0x9c
 7706 2cbf E52C0000 		.4byte	0x2ce5
 7707 2cc3 2C       		.uleb128 0x2c
 7708 2cc4 2B120000 		.4byte	.LASF424
 7709 2cc8 01       		.byte	0x1
 7710 2cc9 7301     		.2byte	0x173
 7711 2ccb D11E0000 		.4byte	0x1ed1
 7712 2ccf 220B0000 		.4byte	.LLST60
ARM GAS  C:\Users\haske\AppData\Local\Temp\ccHGZgRG.s 			page 150


 7713 2cd3 2B       		.uleb128 0x2b
 7714 2cd4 06000000 		.4byte	.LVL255
 7715 2cd8 EE2D0000 		.4byte	0x2dee
 7716 2cdc 2A       		.uleb128 0x2a
 7717 2cdd 01       		.uleb128 0x1
 7718 2cde 50       		.byte	0x50
 7719 2cdf 03       		.uleb128 0x3
 7720 2ce0 F3       		.byte	0xf3
 7721 2ce1 01       		.uleb128 0x1
 7722 2ce2 50       		.byte	0x50
 7723 2ce3 00       		.byte	0
 7724 2ce4 00       		.byte	0
 7725 2ce5 41       		.uleb128 0x41
 7726 2ce6 F4130000 		.4byte	.LASF610
 7727 2cea 01       		.byte	0x1
 7728 2ceb 23       		.byte	0x23
 7729 2cec D11E0000 		.4byte	0x1ed1
 7730 2cf0 05       		.uleb128 0x5
 7731 2cf1 03       		.byte	0x3
 7732 2cf2 00000000 		.4byte	default_group
 7733 2cf6 42       		.uleb128 0x42
 7734 2cf7 00190000 		.4byte	.LASF611
 7735 2cfb 1E       		.byte	0x1e
 7736 2cfc 4C       		.byte	0x4c
 7737 2cfd 3F010000 		.4byte	0x13f
 7738 2d01 42       		.uleb128 0x42
 7739 2d02 741E0000 		.4byte	.LASF612
 7740 2d06 0D       		.byte	0xd
 7741 2d07 94       		.byte	0x94
 7742 2d08 700C0000 		.4byte	0xc70
 7743 2d0c 43       		.uleb128 0x43
 7744 2d0d 34240000 		.4byte	.LASF613
 7745 2d11 34240000 		.4byte	.LASF613
 7746 2d15 1F       		.byte	0x1f
 7747 2d16 39       		.byte	0x39
 7748 2d17 43       		.uleb128 0x43
 7749 2d18 1F180000 		.4byte	.LASF614
 7750 2d1c 1F180000 		.4byte	.LASF614
 7751 2d20 19       		.byte	0x19
 7752 2d21 DF       		.byte	0xdf
 7753 2d22 44       		.uleb128 0x44
 7754 2d23 18190000 		.4byte	.LASF615
 7755 2d27 18190000 		.4byte	.LASF615
 7756 2d2b 08       		.byte	0x8
 7757 2d2c 2B01     		.2byte	0x12b
 7758 2d2e 44       		.uleb128 0x44
 7759 2d2f 9E230000 		.4byte	.LASF616
 7760 2d33 9E230000 		.4byte	.LASF616
 7761 2d37 08       		.byte	0x8
 7762 2d38 1C01     		.2byte	0x11c
 7763 2d3a 43       		.uleb128 0x43
 7764 2d3b A6170000 		.4byte	.LASF617
 7765 2d3f A6170000 		.4byte	.LASF617
 7766 2d43 20       		.byte	0x20
 7767 2d44 7D       		.byte	0x7d
 7768 2d45 43       		.uleb128 0x43
 7769 2d46 4F040000 		.4byte	.LASF618
ARM GAS  C:\Users\haske\AppData\Local\Temp\ccHGZgRG.s 			page 151


 7770 2d4a 4F040000 		.4byte	.LASF618
 7771 2d4e 1D       		.byte	0x1d
 7772 2d4f 92       		.byte	0x92
 7773 2d50 44       		.uleb128 0x44
 7774 2d51 8B240000 		.4byte	.LASF619
 7775 2d55 8B240000 		.4byte	.LASF619
 7776 2d59 21       		.byte	0x21
 7777 2d5a 7D01     		.2byte	0x17d
 7778 2d5c 43       		.uleb128 0x43
 7779 2d5d 47080000 		.4byte	.LASF620
 7780 2d61 47080000 		.4byte	.LASF620
 7781 2d65 05       		.byte	0x5
 7782 2d66 2F       		.byte	0x2f
 7783 2d67 43       		.uleb128 0x43
 7784 2d68 AE0E0000 		.4byte	.LASF621
 7785 2d6c AE0E0000 		.4byte	.LASF621
 7786 2d70 05       		.byte	0x5
 7787 2d71 36       		.byte	0x36
 7788 2d72 43       		.uleb128 0x43
 7789 2d73 85230000 		.4byte	.LASF622
 7790 2d77 85230000 		.4byte	.LASF622
 7791 2d7b 05       		.byte	0x5
 7792 2d7c 64       		.byte	0x64
 7793 2d7d 43       		.uleb128 0x43
 7794 2d7e 5D1C0000 		.4byte	.LASF623
 7795 2d82 5D1C0000 		.4byte	.LASF623
 7796 2d86 05       		.byte	0x5
 7797 2d87 73       		.byte	0x73
 7798 2d88 43       		.uleb128 0x43
 7799 2d89 32140000 		.4byte	.LASF624
 7800 2d8d 32140000 		.4byte	.LASF624
 7801 2d91 1F       		.byte	0x1f
 7802 2d92 54       		.byte	0x54
 7803 2d93 43       		.uleb128 0x43
 7804 2d94 610D0000 		.4byte	.LASF625
 7805 2d98 610D0000 		.4byte	.LASF625
 7806 2d9c 05       		.byte	0x5
 7807 2d9d 53       		.byte	0x53
 7808 2d9e 43       		.uleb128 0x43
 7809 2d9f 571F0000 		.4byte	.LASF626
 7810 2da3 571F0000 		.4byte	.LASF626
 7811 2da7 05       		.byte	0x5
 7812 2da8 4D       		.byte	0x4d
 7813 2da9 43       		.uleb128 0x43
 7814 2daa D9000000 		.4byte	.LASF627
 7815 2dae D9000000 		.4byte	.LASF627
 7816 2db2 22       		.byte	0x22
 7817 2db3 50       		.byte	0x50
 7818 2db4 44       		.uleb128 0x44
 7819 2db5 81250000 		.4byte	.LASF628
 7820 2db9 81250000 		.4byte	.LASF628
 7821 2dbd 08       		.byte	0x8
 7822 2dbe 3A01     		.2byte	0x13a
 7823 2dc0 43       		.uleb128 0x43
 7824 2dc1 D4120000 		.4byte	.LASF629
 7825 2dc5 D4120000 		.4byte	.LASF629
 7826 2dc9 05       		.byte	0x5
ARM GAS  C:\Users\haske\AppData\Local\Temp\ccHGZgRG.s 			page 152


 7827 2dca 6B       		.byte	0x6b
 7828 2dcb 44       		.uleb128 0x44
 7829 2dcc 7F210000 		.4byte	.LASF630
 7830 2dd0 7F210000 		.4byte	.LASF630
 7831 2dd4 08       		.byte	0x8
 7832 2dd5 5001     		.2byte	0x150
 7833 2dd7 43       		.uleb128 0x43
 7834 2dd8 F2210000 		.4byte	.LASF631
 7835 2ddc F2210000 		.4byte	.LASF631
 7836 2de0 05       		.byte	0x5
 7837 2de1 45       		.byte	0x45
 7838 2de2 44       		.uleb128 0x44
 7839 2de3 07240000 		.4byte	.LASF632
 7840 2de7 07240000 		.4byte	.LASF632
 7841 2deb 08       		.byte	0x8
 7842 2dec 3301     		.2byte	0x133
 7843 2dee 43       		.uleb128 0x43
 7844 2def E4120000 		.4byte	.LASF633
 7845 2df3 E4120000 		.4byte	.LASF633
 7846 2df7 05       		.byte	0x5
 7847 2df8 82       		.byte	0x82
 7848 2df9 00       		.byte	0
 7849              		.section	.debug_abbrev,"",%progbits
 7850              	.Ldebug_abbrev0:
 7851 0000 01       		.uleb128 0x1
 7852 0001 11       		.uleb128 0x11
 7853 0002 01       		.byte	0x1
 7854 0003 25       		.uleb128 0x25
 7855 0004 0E       		.uleb128 0xe
 7856 0005 13       		.uleb128 0x13
 7857 0006 0B       		.uleb128 0xb
 7858 0007 03       		.uleb128 0x3
 7859 0008 0E       		.uleb128 0xe
 7860 0009 1B       		.uleb128 0x1b
 7861 000a 0E       		.uleb128 0xe
 7862 000b 55       		.uleb128 0x55
 7863 000c 17       		.uleb128 0x17
 7864 000d 11       		.uleb128 0x11
 7865 000e 01       		.uleb128 0x1
 7866 000f 10       		.uleb128 0x10
 7867 0010 17       		.uleb128 0x17
 7868 0011 00       		.byte	0
 7869 0012 00       		.byte	0
 7870 0013 02       		.uleb128 0x2
 7871 0014 24       		.uleb128 0x24
 7872 0015 00       		.byte	0
 7873 0016 0B       		.uleb128 0xb
 7874 0017 0B       		.uleb128 0xb
 7875 0018 3E       		.uleb128 0x3e
 7876 0019 0B       		.uleb128 0xb
 7877 001a 03       		.uleb128 0x3
 7878 001b 08       		.uleb128 0x8
 7879 001c 00       		.byte	0
 7880 001d 00       		.byte	0
 7881 001e 03       		.uleb128 0x3
 7882 001f 16       		.uleb128 0x16
 7883 0020 00       		.byte	0
ARM GAS  C:\Users\haske\AppData\Local\Temp\ccHGZgRG.s 			page 153


 7884 0021 03       		.uleb128 0x3
 7885 0022 0E       		.uleb128 0xe
 7886 0023 3A       		.uleb128 0x3a
 7887 0024 0B       		.uleb128 0xb
 7888 0025 3B       		.uleb128 0x3b
 7889 0026 0B       		.uleb128 0xb
 7890 0027 49       		.uleb128 0x49
 7891 0028 13       		.uleb128 0x13
 7892 0029 00       		.byte	0
 7893 002a 00       		.byte	0
 7894 002b 04       		.uleb128 0x4
 7895 002c 24       		.uleb128 0x24
 7896 002d 00       		.byte	0
 7897 002e 0B       		.uleb128 0xb
 7898 002f 0B       		.uleb128 0xb
 7899 0030 3E       		.uleb128 0x3e
 7900 0031 0B       		.uleb128 0xb
 7901 0032 03       		.uleb128 0x3
 7902 0033 0E       		.uleb128 0xe
 7903 0034 00       		.byte	0
 7904 0035 00       		.byte	0
 7905 0036 05       		.uleb128 0x5
 7906 0037 13       		.uleb128 0x13
 7907 0038 01       		.byte	0x1
 7908 0039 0B       		.uleb128 0xb
 7909 003a 0B       		.uleb128 0xb
 7910 003b 3A       		.uleb128 0x3a
 7911 003c 0B       		.uleb128 0xb
 7912 003d 3B       		.uleb128 0x3b
 7913 003e 0B       		.uleb128 0xb
 7914 003f 01       		.uleb128 0x1
 7915 0040 13       		.uleb128 0x13
 7916 0041 00       		.byte	0
 7917 0042 00       		.byte	0
 7918 0043 06       		.uleb128 0x6
 7919 0044 0D       		.uleb128 0xd
 7920 0045 00       		.byte	0
 7921 0046 03       		.uleb128 0x3
 7922 0047 0E       		.uleb128 0xe
 7923 0048 3A       		.uleb128 0x3a
 7924 0049 0B       		.uleb128 0xb
 7925 004a 3B       		.uleb128 0x3b
 7926 004b 0B       		.uleb128 0xb
 7927 004c 49       		.uleb128 0x49
 7928 004d 13       		.uleb128 0x13
 7929 004e 38       		.uleb128 0x38
 7930 004f 0B       		.uleb128 0xb
 7931 0050 00       		.byte	0
 7932 0051 00       		.byte	0
 7933 0052 07       		.uleb128 0x7
 7934 0053 0F       		.uleb128 0xf
 7935 0054 00       		.byte	0
 7936 0055 0B       		.uleb128 0xb
 7937 0056 0B       		.uleb128 0xb
 7938 0057 49       		.uleb128 0x49
 7939 0058 13       		.uleb128 0x13
 7940 0059 00       		.byte	0
ARM GAS  C:\Users\haske\AppData\Local\Temp\ccHGZgRG.s 			page 154


 7941 005a 00       		.byte	0
 7942 005b 08       		.uleb128 0x8
 7943 005c 04       		.uleb128 0x4
 7944 005d 01       		.byte	0x1
 7945 005e 0B       		.uleb128 0xb
 7946 005f 0B       		.uleb128 0xb
 7947 0060 49       		.uleb128 0x49
 7948 0061 13       		.uleb128 0x13
 7949 0062 3A       		.uleb128 0x3a
 7950 0063 0B       		.uleb128 0xb
 7951 0064 3B       		.uleb128 0x3b
 7952 0065 0B       		.uleb128 0xb
 7953 0066 01       		.uleb128 0x1
 7954 0067 13       		.uleb128 0x13
 7955 0068 00       		.byte	0
 7956 0069 00       		.byte	0
 7957 006a 09       		.uleb128 0x9
 7958 006b 28       		.uleb128 0x28
 7959 006c 00       		.byte	0
 7960 006d 03       		.uleb128 0x3
 7961 006e 0E       		.uleb128 0xe
 7962 006f 1C       		.uleb128 0x1c
 7963 0070 0B       		.uleb128 0xb
 7964 0071 00       		.byte	0
 7965 0072 00       		.byte	0
 7966 0073 0A       		.uleb128 0xa
 7967 0074 15       		.uleb128 0x15
 7968 0075 01       		.byte	0x1
 7969 0076 27       		.uleb128 0x27
 7970 0077 19       		.uleb128 0x19
 7971 0078 01       		.uleb128 0x1
 7972 0079 13       		.uleb128 0x13
 7973 007a 00       		.byte	0
 7974 007b 00       		.byte	0
 7975 007c 0B       		.uleb128 0xb
 7976 007d 05       		.uleb128 0x5
 7977 007e 00       		.byte	0
 7978 007f 49       		.uleb128 0x49
 7979 0080 13       		.uleb128 0x13
 7980 0081 00       		.byte	0
 7981 0082 00       		.byte	0
 7982 0083 0C       		.uleb128 0xc
 7983 0084 13       		.uleb128 0x13
 7984 0085 01       		.byte	0x1
 7985 0086 03       		.uleb128 0x3
 7986 0087 0E       		.uleb128 0xe
 7987 0088 0B       		.uleb128 0xb
 7988 0089 0B       		.uleb128 0xb
 7989 008a 3A       		.uleb128 0x3a
 7990 008b 0B       		.uleb128 0xb
 7991 008c 3B       		.uleb128 0x3b
 7992 008d 0B       		.uleb128 0xb
 7993 008e 01       		.uleb128 0x1
 7994 008f 13       		.uleb128 0x13
 7995 0090 00       		.byte	0
 7996 0091 00       		.byte	0
 7997 0092 0D       		.uleb128 0xd
ARM GAS  C:\Users\haske\AppData\Local\Temp\ccHGZgRG.s 			page 155


 7998 0093 0D       		.uleb128 0xd
 7999 0094 00       		.byte	0
 8000 0095 03       		.uleb128 0x3
 8001 0096 0E       		.uleb128 0xe
 8002 0097 3A       		.uleb128 0x3a
 8003 0098 0B       		.uleb128 0xb
 8004 0099 3B       		.uleb128 0x3b
 8005 009a 0B       		.uleb128 0xb
 8006 009b 49       		.uleb128 0x49
 8007 009c 13       		.uleb128 0x13
 8008 009d 0B       		.uleb128 0xb
 8009 009e 0B       		.uleb128 0xb
 8010 009f 0D       		.uleb128 0xd
 8011 00a0 0B       		.uleb128 0xb
 8012 00a1 0C       		.uleb128 0xc
 8013 00a2 0B       		.uleb128 0xb
 8014 00a3 38       		.uleb128 0x38
 8015 00a4 0B       		.uleb128 0xb
 8016 00a5 00       		.byte	0
 8017 00a6 00       		.byte	0
 8018 00a7 0E       		.uleb128 0xe
 8019 00a8 0F       		.uleb128 0xf
 8020 00a9 00       		.byte	0
 8021 00aa 0B       		.uleb128 0xb
 8022 00ab 0B       		.uleb128 0xb
 8023 00ac 00       		.byte	0
 8024 00ad 00       		.byte	0
 8025 00ae 0F       		.uleb128 0xf
 8026 00af 0D       		.uleb128 0xd
 8027 00b0 00       		.byte	0
 8028 00b1 03       		.uleb128 0x3
 8029 00b2 08       		.uleb128 0x8
 8030 00b3 3A       		.uleb128 0x3a
 8031 00b4 0B       		.uleb128 0xb
 8032 00b5 3B       		.uleb128 0x3b
 8033 00b6 0B       		.uleb128 0xb
 8034 00b7 49       		.uleb128 0x49
 8035 00b8 13       		.uleb128 0x13
 8036 00b9 0B       		.uleb128 0xb
 8037 00ba 0B       		.uleb128 0xb
 8038 00bb 0D       		.uleb128 0xd
 8039 00bc 0B       		.uleb128 0xb
 8040 00bd 0C       		.uleb128 0xc
 8041 00be 0B       		.uleb128 0xb
 8042 00bf 38       		.uleb128 0x38
 8043 00c0 0B       		.uleb128 0xb
 8044 00c1 00       		.byte	0
 8045 00c2 00       		.byte	0
 8046 00c3 10       		.uleb128 0x10
 8047 00c4 17       		.uleb128 0x17
 8048 00c5 01       		.byte	0x1
 8049 00c6 0B       		.uleb128 0xb
 8050 00c7 0B       		.uleb128 0xb
 8051 00c8 3A       		.uleb128 0x3a
 8052 00c9 0B       		.uleb128 0xb
 8053 00ca 3B       		.uleb128 0x3b
 8054 00cb 0B       		.uleb128 0xb
ARM GAS  C:\Users\haske\AppData\Local\Temp\ccHGZgRG.s 			page 156


 8055 00cc 01       		.uleb128 0x1
 8056 00cd 13       		.uleb128 0x13
 8057 00ce 00       		.byte	0
 8058 00cf 00       		.byte	0
 8059 00d0 11       		.uleb128 0x11
 8060 00d1 0D       		.uleb128 0xd
 8061 00d2 00       		.byte	0
 8062 00d3 03       		.uleb128 0x3
 8063 00d4 08       		.uleb128 0x8
 8064 00d5 3A       		.uleb128 0x3a
 8065 00d6 0B       		.uleb128 0xb
 8066 00d7 3B       		.uleb128 0x3b
 8067 00d8 0B       		.uleb128 0xb
 8068 00d9 49       		.uleb128 0x49
 8069 00da 13       		.uleb128 0x13
 8070 00db 00       		.byte	0
 8071 00dc 00       		.byte	0
 8072 00dd 12       		.uleb128 0x12
 8073 00de 0D       		.uleb128 0xd
 8074 00df 00       		.byte	0
 8075 00e0 03       		.uleb128 0x3
 8076 00e1 0E       		.uleb128 0xe
 8077 00e2 3A       		.uleb128 0x3a
 8078 00e3 0B       		.uleb128 0xb
 8079 00e4 3B       		.uleb128 0x3b
 8080 00e5 0B       		.uleb128 0xb
 8081 00e6 49       		.uleb128 0x49
 8082 00e7 13       		.uleb128 0x13
 8083 00e8 00       		.byte	0
 8084 00e9 00       		.byte	0
 8085 00ea 13       		.uleb128 0x13
 8086 00eb 0D       		.uleb128 0xd
 8087 00ec 00       		.byte	0
 8088 00ed 03       		.uleb128 0x3
 8089 00ee 08       		.uleb128 0x8
 8090 00ef 3A       		.uleb128 0x3a
 8091 00f0 0B       		.uleb128 0xb
 8092 00f1 3B       		.uleb128 0x3b
 8093 00f2 0B       		.uleb128 0xb
 8094 00f3 49       		.uleb128 0x49
 8095 00f4 13       		.uleb128 0x13
 8096 00f5 38       		.uleb128 0x38
 8097 00f6 0B       		.uleb128 0xb
 8098 00f7 00       		.byte	0
 8099 00f8 00       		.byte	0
 8100 00f9 14       		.uleb128 0x14
 8101 00fa 26       		.uleb128 0x26
 8102 00fb 00       		.byte	0
 8103 00fc 49       		.uleb128 0x49
 8104 00fd 13       		.uleb128 0x13
 8105 00fe 00       		.byte	0
 8106 00ff 00       		.byte	0
 8107 0100 15       		.uleb128 0x15
 8108 0101 26       		.uleb128 0x26
 8109 0102 00       		.byte	0
 8110 0103 00       		.byte	0
 8111 0104 00       		.byte	0
ARM GAS  C:\Users\haske\AppData\Local\Temp\ccHGZgRG.s 			page 157


 8112 0105 16       		.uleb128 0x16
 8113 0106 15       		.uleb128 0x15
 8114 0107 01       		.byte	0x1
 8115 0108 27       		.uleb128 0x27
 8116 0109 19       		.uleb128 0x19
 8117 010a 49       		.uleb128 0x49
 8118 010b 13       		.uleb128 0x13
 8119 010c 01       		.uleb128 0x1
 8120 010d 13       		.uleb128 0x13
 8121 010e 00       		.byte	0
 8122 010f 00       		.byte	0
 8123 0110 17       		.uleb128 0x17
 8124 0111 01       		.uleb128 0x1
 8125 0112 01       		.byte	0x1
 8126 0113 49       		.uleb128 0x49
 8127 0114 13       		.uleb128 0x13
 8128 0115 01       		.uleb128 0x1
 8129 0116 13       		.uleb128 0x13
 8130 0117 00       		.byte	0
 8131 0118 00       		.byte	0
 8132 0119 18       		.uleb128 0x18
 8133 011a 21       		.uleb128 0x21
 8134 011b 00       		.byte	0
 8135 011c 49       		.uleb128 0x49
 8136 011d 13       		.uleb128 0x13
 8137 011e 2F       		.uleb128 0x2f
 8138 011f 0B       		.uleb128 0xb
 8139 0120 00       		.byte	0
 8140 0121 00       		.byte	0
 8141 0122 19       		.uleb128 0x19
 8142 0123 28       		.uleb128 0x28
 8143 0124 00       		.byte	0
 8144 0125 03       		.uleb128 0x3
 8145 0126 0E       		.uleb128 0xe
 8146 0127 1C       		.uleb128 0x1c
 8147 0128 05       		.uleb128 0x5
 8148 0129 00       		.byte	0
 8149 012a 00       		.byte	0
 8150 012b 1A       		.uleb128 0x1a
 8151 012c 16       		.uleb128 0x16
 8152 012d 00       		.byte	0
 8153 012e 03       		.uleb128 0x3
 8154 012f 0E       		.uleb128 0xe
 8155 0130 3A       		.uleb128 0x3a
 8156 0131 0B       		.uleb128 0xb
 8157 0132 3B       		.uleb128 0x3b
 8158 0133 05       		.uleb128 0x5
 8159 0134 49       		.uleb128 0x49
 8160 0135 13       		.uleb128 0x13
 8161 0136 00       		.byte	0
 8162 0137 00       		.byte	0
 8163 0138 1B       		.uleb128 0x1b
 8164 0139 13       		.uleb128 0x13
 8165 013a 01       		.byte	0x1
 8166 013b 0B       		.uleb128 0xb
 8167 013c 0B       		.uleb128 0xb
 8168 013d 3A       		.uleb128 0x3a
ARM GAS  C:\Users\haske\AppData\Local\Temp\ccHGZgRG.s 			page 158


 8169 013e 0B       		.uleb128 0xb
 8170 013f 3B       		.uleb128 0x3b
 8171 0140 05       		.uleb128 0x5
 8172 0141 01       		.uleb128 0x1
 8173 0142 13       		.uleb128 0x13
 8174 0143 00       		.byte	0
 8175 0144 00       		.byte	0
 8176 0145 1C       		.uleb128 0x1c
 8177 0146 0D       		.uleb128 0xd
 8178 0147 00       		.byte	0
 8179 0148 03       		.uleb128 0x3
 8180 0149 0E       		.uleb128 0xe
 8181 014a 3A       		.uleb128 0x3a
 8182 014b 0B       		.uleb128 0xb
 8183 014c 3B       		.uleb128 0x3b
 8184 014d 05       		.uleb128 0x5
 8185 014e 49       		.uleb128 0x49
 8186 014f 13       		.uleb128 0x13
 8187 0150 38       		.uleb128 0x38
 8188 0151 0B       		.uleb128 0xb
 8189 0152 00       		.byte	0
 8190 0153 00       		.byte	0
 8191 0154 1D       		.uleb128 0x1d
 8192 0155 17       		.uleb128 0x17
 8193 0156 01       		.byte	0x1
 8194 0157 0B       		.uleb128 0xb
 8195 0158 0B       		.uleb128 0xb
 8196 0159 3A       		.uleb128 0x3a
 8197 015a 0B       		.uleb128 0xb
 8198 015b 3B       		.uleb128 0x3b
 8199 015c 05       		.uleb128 0x5
 8200 015d 01       		.uleb128 0x1
 8201 015e 13       		.uleb128 0x13
 8202 015f 00       		.byte	0
 8203 0160 00       		.byte	0
 8204 0161 1E       		.uleb128 0x1e
 8205 0162 0D       		.uleb128 0xd
 8206 0163 00       		.byte	0
 8207 0164 03       		.uleb128 0x3
 8208 0165 0E       		.uleb128 0xe
 8209 0166 3A       		.uleb128 0x3a
 8210 0167 0B       		.uleb128 0xb
 8211 0168 3B       		.uleb128 0x3b
 8212 0169 05       		.uleb128 0x5
 8213 016a 49       		.uleb128 0x49
 8214 016b 13       		.uleb128 0x13
 8215 016c 00       		.byte	0
 8216 016d 00       		.byte	0
 8217 016e 1F       		.uleb128 0x1f
 8218 016f 0D       		.uleb128 0xd
 8219 0170 00       		.byte	0
 8220 0171 03       		.uleb128 0x3
 8221 0172 08       		.uleb128 0x8
 8222 0173 3A       		.uleb128 0x3a
 8223 0174 0B       		.uleb128 0xb
 8224 0175 3B       		.uleb128 0x3b
 8225 0176 05       		.uleb128 0x5
ARM GAS  C:\Users\haske\AppData\Local\Temp\ccHGZgRG.s 			page 159


 8226 0177 49       		.uleb128 0x49
 8227 0178 13       		.uleb128 0x13
 8228 0179 38       		.uleb128 0x38
 8229 017a 0B       		.uleb128 0xb
 8230 017b 00       		.byte	0
 8231 017c 00       		.byte	0
 8232 017d 20       		.uleb128 0x20
 8233 017e 35       		.uleb128 0x35
 8234 017f 00       		.byte	0
 8235 0180 49       		.uleb128 0x49
 8236 0181 13       		.uleb128 0x13
 8237 0182 00       		.byte	0
 8238 0183 00       		.byte	0
 8239 0184 21       		.uleb128 0x21
 8240 0185 13       		.uleb128 0x13
 8241 0186 01       		.byte	0x1
 8242 0187 03       		.uleb128 0x3
 8243 0188 0E       		.uleb128 0xe
 8244 0189 0B       		.uleb128 0xb
 8245 018a 05       		.uleb128 0x5
 8246 018b 3A       		.uleb128 0x3a
 8247 018c 0B       		.uleb128 0xb
 8248 018d 3B       		.uleb128 0x3b
 8249 018e 0B       		.uleb128 0xb
 8250 018f 01       		.uleb128 0x1
 8251 0190 13       		.uleb128 0x13
 8252 0191 00       		.byte	0
 8253 0192 00       		.byte	0
 8254 0193 22       		.uleb128 0x22
 8255 0194 0D       		.uleb128 0xd
 8256 0195 00       		.byte	0
 8257 0196 03       		.uleb128 0x3
 8258 0197 0E       		.uleb128 0xe
 8259 0198 3A       		.uleb128 0x3a
 8260 0199 0B       		.uleb128 0xb
 8261 019a 3B       		.uleb128 0x3b
 8262 019b 0B       		.uleb128 0xb
 8263 019c 49       		.uleb128 0x49
 8264 019d 13       		.uleb128 0x13
 8265 019e 38       		.uleb128 0x38
 8266 019f 05       		.uleb128 0x5
 8267 01a0 00       		.byte	0
 8268 01a1 00       		.byte	0
 8269 01a2 23       		.uleb128 0x23
 8270 01a3 13       		.uleb128 0x13
 8271 01a4 00       		.byte	0
 8272 01a5 03       		.uleb128 0x3
 8273 01a6 0E       		.uleb128 0xe
 8274 01a7 3C       		.uleb128 0x3c
 8275 01a8 19       		.uleb128 0x19
 8276 01a9 00       		.byte	0
 8277 01aa 00       		.byte	0
 8278 01ab 24       		.uleb128 0x24
 8279 01ac 28       		.uleb128 0x28
 8280 01ad 00       		.byte	0
 8281 01ae 03       		.uleb128 0x3
 8282 01af 0E       		.uleb128 0xe
ARM GAS  C:\Users\haske\AppData\Local\Temp\ccHGZgRG.s 			page 160


 8283 01b0 1C       		.uleb128 0x1c
 8284 01b1 06       		.uleb128 0x6
 8285 01b2 00       		.byte	0
 8286 01b3 00       		.byte	0
 8287 01b4 25       		.uleb128 0x25
 8288 01b5 2E       		.uleb128 0x2e
 8289 01b6 01       		.byte	0x1
 8290 01b7 03       		.uleb128 0x3
 8291 01b8 0E       		.uleb128 0xe
 8292 01b9 3A       		.uleb128 0x3a
 8293 01ba 0B       		.uleb128 0xb
 8294 01bb 3B       		.uleb128 0x3b
 8295 01bc 05       		.uleb128 0x5
 8296 01bd 27       		.uleb128 0x27
 8297 01be 19       		.uleb128 0x19
 8298 01bf 49       		.uleb128 0x49
 8299 01c0 13       		.uleb128 0x13
 8300 01c1 11       		.uleb128 0x11
 8301 01c2 01       		.uleb128 0x1
 8302 01c3 12       		.uleb128 0x12
 8303 01c4 06       		.uleb128 0x6
 8304 01c5 40       		.uleb128 0x40
 8305 01c6 18       		.uleb128 0x18
 8306 01c7 9742     		.uleb128 0x2117
 8307 01c9 19       		.uleb128 0x19
 8308 01ca 01       		.uleb128 0x1
 8309 01cb 13       		.uleb128 0x13
 8310 01cc 00       		.byte	0
 8311 01cd 00       		.byte	0
 8312 01ce 26       		.uleb128 0x26
 8313 01cf 05       		.uleb128 0x5
 8314 01d0 00       		.byte	0
 8315 01d1 03       		.uleb128 0x3
 8316 01d2 08       		.uleb128 0x8
 8317 01d3 3A       		.uleb128 0x3a
 8318 01d4 0B       		.uleb128 0xb
 8319 01d5 3B       		.uleb128 0x3b
 8320 01d6 05       		.uleb128 0x5
 8321 01d7 49       		.uleb128 0x49
 8322 01d8 13       		.uleb128 0x13
 8323 01d9 02       		.uleb128 0x2
 8324 01da 17       		.uleb128 0x17
 8325 01db 00       		.byte	0
 8326 01dc 00       		.byte	0
 8327 01dd 27       		.uleb128 0x27
 8328 01de 34       		.uleb128 0x34
 8329 01df 00       		.byte	0
 8330 01e0 03       		.uleb128 0x3
 8331 01e1 0E       		.uleb128 0xe
 8332 01e2 3A       		.uleb128 0x3a
 8333 01e3 0B       		.uleb128 0xb
 8334 01e4 3B       		.uleb128 0x3b
 8335 01e5 05       		.uleb128 0x5
 8336 01e6 49       		.uleb128 0x49
 8337 01e7 13       		.uleb128 0x13
 8338 01e8 02       		.uleb128 0x2
 8339 01e9 17       		.uleb128 0x17
ARM GAS  C:\Users\haske\AppData\Local\Temp\ccHGZgRG.s 			page 161


 8340 01ea 00       		.byte	0
 8341 01eb 00       		.byte	0
 8342 01ec 28       		.uleb128 0x28
 8343 01ed 0B       		.uleb128 0xb
 8344 01ee 01       		.byte	0x1
 8345 01ef 55       		.uleb128 0x55
 8346 01f0 17       		.uleb128 0x17
 8347 01f1 01       		.uleb128 0x1
 8348 01f2 13       		.uleb128 0x13
 8349 01f3 00       		.byte	0
 8350 01f4 00       		.byte	0
 8351 01f5 29       		.uleb128 0x29
 8352 01f6 898201   		.uleb128 0x4109
 8353 01f9 01       		.byte	0x1
 8354 01fa 11       		.uleb128 0x11
 8355 01fb 01       		.uleb128 0x1
 8356 01fc 31       		.uleb128 0x31
 8357 01fd 13       		.uleb128 0x13
 8358 01fe 01       		.uleb128 0x1
 8359 01ff 13       		.uleb128 0x13
 8360 0200 00       		.byte	0
 8361 0201 00       		.byte	0
 8362 0202 2A       		.uleb128 0x2a
 8363 0203 8A8201   		.uleb128 0x410a
 8364 0206 00       		.byte	0
 8365 0207 02       		.uleb128 0x2
 8366 0208 18       		.uleb128 0x18
 8367 0209 9142     		.uleb128 0x2111
 8368 020b 18       		.uleb128 0x18
 8369 020c 00       		.byte	0
 8370 020d 00       		.byte	0
 8371 020e 2B       		.uleb128 0x2b
 8372 020f 898201   		.uleb128 0x4109
 8373 0212 01       		.byte	0x1
 8374 0213 11       		.uleb128 0x11
 8375 0214 01       		.uleb128 0x1
 8376 0215 31       		.uleb128 0x31
 8377 0216 13       		.uleb128 0x13
 8378 0217 00       		.byte	0
 8379 0218 00       		.byte	0
 8380 0219 2C       		.uleb128 0x2c
 8381 021a 05       		.uleb128 0x5
 8382 021b 00       		.byte	0
 8383 021c 03       		.uleb128 0x3
 8384 021d 0E       		.uleb128 0xe
 8385 021e 3A       		.uleb128 0x3a
 8386 021f 0B       		.uleb128 0xb
 8387 0220 3B       		.uleb128 0x3b
 8388 0221 05       		.uleb128 0x5
 8389 0222 49       		.uleb128 0x49
 8390 0223 13       		.uleb128 0x13
 8391 0224 02       		.uleb128 0x2
 8392 0225 17       		.uleb128 0x17
 8393 0226 00       		.byte	0
 8394 0227 00       		.byte	0
 8395 0228 2D       		.uleb128 0x2d
 8396 0229 34       		.uleb128 0x34
ARM GAS  C:\Users\haske\AppData\Local\Temp\ccHGZgRG.s 			page 162


 8397 022a 00       		.byte	0
 8398 022b 03       		.uleb128 0x3
 8399 022c 0E       		.uleb128 0xe
 8400 022d 3A       		.uleb128 0x3a
 8401 022e 0B       		.uleb128 0xb
 8402 022f 3B       		.uleb128 0x3b
 8403 0230 05       		.uleb128 0x5
 8404 0231 49       		.uleb128 0x49
 8405 0232 13       		.uleb128 0x13
 8406 0233 1C       		.uleb128 0x1c
 8407 0234 0B       		.uleb128 0xb
 8408 0235 00       		.byte	0
 8409 0236 00       		.byte	0
 8410 0237 2E       		.uleb128 0x2e
 8411 0238 34       		.uleb128 0x34
 8412 0239 00       		.byte	0
 8413 023a 03       		.uleb128 0x3
 8414 023b 08       		.uleb128 0x8
 8415 023c 3A       		.uleb128 0x3a
 8416 023d 0B       		.uleb128 0xb
 8417 023e 3B       		.uleb128 0x3b
 8418 023f 05       		.uleb128 0x5
 8419 0240 49       		.uleb128 0x49
 8420 0241 13       		.uleb128 0x13
 8421 0242 02       		.uleb128 0x2
 8422 0243 17       		.uleb128 0x17
 8423 0244 00       		.byte	0
 8424 0245 00       		.byte	0
 8425 0246 2F       		.uleb128 0x2f
 8426 0247 898201   		.uleb128 0x4109
 8427 024a 01       		.byte	0x1
 8428 024b 11       		.uleb128 0x11
 8429 024c 01       		.uleb128 0x1
 8430 024d 9342     		.uleb128 0x2113
 8431 024f 18       		.uleb128 0x18
 8432 0250 01       		.uleb128 0x1
 8433 0251 13       		.uleb128 0x13
 8434 0252 00       		.byte	0
 8435 0253 00       		.byte	0
 8436 0254 30       		.uleb128 0x30
 8437 0255 898201   		.uleb128 0x4109
 8438 0258 01       		.byte	0x1
 8439 0259 11       		.uleb128 0x11
 8440 025a 01       		.uleb128 0x1
 8441 025b 01       		.uleb128 0x1
 8442 025c 13       		.uleb128 0x13
 8443 025d 00       		.byte	0
 8444 025e 00       		.byte	0
 8445 025f 31       		.uleb128 0x31
 8446 0260 898201   		.uleb128 0x4109
 8447 0263 00       		.byte	0
 8448 0264 11       		.uleb128 0x11
 8449 0265 01       		.uleb128 0x1
 8450 0266 31       		.uleb128 0x31
 8451 0267 13       		.uleb128 0x13
 8452 0268 00       		.byte	0
 8453 0269 00       		.byte	0
ARM GAS  C:\Users\haske\AppData\Local\Temp\ccHGZgRG.s 			page 163


 8454 026a 32       		.uleb128 0x32
 8455 026b 898201   		.uleb128 0x4109
 8456 026e 01       		.byte	0x1
 8457 026f 11       		.uleb128 0x11
 8458 0270 01       		.uleb128 0x1
 8459 0271 00       		.byte	0
 8460 0272 00       		.byte	0
 8461 0273 33       		.uleb128 0x33
 8462 0274 2E       		.uleb128 0x2e
 8463 0275 01       		.byte	0x1
 8464 0276 3F       		.uleb128 0x3f
 8465 0277 19       		.uleb128 0x19
 8466 0278 03       		.uleb128 0x3
 8467 0279 0E       		.uleb128 0xe
 8468 027a 3A       		.uleb128 0x3a
 8469 027b 0B       		.uleb128 0xb
 8470 027c 3B       		.uleb128 0x3b
 8471 027d 0B       		.uleb128 0xb
 8472 027e 27       		.uleb128 0x27
 8473 027f 19       		.uleb128 0x19
 8474 0280 11       		.uleb128 0x11
 8475 0281 01       		.uleb128 0x1
 8476 0282 12       		.uleb128 0x12
 8477 0283 06       		.uleb128 0x6
 8478 0284 40       		.uleb128 0x40
 8479 0285 18       		.uleb128 0x18
 8480 0286 9742     		.uleb128 0x2117
 8481 0288 19       		.uleb128 0x19
 8482 0289 01       		.uleb128 0x1
 8483 028a 13       		.uleb128 0x13
 8484 028b 00       		.byte	0
 8485 028c 00       		.byte	0
 8486 028d 34       		.uleb128 0x34
 8487 028e 2E       		.uleb128 0x2e
 8488 028f 01       		.byte	0x1
 8489 0290 3F       		.uleb128 0x3f
 8490 0291 19       		.uleb128 0x19
 8491 0292 03       		.uleb128 0x3
 8492 0293 0E       		.uleb128 0xe
 8493 0294 3A       		.uleb128 0x3a
 8494 0295 0B       		.uleb128 0xb
 8495 0296 3B       		.uleb128 0x3b
 8496 0297 0B       		.uleb128 0xb
 8497 0298 27       		.uleb128 0x27
 8498 0299 19       		.uleb128 0x19
 8499 029a 49       		.uleb128 0x49
 8500 029b 13       		.uleb128 0x13
 8501 029c 11       		.uleb128 0x11
 8502 029d 01       		.uleb128 0x1
 8503 029e 12       		.uleb128 0x12
 8504 029f 06       		.uleb128 0x6
 8505 02a0 40       		.uleb128 0x40
 8506 02a1 18       		.uleb128 0x18
 8507 02a2 9742     		.uleb128 0x2117
 8508 02a4 19       		.uleb128 0x19
 8509 02a5 01       		.uleb128 0x1
 8510 02a6 13       		.uleb128 0x13
ARM GAS  C:\Users\haske\AppData\Local\Temp\ccHGZgRG.s 			page 164


 8511 02a7 00       		.byte	0
 8512 02a8 00       		.byte	0
 8513 02a9 35       		.uleb128 0x35
 8514 02aa 34       		.uleb128 0x34
 8515 02ab 00       		.byte	0
 8516 02ac 03       		.uleb128 0x3
 8517 02ad 0E       		.uleb128 0xe
 8518 02ae 3A       		.uleb128 0x3a
 8519 02af 0B       		.uleb128 0xb
 8520 02b0 3B       		.uleb128 0x3b
 8521 02b1 0B       		.uleb128 0xb
 8522 02b2 49       		.uleb128 0x49
 8523 02b3 13       		.uleb128 0x13
 8524 02b4 02       		.uleb128 0x2
 8525 02b5 17       		.uleb128 0x17
 8526 02b6 00       		.byte	0
 8527 02b7 00       		.byte	0
 8528 02b8 36       		.uleb128 0x36
 8529 02b9 05       		.uleb128 0x5
 8530 02ba 00       		.byte	0
 8531 02bb 03       		.uleb128 0x3
 8532 02bc 0E       		.uleb128 0xe
 8533 02bd 3A       		.uleb128 0x3a
 8534 02be 0B       		.uleb128 0xb
 8535 02bf 3B       		.uleb128 0x3b
 8536 02c0 0B       		.uleb128 0xb
 8537 02c1 49       		.uleb128 0x49
 8538 02c2 13       		.uleb128 0x13
 8539 02c3 02       		.uleb128 0x2
 8540 02c4 17       		.uleb128 0x17
 8541 02c5 00       		.byte	0
 8542 02c6 00       		.byte	0
 8543 02c7 37       		.uleb128 0x37
 8544 02c8 34       		.uleb128 0x34
 8545 02c9 00       		.byte	0
 8546 02ca 03       		.uleb128 0x3
 8547 02cb 08       		.uleb128 0x8
 8548 02cc 3A       		.uleb128 0x3a
 8549 02cd 0B       		.uleb128 0xb
 8550 02ce 3B       		.uleb128 0x3b
 8551 02cf 0B       		.uleb128 0xb
 8552 02d0 49       		.uleb128 0x49
 8553 02d1 13       		.uleb128 0x13
 8554 02d2 02       		.uleb128 0x2
 8555 02d3 17       		.uleb128 0x17
 8556 02d4 00       		.byte	0
 8557 02d5 00       		.byte	0
 8558 02d6 38       		.uleb128 0x38
 8559 02d7 05       		.uleb128 0x5
 8560 02d8 00       		.byte	0
 8561 02d9 03       		.uleb128 0x3
 8562 02da 0E       		.uleb128 0xe
 8563 02db 3A       		.uleb128 0x3a
 8564 02dc 0B       		.uleb128 0xb
 8565 02dd 3B       		.uleb128 0x3b
 8566 02de 0B       		.uleb128 0xb
 8567 02df 49       		.uleb128 0x49
ARM GAS  C:\Users\haske\AppData\Local\Temp\ccHGZgRG.s 			page 165


 8568 02e0 13       		.uleb128 0x13
 8569 02e1 02       		.uleb128 0x2
 8570 02e2 18       		.uleb128 0x18
 8571 02e3 00       		.byte	0
 8572 02e4 00       		.byte	0
 8573 02e5 39       		.uleb128 0x39
 8574 02e6 2E       		.uleb128 0x2e
 8575 02e7 00       		.byte	0
 8576 02e8 3F       		.uleb128 0x3f
 8577 02e9 19       		.uleb128 0x19
 8578 02ea 03       		.uleb128 0x3
 8579 02eb 0E       		.uleb128 0xe
 8580 02ec 3A       		.uleb128 0x3a
 8581 02ed 0B       		.uleb128 0xb
 8582 02ee 3B       		.uleb128 0x3b
 8583 02ef 0B       		.uleb128 0xb
 8584 02f0 27       		.uleb128 0x27
 8585 02f1 19       		.uleb128 0x19
 8586 02f2 49       		.uleb128 0x49
 8587 02f3 13       		.uleb128 0x13
 8588 02f4 11       		.uleb128 0x11
 8589 02f5 01       		.uleb128 0x1
 8590 02f6 12       		.uleb128 0x12
 8591 02f7 06       		.uleb128 0x6
 8592 02f8 40       		.uleb128 0x40
 8593 02f9 18       		.uleb128 0x18
 8594 02fa 9742     		.uleb128 0x2117
 8595 02fc 19       		.uleb128 0x19
 8596 02fd 00       		.byte	0
 8597 02fe 00       		.byte	0
 8598 02ff 3A       		.uleb128 0x3a
 8599 0300 2E       		.uleb128 0x2e
 8600 0301 01       		.byte	0x1
 8601 0302 3F       		.uleb128 0x3f
 8602 0303 19       		.uleb128 0x19
 8603 0304 03       		.uleb128 0x3
 8604 0305 0E       		.uleb128 0xe
 8605 0306 3A       		.uleb128 0x3a
 8606 0307 0B       		.uleb128 0xb
 8607 0308 3B       		.uleb128 0x3b
 8608 0309 05       		.uleb128 0x5
 8609 030a 27       		.uleb128 0x27
 8610 030b 19       		.uleb128 0x19
 8611 030c 11       		.uleb128 0x11
 8612 030d 01       		.uleb128 0x1
 8613 030e 12       		.uleb128 0x12
 8614 030f 06       		.uleb128 0x6
 8615 0310 40       		.uleb128 0x40
 8616 0311 18       		.uleb128 0x18
 8617 0312 9742     		.uleb128 0x2117
 8618 0314 19       		.uleb128 0x19
 8619 0315 01       		.uleb128 0x1
 8620 0316 13       		.uleb128 0x13
 8621 0317 00       		.byte	0
 8622 0318 00       		.byte	0
 8623 0319 3B       		.uleb128 0x3b
 8624 031a 2E       		.uleb128 0x2e
ARM GAS  C:\Users\haske\AppData\Local\Temp\ccHGZgRG.s 			page 166


 8625 031b 01       		.byte	0x1
 8626 031c 03       		.uleb128 0x3
 8627 031d 0E       		.uleb128 0xe
 8628 031e 3A       		.uleb128 0x3a
 8629 031f 0B       		.uleb128 0xb
 8630 0320 3B       		.uleb128 0x3b
 8631 0321 05       		.uleb128 0x5
 8632 0322 27       		.uleb128 0x27
 8633 0323 19       		.uleb128 0x19
 8634 0324 11       		.uleb128 0x11
 8635 0325 01       		.uleb128 0x1
 8636 0326 12       		.uleb128 0x12
 8637 0327 06       		.uleb128 0x6
 8638 0328 40       		.uleb128 0x40
 8639 0329 18       		.uleb128 0x18
 8640 032a 9742     		.uleb128 0x2117
 8641 032c 19       		.uleb128 0x19
 8642 032d 01       		.uleb128 0x1
 8643 032e 13       		.uleb128 0x13
 8644 032f 00       		.byte	0
 8645 0330 00       		.byte	0
 8646 0331 3C       		.uleb128 0x3c
 8647 0332 05       		.uleb128 0x5
 8648 0333 00       		.byte	0
 8649 0334 03       		.uleb128 0x3
 8650 0335 08       		.uleb128 0x8
 8651 0336 3A       		.uleb128 0x3a
 8652 0337 0B       		.uleb128 0xb
 8653 0338 3B       		.uleb128 0x3b
 8654 0339 0B       		.uleb128 0xb
 8655 033a 49       		.uleb128 0x49
 8656 033b 13       		.uleb128 0x13
 8657 033c 02       		.uleb128 0x2
 8658 033d 17       		.uleb128 0x17
 8659 033e 00       		.byte	0
 8660 033f 00       		.byte	0
 8661 0340 3D       		.uleb128 0x3d
 8662 0341 05       		.uleb128 0x5
 8663 0342 00       		.byte	0
 8664 0343 03       		.uleb128 0x3
 8665 0344 0E       		.uleb128 0xe
 8666 0345 3A       		.uleb128 0x3a
 8667 0346 0B       		.uleb128 0xb
 8668 0347 3B       		.uleb128 0x3b
 8669 0348 05       		.uleb128 0x5
 8670 0349 49       		.uleb128 0x49
 8671 034a 13       		.uleb128 0x13
 8672 034b 02       		.uleb128 0x2
 8673 034c 18       		.uleb128 0x18
 8674 034d 00       		.byte	0
 8675 034e 00       		.byte	0
 8676 034f 3E       		.uleb128 0x3e
 8677 0350 05       		.uleb128 0x5
 8678 0351 00       		.byte	0
 8679 0352 03       		.uleb128 0x3
 8680 0353 08       		.uleb128 0x8
 8681 0354 3A       		.uleb128 0x3a
ARM GAS  C:\Users\haske\AppData\Local\Temp\ccHGZgRG.s 			page 167


 8682 0355 0B       		.uleb128 0xb
 8683 0356 3B       		.uleb128 0x3b
 8684 0357 05       		.uleb128 0x5
 8685 0358 49       		.uleb128 0x49
 8686 0359 13       		.uleb128 0x13
 8687 035a 02       		.uleb128 0x2
 8688 035b 18       		.uleb128 0x18
 8689 035c 00       		.byte	0
 8690 035d 00       		.byte	0
 8691 035e 3F       		.uleb128 0x3f
 8692 035f 2E       		.uleb128 0x2e
 8693 0360 01       		.byte	0x1
 8694 0361 3F       		.uleb128 0x3f
 8695 0362 19       		.uleb128 0x19
 8696 0363 03       		.uleb128 0x3
 8697 0364 0E       		.uleb128 0xe
 8698 0365 3A       		.uleb128 0x3a
 8699 0366 0B       		.uleb128 0xb
 8700 0367 3B       		.uleb128 0x3b
 8701 0368 05       		.uleb128 0x5
 8702 0369 27       		.uleb128 0x27
 8703 036a 19       		.uleb128 0x19
 8704 036b 49       		.uleb128 0x49
 8705 036c 13       		.uleb128 0x13
 8706 036d 11       		.uleb128 0x11
 8707 036e 01       		.uleb128 0x1
 8708 036f 12       		.uleb128 0x12
 8709 0370 06       		.uleb128 0x6
 8710 0371 40       		.uleb128 0x40
 8711 0372 18       		.uleb128 0x18
 8712 0373 9742     		.uleb128 0x2117
 8713 0375 19       		.uleb128 0x19
 8714 0376 01       		.uleb128 0x1
 8715 0377 13       		.uleb128 0x13
 8716 0378 00       		.byte	0
 8717 0379 00       		.byte	0
 8718 037a 40       		.uleb128 0x40
 8719 037b 0B       		.uleb128 0xb
 8720 037c 01       		.byte	0x1
 8721 037d 11       		.uleb128 0x11
 8722 037e 01       		.uleb128 0x1
 8723 037f 12       		.uleb128 0x12
 8724 0380 06       		.uleb128 0x6
 8725 0381 01       		.uleb128 0x1
 8726 0382 13       		.uleb128 0x13
 8727 0383 00       		.byte	0
 8728 0384 00       		.byte	0
 8729 0385 41       		.uleb128 0x41
 8730 0386 34       		.uleb128 0x34
 8731 0387 00       		.byte	0
 8732 0388 03       		.uleb128 0x3
 8733 0389 0E       		.uleb128 0xe
 8734 038a 3A       		.uleb128 0x3a
 8735 038b 0B       		.uleb128 0xb
 8736 038c 3B       		.uleb128 0x3b
 8737 038d 0B       		.uleb128 0xb
 8738 038e 49       		.uleb128 0x49
ARM GAS  C:\Users\haske\AppData\Local\Temp\ccHGZgRG.s 			page 168


 8739 038f 13       		.uleb128 0x13
 8740 0390 02       		.uleb128 0x2
 8741 0391 18       		.uleb128 0x18
 8742 0392 00       		.byte	0
 8743 0393 00       		.byte	0
 8744 0394 42       		.uleb128 0x42
 8745 0395 34       		.uleb128 0x34
 8746 0396 00       		.byte	0
 8747 0397 03       		.uleb128 0x3
 8748 0398 0E       		.uleb128 0xe
 8749 0399 3A       		.uleb128 0x3a
 8750 039a 0B       		.uleb128 0xb
 8751 039b 3B       		.uleb128 0x3b
 8752 039c 0B       		.uleb128 0xb
 8753 039d 49       		.uleb128 0x49
 8754 039e 13       		.uleb128 0x13
 8755 039f 3F       		.uleb128 0x3f
 8756 03a0 19       		.uleb128 0x19
 8757 03a1 3C       		.uleb128 0x3c
 8758 03a2 19       		.uleb128 0x19
 8759 03a3 00       		.byte	0
 8760 03a4 00       		.byte	0
 8761 03a5 43       		.uleb128 0x43
 8762 03a6 2E       		.uleb128 0x2e
 8763 03a7 00       		.byte	0
 8764 03a8 3F       		.uleb128 0x3f
 8765 03a9 19       		.uleb128 0x19
 8766 03aa 3C       		.uleb128 0x3c
 8767 03ab 19       		.uleb128 0x19
 8768 03ac 6E       		.uleb128 0x6e
 8769 03ad 0E       		.uleb128 0xe
 8770 03ae 03       		.uleb128 0x3
 8771 03af 0E       		.uleb128 0xe
 8772 03b0 3A       		.uleb128 0x3a
 8773 03b1 0B       		.uleb128 0xb
 8774 03b2 3B       		.uleb128 0x3b
 8775 03b3 0B       		.uleb128 0xb
 8776 03b4 00       		.byte	0
 8777 03b5 00       		.byte	0
 8778 03b6 44       		.uleb128 0x44
 8779 03b7 2E       		.uleb128 0x2e
 8780 03b8 00       		.byte	0
 8781 03b9 3F       		.uleb128 0x3f
 8782 03ba 19       		.uleb128 0x19
 8783 03bb 3C       		.uleb128 0x3c
 8784 03bc 19       		.uleb128 0x19
 8785 03bd 6E       		.uleb128 0x6e
 8786 03be 0E       		.uleb128 0xe
 8787 03bf 03       		.uleb128 0x3
 8788 03c0 0E       		.uleb128 0xe
 8789 03c1 3A       		.uleb128 0x3a
 8790 03c2 0B       		.uleb128 0xb
 8791 03c3 3B       		.uleb128 0x3b
 8792 03c4 05       		.uleb128 0x5
 8793 03c5 00       		.byte	0
 8794 03c6 00       		.byte	0
 8795 03c7 00       		.byte	0
ARM GAS  C:\Users\haske\AppData\Local\Temp\ccHGZgRG.s 			page 169


 8796              		.section	.debug_loc,"",%progbits
 8797              	.Ldebug_loc0:
 8798              	.LLST0:
 8799 0000 00000000 		.4byte	.LVL0
 8800 0004 06000000 		.4byte	.LVL2
 8801 0008 0100     		.2byte	0x1
 8802 000a 50       		.byte	0x50
 8803 000b 06000000 		.4byte	.LVL2
 8804 000f 54000000 		.4byte	.LVL26
 8805 0013 0100     		.2byte	0x1
 8806 0015 57       		.byte	0x57
 8807 0016 54000000 		.4byte	.LVL26
 8808 001a 56000000 		.4byte	.LFE186
 8809 001e 0400     		.2byte	0x4
 8810 0020 F3       		.byte	0xf3
 8811 0021 01       		.uleb128 0x1
 8812 0022 50       		.byte	0x50
 8813 0023 9F       		.byte	0x9f
 8814 0024 00000000 		.4byte	0
 8815 0028 00000000 		.4byte	0
 8816              	.LLST1:
 8817 002c 04000000 		.4byte	.LVL1
 8818 0030 12000000 		.4byte	.LVL5
 8819 0034 0200     		.2byte	0x2
 8820 0036 30       		.byte	0x30
 8821 0037 9F       		.byte	0x9f
 8822 0038 12000000 		.4byte	.LVL5
 8823 003c 54000000 		.4byte	.LVL25
 8824 0040 0100     		.2byte	0x1
 8825 0042 56       		.byte	0x56
 8826 0043 00000000 		.4byte	0
 8827 0047 00000000 		.4byte	0
 8828              	.LLST2:
 8829 004b 04000000 		.4byte	.LVL1
 8830 004f 12000000 		.4byte	.LVL5
 8831 0053 0200     		.2byte	0x2
 8832 0055 30       		.byte	0x30
 8833 0056 9F       		.byte	0x9f
 8834 0057 12000000 		.4byte	.LVL5
 8835 005b 28000000 		.4byte	.LVL8
 8836 005f 0100     		.2byte	0x1
 8837 0061 55       		.byte	0x55
 8838 0062 2A000000 		.4byte	.LVL9
 8839 0066 2C000000 		.4byte	.LVL10
 8840 006a 0100     		.2byte	0x1
 8841 006c 55       		.byte	0x55
 8842 006d 2E000000 		.4byte	.LVL11
 8843 0071 54000000 		.4byte	.LVL24
 8844 0075 0100     		.2byte	0x1
 8845 0077 55       		.byte	0x55
 8846 0078 00000000 		.4byte	0
 8847 007c 00000000 		.4byte	0
 8848              	.LLST3:
 8849 0080 0C000000 		.4byte	.LVL4
 8850 0084 14000000 		.4byte	.LVL6
 8851 0088 0100     		.2byte	0x1
 8852 008a 50       		.byte	0x50
ARM GAS  C:\Users\haske\AppData\Local\Temp\ccHGZgRG.s 			page 170


 8853 008b 14000000 		.4byte	.LVL6
 8854 008f 36000000 		.4byte	.LVL14
 8855 0093 0100     		.2byte	0x1
 8856 0095 54       		.byte	0x54
 8857 0096 36000000 		.4byte	.LVL14
 8858 009a 44000000 		.4byte	.LVL15
 8859 009e 0100     		.2byte	0x1
 8860 00a0 50       		.byte	0x50
 8861 00a1 44000000 		.4byte	.LVL15
 8862 00a5 4E000000 		.4byte	.LVL19
 8863 00a9 0100     		.2byte	0x1
 8864 00ab 54       		.byte	0x54
 8865 00ac 4E000000 		.4byte	.LVL19
 8866 00b0 50000000 		.4byte	.LVL20
 8867 00b4 0100     		.2byte	0x1
 8868 00b6 50       		.byte	0x50
 8869 00b7 50000000 		.4byte	.LVL20
 8870 00bb 52000000 		.4byte	.LVL21
 8871 00bf 0100     		.2byte	0x1
 8872 00c1 54       		.byte	0x54
 8873 00c2 52000000 		.4byte	.LVL21
 8874 00c6 54000000 		.4byte	.LVL22
 8875 00ca 0100     		.2byte	0x1
 8876 00cc 50       		.byte	0x50
 8877 00cd 54000000 		.4byte	.LVL22
 8878 00d1 54000000 		.4byte	.LVL23
 8879 00d5 0100     		.2byte	0x1
 8880 00d7 54       		.byte	0x54
 8881 00d8 00000000 		.4byte	0
 8882 00dc 00000000 		.4byte	0
 8883              	.LLST4:
 8884 00e0 18000000 		.4byte	.LVL7
 8885 00e4 30000000 		.4byte	.LVL12
 8886 00e8 0100     		.2byte	0x1
 8887 00ea 50       		.byte	0x50
 8888 00eb 4A000000 		.4byte	.LVL17
 8889 00ef 4C000000 		.4byte	.LVL18
 8890 00f3 0100     		.2byte	0x1
 8891 00f5 50       		.byte	0x50
 8892 00f6 00000000 		.4byte	0
 8893 00fa 00000000 		.4byte	0
 8894              	.LLST5:
 8895 00fe 00000000 		.4byte	.LVL27
 8896 0102 1E000000 		.4byte	.LVL30
 8897 0106 0100     		.2byte	0x1
 8898 0108 50       		.byte	0x50
 8899 0109 1E000000 		.4byte	.LVL30
 8900 010d EC000000 		.4byte	.LVL56
 8901 0111 0100     		.2byte	0x1
 8902 0113 57       		.byte	0x57
 8903 0114 EC000000 		.4byte	.LVL56
 8904 0118 EE000000 		.4byte	.LVL57
 8905 011c 0100     		.2byte	0x1
 8906 011e 50       		.byte	0x50
 8907 011f EE000000 		.4byte	.LVL57
 8908 0123 10010000 		.4byte	.LVL68
 8909 0127 0100     		.2byte	0x1
ARM GAS  C:\Users\haske\AppData\Local\Temp\ccHGZgRG.s 			page 171


 8910 0129 57       		.byte	0x57
 8911 012a 10010000 		.4byte	.LVL68
 8912 012e 18010000 		.4byte	.LFE185
 8913 0132 0400     		.2byte	0x4
 8914 0134 F3       		.byte	0xf3
 8915 0135 01       		.uleb128 0x1
 8916 0136 50       		.byte	0x50
 8917 0137 9F       		.byte	0x9f
 8918 0138 00000000 		.4byte	0
 8919 013c 00000000 		.4byte	0
 8920              	.LLST6:
 8921 0140 00000000 		.4byte	.LVL27
 8922 0144 1E000000 		.4byte	.LVL30
 8923 0148 0100     		.2byte	0x1
 8924 014a 51       		.byte	0x51
 8925 014b 1E000000 		.4byte	.LVL30
 8926 014f EC000000 		.4byte	.LVL56
 8927 0153 0200     		.2byte	0x2
 8928 0155 91       		.byte	0x91
 8929 0156 5C       		.sleb128 -36
 8930 0157 EC000000 		.4byte	.LVL56
 8931 015b F0000000 		.4byte	.LVL58
 8932 015f 0100     		.2byte	0x1
 8933 0161 51       		.byte	0x51
 8934 0162 F0000000 		.4byte	.LVL58
 8935 0166 18010000 		.4byte	.LFE185
 8936 016a 0200     		.2byte	0x2
 8937 016c 91       		.byte	0x91
 8938 016d 5C       		.sleb128 -36
 8939 016e 00000000 		.4byte	0
 8940 0172 00000000 		.4byte	0
 8941              	.LLST7:
 8942 0176 00000000 		.4byte	.LVL27
 8943 017a 1E000000 		.4byte	.LVL30
 8944 017e 0100     		.2byte	0x1
 8945 0180 52       		.byte	0x52
 8946 0181 1E000000 		.4byte	.LVL30
 8947 0185 EC000000 		.4byte	.LVL56
 8948 0189 0100     		.2byte	0x1
 8949 018b 59       		.byte	0x59
 8950 018c EC000000 		.4byte	.LVL56
 8951 0190 F0000000 		.4byte	.LVL58
 8952 0194 0100     		.2byte	0x1
 8953 0196 52       		.byte	0x52
 8954 0197 F0000000 		.4byte	.LVL58
 8955 019b 10010000 		.4byte	.LVL69
 8956 019f 0100     		.2byte	0x1
 8957 01a1 59       		.byte	0x59
 8958 01a2 10010000 		.4byte	.LVL69
 8959 01a6 18010000 		.4byte	.LFE185
 8960 01aa 0400     		.2byte	0x4
 8961 01ac F3       		.byte	0xf3
 8962 01ad 01       		.uleb128 0x1
 8963 01ae 52       		.byte	0x52
 8964 01af 9F       		.byte	0x9f
 8965 01b0 00000000 		.4byte	0
 8966 01b4 00000000 		.4byte	0
ARM GAS  C:\Users\haske\AppData\Local\Temp\ccHGZgRG.s 			page 172


 8967              	.LLST8:
 8968 01b8 18000000 		.4byte	.LVL29
 8969 01bc 3A000000 		.4byte	.LVL32
 8970 01c0 0100     		.2byte	0x1
 8971 01c2 55       		.byte	0x55
 8972 01c3 3A000000 		.4byte	.LVL32
 8973 01c7 40000000 		.4byte	.LVL33
 8974 01cb 0100     		.2byte	0x1
 8975 01cd 50       		.byte	0x50
 8976 01ce 40000000 		.4byte	.LVL33
 8977 01d2 58000000 		.4byte	.LVL38
 8978 01d6 0100     		.2byte	0x1
 8979 01d8 55       		.byte	0x55
 8980 01d9 58000000 		.4byte	.LVL38
 8981 01dd 5C000000 		.4byte	.LVL39
 8982 01e1 0100     		.2byte	0x1
 8983 01e3 50       		.byte	0x50
 8984 01e4 5C000000 		.4byte	.LVL39
 8985 01e8 EC000000 		.4byte	.LVL56
 8986 01ec 0100     		.2byte	0x1
 8987 01ee 55       		.byte	0x55
 8988 01ef F0000000 		.4byte	.LVL58
 8989 01f3 FC000000 		.4byte	.LVL60
 8990 01f7 0100     		.2byte	0x1
 8991 01f9 55       		.byte	0x55
 8992 01fa FC000000 		.4byte	.LVL60
 8993 01fe FE000000 		.4byte	.LVL61
 8994 0202 0100     		.2byte	0x1
 8995 0204 50       		.byte	0x50
 8996 0205 FE000000 		.4byte	.LVL61
 8997 0209 0E010000 		.4byte	.LVL67
 8998 020d 0100     		.2byte	0x1
 8999 020f 55       		.byte	0x55
 9000 0210 00000000 		.4byte	0
 9001 0214 00000000 		.4byte	0
 9002              	.LLST9:
 9003 0218 18000000 		.4byte	.LVL29
 9004 021c 1E000000 		.4byte	.LVL30
 9005 0220 0200     		.2byte	0x2
 9006 0222 30       		.byte	0x30
 9007 0223 9F       		.byte	0x9f
 9008 0224 1E000000 		.4byte	.LVL30
 9009 0228 46000000 		.4byte	.LVL35
 9010 022c 0100     		.2byte	0x1
 9011 022e 56       		.byte	0x56
 9012 022f 46000000 		.4byte	.LVL35
 9013 0233 4C000000 		.4byte	.LVL36
 9014 0237 0100     		.2byte	0x1
 9015 0239 55       		.byte	0x55
 9016 023a 4C000000 		.4byte	.LVL36
 9017 023e EC000000 		.4byte	.LVL56
 9018 0242 0100     		.2byte	0x1
 9019 0244 56       		.byte	0x56
 9020 0245 F0000000 		.4byte	.LVL58
 9021 0249 F8000000 		.4byte	.LVL59
 9022 024d 0100     		.2byte	0x1
 9023 024f 56       		.byte	0x56
ARM GAS  C:\Users\haske\AppData\Local\Temp\ccHGZgRG.s 			page 173


 9024 0250 F8000000 		.4byte	.LVL59
 9025 0254 FC000000 		.4byte	.LVL60
 9026 0258 0100     		.2byte	0x1
 9027 025a 55       		.byte	0x55
 9028 025b FC000000 		.4byte	.LVL60
 9029 025f 0E010000 		.4byte	.LVL67
 9030 0263 0100     		.2byte	0x1
 9031 0265 56       		.byte	0x56
 9032 0266 00000000 		.4byte	0
 9033 026a 00000000 		.4byte	0
 9034              	.LLST10:
 9035 026e 18000000 		.4byte	.LVL29
 9036 0272 3A000000 		.4byte	.LVL32
 9037 0276 0200     		.2byte	0x2
 9038 0278 31       		.byte	0x31
 9039 0279 9F       		.byte	0x9f
 9040 027a 3A000000 		.4byte	.LVL32
 9041 027e 40000000 		.4byte	.LVL33
 9042 0282 0200     		.2byte	0x2
 9043 0284 30       		.byte	0x30
 9044 0285 9F       		.byte	0x9f
 9045 0286 40000000 		.4byte	.LVL33
 9046 028a 42000000 		.4byte	.LVL34
 9047 028e 0200     		.2byte	0x2
 9048 0290 31       		.byte	0x31
 9049 0291 9F       		.byte	0x9f
 9050 0292 42000000 		.4byte	.LVL34
 9051 0296 55000000 		.4byte	.LVL37-1
 9052 029a 0100     		.2byte	0x1
 9053 029c 53       		.byte	0x53
 9054 029d 5C000000 		.4byte	.LVL39
 9055 02a1 EC000000 		.4byte	.LVL56
 9056 02a5 0200     		.2byte	0x2
 9057 02a7 31       		.byte	0x31
 9058 02a8 9F       		.byte	0x9f
 9059 02a9 F0000000 		.4byte	.LVL58
 9060 02ad F8000000 		.4byte	.LVL59
 9061 02b1 0200     		.2byte	0x2
 9062 02b3 31       		.byte	0x31
 9063 02b4 9F       		.byte	0x9f
 9064 02b5 F8000000 		.4byte	.LVL59
 9065 02b9 FC000000 		.4byte	.LVL60
 9066 02bd 0100     		.2byte	0x1
 9067 02bf 53       		.byte	0x53
 9068 02c0 00010000 		.4byte	.LVL62
 9069 02c4 0E010000 		.4byte	.LVL67
 9070 02c8 0200     		.2byte	0x2
 9071 02ca 31       		.byte	0x31
 9072 02cb 9F       		.byte	0x9f
 9073 02cc 00000000 		.4byte	0
 9074 02d0 00000000 		.4byte	0
 9075              	.LLST11:
 9076 02d4 18000000 		.4byte	.LVL29
 9077 02d8 1E000000 		.4byte	.LVL30
 9078 02dc 0200     		.2byte	0x2
 9079 02de 31       		.byte	0x31
 9080 02df 9F       		.byte	0x9f
ARM GAS  C:\Users\haske\AppData\Local\Temp\ccHGZgRG.s 			page 174


 9081 02e0 1E000000 		.4byte	.LVL30
 9082 02e4 3A000000 		.4byte	.LVL32
 9083 02e8 0100     		.2byte	0x1
 9084 02ea 5A       		.byte	0x5a
 9085 02eb 3A000000 		.4byte	.LVL32
 9086 02ef 40000000 		.4byte	.LVL33
 9087 02f3 0200     		.2byte	0x2
 9088 02f5 30       		.byte	0x30
 9089 02f6 9F       		.byte	0x9f
 9090 02f7 40000000 		.4byte	.LVL33
 9091 02fb EC000000 		.4byte	.LVL56
 9092 02ff 0100     		.2byte	0x1
 9093 0301 5A       		.byte	0x5a
 9094 0302 F0000000 		.4byte	.LVL58
 9095 0306 0E010000 		.4byte	.LVL67
 9096 030a 0100     		.2byte	0x1
 9097 030c 5A       		.byte	0x5a
 9098 030d 00000000 		.4byte	0
 9099 0311 00000000 		.4byte	0
 9100              	.LLST12:
 9101 0315 D2000000 		.4byte	.LVL52
 9102 0319 DA000000 		.4byte	.LVL53
 9103 031d 0100     		.2byte	0x1
 9104 031f 50       		.byte	0x50
 9105 0320 08010000 		.4byte	.LVL65
 9106 0324 0A010000 		.4byte	.LVL66
 9107 0328 0100     		.2byte	0x1
 9108 032a 50       		.byte	0x50
 9109 032b 00000000 		.4byte	0
 9110 032f 00000000 		.4byte	0
 9111              	.LLST13:
 9112 0333 6C000000 		.4byte	.LVL41
 9113 0337 A2000000 		.4byte	.LVL46
 9114 033b 0100     		.2byte	0x1
 9115 033d 54       		.byte	0x54
 9116 033e 00010000 		.4byte	.LVL62
 9117 0342 04010000 		.4byte	.LVL63
 9118 0346 0100     		.2byte	0x1
 9119 0348 54       		.byte	0x54
 9120 0349 00000000 		.4byte	0
 9121 034d 00000000 		.4byte	0
 9122              	.LLST14:
 9123 0351 B2000000 		.4byte	.LVL48
 9124 0355 BA000000 		.4byte	.LVL49
 9125 0359 0100     		.2byte	0x1
 9126 035b 50       		.byte	0x50
 9127 035c 04010000 		.4byte	.LVL63
 9128 0360 06010000 		.4byte	.LVL64
 9129 0364 0100     		.2byte	0x1
 9130 0366 50       		.byte	0x50
 9131 0367 00000000 		.4byte	0
 9132 036b 00000000 		.4byte	0
 9133              	.LLST15:
 9134 036f 0A000000 		.4byte	.LVL72
 9135 0373 17000000 		.4byte	.LVL73-1
 9136 0377 0100     		.2byte	0x1
 9137 0379 50       		.byte	0x50
ARM GAS  C:\Users\haske\AppData\Local\Temp\ccHGZgRG.s 			page 175


 9138 037a 17000000 		.4byte	.LVL73-1
 9139 037e 3E000000 		.4byte	.LVL74
 9140 0382 0100     		.2byte	0x1
 9141 0384 54       		.byte	0x54
 9142 0385 3E000000 		.4byte	.LVL74
 9143 0389 40000000 		.4byte	.LVL75
 9144 038d 0100     		.2byte	0x1
 9145 038f 50       		.byte	0x50
 9146 0390 40000000 		.4byte	.LVL75
 9147 0394 40000000 		.4byte	.LVL76
 9148 0398 0100     		.2byte	0x1
 9149 039a 54       		.byte	0x54
 9150 039b 00000000 		.4byte	0
 9151 039f 00000000 		.4byte	0
 9152              	.LLST16:
 9153 03a3 00000000 		.4byte	.LVL77
 9154 03a7 0F000000 		.4byte	.LVL78-1
 9155 03ab 0100     		.2byte	0x1
 9156 03ad 50       		.byte	0x50
 9157 03ae 0F000000 		.4byte	.LVL78-1
 9158 03b2 2C000000 		.4byte	.LVL82
 9159 03b6 0100     		.2byte	0x1
 9160 03b8 55       		.byte	0x55
 9161 03b9 2C000000 		.4byte	.LVL82
 9162 03bd 4A000000 		.4byte	.LVL86
 9163 03c1 0100     		.2byte	0x1
 9164 03c3 54       		.byte	0x54
 9165 03c4 4A000000 		.4byte	.LVL86
 9166 03c8 88000000 		.4byte	.LVL95
 9167 03cc 0100     		.2byte	0x1
 9168 03ce 55       		.byte	0x55
 9169 03cf 88000000 		.4byte	.LVL95
 9170 03d3 94000000 		.4byte	.LFE161
 9171 03d7 0400     		.2byte	0x4
 9172 03d9 F3       		.byte	0xf3
 9173 03da 01       		.uleb128 0x1
 9174 03db 50       		.byte	0x50
 9175 03dc 9F       		.byte	0x9f
 9176 03dd 00000000 		.4byte	0
 9177 03e1 00000000 		.4byte	0
 9178              	.LLST17:
 9179 03e5 2A000000 		.4byte	.LVL81
 9180 03e9 3C000000 		.4byte	.LVL83
 9181 03ed 0100     		.2byte	0x1
 9182 03ef 50       		.byte	0x50
 9183 03f0 3C000000 		.4byte	.LVL83
 9184 03f4 3F000000 		.4byte	.LVL84-1
 9185 03f8 0100     		.2byte	0x1
 9186 03fa 51       		.byte	0x51
 9187 03fb 40000000 		.4byte	.LVL84
 9188 03ff 47000000 		.4byte	.LVL85-1
 9189 0403 0100     		.2byte	0x1
 9190 0405 50       		.byte	0x50
 9191 0406 00000000 		.4byte	0
 9192 040a 00000000 		.4byte	0
 9193              	.LLST18:
 9194 040e 4A000000 		.4byte	.LVL86
ARM GAS  C:\Users\haske\AppData\Local\Temp\ccHGZgRG.s 			page 176


 9195 0412 59000000 		.4byte	.LVL87-1
 9196 0416 0100     		.2byte	0x1
 9197 0418 50       		.byte	0x50
 9198 0419 59000000 		.4byte	.LVL87-1
 9199 041d 62000000 		.4byte	.LVL89
 9200 0421 0100     		.2byte	0x1
 9201 0423 54       		.byte	0x54
 9202 0424 62000000 		.4byte	.LVL89
 9203 0428 76000000 		.4byte	.LVL90
 9204 042c 0100     		.2byte	0x1
 9205 042e 50       		.byte	0x50
 9206 042f 76000000 		.4byte	.LVL90
 9207 0433 88000000 		.4byte	.LVL94
 9208 0437 0100     		.2byte	0x1
 9209 0439 54       		.byte	0x54
 9210 043a 00000000 		.4byte	0
 9211 043e 00000000 		.4byte	0
 9212              	.LLST19:
 9213 0442 00000000 		.4byte	.LVL97
 9214 0446 0F000000 		.4byte	.LVL98-1
 9215 044a 0100     		.2byte	0x1
 9216 044c 50       		.byte	0x50
 9217 044d 0F000000 		.4byte	.LVL98-1
 9218 0451 30000000 		.4byte	.LVL102
 9219 0455 0100     		.2byte	0x1
 9220 0457 55       		.byte	0x55
 9221 0458 30000000 		.4byte	.LVL102
 9222 045c 4E000000 		.4byte	.LVL107
 9223 0460 0100     		.2byte	0x1
 9224 0462 54       		.byte	0x54
 9225 0463 4E000000 		.4byte	.LVL107
 9226 0467 4E000000 		.4byte	.LVL108
 9227 046b 0100     		.2byte	0x1
 9228 046d 55       		.byte	0x55
 9229 046e 4E000000 		.4byte	.LVL108
 9230 0472 50000000 		.4byte	.LFE167
 9231 0476 0400     		.2byte	0x4
 9232 0478 F3       		.byte	0xf3
 9233 0479 01       		.uleb128 0x1
 9234 047a 50       		.byte	0x50
 9235 047b 9F       		.byte	0x9f
 9236 047c 00000000 		.4byte	0
 9237 0480 00000000 		.4byte	0
 9238              	.LLST20:
 9239 0484 2E000000 		.4byte	.LVL101
 9240 0488 40000000 		.4byte	.LVL103
 9241 048c 0100     		.2byte	0x1
 9242 048e 50       		.byte	0x50
 9243 048f 40000000 		.4byte	.LVL103
 9244 0493 43000000 		.4byte	.LVL104-1
 9245 0497 0100     		.2byte	0x1
 9246 0499 51       		.byte	0x51
 9247 049a 44000000 		.4byte	.LVL104
 9248 049e 4A000000 		.4byte	.LVL105
 9249 04a2 0100     		.2byte	0x1
 9250 04a4 50       		.byte	0x50
 9251 04a5 00000000 		.4byte	0
ARM GAS  C:\Users\haske\AppData\Local\Temp\ccHGZgRG.s 			page 177


 9252 04a9 00000000 		.4byte	0
 9253              	.LLST21:
 9254 04ad 00000000 		.4byte	.LVL109
 9255 04b1 0B000000 		.4byte	.LVL110-1
 9256 04b5 0100     		.2byte	0x1
 9257 04b7 50       		.byte	0x50
 9258 04b8 0B000000 		.4byte	.LVL110-1
 9259 04bc 1C000000 		.4byte	.LVL113
 9260 04c0 0100     		.2byte	0x1
 9261 04c2 54       		.byte	0x54
 9262 04c3 1C000000 		.4byte	.LVL113
 9263 04c7 28000000 		.4byte	.LFE169
 9264 04cb 0400     		.2byte	0x4
 9265 04cd F3       		.byte	0xf3
 9266 04ce 01       		.uleb128 0x1
 9267 04cf 50       		.byte	0x50
 9268 04d0 9F       		.byte	0x9f
 9269 04d1 00000000 		.4byte	0
 9270 04d5 00000000 		.4byte	0
 9271              	.LLST22:
 9272 04d9 0C000000 		.4byte	.LVL110
 9273 04dd 1A000000 		.4byte	.LVL111
 9274 04e1 0100     		.2byte	0x1
 9275 04e3 50       		.byte	0x50
 9276 04e4 00000000 		.4byte	0
 9277 04e8 00000000 		.4byte	0
 9278              	.LLST23:
 9279 04ec 00000000 		.4byte	.LVL114
 9280 04f0 0B000000 		.4byte	.LVL115-1
 9281 04f4 0100     		.2byte	0x1
 9282 04f6 50       		.byte	0x50
 9283 04f7 0B000000 		.4byte	.LVL115-1
 9284 04fb 1C000000 		.4byte	.LVL118
 9285 04ff 0100     		.2byte	0x1
 9286 0501 54       		.byte	0x54
 9287 0502 1C000000 		.4byte	.LVL118
 9288 0506 28000000 		.4byte	.LFE170
 9289 050a 0400     		.2byte	0x4
 9290 050c F3       		.byte	0xf3
 9291 050d 01       		.uleb128 0x1
 9292 050e 50       		.byte	0x50
 9293 050f 9F       		.byte	0x9f
 9294 0510 00000000 		.4byte	0
 9295 0514 00000000 		.4byte	0
 9296              	.LLST24:
 9297 0518 0C000000 		.4byte	.LVL115
 9298 051c 1A000000 		.4byte	.LVL116
 9299 0520 0100     		.2byte	0x1
 9300 0522 50       		.byte	0x50
 9301 0523 00000000 		.4byte	0
 9302 0527 00000000 		.4byte	0
 9303              	.LLST25:
 9304 052b 00000000 		.4byte	.LVL119
 9305 052f 19000000 		.4byte	.LVL122-1
 9306 0533 0100     		.2byte	0x1
 9307 0535 50       		.byte	0x50
 9308 0536 19000000 		.4byte	.LVL122-1
ARM GAS  C:\Users\haske\AppData\Local\Temp\ccHGZgRG.s 			page 178


 9309 053a 1C000000 		.4byte	.LVL123
 9310 053e 0100     		.2byte	0x1
 9311 0540 55       		.byte	0x55
 9312 0541 1C000000 		.4byte	.LVL123
 9313 0545 23000000 		.4byte	.LVL124-1
 9314 0549 0100     		.2byte	0x1
 9315 054b 50       		.byte	0x50
 9316 054c 23000000 		.4byte	.LVL124-1
 9317 0550 30000000 		.4byte	.LVL125
 9318 0554 0100     		.2byte	0x1
 9319 0556 55       		.byte	0x55
 9320 0557 30000000 		.4byte	.LVL125
 9321 055b 32000000 		.4byte	.LFE184
 9322 055f 0400     		.2byte	0x4
 9323 0561 F3       		.byte	0xf3
 9324 0562 01       		.uleb128 0x1
 9325 0563 50       		.byte	0x50
 9326 0564 9F       		.byte	0x9f
 9327 0565 00000000 		.4byte	0
 9328 0569 00000000 		.4byte	0
 9329              	.LLST26:
 9330 056d 0A000000 		.4byte	.LVL120
 9331 0571 12000000 		.4byte	.LVL121
 9332 0575 0700     		.2byte	0x7
 9333 0577 72       		.byte	0x72
 9334 0578 00       		.sleb128 0
 9335 0579 4C       		.byte	0x4c
 9336 057a 24       		.byte	0x24
 9337 057b 4F       		.byte	0x4f
 9338 057c 25       		.byte	0x25
 9339 057d 9F       		.byte	0x9f
 9340 057e 00000000 		.4byte	0
 9341 0582 00000000 		.4byte	0
 9342              	.LLST27:
 9343 0586 00000000 		.4byte	.LVL126
 9344 058a 07000000 		.4byte	.LVL127-1
 9345 058e 0100     		.2byte	0x1
 9346 0590 50       		.byte	0x50
 9347 0591 07000000 		.4byte	.LVL127-1
 9348 0595 A2000000 		.4byte	.LVL146
 9349 0599 0100     		.2byte	0x1
 9350 059b 55       		.byte	0x55
 9351 059c A2000000 		.4byte	.LVL146
 9352 05a0 A4000000 		.4byte	.LFE166
 9353 05a4 0400     		.2byte	0x4
 9354 05a6 F3       		.byte	0xf3
 9355 05a7 01       		.uleb128 0x1
 9356 05a8 50       		.byte	0x50
 9357 05a9 9F       		.byte	0x9f
 9358 05aa 00000000 		.4byte	0
 9359 05ae 00000000 		.4byte	0
 9360              	.LLST28:
 9361 05b2 0A000000 		.4byte	.LVL128
 9362 05b6 28000000 		.4byte	.LVL129
 9363 05ba 0100     		.2byte	0x1
 9364 05bc 50       		.byte	0x50
 9365 05bd 28000000 		.4byte	.LVL129
ARM GAS  C:\Users\haske\AppData\Local\Temp\ccHGZgRG.s 			page 179


 9366 05c1 74000000 		.4byte	.LVL137
 9367 05c5 0100     		.2byte	0x1
 9368 05c7 57       		.byte	0x57
 9369 05c8 74000000 		.4byte	.LVL137
 9370 05cc A2000000 		.4byte	.LVL145
 9371 05d0 0100     		.2byte	0x1
 9372 05d2 56       		.byte	0x56
 9373 05d3 A2000000 		.4byte	.LVL145
 9374 05d7 A2000000 		.4byte	.LVL147
 9375 05db 0100     		.2byte	0x1
 9376 05dd 57       		.byte	0x57
 9377 05de 00000000 		.4byte	0
 9378 05e2 00000000 		.4byte	0
 9379              	.LLST29:
 9380 05e6 72000000 		.4byte	.LVL136
 9381 05ea 7E000000 		.4byte	.LVL138
 9382 05ee 0100     		.2byte	0x1
 9383 05f0 50       		.byte	0x50
 9384 05f1 7E000000 		.4byte	.LVL138
 9385 05f5 81000000 		.4byte	.LVL139-1
 9386 05f9 0100     		.2byte	0x1
 9387 05fb 51       		.byte	0x51
 9388 05fc 81000000 		.4byte	.LVL139-1
 9389 0600 94000000 		.4byte	.LVL141
 9390 0604 0100     		.2byte	0x1
 9391 0606 54       		.byte	0x54
 9392 0607 94000000 		.4byte	.LVL141
 9393 060b 98000000 		.4byte	.LVL142
 9394 060f 0100     		.2byte	0x1
 9395 0611 50       		.byte	0x50
 9396 0612 98000000 		.4byte	.LVL142
 9397 0616 9E000000 		.4byte	.LVL144
 9398 061a 0100     		.2byte	0x1
 9399 061c 54       		.byte	0x54
 9400 061d 9E000000 		.4byte	.LVL144
 9401 0621 A2000000 		.4byte	.LVL145
 9402 0625 0100     		.2byte	0x1
 9403 0627 50       		.byte	0x50
 9404 0628 00000000 		.4byte	0
 9405 062c 00000000 		.4byte	0
 9406              	.LLST30:
 9407 0630 00000000 		.4byte	.LVL148
 9408 0634 0C000000 		.4byte	.LVL149
 9409 0638 0100     		.2byte	0x1
 9410 063a 50       		.byte	0x50
 9411 063b 0C000000 		.4byte	.LVL149
 9412 063f 28000000 		.4byte	.LVL153
 9413 0643 0100     		.2byte	0x1
 9414 0645 56       		.byte	0x56
 9415 0646 28000000 		.4byte	.LVL153
 9416 064a 62000000 		.4byte	.LVL159
 9417 064e 0100     		.2byte	0x1
 9418 0650 55       		.byte	0x55
 9419 0651 62000000 		.4byte	.LVL159
 9420 0655 7C000000 		.4byte	.LVL164
 9421 0659 0100     		.2byte	0x1
 9422 065b 56       		.byte	0x56
ARM GAS  C:\Users\haske\AppData\Local\Temp\ccHGZgRG.s 			page 180


 9423 065c 7C000000 		.4byte	.LVL164
 9424 0660 7E000000 		.4byte	.LFE164
 9425 0664 0400     		.2byte	0x4
 9426 0666 F3       		.byte	0xf3
 9427 0667 01       		.uleb128 0x1
 9428 0668 50       		.byte	0x50
 9429 0669 9F       		.byte	0x9f
 9430 066a 00000000 		.4byte	0
 9431 066e 00000000 		.4byte	0
 9432              	.LLST31:
 9433 0672 00000000 		.4byte	.LVL148
 9434 0676 0F000000 		.4byte	.LVL150-1
 9435 067a 0100     		.2byte	0x1
 9436 067c 51       		.byte	0x51
 9437 067d 0F000000 		.4byte	.LVL150-1
 9438 0681 7C000000 		.4byte	.LVL163
 9439 0685 0100     		.2byte	0x1
 9440 0687 54       		.byte	0x54
 9441 0688 7C000000 		.4byte	.LVL163
 9442 068c 7E000000 		.4byte	.LFE164
 9443 0690 0400     		.2byte	0x4
 9444 0692 F3       		.byte	0xf3
 9445 0693 01       		.uleb128 0x1
 9446 0694 51       		.byte	0x51
 9447 0695 9F       		.byte	0x9f
 9448 0696 00000000 		.4byte	0
 9449 069a 00000000 		.4byte	0
 9450              	.LLST32:
 9451 069e 18000000 		.4byte	.LVL151
 9452 06a2 24000000 		.4byte	.LVL152
 9453 06a6 0100     		.2byte	0x1
 9454 06a8 50       		.byte	0x50
 9455 06a9 24000000 		.4byte	.LVL152
 9456 06ad 27000000 		.4byte	.LVL153-1
 9457 06b1 0100     		.2byte	0x1
 9458 06b3 51       		.byte	0x51
 9459 06b4 28000000 		.4byte	.LVL153
 9460 06b8 2E000000 		.4byte	.LVL154
 9461 06bc 0100     		.2byte	0x1
 9462 06be 50       		.byte	0x50
 9463 06bf 00000000 		.4byte	0
 9464 06c3 00000000 		.4byte	0
 9465              	.LLST33:
 9466 06c7 32000000 		.4byte	.LVL155
 9467 06cb 49000000 		.4byte	.LVL156-1
 9468 06cf 0100     		.2byte	0x1
 9469 06d1 50       		.byte	0x50
 9470 06d2 00000000 		.4byte	0
 9471 06d6 00000000 		.4byte	0
 9472              	.LLST34:
 9473 06da 62000000 		.4byte	.LVL159
 9474 06de 6E000000 		.4byte	.LVL160
 9475 06e2 0100     		.2byte	0x1
 9476 06e4 50       		.byte	0x50
 9477 06e5 6E000000 		.4byte	.LVL160
 9478 06e9 7C000000 		.4byte	.LVL162
 9479 06ed 0100     		.2byte	0x1
ARM GAS  C:\Users\haske\AppData\Local\Temp\ccHGZgRG.s 			page 181


 9480 06ef 55       		.byte	0x55
 9481 06f0 00000000 		.4byte	0
 9482 06f4 00000000 		.4byte	0
 9483              	.LLST35:
 9484 06f8 00000000 		.4byte	.LVL168
 9485 06fc 04000000 		.4byte	.LVL169
 9486 0700 0100     		.2byte	0x1
 9487 0702 51       		.byte	0x51
 9488 0703 04000000 		.4byte	.LVL169
 9489 0707 12000000 		.4byte	.LFE176
 9490 070b 0400     		.2byte	0x4
 9491 070d F3       		.byte	0xf3
 9492 070e 01       		.uleb128 0x1
 9493 070f 51       		.byte	0x51
 9494 0710 9F       		.byte	0x9f
 9495 0711 00000000 		.4byte	0
 9496 0715 00000000 		.4byte	0
 9497              	.LLST36:
 9498 0719 00000000 		.4byte	.LVL170
 9499 071d 04000000 		.4byte	.LVL171
 9500 0721 0100     		.2byte	0x1
 9501 0723 51       		.byte	0x51
 9502 0724 04000000 		.4byte	.LVL171
 9503 0728 12000000 		.4byte	.LFE177
 9504 072c 0400     		.2byte	0x4
 9505 072e F3       		.byte	0xf3
 9506 072f 01       		.uleb128 0x1
 9507 0730 51       		.byte	0x51
 9508 0731 9F       		.byte	0x9f
 9509 0732 00000000 		.4byte	0
 9510 0736 00000000 		.4byte	0
 9511              	.LLST37:
 9512 073a 00000000 		.4byte	.LVL172
 9513 073e 0C000000 		.4byte	.LVL173
 9514 0742 0100     		.2byte	0x1
 9515 0744 50       		.byte	0x50
 9516 0745 0C000000 		.4byte	.LVL173
 9517 0749 0E000000 		.4byte	.LVL174
 9518 074d 0400     		.2byte	0x4
 9519 074f F3       		.byte	0xf3
 9520 0750 01       		.uleb128 0x1
 9521 0751 50       		.byte	0x50
 9522 0752 9F       		.byte	0x9f
 9523 0753 0E000000 		.4byte	.LVL174
 9524 0757 10000000 		.4byte	.LVL175
 9525 075b 0100     		.2byte	0x1
 9526 075d 50       		.byte	0x50
 9527 075e 10000000 		.4byte	.LVL175
 9528 0762 12000000 		.4byte	.LVL176
 9529 0766 0400     		.2byte	0x4
 9530 0768 F3       		.byte	0xf3
 9531 0769 01       		.uleb128 0x1
 9532 076a 50       		.byte	0x50
 9533 076b 9F       		.byte	0x9f
 9534 076c 12000000 		.4byte	.LVL176
 9535 0770 14000000 		.4byte	.LVL177
 9536 0774 0100     		.2byte	0x1
ARM GAS  C:\Users\haske\AppData\Local\Temp\ccHGZgRG.s 			page 182


 9537 0776 50       		.byte	0x50
 9538 0777 14000000 		.4byte	.LVL177
 9539 077b 16000000 		.4byte	.LFE178
 9540 077f 0400     		.2byte	0x4
 9541 0781 F3       		.byte	0xf3
 9542 0782 01       		.uleb128 0x1
 9543 0783 50       		.byte	0x50
 9544 0784 9F       		.byte	0x9f
 9545 0785 00000000 		.4byte	0
 9546 0789 00000000 		.4byte	0
 9547              	.LLST38:
 9548 078d 00000000 		.4byte	.LVL178
 9549 0791 09000000 		.4byte	.LVL179-1
 9550 0795 0100     		.2byte	0x1
 9551 0797 50       		.byte	0x50
 9552 0798 09000000 		.4byte	.LVL179-1
 9553 079c 2E000000 		.4byte	.LFE172
 9554 07a0 0400     		.2byte	0x4
 9555 07a2 F3       		.byte	0xf3
 9556 07a3 01       		.uleb128 0x1
 9557 07a4 50       		.byte	0x50
 9558 07a5 9F       		.byte	0x9f
 9559 07a6 00000000 		.4byte	0
 9560 07aa 00000000 		.4byte	0
 9561              	.LLST39:
 9562 07ae 00000000 		.4byte	.LVL178
 9563 07b2 09000000 		.4byte	.LVL179-1
 9564 07b6 0100     		.2byte	0x1
 9565 07b8 51       		.byte	0x51
 9566 07b9 09000000 		.4byte	.LVL179-1
 9567 07bd 1A000000 		.4byte	.LVL182
 9568 07c1 0200     		.2byte	0x2
 9569 07c3 91       		.byte	0x91
 9570 07c4 74       		.sleb128 -12
 9571 07c5 1A000000 		.4byte	.LVL182
 9572 07c9 21000000 		.4byte	.LVL183-1
 9573 07cd 0200     		.2byte	0x2
 9574 07cf 72       		.byte	0x72
 9575 07d0 00       		.sleb128 0
 9576 07d1 21000000 		.4byte	.LVL183-1
 9577 07d5 2E000000 		.4byte	.LFE172
 9578 07d9 0200     		.2byte	0x2
 9579 07db 91       		.byte	0x91
 9580 07dc 74       		.sleb128 -12
 9581 07dd 00000000 		.4byte	0
 9582 07e1 00000000 		.4byte	0
 9583              	.LLST40:
 9584 07e5 0C000000 		.4byte	.LVL180
 9585 07e9 13000000 		.4byte	.LVL181-1
 9586 07ed 0100     		.2byte	0x1
 9587 07ef 50       		.byte	0x50
 9588 07f0 13000000 		.4byte	.LVL181-1
 9589 07f4 24000000 		.4byte	.LVL184
 9590 07f8 0100     		.2byte	0x1
 9591 07fa 54       		.byte	0x54
 9592 07fb 24000000 		.4byte	.LVL184
 9593 07ff 26000000 		.4byte	.LVL185
ARM GAS  C:\Users\haske\AppData\Local\Temp\ccHGZgRG.s 			page 183


 9594 0803 0100     		.2byte	0x1
 9595 0805 50       		.byte	0x50
 9596 0806 26000000 		.4byte	.LVL185
 9597 080a 2C000000 		.4byte	.LVL186
 9598 080e 0100     		.2byte	0x1
 9599 0810 54       		.byte	0x54
 9600 0811 00000000 		.4byte	0
 9601 0815 00000000 		.4byte	0
 9602              	.LLST41:
 9603 0819 00000000 		.4byte	.LVL187
 9604 081d 23000000 		.4byte	.LVL190-1
 9605 0821 0100     		.2byte	0x1
 9606 0823 50       		.byte	0x50
 9607 0824 23000000 		.4byte	.LVL190-1
 9608 0828 46000000 		.4byte	.LVL197
 9609 082c 0100     		.2byte	0x1
 9610 082e 54       		.byte	0x54
 9611 082f 46000000 		.4byte	.LVL197
 9612 0833 48000000 		.4byte	.LFE175
 9613 0837 0400     		.2byte	0x4
 9614 0839 F3       		.byte	0xf3
 9615 083a 01       		.uleb128 0x1
 9616 083b 50       		.byte	0x50
 9617 083c 9F       		.byte	0x9f
 9618 083d 00000000 		.4byte	0
 9619 0841 00000000 		.4byte	0
 9620              	.LLST42:
 9621 0845 00000000 		.4byte	.LVL187
 9622 0849 14000000 		.4byte	.LVL189
 9623 084d 0100     		.2byte	0x1
 9624 084f 51       		.byte	0x51
 9625 0850 14000000 		.4byte	.LVL189
 9626 0854 48000000 		.4byte	.LFE175
 9627 0858 0400     		.2byte	0x4
 9628 085a F3       		.byte	0xf3
 9629 085b 01       		.uleb128 0x1
 9630 085c 51       		.byte	0x51
 9631 085d 9F       		.byte	0x9f
 9632 085e 00000000 		.4byte	0
 9633 0862 00000000 		.4byte	0
 9634              	.LLST43:
 9635 0866 06000000 		.4byte	.LVL188
 9636 086a 14000000 		.4byte	.LVL189
 9637 086e 0100     		.2byte	0x1
 9638 0870 51       		.byte	0x51
 9639 0871 14000000 		.4byte	.LVL189
 9640 0875 46000000 		.4byte	.LVL196
 9641 0879 0400     		.2byte	0x4
 9642 087b F3       		.byte	0xf3
 9643 087c 01       		.uleb128 0x1
 9644 087d 51       		.byte	0x51
 9645 087e 9F       		.byte	0x9f
 9646 087f 00000000 		.4byte	0
 9647 0883 00000000 		.4byte	0
 9648              	.LLST44:
 9649 0887 26000000 		.4byte	.LVL191
 9650 088b 2E000000 		.4byte	.LVL192
ARM GAS  C:\Users\haske\AppData\Local\Temp\ccHGZgRG.s 			page 184


 9651 088f 0100     		.2byte	0x1
 9652 0891 50       		.byte	0x50
 9653 0892 2E000000 		.4byte	.LVL192
 9654 0896 46000000 		.4byte	.LVL196
 9655 089a 0100     		.2byte	0x1
 9656 089c 55       		.byte	0x55
 9657 089d 00000000 		.4byte	0
 9658 08a1 00000000 		.4byte	0
 9659              	.LLST45:
 9660 08a5 3C000000 		.4byte	.LVL194
 9661 08a9 42000000 		.4byte	.LVL195
 9662 08ad 0100     		.2byte	0x1
 9663 08af 50       		.byte	0x50
 9664 08b0 00000000 		.4byte	0
 9665 08b4 00000000 		.4byte	0
 9666              	.LLST46:
 9667 08b8 00000000 		.4byte	.LVL198
 9668 08bc 09000000 		.4byte	.LVL199-1
 9669 08c0 0100     		.2byte	0x1
 9670 08c2 50       		.byte	0x50
 9671 08c3 09000000 		.4byte	.LVL199-1
 9672 08c7 94000000 		.4byte	.LVL220
 9673 08cb 0100     		.2byte	0x1
 9674 08cd 55       		.byte	0x55
 9675 08ce 94000000 		.4byte	.LVL220
 9676 08d2 96000000 		.4byte	.LFE168
 9677 08d6 0400     		.2byte	0x4
 9678 08d8 F3       		.byte	0xf3
 9679 08d9 01       		.uleb128 0x1
 9680 08da 50       		.byte	0x50
 9681 08db 9F       		.byte	0x9f
 9682 08dc 00000000 		.4byte	0
 9683 08e0 00000000 		.4byte	0
 9684              	.LLST47:
 9685 08e4 0C000000 		.4byte	.LVL200
 9686 08e8 19000000 		.4byte	.LVL201-1
 9687 08ec 0100     		.2byte	0x1
 9688 08ee 50       		.byte	0x50
 9689 08ef 19000000 		.4byte	.LVL201-1
 9690 08f3 94000000 		.4byte	.LVL219
 9691 08f7 0100     		.2byte	0x1
 9692 08f9 56       		.byte	0x56
 9693 08fa 00000000 		.4byte	0
 9694 08fe 00000000 		.4byte	0
 9695              	.LLST48:
 9696 0902 24000000 		.4byte	.LVL203
 9697 0906 3A000000 		.4byte	.LVL204
 9698 090a 0100     		.2byte	0x1
 9699 090c 50       		.byte	0x50
 9700 090d 3A000000 		.4byte	.LVL204
 9701 0911 68000000 		.4byte	.LVL210
 9702 0915 0100     		.2byte	0x1
 9703 0917 54       		.byte	0x54
 9704 0918 86000000 		.4byte	.LVL215
 9705 091c 8A000000 		.4byte	.LVL216
 9706 0920 0100     		.2byte	0x1
 9707 0922 50       		.byte	0x50
ARM GAS  C:\Users\haske\AppData\Local\Temp\ccHGZgRG.s 			page 185


 9708 0923 8A000000 		.4byte	.LVL216
 9709 0927 90000000 		.4byte	.LVL218
 9710 092b 0100     		.2byte	0x1
 9711 092d 54       		.byte	0x54
 9712 092e 90000000 		.4byte	.LVL218
 9713 0932 94000000 		.4byte	.LVL219
 9714 0936 0100     		.2byte	0x1
 9715 0938 50       		.byte	0x50
 9716 0939 00000000 		.4byte	0
 9717 093d 00000000 		.4byte	0
 9718              	.LLST49:
 9719 0941 48000000 		.4byte	.LVL206
 9720 0945 50000000 		.4byte	.LVL207
 9721 0949 0100     		.2byte	0x1
 9722 094b 50       		.byte	0x50
 9723 094c 00000000 		.4byte	0
 9724 0950 00000000 		.4byte	0
 9725              	.LLST50:
 9726 0954 78000000 		.4byte	.LVL212
 9727 0958 80000000 		.4byte	.LVL213
 9728 095c 0100     		.2byte	0x1
 9729 095e 50       		.byte	0x50
 9730 095f 00000000 		.4byte	0
 9731 0963 00000000 		.4byte	0
 9732              	.LLST51:
 9733 0967 00000000 		.4byte	.LVL221
 9734 096b 09000000 		.4byte	.LVL222-1
 9735 096f 0100     		.2byte	0x1
 9736 0971 50       		.byte	0x50
 9737 0972 09000000 		.4byte	.LVL222-1
 9738 0976 5A000000 		.4byte	.LVL235
 9739 097a 0100     		.2byte	0x1
 9740 097c 54       		.byte	0x54
 9741 097d 5A000000 		.4byte	.LVL235
 9742 0981 5C000000 		.4byte	.LFE165
 9743 0985 0400     		.2byte	0x4
 9744 0987 F3       		.byte	0xf3
 9745 0988 01       		.uleb128 0x1
 9746 0989 50       		.byte	0x50
 9747 098a 9F       		.byte	0x9f
 9748 098b 00000000 		.4byte	0
 9749 098f 00000000 		.4byte	0
 9750              	.LLST52:
 9751 0993 00000000 		.4byte	.LVL221
 9752 0997 09000000 		.4byte	.LVL222-1
 9753 099b 0100     		.2byte	0x1
 9754 099d 51       		.byte	0x51
 9755 099e 09000000 		.4byte	.LVL222-1
 9756 09a2 5A000000 		.4byte	.LVL236
 9757 09a6 0100     		.2byte	0x1
 9758 09a8 56       		.byte	0x56
 9759 09a9 5A000000 		.4byte	.LVL236
 9760 09ad 5C000000 		.4byte	.LFE165
 9761 09b1 0400     		.2byte	0x4
 9762 09b3 F3       		.byte	0xf3
 9763 09b4 01       		.uleb128 0x1
 9764 09b5 51       		.byte	0x51
ARM GAS  C:\Users\haske\AppData\Local\Temp\ccHGZgRG.s 			page 186


 9765 09b6 9F       		.byte	0x9f
 9766 09b7 00000000 		.4byte	0
 9767 09bb 00000000 		.4byte	0
 9768              	.LLST53:
 9769 09bf 0C000000 		.4byte	.LVL223
 9770 09c3 0E000000 		.4byte	.LVL224
 9771 09c7 0100     		.2byte	0x1
 9772 09c9 50       		.byte	0x50
 9773 09ca 0E000000 		.4byte	.LVL224
 9774 09ce 3C000000 		.4byte	.LVL229
 9775 09d2 0100     		.2byte	0x1
 9776 09d4 57       		.byte	0x57
 9777 09d5 3C000000 		.4byte	.LVL229
 9778 09d9 5A000000 		.4byte	.LVL234
 9779 09dd 0100     		.2byte	0x1
 9780 09df 55       		.byte	0x55
 9781 09e0 5A000000 		.4byte	.LVL234
 9782 09e4 5A000000 		.4byte	.LVL237
 9783 09e8 0100     		.2byte	0x1
 9784 09ea 57       		.byte	0x57
 9785 09eb 00000000 		.4byte	0
 9786 09ef 00000000 		.4byte	0
 9787              	.LLST54:
 9788 09f3 12000000 		.4byte	.LVL225
 9789 09f7 1E000000 		.4byte	.LVL226
 9790 09fb 0100     		.2byte	0x1
 9791 09fd 50       		.byte	0x50
 9792 09fe 00000000 		.4byte	0
 9793 0a02 00000000 		.4byte	0
 9794              	.LLST55:
 9795 0a06 22000000 		.4byte	.LVL227
 9796 0a0a 38000000 		.4byte	.LVL228
 9797 0a0e 0100     		.2byte	0x1
 9798 0a10 50       		.byte	0x50
 9799 0a11 38000000 		.4byte	.LVL228
 9800 0a15 3B000000 		.4byte	.LVL229-1
 9801 0a19 0100     		.2byte	0x1
 9802 0a1b 51       		.byte	0x51
 9803 0a1c 3C000000 		.4byte	.LVL229
 9804 0a20 4A000000 		.4byte	.LVL230
 9805 0a24 0100     		.2byte	0x1
 9806 0a26 50       		.byte	0x50
 9807 0a27 50000000 		.4byte	.LVL232
 9808 0a2b 56000000 		.4byte	.LVL233
 9809 0a2f 0100     		.2byte	0x1
 9810 0a31 50       		.byte	0x50
 9811 0a32 00000000 		.4byte	0
 9812 0a36 00000000 		.4byte	0
 9813              	.LLST56:
 9814 0a3a 00000000 		.4byte	.LVL238
 9815 0a3e 06000000 		.4byte	.LVL239
 9816 0a42 0100     		.2byte	0x1
 9817 0a44 50       		.byte	0x50
 9818 0a45 06000000 		.4byte	.LVL239
 9819 0a49 08000000 		.4byte	.LVL240
 9820 0a4d 0400     		.2byte	0x4
 9821 0a4f F3       		.byte	0xf3
ARM GAS  C:\Users\haske\AppData\Local\Temp\ccHGZgRG.s 			page 187


 9822 0a50 01       		.uleb128 0x1
 9823 0a51 50       		.byte	0x50
 9824 0a52 9F       		.byte	0x9f
 9825 0a53 08000000 		.4byte	.LVL240
 9826 0a57 0A000000 		.4byte	.LVL241
 9827 0a5b 0100     		.2byte	0x1
 9828 0a5d 50       		.byte	0x50
 9829 0a5e 0A000000 		.4byte	.LVL241
 9830 0a62 0C000000 		.4byte	.LFE179
 9831 0a66 0400     		.2byte	0x4
 9832 0a68 F3       		.byte	0xf3
 9833 0a69 01       		.uleb128 0x1
 9834 0a6a 50       		.byte	0x50
 9835 0a6b 9F       		.byte	0x9f
 9836 0a6c 00000000 		.4byte	0
 9837 0a70 00000000 		.4byte	0
 9838              	.LLST57:
 9839 0a74 00000000 		.4byte	.LVL242
 9840 0a78 06000000 		.4byte	.LVL243
 9841 0a7c 0100     		.2byte	0x1
 9842 0a7e 50       		.byte	0x50
 9843 0a7f 06000000 		.4byte	.LVL243
 9844 0a83 08000000 		.4byte	.LVL244
 9845 0a87 0400     		.2byte	0x4
 9846 0a89 F3       		.byte	0xf3
 9847 0a8a 01       		.uleb128 0x1
 9848 0a8b 50       		.byte	0x50
 9849 0a8c 9F       		.byte	0x9f
 9850 0a8d 08000000 		.4byte	.LVL244
 9851 0a91 0A000000 		.4byte	.LVL245
 9852 0a95 0100     		.2byte	0x1
 9853 0a97 50       		.byte	0x50
 9854 0a98 0A000000 		.4byte	.LVL245
 9855 0a9c 0C000000 		.4byte	.LFE180
 9856 0aa0 0400     		.2byte	0x4
 9857 0aa2 F3       		.byte	0xf3
 9858 0aa3 01       		.uleb128 0x1
 9859 0aa4 50       		.byte	0x50
 9860 0aa5 9F       		.byte	0x9f
 9861 0aa6 00000000 		.4byte	0
 9862 0aaa 00000000 		.4byte	0
 9863              	.LLST58:
 9864 0aae 00000000 		.4byte	.LVL246
 9865 0ab2 08000000 		.4byte	.LVL247
 9866 0ab6 0100     		.2byte	0x1
 9867 0ab8 50       		.byte	0x50
 9868 0ab9 08000000 		.4byte	.LVL247
 9869 0abd 12000000 		.4byte	.LVL248
 9870 0ac1 0400     		.2byte	0x4
 9871 0ac3 F3       		.byte	0xf3
 9872 0ac4 01       		.uleb128 0x1
 9873 0ac5 50       		.byte	0x50
 9874 0ac6 9F       		.byte	0x9f
 9875 0ac7 12000000 		.4byte	.LVL248
 9876 0acb 14000000 		.4byte	.LVL249
 9877 0acf 0100     		.2byte	0x1
 9878 0ad1 50       		.byte	0x50
ARM GAS  C:\Users\haske\AppData\Local\Temp\ccHGZgRG.s 			page 188


 9879 0ad2 14000000 		.4byte	.LVL249
 9880 0ad6 16000000 		.4byte	.LFE181
 9881 0ada 0400     		.2byte	0x4
 9882 0adc F3       		.byte	0xf3
 9883 0add 01       		.uleb128 0x1
 9884 0ade 50       		.byte	0x50
 9885 0adf 9F       		.byte	0x9f
 9886 0ae0 00000000 		.4byte	0
 9887 0ae4 00000000 		.4byte	0
 9888              	.LLST59:
 9889 0ae8 00000000 		.4byte	.LVL250
 9890 0aec 08000000 		.4byte	.LVL251
 9891 0af0 0100     		.2byte	0x1
 9892 0af2 50       		.byte	0x50
 9893 0af3 08000000 		.4byte	.LVL251
 9894 0af7 12000000 		.4byte	.LVL252
 9895 0afb 0400     		.2byte	0x4
 9896 0afd F3       		.byte	0xf3
 9897 0afe 01       		.uleb128 0x1
 9898 0aff 50       		.byte	0x50
 9899 0b00 9F       		.byte	0x9f
 9900 0b01 12000000 		.4byte	.LVL252
 9901 0b05 14000000 		.4byte	.LVL253
 9902 0b09 0100     		.2byte	0x1
 9903 0b0b 50       		.byte	0x50
 9904 0b0c 14000000 		.4byte	.LVL253
 9905 0b10 16000000 		.4byte	.LFE182
 9906 0b14 0400     		.2byte	0x4
 9907 0b16 F3       		.byte	0xf3
 9908 0b17 01       		.uleb128 0x1
 9909 0b18 50       		.byte	0x50
 9910 0b19 9F       		.byte	0x9f
 9911 0b1a 00000000 		.4byte	0
 9912 0b1e 00000000 		.4byte	0
 9913              	.LLST60:
 9914 0b22 00000000 		.4byte	.LVL254
 9915 0b26 05000000 		.4byte	.LVL255-1
 9916 0b2a 0100     		.2byte	0x1
 9917 0b2c 50       		.byte	0x50
 9918 0b2d 05000000 		.4byte	.LVL255-1
 9919 0b31 08000000 		.4byte	.LFE183
 9920 0b35 0400     		.2byte	0x4
 9921 0b37 F3       		.byte	0xf3
 9922 0b38 01       		.uleb128 0x1
 9923 0b39 50       		.byte	0x50
 9924 0b3a 9F       		.byte	0x9f
 9925 0b3b 00000000 		.4byte	0
 9926 0b3f 00000000 		.4byte	0
 9927              		.section	.debug_aranges,"",%progbits
 9928 0000 F4000000 		.4byte	0xf4
 9929 0004 0200     		.2byte	0x2
 9930 0006 00000000 		.4byte	.Ldebug_info0
 9931 000a 04       		.byte	0x4
 9932 000b 00       		.byte	0
 9933 000c 0000     		.2byte	0
 9934 000e 0000     		.2byte	0
 9935 0010 00000000 		.4byte	.LFB186
ARM GAS  C:\Users\haske\AppData\Local\Temp\ccHGZgRG.s 			page 189


 9936 0014 56000000 		.4byte	.LFE186-.LFB186
 9937 0018 00000000 		.4byte	.LFB185
 9938 001c 18010000 		.4byte	.LFE185-.LFB185
 9939 0020 00000000 		.4byte	.LFB159
 9940 0024 10000000 		.4byte	.LFE159-.LFB159
 9941 0028 00000000 		.4byte	.LFB160
 9942 002c 48000000 		.4byte	.LFE160-.LFB160
 9943 0030 00000000 		.4byte	.LFB161
 9944 0034 94000000 		.4byte	.LFE161-.LFB161
 9945 0038 00000000 		.4byte	.LFB162
 9946 003c 0C000000 		.4byte	.LFE162-.LFB162
 9947 0040 00000000 		.4byte	.LFB163
 9948 0044 0C000000 		.4byte	.LFE163-.LFB163
 9949 0048 00000000 		.4byte	.LFB167
 9950 004c 50000000 		.4byte	.LFE167-.LFB167
 9951 0050 00000000 		.4byte	.LFB169
 9952 0054 28000000 		.4byte	.LFE169-.LFB169
 9953 0058 00000000 		.4byte	.LFB170
 9954 005c 28000000 		.4byte	.LFE170-.LFB170
 9955 0060 00000000 		.4byte	.LFB184
 9956 0064 32000000 		.4byte	.LFE184-.LFB184
 9957 0068 00000000 		.4byte	.LFB166
 9958 006c A4000000 		.4byte	.LFE166-.LFB166
 9959 0070 00000000 		.4byte	.LFB164
 9960 0074 7E000000 		.4byte	.LFE164-.LFB164
 9961 0078 00000000 		.4byte	.LFB171
 9962 007c 18000000 		.4byte	.LFE171-.LFB171
 9963 0080 00000000 		.4byte	.LFB173
 9964 0084 04000000 		.4byte	.LFE173-.LFB173
 9965 0088 00000000 		.4byte	.LFB174
 9966 008c 04000000 		.4byte	.LFE174-.LFB174
 9967 0090 00000000 		.4byte	.LFB176
 9968 0094 12000000 		.4byte	.LFE176-.LFB176
 9969 0098 00000000 		.4byte	.LFB177
 9970 009c 12000000 		.4byte	.LFE177-.LFB177
 9971 00a0 00000000 		.4byte	.LFB178
 9972 00a4 16000000 		.4byte	.LFE178-.LFB178
 9973 00a8 00000000 		.4byte	.LFB172
 9974 00ac 2E000000 		.4byte	.LFE172-.LFB172
 9975 00b0 00000000 		.4byte	.LFB175
 9976 00b4 48000000 		.4byte	.LFE175-.LFB175
 9977 00b8 00000000 		.4byte	.LFB168
 9978 00bc 96000000 		.4byte	.LFE168-.LFB168
 9979 00c0 00000000 		.4byte	.LFB165
 9980 00c4 5C000000 		.4byte	.LFE165-.LFB165
 9981 00c8 00000000 		.4byte	.LFB179
 9982 00cc 0C000000 		.4byte	.LFE179-.LFB179
 9983 00d0 00000000 		.4byte	.LFB180
 9984 00d4 0C000000 		.4byte	.LFE180-.LFB180
 9985 00d8 00000000 		.4byte	.LFB181
 9986 00dc 16000000 		.4byte	.LFE181-.LFB181
 9987 00e0 00000000 		.4byte	.LFB182
 9988 00e4 16000000 		.4byte	.LFE182-.LFB182
 9989 00e8 00000000 		.4byte	.LFB183
 9990 00ec 08000000 		.4byte	.LFE183-.LFB183
 9991 00f0 00000000 		.4byte	0
 9992 00f4 00000000 		.4byte	0
ARM GAS  C:\Users\haske\AppData\Local\Temp\ccHGZgRG.s 			page 190


 9993              		.section	.debug_ranges,"",%progbits
 9994              	.Ldebug_ranges0:
 9995 0000 12000000 		.4byte	.LBB2
 9996 0004 36000000 		.4byte	.LBE2
 9997 0008 4A000000 		.4byte	.LBB3
 9998 000c 4E000000 		.4byte	.LBE3
 9999 0010 00000000 		.4byte	0
 10000 0014 00000000 		.4byte	0
 10001 0018 1E000000 		.4byte	.LBB4
 10002 001c 96000000 		.4byte	.LBE4
 10003 0020 F0000000 		.4byte	.LBB6
 10004 0024 00010000 		.4byte	.LBE6
 10005 0028 00000000 		.4byte	0
 10006 002c 00000000 		.4byte	0
 10007 0030 A0000000 		.4byte	.LBB5
 10008 0034 BE000000 		.4byte	.LBE5
 10009 0038 04010000 		.4byte	.LBB7
 10010 003c 08010000 		.4byte	.LBE7
 10011 0040 00000000 		.4byte	0
 10012 0044 00000000 		.4byte	0
 10013 0048 00000000 		.4byte	.LFB186
 10014 004c 56000000 		.4byte	.LFE186
 10015 0050 00000000 		.4byte	.LFB185
 10016 0054 18010000 		.4byte	.LFE185
 10017 0058 00000000 		.4byte	.LFB159
 10018 005c 10000000 		.4byte	.LFE159
 10019 0060 00000000 		.4byte	.LFB160
 10020 0064 48000000 		.4byte	.LFE160
 10021 0068 00000000 		.4byte	.LFB161
 10022 006c 94000000 		.4byte	.LFE161
 10023 0070 00000000 		.4byte	.LFB162
 10024 0074 0C000000 		.4byte	.LFE162
 10025 0078 00000000 		.4byte	.LFB163
 10026 007c 0C000000 		.4byte	.LFE163
 10027 0080 00000000 		.4byte	.LFB167
 10028 0084 50000000 		.4byte	.LFE167
 10029 0088 00000000 		.4byte	.LFB169
 10030 008c 28000000 		.4byte	.LFE169
 10031 0090 00000000 		.4byte	.LFB170
 10032 0094 28000000 		.4byte	.LFE170
 10033 0098 00000000 		.4byte	.LFB184
 10034 009c 32000000 		.4byte	.LFE184
 10035 00a0 00000000 		.4byte	.LFB166
 10036 00a4 A4000000 		.4byte	.LFE166
 10037 00a8 00000000 		.4byte	.LFB164
 10038 00ac 7E000000 		.4byte	.LFE164
 10039 00b0 00000000 		.4byte	.LFB171
 10040 00b4 18000000 		.4byte	.LFE171
 10041 00b8 00000000 		.4byte	.LFB173
 10042 00bc 04000000 		.4byte	.LFE173
 10043 00c0 00000000 		.4byte	.LFB174
 10044 00c4 04000000 		.4byte	.LFE174
 10045 00c8 00000000 		.4byte	.LFB176
 10046 00cc 12000000 		.4byte	.LFE176
 10047 00d0 00000000 		.4byte	.LFB177
 10048 00d4 12000000 		.4byte	.LFE177
 10049 00d8 00000000 		.4byte	.LFB178
ARM GAS  C:\Users\haske\AppData\Local\Temp\ccHGZgRG.s 			page 191


 10050 00dc 16000000 		.4byte	.LFE178
 10051 00e0 00000000 		.4byte	.LFB172
 10052 00e4 2E000000 		.4byte	.LFE172
 10053 00e8 00000000 		.4byte	.LFB175
 10054 00ec 48000000 		.4byte	.LFE175
 10055 00f0 00000000 		.4byte	.LFB168
 10056 00f4 96000000 		.4byte	.LFE168
 10057 00f8 00000000 		.4byte	.LFB165
 10058 00fc 5C000000 		.4byte	.LFE165
 10059 0100 00000000 		.4byte	.LFB179
 10060 0104 0C000000 		.4byte	.LFE179
 10061 0108 00000000 		.4byte	.LFB180
 10062 010c 0C000000 		.4byte	.LFE180
 10063 0110 00000000 		.4byte	.LFB181
 10064 0114 16000000 		.4byte	.LFE181
 10065 0118 00000000 		.4byte	.LFB182
 10066 011c 16000000 		.4byte	.LFE182
 10067 0120 00000000 		.4byte	.LFB183
 10068 0124 08000000 		.4byte	.LFE183
 10069 0128 00000000 		.4byte	0
 10070 012c 00000000 		.4byte	0
 10071              		.section	.debug_line,"",%progbits
 10072              	.Ldebug_line0:
 10073 0000 3B090000 		.section	.debug_str,"MS",%progbits,1
 10073      02009705 
 10073      00000201 
 10073      FB0E0D00 
 10073      01010101 
 10074              	.LASF215:
 10075 0000 70726F70 		.ascii	"prop_cnt\000"
 10075      5F636E74 
 10075      00
 10076              	.LASF17:
 10077 0009 696E7438 		.ascii	"int8_t\000"
 10077      5F7400
 10078              	.LASF186:
 10079 0010 4C565F53 		.ascii	"LV_STYLE_OPA\000"
 10079      54594C45 
 10079      5F4F5041 
 10079      00
 10080              	.LASF341:
 10081 001d 636F6C6F 		.ascii	"color_chroma_key\000"
 10081      725F6368 
 10081      726F6D61 
 10081      5F6B6579 
 10081      00
 10082              	.LASF23:
 10083 002e 6C765F6C 		.ascii	"lv_ll_node_t\000"
 10083      6C5F6E6F 
 10083      64655F74 
 10083      00
 10084              	.LASF318:
 10085 003b 6C765F64 		.ascii	"lv_disp_draw_buf_t\000"
 10085      6973705F 
 10085      64726177 
 10085      5F627566 
 10085      5F7400
ARM GAS  C:\Users\haske\AppData\Local\Temp\ccHGZgRG.s 			page 192


 10086              	.LASF3:
 10087 004e 73697A65 		.ascii	"size_t\000"
 10087      5F7400
 10088              	.LASF84:
 10089 0055 6164765F 		.ascii	"adv_w\000"
 10089      7700
 10090              	.LASF370:
 10091 005b 4C565F49 		.ascii	"LV_INDEV_TYPE_ENCODER\000"
 10091      4E444556 
 10091      5F545950 
 10091      455F454E 
 10091      434F4445 
 10092              	.LASF62:
 10093 0071 73697A65 		.ascii	"sizetype\000"
 10093      74797065 
 10093      00
 10094              	.LASF519:
 10095 007a 4C565F45 		.ascii	"LV_EVENT_DRAW_MAIN_BEGIN\000"
 10095      56454E54 
 10095      5F445241 
 10095      575F4D41 
 10095      494E5F42 
 10096              	.LASF544:
 10097 0093 5F4C565F 		.ascii	"_LV_EVENT_LAST\000"
 10097      4556454E 
 10097      545F4C41 
 10097      535400
 10098              	.LASF170:
 10099 00a2 4C565F53 		.ascii	"LV_STYLE_LINE_DASH_GAP\000"
 10099      54594C45 
 10099      5F4C494E 
 10099      455F4441 
 10099      53485F47 
 10100              	.LASF26:
 10101 00b9 7461696C 		.ascii	"tail\000"
 10101      00
 10102              	.LASF351:
 10103 00be 6163745F 		.ascii	"act_scr\000"
 10103      73637200 
 10104              	.LASF356:
 10105 00c6 73637265 		.ascii	"screen_cnt\000"
 10105      656E5F63 
 10105      6E7400
 10106              	.LASF300:
 10107 00d1 64726177 		.ascii	"draw_bg\000"
 10107      5F626700 
 10108              	.LASF627:
 10109 00d9 6C765F6D 		.ascii	"lv_mem_free\000"
 10109      656D5F66 
 10109      72656500 
 10110              	.LASF77:
 10111 00e5 6C765F6F 		.ascii	"lv_opa_t\000"
 10111      70615F74 
 10111      00
 10112              	.LASF177:
 10113 00ee 4C565F53 		.ascii	"LV_STYLE_ARC_OPA\000"
 10113      54594C45 
ARM GAS  C:\Users\haske\AppData\Local\Temp\ccHGZgRG.s 			page 193


 10113      5F415243 
 10113      5F4F5041 
 10113      00
 10114              	.LASF269:
 10115 00ff 7261775F 		.ascii	"raw_end\000"
 10115      656E6400 
 10116              	.LASF21:
 10117 0107 696E7433 		.ascii	"int32_t\000"
 10117      325F7400 
 10118              	.LASF472:
 10119 010f 6C765F73 		.ascii	"lv_scrollbar_mode_t\000"
 10119      63726F6C 
 10119      6C626172 
 10119      5F6D6F64 
 10119      655F7400 
 10120              	.LASF283:
 10121 0123 5F6C765F 		.ascii	"_lv_draw_layer_ctx_t\000"
 10121      64726177 
 10121      5F6C6179 
 10121      65725F63 
 10121      74785F74 
 10122              	.LASF214:
 10123 0138 6861735F 		.ascii	"has_group\000"
 10123      67726F75 
 10123      7000
 10124              	.LASF528:
 10125 0142 4C565F45 		.ascii	"LV_EVENT_INSERT\000"
 10125      56454E54 
 10125      5F494E53 
 10125      45525400 
 10126              	.LASF79:
 10127 0152 6C765F70 		.ascii	"lv_point_t\000"
 10127      6F696E74 
 10127      5F7400
 10128              	.LASF217:
 10129 015d 72616469 		.ascii	"radius\000"
 10129      757300
 10130              	.LASF220:
 10131 0164 62675F63 		.ascii	"bg_color\000"
 10131      6F6C6F72 
 10131      00
 10132              	.LASF93:
 10133 016d 6C696E65 		.ascii	"line_height\000"
 10133      5F686569 
 10133      67687400 
 10134              	.LASF97:
 10135 0179 756E6465 		.ascii	"underline_thickness\000"
 10135      726C696E 
 10135      655F7468 
 10135      69636B6E 
 10135      65737300 
 10136              	.LASF251:
 10137 018d 62696469 		.ascii	"bidi_dir\000"
 10137      5F646972 
 10137      00
 10138              	.LASF345:
 10139 0196 64726177 		.ascii	"draw_ctx_size\000"
ARM GAS  C:\Users\haske\AppData\Local\Temp\ccHGZgRG.s 			page 194


 10139      5F637478 
 10139      5F73697A 
 10139      6500
 10140              	.LASF431:
 10141 01a4 4C565F53 		.ascii	"LV_STATE_EDITED\000"
 10141      54415445 
 10141      5F454449 
 10141      54454400 
 10142              	.LASF47:
 10143 01b4 73706563 		.ascii	"spec_attr\000"
 10143      5F617474 
 10143      7200
 10144              	.LASF555:
 10145 01be 7363726F 		.ascii	"scroll_snap_x\000"
 10145      6C6C5F73 
 10145      6E61705F 
 10145      7800
 10146              	.LASF556:
 10147 01cc 7363726F 		.ascii	"scroll_snap_y\000"
 10147      6C6C5F73 
 10147      6E61705F 
 10147      7900
 10148              	.LASF277:
 10149 01da 4C565F44 		.ascii	"LV_DRAW_LAYER_FLAG_HAS_ALPHA\000"
 10149      5241575F 
 10149      4C415945 
 10149      525F464C 
 10149      41475F48 
 10150              	.LASF533:
 10151 01f7 4C565F45 		.ascii	"LV_EVENT_CHILD_CHANGED\000"
 10151      56454E54 
 10151      5F434849 
 10151      4C445F43 
 10151      48414E47 
 10152              	.LASF51:
 10153 020e 73746174 		.ascii	"state\000"
 10153      6500
 10154              	.LASF121:
 10155 0214 4C565F53 		.ascii	"LV_STYLE_HEIGHT\000"
 10155      54594C45 
 10155      5F484549 
 10155      47485400 
 10156              	.LASF69:
 10157 0224 72657065 		.ascii	"repeat_count\000"
 10157      61745F63 
 10157      6F756E74 
 10157      00
 10158              	.LASF257:
 10159 0231 7A6F6F6D 		.ascii	"zoom\000"
 10159      00
 10160              	.LASF476:
 10161 0236 69735F6C 		.ascii	"is_local\000"
 10161      6F63616C 
 10161      00
 10162              	.LASF292:
 10163 023f 64726177 		.ascii	"draw_rect\000"
 10163      5F726563 
ARM GAS  C:\Users\haske\AppData\Local\Temp\ccHGZgRG.s 			page 195


 10163      7400
 10164              	.LASF65:
 10165 0249 5F6C765F 		.ascii	"_lv_timer_t\000"
 10165      74696D65 
 10165      725F7400 
 10166              	.LASF28:
 10167 0255 4C565F52 		.ascii	"LV_RES_INV\000"
 10167      45535F49 
 10167      4E5600
 10168              	.LASF291:
 10169 0260 696E6974 		.ascii	"init_buf\000"
 10169      5F627566 
 10169      00
 10170              	.LASF481:
 10171 0269 636F6E73 		.ascii	"constructor_cb\000"
 10171      74727563 
 10171      746F725F 
 10171      636200
 10172              	.LASF274:
 10173 0278 726F756E 		.ascii	"rounded\000"
 10173      64656400 
 10174              	.LASF202:
 10175 0280 5F4C565F 		.ascii	"_LV_STYLE_LAST_BUILT_IN_PROP\000"
 10175      5354594C 
 10175      455F4C41 
 10175      53545F42 
 10175      55494C54 
 10176              	.LASF290:
 10177 029d 5F6C765F 		.ascii	"_lv_draw_ctx_t\000"
 10177      64726177 
 10177      5F637478 
 10177      5F7400
 10178              	.LASF381:
 10179 02ac 74797065 		.ascii	"type\000"
 10179      00
 10180              	.LASF511:
 10181 02b1 4C565F45 		.ascii	"LV_EVENT_GESTURE\000"
 10181      56454E54 
 10181      5F474553 
 10181      54555245 
 10181      00
 10182              	.LASF504:
 10183 02c2 4C565F45 		.ascii	"LV_EVENT_LONG_PRESSED\000"
 10183      56454E54 
 10183      5F4C4F4E 
 10183      475F5052 
 10183      45535345 
 10184              	.LASF222:
 10185 02d8 62675F69 		.ascii	"bg_img_src\000"
 10185      6D675F73 
 10185      726300
 10186              	.LASF152:
 10187 02e3 4C565F53 		.ascii	"LV_STYLE_BORDER_WIDTH\000"
 10187      54594C45 
 10187      5F424F52 
 10187      4445525F 
 10187      57494454 
ARM GAS  C:\Users\haske\AppData\Local\Temp\ccHGZgRG.s 			page 196


 10188              	.LASF151:
 10189 02f9 4C565F53 		.ascii	"LV_STYLE_BORDER_OPA\000"
 10189      54594C45 
 10189      5F424F52 
 10189      4445525F 
 10189      4F504100 
 10190              	.LASF573:
 10191 030d 6F626A5F 		.ascii	"obj_sentinel\000"
 10191      73656E74 
 10191      696E656C 
 10191      00
 10192              	.LASF534:
 10193 031a 4C565F45 		.ascii	"LV_EVENT_CHILD_CREATED\000"
 10193      56454E54 
 10193      5F434849 
 10193      4C445F43 
 10193      52454154 
 10194              	.LASF568:
 10195 0331 666F6375 		.ascii	"focus_next_core\000"
 10195      735F6E65 
 10195      78745F63 
 10195      6F726500 
 10196              	.LASF134:
 10197 0341 4C565F53 		.ascii	"LV_STYLE_PAD_COLUMN\000"
 10197      54594C45 
 10197      5F504144 
 10197      5F434F4C 
 10197      554D4E00 
 10198              	.LASF380:
 10199 0355 5F6C765F 		.ascii	"_lv_indev_drv_t\000"
 10199      696E6465 
 10199      765F6472 
 10199      765F7400 
 10200              	.LASF578:
 10201 0365 6C765F67 		.ascii	"lv_group_set_default\000"
 10201      726F7570 
 10201      5F736574 
 10201      5F646566 
 10201      61756C74 
 10202              	.LASF547:
 10203 037a 6368696C 		.ascii	"children\000"
 10203      6472656E 
 10203      00
 10204              	.LASF375:
 10205 0383 706F696E 		.ascii	"point\000"
 10205      7400
 10206              	.LASF144:
 10207 0389 4C565F53 		.ascii	"LV_STYLE_BG_DITHER_MODE\000"
 10207      54594C45 
 10207      5F42475F 
 10207      44495448 
 10207      45525F4D 
 10208              	.LASF232:
 10209 03a1 626F7264 		.ascii	"border_side\000"
 10209      65725F73 
 10209      69646500 
 10210              	.LASF6:
ARM GAS  C:\Users\haske\AppData\Local\Temp\ccHGZgRG.s 			page 197


 10211 03ad 5F5F7569 		.ascii	"__uint8_t\000"
 10211      6E74385F 
 10211      7400
 10212              	.LASF57:
 10213 03b7 775F6C61 		.ascii	"w_layout\000"
 10213      796F7574 
 10213      00
 10214              	.LASF218:
 10215 03c0 626C656E 		.ascii	"blend_mode\000"
 10215      645F6D6F 
 10215      646500
 10216              	.LASF128:
 10217 03cb 4C565F53 		.ascii	"LV_STYLE_RADIUS\000"
 10217      54594C45 
 10217      5F524144 
 10217      49555300 
 10218              	.LASF321:
 10219 03db 7665725F 		.ascii	"ver_res\000"
 10219      72657300 
 10220              	.LASF53:
 10221 03e3 7363725F 		.ascii	"scr_layout_inv\000"
 10221      6C61796F 
 10221      75745F69 
 10221      6E7600
 10222              	.LASF120:
 10223 03f2 4C565F53 		.ascii	"LV_STYLE_MAX_WIDTH\000"
 10223      54594C45 
 10223      5F4D4158 
 10223      5F574944 
 10223      544800
 10224              	.LASF350:
 10225 0405 73637265 		.ascii	"screens\000"
 10225      656E7300 
 10226              	.LASF147:
 10227 040d 4C565F53 		.ascii	"LV_STYLE_BG_IMG_RECOLOR\000"
 10227      54594C45 
 10227      5F42475F 
 10227      494D475F 
 10227      5245434F 
 10228              	.LASF588:
 10229 0425 6C765F67 		.ascii	"lv_group_focus_freeze\000"
 10229      726F7570 
 10229      5F666F63 
 10229      75735F66 
 10229      7265657A 
 10230              	.LASF164:
 10231 043b 4C565F53 		.ascii	"LV_STYLE_SHADOW_OPA\000"
 10231      54594C45 
 10231      5F534841 
 10231      444F575F 
 10231      4F504100 
 10232              	.LASF618:
 10233 044f 6C765F65 		.ascii	"lv_event_send\000"
 10233      76656E74 
 10233      5F73656E 
 10233      6400
 10234              	.LASF402:
ARM GAS  C:\Users\haske\AppData\Local\Temp\ccHGZgRG.s 			page 198


 10235 045d 7363726F 		.ascii	"scroll_obj\000"
 10235      6C6C5F6F 
 10235      626A00
 10236              	.LASF195:
 10237 0468 4C565F53 		.ascii	"LV_STYLE_TRANSFORM_HEIGHT\000"
 10237      54594C45 
 10237      5F545241 
 10237      4E53464F 
 10237      524D5F48 
 10238              	.LASF446:
 10239 0482 4C565F4F 		.ascii	"LV_OBJ_FLAG_SCROLLABLE\000"
 10239      424A5F46 
 10239      4C41475F 
 10239      5343524F 
 10239      4C4C4142 
 10240              	.LASF132:
 10241 0499 4C565F53 		.ascii	"LV_STYLE_PAD_RIGHT\000"
 10241      54594C45 
 10241      5F504144 
 10241      5F524947 
 10241      485400
 10242              	.LASF499:
 10243 04ac 4C565F45 		.ascii	"LV_EVENT_ALL\000"
 10243      56454E54 
 10243      5F414C4C 
 10243      00
 10244              	.LASF365:
 10245 04b9 6C617374 		.ascii	"last_activity_time\000"
 10245      5F616374 
 10245      69766974 
 10245      795F7469 
 10245      6D6500
 10246              	.LASF13:
 10247 04cc 6C6F6E67 		.ascii	"long int\000"
 10247      20696E74 
 10247      00
 10248              	.LASF584:
 10249 04d5 6C765F67 		.ascii	"lv_group_add_obj\000"
 10249      726F7570 
 10249      5F616464 
 10249      5F6F626A 
 10249      00
 10250              	.LASF192:
 10251 04e6 4C565F53 		.ascii	"LV_STYLE_TRANSITION\000"
 10251      54594C45 
 10251      5F545241 
 10251      4E534954 
 10251      494F4E00 
 10252              	.LASF331:
 10253 04fa 726F7461 		.ascii	"rotated\000"
 10253      74656400 
 10254              	.LASF406:
 10255 0502 7363726F 		.ascii	"scroll_dir\000"
 10255      6C6C5F64 
 10255      697200
 10256              	.LASF487:
 10257 050d 67726F75 		.ascii	"group_def\000"
ARM GAS  C:\Users\haske\AppData\Local\Temp\ccHGZgRG.s 			page 199


 10257      705F6465 
 10257      6600
 10258              	.LASF344:
 10259 0517 64726177 		.ascii	"draw_ctx_deinit\000"
 10259      5F637478 
 10259      5F646569 
 10259      6E697400 
 10260              	.LASF148:
 10261 0527 4C565F53 		.ascii	"LV_STYLE_BG_IMG_RECOLOR_OPA\000"
 10261      54594C45 
 10261      5F42475F 
 10261      494D475F 
 10261      5245434F 
 10262              	.LASF432:
 10263 0543 4C565F53 		.ascii	"LV_STATE_HOVERED\000"
 10263      54415445 
 10263      5F484F56 
 10263      45524544 
 10263      00
 10264              	.LASF219:
 10265 0554 62675F6F 		.ascii	"bg_opa\000"
 10265      706100
 10266              	.LASF348:
 10267 055b 72656672 		.ascii	"refr_timer\000"
 10267      5F74696D 
 10267      657200
 10268              	.LASF430:
 10269 0566 4C565F53 		.ascii	"LV_STATE_FOCUS_KEY\000"
 10269      54415445 
 10269      5F464F43 
 10269      55535F4B 
 10269      455900
 10270              	.LASF255:
 10271 0579 6C765F64 		.ascii	"lv_draw_label_dsc_t\000"
 10271      7261775F 
 10271      6C616265 
 10271      6C5F6473 
 10271      635F7400 
 10272              	.LASF441:
 10273 058d 6C765F73 		.ascii	"lv_state_t\000"
 10273      74617465 
 10273      5F7400
 10274              	.LASF459:
 10275 0598 4C565F4F 		.ascii	"LV_OBJ_FLAG_ADV_HITTEST\000"
 10275      424A5F46 
 10275      4C41475F 
 10275      4144565F 
 10275      48495454 
 10276              	.LASF248:
 10277 05b0 73656C5F 		.ascii	"sel_bg_color\000"
 10277      62675F63 
 10277      6F6C6F72 
 10277      00
 10278              	.LASF599:
 10279 05bd 656E5F76 		.ascii	"en_val\000"
 10279      616C00
 10280              	.LASF454:
ARM GAS  C:\Users\haske\AppData\Local\Temp\ccHGZgRG.s 			page 200


 10281 05c4 4C565F4F 		.ascii	"LV_OBJ_FLAG_SCROLL_WITH_ARROW\000"
 10281      424A5F46 
 10281      4C41475F 
 10281      5343524F 
 10281      4C4C5F57 
 10282              	.LASF35:
 10283 05e2 65646765 		.ascii	"edge_cb\000"
 10283      5F636200 
 10284              	.LASF362:
 10285 05ea 696E765F 		.ascii	"inv_area_joined\000"
 10285      61726561 
 10285      5F6A6F69 
 10285      6E656400 
 10286              	.LASF149:
 10287 05fa 4C565F53 		.ascii	"LV_STYLE_BG_IMG_TILED\000"
 10287      54594C45 
 10287      5F42475F 
 10287      494D475F 
 10287      54494C45 
 10288              	.LASF353:
 10289 0610 7363725F 		.ascii	"scr_to_load\000"
 10289      746F5F6C 
 10289      6F616400 
 10290              	.LASF25:
 10291 061c 68656164 		.ascii	"head\000"
 10291      00
 10292              	.LASF440:
 10293 0621 4C565F53 		.ascii	"LV_STATE_ANY\000"
 10293      54415445 
 10293      5F414E59 
 10293      00
 10294              	.LASF382:
 10295 062e 72656164 		.ascii	"read_cb\000"
 10295      5F636200 
 10296              	.LASF526:
 10297 0636 4C565F45 		.ascii	"LV_EVENT_DRAW_PART_END\000"
 10297      56454E54 
 10297      5F445241 
 10297      575F5041 
 10297      52545F45 
 10298              	.LASF37:
 10299 064d 66726F7A 		.ascii	"frozen\000"
 10299      656E00
 10300              	.LASF405:
 10301 0654 67657374 		.ascii	"gesture_sum\000"
 10301      7572655F 
 10301      73756D00 
 10302              	.LASF302:
 10303 0660 62756666 		.ascii	"buffer_copy\000"
 10303      65725F63 
 10303      6F707900 
 10304              	.LASF403:
 10305 066c 6C617374 		.ascii	"last_pressed\000"
 10305      5F707265 
 10305      73736564 
 10305      00
 10306              	.LASF233:
ARM GAS  C:\Users\haske\AppData\Local\Temp\ccHGZgRG.s 			page 201


 10307 0679 6F75746C 		.ascii	"outline_color\000"
 10307      696E655F 
 10307      636F6C6F 
 10307      7200
 10308              	.LASF163:
 10309 0687 4C565F53 		.ascii	"LV_STYLE_SHADOW_COLOR\000"
 10309      54594C45 
 10309      5F534841 
 10309      444F575F 
 10309      434F4C4F 
 10310              	.LASF55:
 10311 069d 7374796C 		.ascii	"style_cnt\000"
 10311      655F636E 
 10311      7400
 10312              	.LASF52:
 10313 06a7 6C61796F 		.ascii	"layout_inv\000"
 10313      75745F69 
 10313      6E7600
 10314              	.LASF5:
 10315 06b2 7369676E 		.ascii	"signed char\000"
 10315      65642063 
 10315      68617200 
 10316              	.LASF18:
 10317 06be 75696E74 		.ascii	"uint8_t\000"
 10317      385F7400 
 10318              	.LASF297:
 10319 06c6 64726177 		.ascii	"draw_line\000"
 10319      5F6C696E 
 10319      6500
 10320              	.LASF320:
 10321 06d0 686F725F 		.ascii	"hor_res\000"
 10321      72657300 
 10322              	.LASF463:
 10323 06d8 4C565F4F 		.ascii	"LV_OBJ_FLAG_LAYOUT_1\000"
 10323      424A5F46 
 10323      4C41475F 
 10323      4C41594F 
 10323      55545F31 
 10324              	.LASF464:
 10325 06ed 4C565F4F 		.ascii	"LV_OBJ_FLAG_LAYOUT_2\000"
 10325      424A5F46 
 10325      4C41475F 
 10325      4C41594F 
 10325      55545F32 
 10326              	.LASF227:
 10327 0702 62675F69 		.ascii	"bg_img_tiled\000"
 10327      6D675F74 
 10327      696C6564 
 10327      00
 10328              	.LASF140:
 10329 070f 4C565F53 		.ascii	"LV_STYLE_BG_GRAD_DIR\000"
 10329      54594C45 
 10329      5F42475F 
 10329      47524144 
 10329      5F444952 
 10330              	.LASF92:
 10331 0724 6765745F 		.ascii	"get_glyph_bitmap\000"
ARM GAS  C:\Users\haske\AppData\Local\Temp\ccHGZgRG.s 			page 202


 10331      676C7970 
 10331      685F6269 
 10331      746D6170 
 10331      00
 10332              	.LASF272:
 10333 0735 656E645F 		.ascii	"end_angle\000"
 10333      616E676C 
 10333      6500
 10334              	.LASF72:
 10335 073f 626C7565 		.ascii	"blue\000"
 10335      00
 10336              	.LASF452:
 10337 0744 4C565F4F 		.ascii	"LV_OBJ_FLAG_SCROLL_CHAIN\000"
 10337      424A5F46 
 10337      4C41475F 
 10337      5343524F 
 10337      4C4C5F43 
 10338              	.LASF225:
 10339 075d 62675F69 		.ascii	"bg_img_opa\000"
 10339      6D675F6F 
 10339      706100
 10340              	.LASF595:
 10341 0768 6C765F67 		.ascii	"lv_group_get_focused\000"
 10341      726F7570 
 10341      5F676574 
 10341      5F666F63 
 10341      75736564 
 10342              	.LASF465:
 10343 077d 4C565F4F 		.ascii	"LV_OBJ_FLAG_WIDGET_1\000"
 10343      424A5F46 
 10343      4C41475F 
 10343      57494447 
 10343      45545F31 
 10344              	.LASF466:
 10345 0792 4C565F4F 		.ascii	"LV_OBJ_FLAG_WIDGET_2\000"
 10345      424A5F46 
 10345      4C41475F 
 10345      57494447 
 10345      45545F32 
 10346              	.LASF126:
 10347 07a7 4C565F53 		.ascii	"LV_STYLE_ALIGN\000"
 10347      54594C45 
 10347      5F414C49 
 10347      474E00
 10348              	.LASF7:
 10349 07b6 756E7369 		.ascii	"unsigned char\000"
 10349      676E6564 
 10349      20636861 
 10349      7200
 10350              	.LASF354:
 10351 07c4 746F705F 		.ascii	"top_layer\000"
 10351      6C617965 
 10351      7200
 10352              	.LASF418:
 10353 07ce 74797065 		.ascii	"types\000"
 10353      7300
 10354              	.LASF543:
ARM GAS  C:\Users\haske\AppData\Local\Temp\ccHGZgRG.s 			page 203


 10355 07d4 4C565F45 		.ascii	"LV_EVENT_GET_SELF_SIZE\000"
 10355      56454E54 
 10355      5F474554 
 10355      5F53454C 
 10355      465F5349 
 10356              	.LASF520:
 10357 07eb 4C565F45 		.ascii	"LV_EVENT_DRAW_MAIN\000"
 10357      56454E54 
 10357      5F445241 
 10357      575F4D41 
 10357      494E00
 10358              	.LASF270:
 10359 07fe 6C765F64 		.ascii	"lv_draw_line_dsc_t\000"
 10359      7261775F 
 10359      6C696E65 
 10359      5F647363 
 10359      5F7400
 10360              	.LASF200:
 10361 0811 4C565F53 		.ascii	"LV_STYLE_TRANSFORM_PIVOT_X\000"
 10361      54594C45 
 10361      5F545241 
 10361      4E53464F 
 10361      524D5F50 
 10362              	.LASF201:
 10363 082c 4C565F53 		.ascii	"LV_STYLE_TRANSFORM_PIVOT_Y\000"
 10363      54594C45 
 10363      5F545241 
 10363      4E53464F 
 10363      524D5F50 
 10364              	.LASF620:
 10365 0847 5F6C765F 		.ascii	"_lv_ll_init\000"
 10365      6C6C5F69 
 10365      6E697400 
 10366              	.LASF58:
 10367 0853 6C765F67 		.ascii	"lv_group_t\000"
 10367      726F7570 
 10367      5F7400
 10368              	.LASF372:
 10369 085e 4C565F49 		.ascii	"LV_INDEV_STATE_RELEASED\000"
 10369      4E444556 
 10369      5F535441 
 10369      54455F52 
 10369      454C4541 
 10370              	.LASF166:
 10371 0876 4C565F53 		.ascii	"LV_STYLE_IMG_RECOLOR\000"
 10371      54594C45 
 10371      5F494D47 
 10371      5F524543 
 10371      4F4C4F52 
 10372              	.LASF285:
 10373 088b 61726561 		.ascii	"area_act\000"
 10373      5F616374 
 10373      00
 10374              	.LASF605:
 10375 0894 6C765F67 		.ascii	"lv_group_get_focus_cb\000"
 10375      726F7570 
 10375      5F676574 
ARM GAS  C:\Users\haske\AppData\Local\Temp\ccHGZgRG.s 			page 204


 10375      5F666F63 
 10375      75735F63 
 10376              	.LASF174:
 10377 08aa 4C565F53 		.ascii	"LV_STYLE_ARC_WIDTH\000"
 10377      54594C45 
 10377      5F415243 
 10377      5F574944 
 10377      544800
 10378              	.LASF87:
 10379 08bd 6F66735F 		.ascii	"ofs_x\000"
 10379      7800
 10380              	.LASF88:
 10381 08c3 6F66735F 		.ascii	"ofs_y\000"
 10381      7900
 10382              	.LASF103:
 10383 08c9 6C765F62 		.ascii	"lv_base_dir_t\000"
 10383      6173655F 
 10383      6469725F 
 10383      7400
 10384              	.LASF359:
 10385 08d7 72656E64 		.ascii	"rendering_in_progress\000"
 10385      6572696E 
 10385      675F696E 
 10385      5F70726F 
 10385      67726573 
 10386              	.LASF56:
 10387 08ed 685F6C61 		.ascii	"h_layout\000"
 10387      796F7574 
 10387      00
 10388              	.LASF315:
 10389 08f6 666C7573 		.ascii	"flushing_last\000"
 10389      68696E67 
 10389      5F6C6173 
 10389      7400
 10390              	.LASF42:
 10391 0904 5F426F6F 		.ascii	"_Bool\000"
 10391      6C00
 10392              	.LASF554:
 10393 090a 7363726F 		.ascii	"scrollbar_mode\000"
 10393      6C6C6261 
 10393      725F6D6F 
 10393      646500
 10394              	.LASF323:
 10395 0919 70687973 		.ascii	"physical_ver_res\000"
 10395      6963616C 
 10395      5F766572 
 10395      5F726573 
 10395      00
 10396              	.LASF288:
 10397 092a 6F726967 		.ascii	"original\000"
 10397      696E616C 
 10397      00
 10398              	.LASF196:
 10399 0933 4C565F53 		.ascii	"LV_STYLE_TRANSLATE_X\000"
 10399      54594C45 
 10399      5F545241 
 10399      4E534C41 
ARM GAS  C:\Users\haske\AppData\Local\Temp\ccHGZgRG.s 			page 205


 10399      54455F58 
 10400              	.LASF197:
 10401 0948 4C565F53 		.ascii	"LV_STYLE_TRANSLATE_Y\000"
 10401      54594C45 
 10401      5F545241 
 10401      4E534C41 
 10401      54455F59 
 10402              	.LASF634:
 10403 095d 474E5520 		.ascii	"GNU C11 5.4.1 20160609 (release) [ARM/embedded-5-br"
 10403      43313120 
 10403      352E342E 
 10403      31203230 
 10403      31363036 
 10404 0990 616E6368 		.ascii	"anch revision 237715] -mcpu=cortex-m0plus -mthumb -"
 10404      20726576 
 10404      6973696F 
 10404      6E203233 
 10404      37373135 
 10405 09c3 67202D4F 		.ascii	"g -Og -ffunction-sections -ffat-lto-objects\000"
 10405      67202D66 
 10405      66756E63 
 10405      74696F6E 
 10405      2D736563 
 10406              	.LASF496:
 10407 09ef 73746F70 		.ascii	"stop_processing\000"
 10407      5F70726F 
 10407      63657373 
 10407      696E6700 
 10408              	.LASF208:
 10409 09ff 76616C75 		.ascii	"value\000"
 10409      6500
 10410              	.LASF279:
 10411 0a05 6C765F64 		.ascii	"lv_draw_layer_flags_t\000"
 10411      7261775F 
 10411      6C617965 
 10411      725F666C 
 10411      6167735F 
 10412              	.LASF607:
 10413 0a1b 6C765F67 		.ascii	"lv_group_get_editing\000"
 10413      726F7570 
 10413      5F676574 
 10413      5F656469 
 10413      74696E67 
 10414              	.LASF63:
 10415 0a30 63686172 		.ascii	"char\000"
 10415      00
 10416              	.LASF263:
 10417 0a35 6C765F64 		.ascii	"lv_draw_img_dsc_t\000"
 10417      7261775F 
 10417      696D675F 
 10417      6473635F 
 10417      7400
 10418              	.LASF376:
 10419 0a47 62746E5F 		.ascii	"btn_id\000"
 10419      696400
 10420              	.LASF96:
 10421 0a4e 756E6465 		.ascii	"underline_position\000"
ARM GAS  C:\Users\haske\AppData\Local\Temp\ccHGZgRG.s 			page 206


 10421      726C696E 
 10421      655F706F 
 10421      73697469 
 10421      6F6E00
 10422              	.LASF307:
 10423 0a61 6C617965 		.ascii	"layer_instance_size\000"
 10423      725F696E 
 10423      7374616E 
 10423      63655F73 
 10423      697A6500 
 10424              	.LASF266:
 10425 0a75 64617368 		.ascii	"dash_gap\000"
 10425      5F676170 
 10425      00
 10426              	.LASF299:
 10427 0a7e 64726177 		.ascii	"draw_transform\000"
 10427      5F747261 
 10427      6E73666F 
 10427      726D00
 10428              	.LASF327:
 10429 0a8d 64697265 		.ascii	"direct_mode\000"
 10429      63745F6D 
 10429      6F646500 
 10430              	.LASF517:
 10431 0a99 4C565F45 		.ascii	"LV_EVENT_COVER_CHECK\000"
 10431      56454E54 
 10431      5F434F56 
 10431      45525F43 
 10431      4845434B 
 10432              	.LASF135:
 10433 0aae 4C565F53 		.ascii	"LV_STYLE_BASE_DIR\000"
 10433      54594C45 
 10433      5F424153 
 10433      455F4449 
 10433      5200
 10434              	.LASF157:
 10435 0ac0 4C565F53 		.ascii	"LV_STYLE_OUTLINE_OPA\000"
 10435      54594C45 
 10435      5F4F5554 
 10435      4C494E45 
 10435      5F4F5041 
 10436              	.LASF113:
 10437 0ad5 73746F70 		.ascii	"stops_count\000"
 10437      735F636F 
 10437      756E7400 
 10438              	.LASF330:
 10439 0ae1 616E7469 		.ascii	"antialiasing\000"
 10439      616C6961 
 10439      73696E67 
 10439      00
 10440              	.LASF10:
 10441 0aee 5F5F7569 		.ascii	"__uint16_t\000"
 10441      6E743136 
 10441      5F7400
 10442              	.LASF404:
 10443 0af9 7363726F 		.ascii	"scroll_area\000"
 10443      6C6C5F61 
ARM GAS  C:\Users\haske\AppData\Local\Temp\ccHGZgRG.s 			page 207


 10443      72656100 
 10444              	.LASF434:
 10445 0b05 4C565F53 		.ascii	"LV_STATE_SCROLLED\000"
 10445      54415445 
 10445      5F534352 
 10445      4F4C4C45 
 10445      4400
 10446              	.LASF516:
 10447 0b17 4C565F45 		.ascii	"LV_EVENT_HIT_TEST\000"
 10447      56454E54 
 10447      5F484954 
 10447      5F544553 
 10447      5400
 10448              	.LASF583:
 10449 0b29 6C765F67 		.ascii	"lv_group_remove_obj\000"
 10449      726F7570 
 10449      5F72656D 
 10449      6F76655F 
 10449      6F626A00 
 10450              	.LASF561:
 10451 0b3d 5F6C765F 		.ascii	"_lv_obj_spec_attr_t\000"
 10451      6F626A5F 
 10451      73706563 
 10451      5F617474 
 10451      725F7400 
 10452              	.LASF235:
 10453 0b51 6F75746C 		.ascii	"outline_pad\000"
 10453      696E655F 
 10453      70616400 
 10454              	.LASF308:
 10455 0b5d 6C765F64 		.ascii	"lv_draw_ctx_t\000"
 10455      7261775F 
 10455      6374785F 
 10455      7400
 10456              	.LASF137:
 10457 0b6b 4C565F53 		.ascii	"LV_STYLE_BG_COLOR\000"
 10457      54594C45 
 10457      5F42475F 
 10457      434F4C4F 
 10457      5200
 10458              	.LASF167:
 10459 0b7d 4C565F53 		.ascii	"LV_STYLE_IMG_RECOLOR_OPA\000"
 10459      54594C45 
 10459      5F494D47 
 10459      5F524543 
 10459      4F4C4F52 
 10460              	.LASF422:
 10461 0b96 70726F63 		.ascii	"proc\000"
 10461      00
 10462              	.LASF228:
 10463 0b9b 626F7264 		.ascii	"border_color\000"
 10463      65725F63 
 10463      6F6C6F72 
 10463      00
 10464              	.LASF50:
 10465 0ba8 666C6167 		.ascii	"flags\000"
 10465      7300
ARM GAS  C:\Users\haske\AppData\Local\Temp\ccHGZgRG.s 			page 208


 10466              	.LASF81:
 10467 0bae 6C765F64 		.ascii	"lv_dir_t\000"
 10467      69725F74 
 10467      00
 10468              	.LASF538:
 10469 0bb7 4C565F45 		.ascii	"LV_EVENT_SCREEN_LOADED\000"
 10469      56454E54 
 10469      5F534352 
 10469      45454E5F 
 10469      4C4F4144 
 10470              	.LASF207:
 10471 0bce 70726F70 		.ascii	"prop\000"
 10471      00
 10472              	.LASF212:
 10473 0bd3 636F6E73 		.ascii	"const_props\000"
 10473      745F7072 
 10473      6F707300 
 10474              	.LASF597:
 10475 0bdf 6C765F67 		.ascii	"lv_group_set_editing\000"
 10475      726F7570 
 10475      5F736574 
 10475      5F656469 
 10475      74696E67 
 10476              	.LASF478:
 10477 0bf4 5F6C765F 		.ascii	"_lv_obj_style_t\000"
 10477      6F626A5F 
 10477      7374796C 
 10477      655F7400 
 10478              	.LASF635:
 10479 0c04 2E2E5C2E 		.ascii	"..\\..\\..\\arduinoLCD\\test\\Pain Drain\\libraries"
 10479      2E5C2E2E 
 10479      5C617264 
 10479      75696E6F 
 10479      4C43445C 
 10480 0c31 5C6C7667 		.ascii	"\\lvgl\\src\\core\\lv_group.c\000"
 10480      6C5C7372 
 10480      635C636F 
 10480      72655C6C 
 10480      765F6772 
 10481              	.LASF231:
 10482 0c4b 626F7264 		.ascii	"border_post\000"
 10482      65725F70 
 10482      6F737400 
 10483              	.LASF550:
 10484 0c57 6576656E 		.ascii	"event_dsc\000"
 10484      745F6473 
 10484      6300
 10485              	.LASF314:
 10486 0c61 666C7573 		.ascii	"flushing\000"
 10486      68696E67 
 10486      00
 10487              	.LASF169:
 10488 0c6a 4C565F53 		.ascii	"LV_STYLE_LINE_DASH_WIDTH\000"
 10488      54594C45 
 10488      5F4C494E 
 10488      455F4441 
 10488      53485F57 
ARM GAS  C:\Users\haske\AppData\Local\Temp\ccHGZgRG.s 			page 209


 10489              	.LASF239:
 10490 0c83 73686164 		.ascii	"shadow_ofs_x\000"
 10490      6F775F6F 
 10490      66735F78 
 10490      00
 10491              	.LASF194:
 10492 0c90 4C565F53 		.ascii	"LV_STYLE_TRANSFORM_WIDTH\000"
 10492      54594C45 
 10492      5F545241 
 10492      4E53464F 
 10492      524D5F57 
 10493              	.LASF71:
 10494 0ca9 6C765F74 		.ascii	"lv_timer_t\000"
 10494      696D6572 
 10494      5F7400
 10495              	.LASF549:
 10496 0cb4 67726F75 		.ascii	"group_p\000"
 10496      705F7000 
 10497              	.LASF206:
 10498 0cbc 6C765F73 		.ascii	"lv_style_prop_t\000"
 10498      74796C65 
 10498      5F70726F 
 10498      705F7400 
 10499              	.LASF457:
 10500 0ccc 4C565F4F 		.ascii	"LV_OBJ_FLAG_EVENT_BUBBLE\000"
 10500      424A5F46 
 10500      4C41475F 
 10500      4556454E 
 10500      545F4255 
 10501              	.LASF267:
 10502 0ce5 726F756E 		.ascii	"round_start\000"
 10502      645F7374 
 10502      61727400 
 10503              	.LASF551:
 10504 0cf1 7363726F 		.ascii	"scroll\000"
 10504      6C6C00
 10505              	.LASF98:
 10506 0cf8 66616C6C 		.ascii	"fallback\000"
 10506      6261636B 
 10506      00
 10507              	.LASF211:
 10508 0d01 76616C75 		.ascii	"values_and_props\000"
 10508      65735F61 
 10508      6E645F70 
 10508      726F7073 
 10508      00
 10509              	.LASF374:
 10510 0d12 6C765F69 		.ascii	"lv_indev_state_t\000"
 10510      6E646576 
 10510      5F737461 
 10510      74655F74 
 10510      00
 10511              	.LASF329:
 10512 0d23 73775F72 		.ascii	"sw_rotate\000"
 10512      6F746174 
 10512      6500
 10513              	.LASF558:
ARM GAS  C:\Users\haske\AppData\Local\Temp\ccHGZgRG.s 			page 210


 10514 0d2d 6C617965 		.ascii	"layer_type\000"
 10514      725F7479 
 10514      706500
 10515              	.LASF191:
 10516 0d38 4C565F53 		.ascii	"LV_STYLE_ANIM_SPEED\000"
 10516      54594C45 
 10516      5F414E49 
 10516      4D5F5350 
 10516      45454400 
 10517              	.LASF80:
 10518 0d4c 6C765F61 		.ascii	"lv_area_t\000"
 10518      7265615F 
 10518      7400
 10519              	.LASF303:
 10520 0d56 6C617965 		.ascii	"layer_init\000"
 10520      725F696E 
 10520      697400
 10521              	.LASF625:
 10522 0d61 5F6C765F 		.ascii	"_lv_ll_clear\000"
 10522      6C6C5F63 
 10522      6C656172 
 10522      00
 10523              	.LASF155:
 10524 0d6e 4C565F53 		.ascii	"LV_STYLE_OUTLINE_WIDTH\000"
 10524      54594C45 
 10524      5F4F5554 
 10524      4C494E45 
 10524      5F574944 
 10525              	.LASF553:
 10526 0d85 6578745F 		.ascii	"ext_draw_size\000"
 10526      64726177 
 10526      5F73697A 
 10526      6500
 10527              	.LASF41:
 10528 0d93 6C765F67 		.ascii	"lv_group_edge_cb_t\000"
 10528      726F7570 
 10528      5F656467 
 10528      655F6362 
 10528      5F7400
 10529              	.LASF467:
 10530 0da6 4C565F4F 		.ascii	"LV_OBJ_FLAG_USER_1\000"
 10530      424A5F46 
 10530      4C41475F 
 10530      55534552 
 10530      5F3100
 10531              	.LASF468:
 10532 0db9 4C565F4F 		.ascii	"LV_OBJ_FLAG_USER_2\000"
 10532      424A5F46 
 10532      4C41475F 
 10532      55534552 
 10532      5F3200
 10533              	.LASF435:
 10534 0dcc 4C565F53 		.ascii	"LV_STATE_DISABLED\000"
 10534      54415445 
 10534      5F444953 
 10534      41424C45 
 10534      4400
ARM GAS  C:\Users\haske\AppData\Local\Temp\ccHGZgRG.s 			page 211


 10535              	.LASF470:
 10536 0dde 4C565F4F 		.ascii	"LV_OBJ_FLAG_USER_4\000"
 10536      424A5F46 
 10536      4C41475F 
 10536      55534552 
 10536      5F3400
 10537              	.LASF506:
 10538 0df1 4C565F45 		.ascii	"LV_EVENT_CLICKED\000"
 10538      56454E54 
 10538      5F434C49 
 10538      434B4544 
 10538      00
 10539              	.LASF117:
 10540 0e02 4C565F53 		.ascii	"LV_STYLE_PROP_INV\000"
 10540      54594C45 
 10540      5F50524F 
 10540      505F494E 
 10540      5600
 10541              	.LASF183:
 10542 0e14 4C565F53 		.ascii	"LV_STYLE_TEXT_LINE_SPACE\000"
 10542      54594C45 
 10542      5F544558 
 10542      545F4C49 
 10542      4E455F53 
 10543              	.LASF498:
 10544 0e2d 6C765F6F 		.ascii	"lv_obj_class_t\000"
 10544      626A5F63 
 10544      6C617373 
 10544      5F7400
 10545              	.LASF209:
 10546 0e3c 6C765F73 		.ascii	"lv_style_const_prop_t\000"
 10546      74796C65 
 10546      5F636F6E 
 10546      73745F70 
 10546      726F705F 
 10547              	.LASF521:
 10548 0e52 4C565F45 		.ascii	"LV_EVENT_DRAW_MAIN_END\000"
 10548      56454E54 
 10548      5F445241 
 10548      575F4D41 
 10548      494E5F45 
 10549              	.LASF411:
 10550 0e69 706F696E 		.ascii	"pointer\000"
 10550      74657200 
 10551              	.LASF328:
 10552 0e71 66756C6C 		.ascii	"full_refresh\000"
 10552      5F726566 
 10552      72657368 
 10552      00
 10553              	.LASF268:
 10554 0e7e 726F756E 		.ascii	"round_end\000"
 10554      645F656E 
 10554      6400
 10555              	.LASF273:
 10556 0e88 696D675F 		.ascii	"img_src\000"
 10556      73726300 
 10557              	.LASF637:
ARM GAS  C:\Users\haske\AppData\Local\Temp\ccHGZgRG.s 			page 212


 10558 0e90 6C765F67 		.ascii	"lv_group_get_default\000"
 10558      726F7570 
 10558      5F676574 
 10558      5F646566 
 10558      61756C74 
 10559              	.LASF477:
 10560 0ea5 69735F74 		.ascii	"is_trans\000"
 10560      72616E73 
 10560      00
 10561              	.LASF621:
 10562 0eae 5F6C765F 		.ascii	"_lv_ll_ins_head\000"
 10562      6C6C5F69 
 10562      6E735F68 
 10562      65616400 
 10563              	.LASF603:
 10564 0ebe 6F626A31 		.ascii	"obj1\000"
 10564      00
 10565              	.LASF604:
 10566 0ec3 6F626A32 		.ascii	"obj2\000"
 10566      00
 10567              	.LASF426:
 10568 0ec8 6C765F69 		.ascii	"lv_indev_t\000"
 10568      6E646576 
 10568      5F7400
 10569              	.LASF425:
 10570 0ed3 62746E5F 		.ascii	"btn_points\000"
 10570      706F696E 
 10570      747300
 10571              	.LASF241:
 10572 0ede 73686164 		.ascii	"shadow_spread\000"
 10572      6F775F73 
 10572      70726561 
 10572      6400
 10573              	.LASF190:
 10574 0eec 4C565F53 		.ascii	"LV_STYLE_ANIM_TIME\000"
 10574      54594C45 
 10574      5F414E49 
 10574      4D5F5449 
 10574      4D4500
 10575              	.LASF565:
 10576 0eff 696E6465 		.ascii	"indev\000"
 10576      7600
 10577              	.LASF417:
 10578 0f05 77616974 		.ascii	"wait_until_release\000"
 10578      5F756E74 
 10578      696C5F72 
 10578      656C6561 
 10578      736500
 10579              	.LASF608:
 10580 0f18 6C765F67 		.ascii	"lv_group_get_wrap\000"
 10580      726F7570 
 10580      5F676574 
 10580      5F777261 
 10580      7000
 10581              	.LASF130:
 10582 0f2a 4C565F53 		.ascii	"LV_STYLE_PAD_BOTTOM\000"
 10582      54594C45 
ARM GAS  C:\Users\haske\AppData\Local\Temp\ccHGZgRG.s 			page 213


 10582      5F504144 
 10582      5F424F54 
 10582      544F4D00 
 10583              	.LASF484:
 10584 0f3e 77696474 		.ascii	"width_def\000"
 10584      685F6465 
 10584      6600
 10585              	.LASF461:
 10586 0f48 4C565F4F 		.ascii	"LV_OBJ_FLAG_FLOATING\000"
 10586      424A5F46 
 10586      4C41475F 
 10586      464C4F41 
 10586      54494E47 
 10587              	.LASF451:
 10588 0f5d 4C565F4F 		.ascii	"LV_OBJ_FLAG_SCROLL_CHAIN_VER\000"
 10588      424A5F46 
 10588      4C41475F 
 10588      5343524F 
 10588      4C4C5F43 
 10589              	.LASF335:
 10590 0f7a 636C6561 		.ascii	"clear_cb\000"
 10590      725F6362 
 10590      00
 10591              	.LASF138:
 10592 0f83 4C565F53 		.ascii	"LV_STYLE_BG_OPA\000"
 10592      54594C45 
 10592      5F42475F 
 10592      4F504100 
 10593              	.LASF173:
 10594 0f93 4C565F53 		.ascii	"LV_STYLE_LINE_OPA\000"
 10594      54594C45 
 10594      5F4C494E 
 10594      455F4F50 
 10594      4100
 10595              	.LASF216:
 10596 0fa5 6C765F73 		.ascii	"lv_style_t\000"
 10596      74796C65 
 10596      5F7400
 10597              	.LASF585:
 10598 0fb0 6F626A5F 		.ascii	"obj_i\000"
 10598      6900
 10599              	.LASF141:
 10600 0fb6 4C565F53 		.ascii	"LV_STYLE_BG_MAIN_STOP\000"
 10600      54594C45 
 10600      5F42475F 
 10600      4D41494E 
 10600      5F53544F 
 10601              	.LASF462:
 10602 0fcc 4C565F4F 		.ascii	"LV_OBJ_FLAG_OVERFLOW_VISIBLE\000"
 10602      424A5F46 
 10602      4C41475F 
 10602      4F564552 
 10602      464C4F57 
 10603              	.LASF48:
 10604 0fe9 7374796C 		.ascii	"styles\000"
 10604      657300
 10605              	.LASF378:
ARM GAS  C:\Users\haske\AppData\Local\Temp\ccHGZgRG.s 			page 214


 10606 0ff0 636F6E74 		.ascii	"continue_reading\000"
 10606      696E7565 
 10606      5F726561 
 10606      64696E67 
 10606      00
 10607              	.LASF104:
 10608 1001 6C765F62 		.ascii	"lv_blend_mode_t\000"
 10608      6C656E64 
 10608      5F6D6F64 
 10608      655F7400 
 10609              	.LASF548:
 10610 1011 6368696C 		.ascii	"child_cnt\000"
 10610      645F636E 
 10610      7400
 10611              	.LASF165:
 10612 101b 4C565F53 		.ascii	"LV_STYLE_IMG_OPA\000"
 10612      54594C45 
 10612      5F494D47 
 10612      5F4F5041 
 10612      00
 10613              	.LASF198:
 10614 102c 4C565F53 		.ascii	"LV_STYLE_TRANSFORM_ZOOM\000"
 10614      54594C45 
 10614      5F545241 
 10614      4E53464F 
 10614      524D5F5A 
 10615              	.LASF515:
 10616 1044 4C565F45 		.ascii	"LV_EVENT_LEAVE\000"
 10616      56454E54 
 10616      5F4C4541 
 10616      564500
 10617              	.LASF570:
 10618 1053 6D6F7665 		.ascii	"move\000"
 10618      00
 10619              	.LASF15:
 10620 1058 6C6F6E67 		.ascii	"long unsigned int\000"
 10620      20756E73 
 10620      69676E65 
 10620      6420696E 
 10620      7400
 10621              	.LASF545:
 10622 106a 4C565F45 		.ascii	"LV_EVENT_PREPROCESS\000"
 10622      56454E54 
 10622      5F505245 
 10622      50524F43 
 10622      45535300 
 10623              	.LASF82:
 10624 107e 6C765F69 		.ascii	"lv_img_cf_t\000"
 10624      6D675F63 
 10624      665F7400 
 10625              	.LASF448:
 10626 108a 4C565F4F 		.ascii	"LV_OBJ_FLAG_SCROLL_MOMENTUM\000"
 10626      424A5F46 
 10626      4C41475F 
 10626      5343524F 
 10626      4C4C5F4D 
 10627              	.LASF180:
ARM GAS  C:\Users\haske\AppData\Local\Temp\ccHGZgRG.s 			page 215


 10628 10a6 4C565F53 		.ascii	"LV_STYLE_TEXT_OPA\000"
 10628      54594C45 
 10628      5F544558 
 10628      545F4F50 
 10628      4100
 10629              	.LASF271:
 10630 10b8 73746172 		.ascii	"start_angle\000"
 10630      745F616E 
 10630      676C6500 
 10631              	.LASF493:
 10632 10c4 70617261 		.ascii	"param\000"
 10632      6D00
 10633              	.LASF490:
 10634 10ca 74617267 		.ascii	"target\000"
 10634      657400
 10635              	.LASF357:
 10636 10d1 64726177 		.ascii	"draw_prev_over_act\000"
 10636      5F707265 
 10636      765F6F76 
 10636      65725F61 
 10636      637400
 10637              	.LASF306:
 10638 10e4 6C617965 		.ascii	"layer_destroy\000"
 10638      725F6465 
 10638      7374726F 
 10638      7900
 10639              	.LASF265:
 10640 10f2 64617368 		.ascii	"dash_width\000"
 10640      5F776964 
 10640      746800
 10641              	.LASF317:
 10642 10fd 6C617374 		.ascii	"last_part\000"
 10642      5F706172 
 10642      7400
 10643              	.LASF486:
 10644 1107 65646974 		.ascii	"editable\000"
 10644      61626C65 
 10644      00
 10645              	.LASF349:
 10646 1110 7468656D 		.ascii	"theme\000"
 10646      6500
 10647              	.LASF324:
 10648 1116 6F666673 		.ascii	"offset_x\000"
 10648      65745F78 
 10648      00
 10649              	.LASF325:
 10650 111f 6F666673 		.ascii	"offset_y\000"
 10650      65745F79 
 10650      00
 10651              	.LASF83:
 10652 1128 7265736F 		.ascii	"resolved_font\000"
 10652      6C766564 
 10652      5F666F6E 
 10652      7400
 10653              	.LASF445:
 10654 1136 4C565F4F 		.ascii	"LV_OBJ_FLAG_CHECKABLE\000"
 10654      424A5F46 
ARM GAS  C:\Users\haske\AppData\Local\Temp\ccHGZgRG.s 			page 216


 10654      4C41475F 
 10654      43484543 
 10654      4B41424C 
 10655              	.LASF32:
 10656 114c 6F626A5F 		.ascii	"obj_ll\000"
 10656      6C6C00
 10657              	.LASF293:
 10658 1153 64726177 		.ascii	"draw_arc\000"
 10658      5F617263 
 10658      00
 10659              	.LASF172:
 10660 115c 4C565F53 		.ascii	"LV_STYLE_LINE_COLOR\000"
 10660      54594C45 
 10660      5F4C494E 
 10660      455F434F 
 10660      4C4F5200 
 10661              	.LASF442:
 10662 1170 4C565F4F 		.ascii	"LV_OBJ_FLAG_HIDDEN\000"
 10662      424A5F46 
 10662      4C41475F 
 10662      48494444 
 10662      454E00
 10663              	.LASF133:
 10664 1183 4C565F53 		.ascii	"LV_STYLE_PAD_ROW\000"
 10664      54594C45 
 10664      5F504144 
 10664      5F524F57 
 10664      00
 10665              	.LASF309:
 10666 1194 5F6C765F 		.ascii	"_lv_disp_draw_buf_t\000"
 10666      64697370 
 10666      5F647261 
 10666      775F6275 
 10666      665F7400 
 10667              	.LASF281:
 10668 11a8 6275665F 		.ascii	"buf_area\000"
 10668      61726561 
 10668      00
 10669              	.LASF259:
 10670 11b1 7265636F 		.ascii	"recolor\000"
 10670      6C6F7200 
 10671              	.LASF529:
 10672 11b9 4C565F45 		.ascii	"LV_EVENT_REFRESH\000"
 10672      56454E54 
 10672      5F524546 
 10672      52455348 
 10672      00
 10673              	.LASF488:
 10674 11ca 696E7374 		.ascii	"instance_size\000"
 10674      616E6365 
 10674      5F73697A 
 10674      6500
 10675              	.LASF256:
 10676 11d8 616E676C 		.ascii	"angle\000"
 10676      6500
 10677              	.LASF131:
 10678 11de 4C565F53 		.ascii	"LV_STYLE_PAD_LEFT\000"
ARM GAS  C:\Users\haske\AppData\Local\Temp\ccHGZgRG.s 			page 217


 10678      54594C45 
 10678      5F504144 
 10678      5F4C4546 
 10678      5400
 10679              	.LASF589:
 10680 11f0 6C765F67 		.ascii	"lv_group_set_focus_cb\000"
 10680      726F7570 
 10680      5F736574 
 10680      5F666F63 
 10680      75735F63 
 10681              	.LASF343:
 10682 1206 64726177 		.ascii	"draw_ctx_init\000"
 10682      5F637478 
 10682      5F696E69 
 10682      7400
 10683              	.LASF535:
 10684 1214 4C565F45 		.ascii	"LV_EVENT_CHILD_DELETED\000"
 10684      56454E54 
 10684      5F434849 
 10684      4C445F44 
 10684      454C4554 
 10685              	.LASF424:
 10686 122b 67726F75 		.ascii	"group\000"
 10686      7000
 10687              	.LASF572:
 10688 1231 6F626A5F 		.ascii	"obj_next\000"
 10688      6E657874 
 10688      00
 10689              	.LASF518:
 10690 123a 4C565F45 		.ascii	"LV_EVENT_REFR_EXT_DRAW_SIZE\000"
 10690      56454E54 
 10690      5F524546 
 10690      525F4558 
 10690      545F4452 
 10691              	.LASF373:
 10692 1256 4C565F49 		.ascii	"LV_INDEV_STATE_PRESSED\000"
 10692      4E444556 
 10692      5F535441 
 10692      54455F50 
 10692      52455353 
 10693              	.LASF294:
 10694 126d 64726177 		.ascii	"draw_img_decoded\000"
 10694      5F696D67 
 10694      5F646563 
 10694      6F646564 
 10694      00
 10695              	.LASF64:
 10696 127e 6C765F74 		.ascii	"lv_timer_cb_t\000"
 10696      696D6572 
 10696      5F63625F 
 10696      7400
 10697              	.LASF189:
 10698 128c 4C565F53 		.ascii	"LV_STYLE_ANIM\000"
 10698      54594C45 
 10698      5F414E49 
 10698      4D00
 10699              	.LASF124:
ARM GAS  C:\Users\haske\AppData\Local\Temp\ccHGZgRG.s 			page 218


 10700 129a 4C565F53 		.ascii	"LV_STYLE_X\000"
 10700      54594C45 
 10700      5F5800
 10701              	.LASF401:
 10702 12a5 6C617374 		.ascii	"last_obj\000"
 10702      5F6F626A 
 10702      00
 10703              	.LASF455:
 10704 12ae 4C565F4F 		.ascii	"LV_OBJ_FLAG_SNAPPABLE\000"
 10704      424A5F46 
 10704      4C41475F 
 10704      534E4150 
 10704      5041424C 
 10705              	.LASF371:
 10706 12c4 6C765F69 		.ascii	"lv_indev_type_t\000"
 10706      6E646576 
 10706      5F747970 
 10706      655F7400 
 10707              	.LASF629:
 10708 12d4 5F6C765F 		.ascii	"_lv_ll_get_tail\000"
 10708      6C6C5F67 
 10708      65745F74 
 10708      61696C00 
 10709              	.LASF633:
 10710 12e4 5F6C765F 		.ascii	"_lv_ll_get_len\000"
 10710      6C6C5F67 
 10710      65745F6C 
 10710      656E00
 10711              	.LASF185:
 10712 12f3 4C565F53 		.ascii	"LV_STYLE_TEXT_ALIGN\000"
 10712      54594C45 
 10712      5F544558 
 10712      545F414C 
 10712      49474E00 
 10713              	.LASF369:
 10714 1307 4C565F49 		.ascii	"LV_INDEV_TYPE_BUTTON\000"
 10714      4E444556 
 10714      5F545950 
 10714      455F4255 
 10714      54544F4E 
 10715              	.LASF90:
 10716 131c 5F6C765F 		.ascii	"_lv_font_t\000"
 10716      666F6E74 
 10716      5F7400
 10717              	.LASF337:
 10718 1327 77616974 		.ascii	"wait_cb\000"
 10718      5F636200 
 10719              	.LASF14:
 10720 132f 5F5F7569 		.ascii	"__uint32_t\000"
 10720      6E743332 
 10720      5F7400
 10721              	.LASF483:
 10722 133a 6576656E 		.ascii	"event_cb\000"
 10722      745F6362 
 10722      00
 10723              	.LASF546:
 10724 1343 6C765F65 		.ascii	"lv_event_code_t\000"
ARM GAS  C:\Users\haske\AppData\Local\Temp\ccHGZgRG.s 			page 219


 10724      76656E74 
 10724      5F636F64 
 10724      655F7400 
 10725              	.LASF105:
 10726 1353 6C765F74 		.ascii	"lv_text_decor_t\000"
 10726      6578745F 
 10726      6465636F 
 10726      725F7400 
 10727              	.LASF489:
 10728 1363 5F6C765F 		.ascii	"_lv_event_t\000"
 10728      6576656E 
 10728      745F7400 
 10729              	.LASF1:
 10730 136f 6C6F6E67 		.ascii	"long long int\000"
 10730      206C6F6E 
 10730      6720696E 
 10730      7400
 10731              	.LASF237:
 10732 137d 73686164 		.ascii	"shadow_color\000"
 10732      6F775F63 
 10732      6F6C6F72 
 10732      00
 10733              	.LASF495:
 10734 138a 64656C65 		.ascii	"deleted\000"
 10734      74656400 
 10735              	.LASF59:
 10736 1392 4C565F47 		.ascii	"LV_GROUP_REFOCUS_POLICY_NEXT\000"
 10736      524F5550 
 10736      5F524546 
 10736      4F435553 
 10736      5F504F4C 
 10737              	.LASF264:
 10738 13af 77696474 		.ascii	"width\000"
 10738      6800
 10739              	.LASF510:
 10740 13b5 4C565F45 		.ascii	"LV_EVENT_SCROLL\000"
 10740      56454E54 
 10740      5F534352 
 10740      4F4C4C00 
 10741              	.LASF593:
 10742 13c5 6C765F67 		.ascii	"lv_group_set_wrap\000"
 10742      726F7570 
 10742      5F736574 
 10742      5F777261 
 10742      7000
 10743              	.LASF60:
 10744 13d7 4C565F47 		.ascii	"LV_GROUP_REFOCUS_POLICY_PREV\000"
 10744      524F5550 
 10744      5F524546 
 10744      4F435553 
 10744      5F504F4C 
 10745              	.LASF610:
 10746 13f4 64656661 		.ascii	"default_group\000"
 10746      756C745F 
 10746      67726F75 
 10746      7000
 10747              	.LASF158:
ARM GAS  C:\Users\haske\AppData\Local\Temp\ccHGZgRG.s 			page 220


 10748 1402 4C565F53 		.ascii	"LV_STYLE_OUTLINE_PAD\000"
 10748      54594C45 
 10748      5F4F5554 
 10748      4C494E45 
 10748      5F504144 
 10749              	.LASF458:
 10750 1417 4C565F4F 		.ascii	"LV_OBJ_FLAG_GESTURE_BUBBLE\000"
 10750      424A5F46 
 10750      4C41475F 
 10750      47455354 
 10750      5552455F 
 10751              	.LASF624:
 10752 1432 6C765F69 		.ascii	"lv_indev_set_group\000"
 10752      6E646576 
 10752      5F736574 
 10752      5F67726F 
 10752      757000
 10753              	.LASF310:
 10754 1445 62756631 		.ascii	"buf1\000"
 10754      00
 10755              	.LASF311:
 10756 144a 62756632 		.ascii	"buf2\000"
 10756      00
 10757              	.LASF199:
 10758 144f 4C565F53 		.ascii	"LV_STYLE_TRANSFORM_ANGLE\000"
 10758      54594C45 
 10758      5F545241 
 10758      4E53464F 
 10758      524D5F41 
 10759              	.LASF394:
 10760 1468 6C617374 		.ascii	"last_point\000"
 10760      5F706F69 
 10760      6E7400
 10761              	.LASF400:
 10762 1473 6163745F 		.ascii	"act_obj\000"
 10762      6F626A00 
 10763              	.LASF276:
 10764 147b 4C565F44 		.ascii	"LV_DRAW_LAYER_FLAG_NONE\000"
 10764      5241575F 
 10764      4C415945 
 10764      525F464C 
 10764      41475F4E 
 10765              	.LASF187:
 10766 1493 4C565F53 		.ascii	"LV_STYLE_COLOR_FILTER_DSC\000"
 10766      54594C45 
 10766      5F434F4C 
 10766      4F525F46 
 10766      494C5445 
 10767              	.LASF102:
 10768 14ad 6C765F74 		.ascii	"lv_text_align_t\000"
 10768      6578745F 
 10768      616C6967 
 10768      6E5F7400 
 10769              	.LASF447:
 10770 14bd 4C565F4F 		.ascii	"LV_OBJ_FLAG_SCROLL_ELASTIC\000"
 10770      424A5F46 
 10770      4C41475F 
ARM GAS  C:\Users\haske\AppData\Local\Temp\ccHGZgRG.s 			page 221


 10770      5343524F 
 10770      4C4C5F45 
 10771              	.LASF316:
 10772 14d8 6C617374 		.ascii	"last_area\000"
 10772      5F617265 
 10772      6100
 10773              	.LASF46:
 10774 14e2 70617265 		.ascii	"parent\000"
 10774      6E7400
 10775              	.LASF184:
 10776 14e9 4C565F53 		.ascii	"LV_STYLE_TEXT_DECOR\000"
 10776      54594C45 
 10776      5F544558 
 10776      545F4445 
 10776      434F5200 
 10777              	.LASF508:
 10778 14fd 4C565F45 		.ascii	"LV_EVENT_SCROLL_BEGIN\000"
 10778      56454E54 
 10778      5F534352 
 10778      4F4C4C5F 
 10778      42454749 
 10779              	.LASF252:
 10780 1513 616C6967 		.ascii	"align\000"
 10780      6E00
 10781              	.LASF175:
 10782 1519 4C565F53 		.ascii	"LV_STYLE_ARC_ROUNDED\000"
 10782      54594C45 
 10782      5F415243 
 10782      5F524F55 
 10782      4E444544 
 10783              	.LASF443:
 10784 152e 4C565F4F 		.ascii	"LV_OBJ_FLAG_CLICKABLE\000"
 10784      424A5F46 
 10784      4C41475F 
 10784      434C4943 
 10784      4B41424C 
 10785              	.LASF336:
 10786 1544 6D6F6E69 		.ascii	"monitor_cb\000"
 10786      746F725F 
 10786      636200
 10787              	.LASF54:
 10788 154f 736B6970 		.ascii	"skip_trans\000"
 10788      5F747261 
 10788      6E7300
 10789              	.LASF566:
 10790 155a 696E6465 		.ascii	"indev_type\000"
 10790      765F7479 
 10790      706500
 10791              	.LASF571:
 10792 1565 666F6375 		.ascii	"focus_changed\000"
 10792      735F6368 
 10792      616E6765 
 10792      6400
 10793              	.LASF179:
 10794 1573 4C565F53 		.ascii	"LV_STYLE_TEXT_COLOR\000"
 10794      54594C45 
 10794      5F544558 
ARM GAS  C:\Users\haske\AppData\Local\Temp\ccHGZgRG.s 			page 222


 10794      545F434F 
 10794      4C4F5200 
 10795              	.LASF532:
 10796 1587 4C565F45 		.ascii	"LV_EVENT_DELETE\000"
 10796      56454E54 
 10796      5F44454C 
 10796      45544500 
 10797              	.LASF45:
 10798 1597 636C6173 		.ascii	"class_p\000"
 10798      735F7000 
 10799              	.LASF522:
 10800 159f 4C565F45 		.ascii	"LV_EVENT_DRAW_POST_BEGIN\000"
 10800      56454E54 
 10800      5F445241 
 10800      575F504F 
 10800      53545F42 
 10801              	.LASF0:
 10802 15b8 756E7369 		.ascii	"unsigned int\000"
 10802      676E6564 
 10802      20696E74 
 10802      00
 10803              	.LASF393:
 10804 15c5 696E6465 		.ascii	"indev_point\000"
 10804      765F706F 
 10804      696E7400 
 10805              	.LASF384:
 10806 15d1 64697370 		.ascii	"disp\000"
 10806      00
 10807              	.LASF70:
 10808 15d6 70617573 		.ascii	"paused\000"
 10808      656400
 10809              	.LASF280:
 10810 15dd 636C6970 		.ascii	"clip_area\000"
 10810      5F617265 
 10810      6100
 10811              	.LASF116:
 10812 15e7 6C765F73 		.ascii	"lv_style_value_t\000"
 10812      74796C65 
 10812      5F76616C 
 10812      75655F74 
 10812      00
 10813              	.LASF397:
 10814 15f8 7363726F 		.ascii	"scroll_sum\000"
 10814      6C6C5F73 
 10814      756D00
 10815              	.LASF377:
 10816 1603 656E635F 		.ascii	"enc_diff\000"
 10816      64696666 
 10816      00
 10817              	.LASF246:
 10818 160c 73656C5F 		.ascii	"sel_end\000"
 10818      656E6400 
 10819              	.LASF205:
 10820 1614 5F4C565F 		.ascii	"_LV_STYLE_PROP_CONST\000"
 10820      5354594C 
 10820      455F5052 
 10820      4F505F43 
ARM GAS  C:\Users\haske\AppData\Local\Temp\ccHGZgRG.s 			page 223


 10820      4F4E5354 
 10821              	.LASF284:
 10822 1629 61726561 		.ascii	"area_full\000"
 10822      5F66756C 
 10822      6C00
 10823              	.LASF253:
 10824 1633 666C6167 		.ascii	"flag\000"
 10824      00
 10825              	.LASF594:
 10826 1638 6C765F67 		.ascii	"lv_group_create\000"
 10826      726F7570 
 10826      5F637265 
 10826      61746500 
 10827              	.LASF346:
 10828 1648 5F6C765F 		.ascii	"_lv_disp_t\000"
 10828      64697370 
 10828      5F7400
 10829              	.LASF527:
 10830 1653 4C565F45 		.ascii	"LV_EVENT_VALUE_CHANGED\000"
 10830      56454E54 
 10830      5F56414C 
 10830      55455F43 
 10830      48414E47 
 10831              	.LASF193:
 10832 166a 4C565F53 		.ascii	"LV_STYLE_BLEND_MODE\000"
 10832      54594C45 
 10832      5F424C45 
 10832      4E445F4D 
 10832      4F444500 
 10833              	.LASF236:
 10834 167e 6F75746C 		.ascii	"outline_opa\000"
 10834      696E655F 
 10834      6F706100 
 10835              	.LASF591:
 10836 168a 6C765F67 		.ascii	"lv_group_set_refocus_policy\000"
 10836      726F7570 
 10836      5F736574 
 10836      5F726566 
 10836      6F637573 
 10837              	.LASF361:
 10838 16a6 696E765F 		.ascii	"inv_areas\000"
 10838      61726561 
 10838      7300
 10839              	.LASF286:
 10840 16b0 6D61785F 		.ascii	"max_row_with_alpha\000"
 10840      726F775F 
 10840      77697468 
 10840      5F616C70 
 10840      686100
 10841              	.LASF420:
 10842 16c3 6C6F6E67 		.ascii	"longpr_rep_timestamp\000"
 10842      70725F72 
 10842      65705F74 
 10842      696D6573 
 10842      74616D70 
 10843              	.LASF453:
 10844 16d8 4C565F4F 		.ascii	"LV_OBJ_FLAG_SCROLL_ON_FOCUS\000"
ARM GAS  C:\Users\haske\AppData\Local\Temp\ccHGZgRG.s 			page 224


 10844      424A5F46 
 10844      4C41475F 
 10844      5343524F 
 10844      4C4C5F4F 
 10845              	.LASF261:
 10846 16f4 6672616D 		.ascii	"frame_id\000"
 10846      655F6964 
 10846      00
 10847              	.LASF260:
 10848 16fd 7265636F 		.ascii	"recolor_opa\000"
 10848      6C6F725F 
 10848      6F706100 
 10849              	.LASF127:
 10850 1709 4C565F53 		.ascii	"LV_STYLE_LAYOUT\000"
 10850      54594C45 
 10850      5F4C4159 
 10850      4F555400 
 10851              	.LASF99:
 10852 1719 6C765F66 		.ascii	"lv_font_glyph_dsc_t\000"
 10852      6F6E745F 
 10852      676C7970 
 10852      685F6473 
 10852      635F7400 
 10853              	.LASF537:
 10854 172d 4C565F45 		.ascii	"LV_EVENT_SCREEN_LOAD_START\000"
 10854      56454E54 
 10854      5F534352 
 10854      45454E5F 
 10854      4C4F4144 
 10855              	.LASF497:
 10856 1748 73746F70 		.ascii	"stop_bubbling\000"
 10856      5F627562 
 10856      626C696E 
 10856      6700
 10857              	.LASF234:
 10858 1756 6F75746C 		.ascii	"outline_width\000"
 10858      696E655F 
 10858      77696474 
 10858      6800
 10859              	.LASF159:
 10860 1764 4C565F53 		.ascii	"LV_STYLE_SHADOW_WIDTH\000"
 10860      54594C45 
 10860      5F534841 
 10860      444F575F 
 10860      57494454 
 10861              	.LASF501:
 10862 177a 4C565F45 		.ascii	"LV_EVENT_PRESSING\000"
 10862      56454E54 
 10862      5F505245 
 10862      5353494E 
 10862      4700
 10863              	.LASF460:
 10864 178c 4C565F4F 		.ascii	"LV_OBJ_FLAG_IGNORE_LAYOUT\000"
 10864      424A5F46 
 10864      4C41475F 
 10864      49474E4F 
 10864      52455F4C 
ARM GAS  C:\Users\haske\AppData\Local\Temp\ccHGZgRG.s 			page 225


 10865              	.LASF617:
 10866 17a6 6C765F6F 		.ascii	"lv_obj_get_parent\000"
 10866      626A5F67 
 10866      65745F70 
 10866      6172656E 
 10866      7400
 10867              	.LASF606:
 10868 17b8 6C765F67 		.ascii	"lv_group_get_edge_cb\000"
 10868      726F7570 
 10868      5F676574 
 10868      5F656467 
 10868      655F6362 
 10869              	.LASF136:
 10870 17cd 4C565F53 		.ascii	"LV_STYLE_CLIP_CORNER\000"
 10870      54594C45 
 10870      5F434C49 
 10870      505F434F 
 10870      524E4552 
 10871              	.LASF262:
 10872 17e2 616E7469 		.ascii	"antialias\000"
 10872      616C6961 
 10872      7300
 10873              	.LASF638:
 10874 17ec 6C765F67 		.ascii	"lv_group_refocus\000"
 10874      726F7570 
 10874      5F726566 
 10874      6F637573 
 10874      00
 10875              	.LASF480:
 10876 17fd 62617365 		.ascii	"base_class\000"
 10876      5F636C61 
 10876      737300
 10877              	.LASF503:
 10878 1808 4C565F45 		.ascii	"LV_EVENT_SHORT_CLICKED\000"
 10878      56454E54 
 10878      5F53484F 
 10878      52545F43 
 10878      4C49434B 
 10879              	.LASF614:
 10880 181f 6C765F69 		.ascii	"lv_indev_get_next\000"
 10880      6E646576 
 10880      5F676574 
 10880      5F6E6578 
 10880      7400
 10881              	.LASF505:
 10882 1831 4C565F45 		.ascii	"LV_EVENT_LONG_PRESSED_REPEAT\000"
 10882      56454E54 
 10882      5F4C4F4E 
 10882      475F5052 
 10882      45535345 
 10883              	.LASF34:
 10884 184e 666F6375 		.ascii	"focus_cb\000"
 10884      735F6362 
 10884      00
 10885              	.LASF385:
 10886 1857 72656164 		.ascii	"read_timer\000"
 10886      5F74696D 
ARM GAS  C:\Users\haske\AppData\Local\Temp\ccHGZgRG.s 			page 226


 10886      657200
 10887              	.LASF433:
 10888 1862 4C565F53 		.ascii	"LV_STATE_PRESSED\000"
 10888      54415445 
 10888      5F505245 
 10888      53534544 
 10888      00
 10889              	.LASF30:
 10890 1873 6C765F72 		.ascii	"lv_res_t\000"
 10890      65735F74 
 10890      00
 10891              	.LASF188:
 10892 187c 4C565F53 		.ascii	"LV_STYLE_COLOR_FILTER_OPA\000"
 10892      54594C45 
 10892      5F434F4C 
 10892      4F525F46 
 10892      494C5445 
 10893              	.LASF312:
 10894 1896 6275665F 		.ascii	"buf_act\000"
 10894      61637400 
 10895              	.LASF2:
 10896 189e 6C6F6E67 		.ascii	"long double\000"
 10896      20646F75 
 10896      626C6500 
 10897              	.LASF474:
 10898 18aa 7374796C 		.ascii	"style\000"
 10898      6500
 10899              	.LASF108:
 10900 18b0 6C765F64 		.ascii	"lv_dither_mode_t\000"
 10900      69746865 
 10900      725F6D6F 
 10900      64655F74 
 10900      00
 10901              	.LASF473:
 10902 18c1 6C765F73 		.ascii	"lv_scroll_snap_t\000"
 10902      63726F6C 
 10902      6C5F736E 
 10902      61705F74 
 10902      00
 10903              	.LASF409:
 10904 18d2 6C617374 		.ascii	"last_state\000"
 10904      5F737461 
 10904      746500
 10905              	.LASF367:
 10906 18dd 4C565F49 		.ascii	"LV_INDEV_TYPE_POINTER\000"
 10906      4E444556 
 10906      5F545950 
 10906      455F504F 
 10906      494E5445 
 10907              	.LASF419:
 10908 18f3 70725F74 		.ascii	"pr_timestamp\000"
 10908      696D6573 
 10908      74616D70 
 10908      00
 10909              	.LASF611:
 10910 1900 5F6C765F 		.ascii	"_lv_group_ll\000"
 10910      67726F75 
ARM GAS  C:\Users\haske\AppData\Local\Temp\ccHGZgRG.s 			page 227


 10910      705F6C6C 
 10910      00
 10911              	.LASF492:
 10912 190d 636F6465 		.ascii	"code\000"
 10912      00
 10913              	.LASF95:
 10914 1912 73756270 		.ascii	"subpx\000"
 10914      7800
 10915              	.LASF615:
 10916 1918 6C765F6F 		.ascii	"lv_obj_get_state\000"
 10916      626A5F67 
 10916      65745F73 
 10916      74617465 
 10916      00
 10917              	.LASF301:
 10918 1929 77616974 		.ascii	"wait_for_finish\000"
 10918      5F666F72 
 10918      5F66696E 
 10918      69736800 
 10919              	.LASF569:
 10920 1939 62656769 		.ascii	"begin\000"
 10920      6E00
 10921              	.LASF226:
 10922 193f 62675F69 		.ascii	"bg_img_recolor_opa\000"
 10922      6D675F72 
 10922      65636F6C 
 10922      6F725F6F 
 10922      706100
 10923              	.LASF567:
 10924 1952 6765745F 		.ascii	"get_indev\000"
 10924      696E6465 
 10924      7600
 10925              	.LASF590:
 10926 195c 6C765F67 		.ascii	"lv_group_set_edge_cb\000"
 10926      726F7570 
 10926      5F736574 
 10926      5F656467 
 10926      655F6362 
 10927              	.LASF278:
 10928 1971 4C565F44 		.ascii	"LV_DRAW_LAYER_FLAG_CAN_SUBDIVIDE\000"
 10928      5241575F 
 10928      4C415945 
 10928      525F464C 
 10928      41475F43 
 10929              	.LASF383:
 10930 1992 66656564 		.ascii	"feedback_cb\000"
 10930      6261636B 
 10930      5F636200 
 10931              	.LASF68:
 10932 199e 74696D65 		.ascii	"timer_cb\000"
 10932      725F6362 
 10932      00
 10933              	.LASF387:
 10934 19a7 7363726F 		.ascii	"scroll_throw\000"
 10934      6C6C5F74 
 10934      68726F77 
 10934      00
ARM GAS  C:\Users\haske\AppData\Local\Temp\ccHGZgRG.s 			page 228


 10935              	.LASF500:
 10936 19b4 4C565F45 		.ascii	"LV_EVENT_PRESSED\000"
 10936      56454E54 
 10936      5F505245 
 10936      53534544 
 10936      00
 10937              	.LASF531:
 10938 19c5 4C565F45 		.ascii	"LV_EVENT_CANCEL\000"
 10938      56454E54 
 10938      5F43414E 
 10938      43454C00 
 10939              	.LASF574:
 10940 19d5 63616E5F 		.ascii	"can_move\000"
 10940      6D6F7665 
 10940      00
 10941              	.LASF150:
 10942 19de 4C565F53 		.ascii	"LV_STYLE_BORDER_COLOR\000"
 10942      54594C45 
 10942      5F424F52 
 10942      4445525F 
 10942      434F4C4F 
 10943              	.LASF340:
 10944 19f4 72656E64 		.ascii	"render_start_cb\000"
 10944      65725F73 
 10944      74617274 
 10944      5F636200 
 10945              	.LASF339:
 10946 1a04 6472765F 		.ascii	"drv_update_cb\000"
 10946      75706461 
 10946      74655F63 
 10946      6200
 10947              	.LASF398:
 10948 1a12 7363726F 		.ascii	"scroll_throw_vect\000"
 10948      6C6C5F74 
 10948      68726F77 
 10948      5F766563 
 10948      7400
 10949              	.LASF4:
 10950 1a24 5F5F696E 		.ascii	"__int8_t\000"
 10950      74385F74 
 10950      00
 10951              	.LASF413:
 10952 1a2d 5F6C765F 		.ascii	"_lv_indev_proc_t\000"
 10952      696E6465 
 10952      765F7072 
 10952      6F635F74 
 10952      00
 10953              	.LASF322:
 10954 1a3e 70687973 		.ascii	"physical_hor_res\000"
 10954      6963616C 
 10954      5F686F72 
 10954      5F726573 
 10954      00
 10955              	.LASF313:
 10956 1a4f 73697A65 		.ascii	"size\000"
 10956      00
 10957              	.LASF287:
ARM GAS  C:\Users\haske\AppData\Local\Temp\ccHGZgRG.s 			page 229


 10958 1a54 6D61785F 		.ascii	"max_row_with_no_alpha\000"
 10958      726F775F 
 10958      77697468 
 10958      5F6E6F5F 
 10958      616C7068 
 10959              	.LASF390:
 10960 1a6a 6C6F6E67 		.ascii	"long_press_time\000"
 10960      5F707265 
 10960      73735F74 
 10960      696D6500 
 10961              	.LASF16:
 10962 1a7a 6C6F6E67 		.ascii	"long long unsigned int\000"
 10962      206C6F6E 
 10962      6720756E 
 10962      7369676E 
 10962      65642069 
 10963              	.LASF355:
 10964 1a91 7379735F 		.ascii	"sys_layer\000"
 10964      6C617965 
 10964      7200
 10965              	.LASF142:
 10966 1a9b 4C565F53 		.ascii	"LV_STYLE_BG_GRAD_STOP\000"
 10966      54594C45 
 10966      5F42475F 
 10966      47524144 
 10966      5F53544F 
 10967              	.LASF153:
 10968 1ab1 4C565F53 		.ascii	"LV_STYLE_BORDER_SIDE\000"
 10968      54594C45 
 10968      5F424F52 
 10968      4445525F 
 10968      53494445 
 10969              	.LASF479:
 10970 1ac6 5F6C765F 		.ascii	"_lv_obj_class_t\000"
 10970      6F626A5F 
 10970      636C6173 
 10970      735F7400 
 10971              	.LASF243:
 10972 1ad6 6C765F64 		.ascii	"lv_draw_rect_dsc_t\000"
 10972      7261775F 
 10972      72656374 
 10972      5F647363 
 10972      5F7400
 10973              	.LASF444:
 10974 1ae9 4C565F4F 		.ascii	"LV_OBJ_FLAG_CLICK_FOCUSABLE\000"
 10974      424A5F46 
 10974      4C41475F 
 10974      434C4943 
 10974      4B5F464F 
 10975              	.LASF20:
 10976 1b05 75696E74 		.ascii	"uint16_t\000"
 10976      31365F74 
 10976      00
 10977              	.LASF29:
 10978 1b0e 4C565F52 		.ascii	"LV_RES_OK\000"
 10978      45535F4F 
 10978      4B00
ARM GAS  C:\Users\haske\AppData\Local\Temp\ccHGZgRG.s 			page 230


 10979              	.LASF67:
 10980 1b18 6C617374 		.ascii	"last_run\000"
 10980      5F72756E 
 10980      00
 10981              	.LASF40:
 10982 1b21 77726170 		.ascii	"wrap\000"
 10982      00
 10983              	.LASF76:
 10984 1b26 6C765F63 		.ascii	"lv_color_t\000"
 10984      6F6C6F72 
 10984      5F7400
 10985              	.LASF296:
 10986 1b31 64726177 		.ascii	"draw_letter\000"
 10986      5F6C6574 
 10986      74657200 
 10987              	.LASF415:
 10988 1b3d 72657365 		.ascii	"reset_query\000"
 10988      745F7175 
 10988      65727900 
 10989              	.LASF118:
 10990 1b49 4C565F53 		.ascii	"LV_STYLE_WIDTH\000"
 10990      54594C45 
 10990      5F574944 
 10990      544800
 10991              	.LASF579:
 10992 1b58 6C765F67 		.ascii	"lv_group_remove_all_objs\000"
 10992      726F7570 
 10992      5F72656D 
 10992      6F76655F 
 10992      616C6C5F 
 10993              	.LASF229:
 10994 1b71 626F7264 		.ascii	"border_width\000"
 10994      65725F77 
 10994      69647468 
 10994      00
 10995              	.LASF119:
 10996 1b7e 4C565F53 		.ascii	"LV_STYLE_MIN_WIDTH\000"
 10996      54594C45 
 10996      5F4D494E 
 10996      5F574944 
 10996      544800
 10997              	.LASF101:
 10998 1b91 6C765F74 		.ascii	"lv_text_flag_t\000"
 10998      6578745F 
 10998      666C6167 
 10998      5F7400
 10999              	.LASF399:
 11000 1ba0 7363726F 		.ascii	"scroll_throw_vect_ori\000"
 11000      6C6C5F74 
 11000      68726F77 
 11000      5F766563 
 11000      745F6F72 
 11001              	.LASF160:
 11002 1bb6 4C565F53 		.ascii	"LV_STYLE_SHADOW_OFS_X\000"
 11002      54594C45 
 11002      5F534841 
 11002      444F575F 
ARM GAS  C:\Users\haske\AppData\Local\Temp\ccHGZgRG.s 			page 231


 11002      4F46535F 
 11003              	.LASF161:
 11004 1bcc 4C565F53 		.ascii	"LV_STYLE_SHADOW_OFS_Y\000"
 11004      54594C45 
 11004      5F534841 
 11004      444F575F 
 11004      4F46535F 
 11005              	.LASF368:
 11006 1be2 4C565F49 		.ascii	"LV_INDEV_TYPE_KEYPAD\000"
 11006      4E444556 
 11006      5F545950 
 11006      455F4B45 
 11006      59504144 
 11007              	.LASF145:
 11008 1bf7 4C565F53 		.ascii	"LV_STYLE_BG_IMG_SRC\000"
 11008      54594C45 
 11008      5F42475F 
 11008      494D475F 
 11008      53524300 
 11009              	.LASF598:
 11010 1c0b 65646974 		.ascii	"edit\000"
 11010      00
 11011              	.LASF258:
 11012 1c10 7069766F 		.ascii	"pivot\000"
 11012      7400
 11013              	.LASF178:
 11014 1c16 4C565F53 		.ascii	"LV_STYLE_ARC_IMG_SRC\000"
 11014      54594C45 
 11014      5F415243 
 11014      5F494D47 
 11014      5F535243 
 11015              	.LASF210:
 11016 1c2b 76616C75 		.ascii	"value1\000"
 11016      653100
 11017              	.LASF582:
 11018 1c32 74656D70 		.ascii	"temp_wrap\000"
 11018      5F777261 
 11018      7000
 11019              	.LASF326:
 11020 1c3c 64726177 		.ascii	"draw_buf\000"
 11020      5F627566 
 11020      00
 11021              	.LASF66:
 11022 1c45 70657269 		.ascii	"period\000"
 11022      6F6400
 11023              	.LASF333:
 11024 1c4c 726F756E 		.ascii	"rounder_cb\000"
 11024      6465725F 
 11024      636200
 11025              	.LASF254:
 11026 1c57 6465636F 		.ascii	"decor\000"
 11026      7200
 11027              	.LASF623:
 11028 1c5d 5F6C765F 		.ascii	"_lv_ll_get_next\000"
 11028      6C6C5F67 
 11028      65745F6E 
 11028      65787400 
ARM GAS  C:\Users\haske\AppData\Local\Temp\ccHGZgRG.s 			page 232


 11029              	.LASF8:
 11030 1c6d 5F5F696E 		.ascii	"__int16_t\000"
 11030      7431365F 
 11030      7400
 11031              	.LASF304:
 11032 1c77 6C617965 		.ascii	"layer_adjust\000"
 11032      725F6164 
 11032      6A757374 
 11032      00
 11033              	.LASF181:
 11034 1c84 4C565F53 		.ascii	"LV_STYLE_TEXT_FONT\000"
 11034      54594C45 
 11034      5F544558 
 11034      545F464F 
 11034      4E5400
 11035              	.LASF539:
 11036 1c97 4C565F45 		.ascii	"LV_EVENT_SCREEN_UNLOADED\000"
 11036      56454E54 
 11036      5F534352 
 11036      45454E5F 
 11036      554E4C4F 
 11037              	.LASF204:
 11038 1cb0 4C565F53 		.ascii	"LV_STYLE_PROP_ANY\000"
 11038      54594C45 
 11038      5F50524F 
 11038      505F414E 
 11038      5900
 11039              	.LASF74:
 11040 1cc2 66756C6C 		.ascii	"full\000"
 11040      00
 11041              	.LASF289:
 11042 1cc7 6C765F64 		.ascii	"lv_draw_layer_ctx_t\000"
 11042      7261775F 
 11042      6C617965 
 11042      725F6374 
 11042      785F7400 
 11043              	.LASF109:
 11044 1cdb 636F6C6F 		.ascii	"color\000"
 11044      7200
 11045              	.LASF600:
 11046 1ce1 666F6375 		.ascii	"focused\000"
 11046      73656400 
 11047              	.LASF601:
 11048 1ce9 6C765F67 		.ascii	"lv_group_focus_obj\000"
 11048      726F7570 
 11048      5F666F63 
 11048      75735F6F 
 11048      626A00
 11049              	.LASF112:
 11050 1cfc 73746F70 		.ascii	"stops\000"
 11050      7300
 11051              	.LASF410:
 11052 1d02 6C617374 		.ascii	"last_key\000"
 11052      5F6B6579 
 11052      00
 11053              	.LASF249:
 11054 1d0b 6C696E65 		.ascii	"line_space\000"
ARM GAS  C:\Users\haske\AppData\Local\Temp\ccHGZgRG.s 			page 233


 11054      5F737061 
 11054      636500
 11055              	.LASF421:
 11056 1d16 5F6C765F 		.ascii	"_lv_indev_t\000"
 11056      696E6465 
 11056      765F7400 
 11057              	.LASF407:
 11058 1d22 67657374 		.ascii	"gesture_dir\000"
 11058      7572655F 
 11058      64697200 
 11059              	.LASF305:
 11060 1d2e 6C617965 		.ascii	"layer_blend\000"
 11060      725F626C 
 11060      656E6400 
 11061              	.LASF586:
 11062 1d3a 67726F75 		.ascii	"group_cur\000"
 11062      705F6375 
 11062      7200
 11063              	.LASF408:
 11064 1d44 67657374 		.ascii	"gesture_sent\000"
 11064      7572655F 
 11064      73656E74 
 11064      00
 11065              	.LASF592:
 11066 1d51 706F6C69 		.ascii	"policy\000"
 11066      637900
 11067              	.LASF482:
 11068 1d58 64657374 		.ascii	"destructor_cb\000"
 11068      72756374 
 11068      6F725F63 
 11068      6200
 11069              	.LASF106:
 11070 1d66 6C765F62 		.ascii	"lv_border_side_t\000"
 11070      6F726465 
 11070      725F7369 
 11070      64655F74 
 11070      00
 11071              	.LASF110:
 11072 1d77 66726163 		.ascii	"frac\000"
 11072      00
 11073              	.LASF44:
 11074 1d7c 5F6C765F 		.ascii	"_lv_obj_t\000"
 11074      6F626A5F 
 11074      7400
 11075              	.LASF244:
 11076 1d86 666F6E74 		.ascii	"font\000"
 11076      00
 11077              	.LASF250:
 11078 1d8b 6C657474 		.ascii	"letter_space\000"
 11078      65725F73 
 11078      70616365 
 11078      00
 11079              	.LASF386:
 11080 1d98 7363726F 		.ascii	"scroll_limit\000"
 11080      6C6C5F6C 
 11080      696D6974 
 11080      00
ARM GAS  C:\Users\haske\AppData\Local\Temp\ccHGZgRG.s 			page 234


 11081              	.LASF123:
 11082 1da5 4C565F53 		.ascii	"LV_STYLE_MAX_HEIGHT\000"
 11082      54594C45 
 11082      5F4D4158 
 11082      5F484549 
 11082      47485400 
 11083              	.LASF347:
 11084 1db9 64726976 		.ascii	"driver\000"
 11084      657200
 11085              	.LASF559:
 11086 1dc0 5F6C765F 		.ascii	"_lv_theme_t\000"
 11086      7468656D 
 11086      655F7400 
 11087              	.LASF275:
 11088 1dcc 6C765F64 		.ascii	"lv_draw_arc_dsc_t\000"
 11088      7261775F 
 11088      6172635F 
 11088      6473635F 
 11088      7400
 11089              	.LASF139:
 11090 1dde 4C565F53 		.ascii	"LV_STYLE_BG_GRAD_COLOR\000"
 11090      54594C45 
 11090      5F42475F 
 11090      47524144 
 11090      5F434F4C 
 11091              	.LASF352:
 11092 1df5 70726576 		.ascii	"prev_scr\000"
 11092      5F736372 
 11092      00
 11093              	.LASF86:
 11094 1dfe 626F785F 		.ascii	"box_h\000"
 11094      6800
 11095              	.LASF427:
 11096 1e04 4C565F53 		.ascii	"LV_STATE_DEFAULT\000"
 11096      54415445 
 11096      5F444546 
 11096      41554C54 
 11096      00
 11097              	.LASF596:
 11098 1e15 6C765F67 		.ascii	"lv_group_send_data\000"
 11098      726F7570 
 11098      5F73656E 
 11098      645F6461 
 11098      746100
 11099              	.LASF224:
 11100 1e28 62675F69 		.ascii	"bg_img_recolor\000"
 11100      6D675F72 
 11100      65636F6C 
 11100      6F7200
 11101              	.LASF94:
 11102 1e37 62617365 		.ascii	"base_line\000"
 11102      5F6C696E 
 11102      6500
 11103              	.LASF75:
 11104 1e41 6C765F63 		.ascii	"lv_color16_t\000"
 11104      6F6C6F72 
 11104      31365F74 
ARM GAS  C:\Users\haske\AppData\Local\Temp\ccHGZgRG.s 			page 235


 11104      00
 11105              	.LASF85:
 11106 1e4e 626F785F 		.ascii	"box_w\000"
 11106      7700
 11107              	.LASF9:
 11108 1e54 73686F72 		.ascii	"short int\000"
 11108      7420696E 
 11108      7400
 11109              	.LASF38:
 11110 1e5e 65646974 		.ascii	"editing\000"
 11110      696E6700 
 11111              	.LASF363:
 11112 1e66 696E765F 		.ascii	"inv_p\000"
 11112      7000
 11113              	.LASF27:
 11114 1e6c 6C765F6C 		.ascii	"lv_ll_t\000"
 11114      6C5F7400 
 11115              	.LASF612:
 11116 1e74 6C765F66 		.ascii	"lv_font_montserrat_14\000"
 11116      6F6E745F 
 11116      6D6F6E74 
 11116      73657272 
 11116      61745F31 
 11117              	.LASF392:
 11118 1e8a 6163745F 		.ascii	"act_point\000"
 11118      706F696E 
 11118      7400
 11119              	.LASF456:
 11120 1e94 4C565F4F 		.ascii	"LV_OBJ_FLAG_PRESS_LOCK\000"
 11120      424A5F46 
 11120      4C41475F 
 11120      50524553 
 11120      535F4C4F 
 11121              	.LASF602:
 11122 1eab 6C765F67 		.ascii	"lv_group_swap_obj\000"
 11122      726F7570 
 11122      5F737761 
 11122      705F6F62 
 11122      6A00
 11123              	.LASF524:
 11124 1ebd 4C565F45 		.ascii	"LV_EVENT_DRAW_POST_END\000"
 11124      56454E54 
 11124      5F445241 
 11124      575F504F 
 11124      53545F45 
 11125              	.LASF525:
 11126 1ed4 4C565F45 		.ascii	"LV_EVENT_DRAW_PART_BEGIN\000"
 11126      56454E54 
 11126      5F445241 
 11126      575F5041 
 11126      52545F42 
 11127              	.LASF412:
 11128 1eed 6B657970 		.ascii	"keypad\000"
 11128      616400
 11129              	.LASF242:
 11130 1ef4 73686164 		.ascii	"shadow_opa\000"
 11130      6F775F6F 
ARM GAS  C:\Users\haske\AppData\Local\Temp\ccHGZgRG.s 			page 236


 11130      706100
 11131              	.LASF176:
 11132 1eff 4C565F53 		.ascii	"LV_STYLE_ARC_COLOR\000"
 11132      54594C45 
 11132      5F415243 
 11132      5F434F4C 
 11132      4F5200
 11133              	.LASF491:
 11134 1f12 63757272 		.ascii	"current_target\000"
 11134      656E745F 
 11134      74617267 
 11134      657400
 11135              	.LASF19:
 11136 1f21 696E7431 		.ascii	"int16_t\000"
 11136      365F7400 
 11137              	.LASF364:
 11138 1f29 696E765F 		.ascii	"inv_en_cnt\000"
 11138      656E5F63 
 11138      6E7400
 11139              	.LASF282:
 11140 1f34 73637265 		.ascii	"screen_transp\000"
 11140      656E5F74 
 11140      72616E73 
 11140      7000
 11141              	.LASF49:
 11142 1f42 636F6F72 		.ascii	"coords\000"
 11142      647300
 11143              	.LASF552:
 11144 1f49 6578745F 		.ascii	"ext_click_pad\000"
 11144      636C6963 
 11144      6B5F7061 
 11144      6400
 11145              	.LASF626:
 11146 1f57 5F6C765F 		.ascii	"_lv_ll_remove\000"
 11146      6C6C5F72 
 11146      656D6F76 
 11146      6500
 11147              	.LASF428:
 11148 1f65 4C565F53 		.ascii	"LV_STATE_CHECKED\000"
 11148      54415445 
 11148      5F434845 
 11148      434B4544 
 11148      00
 11149              	.LASF203:
 11150 1f76 5F4C565F 		.ascii	"_LV_STYLE_NUM_BUILT_IN_PROPS\000"
 11150      5354594C 
 11150      455F4E55 
 11150      4D5F4255 
 11150      494C545F 
 11151              	.LASF609:
 11152 1f93 6C765F67 		.ascii	"lv_group_get_obj_count\000"
 11152      726F7570 
 11152      5F676574 
 11152      5F6F626A 
 11152      5F636F75 
 11153              	.LASF129:
 11154 1faa 4C565F53 		.ascii	"LV_STYLE_PAD_TOP\000"
ARM GAS  C:\Users\haske\AppData\Local\Temp\ccHGZgRG.s 			page 237


 11154      54594C45 
 11154      5F504144 
 11154      5F544F50 
 11154      00
 11155              	.LASF358:
 11156 1fbb 64656C5F 		.ascii	"del_prev\000"
 11156      70726576 
 11156      00
 11157              	.LASF61:
 11158 1fc4 6C765F67 		.ascii	"lv_group_refocus_policy_t\000"
 11158      726F7570 
 11158      5F726566 
 11158      6F637573 
 11158      5F706F6C 
 11159              	.LASF360:
 11160 1fde 62675F69 		.ascii	"bg_img\000"
 11160      6D6700
 11161              	.LASF146:
 11162 1fe5 4C565F53 		.ascii	"LV_STYLE_BG_IMG_OPA\000"
 11162      54594C45 
 11162      5F42475F 
 11162      494D475F 
 11162      4F504100 
 11163              	.LASF168:
 11164 1ff9 4C565F53 		.ascii	"LV_STYLE_LINE_WIDTH\000"
 11164      54594C45 
 11164      5F4C494E 
 11164      455F5749 
 11164      44544800 
 11165              	.LASF514:
 11166 200d 4C565F45 		.ascii	"LV_EVENT_DEFOCUSED\000"
 11166      56454E54 
 11166      5F444546 
 11166      4F435553 
 11166      454400
 11167              	.LASF576:
 11168 2020 5F6C765F 		.ascii	"_lv_group_init\000"
 11168      67726F75 
 11168      705F696E 
 11168      697400
 11169              	.LASF636:
 11170 202f 433A5C50 		.ascii	"C:\\Projects\\PainDrain\\firmware\\PainDrain\\PainD"
 11170      726F6A65 
 11170      6374735C 
 11170      5061696E 
 11170      44726169 
 11171 205d 7261696E 		.ascii	"rain.cydsn\000"
 11171      2E637964 
 11171      736E00
 11172              	.LASF213:
 11173 2068 70726F70 		.ascii	"prop1\000"
 11173      3100
 11174              	.LASF334:
 11175 206e 7365745F 		.ascii	"set_px_cb\000"
 11175      70785F63 
 11175      6200
 11176              	.LASF391:
ARM GAS  C:\Users\haske\AppData\Local\Temp\ccHGZgRG.s 			page 238


 11177 2078 6C6F6E67 		.ascii	"long_press_repeat_time\000"
 11177      5F707265 
 11177      73735F72 
 11177      65706561 
 11177      745F7469 
 11178              	.LASF509:
 11179 208f 4C565F45 		.ascii	"LV_EVENT_SCROLL_END\000"
 11179      56454E54 
 11179      5F534352 
 11179      4F4C4C5F 
 11179      454E4400 
 11180              	.LASF230:
 11181 20a3 626F7264 		.ascii	"border_opa\000"
 11181      65725F6F 
 11181      706100
 11182              	.LASF122:
 11183 20ae 4C565F53 		.ascii	"LV_STYLE_MIN_HEIGHT\000"
 11183      54594C45 
 11183      5F4D494E 
 11183      5F484549 
 11183      47485400 
 11184              	.LASF436:
 11185 20c2 4C565F53 		.ascii	"LV_STATE_USER_1\000"
 11185      54415445 
 11185      5F555345 
 11185      525F3100 
 11186              	.LASF437:
 11187 20d2 4C565F53 		.ascii	"LV_STATE_USER_2\000"
 11187      54415445 
 11187      5F555345 
 11187      525F3200 
 11188              	.LASF438:
 11189 20e2 4C565F53 		.ascii	"LV_STATE_USER_3\000"
 11189      54415445 
 11189      5F555345 
 11189      525F3300 
 11190              	.LASF439:
 11191 20f2 4C565F53 		.ascii	"LV_STATE_USER_4\000"
 11191      54415445 
 11191      5F555345 
 11191      525F3400 
 11192              	.LASF575:
 11193 2102 63616E5F 		.ascii	"can_begin\000"
 11193      62656769 
 11193      6E00
 11194              	.LASF221:
 11195 210c 62675F67 		.ascii	"bg_grad\000"
 11195      72616400 
 11196              	.LASF379:
 11197 2114 6C765F69 		.ascii	"lv_indev_data_t\000"
 11197      6E646576 
 11197      5F646174 
 11197      615F7400 
 11198              	.LASF154:
 11199 2124 4C565F53 		.ascii	"LV_STYLE_BORDER_POST\000"
 11199      54594C45 
 11199      5F424F52 
ARM GAS  C:\Users\haske\AppData\Local\Temp\ccHGZgRG.s 			page 239


 11199      4445525F 
 11199      504F5354 
 11200              	.LASF342:
 11201 2139 64726177 		.ascii	"draw_ctx\000"
 11201      5F637478 
 11201      00
 11202              	.LASF295:
 11203 2142 64726177 		.ascii	"draw_img\000"
 11203      5F696D67 
 11203      00
 11204              	.LASF111:
 11205 214b 6C765F67 		.ascii	"lv_gradient_stop_t\000"
 11205      72616469 
 11205      656E745F 
 11205      73746F70 
 11205      5F7400
 11206              	.LASF125:
 11207 215e 4C565F53 		.ascii	"LV_STYLE_Y\000"
 11207      54594C45 
 11207      5F5900
 11208              	.LASF171:
 11209 2169 4C565F53 		.ascii	"LV_STYLE_LINE_ROUNDED\000"
 11209      54594C45 
 11209      5F4C494E 
 11209      455F524F 
 11209      554E4445 
 11210              	.LASF630:
 11211 217f 6C765F6F 		.ascii	"lv_obj_allocate_spec_attr\000"
 11211      626A5F61 
 11211      6C6C6F63 
 11211      6174655F 
 11211      73706563 
 11212              	.LASF298:
 11213 2199 64726177 		.ascii	"draw_polygon\000"
 11213      5F706F6C 
 11213      79676F6E 
 11213      00
 11214              	.LASF541:
 11215 21a6 4C565F45 		.ascii	"LV_EVENT_STYLE_CHANGED\000"
 11215      56454E54 
 11215      5F535459 
 11215      4C455F43 
 11215      48414E47 
 11216              	.LASF530:
 11217 21bd 4C565F45 		.ascii	"LV_EVENT_READY\000"
 11217      56454E54 
 11217      5F524541 
 11217      445900
 11218              	.LASF245:
 11219 21cc 73656C5F 		.ascii	"sel_start\000"
 11219      73746172 
 11219      7400
 11220              	.LASF523:
 11221 21d6 4C565F45 		.ascii	"LV_EVENT_DRAW_POST\000"
 11221      56454E54 
 11221      5F445241 
 11221      575F504F 
ARM GAS  C:\Users\haske\AppData\Local\Temp\ccHGZgRG.s 			page 240


 11221      535400
 11222              	.LASF22:
 11223 21e9 75696E74 		.ascii	"uint32_t\000"
 11223      33325F74 
 11223      00
 11224              	.LASF631:
 11225 21f2 5F6C765F 		.ascii	"_lv_ll_ins_tail\000"
 11225      6C6C5F69 
 11225      6E735F74 
 11225      61696C00 
 11226              	.LASF450:
 11227 2202 4C565F4F 		.ascii	"LV_OBJ_FLAG_SCROLL_CHAIN_HOR\000"
 11227      424A5F46 
 11227      4C41475F 
 11227      5343524F 
 11227      4C4C5F43 
 11228              	.LASF563:
 11229 221f 696E6465 		.ascii	"indev_encoder\000"
 11229      765F656E 
 11229      636F6465 
 11229      7200
 11230              	.LASF564:
 11231 222d 696E6465 		.ascii	"indev_group\000"
 11231      765F6772 
 11231      6F757000 
 11232              	.LASF471:
 11233 2239 6C765F6F 		.ascii	"lv_obj_flag_t\000"
 11233      626A5F66 
 11233      6C61675F 
 11233      7400
 11234              	.LASF540:
 11235 2247 4C565F45 		.ascii	"LV_EVENT_SIZE_CHANGED\000"
 11235      56454E54 
 11235      5F53495A 
 11235      455F4348 
 11235      414E4745 
 11236              	.LASF238:
 11237 225d 73686164 		.ascii	"shadow_width\000"
 11237      6F775F77 
 11237      69647468 
 11237      00
 11238              	.LASF416:
 11239 226a 64697361 		.ascii	"disabled\000"
 11239      626C6564 
 11239      00
 11240              	.LASF73:
 11241 2273 67726565 		.ascii	"green\000"
 11241      6E00
 11242              	.LASF100:
 11243 2279 6C765F66 		.ascii	"lv_font_t\000"
 11243      6F6E745F 
 11243      7400
 11244              	.LASF542:
 11245 2283 4C565F45 		.ascii	"LV_EVENT_LAYOUT_CHANGED\000"
 11245      56454E54 
 11245      5F4C4159 
 11245      4F55545F 
ARM GAS  C:\Users\haske\AppData\Local\Temp\ccHGZgRG.s 			page 241


 11245      4348414E 
 11246              	.LASF469:
 11247 229b 4C565F4F 		.ascii	"LV_OBJ_FLAG_USER_3\000"
 11247      424A5F46 
 11247      4C41475F 
 11247      55534552 
 11247      5F3300
 11248              	.LASF388:
 11249 22ae 67657374 		.ascii	"gesture_min_velocity\000"
 11249      7572655F 
 11249      6D696E5F 
 11249      76656C6F 
 11249      63697479 
 11250              	.LASF114:
 11251 22c3 64697468 		.ascii	"dither\000"
 11251      657200
 11252              	.LASF11:
 11253 22ca 73686F72 		.ascii	"short unsigned int\000"
 11253      7420756E 
 11253      7369676E 
 11253      65642069 
 11253      6E7400
 11254              	.LASF512:
 11255 22dd 4C565F45 		.ascii	"LV_EVENT_KEY\000"
 11255      56454E54 
 11255      5F4B4559 
 11255      00
 11256              	.LASF78:
 11257 22ea 6C765F63 		.ascii	"lv_coord_t\000"
 11257      6F6F7264 
 11257      5F7400
 11258              	.LASF366:
 11259 22f5 4C565F49 		.ascii	"LV_INDEV_TYPE_NONE\000"
 11259      4E444556 
 11259      5F545950 
 11259      455F4E4F 
 11259      4E4500
 11260              	.LASF332:
 11261 2308 666C7573 		.ascii	"flush_cb\000"
 11261      685F6362 
 11261      00
 11262              	.LASF156:
 11263 2311 4C565F53 		.ascii	"LV_STYLE_OUTLINE_COLOR\000"
 11263      54594C45 
 11263      5F4F5554 
 11263      4C494E45 
 11263      5F434F4C 
 11264              	.LASF36:
 11265 2328 75736572 		.ascii	"user_data\000"
 11265      5F646174 
 11265      6100
 11266              	.LASF502:
 11267 2332 4C565F45 		.ascii	"LV_EVENT_PRESS_LOST\000"
 11267      56454E54 
 11267      5F505245 
 11267      53535F4C 
 11267      4F535400 
ARM GAS  C:\Users\haske\AppData\Local\Temp\ccHGZgRG.s 			page 242


 11268              	.LASF560:
 11269 2346 5F6C765F 		.ascii	"_lv_event_dsc_t\000"
 11269      6576656E 
 11269      745F6473 
 11269      635F7400 
 11270              	.LASF162:
 11271 2356 4C565F53 		.ascii	"LV_STYLE_SHADOW_SPREAD\000"
 11271      54594C45 
 11271      5F534841 
 11271      444F575F 
 11271      53505245 
 11272              	.LASF91:
 11273 236d 6765745F 		.ascii	"get_glyph_dsc\000"
 11273      676C7970 
 11273      685F6473 
 11273      6300
 11274              	.LASF12:
 11275 237b 5F5F696E 		.ascii	"__int32_t\000"
 11275      7433325F 
 11275      7400
 11276              	.LASF622:
 11277 2385 5F6C765F 		.ascii	"_lv_ll_get_head\000"
 11277      6C6C5F67 
 11277      65745F68 
 11277      65616400 
 11278              	.LASF475:
 11279 2395 73656C65 		.ascii	"selector\000"
 11279      63746F72 
 11279      00
 11280              	.LASF616:
 11281 239e 6C765F6F 		.ascii	"lv_obj_has_flag\000"
 11281      626A5F68 
 11281      61735F66 
 11281      6C616700 
 11282              	.LASF513:
 11283 23ae 4C565F45 		.ascii	"LV_EVENT_FOCUSED\000"
 11283      56454E54 
 11283      5F464F43 
 11283      55534544 
 11283      00
 11284              	.LASF107:
 11285 23bf 6C765F67 		.ascii	"lv_grad_dir_t\000"
 11285      7261645F 
 11285      6469725F 
 11285      7400
 11286              	.LASF395:
 11287 23cd 6C617374 		.ascii	"last_raw_point\000"
 11287      5F726177 
 11287      5F706F69 
 11287      6E7400
 11288              	.LASF39:
 11289 23dc 7265666F 		.ascii	"refocus_policy\000"
 11289      6375735F 
 11289      706F6C69 
 11289      637900
 11290              	.LASF319:
 11291 23eb 5F6C765F 		.ascii	"_lv_disp_drv_t\000"
ARM GAS  C:\Users\haske\AppData\Local\Temp\ccHGZgRG.s 			page 243


 11291      64697370 
 11291      5F647276 
 11291      5F7400
 11292              	.LASF414:
 11293 23fa 6C6F6E67 		.ascii	"long_pr_sent\000"
 11293      5F70725F 
 11293      73656E74 
 11293      00
 11294              	.LASF632:
 11295 2407 6C765F6F 		.ascii	"lv_obj_has_state\000"
 11295      626A5F68 
 11295      61735F73 
 11295      74617465 
 11295      00
 11296              	.LASF429:
 11297 2418 4C565F53 		.ascii	"LV_STATE_FOCUSED\000"
 11297      54415445 
 11297      5F464F43 
 11297      55534544 
 11297      00
 11298              	.LASF485:
 11299 2429 68656967 		.ascii	"height_def\000"
 11299      68745F64 
 11299      656600
 11300              	.LASF613:
 11301 2434 6C765F69 		.ascii	"lv_indev_get_type\000"
 11301      6E646576 
 11301      5F676574 
 11301      5F747970 
 11301      6500
 11302              	.LASF536:
 11303 2446 4C565F45 		.ascii	"LV_EVENT_SCREEN_UNLOAD_START\000"
 11303      56454E54 
 11303      5F534352 
 11303      45454E5F 
 11303      554E4C4F 
 11304              	.LASF338:
 11305 2463 636C6561 		.ascii	"clean_dcache_cb\000"
 11305      6E5F6463 
 11305      61636865 
 11305      5F636200 
 11306              	.LASF389:
 11307 2473 67657374 		.ascii	"gesture_limit\000"
 11307      7572655F 
 11307      6C696D69 
 11307      7400
 11308              	.LASF247:
 11309 2481 73656C5F 		.ascii	"sel_color\000"
 11309      636F6C6F 
 11309      7200
 11310              	.LASF619:
 11311 248b 6C765F6F 		.ascii	"lv_obj_invalidate\000"
 11311      626A5F69 
 11311      6E76616C 
 11311      69646174 
 11311      6500
 11312              	.LASF580:
ARM GAS  C:\Users\haske\AppData\Local\Temp\ccHGZgRG.s 			page 244


 11313 249d 6C765F67 		.ascii	"lv_group_focus_next\000"
 11313      726F7570 
 11313      5F666F63 
 11313      75735F6E 
 11313      65787400 
 11314              	.LASF587:
 11315 24b1 6E657874 		.ascii	"next\000"
 11315      00
 11316              	.LASF449:
 11317 24b6 4C565F4F 		.ascii	"LV_OBJ_FLAG_SCROLL_ONE\000"
 11317      424A5F46 
 11317      4C41475F 
 11317      5343524F 
 11317      4C4C5F4F 
 11318              	.LASF223:
 11319 24cd 62675F69 		.ascii	"bg_img_symbol_font\000"
 11319      6D675F73 
 11319      796D626F 
 11319      6C5F666F 
 11319      6E7400
 11320              	.LASF240:
 11321 24e0 73686164 		.ascii	"shadow_ofs_y\000"
 11321      6F775F6F 
 11321      66735F79 
 11321      00
 11322              	.LASF581:
 11323 24ed 6C765F67 		.ascii	"lv_group_focus_prev\000"
 11323      726F7570 
 11323      5F666F63 
 11323      75735F70 
 11323      72657600 
 11324              	.LASF494:
 11325 2501 70726576 		.ascii	"prev\000"
 11325      00
 11326              	.LASF115:
 11327 2506 6C765F67 		.ascii	"lv_grad_dsc_t\000"
 11327      7261645F 
 11327      6473635F 
 11327      7400
 11328              	.LASF24:
 11329 2514 6E5F7369 		.ascii	"n_size\000"
 11329      7A6500
 11330              	.LASF577:
 11331 251b 6C765F67 		.ascii	"lv_group_del\000"
 11331      726F7570 
 11331      5F64656C 
 11331      00
 11332              	.LASF423:
 11333 2528 63757273 		.ascii	"cursor\000"
 11333      6F7200
 11334              	.LASF43:
 11335 252f 5F6C765F 		.ascii	"_lv_group_t\000"
 11335      67726F75 
 11335      705F7400 
 11336              	.LASF143:
 11337 253b 4C565F53 		.ascii	"LV_STYLE_BG_GRAD\000"
 11337      54594C45 
ARM GAS  C:\Users\haske\AppData\Local\Temp\ccHGZgRG.s 			page 245


 11337      5F42475F 
 11337      47524144 
 11337      00
 11338              	.LASF507:
 11339 254c 4C565F45 		.ascii	"LV_EVENT_RELEASED\000"
 11339      56454E54 
 11339      5F52454C 
 11339      45415345 
 11339      4400
 11340              	.LASF89:
 11341 255e 69735F70 		.ascii	"is_placeholder\000"
 11341      6C616365 
 11341      686F6C64 
 11341      657200
 11342              	.LASF31:
 11343 256d 6C765F67 		.ascii	"lv_group_focus_cb_t\000"
 11343      726F7570 
 11343      5F666F63 
 11343      75735F63 
 11343      625F7400 
 11344              	.LASF628:
 11345 2581 6C765F6F 		.ascii	"lv_obj_get_group\000"
 11345      626A5F67 
 11345      65745F67 
 11345      726F7570 
 11345      00
 11346              	.LASF396:
 11347 2592 76656374 		.ascii	"vect\000"
 11347      00
 11348              	.LASF33:
 11349 2597 6F626A5F 		.ascii	"obj_focus\000"
 11349      666F6375 
 11349      7300
 11350              	.LASF182:
 11351 25a1 4C565F53 		.ascii	"LV_STYLE_TEXT_LETTER_SPACE\000"
 11351      54594C45 
 11351      5F544558 
 11351      545F4C45 
 11351      54544552 
 11352              	.LASF562:
 11353 25bc 6C765F6F 		.ascii	"lv_obj_t\000"
 11353      626A5F74 
 11353      00
 11354              	.LASF557:
 11355 25c5 6576656E 		.ascii	"event_dsc_cnt\000"
 11355      745F6473 
 11355      635F636E 
 11355      7400
 11356              		.ident	"GCC: (GNU Tools for ARM Embedded Processors) 5.4.1 20160609 (release) [ARM/embedded-5-bran
