ARM GAS  C:\Users\haske\AppData\Local\Temp\ccHGZgRG.s 			page 1


   1              		.syntax unified
   2              		.cpu cortex-m0plus
   3              		.fpu softvfp
   4              		.eabi_attribute 20, 1
   5              		.eabi_attribute 21, 1
   6              		.eabi_attribute 23, 3
   7              		.eabi_attribute 24, 1
   8              		.eabi_attribute 25, 1
   9              		.eabi_attribute 26, 1
  10              		.eabi_attribute 30, 1
  11              		.eabi_attribute 34, 0
  12              		.eabi_attribute 18, 4
  13              		.thumb
  14              		.syntax unified
  15              		.file	"lv_group.c"
  16              		.text
  17              	.Ltext0:
  18              		.cfi_sections	.debug_frame
  19              		.section	.text.get_indev,"ax",%progbits
  20              		.align	2
  21              		.code	16
  22              		.thumb_func
  23              		.type	get_indev, %function
  24              	get_indev:
  25              	.LFB186:
  26              		.file 1 "..\\..\\..\\arduinoLCD\\test\\Pain Drain\\libraries\\lvgl\\src\\core\\lv_group.c"
   1:..\..\..\arduinoLCD\test\Pain Drain\libraries\lvgl\src\core/lv_group.c **** /**
   2:..\..\..\arduinoLCD\test\Pain Drain\libraries\lvgl\src\core/lv_group.c ****  * @file lv_group.c
   3:..\..\..\arduinoLCD\test\Pain Drain\libraries\lvgl\src\core/lv_group.c ****  *
   4:..\..\..\arduinoLCD\test\Pain Drain\libraries\lvgl\src\core/lv_group.c ****  */
   5:..\..\..\arduinoLCD\test\Pain Drain\libraries\lvgl\src\core/lv_group.c **** 
   6:..\..\..\arduinoLCD\test\Pain Drain\libraries\lvgl\src\core/lv_group.c **** /*********************
   7:..\..\..\arduinoLCD\test\Pain Drain\libraries\lvgl\src\core/lv_group.c ****  *      INCLUDES
   8:..\..\..\arduinoLCD\test\Pain Drain\libraries\lvgl\src\core/lv_group.c ****  *********************/
   9:..\..\..\arduinoLCD\test\Pain Drain\libraries\lvgl\src\core/lv_group.c **** #include <stddef.h>
  10:..\..\..\arduinoLCD\test\Pain Drain\libraries\lvgl\src\core/lv_group.c **** 
  11:..\..\..\arduinoLCD\test\Pain Drain\libraries\lvgl\src\core/lv_group.c **** #include "lv_group.h"
  12:..\..\..\arduinoLCD\test\Pain Drain\libraries\lvgl\src\core/lv_group.c **** #include "../misc/lv_gc.h"
  13:..\..\..\arduinoLCD\test\Pain Drain\libraries\lvgl\src\core/lv_group.c **** #include "../core/lv_obj.h"
  14:..\..\..\arduinoLCD\test\Pain Drain\libraries\lvgl\src\core/lv_group.c **** #include "../core/lv_indev.h"
  15:..\..\..\arduinoLCD\test\Pain Drain\libraries\lvgl\src\core/lv_group.c **** 
  16:..\..\..\arduinoLCD\test\Pain Drain\libraries\lvgl\src\core/lv_group.c **** /*********************
  17:..\..\..\arduinoLCD\test\Pain Drain\libraries\lvgl\src\core/lv_group.c ****  *      DEFINES
  18:..\..\..\arduinoLCD\test\Pain Drain\libraries\lvgl\src\core/lv_group.c ****  *********************/
  19:..\..\..\arduinoLCD\test\Pain Drain\libraries\lvgl\src\core/lv_group.c **** 
  20:..\..\..\arduinoLCD\test\Pain Drain\libraries\lvgl\src\core/lv_group.c **** /**********************
  21:..\..\..\arduinoLCD\test\Pain Drain\libraries\lvgl\src\core/lv_group.c ****  *      TYPEDEFS
  22:..\..\..\arduinoLCD\test\Pain Drain\libraries\lvgl\src\core/lv_group.c ****  **********************/
  23:..\..\..\arduinoLCD\test\Pain Drain\libraries\lvgl\src\core/lv_group.c **** 
  24:..\..\..\arduinoLCD\test\Pain Drain\libraries\lvgl\src\core/lv_group.c **** /**********************
  25:..\..\..\arduinoLCD\test\Pain Drain\libraries\lvgl\src\core/lv_group.c ****  *  STATIC PROTOTYPES
  26:..\..\..\arduinoLCD\test\Pain Drain\libraries\lvgl\src\core/lv_group.c ****  **********************/
  27:..\..\..\arduinoLCD\test\Pain Drain\libraries\lvgl\src\core/lv_group.c **** static bool focus_next_core(lv_group_t * group, void * (*begin)(const lv_ll_t *),
  28:..\..\..\arduinoLCD\test\Pain Drain\libraries\lvgl\src\core/lv_group.c ****                             void * (*move)(const lv_ll_t *, const void *));
  29:..\..\..\arduinoLCD\test\Pain Drain\libraries\lvgl\src\core/lv_group.c **** static void lv_group_refocus(lv_group_t * g);
  30:..\..\..\arduinoLCD\test\Pain Drain\libraries\lvgl\src\core/lv_group.c **** static lv_indev_t * get_indev(const lv_group_t * g);
  31:..\..\..\arduinoLCD\test\Pain Drain\libraries\lvgl\src\core/lv_group.c **** 
ARM GAS  C:\Users\haske\AppData\Local\Temp\ccHGZgRG.s 			page 2


  32:..\..\..\arduinoLCD\test\Pain Drain\libraries\lvgl\src\core/lv_group.c **** /**********************
  33:..\..\..\arduinoLCD\test\Pain Drain\libraries\lvgl\src\core/lv_group.c ****  *  STATIC VARIABLES
  34:..\..\..\arduinoLCD\test\Pain Drain\libraries\lvgl\src\core/lv_group.c ****  **********************/
  35:..\..\..\arduinoLCD\test\Pain Drain\libraries\lvgl\src\core/lv_group.c **** static lv_group_t * default_group;
  36:..\..\..\arduinoLCD\test\Pain Drain\libraries\lvgl\src\core/lv_group.c **** 
  37:..\..\..\arduinoLCD\test\Pain Drain\libraries\lvgl\src\core/lv_group.c **** /**********************
  38:..\..\..\arduinoLCD\test\Pain Drain\libraries\lvgl\src\core/lv_group.c ****  *      MACROS
  39:..\..\..\arduinoLCD\test\Pain Drain\libraries\lvgl\src\core/lv_group.c ****  **********************/
  40:..\..\..\arduinoLCD\test\Pain Drain\libraries\lvgl\src\core/lv_group.c **** 
  41:..\..\..\arduinoLCD\test\Pain Drain\libraries\lvgl\src\core/lv_group.c **** /**********************
  42:..\..\..\arduinoLCD\test\Pain Drain\libraries\lvgl\src\core/lv_group.c ****  *   GLOBAL FUNCTIONS
  43:..\..\..\arduinoLCD\test\Pain Drain\libraries\lvgl\src\core/lv_group.c ****  **********************/
  44:..\..\..\arduinoLCD\test\Pain Drain\libraries\lvgl\src\core/lv_group.c **** 
  45:..\..\..\arduinoLCD\test\Pain Drain\libraries\lvgl\src\core/lv_group.c **** void _lv_group_init(void)
  46:..\..\..\arduinoLCD\test\Pain Drain\libraries\lvgl\src\core/lv_group.c **** {
  47:..\..\..\arduinoLCD\test\Pain Drain\libraries\lvgl\src\core/lv_group.c ****     _lv_ll_init(&LV_GC_ROOT(_lv_group_ll), sizeof(lv_group_t));
  48:..\..\..\arduinoLCD\test\Pain Drain\libraries\lvgl\src\core/lv_group.c **** }
  49:..\..\..\arduinoLCD\test\Pain Drain\libraries\lvgl\src\core/lv_group.c **** 
  50:..\..\..\arduinoLCD\test\Pain Drain\libraries\lvgl\src\core/lv_group.c **** lv_group_t * lv_group_create(void)
  51:..\..\..\arduinoLCD\test\Pain Drain\libraries\lvgl\src\core/lv_group.c **** {
  52:..\..\..\arduinoLCD\test\Pain Drain\libraries\lvgl\src\core/lv_group.c ****     lv_group_t * group = _lv_ll_ins_head(&LV_GC_ROOT(_lv_group_ll));
  53:..\..\..\arduinoLCD\test\Pain Drain\libraries\lvgl\src\core/lv_group.c ****     LV_ASSERT_MALLOC(group);
  54:..\..\..\arduinoLCD\test\Pain Drain\libraries\lvgl\src\core/lv_group.c ****     if(group == NULL) return NULL;
  55:..\..\..\arduinoLCD\test\Pain Drain\libraries\lvgl\src\core/lv_group.c ****     _lv_ll_init(&group->obj_ll, sizeof(lv_obj_t *));
  56:..\..\..\arduinoLCD\test\Pain Drain\libraries\lvgl\src\core/lv_group.c **** 
  57:..\..\..\arduinoLCD\test\Pain Drain\libraries\lvgl\src\core/lv_group.c ****     group->obj_focus      = NULL;
  58:..\..\..\arduinoLCD\test\Pain Drain\libraries\lvgl\src\core/lv_group.c ****     group->frozen         = 0;
  59:..\..\..\arduinoLCD\test\Pain Drain\libraries\lvgl\src\core/lv_group.c ****     group->focus_cb       = NULL;
  60:..\..\..\arduinoLCD\test\Pain Drain\libraries\lvgl\src\core/lv_group.c ****     group->edge_cb        = NULL;
  61:..\..\..\arduinoLCD\test\Pain Drain\libraries\lvgl\src\core/lv_group.c ****     group->editing        = 0;
  62:..\..\..\arduinoLCD\test\Pain Drain\libraries\lvgl\src\core/lv_group.c ****     group->refocus_policy = LV_GROUP_REFOCUS_POLICY_PREV;
  63:..\..\..\arduinoLCD\test\Pain Drain\libraries\lvgl\src\core/lv_group.c ****     group->wrap           = 1;
  64:..\..\..\arduinoLCD\test\Pain Drain\libraries\lvgl\src\core/lv_group.c **** 
  65:..\..\..\arduinoLCD\test\Pain Drain\libraries\lvgl\src\core/lv_group.c **** #if LV_USE_USER_DATA
  66:..\..\..\arduinoLCD\test\Pain Drain\libraries\lvgl\src\core/lv_group.c ****     group->user_data = NULL;
  67:..\..\..\arduinoLCD\test\Pain Drain\libraries\lvgl\src\core/lv_group.c **** #endif
  68:..\..\..\arduinoLCD\test\Pain Drain\libraries\lvgl\src\core/lv_group.c **** 
  69:..\..\..\arduinoLCD\test\Pain Drain\libraries\lvgl\src\core/lv_group.c ****     return group;
  70:..\..\..\arduinoLCD\test\Pain Drain\libraries\lvgl\src\core/lv_group.c **** }
  71:..\..\..\arduinoLCD\test\Pain Drain\libraries\lvgl\src\core/lv_group.c **** 
  72:..\..\..\arduinoLCD\test\Pain Drain\libraries\lvgl\src\core/lv_group.c **** void lv_group_del(lv_group_t * group)
  73:..\..\..\arduinoLCD\test\Pain Drain\libraries\lvgl\src\core/lv_group.c **** {
  74:..\..\..\arduinoLCD\test\Pain Drain\libraries\lvgl\src\core/lv_group.c ****     /*Defocus the currently focused object*/
  75:..\..\..\arduinoLCD\test\Pain Drain\libraries\lvgl\src\core/lv_group.c ****     if(group->obj_focus != NULL) {
  76:..\..\..\arduinoLCD\test\Pain Drain\libraries\lvgl\src\core/lv_group.c ****         lv_event_send(*group->obj_focus, LV_EVENT_DEFOCUSED, get_indev(group));
  77:..\..\..\arduinoLCD\test\Pain Drain\libraries\lvgl\src\core/lv_group.c ****         lv_obj_invalidate(*group->obj_focus);
  78:..\..\..\arduinoLCD\test\Pain Drain\libraries\lvgl\src\core/lv_group.c ****     }
  79:..\..\..\arduinoLCD\test\Pain Drain\libraries\lvgl\src\core/lv_group.c **** 
  80:..\..\..\arduinoLCD\test\Pain Drain\libraries\lvgl\src\core/lv_group.c ****     /*Remove the objects from the group*/
  81:..\..\..\arduinoLCD\test\Pain Drain\libraries\lvgl\src\core/lv_group.c ****     lv_obj_t ** obj;
  82:..\..\..\arduinoLCD\test\Pain Drain\libraries\lvgl\src\core/lv_group.c ****     _LV_LL_READ(&group->obj_ll, obj) {
  83:..\..\..\arduinoLCD\test\Pain Drain\libraries\lvgl\src\core/lv_group.c ****         if((*obj)->spec_attr)(*obj)->spec_attr->group_p = NULL;
  84:..\..\..\arduinoLCD\test\Pain Drain\libraries\lvgl\src\core/lv_group.c ****     }
  85:..\..\..\arduinoLCD\test\Pain Drain\libraries\lvgl\src\core/lv_group.c **** 
  86:..\..\..\arduinoLCD\test\Pain Drain\libraries\lvgl\src\core/lv_group.c ****     /*Remove the group from any indev devices */
  87:..\..\..\arduinoLCD\test\Pain Drain\libraries\lvgl\src\core/lv_group.c ****     lv_indev_t * indev = lv_indev_get_next(NULL);
  88:..\..\..\arduinoLCD\test\Pain Drain\libraries\lvgl\src\core/lv_group.c ****     while(indev) {
ARM GAS  C:\Users\haske\AppData\Local\Temp\ccHGZgRG.s 			page 3


  89:..\..\..\arduinoLCD\test\Pain Drain\libraries\lvgl\src\core/lv_group.c ****         if(indev->group == group) {
  90:..\..\..\arduinoLCD\test\Pain Drain\libraries\lvgl\src\core/lv_group.c ****             lv_indev_set_group(indev, NULL);
  91:..\..\..\arduinoLCD\test\Pain Drain\libraries\lvgl\src\core/lv_group.c ****         }
  92:..\..\..\arduinoLCD\test\Pain Drain\libraries\lvgl\src\core/lv_group.c ****         indev = lv_indev_get_next(indev);
  93:..\..\..\arduinoLCD\test\Pain Drain\libraries\lvgl\src\core/lv_group.c ****     }
  94:..\..\..\arduinoLCD\test\Pain Drain\libraries\lvgl\src\core/lv_group.c **** 
  95:..\..\..\arduinoLCD\test\Pain Drain\libraries\lvgl\src\core/lv_group.c ****     if(default_group == group) default_group = NULL;
  96:..\..\..\arduinoLCD\test\Pain Drain\libraries\lvgl\src\core/lv_group.c ****     _lv_ll_clear(&(group->obj_ll));
  97:..\..\..\arduinoLCD\test\Pain Drain\libraries\lvgl\src\core/lv_group.c ****     _lv_ll_remove(&LV_GC_ROOT(_lv_group_ll), group);
  98:..\..\..\arduinoLCD\test\Pain Drain\libraries\lvgl\src\core/lv_group.c ****     lv_mem_free(group);
  99:..\..\..\arduinoLCD\test\Pain Drain\libraries\lvgl\src\core/lv_group.c **** }
 100:..\..\..\arduinoLCD\test\Pain Drain\libraries\lvgl\src\core/lv_group.c **** 
 101:..\..\..\arduinoLCD\test\Pain Drain\libraries\lvgl\src\core/lv_group.c **** void lv_group_set_default(lv_group_t * group)
 102:..\..\..\arduinoLCD\test\Pain Drain\libraries\lvgl\src\core/lv_group.c **** {
 103:..\..\..\arduinoLCD\test\Pain Drain\libraries\lvgl\src\core/lv_group.c ****     default_group = group;
 104:..\..\..\arduinoLCD\test\Pain Drain\libraries\lvgl\src\core/lv_group.c **** }
 105:..\..\..\arduinoLCD\test\Pain Drain\libraries\lvgl\src\core/lv_group.c **** 
 106:..\..\..\arduinoLCD\test\Pain Drain\libraries\lvgl\src\core/lv_group.c **** lv_group_t * lv_group_get_default(void)
 107:..\..\..\arduinoLCD\test\Pain Drain\libraries\lvgl\src\core/lv_group.c **** {
 108:..\..\..\arduinoLCD\test\Pain Drain\libraries\lvgl\src\core/lv_group.c ****     return default_group;
 109:..\..\..\arduinoLCD\test\Pain Drain\libraries\lvgl\src\core/lv_group.c **** }
 110:..\..\..\arduinoLCD\test\Pain Drain\libraries\lvgl\src\core/lv_group.c **** 
 111:..\..\..\arduinoLCD\test\Pain Drain\libraries\lvgl\src\core/lv_group.c **** void lv_group_add_obj(lv_group_t * group, lv_obj_t * obj)
 112:..\..\..\arduinoLCD\test\Pain Drain\libraries\lvgl\src\core/lv_group.c **** {
 113:..\..\..\arduinoLCD\test\Pain Drain\libraries\lvgl\src\core/lv_group.c ****     if(group == NULL) return;
 114:..\..\..\arduinoLCD\test\Pain Drain\libraries\lvgl\src\core/lv_group.c **** 
 115:..\..\..\arduinoLCD\test\Pain Drain\libraries\lvgl\src\core/lv_group.c ****     LV_LOG_TRACE("begin");
 116:..\..\..\arduinoLCD\test\Pain Drain\libraries\lvgl\src\core/lv_group.c **** 
 117:..\..\..\arduinoLCD\test\Pain Drain\libraries\lvgl\src\core/lv_group.c ****     /*Be sure the object is removed from its current group*/
 118:..\..\..\arduinoLCD\test\Pain Drain\libraries\lvgl\src\core/lv_group.c ****     lv_group_remove_obj(obj);
 119:..\..\..\arduinoLCD\test\Pain Drain\libraries\lvgl\src\core/lv_group.c **** 
 120:..\..\..\arduinoLCD\test\Pain Drain\libraries\lvgl\src\core/lv_group.c ****     /*Do not add the object twice*/
 121:..\..\..\arduinoLCD\test\Pain Drain\libraries\lvgl\src\core/lv_group.c ****     lv_obj_t ** obj_i;
 122:..\..\..\arduinoLCD\test\Pain Drain\libraries\lvgl\src\core/lv_group.c ****     _LV_LL_READ(&group->obj_ll, obj_i) {
 123:..\..\..\arduinoLCD\test\Pain Drain\libraries\lvgl\src\core/lv_group.c ****         if((*obj_i) == obj) {
 124:..\..\..\arduinoLCD\test\Pain Drain\libraries\lvgl\src\core/lv_group.c ****             LV_LOG_INFO("the object is already added to this group");
 125:..\..\..\arduinoLCD\test\Pain Drain\libraries\lvgl\src\core/lv_group.c ****             return;
 126:..\..\..\arduinoLCD\test\Pain Drain\libraries\lvgl\src\core/lv_group.c ****         }
 127:..\..\..\arduinoLCD\test\Pain Drain\libraries\lvgl\src\core/lv_group.c ****     }
 128:..\..\..\arduinoLCD\test\Pain Drain\libraries\lvgl\src\core/lv_group.c **** 
 129:..\..\..\arduinoLCD\test\Pain Drain\libraries\lvgl\src\core/lv_group.c ****     /*If the object is already in a group and focused then refocus it*/
 130:..\..\..\arduinoLCD\test\Pain Drain\libraries\lvgl\src\core/lv_group.c ****     lv_group_t * group_cur = lv_obj_get_group(obj);
 131:..\..\..\arduinoLCD\test\Pain Drain\libraries\lvgl\src\core/lv_group.c ****     if(group_cur) {
 132:..\..\..\arduinoLCD\test\Pain Drain\libraries\lvgl\src\core/lv_group.c ****         if(obj->spec_attr->group_p && *(obj->spec_attr->group_p->obj_focus) == obj) {
 133:..\..\..\arduinoLCD\test\Pain Drain\libraries\lvgl\src\core/lv_group.c ****             lv_group_refocus(group_cur);
 134:..\..\..\arduinoLCD\test\Pain Drain\libraries\lvgl\src\core/lv_group.c **** 
 135:..\..\..\arduinoLCD\test\Pain Drain\libraries\lvgl\src\core/lv_group.c ****             LV_LOG_INFO("changing object's group");
 136:..\..\..\arduinoLCD\test\Pain Drain\libraries\lvgl\src\core/lv_group.c ****         }
 137:..\..\..\arduinoLCD\test\Pain Drain\libraries\lvgl\src\core/lv_group.c ****     }
 138:..\..\..\arduinoLCD\test\Pain Drain\libraries\lvgl\src\core/lv_group.c **** 
 139:..\..\..\arduinoLCD\test\Pain Drain\libraries\lvgl\src\core/lv_group.c ****     if(obj->spec_attr == NULL) lv_obj_allocate_spec_attr(obj);
 140:..\..\..\arduinoLCD\test\Pain Drain\libraries\lvgl\src\core/lv_group.c ****     obj->spec_attr->group_p = group;
 141:..\..\..\arduinoLCD\test\Pain Drain\libraries\lvgl\src\core/lv_group.c **** 
 142:..\..\..\arduinoLCD\test\Pain Drain\libraries\lvgl\src\core/lv_group.c ****     lv_obj_t ** next = _lv_ll_ins_tail(&group->obj_ll);
 143:..\..\..\arduinoLCD\test\Pain Drain\libraries\lvgl\src\core/lv_group.c ****     LV_ASSERT_MALLOC(next);
 144:..\..\..\arduinoLCD\test\Pain Drain\libraries\lvgl\src\core/lv_group.c ****     if(next == NULL) return;
 145:..\..\..\arduinoLCD\test\Pain Drain\libraries\lvgl\src\core/lv_group.c ****     *next = obj;
ARM GAS  C:\Users\haske\AppData\Local\Temp\ccHGZgRG.s 			page 4


 146:..\..\..\arduinoLCD\test\Pain Drain\libraries\lvgl\src\core/lv_group.c **** 
 147:..\..\..\arduinoLCD\test\Pain Drain\libraries\lvgl\src\core/lv_group.c ****     /*If the head and the tail is equal then there is only one object in the linked list.
 148:..\..\..\arduinoLCD\test\Pain Drain\libraries\lvgl\src\core/lv_group.c ****      *In this case automatically activate it*/
 149:..\..\..\arduinoLCD\test\Pain Drain\libraries\lvgl\src\core/lv_group.c ****     if(_lv_ll_get_head(&group->obj_ll) == next) {
 150:..\..\..\arduinoLCD\test\Pain Drain\libraries\lvgl\src\core/lv_group.c ****         lv_group_refocus(group);
 151:..\..\..\arduinoLCD\test\Pain Drain\libraries\lvgl\src\core/lv_group.c ****     }
 152:..\..\..\arduinoLCD\test\Pain Drain\libraries\lvgl\src\core/lv_group.c **** 
 153:..\..\..\arduinoLCD\test\Pain Drain\libraries\lvgl\src\core/lv_group.c ****     LV_LOG_TRACE("finished");
 154:..\..\..\arduinoLCD\test\Pain Drain\libraries\lvgl\src\core/lv_group.c **** }
 155:..\..\..\arduinoLCD\test\Pain Drain\libraries\lvgl\src\core/lv_group.c **** 
 156:..\..\..\arduinoLCD\test\Pain Drain\libraries\lvgl\src\core/lv_group.c **** void lv_group_swap_obj(lv_obj_t * obj1, lv_obj_t * obj2)
 157:..\..\..\arduinoLCD\test\Pain Drain\libraries\lvgl\src\core/lv_group.c **** {
 158:..\..\..\arduinoLCD\test\Pain Drain\libraries\lvgl\src\core/lv_group.c ****     lv_group_t * g1 = lv_obj_get_group(obj1);
 159:..\..\..\arduinoLCD\test\Pain Drain\libraries\lvgl\src\core/lv_group.c ****     lv_group_t * g2 = lv_obj_get_group(obj2);
 160:..\..\..\arduinoLCD\test\Pain Drain\libraries\lvgl\src\core/lv_group.c ****     if(g1 != g2) return;
 161:..\..\..\arduinoLCD\test\Pain Drain\libraries\lvgl\src\core/lv_group.c ****     if(g1 == NULL) return;
 162:..\..\..\arduinoLCD\test\Pain Drain\libraries\lvgl\src\core/lv_group.c **** 
 163:..\..\..\arduinoLCD\test\Pain Drain\libraries\lvgl\src\core/lv_group.c ****     /*Do not add the object twice*/
 164:..\..\..\arduinoLCD\test\Pain Drain\libraries\lvgl\src\core/lv_group.c ****     lv_obj_t ** obj_i;
 165:..\..\..\arduinoLCD\test\Pain Drain\libraries\lvgl\src\core/lv_group.c ****     _LV_LL_READ(&g1->obj_ll, obj_i) {
 166:..\..\..\arduinoLCD\test\Pain Drain\libraries\lvgl\src\core/lv_group.c ****         if((*obj_i) == obj1)(*obj_i) = obj2;
 167:..\..\..\arduinoLCD\test\Pain Drain\libraries\lvgl\src\core/lv_group.c ****         else if((*obj_i) == obj2)(*obj_i) = obj1;
 168:..\..\..\arduinoLCD\test\Pain Drain\libraries\lvgl\src\core/lv_group.c ****     }
 169:..\..\..\arduinoLCD\test\Pain Drain\libraries\lvgl\src\core/lv_group.c **** 
 170:..\..\..\arduinoLCD\test\Pain Drain\libraries\lvgl\src\core/lv_group.c ****     if(*g1->obj_focus == obj1) lv_group_focus_obj(obj2);
 171:..\..\..\arduinoLCD\test\Pain Drain\libraries\lvgl\src\core/lv_group.c ****     else if(*g1->obj_focus == obj2) lv_group_focus_obj(obj1);
 172:..\..\..\arduinoLCD\test\Pain Drain\libraries\lvgl\src\core/lv_group.c **** 
 173:..\..\..\arduinoLCD\test\Pain Drain\libraries\lvgl\src\core/lv_group.c **** }
 174:..\..\..\arduinoLCD\test\Pain Drain\libraries\lvgl\src\core/lv_group.c **** 
 175:..\..\..\arduinoLCD\test\Pain Drain\libraries\lvgl\src\core/lv_group.c **** void lv_group_remove_obj(lv_obj_t * obj)
 176:..\..\..\arduinoLCD\test\Pain Drain\libraries\lvgl\src\core/lv_group.c **** {
 177:..\..\..\arduinoLCD\test\Pain Drain\libraries\lvgl\src\core/lv_group.c ****     lv_group_t * g = lv_obj_get_group(obj);
 178:..\..\..\arduinoLCD\test\Pain Drain\libraries\lvgl\src\core/lv_group.c ****     if(g == NULL) return;
 179:..\..\..\arduinoLCD\test\Pain Drain\libraries\lvgl\src\core/lv_group.c **** 
 180:..\..\..\arduinoLCD\test\Pain Drain\libraries\lvgl\src\core/lv_group.c ****     LV_LOG_TRACE("begin");
 181:..\..\..\arduinoLCD\test\Pain Drain\libraries\lvgl\src\core/lv_group.c **** 
 182:..\..\..\arduinoLCD\test\Pain Drain\libraries\lvgl\src\core/lv_group.c ****     /*Focus on the next object*/
 183:..\..\..\arduinoLCD\test\Pain Drain\libraries\lvgl\src\core/lv_group.c ****     if(g->obj_focus && *g->obj_focus == obj) {
 184:..\..\..\arduinoLCD\test\Pain Drain\libraries\lvgl\src\core/lv_group.c ****         if(g->frozen) g->frozen = 0;
 185:..\..\..\arduinoLCD\test\Pain Drain\libraries\lvgl\src\core/lv_group.c **** 
 186:..\..\..\arduinoLCD\test\Pain Drain\libraries\lvgl\src\core/lv_group.c ****         /*If this is the only object in the group then focus to nothing.*/
 187:..\..\..\arduinoLCD\test\Pain Drain\libraries\lvgl\src\core/lv_group.c ****         if(_lv_ll_get_head(&g->obj_ll) == g->obj_focus && _lv_ll_get_tail(&g->obj_ll) == g->obj_foc
 188:..\..\..\arduinoLCD\test\Pain Drain\libraries\lvgl\src\core/lv_group.c ****             lv_event_send(*g->obj_focus, LV_EVENT_DEFOCUSED, get_indev(g));
 189:..\..\..\arduinoLCD\test\Pain Drain\libraries\lvgl\src\core/lv_group.c ****         }
 190:..\..\..\arduinoLCD\test\Pain Drain\libraries\lvgl\src\core/lv_group.c ****         /*If there more objects in the group then focus to the next/prev object*/
 191:..\..\..\arduinoLCD\test\Pain Drain\libraries\lvgl\src\core/lv_group.c ****         else {
 192:..\..\..\arduinoLCD\test\Pain Drain\libraries\lvgl\src\core/lv_group.c ****             lv_group_refocus(g);
 193:..\..\..\arduinoLCD\test\Pain Drain\libraries\lvgl\src\core/lv_group.c ****         }
 194:..\..\..\arduinoLCD\test\Pain Drain\libraries\lvgl\src\core/lv_group.c ****     }
 195:..\..\..\arduinoLCD\test\Pain Drain\libraries\lvgl\src\core/lv_group.c **** 
 196:..\..\..\arduinoLCD\test\Pain Drain\libraries\lvgl\src\core/lv_group.c ****     /*If the focuses object is still the same then it was the only object in the group but it will
 197:..\..\..\arduinoLCD\test\Pain Drain\libraries\lvgl\src\core/lv_group.c ****      *be deleted. Set the `obj_focus` to NULL to get back to the initial state of the group with
 198:..\..\..\arduinoLCD\test\Pain Drain\libraries\lvgl\src\core/lv_group.c ****      *zero objects*/
 199:..\..\..\arduinoLCD\test\Pain Drain\libraries\lvgl\src\core/lv_group.c ****     if(g->obj_focus && *g->obj_focus == obj) {
 200:..\..\..\arduinoLCD\test\Pain Drain\libraries\lvgl\src\core/lv_group.c ****         g->obj_focus = NULL;
 201:..\..\..\arduinoLCD\test\Pain Drain\libraries\lvgl\src\core/lv_group.c ****     }
 202:..\..\..\arduinoLCD\test\Pain Drain\libraries\lvgl\src\core/lv_group.c **** 
ARM GAS  C:\Users\haske\AppData\Local\Temp\ccHGZgRG.s 			page 5


 203:..\..\..\arduinoLCD\test\Pain Drain\libraries\lvgl\src\core/lv_group.c ****     /*Search the object and remove it from its group*/
 204:..\..\..\arduinoLCD\test\Pain Drain\libraries\lvgl\src\core/lv_group.c ****     lv_obj_t ** i;
 205:..\..\..\arduinoLCD\test\Pain Drain\libraries\lvgl\src\core/lv_group.c ****     _LV_LL_READ(&g->obj_ll, i) {
 206:..\..\..\arduinoLCD\test\Pain Drain\libraries\lvgl\src\core/lv_group.c ****         if(*i == obj) {
 207:..\..\..\arduinoLCD\test\Pain Drain\libraries\lvgl\src\core/lv_group.c ****             _lv_ll_remove(&g->obj_ll, i);
 208:..\..\..\arduinoLCD\test\Pain Drain\libraries\lvgl\src\core/lv_group.c ****             lv_mem_free(i);
 209:..\..\..\arduinoLCD\test\Pain Drain\libraries\lvgl\src\core/lv_group.c ****             if(obj->spec_attr) obj->spec_attr->group_p = NULL;
 210:..\..\..\arduinoLCD\test\Pain Drain\libraries\lvgl\src\core/lv_group.c ****             break;
 211:..\..\..\arduinoLCD\test\Pain Drain\libraries\lvgl\src\core/lv_group.c ****         }
 212:..\..\..\arduinoLCD\test\Pain Drain\libraries\lvgl\src\core/lv_group.c ****     }
 213:..\..\..\arduinoLCD\test\Pain Drain\libraries\lvgl\src\core/lv_group.c ****     LV_LOG_TRACE("finished");
 214:..\..\..\arduinoLCD\test\Pain Drain\libraries\lvgl\src\core/lv_group.c **** }
 215:..\..\..\arduinoLCD\test\Pain Drain\libraries\lvgl\src\core/lv_group.c **** 
 216:..\..\..\arduinoLCD\test\Pain Drain\libraries\lvgl\src\core/lv_group.c **** void lv_group_remove_all_objs(lv_group_t * group)
 217:..\..\..\arduinoLCD\test\Pain Drain\libraries\lvgl\src\core/lv_group.c **** {
 218:..\..\..\arduinoLCD\test\Pain Drain\libraries\lvgl\src\core/lv_group.c ****     /*Defocus the currently focused object*/
 219:..\..\..\arduinoLCD\test\Pain Drain\libraries\lvgl\src\core/lv_group.c ****     if(group->obj_focus != NULL) {
 220:..\..\..\arduinoLCD\test\Pain Drain\libraries\lvgl\src\core/lv_group.c ****         lv_event_send(*group->obj_focus, LV_EVENT_DEFOCUSED, get_indev(group));
 221:..\..\..\arduinoLCD\test\Pain Drain\libraries\lvgl\src\core/lv_group.c ****         lv_obj_invalidate(*group->obj_focus);
 222:..\..\..\arduinoLCD\test\Pain Drain\libraries\lvgl\src\core/lv_group.c ****         group->obj_focus = NULL;
 223:..\..\..\arduinoLCD\test\Pain Drain\libraries\lvgl\src\core/lv_group.c ****     }
 224:..\..\..\arduinoLCD\test\Pain Drain\libraries\lvgl\src\core/lv_group.c **** 
 225:..\..\..\arduinoLCD\test\Pain Drain\libraries\lvgl\src\core/lv_group.c ****     /*Remove the objects from the group*/
 226:..\..\..\arduinoLCD\test\Pain Drain\libraries\lvgl\src\core/lv_group.c ****     lv_obj_t ** obj;
 227:..\..\..\arduinoLCD\test\Pain Drain\libraries\lvgl\src\core/lv_group.c ****     _LV_LL_READ(&group->obj_ll, obj) {
 228:..\..\..\arduinoLCD\test\Pain Drain\libraries\lvgl\src\core/lv_group.c ****         if((*obj)->spec_attr)(*obj)->spec_attr->group_p = NULL;
 229:..\..\..\arduinoLCD\test\Pain Drain\libraries\lvgl\src\core/lv_group.c ****     }
 230:..\..\..\arduinoLCD\test\Pain Drain\libraries\lvgl\src\core/lv_group.c **** 
 231:..\..\..\arduinoLCD\test\Pain Drain\libraries\lvgl\src\core/lv_group.c ****     _lv_ll_clear(&(group->obj_ll));
 232:..\..\..\arduinoLCD\test\Pain Drain\libraries\lvgl\src\core/lv_group.c **** }
 233:..\..\..\arduinoLCD\test\Pain Drain\libraries\lvgl\src\core/lv_group.c **** 
 234:..\..\..\arduinoLCD\test\Pain Drain\libraries\lvgl\src\core/lv_group.c **** void lv_group_focus_obj(lv_obj_t * obj)
 235:..\..\..\arduinoLCD\test\Pain Drain\libraries\lvgl\src\core/lv_group.c **** {
 236:..\..\..\arduinoLCD\test\Pain Drain\libraries\lvgl\src\core/lv_group.c ****     if(obj == NULL) return;
 237:..\..\..\arduinoLCD\test\Pain Drain\libraries\lvgl\src\core/lv_group.c ****     lv_group_t * g = lv_obj_get_group(obj);
 238:..\..\..\arduinoLCD\test\Pain Drain\libraries\lvgl\src\core/lv_group.c ****     if(g == NULL) return;
 239:..\..\..\arduinoLCD\test\Pain Drain\libraries\lvgl\src\core/lv_group.c **** 
 240:..\..\..\arduinoLCD\test\Pain Drain\libraries\lvgl\src\core/lv_group.c ****     if(g->frozen != 0) return;
 241:..\..\..\arduinoLCD\test\Pain Drain\libraries\lvgl\src\core/lv_group.c **** 
 242:..\..\..\arduinoLCD\test\Pain Drain\libraries\lvgl\src\core/lv_group.c ****     /*On defocus edit mode must be leaved*/
 243:..\..\..\arduinoLCD\test\Pain Drain\libraries\lvgl\src\core/lv_group.c ****     lv_group_set_editing(g, false);
 244:..\..\..\arduinoLCD\test\Pain Drain\libraries\lvgl\src\core/lv_group.c **** 
 245:..\..\..\arduinoLCD\test\Pain Drain\libraries\lvgl\src\core/lv_group.c ****     lv_obj_t ** i;
 246:..\..\..\arduinoLCD\test\Pain Drain\libraries\lvgl\src\core/lv_group.c ****     _LV_LL_READ(&g->obj_ll, i) {
 247:..\..\..\arduinoLCD\test\Pain Drain\libraries\lvgl\src\core/lv_group.c ****         if(*i == obj) {
 248:..\..\..\arduinoLCD\test\Pain Drain\libraries\lvgl\src\core/lv_group.c ****             if(g->obj_focus != NULL && obj != *g->obj_focus) {  /*Do not defocus if the same object
 249:..\..\..\arduinoLCD\test\Pain Drain\libraries\lvgl\src\core/lv_group.c ****                 lv_res_t res = lv_event_send(*g->obj_focus, LV_EVENT_DEFOCUSED, get_indev(g));
 250:..\..\..\arduinoLCD\test\Pain Drain\libraries\lvgl\src\core/lv_group.c ****                 if(res != LV_RES_OK) return;
 251:..\..\..\arduinoLCD\test\Pain Drain\libraries\lvgl\src\core/lv_group.c ****                 lv_obj_invalidate(*g->obj_focus);
 252:..\..\..\arduinoLCD\test\Pain Drain\libraries\lvgl\src\core/lv_group.c ****             }
 253:..\..\..\arduinoLCD\test\Pain Drain\libraries\lvgl\src\core/lv_group.c **** 
 254:..\..\..\arduinoLCD\test\Pain Drain\libraries\lvgl\src\core/lv_group.c ****             g->obj_focus = i;
 255:..\..\..\arduinoLCD\test\Pain Drain\libraries\lvgl\src\core/lv_group.c **** 
 256:..\..\..\arduinoLCD\test\Pain Drain\libraries\lvgl\src\core/lv_group.c ****             if(g->obj_focus != NULL) {
 257:..\..\..\arduinoLCD\test\Pain Drain\libraries\lvgl\src\core/lv_group.c ****                 if(g->focus_cb) g->focus_cb(g);
 258:..\..\..\arduinoLCD\test\Pain Drain\libraries\lvgl\src\core/lv_group.c ****                 lv_res_t res = lv_event_send(*g->obj_focus, LV_EVENT_FOCUSED, get_indev(g));
 259:..\..\..\arduinoLCD\test\Pain Drain\libraries\lvgl\src\core/lv_group.c ****                 if(res != LV_RES_OK) return;
ARM GAS  C:\Users\haske\AppData\Local\Temp\ccHGZgRG.s 			page 6


 260:..\..\..\arduinoLCD\test\Pain Drain\libraries\lvgl\src\core/lv_group.c ****                 lv_obj_invalidate(*g->obj_focus);
 261:..\..\..\arduinoLCD\test\Pain Drain\libraries\lvgl\src\core/lv_group.c ****             }
 262:..\..\..\arduinoLCD\test\Pain Drain\libraries\lvgl\src\core/lv_group.c ****             break;
 263:..\..\..\arduinoLCD\test\Pain Drain\libraries\lvgl\src\core/lv_group.c ****         }
 264:..\..\..\arduinoLCD\test\Pain Drain\libraries\lvgl\src\core/lv_group.c ****     }
 265:..\..\..\arduinoLCD\test\Pain Drain\libraries\lvgl\src\core/lv_group.c **** }
 266:..\..\..\arduinoLCD\test\Pain Drain\libraries\lvgl\src\core/lv_group.c **** 
 267:..\..\..\arduinoLCD\test\Pain Drain\libraries\lvgl\src\core/lv_group.c **** void lv_group_focus_next(lv_group_t * group)
 268:..\..\..\arduinoLCD\test\Pain Drain\libraries\lvgl\src\core/lv_group.c **** {
 269:..\..\..\arduinoLCD\test\Pain Drain\libraries\lvgl\src\core/lv_group.c ****     bool focus_changed = focus_next_core(group, _lv_ll_get_head, _lv_ll_get_next);
 270:..\..\..\arduinoLCD\test\Pain Drain\libraries\lvgl\src\core/lv_group.c ****     if(group->edge_cb) {
 271:..\..\..\arduinoLCD\test\Pain Drain\libraries\lvgl\src\core/lv_group.c ****         if(!focus_changed)
 272:..\..\..\arduinoLCD\test\Pain Drain\libraries\lvgl\src\core/lv_group.c ****             group->edge_cb(group, true);
 273:..\..\..\arduinoLCD\test\Pain Drain\libraries\lvgl\src\core/lv_group.c ****     }
 274:..\..\..\arduinoLCD\test\Pain Drain\libraries\lvgl\src\core/lv_group.c **** }
 275:..\..\..\arduinoLCD\test\Pain Drain\libraries\lvgl\src\core/lv_group.c **** 
 276:..\..\..\arduinoLCD\test\Pain Drain\libraries\lvgl\src\core/lv_group.c **** void lv_group_focus_prev(lv_group_t * group)
 277:..\..\..\arduinoLCD\test\Pain Drain\libraries\lvgl\src\core/lv_group.c **** {
 278:..\..\..\arduinoLCD\test\Pain Drain\libraries\lvgl\src\core/lv_group.c ****     bool focus_changed = focus_next_core(group, _lv_ll_get_tail, _lv_ll_get_prev);
 279:..\..\..\arduinoLCD\test\Pain Drain\libraries\lvgl\src\core/lv_group.c ****     if(group->edge_cb) {
 280:..\..\..\arduinoLCD\test\Pain Drain\libraries\lvgl\src\core/lv_group.c ****         if(!focus_changed)
 281:..\..\..\arduinoLCD\test\Pain Drain\libraries\lvgl\src\core/lv_group.c ****             group->edge_cb(group, false);
 282:..\..\..\arduinoLCD\test\Pain Drain\libraries\lvgl\src\core/lv_group.c ****     }
 283:..\..\..\arduinoLCD\test\Pain Drain\libraries\lvgl\src\core/lv_group.c **** }
 284:..\..\..\arduinoLCD\test\Pain Drain\libraries\lvgl\src\core/lv_group.c **** 
 285:..\..\..\arduinoLCD\test\Pain Drain\libraries\lvgl\src\core/lv_group.c **** void lv_group_focus_freeze(lv_group_t * group, bool en)
 286:..\..\..\arduinoLCD\test\Pain Drain\libraries\lvgl\src\core/lv_group.c **** {
 287:..\..\..\arduinoLCD\test\Pain Drain\libraries\lvgl\src\core/lv_group.c ****     if(en == false) group->frozen = 0;
 288:..\..\..\arduinoLCD\test\Pain Drain\libraries\lvgl\src\core/lv_group.c ****     else group->frozen = 1;
 289:..\..\..\arduinoLCD\test\Pain Drain\libraries\lvgl\src\core/lv_group.c **** }
 290:..\..\..\arduinoLCD\test\Pain Drain\libraries\lvgl\src\core/lv_group.c **** 
 291:..\..\..\arduinoLCD\test\Pain Drain\libraries\lvgl\src\core/lv_group.c **** lv_res_t lv_group_send_data(lv_group_t * group, uint32_t c)
 292:..\..\..\arduinoLCD\test\Pain Drain\libraries\lvgl\src\core/lv_group.c **** {
 293:..\..\..\arduinoLCD\test\Pain Drain\libraries\lvgl\src\core/lv_group.c ****     lv_obj_t * act = lv_group_get_focused(group);
 294:..\..\..\arduinoLCD\test\Pain Drain\libraries\lvgl\src\core/lv_group.c ****     if(act == NULL) return LV_RES_OK;
 295:..\..\..\arduinoLCD\test\Pain Drain\libraries\lvgl\src\core/lv_group.c **** 
 296:..\..\..\arduinoLCD\test\Pain Drain\libraries\lvgl\src\core/lv_group.c ****     if(lv_obj_has_state(act, LV_STATE_DISABLED)) return LV_RES_OK;
 297:..\..\..\arduinoLCD\test\Pain Drain\libraries\lvgl\src\core/lv_group.c **** 
 298:..\..\..\arduinoLCD\test\Pain Drain\libraries\lvgl\src\core/lv_group.c ****     return lv_event_send(act, LV_EVENT_KEY, &c);
 299:..\..\..\arduinoLCD\test\Pain Drain\libraries\lvgl\src\core/lv_group.c **** }
 300:..\..\..\arduinoLCD\test\Pain Drain\libraries\lvgl\src\core/lv_group.c **** 
 301:..\..\..\arduinoLCD\test\Pain Drain\libraries\lvgl\src\core/lv_group.c **** void lv_group_set_focus_cb(lv_group_t * group, lv_group_focus_cb_t focus_cb)
 302:..\..\..\arduinoLCD\test\Pain Drain\libraries\lvgl\src\core/lv_group.c **** {
 303:..\..\..\arduinoLCD\test\Pain Drain\libraries\lvgl\src\core/lv_group.c ****     group->focus_cb = focus_cb;
 304:..\..\..\arduinoLCD\test\Pain Drain\libraries\lvgl\src\core/lv_group.c **** }
 305:..\..\..\arduinoLCD\test\Pain Drain\libraries\lvgl\src\core/lv_group.c **** 
 306:..\..\..\arduinoLCD\test\Pain Drain\libraries\lvgl\src\core/lv_group.c **** void lv_group_set_edge_cb(lv_group_t * group, lv_group_edge_cb_t edge_cb)
 307:..\..\..\arduinoLCD\test\Pain Drain\libraries\lvgl\src\core/lv_group.c **** {
 308:..\..\..\arduinoLCD\test\Pain Drain\libraries\lvgl\src\core/lv_group.c ****     group->edge_cb = edge_cb;
 309:..\..\..\arduinoLCD\test\Pain Drain\libraries\lvgl\src\core/lv_group.c **** }
 310:..\..\..\arduinoLCD\test\Pain Drain\libraries\lvgl\src\core/lv_group.c **** 
 311:..\..\..\arduinoLCD\test\Pain Drain\libraries\lvgl\src\core/lv_group.c **** void lv_group_set_editing(lv_group_t * group, bool edit)
 312:..\..\..\arduinoLCD\test\Pain Drain\libraries\lvgl\src\core/lv_group.c **** {
 313:..\..\..\arduinoLCD\test\Pain Drain\libraries\lvgl\src\core/lv_group.c ****     if(group == NULL) return;
 314:..\..\..\arduinoLCD\test\Pain Drain\libraries\lvgl\src\core/lv_group.c ****     uint8_t en_val = edit ? 1 : 0;
 315:..\..\..\arduinoLCD\test\Pain Drain\libraries\lvgl\src\core/lv_group.c **** 
 316:..\..\..\arduinoLCD\test\Pain Drain\libraries\lvgl\src\core/lv_group.c ****     if(en_val == group->editing) return; /*Do not set the same mode again*/
ARM GAS  C:\Users\haske\AppData\Local\Temp\ccHGZgRG.s 			page 7


 317:..\..\..\arduinoLCD\test\Pain Drain\libraries\lvgl\src\core/lv_group.c **** 
 318:..\..\..\arduinoLCD\test\Pain Drain\libraries\lvgl\src\core/lv_group.c ****     group->editing     = en_val;
 319:..\..\..\arduinoLCD\test\Pain Drain\libraries\lvgl\src\core/lv_group.c ****     lv_obj_t * focused = lv_group_get_focused(group);
 320:..\..\..\arduinoLCD\test\Pain Drain\libraries\lvgl\src\core/lv_group.c **** 
 321:..\..\..\arduinoLCD\test\Pain Drain\libraries\lvgl\src\core/lv_group.c ****     if(focused) {
 322:..\..\..\arduinoLCD\test\Pain Drain\libraries\lvgl\src\core/lv_group.c ****         lv_res_t res = lv_event_send(*group->obj_focus, LV_EVENT_FOCUSED, get_indev(group));
 323:..\..\..\arduinoLCD\test\Pain Drain\libraries\lvgl\src\core/lv_group.c ****         if(res != LV_RES_OK) return;
 324:..\..\..\arduinoLCD\test\Pain Drain\libraries\lvgl\src\core/lv_group.c **** 
 325:..\..\..\arduinoLCD\test\Pain Drain\libraries\lvgl\src\core/lv_group.c ****         lv_obj_invalidate(focused);
 326:..\..\..\arduinoLCD\test\Pain Drain\libraries\lvgl\src\core/lv_group.c ****     }
 327:..\..\..\arduinoLCD\test\Pain Drain\libraries\lvgl\src\core/lv_group.c **** }
 328:..\..\..\arduinoLCD\test\Pain Drain\libraries\lvgl\src\core/lv_group.c **** 
 329:..\..\..\arduinoLCD\test\Pain Drain\libraries\lvgl\src\core/lv_group.c **** void lv_group_set_refocus_policy(lv_group_t * group, lv_group_refocus_policy_t policy)
 330:..\..\..\arduinoLCD\test\Pain Drain\libraries\lvgl\src\core/lv_group.c **** {
 331:..\..\..\arduinoLCD\test\Pain Drain\libraries\lvgl\src\core/lv_group.c ****     group->refocus_policy = policy & 0x01;
 332:..\..\..\arduinoLCD\test\Pain Drain\libraries\lvgl\src\core/lv_group.c **** }
 333:..\..\..\arduinoLCD\test\Pain Drain\libraries\lvgl\src\core/lv_group.c **** 
 334:..\..\..\arduinoLCD\test\Pain Drain\libraries\lvgl\src\core/lv_group.c **** void lv_group_set_wrap(lv_group_t * group, bool en)
 335:..\..\..\arduinoLCD\test\Pain Drain\libraries\lvgl\src\core/lv_group.c **** {
 336:..\..\..\arduinoLCD\test\Pain Drain\libraries\lvgl\src\core/lv_group.c ****     group->wrap = en ? 1 : 0;
 337:..\..\..\arduinoLCD\test\Pain Drain\libraries\lvgl\src\core/lv_group.c **** }
 338:..\..\..\arduinoLCD\test\Pain Drain\libraries\lvgl\src\core/lv_group.c **** 
 339:..\..\..\arduinoLCD\test\Pain Drain\libraries\lvgl\src\core/lv_group.c **** lv_obj_t * lv_group_get_focused(const lv_group_t * group)
 340:..\..\..\arduinoLCD\test\Pain Drain\libraries\lvgl\src\core/lv_group.c **** {
 341:..\..\..\arduinoLCD\test\Pain Drain\libraries\lvgl\src\core/lv_group.c ****     if(!group) return NULL;
 342:..\..\..\arduinoLCD\test\Pain Drain\libraries\lvgl\src\core/lv_group.c ****     if(group->obj_focus == NULL) return NULL;
 343:..\..\..\arduinoLCD\test\Pain Drain\libraries\lvgl\src\core/lv_group.c **** 
 344:..\..\..\arduinoLCD\test\Pain Drain\libraries\lvgl\src\core/lv_group.c ****     return *group->obj_focus;
 345:..\..\..\arduinoLCD\test\Pain Drain\libraries\lvgl\src\core/lv_group.c **** }
 346:..\..\..\arduinoLCD\test\Pain Drain\libraries\lvgl\src\core/lv_group.c **** 
 347:..\..\..\arduinoLCD\test\Pain Drain\libraries\lvgl\src\core/lv_group.c **** lv_group_focus_cb_t lv_group_get_focus_cb(const lv_group_t * group)
 348:..\..\..\arduinoLCD\test\Pain Drain\libraries\lvgl\src\core/lv_group.c **** {
 349:..\..\..\arduinoLCD\test\Pain Drain\libraries\lvgl\src\core/lv_group.c ****     if(!group) return NULL;
 350:..\..\..\arduinoLCD\test\Pain Drain\libraries\lvgl\src\core/lv_group.c ****     return group->focus_cb;
 351:..\..\..\arduinoLCD\test\Pain Drain\libraries\lvgl\src\core/lv_group.c **** }
 352:..\..\..\arduinoLCD\test\Pain Drain\libraries\lvgl\src\core/lv_group.c **** 
 353:..\..\..\arduinoLCD\test\Pain Drain\libraries\lvgl\src\core/lv_group.c **** lv_group_edge_cb_t lv_group_get_edge_cb(const lv_group_t * group)
 354:..\..\..\arduinoLCD\test\Pain Drain\libraries\lvgl\src\core/lv_group.c **** {
 355:..\..\..\arduinoLCD\test\Pain Drain\libraries\lvgl\src\core/lv_group.c ****     if(!group) return NULL;
 356:..\..\..\arduinoLCD\test\Pain Drain\libraries\lvgl\src\core/lv_group.c ****     return group->edge_cb;
 357:..\..\..\arduinoLCD\test\Pain Drain\libraries\lvgl\src\core/lv_group.c **** }
 358:..\..\..\arduinoLCD\test\Pain Drain\libraries\lvgl\src\core/lv_group.c **** 
 359:..\..\..\arduinoLCD\test\Pain Drain\libraries\lvgl\src\core/lv_group.c **** bool lv_group_get_editing(const lv_group_t * group)
 360:..\..\..\arduinoLCD\test\Pain Drain\libraries\lvgl\src\core/lv_group.c **** {
 361:..\..\..\arduinoLCD\test\Pain Drain\libraries\lvgl\src\core/lv_group.c ****     if(!group) return false;
 362:..\..\..\arduinoLCD\test\Pain Drain\libraries\lvgl\src\core/lv_group.c ****     return group->editing ? true : false;
 363:..\..\..\arduinoLCD\test\Pain Drain\libraries\lvgl\src\core/lv_group.c **** }
 364:..\..\..\arduinoLCD\test\Pain Drain\libraries\lvgl\src\core/lv_group.c **** 
 365:..\..\..\arduinoLCD\test\Pain Drain\libraries\lvgl\src\core/lv_group.c **** bool lv_group_get_wrap(lv_group_t * group)
 366:..\..\..\arduinoLCD\test\Pain Drain\libraries\lvgl\src\core/lv_group.c **** {
 367:..\..\..\arduinoLCD\test\Pain Drain\libraries\lvgl\src\core/lv_group.c ****     if(!group) return false;
 368:..\..\..\arduinoLCD\test\Pain Drain\libraries\lvgl\src\core/lv_group.c ****     return group->wrap ? true : false;
 369:..\..\..\arduinoLCD\test\Pain Drain\libraries\lvgl\src\core/lv_group.c **** }
 370:..\..\..\arduinoLCD\test\Pain Drain\libraries\lvgl\src\core/lv_group.c **** 
 371:..\..\..\arduinoLCD\test\Pain Drain\libraries\lvgl\src\core/lv_group.c **** uint32_t lv_group_get_obj_count(lv_group_t * group)
 372:..\..\..\arduinoLCD\test\Pain Drain\libraries\lvgl\src\core/lv_group.c **** {
 373:..\..\..\arduinoLCD\test\Pain Drain\libraries\lvgl\src\core/lv_group.c ****     return _lv_ll_get_len(&group->obj_ll);
ARM GAS  C:\Users\haske\AppData\Local\Temp\ccHGZgRG.s 			page 8


 374:..\..\..\arduinoLCD\test\Pain Drain\libraries\lvgl\src\core/lv_group.c **** }
 375:..\..\..\arduinoLCD\test\Pain Drain\libraries\lvgl\src\core/lv_group.c **** /**********************
 376:..\..\..\arduinoLCD\test\Pain Drain\libraries\lvgl\src\core/lv_group.c ****  *   STATIC FUNCTIONS
 377:..\..\..\arduinoLCD\test\Pain Drain\libraries\lvgl\src\core/lv_group.c ****  **********************/
 378:..\..\..\arduinoLCD\test\Pain Drain\libraries\lvgl\src\core/lv_group.c **** 
 379:..\..\..\arduinoLCD\test\Pain Drain\libraries\lvgl\src\core/lv_group.c **** static void lv_group_refocus(lv_group_t * g)
 380:..\..\..\arduinoLCD\test\Pain Drain\libraries\lvgl\src\core/lv_group.c **** {
 381:..\..\..\arduinoLCD\test\Pain Drain\libraries\lvgl\src\core/lv_group.c ****     /*Refocus must temporarily allow wrapping to work correctly*/
 382:..\..\..\arduinoLCD\test\Pain Drain\libraries\lvgl\src\core/lv_group.c ****     uint8_t temp_wrap = g->wrap;
 383:..\..\..\arduinoLCD\test\Pain Drain\libraries\lvgl\src\core/lv_group.c ****     g->wrap           = 1;
 384:..\..\..\arduinoLCD\test\Pain Drain\libraries\lvgl\src\core/lv_group.c **** 
 385:..\..\..\arduinoLCD\test\Pain Drain\libraries\lvgl\src\core/lv_group.c ****     if(g->refocus_policy == LV_GROUP_REFOCUS_POLICY_NEXT)
 386:..\..\..\arduinoLCD\test\Pain Drain\libraries\lvgl\src\core/lv_group.c ****         lv_group_focus_next(g);
 387:..\..\..\arduinoLCD\test\Pain Drain\libraries\lvgl\src\core/lv_group.c ****     else if(g->refocus_policy == LV_GROUP_REFOCUS_POLICY_PREV)
 388:..\..\..\arduinoLCD\test\Pain Drain\libraries\lvgl\src\core/lv_group.c ****         lv_group_focus_prev(g);
 389:..\..\..\arduinoLCD\test\Pain Drain\libraries\lvgl\src\core/lv_group.c ****     /*Restore wrap property*/
 390:..\..\..\arduinoLCD\test\Pain Drain\libraries\lvgl\src\core/lv_group.c ****     g->wrap = temp_wrap;
 391:..\..\..\arduinoLCD\test\Pain Drain\libraries\lvgl\src\core/lv_group.c **** }
 392:..\..\..\arduinoLCD\test\Pain Drain\libraries\lvgl\src\core/lv_group.c **** 
 393:..\..\..\arduinoLCD\test\Pain Drain\libraries\lvgl\src\core/lv_group.c **** static bool focus_next_core(lv_group_t * group, void * (*begin)(const lv_ll_t *),
 394:..\..\..\arduinoLCD\test\Pain Drain\libraries\lvgl\src\core/lv_group.c ****                             void * (*move)(const lv_ll_t *, const void *))
 395:..\..\..\arduinoLCD\test\Pain Drain\libraries\lvgl\src\core/lv_group.c **** {
 396:..\..\..\arduinoLCD\test\Pain Drain\libraries\lvgl\src\core/lv_group.c ****     bool focus_changed = false;
 397:..\..\..\arduinoLCD\test\Pain Drain\libraries\lvgl\src\core/lv_group.c ****     if(group->frozen) return focus_changed;
 398:..\..\..\arduinoLCD\test\Pain Drain\libraries\lvgl\src\core/lv_group.c **** 
 399:..\..\..\arduinoLCD\test\Pain Drain\libraries\lvgl\src\core/lv_group.c ****     lv_obj_t ** obj_next     = group->obj_focus;
 400:..\..\..\arduinoLCD\test\Pain Drain\libraries\lvgl\src\core/lv_group.c ****     lv_obj_t ** obj_sentinel = NULL;
 401:..\..\..\arduinoLCD\test\Pain Drain\libraries\lvgl\src\core/lv_group.c ****     bool can_move            = true;
 402:..\..\..\arduinoLCD\test\Pain Drain\libraries\lvgl\src\core/lv_group.c ****     bool can_begin           = true;
 403:..\..\..\arduinoLCD\test\Pain Drain\libraries\lvgl\src\core/lv_group.c **** 
 404:..\..\..\arduinoLCD\test\Pain Drain\libraries\lvgl\src\core/lv_group.c ****     for(;;) {
 405:..\..\..\arduinoLCD\test\Pain Drain\libraries\lvgl\src\core/lv_group.c ****         if(obj_next == NULL) {
 406:..\..\..\arduinoLCD\test\Pain Drain\libraries\lvgl\src\core/lv_group.c ****             if(group->wrap || obj_sentinel == NULL) {
 407:..\..\..\arduinoLCD\test\Pain Drain\libraries\lvgl\src\core/lv_group.c ****                 if(!can_begin) return focus_changed;
 408:..\..\..\arduinoLCD\test\Pain Drain\libraries\lvgl\src\core/lv_group.c ****                 obj_next  = begin(&group->obj_ll);
 409:..\..\..\arduinoLCD\test\Pain Drain\libraries\lvgl\src\core/lv_group.c ****                 can_move  = false;
 410:..\..\..\arduinoLCD\test\Pain Drain\libraries\lvgl\src\core/lv_group.c ****                 can_begin = false;
 411:..\..\..\arduinoLCD\test\Pain Drain\libraries\lvgl\src\core/lv_group.c ****             }
 412:..\..\..\arduinoLCD\test\Pain Drain\libraries\lvgl\src\core/lv_group.c ****             else {
 413:..\..\..\arduinoLCD\test\Pain Drain\libraries\lvgl\src\core/lv_group.c ****                 /*Currently focused object is the last/first in the group, keep it that way*/
 414:..\..\..\arduinoLCD\test\Pain Drain\libraries\lvgl\src\core/lv_group.c ****                 return focus_changed;
 415:..\..\..\arduinoLCD\test\Pain Drain\libraries\lvgl\src\core/lv_group.c ****             }
 416:..\..\..\arduinoLCD\test\Pain Drain\libraries\lvgl\src\core/lv_group.c ****         }
 417:..\..\..\arduinoLCD\test\Pain Drain\libraries\lvgl\src\core/lv_group.c **** 
 418:..\..\..\arduinoLCD\test\Pain Drain\libraries\lvgl\src\core/lv_group.c ****         if(obj_sentinel == NULL) {
 419:..\..\..\arduinoLCD\test\Pain Drain\libraries\lvgl\src\core/lv_group.c ****             obj_sentinel = obj_next;
 420:..\..\..\arduinoLCD\test\Pain Drain\libraries\lvgl\src\core/lv_group.c ****             if(obj_sentinel == NULL) return focus_changed; /*Group is empty*/
 421:..\..\..\arduinoLCD\test\Pain Drain\libraries\lvgl\src\core/lv_group.c ****         }
 422:..\..\..\arduinoLCD\test\Pain Drain\libraries\lvgl\src\core/lv_group.c **** 
 423:..\..\..\arduinoLCD\test\Pain Drain\libraries\lvgl\src\core/lv_group.c ****         if(can_move) {
 424:..\..\..\arduinoLCD\test\Pain Drain\libraries\lvgl\src\core/lv_group.c ****             obj_next = move(&group->obj_ll, obj_next);
 425:..\..\..\arduinoLCD\test\Pain Drain\libraries\lvgl\src\core/lv_group.c **** 
 426:..\..\..\arduinoLCD\test\Pain Drain\libraries\lvgl\src\core/lv_group.c ****             /*Give up if we walked the entire list and haven't found another visible object*/
 427:..\..\..\arduinoLCD\test\Pain Drain\libraries\lvgl\src\core/lv_group.c ****             if(obj_next == obj_sentinel) return focus_changed;
 428:..\..\..\arduinoLCD\test\Pain Drain\libraries\lvgl\src\core/lv_group.c ****         }
 429:..\..\..\arduinoLCD\test\Pain Drain\libraries\lvgl\src\core/lv_group.c **** 
 430:..\..\..\arduinoLCD\test\Pain Drain\libraries\lvgl\src\core/lv_group.c ****         can_move = true;
ARM GAS  C:\Users\haske\AppData\Local\Temp\ccHGZgRG.s 			page 9


 431:..\..\..\arduinoLCD\test\Pain Drain\libraries\lvgl\src\core/lv_group.c **** 
 432:..\..\..\arduinoLCD\test\Pain Drain\libraries\lvgl\src\core/lv_group.c ****         if(obj_next == NULL) continue;
 433:..\..\..\arduinoLCD\test\Pain Drain\libraries\lvgl\src\core/lv_group.c ****         if(lv_obj_get_state(*obj_next) & LV_STATE_DISABLED) continue;
 434:..\..\..\arduinoLCD\test\Pain Drain\libraries\lvgl\src\core/lv_group.c **** 
 435:..\..\..\arduinoLCD\test\Pain Drain\libraries\lvgl\src\core/lv_group.c ****         /*Hidden objects don't receive focus.
 436:..\..\..\arduinoLCD\test\Pain Drain\libraries\lvgl\src\core/lv_group.c ****          *If any parent is hidden, the object is also hidden)*/
 437:..\..\..\arduinoLCD\test\Pain Drain\libraries\lvgl\src\core/lv_group.c ****         lv_obj_t * parent = *obj_next;
 438:..\..\..\arduinoLCD\test\Pain Drain\libraries\lvgl\src\core/lv_group.c ****         while(parent) {
 439:..\..\..\arduinoLCD\test\Pain Drain\libraries\lvgl\src\core/lv_group.c ****             if(lv_obj_has_flag(parent, LV_OBJ_FLAG_HIDDEN)) break;
 440:..\..\..\arduinoLCD\test\Pain Drain\libraries\lvgl\src\core/lv_group.c ****             parent = lv_obj_get_parent(parent);
 441:..\..\..\arduinoLCD\test\Pain Drain\libraries\lvgl\src\core/lv_group.c ****         }
 442:..\..\..\arduinoLCD\test\Pain Drain\libraries\lvgl\src\core/lv_group.c **** 
 443:..\..\..\arduinoLCD\test\Pain Drain\libraries\lvgl\src\core/lv_group.c ****         if(parent && lv_obj_has_flag(parent, LV_OBJ_FLAG_HIDDEN)) continue;
 444:..\..\..\arduinoLCD\test\Pain Drain\libraries\lvgl\src\core/lv_group.c **** 
 445:..\..\..\arduinoLCD\test\Pain Drain\libraries\lvgl\src\core/lv_group.c ****         /*If we got her a good candidate is found*/
 446:..\..\..\arduinoLCD\test\Pain Drain\libraries\lvgl\src\core/lv_group.c ****         break;
 447:..\..\..\arduinoLCD\test\Pain Drain\libraries\lvgl\src\core/lv_group.c ****     }
 448:..\..\..\arduinoLCD\test\Pain Drain\libraries\lvgl\src\core/lv_group.c **** 
 449:..\..\..\arduinoLCD\test\Pain Drain\libraries\lvgl\src\core/lv_group.c ****     if(obj_next == group->obj_focus) return focus_changed; /*There's only one visible object and it
 450:..\..\..\arduinoLCD\test\Pain Drain\libraries\lvgl\src\core/lv_group.c **** 
 451:..\..\..\arduinoLCD\test\Pain Drain\libraries\lvgl\src\core/lv_group.c ****     if(group->obj_focus) {
 452:..\..\..\arduinoLCD\test\Pain Drain\libraries\lvgl\src\core/lv_group.c ****         lv_res_t res = lv_event_send(*group->obj_focus, LV_EVENT_DEFOCUSED, get_indev(group));
 453:..\..\..\arduinoLCD\test\Pain Drain\libraries\lvgl\src\core/lv_group.c ****         if(res != LV_RES_OK) return focus_changed;
 454:..\..\..\arduinoLCD\test\Pain Drain\libraries\lvgl\src\core/lv_group.c ****         lv_obj_invalidate(*group->obj_focus);
 455:..\..\..\arduinoLCD\test\Pain Drain\libraries\lvgl\src\core/lv_group.c ****     }
 456:..\..\..\arduinoLCD\test\Pain Drain\libraries\lvgl\src\core/lv_group.c **** 
 457:..\..\..\arduinoLCD\test\Pain Drain\libraries\lvgl\src\core/lv_group.c ****     group->obj_focus = obj_next;
 458:..\..\..\arduinoLCD\test\Pain Drain\libraries\lvgl\src\core/lv_group.c **** 
 459:..\..\..\arduinoLCD\test\Pain Drain\libraries\lvgl\src\core/lv_group.c ****     lv_res_t res = lv_event_send(*group->obj_focus, LV_EVENT_FOCUSED, get_indev(group));
 460:..\..\..\arduinoLCD\test\Pain Drain\libraries\lvgl\src\core/lv_group.c ****     if(res != LV_RES_OK) return focus_changed;
 461:..\..\..\arduinoLCD\test\Pain Drain\libraries\lvgl\src\core/lv_group.c **** 
 462:..\..\..\arduinoLCD\test\Pain Drain\libraries\lvgl\src\core/lv_group.c ****     lv_obj_invalidate(*group->obj_focus);
 463:..\..\..\arduinoLCD\test\Pain Drain\libraries\lvgl\src\core/lv_group.c **** 
 464:..\..\..\arduinoLCD\test\Pain Drain\libraries\lvgl\src\core/lv_group.c ****     if(group->focus_cb) group->focus_cb(group);
 465:..\..\..\arduinoLCD\test\Pain Drain\libraries\lvgl\src\core/lv_group.c ****     focus_changed = true;
 466:..\..\..\arduinoLCD\test\Pain Drain\libraries\lvgl\src\core/lv_group.c ****     return focus_changed;
 467:..\..\..\arduinoLCD\test\Pain Drain\libraries\lvgl\src\core/lv_group.c **** }
 468:..\..\..\arduinoLCD\test\Pain Drain\libraries\lvgl\src\core/lv_group.c **** 
 469:..\..\..\arduinoLCD\test\Pain Drain\libraries\lvgl\src\core/lv_group.c **** /**
 470:..\..\..\arduinoLCD\test\Pain Drain\libraries\lvgl\src\core/lv_group.c ****  * Find an indev preferably with KEYPAD or ENCOEDR type that uses the given group.
 471:..\..\..\arduinoLCD\test\Pain Drain\libraries\lvgl\src\core/lv_group.c ****  * In other words, find an indev, that is related to the given group.
 472:..\..\..\arduinoLCD\test\Pain Drain\libraries\lvgl\src\core/lv_group.c ****  * In the worst case simply return the latest indev
 473:..\..\..\arduinoLCD\test\Pain Drain\libraries\lvgl\src\core/lv_group.c ****  * @param g     a group the find in the indevs
 474:..\..\..\arduinoLCD\test\Pain Drain\libraries\lvgl\src\core/lv_group.c ****  * @return      the suggested indev
 475:..\..\..\arduinoLCD\test\Pain Drain\libraries\lvgl\src\core/lv_group.c ****  */
 476:..\..\..\arduinoLCD\test\Pain Drain\libraries\lvgl\src\core/lv_group.c **** static lv_indev_t * get_indev(const lv_group_t * g)
 477:..\..\..\arduinoLCD\test\Pain Drain\libraries\lvgl\src\core/lv_group.c **** {
  27              		.loc 1 477 0
  28              		.cfi_startproc
  29              		@ args = 0, pretend = 0, frame = 0
  30              		@ frame_needed = 0, uses_anonymous_args = 0
  31              	.LVL0:
  32 0000 F8B5     		push	{r3, r4, r5, r6, r7, lr}
  33              		.cfi_def_cfa_offset 24
  34              		.cfi_offset 3, -24
  35              		.cfi_offset 4, -20
  36              		.cfi_offset 5, -16
ARM GAS  C:\Users\haske\AppData\Local\Temp\ccHGZgRG.s 			page 10


  37              		.cfi_offset 6, -12
  38              		.cfi_offset 7, -8
  39              		.cfi_offset 14, -4
  40 0002 0700     		movs	r7, r0
  41              	.LVL1:
 478:..\..\..\arduinoLCD\test\Pain Drain\libraries\lvgl\src\core/lv_group.c ****     lv_indev_t * indev_encoder = NULL;
 479:..\..\..\arduinoLCD\test\Pain Drain\libraries\lvgl\src\core/lv_group.c ****     lv_indev_t * indev_group = NULL;
 480:..\..\..\arduinoLCD\test\Pain Drain\libraries\lvgl\src\core/lv_group.c ****     lv_indev_t * indev = lv_indev_get_next(NULL);
  42              		.loc 1 480 0
  43 0004 0020     		movs	r0, #0
  44              	.LVL2:
  45 0006 FFF7FEFF 		bl	lv_indev_get_next
  46              	.LVL3:
  47 000a 0400     		movs	r4, r0
  48              	.LVL4:
 479:..\..\..\arduinoLCD\test\Pain Drain\libraries\lvgl\src\core/lv_group.c ****     lv_indev_t * indev = lv_indev_get_next(NULL);
  49              		.loc 1 479 0
  50 000c 0025     		movs	r5, #0
 478:..\..\..\arduinoLCD\test\Pain Drain\libraries\lvgl\src\core/lv_group.c ****     lv_indev_t * indev_encoder = NULL;
  51              		.loc 1 478 0
  52 000e 0026     		movs	r6, #0
 481:..\..\..\arduinoLCD\test\Pain Drain\libraries\lvgl\src\core/lv_group.c ****     while(indev) {
  53              		.loc 1 481 0
  54 0010 11E0     		b	.L2
  55              	.LVL5:
  56              	.L5:
  57              	.LBB2:
 482:..\..\..\arduinoLCD\test\Pain Drain\libraries\lvgl\src\core/lv_group.c ****         lv_indev_type_t indev_type = lv_indev_get_type(indev);
  58              		.loc 1 482 0
  59 0012 2000     		movs	r0, r4
  60              	.LVL6:
  61 0014 FFF7FEFF 		bl	lv_indev_get_type
  62              	.LVL7:
 483:..\..\..\arduinoLCD\test\Pain Drain\libraries\lvgl\src\core/lv_group.c ****         if(indev->group == g) {
  63              		.loc 1 483 0
  64 0018 636D     		ldr	r3, [r4, #84]
  65 001a BB42     		cmp	r3, r7
  66 001c 07D1     		bne	.L3
 484:..\..\..\arduinoLCD\test\Pain Drain\libraries\lvgl\src\core/lv_group.c ****             /*Prefer KEYPAD*/
 485:..\..\..\arduinoLCD\test\Pain Drain\libraries\lvgl\src\core/lv_group.c ****             if(indev_type == LV_INDEV_TYPE_KEYPAD) return indev;
  67              		.loc 1 485 0
  68 001e 0228     		cmp	r0, #2
  69 0020 13D0     		beq	.L6
 486:..\..\..\arduinoLCD\test\Pain Drain\libraries\lvgl\src\core/lv_group.c ****             if(indev_type == LV_INDEV_TYPE_ENCODER) indev_encoder = indev;
  70              		.loc 1 486 0
  71 0022 0428     		cmp	r0, #4
  72 0024 01D0     		beq	.L7
 487:..\..\..\arduinoLCD\test\Pain Drain\libraries\lvgl\src\core/lv_group.c ****             indev_group = indev;
  73              		.loc 1 487 0
  74 0026 2500     		movs	r5, r4
  75              	.LVL8:
  76 0028 01E0     		b	.L3
  77              	.LVL9:
  78              	.L7:
  79 002a 2500     		movs	r5, r4
  80              	.LVL10:
 486:..\..\..\arduinoLCD\test\Pain Drain\libraries\lvgl\src\core/lv_group.c ****             if(indev_type == LV_INDEV_TYPE_ENCODER) indev_encoder = indev;
ARM GAS  C:\Users\haske\AppData\Local\Temp\ccHGZgRG.s 			page 11


  81              		.loc 1 486 0
  82 002c 2600     		movs	r6, r4
  83              	.LVL11:
  84              	.L3:
 488:..\..\..\arduinoLCD\test\Pain Drain\libraries\lvgl\src\core/lv_group.c ****         }
 489:..\..\..\arduinoLCD\test\Pain Drain\libraries\lvgl\src\core/lv_group.c ****         indev = lv_indev_get_next(indev);
  85              		.loc 1 489 0
  86 002e 2000     		movs	r0, r4
  87              	.LVL12:
  88 0030 FFF7FEFF 		bl	lv_indev_get_next
  89              	.LVL13:
  90 0034 0400     		movs	r4, r0
  91              	.LVL14:
  92              	.L2:
  93              	.LBE2:
 481:..\..\..\arduinoLCD\test\Pain Drain\libraries\lvgl\src\core/lv_group.c ****         lv_indev_type_t indev_type = lv_indev_get_type(indev);
  94              		.loc 1 481 0
  95 0036 002C     		cmp	r4, #0
  96 0038 EBD1     		bne	.L5
 490:..\..\..\arduinoLCD\test\Pain Drain\libraries\lvgl\src\core/lv_group.c ****     }
 491:..\..\..\arduinoLCD\test\Pain Drain\libraries\lvgl\src\core/lv_group.c **** 
 492:..\..\..\arduinoLCD\test\Pain Drain\libraries\lvgl\src\core/lv_group.c ****     if(indev_encoder) return indev_encoder;
  97              		.loc 1 492 0
  98 003a 002E     		cmp	r6, #0
  99 003c 07D1     		bne	.L8
 493:..\..\..\arduinoLCD\test\Pain Drain\libraries\lvgl\src\core/lv_group.c ****     if(indev_group) return indev_group;
 100              		.loc 1 493 0
 101 003e 002D     		cmp	r5, #0
 102 0040 07D1     		bne	.L9
 494:..\..\..\arduinoLCD\test\Pain Drain\libraries\lvgl\src\core/lv_group.c **** 
 495:..\..\..\arduinoLCD\test\Pain Drain\libraries\lvgl\src\core/lv_group.c ****     /*In lack of a better option use the first input device. (It can be NULL if there is no input d
 496:..\..\..\arduinoLCD\test\Pain Drain\libraries\lvgl\src\core/lv_group.c ****     return lv_indev_get_next(NULL);
 103              		.loc 1 496 0
 104 0042 0020     		movs	r0, #0
 105              	.LVL15:
 106 0044 FFF7FEFF 		bl	lv_indev_get_next
 107              	.LVL16:
 108 0048 04E0     		b	.L4
 109              	.LVL17:
 110              	.L6:
 111              	.LBB3:
 485:..\..\..\arduinoLCD\test\Pain Drain\libraries\lvgl\src\core/lv_group.c ****             if(indev_type == LV_INDEV_TYPE_ENCODER) indev_encoder = indev;
 112              		.loc 1 485 0
 113 004a 2000     		movs	r0, r4
 114              	.LVL18:
 115 004c 02E0     		b	.L4
 116              	.LVL19:
 117              	.L8:
 118              	.LBE3:
 492:..\..\..\arduinoLCD\test\Pain Drain\libraries\lvgl\src\core/lv_group.c ****     if(indev_group) return indev_group;
 119              		.loc 1 492 0
 120 004e 3000     		movs	r0, r6
 121              	.LVL20:
 122 0050 00E0     		b	.L4
 123              	.LVL21:
 124              	.L9:
 493:..\..\..\arduinoLCD\test\Pain Drain\libraries\lvgl\src\core/lv_group.c **** 
ARM GAS  C:\Users\haske\AppData\Local\Temp\ccHGZgRG.s 			page 12


 125              		.loc 1 493 0
 126 0052 2800     		movs	r0, r5
 127              	.LVL22:
 128              	.L4:
 497:..\..\..\arduinoLCD\test\Pain Drain\libraries\lvgl\src\core/lv_group.c **** }
 129              		.loc 1 497 0
 130              		@ sp needed
 131              	.LVL23:
 132              	.LVL24:
 133              	.LVL25:
 134              	.LVL26:
 135 0054 F8BD     		pop	{r3, r4, r5, r6, r7, pc}
 136              		.cfi_endproc
 137              	.LFE186:
 138              		.size	get_indev, .-get_indev
 139 0056 C046     		.section	.text.focus_next_core,"ax",%progbits
 140              		.align	2
 141              		.code	16
 142              		.thumb_func
 143              		.type	focus_next_core, %function
 144              	focus_next_core:
 145              	.LFB185:
 395:..\..\..\arduinoLCD\test\Pain Drain\libraries\lvgl\src\core/lv_group.c ****     bool focus_changed = false;
 146              		.loc 1 395 0
 147              		.cfi_startproc
 148              		@ args = 0, pretend = 0, frame = 8
 149              		@ frame_needed = 0, uses_anonymous_args = 0
 150              	.LVL27:
 151 0000 F0B5     		push	{r4, r5, r6, r7, lr}
 152              		.cfi_def_cfa_offset 20
 153              		.cfi_offset 4, -20
 154              		.cfi_offset 5, -16
 155              		.cfi_offset 6, -12
 156              		.cfi_offset 7, -8
 157              		.cfi_offset 14, -4
 158 0002 5746     		mov	r7, r10
 159 0004 4E46     		mov	r6, r9
 160 0006 C0B4     		push	{r6, r7}
 161              		.cfi_def_cfa_offset 28
 162              		.cfi_offset 9, -28
 163              		.cfi_offset 10, -24
 164 0008 83B0     		sub	sp, sp, #12
 165              		.cfi_def_cfa_offset 40
 166 000a 0700     		movs	r7, r0
 167 000c 0191     		str	r1, [sp, #4]
 168 000e 9146     		mov	r9, r2
 169              	.LVL28:
 397:..\..\..\arduinoLCD\test\Pain Drain\libraries\lvgl\src\core/lv_group.c **** 
 170              		.loc 1 397 0
 171 0010 037F     		ldrb	r3, [r0, #28]
 172 0012 DB07     		lsls	r3, r3, #31
 173 0014 6AD4     		bmi	.L23
 399:..\..\..\arduinoLCD\test\Pain Drain\libraries\lvgl\src\core/lv_group.c ****     lv_obj_t ** obj_sentinel = NULL;
 174              		.loc 1 399 0
 175 0016 C568     		ldr	r5, [r0, #12]
 176              	.LVL29:
 402:..\..\..\arduinoLCD\test\Pain Drain\libraries\lvgl\src\core/lv_group.c **** 
ARM GAS  C:\Users\haske\AppData\Local\Temp\ccHGZgRG.s 			page 13


 177              		.loc 1 402 0
 178 0018 0123     		movs	r3, #1
 179 001a 9A46     		mov	r10, r3
 400:..\..\..\arduinoLCD\test\Pain Drain\libraries\lvgl\src\core/lv_group.c ****     bool can_move            = true;
 180              		.loc 1 400 0
 181 001c 0026     		movs	r6, #0
 182              	.LVL30:
 183              	.L12:
 184              	.LBB4:
 405:..\..\..\arduinoLCD\test\Pain Drain\libraries\lvgl\src\core/lv_group.c ****             if(group->wrap || obj_sentinel == NULL) {
 185              		.loc 1 405 0
 186 001e 002D     		cmp	r5, #0
 187 0020 0ED1     		bne	.L24
 406:..\..\..\arduinoLCD\test\Pain Drain\libraries\lvgl\src\core/lv_group.c ****                 if(!can_begin) return focus_changed;
 188              		.loc 1 406 0
 189 0022 3B7F     		ldrb	r3, [r7, #28]
 190 0024 1B07     		lsls	r3, r3, #28
 191 0026 01D4     		bmi	.L14
 406:..\..\..\arduinoLCD\test\Pain Drain\libraries\lvgl\src\core/lv_group.c ****                 if(!can_begin) return focus_changed;
 192              		.loc 1 406 0 is_stmt 0 discriminator 1
 193 0028 002E     		cmp	r6, #0
 194 002a 61D1     		bne	.L25
 195              	.L14:
 407:..\..\..\arduinoLCD\test\Pain Drain\libraries\lvgl\src\core/lv_group.c ****                 obj_next  = begin(&group->obj_ll);
 196              		.loc 1 407 0 is_stmt 1
 197 002c 5346     		mov	r3, r10
 198 002e 002B     		cmp	r3, #0
 199 0030 60D0     		beq	.L26
 408:..\..\..\arduinoLCD\test\Pain Drain\libraries\lvgl\src\core/lv_group.c ****                 can_move  = false;
 200              		.loc 1 408 0
 201 0032 3800     		movs	r0, r7
 202 0034 019B     		ldr	r3, [sp, #4]
 203 0036 9847     		blx	r3
 204              	.LVL31:
 205 0038 0500     		movs	r5, r0
 206              	.LVL32:
 410:..\..\..\arduinoLCD\test\Pain Drain\libraries\lvgl\src\core/lv_group.c ****             }
 207              		.loc 1 410 0
 208 003a 0023     		movs	r3, #0
 209 003c 9A46     		mov	r10, r3
 210 003e 00E0     		b	.L13
 211              	.LVL33:
 212              	.L24:
 213 0040 0123     		movs	r3, #1
 214              	.LVL34:
 215              	.L13:
 418:..\..\..\arduinoLCD\test\Pain Drain\libraries\lvgl\src\core/lv_group.c ****             obj_sentinel = obj_next;
 216              		.loc 1 418 0
 217 0042 002E     		cmp	r6, #0
 218 0044 02D1     		bne	.L15
 219              	.LVL35:
 420:..\..\..\arduinoLCD\test\Pain Drain\libraries\lvgl\src\core/lv_group.c ****         }
 220              		.loc 1 420 0
 221 0046 002D     		cmp	r5, #0
 222 0048 56D0     		beq	.L27
 419:..\..\..\arduinoLCD\test\Pain Drain\libraries\lvgl\src\core/lv_group.c ****             if(obj_sentinel == NULL) return focus_changed; /*Group is empty*/
 223              		.loc 1 419 0
ARM GAS  C:\Users\haske\AppData\Local\Temp\ccHGZgRG.s 			page 14


 224 004a 2E00     		movs	r6, r5
 225              	.LVL36:
 226              	.L15:
 423:..\..\..\arduinoLCD\test\Pain Drain\libraries\lvgl\src\core/lv_group.c ****             obj_next = move(&group->obj_ll, obj_next);
 227              		.loc 1 423 0
 228 004c 002B     		cmp	r3, #0
 229 004e 05D0     		beq	.L16
 424:..\..\..\arduinoLCD\test\Pain Drain\libraries\lvgl\src\core/lv_group.c **** 
 230              		.loc 1 424 0
 231 0050 2900     		movs	r1, r5
 232 0052 3800     		movs	r0, r7
 233 0054 C847     		blx	r9
 234              	.LVL37:
 235 0056 0500     		movs	r5, r0
 236              	.LVL38:
 427:..\..\..\arduinoLCD\test\Pain Drain\libraries\lvgl\src\core/lv_group.c ****         }
 237              		.loc 1 427 0
 238 0058 8642     		cmp	r6, r0
 239 005a 4FD0     		beq	.L28
 240              	.LVL39:
 241              	.L16:
 432:..\..\..\arduinoLCD\test\Pain Drain\libraries\lvgl\src\core/lv_group.c ****         if(lv_obj_get_state(*obj_next) & LV_STATE_DISABLED) continue;
 242              		.loc 1 432 0
 243 005c 002D     		cmp	r5, #0
 244 005e DED0     		beq	.L12
 433:..\..\..\arduinoLCD\test\Pain Drain\libraries\lvgl\src\core/lv_group.c **** 
 245              		.loc 1 433 0
 246 0060 2868     		ldr	r0, [r5]
 247 0062 FFF7FEFF 		bl	lv_obj_get_state
 248              	.LVL40:
 249 0066 0306     		lsls	r3, r0, #24
 250 0068 D9D4     		bmi	.L12
 437:..\..\..\arduinoLCD\test\Pain Drain\libraries\lvgl\src\core/lv_group.c ****         while(parent) {
 251              		.loc 1 437 0
 252 006a 2C68     		ldr	r4, [r5]
 253              	.LVL41:
 438:..\..\..\arduinoLCD\test\Pain Drain\libraries\lvgl\src\core/lv_group.c ****             if(lv_obj_has_flag(parent, LV_OBJ_FLAG_HIDDEN)) break;
 254              		.loc 1 438 0
 255 006c 09E0     		b	.L18
 256              	.L20:
 439:..\..\..\arduinoLCD\test\Pain Drain\libraries\lvgl\src\core/lv_group.c ****             parent = lv_obj_get_parent(parent);
 257              		.loc 1 439 0
 258 006e 0121     		movs	r1, #1
 259 0070 2000     		movs	r0, r4
 260 0072 FFF7FEFF 		bl	lv_obj_has_flag
 261              	.LVL42:
 262 0076 0028     		cmp	r0, #0
 263 0078 05D1     		bne	.L19
 440:..\..\..\arduinoLCD\test\Pain Drain\libraries\lvgl\src\core/lv_group.c ****         }
 264              		.loc 1 440 0
 265 007a 2000     		movs	r0, r4
 266 007c FFF7FEFF 		bl	lv_obj_get_parent
 267              	.LVL43:
 268 0080 0400     		movs	r4, r0
 269              	.LVL44:
 270              	.L18:
 438:..\..\..\arduinoLCD\test\Pain Drain\libraries\lvgl\src\core/lv_group.c ****             if(lv_obj_has_flag(parent, LV_OBJ_FLAG_HIDDEN)) break;
ARM GAS  C:\Users\haske\AppData\Local\Temp\ccHGZgRG.s 			page 15


 271              		.loc 1 438 0
 272 0082 002C     		cmp	r4, #0
 273 0084 F3D1     		bne	.L20
 274              	.L19:
 443:..\..\..\arduinoLCD\test\Pain Drain\libraries\lvgl\src\core/lv_group.c **** 
 275              		.loc 1 443 0
 276 0086 002C     		cmp	r4, #0
 277 0088 05D0     		beq	.L21
 443:..\..\..\arduinoLCD\test\Pain Drain\libraries\lvgl\src\core/lv_group.c **** 
 278              		.loc 1 443 0 is_stmt 0 discriminator 1
 279 008a 0121     		movs	r1, #1
 280 008c 2000     		movs	r0, r4
 281 008e FFF7FEFF 		bl	lv_obj_has_flag
 282              	.LVL45:
 283 0092 0028     		cmp	r0, #0
 284 0094 C3D1     		bne	.L12
 285              	.L21:
 286              	.LBE4:
 449:..\..\..\arduinoLCD\test\Pain Drain\libraries\lvgl\src\core/lv_group.c **** 
 287              		.loc 1 449 0 is_stmt 1
 288 0096 FB68     		ldr	r3, [r7, #12]
 289 0098 9D42     		cmp	r5, r3
 290 009a 31D0     		beq	.L29
 451:..\..\..\arduinoLCD\test\Pain Drain\libraries\lvgl\src\core/lv_group.c ****         lv_res_t res = lv_event_send(*group->obj_focus, LV_EVENT_DEFOCUSED, get_indev(group));
 291              		.loc 1 451 0
 292 009c 002B     		cmp	r3, #0
 293 009e 0ED0     		beq	.L22
 294              	.LBB5:
 452:..\..\..\arduinoLCD\test\Pain Drain\libraries\lvgl\src\core/lv_group.c ****         if(res != LV_RES_OK) return focus_changed;
 295              		.loc 1 452 0
 296 00a0 1C68     		ldr	r4, [r3]
 297              	.LVL46:
 298 00a2 3800     		movs	r0, r7
 299 00a4 FFF7FEFF 		bl	get_indev
 300              	.LVL47:
 301 00a8 0200     		movs	r2, r0
 302 00aa 0F21     		movs	r1, #15
 303 00ac 2000     		movs	r0, r4
 304 00ae FFF7FEFF 		bl	lv_event_send
 305              	.LVL48:
 453:..\..\..\arduinoLCD\test\Pain Drain\libraries\lvgl\src\core/lv_group.c ****         lv_obj_invalidate(*group->obj_focus);
 306              		.loc 1 453 0
 307 00b2 0128     		cmp	r0, #1
 308 00b4 26D1     		bne	.L30
 454:..\..\..\arduinoLCD\test\Pain Drain\libraries\lvgl\src\core/lv_group.c ****     }
 309              		.loc 1 454 0
 310 00b6 FB68     		ldr	r3, [r7, #12]
 311 00b8 1868     		ldr	r0, [r3]
 312              	.LVL49:
 313 00ba FFF7FEFF 		bl	lv_obj_invalidate
 314              	.LVL50:
 315              	.L22:
 316              	.LBE5:
 457:..\..\..\arduinoLCD\test\Pain Drain\libraries\lvgl\src\core/lv_group.c **** 
 317              		.loc 1 457 0
 318 00be FD60     		str	r5, [r7, #12]
 459:..\..\..\arduinoLCD\test\Pain Drain\libraries\lvgl\src\core/lv_group.c ****     if(res != LV_RES_OK) return focus_changed;
ARM GAS  C:\Users\haske\AppData\Local\Temp\ccHGZgRG.s 			page 16


 319              		.loc 1 459 0
 320 00c0 2C68     		ldr	r4, [r5]
 321 00c2 3800     		movs	r0, r7
 322 00c4 FFF7FEFF 		bl	get_indev
 323              	.LVL51:
 324 00c8 0200     		movs	r2, r0
 325 00ca 0E21     		movs	r1, #14
 326 00cc 2000     		movs	r0, r4
 327 00ce FFF7FEFF 		bl	lv_event_send
 328              	.LVL52:
 460:..\..\..\arduinoLCD\test\Pain Drain\libraries\lvgl\src\core/lv_group.c **** 
 329              		.loc 1 460 0
 330 00d2 0128     		cmp	r0, #1
 331 00d4 18D1     		bne	.L31
 462:..\..\..\arduinoLCD\test\Pain Drain\libraries\lvgl\src\core/lv_group.c **** 
 332              		.loc 1 462 0
 333 00d6 FB68     		ldr	r3, [r7, #12]
 334 00d8 1868     		ldr	r0, [r3]
 335              	.LVL53:
 336 00da FFF7FEFF 		bl	lv_obj_invalidate
 337              	.LVL54:
 464:..\..\..\arduinoLCD\test\Pain Drain\libraries\lvgl\src\core/lv_group.c ****     focus_changed = true;
 338              		.loc 1 464 0
 339 00de 3B69     		ldr	r3, [r7, #16]
 340 00e0 002B     		cmp	r3, #0
 341 00e2 13D0     		beq	.L32
 464:..\..\..\arduinoLCD\test\Pain Drain\libraries\lvgl\src\core/lv_group.c ****     focus_changed = true;
 342              		.loc 1 464 0 is_stmt 0 discriminator 1
 343 00e4 3800     		movs	r0, r7
 344 00e6 9847     		blx	r3
 345              	.LVL55:
 466:..\..\..\arduinoLCD\test\Pain Drain\libraries\lvgl\src\core/lv_group.c **** }
 346              		.loc 1 466 0 is_stmt 1 discriminator 1
 347 00e8 0120     		movs	r0, #1
 348 00ea 10E0     		b	.L11
 349              	.LVL56:
 350              	.L23:
 397:..\..\..\arduinoLCD\test\Pain Drain\libraries\lvgl\src\core/lv_group.c **** 
 351              		.loc 1 397 0
 352 00ec 0020     		movs	r0, #0
 353              	.LVL57:
 354 00ee 0EE0     		b	.L11
 355              	.LVL58:
 356              	.L25:
 357              	.LBB6:
 414:..\..\..\arduinoLCD\test\Pain Drain\libraries\lvgl\src\core/lv_group.c ****             }
 358              		.loc 1 414 0
 359 00f0 0020     		movs	r0, #0
 360 00f2 0CE0     		b	.L11
 361              	.L26:
 407:..\..\..\arduinoLCD\test\Pain Drain\libraries\lvgl\src\core/lv_group.c ****                 obj_next  = begin(&group->obj_ll);
 362              		.loc 1 407 0
 363 00f4 0020     		movs	r0, #0
 364 00f6 0AE0     		b	.L11
 365              	.LVL59:
 366              	.L27:
 420:..\..\..\arduinoLCD\test\Pain Drain\libraries\lvgl\src\core/lv_group.c ****         }
ARM GAS  C:\Users\haske\AppData\Local\Temp\ccHGZgRG.s 			page 17


 367              		.loc 1 420 0
 368 00f8 0020     		movs	r0, #0
 369 00fa 08E0     		b	.L11
 370              	.LVL60:
 371              	.L28:
 427:..\..\..\arduinoLCD\test\Pain Drain\libraries\lvgl\src\core/lv_group.c ****         }
 372              		.loc 1 427 0
 373 00fc 0020     		movs	r0, #0
 374              	.LVL61:
 375 00fe 06E0     		b	.L11
 376              	.LVL62:
 377              	.L29:
 378              	.LBE6:
 449:..\..\..\arduinoLCD\test\Pain Drain\libraries\lvgl\src\core/lv_group.c **** 
 379              		.loc 1 449 0
 380 0100 0020     		movs	r0, #0
 381 0102 04E0     		b	.L11
 382              	.LVL63:
 383              	.L30:
 384              	.LBB7:
 453:..\..\..\arduinoLCD\test\Pain Drain\libraries\lvgl\src\core/lv_group.c ****         lv_obj_invalidate(*group->obj_focus);
 385              		.loc 1 453 0
 386 0104 0020     		movs	r0, #0
 387              	.LVL64:
 388 0106 02E0     		b	.L11
 389              	.LVL65:
 390              	.L31:
 391              	.LBE7:
 460:..\..\..\arduinoLCD\test\Pain Drain\libraries\lvgl\src\core/lv_group.c **** 
 392              		.loc 1 460 0
 393 0108 0020     		movs	r0, #0
 394              	.LVL66:
 395 010a 00E0     		b	.L11
 396              	.L32:
 466:..\..\..\arduinoLCD\test\Pain Drain\libraries\lvgl\src\core/lv_group.c **** }
 397              		.loc 1 466 0
 398 010c 0120     		movs	r0, #1
 399              	.LVL67:
 400              	.L11:
 467:..\..\..\arduinoLCD\test\Pain Drain\libraries\lvgl\src\core/lv_group.c **** 
 401              		.loc 1 467 0
 402 010e 03B0     		add	sp, sp, #12
 403              		@ sp needed
 404              	.LVL68:
 405              	.LVL69:
 406 0110 0CBC     		pop	{r2, r3}
 407 0112 9146     		mov	r9, r2
 408 0114 9A46     		mov	r10, r3
 409 0116 F0BD     		pop	{r4, r5, r6, r7, pc}
 410              		.cfi_endproc
 411              	.LFE185:
 412              		.size	focus_next_core, .-focus_next_core
 413              		.section	.text._lv_group_init,"ax",%progbits
 414              		.align	2
 415              		.global	_lv_group_init
 416              		.code	16
 417              		.thumb_func
ARM GAS  C:\Users\haske\AppData\Local\Temp\ccHGZgRG.s 			page 18


 418              		.type	_lv_group_init, %function
 419              	_lv_group_init:
 420              	.LFB159:
  46:..\..\..\arduinoLCD\test\Pain Drain\libraries\lvgl\src\core/lv_group.c ****     _lv_ll_init(&LV_GC_ROOT(_lv_group_ll), sizeof(lv_group_t));
 421              		.loc 1 46 0
 422              		.cfi_startproc
 423              		@ args = 0, pretend = 0, frame = 0
 424              		@ frame_needed = 0, uses_anonymous_args = 0
 425 0000 10B5     		push	{r4, lr}
 426              		.cfi_def_cfa_offset 8
 427              		.cfi_offset 4, -8
 428              		.cfi_offset 14, -4
  47:..\..\..\arduinoLCD\test\Pain Drain\libraries\lvgl\src\core/lv_group.c **** }
 429              		.loc 1 47 0
 430 0002 2021     		movs	r1, #32
 431 0004 0148     		ldr	r0, .L34
 432 0006 FFF7FEFF 		bl	_lv_ll_init
 433              	.LVL70:
  48:..\..\..\arduinoLCD\test\Pain Drain\libraries\lvgl\src\core/lv_group.c **** 
 434              		.loc 1 48 0
 435              		@ sp needed
 436 000a 10BD     		pop	{r4, pc}
 437              	.L35:
 438              		.align	2
 439              	.L34:
 440 000c 00000000 		.word	_lv_group_ll
 441              		.cfi_endproc
 442              	.LFE159:
 443              		.size	_lv_group_init, .-_lv_group_init
 444              		.section	.text.lv_group_create,"ax",%progbits
 445              		.align	2
 446              		.global	lv_group_create
 447              		.code	16
 448              		.thumb_func
 449              		.type	lv_group_create, %function
 450              	lv_group_create:
 451              	.LFB160:
  51:..\..\..\arduinoLCD\test\Pain Drain\libraries\lvgl\src\core/lv_group.c ****     lv_group_t * group = _lv_ll_ins_head(&LV_GC_ROOT(_lv_group_ll));
 452              		.loc 1 51 0
 453              		.cfi_startproc
 454              		@ args = 0, pretend = 0, frame = 0
 455              		@ frame_needed = 0, uses_anonymous_args = 0
 456 0000 10B5     		push	{r4, lr}
 457              		.cfi_def_cfa_offset 8
 458              		.cfi_offset 4, -8
 459              		.cfi_offset 14, -4
  52:..\..\..\arduinoLCD\test\Pain Drain\libraries\lvgl\src\core/lv_group.c ****     LV_ASSERT_MALLOC(group);
 460              		.loc 1 52 0
 461 0002 1048     		ldr	r0, .L41
 462 0004 FFF7FEFF 		bl	_lv_ll_ins_head
 463              	.LVL71:
 464 0008 041E     		subs	r4, r0, #0
 465              	.LVL72:
  53:..\..\..\arduinoLCD\test\Pain Drain\libraries\lvgl\src\core/lv_group.c ****     if(group == NULL) return NULL;
 466              		.loc 1 53 0
 467 000a 00D1     		bne	.L37
 468              	.L38:
ARM GAS  C:\Users\haske\AppData\Local\Temp\ccHGZgRG.s 			page 19


 469 000c FEE7     		b	.L38
 470              	.L37:
  54:..\..\..\arduinoLCD\test\Pain Drain\libraries\lvgl\src\core/lv_group.c ****     _lv_ll_init(&group->obj_ll, sizeof(lv_obj_t *));
 471              		.loc 1 54 0
 472 000e 0028     		cmp	r0, #0
 473 0010 15D0     		beq	.L40
  55:..\..\..\arduinoLCD\test\Pain Drain\libraries\lvgl\src\core/lv_group.c **** 
 474              		.loc 1 55 0
 475 0012 0421     		movs	r1, #4
 476 0014 FFF7FEFF 		bl	_lv_ll_init
 477              	.LVL73:
  57:..\..\..\arduinoLCD\test\Pain Drain\libraries\lvgl\src\core/lv_group.c ****     group->frozen         = 0;
 478              		.loc 1 57 0
 479 0018 0021     		movs	r1, #0
 480 001a E160     		str	r1, [r4, #12]
  58:..\..\..\arduinoLCD\test\Pain Drain\libraries\lvgl\src\core/lv_group.c ****     group->focus_cb       = NULL;
 481              		.loc 1 58 0
 482 001c 237F     		ldrb	r3, [r4, #28]
  59:..\..\..\arduinoLCD\test\Pain Drain\libraries\lvgl\src\core/lv_group.c ****     group->edge_cb        = NULL;
 483              		.loc 1 59 0
 484 001e 2161     		str	r1, [r4, #16]
  60:..\..\..\arduinoLCD\test\Pain Drain\libraries\lvgl\src\core/lv_group.c ****     group->editing        = 0;
 485              		.loc 1 60 0
 486 0020 6161     		str	r1, [r4, #20]
  61:..\..\..\arduinoLCD\test\Pain Drain\libraries\lvgl\src\core/lv_group.c ****     group->refocus_policy = LV_GROUP_REFOCUS_POLICY_PREV;
 487              		.loc 1 61 0
 488 0022 0122     		movs	r2, #1
 489 0024 9343     		bics	r3, r2
  62:..\..\..\arduinoLCD\test\Pain Drain\libraries\lvgl\src\core/lv_group.c ****     group->wrap           = 1;
 490              		.loc 1 62 0
 491 0026 0132     		adds	r2, r2, #1
 492 0028 9343     		bics	r3, r2
 493 002a 1A00     		movs	r2, r3
 494 002c 0423     		movs	r3, #4
 495 002e 1343     		orrs	r3, r2
  63:..\..\..\arduinoLCD\test\Pain Drain\libraries\lvgl\src\core/lv_group.c **** 
 496              		.loc 1 63 0
 497 0030 DBB2     		uxtb	r3, r3
 498 0032 0822     		movs	r2, #8
 499 0034 1343     		orrs	r3, r2
 500 0036 2377     		strb	r3, [r4, #28]
  66:..\..\..\arduinoLCD\test\Pain Drain\libraries\lvgl\src\core/lv_group.c **** #endif
 501              		.loc 1 66 0
 502 0038 A161     		str	r1, [r4, #24]
  69:..\..\..\arduinoLCD\test\Pain Drain\libraries\lvgl\src\core/lv_group.c **** }
 503              		.loc 1 69 0
 504 003a 2000     		movs	r0, r4
 505 003c 00E0     		b	.L39
 506              	.LVL74:
 507              	.L40:
  54:..\..\..\arduinoLCD\test\Pain Drain\libraries\lvgl\src\core/lv_group.c ****     _lv_ll_init(&group->obj_ll, sizeof(lv_obj_t *));
 508              		.loc 1 54 0
 509 003e 0020     		movs	r0, #0
 510              	.LVL75:
 511              	.L39:
  70:..\..\..\arduinoLCD\test\Pain Drain\libraries\lvgl\src\core/lv_group.c **** 
 512              		.loc 1 70 0
ARM GAS  C:\Users\haske\AppData\Local\Temp\ccHGZgRG.s 			page 20


 513              		@ sp needed
 514              	.LVL76:
 515 0040 10BD     		pop	{r4, pc}
 516              	.L42:
 517 0042 C046     		.align	2
 518              	.L41:
 519 0044 00000000 		.word	_lv_group_ll
 520              		.cfi_endproc
 521              	.LFE160:
 522              		.size	lv_group_create, .-lv_group_create
 523              		.section	.text.lv_group_del,"ax",%progbits
 524              		.align	2
 525              		.global	lv_group_del
 526              		.code	16
 527              		.thumb_func
 528              		.type	lv_group_del, %function
 529              	lv_group_del:
 530              	.LFB161:
  73:..\..\..\arduinoLCD\test\Pain Drain\libraries\lvgl\src\core/lv_group.c ****     /*Defocus the currently focused object*/
 531              		.loc 1 73 0
 532              		.cfi_startproc
 533              		@ args = 0, pretend = 0, frame = 0
 534              		@ frame_needed = 0, uses_anonymous_args = 0
 535              	.LVL77:
 536 0000 70B5     		push	{r4, r5, r6, lr}
 537              		.cfi_def_cfa_offset 16
 538              		.cfi_offset 4, -16
 539              		.cfi_offset 5, -12
 540              		.cfi_offset 6, -8
 541              		.cfi_offset 14, -4
 542 0002 0500     		movs	r5, r0
  75:..\..\..\arduinoLCD\test\Pain Drain\libraries\lvgl\src\core/lv_group.c ****         lv_event_send(*group->obj_focus, LV_EVENT_DEFOCUSED, get_indev(group));
 543              		.loc 1 75 0
 544 0004 C368     		ldr	r3, [r0, #12]
 545 0006 002B     		cmp	r3, #0
 546 0008 0BD0     		beq	.L44
  76:..\..\..\arduinoLCD\test\Pain Drain\libraries\lvgl\src\core/lv_group.c ****         lv_obj_invalidate(*group->obj_focus);
 547              		.loc 1 76 0
 548 000a 1C68     		ldr	r4, [r3]
 549 000c FFF7FEFF 		bl	get_indev
 550              	.LVL78:
 551 0010 0200     		movs	r2, r0
 552 0012 0F21     		movs	r1, #15
 553 0014 2000     		movs	r0, r4
 554 0016 FFF7FEFF 		bl	lv_event_send
 555              	.LVL79:
  77:..\..\..\arduinoLCD\test\Pain Drain\libraries\lvgl\src\core/lv_group.c ****     }
 556              		.loc 1 77 0
 557 001a EB68     		ldr	r3, [r5, #12]
 558 001c 1868     		ldr	r0, [r3]
 559 001e FFF7FEFF 		bl	lv_obj_invalidate
 560              	.LVL80:
 561              	.L44:
  82:..\..\..\arduinoLCD\test\Pain Drain\libraries\lvgl\src\core/lv_group.c ****         if((*obj)->spec_attr)(*obj)->spec_attr->group_p = NULL;
 562              		.loc 1 82 0
 563 0022 2C00     		movs	r4, r5
 564 0024 2800     		movs	r0, r5
ARM GAS  C:\Users\haske\AppData\Local\Temp\ccHGZgRG.s 			page 21


 565 0026 FFF7FEFF 		bl	_lv_ll_get_head
 566              	.LVL81:
 567 002a 09E0     		b	.L45
 568              	.LVL82:
 569              	.L47:
  83:..\..\..\arduinoLCD\test\Pain Drain\libraries\lvgl\src\core/lv_group.c ****     }
 570              		.loc 1 83 0
 571 002c 0368     		ldr	r3, [r0]
 572 002e 9B68     		ldr	r3, [r3, #8]
 573 0030 002B     		cmp	r3, #0
 574 0032 01D0     		beq	.L46
  83:..\..\..\arduinoLCD\test\Pain Drain\libraries\lvgl\src\core/lv_group.c ****     }
 575              		.loc 1 83 0 is_stmt 0 discriminator 1
 576 0034 0022     		movs	r2, #0
 577 0036 9A60     		str	r2, [r3, #8]
 578              	.L46:
  82:..\..\..\arduinoLCD\test\Pain Drain\libraries\lvgl\src\core/lv_group.c ****         if((*obj)->spec_attr)(*obj)->spec_attr->group_p = NULL;
 579              		.loc 1 82 0 is_stmt 1 discriminator 2
 580 0038 0100     		movs	r1, r0
 581 003a 2000     		movs	r0, r4
 582              	.LVL83:
 583 003c FFF7FEFF 		bl	_lv_ll_get_next
 584              	.LVL84:
 585              	.L45:
  82:..\..\..\arduinoLCD\test\Pain Drain\libraries\lvgl\src\core/lv_group.c ****         if((*obj)->spec_attr)(*obj)->spec_attr->group_p = NULL;
 586              		.loc 1 82 0 is_stmt 0 discriminator 1
 587 0040 0028     		cmp	r0, #0
 588 0042 F3D1     		bne	.L47
  87:..\..\..\arduinoLCD\test\Pain Drain\libraries\lvgl\src\core/lv_group.c ****     while(indev) {
 589              		.loc 1 87 0 is_stmt 1
 590 0044 FFF7FEFF 		bl	lv_indev_get_next
 591              	.LVL85:
 592 0048 0400     		movs	r4, r0
 593              	.LVL86:
  88:..\..\..\arduinoLCD\test\Pain Drain\libraries\lvgl\src\core/lv_group.c ****         if(indev->group == group) {
 594              		.loc 1 88 0
 595 004a 0AE0     		b	.L48
 596              	.L50:
  89:..\..\..\arduinoLCD\test\Pain Drain\libraries\lvgl\src\core/lv_group.c ****             lv_indev_set_group(indev, NULL);
 597              		.loc 1 89 0
 598 004c 636D     		ldr	r3, [r4, #84]
 599 004e 9D42     		cmp	r5, r3
 600 0050 03D1     		bne	.L49
  90:..\..\..\arduinoLCD\test\Pain Drain\libraries\lvgl\src\core/lv_group.c ****         }
 601              		.loc 1 90 0
 602 0052 0021     		movs	r1, #0
 603 0054 2000     		movs	r0, r4
 604 0056 FFF7FEFF 		bl	lv_indev_set_group
 605              	.LVL87:
 606              	.L49:
  92:..\..\..\arduinoLCD\test\Pain Drain\libraries\lvgl\src\core/lv_group.c ****     }
 607              		.loc 1 92 0
 608 005a 2000     		movs	r0, r4
 609 005c FFF7FEFF 		bl	lv_indev_get_next
 610              	.LVL88:
 611 0060 0400     		movs	r4, r0
 612              	.LVL89:
ARM GAS  C:\Users\haske\AppData\Local\Temp\ccHGZgRG.s 			page 22


 613              	.L48:
  88:..\..\..\arduinoLCD\test\Pain Drain\libraries\lvgl\src\core/lv_group.c ****         if(indev->group == group) {
 614              		.loc 1 88 0
 615 0062 002C     		cmp	r4, #0
 616 0064 F2D1     		bne	.L50
  95:..\..\..\arduinoLCD\test\Pain Drain\libraries\lvgl\src\core/lv_group.c ****     _lv_ll_clear(&(group->obj_ll));
 617              		.loc 1 95 0
 618 0066 094B     		ldr	r3, .L52
 619 0068 1B68     		ldr	r3, [r3]
 620 006a 9D42     		cmp	r5, r3
 621 006c 02D1     		bne	.L51
  95:..\..\..\arduinoLCD\test\Pain Drain\libraries\lvgl\src\core/lv_group.c ****     _lv_ll_clear(&(group->obj_ll));
 622              		.loc 1 95 0 is_stmt 0 discriminator 1
 623 006e 0022     		movs	r2, #0
 624 0070 064B     		ldr	r3, .L52
 625 0072 1A60     		str	r2, [r3]
 626              	.L51:
  96:..\..\..\arduinoLCD\test\Pain Drain\libraries\lvgl\src\core/lv_group.c ****     _lv_ll_remove(&LV_GC_ROOT(_lv_group_ll), group);
 627              		.loc 1 96 0 is_stmt 1
 628 0074 2800     		movs	r0, r5
 629              	.LVL90:
 630 0076 FFF7FEFF 		bl	_lv_ll_clear
 631              	.LVL91:
  97:..\..\..\arduinoLCD\test\Pain Drain\libraries\lvgl\src\core/lv_group.c ****     lv_mem_free(group);
 632              		.loc 1 97 0
 633 007a 2900     		movs	r1, r5
 634 007c 0448     		ldr	r0, .L52+4
 635 007e FFF7FEFF 		bl	_lv_ll_remove
 636              	.LVL92:
  98:..\..\..\arduinoLCD\test\Pain Drain\libraries\lvgl\src\core/lv_group.c **** }
 637              		.loc 1 98 0
 638 0082 2800     		movs	r0, r5
 639 0084 FFF7FEFF 		bl	lv_mem_free
 640              	.LVL93:
  99:..\..\..\arduinoLCD\test\Pain Drain\libraries\lvgl\src\core/lv_group.c **** 
 641              		.loc 1 99 0
 642              		@ sp needed
 643              	.LVL94:
 644              	.LVL95:
 645 0088 70BD     		pop	{r4, r5, r6, pc}
 646              	.L53:
 647 008a C046     		.align	2
 648              	.L52:
 649 008c 00000000 		.word	.LANCHOR0
 650 0090 00000000 		.word	_lv_group_ll
 651              		.cfi_endproc
 652              	.LFE161:
 653              		.size	lv_group_del, .-lv_group_del
 654              		.section	.text.lv_group_set_default,"ax",%progbits
 655              		.align	2
 656              		.global	lv_group_set_default
 657              		.code	16
 658              		.thumb_func
 659              		.type	lv_group_set_default, %function
 660              	lv_group_set_default:
 661              	.LFB162:
 102:..\..\..\arduinoLCD\test\Pain Drain\libraries\lvgl\src\core/lv_group.c ****     default_group = group;
ARM GAS  C:\Users\haske\AppData\Local\Temp\ccHGZgRG.s 			page 23


 662              		.loc 1 102 0
 663              		.cfi_startproc
 664              		@ args = 0, pretend = 0, frame = 0
 665              		@ frame_needed = 0, uses_anonymous_args = 0
 666              		@ link register save eliminated.
 667              	.LVL96:
 103:..\..\..\arduinoLCD\test\Pain Drain\libraries\lvgl\src\core/lv_group.c **** }
 668              		.loc 1 103 0
 669 0000 014B     		ldr	r3, .L55
 670 0002 1860     		str	r0, [r3]
 104:..\..\..\arduinoLCD\test\Pain Drain\libraries\lvgl\src\core/lv_group.c **** 
 671              		.loc 1 104 0
 672              		@ sp needed
 673 0004 7047     		bx	lr
 674              	.L56:
 675 0006 C046     		.align	2
 676              	.L55:
 677 0008 00000000 		.word	.LANCHOR0
 678              		.cfi_endproc
 679              	.LFE162:
 680              		.size	lv_group_set_default, .-lv_group_set_default
 681              		.section	.text.lv_group_get_default,"ax",%progbits
 682              		.align	2
 683              		.global	lv_group_get_default
 684              		.code	16
 685              		.thumb_func
 686              		.type	lv_group_get_default, %function
 687              	lv_group_get_default:
 688              	.LFB163:
 107:..\..\..\arduinoLCD\test\Pain Drain\libraries\lvgl\src\core/lv_group.c ****     return default_group;
 689              		.loc 1 107 0
 690              		.cfi_startproc
 691              		@ args = 0, pretend = 0, frame = 0
 692              		@ frame_needed = 0, uses_anonymous_args = 0
 693              		@ link register save eliminated.
 108:..\..\..\arduinoLCD\test\Pain Drain\libraries\lvgl\src\core/lv_group.c **** }
 694              		.loc 1 108 0
 695 0000 014B     		ldr	r3, .L58
 696 0002 1868     		ldr	r0, [r3]
 109:..\..\..\arduinoLCD\test\Pain Drain\libraries\lvgl\src\core/lv_group.c **** 
 697              		.loc 1 109 0
 698              		@ sp needed
 699 0004 7047     		bx	lr
 700              	.L59:
 701 0006 C046     		.align	2
 702              	.L58:
 703 0008 00000000 		.word	.LANCHOR0
 704              		.cfi_endproc
 705              	.LFE163:
 706              		.size	lv_group_get_default, .-lv_group_get_default
 707              		.section	.text.lv_group_remove_all_objs,"ax",%progbits
 708              		.align	2
 709              		.global	lv_group_remove_all_objs
 710              		.code	16
 711              		.thumb_func
 712              		.type	lv_group_remove_all_objs, %function
 713              	lv_group_remove_all_objs:
ARM GAS  C:\Users\haske\AppData\Local\Temp\ccHGZgRG.s 			page 24


 714              	.LFB167:
 217:..\..\..\arduinoLCD\test\Pain Drain\libraries\lvgl\src\core/lv_group.c ****     /*Defocus the currently focused object*/
 715              		.loc 1 217 0
 716              		.cfi_startproc
 717              		@ args = 0, pretend = 0, frame = 0
 718              		@ frame_needed = 0, uses_anonymous_args = 0
 719              	.LVL97:
 720 0000 70B5     		push	{r4, r5, r6, lr}
 721              		.cfi_def_cfa_offset 16
 722              		.cfi_offset 4, -16
 723              		.cfi_offset 5, -12
 724              		.cfi_offset 6, -8
 725              		.cfi_offset 14, -4
 726 0002 0500     		movs	r5, r0
 219:..\..\..\arduinoLCD\test\Pain Drain\libraries\lvgl\src\core/lv_group.c ****         lv_event_send(*group->obj_focus, LV_EVENT_DEFOCUSED, get_indev(group));
 727              		.loc 1 219 0
 728 0004 C368     		ldr	r3, [r0, #12]
 729 0006 002B     		cmp	r3, #0
 730 0008 0DD0     		beq	.L61
 220:..\..\..\arduinoLCD\test\Pain Drain\libraries\lvgl\src\core/lv_group.c ****         lv_obj_invalidate(*group->obj_focus);
 731              		.loc 1 220 0
 732 000a 1C68     		ldr	r4, [r3]
 733 000c FFF7FEFF 		bl	get_indev
 734              	.LVL98:
 735 0010 0200     		movs	r2, r0
 736 0012 0F21     		movs	r1, #15
 737 0014 2000     		movs	r0, r4
 738 0016 FFF7FEFF 		bl	lv_event_send
 739              	.LVL99:
 221:..\..\..\arduinoLCD\test\Pain Drain\libraries\lvgl\src\core/lv_group.c ****         group->obj_focus = NULL;
 740              		.loc 1 221 0
 741 001a EB68     		ldr	r3, [r5, #12]
 742 001c 1868     		ldr	r0, [r3]
 743 001e FFF7FEFF 		bl	lv_obj_invalidate
 744              	.LVL100:
 222:..\..\..\arduinoLCD\test\Pain Drain\libraries\lvgl\src\core/lv_group.c ****     }
 745              		.loc 1 222 0
 746 0022 0023     		movs	r3, #0
 747 0024 EB60     		str	r3, [r5, #12]
 748              	.L61:
 227:..\..\..\arduinoLCD\test\Pain Drain\libraries\lvgl\src\core/lv_group.c ****         if((*obj)->spec_attr)(*obj)->spec_attr->group_p = NULL;
 749              		.loc 1 227 0
 750 0026 2C00     		movs	r4, r5
 751 0028 2800     		movs	r0, r5
 752 002a FFF7FEFF 		bl	_lv_ll_get_head
 753              	.LVL101:
 754 002e 09E0     		b	.L62
 755              	.LVL102:
 756              	.L64:
 228:..\..\..\arduinoLCD\test\Pain Drain\libraries\lvgl\src\core/lv_group.c ****     }
 757              		.loc 1 228 0
 758 0030 0368     		ldr	r3, [r0]
 759 0032 9B68     		ldr	r3, [r3, #8]
 760 0034 002B     		cmp	r3, #0
 761 0036 01D0     		beq	.L63
 228:..\..\..\arduinoLCD\test\Pain Drain\libraries\lvgl\src\core/lv_group.c ****     }
 762              		.loc 1 228 0 is_stmt 0 discriminator 1
ARM GAS  C:\Users\haske\AppData\Local\Temp\ccHGZgRG.s 			page 25


 763 0038 0022     		movs	r2, #0
 764 003a 9A60     		str	r2, [r3, #8]
 765              	.L63:
 227:..\..\..\arduinoLCD\test\Pain Drain\libraries\lvgl\src\core/lv_group.c ****         if((*obj)->spec_attr)(*obj)->spec_attr->group_p = NULL;
 766              		.loc 1 227 0 is_stmt 1 discriminator 2
 767 003c 0100     		movs	r1, r0
 768 003e 2000     		movs	r0, r4
 769              	.LVL103:
 770 0040 FFF7FEFF 		bl	_lv_ll_get_next
 771              	.LVL104:
 772              	.L62:
 227:..\..\..\arduinoLCD\test\Pain Drain\libraries\lvgl\src\core/lv_group.c ****         if((*obj)->spec_attr)(*obj)->spec_attr->group_p = NULL;
 773              		.loc 1 227 0 is_stmt 0 discriminator 1
 774 0044 0028     		cmp	r0, #0
 775 0046 F3D1     		bne	.L64
 231:..\..\..\arduinoLCD\test\Pain Drain\libraries\lvgl\src\core/lv_group.c **** }
 776              		.loc 1 231 0 is_stmt 1
 777 0048 2800     		movs	r0, r5
 778              	.LVL105:
 779 004a FFF7FEFF 		bl	_lv_ll_clear
 780              	.LVL106:
 232:..\..\..\arduinoLCD\test\Pain Drain\libraries\lvgl\src\core/lv_group.c **** 
 781              		.loc 1 232 0
 782              		@ sp needed
 783              	.LVL107:
 784              	.LVL108:
 785 004e 70BD     		pop	{r4, r5, r6, pc}
 786              		.cfi_endproc
 787              	.LFE167:
 788              		.size	lv_group_remove_all_objs, .-lv_group_remove_all_objs
 789              		.section	.text.lv_group_focus_next,"ax",%progbits
 790              		.align	2
 791              		.global	lv_group_focus_next
 792              		.code	16
 793              		.thumb_func
 794              		.type	lv_group_focus_next, %function
 795              	lv_group_focus_next:
 796              	.LFB169:
 268:..\..\..\arduinoLCD\test\Pain Drain\libraries\lvgl\src\core/lv_group.c ****     bool focus_changed = focus_next_core(group, _lv_ll_get_head, _lv_ll_get_next);
 797              		.loc 1 268 0
 798              		.cfi_startproc
 799              		@ args = 0, pretend = 0, frame = 0
 800              		@ frame_needed = 0, uses_anonymous_args = 0
 801              	.LVL109:
 802 0000 10B5     		push	{r4, lr}
 803              		.cfi_def_cfa_offset 8
 804              		.cfi_offset 4, -8
 805              		.cfi_offset 14, -4
 806 0002 0400     		movs	r4, r0
 269:..\..\..\arduinoLCD\test\Pain Drain\libraries\lvgl\src\core/lv_group.c ****     if(group->edge_cb) {
 807              		.loc 1 269 0
 808 0004 064A     		ldr	r2, .L67
 809 0006 0749     		ldr	r1, .L67+4
 810 0008 FFF7FEFF 		bl	focus_next_core
 811              	.LVL110:
 270:..\..\..\arduinoLCD\test\Pain Drain\libraries\lvgl\src\core/lv_group.c ****         if(!focus_changed)
 812              		.loc 1 270 0
ARM GAS  C:\Users\haske\AppData\Local\Temp\ccHGZgRG.s 			page 26


 813 000c 6369     		ldr	r3, [r4, #20]
 814 000e 002B     		cmp	r3, #0
 815 0010 04D0     		beq	.L65
 271:..\..\..\arduinoLCD\test\Pain Drain\libraries\lvgl\src\core/lv_group.c ****             group->edge_cb(group, true);
 816              		.loc 1 271 0
 817 0012 0028     		cmp	r0, #0
 818 0014 02D1     		bne	.L65
 272:..\..\..\arduinoLCD\test\Pain Drain\libraries\lvgl\src\core/lv_group.c ****     }
 819              		.loc 1 272 0
 820 0016 0121     		movs	r1, #1
 821 0018 2000     		movs	r0, r4
 822              	.LVL111:
 823 001a 9847     		blx	r3
 824              	.LVL112:
 825              	.L65:
 274:..\..\..\arduinoLCD\test\Pain Drain\libraries\lvgl\src\core/lv_group.c **** 
 826              		.loc 1 274 0
 827              		@ sp needed
 828              	.LVL113:
 829 001c 10BD     		pop	{r4, pc}
 830              	.L68:
 831 001e C046     		.align	2
 832              	.L67:
 833 0020 00000000 		.word	_lv_ll_get_next
 834 0024 00000000 		.word	_lv_ll_get_head
 835              		.cfi_endproc
 836              	.LFE169:
 837              		.size	lv_group_focus_next, .-lv_group_focus_next
 838              		.section	.text.lv_group_focus_prev,"ax",%progbits
 839              		.align	2
 840              		.global	lv_group_focus_prev
 841              		.code	16
 842              		.thumb_func
 843              		.type	lv_group_focus_prev, %function
 844              	lv_group_focus_prev:
 845              	.LFB170:
 277:..\..\..\arduinoLCD\test\Pain Drain\libraries\lvgl\src\core/lv_group.c ****     bool focus_changed = focus_next_core(group, _lv_ll_get_tail, _lv_ll_get_prev);
 846              		.loc 1 277 0
 847              		.cfi_startproc
 848              		@ args = 0, pretend = 0, frame = 0
 849              		@ frame_needed = 0, uses_anonymous_args = 0
 850              	.LVL114:
 851 0000 10B5     		push	{r4, lr}
 852              		.cfi_def_cfa_offset 8
 853              		.cfi_offset 4, -8
 854              		.cfi_offset 14, -4
 855 0002 0400     		movs	r4, r0
 278:..\..\..\arduinoLCD\test\Pain Drain\libraries\lvgl\src\core/lv_group.c ****     if(group->edge_cb) {
 856              		.loc 1 278 0
 857 0004 064A     		ldr	r2, .L71
 858 0006 0749     		ldr	r1, .L71+4
 859 0008 FFF7FEFF 		bl	focus_next_core
 860              	.LVL115:
 279:..\..\..\arduinoLCD\test\Pain Drain\libraries\lvgl\src\core/lv_group.c ****         if(!focus_changed)
 861              		.loc 1 279 0
 862 000c 6369     		ldr	r3, [r4, #20]
 863 000e 002B     		cmp	r3, #0
ARM GAS  C:\Users\haske\AppData\Local\Temp\ccHGZgRG.s 			page 27


 864 0010 04D0     		beq	.L69
 280:..\..\..\arduinoLCD\test\Pain Drain\libraries\lvgl\src\core/lv_group.c ****             group->edge_cb(group, false);
 865              		.loc 1 280 0
 866 0012 0028     		cmp	r0, #0
 867 0014 02D1     		bne	.L69
 281:..\..\..\arduinoLCD\test\Pain Drain\libraries\lvgl\src\core/lv_group.c ****     }
 868              		.loc 1 281 0
 869 0016 0021     		movs	r1, #0
 870 0018 2000     		movs	r0, r4
 871              	.LVL116:
 872 001a 9847     		blx	r3
 873              	.LVL117:
 874              	.L69:
 283:..\..\..\arduinoLCD\test\Pain Drain\libraries\lvgl\src\core/lv_group.c **** 
 875              		.loc 1 283 0
 876              		@ sp needed
 877              	.LVL118:
 878 001c 10BD     		pop	{r4, pc}
 879              	.L72:
 880 001e C046     		.align	2
 881              	.L71:
 882 0020 00000000 		.word	_lv_ll_get_prev
 883 0024 00000000 		.word	_lv_ll_get_tail
 884              		.cfi_endproc
 885              	.LFE170:
 886              		.size	lv_group_focus_prev, .-lv_group_focus_prev
 887              		.section	.text.lv_group_refocus,"ax",%progbits
 888              		.align	2
 889              		.code	16
 890              		.thumb_func
 891              		.type	lv_group_refocus, %function
 892              	lv_group_refocus:
 893              	.LFB184:
 380:..\..\..\arduinoLCD\test\Pain Drain\libraries\lvgl\src\core/lv_group.c ****     /*Refocus must temporarily allow wrapping to work correctly*/
 894              		.loc 1 380 0
 895              		.cfi_startproc
 896              		@ args = 0, pretend = 0, frame = 0
 897              		@ frame_needed = 0, uses_anonymous_args = 0
 898              	.LVL119:
 899 0000 70B5     		push	{r4, r5, r6, lr}
 900              		.cfi_def_cfa_offset 16
 901              		.cfi_offset 4, -16
 902              		.cfi_offset 5, -12
 903              		.cfi_offset 6, -8
 904              		.cfi_offset 14, -4
 905 0002 0500     		movs	r5, r0
 382:..\..\..\arduinoLCD\test\Pain Drain\libraries\lvgl\src\core/lv_group.c ****     g->wrap           = 1;
 906              		.loc 1 382 0
 907 0004 027F     		ldrb	r2, [r0, #28]
 908 0006 1407     		lsls	r4, r2, #28
 909 0008 E40F     		lsrs	r4, r4, #31
 910              	.LVL120:
 383:..\..\..\arduinoLCD\test\Pain Drain\libraries\lvgl\src\core/lv_group.c **** 
 911              		.loc 1 383 0
 912 000a 0823     		movs	r3, #8
 913 000c 1343     		orrs	r3, r2
 914 000e 0377     		strb	r3, [r0, #28]
ARM GAS  C:\Users\haske\AppData\Local\Temp\ccHGZgRG.s 			page 28


 385:..\..\..\arduinoLCD\test\Pain Drain\libraries\lvgl\src\core/lv_group.c ****         lv_group_focus_next(g);
 915              		.loc 1 385 0
 916 0010 0422     		movs	r2, #4
 917              	.LVL121:
 918 0012 1340     		ands	r3, r2
 919 0014 02D1     		bne	.L74
 386:..\..\..\arduinoLCD\test\Pain Drain\libraries\lvgl\src\core/lv_group.c ****     else if(g->refocus_policy == LV_GROUP_REFOCUS_POLICY_PREV)
 920              		.loc 1 386 0
 921 0016 FFF7FEFF 		bl	lv_group_focus_next
 922              	.LVL122:
 923 001a 03E0     		b	.L75
 924              	.LVL123:
 925              	.L74:
 387:..\..\..\arduinoLCD\test\Pain Drain\libraries\lvgl\src\core/lv_group.c ****         lv_group_focus_prev(g);
 926              		.loc 1 387 0
 927 001c 002B     		cmp	r3, #0
 928 001e 01D0     		beq	.L75
 388:..\..\..\arduinoLCD\test\Pain Drain\libraries\lvgl\src\core/lv_group.c ****     /*Restore wrap property*/
 929              		.loc 1 388 0
 930 0020 FFF7FEFF 		bl	lv_group_focus_prev
 931              	.LVL124:
 932              	.L75:
 390:..\..\..\arduinoLCD\test\Pain Drain\libraries\lvgl\src\core/lv_group.c **** }
 933              		.loc 1 390 0
 934 0024 E400     		lsls	r4, r4, #3
 935 0026 2B7F     		ldrb	r3, [r5, #28]
 936 0028 0822     		movs	r2, #8
 937 002a 9343     		bics	r3, r2
 938 002c 1C43     		orrs	r4, r3
 939 002e 2C77     		strb	r4, [r5, #28]
 391:..\..\..\arduinoLCD\test\Pain Drain\libraries\lvgl\src\core/lv_group.c **** 
 940              		.loc 1 391 0
 941              		@ sp needed
 942              	.LVL125:
 943 0030 70BD     		pop	{r4, r5, r6, pc}
 944              		.cfi_endproc
 945              	.LFE184:
 946              		.size	lv_group_refocus, .-lv_group_refocus
 947 0032 C046     		.section	.text.lv_group_remove_obj,"ax",%progbits
 948              		.align	2
 949              		.global	lv_group_remove_obj
 950              		.code	16
 951              		.thumb_func
 952              		.type	lv_group_remove_obj, %function
 953              	lv_group_remove_obj:
 954              	.LFB166:
 176:..\..\..\arduinoLCD\test\Pain Drain\libraries\lvgl\src\core/lv_group.c ****     lv_group_t * g = lv_obj_get_group(obj);
 955              		.loc 1 176 0
 956              		.cfi_startproc
 957              		@ args = 0, pretend = 0, frame = 0
 958              		@ frame_needed = 0, uses_anonymous_args = 0
 959              	.LVL126:
 960 0000 F8B5     		push	{r3, r4, r5, r6, r7, lr}
 961              		.cfi_def_cfa_offset 24
 962              		.cfi_offset 3, -24
 963              		.cfi_offset 4, -20
 964              		.cfi_offset 5, -16
ARM GAS  C:\Users\haske\AppData\Local\Temp\ccHGZgRG.s 			page 29


 965              		.cfi_offset 6, -12
 966              		.cfi_offset 7, -8
 967              		.cfi_offset 14, -4
 968 0002 0500     		movs	r5, r0
 177:..\..\..\arduinoLCD\test\Pain Drain\libraries\lvgl\src\core/lv_group.c ****     if(g == NULL) return;
 969              		.loc 1 177 0
 970 0004 FFF7FEFF 		bl	lv_obj_get_group
 971              	.LVL127:
 972 0008 071E     		subs	r7, r0, #0
 973              	.LVL128:
 178:..\..\..\arduinoLCD\test\Pain Drain\libraries\lvgl\src\core/lv_group.c **** 
 974              		.loc 1 178 0
 975 000a 4AD0     		beq	.L76
 183:..\..\..\arduinoLCD\test\Pain Drain\libraries\lvgl\src\core/lv_group.c ****         if(g->frozen) g->frozen = 0;
 976              		.loc 1 183 0
 977 000c C368     		ldr	r3, [r0, #12]
 978 000e 002B     		cmp	r3, #0
 979 0010 22D0     		beq	.L78
 183:..\..\..\arduinoLCD\test\Pain Drain\libraries\lvgl\src\core/lv_group.c ****         if(g->frozen) g->frozen = 0;
 980              		.loc 1 183 0 is_stmt 0 discriminator 1
 981 0012 1B68     		ldr	r3, [r3]
 982 0014 9D42     		cmp	r5, r3
 983 0016 1FD1     		bne	.L78
 184:..\..\..\arduinoLCD\test\Pain Drain\libraries\lvgl\src\core/lv_group.c **** 
 984              		.loc 1 184 0 is_stmt 1
 985 0018 037F     		ldrb	r3, [r0, #28]
 986 001a DB07     		lsls	r3, r3, #31
 987 001c 03D5     		bpl	.L79
 184:..\..\..\arduinoLCD\test\Pain Drain\libraries\lvgl\src\core/lv_group.c **** 
 988              		.loc 1 184 0 is_stmt 0 discriminator 1
 989 001e 037F     		ldrb	r3, [r0, #28]
 990 0020 0122     		movs	r2, #1
 991 0022 9343     		bics	r3, r2
 992 0024 0377     		strb	r3, [r0, #28]
 993              	.L79:
 187:..\..\..\arduinoLCD\test\Pain Drain\libraries\lvgl\src\core/lv_group.c ****             lv_event_send(*g->obj_focus, LV_EVENT_DEFOCUSED, get_indev(g));
 994              		.loc 1 187 0 is_stmt 1
 995 0026 3800     		movs	r0, r7
 996              	.LVL129:
 997 0028 FFF7FEFF 		bl	_lv_ll_get_head
 998              	.LVL130:
 999 002c FB68     		ldr	r3, [r7, #12]
 1000 002e 9842     		cmp	r0, r3
 1001 0030 0FD1     		bne	.L80
 187:..\..\..\arduinoLCD\test\Pain Drain\libraries\lvgl\src\core/lv_group.c ****             lv_event_send(*g->obj_focus, LV_EVENT_DEFOCUSED, get_indev(g));
 1002              		.loc 1 187 0 is_stmt 0 discriminator 1
 1003 0032 3800     		movs	r0, r7
 1004 0034 FFF7FEFF 		bl	_lv_ll_get_tail
 1005              	.LVL131:
 1006 0038 FB68     		ldr	r3, [r7, #12]
 1007 003a 9842     		cmp	r0, r3
 1008 003c 09D1     		bne	.L80
 188:..\..\..\arduinoLCD\test\Pain Drain\libraries\lvgl\src\core/lv_group.c ****         }
 1009              		.loc 1 188 0 is_stmt 1
 1010 003e 1C68     		ldr	r4, [r3]
 1011 0040 3800     		movs	r0, r7
 1012 0042 FFF7FEFF 		bl	get_indev
ARM GAS  C:\Users\haske\AppData\Local\Temp\ccHGZgRG.s 			page 30


 1013              	.LVL132:
 1014 0046 0200     		movs	r2, r0
 1015 0048 0F21     		movs	r1, #15
 1016 004a 2000     		movs	r0, r4
 1017 004c FFF7FEFF 		bl	lv_event_send
 1018              	.LVL133:
 1019 0050 02E0     		b	.L78
 1020              	.L80:
 192:..\..\..\arduinoLCD\test\Pain Drain\libraries\lvgl\src\core/lv_group.c ****         }
 1021              		.loc 1 192 0
 1022 0052 3800     		movs	r0, r7
 1023 0054 FFF7FEFF 		bl	lv_group_refocus
 1024              	.LVL134:
 1025              	.L78:
 199:..\..\..\arduinoLCD\test\Pain Drain\libraries\lvgl\src\core/lv_group.c ****         g->obj_focus = NULL;
 1026              		.loc 1 199 0
 1027 0058 FB68     		ldr	r3, [r7, #12]
 1028 005a 002B     		cmp	r3, #0
 1029 005c 04D0     		beq	.L81
 199:..\..\..\arduinoLCD\test\Pain Drain\libraries\lvgl\src\core/lv_group.c ****         g->obj_focus = NULL;
 1030              		.loc 1 199 0 is_stmt 0 discriminator 1
 1031 005e 1B68     		ldr	r3, [r3]
 1032 0060 9D42     		cmp	r5, r3
 1033 0062 01D1     		bne	.L81
 200:..\..\..\arduinoLCD\test\Pain Drain\libraries\lvgl\src\core/lv_group.c ****     }
 1034              		.loc 1 200 0 is_stmt 1
 1035 0064 0023     		movs	r3, #0
 1036 0066 FB60     		str	r3, [r7, #12]
 1037              	.L81:
 205:..\..\..\arduinoLCD\test\Pain Drain\libraries\lvgl\src\core/lv_group.c ****         if(*i == obj) {
 1038              		.loc 1 205 0
 1039 0068 3E00     		movs	r6, r7
 1040 006a 3800     		movs	r0, r7
 1041 006c FFF7FEFF 		bl	_lv_ll_get_head
 1042              	.LVL135:
 1043 0070 0400     		movs	r4, r0
 1044              	.LVL136:
 1045 0072 14E0     		b	.L82
 1046              	.LVL137:
 1047              	.L84:
 206:..\..\..\arduinoLCD\test\Pain Drain\libraries\lvgl\src\core/lv_group.c ****             _lv_ll_remove(&g->obj_ll, i);
 1048              		.loc 1 206 0
 1049 0074 2368     		ldr	r3, [r4]
 1050 0076 9D42     		cmp	r5, r3
 1051 0078 0CD1     		bne	.L83
 207:..\..\..\arduinoLCD\test\Pain Drain\libraries\lvgl\src\core/lv_group.c ****             lv_mem_free(i);
 1052              		.loc 1 207 0
 1053 007a 2100     		movs	r1, r4
 1054 007c 3800     		movs	r0, r7
 1055              	.LVL138:
 1056 007e FFF7FEFF 		bl	_lv_ll_remove
 1057              	.LVL139:
 208:..\..\..\arduinoLCD\test\Pain Drain\libraries\lvgl\src\core/lv_group.c ****             if(obj->spec_attr) obj->spec_attr->group_p = NULL;
 1058              		.loc 1 208 0
 1059 0082 2000     		movs	r0, r4
 1060 0084 FFF7FEFF 		bl	lv_mem_free
 1061              	.LVL140:
ARM GAS  C:\Users\haske\AppData\Local\Temp\ccHGZgRG.s 			page 31


 209:..\..\..\arduinoLCD\test\Pain Drain\libraries\lvgl\src\core/lv_group.c ****             break;
 1062              		.loc 1 209 0
 1063 0088 AB68     		ldr	r3, [r5, #8]
 1064 008a 002B     		cmp	r3, #0
 1065 008c 09D0     		beq	.L76
 209:..\..\..\arduinoLCD\test\Pain Drain\libraries\lvgl\src\core/lv_group.c ****             break;
 1066              		.loc 1 209 0 is_stmt 0 discriminator 1
 1067 008e 0022     		movs	r2, #0
 1068 0090 9A60     		str	r2, [r3, #8]
 1069 0092 06E0     		b	.L76
 1070              	.LVL141:
 1071              	.L83:
 205:..\..\..\arduinoLCD\test\Pain Drain\libraries\lvgl\src\core/lv_group.c ****         if(*i == obj) {
 1072              		.loc 1 205 0 is_stmt 1 discriminator 2
 1073 0094 2100     		movs	r1, r4
 1074 0096 3000     		movs	r0, r6
 1075              	.LVL142:
 1076 0098 FFF7FEFF 		bl	_lv_ll_get_next
 1077              	.LVL143:
 1078 009c 0400     		movs	r4, r0
 1079              	.LVL144:
 1080              	.L82:
 205:..\..\..\arduinoLCD\test\Pain Drain\libraries\lvgl\src\core/lv_group.c ****         if(*i == obj) {
 1081              		.loc 1 205 0 is_stmt 0 discriminator 1
 1082 009e 002C     		cmp	r4, #0
 1083 00a0 E8D1     		bne	.L84
 1084              	.LVL145:
 1085              	.L76:
 214:..\..\..\arduinoLCD\test\Pain Drain\libraries\lvgl\src\core/lv_group.c **** 
 1086              		.loc 1 214 0 is_stmt 1
 1087              		@ sp needed
 1088              	.LVL146:
 1089              	.LVL147:
 1090 00a2 F8BD     		pop	{r3, r4, r5, r6, r7, pc}
 1091              		.cfi_endproc
 1092              	.LFE166:
 1093              		.size	lv_group_remove_obj, .-lv_group_remove_obj
 1094              		.section	.text.lv_group_add_obj,"ax",%progbits
 1095              		.align	2
 1096              		.global	lv_group_add_obj
 1097              		.code	16
 1098              		.thumb_func
 1099              		.type	lv_group_add_obj, %function
 1100              	lv_group_add_obj:
 1101              	.LFB164:
 112:..\..\..\arduinoLCD\test\Pain Drain\libraries\lvgl\src\core/lv_group.c ****     if(group == NULL) return;
 1102              		.loc 1 112 0
 1103              		.cfi_startproc
 1104              		@ args = 0, pretend = 0, frame = 0
 1105              		@ frame_needed = 0, uses_anonymous_args = 0
 1106              	.LVL148:
 1107 0000 70B5     		push	{r4, r5, r6, lr}
 1108              		.cfi_def_cfa_offset 16
 1109              		.cfi_offset 4, -16
 1110              		.cfi_offset 5, -12
 1111              		.cfi_offset 6, -8
 1112              		.cfi_offset 14, -4
ARM GAS  C:\Users\haske\AppData\Local\Temp\ccHGZgRG.s 			page 32


 1113 0002 0600     		movs	r6, r0
 1114 0004 0C00     		movs	r4, r1
 113:..\..\..\arduinoLCD\test\Pain Drain\libraries\lvgl\src\core/lv_group.c **** 
 1115              		.loc 1 113 0
 1116 0006 0028     		cmp	r0, #0
 1117 0008 38D0     		beq	.L85
 118:..\..\..\arduinoLCD\test\Pain Drain\libraries\lvgl\src\core/lv_group.c **** 
 1118              		.loc 1 118 0
 1119 000a 0800     		movs	r0, r1
 1120              	.LVL149:
 1121 000c FFF7FEFF 		bl	lv_group_remove_obj
 1122              	.LVL150:
 122:..\..\..\arduinoLCD\test\Pain Drain\libraries\lvgl\src\core/lv_group.c ****         if((*obj_i) == obj) {
 1123              		.loc 1 122 0
 1124 0010 3500     		movs	r5, r6
 1125 0012 3000     		movs	r0, r6
 1126 0014 FFF7FEFF 		bl	_lv_ll_get_head
 1127              	.LVL151:
 1128 0018 06E0     		b	.L87
 1129              	.L88:
 123:..\..\..\arduinoLCD\test\Pain Drain\libraries\lvgl\src\core/lv_group.c ****             LV_LOG_INFO("the object is already added to this group");
 1130              		.loc 1 123 0
 1131 001a 0368     		ldr	r3, [r0]
 1132 001c 9C42     		cmp	r4, r3
 1133 001e 2DD0     		beq	.L85
 122:..\..\..\arduinoLCD\test\Pain Drain\libraries\lvgl\src\core/lv_group.c ****         if((*obj_i) == obj) {
 1134              		.loc 1 122 0 discriminator 2
 1135 0020 0100     		movs	r1, r0
 1136 0022 2800     		movs	r0, r5
 1137              	.LVL152:
 1138 0024 FFF7FEFF 		bl	_lv_ll_get_next
 1139              	.LVL153:
 1140              	.L87:
 122:..\..\..\arduinoLCD\test\Pain Drain\libraries\lvgl\src\core/lv_group.c ****         if((*obj_i) == obj) {
 1141              		.loc 1 122 0 is_stmt 0 discriminator 1
 1142 0028 0028     		cmp	r0, #0
 1143 002a F6D1     		bne	.L88
 130:..\..\..\arduinoLCD\test\Pain Drain\libraries\lvgl\src\core/lv_group.c ****     if(group_cur) {
 1144              		.loc 1 130 0 is_stmt 1
 1145 002c 2000     		movs	r0, r4
 1146              	.LVL154:
 1147 002e FFF7FEFF 		bl	lv_obj_get_group
 1148              	.LVL155:
 131:..\..\..\arduinoLCD\test\Pain Drain\libraries\lvgl\src\core/lv_group.c ****         if(obj->spec_attr->group_p && *(obj->spec_attr->group_p->obj_focus) == obj) {
 1149              		.loc 1 131 0
 1150 0032 0028     		cmp	r0, #0
 1151 0034 09D0     		beq	.L89
 132:..\..\..\arduinoLCD\test\Pain Drain\libraries\lvgl\src\core/lv_group.c ****             lv_group_refocus(group_cur);
 1152              		.loc 1 132 0
 1153 0036 A368     		ldr	r3, [r4, #8]
 1154 0038 9B68     		ldr	r3, [r3, #8]
 1155 003a 002B     		cmp	r3, #0
 1156 003c 05D0     		beq	.L89
 132:..\..\..\arduinoLCD\test\Pain Drain\libraries\lvgl\src\core/lv_group.c ****             lv_group_refocus(group_cur);
 1157              		.loc 1 132 0 is_stmt 0 discriminator 1
 1158 003e DB68     		ldr	r3, [r3, #12]
 1159 0040 1B68     		ldr	r3, [r3]
ARM GAS  C:\Users\haske\AppData\Local\Temp\ccHGZgRG.s 			page 33


 1160 0042 9C42     		cmp	r4, r3
 1161 0044 01D1     		bne	.L89
 133:..\..\..\arduinoLCD\test\Pain Drain\libraries\lvgl\src\core/lv_group.c **** 
 1162              		.loc 1 133 0 is_stmt 1
 1163 0046 FFF7FEFF 		bl	lv_group_refocus
 1164              	.LVL156:
 1165              	.L89:
 139:..\..\..\arduinoLCD\test\Pain Drain\libraries\lvgl\src\core/lv_group.c ****     obj->spec_attr->group_p = group;
 1166              		.loc 1 139 0
 1167 004a A368     		ldr	r3, [r4, #8]
 1168 004c 002B     		cmp	r3, #0
 1169 004e 02D1     		bne	.L90
 139:..\..\..\arduinoLCD\test\Pain Drain\libraries\lvgl\src\core/lv_group.c ****     obj->spec_attr->group_p = group;
 1170              		.loc 1 139 0 is_stmt 0 discriminator 1
 1171 0050 2000     		movs	r0, r4
 1172 0052 FFF7FEFF 		bl	lv_obj_allocate_spec_attr
 1173              	.LVL157:
 1174              	.L90:
 140:..\..\..\arduinoLCD\test\Pain Drain\libraries\lvgl\src\core/lv_group.c **** 
 1175              		.loc 1 140 0 is_stmt 1
 1176 0056 A368     		ldr	r3, [r4, #8]
 1177 0058 9E60     		str	r6, [r3, #8]
 142:..\..\..\arduinoLCD\test\Pain Drain\libraries\lvgl\src\core/lv_group.c ****     LV_ASSERT_MALLOC(next);
 1178              		.loc 1 142 0
 1179 005a 3000     		movs	r0, r6
 1180 005c FFF7FEFF 		bl	_lv_ll_ins_tail
 1181              	.LVL158:
 1182 0060 051E     		subs	r5, r0, #0
 1183              	.LVL159:
 143:..\..\..\arduinoLCD\test\Pain Drain\libraries\lvgl\src\core/lv_group.c ****     if(next == NULL) return;
 1184              		.loc 1 143 0
 1185 0062 00D1     		bne	.L91
 1186              	.L92:
 1187 0064 FEE7     		b	.L92
 1188              	.L91:
 144:..\..\..\arduinoLCD\test\Pain Drain\libraries\lvgl\src\core/lv_group.c ****     *next = obj;
 1189              		.loc 1 144 0
 1190 0066 0028     		cmp	r0, #0
 1191 0068 08D0     		beq	.L85
 145:..\..\..\arduinoLCD\test\Pain Drain\libraries\lvgl\src\core/lv_group.c **** 
 1192              		.loc 1 145 0
 1193 006a 0460     		str	r4, [r0]
 149:..\..\..\arduinoLCD\test\Pain Drain\libraries\lvgl\src\core/lv_group.c ****         lv_group_refocus(group);
 1194              		.loc 1 149 0
 1195 006c 3000     		movs	r0, r6
 1196              	.LVL160:
 1197 006e FFF7FEFF 		bl	_lv_ll_get_head
 1198              	.LVL161:
 1199 0072 8542     		cmp	r5, r0
 1200 0074 02D1     		bne	.L85
 150:..\..\..\arduinoLCD\test\Pain Drain\libraries\lvgl\src\core/lv_group.c ****     }
 1201              		.loc 1 150 0
 1202 0076 3000     		movs	r0, r6
 1203 0078 FFF7FEFF 		bl	lv_group_refocus
 1204              	.LVL162:
 1205              	.L85:
 154:..\..\..\arduinoLCD\test\Pain Drain\libraries\lvgl\src\core/lv_group.c **** 
ARM GAS  C:\Users\haske\AppData\Local\Temp\ccHGZgRG.s 			page 34


 1206              		.loc 1 154 0
 1207              		@ sp needed
 1208              	.LVL163:
 1209              	.LVL164:
 1210 007c 70BD     		pop	{r4, r5, r6, pc}
 1211              		.cfi_endproc
 1212              	.LFE164:
 1213              		.size	lv_group_add_obj, .-lv_group_add_obj
 1214 007e C046     		.section	.text.lv_group_focus_freeze,"ax",%progbits
 1215              		.align	2
 1216              		.global	lv_group_focus_freeze
 1217              		.code	16
 1218              		.thumb_func
 1219              		.type	lv_group_focus_freeze, %function
 1220              	lv_group_focus_freeze:
 1221              	.LFB171:
 286:..\..\..\arduinoLCD\test\Pain Drain\libraries\lvgl\src\core/lv_group.c ****     if(en == false) group->frozen = 0;
 1222              		.loc 1 286 0
 1223              		.cfi_startproc
 1224              		@ args = 0, pretend = 0, frame = 0
 1225              		@ frame_needed = 0, uses_anonymous_args = 0
 1226              		@ link register save eliminated.
 1227              	.LVL165:
 287:..\..\..\arduinoLCD\test\Pain Drain\libraries\lvgl\src\core/lv_group.c ****     else group->frozen = 1;
 1228              		.loc 1 287 0
 1229 0000 0029     		cmp	r1, #0
 1230 0002 04D1     		bne	.L94
 287:..\..\..\arduinoLCD\test\Pain Drain\libraries\lvgl\src\core/lv_group.c ****     else group->frozen = 1;
 1231              		.loc 1 287 0 is_stmt 0 discriminator 1
 1232 0004 037F     		ldrb	r3, [r0, #28]
 1233 0006 0122     		movs	r2, #1
 1234 0008 9343     		bics	r3, r2
 1235 000a 0377     		strb	r3, [r0, #28]
 1236 000c 03E0     		b	.L93
 1237              	.L94:
 288:..\..\..\arduinoLCD\test\Pain Drain\libraries\lvgl\src\core/lv_group.c **** }
 1238              		.loc 1 288 0 is_stmt 1
 1239 000e 027F     		ldrb	r2, [r0, #28]
 1240 0010 0123     		movs	r3, #1
 1241 0012 1343     		orrs	r3, r2
 1242 0014 0377     		strb	r3, [r0, #28]
 1243              	.L93:
 289:..\..\..\arduinoLCD\test\Pain Drain\libraries\lvgl\src\core/lv_group.c **** 
 1244              		.loc 1 289 0
 1245              		@ sp needed
 1246 0016 7047     		bx	lr
 1247              		.cfi_endproc
 1248              	.LFE171:
 1249              		.size	lv_group_focus_freeze, .-lv_group_focus_freeze
 1250              		.section	.text.lv_group_set_focus_cb,"ax",%progbits
 1251              		.align	2
 1252              		.global	lv_group_set_focus_cb
 1253              		.code	16
 1254              		.thumb_func
 1255              		.type	lv_group_set_focus_cb, %function
 1256              	lv_group_set_focus_cb:
 1257              	.LFB173:
ARM GAS  C:\Users\haske\AppData\Local\Temp\ccHGZgRG.s 			page 35


 302:..\..\..\arduinoLCD\test\Pain Drain\libraries\lvgl\src\core/lv_group.c ****     group->focus_cb = focus_cb;
 1258              		.loc 1 302 0
 1259              		.cfi_startproc
 1260              		@ args = 0, pretend = 0, frame = 0
 1261              		@ frame_needed = 0, uses_anonymous_args = 0
 1262              		@ link register save eliminated.
 1263              	.LVL166:
 303:..\..\..\arduinoLCD\test\Pain Drain\libraries\lvgl\src\core/lv_group.c **** }
 1264              		.loc 1 303 0
 1265 0000 0161     		str	r1, [r0, #16]
 304:..\..\..\arduinoLCD\test\Pain Drain\libraries\lvgl\src\core/lv_group.c **** 
 1266              		.loc 1 304 0
 1267              		@ sp needed
 1268 0002 7047     		bx	lr
 1269              		.cfi_endproc
 1270              	.LFE173:
 1271              		.size	lv_group_set_focus_cb, .-lv_group_set_focus_cb
 1272              		.section	.text.lv_group_set_edge_cb,"ax",%progbits
 1273              		.align	2
 1274              		.global	lv_group_set_edge_cb
 1275              		.code	16
 1276              		.thumb_func
 1277              		.type	lv_group_set_edge_cb, %function
 1278              	lv_group_set_edge_cb:
 1279              	.LFB174:
 307:..\..\..\arduinoLCD\test\Pain Drain\libraries\lvgl\src\core/lv_group.c ****     group->edge_cb = edge_cb;
 1280              		.loc 1 307 0
 1281              		.cfi_startproc
 1282              		@ args = 0, pretend = 0, frame = 0
 1283              		@ frame_needed = 0, uses_anonymous_args = 0
 1284              		@ link register save eliminated.
 1285              	.LVL167:
 308:..\..\..\arduinoLCD\test\Pain Drain\libraries\lvgl\src\core/lv_group.c **** }
 1286              		.loc 1 308 0
 1287 0000 4161     		str	r1, [r0, #20]
 309:..\..\..\arduinoLCD\test\Pain Drain\libraries\lvgl\src\core/lv_group.c **** 
 1288              		.loc 1 309 0
 1289              		@ sp needed
 1290 0002 7047     		bx	lr
 1291              		.cfi_endproc
 1292              	.LFE174:
 1293              		.size	lv_group_set_edge_cb, .-lv_group_set_edge_cb
 1294              		.section	.text.lv_group_set_refocus_policy,"ax",%progbits
 1295              		.align	2
 1296              		.global	lv_group_set_refocus_policy
 1297              		.code	16
 1298              		.thumb_func
 1299              		.type	lv_group_set_refocus_policy, %function
 1300              	lv_group_set_refocus_policy:
 1301              	.LFB176:
 330:..\..\..\arduinoLCD\test\Pain Drain\libraries\lvgl\src\core/lv_group.c ****     group->refocus_policy = policy & 0x01;
 1302              		.loc 1 330 0
 1303              		.cfi_startproc
 1304              		@ args = 0, pretend = 0, frame = 0
 1305              		@ frame_needed = 0, uses_anonymous_args = 0
 1306              		@ link register save eliminated.
 1307              	.LVL168:
ARM GAS  C:\Users\haske\AppData\Local\Temp\ccHGZgRG.s 			page 36


 331:..\..\..\arduinoLCD\test\Pain Drain\libraries\lvgl\src\core/lv_group.c **** }
 1308              		.loc 1 331 0
 1309 0000 0123     		movs	r3, #1
 1310 0002 1940     		ands	r1, r3
 1311              	.LVL169:
 1312 0004 8B00     		lsls	r3, r1, #2
 1313 0006 017F     		ldrb	r1, [r0, #28]
 1314 0008 0422     		movs	r2, #4
 1315 000a 9143     		bics	r1, r2
 1316 000c 1943     		orrs	r1, r3
 1317 000e 0177     		strb	r1, [r0, #28]
 332:..\..\..\arduinoLCD\test\Pain Drain\libraries\lvgl\src\core/lv_group.c **** 
 1318              		.loc 1 332 0
 1319              		@ sp needed
 1320 0010 7047     		bx	lr
 1321              		.cfi_endproc
 1322              	.LFE176:
 1323              		.size	lv_group_set_refocus_policy, .-lv_group_set_refocus_policy
 1324 0012 C046     		.section	.text.lv_group_set_wrap,"ax",%progbits
 1325              		.align	2
 1326              		.global	lv_group_set_wrap
 1327              		.code	16
 1328              		.thumb_func
 1329              		.type	lv_group_set_wrap, %function
 1330              	lv_group_set_wrap:
 1331              	.LFB177:
 335:..\..\..\arduinoLCD\test\Pain Drain\libraries\lvgl\src\core/lv_group.c ****     group->wrap = en ? 1 : 0;
 1332              		.loc 1 335 0
 1333              		.cfi_startproc
 1334              		@ args = 0, pretend = 0, frame = 0
 1335              		@ frame_needed = 0, uses_anonymous_args = 0
 1336              		@ link register save eliminated.
 1337              	.LVL170:
 336:..\..\..\arduinoLCD\test\Pain Drain\libraries\lvgl\src\core/lv_group.c **** }
 1338              		.loc 1 336 0
 1339 0000 0123     		movs	r3, #1
 1340 0002 1940     		ands	r1, r3
 1341              	.LVL171:
 1342 0004 CB00     		lsls	r3, r1, #3
 1343 0006 017F     		ldrb	r1, [r0, #28]
 1344 0008 0822     		movs	r2, #8
 1345 000a 9143     		bics	r1, r2
 1346 000c 1943     		orrs	r1, r3
 1347 000e 0177     		strb	r1, [r0, #28]
 337:..\..\..\arduinoLCD\test\Pain Drain\libraries\lvgl\src\core/lv_group.c **** 
 1348              		.loc 1 337 0
 1349              		@ sp needed
 1350 0010 7047     		bx	lr
 1351              		.cfi_endproc
 1352              	.LFE177:
 1353              		.size	lv_group_set_wrap, .-lv_group_set_wrap
 1354 0012 C046     		.section	.text.lv_group_get_focused,"ax",%progbits
 1355              		.align	2
 1356              		.global	lv_group_get_focused
 1357              		.code	16
 1358              		.thumb_func
 1359              		.type	lv_group_get_focused, %function
ARM GAS  C:\Users\haske\AppData\Local\Temp\ccHGZgRG.s 			page 37


 1360              	lv_group_get_focused:
 1361              	.LFB178:
 340:..\..\..\arduinoLCD\test\Pain Drain\libraries\lvgl\src\core/lv_group.c ****     if(!group) return NULL;
 1362              		.loc 1 340 0
 1363              		.cfi_startproc
 1364              		@ args = 0, pretend = 0, frame = 0
 1365              		@ frame_needed = 0, uses_anonymous_args = 0
 1366              		@ link register save eliminated.
 1367              	.LVL172:
 341:..\..\..\arduinoLCD\test\Pain Drain\libraries\lvgl\src\core/lv_group.c ****     if(group->obj_focus == NULL) return NULL;
 1368              		.loc 1 341 0
 1369 0000 0028     		cmp	r0, #0
 1370 0002 04D0     		beq	.L102
 342:..\..\..\arduinoLCD\test\Pain Drain\libraries\lvgl\src\core/lv_group.c **** 
 1371              		.loc 1 342 0
 1372 0004 C368     		ldr	r3, [r0, #12]
 1373 0006 002B     		cmp	r3, #0
 1374 0008 03D0     		beq	.L103
 344:..\..\..\arduinoLCD\test\Pain Drain\libraries\lvgl\src\core/lv_group.c **** }
 1375              		.loc 1 344 0
 1376 000a 1868     		ldr	r0, [r3]
 1377              	.LVL173:
 1378 000c 02E0     		b	.L101
 1379              	.LVL174:
 1380              	.L102:
 341:..\..\..\arduinoLCD\test\Pain Drain\libraries\lvgl\src\core/lv_group.c ****     if(group->obj_focus == NULL) return NULL;
 1381              		.loc 1 341 0
 1382 000e 0020     		movs	r0, #0
 1383              	.LVL175:
 1384 0010 00E0     		b	.L101
 1385              	.LVL176:
 1386              	.L103:
 342:..\..\..\arduinoLCD\test\Pain Drain\libraries\lvgl\src\core/lv_group.c **** 
 1387              		.loc 1 342 0
 1388 0012 0020     		movs	r0, #0
 1389              	.LVL177:
 1390              	.L101:
 345:..\..\..\arduinoLCD\test\Pain Drain\libraries\lvgl\src\core/lv_group.c **** 
 1391              		.loc 1 345 0
 1392              		@ sp needed
 1393 0014 7047     		bx	lr
 1394              		.cfi_endproc
 1395              	.LFE178:
 1396              		.size	lv_group_get_focused, .-lv_group_get_focused
 1397 0016 C046     		.section	.text.lv_group_send_data,"ax",%progbits
 1398              		.align	2
 1399              		.global	lv_group_send_data
 1400              		.code	16
 1401              		.thumb_func
 1402              		.type	lv_group_send_data, %function
 1403              	lv_group_send_data:
 1404              	.LFB172:
 292:..\..\..\arduinoLCD\test\Pain Drain\libraries\lvgl\src\core/lv_group.c ****     lv_obj_t * act = lv_group_get_focused(group);
 1405              		.loc 1 292 0
 1406              		.cfi_startproc
 1407              		@ args = 0, pretend = 0, frame = 8
 1408              		@ frame_needed = 0, uses_anonymous_args = 0
ARM GAS  C:\Users\haske\AppData\Local\Temp\ccHGZgRG.s 			page 38


 1409              	.LVL178:
 1410 0000 10B5     		push	{r4, lr}
 1411              		.cfi_def_cfa_offset 8
 1412              		.cfi_offset 4, -8
 1413              		.cfi_offset 14, -4
 1414 0002 82B0     		sub	sp, sp, #8
 1415              		.cfi_def_cfa_offset 16
 1416 0004 0191     		str	r1, [sp, #4]
 293:..\..\..\arduinoLCD\test\Pain Drain\libraries\lvgl\src\core/lv_group.c ****     if(act == NULL) return LV_RES_OK;
 1417              		.loc 1 293 0
 1418 0006 FFF7FEFF 		bl	lv_group_get_focused
 1419              	.LVL179:
 1420 000a 041E     		subs	r4, r0, #0
 1421              	.LVL180:
 294:..\..\..\arduinoLCD\test\Pain Drain\libraries\lvgl\src\core/lv_group.c **** 
 1422              		.loc 1 294 0
 1423 000c 0AD0     		beq	.L106
 296:..\..\..\arduinoLCD\test\Pain Drain\libraries\lvgl\src\core/lv_group.c **** 
 1424              		.loc 1 296 0
 1425 000e 8021     		movs	r1, #128
 1426 0010 FFF7FEFF 		bl	lv_obj_has_state
 1427              	.LVL181:
 1428 0014 0028     		cmp	r0, #0
 1429 0016 07D1     		bne	.L107
 298:..\..\..\arduinoLCD\test\Pain Drain\libraries\lvgl\src\core/lv_group.c **** }
 1430              		.loc 1 298 0
 1431 0018 01AA     		add	r2, sp, #4
 1432              	.LVL182:
 1433 001a 0D21     		movs	r1, #13
 1434 001c 2000     		movs	r0, r4
 1435 001e FFF7FEFF 		bl	lv_event_send
 1436              	.LVL183:
 1437 0022 02E0     		b	.L105
 1438              	.LVL184:
 1439              	.L106:
 294:..\..\..\arduinoLCD\test\Pain Drain\libraries\lvgl\src\core/lv_group.c **** 
 1440              		.loc 1 294 0
 1441 0024 0120     		movs	r0, #1
 1442              	.LVL185:
 1443 0026 00E0     		b	.L105
 1444              	.L107:
 296:..\..\..\arduinoLCD\test\Pain Drain\libraries\lvgl\src\core/lv_group.c **** 
 1445              		.loc 1 296 0
 1446 0028 0120     		movs	r0, #1
 1447              	.L105:
 299:..\..\..\arduinoLCD\test\Pain Drain\libraries\lvgl\src\core/lv_group.c **** 
 1448              		.loc 1 299 0
 1449 002a 02B0     		add	sp, sp, #8
 1450              		@ sp needed
 1451              	.LVL186:
 1452 002c 10BD     		pop	{r4, pc}
 1453              		.cfi_endproc
 1454              	.LFE172:
 1455              		.size	lv_group_send_data, .-lv_group_send_data
 1456 002e C046     		.section	.text.lv_group_set_editing,"ax",%progbits
 1457              		.align	2
 1458              		.global	lv_group_set_editing
ARM GAS  C:\Users\haske\AppData\Local\Temp\ccHGZgRG.s 			page 39


 1459              		.code	16
 1460              		.thumb_func
 1461              		.type	lv_group_set_editing, %function
 1462              	lv_group_set_editing:
 1463              	.LFB175:
 312:..\..\..\arduinoLCD\test\Pain Drain\libraries\lvgl\src\core/lv_group.c ****     if(group == NULL) return;
 1464              		.loc 1 312 0
 1465              		.cfi_startproc
 1466              		@ args = 0, pretend = 0, frame = 0
 1467              		@ frame_needed = 0, uses_anonymous_args = 0
 1468              	.LVL187:
 1469 0000 70B5     		push	{r4, r5, r6, lr}
 1470              		.cfi_def_cfa_offset 16
 1471              		.cfi_offset 4, -16
 1472              		.cfi_offset 5, -12
 1473              		.cfi_offset 6, -8
 1474              		.cfi_offset 14, -4
 1475 0002 041E     		subs	r4, r0, #0
 313:..\..\..\arduinoLCD\test\Pain Drain\libraries\lvgl\src\core/lv_group.c ****     uint8_t en_val = edit ? 1 : 0;
 1476              		.loc 1 313 0
 1477 0004 1FD0     		beq	.L108
 1478              	.LVL188:
 316:..\..\..\arduinoLCD\test\Pain Drain\libraries\lvgl\src\core/lv_group.c **** 
 1479              		.loc 1 316 0
 1480 0006 037F     		ldrb	r3, [r0, #28]
 1481 0008 9B07     		lsls	r3, r3, #30
 1482 000a DB0F     		lsrs	r3, r3, #31
 1483 000c 9942     		cmp	r1, r3
 1484 000e 1AD0     		beq	.L108
 318:..\..\..\arduinoLCD\test\Pain Drain\libraries\lvgl\src\core/lv_group.c ****     lv_obj_t * focused = lv_group_get_focused(group);
 1485              		.loc 1 318 0
 1486 0010 0123     		movs	r3, #1
 1487 0012 1940     		ands	r1, r3
 1488              	.LVL189:
 1489 0014 4900     		lsls	r1, r1, #1
 1490 0016 037F     		ldrb	r3, [r0, #28]
 1491 0018 0222     		movs	r2, #2
 1492 001a 9343     		bics	r3, r2
 1493 001c 1943     		orrs	r1, r3
 1494 001e 0177     		strb	r1, [r0, #28]
 319:..\..\..\arduinoLCD\test\Pain Drain\libraries\lvgl\src\core/lv_group.c **** 
 1495              		.loc 1 319 0
 1496 0020 FFF7FEFF 		bl	lv_group_get_focused
 1497              	.LVL190:
 1498 0024 051E     		subs	r5, r0, #0
 1499              	.LVL191:
 321:..\..\..\arduinoLCD\test\Pain Drain\libraries\lvgl\src\core/lv_group.c ****         lv_res_t res = lv_event_send(*group->obj_focus, LV_EVENT_FOCUSED, get_indev(group));
 1500              		.loc 1 321 0
 1501 0026 0ED0     		beq	.L108
 1502              	.LBB8:
 322:..\..\..\arduinoLCD\test\Pain Drain\libraries\lvgl\src\core/lv_group.c ****         if(res != LV_RES_OK) return;
 1503              		.loc 1 322 0
 1504 0028 E368     		ldr	r3, [r4, #12]
 1505 002a 1E68     		ldr	r6, [r3]
 1506 002c 2000     		movs	r0, r4
 1507              	.LVL192:
 1508 002e FFF7FEFF 		bl	get_indev
ARM GAS  C:\Users\haske\AppData\Local\Temp\ccHGZgRG.s 			page 40


 1509              	.LVL193:
 1510 0032 0200     		movs	r2, r0
 1511 0034 0E21     		movs	r1, #14
 1512 0036 3000     		movs	r0, r6
 1513 0038 FFF7FEFF 		bl	lv_event_send
 1514              	.LVL194:
 323:..\..\..\arduinoLCD\test\Pain Drain\libraries\lvgl\src\core/lv_group.c **** 
 1515              		.loc 1 323 0
 1516 003c 0128     		cmp	r0, #1
 1517 003e 02D1     		bne	.L108
 325:..\..\..\arduinoLCD\test\Pain Drain\libraries\lvgl\src\core/lv_group.c ****     }
 1518              		.loc 1 325 0
 1519 0040 2800     		movs	r0, r5
 1520              	.LVL195:
 1521 0042 FFF7FEFF 		bl	lv_obj_invalidate
 1522              	.LVL196:
 1523              	.L108:
 1524              	.LBE8:
 327:..\..\..\arduinoLCD\test\Pain Drain\libraries\lvgl\src\core/lv_group.c **** 
 1525              		.loc 1 327 0
 1526              		@ sp needed
 1527              	.LVL197:
 1528 0046 70BD     		pop	{r4, r5, r6, pc}
 1529              		.cfi_endproc
 1530              	.LFE175:
 1531              		.size	lv_group_set_editing, .-lv_group_set_editing
 1532              		.section	.text.lv_group_focus_obj,"ax",%progbits
 1533              		.align	2
 1534              		.global	lv_group_focus_obj
 1535              		.code	16
 1536              		.thumb_func
 1537              		.type	lv_group_focus_obj, %function
 1538              	lv_group_focus_obj:
 1539              	.LFB168:
 235:..\..\..\arduinoLCD\test\Pain Drain\libraries\lvgl\src\core/lv_group.c ****     if(obj == NULL) return;
 1540              		.loc 1 235 0
 1541              		.cfi_startproc
 1542              		@ args = 0, pretend = 0, frame = 0
 1543              		@ frame_needed = 0, uses_anonymous_args = 0
 1544              	.LVL198:
 1545 0000 F8B5     		push	{r3, r4, r5, r6, r7, lr}
 1546              		.cfi_def_cfa_offset 24
 1547              		.cfi_offset 3, -24
 1548              		.cfi_offset 4, -20
 1549              		.cfi_offset 5, -16
 1550              		.cfi_offset 6, -12
 1551              		.cfi_offset 7, -8
 1552              		.cfi_offset 14, -4
 1553 0002 051E     		subs	r5, r0, #0
 236:..\..\..\arduinoLCD\test\Pain Drain\libraries\lvgl\src\core/lv_group.c ****     lv_group_t * g = lv_obj_get_group(obj);
 1554              		.loc 1 236 0
 1555 0004 46D0     		beq	.L110
 237:..\..\..\arduinoLCD\test\Pain Drain\libraries\lvgl\src\core/lv_group.c ****     if(g == NULL) return;
 1556              		.loc 1 237 0
 1557 0006 FFF7FEFF 		bl	lv_obj_get_group
 1558              	.LVL199:
 1559 000a 061E     		subs	r6, r0, #0
ARM GAS  C:\Users\haske\AppData\Local\Temp\ccHGZgRG.s 			page 41


 1560              	.LVL200:
 238:..\..\..\arduinoLCD\test\Pain Drain\libraries\lvgl\src\core/lv_group.c **** 
 1561              		.loc 1 238 0
 1562 000c 42D0     		beq	.L110
 240:..\..\..\arduinoLCD\test\Pain Drain\libraries\lvgl\src\core/lv_group.c **** 
 1563              		.loc 1 240 0
 1564 000e 037F     		ldrb	r3, [r0, #28]
 1565 0010 DB07     		lsls	r3, r3, #31
 1566 0012 3FD4     		bmi	.L110
 243:..\..\..\arduinoLCD\test\Pain Drain\libraries\lvgl\src\core/lv_group.c **** 
 1567              		.loc 1 243 0
 1568 0014 0021     		movs	r1, #0
 1569 0016 FFF7FEFF 		bl	lv_group_set_editing
 1570              	.LVL201:
 246:..\..\..\arduinoLCD\test\Pain Drain\libraries\lvgl\src\core/lv_group.c ****         if(*i == obj) {
 1571              		.loc 1 246 0
 1572 001a 3700     		movs	r7, r6
 1573 001c 3000     		movs	r0, r6
 1574 001e FFF7FEFF 		bl	_lv_ll_get_head
 1575              	.LVL202:
 1576 0022 0400     		movs	r4, r0
 1577              	.LVL203:
 1578 0024 34E0     		b	.L112
 1579              	.L116:
 247:..\..\..\arduinoLCD\test\Pain Drain\libraries\lvgl\src\core/lv_group.c ****             if(g->obj_focus != NULL && obj != *g->obj_focus) {  /*Do not defocus if the same object
 1580              		.loc 1 247 0
 1581 0026 2368     		ldr	r3, [r4]
 1582 0028 9D42     		cmp	r5, r3
 1583 002a 2CD1     		bne	.L113
 248:..\..\..\arduinoLCD\test\Pain Drain\libraries\lvgl\src\core/lv_group.c ****                 lv_res_t res = lv_event_send(*g->obj_focus, LV_EVENT_DEFOCUSED, get_indev(g));
 1584              		.loc 1 248 0
 1585 002c F368     		ldr	r3, [r6, #12]
 1586 002e 002B     		cmp	r3, #0
 1587 0030 10D0     		beq	.L114
 248:..\..\..\arduinoLCD\test\Pain Drain\libraries\lvgl\src\core/lv_group.c ****                 lv_res_t res = lv_event_send(*g->obj_focus, LV_EVENT_DEFOCUSED, get_indev(g));
 1588              		.loc 1 248 0 is_stmt 0 discriminator 1
 1589 0032 1F68     		ldr	r7, [r3]
 1590 0034 BD42     		cmp	r5, r7
 1591 0036 0DD0     		beq	.L114
 1592              	.LBB9:
 249:..\..\..\arduinoLCD\test\Pain Drain\libraries\lvgl\src\core/lv_group.c ****                 if(res != LV_RES_OK) return;
 1593              		.loc 1 249 0 is_stmt 1
 1594 0038 3000     		movs	r0, r6
 1595              	.LVL204:
 1596 003a FFF7FEFF 		bl	get_indev
 1597              	.LVL205:
 1598 003e 0200     		movs	r2, r0
 1599 0040 0F21     		movs	r1, #15
 1600 0042 3800     		movs	r0, r7
 1601 0044 FFF7FEFF 		bl	lv_event_send
 1602              	.LVL206:
 250:..\..\..\arduinoLCD\test\Pain Drain\libraries\lvgl\src\core/lv_group.c ****                 lv_obj_invalidate(*g->obj_focus);
 1603              		.loc 1 250 0
 1604 0048 0128     		cmp	r0, #1
 1605 004a 23D1     		bne	.L110
 251:..\..\..\arduinoLCD\test\Pain Drain\libraries\lvgl\src\core/lv_group.c ****             }
 1606              		.loc 1 251 0
ARM GAS  C:\Users\haske\AppData\Local\Temp\ccHGZgRG.s 			page 42


 1607 004c F368     		ldr	r3, [r6, #12]
 1608 004e 1868     		ldr	r0, [r3]
 1609              	.LVL207:
 1610 0050 FFF7FEFF 		bl	lv_obj_invalidate
 1611              	.LVL208:
 1612              	.L114:
 1613              	.LBE9:
 254:..\..\..\arduinoLCD\test\Pain Drain\libraries\lvgl\src\core/lv_group.c **** 
 1614              		.loc 1 254 0
 1615 0054 F460     		str	r4, [r6, #12]
 256:..\..\..\arduinoLCD\test\Pain Drain\libraries\lvgl\src\core/lv_group.c ****                 if(g->focus_cb) g->focus_cb(g);
 1616              		.loc 1 256 0
 1617 0056 002C     		cmp	r4, #0
 1618 0058 1CD0     		beq	.L110
 1619              	.LBB10:
 257:..\..\..\arduinoLCD\test\Pain Drain\libraries\lvgl\src\core/lv_group.c ****                 lv_res_t res = lv_event_send(*g->obj_focus, LV_EVENT_FOCUSED, get_indev(g));
 1620              		.loc 1 257 0
 1621 005a 3369     		ldr	r3, [r6, #16]
 1622 005c 002B     		cmp	r3, #0
 1623 005e 01D0     		beq	.L115
 257:..\..\..\arduinoLCD\test\Pain Drain\libraries\lvgl\src\core/lv_group.c ****                 lv_res_t res = lv_event_send(*g->obj_focus, LV_EVENT_FOCUSED, get_indev(g));
 1624              		.loc 1 257 0 is_stmt 0 discriminator 1
 1625 0060 3000     		movs	r0, r6
 1626 0062 9847     		blx	r3
 1627              	.LVL209:
 1628              	.L115:
 258:..\..\..\arduinoLCD\test\Pain Drain\libraries\lvgl\src\core/lv_group.c ****                 if(res != LV_RES_OK) return;
 1629              		.loc 1 258 0 is_stmt 1
 1630 0064 F368     		ldr	r3, [r6, #12]
 1631 0066 1C68     		ldr	r4, [r3]
 1632              	.LVL210:
 1633 0068 3000     		movs	r0, r6
 1634 006a FFF7FEFF 		bl	get_indev
 1635              	.LVL211:
 1636 006e 0200     		movs	r2, r0
 1637 0070 0E21     		movs	r1, #14
 1638 0072 2000     		movs	r0, r4
 1639 0074 FFF7FEFF 		bl	lv_event_send
 1640              	.LVL212:
 259:..\..\..\arduinoLCD\test\Pain Drain\libraries\lvgl\src\core/lv_group.c ****                 lv_obj_invalidate(*g->obj_focus);
 1641              		.loc 1 259 0
 1642 0078 0128     		cmp	r0, #1
 1643 007a 0BD1     		bne	.L110
 260:..\..\..\arduinoLCD\test\Pain Drain\libraries\lvgl\src\core/lv_group.c ****             }
 1644              		.loc 1 260 0
 1645 007c F368     		ldr	r3, [r6, #12]
 1646 007e 1868     		ldr	r0, [r3]
 1647              	.LVL213:
 1648 0080 FFF7FEFF 		bl	lv_obj_invalidate
 1649              	.LVL214:
 1650 0084 06E0     		b	.L110
 1651              	.LVL215:
 1652              	.L113:
 1653              	.LBE10:
 246:..\..\..\arduinoLCD\test\Pain Drain\libraries\lvgl\src\core/lv_group.c ****         if(*i == obj) {
 1654              		.loc 1 246 0 discriminator 2
 1655 0086 2100     		movs	r1, r4
ARM GAS  C:\Users\haske\AppData\Local\Temp\ccHGZgRG.s 			page 43


 1656 0088 3800     		movs	r0, r7
 1657              	.LVL216:
 1658 008a FFF7FEFF 		bl	_lv_ll_get_next
 1659              	.LVL217:
 1660 008e 0400     		movs	r4, r0
 1661              	.LVL218:
 1662              	.L112:
 246:..\..\..\arduinoLCD\test\Pain Drain\libraries\lvgl\src\core/lv_group.c ****         if(*i == obj) {
 1663              		.loc 1 246 0 is_stmt 0 discriminator 1
 1664 0090 002C     		cmp	r4, #0
 1665 0092 C8D1     		bne	.L116
 1666              	.LVL219:
 1667              	.L110:
 265:..\..\..\arduinoLCD\test\Pain Drain\libraries\lvgl\src\core/lv_group.c **** 
 1668              		.loc 1 265 0 is_stmt 1
 1669              		@ sp needed
 1670              	.LVL220:
 1671 0094 F8BD     		pop	{r3, r4, r5, r6, r7, pc}
 1672              		.cfi_endproc
 1673              	.LFE168:
 1674              		.size	lv_group_focus_obj, .-lv_group_focus_obj
 1675 0096 C046     		.section	.text.lv_group_swap_obj,"ax",%progbits
 1676              		.align	2
 1677              		.global	lv_group_swap_obj
 1678              		.code	16
 1679              		.thumb_func
 1680              		.type	lv_group_swap_obj, %function
 1681              	lv_group_swap_obj:
 1682              	.LFB165:
 157:..\..\..\arduinoLCD\test\Pain Drain\libraries\lvgl\src\core/lv_group.c ****     lv_group_t * g1 = lv_obj_get_group(obj1);
 1683              		.loc 1 157 0
 1684              		.cfi_startproc
 1685              		@ args = 0, pretend = 0, frame = 0
 1686              		@ frame_needed = 0, uses_anonymous_args = 0
 1687              	.LVL221:
 1688 0000 F8B5     		push	{r3, r4, r5, r6, r7, lr}
 1689              		.cfi_def_cfa_offset 24
 1690              		.cfi_offset 3, -24
 1691              		.cfi_offset 4, -20
 1692              		.cfi_offset 5, -16
 1693              		.cfi_offset 6, -12
 1694              		.cfi_offset 7, -8
 1695              		.cfi_offset 14, -4
 1696 0002 0400     		movs	r4, r0
 1697 0004 0E00     		movs	r6, r1
 158:..\..\..\arduinoLCD\test\Pain Drain\libraries\lvgl\src\core/lv_group.c ****     lv_group_t * g2 = lv_obj_get_group(obj2);
 1698              		.loc 1 158 0
 1699 0006 FFF7FEFF 		bl	lv_obj_get_group
 1700              	.LVL222:
 1701 000a 0700     		movs	r7, r0
 1702              	.LVL223:
 159:..\..\..\arduinoLCD\test\Pain Drain\libraries\lvgl\src\core/lv_group.c ****     if(g1 != g2) return;
 1703              		.loc 1 159 0
 1704 000c 3000     		movs	r0, r6
 1705              	.LVL224:
 1706 000e FFF7FEFF 		bl	lv_obj_get_group
 1707              	.LVL225:
ARM GAS  C:\Users\haske\AppData\Local\Temp\ccHGZgRG.s 			page 44


 160:..\..\..\arduinoLCD\test\Pain Drain\libraries\lvgl\src\core/lv_group.c ****     if(g1 == NULL) return;
 1708              		.loc 1 160 0
 1709 0012 8742     		cmp	r7, r0
 1710 0014 21D1     		bne	.L117
 161:..\..\..\arduinoLCD\test\Pain Drain\libraries\lvgl\src\core/lv_group.c **** 
 1711              		.loc 1 161 0
 1712 0016 002F     		cmp	r7, #0
 1713 0018 1FD0     		beq	.L117
 165:..\..\..\arduinoLCD\test\Pain Drain\libraries\lvgl\src\core/lv_group.c ****         if((*obj_i) == obj1)(*obj_i) = obj2;
 1714              		.loc 1 165 0
 1715 001a 3D00     		movs	r5, r7
 1716 001c 3800     		movs	r0, r7
 1717              	.LVL226:
 1718 001e FFF7FEFF 		bl	_lv_ll_get_head
 1719              	.LVL227:
 1720 0022 0BE0     		b	.L119
 1721              	.L122:
 166:..\..\..\arduinoLCD\test\Pain Drain\libraries\lvgl\src\core/lv_group.c ****         else if((*obj_i) == obj2)(*obj_i) = obj1;
 1722              		.loc 1 166 0
 1723 0024 0368     		ldr	r3, [r0]
 1724 0026 9C42     		cmp	r4, r3
 1725 0028 01D1     		bne	.L120
 166:..\..\..\arduinoLCD\test\Pain Drain\libraries\lvgl\src\core/lv_group.c ****         else if((*obj_i) == obj2)(*obj_i) = obj1;
 1726              		.loc 1 166 0 is_stmt 0 discriminator 1
 1727 002a 0660     		str	r6, [r0]
 1728 002c 02E0     		b	.L121
 1729              	.L120:
 167:..\..\..\arduinoLCD\test\Pain Drain\libraries\lvgl\src\core/lv_group.c ****     }
 1730              		.loc 1 167 0 is_stmt 1
 1731 002e 9E42     		cmp	r6, r3
 1732 0030 00D1     		bne	.L121
 167:..\..\..\arduinoLCD\test\Pain Drain\libraries\lvgl\src\core/lv_group.c ****     }
 1733              		.loc 1 167 0 is_stmt 0 discriminator 1
 1734 0032 0460     		str	r4, [r0]
 1735              	.L121:
 165:..\..\..\arduinoLCD\test\Pain Drain\libraries\lvgl\src\core/lv_group.c ****         if((*obj_i) == obj1)(*obj_i) = obj2;
 1736              		.loc 1 165 0 is_stmt 1 discriminator 2
 1737 0034 0100     		movs	r1, r0
 1738 0036 2800     		movs	r0, r5
 1739              	.LVL228:
 1740 0038 FFF7FEFF 		bl	_lv_ll_get_next
 1741              	.LVL229:
 1742              	.L119:
 165:..\..\..\arduinoLCD\test\Pain Drain\libraries\lvgl\src\core/lv_group.c ****         if((*obj_i) == obj1)(*obj_i) = obj2;
 1743              		.loc 1 165 0 is_stmt 0 discriminator 1
 1744 003c 0028     		cmp	r0, #0
 1745 003e F1D1     		bne	.L122
 170:..\..\..\arduinoLCD\test\Pain Drain\libraries\lvgl\src\core/lv_group.c ****     else if(*g1->obj_focus == obj2) lv_group_focus_obj(obj1);
 1746              		.loc 1 170 0 is_stmt 1
 1747 0040 FB68     		ldr	r3, [r7, #12]
 1748 0042 1B68     		ldr	r3, [r3]
 1749 0044 9C42     		cmp	r4, r3
 1750 0046 03D1     		bne	.L123
 170:..\..\..\arduinoLCD\test\Pain Drain\libraries\lvgl\src\core/lv_group.c ****     else if(*g1->obj_focus == obj2) lv_group_focus_obj(obj1);
 1751              		.loc 1 170 0 is_stmt 0 discriminator 1
 1752 0048 3000     		movs	r0, r6
 1753              	.LVL230:
ARM GAS  C:\Users\haske\AppData\Local\Temp\ccHGZgRG.s 			page 45


 1754 004a FFF7FEFF 		bl	lv_group_focus_obj
 1755              	.LVL231:
 1756 004e 04E0     		b	.L117
 1757              	.LVL232:
 1758              	.L123:
 171:..\..\..\arduinoLCD\test\Pain Drain\libraries\lvgl\src\core/lv_group.c **** 
 1759              		.loc 1 171 0 is_stmt 1
 1760 0050 9E42     		cmp	r6, r3
 1761 0052 02D1     		bne	.L117
 171:..\..\..\arduinoLCD\test\Pain Drain\libraries\lvgl\src\core/lv_group.c **** 
 1762              		.loc 1 171 0 is_stmt 0 discriminator 1
 1763 0054 2000     		movs	r0, r4
 1764              	.LVL233:
 1765 0056 FFF7FEFF 		bl	lv_group_focus_obj
 1766              	.LVL234:
 1767              	.L117:
 173:..\..\..\arduinoLCD\test\Pain Drain\libraries\lvgl\src\core/lv_group.c **** 
 1768              		.loc 1 173 0 is_stmt 1
 1769              		@ sp needed
 1770              	.LVL235:
 1771              	.LVL236:
 1772              	.LVL237:
 1773 005a F8BD     		pop	{r3, r4, r5, r6, r7, pc}
 1774              		.cfi_endproc
 1775              	.LFE165:
 1776              		.size	lv_group_swap_obj, .-lv_group_swap_obj
 1777              		.section	.text.lv_group_get_focus_cb,"ax",%progbits
 1778              		.align	2
 1779              		.global	lv_group_get_focus_cb
 1780              		.code	16
 1781              		.thumb_func
 1782              		.type	lv_group_get_focus_cb, %function
 1783              	lv_group_get_focus_cb:
 1784              	.LFB179:
 348:..\..\..\arduinoLCD\test\Pain Drain\libraries\lvgl\src\core/lv_group.c ****     if(!group) return NULL;
 1785              		.loc 1 348 0
 1786              		.cfi_startproc
 1787              		@ args = 0, pretend = 0, frame = 0
 1788              		@ frame_needed = 0, uses_anonymous_args = 0
 1789              		@ link register save eliminated.
 1790              	.LVL238:
 349:..\..\..\arduinoLCD\test\Pain Drain\libraries\lvgl\src\core/lv_group.c ****     return group->focus_cb;
 1791              		.loc 1 349 0
 1792 0000 0028     		cmp	r0, #0
 1793 0002 01D0     		beq	.L126
 350:..\..\..\arduinoLCD\test\Pain Drain\libraries\lvgl\src\core/lv_group.c **** }
 1794              		.loc 1 350 0
 1795 0004 0069     		ldr	r0, [r0, #16]
 1796              	.LVL239:
 1797 0006 00E0     		b	.L125
 1798              	.LVL240:
 1799              	.L126:
 349:..\..\..\arduinoLCD\test\Pain Drain\libraries\lvgl\src\core/lv_group.c ****     return group->focus_cb;
 1800              		.loc 1 349 0
 1801 0008 0020     		movs	r0, #0
 1802              	.LVL241:
 1803              	.L125:
ARM GAS  C:\Users\haske\AppData\Local\Temp\ccHGZgRG.s 			page 46


 351:..\..\..\arduinoLCD\test\Pain Drain\libraries\lvgl\src\core/lv_group.c **** 
 1804              		.loc 1 351 0
 1805              		@ sp needed
 1806 000a 7047     		bx	lr
 1807              		.cfi_endproc
 1808              	.LFE179:
 1809              		.size	lv_group_get_focus_cb, .-lv_group_get_focus_cb
 1810              		.section	.text.lv_group_get_edge_cb,"ax",%progbits
 1811              		.align	2
 1812              		.global	lv_group_get_edge_cb
 1813              		.code	16
 1814              		.thumb_func
 1815              		.type	lv_group_get_edge_cb, %function
 1816              	lv_group_get_edge_cb:
 1817              	.LFB180:
 354:..\..\..\arduinoLCD\test\Pain Drain\libraries\lvgl\src\core/lv_group.c ****     if(!group) return NULL;
 1818              		.loc 1 354 0
 1819              		.cfi_startproc
 1820              		@ args = 0, pretend = 0, frame = 0
 1821              		@ frame_needed = 0, uses_anonymous_args = 0
 1822              		@ link register save eliminated.
 1823              	.LVL242:
 355:..\..\..\arduinoLCD\test\Pain Drain\libraries\lvgl\src\core/lv_group.c ****     return group->edge_cb;
 1824              		.loc 1 355 0
 1825 0000 0028     		cmp	r0, #0
 1826 0002 01D0     		beq	.L129
 356:..\..\..\arduinoLCD\test\Pain Drain\libraries\lvgl\src\core/lv_group.c **** }
 1827              		.loc 1 356 0
 1828 0004 4069     		ldr	r0, [r0, #20]
 1829              	.LVL243:
 1830 0006 00E0     		b	.L128
 1831              	.LVL244:
 1832              	.L129:
 355:..\..\..\arduinoLCD\test\Pain Drain\libraries\lvgl\src\core/lv_group.c ****     return group->edge_cb;
 1833              		.loc 1 355 0
 1834 0008 0020     		movs	r0, #0
 1835              	.LVL245:
 1836              	.L128:
 357:..\..\..\arduinoLCD\test\Pain Drain\libraries\lvgl\src\core/lv_group.c **** 
 1837              		.loc 1 357 0
 1838              		@ sp needed
 1839 000a 7047     		bx	lr
 1840              		.cfi_endproc
 1841              	.LFE180:
 1842              		.size	lv_group_get_edge_cb, .-lv_group_get_edge_cb
 1843              		.section	.text.lv_group_get_editing,"ax",%progbits
 1844              		.align	2
 1845              		.global	lv_group_get_editing
 1846              		.code	16
 1847              		.thumb_func
 1848              		.type	lv_group_get_editing, %function
 1849              	lv_group_get_editing:
 1850              	.LFB181:
 360:..\..\..\arduinoLCD\test\Pain Drain\libraries\lvgl\src\core/lv_group.c ****     if(!group) return false;
 1851              		.loc 1 360 0
 1852              		.cfi_startproc
 1853              		@ args = 0, pretend = 0, frame = 0
ARM GAS  C:\Users\haske\AppData\Local\Temp\ccHGZgRG.s 			page 47


 1854              		@ frame_needed = 0, uses_anonymous_args = 0
 1855              		@ link register save eliminated.
 1856              	.LVL246:
 361:..\..\..\arduinoLCD\test\Pain Drain\libraries\lvgl\src\core/lv_group.c ****     return group->editing ? true : false;
 1857              		.loc 1 361 0
 1858 0000 0028     		cmp	r0, #0
 1859 0002 06D0     		beq	.L132
 362:..\..\..\arduinoLCD\test\Pain Drain\libraries\lvgl\src\core/lv_group.c **** }
 1860              		.loc 1 362 0
 1861 0004 037F     		ldrb	r3, [r0, #28]
 1862 0006 0220     		movs	r0, #2
 1863              	.LVL247:
 1864 0008 1840     		ands	r0, r3
 1865 000a 431E     		subs	r3, r0, #1
 1866 000c 9841     		sbcs	r0, r0, r3
 1867 000e C0B2     		uxtb	r0, r0
 1868 0010 00E0     		b	.L131
 1869              	.LVL248:
 1870              	.L132:
 361:..\..\..\arduinoLCD\test\Pain Drain\libraries\lvgl\src\core/lv_group.c ****     return group->editing ? true : false;
 1871              		.loc 1 361 0
 1872 0012 0020     		movs	r0, #0
 1873              	.LVL249:
 1874              	.L131:
 363:..\..\..\arduinoLCD\test\Pain Drain\libraries\lvgl\src\core/lv_group.c **** 
 1875              		.loc 1 363 0
 1876              		@ sp needed
 1877 0014 7047     		bx	lr
 1878              		.cfi_endproc
 1879              	.LFE181:
 1880              		.size	lv_group_get_editing, .-lv_group_get_editing
 1881 0016 C046     		.section	.text.lv_group_get_wrap,"ax",%progbits
 1882              		.align	2
 1883              		.global	lv_group_get_wrap
 1884              		.code	16
 1885              		.thumb_func
 1886              		.type	lv_group_get_wrap, %function
 1887              	lv_group_get_wrap:
 1888              	.LFB182:
 366:..\..\..\arduinoLCD\test\Pain Drain\libraries\lvgl\src\core/lv_group.c ****     if(!group) return false;
 1889              		.loc 1 366 0
 1890              		.cfi_startproc
 1891              		@ args = 0, pretend = 0, frame = 0
 1892              		@ frame_needed = 0, uses_anonymous_args = 0
 1893              		@ link register save eliminated.
 1894              	.LVL250:
 367:..\..\..\arduinoLCD\test\Pain Drain\libraries\lvgl\src\core/lv_group.c ****     return group->wrap ? true : false;
 1895              		.loc 1 367 0
 1896 0000 0028     		cmp	r0, #0
 1897 0002 06D0     		beq	.L135
 368:..\..\..\arduinoLCD\test\Pain Drain\libraries\lvgl\src\core/lv_group.c **** }
 1898              		.loc 1 368 0
 1899 0004 037F     		ldrb	r3, [r0, #28]
 1900 0006 0820     		movs	r0, #8
 1901              	.LVL251:
 1902 0008 1840     		ands	r0, r3
 1903 000a 431E     		subs	r3, r0, #1
ARM GAS  C:\Users\haske\AppData\Local\Temp\ccHGZgRG.s 			page 48


 1904 000c 9841     		sbcs	r0, r0, r3
 1905 000e C0B2     		uxtb	r0, r0
 1906 0010 00E0     		b	.L134
 1907              	.LVL252:
 1908              	.L135:
 367:..\..\..\arduinoLCD\test\Pain Drain\libraries\lvgl\src\core/lv_group.c ****     return group->wrap ? true : false;
 1909              		.loc 1 367 0
 1910 0012 0020     		movs	r0, #0
 1911              	.LVL253:
 1912              	.L134:
 369:..\..\..\arduinoLCD\test\Pain Drain\libraries\lvgl\src\core/lv_group.c **** 
 1913              		.loc 1 369 0
 1914              		@ sp needed
 1915 0014 7047     		bx	lr
 1916              		.cfi_endproc
 1917              	.LFE182:
 1918              		.size	lv_group_get_wrap, .-lv_group_get_wrap
 1919 0016 C046     		.section	.text.lv_group_get_obj_count,"ax",%progbits
 1920              		.align	2
 1921              		.global	lv_group_get_obj_count
 1922              		.code	16
 1923              		.thumb_func
 1924              		.type	lv_group_get_obj_count, %function
 1925              	lv_group_get_obj_count:
 1926              	.LFB183:
 372:..\..\..\arduinoLCD\test\Pain Drain\libraries\lvgl\src\core/lv_group.c ****     return _lv_ll_get_len(&group->obj_ll);
 1927              		.loc 1 372 0
 1928              		.cfi_startproc
 1929              		@ args = 0, pretend = 0, frame = 0
 1930              		@ frame_needed = 0, uses_anonymous_args = 0
 1931              	.LVL254:
 1932 0000 10B5     		push	{r4, lr}
 1933              		.cfi_def_cfa_offset 8
 1934              		.cfi_offset 4, -8
 1935              		.cfi_offset 14, -4
 373:..\..\..\arduinoLCD\test\Pain Drain\libraries\lvgl\src\core/lv_group.c **** }
 1936              		.loc 1 373 0
 1937 0002 FFF7FEFF 		bl	_lv_ll_get_len
 1938              	.LVL255:
 374:..\..\..\arduinoLCD\test\Pain Drain\libraries\lvgl\src\core/lv_group.c **** /**********************
 1939              		.loc 1 374 0
 1940              		@ sp needed
 1941 0006 10BD     		pop	{r4, pc}
 1942              		.cfi_endproc
 1943              	.LFE183:
 1944              		.size	lv_group_get_obj_count, .-lv_group_get_obj_count
 1945              		.bss
 1946              		.align	2
 1947              		.set	.LANCHOR0,. + 0
 1948              		.type	default_group, %object
 1949              		.size	default_group, 4
 1950              	default_group:
 1951 0000 00000000 		.space	4
 1952              		.text
 1953              	.Letext0:
 1954              		.file 2 "c:\\program files (x86)\\cypress\\psoc creator\\4.4\\psoc creator\\import\\gnu\\arm\\5.4.
 1955              		.file 3 "c:\\program files (x86)\\cypress\\psoc creator\\4.4\\psoc creator\\import\\gnu\\arm\\5.4.
ARM GAS  C:\Users\haske\AppData\Local\Temp\ccHGZgRG.s 			page 49


 1956              		.file 4 "c:\\program files (x86)\\cypress\\psoc creator\\4.4\\psoc creator\\import\\gnu\\arm\\5.4.
 1957              		.file 5 "..\\..\\..\\arduinoLCD\\test\\Pain Drain\\libraries\\lvgl\\src\\core\\../misc/lv_ll.h"
 1958              		.file 6 "..\\..\\..\\arduinoLCD\\test\\Pain Drain\\libraries\\lvgl\\src\\core\\../misc/lv_types.h"
 1959              		.file 7 "..\\..\\..\\arduinoLCD\\test\\Pain Drain\\libraries\\lvgl\\src\\core\\lv_group.h"
 1960              		.file 8 "..\\..\\..\\arduinoLCD\\test\\Pain Drain\\libraries\\lvgl\\src\\core\\../core/lv_obj.h"
 1961              		.file 9 "..\\..\\..\\arduinoLCD\\test\\Pain Drain\\libraries\\lvgl\\src\\core\\../misc/lv_timer.h"
 1962              		.file 10 "c:\\projects\\paindrain\\arduinolcd\\test\\pain drain\\libraries\\lvgl\\src\\misc\\lv_co
 1963              		.file 11 "c:\\projects\\paindrain\\arduinolcd\\test\\pain drain\\libraries\\lvgl\\src\\misc\\lv_ar
 1964              		.file 12 "c:\\projects\\paindrain\\arduinolcd\\test\\pain drain\\libraries\\lvgl\\src\\draw\\lv_im
 1965              		.file 13 "c:\\projects\\paindrain\\arduinolcd\\test\\pain drain\\libraries\\lvgl\\src\\font\\lv_fo
 1966              		.file 14 "c:\\projects\\paindrain\\arduinolcd\\test\\pain drain\\libraries\\lvgl\\src\\misc\\lv_tx
 1967              		.file 15 "c:\\projects\\paindrain\\arduinolcd\\test\\pain drain\\libraries\\lvgl\\src\\misc\\lv_bi
 1968              		.file 16 "c:\\projects\\paindrain\\arduinolcd\\test\\pain drain\\libraries\\lvgl\\src\\misc\\lv_st
 1969              		.file 17 "c:\\projects\\paindrain\\arduinolcd\\test\\pain drain\\libraries\\lvgl\\src\\draw\\lv_dr
 1970              		.file 18 "c:\\projects\\paindrain\\arduinolcd\\test\\pain drain\\libraries\\lvgl\\src\\draw\\lv_dr
 1971              		.file 19 "c:\\projects\\paindrain\\arduinolcd\\test\\pain drain\\libraries\\lvgl\\src\\draw\\lv_dr
 1972              		.file 20 "c:\\projects\\paindrain\\arduinolcd\\test\\pain drain\\libraries\\lvgl\\src\\draw\\lv_dr
 1973              		.file 21 "c:\\projects\\paindrain\\arduinolcd\\test\\pain drain\\libraries\\lvgl\\src\\draw\\lv_dr
 1974              		.file 22 "c:\\projects\\paindrain\\arduinolcd\\test\\pain drain\\libraries\\lvgl\\src\\draw\\lv_dr
 1975              		.file 23 "c:\\projects\\paindrain\\arduinolcd\\test\\pain drain\\libraries\\lvgl\\src\\draw\\lv_dr
 1976              		.file 24 "c:\\projects\\paindrain\\arduinolcd\\test\\pain drain\\libraries\\lvgl\\src\\hal\\lv_hal
 1977              		.file 25 "c:\\projects\\paindrain\\arduinolcd\\test\\pain drain\\libraries\\lvgl\\src\\hal\\lv_hal
 1978              		.file 26 "..\\..\\..\\arduinoLCD\\test\\Pain Drain\\libraries\\lvgl\\src\\core\\../core/lv_obj_scr
 1979              		.file 27 "..\\..\\..\\arduinoLCD\\test\\Pain Drain\\libraries\\lvgl\\src\\core\\../core/lv_obj_sty
 1980              		.file 28 "..\\..\\..\\arduinoLCD\\test\\Pain Drain\\libraries\\lvgl\\src\\core\\../core/lv_obj_cla
 1981              		.file 29 "..\\..\\..\\arduinoLCD\\test\\Pain Drain\\libraries\\lvgl\\src\\core\\../core/lv_event.h
 1982              		.file 30 "..\\..\\..\\arduinoLCD\\test\\Pain Drain\\libraries\\lvgl\\src\\core\\../misc/lv_gc.h"
 1983              		.file 31 "..\\..\\..\\arduinoLCD\\test\\Pain Drain\\libraries\\lvgl\\src\\core\\../core/lv_indev.h
 1984              		.file 32 "..\\..\\..\\arduinoLCD\\test\\Pain Drain\\libraries\\lvgl\\src\\core\\../core/lv_obj_tre
 1985              		.file 33 "c:\\projects\\paindrain\\arduinolcd\\test\\pain drain\\libraries\\lvgl\\src\\core\\lv_ob
 1986              		.file 34 "..\\..\\..\\arduinoLCD\\test\\Pain Drain\\libraries\\lvgl\\src\\core\\../misc/lv_mem.h"