ARM GAS  C:\Users\haske\AppData\Local\Temp\ccN8jSR9.s 			page 1


   1              		.syntax unified
   2              		.cpu cortex-m0plus
   3              		.fpu softvfp
   4              		.eabi_attribute 20, 1
   5              		.eabi_attribute 21, 1
   6              		.eabi_attribute 23, 3
   7              		.eabi_attribute 24, 1
   8              		.eabi_attribute 25, 1
   9              		.eabi_attribute 26, 1
  10              		.eabi_attribute 30, 1
  11              		.eabi_attribute 34, 0
  12              		.eabi_attribute 18, 4
  13              		.thumb
  14              		.syntax unified
  15              		.file	"lv_hal_disp.c"
  16              		.text
  17              	.Ltext0:
  18              		.cfi_sections	.debug_frame
  19              		.global	__aeabi_idiv
  20              		.section	.text.set_px_true_color_alpha,"ax",%progbits
  21              		.align	2
  22              		.code	16
  23              		.thumb_func
  24              		.type	set_px_true_color_alpha, %function
  25              	set_px_true_color_alpha:
  26              	.LFB187:
  27              		.file 1 "..\\..\\..\\arduinoLCD\\test\\Pain Drain\\libraries\\lvgl\\src\\hal\\lv_hal_disp.c"
   1:..\..\..\arduinoLCD\test\Pain Drain\libraries\lvgl\src\hal/lv_hal_disp.c **** /**
   2:..\..\..\arduinoLCD\test\Pain Drain\libraries\lvgl\src\hal/lv_hal_disp.c ****  * @file lv_hal_disp.c
   3:..\..\..\arduinoLCD\test\Pain Drain\libraries\lvgl\src\hal/lv_hal_disp.c ****  *
   4:..\..\..\arduinoLCD\test\Pain Drain\libraries\lvgl\src\hal/lv_hal_disp.c ****  * @description HAL layer for display driver
   5:..\..\..\arduinoLCD\test\Pain Drain\libraries\lvgl\src\hal/lv_hal_disp.c ****  *
   6:..\..\..\arduinoLCD\test\Pain Drain\libraries\lvgl\src\hal/lv_hal_disp.c ****  */
   7:..\..\..\arduinoLCD\test\Pain Drain\libraries\lvgl\src\hal/lv_hal_disp.c **** 
   8:..\..\..\arduinoLCD\test\Pain Drain\libraries\lvgl\src\hal/lv_hal_disp.c **** /*********************
   9:..\..\..\arduinoLCD\test\Pain Drain\libraries\lvgl\src\hal/lv_hal_disp.c ****  *      INCLUDES
  10:..\..\..\arduinoLCD\test\Pain Drain\libraries\lvgl\src\hal/lv_hal_disp.c ****  *********************/
  11:..\..\..\arduinoLCD\test\Pain Drain\libraries\lvgl\src\hal/lv_hal_disp.c **** #include <stdint.h>
  12:..\..\..\arduinoLCD\test\Pain Drain\libraries\lvgl\src\hal/lv_hal_disp.c **** #include <stddef.h>
  13:..\..\..\arduinoLCD\test\Pain Drain\libraries\lvgl\src\hal/lv_hal_disp.c **** #include "lv_hal.h"
  14:..\..\..\arduinoLCD\test\Pain Drain\libraries\lvgl\src\hal/lv_hal_disp.c **** #include "../misc/lv_mem.h"
  15:..\..\..\arduinoLCD\test\Pain Drain\libraries\lvgl\src\hal/lv_hal_disp.c **** #include "../misc/lv_gc.h"
  16:..\..\..\arduinoLCD\test\Pain Drain\libraries\lvgl\src\hal/lv_hal_disp.c **** #include "../misc/lv_assert.h"
  17:..\..\..\arduinoLCD\test\Pain Drain\libraries\lvgl\src\hal/lv_hal_disp.c **** #include "../core/lv_obj.h"
  18:..\..\..\arduinoLCD\test\Pain Drain\libraries\lvgl\src\hal/lv_hal_disp.c **** #include "../core/lv_refr.h"
  19:..\..\..\arduinoLCD\test\Pain Drain\libraries\lvgl\src\hal/lv_hal_disp.c **** #include "../core/lv_theme.h"
  20:..\..\..\arduinoLCD\test\Pain Drain\libraries\lvgl\src\hal/lv_hal_disp.c **** #include "../draw/sdl/lv_draw_sdl.h"
  21:..\..\..\arduinoLCD\test\Pain Drain\libraries\lvgl\src\hal/lv_hal_disp.c **** #include "../draw/sw/lv_draw_sw.h"
  22:..\..\..\arduinoLCD\test\Pain Drain\libraries\lvgl\src\hal/lv_hal_disp.c **** #include "../draw/sdl/lv_draw_sdl.h"
  23:..\..\..\arduinoLCD\test\Pain Drain\libraries\lvgl\src\hal/lv_hal_disp.c **** #include "../draw/stm32_dma2d/lv_gpu_stm32_dma2d.h"
  24:..\..\..\arduinoLCD\test\Pain Drain\libraries\lvgl\src\hal/lv_hal_disp.c **** #include "../draw/swm341_dma2d/lv_gpu_swm341_dma2d.h"
  25:..\..\..\arduinoLCD\test\Pain Drain\libraries\lvgl\src\hal/lv_hal_disp.c **** #include "../draw/arm2d/lv_gpu_arm2d.h"
  26:..\..\..\arduinoLCD\test\Pain Drain\libraries\lvgl\src\hal/lv_hal_disp.c **** #include "../draw/nxp/vglite/lv_draw_vglite.h"
  27:..\..\..\arduinoLCD\test\Pain Drain\libraries\lvgl\src\hal/lv_hal_disp.c **** #include "../draw/nxp/pxp/lv_draw_pxp.h"
  28:..\..\..\arduinoLCD\test\Pain Drain\libraries\lvgl\src\hal/lv_hal_disp.c **** 
  29:..\..\..\arduinoLCD\test\Pain Drain\libraries\lvgl\src\hal/lv_hal_disp.c **** #if LV_USE_THEME_DEFAULT
  30:..\..\..\arduinoLCD\test\Pain Drain\libraries\lvgl\src\hal/lv_hal_disp.c ****     #include "../extra/themes/default/lv_theme_default.h"
ARM GAS  C:\Users\haske\AppData\Local\Temp\ccN8jSR9.s 			page 2


  31:..\..\..\arduinoLCD\test\Pain Drain\libraries\lvgl\src\hal/lv_hal_disp.c **** #endif
  32:..\..\..\arduinoLCD\test\Pain Drain\libraries\lvgl\src\hal/lv_hal_disp.c **** 
  33:..\..\..\arduinoLCD\test\Pain Drain\libraries\lvgl\src\hal/lv_hal_disp.c **** /*********************
  34:..\..\..\arduinoLCD\test\Pain Drain\libraries\lvgl\src\hal/lv_hal_disp.c ****  *      DEFINES
  35:..\..\..\arduinoLCD\test\Pain Drain\libraries\lvgl\src\hal/lv_hal_disp.c ****  *********************/
  36:..\..\..\arduinoLCD\test\Pain Drain\libraries\lvgl\src\hal/lv_hal_disp.c **** 
  37:..\..\..\arduinoLCD\test\Pain Drain\libraries\lvgl\src\hal/lv_hal_disp.c **** /**********************
  38:..\..\..\arduinoLCD\test\Pain Drain\libraries\lvgl\src\hal/lv_hal_disp.c ****  *      TYPEDEFS
  39:..\..\..\arduinoLCD\test\Pain Drain\libraries\lvgl\src\hal/lv_hal_disp.c ****  **********************/
  40:..\..\..\arduinoLCD\test\Pain Drain\libraries\lvgl\src\hal/lv_hal_disp.c **** 
  41:..\..\..\arduinoLCD\test\Pain Drain\libraries\lvgl\src\hal/lv_hal_disp.c **** /**********************
  42:..\..\..\arduinoLCD\test\Pain Drain\libraries\lvgl\src\hal/lv_hal_disp.c ****  *  STATIC PROTOTYPES
  43:..\..\..\arduinoLCD\test\Pain Drain\libraries\lvgl\src\hal/lv_hal_disp.c ****  **********************/
  44:..\..\..\arduinoLCD\test\Pain Drain\libraries\lvgl\src\hal/lv_hal_disp.c **** static lv_obj_tree_walk_res_t invalidate_layout_cb(lv_obj_t * obj, void * user_data);
  45:..\..\..\arduinoLCD\test\Pain Drain\libraries\lvgl\src\hal/lv_hal_disp.c **** 
  46:..\..\..\arduinoLCD\test\Pain Drain\libraries\lvgl\src\hal/lv_hal_disp.c **** static void set_px_true_color_alpha(lv_disp_drv_t * disp_drv, uint8_t * buf, lv_coord_t buf_w, lv_c
  47:..\..\..\arduinoLCD\test\Pain Drain\libraries\lvgl\src\hal/lv_hal_disp.c ****                                     lv_coord_t y,
  48:..\..\..\arduinoLCD\test\Pain Drain\libraries\lvgl\src\hal/lv_hal_disp.c ****                                     lv_color_t color, lv_opa_t opa);
  49:..\..\..\arduinoLCD\test\Pain Drain\libraries\lvgl\src\hal/lv_hal_disp.c **** 
  50:..\..\..\arduinoLCD\test\Pain Drain\libraries\lvgl\src\hal/lv_hal_disp.c **** static void set_px_cb_alpha1(lv_disp_drv_t * disp_drv, uint8_t * buf, lv_coord_t buf_w, lv_coord_t 
  51:..\..\..\arduinoLCD\test\Pain Drain\libraries\lvgl\src\hal/lv_hal_disp.c ****                              lv_color_t color, lv_opa_t opa);
  52:..\..\..\arduinoLCD\test\Pain Drain\libraries\lvgl\src\hal/lv_hal_disp.c **** 
  53:..\..\..\arduinoLCD\test\Pain Drain\libraries\lvgl\src\hal/lv_hal_disp.c **** static void set_px_cb_alpha2(lv_disp_drv_t * disp_drv, uint8_t * buf, lv_coord_t buf_w, lv_coord_t 
  54:..\..\..\arduinoLCD\test\Pain Drain\libraries\lvgl\src\hal/lv_hal_disp.c ****                              lv_color_t color, lv_opa_t opa);
  55:..\..\..\arduinoLCD\test\Pain Drain\libraries\lvgl\src\hal/lv_hal_disp.c **** 
  56:..\..\..\arduinoLCD\test\Pain Drain\libraries\lvgl\src\hal/lv_hal_disp.c **** static void set_px_cb_alpha4(lv_disp_drv_t * disp_drv, uint8_t * buf, lv_coord_t buf_w, lv_coord_t 
  57:..\..\..\arduinoLCD\test\Pain Drain\libraries\lvgl\src\hal/lv_hal_disp.c ****                              lv_color_t color, lv_opa_t opa);
  58:..\..\..\arduinoLCD\test\Pain Drain\libraries\lvgl\src\hal/lv_hal_disp.c **** 
  59:..\..\..\arduinoLCD\test\Pain Drain\libraries\lvgl\src\hal/lv_hal_disp.c **** static void set_px_cb_alpha8(lv_disp_drv_t * disp_drv, uint8_t * buf, lv_coord_t buf_w, lv_coord_t 
  60:..\..\..\arduinoLCD\test\Pain Drain\libraries\lvgl\src\hal/lv_hal_disp.c ****                              lv_color_t color, lv_opa_t opa);
  61:..\..\..\arduinoLCD\test\Pain Drain\libraries\lvgl\src\hal/lv_hal_disp.c **** 
  62:..\..\..\arduinoLCD\test\Pain Drain\libraries\lvgl\src\hal/lv_hal_disp.c **** static void set_px_alpha_generic(lv_img_dsc_t * d, lv_coord_t x, lv_coord_t y, lv_color_t color, lv
  63:..\..\..\arduinoLCD\test\Pain Drain\libraries\lvgl\src\hal/lv_hal_disp.c **** 
  64:..\..\..\arduinoLCD\test\Pain Drain\libraries\lvgl\src\hal/lv_hal_disp.c **** /**********************
  65:..\..\..\arduinoLCD\test\Pain Drain\libraries\lvgl\src\hal/lv_hal_disp.c ****  *  STATIC VARIABLES
  66:..\..\..\arduinoLCD\test\Pain Drain\libraries\lvgl\src\hal/lv_hal_disp.c ****  **********************/
  67:..\..\..\arduinoLCD\test\Pain Drain\libraries\lvgl\src\hal/lv_hal_disp.c **** static lv_disp_t * disp_def;
  68:..\..\..\arduinoLCD\test\Pain Drain\libraries\lvgl\src\hal/lv_hal_disp.c **** 
  69:..\..\..\arduinoLCD\test\Pain Drain\libraries\lvgl\src\hal/lv_hal_disp.c **** /**********************
  70:..\..\..\arduinoLCD\test\Pain Drain\libraries\lvgl\src\hal/lv_hal_disp.c ****  *      MACROS
  71:..\..\..\arduinoLCD\test\Pain Drain\libraries\lvgl\src\hal/lv_hal_disp.c ****  **********************/
  72:..\..\..\arduinoLCD\test\Pain Drain\libraries\lvgl\src\hal/lv_hal_disp.c **** 
  73:..\..\..\arduinoLCD\test\Pain Drain\libraries\lvgl\src\hal/lv_hal_disp.c **** /**********************
  74:..\..\..\arduinoLCD\test\Pain Drain\libraries\lvgl\src\hal/lv_hal_disp.c ****  *   GLOBAL FUNCTIONS
  75:..\..\..\arduinoLCD\test\Pain Drain\libraries\lvgl\src\hal/lv_hal_disp.c ****  **********************/
  76:..\..\..\arduinoLCD\test\Pain Drain\libraries\lvgl\src\hal/lv_hal_disp.c **** 
  77:..\..\..\arduinoLCD\test\Pain Drain\libraries\lvgl\src\hal/lv_hal_disp.c **** /**
  78:..\..\..\arduinoLCD\test\Pain Drain\libraries\lvgl\src\hal/lv_hal_disp.c ****  * Initialize a display driver with default values.
  79:..\..\..\arduinoLCD\test\Pain Drain\libraries\lvgl\src\hal/lv_hal_disp.c ****  * It is used to surly have known values in the fields ant not memory junk.
  80:..\..\..\arduinoLCD\test\Pain Drain\libraries\lvgl\src\hal/lv_hal_disp.c ****  * After it you can set the fields.
  81:..\..\..\arduinoLCD\test\Pain Drain\libraries\lvgl\src\hal/lv_hal_disp.c ****  * @param driver pointer to driver variable to initialize
  82:..\..\..\arduinoLCD\test\Pain Drain\libraries\lvgl\src\hal/lv_hal_disp.c ****  */
  83:..\..\..\arduinoLCD\test\Pain Drain\libraries\lvgl\src\hal/lv_hal_disp.c **** void lv_disp_drv_init(lv_disp_drv_t * driver)
  84:..\..\..\arduinoLCD\test\Pain Drain\libraries\lvgl\src\hal/lv_hal_disp.c **** {
  85:..\..\..\arduinoLCD\test\Pain Drain\libraries\lvgl\src\hal/lv_hal_disp.c ****     lv_memset_00(driver, sizeof(lv_disp_drv_t));
  86:..\..\..\arduinoLCD\test\Pain Drain\libraries\lvgl\src\hal/lv_hal_disp.c **** 
  87:..\..\..\arduinoLCD\test\Pain Drain\libraries\lvgl\src\hal/lv_hal_disp.c ****     driver->hor_res          = 320;
ARM GAS  C:\Users\haske\AppData\Local\Temp\ccN8jSR9.s 			page 3


  88:..\..\..\arduinoLCD\test\Pain Drain\libraries\lvgl\src\hal/lv_hal_disp.c ****     driver->ver_res          = 240;
  89:..\..\..\arduinoLCD\test\Pain Drain\libraries\lvgl\src\hal/lv_hal_disp.c ****     driver->physical_hor_res = -1;
  90:..\..\..\arduinoLCD\test\Pain Drain\libraries\lvgl\src\hal/lv_hal_disp.c ****     driver->physical_ver_res = -1;
  91:..\..\..\arduinoLCD\test\Pain Drain\libraries\lvgl\src\hal/lv_hal_disp.c ****     driver->offset_x         = 0;
  92:..\..\..\arduinoLCD\test\Pain Drain\libraries\lvgl\src\hal/lv_hal_disp.c ****     driver->offset_y         = 0;
  93:..\..\..\arduinoLCD\test\Pain Drain\libraries\lvgl\src\hal/lv_hal_disp.c ****     driver->antialiasing     = LV_COLOR_DEPTH > 8 ? 1 : 0;
  94:..\..\..\arduinoLCD\test\Pain Drain\libraries\lvgl\src\hal/lv_hal_disp.c ****     driver->screen_transp    = 0;
  95:..\..\..\arduinoLCD\test\Pain Drain\libraries\lvgl\src\hal/lv_hal_disp.c ****     driver->dpi              = LV_DPI_DEF;
  96:..\..\..\arduinoLCD\test\Pain Drain\libraries\lvgl\src\hal/lv_hal_disp.c ****     driver->color_chroma_key = LV_COLOR_CHROMA_KEY;
  97:..\..\..\arduinoLCD\test\Pain Drain\libraries\lvgl\src\hal/lv_hal_disp.c **** 
  98:..\..\..\arduinoLCD\test\Pain Drain\libraries\lvgl\src\hal/lv_hal_disp.c **** 
  99:..\..\..\arduinoLCD\test\Pain Drain\libraries\lvgl\src\hal/lv_hal_disp.c **** #if LV_USE_GPU_STM32_DMA2D
 100:..\..\..\arduinoLCD\test\Pain Drain\libraries\lvgl\src\hal/lv_hal_disp.c ****     driver->draw_ctx_init = lv_draw_stm32_dma2d_ctx_init;
 101:..\..\..\arduinoLCD\test\Pain Drain\libraries\lvgl\src\hal/lv_hal_disp.c ****     driver->draw_ctx_deinit = lv_draw_stm32_dma2d_ctx_init;
 102:..\..\..\arduinoLCD\test\Pain Drain\libraries\lvgl\src\hal/lv_hal_disp.c ****     driver->draw_ctx_size = sizeof(lv_draw_stm32_dma2d_ctx_t);
 103:..\..\..\arduinoLCD\test\Pain Drain\libraries\lvgl\src\hal/lv_hal_disp.c **** #elif LV_USE_GPU_SWM341_DMA2D
 104:..\..\..\arduinoLCD\test\Pain Drain\libraries\lvgl\src\hal/lv_hal_disp.c ****     driver->draw_ctx_init = lv_draw_swm341_dma2d_ctx_init;
 105:..\..\..\arduinoLCD\test\Pain Drain\libraries\lvgl\src\hal/lv_hal_disp.c ****     driver->draw_ctx_deinit = lv_draw_swm341_dma2d_ctx_init;
 106:..\..\..\arduinoLCD\test\Pain Drain\libraries\lvgl\src\hal/lv_hal_disp.c ****     driver->draw_ctx_size = sizeof(lv_draw_swm341_dma2d_ctx_t);
 107:..\..\..\arduinoLCD\test\Pain Drain\libraries\lvgl\src\hal/lv_hal_disp.c **** #elif LV_USE_GPU_NXP_VG_LITE
 108:..\..\..\arduinoLCD\test\Pain Drain\libraries\lvgl\src\hal/lv_hal_disp.c ****     driver->draw_ctx_init = lv_draw_vglite_ctx_init;
 109:..\..\..\arduinoLCD\test\Pain Drain\libraries\lvgl\src\hal/lv_hal_disp.c ****     driver->draw_ctx_deinit = lv_draw_vglite_ctx_deinit;
 110:..\..\..\arduinoLCD\test\Pain Drain\libraries\lvgl\src\hal/lv_hal_disp.c ****     driver->draw_ctx_size = sizeof(lv_draw_vglite_ctx_t);
 111:..\..\..\arduinoLCD\test\Pain Drain\libraries\lvgl\src\hal/lv_hal_disp.c **** #elif LV_USE_GPU_NXP_PXP
 112:..\..\..\arduinoLCD\test\Pain Drain\libraries\lvgl\src\hal/lv_hal_disp.c ****     driver->draw_ctx_init = lv_draw_pxp_ctx_init;
 113:..\..\..\arduinoLCD\test\Pain Drain\libraries\lvgl\src\hal/lv_hal_disp.c ****     driver->draw_ctx_deinit = lv_draw_pxp_ctx_deinit;
 114:..\..\..\arduinoLCD\test\Pain Drain\libraries\lvgl\src\hal/lv_hal_disp.c ****     driver->draw_ctx_size = sizeof(lv_draw_pxp_ctx_t);
 115:..\..\..\arduinoLCD\test\Pain Drain\libraries\lvgl\src\hal/lv_hal_disp.c **** #elif LV_USE_GPU_SDL
 116:..\..\..\arduinoLCD\test\Pain Drain\libraries\lvgl\src\hal/lv_hal_disp.c ****     driver->draw_ctx_init = lv_draw_sdl_init_ctx;
 117:..\..\..\arduinoLCD\test\Pain Drain\libraries\lvgl\src\hal/lv_hal_disp.c ****     driver->draw_ctx_deinit = lv_draw_sdl_deinit_ctx;
 118:..\..\..\arduinoLCD\test\Pain Drain\libraries\lvgl\src\hal/lv_hal_disp.c ****     driver->draw_ctx_size = sizeof(lv_draw_sdl_ctx_t);
 119:..\..\..\arduinoLCD\test\Pain Drain\libraries\lvgl\src\hal/lv_hal_disp.c **** #elif LV_USE_GPU_ARM2D
 120:..\..\..\arduinoLCD\test\Pain Drain\libraries\lvgl\src\hal/lv_hal_disp.c ****     driver->draw_ctx_init = lv_draw_arm2d_ctx_init;
 121:..\..\..\arduinoLCD\test\Pain Drain\libraries\lvgl\src\hal/lv_hal_disp.c ****     driver->draw_ctx_deinit = lv_draw_arm2d_ctx_init;
 122:..\..\..\arduinoLCD\test\Pain Drain\libraries\lvgl\src\hal/lv_hal_disp.c ****     driver->draw_ctx_size = sizeof(lv_draw_arm2d_ctx_t);
 123:..\..\..\arduinoLCD\test\Pain Drain\libraries\lvgl\src\hal/lv_hal_disp.c **** #else
 124:..\..\..\arduinoLCD\test\Pain Drain\libraries\lvgl\src\hal/lv_hal_disp.c ****     driver->draw_ctx_init = lv_draw_sw_init_ctx;
 125:..\..\..\arduinoLCD\test\Pain Drain\libraries\lvgl\src\hal/lv_hal_disp.c ****     driver->draw_ctx_deinit = lv_draw_sw_init_ctx;
 126:..\..\..\arduinoLCD\test\Pain Drain\libraries\lvgl\src\hal/lv_hal_disp.c ****     driver->draw_ctx_size = sizeof(lv_draw_sw_ctx_t);
 127:..\..\..\arduinoLCD\test\Pain Drain\libraries\lvgl\src\hal/lv_hal_disp.c **** #endif
 128:..\..\..\arduinoLCD\test\Pain Drain\libraries\lvgl\src\hal/lv_hal_disp.c **** 
 129:..\..\..\arduinoLCD\test\Pain Drain\libraries\lvgl\src\hal/lv_hal_disp.c **** }
 130:..\..\..\arduinoLCD\test\Pain Drain\libraries\lvgl\src\hal/lv_hal_disp.c **** 
 131:..\..\..\arduinoLCD\test\Pain Drain\libraries\lvgl\src\hal/lv_hal_disp.c **** /**
 132:..\..\..\arduinoLCD\test\Pain Drain\libraries\lvgl\src\hal/lv_hal_disp.c ****  * Initialize a display buffer
 133:..\..\..\arduinoLCD\test\Pain Drain\libraries\lvgl\src\hal/lv_hal_disp.c ****  * @param draw_buf pointer `lv_disp_draw_buf_t` variable to initialize
 134:..\..\..\arduinoLCD\test\Pain Drain\libraries\lvgl\src\hal/lv_hal_disp.c ****  * @param buf1 A buffer to be used by LVGL to draw the image.
 135:..\..\..\arduinoLCD\test\Pain Drain\libraries\lvgl\src\hal/lv_hal_disp.c ****  *             Always has to specified and can't be NULL.
 136:..\..\..\arduinoLCD\test\Pain Drain\libraries\lvgl\src\hal/lv_hal_disp.c ****  *             Can be an array allocated by the user. E.g. `static lv_color_t disp_buf1[1024 * 10]`
 137:..\..\..\arduinoLCD\test\Pain Drain\libraries\lvgl\src\hal/lv_hal_disp.c ****  *             Or a memory address e.g. in external SRAM
 138:..\..\..\arduinoLCD\test\Pain Drain\libraries\lvgl\src\hal/lv_hal_disp.c ****  * @param buf2 Optionally specify a second buffer to make image rendering and image flushing
 139:..\..\..\arduinoLCD\test\Pain Drain\libraries\lvgl\src\hal/lv_hal_disp.c ****  *             (sending to the display) parallel.
 140:..\..\..\arduinoLCD\test\Pain Drain\libraries\lvgl\src\hal/lv_hal_disp.c ****  *             In the `disp_drv->flush` you should use DMA or similar hardware to send
 141:..\..\..\arduinoLCD\test\Pain Drain\libraries\lvgl\src\hal/lv_hal_disp.c ****  *             the image to the display in the background.
 142:..\..\..\arduinoLCD\test\Pain Drain\libraries\lvgl\src\hal/lv_hal_disp.c ****  *             It lets LVGL to render next frame into the other buffer while previous is being
 143:..\..\..\arduinoLCD\test\Pain Drain\libraries\lvgl\src\hal/lv_hal_disp.c ****  * sent. Set to `NULL` if unused.
 144:..\..\..\arduinoLCD\test\Pain Drain\libraries\lvgl\src\hal/lv_hal_disp.c ****  * @param size_in_px_cnt size of the `buf1` and `buf2` in pixel count.
ARM GAS  C:\Users\haske\AppData\Local\Temp\ccN8jSR9.s 			page 4


 145:..\..\..\arduinoLCD\test\Pain Drain\libraries\lvgl\src\hal/lv_hal_disp.c ****  */
 146:..\..\..\arduinoLCD\test\Pain Drain\libraries\lvgl\src\hal/lv_hal_disp.c **** void lv_disp_draw_buf_init(lv_disp_draw_buf_t * draw_buf, void * buf1, void * buf2, uint32_t size_i
 147:..\..\..\arduinoLCD\test\Pain Drain\libraries\lvgl\src\hal/lv_hal_disp.c **** {
 148:..\..\..\arduinoLCD\test\Pain Drain\libraries\lvgl\src\hal/lv_hal_disp.c ****     lv_memset_00(draw_buf, sizeof(lv_disp_draw_buf_t));
 149:..\..\..\arduinoLCD\test\Pain Drain\libraries\lvgl\src\hal/lv_hal_disp.c **** 
 150:..\..\..\arduinoLCD\test\Pain Drain\libraries\lvgl\src\hal/lv_hal_disp.c ****     draw_buf->buf1    = buf1;
 151:..\..\..\arduinoLCD\test\Pain Drain\libraries\lvgl\src\hal/lv_hal_disp.c ****     draw_buf->buf2    = buf2;
 152:..\..\..\arduinoLCD\test\Pain Drain\libraries\lvgl\src\hal/lv_hal_disp.c ****     draw_buf->buf_act = draw_buf->buf1;
 153:..\..\..\arduinoLCD\test\Pain Drain\libraries\lvgl\src\hal/lv_hal_disp.c ****     draw_buf->size    = size_in_px_cnt;
 154:..\..\..\arduinoLCD\test\Pain Drain\libraries\lvgl\src\hal/lv_hal_disp.c **** }
 155:..\..\..\arduinoLCD\test\Pain Drain\libraries\lvgl\src\hal/lv_hal_disp.c **** 
 156:..\..\..\arduinoLCD\test\Pain Drain\libraries\lvgl\src\hal/lv_hal_disp.c **** /**
 157:..\..\..\arduinoLCD\test\Pain Drain\libraries\lvgl\src\hal/lv_hal_disp.c ****  * Register an initialized display driver.
 158:..\..\..\arduinoLCD\test\Pain Drain\libraries\lvgl\src\hal/lv_hal_disp.c ****  * Automatically set the first display as active.
 159:..\..\..\arduinoLCD\test\Pain Drain\libraries\lvgl\src\hal/lv_hal_disp.c ****  * @param driver pointer to an initialized 'lv_disp_drv_t' variable. Only its pointer is saved!
 160:..\..\..\arduinoLCD\test\Pain Drain\libraries\lvgl\src\hal/lv_hal_disp.c ****  * @return pointer to the new display or NULL on error
 161:..\..\..\arduinoLCD\test\Pain Drain\libraries\lvgl\src\hal/lv_hal_disp.c ****  */
 162:..\..\..\arduinoLCD\test\Pain Drain\libraries\lvgl\src\hal/lv_hal_disp.c **** lv_disp_t * lv_disp_drv_register(lv_disp_drv_t * driver)
 163:..\..\..\arduinoLCD\test\Pain Drain\libraries\lvgl\src\hal/lv_hal_disp.c **** {
 164:..\..\..\arduinoLCD\test\Pain Drain\libraries\lvgl\src\hal/lv_hal_disp.c ****     lv_disp_t * disp = _lv_ll_ins_head(&LV_GC_ROOT(_lv_disp_ll));
 165:..\..\..\arduinoLCD\test\Pain Drain\libraries\lvgl\src\hal/lv_hal_disp.c ****     LV_ASSERT_MALLOC(disp);
 166:..\..\..\arduinoLCD\test\Pain Drain\libraries\lvgl\src\hal/lv_hal_disp.c ****     if(!disp) {
 167:..\..\..\arduinoLCD\test\Pain Drain\libraries\lvgl\src\hal/lv_hal_disp.c ****         return NULL;
 168:..\..\..\arduinoLCD\test\Pain Drain\libraries\lvgl\src\hal/lv_hal_disp.c ****     }
 169:..\..\..\arduinoLCD\test\Pain Drain\libraries\lvgl\src\hal/lv_hal_disp.c **** 
 170:..\..\..\arduinoLCD\test\Pain Drain\libraries\lvgl\src\hal/lv_hal_disp.c ****     /*Create a draw context if not created yet*/
 171:..\..\..\arduinoLCD\test\Pain Drain\libraries\lvgl\src\hal/lv_hal_disp.c ****     if(driver->draw_ctx == NULL) {
 172:..\..\..\arduinoLCD\test\Pain Drain\libraries\lvgl\src\hal/lv_hal_disp.c ****         lv_draw_ctx_t * draw_ctx = lv_mem_alloc(driver->draw_ctx_size);
 173:..\..\..\arduinoLCD\test\Pain Drain\libraries\lvgl\src\hal/lv_hal_disp.c ****         LV_ASSERT_MALLOC(draw_ctx);
 174:..\..\..\arduinoLCD\test\Pain Drain\libraries\lvgl\src\hal/lv_hal_disp.c ****         if(draw_ctx == NULL) return NULL;
 175:..\..\..\arduinoLCD\test\Pain Drain\libraries\lvgl\src\hal/lv_hal_disp.c ****         driver->draw_ctx_init(driver, draw_ctx);
 176:..\..\..\arduinoLCD\test\Pain Drain\libraries\lvgl\src\hal/lv_hal_disp.c ****         driver->draw_ctx = draw_ctx;
 177:..\..\..\arduinoLCD\test\Pain Drain\libraries\lvgl\src\hal/lv_hal_disp.c ****     }
 178:..\..\..\arduinoLCD\test\Pain Drain\libraries\lvgl\src\hal/lv_hal_disp.c **** 
 179:..\..\..\arduinoLCD\test\Pain Drain\libraries\lvgl\src\hal/lv_hal_disp.c ****     lv_memset_00(disp, sizeof(lv_disp_t));
 180:..\..\..\arduinoLCD\test\Pain Drain\libraries\lvgl\src\hal/lv_hal_disp.c **** 
 181:..\..\..\arduinoLCD\test\Pain Drain\libraries\lvgl\src\hal/lv_hal_disp.c ****     disp->driver = driver;
 182:..\..\..\arduinoLCD\test\Pain Drain\libraries\lvgl\src\hal/lv_hal_disp.c **** 
 183:..\..\..\arduinoLCD\test\Pain Drain\libraries\lvgl\src\hal/lv_hal_disp.c ****     disp->inv_en_cnt = 1;
 184:..\..\..\arduinoLCD\test\Pain Drain\libraries\lvgl\src\hal/lv_hal_disp.c **** 
 185:..\..\..\arduinoLCD\test\Pain Drain\libraries\lvgl\src\hal/lv_hal_disp.c ****     lv_disp_t * disp_def_tmp = disp_def;
 186:..\..\..\arduinoLCD\test\Pain Drain\libraries\lvgl\src\hal/lv_hal_disp.c ****     disp_def                 = disp; /*Temporarily change the default screen to create the default 
 187:..\..\..\arduinoLCD\test\Pain Drain\libraries\lvgl\src\hal/lv_hal_disp.c ****                                         new display*/
 188:..\..\..\arduinoLCD\test\Pain Drain\libraries\lvgl\src\hal/lv_hal_disp.c ****     /*Create a refresh timer*/
 189:..\..\..\arduinoLCD\test\Pain Drain\libraries\lvgl\src\hal/lv_hal_disp.c ****     disp->refr_timer = lv_timer_create(_lv_disp_refr_timer, LV_DISP_DEF_REFR_PERIOD, disp);
 190:..\..\..\arduinoLCD\test\Pain Drain\libraries\lvgl\src\hal/lv_hal_disp.c ****     LV_ASSERT_MALLOC(disp->refr_timer);
 191:..\..\..\arduinoLCD\test\Pain Drain\libraries\lvgl\src\hal/lv_hal_disp.c ****     if(disp->refr_timer == NULL) {
 192:..\..\..\arduinoLCD\test\Pain Drain\libraries\lvgl\src\hal/lv_hal_disp.c ****         lv_mem_free(disp);
 193:..\..\..\arduinoLCD\test\Pain Drain\libraries\lvgl\src\hal/lv_hal_disp.c ****         return NULL;
 194:..\..\..\arduinoLCD\test\Pain Drain\libraries\lvgl\src\hal/lv_hal_disp.c ****     }
 195:..\..\..\arduinoLCD\test\Pain Drain\libraries\lvgl\src\hal/lv_hal_disp.c **** 
 196:..\..\..\arduinoLCD\test\Pain Drain\libraries\lvgl\src\hal/lv_hal_disp.c ****     if(driver->full_refresh && driver->draw_buf->size < (uint32_t)driver->hor_res * driver->ver_res
 197:..\..\..\arduinoLCD\test\Pain Drain\libraries\lvgl\src\hal/lv_hal_disp.c ****         driver->full_refresh = 0;
 198:..\..\..\arduinoLCD\test\Pain Drain\libraries\lvgl\src\hal/lv_hal_disp.c ****         LV_LOG_WARN("full_refresh requires at least screen sized draw buffer(s)");
 199:..\..\..\arduinoLCD\test\Pain Drain\libraries\lvgl\src\hal/lv_hal_disp.c ****     }
 200:..\..\..\arduinoLCD\test\Pain Drain\libraries\lvgl\src\hal/lv_hal_disp.c **** 
 201:..\..\..\arduinoLCD\test\Pain Drain\libraries\lvgl\src\hal/lv_hal_disp.c ****     disp->bg_color = lv_color_white();
ARM GAS  C:\Users\haske\AppData\Local\Temp\ccN8jSR9.s 			page 5


 202:..\..\..\arduinoLCD\test\Pain Drain\libraries\lvgl\src\hal/lv_hal_disp.c **** #if LV_COLOR_SCREEN_TRANSP
 203:..\..\..\arduinoLCD\test\Pain Drain\libraries\lvgl\src\hal/lv_hal_disp.c ****     disp->bg_opa = LV_OPA_TRANSP;
 204:..\..\..\arduinoLCD\test\Pain Drain\libraries\lvgl\src\hal/lv_hal_disp.c **** #else
 205:..\..\..\arduinoLCD\test\Pain Drain\libraries\lvgl\src\hal/lv_hal_disp.c ****     disp->bg_opa = LV_OPA_COVER;
 206:..\..\..\arduinoLCD\test\Pain Drain\libraries\lvgl\src\hal/lv_hal_disp.c **** #endif
 207:..\..\..\arduinoLCD\test\Pain Drain\libraries\lvgl\src\hal/lv_hal_disp.c **** 
 208:..\..\..\arduinoLCD\test\Pain Drain\libraries\lvgl\src\hal/lv_hal_disp.c **** #if LV_USE_THEME_DEFAULT
 209:..\..\..\arduinoLCD\test\Pain Drain\libraries\lvgl\src\hal/lv_hal_disp.c ****     if(lv_theme_default_is_inited() == false) {
 210:..\..\..\arduinoLCD\test\Pain Drain\libraries\lvgl\src\hal/lv_hal_disp.c ****         disp->theme = lv_theme_default_init(disp, lv_palette_main(LV_PALETTE_BLUE), lv_palette_main
 211:..\..\..\arduinoLCD\test\Pain Drain\libraries\lvgl\src\hal/lv_hal_disp.c ****                                             LV_THEME_DEFAULT_DARK, LV_FONT_DEFAULT);
 212:..\..\..\arduinoLCD\test\Pain Drain\libraries\lvgl\src\hal/lv_hal_disp.c ****     }
 213:..\..\..\arduinoLCD\test\Pain Drain\libraries\lvgl\src\hal/lv_hal_disp.c ****     else {
 214:..\..\..\arduinoLCD\test\Pain Drain\libraries\lvgl\src\hal/lv_hal_disp.c ****         disp->theme = lv_theme_default_get();
 215:..\..\..\arduinoLCD\test\Pain Drain\libraries\lvgl\src\hal/lv_hal_disp.c ****     }
 216:..\..\..\arduinoLCD\test\Pain Drain\libraries\lvgl\src\hal/lv_hal_disp.c **** #endif
 217:..\..\..\arduinoLCD\test\Pain Drain\libraries\lvgl\src\hal/lv_hal_disp.c **** 
 218:..\..\..\arduinoLCD\test\Pain Drain\libraries\lvgl\src\hal/lv_hal_disp.c ****     disp->act_scr   = lv_obj_create(NULL); /*Create a default screen on the display*/
 219:..\..\..\arduinoLCD\test\Pain Drain\libraries\lvgl\src\hal/lv_hal_disp.c ****     disp->top_layer = lv_obj_create(NULL); /*Create top layer on the display*/
 220:..\..\..\arduinoLCD\test\Pain Drain\libraries\lvgl\src\hal/lv_hal_disp.c ****     disp->sys_layer = lv_obj_create(NULL); /*Create sys layer on the display*/
 221:..\..\..\arduinoLCD\test\Pain Drain\libraries\lvgl\src\hal/lv_hal_disp.c ****     lv_obj_remove_style_all(disp->top_layer);
 222:..\..\..\arduinoLCD\test\Pain Drain\libraries\lvgl\src\hal/lv_hal_disp.c ****     lv_obj_remove_style_all(disp->sys_layer);
 223:..\..\..\arduinoLCD\test\Pain Drain\libraries\lvgl\src\hal/lv_hal_disp.c ****     lv_obj_clear_flag(disp->top_layer, LV_OBJ_FLAG_CLICKABLE);
 224:..\..\..\arduinoLCD\test\Pain Drain\libraries\lvgl\src\hal/lv_hal_disp.c ****     lv_obj_clear_flag(disp->sys_layer, LV_OBJ_FLAG_CLICKABLE);
 225:..\..\..\arduinoLCD\test\Pain Drain\libraries\lvgl\src\hal/lv_hal_disp.c **** 
 226:..\..\..\arduinoLCD\test\Pain Drain\libraries\lvgl\src\hal/lv_hal_disp.c ****     lv_obj_set_scrollbar_mode(disp->top_layer, LV_SCROLLBAR_MODE_OFF);
 227:..\..\..\arduinoLCD\test\Pain Drain\libraries\lvgl\src\hal/lv_hal_disp.c ****     lv_obj_set_scrollbar_mode(disp->sys_layer, LV_SCROLLBAR_MODE_OFF);
 228:..\..\..\arduinoLCD\test\Pain Drain\libraries\lvgl\src\hal/lv_hal_disp.c **** 
 229:..\..\..\arduinoLCD\test\Pain Drain\libraries\lvgl\src\hal/lv_hal_disp.c ****     lv_obj_invalidate(disp->act_scr);
 230:..\..\..\arduinoLCD\test\Pain Drain\libraries\lvgl\src\hal/lv_hal_disp.c **** 
 231:..\..\..\arduinoLCD\test\Pain Drain\libraries\lvgl\src\hal/lv_hal_disp.c ****     disp_def = disp_def_tmp; /*Revert the default display*/
 232:..\..\..\arduinoLCD\test\Pain Drain\libraries\lvgl\src\hal/lv_hal_disp.c ****     if(disp_def == NULL) disp_def = disp; /*Initialize the default display*/
 233:..\..\..\arduinoLCD\test\Pain Drain\libraries\lvgl\src\hal/lv_hal_disp.c **** 
 234:..\..\..\arduinoLCD\test\Pain Drain\libraries\lvgl\src\hal/lv_hal_disp.c ****     lv_timer_ready(disp->refr_timer); /*Be sure the screen will be refreshed immediately on start u
 235:..\..\..\arduinoLCD\test\Pain Drain\libraries\lvgl\src\hal/lv_hal_disp.c **** 
 236:..\..\..\arduinoLCD\test\Pain Drain\libraries\lvgl\src\hal/lv_hal_disp.c ****     return disp;
 237:..\..\..\arduinoLCD\test\Pain Drain\libraries\lvgl\src\hal/lv_hal_disp.c **** }
 238:..\..\..\arduinoLCD\test\Pain Drain\libraries\lvgl\src\hal/lv_hal_disp.c **** 
 239:..\..\..\arduinoLCD\test\Pain Drain\libraries\lvgl\src\hal/lv_hal_disp.c **** /**
 240:..\..\..\arduinoLCD\test\Pain Drain\libraries\lvgl\src\hal/lv_hal_disp.c ****  * Update the driver in run time.
 241:..\..\..\arduinoLCD\test\Pain Drain\libraries\lvgl\src\hal/lv_hal_disp.c ****  * @param disp pointer to a display. (return value of `lv_disp_drv_register`)
 242:..\..\..\arduinoLCD\test\Pain Drain\libraries\lvgl\src\hal/lv_hal_disp.c ****  * @param new_drv pointer to the new driver
 243:..\..\..\arduinoLCD\test\Pain Drain\libraries\lvgl\src\hal/lv_hal_disp.c ****  */
 244:..\..\..\arduinoLCD\test\Pain Drain\libraries\lvgl\src\hal/lv_hal_disp.c **** void lv_disp_drv_update(lv_disp_t * disp, lv_disp_drv_t * new_drv)
 245:..\..\..\arduinoLCD\test\Pain Drain\libraries\lvgl\src\hal/lv_hal_disp.c **** {
 246:..\..\..\arduinoLCD\test\Pain Drain\libraries\lvgl\src\hal/lv_hal_disp.c ****     disp->driver = new_drv;
 247:..\..\..\arduinoLCD\test\Pain Drain\libraries\lvgl\src\hal/lv_hal_disp.c **** 
 248:..\..\..\arduinoLCD\test\Pain Drain\libraries\lvgl\src\hal/lv_hal_disp.c ****     if(disp->driver->full_refresh &&
 249:..\..\..\arduinoLCD\test\Pain Drain\libraries\lvgl\src\hal/lv_hal_disp.c ****        disp->driver->draw_buf->size < (uint32_t)disp->driver->hor_res * disp->driver->ver_res) {
 250:..\..\..\arduinoLCD\test\Pain Drain\libraries\lvgl\src\hal/lv_hal_disp.c ****         disp->driver->full_refresh = 0;
 251:..\..\..\arduinoLCD\test\Pain Drain\libraries\lvgl\src\hal/lv_hal_disp.c ****         LV_LOG_WARN("full_refresh requires at least screen sized draw buffer(s)");
 252:..\..\..\arduinoLCD\test\Pain Drain\libraries\lvgl\src\hal/lv_hal_disp.c ****     }
 253:..\..\..\arduinoLCD\test\Pain Drain\libraries\lvgl\src\hal/lv_hal_disp.c **** 
 254:..\..\..\arduinoLCD\test\Pain Drain\libraries\lvgl\src\hal/lv_hal_disp.c ****     lv_coord_t w = lv_disp_get_hor_res(disp);
 255:..\..\..\arduinoLCD\test\Pain Drain\libraries\lvgl\src\hal/lv_hal_disp.c ****     lv_coord_t h = lv_disp_get_ver_res(disp);
 256:..\..\..\arduinoLCD\test\Pain Drain\libraries\lvgl\src\hal/lv_hal_disp.c ****     uint32_t i;
 257:..\..\..\arduinoLCD\test\Pain Drain\libraries\lvgl\src\hal/lv_hal_disp.c ****     for(i = 0; i < disp->screen_cnt; i++) {
 258:..\..\..\arduinoLCD\test\Pain Drain\libraries\lvgl\src\hal/lv_hal_disp.c ****         lv_area_t prev_coords;
ARM GAS  C:\Users\haske\AppData\Local\Temp\ccN8jSR9.s 			page 6


 259:..\..\..\arduinoLCD\test\Pain Drain\libraries\lvgl\src\hal/lv_hal_disp.c ****         lv_obj_get_coords(disp->screens[i], &prev_coords);
 260:..\..\..\arduinoLCD\test\Pain Drain\libraries\lvgl\src\hal/lv_hal_disp.c ****         lv_area_set_width(&disp->screens[i]->coords, w);
 261:..\..\..\arduinoLCD\test\Pain Drain\libraries\lvgl\src\hal/lv_hal_disp.c ****         lv_area_set_height(&disp->screens[i]->coords, h);
 262:..\..\..\arduinoLCD\test\Pain Drain\libraries\lvgl\src\hal/lv_hal_disp.c ****         lv_event_send(disp->screens[i], LV_EVENT_SIZE_CHANGED, &prev_coords);
 263:..\..\..\arduinoLCD\test\Pain Drain\libraries\lvgl\src\hal/lv_hal_disp.c ****     }
 264:..\..\..\arduinoLCD\test\Pain Drain\libraries\lvgl\src\hal/lv_hal_disp.c **** 
 265:..\..\..\arduinoLCD\test\Pain Drain\libraries\lvgl\src\hal/lv_hal_disp.c ****     /*
 266:..\..\..\arduinoLCD\test\Pain Drain\libraries\lvgl\src\hal/lv_hal_disp.c ****      * This method is usually called upon orientation change, thus the screen is now a
 267:..\..\..\arduinoLCD\test\Pain Drain\libraries\lvgl\src\hal/lv_hal_disp.c ****      * different size.
 268:..\..\..\arduinoLCD\test\Pain Drain\libraries\lvgl\src\hal/lv_hal_disp.c ****      * The object invalidated its previous area. That area is now out of the screen area
 269:..\..\..\arduinoLCD\test\Pain Drain\libraries\lvgl\src\hal/lv_hal_disp.c ****      * so we reset all invalidated areas and invalidate the active screen's new area only.
 270:..\..\..\arduinoLCD\test\Pain Drain\libraries\lvgl\src\hal/lv_hal_disp.c ****      */
 271:..\..\..\arduinoLCD\test\Pain Drain\libraries\lvgl\src\hal/lv_hal_disp.c ****     lv_memset_00(disp->inv_areas, sizeof(disp->inv_areas));
 272:..\..\..\arduinoLCD\test\Pain Drain\libraries\lvgl\src\hal/lv_hal_disp.c ****     lv_memset_00(disp->inv_area_joined, sizeof(disp->inv_area_joined));
 273:..\..\..\arduinoLCD\test\Pain Drain\libraries\lvgl\src\hal/lv_hal_disp.c ****     disp->inv_p = 0;
 274:..\..\..\arduinoLCD\test\Pain Drain\libraries\lvgl\src\hal/lv_hal_disp.c ****     if(disp->act_scr != NULL) lv_obj_invalidate(disp->act_scr);
 275:..\..\..\arduinoLCD\test\Pain Drain\libraries\lvgl\src\hal/lv_hal_disp.c **** 
 276:..\..\..\arduinoLCD\test\Pain Drain\libraries\lvgl\src\hal/lv_hal_disp.c ****     lv_obj_tree_walk(NULL, invalidate_layout_cb, NULL);
 277:..\..\..\arduinoLCD\test\Pain Drain\libraries\lvgl\src\hal/lv_hal_disp.c **** 
 278:..\..\..\arduinoLCD\test\Pain Drain\libraries\lvgl\src\hal/lv_hal_disp.c ****     if(disp->driver->drv_update_cb) disp->driver->drv_update_cb(disp->driver);
 279:..\..\..\arduinoLCD\test\Pain Drain\libraries\lvgl\src\hal/lv_hal_disp.c **** }
 280:..\..\..\arduinoLCD\test\Pain Drain\libraries\lvgl\src\hal/lv_hal_disp.c **** 
 281:..\..\..\arduinoLCD\test\Pain Drain\libraries\lvgl\src\hal/lv_hal_disp.c **** /**
 282:..\..\..\arduinoLCD\test\Pain Drain\libraries\lvgl\src\hal/lv_hal_disp.c ****  * Remove a display
 283:..\..\..\arduinoLCD\test\Pain Drain\libraries\lvgl\src\hal/lv_hal_disp.c ****  * @param disp pointer to display
 284:..\..\..\arduinoLCD\test\Pain Drain\libraries\lvgl\src\hal/lv_hal_disp.c ****  */
 285:..\..\..\arduinoLCD\test\Pain Drain\libraries\lvgl\src\hal/lv_hal_disp.c **** void lv_disp_remove(lv_disp_t * disp)
 286:..\..\..\arduinoLCD\test\Pain Drain\libraries\lvgl\src\hal/lv_hal_disp.c **** {
 287:..\..\..\arduinoLCD\test\Pain Drain\libraries\lvgl\src\hal/lv_hal_disp.c ****     bool was_default = false;
 288:..\..\..\arduinoLCD\test\Pain Drain\libraries\lvgl\src\hal/lv_hal_disp.c ****     if(disp == lv_disp_get_default()) was_default = true;
 289:..\..\..\arduinoLCD\test\Pain Drain\libraries\lvgl\src\hal/lv_hal_disp.c **** 
 290:..\..\..\arduinoLCD\test\Pain Drain\libraries\lvgl\src\hal/lv_hal_disp.c ****     /*Detach the input devices*/
 291:..\..\..\arduinoLCD\test\Pain Drain\libraries\lvgl\src\hal/lv_hal_disp.c ****     lv_indev_t * indev;
 292:..\..\..\arduinoLCD\test\Pain Drain\libraries\lvgl\src\hal/lv_hal_disp.c ****     indev = lv_indev_get_next(NULL);
 293:..\..\..\arduinoLCD\test\Pain Drain\libraries\lvgl\src\hal/lv_hal_disp.c ****     while(indev) {
 294:..\..\..\arduinoLCD\test\Pain Drain\libraries\lvgl\src\hal/lv_hal_disp.c ****         if(indev->driver->disp == disp) {
 295:..\..\..\arduinoLCD\test\Pain Drain\libraries\lvgl\src\hal/lv_hal_disp.c ****             indev->driver->disp = NULL;
 296:..\..\..\arduinoLCD\test\Pain Drain\libraries\lvgl\src\hal/lv_hal_disp.c ****         }
 297:..\..\..\arduinoLCD\test\Pain Drain\libraries\lvgl\src\hal/lv_hal_disp.c ****         indev = lv_indev_get_next(indev);
 298:..\..\..\arduinoLCD\test\Pain Drain\libraries\lvgl\src\hal/lv_hal_disp.c ****     }
 299:..\..\..\arduinoLCD\test\Pain Drain\libraries\lvgl\src\hal/lv_hal_disp.c **** 
 300:..\..\..\arduinoLCD\test\Pain Drain\libraries\lvgl\src\hal/lv_hal_disp.c ****     /** delete screen and other obj */
 301:..\..\..\arduinoLCD\test\Pain Drain\libraries\lvgl\src\hal/lv_hal_disp.c ****     if(disp->sys_layer) {
 302:..\..\..\arduinoLCD\test\Pain Drain\libraries\lvgl\src\hal/lv_hal_disp.c ****         lv_obj_del(disp->sys_layer);
 303:..\..\..\arduinoLCD\test\Pain Drain\libraries\lvgl\src\hal/lv_hal_disp.c ****         disp->sys_layer = NULL;
 304:..\..\..\arduinoLCD\test\Pain Drain\libraries\lvgl\src\hal/lv_hal_disp.c ****     }
 305:..\..\..\arduinoLCD\test\Pain Drain\libraries\lvgl\src\hal/lv_hal_disp.c ****     if(disp->top_layer) {
 306:..\..\..\arduinoLCD\test\Pain Drain\libraries\lvgl\src\hal/lv_hal_disp.c ****         lv_obj_del(disp->top_layer);
 307:..\..\..\arduinoLCD\test\Pain Drain\libraries\lvgl\src\hal/lv_hal_disp.c ****         disp->top_layer = NULL;
 308:..\..\..\arduinoLCD\test\Pain Drain\libraries\lvgl\src\hal/lv_hal_disp.c ****     }
 309:..\..\..\arduinoLCD\test\Pain Drain\libraries\lvgl\src\hal/lv_hal_disp.c ****     while(disp->screen_cnt != 0) {
 310:..\..\..\arduinoLCD\test\Pain Drain\libraries\lvgl\src\hal/lv_hal_disp.c ****         /*Delete the screenst*/
 311:..\..\..\arduinoLCD\test\Pain Drain\libraries\lvgl\src\hal/lv_hal_disp.c ****         lv_obj_del(disp->screens[0]);
 312:..\..\..\arduinoLCD\test\Pain Drain\libraries\lvgl\src\hal/lv_hal_disp.c ****     }
 313:..\..\..\arduinoLCD\test\Pain Drain\libraries\lvgl\src\hal/lv_hal_disp.c **** 
 314:..\..\..\arduinoLCD\test\Pain Drain\libraries\lvgl\src\hal/lv_hal_disp.c ****     _lv_ll_remove(&LV_GC_ROOT(_lv_disp_ll), disp);
 315:..\..\..\arduinoLCD\test\Pain Drain\libraries\lvgl\src\hal/lv_hal_disp.c ****     if(disp->refr_timer) lv_timer_del(disp->refr_timer);
ARM GAS  C:\Users\haske\AppData\Local\Temp\ccN8jSR9.s 			page 7


 316:..\..\..\arduinoLCD\test\Pain Drain\libraries\lvgl\src\hal/lv_hal_disp.c ****     lv_mem_free(disp);
 317:..\..\..\arduinoLCD\test\Pain Drain\libraries\lvgl\src\hal/lv_hal_disp.c **** 
 318:..\..\..\arduinoLCD\test\Pain Drain\libraries\lvgl\src\hal/lv_hal_disp.c ****     if(was_default) lv_disp_set_default(_lv_ll_get_head(&LV_GC_ROOT(_lv_disp_ll)));
 319:..\..\..\arduinoLCD\test\Pain Drain\libraries\lvgl\src\hal/lv_hal_disp.c **** }
 320:..\..\..\arduinoLCD\test\Pain Drain\libraries\lvgl\src\hal/lv_hal_disp.c **** 
 321:..\..\..\arduinoLCD\test\Pain Drain\libraries\lvgl\src\hal/lv_hal_disp.c **** /**
 322:..\..\..\arduinoLCD\test\Pain Drain\libraries\lvgl\src\hal/lv_hal_disp.c ****  * Set a default display. The new screens will be created on it by default.
 323:..\..\..\arduinoLCD\test\Pain Drain\libraries\lvgl\src\hal/lv_hal_disp.c ****  * @param disp pointer to a display
 324:..\..\..\arduinoLCD\test\Pain Drain\libraries\lvgl\src\hal/lv_hal_disp.c ****  */
 325:..\..\..\arduinoLCD\test\Pain Drain\libraries\lvgl\src\hal/lv_hal_disp.c **** void lv_disp_set_default(lv_disp_t * disp)
 326:..\..\..\arduinoLCD\test\Pain Drain\libraries\lvgl\src\hal/lv_hal_disp.c **** {
 327:..\..\..\arduinoLCD\test\Pain Drain\libraries\lvgl\src\hal/lv_hal_disp.c ****     disp_def = disp;
 328:..\..\..\arduinoLCD\test\Pain Drain\libraries\lvgl\src\hal/lv_hal_disp.c **** }
 329:..\..\..\arduinoLCD\test\Pain Drain\libraries\lvgl\src\hal/lv_hal_disp.c **** 
 330:..\..\..\arduinoLCD\test\Pain Drain\libraries\lvgl\src\hal/lv_hal_disp.c **** /**
 331:..\..\..\arduinoLCD\test\Pain Drain\libraries\lvgl\src\hal/lv_hal_disp.c ****  * Get the default display
 332:..\..\..\arduinoLCD\test\Pain Drain\libraries\lvgl\src\hal/lv_hal_disp.c ****  * @return pointer to the default display
 333:..\..\..\arduinoLCD\test\Pain Drain\libraries\lvgl\src\hal/lv_hal_disp.c ****  */
 334:..\..\..\arduinoLCD\test\Pain Drain\libraries\lvgl\src\hal/lv_hal_disp.c **** lv_disp_t * lv_disp_get_default(void)
 335:..\..\..\arduinoLCD\test\Pain Drain\libraries\lvgl\src\hal/lv_hal_disp.c **** {
 336:..\..\..\arduinoLCD\test\Pain Drain\libraries\lvgl\src\hal/lv_hal_disp.c ****     return disp_def;
 337:..\..\..\arduinoLCD\test\Pain Drain\libraries\lvgl\src\hal/lv_hal_disp.c **** }
 338:..\..\..\arduinoLCD\test\Pain Drain\libraries\lvgl\src\hal/lv_hal_disp.c **** 
 339:..\..\..\arduinoLCD\test\Pain Drain\libraries\lvgl\src\hal/lv_hal_disp.c **** /**
 340:..\..\..\arduinoLCD\test\Pain Drain\libraries\lvgl\src\hal/lv_hal_disp.c ****  * Get the horizontal resolution of a display
 341:..\..\..\arduinoLCD\test\Pain Drain\libraries\lvgl\src\hal/lv_hal_disp.c ****  * @param disp pointer to a display (NULL to use the default display)
 342:..\..\..\arduinoLCD\test\Pain Drain\libraries\lvgl\src\hal/lv_hal_disp.c ****  * @return the horizontal resolution of the display
 343:..\..\..\arduinoLCD\test\Pain Drain\libraries\lvgl\src\hal/lv_hal_disp.c ****  */
 344:..\..\..\arduinoLCD\test\Pain Drain\libraries\lvgl\src\hal/lv_hal_disp.c **** lv_coord_t lv_disp_get_hor_res(lv_disp_t * disp)
 345:..\..\..\arduinoLCD\test\Pain Drain\libraries\lvgl\src\hal/lv_hal_disp.c **** {
 346:..\..\..\arduinoLCD\test\Pain Drain\libraries\lvgl\src\hal/lv_hal_disp.c ****     if(disp == NULL) disp = lv_disp_get_default();
 347:..\..\..\arduinoLCD\test\Pain Drain\libraries\lvgl\src\hal/lv_hal_disp.c **** 
 348:..\..\..\arduinoLCD\test\Pain Drain\libraries\lvgl\src\hal/lv_hal_disp.c ****     if(disp == NULL) {
 349:..\..\..\arduinoLCD\test\Pain Drain\libraries\lvgl\src\hal/lv_hal_disp.c ****         return 0;
 350:..\..\..\arduinoLCD\test\Pain Drain\libraries\lvgl\src\hal/lv_hal_disp.c ****     }
 351:..\..\..\arduinoLCD\test\Pain Drain\libraries\lvgl\src\hal/lv_hal_disp.c ****     else {
 352:..\..\..\arduinoLCD\test\Pain Drain\libraries\lvgl\src\hal/lv_hal_disp.c ****         switch(disp->driver->rotated) {
 353:..\..\..\arduinoLCD\test\Pain Drain\libraries\lvgl\src\hal/lv_hal_disp.c ****             case LV_DISP_ROT_90:
 354:..\..\..\arduinoLCD\test\Pain Drain\libraries\lvgl\src\hal/lv_hal_disp.c ****             case LV_DISP_ROT_270:
 355:..\..\..\arduinoLCD\test\Pain Drain\libraries\lvgl\src\hal/lv_hal_disp.c ****                 return disp->driver->ver_res;
 356:..\..\..\arduinoLCD\test\Pain Drain\libraries\lvgl\src\hal/lv_hal_disp.c ****             default:
 357:..\..\..\arduinoLCD\test\Pain Drain\libraries\lvgl\src\hal/lv_hal_disp.c ****                 return disp->driver->hor_res;
 358:..\..\..\arduinoLCD\test\Pain Drain\libraries\lvgl\src\hal/lv_hal_disp.c ****         }
 359:..\..\..\arduinoLCD\test\Pain Drain\libraries\lvgl\src\hal/lv_hal_disp.c ****     }
 360:..\..\..\arduinoLCD\test\Pain Drain\libraries\lvgl\src\hal/lv_hal_disp.c **** }
 361:..\..\..\arduinoLCD\test\Pain Drain\libraries\lvgl\src\hal/lv_hal_disp.c **** 
 362:..\..\..\arduinoLCD\test\Pain Drain\libraries\lvgl\src\hal/lv_hal_disp.c **** /**
 363:..\..\..\arduinoLCD\test\Pain Drain\libraries\lvgl\src\hal/lv_hal_disp.c ****  * Get the vertical resolution of a display
 364:..\..\..\arduinoLCD\test\Pain Drain\libraries\lvgl\src\hal/lv_hal_disp.c ****  * @param disp pointer to a display (NULL to use the default display)
 365:..\..\..\arduinoLCD\test\Pain Drain\libraries\lvgl\src\hal/lv_hal_disp.c ****  * @return the vertical resolution of the display
 366:..\..\..\arduinoLCD\test\Pain Drain\libraries\lvgl\src\hal/lv_hal_disp.c ****  */
 367:..\..\..\arduinoLCD\test\Pain Drain\libraries\lvgl\src\hal/lv_hal_disp.c **** lv_coord_t lv_disp_get_ver_res(lv_disp_t * disp)
 368:..\..\..\arduinoLCD\test\Pain Drain\libraries\lvgl\src\hal/lv_hal_disp.c **** {
 369:..\..\..\arduinoLCD\test\Pain Drain\libraries\lvgl\src\hal/lv_hal_disp.c ****     if(disp == NULL) disp = lv_disp_get_default();
 370:..\..\..\arduinoLCD\test\Pain Drain\libraries\lvgl\src\hal/lv_hal_disp.c **** 
 371:..\..\..\arduinoLCD\test\Pain Drain\libraries\lvgl\src\hal/lv_hal_disp.c ****     if(disp == NULL) {
 372:..\..\..\arduinoLCD\test\Pain Drain\libraries\lvgl\src\hal/lv_hal_disp.c ****         return 0;
ARM GAS  C:\Users\haske\AppData\Local\Temp\ccN8jSR9.s 			page 8


 373:..\..\..\arduinoLCD\test\Pain Drain\libraries\lvgl\src\hal/lv_hal_disp.c ****     }
 374:..\..\..\arduinoLCD\test\Pain Drain\libraries\lvgl\src\hal/lv_hal_disp.c ****     else {
 375:..\..\..\arduinoLCD\test\Pain Drain\libraries\lvgl\src\hal/lv_hal_disp.c ****         switch(disp->driver->rotated) {
 376:..\..\..\arduinoLCD\test\Pain Drain\libraries\lvgl\src\hal/lv_hal_disp.c ****             case LV_DISP_ROT_90:
 377:..\..\..\arduinoLCD\test\Pain Drain\libraries\lvgl\src\hal/lv_hal_disp.c ****             case LV_DISP_ROT_270:
 378:..\..\..\arduinoLCD\test\Pain Drain\libraries\lvgl\src\hal/lv_hal_disp.c ****                 return disp->driver->hor_res;
 379:..\..\..\arduinoLCD\test\Pain Drain\libraries\lvgl\src\hal/lv_hal_disp.c ****             default:
 380:..\..\..\arduinoLCD\test\Pain Drain\libraries\lvgl\src\hal/lv_hal_disp.c ****                 return disp->driver->ver_res;
 381:..\..\..\arduinoLCD\test\Pain Drain\libraries\lvgl\src\hal/lv_hal_disp.c ****         }
 382:..\..\..\arduinoLCD\test\Pain Drain\libraries\lvgl\src\hal/lv_hal_disp.c ****     }
 383:..\..\..\arduinoLCD\test\Pain Drain\libraries\lvgl\src\hal/lv_hal_disp.c **** }
 384:..\..\..\arduinoLCD\test\Pain Drain\libraries\lvgl\src\hal/lv_hal_disp.c **** 
 385:..\..\..\arduinoLCD\test\Pain Drain\libraries\lvgl\src\hal/lv_hal_disp.c **** /**
 386:..\..\..\arduinoLCD\test\Pain Drain\libraries\lvgl\src\hal/lv_hal_disp.c ****  * Get the full / physical horizontal resolution of a display
 387:..\..\..\arduinoLCD\test\Pain Drain\libraries\lvgl\src\hal/lv_hal_disp.c ****  * @param disp pointer to a display (NULL to use the default display)
 388:..\..\..\arduinoLCD\test\Pain Drain\libraries\lvgl\src\hal/lv_hal_disp.c ****  * @return the full / physical horizontal resolution of the display
 389:..\..\..\arduinoLCD\test\Pain Drain\libraries\lvgl\src\hal/lv_hal_disp.c ****  */
 390:..\..\..\arduinoLCD\test\Pain Drain\libraries\lvgl\src\hal/lv_hal_disp.c **** lv_coord_t lv_disp_get_physical_hor_res(lv_disp_t * disp)
 391:..\..\..\arduinoLCD\test\Pain Drain\libraries\lvgl\src\hal/lv_hal_disp.c **** {
 392:..\..\..\arduinoLCD\test\Pain Drain\libraries\lvgl\src\hal/lv_hal_disp.c ****     if(disp == NULL) disp = lv_disp_get_default();
 393:..\..\..\arduinoLCD\test\Pain Drain\libraries\lvgl\src\hal/lv_hal_disp.c **** 
 394:..\..\..\arduinoLCD\test\Pain Drain\libraries\lvgl\src\hal/lv_hal_disp.c ****     if(disp == NULL) {
 395:..\..\..\arduinoLCD\test\Pain Drain\libraries\lvgl\src\hal/lv_hal_disp.c ****         return 0;
 396:..\..\..\arduinoLCD\test\Pain Drain\libraries\lvgl\src\hal/lv_hal_disp.c ****     }
 397:..\..\..\arduinoLCD\test\Pain Drain\libraries\lvgl\src\hal/lv_hal_disp.c ****     else {
 398:..\..\..\arduinoLCD\test\Pain Drain\libraries\lvgl\src\hal/lv_hal_disp.c ****         switch(disp->driver->rotated) {
 399:..\..\..\arduinoLCD\test\Pain Drain\libraries\lvgl\src\hal/lv_hal_disp.c ****             case LV_DISP_ROT_90:
 400:..\..\..\arduinoLCD\test\Pain Drain\libraries\lvgl\src\hal/lv_hal_disp.c ****             case LV_DISP_ROT_270:
 401:..\..\..\arduinoLCD\test\Pain Drain\libraries\lvgl\src\hal/lv_hal_disp.c ****                 return disp->driver->physical_ver_res > 0 ? disp->driver->physical_ver_res : disp->
 402:..\..\..\arduinoLCD\test\Pain Drain\libraries\lvgl\src\hal/lv_hal_disp.c ****             default:
 403:..\..\..\arduinoLCD\test\Pain Drain\libraries\lvgl\src\hal/lv_hal_disp.c ****                 return disp->driver->physical_hor_res > 0 ? disp->driver->physical_hor_res : disp->
 404:..\..\..\arduinoLCD\test\Pain Drain\libraries\lvgl\src\hal/lv_hal_disp.c ****         }
 405:..\..\..\arduinoLCD\test\Pain Drain\libraries\lvgl\src\hal/lv_hal_disp.c ****     }
 406:..\..\..\arduinoLCD\test\Pain Drain\libraries\lvgl\src\hal/lv_hal_disp.c **** }
 407:..\..\..\arduinoLCD\test\Pain Drain\libraries\lvgl\src\hal/lv_hal_disp.c **** 
 408:..\..\..\arduinoLCD\test\Pain Drain\libraries\lvgl\src\hal/lv_hal_disp.c **** /**
 409:..\..\..\arduinoLCD\test\Pain Drain\libraries\lvgl\src\hal/lv_hal_disp.c ****  * Get the full / physical vertical resolution of a display
 410:..\..\..\arduinoLCD\test\Pain Drain\libraries\lvgl\src\hal/lv_hal_disp.c ****  * @param disp pointer to a display (NULL to use the default display)
 411:..\..\..\arduinoLCD\test\Pain Drain\libraries\lvgl\src\hal/lv_hal_disp.c ****  * @return the full / physical vertical resolution of the display
 412:..\..\..\arduinoLCD\test\Pain Drain\libraries\lvgl\src\hal/lv_hal_disp.c ****  */
 413:..\..\..\arduinoLCD\test\Pain Drain\libraries\lvgl\src\hal/lv_hal_disp.c **** lv_coord_t lv_disp_get_physical_ver_res(lv_disp_t * disp)
 414:..\..\..\arduinoLCD\test\Pain Drain\libraries\lvgl\src\hal/lv_hal_disp.c **** {
 415:..\..\..\arduinoLCD\test\Pain Drain\libraries\lvgl\src\hal/lv_hal_disp.c ****     if(disp == NULL) disp = lv_disp_get_default();
 416:..\..\..\arduinoLCD\test\Pain Drain\libraries\lvgl\src\hal/lv_hal_disp.c **** 
 417:..\..\..\arduinoLCD\test\Pain Drain\libraries\lvgl\src\hal/lv_hal_disp.c ****     if(disp == NULL) {
 418:..\..\..\arduinoLCD\test\Pain Drain\libraries\lvgl\src\hal/lv_hal_disp.c ****         return 0;
 419:..\..\..\arduinoLCD\test\Pain Drain\libraries\lvgl\src\hal/lv_hal_disp.c ****     }
 420:..\..\..\arduinoLCD\test\Pain Drain\libraries\lvgl\src\hal/lv_hal_disp.c ****     else {
 421:..\..\..\arduinoLCD\test\Pain Drain\libraries\lvgl\src\hal/lv_hal_disp.c ****         switch(disp->driver->rotated) {
 422:..\..\..\arduinoLCD\test\Pain Drain\libraries\lvgl\src\hal/lv_hal_disp.c ****             case LV_DISP_ROT_90:
 423:..\..\..\arduinoLCD\test\Pain Drain\libraries\lvgl\src\hal/lv_hal_disp.c ****             case LV_DISP_ROT_270:
 424:..\..\..\arduinoLCD\test\Pain Drain\libraries\lvgl\src\hal/lv_hal_disp.c ****                 return disp->driver->physical_hor_res > 0 ? disp->driver->physical_hor_res : disp->
 425:..\..\..\arduinoLCD\test\Pain Drain\libraries\lvgl\src\hal/lv_hal_disp.c ****             default:
 426:..\..\..\arduinoLCD\test\Pain Drain\libraries\lvgl\src\hal/lv_hal_disp.c ****                 return disp->driver->physical_ver_res > 0 ? disp->driver->physical_ver_res : disp->
 427:..\..\..\arduinoLCD\test\Pain Drain\libraries\lvgl\src\hal/lv_hal_disp.c ****         }
 428:..\..\..\arduinoLCD\test\Pain Drain\libraries\lvgl\src\hal/lv_hal_disp.c ****     }
 429:..\..\..\arduinoLCD\test\Pain Drain\libraries\lvgl\src\hal/lv_hal_disp.c **** }
ARM GAS  C:\Users\haske\AppData\Local\Temp\ccN8jSR9.s 			page 9


 430:..\..\..\arduinoLCD\test\Pain Drain\libraries\lvgl\src\hal/lv_hal_disp.c **** 
 431:..\..\..\arduinoLCD\test\Pain Drain\libraries\lvgl\src\hal/lv_hal_disp.c **** /**
 432:..\..\..\arduinoLCD\test\Pain Drain\libraries\lvgl\src\hal/lv_hal_disp.c ****  * Get the horizontal offset from the full / physical display
 433:..\..\..\arduinoLCD\test\Pain Drain\libraries\lvgl\src\hal/lv_hal_disp.c ****  * @param disp pointer to a display (NULL to use the default display)
 434:..\..\..\arduinoLCD\test\Pain Drain\libraries\lvgl\src\hal/lv_hal_disp.c ****  * @return the horizontal offset from the full / physical display
 435:..\..\..\arduinoLCD\test\Pain Drain\libraries\lvgl\src\hal/lv_hal_disp.c ****  */
 436:..\..\..\arduinoLCD\test\Pain Drain\libraries\lvgl\src\hal/lv_hal_disp.c **** lv_coord_t lv_disp_get_offset_x(lv_disp_t * disp)
 437:..\..\..\arduinoLCD\test\Pain Drain\libraries\lvgl\src\hal/lv_hal_disp.c **** {
 438:..\..\..\arduinoLCD\test\Pain Drain\libraries\lvgl\src\hal/lv_hal_disp.c ****     if(disp == NULL) disp = lv_disp_get_default();
 439:..\..\..\arduinoLCD\test\Pain Drain\libraries\lvgl\src\hal/lv_hal_disp.c **** 
 440:..\..\..\arduinoLCD\test\Pain Drain\libraries\lvgl\src\hal/lv_hal_disp.c ****     if(disp == NULL) {
 441:..\..\..\arduinoLCD\test\Pain Drain\libraries\lvgl\src\hal/lv_hal_disp.c ****         return 0;
 442:..\..\..\arduinoLCD\test\Pain Drain\libraries\lvgl\src\hal/lv_hal_disp.c ****     }
 443:..\..\..\arduinoLCD\test\Pain Drain\libraries\lvgl\src\hal/lv_hal_disp.c ****     else {
 444:..\..\..\arduinoLCD\test\Pain Drain\libraries\lvgl\src\hal/lv_hal_disp.c ****         switch(disp->driver->rotated) {
 445:..\..\..\arduinoLCD\test\Pain Drain\libraries\lvgl\src\hal/lv_hal_disp.c ****             case LV_DISP_ROT_90:
 446:..\..\..\arduinoLCD\test\Pain Drain\libraries\lvgl\src\hal/lv_hal_disp.c ****                 return disp->driver->offset_y;
 447:..\..\..\arduinoLCD\test\Pain Drain\libraries\lvgl\src\hal/lv_hal_disp.c ****             case LV_DISP_ROT_180:
 448:..\..\..\arduinoLCD\test\Pain Drain\libraries\lvgl\src\hal/lv_hal_disp.c ****                 return lv_disp_get_physical_hor_res(disp) - disp->driver->offset_x;
 449:..\..\..\arduinoLCD\test\Pain Drain\libraries\lvgl\src\hal/lv_hal_disp.c ****             case LV_DISP_ROT_270:
 450:..\..\..\arduinoLCD\test\Pain Drain\libraries\lvgl\src\hal/lv_hal_disp.c ****                 return lv_disp_get_physical_hor_res(disp) - disp->driver->offset_y;
 451:..\..\..\arduinoLCD\test\Pain Drain\libraries\lvgl\src\hal/lv_hal_disp.c ****             default:
 452:..\..\..\arduinoLCD\test\Pain Drain\libraries\lvgl\src\hal/lv_hal_disp.c ****                 return disp->driver->offset_x;
 453:..\..\..\arduinoLCD\test\Pain Drain\libraries\lvgl\src\hal/lv_hal_disp.c ****         }
 454:..\..\..\arduinoLCD\test\Pain Drain\libraries\lvgl\src\hal/lv_hal_disp.c ****     }
 455:..\..\..\arduinoLCD\test\Pain Drain\libraries\lvgl\src\hal/lv_hal_disp.c **** }
 456:..\..\..\arduinoLCD\test\Pain Drain\libraries\lvgl\src\hal/lv_hal_disp.c **** 
 457:..\..\..\arduinoLCD\test\Pain Drain\libraries\lvgl\src\hal/lv_hal_disp.c **** /**
 458:..\..\..\arduinoLCD\test\Pain Drain\libraries\lvgl\src\hal/lv_hal_disp.c ****  * Get the vertical offset from the full / physical display
 459:..\..\..\arduinoLCD\test\Pain Drain\libraries\lvgl\src\hal/lv_hal_disp.c ****  * @param disp pointer to a display (NULL to use the default display)
 460:..\..\..\arduinoLCD\test\Pain Drain\libraries\lvgl\src\hal/lv_hal_disp.c ****  * @return the horizontal offset from the full / physical display
 461:..\..\..\arduinoLCD\test\Pain Drain\libraries\lvgl\src\hal/lv_hal_disp.c ****  */
 462:..\..\..\arduinoLCD\test\Pain Drain\libraries\lvgl\src\hal/lv_hal_disp.c **** lv_coord_t lv_disp_get_offset_y(lv_disp_t * disp)
 463:..\..\..\arduinoLCD\test\Pain Drain\libraries\lvgl\src\hal/lv_hal_disp.c **** {
 464:..\..\..\arduinoLCD\test\Pain Drain\libraries\lvgl\src\hal/lv_hal_disp.c ****     if(disp == NULL) disp = lv_disp_get_default();
 465:..\..\..\arduinoLCD\test\Pain Drain\libraries\lvgl\src\hal/lv_hal_disp.c **** 
 466:..\..\..\arduinoLCD\test\Pain Drain\libraries\lvgl\src\hal/lv_hal_disp.c ****     if(disp == NULL) {
 467:..\..\..\arduinoLCD\test\Pain Drain\libraries\lvgl\src\hal/lv_hal_disp.c ****         return 0;
 468:..\..\..\arduinoLCD\test\Pain Drain\libraries\lvgl\src\hal/lv_hal_disp.c ****     }
 469:..\..\..\arduinoLCD\test\Pain Drain\libraries\lvgl\src\hal/lv_hal_disp.c ****     else {
 470:..\..\..\arduinoLCD\test\Pain Drain\libraries\lvgl\src\hal/lv_hal_disp.c ****         switch(disp->driver->rotated) {
 471:..\..\..\arduinoLCD\test\Pain Drain\libraries\lvgl\src\hal/lv_hal_disp.c ****             case LV_DISP_ROT_90:
 472:..\..\..\arduinoLCD\test\Pain Drain\libraries\lvgl\src\hal/lv_hal_disp.c ****                 return disp->driver->offset_x;
 473:..\..\..\arduinoLCD\test\Pain Drain\libraries\lvgl\src\hal/lv_hal_disp.c ****             case LV_DISP_ROT_180:
 474:..\..\..\arduinoLCD\test\Pain Drain\libraries\lvgl\src\hal/lv_hal_disp.c ****                 return lv_disp_get_physical_ver_res(disp) - disp->driver->offset_y;
 475:..\..\..\arduinoLCD\test\Pain Drain\libraries\lvgl\src\hal/lv_hal_disp.c ****             case LV_DISP_ROT_270:
 476:..\..\..\arduinoLCD\test\Pain Drain\libraries\lvgl\src\hal/lv_hal_disp.c ****                 return lv_disp_get_physical_ver_res(disp) - disp->driver->offset_x;
 477:..\..\..\arduinoLCD\test\Pain Drain\libraries\lvgl\src\hal/lv_hal_disp.c ****             default:
 478:..\..\..\arduinoLCD\test\Pain Drain\libraries\lvgl\src\hal/lv_hal_disp.c ****                 return disp->driver->offset_y;
 479:..\..\..\arduinoLCD\test\Pain Drain\libraries\lvgl\src\hal/lv_hal_disp.c ****         }
 480:..\..\..\arduinoLCD\test\Pain Drain\libraries\lvgl\src\hal/lv_hal_disp.c ****     }
 481:..\..\..\arduinoLCD\test\Pain Drain\libraries\lvgl\src\hal/lv_hal_disp.c **** }
 482:..\..\..\arduinoLCD\test\Pain Drain\libraries\lvgl\src\hal/lv_hal_disp.c **** 
 483:..\..\..\arduinoLCD\test\Pain Drain\libraries\lvgl\src\hal/lv_hal_disp.c **** /**
 484:..\..\..\arduinoLCD\test\Pain Drain\libraries\lvgl\src\hal/lv_hal_disp.c ****  * Get if anti-aliasing is enabled for a display or not
 485:..\..\..\arduinoLCD\test\Pain Drain\libraries\lvgl\src\hal/lv_hal_disp.c ****  * @param disp pointer to a display (NULL to use the default display)
 486:..\..\..\arduinoLCD\test\Pain Drain\libraries\lvgl\src\hal/lv_hal_disp.c ****  * @return true: anti-aliasing is enabled; false: disabled
ARM GAS  C:\Users\haske\AppData\Local\Temp\ccN8jSR9.s 			page 10


 487:..\..\..\arduinoLCD\test\Pain Drain\libraries\lvgl\src\hal/lv_hal_disp.c ****  */
 488:..\..\..\arduinoLCD\test\Pain Drain\libraries\lvgl\src\hal/lv_hal_disp.c **** bool lv_disp_get_antialiasing(lv_disp_t * disp)
 489:..\..\..\arduinoLCD\test\Pain Drain\libraries\lvgl\src\hal/lv_hal_disp.c **** {
 490:..\..\..\arduinoLCD\test\Pain Drain\libraries\lvgl\src\hal/lv_hal_disp.c ****     if(disp == NULL) disp = lv_disp_get_default();
 491:..\..\..\arduinoLCD\test\Pain Drain\libraries\lvgl\src\hal/lv_hal_disp.c ****     if(disp == NULL) return false;
 492:..\..\..\arduinoLCD\test\Pain Drain\libraries\lvgl\src\hal/lv_hal_disp.c **** 
 493:..\..\..\arduinoLCD\test\Pain Drain\libraries\lvgl\src\hal/lv_hal_disp.c ****     return disp->driver->antialiasing ? true : false;
 494:..\..\..\arduinoLCD\test\Pain Drain\libraries\lvgl\src\hal/lv_hal_disp.c **** }
 495:..\..\..\arduinoLCD\test\Pain Drain\libraries\lvgl\src\hal/lv_hal_disp.c **** 
 496:..\..\..\arduinoLCD\test\Pain Drain\libraries\lvgl\src\hal/lv_hal_disp.c **** /**
 497:..\..\..\arduinoLCD\test\Pain Drain\libraries\lvgl\src\hal/lv_hal_disp.c ****  * Get the DPI of the display
 498:..\..\..\arduinoLCD\test\Pain Drain\libraries\lvgl\src\hal/lv_hal_disp.c ****  * @param disp pointer to a display (NULL to use the default display)
 499:..\..\..\arduinoLCD\test\Pain Drain\libraries\lvgl\src\hal/lv_hal_disp.c ****  * @return dpi of the display
 500:..\..\..\arduinoLCD\test\Pain Drain\libraries\lvgl\src\hal/lv_hal_disp.c ****  */
 501:..\..\..\arduinoLCD\test\Pain Drain\libraries\lvgl\src\hal/lv_hal_disp.c **** lv_coord_t lv_disp_get_dpi(const lv_disp_t * disp)
 502:..\..\..\arduinoLCD\test\Pain Drain\libraries\lvgl\src\hal/lv_hal_disp.c **** {
 503:..\..\..\arduinoLCD\test\Pain Drain\libraries\lvgl\src\hal/lv_hal_disp.c ****     if(disp == NULL) disp = lv_disp_get_default();
 504:..\..\..\arduinoLCD\test\Pain Drain\libraries\lvgl\src\hal/lv_hal_disp.c ****     if(disp == NULL) return LV_DPI_DEF;  /*Do not return 0 because it might be a divider*/
 505:..\..\..\arduinoLCD\test\Pain Drain\libraries\lvgl\src\hal/lv_hal_disp.c ****     return disp->driver->dpi;
 506:..\..\..\arduinoLCD\test\Pain Drain\libraries\lvgl\src\hal/lv_hal_disp.c **** }
 507:..\..\..\arduinoLCD\test\Pain Drain\libraries\lvgl\src\hal/lv_hal_disp.c **** 
 508:..\..\..\arduinoLCD\test\Pain Drain\libraries\lvgl\src\hal/lv_hal_disp.c **** /**
 509:..\..\..\arduinoLCD\test\Pain Drain\libraries\lvgl\src\hal/lv_hal_disp.c ****  * Call in the display driver's `flush_cb` function when the flushing is finished
 510:..\..\..\arduinoLCD\test\Pain Drain\libraries\lvgl\src\hal/lv_hal_disp.c ****  * @param disp_drv pointer to display driver in `flush_cb` where this function is called
 511:..\..\..\arduinoLCD\test\Pain Drain\libraries\lvgl\src\hal/lv_hal_disp.c ****  */
 512:..\..\..\arduinoLCD\test\Pain Drain\libraries\lvgl\src\hal/lv_hal_disp.c **** LV_ATTRIBUTE_FLUSH_READY void lv_disp_flush_ready(lv_disp_drv_t * disp_drv)
 513:..\..\..\arduinoLCD\test\Pain Drain\libraries\lvgl\src\hal/lv_hal_disp.c **** {
 514:..\..\..\arduinoLCD\test\Pain Drain\libraries\lvgl\src\hal/lv_hal_disp.c ****     disp_drv->draw_buf->flushing = 0;
 515:..\..\..\arduinoLCD\test\Pain Drain\libraries\lvgl\src\hal/lv_hal_disp.c ****     disp_drv->draw_buf->flushing_last = 0;
 516:..\..\..\arduinoLCD\test\Pain Drain\libraries\lvgl\src\hal/lv_hal_disp.c **** }
 517:..\..\..\arduinoLCD\test\Pain Drain\libraries\lvgl\src\hal/lv_hal_disp.c **** 
 518:..\..\..\arduinoLCD\test\Pain Drain\libraries\lvgl\src\hal/lv_hal_disp.c **** /**
 519:..\..\..\arduinoLCD\test\Pain Drain\libraries\lvgl\src\hal/lv_hal_disp.c ****  * Tell if it's the last area of the refreshing process.
 520:..\..\..\arduinoLCD\test\Pain Drain\libraries\lvgl\src\hal/lv_hal_disp.c ****  * Can be called from `flush_cb` to execute some special display refreshing if needed when all area
 521:..\..\..\arduinoLCD\test\Pain Drain\libraries\lvgl\src\hal/lv_hal_disp.c ****  * @param disp_drv pointer to display driver
 522:..\..\..\arduinoLCD\test\Pain Drain\libraries\lvgl\src\hal/lv_hal_disp.c ****  * @return true: it's the last area to flush; false: there are other areas too which will be refres
 523:..\..\..\arduinoLCD\test\Pain Drain\libraries\lvgl\src\hal/lv_hal_disp.c ****  */
 524:..\..\..\arduinoLCD\test\Pain Drain\libraries\lvgl\src\hal/lv_hal_disp.c **** LV_ATTRIBUTE_FLUSH_READY bool lv_disp_flush_is_last(lv_disp_drv_t * disp_drv)
 525:..\..\..\arduinoLCD\test\Pain Drain\libraries\lvgl\src\hal/lv_hal_disp.c **** {
 526:..\..\..\arduinoLCD\test\Pain Drain\libraries\lvgl\src\hal/lv_hal_disp.c ****     return disp_drv->draw_buf->flushing_last;
 527:..\..\..\arduinoLCD\test\Pain Drain\libraries\lvgl\src\hal/lv_hal_disp.c **** }
 528:..\..\..\arduinoLCD\test\Pain Drain\libraries\lvgl\src\hal/lv_hal_disp.c **** 
 529:..\..\..\arduinoLCD\test\Pain Drain\libraries\lvgl\src\hal/lv_hal_disp.c **** /**
 530:..\..\..\arduinoLCD\test\Pain Drain\libraries\lvgl\src\hal/lv_hal_disp.c ****  * Get the next display.
 531:..\..\..\arduinoLCD\test\Pain Drain\libraries\lvgl\src\hal/lv_hal_disp.c ****  * @param disp pointer to the current display. NULL to initialize.
 532:..\..\..\arduinoLCD\test\Pain Drain\libraries\lvgl\src\hal/lv_hal_disp.c ****  * @return the next display or NULL if no more. Give the first display when the parameter is NULL
 533:..\..\..\arduinoLCD\test\Pain Drain\libraries\lvgl\src\hal/lv_hal_disp.c ****  */
 534:..\..\..\arduinoLCD\test\Pain Drain\libraries\lvgl\src\hal/lv_hal_disp.c **** lv_disp_t * lv_disp_get_next(lv_disp_t * disp)
 535:..\..\..\arduinoLCD\test\Pain Drain\libraries\lvgl\src\hal/lv_hal_disp.c **** {
 536:..\..\..\arduinoLCD\test\Pain Drain\libraries\lvgl\src\hal/lv_hal_disp.c ****     if(disp == NULL)
 537:..\..\..\arduinoLCD\test\Pain Drain\libraries\lvgl\src\hal/lv_hal_disp.c ****         return _lv_ll_get_head(&LV_GC_ROOT(_lv_disp_ll));
 538:..\..\..\arduinoLCD\test\Pain Drain\libraries\lvgl\src\hal/lv_hal_disp.c ****     else
 539:..\..\..\arduinoLCD\test\Pain Drain\libraries\lvgl\src\hal/lv_hal_disp.c ****         return _lv_ll_get_next(&LV_GC_ROOT(_lv_disp_ll), disp);
 540:..\..\..\arduinoLCD\test\Pain Drain\libraries\lvgl\src\hal/lv_hal_disp.c **** }
 541:..\..\..\arduinoLCD\test\Pain Drain\libraries\lvgl\src\hal/lv_hal_disp.c **** 
 542:..\..\..\arduinoLCD\test\Pain Drain\libraries\lvgl\src\hal/lv_hal_disp.c **** /**
 543:..\..\..\arduinoLCD\test\Pain Drain\libraries\lvgl\src\hal/lv_hal_disp.c ****  * Get the internal buffer of a display
ARM GAS  C:\Users\haske\AppData\Local\Temp\ccN8jSR9.s 			page 11


 544:..\..\..\arduinoLCD\test\Pain Drain\libraries\lvgl\src\hal/lv_hal_disp.c ****  * @param disp pointer to a display
 545:..\..\..\arduinoLCD\test\Pain Drain\libraries\lvgl\src\hal/lv_hal_disp.c ****  * @return pointer to the internal buffers
 546:..\..\..\arduinoLCD\test\Pain Drain\libraries\lvgl\src\hal/lv_hal_disp.c ****  */
 547:..\..\..\arduinoLCD\test\Pain Drain\libraries\lvgl\src\hal/lv_hal_disp.c **** lv_disp_draw_buf_t * lv_disp_get_draw_buf(lv_disp_t * disp)
 548:..\..\..\arduinoLCD\test\Pain Drain\libraries\lvgl\src\hal/lv_hal_disp.c **** {
 549:..\..\..\arduinoLCD\test\Pain Drain\libraries\lvgl\src\hal/lv_hal_disp.c ****     return disp->driver->draw_buf;
 550:..\..\..\arduinoLCD\test\Pain Drain\libraries\lvgl\src\hal/lv_hal_disp.c **** }
 551:..\..\..\arduinoLCD\test\Pain Drain\libraries\lvgl\src\hal/lv_hal_disp.c **** 
 552:..\..\..\arduinoLCD\test\Pain Drain\libraries\lvgl\src\hal/lv_hal_disp.c **** /**
 553:..\..\..\arduinoLCD\test\Pain Drain\libraries\lvgl\src\hal/lv_hal_disp.c ****  * Set the rotation of this display.
 554:..\..\..\arduinoLCD\test\Pain Drain\libraries\lvgl\src\hal/lv_hal_disp.c ****  * @param disp pointer to a display (NULL to use the default display)
 555:..\..\..\arduinoLCD\test\Pain Drain\libraries\lvgl\src\hal/lv_hal_disp.c ****  * @param rotation rotation angle
 556:..\..\..\arduinoLCD\test\Pain Drain\libraries\lvgl\src\hal/lv_hal_disp.c ****  */
 557:..\..\..\arduinoLCD\test\Pain Drain\libraries\lvgl\src\hal/lv_hal_disp.c **** void lv_disp_set_rotation(lv_disp_t * disp, lv_disp_rot_t rotation)
 558:..\..\..\arduinoLCD\test\Pain Drain\libraries\lvgl\src\hal/lv_hal_disp.c **** {
 559:..\..\..\arduinoLCD\test\Pain Drain\libraries\lvgl\src\hal/lv_hal_disp.c ****     if(disp == NULL) disp = lv_disp_get_default();
 560:..\..\..\arduinoLCD\test\Pain Drain\libraries\lvgl\src\hal/lv_hal_disp.c ****     if(disp == NULL) return;
 561:..\..\..\arduinoLCD\test\Pain Drain\libraries\lvgl\src\hal/lv_hal_disp.c **** 
 562:..\..\..\arduinoLCD\test\Pain Drain\libraries\lvgl\src\hal/lv_hal_disp.c ****     disp->driver->rotated = rotation;
 563:..\..\..\arduinoLCD\test\Pain Drain\libraries\lvgl\src\hal/lv_hal_disp.c ****     lv_disp_drv_update(disp, disp->driver);
 564:..\..\..\arduinoLCD\test\Pain Drain\libraries\lvgl\src\hal/lv_hal_disp.c **** }
 565:..\..\..\arduinoLCD\test\Pain Drain\libraries\lvgl\src\hal/lv_hal_disp.c **** 
 566:..\..\..\arduinoLCD\test\Pain Drain\libraries\lvgl\src\hal/lv_hal_disp.c **** /**
 567:..\..\..\arduinoLCD\test\Pain Drain\libraries\lvgl\src\hal/lv_hal_disp.c ****  * Get the current rotation of this display.
 568:..\..\..\arduinoLCD\test\Pain Drain\libraries\lvgl\src\hal/lv_hal_disp.c ****  * @param disp pointer to a display (NULL to use the default display)
 569:..\..\..\arduinoLCD\test\Pain Drain\libraries\lvgl\src\hal/lv_hal_disp.c ****  * @return rotation angle
 570:..\..\..\arduinoLCD\test\Pain Drain\libraries\lvgl\src\hal/lv_hal_disp.c ****  */
 571:..\..\..\arduinoLCD\test\Pain Drain\libraries\lvgl\src\hal/lv_hal_disp.c **** lv_disp_rot_t lv_disp_get_rotation(lv_disp_t * disp)
 572:..\..\..\arduinoLCD\test\Pain Drain\libraries\lvgl\src\hal/lv_hal_disp.c **** {
 573:..\..\..\arduinoLCD\test\Pain Drain\libraries\lvgl\src\hal/lv_hal_disp.c ****     if(disp == NULL) disp = lv_disp_get_default();
 574:..\..\..\arduinoLCD\test\Pain Drain\libraries\lvgl\src\hal/lv_hal_disp.c ****     if(disp == NULL) return LV_DISP_ROT_NONE;
 575:..\..\..\arduinoLCD\test\Pain Drain\libraries\lvgl\src\hal/lv_hal_disp.c ****     return disp->driver->rotated;
 576:..\..\..\arduinoLCD\test\Pain Drain\libraries\lvgl\src\hal/lv_hal_disp.c **** }
 577:..\..\..\arduinoLCD\test\Pain Drain\libraries\lvgl\src\hal/lv_hal_disp.c **** 
 578:..\..\..\arduinoLCD\test\Pain Drain\libraries\lvgl\src\hal/lv_hal_disp.c **** void lv_disp_drv_use_generic_set_px_cb(lv_disp_drv_t * disp_drv, lv_img_cf_t cf)
 579:..\..\..\arduinoLCD\test\Pain Drain\libraries\lvgl\src\hal/lv_hal_disp.c **** {
 580:..\..\..\arduinoLCD\test\Pain Drain\libraries\lvgl\src\hal/lv_hal_disp.c ****     switch(cf) {
 581:..\..\..\arduinoLCD\test\Pain Drain\libraries\lvgl\src\hal/lv_hal_disp.c ****         case LV_IMG_CF_TRUE_COLOR_ALPHA:
 582:..\..\..\arduinoLCD\test\Pain Drain\libraries\lvgl\src\hal/lv_hal_disp.c ****             disp_drv->set_px_cb = set_px_true_color_alpha;
 583:..\..\..\arduinoLCD\test\Pain Drain\libraries\lvgl\src\hal/lv_hal_disp.c ****             break;
 584:..\..\..\arduinoLCD\test\Pain Drain\libraries\lvgl\src\hal/lv_hal_disp.c ****         case LV_IMG_CF_ALPHA_1BIT:
 585:..\..\..\arduinoLCD\test\Pain Drain\libraries\lvgl\src\hal/lv_hal_disp.c ****             disp_drv->set_px_cb = set_px_cb_alpha1;
 586:..\..\..\arduinoLCD\test\Pain Drain\libraries\lvgl\src\hal/lv_hal_disp.c ****             break;
 587:..\..\..\arduinoLCD\test\Pain Drain\libraries\lvgl\src\hal/lv_hal_disp.c ****         case LV_IMG_CF_ALPHA_2BIT:
 588:..\..\..\arduinoLCD\test\Pain Drain\libraries\lvgl\src\hal/lv_hal_disp.c ****             disp_drv->set_px_cb = set_px_cb_alpha2;
 589:..\..\..\arduinoLCD\test\Pain Drain\libraries\lvgl\src\hal/lv_hal_disp.c ****             break;
 590:..\..\..\arduinoLCD\test\Pain Drain\libraries\lvgl\src\hal/lv_hal_disp.c ****         case LV_IMG_CF_ALPHA_4BIT:
 591:..\..\..\arduinoLCD\test\Pain Drain\libraries\lvgl\src\hal/lv_hal_disp.c ****             disp_drv->set_px_cb = set_px_cb_alpha4;
 592:..\..\..\arduinoLCD\test\Pain Drain\libraries\lvgl\src\hal/lv_hal_disp.c ****             break;
 593:..\..\..\arduinoLCD\test\Pain Drain\libraries\lvgl\src\hal/lv_hal_disp.c ****         case LV_IMG_CF_ALPHA_8BIT:
 594:..\..\..\arduinoLCD\test\Pain Drain\libraries\lvgl\src\hal/lv_hal_disp.c ****             disp_drv->set_px_cb = set_px_cb_alpha8;
 595:..\..\..\arduinoLCD\test\Pain Drain\libraries\lvgl\src\hal/lv_hal_disp.c ****             break;
 596:..\..\..\arduinoLCD\test\Pain Drain\libraries\lvgl\src\hal/lv_hal_disp.c ****         default:
 597:..\..\..\arduinoLCD\test\Pain Drain\libraries\lvgl\src\hal/lv_hal_disp.c ****             disp_drv->set_px_cb = NULL;
 598:..\..\..\arduinoLCD\test\Pain Drain\libraries\lvgl\src\hal/lv_hal_disp.c ****     }
 599:..\..\..\arduinoLCD\test\Pain Drain\libraries\lvgl\src\hal/lv_hal_disp.c **** }
 600:..\..\..\arduinoLCD\test\Pain Drain\libraries\lvgl\src\hal/lv_hal_disp.c **** 
ARM GAS  C:\Users\haske\AppData\Local\Temp\ccN8jSR9.s 			page 12


 601:..\..\..\arduinoLCD\test\Pain Drain\libraries\lvgl\src\hal/lv_hal_disp.c **** /**********************
 602:..\..\..\arduinoLCD\test\Pain Drain\libraries\lvgl\src\hal/lv_hal_disp.c ****  *   STATIC FUNCTIONS
 603:..\..\..\arduinoLCD\test\Pain Drain\libraries\lvgl\src\hal/lv_hal_disp.c ****  **********************/
 604:..\..\..\arduinoLCD\test\Pain Drain\libraries\lvgl\src\hal/lv_hal_disp.c **** 
 605:..\..\..\arduinoLCD\test\Pain Drain\libraries\lvgl\src\hal/lv_hal_disp.c **** static lv_obj_tree_walk_res_t invalidate_layout_cb(lv_obj_t * obj, void * user_data)
 606:..\..\..\arduinoLCD\test\Pain Drain\libraries\lvgl\src\hal/lv_hal_disp.c **** {
 607:..\..\..\arduinoLCD\test\Pain Drain\libraries\lvgl\src\hal/lv_hal_disp.c ****     LV_UNUSED(user_data);
 608:..\..\..\arduinoLCD\test\Pain Drain\libraries\lvgl\src\hal/lv_hal_disp.c ****     lv_obj_mark_layout_as_dirty(obj);
 609:..\..\..\arduinoLCD\test\Pain Drain\libraries\lvgl\src\hal/lv_hal_disp.c ****     return LV_OBJ_TREE_WALK_NEXT;
 610:..\..\..\arduinoLCD\test\Pain Drain\libraries\lvgl\src\hal/lv_hal_disp.c **** }
 611:..\..\..\arduinoLCD\test\Pain Drain\libraries\lvgl\src\hal/lv_hal_disp.c **** 
 612:..\..\..\arduinoLCD\test\Pain Drain\libraries\lvgl\src\hal/lv_hal_disp.c **** static void set_px_cb_alpha1(lv_disp_drv_t * disp_drv, uint8_t * buf, lv_coord_t buf_w, lv_coord_t 
 613:..\..\..\arduinoLCD\test\Pain Drain\libraries\lvgl\src\hal/lv_hal_disp.c ****                              lv_color_t color, lv_opa_t opa)
 614:..\..\..\arduinoLCD\test\Pain Drain\libraries\lvgl\src\hal/lv_hal_disp.c **** {
 615:..\..\..\arduinoLCD\test\Pain Drain\libraries\lvgl\src\hal/lv_hal_disp.c ****     (void) disp_drv; /*Unused*/
 616:..\..\..\arduinoLCD\test\Pain Drain\libraries\lvgl\src\hal/lv_hal_disp.c **** 
 617:..\..\..\arduinoLCD\test\Pain Drain\libraries\lvgl\src\hal/lv_hal_disp.c ****     if(opa <= LV_OPA_MIN) return;
 618:..\..\..\arduinoLCD\test\Pain Drain\libraries\lvgl\src\hal/lv_hal_disp.c ****     lv_img_dsc_t d;
 619:..\..\..\arduinoLCD\test\Pain Drain\libraries\lvgl\src\hal/lv_hal_disp.c ****     d.data = buf;
 620:..\..\..\arduinoLCD\test\Pain Drain\libraries\lvgl\src\hal/lv_hal_disp.c ****     d.header.w = buf_w;
 621:..\..\..\arduinoLCD\test\Pain Drain\libraries\lvgl\src\hal/lv_hal_disp.c ****     d.header.cf = LV_IMG_CF_ALPHA_1BIT;
 622:..\..\..\arduinoLCD\test\Pain Drain\libraries\lvgl\src\hal/lv_hal_disp.c **** 
 623:..\..\..\arduinoLCD\test\Pain Drain\libraries\lvgl\src\hal/lv_hal_disp.c ****     set_px_alpha_generic(&d, x, y, color, opa);
 624:..\..\..\arduinoLCD\test\Pain Drain\libraries\lvgl\src\hal/lv_hal_disp.c **** }
 625:..\..\..\arduinoLCD\test\Pain Drain\libraries\lvgl\src\hal/lv_hal_disp.c **** 
 626:..\..\..\arduinoLCD\test\Pain Drain\libraries\lvgl\src\hal/lv_hal_disp.c **** static void set_px_cb_alpha2(lv_disp_drv_t * disp_drv, uint8_t * buf, lv_coord_t buf_w, lv_coord_t 
 627:..\..\..\arduinoLCD\test\Pain Drain\libraries\lvgl\src\hal/lv_hal_disp.c ****                              lv_color_t color, lv_opa_t opa)
 628:..\..\..\arduinoLCD\test\Pain Drain\libraries\lvgl\src\hal/lv_hal_disp.c **** {
 629:..\..\..\arduinoLCD\test\Pain Drain\libraries\lvgl\src\hal/lv_hal_disp.c ****     (void) disp_drv; /*Unused*/
 630:..\..\..\arduinoLCD\test\Pain Drain\libraries\lvgl\src\hal/lv_hal_disp.c **** 
 631:..\..\..\arduinoLCD\test\Pain Drain\libraries\lvgl\src\hal/lv_hal_disp.c ****     if(opa <= LV_OPA_MIN) return;
 632:..\..\..\arduinoLCD\test\Pain Drain\libraries\lvgl\src\hal/lv_hal_disp.c ****     lv_img_dsc_t d;
 633:..\..\..\arduinoLCD\test\Pain Drain\libraries\lvgl\src\hal/lv_hal_disp.c ****     d.data = buf;
 634:..\..\..\arduinoLCD\test\Pain Drain\libraries\lvgl\src\hal/lv_hal_disp.c ****     d.header.w = buf_w;
 635:..\..\..\arduinoLCD\test\Pain Drain\libraries\lvgl\src\hal/lv_hal_disp.c ****     d.header.cf = LV_IMG_CF_ALPHA_2BIT;
 636:..\..\..\arduinoLCD\test\Pain Drain\libraries\lvgl\src\hal/lv_hal_disp.c **** 
 637:..\..\..\arduinoLCD\test\Pain Drain\libraries\lvgl\src\hal/lv_hal_disp.c ****     set_px_alpha_generic(&d, x, y, color, opa);
 638:..\..\..\arduinoLCD\test\Pain Drain\libraries\lvgl\src\hal/lv_hal_disp.c **** }
 639:..\..\..\arduinoLCD\test\Pain Drain\libraries\lvgl\src\hal/lv_hal_disp.c **** 
 640:..\..\..\arduinoLCD\test\Pain Drain\libraries\lvgl\src\hal/lv_hal_disp.c **** static void set_px_cb_alpha4(lv_disp_drv_t * disp_drv, uint8_t * buf, lv_coord_t buf_w, lv_coord_t 
 641:..\..\..\arduinoLCD\test\Pain Drain\libraries\lvgl\src\hal/lv_hal_disp.c ****                              lv_color_t color, lv_opa_t opa)
 642:..\..\..\arduinoLCD\test\Pain Drain\libraries\lvgl\src\hal/lv_hal_disp.c **** {
 643:..\..\..\arduinoLCD\test\Pain Drain\libraries\lvgl\src\hal/lv_hal_disp.c ****     (void) disp_drv; /*Unused*/
 644:..\..\..\arduinoLCD\test\Pain Drain\libraries\lvgl\src\hal/lv_hal_disp.c **** 
 645:..\..\..\arduinoLCD\test\Pain Drain\libraries\lvgl\src\hal/lv_hal_disp.c ****     if(opa <= LV_OPA_MIN) return;
 646:..\..\..\arduinoLCD\test\Pain Drain\libraries\lvgl\src\hal/lv_hal_disp.c ****     lv_img_dsc_t d;
 647:..\..\..\arduinoLCD\test\Pain Drain\libraries\lvgl\src\hal/lv_hal_disp.c ****     d.data = buf;
 648:..\..\..\arduinoLCD\test\Pain Drain\libraries\lvgl\src\hal/lv_hal_disp.c ****     d.header.w = buf_w;
 649:..\..\..\arduinoLCD\test\Pain Drain\libraries\lvgl\src\hal/lv_hal_disp.c ****     d.header.cf = LV_IMG_CF_ALPHA_4BIT;
 650:..\..\..\arduinoLCD\test\Pain Drain\libraries\lvgl\src\hal/lv_hal_disp.c **** 
 651:..\..\..\arduinoLCD\test\Pain Drain\libraries\lvgl\src\hal/lv_hal_disp.c ****     set_px_alpha_generic(&d, x, y, color, opa);
 652:..\..\..\arduinoLCD\test\Pain Drain\libraries\lvgl\src\hal/lv_hal_disp.c **** }
 653:..\..\..\arduinoLCD\test\Pain Drain\libraries\lvgl\src\hal/lv_hal_disp.c **** 
 654:..\..\..\arduinoLCD\test\Pain Drain\libraries\lvgl\src\hal/lv_hal_disp.c **** static void set_px_cb_alpha8(lv_disp_drv_t * disp_drv, uint8_t * buf, lv_coord_t buf_w, lv_coord_t 
 655:..\..\..\arduinoLCD\test\Pain Drain\libraries\lvgl\src\hal/lv_hal_disp.c ****                              lv_color_t color, lv_opa_t opa)
 656:..\..\..\arduinoLCD\test\Pain Drain\libraries\lvgl\src\hal/lv_hal_disp.c **** {
 657:..\..\..\arduinoLCD\test\Pain Drain\libraries\lvgl\src\hal/lv_hal_disp.c ****     (void) disp_drv; /*Unused*/
ARM GAS  C:\Users\haske\AppData\Local\Temp\ccN8jSR9.s 			page 13


 658:..\..\..\arduinoLCD\test\Pain Drain\libraries\lvgl\src\hal/lv_hal_disp.c **** 
 659:..\..\..\arduinoLCD\test\Pain Drain\libraries\lvgl\src\hal/lv_hal_disp.c ****     if(opa <= LV_OPA_MIN) return;
 660:..\..\..\arduinoLCD\test\Pain Drain\libraries\lvgl\src\hal/lv_hal_disp.c ****     lv_img_dsc_t d;
 661:..\..\..\arduinoLCD\test\Pain Drain\libraries\lvgl\src\hal/lv_hal_disp.c ****     d.data = buf;
 662:..\..\..\arduinoLCD\test\Pain Drain\libraries\lvgl\src\hal/lv_hal_disp.c ****     d.header.w = buf_w;
 663:..\..\..\arduinoLCD\test\Pain Drain\libraries\lvgl\src\hal/lv_hal_disp.c ****     d.header.cf = LV_IMG_CF_ALPHA_8BIT;
 664:..\..\..\arduinoLCD\test\Pain Drain\libraries\lvgl\src\hal/lv_hal_disp.c **** 
 665:..\..\..\arduinoLCD\test\Pain Drain\libraries\lvgl\src\hal/lv_hal_disp.c ****     set_px_alpha_generic(&d, x, y, color, opa);
 666:..\..\..\arduinoLCD\test\Pain Drain\libraries\lvgl\src\hal/lv_hal_disp.c **** }
 667:..\..\..\arduinoLCD\test\Pain Drain\libraries\lvgl\src\hal/lv_hal_disp.c **** 
 668:..\..\..\arduinoLCD\test\Pain Drain\libraries\lvgl\src\hal/lv_hal_disp.c **** static void set_px_alpha_generic(lv_img_dsc_t * d, lv_coord_t x, lv_coord_t y, lv_color_t color, lv
 669:..\..\..\arduinoLCD\test\Pain Drain\libraries\lvgl\src\hal/lv_hal_disp.c **** {
 670:..\..\..\arduinoLCD\test\Pain Drain\libraries\lvgl\src\hal/lv_hal_disp.c ****     d->header.always_zero = 0;
 671:..\..\..\arduinoLCD\test\Pain Drain\libraries\lvgl\src\hal/lv_hal_disp.c ****     d->header.h = 1;    /*Doesn't matter*/
 672:..\..\..\arduinoLCD\test\Pain Drain\libraries\lvgl\src\hal/lv_hal_disp.c **** 
 673:..\..\..\arduinoLCD\test\Pain Drain\libraries\lvgl\src\hal/lv_hal_disp.c ****     uint8_t br = lv_color_brightness(color);
 674:..\..\..\arduinoLCD\test\Pain Drain\libraries\lvgl\src\hal/lv_hal_disp.c ****     if(opa < LV_OPA_MAX) {
 675:..\..\..\arduinoLCD\test\Pain Drain\libraries\lvgl\src\hal/lv_hal_disp.c ****         uint8_t bg = lv_img_buf_get_px_alpha(d, x, y);
 676:..\..\..\arduinoLCD\test\Pain Drain\libraries\lvgl\src\hal/lv_hal_disp.c ****         br = (uint16_t)((uint16_t)br * opa + (bg * (255 - opa))) >> 8;
 677:..\..\..\arduinoLCD\test\Pain Drain\libraries\lvgl\src\hal/lv_hal_disp.c ****     }
 678:..\..\..\arduinoLCD\test\Pain Drain\libraries\lvgl\src\hal/lv_hal_disp.c **** 
 679:..\..\..\arduinoLCD\test\Pain Drain\libraries\lvgl\src\hal/lv_hal_disp.c ****     lv_img_buf_set_px_alpha(d, x, y, br);
 680:..\..\..\arduinoLCD\test\Pain Drain\libraries\lvgl\src\hal/lv_hal_disp.c **** }
 681:..\..\..\arduinoLCD\test\Pain Drain\libraries\lvgl\src\hal/lv_hal_disp.c **** 
 682:..\..\..\arduinoLCD\test\Pain Drain\libraries\lvgl\src\hal/lv_hal_disp.c **** static void set_px_true_color_alpha(lv_disp_drv_t * disp_drv, uint8_t * buf, lv_coord_t buf_w,
 683:..\..\..\arduinoLCD\test\Pain Drain\libraries\lvgl\src\hal/lv_hal_disp.c ****                                     lv_coord_t x, lv_coord_t y,
 684:..\..\..\arduinoLCD\test\Pain Drain\libraries\lvgl\src\hal/lv_hal_disp.c ****                                     lv_color_t color, lv_opa_t opa)
 685:..\..\..\arduinoLCD\test\Pain Drain\libraries\lvgl\src\hal/lv_hal_disp.c **** {
  28              		.loc 1 685 0
  29              		.cfi_startproc
  30              		@ args = 12, pretend = 0, frame = 0
  31              		@ frame_needed = 0, uses_anonymous_args = 0
  32              	.LVL0:
  33 0000 F8B5     		push	{r3, r4, r5, r6, r7, lr}
  34              		.cfi_def_cfa_offset 24
  35              		.cfi_offset 3, -24
  36              		.cfi_offset 4, -20
  37              		.cfi_offset 5, -16
  38              		.cfi_offset 6, -12
  39              		.cfi_offset 7, -8
  40              		.cfi_offset 14, -4
  41 0002 06A8     		add	r0, sp, #24
  42              	.LVL1:
  43 0004 0024     		movs	r4, #0
  44 0006 045F     		ldrsh	r4, [r0, r4]
  45              	.LVL2:
  46 0008 07A8     		add	r0, sp, #28
  47 000a 0688     		ldrh	r6, [r0]
  48              	.LVL3:
  49 000c 08A8     		add	r0, sp, #32
  50              	.LVL4:
  51 000e 0078     		ldrb	r0, [r0]
  52              	.LVL5:
 686:..\..\..\arduinoLCD\test\Pain Drain\libraries\lvgl\src\hal/lv_hal_disp.c ****     (void) disp_drv; /*Unused*/
 687:..\..\..\arduinoLCD\test\Pain Drain\libraries\lvgl\src\hal/lv_hal_disp.c **** 
 688:..\..\..\arduinoLCD\test\Pain Drain\libraries\lvgl\src\hal/lv_hal_disp.c ****     uint8_t * buf_px = buf + (buf_w * y * LV_IMG_PX_SIZE_ALPHA_BYTE + x * LV_IMG_PX_SIZE_ALPHA_BYTE
  53              		.loc 1 688 0
ARM GAS  C:\Users\haske\AppData\Local\Temp\ccN8jSR9.s 			page 14


  54 0010 6243     		muls	r2, r4
  55              	.LVL6:
  56 0012 9B18     		adds	r3, r3, r2
  57              	.LVL7:
  58 0014 5D00     		lsls	r5, r3, #1
  59 0016 EB18     		adds	r3, r5, r3
  60 0018 CD18     		adds	r5, r1, r3
  61              	.LVL8:
 689:..\..\..\arduinoLCD\test\Pain Drain\libraries\lvgl\src\hal/lv_hal_disp.c **** 
 690:..\..\..\arduinoLCD\test\Pain Drain\libraries\lvgl\src\hal/lv_hal_disp.c ****     lv_color_t bg_color;
 691:..\..\..\arduinoLCD\test\Pain Drain\libraries\lvgl\src\hal/lv_hal_disp.c ****     lv_color_t res_color;
 692:..\..\..\arduinoLCD\test\Pain Drain\libraries\lvgl\src\hal/lv_hal_disp.c ****     lv_opa_t bg_opa = buf_px[LV_IMG_PX_SIZE_ALPHA_BYTE - 1];
  62              		.loc 1 692 0
  63 001a AF78     		ldrb	r7, [r5, #2]
  64              	.LVL9:
 693:..\..\..\arduinoLCD\test\Pain Drain\libraries\lvgl\src\hal/lv_hal_disp.c **** #if LV_COLOR_DEPTH == 8 || LV_COLOR_DEPTH == 1
 694:..\..\..\arduinoLCD\test\Pain Drain\libraries\lvgl\src\hal/lv_hal_disp.c ****     bg_color.full = buf_px[0];
 695:..\..\..\arduinoLCD\test\Pain Drain\libraries\lvgl\src\hal/lv_hal_disp.c ****     lv_color_mix_with_alpha(bg_color, bg_opa, color, opa, &res_color, &buf_px[2]);
 696:..\..\..\arduinoLCD\test\Pain Drain\libraries\lvgl\src\hal/lv_hal_disp.c ****     if(buf_px[1] <= LV_OPA_MIN) return;
 697:..\..\..\arduinoLCD\test\Pain Drain\libraries\lvgl\src\hal/lv_hal_disp.c ****     buf_px[0] = res_color.full;
 698:..\..\..\arduinoLCD\test\Pain Drain\libraries\lvgl\src\hal/lv_hal_disp.c **** #elif LV_COLOR_DEPTH == 16
 699:..\..\..\arduinoLCD\test\Pain Drain\libraries\lvgl\src\hal/lv_hal_disp.c ****     bg_color.full = buf_px[0] + (buf_px[1] << 8);
  65              		.loc 1 699 0
  66 001c 2A78     		ldrb	r2, [r5]
  67 001e 6B78     		ldrb	r3, [r5, #1]
  68 0020 1B02     		lsls	r3, r3, #8
  69 0022 9B18     		adds	r3, r3, r2
  70              	.LVL10:
  71              	.LBB31:
  72              	.LBB32:
  73              		.file 2 "c:\\projects\\paindrain\\arduinolcd\\test\\pain drain\\libraries\\lvgl\\src\\misc\\lv_col
   1:c:\projects\paindrain\arduinolcd\test\pain drain\libraries\lvgl\src\misc\lv_color.h **** /**
   2:c:\projects\paindrain\arduinolcd\test\pain drain\libraries\lvgl\src\misc\lv_color.h ****  * @file lv_color.h
   3:c:\projects\paindrain\arduinolcd\test\pain drain\libraries\lvgl\src\misc\lv_color.h ****  *
   4:c:\projects\paindrain\arduinolcd\test\pain drain\libraries\lvgl\src\misc\lv_color.h ****  */
   5:c:\projects\paindrain\arduinolcd\test\pain drain\libraries\lvgl\src\misc\lv_color.h **** 
   6:c:\projects\paindrain\arduinolcd\test\pain drain\libraries\lvgl\src\misc\lv_color.h **** #ifndef LV_COLOR_H
   7:c:\projects\paindrain\arduinolcd\test\pain drain\libraries\lvgl\src\misc\lv_color.h **** #define LV_COLOR_H
   8:c:\projects\paindrain\arduinolcd\test\pain drain\libraries\lvgl\src\misc\lv_color.h **** 
   9:c:\projects\paindrain\arduinolcd\test\pain drain\libraries\lvgl\src\misc\lv_color.h **** #ifdef __cplusplus
  10:c:\projects\paindrain\arduinolcd\test\pain drain\libraries\lvgl\src\misc\lv_color.h **** extern "C" {
  11:c:\projects\paindrain\arduinolcd\test\pain drain\libraries\lvgl\src\misc\lv_color.h **** #endif
  12:c:\projects\paindrain\arduinolcd\test\pain drain\libraries\lvgl\src\misc\lv_color.h **** 
  13:c:\projects\paindrain\arduinolcd\test\pain drain\libraries\lvgl\src\misc\lv_color.h **** /*********************
  14:c:\projects\paindrain\arduinolcd\test\pain drain\libraries\lvgl\src\misc\lv_color.h ****  *      INCLUDES
  15:c:\projects\paindrain\arduinolcd\test\pain drain\libraries\lvgl\src\misc\lv_color.h ****  *********************/
  16:c:\projects\paindrain\arduinolcd\test\pain drain\libraries\lvgl\src\misc\lv_color.h **** #include "../lv_conf_internal.h"
  17:c:\projects\paindrain\arduinolcd\test\pain drain\libraries\lvgl\src\misc\lv_color.h **** #include "lv_assert.h"
  18:c:\projects\paindrain\arduinolcd\test\pain drain\libraries\lvgl\src\misc\lv_color.h **** #include "lv_math.h"
  19:c:\projects\paindrain\arduinolcd\test\pain drain\libraries\lvgl\src\misc\lv_color.h **** #include "lv_types.h"
  20:c:\projects\paindrain\arduinolcd\test\pain drain\libraries\lvgl\src\misc\lv_color.h **** 
  21:c:\projects\paindrain\arduinolcd\test\pain drain\libraries\lvgl\src\misc\lv_color.h **** /*Error checking*/
  22:c:\projects\paindrain\arduinolcd\test\pain drain\libraries\lvgl\src\misc\lv_color.h **** #if LV_COLOR_DEPTH == 24
  23:c:\projects\paindrain\arduinolcd\test\pain drain\libraries\lvgl\src\misc\lv_color.h **** #error "LV_COLOR_DEPTH 24 is deprecated. Use LV_COLOR_DEPTH 32 instead (lv_conf.h)"
  24:c:\projects\paindrain\arduinolcd\test\pain drain\libraries\lvgl\src\misc\lv_color.h **** #endif
  25:c:\projects\paindrain\arduinolcd\test\pain drain\libraries\lvgl\src\misc\lv_color.h **** 
  26:c:\projects\paindrain\arduinolcd\test\pain drain\libraries\lvgl\src\misc\lv_color.h **** #if LV_COLOR_DEPTH != 16 && LV_COLOR_16_SWAP != 0
ARM GAS  C:\Users\haske\AppData\Local\Temp\ccN8jSR9.s 			page 15


  27:c:\projects\paindrain\arduinolcd\test\pain drain\libraries\lvgl\src\misc\lv_color.h **** #error "LV_COLOR_16_SWAP requires LV_COLOR_DEPTH == 16. Set it in lv_conf.h"
  28:c:\projects\paindrain\arduinolcd\test\pain drain\libraries\lvgl\src\misc\lv_color.h **** #endif
  29:c:\projects\paindrain\arduinolcd\test\pain drain\libraries\lvgl\src\misc\lv_color.h **** 
  30:c:\projects\paindrain\arduinolcd\test\pain drain\libraries\lvgl\src\misc\lv_color.h **** #include <stdint.h>
  31:c:\projects\paindrain\arduinolcd\test\pain drain\libraries\lvgl\src\misc\lv_color.h **** 
  32:c:\projects\paindrain\arduinolcd\test\pain drain\libraries\lvgl\src\misc\lv_color.h **** /*********************
  33:c:\projects\paindrain\arduinolcd\test\pain drain\libraries\lvgl\src\misc\lv_color.h ****  *      DEFINES
  34:c:\projects\paindrain\arduinolcd\test\pain drain\libraries\lvgl\src\misc\lv_color.h ****  *********************/
  35:c:\projects\paindrain\arduinolcd\test\pain drain\libraries\lvgl\src\misc\lv_color.h **** LV_EXPORT_CONST_INT(LV_COLOR_DEPTH);
  36:c:\projects\paindrain\arduinolcd\test\pain drain\libraries\lvgl\src\misc\lv_color.h **** LV_EXPORT_CONST_INT(LV_COLOR_16_SWAP);
  37:c:\projects\paindrain\arduinolcd\test\pain drain\libraries\lvgl\src\misc\lv_color.h **** 
  38:c:\projects\paindrain\arduinolcd\test\pain drain\libraries\lvgl\src\misc\lv_color.h **** /**
  39:c:\projects\paindrain\arduinolcd\test\pain drain\libraries\lvgl\src\misc\lv_color.h ****  * Opacity percentages.
  40:c:\projects\paindrain\arduinolcd\test\pain drain\libraries\lvgl\src\misc\lv_color.h ****  */
  41:c:\projects\paindrain\arduinolcd\test\pain drain\libraries\lvgl\src\misc\lv_color.h **** enum {
  42:c:\projects\paindrain\arduinolcd\test\pain drain\libraries\lvgl\src\misc\lv_color.h ****     LV_OPA_TRANSP = 0,
  43:c:\projects\paindrain\arduinolcd\test\pain drain\libraries\lvgl\src\misc\lv_color.h ****     LV_OPA_0      = 0,
  44:c:\projects\paindrain\arduinolcd\test\pain drain\libraries\lvgl\src\misc\lv_color.h ****     LV_OPA_10     = 25,
  45:c:\projects\paindrain\arduinolcd\test\pain drain\libraries\lvgl\src\misc\lv_color.h ****     LV_OPA_20     = 51,
  46:c:\projects\paindrain\arduinolcd\test\pain drain\libraries\lvgl\src\misc\lv_color.h ****     LV_OPA_30     = 76,
  47:c:\projects\paindrain\arduinolcd\test\pain drain\libraries\lvgl\src\misc\lv_color.h ****     LV_OPA_40     = 102,
  48:c:\projects\paindrain\arduinolcd\test\pain drain\libraries\lvgl\src\misc\lv_color.h ****     LV_OPA_50     = 127,
  49:c:\projects\paindrain\arduinolcd\test\pain drain\libraries\lvgl\src\misc\lv_color.h ****     LV_OPA_60     = 153,
  50:c:\projects\paindrain\arduinolcd\test\pain drain\libraries\lvgl\src\misc\lv_color.h ****     LV_OPA_70     = 178,
  51:c:\projects\paindrain\arduinolcd\test\pain drain\libraries\lvgl\src\misc\lv_color.h ****     LV_OPA_80     = 204,
  52:c:\projects\paindrain\arduinolcd\test\pain drain\libraries\lvgl\src\misc\lv_color.h ****     LV_OPA_90     = 229,
  53:c:\projects\paindrain\arduinolcd\test\pain drain\libraries\lvgl\src\misc\lv_color.h ****     LV_OPA_100    = 255,
  54:c:\projects\paindrain\arduinolcd\test\pain drain\libraries\lvgl\src\misc\lv_color.h ****     LV_OPA_COVER  = 255,
  55:c:\projects\paindrain\arduinolcd\test\pain drain\libraries\lvgl\src\misc\lv_color.h **** };
  56:c:\projects\paindrain\arduinolcd\test\pain drain\libraries\lvgl\src\misc\lv_color.h **** 
  57:c:\projects\paindrain\arduinolcd\test\pain drain\libraries\lvgl\src\misc\lv_color.h **** #define LV_OPA_MIN 2    /*Opacities below this will be transparent*/
  58:c:\projects\paindrain\arduinolcd\test\pain drain\libraries\lvgl\src\misc\lv_color.h **** #define LV_OPA_MAX 253  /*Opacities above this will fully cover*/
  59:c:\projects\paindrain\arduinolcd\test\pain drain\libraries\lvgl\src\misc\lv_color.h **** 
  60:c:\projects\paindrain\arduinolcd\test\pain drain\libraries\lvgl\src\misc\lv_color.h **** #if LV_COLOR_DEPTH == 1
  61:c:\projects\paindrain\arduinolcd\test\pain drain\libraries\lvgl\src\misc\lv_color.h **** #define LV_COLOR_SIZE 8
  62:c:\projects\paindrain\arduinolcd\test\pain drain\libraries\lvgl\src\misc\lv_color.h **** #elif LV_COLOR_DEPTH == 8
  63:c:\projects\paindrain\arduinolcd\test\pain drain\libraries\lvgl\src\misc\lv_color.h **** #define LV_COLOR_SIZE 8
  64:c:\projects\paindrain\arduinolcd\test\pain drain\libraries\lvgl\src\misc\lv_color.h **** #elif LV_COLOR_DEPTH == 16
  65:c:\projects\paindrain\arduinolcd\test\pain drain\libraries\lvgl\src\misc\lv_color.h **** #define LV_COLOR_SIZE 16
  66:c:\projects\paindrain\arduinolcd\test\pain drain\libraries\lvgl\src\misc\lv_color.h **** #elif LV_COLOR_DEPTH == 32
  67:c:\projects\paindrain\arduinolcd\test\pain drain\libraries\lvgl\src\misc\lv_color.h **** #define LV_COLOR_SIZE 32
  68:c:\projects\paindrain\arduinolcd\test\pain drain\libraries\lvgl\src\misc\lv_color.h **** #else
  69:c:\projects\paindrain\arduinolcd\test\pain drain\libraries\lvgl\src\misc\lv_color.h **** #error "Invalid LV_COLOR_DEPTH in lv_conf.h! Set it to 1, 8, 16 or 32!"
  70:c:\projects\paindrain\arduinolcd\test\pain drain\libraries\lvgl\src\misc\lv_color.h **** #endif
  71:c:\projects\paindrain\arduinolcd\test\pain drain\libraries\lvgl\src\misc\lv_color.h **** 
  72:c:\projects\paindrain\arduinolcd\test\pain drain\libraries\lvgl\src\misc\lv_color.h **** #if defined(__cplusplus) && !defined(_LV_COLOR_HAS_MODERN_CPP)
  73:c:\projects\paindrain\arduinolcd\test\pain drain\libraries\lvgl\src\misc\lv_color.h **** /**
  74:c:\projects\paindrain\arduinolcd\test\pain drain\libraries\lvgl\src\misc\lv_color.h **** * MSVC compiler's definition of the __cplusplus indicating 199711L regardless to C++ standard versi
  75:c:\projects\paindrain\arduinolcd\test\pain drain\libraries\lvgl\src\misc\lv_color.h **** * see https://devblogs.microsoft.com/cppblog/msvc-now-correctly-reports-cplusplus
  76:c:\projects\paindrain\arduinolcd\test\pain drain\libraries\lvgl\src\misc\lv_color.h **** * so we use _MSC_VER macro instead of __cplusplus
  77:c:\projects\paindrain\arduinolcd\test\pain drain\libraries\lvgl\src\misc\lv_color.h **** */
  78:c:\projects\paindrain\arduinolcd\test\pain drain\libraries\lvgl\src\misc\lv_color.h **** #ifdef _MSC_VER
  79:c:\projects\paindrain\arduinolcd\test\pain drain\libraries\lvgl\src\misc\lv_color.h **** #if _MSC_VER >= 1900 /*Visual Studio 2015*/
  80:c:\projects\paindrain\arduinolcd\test\pain drain\libraries\lvgl\src\misc\lv_color.h **** #define _LV_COLOR_HAS_MODERN_CPP 1
  81:c:\projects\paindrain\arduinolcd\test\pain drain\libraries\lvgl\src\misc\lv_color.h **** #endif
  82:c:\projects\paindrain\arduinolcd\test\pain drain\libraries\lvgl\src\misc\lv_color.h **** #else
  83:c:\projects\paindrain\arduinolcd\test\pain drain\libraries\lvgl\src\misc\lv_color.h **** #if __cplusplus >= 201103L
ARM GAS  C:\Users\haske\AppData\Local\Temp\ccN8jSR9.s 			page 16


  84:c:\projects\paindrain\arduinolcd\test\pain drain\libraries\lvgl\src\misc\lv_color.h **** #define _LV_COLOR_HAS_MODERN_CPP 1
  85:c:\projects\paindrain\arduinolcd\test\pain drain\libraries\lvgl\src\misc\lv_color.h **** #endif
  86:c:\projects\paindrain\arduinolcd\test\pain drain\libraries\lvgl\src\misc\lv_color.h **** #endif
  87:c:\projects\paindrain\arduinolcd\test\pain drain\libraries\lvgl\src\misc\lv_color.h **** #endif /*__cplusplus*/
  88:c:\projects\paindrain\arduinolcd\test\pain drain\libraries\lvgl\src\misc\lv_color.h **** 
  89:c:\projects\paindrain\arduinolcd\test\pain drain\libraries\lvgl\src\misc\lv_color.h **** #ifndef _LV_COLOR_HAS_MODERN_CPP
  90:c:\projects\paindrain\arduinolcd\test\pain drain\libraries\lvgl\src\misc\lv_color.h **** #define _LV_COLOR_HAS_MODERN_CPP 0
  91:c:\projects\paindrain\arduinolcd\test\pain drain\libraries\lvgl\src\misc\lv_color.h **** #endif
  92:c:\projects\paindrain\arduinolcd\test\pain drain\libraries\lvgl\src\misc\lv_color.h **** 
  93:c:\projects\paindrain\arduinolcd\test\pain drain\libraries\lvgl\src\misc\lv_color.h **** #if _LV_COLOR_HAS_MODERN_CPP
  94:c:\projects\paindrain\arduinolcd\test\pain drain\libraries\lvgl\src\misc\lv_color.h **** /*Fix msvc compiler error C4576 inside C++ code*/
  95:c:\projects\paindrain\arduinolcd\test\pain drain\libraries\lvgl\src\misc\lv_color.h **** #define _LV_COLOR_MAKE_TYPE_HELPER lv_color_t
  96:c:\projects\paindrain\arduinolcd\test\pain drain\libraries\lvgl\src\misc\lv_color.h **** #else
  97:c:\projects\paindrain\arduinolcd\test\pain drain\libraries\lvgl\src\misc\lv_color.h **** #define _LV_COLOR_MAKE_TYPE_HELPER (lv_color_t)
  98:c:\projects\paindrain\arduinolcd\test\pain drain\libraries\lvgl\src\misc\lv_color.h **** #endif
  99:c:\projects\paindrain\arduinolcd\test\pain drain\libraries\lvgl\src\misc\lv_color.h **** 
 100:c:\projects\paindrain\arduinolcd\test\pain drain\libraries\lvgl\src\misc\lv_color.h **** /*---------------------------------------
 101:c:\projects\paindrain\arduinolcd\test\pain drain\libraries\lvgl\src\misc\lv_color.h ****  * Macros for all existing color depths
 102:c:\projects\paindrain\arduinolcd\test\pain drain\libraries\lvgl\src\misc\lv_color.h ****  * to set/get values of the color channels
 103:c:\projects\paindrain\arduinolcd\test\pain drain\libraries\lvgl\src\misc\lv_color.h ****  *------------------------------------------*/
 104:c:\projects\paindrain\arduinolcd\test\pain drain\libraries\lvgl\src\misc\lv_color.h **** # define LV_COLOR_SET_R1(c, v) (c).ch.red = (uint8_t)((v) & 0x1)
 105:c:\projects\paindrain\arduinolcd\test\pain drain\libraries\lvgl\src\misc\lv_color.h **** # define LV_COLOR_SET_G1(c, v) (c).ch.green = (uint8_t)((v) & 0x1)
 106:c:\projects\paindrain\arduinolcd\test\pain drain\libraries\lvgl\src\misc\lv_color.h **** # define LV_COLOR_SET_B1(c, v) (c).ch.blue = (uint8_t)((v) & 0x1)
 107:c:\projects\paindrain\arduinolcd\test\pain drain\libraries\lvgl\src\misc\lv_color.h **** # define LV_COLOR_SET_A1(c, v) do {} while(0)
 108:c:\projects\paindrain\arduinolcd\test\pain drain\libraries\lvgl\src\misc\lv_color.h **** 
 109:c:\projects\paindrain\arduinolcd\test\pain drain\libraries\lvgl\src\misc\lv_color.h **** # define LV_COLOR_GET_R1(c) (c).ch.red
 110:c:\projects\paindrain\arduinolcd\test\pain drain\libraries\lvgl\src\misc\lv_color.h **** # define LV_COLOR_GET_G1(c) (c).ch.green
 111:c:\projects\paindrain\arduinolcd\test\pain drain\libraries\lvgl\src\misc\lv_color.h **** # define LV_COLOR_GET_B1(c) (c).ch.blue
 112:c:\projects\paindrain\arduinolcd\test\pain drain\libraries\lvgl\src\misc\lv_color.h **** # define LV_COLOR_GET_A1(c) 0xFF
 113:c:\projects\paindrain\arduinolcd\test\pain drain\libraries\lvgl\src\misc\lv_color.h **** 
 114:c:\projects\paindrain\arduinolcd\test\pain drain\libraries\lvgl\src\misc\lv_color.h **** # define _LV_COLOR_ZERO_INITIALIZER1 {0x00}
 115:c:\projects\paindrain\arduinolcd\test\pain drain\libraries\lvgl\src\misc\lv_color.h **** # define LV_COLOR_MAKE1(r8, g8, b8)  {(uint8_t)((b8 >> 7) | (g8 >> 7) | (r8 >> 7))}
 116:c:\projects\paindrain\arduinolcd\test\pain drain\libraries\lvgl\src\misc\lv_color.h **** 
 117:c:\projects\paindrain\arduinolcd\test\pain drain\libraries\lvgl\src\misc\lv_color.h **** # define LV_COLOR_SET_R8(c, v) (c).ch.red = (uint8_t)((v) & 0x7U)
 118:c:\projects\paindrain\arduinolcd\test\pain drain\libraries\lvgl\src\misc\lv_color.h **** # define LV_COLOR_SET_G8(c, v) (c).ch.green = (uint8_t)((v) & 0x7U)
 119:c:\projects\paindrain\arduinolcd\test\pain drain\libraries\lvgl\src\misc\lv_color.h **** # define LV_COLOR_SET_B8(c, v) (c).ch.blue = (uint8_t)((v) & 0x3U)
 120:c:\projects\paindrain\arduinolcd\test\pain drain\libraries\lvgl\src\misc\lv_color.h **** # define LV_COLOR_SET_A8(c, v) do {} while(0)
 121:c:\projects\paindrain\arduinolcd\test\pain drain\libraries\lvgl\src\misc\lv_color.h **** 
 122:c:\projects\paindrain\arduinolcd\test\pain drain\libraries\lvgl\src\misc\lv_color.h **** # define LV_COLOR_GET_R8(c) (c).ch.red
 123:c:\projects\paindrain\arduinolcd\test\pain drain\libraries\lvgl\src\misc\lv_color.h **** # define LV_COLOR_GET_G8(c) (c).ch.green
 124:c:\projects\paindrain\arduinolcd\test\pain drain\libraries\lvgl\src\misc\lv_color.h **** # define LV_COLOR_GET_B8(c) (c).ch.blue
 125:c:\projects\paindrain\arduinolcd\test\pain drain\libraries\lvgl\src\misc\lv_color.h **** # define LV_COLOR_GET_A8(c) 0xFF
 126:c:\projects\paindrain\arduinolcd\test\pain drain\libraries\lvgl\src\misc\lv_color.h **** 
 127:c:\projects\paindrain\arduinolcd\test\pain drain\libraries\lvgl\src\misc\lv_color.h **** # define _LV_COLOR_ZERO_INITIALIZER8 {{0x00, 0x00, 0x00}}
 128:c:\projects\paindrain\arduinolcd\test\pain drain\libraries\lvgl\src\misc\lv_color.h **** # define LV_COLOR_MAKE8(r8, g8, b8) {{(uint8_t)((b8 >> 6) & 0x3U), (uint8_t)((g8 >> 5) & 0x7U), (ui
 129:c:\projects\paindrain\arduinolcd\test\pain drain\libraries\lvgl\src\misc\lv_color.h **** 
 130:c:\projects\paindrain\arduinolcd\test\pain drain\libraries\lvgl\src\misc\lv_color.h **** # define LV_COLOR_SET_R16(c, v) (c).ch.red = (uint8_t)((v) & 0x1FU)
 131:c:\projects\paindrain\arduinolcd\test\pain drain\libraries\lvgl\src\misc\lv_color.h **** #if LV_COLOR_16_SWAP == 0
 132:c:\projects\paindrain\arduinolcd\test\pain drain\libraries\lvgl\src\misc\lv_color.h **** # define LV_COLOR_SET_G16(c, v) (c).ch.green = (uint8_t)((v) & 0x3FU)
 133:c:\projects\paindrain\arduinolcd\test\pain drain\libraries\lvgl\src\misc\lv_color.h **** #else
 134:c:\projects\paindrain\arduinolcd\test\pain drain\libraries\lvgl\src\misc\lv_color.h **** # define LV_COLOR_SET_G16(c, v) {(c).ch.green_h = (uint8_t)(((v) >> 3) & 0x7); (c).ch.green_l = (ui
 135:c:\projects\paindrain\arduinolcd\test\pain drain\libraries\lvgl\src\misc\lv_color.h **** #endif
 136:c:\projects\paindrain\arduinolcd\test\pain drain\libraries\lvgl\src\misc\lv_color.h **** # define LV_COLOR_SET_B16(c, v) (c).ch.blue = (uint8_t)((v) & 0x1FU)
 137:c:\projects\paindrain\arduinolcd\test\pain drain\libraries\lvgl\src\misc\lv_color.h **** # define LV_COLOR_SET_A16(c, v) do {} while(0)
 138:c:\projects\paindrain\arduinolcd\test\pain drain\libraries\lvgl\src\misc\lv_color.h **** 
 139:c:\projects\paindrain\arduinolcd\test\pain drain\libraries\lvgl\src\misc\lv_color.h **** # define LV_COLOR_GET_R16(c) (c).ch.red
 140:c:\projects\paindrain\arduinolcd\test\pain drain\libraries\lvgl\src\misc\lv_color.h **** #if LV_COLOR_16_SWAP == 0
ARM GAS  C:\Users\haske\AppData\Local\Temp\ccN8jSR9.s 			page 17


 141:c:\projects\paindrain\arduinolcd\test\pain drain\libraries\lvgl\src\misc\lv_color.h **** # define LV_COLOR_GET_G16(c) (c).ch.green
 142:c:\projects\paindrain\arduinolcd\test\pain drain\libraries\lvgl\src\misc\lv_color.h **** #else
 143:c:\projects\paindrain\arduinolcd\test\pain drain\libraries\lvgl\src\misc\lv_color.h **** # define LV_COLOR_GET_G16(c) (((c).ch.green_h << 3) + (c).ch.green_l)
 144:c:\projects\paindrain\arduinolcd\test\pain drain\libraries\lvgl\src\misc\lv_color.h **** #endif
 145:c:\projects\paindrain\arduinolcd\test\pain drain\libraries\lvgl\src\misc\lv_color.h **** # define LV_COLOR_GET_B16(c) (c).ch.blue
 146:c:\projects\paindrain\arduinolcd\test\pain drain\libraries\lvgl\src\misc\lv_color.h **** # define LV_COLOR_GET_A16(c) 0xFF
 147:c:\projects\paindrain\arduinolcd\test\pain drain\libraries\lvgl\src\misc\lv_color.h **** 
 148:c:\projects\paindrain\arduinolcd\test\pain drain\libraries\lvgl\src\misc\lv_color.h **** #if LV_COLOR_16_SWAP == 0
 149:c:\projects\paindrain\arduinolcd\test\pain drain\libraries\lvgl\src\misc\lv_color.h **** # define _LV_COLOR_ZERO_INITIALIZER16  {{0x00, 0x00, 0x00}}
 150:c:\projects\paindrain\arduinolcd\test\pain drain\libraries\lvgl\src\misc\lv_color.h **** # define LV_COLOR_MAKE16(r8, g8, b8) {{(uint8_t)((b8 >> 3) & 0x1FU), (uint8_t)((g8 >> 2) & 0x3FU), 
 151:c:\projects\paindrain\arduinolcd\test\pain drain\libraries\lvgl\src\misc\lv_color.h **** #else
 152:c:\projects\paindrain\arduinolcd\test\pain drain\libraries\lvgl\src\misc\lv_color.h **** # define _LV_COLOR_ZERO_INITIALIZER16 {{0x00, 0x00, 0x00, 0x00}}
 153:c:\projects\paindrain\arduinolcd\test\pain drain\libraries\lvgl\src\misc\lv_color.h **** # define LV_COLOR_MAKE16(r8, g8, b8) {{(uint8_t)((g8 >> 5) & 0x7U), (uint8_t)((r8 >> 3) & 0x1FU), (
 154:c:\projects\paindrain\arduinolcd\test\pain drain\libraries\lvgl\src\misc\lv_color.h **** #endif
 155:c:\projects\paindrain\arduinolcd\test\pain drain\libraries\lvgl\src\misc\lv_color.h **** 
 156:c:\projects\paindrain\arduinolcd\test\pain drain\libraries\lvgl\src\misc\lv_color.h **** # define LV_COLOR_SET_R32(c, v) (c).ch.red = (uint8_t)((v) & 0xFF)
 157:c:\projects\paindrain\arduinolcd\test\pain drain\libraries\lvgl\src\misc\lv_color.h **** # define LV_COLOR_SET_G32(c, v) (c).ch.green = (uint8_t)((v) & 0xFF)
 158:c:\projects\paindrain\arduinolcd\test\pain drain\libraries\lvgl\src\misc\lv_color.h **** # define LV_COLOR_SET_B32(c, v) (c).ch.blue = (uint8_t)((v) & 0xFF)
 159:c:\projects\paindrain\arduinolcd\test\pain drain\libraries\lvgl\src\misc\lv_color.h **** # define LV_COLOR_SET_A32(c, v) (c).ch.alpha = (uint8_t)((v) & 0xFF)
 160:c:\projects\paindrain\arduinolcd\test\pain drain\libraries\lvgl\src\misc\lv_color.h **** 
 161:c:\projects\paindrain\arduinolcd\test\pain drain\libraries\lvgl\src\misc\lv_color.h **** # define LV_COLOR_GET_R32(c) (c).ch.red
 162:c:\projects\paindrain\arduinolcd\test\pain drain\libraries\lvgl\src\misc\lv_color.h **** # define LV_COLOR_GET_G32(c) (c).ch.green
 163:c:\projects\paindrain\arduinolcd\test\pain drain\libraries\lvgl\src\misc\lv_color.h **** # define LV_COLOR_GET_B32(c) (c).ch.blue
 164:c:\projects\paindrain\arduinolcd\test\pain drain\libraries\lvgl\src\misc\lv_color.h **** # define LV_COLOR_GET_A32(c) (c).ch.alpha
 165:c:\projects\paindrain\arduinolcd\test\pain drain\libraries\lvgl\src\misc\lv_color.h **** 
 166:c:\projects\paindrain\arduinolcd\test\pain drain\libraries\lvgl\src\misc\lv_color.h **** # define _LV_COLOR_ZERO_INITIALIZER32  {{0x00, 0x00, 0x00, 0x00}}
 167:c:\projects\paindrain\arduinolcd\test\pain drain\libraries\lvgl\src\misc\lv_color.h **** # define LV_COLOR_MAKE32(r8, g8, b8) {{b8, g8, r8, 0xff}} /*Fix 0xff alpha*/
 168:c:\projects\paindrain\arduinolcd\test\pain drain\libraries\lvgl\src\misc\lv_color.h **** 
 169:c:\projects\paindrain\arduinolcd\test\pain drain\libraries\lvgl\src\misc\lv_color.h **** /*---------------------------------------
 170:c:\projects\paindrain\arduinolcd\test\pain drain\libraries\lvgl\src\misc\lv_color.h ****  * Macros for the current color depth
 171:c:\projects\paindrain\arduinolcd\test\pain drain\libraries\lvgl\src\misc\lv_color.h ****  * to set/get values of the color channels
 172:c:\projects\paindrain\arduinolcd\test\pain drain\libraries\lvgl\src\misc\lv_color.h ****  *------------------------------------------*/
 173:c:\projects\paindrain\arduinolcd\test\pain drain\libraries\lvgl\src\misc\lv_color.h **** #define LV_COLOR_SET_R(c, v) LV_CONCAT(LV_COLOR_SET_R, LV_COLOR_DEPTH)(c, v)
 174:c:\projects\paindrain\arduinolcd\test\pain drain\libraries\lvgl\src\misc\lv_color.h **** #define LV_COLOR_SET_G(c, v) LV_CONCAT(LV_COLOR_SET_G, LV_COLOR_DEPTH)(c, v)
 175:c:\projects\paindrain\arduinolcd\test\pain drain\libraries\lvgl\src\misc\lv_color.h **** #define LV_COLOR_SET_B(c, v) LV_CONCAT(LV_COLOR_SET_B, LV_COLOR_DEPTH)(c, v)
 176:c:\projects\paindrain\arduinolcd\test\pain drain\libraries\lvgl\src\misc\lv_color.h **** #define LV_COLOR_SET_A(c, v) LV_CONCAT(LV_COLOR_SET_A, LV_COLOR_DEPTH)(c, v)
 177:c:\projects\paindrain\arduinolcd\test\pain drain\libraries\lvgl\src\misc\lv_color.h **** 
 178:c:\projects\paindrain\arduinolcd\test\pain drain\libraries\lvgl\src\misc\lv_color.h **** #define LV_COLOR_GET_R(c) LV_CONCAT(LV_COLOR_GET_R, LV_COLOR_DEPTH)(c)
 179:c:\projects\paindrain\arduinolcd\test\pain drain\libraries\lvgl\src\misc\lv_color.h **** #define LV_COLOR_GET_G(c) LV_CONCAT(LV_COLOR_GET_G, LV_COLOR_DEPTH)(c)
 180:c:\projects\paindrain\arduinolcd\test\pain drain\libraries\lvgl\src\misc\lv_color.h **** #define LV_COLOR_GET_B(c) LV_CONCAT(LV_COLOR_GET_B, LV_COLOR_DEPTH)(c)
 181:c:\projects\paindrain\arduinolcd\test\pain drain\libraries\lvgl\src\misc\lv_color.h **** #define LV_COLOR_GET_A(c) LV_CONCAT(LV_COLOR_GET_A, LV_COLOR_DEPTH)(c)
 182:c:\projects\paindrain\arduinolcd\test\pain drain\libraries\lvgl\src\misc\lv_color.h **** 
 183:c:\projects\paindrain\arduinolcd\test\pain drain\libraries\lvgl\src\misc\lv_color.h **** #define _LV_COLOR_ZERO_INITIALIZER LV_CONCAT(_LV_COLOR_ZERO_INITIALIZER, LV_COLOR_DEPTH)
 184:c:\projects\paindrain\arduinolcd\test\pain drain\libraries\lvgl\src\misc\lv_color.h **** #define LV_COLOR_MAKE(r8, g8, b8) LV_CONCAT(LV_COLOR_MAKE, LV_COLOR_DEPTH)(r8, g8, b8)
 185:c:\projects\paindrain\arduinolcd\test\pain drain\libraries\lvgl\src\misc\lv_color.h **** 
 186:c:\projects\paindrain\arduinolcd\test\pain drain\libraries\lvgl\src\misc\lv_color.h **** /**********************
 187:c:\projects\paindrain\arduinolcd\test\pain drain\libraries\lvgl\src\misc\lv_color.h ****  *      TYPEDEFS
 188:c:\projects\paindrain\arduinolcd\test\pain drain\libraries\lvgl\src\misc\lv_color.h ****  **********************/
 189:c:\projects\paindrain\arduinolcd\test\pain drain\libraries\lvgl\src\misc\lv_color.h **** 
 190:c:\projects\paindrain\arduinolcd\test\pain drain\libraries\lvgl\src\misc\lv_color.h **** typedef union {
 191:c:\projects\paindrain\arduinolcd\test\pain drain\libraries\lvgl\src\misc\lv_color.h ****     uint8_t full; /*must be declared first to set all bits of byte via initializer list*/
 192:c:\projects\paindrain\arduinolcd\test\pain drain\libraries\lvgl\src\misc\lv_color.h ****     union {
 193:c:\projects\paindrain\arduinolcd\test\pain drain\libraries\lvgl\src\misc\lv_color.h ****         uint8_t blue : 1;
 194:c:\projects\paindrain\arduinolcd\test\pain drain\libraries\lvgl\src\misc\lv_color.h ****         uint8_t green : 1;
 195:c:\projects\paindrain\arduinolcd\test\pain drain\libraries\lvgl\src\misc\lv_color.h ****         uint8_t red : 1;
 196:c:\projects\paindrain\arduinolcd\test\pain drain\libraries\lvgl\src\misc\lv_color.h ****     } ch;
 197:c:\projects\paindrain\arduinolcd\test\pain drain\libraries\lvgl\src\misc\lv_color.h **** } lv_color1_t;
ARM GAS  C:\Users\haske\AppData\Local\Temp\ccN8jSR9.s 			page 18


 198:c:\projects\paindrain\arduinolcd\test\pain drain\libraries\lvgl\src\misc\lv_color.h **** 
 199:c:\projects\paindrain\arduinolcd\test\pain drain\libraries\lvgl\src\misc\lv_color.h **** typedef union {
 200:c:\projects\paindrain\arduinolcd\test\pain drain\libraries\lvgl\src\misc\lv_color.h ****     struct {
 201:c:\projects\paindrain\arduinolcd\test\pain drain\libraries\lvgl\src\misc\lv_color.h ****         uint8_t blue : 2;
 202:c:\projects\paindrain\arduinolcd\test\pain drain\libraries\lvgl\src\misc\lv_color.h ****         uint8_t green : 3;
 203:c:\projects\paindrain\arduinolcd\test\pain drain\libraries\lvgl\src\misc\lv_color.h ****         uint8_t red : 3;
 204:c:\projects\paindrain\arduinolcd\test\pain drain\libraries\lvgl\src\misc\lv_color.h ****     } ch;
 205:c:\projects\paindrain\arduinolcd\test\pain drain\libraries\lvgl\src\misc\lv_color.h ****     uint8_t full;
 206:c:\projects\paindrain\arduinolcd\test\pain drain\libraries\lvgl\src\misc\lv_color.h **** } lv_color8_t;
 207:c:\projects\paindrain\arduinolcd\test\pain drain\libraries\lvgl\src\misc\lv_color.h **** 
 208:c:\projects\paindrain\arduinolcd\test\pain drain\libraries\lvgl\src\misc\lv_color.h **** typedef union {
 209:c:\projects\paindrain\arduinolcd\test\pain drain\libraries\lvgl\src\misc\lv_color.h ****     struct {
 210:c:\projects\paindrain\arduinolcd\test\pain drain\libraries\lvgl\src\misc\lv_color.h **** #if LV_COLOR_16_SWAP == 0
 211:c:\projects\paindrain\arduinolcd\test\pain drain\libraries\lvgl\src\misc\lv_color.h ****         uint16_t blue : 5;
 212:c:\projects\paindrain\arduinolcd\test\pain drain\libraries\lvgl\src\misc\lv_color.h ****         uint16_t green : 6;
 213:c:\projects\paindrain\arduinolcd\test\pain drain\libraries\lvgl\src\misc\lv_color.h ****         uint16_t red : 5;
 214:c:\projects\paindrain\arduinolcd\test\pain drain\libraries\lvgl\src\misc\lv_color.h **** #else
 215:c:\projects\paindrain\arduinolcd\test\pain drain\libraries\lvgl\src\misc\lv_color.h ****         uint16_t green_h : 3;
 216:c:\projects\paindrain\arduinolcd\test\pain drain\libraries\lvgl\src\misc\lv_color.h ****         uint16_t red : 5;
 217:c:\projects\paindrain\arduinolcd\test\pain drain\libraries\lvgl\src\misc\lv_color.h ****         uint16_t blue : 5;
 218:c:\projects\paindrain\arduinolcd\test\pain drain\libraries\lvgl\src\misc\lv_color.h ****         uint16_t green_l : 3;
 219:c:\projects\paindrain\arduinolcd\test\pain drain\libraries\lvgl\src\misc\lv_color.h **** #endif
 220:c:\projects\paindrain\arduinolcd\test\pain drain\libraries\lvgl\src\misc\lv_color.h ****     } ch;
 221:c:\projects\paindrain\arduinolcd\test\pain drain\libraries\lvgl\src\misc\lv_color.h ****     uint16_t full;
 222:c:\projects\paindrain\arduinolcd\test\pain drain\libraries\lvgl\src\misc\lv_color.h **** } lv_color16_t;
 223:c:\projects\paindrain\arduinolcd\test\pain drain\libraries\lvgl\src\misc\lv_color.h **** 
 224:c:\projects\paindrain\arduinolcd\test\pain drain\libraries\lvgl\src\misc\lv_color.h **** typedef union {
 225:c:\projects\paindrain\arduinolcd\test\pain drain\libraries\lvgl\src\misc\lv_color.h ****     struct {
 226:c:\projects\paindrain\arduinolcd\test\pain drain\libraries\lvgl\src\misc\lv_color.h ****         uint8_t blue;
 227:c:\projects\paindrain\arduinolcd\test\pain drain\libraries\lvgl\src\misc\lv_color.h ****         uint8_t green;
 228:c:\projects\paindrain\arduinolcd\test\pain drain\libraries\lvgl\src\misc\lv_color.h ****         uint8_t red;
 229:c:\projects\paindrain\arduinolcd\test\pain drain\libraries\lvgl\src\misc\lv_color.h ****         uint8_t alpha;
 230:c:\projects\paindrain\arduinolcd\test\pain drain\libraries\lvgl\src\misc\lv_color.h ****     } ch;
 231:c:\projects\paindrain\arduinolcd\test\pain drain\libraries\lvgl\src\misc\lv_color.h ****     uint32_t full;
 232:c:\projects\paindrain\arduinolcd\test\pain drain\libraries\lvgl\src\misc\lv_color.h **** } lv_color32_t;
 233:c:\projects\paindrain\arduinolcd\test\pain drain\libraries\lvgl\src\misc\lv_color.h **** 
 234:c:\projects\paindrain\arduinolcd\test\pain drain\libraries\lvgl\src\misc\lv_color.h **** typedef LV_CONCAT3(uint, LV_COLOR_SIZE, _t) lv_color_int_t;
 235:c:\projects\paindrain\arduinolcd\test\pain drain\libraries\lvgl\src\misc\lv_color.h **** typedef LV_CONCAT3(lv_color, LV_COLOR_DEPTH, _t) lv_color_t;
 236:c:\projects\paindrain\arduinolcd\test\pain drain\libraries\lvgl\src\misc\lv_color.h **** 
 237:c:\projects\paindrain\arduinolcd\test\pain drain\libraries\lvgl\src\misc\lv_color.h **** typedef struct {
 238:c:\projects\paindrain\arduinolcd\test\pain drain\libraries\lvgl\src\misc\lv_color.h ****     uint16_t h;
 239:c:\projects\paindrain\arduinolcd\test\pain drain\libraries\lvgl\src\misc\lv_color.h ****     uint8_t s;
 240:c:\projects\paindrain\arduinolcd\test\pain drain\libraries\lvgl\src\misc\lv_color.h ****     uint8_t v;
 241:c:\projects\paindrain\arduinolcd\test\pain drain\libraries\lvgl\src\misc\lv_color.h **** } lv_color_hsv_t;
 242:c:\projects\paindrain\arduinolcd\test\pain drain\libraries\lvgl\src\misc\lv_color.h **** 
 243:c:\projects\paindrain\arduinolcd\test\pain drain\libraries\lvgl\src\misc\lv_color.h **** //! @cond Doxygen_Suppress
 244:c:\projects\paindrain\arduinolcd\test\pain drain\libraries\lvgl\src\misc\lv_color.h **** /*No idea where the guard is required but else throws warnings in the docs*/
 245:c:\projects\paindrain\arduinolcd\test\pain drain\libraries\lvgl\src\misc\lv_color.h **** typedef uint8_t lv_opa_t;
 246:c:\projects\paindrain\arduinolcd\test\pain drain\libraries\lvgl\src\misc\lv_color.h **** //! @endcond
 247:c:\projects\paindrain\arduinolcd\test\pain drain\libraries\lvgl\src\misc\lv_color.h **** 
 248:c:\projects\paindrain\arduinolcd\test\pain drain\libraries\lvgl\src\misc\lv_color.h **** struct _lv_color_filter_dsc_t;
 249:c:\projects\paindrain\arduinolcd\test\pain drain\libraries\lvgl\src\misc\lv_color.h **** 
 250:c:\projects\paindrain\arduinolcd\test\pain drain\libraries\lvgl\src\misc\lv_color.h **** typedef lv_color_t (*lv_color_filter_cb_t)(const struct _lv_color_filter_dsc_t *, lv_color_t, lv_op
 251:c:\projects\paindrain\arduinolcd\test\pain drain\libraries\lvgl\src\misc\lv_color.h **** 
 252:c:\projects\paindrain\arduinolcd\test\pain drain\libraries\lvgl\src\misc\lv_color.h **** typedef struct _lv_color_filter_dsc_t {
 253:c:\projects\paindrain\arduinolcd\test\pain drain\libraries\lvgl\src\misc\lv_color.h ****     lv_color_filter_cb_t filter_cb;
 254:c:\projects\paindrain\arduinolcd\test\pain drain\libraries\lvgl\src\misc\lv_color.h ****     void * user_data;
ARM GAS  C:\Users\haske\AppData\Local\Temp\ccN8jSR9.s 			page 19


 255:c:\projects\paindrain\arduinolcd\test\pain drain\libraries\lvgl\src\misc\lv_color.h **** } lv_color_filter_dsc_t;
 256:c:\projects\paindrain\arduinolcd\test\pain drain\libraries\lvgl\src\misc\lv_color.h **** 
 257:c:\projects\paindrain\arduinolcd\test\pain drain\libraries\lvgl\src\misc\lv_color.h **** 
 258:c:\projects\paindrain\arduinolcd\test\pain drain\libraries\lvgl\src\misc\lv_color.h **** typedef enum {
 259:c:\projects\paindrain\arduinolcd\test\pain drain\libraries\lvgl\src\misc\lv_color.h ****     LV_PALETTE_RED,
 260:c:\projects\paindrain\arduinolcd\test\pain drain\libraries\lvgl\src\misc\lv_color.h ****     LV_PALETTE_PINK,
 261:c:\projects\paindrain\arduinolcd\test\pain drain\libraries\lvgl\src\misc\lv_color.h ****     LV_PALETTE_PURPLE,
 262:c:\projects\paindrain\arduinolcd\test\pain drain\libraries\lvgl\src\misc\lv_color.h ****     LV_PALETTE_DEEP_PURPLE,
 263:c:\projects\paindrain\arduinolcd\test\pain drain\libraries\lvgl\src\misc\lv_color.h ****     LV_PALETTE_INDIGO,
 264:c:\projects\paindrain\arduinolcd\test\pain drain\libraries\lvgl\src\misc\lv_color.h ****     LV_PALETTE_BLUE,
 265:c:\projects\paindrain\arduinolcd\test\pain drain\libraries\lvgl\src\misc\lv_color.h ****     LV_PALETTE_LIGHT_BLUE,
 266:c:\projects\paindrain\arduinolcd\test\pain drain\libraries\lvgl\src\misc\lv_color.h ****     LV_PALETTE_CYAN,
 267:c:\projects\paindrain\arduinolcd\test\pain drain\libraries\lvgl\src\misc\lv_color.h ****     LV_PALETTE_TEAL,
 268:c:\projects\paindrain\arduinolcd\test\pain drain\libraries\lvgl\src\misc\lv_color.h ****     LV_PALETTE_GREEN,
 269:c:\projects\paindrain\arduinolcd\test\pain drain\libraries\lvgl\src\misc\lv_color.h ****     LV_PALETTE_LIGHT_GREEN,
 270:c:\projects\paindrain\arduinolcd\test\pain drain\libraries\lvgl\src\misc\lv_color.h ****     LV_PALETTE_LIME,
 271:c:\projects\paindrain\arduinolcd\test\pain drain\libraries\lvgl\src\misc\lv_color.h ****     LV_PALETTE_YELLOW,
 272:c:\projects\paindrain\arduinolcd\test\pain drain\libraries\lvgl\src\misc\lv_color.h ****     LV_PALETTE_AMBER,
 273:c:\projects\paindrain\arduinolcd\test\pain drain\libraries\lvgl\src\misc\lv_color.h ****     LV_PALETTE_ORANGE,
 274:c:\projects\paindrain\arduinolcd\test\pain drain\libraries\lvgl\src\misc\lv_color.h ****     LV_PALETTE_DEEP_ORANGE,
 275:c:\projects\paindrain\arduinolcd\test\pain drain\libraries\lvgl\src\misc\lv_color.h ****     LV_PALETTE_BROWN,
 276:c:\projects\paindrain\arduinolcd\test\pain drain\libraries\lvgl\src\misc\lv_color.h ****     LV_PALETTE_BLUE_GREY,
 277:c:\projects\paindrain\arduinolcd\test\pain drain\libraries\lvgl\src\misc\lv_color.h ****     LV_PALETTE_GREY,
 278:c:\projects\paindrain\arduinolcd\test\pain drain\libraries\lvgl\src\misc\lv_color.h ****     _LV_PALETTE_LAST,
 279:c:\projects\paindrain\arduinolcd\test\pain drain\libraries\lvgl\src\misc\lv_color.h ****     LV_PALETTE_NONE = 0xff,
 280:c:\projects\paindrain\arduinolcd\test\pain drain\libraries\lvgl\src\misc\lv_color.h **** } lv_palette_t;
 281:c:\projects\paindrain\arduinolcd\test\pain drain\libraries\lvgl\src\misc\lv_color.h **** 
 282:c:\projects\paindrain\arduinolcd\test\pain drain\libraries\lvgl\src\misc\lv_color.h **** /**********************
 283:c:\projects\paindrain\arduinolcd\test\pain drain\libraries\lvgl\src\misc\lv_color.h ****  * GLOBAL PROTOTYPES
 284:c:\projects\paindrain\arduinolcd\test\pain drain\libraries\lvgl\src\misc\lv_color.h ****  **********************/
 285:c:\projects\paindrain\arduinolcd\test\pain drain\libraries\lvgl\src\misc\lv_color.h **** 
 286:c:\projects\paindrain\arduinolcd\test\pain drain\libraries\lvgl\src\misc\lv_color.h **** /*In color conversations:
 287:c:\projects\paindrain\arduinolcd\test\pain drain\libraries\lvgl\src\misc\lv_color.h ****  * - When converting to bigger color type the LSB weight of 1 LSB is calculated
 288:c:\projects\paindrain\arduinolcd\test\pain drain\libraries\lvgl\src\misc\lv_color.h ****  *   E.g. 16 bit Red has 5 bits
 289:c:\projects\paindrain\arduinolcd\test\pain drain\libraries\lvgl\src\misc\lv_color.h ****  *         8 bit Red has 3 bits
 290:c:\projects\paindrain\arduinolcd\test\pain drain\libraries\lvgl\src\misc\lv_color.h ****  *        ----------------------
 291:c:\projects\paindrain\arduinolcd\test\pain drain\libraries\lvgl\src\misc\lv_color.h ****  *        8 bit red LSB = (2^5 - 1) / (2^3 - 1) = 31 / 7 = 4
 292:c:\projects\paindrain\arduinolcd\test\pain drain\libraries\lvgl\src\misc\lv_color.h ****  *
 293:c:\projects\paindrain\arduinolcd\test\pain drain\libraries\lvgl\src\misc\lv_color.h ****  * - When calculating to smaller color type simply shift out the LSBs
 294:c:\projects\paindrain\arduinolcd\test\pain drain\libraries\lvgl\src\misc\lv_color.h ****  *   E.g.  8 bit Red has 3 bits
 295:c:\projects\paindrain\arduinolcd\test\pain drain\libraries\lvgl\src\misc\lv_color.h ****  *        16 bit Red has 5 bits
 296:c:\projects\paindrain\arduinolcd\test\pain drain\libraries\lvgl\src\misc\lv_color.h ****  *        ----------------------
 297:c:\projects\paindrain\arduinolcd\test\pain drain\libraries\lvgl\src\misc\lv_color.h ****  *         Shift right with 5 - 3 = 2
 298:c:\projects\paindrain\arduinolcd\test\pain drain\libraries\lvgl\src\misc\lv_color.h ****  */
 299:c:\projects\paindrain\arduinolcd\test\pain drain\libraries\lvgl\src\misc\lv_color.h **** static inline uint8_t lv_color_to1(lv_color_t color)
 300:c:\projects\paindrain\arduinolcd\test\pain drain\libraries\lvgl\src\misc\lv_color.h **** {
 301:c:\projects\paindrain\arduinolcd\test\pain drain\libraries\lvgl\src\misc\lv_color.h **** #if LV_COLOR_DEPTH == 1
 302:c:\projects\paindrain\arduinolcd\test\pain drain\libraries\lvgl\src\misc\lv_color.h ****     return color.full;
 303:c:\projects\paindrain\arduinolcd\test\pain drain\libraries\lvgl\src\misc\lv_color.h **** #elif LV_COLOR_DEPTH == 8
 304:c:\projects\paindrain\arduinolcd\test\pain drain\libraries\lvgl\src\misc\lv_color.h ****     if((LV_COLOR_GET_R(color) & 0x4) || (LV_COLOR_GET_G(color) & 0x4) || (LV_COLOR_GET_B(color) & 0
 305:c:\projects\paindrain\arduinolcd\test\pain drain\libraries\lvgl\src\misc\lv_color.h ****         return 1;
 306:c:\projects\paindrain\arduinolcd\test\pain drain\libraries\lvgl\src\misc\lv_color.h ****     }
 307:c:\projects\paindrain\arduinolcd\test\pain drain\libraries\lvgl\src\misc\lv_color.h ****     else {
 308:c:\projects\paindrain\arduinolcd\test\pain drain\libraries\lvgl\src\misc\lv_color.h ****         return 0;
 309:c:\projects\paindrain\arduinolcd\test\pain drain\libraries\lvgl\src\misc\lv_color.h ****     }
 310:c:\projects\paindrain\arduinolcd\test\pain drain\libraries\lvgl\src\misc\lv_color.h **** #elif LV_COLOR_DEPTH == 16
 311:c:\projects\paindrain\arduinolcd\test\pain drain\libraries\lvgl\src\misc\lv_color.h ****     if((LV_COLOR_GET_R(color) & 0x10) || (LV_COLOR_GET_G(color) & 0x20) || (LV_COLOR_GET_B(color) &
ARM GAS  C:\Users\haske\AppData\Local\Temp\ccN8jSR9.s 			page 20


 312:c:\projects\paindrain\arduinolcd\test\pain drain\libraries\lvgl\src\misc\lv_color.h ****         return 1;
 313:c:\projects\paindrain\arduinolcd\test\pain drain\libraries\lvgl\src\misc\lv_color.h ****     }
 314:c:\projects\paindrain\arduinolcd\test\pain drain\libraries\lvgl\src\misc\lv_color.h ****     else {
 315:c:\projects\paindrain\arduinolcd\test\pain drain\libraries\lvgl\src\misc\lv_color.h ****         return 0;
 316:c:\projects\paindrain\arduinolcd\test\pain drain\libraries\lvgl\src\misc\lv_color.h ****     }
 317:c:\projects\paindrain\arduinolcd\test\pain drain\libraries\lvgl\src\misc\lv_color.h **** #elif LV_COLOR_DEPTH == 32
 318:c:\projects\paindrain\arduinolcd\test\pain drain\libraries\lvgl\src\misc\lv_color.h ****     if((LV_COLOR_GET_R(color) & 0x80) || (LV_COLOR_GET_G(color) & 0x80) || (LV_COLOR_GET_B(color) &
 319:c:\projects\paindrain\arduinolcd\test\pain drain\libraries\lvgl\src\misc\lv_color.h ****         return 1;
 320:c:\projects\paindrain\arduinolcd\test\pain drain\libraries\lvgl\src\misc\lv_color.h ****     }
 321:c:\projects\paindrain\arduinolcd\test\pain drain\libraries\lvgl\src\misc\lv_color.h ****     else {
 322:c:\projects\paindrain\arduinolcd\test\pain drain\libraries\lvgl\src\misc\lv_color.h ****         return 0;
 323:c:\projects\paindrain\arduinolcd\test\pain drain\libraries\lvgl\src\misc\lv_color.h ****     }
 324:c:\projects\paindrain\arduinolcd\test\pain drain\libraries\lvgl\src\misc\lv_color.h **** #endif
 325:c:\projects\paindrain\arduinolcd\test\pain drain\libraries\lvgl\src\misc\lv_color.h **** }
 326:c:\projects\paindrain\arduinolcd\test\pain drain\libraries\lvgl\src\misc\lv_color.h **** 
 327:c:\projects\paindrain\arduinolcd\test\pain drain\libraries\lvgl\src\misc\lv_color.h **** static inline uint8_t lv_color_to8(lv_color_t color)
 328:c:\projects\paindrain\arduinolcd\test\pain drain\libraries\lvgl\src\misc\lv_color.h **** {
 329:c:\projects\paindrain\arduinolcd\test\pain drain\libraries\lvgl\src\misc\lv_color.h **** #if LV_COLOR_DEPTH == 1
 330:c:\projects\paindrain\arduinolcd\test\pain drain\libraries\lvgl\src\misc\lv_color.h ****     if(color.full == 0)
 331:c:\projects\paindrain\arduinolcd\test\pain drain\libraries\lvgl\src\misc\lv_color.h ****         return 0;
 332:c:\projects\paindrain\arduinolcd\test\pain drain\libraries\lvgl\src\misc\lv_color.h ****     else
 333:c:\projects\paindrain\arduinolcd\test\pain drain\libraries\lvgl\src\misc\lv_color.h ****         return 0xFF;
 334:c:\projects\paindrain\arduinolcd\test\pain drain\libraries\lvgl\src\misc\lv_color.h **** #elif LV_COLOR_DEPTH == 8
 335:c:\projects\paindrain\arduinolcd\test\pain drain\libraries\lvgl\src\misc\lv_color.h ****     return color.full;
 336:c:\projects\paindrain\arduinolcd\test\pain drain\libraries\lvgl\src\misc\lv_color.h **** #elif LV_COLOR_DEPTH == 16
 337:c:\projects\paindrain\arduinolcd\test\pain drain\libraries\lvgl\src\misc\lv_color.h ****     lv_color8_t ret;
 338:c:\projects\paindrain\arduinolcd\test\pain drain\libraries\lvgl\src\misc\lv_color.h ****     LV_COLOR_SET_R8(ret, LV_COLOR_GET_R(color) >> 2); /*5 - 3  = 2*/
 339:c:\projects\paindrain\arduinolcd\test\pain drain\libraries\lvgl\src\misc\lv_color.h ****     LV_COLOR_SET_G8(ret, LV_COLOR_GET_G(color) >> 3); /*6 - 3  = 3*/
 340:c:\projects\paindrain\arduinolcd\test\pain drain\libraries\lvgl\src\misc\lv_color.h ****     LV_COLOR_SET_B8(ret, LV_COLOR_GET_B(color) >> 3); /*5 - 2  = 3*/
 341:c:\projects\paindrain\arduinolcd\test\pain drain\libraries\lvgl\src\misc\lv_color.h ****     return ret.full;
 342:c:\projects\paindrain\arduinolcd\test\pain drain\libraries\lvgl\src\misc\lv_color.h **** #elif LV_COLOR_DEPTH == 32
 343:c:\projects\paindrain\arduinolcd\test\pain drain\libraries\lvgl\src\misc\lv_color.h ****     lv_color8_t ret;
 344:c:\projects\paindrain\arduinolcd\test\pain drain\libraries\lvgl\src\misc\lv_color.h ****     LV_COLOR_SET_R8(ret, LV_COLOR_GET_R(color) >> 5); /*8 - 3  = 5*/
 345:c:\projects\paindrain\arduinolcd\test\pain drain\libraries\lvgl\src\misc\lv_color.h ****     LV_COLOR_SET_G8(ret, LV_COLOR_GET_G(color) >> 5); /*8 - 3  = 5*/
 346:c:\projects\paindrain\arduinolcd\test\pain drain\libraries\lvgl\src\misc\lv_color.h ****     LV_COLOR_SET_B8(ret, LV_COLOR_GET_B(color) >> 6); /*8 - 2  = 6*/
 347:c:\projects\paindrain\arduinolcd\test\pain drain\libraries\lvgl\src\misc\lv_color.h ****     return ret.full;
 348:c:\projects\paindrain\arduinolcd\test\pain drain\libraries\lvgl\src\misc\lv_color.h **** #endif
 349:c:\projects\paindrain\arduinolcd\test\pain drain\libraries\lvgl\src\misc\lv_color.h **** }
 350:c:\projects\paindrain\arduinolcd\test\pain drain\libraries\lvgl\src\misc\lv_color.h **** 
 351:c:\projects\paindrain\arduinolcd\test\pain drain\libraries\lvgl\src\misc\lv_color.h **** static inline uint16_t lv_color_to16(lv_color_t color)
 352:c:\projects\paindrain\arduinolcd\test\pain drain\libraries\lvgl\src\misc\lv_color.h **** {
 353:c:\projects\paindrain\arduinolcd\test\pain drain\libraries\lvgl\src\misc\lv_color.h **** #if LV_COLOR_DEPTH == 1
 354:c:\projects\paindrain\arduinolcd\test\pain drain\libraries\lvgl\src\misc\lv_color.h ****     if(color.full == 0)
 355:c:\projects\paindrain\arduinolcd\test\pain drain\libraries\lvgl\src\misc\lv_color.h ****         return 0;
 356:c:\projects\paindrain\arduinolcd\test\pain drain\libraries\lvgl\src\misc\lv_color.h ****     else
 357:c:\projects\paindrain\arduinolcd\test\pain drain\libraries\lvgl\src\misc\lv_color.h ****         return 0xFFFF;
 358:c:\projects\paindrain\arduinolcd\test\pain drain\libraries\lvgl\src\misc\lv_color.h **** #elif LV_COLOR_DEPTH == 8
 359:c:\projects\paindrain\arduinolcd\test\pain drain\libraries\lvgl\src\misc\lv_color.h ****     lv_color16_t ret;
 360:c:\projects\paindrain\arduinolcd\test\pain drain\libraries\lvgl\src\misc\lv_color.h ****     LV_COLOR_SET_R16(ret, LV_COLOR_GET_R(color) * 4);  /*(2^5 - 1)/(2^3 - 1) = 31/7 = 4*/
 361:c:\projects\paindrain\arduinolcd\test\pain drain\libraries\lvgl\src\misc\lv_color.h ****     LV_COLOR_SET_G16(ret, LV_COLOR_GET_G(color) * 9);  /*(2^6 - 1)/(2^3 - 1) = 63/7 = 9*/
 362:c:\projects\paindrain\arduinolcd\test\pain drain\libraries\lvgl\src\misc\lv_color.h ****     LV_COLOR_SET_B16(ret, LV_COLOR_GET_B(color) * 10); /*(2^5 - 1)/(2^2 - 1) = 31/3 = 10*/
 363:c:\projects\paindrain\arduinolcd\test\pain drain\libraries\lvgl\src\misc\lv_color.h ****     return ret.full;
 364:c:\projects\paindrain\arduinolcd\test\pain drain\libraries\lvgl\src\misc\lv_color.h **** #elif LV_COLOR_DEPTH == 16
 365:c:\projects\paindrain\arduinolcd\test\pain drain\libraries\lvgl\src\misc\lv_color.h ****     return color.full;
 366:c:\projects\paindrain\arduinolcd\test\pain drain\libraries\lvgl\src\misc\lv_color.h **** #elif LV_COLOR_DEPTH == 32
 367:c:\projects\paindrain\arduinolcd\test\pain drain\libraries\lvgl\src\misc\lv_color.h ****     lv_color16_t ret;
 368:c:\projects\paindrain\arduinolcd\test\pain drain\libraries\lvgl\src\misc\lv_color.h ****     LV_COLOR_SET_R16(ret, LV_COLOR_GET_R(color) >> 3); /*8 - 5  = 3*/
ARM GAS  C:\Users\haske\AppData\Local\Temp\ccN8jSR9.s 			page 21


 369:c:\projects\paindrain\arduinolcd\test\pain drain\libraries\lvgl\src\misc\lv_color.h ****     LV_COLOR_SET_G16(ret, LV_COLOR_GET_G(color) >> 2); /*8 - 6  = 2*/
 370:c:\projects\paindrain\arduinolcd\test\pain drain\libraries\lvgl\src\misc\lv_color.h ****     LV_COLOR_SET_B16(ret, LV_COLOR_GET_B(color) >> 3); /*8 - 5  = 3*/
 371:c:\projects\paindrain\arduinolcd\test\pain drain\libraries\lvgl\src\misc\lv_color.h ****     return ret.full;
 372:c:\projects\paindrain\arduinolcd\test\pain drain\libraries\lvgl\src\misc\lv_color.h **** #endif
 373:c:\projects\paindrain\arduinolcd\test\pain drain\libraries\lvgl\src\misc\lv_color.h **** }
 374:c:\projects\paindrain\arduinolcd\test\pain drain\libraries\lvgl\src\misc\lv_color.h **** 
 375:c:\projects\paindrain\arduinolcd\test\pain drain\libraries\lvgl\src\misc\lv_color.h **** static inline uint32_t lv_color_to32(lv_color_t color)
 376:c:\projects\paindrain\arduinolcd\test\pain drain\libraries\lvgl\src\misc\lv_color.h **** {
 377:c:\projects\paindrain\arduinolcd\test\pain drain\libraries\lvgl\src\misc\lv_color.h **** #if LV_COLOR_DEPTH == 1
 378:c:\projects\paindrain\arduinolcd\test\pain drain\libraries\lvgl\src\misc\lv_color.h ****     if(color.full == 0)
 379:c:\projects\paindrain\arduinolcd\test\pain drain\libraries\lvgl\src\misc\lv_color.h ****         return 0xFF000000;
 380:c:\projects\paindrain\arduinolcd\test\pain drain\libraries\lvgl\src\misc\lv_color.h ****     else
 381:c:\projects\paindrain\arduinolcd\test\pain drain\libraries\lvgl\src\misc\lv_color.h ****         return 0xFFFFFFFF;
 382:c:\projects\paindrain\arduinolcd\test\pain drain\libraries\lvgl\src\misc\lv_color.h **** #elif LV_COLOR_DEPTH == 8
 383:c:\projects\paindrain\arduinolcd\test\pain drain\libraries\lvgl\src\misc\lv_color.h ****     lv_color32_t ret;
 384:c:\projects\paindrain\arduinolcd\test\pain drain\libraries\lvgl\src\misc\lv_color.h ****     LV_COLOR_SET_R32(ret, LV_COLOR_GET_R(color) * 36); /*(2^8 - 1)/(2^3 - 1) = 255/7 = 36*/
 385:c:\projects\paindrain\arduinolcd\test\pain drain\libraries\lvgl\src\misc\lv_color.h ****     LV_COLOR_SET_G32(ret, LV_COLOR_GET_G(color) * 36); /*(2^8 - 1)/(2^3 - 1) = 255/7 = 36*/
 386:c:\projects\paindrain\arduinolcd\test\pain drain\libraries\lvgl\src\misc\lv_color.h ****     LV_COLOR_SET_B32(ret, LV_COLOR_GET_B(color) * 85); /*(2^8 - 1)/(2^2 - 1) = 255/3 = 85*/
 387:c:\projects\paindrain\arduinolcd\test\pain drain\libraries\lvgl\src\misc\lv_color.h ****     LV_COLOR_SET_A32(ret, 0xFF);
 388:c:\projects\paindrain\arduinolcd\test\pain drain\libraries\lvgl\src\misc\lv_color.h ****     return ret.full;
 389:c:\projects\paindrain\arduinolcd\test\pain drain\libraries\lvgl\src\misc\lv_color.h **** #elif LV_COLOR_DEPTH == 16
 390:c:\projects\paindrain\arduinolcd\test\pain drain\libraries\lvgl\src\misc\lv_color.h ****     /**
 391:c:\projects\paindrain\arduinolcd\test\pain drain\libraries\lvgl\src\misc\lv_color.h ****      * The floating point math for conversion is:
 392:c:\projects\paindrain\arduinolcd\test\pain drain\libraries\lvgl\src\misc\lv_color.h ****      *  valueto = valuefrom * ( (2^bitsto - 1) / (float)(2^bitsfrom - 1) )
 393:c:\projects\paindrain\arduinolcd\test\pain drain\libraries\lvgl\src\misc\lv_color.h ****      * The faster integer math for conversion is:
 394:c:\projects\paindrain\arduinolcd\test\pain drain\libraries\lvgl\src\misc\lv_color.h ****      *  valueto = ( valuefrom * multiplier + adder ) >> divisor
 395:c:\projects\paindrain\arduinolcd\test\pain drain\libraries\lvgl\src\misc\lv_color.h ****      *   multiplier = FLOOR( ( (2^bitsto - 1) << divisor ) / (float)(2^bitsfrom - 1) )
 396:c:\projects\paindrain\arduinolcd\test\pain drain\libraries\lvgl\src\misc\lv_color.h ****      *
 397:c:\projects\paindrain\arduinolcd\test\pain drain\libraries\lvgl\src\misc\lv_color.h ****      * Find the first divisor where ( adder >> divisor ) <= 0
 398:c:\projects\paindrain\arduinolcd\test\pain drain\libraries\lvgl\src\misc\lv_color.h ****      *
 399:c:\projects\paindrain\arduinolcd\test\pain drain\libraries\lvgl\src\misc\lv_color.h ****      * 5-bit to 8-bit: ( 31 * multiplier + adder ) >> divisor = 255
 400:c:\projects\paindrain\arduinolcd\test\pain drain\libraries\lvgl\src\misc\lv_color.h ****      * divisor  multiplier  adder  min (0)  max (31)
 401:c:\projects\paindrain\arduinolcd\test\pain drain\libraries\lvgl\src\misc\lv_color.h ****      *       0           8      7        7       255
 402:c:\projects\paindrain\arduinolcd\test\pain drain\libraries\lvgl\src\misc\lv_color.h ****      *       1          16     14        7       255
 403:c:\projects\paindrain\arduinolcd\test\pain drain\libraries\lvgl\src\misc\lv_color.h ****      *       2          32     28        7       255
 404:c:\projects\paindrain\arduinolcd\test\pain drain\libraries\lvgl\src\misc\lv_color.h ****      *       3          65     25        3       255
 405:c:\projects\paindrain\arduinolcd\test\pain drain\libraries\lvgl\src\misc\lv_color.h ****      *       4         131     19        1       255
 406:c:\projects\paindrain\arduinolcd\test\pain drain\libraries\lvgl\src\misc\lv_color.h ****      *       5         263      7        0       255
 407:c:\projects\paindrain\arduinolcd\test\pain drain\libraries\lvgl\src\misc\lv_color.h ****      *
 408:c:\projects\paindrain\arduinolcd\test\pain drain\libraries\lvgl\src\misc\lv_color.h ****      * 6-bit to 8-bit: 255 = ( 63 * multiplier + adder ) >> divisor
 409:c:\projects\paindrain\arduinolcd\test\pain drain\libraries\lvgl\src\misc\lv_color.h ****      * divisor  multiplier  adder  min (0)  max (63)
 410:c:\projects\paindrain\arduinolcd\test\pain drain\libraries\lvgl\src\misc\lv_color.h ****      *       0           4      3        3       255
 411:c:\projects\paindrain\arduinolcd\test\pain drain\libraries\lvgl\src\misc\lv_color.h ****      *       1           8      6        3       255
 412:c:\projects\paindrain\arduinolcd\test\pain drain\libraries\lvgl\src\misc\lv_color.h ****      *       2          16     12        3       255
 413:c:\projects\paindrain\arduinolcd\test\pain drain\libraries\lvgl\src\misc\lv_color.h ****      *       3          32     24        3       255
 414:c:\projects\paindrain\arduinolcd\test\pain drain\libraries\lvgl\src\misc\lv_color.h ****      *       4          64     48        3       255
 415:c:\projects\paindrain\arduinolcd\test\pain drain\libraries\lvgl\src\misc\lv_color.h ****      *       5         129     33        1       255
 416:c:\projects\paindrain\arduinolcd\test\pain drain\libraries\lvgl\src\misc\lv_color.h ****      *       6         259      3        0       255
 417:c:\projects\paindrain\arduinolcd\test\pain drain\libraries\lvgl\src\misc\lv_color.h ****      */
 418:c:\projects\paindrain\arduinolcd\test\pain drain\libraries\lvgl\src\misc\lv_color.h **** 
 419:c:\projects\paindrain\arduinolcd\test\pain drain\libraries\lvgl\src\misc\lv_color.h ****     lv_color32_t ret;
 420:c:\projects\paindrain\arduinolcd\test\pain drain\libraries\lvgl\src\misc\lv_color.h ****     LV_COLOR_SET_R32(ret, (LV_COLOR_GET_R(color) * 263 + 7) >> 5);
 421:c:\projects\paindrain\arduinolcd\test\pain drain\libraries\lvgl\src\misc\lv_color.h ****     LV_COLOR_SET_G32(ret, (LV_COLOR_GET_G(color) * 259 + 3) >> 6);
 422:c:\projects\paindrain\arduinolcd\test\pain drain\libraries\lvgl\src\misc\lv_color.h ****     LV_COLOR_SET_B32(ret, (LV_COLOR_GET_B(color) * 263 + 7) >> 5);
 423:c:\projects\paindrain\arduinolcd\test\pain drain\libraries\lvgl\src\misc\lv_color.h ****     LV_COLOR_SET_A32(ret, 0xFF);
 424:c:\projects\paindrain\arduinolcd\test\pain drain\libraries\lvgl\src\misc\lv_color.h ****     return ret.full;
 425:c:\projects\paindrain\arduinolcd\test\pain drain\libraries\lvgl\src\misc\lv_color.h **** #elif LV_COLOR_DEPTH == 32
ARM GAS  C:\Users\haske\AppData\Local\Temp\ccN8jSR9.s 			page 22


 426:c:\projects\paindrain\arduinolcd\test\pain drain\libraries\lvgl\src\misc\lv_color.h ****     return color.full;
 427:c:\projects\paindrain\arduinolcd\test\pain drain\libraries\lvgl\src\misc\lv_color.h **** #endif
 428:c:\projects\paindrain\arduinolcd\test\pain drain\libraries\lvgl\src\misc\lv_color.h **** }
 429:c:\projects\paindrain\arduinolcd\test\pain drain\libraries\lvgl\src\misc\lv_color.h **** 
 430:c:\projects\paindrain\arduinolcd\test\pain drain\libraries\lvgl\src\misc\lv_color.h **** //! @cond Doxygen_Suppress
 431:c:\projects\paindrain\arduinolcd\test\pain drain\libraries\lvgl\src\misc\lv_color.h **** 
 432:c:\projects\paindrain\arduinolcd\test\pain drain\libraries\lvgl\src\misc\lv_color.h **** /**
 433:c:\projects\paindrain\arduinolcd\test\pain drain\libraries\lvgl\src\misc\lv_color.h ****  * Mix two colors with a given ratio.
 434:c:\projects\paindrain\arduinolcd\test\pain drain\libraries\lvgl\src\misc\lv_color.h ****  * @param c1 the first color to mix (usually the foreground)
 435:c:\projects\paindrain\arduinolcd\test\pain drain\libraries\lvgl\src\misc\lv_color.h ****  * @param c2 the second color to mix (usually the background)
 436:c:\projects\paindrain\arduinolcd\test\pain drain\libraries\lvgl\src\misc\lv_color.h ****  * @param mix The ratio of the colors. 0: full `c2`, 255: full `c1`, 127: half `c1` and half`c2`
 437:c:\projects\paindrain\arduinolcd\test\pain drain\libraries\lvgl\src\misc\lv_color.h ****  * @return the mixed color
 438:c:\projects\paindrain\arduinolcd\test\pain drain\libraries\lvgl\src\misc\lv_color.h ****  */
 439:c:\projects\paindrain\arduinolcd\test\pain drain\libraries\lvgl\src\misc\lv_color.h **** LV_ATTRIBUTE_FAST_MEM static inline lv_color_t lv_color_mix(lv_color_t c1, lv_color_t c2, uint8_t m
 440:c:\projects\paindrain\arduinolcd\test\pain drain\libraries\lvgl\src\misc\lv_color.h **** {
 441:c:\projects\paindrain\arduinolcd\test\pain drain\libraries\lvgl\src\misc\lv_color.h ****     lv_color_t ret;
 442:c:\projects\paindrain\arduinolcd\test\pain drain\libraries\lvgl\src\misc\lv_color.h **** 
 443:c:\projects\paindrain\arduinolcd\test\pain drain\libraries\lvgl\src\misc\lv_color.h **** #if LV_COLOR_DEPTH == 16 && LV_COLOR_16_SWAP == 0 && LV_COLOR_MIX_ROUND_OFS == 0
 444:c:\projects\paindrain\arduinolcd\test\pain drain\libraries\lvgl\src\misc\lv_color.h ****     /*Source: https://stackoverflow.com/a/50012418/1999969*/
 445:c:\projects\paindrain\arduinolcd\test\pain drain\libraries\lvgl\src\misc\lv_color.h ****     mix = (uint32_t)((uint32_t)mix + 4) >> 3;
 446:c:\projects\paindrain\arduinolcd\test\pain drain\libraries\lvgl\src\misc\lv_color.h ****     uint32_t bg = (uint32_t)((uint32_t)c2.full | ((uint32_t)c2.full << 16)) &
 447:c:\projects\paindrain\arduinolcd\test\pain drain\libraries\lvgl\src\misc\lv_color.h ****                   0x7E0F81F; /*0b00000111111000001111100000011111*/
 448:c:\projects\paindrain\arduinolcd\test\pain drain\libraries\lvgl\src\misc\lv_color.h ****     uint32_t fg = (uint32_t)((uint32_t)c1.full | ((uint32_t)c1.full << 16)) & 0x7E0F81F;
 449:c:\projects\paindrain\arduinolcd\test\pain drain\libraries\lvgl\src\misc\lv_color.h ****     uint32_t result = ((((fg - bg) * mix) >> 5) + bg) & 0x7E0F81F;
 450:c:\projects\paindrain\arduinolcd\test\pain drain\libraries\lvgl\src\misc\lv_color.h ****     ret.full = (uint16_t)((result >> 16) | result);
 451:c:\projects\paindrain\arduinolcd\test\pain drain\libraries\lvgl\src\misc\lv_color.h **** #elif LV_COLOR_DEPTH != 1
 452:c:\projects\paindrain\arduinolcd\test\pain drain\libraries\lvgl\src\misc\lv_color.h ****     /*LV_COLOR_DEPTH == 8, 16 or 32*/
 453:c:\projects\paindrain\arduinolcd\test\pain drain\libraries\lvgl\src\misc\lv_color.h ****     LV_COLOR_SET_R(ret, LV_UDIV255((uint16_t)LV_COLOR_GET_R(c1) * mix + LV_COLOR_GET_R(c2) *
 454:c:\projects\paindrain\arduinolcd\test\pain drain\libraries\lvgl\src\misc\lv_color.h ****                                    (255 - mix) + LV_COLOR_MIX_ROUND_OFS));
 455:c:\projects\paindrain\arduinolcd\test\pain drain\libraries\lvgl\src\misc\lv_color.h ****     LV_COLOR_SET_G(ret, LV_UDIV255((uint16_t)LV_COLOR_GET_G(c1) * mix + LV_COLOR_GET_G(c2) *
 456:c:\projects\paindrain\arduinolcd\test\pain drain\libraries\lvgl\src\misc\lv_color.h ****                                    (255 - mix) + LV_COLOR_MIX_ROUND_OFS));
 457:c:\projects\paindrain\arduinolcd\test\pain drain\libraries\lvgl\src\misc\lv_color.h ****     LV_COLOR_SET_B(ret, LV_UDIV255((uint16_t)LV_COLOR_GET_B(c1) * mix + LV_COLOR_GET_B(c2) *
 458:c:\projects\paindrain\arduinolcd\test\pain drain\libraries\lvgl\src\misc\lv_color.h ****                                    (255 - mix) + LV_COLOR_MIX_ROUND_OFS));
 459:c:\projects\paindrain\arduinolcd\test\pain drain\libraries\lvgl\src\misc\lv_color.h ****     LV_COLOR_SET_A(ret, 0xFF);
 460:c:\projects\paindrain\arduinolcd\test\pain drain\libraries\lvgl\src\misc\lv_color.h **** #else
 461:c:\projects\paindrain\arduinolcd\test\pain drain\libraries\lvgl\src\misc\lv_color.h ****     /*LV_COLOR_DEPTH == 1*/
 462:c:\projects\paindrain\arduinolcd\test\pain drain\libraries\lvgl\src\misc\lv_color.h ****     ret.full = mix > LV_OPA_50 ? c1.full : c2.full;
 463:c:\projects\paindrain\arduinolcd\test\pain drain\libraries\lvgl\src\misc\lv_color.h **** #endif
 464:c:\projects\paindrain\arduinolcd\test\pain drain\libraries\lvgl\src\misc\lv_color.h **** 
 465:c:\projects\paindrain\arduinolcd\test\pain drain\libraries\lvgl\src\misc\lv_color.h ****     return ret;
 466:c:\projects\paindrain\arduinolcd\test\pain drain\libraries\lvgl\src\misc\lv_color.h **** }
 467:c:\projects\paindrain\arduinolcd\test\pain drain\libraries\lvgl\src\misc\lv_color.h **** 
 468:c:\projects\paindrain\arduinolcd\test\pain drain\libraries\lvgl\src\misc\lv_color.h **** LV_ATTRIBUTE_FAST_MEM static inline void lv_color_premult(lv_color_t c, uint8_t mix, uint16_t * out
 469:c:\projects\paindrain\arduinolcd\test\pain drain\libraries\lvgl\src\misc\lv_color.h **** {
 470:c:\projects\paindrain\arduinolcd\test\pain drain\libraries\lvgl\src\misc\lv_color.h **** #if LV_COLOR_DEPTH != 1
 471:c:\projects\paindrain\arduinolcd\test\pain drain\libraries\lvgl\src\misc\lv_color.h ****     out[0] = (uint16_t)LV_COLOR_GET_R(c) * mix;
 472:c:\projects\paindrain\arduinolcd\test\pain drain\libraries\lvgl\src\misc\lv_color.h ****     out[1] = (uint16_t)LV_COLOR_GET_G(c) * mix;
 473:c:\projects\paindrain\arduinolcd\test\pain drain\libraries\lvgl\src\misc\lv_color.h ****     out[2] = (uint16_t)LV_COLOR_GET_B(c) * mix;
 474:c:\projects\paindrain\arduinolcd\test\pain drain\libraries\lvgl\src\misc\lv_color.h **** #else
 475:c:\projects\paindrain\arduinolcd\test\pain drain\libraries\lvgl\src\misc\lv_color.h ****     (void) mix;
 476:c:\projects\paindrain\arduinolcd\test\pain drain\libraries\lvgl\src\misc\lv_color.h ****     /*Pre-multiplication can't be used with 1 bpp*/
 477:c:\projects\paindrain\arduinolcd\test\pain drain\libraries\lvgl\src\misc\lv_color.h ****     out[0] = LV_COLOR_GET_R(c);
 478:c:\projects\paindrain\arduinolcd\test\pain drain\libraries\lvgl\src\misc\lv_color.h ****     out[1] = LV_COLOR_GET_G(c);
 479:c:\projects\paindrain\arduinolcd\test\pain drain\libraries\lvgl\src\misc\lv_color.h ****     out[2] = LV_COLOR_GET_B(c);
 480:c:\projects\paindrain\arduinolcd\test\pain drain\libraries\lvgl\src\misc\lv_color.h **** #endif
 481:c:\projects\paindrain\arduinolcd\test\pain drain\libraries\lvgl\src\misc\lv_color.h **** 
 482:c:\projects\paindrain\arduinolcd\test\pain drain\libraries\lvgl\src\misc\lv_color.h **** }
ARM GAS  C:\Users\haske\AppData\Local\Temp\ccN8jSR9.s 			page 23


 483:c:\projects\paindrain\arduinolcd\test\pain drain\libraries\lvgl\src\misc\lv_color.h **** 
 484:c:\projects\paindrain\arduinolcd\test\pain drain\libraries\lvgl\src\misc\lv_color.h **** /**
 485:c:\projects\paindrain\arduinolcd\test\pain drain\libraries\lvgl\src\misc\lv_color.h ****  * Mix two colors with a given ratio. It runs faster then `lv_color_mix` but requires some pre comp
 486:c:\projects\paindrain\arduinolcd\test\pain drain\libraries\lvgl\src\misc\lv_color.h ****  * @param premult_c1 The first color. Should be preprocessed with `lv_color_premult(c1)`
 487:c:\projects\paindrain\arduinolcd\test\pain drain\libraries\lvgl\src\misc\lv_color.h ****  * @param c2 The second color. As it is no pre computation required on it
 488:c:\projects\paindrain\arduinolcd\test\pain drain\libraries\lvgl\src\misc\lv_color.h ****  * @param mix The ratio of the colors. 0: full `c1`, 255: full `c2`, 127: half `c1` and half `c2`.
 489:c:\projects\paindrain\arduinolcd\test\pain drain\libraries\lvgl\src\misc\lv_color.h ****  *            Should be modified like mix = `255 - mix`
 490:c:\projects\paindrain\arduinolcd\test\pain drain\libraries\lvgl\src\misc\lv_color.h ****  * @return the mixed color
 491:c:\projects\paindrain\arduinolcd\test\pain drain\libraries\lvgl\src\misc\lv_color.h ****  * @note 255 won't give clearly `c1`.
 492:c:\projects\paindrain\arduinolcd\test\pain drain\libraries\lvgl\src\misc\lv_color.h ****  */
 493:c:\projects\paindrain\arduinolcd\test\pain drain\libraries\lvgl\src\misc\lv_color.h **** LV_ATTRIBUTE_FAST_MEM static inline lv_color_t lv_color_mix_premult(uint16_t * premult_c1, lv_color
 494:c:\projects\paindrain\arduinolcd\test\pain drain\libraries\lvgl\src\misc\lv_color.h **** {
 495:c:\projects\paindrain\arduinolcd\test\pain drain\libraries\lvgl\src\misc\lv_color.h ****     lv_color_t ret;
 496:c:\projects\paindrain\arduinolcd\test\pain drain\libraries\lvgl\src\misc\lv_color.h **** #if LV_COLOR_DEPTH != 1
 497:c:\projects\paindrain\arduinolcd\test\pain drain\libraries\lvgl\src\misc\lv_color.h ****     /*LV_COLOR_DEPTH == 8 or 32*/
 498:c:\projects\paindrain\arduinolcd\test\pain drain\libraries\lvgl\src\misc\lv_color.h ****     LV_COLOR_SET_R(ret, LV_UDIV255(premult_c1[0] + LV_COLOR_GET_R(c2) * mix + LV_COLOR_MIX_ROUND_OF
 499:c:\projects\paindrain\arduinolcd\test\pain drain\libraries\lvgl\src\misc\lv_color.h ****     LV_COLOR_SET_G(ret, LV_UDIV255(premult_c1[1] + LV_COLOR_GET_G(c2) * mix + LV_COLOR_MIX_ROUND_OF
 500:c:\projects\paindrain\arduinolcd\test\pain drain\libraries\lvgl\src\misc\lv_color.h ****     LV_COLOR_SET_B(ret, LV_UDIV255(premult_c1[2] + LV_COLOR_GET_B(c2) * mix + LV_COLOR_MIX_ROUND_OF
 501:c:\projects\paindrain\arduinolcd\test\pain drain\libraries\lvgl\src\misc\lv_color.h ****     LV_COLOR_SET_A(ret, 0xFF);
 502:c:\projects\paindrain\arduinolcd\test\pain drain\libraries\lvgl\src\misc\lv_color.h **** #else
 503:c:\projects\paindrain\arduinolcd\test\pain drain\libraries\lvgl\src\misc\lv_color.h ****     /*LV_COLOR_DEPTH == 1*/
 504:c:\projects\paindrain\arduinolcd\test\pain drain\libraries\lvgl\src\misc\lv_color.h ****     /*Restore color1*/
 505:c:\projects\paindrain\arduinolcd\test\pain drain\libraries\lvgl\src\misc\lv_color.h ****     lv_color_t c1;
 506:c:\projects\paindrain\arduinolcd\test\pain drain\libraries\lvgl\src\misc\lv_color.h ****     LV_COLOR_SET_R(c1, premult_c1[0]);
 507:c:\projects\paindrain\arduinolcd\test\pain drain\libraries\lvgl\src\misc\lv_color.h ****     LV_COLOR_SET_G(c1, premult_c1[1]);
 508:c:\projects\paindrain\arduinolcd\test\pain drain\libraries\lvgl\src\misc\lv_color.h ****     LV_COLOR_SET_B(c1, premult_c1[2]);
 509:c:\projects\paindrain\arduinolcd\test\pain drain\libraries\lvgl\src\misc\lv_color.h ****     ret.full = mix > LV_OPA_50 ? c2.full : c1.full;
 510:c:\projects\paindrain\arduinolcd\test\pain drain\libraries\lvgl\src\misc\lv_color.h **** #endif
 511:c:\projects\paindrain\arduinolcd\test\pain drain\libraries\lvgl\src\misc\lv_color.h **** 
 512:c:\projects\paindrain\arduinolcd\test\pain drain\libraries\lvgl\src\misc\lv_color.h ****     return ret;
 513:c:\projects\paindrain\arduinolcd\test\pain drain\libraries\lvgl\src\misc\lv_color.h **** }
 514:c:\projects\paindrain\arduinolcd\test\pain drain\libraries\lvgl\src\misc\lv_color.h **** 
 515:c:\projects\paindrain\arduinolcd\test\pain drain\libraries\lvgl\src\misc\lv_color.h **** /**
 516:c:\projects\paindrain\arduinolcd\test\pain drain\libraries\lvgl\src\misc\lv_color.h ****  * Mix two colors. Both color can have alpha value.
 517:c:\projects\paindrain\arduinolcd\test\pain drain\libraries\lvgl\src\misc\lv_color.h ****  * @param bg_color background color
 518:c:\projects\paindrain\arduinolcd\test\pain drain\libraries\lvgl\src\misc\lv_color.h ****  * @param bg_opa alpha of the background color
 519:c:\projects\paindrain\arduinolcd\test\pain drain\libraries\lvgl\src\misc\lv_color.h ****  * @param fg_color foreground color
 520:c:\projects\paindrain\arduinolcd\test\pain drain\libraries\lvgl\src\misc\lv_color.h ****  * @param fg_opa alpha of the foreground color
 521:c:\projects\paindrain\arduinolcd\test\pain drain\libraries\lvgl\src\misc\lv_color.h ****  * @param res_color the result color
 522:c:\projects\paindrain\arduinolcd\test\pain drain\libraries\lvgl\src\misc\lv_color.h ****  * @param res_opa the result opacity
 523:c:\projects\paindrain\arduinolcd\test\pain drain\libraries\lvgl\src\misc\lv_color.h ****  */
 524:c:\projects\paindrain\arduinolcd\test\pain drain\libraries\lvgl\src\misc\lv_color.h **** LV_ATTRIBUTE_FAST_MEM static inline void lv_color_mix_with_alpha(lv_color_t bg_color, lv_opa_t bg_o
 525:c:\projects\paindrain\arduinolcd\test\pain drain\libraries\lvgl\src\misc\lv_color.h ****                                                                  lv_color_t fg_color, lv_opa_t fg_o
 526:c:\projects\paindrain\arduinolcd\test\pain drain\libraries\lvgl\src\misc\lv_color.h ****                                                                  lv_color_t * res_color, lv_opa_t *
 527:c:\projects\paindrain\arduinolcd\test\pain drain\libraries\lvgl\src\misc\lv_color.h **** {
 528:c:\projects\paindrain\arduinolcd\test\pain drain\libraries\lvgl\src\misc\lv_color.h ****     /*Pick the foreground if it's fully opaque or the Background is fully transparent*/
 529:c:\projects\paindrain\arduinolcd\test\pain drain\libraries\lvgl\src\misc\lv_color.h ****     if(fg_opa >= LV_OPA_MAX || bg_opa <= LV_OPA_MIN) {
  74              		.loc 2 529 0
  75 0024 FC28     		cmp	r0, #252
  76 0026 01D8     		bhi	.L2
  77 0028 022F     		cmp	r7, #2
  78 002a 02D8     		bhi	.L3
  79              	.L2:
  80              	.LVL11:
 530:c:\projects\paindrain\arduinolcd\test\pain drain\libraries\lvgl\src\misc\lv_color.h ****         res_color->full = fg_color.full;
  81              		.loc 2 530 0
  82 002c 331C     		adds	r3, r6, #0
ARM GAS  C:\Users\haske\AppData\Local\Temp\ccN8jSR9.s 			page 24


  83              	.LVL12:
 531:c:\projects\paindrain\arduinolcd\test\pain drain\libraries\lvgl\src\misc\lv_color.h ****         *res_opa = fg_opa;
  84              		.loc 2 531 0
  85 002e A870     		strb	r0, [r5, #2]
  86 0030 64E0     		b	.L4
  87              	.LVL13:
  88              	.L3:
 532:c:\projects\paindrain\arduinolcd\test\pain drain\libraries\lvgl\src\misc\lv_color.h ****     }
 533:c:\projects\paindrain\arduinolcd\test\pain drain\libraries\lvgl\src\misc\lv_color.h ****     /*Transparent foreground: use the Background*/
 534:c:\projects\paindrain\arduinolcd\test\pain drain\libraries\lvgl\src\misc\lv_color.h ****     else if(fg_opa <= LV_OPA_MIN) {
  89              		.loc 2 534 0
  90 0032 0228     		cmp	r0, #2
  91 0034 01D8     		bhi	.L5
 535:c:\projects\paindrain\arduinolcd\test\pain drain\libraries\lvgl\src\misc\lv_color.h ****         res_color->full = bg_color.full;
 536:c:\projects\paindrain\arduinolcd\test\pain drain\libraries\lvgl\src\misc\lv_color.h ****         *res_opa = bg_opa;
  92              		.loc 2 536 0
  93 0036 AF70     		strb	r7, [r5, #2]
  94 0038 60E0     		b	.L4
  95              	.L5:
 537:c:\projects\paindrain\arduinolcd\test\pain drain\libraries\lvgl\src\misc\lv_color.h ****     }
 538:c:\projects\paindrain\arduinolcd\test\pain drain\libraries\lvgl\src\misc\lv_color.h ****     /*Opaque background: use simple mix*/
 539:c:\projects\paindrain\arduinolcd\test\pain drain\libraries\lvgl\src\misc\lv_color.h ****     else if(bg_opa >= LV_OPA_MAX) {
  96              		.loc 2 539 0
  97 003a FC2F     		cmp	r7, #252
  98 003c 17D9     		bls	.L6
  99              	.LVL14:
 100              	.LBB33:
 101              	.LBB34:
 445:c:\projects\paindrain\arduinolcd\test\pain drain\libraries\lvgl\src\misc\lv_color.h ****     uint32_t bg = (uint32_t)((uint32_t)c2.full | ((uint32_t)c2.full << 16)) &
 102              		.loc 2 445 0
 103 003e 0430     		adds	r0, r0, #4
 104              	.LVL15:
 105 0040 C008     		lsrs	r0, r0, #3
 106              	.LVL16:
 446:c:\projects\paindrain\arduinolcd\test\pain drain\libraries\lvgl\src\misc\lv_color.h ****                   0x7E0F81F; /*0b00000111111000001111100000011111*/
 107              		.loc 2 446 0
 108 0042 9BB2     		uxth	r3, r3
 109 0044 1A04     		lsls	r2, r3, #16
 110 0046 1343     		orrs	r3, r2
 111 0048 1C00     		movs	r4, r3
 112 004a 304A     		ldr	r2, .L13
 113 004c 1440     		ands	r4, r2
 114              	.LVL17:
 448:c:\projects\paindrain\arduinolcd\test\pain drain\libraries\lvgl\src\misc\lv_color.h ****     uint32_t result = ((((fg - bg) * mix) >> 5) + bg) & 0x7E0F81F;
 115              		.loc 2 448 0
 116 004e B6B2     		uxth	r6, r6
 117              	.LVL18:
 118 0050 3104     		lsls	r1, r6, #16
 119              	.LVL19:
 120 0052 3143     		orrs	r1, r6
 121 0054 1140     		ands	r1, r2
 122              	.LVL20:
 449:c:\projects\paindrain\arduinolcd\test\pain drain\libraries\lvgl\src\misc\lv_color.h ****     ret.full = (uint16_t)((result >> 16) | result);
 123              		.loc 2 449 0
 124 0056 091B     		subs	r1, r1, r4
 125              	.LVL21:
 126 0058 FF26     		movs	r6, #255
ARM GAS  C:\Users\haske\AppData\Local\Temp\ccN8jSR9.s 			page 25


 127              	.LVL22:
 128 005a 0300     		movs	r3, r0
 129 005c 3340     		ands	r3, r6
 130 005e 4B43     		muls	r3, r1
 131 0060 5B09     		lsrs	r3, r3, #5
 132 0062 E318     		adds	r3, r4, r3
 133 0064 1A40     		ands	r2, r3
 134              	.LVL23:
 450:c:\projects\paindrain\arduinolcd\test\pain drain\libraries\lvgl\src\misc\lv_color.h **** #elif LV_COLOR_DEPTH != 1
 135              		.loc 2 450 0
 136 0066 130C     		lsrs	r3, r2, #16
 137              	.LVL24:
 138              	.LBE34:
 139              	.LBE33:
 540:c:\projects\paindrain\arduinolcd\test\pain drain\libraries\lvgl\src\misc\lv_color.h ****         *res_color = lv_color_mix(fg_color, bg_color, fg_opa);
 140              		.loc 2 540 0
 141 0068 1343     		orrs	r3, r2
 541:c:\projects\paindrain\arduinolcd\test\pain drain\libraries\lvgl\src\misc\lv_color.h ****         *res_opa = LV_OPA_COVER;
 142              		.loc 2 541 0
 143 006a AE70     		strb	r6, [r5, #2]
 144 006c 46E0     		b	.L4
 145              	.LVL25:
 146              	.L6:
 147              	.LBB35:
 542:c:\projects\paindrain\arduinolcd\test\pain drain\libraries\lvgl\src\misc\lv_color.h ****     }
 543:c:\projects\paindrain\arduinolcd\test\pain drain\libraries\lvgl\src\misc\lv_color.h ****     /*Both colors have alpha. Expensive calculation need to be applied*/
 544:c:\projects\paindrain\arduinolcd\test\pain drain\libraries\lvgl\src\misc\lv_color.h ****     else {
 545:c:\projects\paindrain\arduinolcd\test\pain drain\libraries\lvgl\src\misc\lv_color.h ****         /*Save the parameters and the result. If they will be asked again don't compute again*/
 546:c:\projects\paindrain\arduinolcd\test\pain drain\libraries\lvgl\src\misc\lv_color.h ****         static lv_opa_t fg_opa_save     = 0;
 547:c:\projects\paindrain\arduinolcd\test\pain drain\libraries\lvgl\src\misc\lv_color.h ****         static lv_opa_t bg_opa_save     = 0;
 548:c:\projects\paindrain\arduinolcd\test\pain drain\libraries\lvgl\src\misc\lv_color.h ****         static lv_color_t fg_color_save = _LV_COLOR_ZERO_INITIALIZER;
 549:c:\projects\paindrain\arduinolcd\test\pain drain\libraries\lvgl\src\misc\lv_color.h ****         static lv_color_t bg_color_save = _LV_COLOR_ZERO_INITIALIZER;
 550:c:\projects\paindrain\arduinolcd\test\pain drain\libraries\lvgl\src\misc\lv_color.h ****         static lv_color_t res_color_saved = _LV_COLOR_ZERO_INITIALIZER;
 551:c:\projects\paindrain\arduinolcd\test\pain drain\libraries\lvgl\src\misc\lv_color.h ****         static lv_opa_t res_opa_saved = 0;
 552:c:\projects\paindrain\arduinolcd\test\pain drain\libraries\lvgl\src\misc\lv_color.h **** 
 553:c:\projects\paindrain\arduinolcd\test\pain drain\libraries\lvgl\src\misc\lv_color.h ****         if(fg_opa != fg_opa_save || bg_opa != bg_opa_save || fg_color.full != fg_color_save.full ||
 148              		.loc 2 553 0
 149 006e 284A     		ldr	r2, .L13+4
 150 0070 1278     		ldrb	r2, [r2]
 151 0072 9042     		cmp	r0, r2
 152 0074 0DD1     		bne	.L7
 153 0076 264A     		ldr	r2, .L13+4
 154 0078 5278     		ldrb	r2, [r2, #1]
 155 007a 9742     		cmp	r7, r2
 156 007c 09D1     		bne	.L7
 157              	.LVL26:
 158 007e B2B2     		uxth	r2, r6
 159 0080 2349     		ldr	r1, .L13+4
 160              	.LVL27:
 161 0082 8988     		ldrh	r1, [r1, #4]
 162 0084 8A42     		cmp	r2, r1
 163 0086 04D1     		bne	.L7
 554:c:\projects\paindrain\arduinolcd\test\pain drain\libraries\lvgl\src\misc\lv_color.h ****            bg_color.full != bg_color_save.full) {
 164              		.loc 2 554 0
 165 0088 9AB2     		uxth	r2, r3
 166 008a 2149     		ldr	r1, .L13+4
 167 008c 0989     		ldrh	r1, [r1, #8]
ARM GAS  C:\Users\haske\AppData\Local\Temp\ccN8jSR9.s 			page 26


 553:c:\projects\paindrain\arduinolcd\test\pain drain\libraries\lvgl\src\misc\lv_color.h ****            bg_color.full != bg_color_save.full) {
 168              		.loc 2 553 0
 169 008e 8A42     		cmp	r2, r1
 170 0090 30D0     		beq	.L8
 171              	.L7:
 172              	.LBB36:
 555:c:\projects\paindrain\arduinolcd\test\pain drain\libraries\lvgl\src\misc\lv_color.h ****             fg_opa_save        = fg_opa;
 173              		.loc 2 555 0
 174 0092 1F4A     		ldr	r2, .L13+4
 175 0094 1070     		strb	r0, [r2]
 556:c:\projects\paindrain\arduinolcd\test\pain drain\libraries\lvgl\src\misc\lv_color.h ****             bg_opa_save        = bg_opa;
 176              		.loc 2 556 0
 177 0096 5770     		strb	r7, [r2, #1]
 557:c:\projects\paindrain\arduinolcd\test\pain drain\libraries\lvgl\src\misc\lv_color.h ****             fg_color_save.full = fg_color.full;
 178              		.loc 2 557 0
 179 0098 B6B2     		uxth	r6, r6
 180              	.LVL28:
 181 009a 9680     		strh	r6, [r2, #4]
 558:c:\projects\paindrain\arduinolcd\test\pain drain\libraries\lvgl\src\misc\lv_color.h ****             bg_color_save.full = bg_color.full;
 182              		.loc 2 558 0
 183 009c 9CB2     		uxth	r4, r3
 184 009e 1481     		strh	r4, [r2, #8]
 559:c:\projects\paindrain\arduinolcd\test\pain drain\libraries\lvgl\src\misc\lv_color.h ****             /*Info:
 560:c:\projects\paindrain\arduinolcd\test\pain drain\libraries\lvgl\src\misc\lv_color.h ****              * https://en.wikipedia.org/wiki/Alpha_compositing#Analytical_derivation_of_the_over_op
 561:c:\projects\paindrain\arduinolcd\test\pain drain\libraries\lvgl\src\misc\lv_color.h ****             res_opa_saved = 255 - ((uint16_t)((uint16_t)(255 - fg_opa) * (255 - bg_opa)) >> 8);
 185              		.loc 2 561 0
 186 00a0 80B2     		uxth	r0, r0
 187              	.LVL29:
 188 00a2 FF21     		movs	r1, #255
 189 00a4 091A     		subs	r1, r1, r0
 190 00a6 89B2     		uxth	r1, r1
 191 00a8 FF23     		movs	r3, #255
 192 00aa DB1B     		subs	r3, r3, r7
 193 00ac 5943     		muls	r1, r3
 194 00ae 89B2     		uxth	r1, r1
 195 00b0 090A     		lsrs	r1, r1, #8
 196 00b2 C943     		mvns	r1, r1
 197 00b4 C9B2     		uxtb	r1, r1
 198 00b6 9172     		strb	r1, [r2, #10]
 562:c:\projects\paindrain\arduinolcd\test\pain drain\libraries\lvgl\src\misc\lv_color.h ****             LV_ASSERT(res_opa_saved != 0);
 199              		.loc 2 562 0
 200 00b8 0029     		cmp	r1, #0
 201 00ba 00D1     		bne	.L9
 202              	.L10:
 203 00bc FEE7     		b	.L10
 204              	.L9:
 563:c:\projects\paindrain\arduinolcd\test\pain drain\libraries\lvgl\src\misc\lv_color.h ****             lv_opa_t ratio = (uint16_t)((uint16_t)fg_opa * 255) / res_opa_saved;
 205              		.loc 2 563 0
 206 00be 0302     		lsls	r3, r0, #8
 207 00c0 181A     		subs	r0, r3, r0
 208 00c2 80B2     		uxth	r0, r0
 209 00c4 FFF7FEFF 		bl	__aeabi_idiv
 210              	.LVL30:
 211              	.LBB37:
 212              	.LBB38:
 445:c:\projects\paindrain\arduinolcd\test\pain drain\libraries\lvgl\src\misc\lv_color.h ****     uint32_t bg = (uint32_t)((uint32_t)c2.full | ((uint32_t)c2.full << 16)) &
 213              		.loc 2 445 0
ARM GAS  C:\Users\haske\AppData\Local\Temp\ccN8jSR9.s 			page 27


 214 00c8 FF27     		movs	r7, #255
 215              	.LVL31:
 216 00ca 0300     		movs	r3, r0
 217 00cc 3B40     		ands	r3, r7
 218 00ce 0433     		adds	r3, r3, #4
 219 00d0 DA08     		lsrs	r2, r3, #3
 220              	.LVL32:
 446:c:\projects\paindrain\arduinolcd\test\pain drain\libraries\lvgl\src\misc\lv_color.h ****                   0x7E0F81F; /*0b00000111111000001111100000011111*/
 221              		.loc 2 446 0
 222 00d2 2304     		lsls	r3, r4, #16
 223 00d4 2343     		orrs	r3, r4
 224 00d6 0D48     		ldr	r0, .L13
 225              	.LVL33:
 226 00d8 0340     		ands	r3, r0
 227              	.LVL34:
 448:c:\projects\paindrain\arduinolcd\test\pain drain\libraries\lvgl\src\misc\lv_color.h ****     uint32_t result = ((((fg - bg) * mix) >> 5) + bg) & 0x7E0F81F;
 228              		.loc 2 448 0
 229 00da 3104     		lsls	r1, r6, #16
 230 00dc 3143     		orrs	r1, r6
 231 00de 0140     		ands	r1, r0
 232              	.LVL35:
 449:c:\projects\paindrain\arduinolcd\test\pain drain\libraries\lvgl\src\misc\lv_color.h ****     ret.full = (uint16_t)((result >> 16) | result);
 233              		.loc 2 449 0
 234 00e0 C91A     		subs	r1, r1, r3
 235              	.LVL36:
 236 00e2 3A40     		ands	r2, r7
 237              	.LVL37:
 238 00e4 4A43     		muls	r2, r1
 239 00e6 5209     		lsrs	r2, r2, #5
 240 00e8 9B18     		adds	r3, r3, r2
 241              	.LVL38:
 242 00ea 0340     		ands	r3, r0
 243              	.LVL39:
 450:c:\projects\paindrain\arduinolcd\test\pain drain\libraries\lvgl\src\misc\lv_color.h **** #elif LV_COLOR_DEPTH != 1
 244              		.loc 2 450 0
 245 00ec 180C     		lsrs	r0, r3, #16
 246              	.LVL40:
 247 00ee 0343     		orrs	r3, r0
 248              	.LVL41:
 249              	.LBE38:
 250              	.LBE37:
 564:c:\projects\paindrain\arduinolcd\test\pain drain\libraries\lvgl\src\misc\lv_color.h ****             res_color_saved = lv_color_mix(fg_color, bg_color, ratio);
 251              		.loc 2 564 0
 252 00f0 074A     		ldr	r2, .L13+4
 253 00f2 9381     		strh	r3, [r2, #12]
 254              	.LVL42:
 255              	.L8:
 256              	.LBE36:
 565:c:\projects\paindrain\arduinolcd\test\pain drain\libraries\lvgl\src\misc\lv_color.h **** 
 566:c:\projects\paindrain\arduinolcd\test\pain drain\libraries\lvgl\src\misc\lv_color.h ****         }
 567:c:\projects\paindrain\arduinolcd\test\pain drain\libraries\lvgl\src\misc\lv_color.h **** 
 568:c:\projects\paindrain\arduinolcd\test\pain drain\libraries\lvgl\src\misc\lv_color.h ****         res_color->full = res_color_saved.full;
 257              		.loc 2 568 0
 258 00f4 064A     		ldr	r2, .L13+4
 259 00f6 9389     		ldrh	r3, [r2, #12]
 569:c:\projects\paindrain\arduinolcd\test\pain drain\libraries\lvgl\src\misc\lv_color.h ****         *res_opa = res_opa_saved;
 260              		.loc 2 569 0
ARM GAS  C:\Users\haske\AppData\Local\Temp\ccN8jSR9.s 			page 28


 261 00f8 927A     		ldrb	r2, [r2, #10]
 262 00fa AA70     		strb	r2, [r5, #2]
 263              	.L4:
 264              	.LVL43:
 265              	.LBE35:
 266              	.LBE32:
 267              	.LBE31:
 700:..\..\..\arduinoLCD\test\Pain Drain\libraries\lvgl\src\hal/lv_hal_disp.c ****     lv_color_mix_with_alpha(bg_color, bg_opa, color, opa, &res_color, &buf_px[2]);
 701:..\..\..\arduinoLCD\test\Pain Drain\libraries\lvgl\src\hal/lv_hal_disp.c ****     if(buf_px[2] <= LV_OPA_MIN) return;
 268              		.loc 1 701 0
 269 00fc AA78     		ldrb	r2, [r5, #2]
 270 00fe 022A     		cmp	r2, #2
 271 0100 03D9     		bls	.L1
 272              	.LVL44:
 702:..\..\..\arduinoLCD\test\Pain Drain\libraries\lvgl\src\hal/lv_hal_disp.c ****     buf_px[0] = res_color.full & 0xff;
 273              		.loc 1 702 0
 274 0102 9BB2     		uxth	r3, r3
 275              	.LVL45:
 276 0104 2B70     		strb	r3, [r5]
 703:..\..\..\arduinoLCD\test\Pain Drain\libraries\lvgl\src\hal/lv_hal_disp.c ****     buf_px[1] = res_color.full >> 8;
 277              		.loc 1 703 0
 278 0106 1B0A     		lsrs	r3, r3, #8
 279 0108 6B70     		strb	r3, [r5, #1]
 280              	.L1:
 704:..\..\..\arduinoLCD\test\Pain Drain\libraries\lvgl\src\hal/lv_hal_disp.c **** #elif LV_COLOR_DEPTH == 32
 705:..\..\..\arduinoLCD\test\Pain Drain\libraries\lvgl\src\hal/lv_hal_disp.c ****     bg_color = *((lv_color_t *)buf_px);
 706:..\..\..\arduinoLCD\test\Pain Drain\libraries\lvgl\src\hal/lv_hal_disp.c ****     lv_color_mix_with_alpha(bg_color, bg_opa, color, opa, &res_color, &buf_px[3]);
 707:..\..\..\arduinoLCD\test\Pain Drain\libraries\lvgl\src\hal/lv_hal_disp.c ****     if(buf_px[3] <= LV_OPA_MIN) return;
 708:..\..\..\arduinoLCD\test\Pain Drain\libraries\lvgl\src\hal/lv_hal_disp.c ****     buf_px[0] = res_color.ch.blue;
 709:..\..\..\arduinoLCD\test\Pain Drain\libraries\lvgl\src\hal/lv_hal_disp.c ****     buf_px[1] = res_color.ch.green;
 710:..\..\..\arduinoLCD\test\Pain Drain\libraries\lvgl\src\hal/lv_hal_disp.c ****     buf_px[2] = res_color.ch.red;
 711:..\..\..\arduinoLCD\test\Pain Drain\libraries\lvgl\src\hal/lv_hal_disp.c **** #endif
 712:..\..\..\arduinoLCD\test\Pain Drain\libraries\lvgl\src\hal/lv_hal_disp.c **** 
 713:..\..\..\arduinoLCD\test\Pain Drain\libraries\lvgl\src\hal/lv_hal_disp.c **** }
 281              		.loc 1 713 0
 282              		@ sp needed
 283              	.LVL46:
 284              	.LVL47:
 285 010a F8BD     		pop	{r3, r4, r5, r6, r7, pc}
 286              	.L14:
 287              		.align	2
 288              	.L13:
 289 010c 1FF8E007 		.word	132184095
 290 0110 00000000 		.word	.LANCHOR0
 291              		.cfi_endproc
 292              	.LFE187:
 293              		.size	set_px_true_color_alpha, .-set_px_true_color_alpha
 294              		.section	.text.invalidate_layout_cb,"ax",%progbits
 295              		.align	2
 296              		.code	16
 297              		.thumb_func
 298              		.type	invalidate_layout_cb, %function
 299              	invalidate_layout_cb:
 300              	.LFB181:
 606:..\..\..\arduinoLCD\test\Pain Drain\libraries\lvgl\src\hal/lv_hal_disp.c ****     LV_UNUSED(user_data);
 301              		.loc 1 606 0
 302              		.cfi_startproc
ARM GAS  C:\Users\haske\AppData\Local\Temp\ccN8jSR9.s 			page 29


 303              		@ args = 0, pretend = 0, frame = 0
 304              		@ frame_needed = 0, uses_anonymous_args = 0
 305              	.LVL48:
 306 0000 10B5     		push	{r4, lr}
 307              		.cfi_def_cfa_offset 8
 308              		.cfi_offset 4, -8
 309              		.cfi_offset 14, -4
 608:..\..\..\arduinoLCD\test\Pain Drain\libraries\lvgl\src\hal/lv_hal_disp.c ****     return LV_OBJ_TREE_WALK_NEXT;
 310              		.loc 1 608 0
 311 0002 FFF7FEFF 		bl	lv_obj_mark_layout_as_dirty
 312              	.LVL49:
 610:..\..\..\arduinoLCD\test\Pain Drain\libraries\lvgl\src\hal/lv_hal_disp.c **** 
 313              		.loc 1 610 0
 314 0006 0020     		movs	r0, #0
 315              		@ sp needed
 316 0008 10BD     		pop	{r4, pc}
 317              		.cfi_endproc
 318              	.LFE181:
 319              		.size	invalidate_layout_cb, .-invalidate_layout_cb
 320 000a C046     		.section	.text.set_px_alpha_generic,"ax",%progbits
 321              		.align	2
 322              		.code	16
 323              		.thumb_func
 324              		.type	set_px_alpha_generic, %function
 325              	set_px_alpha_generic:
 326              	.LFB186:
 669:..\..\..\arduinoLCD\test\Pain Drain\libraries\lvgl\src\hal/lv_hal_disp.c ****     d->header.always_zero = 0;
 327              		.loc 1 669 0
 328              		.cfi_startproc
 329              		@ args = 4, pretend = 0, frame = 8
 330              		@ frame_needed = 0, uses_anonymous_args = 0
 331              	.LVL50:
 332 0000 F0B5     		push	{r4, r5, r6, r7, lr}
 333              		.cfi_def_cfa_offset 20
 334              		.cfi_offset 4, -20
 335              		.cfi_offset 5, -16
 336              		.cfi_offset 6, -12
 337              		.cfi_offset 7, -8
 338              		.cfi_offset 14, -4
 339 0002 83B0     		sub	sp, sp, #12
 340              		.cfi_def_cfa_offset 32
 341 0004 0700     		movs	r7, r0
 342 0006 0191     		str	r1, [sp, #4]
 343 0008 1600     		movs	r6, r2
 344 000a 08AA     		add	r2, sp, #32
 345              	.LVL51:
 346 000c 1578     		ldrb	r5, [r2]
 670:..\..\..\arduinoLCD\test\Pain Drain\libraries\lvgl\src\hal/lv_hal_disp.c ****     d->header.h = 1;    /*Doesn't matter*/
 347              		.loc 1 670 0
 348 000e 0278     		ldrb	r2, [r0]
 349              	.LVL52:
 350 0010 1F21     		movs	r1, #31
 351              	.LVL53:
 352 0012 0A40     		ands	r2, r1
 353 0014 0270     		strb	r2, [r0]
 671:..\..\..\arduinoLCD\test\Pain Drain\libraries\lvgl\src\hal/lv_hal_disp.c **** 
 354              		.loc 1 671 0
ARM GAS  C:\Users\haske\AppData\Local\Temp\ccN8jSR9.s 			page 30


 355 0016 4288     		ldrh	r2, [r0, #2]
 356 0018 0A40     		ands	r2, r1
 357 001a 2021     		movs	r1, #32
 358 001c 0A43     		orrs	r2, r1
 359 001e 4280     		strh	r2, [r0, #2]
 360              	.LBB44:
 361              	.LBB45:
 362              	.LBB46:
 363              	.LBB47:
 420:c:\projects\paindrain\arduinolcd\test\pain drain\libraries\lvgl\src\misc\lv_color.h ****     LV_COLOR_SET_G32(ret, (LV_COLOR_GET_G(color) * 259 + 3) >> 6);
 364              		.loc 2 420 0
 365 0020 1A04     		lsls	r2, r3, #16
 366 0022 D10E     		lsrs	r1, r2, #27
 367 0024 4A01     		lsls	r2, r1, #5
 368 0026 5218     		adds	r2, r2, r1
 369 0028 D200     		lsls	r2, r2, #3
 370 002a 521A     		subs	r2, r2, r1
 371 002c 0732     		adds	r2, r2, #7
 372 002e 5211     		asrs	r2, r2, #5
 373 0030 D2B2     		uxtb	r2, r2
 421:c:\projects\paindrain\arduinolcd\test\pain drain\libraries\lvgl\src\misc\lv_color.h ****     LV_COLOR_SET_B32(ret, (LV_COLOR_GET_B(color) * 263 + 7) >> 5);
 374              		.loc 2 421 0
 375 0032 5905     		lsls	r1, r3, #21
 376 0034 890E     		lsrs	r1, r1, #26
 377 0036 C801     		lsls	r0, r1, #7
 378              	.LVL54:
 379 0038 4018     		adds	r0, r0, r1
 380 003a 4000     		lsls	r0, r0, #1
 381 003c 4018     		adds	r0, r0, r1
 382 003e 0330     		adds	r0, r0, #3
 383 0040 8011     		asrs	r0, r0, #6
 384 0042 C0B2     		uxtb	r0, r0
 385 0044 0002     		lsls	r0, r0, #8
 386 0046 1204     		lsls	r2, r2, #16
 422:c:\projects\paindrain\arduinolcd\test\pain drain\libraries\lvgl\src\misc\lv_color.h ****     LV_COLOR_SET_A32(ret, 0xFF);
 387              		.loc 2 422 0
 388 0048 DB06     		lsls	r3, r3, #27
 389              	.LVL55:
 390 004a DC0E     		lsrs	r4, r3, #27
 391 004c 6101     		lsls	r1, r4, #5
 392 004e 0B19     		adds	r3, r1, r4
 393 0050 D900     		lsls	r1, r3, #3
 394 0052 0B1B     		subs	r3, r1, r4
 395 0054 0733     		adds	r3, r3, #7
 396 0056 5B11     		asrs	r3, r3, #5
 397 0058 DBB2     		uxtb	r3, r3
 398 005a 0243     		orrs	r2, r0
 399 005c 1A43     		orrs	r2, r3
 400              	.LVL56:
 423:c:\projects\paindrain\arduinolcd\test\pain drain\libraries\lvgl\src\misc\lv_color.h ****     return ret.full;
 401              		.loc 2 423 0
 402 005e FF23     		movs	r3, #255
 403 0060 1B06     		lsls	r3, r3, #24
 404              	.LVL57:
 405 0062 1A43     		orrs	r2, r3
 406              	.LVL58:
 407              	.LBE47:
ARM GAS  C:\Users\haske\AppData\Local\Temp\ccN8jSR9.s 			page 31


 408              	.LBE46:
 570:c:\projects\paindrain\arduinolcd\test\pain drain\libraries\lvgl\src\misc\lv_color.h ****     }
 571:c:\projects\paindrain\arduinolcd\test\pain drain\libraries\lvgl\src\misc\lv_color.h **** }
 572:c:\projects\paindrain\arduinolcd\test\pain drain\libraries\lvgl\src\misc\lv_color.h **** 
 573:c:\projects\paindrain\arduinolcd\test\pain drain\libraries\lvgl\src\misc\lv_color.h **** //! @endcond
 574:c:\projects\paindrain\arduinolcd\test\pain drain\libraries\lvgl\src\misc\lv_color.h **** 
 575:c:\projects\paindrain\arduinolcd\test\pain drain\libraries\lvgl\src\misc\lv_color.h **** /**
 576:c:\projects\paindrain\arduinolcd\test\pain drain\libraries\lvgl\src\misc\lv_color.h ****  * Get the brightness of a color
 577:c:\projects\paindrain\arduinolcd\test\pain drain\libraries\lvgl\src\misc\lv_color.h ****  * @param color a color
 578:c:\projects\paindrain\arduinolcd\test\pain drain\libraries\lvgl\src\misc\lv_color.h ****  * @return the brightness [0..255]
 579:c:\projects\paindrain\arduinolcd\test\pain drain\libraries\lvgl\src\misc\lv_color.h ****  */
 580:c:\projects\paindrain\arduinolcd\test\pain drain\libraries\lvgl\src\misc\lv_color.h **** static inline uint8_t lv_color_brightness(lv_color_t color)
 581:c:\projects\paindrain\arduinolcd\test\pain drain\libraries\lvgl\src\misc\lv_color.h **** {
 582:c:\projects\paindrain\arduinolcd\test\pain drain\libraries\lvgl\src\misc\lv_color.h ****     lv_color32_t c32;
 583:c:\projects\paindrain\arduinolcd\test\pain drain\libraries\lvgl\src\misc\lv_color.h ****     c32.full        = lv_color_to32(color);
 584:c:\projects\paindrain\arduinolcd\test\pain drain\libraries\lvgl\src\misc\lv_color.h ****     uint16_t bright = (uint16_t)(3u * LV_COLOR_GET_R32(c32) + LV_COLOR_GET_B32(c32) + 4u * LV_COLOR
 409              		.loc 2 584 0
 410 0064 1402     		lsls	r4, r2, #8
 411 0066 240E     		lsrs	r4, r4, #24
 412 0068 1304     		lsls	r3, r2, #16
 413 006a 1B0E     		lsrs	r3, r3, #24
 414 006c 6100     		lsls	r1, r4, #1
 415 006e 6418     		adds	r4, r4, r1
 416 0070 9B00     		lsls	r3, r3, #2
 417 0072 E418     		adds	r4, r4, r3
 418 0074 A4B2     		uxth	r4, r4
 419 0076 D2B2     		uxtb	r2, r2
 420              	.LVL59:
 421 0078 A218     		adds	r2, r4, r2
 422 007a 94B2     		uxth	r4, r2
 423              	.LVL60:
 585:c:\projects\paindrain\arduinolcd\test\pain drain\libraries\lvgl\src\misc\lv_color.h ****     return (uint8_t)(bright >> 3);
 424              		.loc 2 585 0
 425 007c E208     		lsrs	r2, r4, #3
 426 007e D4B2     		uxtb	r4, r2
 427              	.LVL61:
 428              	.LBE45:
 429              	.LBE44:
 674:..\..\..\arduinoLCD\test\Pain Drain\libraries\lvgl\src\hal/lv_hal_disp.c ****         uint8_t bg = lv_img_buf_get_px_alpha(d, x, y);
 430              		.loc 1 674 0
 431 0080 FC2D     		cmp	r5, #252
 432 0082 0BD8     		bhi	.L17
 433              	.LBB48:
 675:..\..\..\arduinoLCD\test\Pain Drain\libraries\lvgl\src\hal/lv_hal_disp.c ****         br = (uint16_t)((uint16_t)br * opa + (bg * (255 - opa))) >> 8;
 434              		.loc 1 675 0
 435 0084 3200     		movs	r2, r6
 436 0086 0199     		ldr	r1, [sp, #4]
 437 0088 3800     		movs	r0, r7
 438 008a FFF7FEFF 		bl	lv_img_buf_get_px_alpha
 439              	.LVL62:
 676:..\..\..\arduinoLCD\test\Pain Drain\libraries\lvgl\src\hal/lv_hal_disp.c ****     }
 440              		.loc 1 676 0
 441 008e FF23     		movs	r3, #255
 442 0090 5B1B     		subs	r3, r3, r5
 443 0092 6C43     		muls	r4, r5
 444 0094 5843     		muls	r0, r3
 445              	.LVL63:
ARM GAS  C:\Users\haske\AppData\Local\Temp\ccN8jSR9.s 			page 32


 446 0096 2418     		adds	r4, r4, r0
 447 0098 A4B2     		uxth	r4, r4
 448 009a 240A     		lsrs	r4, r4, #8
 449              	.LVL64:
 450              	.L17:
 451              	.LBE48:
 679:..\..\..\arduinoLCD\test\Pain Drain\libraries\lvgl\src\hal/lv_hal_disp.c **** }
 452              		.loc 1 679 0
 453 009c 2300     		movs	r3, r4
 454 009e 3200     		movs	r2, r6
 455 00a0 0199     		ldr	r1, [sp, #4]
 456 00a2 3800     		movs	r0, r7
 457 00a4 FFF7FEFF 		bl	lv_img_buf_set_px_alpha
 458              	.LVL65:
 680:..\..\..\arduinoLCD\test\Pain Drain\libraries\lvgl\src\hal/lv_hal_disp.c **** 
 459              		.loc 1 680 0
 460 00a8 03B0     		add	sp, sp, #12
 461              		@ sp needed
 462              	.LVL66:
 463              	.LVL67:
 464 00aa F0BD     		pop	{r4, r5, r6, r7, pc}
 465              		.cfi_endproc
 466              	.LFE186:
 467              		.size	set_px_alpha_generic, .-set_px_alpha_generic
 468              		.section	.text.set_px_cb_alpha8,"ax",%progbits
 469              		.align	2
 470              		.code	16
 471              		.thumb_func
 472              		.type	set_px_cb_alpha8, %function
 473              	set_px_cb_alpha8:
 474              	.LFB185:
 656:..\..\..\arduinoLCD\test\Pain Drain\libraries\lvgl\src\hal/lv_hal_disp.c ****     (void) disp_drv; /*Unused*/
 475              		.loc 1 656 0
 476              		.cfi_startproc
 477              		@ args = 12, pretend = 0, frame = 24
 478              		@ frame_needed = 0, uses_anonymous_args = 0
 479              	.LVL68:
 480 0000 F0B5     		push	{r4, r5, r6, r7, lr}
 481              		.cfi_def_cfa_offset 20
 482              		.cfi_offset 4, -20
 483              		.cfi_offset 5, -16
 484              		.cfi_offset 6, -12
 485              		.cfi_offset 7, -8
 486              		.cfi_offset 14, -4
 487 0002 89B0     		sub	sp, sp, #36
 488              		.cfi_def_cfa_offset 56
 489 0004 0393     		str	r3, [sp, #12]
 490 0006 0EAB     		add	r3, sp, #56
 491              	.LVL69:
 492 0008 0026     		movs	r6, #0
 493 000a 9E5F     		ldrsh	r6, [r3, r6]
 494              	.LVL70:
 495 000c 0FAB     		add	r3, sp, #60
 496 000e 1B88     		ldrh	r3, [r3]
 497              	.LVL71:
 498 0010 10A8     		add	r0, sp, #64
 499              	.LVL72:
ARM GAS  C:\Users\haske\AppData\Local\Temp\ccN8jSR9.s 			page 33


 500 0012 0778     		ldrb	r7, [r0]
 659:..\..\..\arduinoLCD\test\Pain Drain\libraries\lvgl\src\hal/lv_hal_disp.c ****     lv_img_dsc_t d;
 501              		.loc 1 659 0
 502 0014 022F     		cmp	r7, #2
 503 0016 13D9     		bls	.L18
 661:..\..\..\arduinoLCD\test\Pain Drain\libraries\lvgl\src\hal/lv_hal_disp.c ****     d.header.w = buf_w;
 504              		.loc 1 661 0
 505 0018 05A8     		add	r0, sp, #20
 506              	.LVL73:
 507 001a 8160     		str	r1, [r0, #8]
 662:..\..\..\arduinoLCD\test\Pain Drain\libraries\lvgl\src\hal/lv_hal_disp.c ****     d.header.cf = LV_IMG_CF_ALPHA_8BIT;
 508              		.loc 1 662 0
 509 001c 5405     		lsls	r4, r2, #21
 510 001e E50A     		lsrs	r5, r4, #11
 511 0020 084C     		ldr	r4, .L21
 512 0022 059A     		ldr	r2, [sp, #20]
 513              	.LVL74:
 514 0024 1440     		ands	r4, r2
 515 0026 2C43     		orrs	r4, r5
 516 0028 0594     		str	r4, [sp, #20]
 663:..\..\..\arduinoLCD\test\Pain Drain\libraries\lvgl\src\hal/lv_hal_disp.c **** 
 517              		.loc 1 663 0
 518 002a E4B2     		uxtb	r4, r4
 519 002c 1F22     		movs	r2, #31
 520 002e 9443     		bics	r4, r2
 521 0030 0E22     		movs	r2, #14
 522 0032 1443     		orrs	r4, r2
 523 0034 0470     		strb	r4, [r0]
 665:..\..\..\arduinoLCD\test\Pain Drain\libraries\lvgl\src\hal/lv_hal_disp.c **** }
 524              		.loc 1 665 0
 525 0036 0097     		str	r7, [sp]
 526 0038 3200     		movs	r2, r6
 527 003a 0399     		ldr	r1, [sp, #12]
 528              	.LVL75:
 529 003c FFF7FEFF 		bl	set_px_alpha_generic
 530              	.LVL76:
 531              	.L18:
 666:..\..\..\arduinoLCD\test\Pain Drain\libraries\lvgl\src\hal/lv_hal_disp.c **** 
 532              		.loc 1 666 0
 533 0040 09B0     		add	sp, sp, #36
 534              		@ sp needed
 535 0042 F0BD     		pop	{r4, r5, r6, r7, pc}
 536              	.L22:
 537              		.align	2
 538              	.L21:
 539 0044 FF03E0FF 		.word	-2096129
 540              		.cfi_endproc
 541              	.LFE185:
 542              		.size	set_px_cb_alpha8, .-set_px_cb_alpha8
 543              		.section	.text.set_px_cb_alpha4,"ax",%progbits
 544              		.align	2
 545              		.code	16
 546              		.thumb_func
 547              		.type	set_px_cb_alpha4, %function
 548              	set_px_cb_alpha4:
 549              	.LFB184:
 642:..\..\..\arduinoLCD\test\Pain Drain\libraries\lvgl\src\hal/lv_hal_disp.c ****     (void) disp_drv; /*Unused*/
ARM GAS  C:\Users\haske\AppData\Local\Temp\ccN8jSR9.s 			page 34


 550              		.loc 1 642 0
 551              		.cfi_startproc
 552              		@ args = 12, pretend = 0, frame = 24
 553              		@ frame_needed = 0, uses_anonymous_args = 0
 554              	.LVL77:
 555 0000 F0B5     		push	{r4, r5, r6, r7, lr}
 556              		.cfi_def_cfa_offset 20
 557              		.cfi_offset 4, -20
 558              		.cfi_offset 5, -16
 559              		.cfi_offset 6, -12
 560              		.cfi_offset 7, -8
 561              		.cfi_offset 14, -4
 562 0002 89B0     		sub	sp, sp, #36
 563              		.cfi_def_cfa_offset 56
 564 0004 0393     		str	r3, [sp, #12]
 565 0006 0EAB     		add	r3, sp, #56
 566              	.LVL78:
 567 0008 0026     		movs	r6, #0
 568 000a 9E5F     		ldrsh	r6, [r3, r6]
 569              	.LVL79:
 570 000c 0FAB     		add	r3, sp, #60
 571 000e 1B88     		ldrh	r3, [r3]
 572              	.LVL80:
 573 0010 10A8     		add	r0, sp, #64
 574              	.LVL81:
 575 0012 0778     		ldrb	r7, [r0]
 645:..\..\..\arduinoLCD\test\Pain Drain\libraries\lvgl\src\hal/lv_hal_disp.c ****     lv_img_dsc_t d;
 576              		.loc 1 645 0
 577 0014 022F     		cmp	r7, #2
 578 0016 13D9     		bls	.L23
 647:..\..\..\arduinoLCD\test\Pain Drain\libraries\lvgl\src\hal/lv_hal_disp.c ****     d.header.w = buf_w;
 579              		.loc 1 647 0
 580 0018 05A8     		add	r0, sp, #20
 581              	.LVL82:
 582 001a 8160     		str	r1, [r0, #8]
 648:..\..\..\arduinoLCD\test\Pain Drain\libraries\lvgl\src\hal/lv_hal_disp.c ****     d.header.cf = LV_IMG_CF_ALPHA_4BIT;
 583              		.loc 1 648 0
 584 001c 5405     		lsls	r4, r2, #21
 585 001e E50A     		lsrs	r5, r4, #11
 586 0020 084C     		ldr	r4, .L26
 587 0022 059A     		ldr	r2, [sp, #20]
 588              	.LVL83:
 589 0024 1440     		ands	r4, r2
 590 0026 2C43     		orrs	r4, r5
 591 0028 0594     		str	r4, [sp, #20]
 649:..\..\..\arduinoLCD\test\Pain Drain\libraries\lvgl\src\hal/lv_hal_disp.c **** 
 592              		.loc 1 649 0
 593 002a E4B2     		uxtb	r4, r4
 594 002c 1F22     		movs	r2, #31
 595 002e 9443     		bics	r4, r2
 596 0030 0D22     		movs	r2, #13
 597 0032 1443     		orrs	r4, r2
 598 0034 0470     		strb	r4, [r0]
 651:..\..\..\arduinoLCD\test\Pain Drain\libraries\lvgl\src\hal/lv_hal_disp.c **** }
 599              		.loc 1 651 0
 600 0036 0097     		str	r7, [sp]
 601 0038 3200     		movs	r2, r6
ARM GAS  C:\Users\haske\AppData\Local\Temp\ccN8jSR9.s 			page 35


 602 003a 0399     		ldr	r1, [sp, #12]
 603              	.LVL84:
 604 003c FFF7FEFF 		bl	set_px_alpha_generic
 605              	.LVL85:
 606              	.L23:
 652:..\..\..\arduinoLCD\test\Pain Drain\libraries\lvgl\src\hal/lv_hal_disp.c **** 
 607              		.loc 1 652 0
 608 0040 09B0     		add	sp, sp, #36
 609              		@ sp needed
 610 0042 F0BD     		pop	{r4, r5, r6, r7, pc}
 611              	.L27:
 612              		.align	2
 613              	.L26:
 614 0044 FF03E0FF 		.word	-2096129
 615              		.cfi_endproc
 616              	.LFE184:
 617              		.size	set_px_cb_alpha4, .-set_px_cb_alpha4
 618              		.section	.text.set_px_cb_alpha2,"ax",%progbits
 619              		.align	2
 620              		.code	16
 621              		.thumb_func
 622              		.type	set_px_cb_alpha2, %function
 623              	set_px_cb_alpha2:
 624              	.LFB183:
 628:..\..\..\arduinoLCD\test\Pain Drain\libraries\lvgl\src\hal/lv_hal_disp.c ****     (void) disp_drv; /*Unused*/
 625              		.loc 1 628 0
 626              		.cfi_startproc
 627              		@ args = 12, pretend = 0, frame = 24
 628              		@ frame_needed = 0, uses_anonymous_args = 0
 629              	.LVL86:
 630 0000 F0B5     		push	{r4, r5, r6, r7, lr}
 631              		.cfi_def_cfa_offset 20
 632              		.cfi_offset 4, -20
 633              		.cfi_offset 5, -16
 634              		.cfi_offset 6, -12
 635              		.cfi_offset 7, -8
 636              		.cfi_offset 14, -4
 637 0002 89B0     		sub	sp, sp, #36
 638              		.cfi_def_cfa_offset 56
 639 0004 0393     		str	r3, [sp, #12]
 640 0006 0EAB     		add	r3, sp, #56
 641              	.LVL87:
 642 0008 0026     		movs	r6, #0
 643 000a 9E5F     		ldrsh	r6, [r3, r6]
 644              	.LVL88:
 645 000c 0FAB     		add	r3, sp, #60
 646 000e 1B88     		ldrh	r3, [r3]
 647              	.LVL89:
 648 0010 10A8     		add	r0, sp, #64
 649              	.LVL90:
 650 0012 0778     		ldrb	r7, [r0]
 631:..\..\..\arduinoLCD\test\Pain Drain\libraries\lvgl\src\hal/lv_hal_disp.c ****     lv_img_dsc_t d;
 651              		.loc 1 631 0
 652 0014 022F     		cmp	r7, #2
 653 0016 13D9     		bls	.L28
 633:..\..\..\arduinoLCD\test\Pain Drain\libraries\lvgl\src\hal/lv_hal_disp.c ****     d.header.w = buf_w;
 654              		.loc 1 633 0
ARM GAS  C:\Users\haske\AppData\Local\Temp\ccN8jSR9.s 			page 36


 655 0018 05A8     		add	r0, sp, #20
 656              	.LVL91:
 657 001a 8160     		str	r1, [r0, #8]
 634:..\..\..\arduinoLCD\test\Pain Drain\libraries\lvgl\src\hal/lv_hal_disp.c ****     d.header.cf = LV_IMG_CF_ALPHA_2BIT;
 658              		.loc 1 634 0
 659 001c 5405     		lsls	r4, r2, #21
 660 001e E50A     		lsrs	r5, r4, #11
 661 0020 084C     		ldr	r4, .L31
 662 0022 059A     		ldr	r2, [sp, #20]
 663              	.LVL92:
 664 0024 1440     		ands	r4, r2
 665 0026 2C43     		orrs	r4, r5
 666 0028 0594     		str	r4, [sp, #20]
 635:..\..\..\arduinoLCD\test\Pain Drain\libraries\lvgl\src\hal/lv_hal_disp.c **** 
 667              		.loc 1 635 0
 668 002a E4B2     		uxtb	r4, r4
 669 002c 1F22     		movs	r2, #31
 670 002e 9443     		bics	r4, r2
 671 0030 0C22     		movs	r2, #12
 672 0032 1443     		orrs	r4, r2
 673 0034 0470     		strb	r4, [r0]
 637:..\..\..\arduinoLCD\test\Pain Drain\libraries\lvgl\src\hal/lv_hal_disp.c **** }
 674              		.loc 1 637 0
 675 0036 0097     		str	r7, [sp]
 676 0038 3200     		movs	r2, r6
 677 003a 0399     		ldr	r1, [sp, #12]
 678              	.LVL93:
 679 003c FFF7FEFF 		bl	set_px_alpha_generic
 680              	.LVL94:
 681              	.L28:
 638:..\..\..\arduinoLCD\test\Pain Drain\libraries\lvgl\src\hal/lv_hal_disp.c **** 
 682              		.loc 1 638 0
 683 0040 09B0     		add	sp, sp, #36
 684              		@ sp needed
 685 0042 F0BD     		pop	{r4, r5, r6, r7, pc}
 686              	.L32:
 687              		.align	2
 688              	.L31:
 689 0044 FF03E0FF 		.word	-2096129
 690              		.cfi_endproc
 691              	.LFE183:
 692              		.size	set_px_cb_alpha2, .-set_px_cb_alpha2
 693              		.section	.text.set_px_cb_alpha1,"ax",%progbits
 694              		.align	2
 695              		.code	16
 696              		.thumb_func
 697              		.type	set_px_cb_alpha1, %function
 698              	set_px_cb_alpha1:
 699              	.LFB182:
 614:..\..\..\arduinoLCD\test\Pain Drain\libraries\lvgl\src\hal/lv_hal_disp.c ****     (void) disp_drv; /*Unused*/
 700              		.loc 1 614 0
 701              		.cfi_startproc
 702              		@ args = 12, pretend = 0, frame = 24
 703              		@ frame_needed = 0, uses_anonymous_args = 0
 704              	.LVL95:
 705 0000 F0B5     		push	{r4, r5, r6, r7, lr}
 706              		.cfi_def_cfa_offset 20
ARM GAS  C:\Users\haske\AppData\Local\Temp\ccN8jSR9.s 			page 37


 707              		.cfi_offset 4, -20
 708              		.cfi_offset 5, -16
 709              		.cfi_offset 6, -12
 710              		.cfi_offset 7, -8
 711              		.cfi_offset 14, -4
 712 0002 89B0     		sub	sp, sp, #36
 713              		.cfi_def_cfa_offset 56
 714 0004 0393     		str	r3, [sp, #12]
 715 0006 0EAB     		add	r3, sp, #56
 716              	.LVL96:
 717 0008 0026     		movs	r6, #0
 718 000a 9E5F     		ldrsh	r6, [r3, r6]
 719              	.LVL97:
 720 000c 0FAB     		add	r3, sp, #60
 721 000e 1B88     		ldrh	r3, [r3]
 722              	.LVL98:
 723 0010 10A8     		add	r0, sp, #64
 724              	.LVL99:
 725 0012 0778     		ldrb	r7, [r0]
 617:..\..\..\arduinoLCD\test\Pain Drain\libraries\lvgl\src\hal/lv_hal_disp.c ****     lv_img_dsc_t d;
 726              		.loc 1 617 0
 727 0014 022F     		cmp	r7, #2
 728 0016 13D9     		bls	.L33
 619:..\..\..\arduinoLCD\test\Pain Drain\libraries\lvgl\src\hal/lv_hal_disp.c ****     d.header.w = buf_w;
 729              		.loc 1 619 0
 730 0018 05A8     		add	r0, sp, #20
 731              	.LVL100:
 732 001a 8160     		str	r1, [r0, #8]
 620:..\..\..\arduinoLCD\test\Pain Drain\libraries\lvgl\src\hal/lv_hal_disp.c ****     d.header.cf = LV_IMG_CF_ALPHA_1BIT;
 733              		.loc 1 620 0
 734 001c 5405     		lsls	r4, r2, #21
 735 001e E50A     		lsrs	r5, r4, #11
 736 0020 084C     		ldr	r4, .L36
 737 0022 059A     		ldr	r2, [sp, #20]
 738              	.LVL101:
 739 0024 1440     		ands	r4, r2
 740 0026 2C43     		orrs	r4, r5
 741 0028 0594     		str	r4, [sp, #20]
 621:..\..\..\arduinoLCD\test\Pain Drain\libraries\lvgl\src\hal/lv_hal_disp.c **** 
 742              		.loc 1 621 0
 743 002a E4B2     		uxtb	r4, r4
 744 002c 1F22     		movs	r2, #31
 745 002e 9443     		bics	r4, r2
 746 0030 0B22     		movs	r2, #11
 747 0032 1443     		orrs	r4, r2
 748 0034 0470     		strb	r4, [r0]
 623:..\..\..\arduinoLCD\test\Pain Drain\libraries\lvgl\src\hal/lv_hal_disp.c **** }
 749              		.loc 1 623 0
 750 0036 0097     		str	r7, [sp]
 751 0038 3200     		movs	r2, r6
 752 003a 0399     		ldr	r1, [sp, #12]
 753              	.LVL102:
 754 003c FFF7FEFF 		bl	set_px_alpha_generic
 755              	.LVL103:
 756              	.L33:
 624:..\..\..\arduinoLCD\test\Pain Drain\libraries\lvgl\src\hal/lv_hal_disp.c **** 
 757              		.loc 1 624 0
ARM GAS  C:\Users\haske\AppData\Local\Temp\ccN8jSR9.s 			page 38


 758 0040 09B0     		add	sp, sp, #36
 759              		@ sp needed
 760 0042 F0BD     		pop	{r4, r5, r6, r7, pc}
 761              	.L37:
 762              		.align	2
 763              	.L36:
 764 0044 FF03E0FF 		.word	-2096129
 765              		.cfi_endproc
 766              	.LFE182:
 767              		.size	set_px_cb_alpha1, .-set_px_cb_alpha1
 768              		.section	.text.lv_disp_drv_init,"ax",%progbits
 769              		.align	2
 770              		.global	lv_disp_drv_init
 771              		.code	16
 772              		.thumb_func
 773              		.type	lv_disp_drv_init, %function
 774              	lv_disp_drv_init:
 775              	.LFB159:
  84:..\..\..\arduinoLCD\test\Pain Drain\libraries\lvgl\src\hal/lv_hal_disp.c ****     lv_memset_00(driver, sizeof(lv_disp_drv_t));
 776              		.loc 1 84 0
 777              		.cfi_startproc
 778              		@ args = 0, pretend = 0, frame = 0
 779              		@ frame_needed = 0, uses_anonymous_args = 0
 780              	.LVL104:
 781 0000 10B5     		push	{r4, lr}
 782              		.cfi_def_cfa_offset 8
 783              		.cfi_offset 4, -8
 784              		.cfi_offset 14, -4
 785 0002 0400     		movs	r4, r0
  85:..\..\..\arduinoLCD\test\Pain Drain\libraries\lvgl\src\hal/lv_hal_disp.c **** 
 786              		.loc 1 85 0
 787 0004 5021     		movs	r1, #80
 788 0006 FFF7FEFF 		bl	lv_memset_00
 789              	.LVL105:
  87:..\..\..\arduinoLCD\test\Pain Drain\libraries\lvgl\src\hal/lv_hal_disp.c ****     driver->ver_res          = 240;
 790              		.loc 1 87 0
 791 000a A023     		movs	r3, #160
 792 000c 5B00     		lsls	r3, r3, #1
 793 000e 2380     		strh	r3, [r4]
  88:..\..\..\arduinoLCD\test\Pain Drain\libraries\lvgl\src\hal/lv_hal_disp.c ****     driver->physical_hor_res = -1;
 794              		.loc 1 88 0
 795 0010 503B     		subs	r3, r3, #80
 796 0012 6380     		strh	r3, [r4, #2]
  89:..\..\..\arduinoLCD\test\Pain Drain\libraries\lvgl\src\hal/lv_hal_disp.c ****     driver->physical_ver_res = -1;
 797              		.loc 1 89 0
 798 0014 F13B     		subs	r3, r3, #241
 799 0016 A380     		strh	r3, [r4, #4]
  90:..\..\..\arduinoLCD\test\Pain Drain\libraries\lvgl\src\hal/lv_hal_disp.c ****     driver->offset_x         = 0;
 800              		.loc 1 90 0
 801 0018 E380     		strh	r3, [r4, #6]
  91:..\..\..\arduinoLCD\test\Pain Drain\libraries\lvgl\src\hal/lv_hal_disp.c ****     driver->offset_y         = 0;
 802              		.loc 1 91 0
 803 001a 0023     		movs	r3, #0
 804 001c 2381     		strh	r3, [r4, #8]
  92:..\..\..\arduinoLCD\test\Pain Drain\libraries\lvgl\src\hal/lv_hal_disp.c ****     driver->antialiasing     = LV_COLOR_DEPTH > 8 ? 1 : 0;
 805              		.loc 1 92 0
 806 001e 6381     		strh	r3, [r4, #10]
ARM GAS  C:\Users\haske\AppData\Local\Temp\ccN8jSR9.s 			page 39


  93:..\..\..\arduinoLCD\test\Pain Drain\libraries\lvgl\src\hal/lv_hal_disp.c ****     driver->screen_transp    = 0;
 807              		.loc 1 93 0
 808 0020 227C     		ldrb	r2, [r4, #16]
 809 0022 0823     		movs	r3, #8
 810 0024 1343     		orrs	r3, r2
  94:..\..\..\arduinoLCD\test\Pain Drain\libraries\lvgl\src\hal/lv_hal_disp.c ****     driver->dpi              = LV_DPI_DEF;
 811              		.loc 1 94 0
 812 0026 DBB2     		uxtb	r3, r3
 813 0028 4022     		movs	r2, #64
 814 002a 9343     		bics	r3, r2
 815 002c 2374     		strb	r3, [r4, #16]
  95:..\..\..\arduinoLCD\test\Pain Drain\libraries\lvgl\src\hal/lv_hal_disp.c ****     driver->color_chroma_key = LV_COLOR_CHROMA_KEY;
 816              		.loc 1 95 0
 817 002e 084B     		ldr	r3, .L39
 818 0030 2269     		ldr	r2, [r4, #16]
 819 0032 1340     		ands	r3, r2
 820 0034 8222     		movs	r2, #130
 821 0036 D201     		lsls	r2, r2, #7
 822 0038 1343     		orrs	r3, r2
 823 003a 2361     		str	r3, [r4, #16]
 824              	.LVL106:
 825              	.LBB49:
 826              	.LBB50:
 586:c:\projects\paindrain\arduinolcd\test\pain drain\libraries\lvgl\src\misc\lv_color.h **** }
 587:c:\projects\paindrain\arduinolcd\test\pain drain\libraries\lvgl\src\misc\lv_color.h **** 
 588:c:\projects\paindrain\arduinolcd\test\pain drain\libraries\lvgl\src\misc\lv_color.h **** static inline lv_color_t lv_color_make(uint8_t r, uint8_t g, uint8_t b)
 589:c:\projects\paindrain\arduinolcd\test\pain drain\libraries\lvgl\src\misc\lv_color.h **** {
 590:c:\projects\paindrain\arduinolcd\test\pain drain\libraries\lvgl\src\misc\lv_color.h ****     return _LV_COLOR_MAKE_TYPE_HELPER LV_COLOR_MAKE(r, g, b);
 591:c:\projects\paindrain\arduinolcd\test\pain drain\libraries\lvgl\src\misc\lv_color.h **** }
 592:c:\projects\paindrain\arduinolcd\test\pain drain\libraries\lvgl\src\misc\lv_color.h **** 
 593:c:\projects\paindrain\arduinolcd\test\pain drain\libraries\lvgl\src\misc\lv_color.h **** static inline lv_color_t lv_color_hex(uint32_t c)
 594:c:\projects\paindrain\arduinolcd\test\pain drain\libraries\lvgl\src\misc\lv_color.h **** {
 595:c:\projects\paindrain\arduinolcd\test\pain drain\libraries\lvgl\src\misc\lv_color.h **** #if LV_COLOR_DEPTH == 16
 596:c:\projects\paindrain\arduinolcd\test\pain drain\libraries\lvgl\src\misc\lv_color.h ****     lv_color_t r;
 597:c:\projects\paindrain\arduinolcd\test\pain drain\libraries\lvgl\src\misc\lv_color.h **** #if LV_COLOR_16_SWAP == 0
 598:c:\projects\paindrain\arduinolcd\test\pain drain\libraries\lvgl\src\misc\lv_color.h ****     /* Convert a 4 bytes per pixel in format ARGB32 to R5G6B5 format
 599:c:\projects\paindrain\arduinolcd\test\pain drain\libraries\lvgl\src\misc\lv_color.h ****         naive way (by calling lv_color_make with components):
 600:c:\projects\paindrain\arduinolcd\test\pain drain\libraries\lvgl\src\misc\lv_color.h ****                     r = ((c & 0xFF0000) >> 19)
 601:c:\projects\paindrain\arduinolcd\test\pain drain\libraries\lvgl\src\misc\lv_color.h ****                     g = ((c & 0xFF00) >> 10)
 602:c:\projects\paindrain\arduinolcd\test\pain drain\libraries\lvgl\src\misc\lv_color.h ****                     b = ((c & 0xFF) >> 3)
 603:c:\projects\paindrain\arduinolcd\test\pain drain\libraries\lvgl\src\misc\lv_color.h ****                     rgb565 = (r << 11) | (g << 5) | b
 604:c:\projects\paindrain\arduinolcd\test\pain drain\libraries\lvgl\src\misc\lv_color.h ****         That's 3 mask, 5 bitshift and 2 or operations
 605:c:\projects\paindrain\arduinolcd\test\pain drain\libraries\lvgl\src\misc\lv_color.h **** 
 606:c:\projects\paindrain\arduinolcd\test\pain drain\libraries\lvgl\src\misc\lv_color.h ****         A bit better:
 607:c:\projects\paindrain\arduinolcd\test\pain drain\libraries\lvgl\src\misc\lv_color.h ****                     r = ((c & 0xF80000) >> 8)
 608:c:\projects\paindrain\arduinolcd\test\pain drain\libraries\lvgl\src\misc\lv_color.h ****                     g = ((c & 0xFC00) >> 5)
 609:c:\projects\paindrain\arduinolcd\test\pain drain\libraries\lvgl\src\misc\lv_color.h ****                     b = ((c & 0xFF) >> 3)
 610:c:\projects\paindrain\arduinolcd\test\pain drain\libraries\lvgl\src\misc\lv_color.h ****                     rgb565 = r | g | b
 611:c:\projects\paindrain\arduinolcd\test\pain drain\libraries\lvgl\src\misc\lv_color.h ****         That's 3 mask, 3 bitshifts and 2 or operations */
 612:c:\projects\paindrain\arduinolcd\test\pain drain\libraries\lvgl\src\misc\lv_color.h ****     r.full = (uint16_t)(((c & 0xF80000) >> 8) | ((c & 0xFC00) >> 5) | ((c & 0xFF) >> 3));
 827              		.loc 2 612 0
 828 003c FC23     		movs	r3, #252
 829 003e DB00     		lsls	r3, r3, #3
 830              	.LVL107:
 831              	.LBE50:
 832              	.LBE49:
  96:..\..\..\arduinoLCD\test\Pain Drain\libraries\lvgl\src\hal/lv_hal_disp.c **** 
ARM GAS  C:\Users\haske\AppData\Local\Temp\ccN8jSR9.s 			page 40


 833              		.loc 1 96 0
 834 0040 2387     		strh	r3, [r4, #56]
 124:..\..\..\arduinoLCD\test\Pain Drain\libraries\lvgl\src\hal/lv_hal_disp.c ****     driver->draw_ctx_deinit = lv_draw_sw_init_ctx;
 835              		.loc 1 124 0
 836 0042 044B     		ldr	r3, .L39+4
 837 0044 2364     		str	r3, [r4, #64]
 125:..\..\..\arduinoLCD\test\Pain Drain\libraries\lvgl\src\hal/lv_hal_disp.c ****     driver->draw_ctx_size = sizeof(lv_draw_sw_ctx_t);
 838              		.loc 1 125 0
 839 0046 6364     		str	r3, [r4, #68]
 126:..\..\..\arduinoLCD\test\Pain Drain\libraries\lvgl\src\hal/lv_hal_disp.c **** #endif
 840              		.loc 1 126 0
 841 0048 5823     		movs	r3, #88
 842 004a A364     		str	r3, [r4, #72]
 129:..\..\..\arduinoLCD\test\Pain Drain\libraries\lvgl\src\hal/lv_hal_disp.c **** 
 843              		.loc 1 129 0
 844              		@ sp needed
 845              	.LVL108:
 846 004c 10BD     		pop	{r4, pc}
 847              	.L40:
 848 004e C046     		.align	2
 849              	.L39:
 850 0050 7F00FEFF 		.word	-130945
 851 0054 00000000 		.word	lv_draw_sw_init_ctx
 852              		.cfi_endproc
 853              	.LFE159:
 854              		.size	lv_disp_drv_init, .-lv_disp_drv_init
 855              		.section	.text.lv_disp_draw_buf_init,"ax",%progbits
 856              		.align	2
 857              		.global	lv_disp_draw_buf_init
 858              		.code	16
 859              		.thumb_func
 860              		.type	lv_disp_draw_buf_init, %function
 861              	lv_disp_draw_buf_init:
 862              	.LFB160:
 147:..\..\..\arduinoLCD\test\Pain Drain\libraries\lvgl\src\hal/lv_hal_disp.c ****     lv_memset_00(draw_buf, sizeof(lv_disp_draw_buf_t));
 863              		.loc 1 147 0
 864              		.cfi_startproc
 865              		@ args = 0, pretend = 0, frame = 0
 866              		@ frame_needed = 0, uses_anonymous_args = 0
 867              	.LVL109:
 868 0000 F8B5     		push	{r3, r4, r5, r6, r7, lr}
 869              		.cfi_def_cfa_offset 24
 870              		.cfi_offset 3, -24
 871              		.cfi_offset 4, -20
 872              		.cfi_offset 5, -16
 873              		.cfi_offset 6, -12
 874              		.cfi_offset 7, -8
 875              		.cfi_offset 14, -4
 876 0002 0400     		movs	r4, r0
 877 0004 0D00     		movs	r5, r1
 878 0006 1700     		movs	r7, r2
 879 0008 1E00     		movs	r6, r3
 148:..\..\..\arduinoLCD\test\Pain Drain\libraries\lvgl\src\hal/lv_hal_disp.c **** 
 880              		.loc 1 148 0
 881 000a 1C21     		movs	r1, #28
 882              	.LVL110:
 883 000c FFF7FEFF 		bl	lv_memset_00
ARM GAS  C:\Users\haske\AppData\Local\Temp\ccN8jSR9.s 			page 41


 884              	.LVL111:
 150:..\..\..\arduinoLCD\test\Pain Drain\libraries\lvgl\src\hal/lv_hal_disp.c ****     draw_buf->buf2    = buf2;
 885              		.loc 1 150 0
 886 0010 2560     		str	r5, [r4]
 151:..\..\..\arduinoLCD\test\Pain Drain\libraries\lvgl\src\hal/lv_hal_disp.c ****     draw_buf->buf_act = draw_buf->buf1;
 887              		.loc 1 151 0
 888 0012 6760     		str	r7, [r4, #4]
 152:..\..\..\arduinoLCD\test\Pain Drain\libraries\lvgl\src\hal/lv_hal_disp.c ****     draw_buf->size    = size_in_px_cnt;
 889              		.loc 1 152 0
 890 0014 A560     		str	r5, [r4, #8]
 153:..\..\..\arduinoLCD\test\Pain Drain\libraries\lvgl\src\hal/lv_hal_disp.c **** }
 891              		.loc 1 153 0
 892 0016 E660     		str	r6, [r4, #12]
 154:..\..\..\arduinoLCD\test\Pain Drain\libraries\lvgl\src\hal/lv_hal_disp.c **** 
 893              		.loc 1 154 0
 894              		@ sp needed
 895              	.LVL112:
 896              	.LVL113:
 897              	.LVL114:
 898              	.LVL115:
 899 0018 F8BD     		pop	{r3, r4, r5, r6, r7, pc}
 900              		.cfi_endproc
 901              	.LFE160:
 902              		.size	lv_disp_draw_buf_init, .-lv_disp_draw_buf_init
 903 001a C046     		.section	.text.lv_disp_drv_register,"ax",%progbits
 904              		.align	2
 905              		.global	lv_disp_drv_register
 906              		.code	16
 907              		.thumb_func
 908              		.type	lv_disp_drv_register, %function
 909              	lv_disp_drv_register:
 910              	.LFB161:
 163:..\..\..\arduinoLCD\test\Pain Drain\libraries\lvgl\src\hal/lv_hal_disp.c ****     lv_disp_t * disp = _lv_ll_ins_head(&LV_GC_ROOT(_lv_disp_ll));
 911              		.loc 1 163 0
 912              		.cfi_startproc
 913              		@ args = 0, pretend = 0, frame = 0
 914              		@ frame_needed = 0, uses_anonymous_args = 0
 915              	.LVL116:
 916 0000 70B5     		push	{r4, r5, r6, lr}
 917              		.cfi_def_cfa_offset 16
 918              		.cfi_offset 4, -16
 919              		.cfi_offset 5, -12
 920              		.cfi_offset 6, -8
 921              		.cfi_offset 14, -4
 922 0002 82B0     		sub	sp, sp, #8
 923              		.cfi_def_cfa_offset 24
 924 0004 0500     		movs	r5, r0
 164:..\..\..\arduinoLCD\test\Pain Drain\libraries\lvgl\src\hal/lv_hal_disp.c ****     LV_ASSERT_MALLOC(disp);
 925              		.loc 1 164 0
 926 0006 5148     		ldr	r0, .L58
 927              	.LVL117:
 928 0008 FFF7FEFF 		bl	_lv_ll_ins_head
 929              	.LVL118:
 930 000c 041E     		subs	r4, r0, #0
 931              	.LVL119:
 165:..\..\..\arduinoLCD\test\Pain Drain\libraries\lvgl\src\hal/lv_hal_disp.c ****     if(!disp) {
 932              		.loc 1 165 0
ARM GAS  C:\Users\haske\AppData\Local\Temp\ccN8jSR9.s 			page 42


 933 000e 00D1     		bne	.L43
 934              	.L44:
 935 0010 FEE7     		b	.L44
 936              	.L43:
 166:..\..\..\arduinoLCD\test\Pain Drain\libraries\lvgl\src\hal/lv_hal_disp.c ****         return NULL;
 937              		.loc 1 166 0
 938 0012 0028     		cmp	r0, #0
 939 0014 00D1     		bne	.LCB958
 940 0016 93E0     		b	.L56	@long jump
 941              	.LCB958:
 171:..\..\..\arduinoLCD\test\Pain Drain\libraries\lvgl\src\hal/lv_hal_disp.c ****         lv_draw_ctx_t * draw_ctx = lv_mem_alloc(driver->draw_ctx_size);
 942              		.loc 1 171 0
 943 0018 EB6B     		ldr	r3, [r5, #60]
 944 001a 002B     		cmp	r3, #0
 945 001c 0DD1     		bne	.L46
 946              	.LBB51:
 172:..\..\..\arduinoLCD\test\Pain Drain\libraries\lvgl\src\hal/lv_hal_disp.c ****         LV_ASSERT_MALLOC(draw_ctx);
 947              		.loc 1 172 0
 948 001e A86C     		ldr	r0, [r5, #72]
 949              	.LVL120:
 950 0020 FFF7FEFF 		bl	lv_mem_alloc
 951              	.LVL121:
 952 0024 061E     		subs	r6, r0, #0
 953              	.LVL122:
 173:..\..\..\arduinoLCD\test\Pain Drain\libraries\lvgl\src\hal/lv_hal_disp.c ****         if(draw_ctx == NULL) return NULL;
 954              		.loc 1 173 0
 955 0026 00D1     		bne	.L47
 956              	.L48:
 957 0028 FEE7     		b	.L48
 958              	.L47:
 174:..\..\..\arduinoLCD\test\Pain Drain\libraries\lvgl\src\hal/lv_hal_disp.c ****         driver->draw_ctx_init(driver, draw_ctx);
 959              		.loc 1 174 0
 960 002a 0028     		cmp	r0, #0
 961 002c 00D1     		bne	.LCB979
 962 002e 89E0     		b	.L57	@long jump
 963              	.LCB979:
 175:..\..\..\arduinoLCD\test\Pain Drain\libraries\lvgl\src\hal/lv_hal_disp.c ****         driver->draw_ctx = draw_ctx;
 964              		.loc 1 175 0
 965 0030 0100     		movs	r1, r0
 966 0032 2800     		movs	r0, r5
 967              	.LVL123:
 968 0034 2B6C     		ldr	r3, [r5, #64]
 969 0036 9847     		blx	r3
 970              	.LVL124:
 176:..\..\..\arduinoLCD\test\Pain Drain\libraries\lvgl\src\hal/lv_hal_disp.c ****     }
 971              		.loc 1 176 0
 972 0038 EE63     		str	r6, [r5, #60]
 973              	.LVL125:
 974              	.L46:
 975              	.LBE51:
 179:..\..\..\arduinoLCD\test\Pain Drain\libraries\lvgl\src\hal/lv_hal_disp.c **** 
 976              		.loc 1 179 0
 977 003a AE21     		movs	r1, #174
 978 003c 4900     		lsls	r1, r1, #1
 979 003e 2000     		movs	r0, r4
 980 0040 FFF7FEFF 		bl	lv_memset_00
 981              	.LVL126:
ARM GAS  C:\Users\haske\AppData\Local\Temp\ccN8jSR9.s 			page 43


 181:..\..\..\arduinoLCD\test\Pain Drain\libraries\lvgl\src\hal/lv_hal_disp.c **** 
 982              		.loc 1 181 0
 983 0044 2560     		str	r5, [r4]
 183:..\..\..\arduinoLCD\test\Pain Drain\libraries\lvgl\src\hal/lv_hal_disp.c **** 
 984              		.loc 1 183 0
 985 0046 0122     		movs	r2, #1
 986 0048 AA23     		movs	r3, #170
 987 004a 5B00     		lsls	r3, r3, #1
 988 004c E250     		str	r2, [r4, r3]
 185:..\..\..\arduinoLCD\test\Pain Drain\libraries\lvgl\src\hal/lv_hal_disp.c ****     disp_def                 = disp; /*Temporarily change the default screen to create the default 
 989              		.loc 1 185 0
 990 004e 404B     		ldr	r3, .L58+4
 991 0050 1E69     		ldr	r6, [r3, #16]
 992              	.LVL127:
 186:..\..\..\arduinoLCD\test\Pain Drain\libraries\lvgl\src\hal/lv_hal_disp.c ****                                         new display*/
 993              		.loc 1 186 0
 994 0052 1C61     		str	r4, [r3, #16]
 189:..\..\..\arduinoLCD\test\Pain Drain\libraries\lvgl\src\hal/lv_hal_disp.c ****     LV_ASSERT_MALLOC(disp->refr_timer);
 995              		.loc 1 189 0
 996 0054 2200     		movs	r2, r4
 997 0056 1E21     		movs	r1, #30
 998 0058 3E48     		ldr	r0, .L58+8
 999 005a FFF7FEFF 		bl	lv_timer_create
 1000              	.LVL128:
 1001 005e 6060     		str	r0, [r4, #4]
 190:..\..\..\arduinoLCD\test\Pain Drain\libraries\lvgl\src\hal/lv_hal_disp.c ****     if(disp->refr_timer == NULL) {
 1002              		.loc 1 190 0
 1003 0060 0028     		cmp	r0, #0
 1004 0062 00D1     		bne	.L49
 1005              	.L50:
 1006 0064 FEE7     		b	.L50
 1007              	.L49:
 191:..\..\..\arduinoLCD\test\Pain Drain\libraries\lvgl\src\hal/lv_hal_disp.c ****         lv_mem_free(disp);
 1008              		.loc 1 191 0
 1009 0066 0028     		cmp	r0, #0
 1010 0068 04D1     		bne	.L51
 192:..\..\..\arduinoLCD\test\Pain Drain\libraries\lvgl\src\hal/lv_hal_disp.c ****         return NULL;
 1011              		.loc 1 192 0
 1012 006a 2000     		movs	r0, r4
 1013 006c FFF7FEFF 		bl	lv_mem_free
 1014              	.LVL129:
 193:..\..\..\arduinoLCD\test\Pain Drain\libraries\lvgl\src\hal/lv_hal_disp.c ****     }
 1015              		.loc 1 193 0
 1016 0070 0020     		movs	r0, #0
 1017 0072 68E0     		b	.L45
 1018              	.L51:
 196:..\..\..\arduinoLCD\test\Pain Drain\libraries\lvgl\src\hal/lv_hal_disp.c ****         driver->full_refresh = 0;
 1019              		.loc 1 196 0
 1020 0074 2B7C     		ldrb	r3, [r5, #16]
 1021 0076 9B07     		lsls	r3, r3, #30
 1022 0078 0CD5     		bpl	.L52
 196:..\..\..\arduinoLCD\test\Pain Drain\libraries\lvgl\src\hal/lv_hal_disp.c ****         driver->full_refresh = 0;
 1023              		.loc 1 196 0 is_stmt 0 discriminator 1
 1024 007a EB68     		ldr	r3, [r5, #12]
 1025 007c DA68     		ldr	r2, [r3, #12]
 1026 007e 0021     		movs	r1, #0
 1027 0080 6B5E     		ldrsh	r3, [r5, r1]
ARM GAS  C:\Users\haske\AppData\Local\Temp\ccN8jSR9.s 			page 44


 1028 0082 0220     		movs	r0, #2
 1029 0084 295E     		ldrsh	r1, [r5, r0]
 1030 0086 4B43     		muls	r3, r1
 1031 0088 9A42     		cmp	r2, r3
 1032 008a 03D2     		bcs	.L52
 197:..\..\..\arduinoLCD\test\Pain Drain\libraries\lvgl\src\hal/lv_hal_disp.c ****         LV_LOG_WARN("full_refresh requires at least screen sized draw buffer(s)");
 1033              		.loc 1 197 0 is_stmt 1
 1034 008c 2B7C     		ldrb	r3, [r5, #16]
 1035 008e 0222     		movs	r2, #2
 1036 0090 9343     		bics	r3, r2
 1037 0092 2B74     		strb	r3, [r5, #16]
 1038              	.L52:
 1039              	.LVL130:
 1040              	.LBB52:
 1041              	.LBB53:
 1042              	.LBB54:
 590:c:\projects\paindrain\arduinolcd\test\pain drain\libraries\lvgl\src\misc\lv_color.h **** }
 1043              		.loc 2 590 0
 1044 0094 FC22     		movs	r2, #252
 1045 0096 D200     		lsls	r2, r2, #3
 1046 0098 1F23     		movs	r3, #31
 1047 009a 1343     		orrs	r3, r2
 1048 009c 2E4A     		ldr	r2, .L58+12
 1049 009e 1343     		orrs	r3, r2
 1050              	.LVL131:
 1051              	.LBE54:
 1052              	.LBE53:
 1053              	.LBE52:
 201:..\..\..\arduinoLCD\test\Pain Drain\libraries\lvgl\src\hal/lv_hal_disp.c **** #if LV_COLOR_SCREEN_TRANSP
 1054              		.loc 1 201 0
 1055 00a0 6385     		strh	r3, [r4, #42]
 205:..\..\..\arduinoLCD\test\Pain Drain\libraries\lvgl\src\hal/lv_hal_disp.c **** #endif
 1056              		.loc 1 205 0
 1057 00a2 FF22     		movs	r2, #255
 1058 00a4 2923     		movs	r3, #41
 1059 00a6 E254     		strb	r2, [r4, r3]
 209:..\..\..\arduinoLCD\test\Pain Drain\libraries\lvgl\src\hal/lv_hal_disp.c ****         disp->theme = lv_theme_default_init(disp, lv_palette_main(LV_PALETTE_BLUE), lv_palette_main
 1060              		.loc 1 209 0
 1061 00a8 FFF7FEFF 		bl	lv_theme_default_is_inited
 1062              	.LVL132:
 1063 00ac 0028     		cmp	r0, #0
 1064 00ae 10D1     		bne	.L53
 210:..\..\..\arduinoLCD\test\Pain Drain\libraries\lvgl\src\hal/lv_hal_disp.c ****                                             LV_THEME_DEFAULT_DARK, LV_FONT_DEFAULT);
 1065              		.loc 1 210 0
 1066 00b0 0530     		adds	r0, r0, #5
 1067 00b2 FFF7FEFF 		bl	lv_palette_main
 1068              	.LVL133:
 1069 00b6 051C     		adds	r5, r0, #0
 1070              	.LVL134:
 1071 00b8 0020     		movs	r0, #0
 1072 00ba FFF7FEFF 		bl	lv_palette_main
 1073              	.LVL135:
 1074 00be 021C     		adds	r2, r0, #0
 1075 00c0 264B     		ldr	r3, .L58+16
 1076 00c2 0093     		str	r3, [sp]
 1077 00c4 0023     		movs	r3, #0
 1078 00c6 291C     		adds	r1, r5, #0
ARM GAS  C:\Users\haske\AppData\Local\Temp\ccN8jSR9.s 			page 45


 1079 00c8 2000     		movs	r0, r4
 1080 00ca FFF7FEFF 		bl	lv_theme_default_init
 1081              	.LVL136:
 1082 00ce A060     		str	r0, [r4, #8]
 1083 00d0 02E0     		b	.L54
 1084              	.LVL137:
 1085              	.L53:
 214:..\..\..\arduinoLCD\test\Pain Drain\libraries\lvgl\src\hal/lv_hal_disp.c ****     }
 1086              		.loc 1 214 0
 1087 00d2 FFF7FEFF 		bl	lv_theme_default_get
 1088              	.LVL138:
 1089 00d6 A060     		str	r0, [r4, #8]
 1090              	.LVL139:
 1091              	.L54:
 218:..\..\..\arduinoLCD\test\Pain Drain\libraries\lvgl\src\hal/lv_hal_disp.c ****     disp->top_layer = lv_obj_create(NULL); /*Create top layer on the display*/
 1092              		.loc 1 218 0
 1093 00d8 0020     		movs	r0, #0
 1094 00da FFF7FEFF 		bl	lv_obj_create
 1095              	.LVL140:
 1096 00de 2061     		str	r0, [r4, #16]
 219:..\..\..\arduinoLCD\test\Pain Drain\libraries\lvgl\src\hal/lv_hal_disp.c ****     disp->sys_layer = lv_obj_create(NULL); /*Create sys layer on the display*/
 1097              		.loc 1 219 0
 1098 00e0 0020     		movs	r0, #0
 1099 00e2 FFF7FEFF 		bl	lv_obj_create
 1100              	.LVL141:
 1101 00e6 E061     		str	r0, [r4, #28]
 220:..\..\..\arduinoLCD\test\Pain Drain\libraries\lvgl\src\hal/lv_hal_disp.c ****     lv_obj_remove_style_all(disp->top_layer);
 1102              		.loc 1 220 0
 1103 00e8 0020     		movs	r0, #0
 1104 00ea FFF7FEFF 		bl	lv_obj_create
 1105              	.LVL142:
 1106 00ee 2062     		str	r0, [r4, #32]
 1107              	.LVL143:
 1108              	.LBB55:
 1109              	.LBB56:
 1110              		.file 3 "..\\..\\..\\arduinoLCD\\test\\Pain Drain\\libraries\\lvgl\\src\\hal\\../core/lv_obj_style
   1:..\..\..\arduinoLCD\test\Pain Drain\libraries\lvgl\src\hal\../core/lv_obj_style.h **** /**
   2:..\..\..\arduinoLCD\test\Pain Drain\libraries\lvgl\src\hal\../core/lv_obj_style.h ****  * @file lv_obj_style.h
   3:..\..\..\arduinoLCD\test\Pain Drain\libraries\lvgl\src\hal\../core/lv_obj_style.h ****  *
   4:..\..\..\arduinoLCD\test\Pain Drain\libraries\lvgl\src\hal\../core/lv_obj_style.h ****  */
   5:..\..\..\arduinoLCD\test\Pain Drain\libraries\lvgl\src\hal\../core/lv_obj_style.h **** 
   6:..\..\..\arduinoLCD\test\Pain Drain\libraries\lvgl\src\hal\../core/lv_obj_style.h **** #ifndef LV_OBJ_STYLE_H
   7:..\..\..\arduinoLCD\test\Pain Drain\libraries\lvgl\src\hal\../core/lv_obj_style.h **** #define LV_OBJ_STYLE_H
   8:..\..\..\arduinoLCD\test\Pain Drain\libraries\lvgl\src\hal\../core/lv_obj_style.h **** 
   9:..\..\..\arduinoLCD\test\Pain Drain\libraries\lvgl\src\hal\../core/lv_obj_style.h **** #ifdef __cplusplus
  10:..\..\..\arduinoLCD\test\Pain Drain\libraries\lvgl\src\hal\../core/lv_obj_style.h **** extern "C" {
  11:..\..\..\arduinoLCD\test\Pain Drain\libraries\lvgl\src\hal\../core/lv_obj_style.h **** #endif
  12:..\..\..\arduinoLCD\test\Pain Drain\libraries\lvgl\src\hal\../core/lv_obj_style.h **** 
  13:..\..\..\arduinoLCD\test\Pain Drain\libraries\lvgl\src\hal\../core/lv_obj_style.h **** /*********************
  14:..\..\..\arduinoLCD\test\Pain Drain\libraries\lvgl\src\hal\../core/lv_obj_style.h ****  *      INCLUDES
  15:..\..\..\arduinoLCD\test\Pain Drain\libraries\lvgl\src\hal\../core/lv_obj_style.h ****  *********************/
  16:..\..\..\arduinoLCD\test\Pain Drain\libraries\lvgl\src\hal\../core/lv_obj_style.h **** #include <stdint.h>
  17:..\..\..\arduinoLCD\test\Pain Drain\libraries\lvgl\src\hal\../core/lv_obj_style.h **** #include <stdbool.h>
  18:..\..\..\arduinoLCD\test\Pain Drain\libraries\lvgl\src\hal\../core/lv_obj_style.h **** #include "../misc/lv_bidi.h"
  19:..\..\..\arduinoLCD\test\Pain Drain\libraries\lvgl\src\hal\../core/lv_obj_style.h **** 
  20:..\..\..\arduinoLCD\test\Pain Drain\libraries\lvgl\src\hal\../core/lv_obj_style.h **** /*********************
  21:..\..\..\arduinoLCD\test\Pain Drain\libraries\lvgl\src\hal\../core/lv_obj_style.h ****  *      DEFINES
ARM GAS  C:\Users\haske\AppData\Local\Temp\ccN8jSR9.s 			page 46


  22:..\..\..\arduinoLCD\test\Pain Drain\libraries\lvgl\src\hal\../core/lv_obj_style.h ****  *********************/
  23:..\..\..\arduinoLCD\test\Pain Drain\libraries\lvgl\src\hal\../core/lv_obj_style.h **** 
  24:..\..\..\arduinoLCD\test\Pain Drain\libraries\lvgl\src\hal\../core/lv_obj_style.h **** /**********************
  25:..\..\..\arduinoLCD\test\Pain Drain\libraries\lvgl\src\hal\../core/lv_obj_style.h ****  *      TYPEDEFS
  26:..\..\..\arduinoLCD\test\Pain Drain\libraries\lvgl\src\hal\../core/lv_obj_style.h ****  **********************/
  27:..\..\..\arduinoLCD\test\Pain Drain\libraries\lvgl\src\hal\../core/lv_obj_style.h **** /*Can't include lv_obj.h because it includes this header file*/
  28:..\..\..\arduinoLCD\test\Pain Drain\libraries\lvgl\src\hal\../core/lv_obj_style.h **** struct _lv_obj_t;
  29:..\..\..\arduinoLCD\test\Pain Drain\libraries\lvgl\src\hal\../core/lv_obj_style.h **** 
  30:..\..\..\arduinoLCD\test\Pain Drain\libraries\lvgl\src\hal\../core/lv_obj_style.h **** typedef enum {
  31:..\..\..\arduinoLCD\test\Pain Drain\libraries\lvgl\src\hal\../core/lv_obj_style.h ****     _LV_STYLE_STATE_CMP_SAME,           /*The style properties in the 2 states are identical*/
  32:..\..\..\arduinoLCD\test\Pain Drain\libraries\lvgl\src\hal\../core/lv_obj_style.h ****     _LV_STYLE_STATE_CMP_DIFF_REDRAW,    /*The differences can be shown with a simple redraw*/
  33:..\..\..\arduinoLCD\test\Pain Drain\libraries\lvgl\src\hal\../core/lv_obj_style.h ****     _LV_STYLE_STATE_CMP_DIFF_DRAW_PAD,  /*The differences can be shown with a simple redraw*/
  34:..\..\..\arduinoLCD\test\Pain Drain\libraries\lvgl\src\hal\../core/lv_obj_style.h ****     _LV_STYLE_STATE_CMP_DIFF_LAYOUT,    /*The differences can be shown with a simple redraw*/
  35:..\..\..\arduinoLCD\test\Pain Drain\libraries\lvgl\src\hal\../core/lv_obj_style.h **** } _lv_style_state_cmp_t;
  36:..\..\..\arduinoLCD\test\Pain Drain\libraries\lvgl\src\hal\../core/lv_obj_style.h **** 
  37:..\..\..\arduinoLCD\test\Pain Drain\libraries\lvgl\src\hal\../core/lv_obj_style.h **** typedef uint32_t lv_style_selector_t;
  38:..\..\..\arduinoLCD\test\Pain Drain\libraries\lvgl\src\hal\../core/lv_obj_style.h **** 
  39:..\..\..\arduinoLCD\test\Pain Drain\libraries\lvgl\src\hal\../core/lv_obj_style.h **** typedef struct {
  40:..\..\..\arduinoLCD\test\Pain Drain\libraries\lvgl\src\hal\../core/lv_obj_style.h ****     lv_style_t * style;
  41:..\..\..\arduinoLCD\test\Pain Drain\libraries\lvgl\src\hal\../core/lv_obj_style.h ****     uint32_t selector : 24;
  42:..\..\..\arduinoLCD\test\Pain Drain\libraries\lvgl\src\hal\../core/lv_obj_style.h ****     uint32_t is_local : 1;
  43:..\..\..\arduinoLCD\test\Pain Drain\libraries\lvgl\src\hal\../core/lv_obj_style.h ****     uint32_t is_trans : 1;
  44:..\..\..\arduinoLCD\test\Pain Drain\libraries\lvgl\src\hal\../core/lv_obj_style.h **** } _lv_obj_style_t;
  45:..\..\..\arduinoLCD\test\Pain Drain\libraries\lvgl\src\hal\../core/lv_obj_style.h **** 
  46:..\..\..\arduinoLCD\test\Pain Drain\libraries\lvgl\src\hal\../core/lv_obj_style.h **** typedef struct {
  47:..\..\..\arduinoLCD\test\Pain Drain\libraries\lvgl\src\hal\../core/lv_obj_style.h ****     uint16_t time;
  48:..\..\..\arduinoLCD\test\Pain Drain\libraries\lvgl\src\hal\../core/lv_obj_style.h ****     uint16_t delay;
  49:..\..\..\arduinoLCD\test\Pain Drain\libraries\lvgl\src\hal\../core/lv_obj_style.h ****     lv_style_selector_t selector;
  50:..\..\..\arduinoLCD\test\Pain Drain\libraries\lvgl\src\hal\../core/lv_obj_style.h ****     lv_style_prop_t prop;
  51:..\..\..\arduinoLCD\test\Pain Drain\libraries\lvgl\src\hal\../core/lv_obj_style.h ****     lv_anim_path_cb_t path_cb;
  52:..\..\..\arduinoLCD\test\Pain Drain\libraries\lvgl\src\hal\../core/lv_obj_style.h **** #if LV_USE_USER_DATA
  53:..\..\..\arduinoLCD\test\Pain Drain\libraries\lvgl\src\hal\../core/lv_obj_style.h ****     void * user_data;
  54:..\..\..\arduinoLCD\test\Pain Drain\libraries\lvgl\src\hal\../core/lv_obj_style.h **** #endif
  55:..\..\..\arduinoLCD\test\Pain Drain\libraries\lvgl\src\hal\../core/lv_obj_style.h **** } _lv_obj_style_transition_dsc_t;
  56:..\..\..\arduinoLCD\test\Pain Drain\libraries\lvgl\src\hal\../core/lv_obj_style.h **** 
  57:..\..\..\arduinoLCD\test\Pain Drain\libraries\lvgl\src\hal\../core/lv_obj_style.h **** /**********************
  58:..\..\..\arduinoLCD\test\Pain Drain\libraries\lvgl\src\hal\../core/lv_obj_style.h ****  * GLOBAL PROTOTYPES
  59:..\..\..\arduinoLCD\test\Pain Drain\libraries\lvgl\src\hal\../core/lv_obj_style.h ****  **********************/
  60:..\..\..\arduinoLCD\test\Pain Drain\libraries\lvgl\src\hal\../core/lv_obj_style.h **** 
  61:..\..\..\arduinoLCD\test\Pain Drain\libraries\lvgl\src\hal\../core/lv_obj_style.h **** /**
  62:..\..\..\arduinoLCD\test\Pain Drain\libraries\lvgl\src\hal\../core/lv_obj_style.h ****  * Initialize the object related style manager module.
  63:..\..\..\arduinoLCD\test\Pain Drain\libraries\lvgl\src\hal\../core/lv_obj_style.h ****  * Called by LVGL in `lv_init()`
  64:..\..\..\arduinoLCD\test\Pain Drain\libraries\lvgl\src\hal\../core/lv_obj_style.h ****  */
  65:..\..\..\arduinoLCD\test\Pain Drain\libraries\lvgl\src\hal\../core/lv_obj_style.h **** void _lv_obj_style_init(void);
  66:..\..\..\arduinoLCD\test\Pain Drain\libraries\lvgl\src\hal\../core/lv_obj_style.h **** 
  67:..\..\..\arduinoLCD\test\Pain Drain\libraries\lvgl\src\hal\../core/lv_obj_style.h **** /**
  68:..\..\..\arduinoLCD\test\Pain Drain\libraries\lvgl\src\hal\../core/lv_obj_style.h ****  * Add a style to an object.
  69:..\..\..\arduinoLCD\test\Pain Drain\libraries\lvgl\src\hal\../core/lv_obj_style.h ****  * @param obj       pointer to an object
  70:..\..\..\arduinoLCD\test\Pain Drain\libraries\lvgl\src\hal\../core/lv_obj_style.h ****  * @param style     pointer to a style to add
  71:..\..\..\arduinoLCD\test\Pain Drain\libraries\lvgl\src\hal\../core/lv_obj_style.h ****  * @param selector  OR-ed value of parts and state to which the style should be added
  72:..\..\..\arduinoLCD\test\Pain Drain\libraries\lvgl\src\hal\../core/lv_obj_style.h ****  * @example         lv_obj_add_style(btn, &style_btn, 0); //Default button style
  73:..\..\..\arduinoLCD\test\Pain Drain\libraries\lvgl\src\hal\../core/lv_obj_style.h ****  * @example         lv_obj_add_style(btn, &btn_red, LV_STATE_PRESSED); //Overwrite only some colors
  74:..\..\..\arduinoLCD\test\Pain Drain\libraries\lvgl\src\hal\../core/lv_obj_style.h ****  */
  75:..\..\..\arduinoLCD\test\Pain Drain\libraries\lvgl\src\hal\../core/lv_obj_style.h **** void lv_obj_add_style(struct _lv_obj_t * obj, lv_style_t * style, lv_style_selector_t selector);
  76:..\..\..\arduinoLCD\test\Pain Drain\libraries\lvgl\src\hal\../core/lv_obj_style.h **** 
  77:..\..\..\arduinoLCD\test\Pain Drain\libraries\lvgl\src\hal\../core/lv_obj_style.h **** /**
  78:..\..\..\arduinoLCD\test\Pain Drain\libraries\lvgl\src\hal\../core/lv_obj_style.h ****  * Add a style to an object.
ARM GAS  C:\Users\haske\AppData\Local\Temp\ccN8jSR9.s 			page 47


  79:..\..\..\arduinoLCD\test\Pain Drain\libraries\lvgl\src\hal\../core/lv_obj_style.h ****  * @param obj       pointer to an object
  80:..\..\..\arduinoLCD\test\Pain Drain\libraries\lvgl\src\hal\../core/lv_obj_style.h ****  * @param style     pointer to a style to remove. Can be NULL to check only the selector
  81:..\..\..\arduinoLCD\test\Pain Drain\libraries\lvgl\src\hal\../core/lv_obj_style.h ****  * @param selector  OR-ed values of states and a part to remove only styles with matching selectors
  82:..\..\..\arduinoLCD\test\Pain Drain\libraries\lvgl\src\hal\../core/lv_obj_style.h ****  * @example lv_obj_remove_style(obj, &style, LV_PART_ANY | LV_STATE_ANY); //Remove a specific style
  83:..\..\..\arduinoLCD\test\Pain Drain\libraries\lvgl\src\hal\../core/lv_obj_style.h ****  * @example lv_obj_remove_style(obj, NULL, LV_PART_MAIN | LV_STATE_ANY); //Remove all styles from t
  84:..\..\..\arduinoLCD\test\Pain Drain\libraries\lvgl\src\hal\../core/lv_obj_style.h ****  * @example lv_obj_remove_style(obj, NULL, LV_PART_ANY | LV_STATE_ANY); //Remove all styles
  85:..\..\..\arduinoLCD\test\Pain Drain\libraries\lvgl\src\hal\../core/lv_obj_style.h ****  */
  86:..\..\..\arduinoLCD\test\Pain Drain\libraries\lvgl\src\hal\../core/lv_obj_style.h **** void lv_obj_remove_style(struct _lv_obj_t * obj, lv_style_t * style, lv_style_selector_t selector);
  87:..\..\..\arduinoLCD\test\Pain Drain\libraries\lvgl\src\hal\../core/lv_obj_style.h **** 
  88:..\..\..\arduinoLCD\test\Pain Drain\libraries\lvgl\src\hal\../core/lv_obj_style.h **** /**
  89:..\..\..\arduinoLCD\test\Pain Drain\libraries\lvgl\src\hal\../core/lv_obj_style.h ****  * Remove all styles from an object
  90:..\..\..\arduinoLCD\test\Pain Drain\libraries\lvgl\src\hal\../core/lv_obj_style.h ****  * @param obj       pointer to an object
  91:..\..\..\arduinoLCD\test\Pain Drain\libraries\lvgl\src\hal\../core/lv_obj_style.h ****  */
  92:..\..\..\arduinoLCD\test\Pain Drain\libraries\lvgl\src\hal\../core/lv_obj_style.h **** static inline void lv_obj_remove_style_all(struct _lv_obj_t * obj)
  93:..\..\..\arduinoLCD\test\Pain Drain\libraries\lvgl\src\hal\../core/lv_obj_style.h **** {
  94:..\..\..\arduinoLCD\test\Pain Drain\libraries\lvgl\src\hal\../core/lv_obj_style.h ****     lv_obj_remove_style(obj, NULL, LV_PART_ANY | LV_STATE_ANY);
 1111              		.loc 3 94 0
 1112 00f0 1B4D     		ldr	r5, .L58+20
 1113 00f2 2A00     		movs	r2, r5
 1114 00f4 0021     		movs	r1, #0
 1115 00f6 E069     		ldr	r0, [r4, #28]
 1116 00f8 FFF7FEFF 		bl	lv_obj_remove_style
 1117              	.LVL144:
 1118              	.LBE56:
 1119              	.LBE55:
 1120              	.LBB57:
 1121              	.LBB58:
 1122 00fc 2A00     		movs	r2, r5
 1123 00fe 0021     		movs	r1, #0
 1124 0100 206A     		ldr	r0, [r4, #32]
 1125 0102 FFF7FEFF 		bl	lv_obj_remove_style
 1126              	.LVL145:
 1127              	.LBE58:
 1128              	.LBE57:
 223:..\..\..\arduinoLCD\test\Pain Drain\libraries\lvgl\src\hal/lv_hal_disp.c ****     lv_obj_clear_flag(disp->sys_layer, LV_OBJ_FLAG_CLICKABLE);
 1129              		.loc 1 223 0
 1130 0106 0221     		movs	r1, #2
 1131 0108 E069     		ldr	r0, [r4, #28]
 1132 010a FFF7FEFF 		bl	lv_obj_clear_flag
 1133              	.LVL146:
 224:..\..\..\arduinoLCD\test\Pain Drain\libraries\lvgl\src\hal/lv_hal_disp.c **** 
 1134              		.loc 1 224 0
 1135 010e 0221     		movs	r1, #2
 1136 0110 206A     		ldr	r0, [r4, #32]
 1137 0112 FFF7FEFF 		bl	lv_obj_clear_flag
 1138              	.LVL147:
 226:..\..\..\arduinoLCD\test\Pain Drain\libraries\lvgl\src\hal/lv_hal_disp.c ****     lv_obj_set_scrollbar_mode(disp->sys_layer, LV_SCROLLBAR_MODE_OFF);
 1139              		.loc 1 226 0
 1140 0116 0021     		movs	r1, #0
 1141 0118 E069     		ldr	r0, [r4, #28]
 1142 011a FFF7FEFF 		bl	lv_obj_set_scrollbar_mode
 1143              	.LVL148:
 227:..\..\..\arduinoLCD\test\Pain Drain\libraries\lvgl\src\hal/lv_hal_disp.c **** 
 1144              		.loc 1 227 0
 1145 011e 0021     		movs	r1, #0
 1146 0120 206A     		ldr	r0, [r4, #32]
 1147 0122 FFF7FEFF 		bl	lv_obj_set_scrollbar_mode
ARM GAS  C:\Users\haske\AppData\Local\Temp\ccN8jSR9.s 			page 48


 1148              	.LVL149:
 229:..\..\..\arduinoLCD\test\Pain Drain\libraries\lvgl\src\hal/lv_hal_disp.c **** 
 1149              		.loc 1 229 0
 1150 0126 2069     		ldr	r0, [r4, #16]
 1151 0128 FFF7FEFF 		bl	lv_obj_invalidate
 1152              	.LVL150:
 231:..\..\..\arduinoLCD\test\Pain Drain\libraries\lvgl\src\hal/lv_hal_disp.c ****     if(disp_def == NULL) disp_def = disp; /*Initialize the default display*/
 1153              		.loc 1 231 0
 1154 012c 084B     		ldr	r3, .L58+4
 1155 012e 1E61     		str	r6, [r3, #16]
 232:..\..\..\arduinoLCD\test\Pain Drain\libraries\lvgl\src\hal/lv_hal_disp.c **** 
 1156              		.loc 1 232 0
 1157 0130 002E     		cmp	r6, #0
 1158 0132 00D1     		bne	.L55
 232:..\..\..\arduinoLCD\test\Pain Drain\libraries\lvgl\src\hal/lv_hal_disp.c **** 
 1159              		.loc 1 232 0 is_stmt 0 discriminator 1
 1160 0134 1C61     		str	r4, [r3, #16]
 1161              	.L55:
 234:..\..\..\arduinoLCD\test\Pain Drain\libraries\lvgl\src\hal/lv_hal_disp.c **** 
 1162              		.loc 1 234 0 is_stmt 1
 1163 0136 6068     		ldr	r0, [r4, #4]
 1164 0138 FFF7FEFF 		bl	lv_timer_ready
 1165              	.LVL151:
 236:..\..\..\arduinoLCD\test\Pain Drain\libraries\lvgl\src\hal/lv_hal_disp.c **** }
 1166              		.loc 1 236 0
 1167 013c 2000     		movs	r0, r4
 1168 013e 02E0     		b	.L45
 1169              	.LVL152:
 1170              	.L56:
 167:..\..\..\arduinoLCD\test\Pain Drain\libraries\lvgl\src\hal/lv_hal_disp.c ****     }
 1171              		.loc 1 167 0
 1172 0140 0020     		movs	r0, #0
 1173              	.LVL153:
 1174 0142 00E0     		b	.L45
 1175              	.LVL154:
 1176              	.L57:
 1177              	.LBB59:
 174:..\..\..\arduinoLCD\test\Pain Drain\libraries\lvgl\src\hal/lv_hal_disp.c ****         driver->draw_ctx_init(driver, draw_ctx);
 1178              		.loc 1 174 0
 1179 0144 0020     		movs	r0, #0
 1180              	.LVL155:
 1181              	.L45:
 1182              	.LBE59:
 237:..\..\..\arduinoLCD\test\Pain Drain\libraries\lvgl\src\hal/lv_hal_disp.c **** 
 1183              		.loc 1 237 0
 1184 0146 02B0     		add	sp, sp, #8
 1185              		@ sp needed
 1186              	.LVL156:
 1187 0148 70BD     		pop	{r4, r5, r6, pc}
 1188              	.L59:
 1189 014a C046     		.align	2
 1190              	.L58:
 1191 014c 00000000 		.word	_lv_disp_ll
 1192 0150 00000000 		.word	.LANCHOR0
 1193 0154 00000000 		.word	_lv_disp_refr_timer
 1194 0158 00F8FFFF 		.word	-2048
 1195 015c 00000000 		.word	lv_font_montserrat_14
ARM GAS  C:\Users\haske\AppData\Local\Temp\ccN8jSR9.s 			page 49


 1196 0160 FFFF0F00 		.word	1048575
 1197              		.cfi_endproc
 1198              	.LFE161:
 1199              		.size	lv_disp_drv_register, .-lv_disp_drv_register
 1200              		.section	.text.lv_disp_set_default,"ax",%progbits
 1201              		.align	2
 1202              		.global	lv_disp_set_default
 1203              		.code	16
 1204              		.thumb_func
 1205              		.type	lv_disp_set_default, %function
 1206              	lv_disp_set_default:
 1207              	.LFB164:
 326:..\..\..\arduinoLCD\test\Pain Drain\libraries\lvgl\src\hal/lv_hal_disp.c ****     disp_def = disp;
 1208              		.loc 1 326 0
 1209              		.cfi_startproc
 1210              		@ args = 0, pretend = 0, frame = 0
 1211              		@ frame_needed = 0, uses_anonymous_args = 0
 1212              		@ link register save eliminated.
 1213              	.LVL157:
 327:..\..\..\arduinoLCD\test\Pain Drain\libraries\lvgl\src\hal/lv_hal_disp.c **** }
 1214              		.loc 1 327 0
 1215 0000 014B     		ldr	r3, .L61
 1216 0002 1861     		str	r0, [r3, #16]
 328:..\..\..\arduinoLCD\test\Pain Drain\libraries\lvgl\src\hal/lv_hal_disp.c **** 
 1217              		.loc 1 328 0
 1218              		@ sp needed
 1219 0004 7047     		bx	lr
 1220              	.L62:
 1221 0006 C046     		.align	2
 1222              	.L61:
 1223 0008 00000000 		.word	.LANCHOR0
 1224              		.cfi_endproc
 1225              	.LFE164:
 1226              		.size	lv_disp_set_default, .-lv_disp_set_default
 1227              		.section	.text.lv_disp_get_default,"ax",%progbits
 1228              		.align	2
 1229              		.global	lv_disp_get_default
 1230              		.code	16
 1231              		.thumb_func
 1232              		.type	lv_disp_get_default, %function
 1233              	lv_disp_get_default:
 1234              	.LFB165:
 335:..\..\..\arduinoLCD\test\Pain Drain\libraries\lvgl\src\hal/lv_hal_disp.c ****     return disp_def;
 1235              		.loc 1 335 0
 1236              		.cfi_startproc
 1237              		@ args = 0, pretend = 0, frame = 0
 1238              		@ frame_needed = 0, uses_anonymous_args = 0
 1239              		@ link register save eliminated.
 336:..\..\..\arduinoLCD\test\Pain Drain\libraries\lvgl\src\hal/lv_hal_disp.c **** }
 1240              		.loc 1 336 0
 1241 0000 014B     		ldr	r3, .L64
 1242 0002 1869     		ldr	r0, [r3, #16]
 337:..\..\..\arduinoLCD\test\Pain Drain\libraries\lvgl\src\hal/lv_hal_disp.c **** 
 1243              		.loc 1 337 0
 1244              		@ sp needed
 1245 0004 7047     		bx	lr
 1246              	.L65:
ARM GAS  C:\Users\haske\AppData\Local\Temp\ccN8jSR9.s 			page 50


 1247 0006 C046     		.align	2
 1248              	.L64:
 1249 0008 00000000 		.word	.LANCHOR0
 1250              		.cfi_endproc
 1251              	.LFE165:
 1252              		.size	lv_disp_get_default, .-lv_disp_get_default
 1253              		.section	.text.lv_disp_remove,"ax",%progbits
 1254              		.align	2
 1255              		.global	lv_disp_remove
 1256              		.code	16
 1257              		.thumb_func
 1258              		.type	lv_disp_remove, %function
 1259              	lv_disp_remove:
 1260              	.LFB163:
 286:..\..\..\arduinoLCD\test\Pain Drain\libraries\lvgl\src\hal/lv_hal_disp.c ****     bool was_default = false;
 1261              		.loc 1 286 0
 1262              		.cfi_startproc
 1263              		@ args = 0, pretend = 0, frame = 0
 1264              		@ frame_needed = 0, uses_anonymous_args = 0
 1265              	.LVL158:
 1266 0000 70B5     		push	{r4, r5, r6, lr}
 1267              		.cfi_def_cfa_offset 16
 1268              		.cfi_offset 4, -16
 1269              		.cfi_offset 5, -12
 1270              		.cfi_offset 6, -8
 1271              		.cfi_offset 14, -4
 1272 0002 0400     		movs	r4, r0
 1273              	.LVL159:
 288:..\..\..\arduinoLCD\test\Pain Drain\libraries\lvgl\src\hal/lv_hal_disp.c **** 
 1274              		.loc 1 288 0
 1275 0004 FFF7FEFF 		bl	lv_disp_get_default
 1276              	.LVL160:
 1277 0008 A042     		cmp	r0, r4
 1278 000a 01D0     		beq	.L77
 287:..\..\..\arduinoLCD\test\Pain Drain\libraries\lvgl\src\hal/lv_hal_disp.c ****     if(disp == lv_disp_get_default()) was_default = true;
 1279              		.loc 1 287 0
 1280 000c 0025     		movs	r5, #0
 1281 000e 00E0     		b	.L67
 1282              	.L77:
 288:..\..\..\arduinoLCD\test\Pain Drain\libraries\lvgl\src\hal/lv_hal_disp.c **** 
 1283              		.loc 1 288 0
 1284 0010 0125     		movs	r5, #1
 1285              	.L67:
 1286              	.LVL161:
 292:..\..\..\arduinoLCD\test\Pain Drain\libraries\lvgl\src\hal/lv_hal_disp.c ****     while(indev) {
 1287              		.loc 1 292 0
 1288 0012 0020     		movs	r0, #0
 1289 0014 FFF7FEFF 		bl	lv_indev_get_next
 1290              	.LVL162:
 293:..\..\..\arduinoLCD\test\Pain Drain\libraries\lvgl\src\hal/lv_hal_disp.c ****         if(indev->driver->disp == disp) {
 1291              		.loc 1 293 0
 1292 0018 07E0     		b	.L68
 1293              	.L70:
 294:..\..\..\arduinoLCD\test\Pain Drain\libraries\lvgl\src\hal/lv_hal_disp.c ****             indev->driver->disp = NULL;
 1294              		.loc 1 294 0
 1295 001a 0368     		ldr	r3, [r0]
 1296 001c 1A69     		ldr	r2, [r3, #16]
ARM GAS  C:\Users\haske\AppData\Local\Temp\ccN8jSR9.s 			page 51


 1297 001e 9442     		cmp	r4, r2
 1298 0020 01D1     		bne	.L69
 295:..\..\..\arduinoLCD\test\Pain Drain\libraries\lvgl\src\hal/lv_hal_disp.c ****         }
 1299              		.loc 1 295 0
 1300 0022 0022     		movs	r2, #0
 1301 0024 1A61     		str	r2, [r3, #16]
 1302              	.L69:
 297:..\..\..\arduinoLCD\test\Pain Drain\libraries\lvgl\src\hal/lv_hal_disp.c ****     }
 1303              		.loc 1 297 0
 1304 0026 FFF7FEFF 		bl	lv_indev_get_next
 1305              	.LVL163:
 1306              	.L68:
 293:..\..\..\arduinoLCD\test\Pain Drain\libraries\lvgl\src\hal/lv_hal_disp.c ****         if(indev->driver->disp == disp) {
 1307              		.loc 1 293 0
 1308 002a 0028     		cmp	r0, #0
 1309 002c F5D1     		bne	.L70
 301:..\..\..\arduinoLCD\test\Pain Drain\libraries\lvgl\src\hal/lv_hal_disp.c ****         lv_obj_del(disp->sys_layer);
 1310              		.loc 1 301 0
 1311 002e 206A     		ldr	r0, [r4, #32]
 1312              	.LVL164:
 1313 0030 0028     		cmp	r0, #0
 1314 0032 03D0     		beq	.L71
 302:..\..\..\arduinoLCD\test\Pain Drain\libraries\lvgl\src\hal/lv_hal_disp.c ****         disp->sys_layer = NULL;
 1315              		.loc 1 302 0
 1316 0034 FFF7FEFF 		bl	lv_obj_del
 1317              	.LVL165:
 303:..\..\..\arduinoLCD\test\Pain Drain\libraries\lvgl\src\hal/lv_hal_disp.c ****     }
 1318              		.loc 1 303 0
 1319 0038 0023     		movs	r3, #0
 1320 003a 2362     		str	r3, [r4, #32]
 1321              	.L71:
 305:..\..\..\arduinoLCD\test\Pain Drain\libraries\lvgl\src\hal/lv_hal_disp.c ****         lv_obj_del(disp->top_layer);
 1322              		.loc 1 305 0
 1323 003c E069     		ldr	r0, [r4, #28]
 1324 003e 0028     		cmp	r0, #0
 1325 0040 08D0     		beq	.L73
 306:..\..\..\arduinoLCD\test\Pain Drain\libraries\lvgl\src\hal/lv_hal_disp.c ****         disp->top_layer = NULL;
 1326              		.loc 1 306 0
 1327 0042 FFF7FEFF 		bl	lv_obj_del
 1328              	.LVL166:
 307:..\..\..\arduinoLCD\test\Pain Drain\libraries\lvgl\src\hal/lv_hal_disp.c ****     }
 1329              		.loc 1 307 0
 1330 0046 0023     		movs	r3, #0
 1331 0048 E361     		str	r3, [r4, #28]
 1332 004a 03E0     		b	.L73
 1333              	.L74:
 311:..\..\..\arduinoLCD\test\Pain Drain\libraries\lvgl\src\hal/lv_hal_disp.c ****     }
 1334              		.loc 1 311 0
 1335 004c E368     		ldr	r3, [r4, #12]
 1336 004e 1868     		ldr	r0, [r3]
 1337 0050 FFF7FEFF 		bl	lv_obj_del
 1338              	.LVL167:
 1339              	.L73:
 309:..\..\..\arduinoLCD\test\Pain Drain\libraries\lvgl\src\hal/lv_hal_disp.c ****         /*Delete the screenst*/
 1340              		.loc 1 309 0
 1341 0054 636A     		ldr	r3, [r4, #36]
 1342 0056 002B     		cmp	r3, #0
ARM GAS  C:\Users\haske\AppData\Local\Temp\ccN8jSR9.s 			page 52


 1343 0058 F8D1     		bne	.L74
 314:..\..\..\arduinoLCD\test\Pain Drain\libraries\lvgl\src\hal/lv_hal_disp.c ****     if(disp->refr_timer) lv_timer_del(disp->refr_timer);
 1344              		.loc 1 314 0
 1345 005a 2100     		movs	r1, r4
 1346 005c 0948     		ldr	r0, .L78
 1347 005e FFF7FEFF 		bl	_lv_ll_remove
 1348              	.LVL168:
 315:..\..\..\arduinoLCD\test\Pain Drain\libraries\lvgl\src\hal/lv_hal_disp.c ****     lv_mem_free(disp);
 1349              		.loc 1 315 0
 1350 0062 6068     		ldr	r0, [r4, #4]
 1351 0064 0028     		cmp	r0, #0
 1352 0066 01D0     		beq	.L75
 315:..\..\..\arduinoLCD\test\Pain Drain\libraries\lvgl\src\hal/lv_hal_disp.c ****     lv_mem_free(disp);
 1353              		.loc 1 315 0 is_stmt 0 discriminator 1
 1354 0068 FFF7FEFF 		bl	lv_timer_del
 1355              	.LVL169:
 1356              	.L75:
 316:..\..\..\arduinoLCD\test\Pain Drain\libraries\lvgl\src\hal/lv_hal_disp.c **** 
 1357              		.loc 1 316 0 is_stmt 1
 1358 006c 2000     		movs	r0, r4
 1359 006e FFF7FEFF 		bl	lv_mem_free
 1360              	.LVL170:
 318:..\..\..\arduinoLCD\test\Pain Drain\libraries\lvgl\src\hal/lv_hal_disp.c **** }
 1361              		.loc 1 318 0
 1362 0072 002D     		cmp	r5, #0
 1363 0074 04D0     		beq	.L66
 318:..\..\..\arduinoLCD\test\Pain Drain\libraries\lvgl\src\hal/lv_hal_disp.c **** }
 1364              		.loc 1 318 0 is_stmt 0 discriminator 1
 1365 0076 0348     		ldr	r0, .L78
 1366 0078 FFF7FEFF 		bl	_lv_ll_get_head
 1367              	.LVL171:
 1368 007c FFF7FEFF 		bl	lv_disp_set_default
 1369              	.LVL172:
 1370              	.L66:
 319:..\..\..\arduinoLCD\test\Pain Drain\libraries\lvgl\src\hal/lv_hal_disp.c **** 
 1371              		.loc 1 319 0 is_stmt 1
 1372              		@ sp needed
 1373              	.LVL173:
 1374              	.LVL174:
 1375 0080 70BD     		pop	{r4, r5, r6, pc}
 1376              	.L79:
 1377 0082 C046     		.align	2
 1378              	.L78:
 1379 0084 00000000 		.word	_lv_disp_ll
 1380              		.cfi_endproc
 1381              	.LFE163:
 1382              		.size	lv_disp_remove, .-lv_disp_remove
 1383              		.section	.text.lv_disp_get_hor_res,"ax",%progbits
 1384              		.align	2
 1385              		.global	lv_disp_get_hor_res
 1386              		.code	16
 1387              		.thumb_func
 1388              		.type	lv_disp_get_hor_res, %function
 1389              	lv_disp_get_hor_res:
 1390              	.LFB166:
 345:..\..\..\arduinoLCD\test\Pain Drain\libraries\lvgl\src\hal/lv_hal_disp.c ****     if(disp == NULL) disp = lv_disp_get_default();
 1391              		.loc 1 345 0
ARM GAS  C:\Users\haske\AppData\Local\Temp\ccN8jSR9.s 			page 53


 1392              		.cfi_startproc
 1393              		@ args = 0, pretend = 0, frame = 0
 1394              		@ frame_needed = 0, uses_anonymous_args = 0
 1395              	.LVL175:
 1396 0000 10B5     		push	{r4, lr}
 1397              		.cfi_def_cfa_offset 8
 1398              		.cfi_offset 4, -8
 1399              		.cfi_offset 14, -4
 346:..\..\..\arduinoLCD\test\Pain Drain\libraries\lvgl\src\hal/lv_hal_disp.c **** 
 1400              		.loc 1 346 0
 1401 0002 0028     		cmp	r0, #0
 1402 0004 01D1     		bne	.L81
 346:..\..\..\arduinoLCD\test\Pain Drain\libraries\lvgl\src\hal/lv_hal_disp.c **** 
 1403              		.loc 1 346 0 is_stmt 0 discriminator 1
 1404 0006 FFF7FEFF 		bl	lv_disp_get_default
 1405              	.LVL176:
 1406              	.L81:
 348:..\..\..\arduinoLCD\test\Pain Drain\libraries\lvgl\src\hal/lv_hal_disp.c ****         return 0;
 1407              		.loc 1 348 0 is_stmt 1
 1408 000a 0028     		cmp	r0, #0
 1409 000c 0DD0     		beq	.L85
 352:..\..\..\arduinoLCD\test\Pain Drain\libraries\lvgl\src\hal/lv_hal_disp.c ****             case LV_DISP_ROT_90:
 1410              		.loc 1 352 0
 1411 000e 0268     		ldr	r2, [r0]
 1412 0010 137C     		ldrb	r3, [r2, #16]
 1413 0012 9B06     		lsls	r3, r3, #26
 1414 0014 9B0F     		lsrs	r3, r3, #30
 1415 0016 012B     		cmp	r3, #1
 1416 0018 01D0     		beq	.L84
 1417 001a 032B     		cmp	r3, #3
 1418 001c 02D1     		bne	.L86
 1419              	.L84:
 355:..\..\..\arduinoLCD\test\Pain Drain\libraries\lvgl\src\hal/lv_hal_disp.c ****             default:
 1420              		.loc 1 355 0
 1421 001e 0223     		movs	r3, #2
 1422 0020 D05E     		ldrsh	r0, [r2, r3]
 1423              	.LVL177:
 1424 0022 03E0     		b	.L82
 1425              	.LVL178:
 1426              	.L86:
 357:..\..\..\arduinoLCD\test\Pain Drain\libraries\lvgl\src\hal/lv_hal_disp.c ****         }
 1427              		.loc 1 357 0
 1428 0024 0023     		movs	r3, #0
 1429 0026 D05E     		ldrsh	r0, [r2, r3]
 1430              	.LVL179:
 1431 0028 00E0     		b	.L82
 1432              	.LVL180:
 1433              	.L85:
 349:..\..\..\arduinoLCD\test\Pain Drain\libraries\lvgl\src\hal/lv_hal_disp.c ****     }
 1434              		.loc 1 349 0
 1435 002a 0020     		movs	r0, #0
 1436              	.LVL181:
 1437              	.L82:
 360:..\..\..\arduinoLCD\test\Pain Drain\libraries\lvgl\src\hal/lv_hal_disp.c **** 
 1438              		.loc 1 360 0
 1439              		@ sp needed
 1440 002c 10BD     		pop	{r4, pc}
ARM GAS  C:\Users\haske\AppData\Local\Temp\ccN8jSR9.s 			page 54


 1441              		.cfi_endproc
 1442              	.LFE166:
 1443              		.size	lv_disp_get_hor_res, .-lv_disp_get_hor_res
 1444 002e C046     		.section	.text.lv_disp_get_ver_res,"ax",%progbits
 1445              		.align	2
 1446              		.global	lv_disp_get_ver_res
 1447              		.code	16
 1448              		.thumb_func
 1449              		.type	lv_disp_get_ver_res, %function
 1450              	lv_disp_get_ver_res:
 1451              	.LFB167:
 368:..\..\..\arduinoLCD\test\Pain Drain\libraries\lvgl\src\hal/lv_hal_disp.c ****     if(disp == NULL) disp = lv_disp_get_default();
 1452              		.loc 1 368 0
 1453              		.cfi_startproc
 1454              		@ args = 0, pretend = 0, frame = 0
 1455              		@ frame_needed = 0, uses_anonymous_args = 0
 1456              	.LVL182:
 1457 0000 10B5     		push	{r4, lr}
 1458              		.cfi_def_cfa_offset 8
 1459              		.cfi_offset 4, -8
 1460              		.cfi_offset 14, -4
 369:..\..\..\arduinoLCD\test\Pain Drain\libraries\lvgl\src\hal/lv_hal_disp.c **** 
 1461              		.loc 1 369 0
 1462 0002 0028     		cmp	r0, #0
 1463 0004 01D1     		bne	.L88
 369:..\..\..\arduinoLCD\test\Pain Drain\libraries\lvgl\src\hal/lv_hal_disp.c **** 
 1464              		.loc 1 369 0 is_stmt 0 discriminator 1
 1465 0006 FFF7FEFF 		bl	lv_disp_get_default
 1466              	.LVL183:
 1467              	.L88:
 371:..\..\..\arduinoLCD\test\Pain Drain\libraries\lvgl\src\hal/lv_hal_disp.c ****         return 0;
 1468              		.loc 1 371 0 is_stmt 1
 1469 000a 0028     		cmp	r0, #0
 1470 000c 0DD0     		beq	.L92
 375:..\..\..\arduinoLCD\test\Pain Drain\libraries\lvgl\src\hal/lv_hal_disp.c ****             case LV_DISP_ROT_90:
 1471              		.loc 1 375 0
 1472 000e 0268     		ldr	r2, [r0]
 1473 0010 137C     		ldrb	r3, [r2, #16]
 1474 0012 9B06     		lsls	r3, r3, #26
 1475 0014 9B0F     		lsrs	r3, r3, #30
 1476 0016 012B     		cmp	r3, #1
 1477 0018 01D0     		beq	.L91
 1478 001a 032B     		cmp	r3, #3
 1479 001c 02D1     		bne	.L93
 1480              	.L91:
 378:..\..\..\arduinoLCD\test\Pain Drain\libraries\lvgl\src\hal/lv_hal_disp.c ****             default:
 1481              		.loc 1 378 0
 1482 001e 0023     		movs	r3, #0
 1483 0020 D05E     		ldrsh	r0, [r2, r3]
 1484              	.LVL184:
 1485 0022 03E0     		b	.L89
 1486              	.LVL185:
 1487              	.L93:
 380:..\..\..\arduinoLCD\test\Pain Drain\libraries\lvgl\src\hal/lv_hal_disp.c ****         }
 1488              		.loc 1 380 0
 1489 0024 0223     		movs	r3, #2
 1490 0026 D05E     		ldrsh	r0, [r2, r3]
ARM GAS  C:\Users\haske\AppData\Local\Temp\ccN8jSR9.s 			page 55


 1491              	.LVL186:
 1492 0028 00E0     		b	.L89
 1493              	.LVL187:
 1494              	.L92:
 372:..\..\..\arduinoLCD\test\Pain Drain\libraries\lvgl\src\hal/lv_hal_disp.c ****     }
 1495              		.loc 1 372 0
 1496 002a 0020     		movs	r0, #0
 1497              	.LVL188:
 1498              	.L89:
 383:..\..\..\arduinoLCD\test\Pain Drain\libraries\lvgl\src\hal/lv_hal_disp.c **** 
 1499              		.loc 1 383 0
 1500              		@ sp needed
 1501 002c 10BD     		pop	{r4, pc}
 1502              		.cfi_endproc
 1503              	.LFE167:
 1504              		.size	lv_disp_get_ver_res, .-lv_disp_get_ver_res
 1505 002e C046     		.section	.text.lv_disp_drv_update,"ax",%progbits
 1506              		.align	2
 1507              		.global	lv_disp_drv_update
 1508              		.code	16
 1509              		.thumb_func
 1510              		.type	lv_disp_drv_update, %function
 1511              	lv_disp_drv_update:
 1512              	.LFB162:
 245:..\..\..\arduinoLCD\test\Pain Drain\libraries\lvgl\src\hal/lv_hal_disp.c ****     disp->driver = new_drv;
 1513              		.loc 1 245 0
 1514              		.cfi_startproc
 1515              		@ args = 0, pretend = 0, frame = 16
 1516              		@ frame_needed = 0, uses_anonymous_args = 0
 1517              	.LVL189:
 1518 0000 F0B5     		push	{r4, r5, r6, r7, lr}
 1519              		.cfi_def_cfa_offset 20
 1520              		.cfi_offset 4, -20
 1521              		.cfi_offset 5, -16
 1522              		.cfi_offset 6, -12
 1523              		.cfi_offset 7, -8
 1524              		.cfi_offset 14, -4
 1525 0002 85B0     		sub	sp, sp, #20
 1526              		.cfi_def_cfa_offset 40
 1527 0004 0400     		movs	r4, r0
 246:..\..\..\arduinoLCD\test\Pain Drain\libraries\lvgl\src\hal/lv_hal_disp.c **** 
 1528              		.loc 1 246 0
 1529 0006 0160     		str	r1, [r0]
 248:..\..\..\arduinoLCD\test\Pain Drain\libraries\lvgl\src\hal/lv_hal_disp.c ****        disp->driver->draw_buf->size < (uint32_t)disp->driver->hor_res * disp->driver->ver_res) {
 1530              		.loc 1 248 0
 1531 0008 0B7C     		ldrb	r3, [r1, #16]
 1532 000a 9B07     		lsls	r3, r3, #30
 1533 000c 0CD5     		bpl	.L95
 249:..\..\..\arduinoLCD\test\Pain Drain\libraries\lvgl\src\hal/lv_hal_disp.c ****         disp->driver->full_refresh = 0;
 1534              		.loc 1 249 0 discriminator 1
 1535 000e CB68     		ldr	r3, [r1, #12]
 1536 0010 DA68     		ldr	r2, [r3, #12]
 1537 0012 0020     		movs	r0, #0
 1538 0014 0B5E     		ldrsh	r3, [r1, r0]
 1539              	.LVL190:
 1540 0016 0225     		movs	r5, #2
 1541 0018 485F     		ldrsh	r0, [r1, r5]
ARM GAS  C:\Users\haske\AppData\Local\Temp\ccN8jSR9.s 			page 56


 1542 001a 4343     		muls	r3, r0
 248:..\..\..\arduinoLCD\test\Pain Drain\libraries\lvgl\src\hal/lv_hal_disp.c ****        disp->driver->draw_buf->size < (uint32_t)disp->driver->hor_res * disp->driver->ver_res) {
 1543              		.loc 1 248 0 discriminator 1
 1544 001c 9A42     		cmp	r2, r3
 1545 001e 03D2     		bcs	.L95
