ARM GAS  C:\Users\haske\AppData\Local\Temp\ccN8jSR9.s 			page 1


   1              		.syntax unified
   2              		.cpu cortex-m0plus
   3              		.fpu softvfp
   4              		.eabi_attribute 20, 1
   5              		.eabi_attribute 21, 1
   6              		.eabi_attribute 23, 3
   7              		.eabi_attribute 24, 1
   8              		.eabi_attribute 25, 1
   9              		.eabi_attribute 26, 1
  10              		.eabi_attribute 30, 1
  11              		.eabi_attribute 34, 0
  12              		.eabi_attribute 18, 4
  13              		.thumb
  14              		.syntax unified
  15              		.file	"lv_hal_disp.c"
  16              		.text
  17              	.Ltext0:
  18              		.cfi_sections	.debug_frame
  19              		.global	__aeabi_idiv
  20              		.section	.text.set_px_true_color_alpha,"ax",%progbits
  21              		.align	2
  22              		.code	16
  23              		.thumb_func
  24              		.type	set_px_true_color_alpha, %function
  25              	set_px_true_color_alpha:
  26              	.LFB187:
  27              		.file 1 "..\\..\\..\\arduinoLCD\\test\\Pain Drain\\libraries\\lvgl\\src\\hal\\lv_hal_disp.c"
   1:..\..\..\arduinoLCD\test\Pain Drain\libraries\lvgl\src\hal/lv_hal_disp.c **** /**
   2:..\..\..\arduinoLCD\test\Pain Drain\libraries\lvgl\src\hal/lv_hal_disp.c ****  * @file lv_hal_disp.c
   3:..\..\..\arduinoLCD\test\Pain Drain\libraries\lvgl\src\hal/lv_hal_disp.c ****  *
   4:..\..\..\arduinoLCD\test\Pain Drain\libraries\lvgl\src\hal/lv_hal_disp.c ****  * @description HAL layer for display driver
   5:..\..\..\arduinoLCD\test\Pain Drain\libraries\lvgl\src\hal/lv_hal_disp.c ****  *
   6:..\..\..\arduinoLCD\test\Pain Drain\libraries\lvgl\src\hal/lv_hal_disp.c ****  */
   7:..\..\..\arduinoLCD\test\Pain Drain\libraries\lvgl\src\hal/lv_hal_disp.c **** 
   8:..\..\..\arduinoLCD\test\Pain Drain\libraries\lvgl\src\hal/lv_hal_disp.c **** /*********************
   9:..\..\..\arduinoLCD\test\Pain Drain\libraries\lvgl\src\hal/lv_hal_disp.c ****  *      INCLUDES
  10:..\..\..\arduinoLCD\test\Pain Drain\libraries\lvgl\src\hal/lv_hal_disp.c ****  *********************/
  11:..\..\..\arduinoLCD\test\Pain Drain\libraries\lvgl\src\hal/lv_hal_disp.c **** #include <stdint.h>
  12:..\..\..\arduinoLCD\test\Pain Drain\libraries\lvgl\src\hal/lv_hal_disp.c **** #include <stddef.h>
  13:..\..\..\arduinoLCD\test\Pain Drain\libraries\lvgl\src\hal/lv_hal_disp.c **** #include "lv_hal.h"
  14:..\..\..\arduinoLCD\test\Pain Drain\libraries\lvgl\src\hal/lv_hal_disp.c **** #include "../misc/lv_mem.h"
  15:..\..\..\arduinoLCD\test\Pain Drain\libraries\lvgl\src\hal/lv_hal_disp.c **** #include "../misc/lv_gc.h"
  16:..\..\..\arduinoLCD\test\Pain Drain\libraries\lvgl\src\hal/lv_hal_disp.c **** #include "../misc/lv_assert.h"
  17:..\..\..\arduinoLCD\test\Pain Drain\libraries\lvgl\src\hal/lv_hal_disp.c **** #include "../core/lv_obj.h"
  18:..\..\..\arduinoLCD\test\Pain Drain\libraries\lvgl\src\hal/lv_hal_disp.c **** #include "../core/lv_refr.h"
  19:..\..\..\arduinoLCD\test\Pain Drain\libraries\lvgl\src\hal/lv_hal_disp.c **** #include "../core/lv_theme.h"
  20:..\..\..\arduinoLCD\test\Pain Drain\libraries\lvgl\src\hal/lv_hal_disp.c **** #include "../draw/sdl/lv_draw_sdl.h"
  21:..\..\..\arduinoLCD\test\Pain Drain\libraries\lvgl\src\hal/lv_hal_disp.c **** #include "../draw/sw/lv_draw_sw.h"
  22:..\..\..\arduinoLCD\test\Pain Drain\libraries\lvgl\src\hal/lv_hal_disp.c **** #include "../draw/sdl/lv_draw_sdl.h"
  23:..\..\..\arduinoLCD\test\Pain Drain\libraries\lvgl\src\hal/lv_hal_disp.c **** #include "../draw/stm32_dma2d/lv_gpu_stm32_dma2d.h"
  24:..\..\..\arduinoLCD\test\Pain Drain\libraries\lvgl\src\hal/lv_hal_disp.c **** #include "../draw/swm341_dma2d/lv_gpu_swm341_dma2d.h"
  25:..\..\..\arduinoLCD\test\Pain Drain\libraries\lvgl\src\hal/lv_hal_disp.c **** #include "../draw/arm2d/lv_gpu_arm2d.h"
  26:..\..\..\arduinoLCD\test\Pain Drain\libraries\lvgl\src\hal/lv_hal_disp.c **** #include "../draw/nxp/vglite/lv_draw_vglite.h"
  27:..\..\..\arduinoLCD\test\Pain Drain\libraries\lvgl\src\hal/lv_hal_disp.c **** #include "../draw/nxp/pxp/lv_draw_pxp.h"
  28:..\..\..\arduinoLCD\test\Pain Drain\libraries\lvgl\src\hal/lv_hal_disp.c **** 
  29:..\..\..\arduinoLCD\test\Pain Drain\libraries\lvgl\src\hal/lv_hal_disp.c **** #if LV_USE_THEME_DEFAULT
  30:..\..\..\arduinoLCD\test\Pain Drain\libraries\lvgl\src\hal/lv_hal_disp.c ****     #include "../extra/themes/default/lv_theme_default.h"
ARM GAS  C:\Users\haske\AppData\Local\Temp\ccN8jSR9.s 			page 2


  31:..\..\..\arduinoLCD\test\Pain Drain\libraries\lvgl\src\hal/lv_hal_disp.c **** #endif
  32:..\..\..\arduinoLCD\test\Pain Drain\libraries\lvgl\src\hal/lv_hal_disp.c **** 
  33:..\..\..\arduinoLCD\test\Pain Drain\libraries\lvgl\src\hal/lv_hal_disp.c **** /*********************
  34:..\..\..\arduinoLCD\test\Pain Drain\libraries\lvgl\src\hal/lv_hal_disp.c ****  *      DEFINES
  35:..\..\..\arduinoLCD\test\Pain Drain\libraries\lvgl\src\hal/lv_hal_disp.c ****  *********************/
  36:..\..\..\arduinoLCD\test\Pain Drain\libraries\lvgl\src\hal/lv_hal_disp.c **** 
  37:..\..\..\arduinoLCD\test\Pain Drain\libraries\lvgl\src\hal/lv_hal_disp.c **** /**********************
  38:..\..\..\arduinoLCD\test\Pain Drain\libraries\lvgl\src\hal/lv_hal_disp.c ****  *      TYPEDEFS
  39:..\..\..\arduinoLCD\test\Pain Drain\libraries\lvgl\src\hal/lv_hal_disp.c ****  **********************/
  40:..\..\..\arduinoLCD\test\Pain Drain\libraries\lvgl\src\hal/lv_hal_disp.c **** 
  41:..\..\..\arduinoLCD\test\Pain Drain\libraries\lvgl\src\hal/lv_hal_disp.c **** /**********************
  42:..\..\..\arduinoLCD\test\Pain Drain\libraries\lvgl\src\hal/lv_hal_disp.c ****  *  STATIC PROTOTYPES
  43:..\..\..\arduinoLCD\test\Pain Drain\libraries\lvgl\src\hal/lv_hal_disp.c ****  **********************/
  44:..\..\..\arduinoLCD\test\Pain Drain\libraries\lvgl\src\hal/lv_hal_disp.c **** static lv_obj_tree_walk_res_t invalidate_layout_cb(lv_obj_t * obj, void * user_data);
  45:..\..\..\arduinoLCD\test\Pain Drain\libraries\lvgl\src\hal/lv_hal_disp.c **** 
  46:..\..\..\arduinoLCD\test\Pain Drain\libraries\lvgl\src\hal/lv_hal_disp.c **** static void set_px_true_color_alpha(lv_disp_drv_t * disp_drv, uint8_t * buf, lv_coord_t buf_w, lv_c
  47:..\..\..\arduinoLCD\test\Pain Drain\libraries\lvgl\src\hal/lv_hal_disp.c ****                                     lv_coord_t y,
  48:..\..\..\arduinoLCD\test\Pain Drain\libraries\lvgl\src\hal/lv_hal_disp.c ****                                     lv_color_t color, lv_opa_t opa);
  49:..\..\..\arduinoLCD\test\Pain Drain\libraries\lvgl\src\hal/lv_hal_disp.c **** 
  50:..\..\..\arduinoLCD\test\Pain Drain\libraries\lvgl\src\hal/lv_hal_disp.c **** static void set_px_cb_alpha1(lv_disp_drv_t * disp_drv, uint8_t * buf, lv_coord_t buf_w, lv_coord_t 
  51:..\..\..\arduinoLCD\test\Pain Drain\libraries\lvgl\src\hal/lv_hal_disp.c ****                              lv_color_t color, lv_opa_t opa);
  52:..\..\..\arduinoLCD\test\Pain Drain\libraries\lvgl\src\hal/lv_hal_disp.c **** 
  53:..\..\..\arduinoLCD\test\Pain Drain\libraries\lvgl\src\hal/lv_hal_disp.c **** static void set_px_cb_alpha2(lv_disp_drv_t * disp_drv, uint8_t * buf, lv_coord_t buf_w, lv_coord_t 
  54:..\..\..\arduinoLCD\test\Pain Drain\libraries\lvgl\src\hal/lv_hal_disp.c ****                              lv_color_t color, lv_opa_t opa);
  55:..\..\..\arduinoLCD\test\Pain Drain\libraries\lvgl\src\hal/lv_hal_disp.c **** 
  56:..\..\..\arduinoLCD\test\Pain Drain\libraries\lvgl\src\hal/lv_hal_disp.c **** static void set_px_cb_alpha4(lv_disp_drv_t * disp_drv, uint8_t * buf, lv_coord_t buf_w, lv_coord_t 
  57:..\..\..\arduinoLCD\test\Pain Drain\libraries\lvgl\src\hal/lv_hal_disp.c ****                              lv_color_t color, lv_opa_t opa);
  58:..\..\..\arduinoLCD\test\Pain Drain\libraries\lvgl\src\hal/lv_hal_disp.c **** 
  59:..\..\..\arduinoLCD\test\Pain Drain\libraries\lvgl\src\hal/lv_hal_disp.c **** static void set_px_cb_alpha8(lv_disp_drv_t * disp_drv, uint8_t * buf, lv_coord_t buf_w, lv_coord_t 
  60:..\..\..\arduinoLCD\test\Pain Drain\libraries\lvgl\src\hal/lv_hal_disp.c ****                              lv_color_t color, lv_opa_t opa);
  61:..\..\..\arduinoLCD\test\Pain Drain\libraries\lvgl\src\hal/lv_hal_disp.c **** 
  62:..\..\..\arduinoLCD\test\Pain Drain\libraries\lvgl\src\hal/lv_hal_disp.c **** static void set_px_alpha_generic(lv_img_dsc_t * d, lv_coord_t x, lv_coord_t y, lv_color_t color, lv
  63:..\..\..\arduinoLCD\test\Pain Drain\libraries\lvgl\src\hal/lv_hal_disp.c **** 
  64:..\..\..\arduinoLCD\test\Pain Drain\libraries\lvgl\src\hal/lv_hal_disp.c **** /**********************
  65:..\..\..\arduinoLCD\test\Pain Drain\libraries\lvgl\src\hal/lv_hal_disp.c ****  *  STATIC VARIABLES
  66:..\..\..\arduinoLCD\test\Pain Drain\libraries\lvgl\src\hal/lv_hal_disp.c ****  **********************/
  67:..\..\..\arduinoLCD\test\Pain Drain\libraries\lvgl\src\hal/lv_hal_disp.c **** static lv_disp_t * disp_def;
  68:..\..\..\arduinoLCD\test\Pain Drain\libraries\lvgl\src\hal/lv_hal_disp.c **** 
  69:..\..\..\arduinoLCD\test\Pain Drain\libraries\lvgl\src\hal/lv_hal_disp.c **** /**********************
  70:..\..\..\arduinoLCD\test\Pain Drain\libraries\lvgl\src\hal/lv_hal_disp.c ****  *      MACROS
  71:..\..\..\arduinoLCD\test\Pain Drain\libraries\lvgl\src\hal/lv_hal_disp.c ****  **********************/
  72:..\..\..\arduinoLCD\test\Pain Drain\libraries\lvgl\src\hal/lv_hal_disp.c **** 
  73:..\..\..\arduinoLCD\test\Pain Drain\libraries\lvgl\src\hal/lv_hal_disp.c **** /**********************
  74:..\..\..\arduinoLCD\test\Pain Drain\libraries\lvgl\src\hal/lv_hal_disp.c ****  *   GLOBAL FUNCTIONS
  75:..\..\..\arduinoLCD\test\Pain Drain\libraries\lvgl\src\hal/lv_hal_disp.c ****  **********************/
  76:..\..\..\arduinoLCD\test\Pain Drain\libraries\lvgl\src\hal/lv_hal_disp.c **** 
  77:..\..\..\arduinoLCD\test\Pain Drain\libraries\lvgl\src\hal/lv_hal_disp.c **** /**
  78:..\..\..\arduinoLCD\test\Pain Drain\libraries\lvgl\src\hal/lv_hal_disp.c ****  * Initialize a display driver with default values.
  79:..\..\..\arduinoLCD\test\Pain Drain\libraries\lvgl\src\hal/lv_hal_disp.c ****  * It is used to surly have known values in the fields ant not memory junk.
  80:..\..\..\arduinoLCD\test\Pain Drain\libraries\lvgl\src\hal/lv_hal_disp.c ****  * After it you can set the fields.
  81:..\..\..\arduinoLCD\test\Pain Drain\libraries\lvgl\src\hal/lv_hal_disp.c ****  * @param driver pointer to driver variable to initialize
  82:..\..\..\arduinoLCD\test\Pain Drain\libraries\lvgl\src\hal/lv_hal_disp.c ****  */
  83:..\..\..\arduinoLCD\test\Pain Drain\libraries\lvgl\src\hal/lv_hal_disp.c **** void lv_disp_drv_init(lv_disp_drv_t * driver)
  84:..\..\..\arduinoLCD\test\Pain Drain\libraries\lvgl\src\hal/lv_hal_disp.c **** {
  85:..\..\..\arduinoLCD\test\Pain Drain\libraries\lvgl\src\hal/lv_hal_disp.c ****     lv_memset_00(driver, sizeof(lv_disp_drv_t));
  86:..\..\..\arduinoLCD\test\Pain Drain\libraries\lvgl\src\hal/lv_hal_disp.c **** 
  87:..\..\..\arduinoLCD\test\Pain Drain\libraries\lvgl\src\hal/lv_hal_disp.c ****     driver->hor_res          = 320;
ARM GAS  C:\Users\haske\AppData\Local\Temp\ccN8jSR9.s 			page 3


  88:..\..\..\arduinoLCD\test\Pain Drain\libraries\lvgl\src\hal/lv_hal_disp.c ****     driver->ver_res          = 240;
  89:..\..\..\arduinoLCD\test\Pain Drain\libraries\lvgl\src\hal/lv_hal_disp.c ****     driver->physical_hor_res = -1;
  90:..\..\..\arduinoLCD\test\Pain Drain\libraries\lvgl\src\hal/lv_hal_disp.c ****     driver->physical_ver_res = -1;
  91:..\..\..\arduinoLCD\test\Pain Drain\libraries\lvgl\src\hal/lv_hal_disp.c ****     driver->offset_x         = 0;
  92:..\..\..\arduinoLCD\test\Pain Drain\libraries\lvgl\src\hal/lv_hal_disp.c ****     driver->offset_y         = 0;
  93:..\..\..\arduinoLCD\test\Pain Drain\libraries\lvgl\src\hal/lv_hal_disp.c ****     driver->antialiasing     = LV_COLOR_DEPTH > 8 ? 1 : 0;
  94:..\..\..\arduinoLCD\test\Pain Drain\libraries\lvgl\src\hal/lv_hal_disp.c ****     driver->screen_transp    = 0;
  95:..\..\..\arduinoLCD\test\Pain Drain\libraries\lvgl\src\hal/lv_hal_disp.c ****     driver->dpi              = LV_DPI_DEF;
  96:..\..\..\arduinoLCD\test\Pain Drain\libraries\lvgl\src\hal/lv_hal_disp.c ****     driver->color_chroma_key = LV_COLOR_CHROMA_KEY;
  97:..\..\..\arduinoLCD\test\Pain Drain\libraries\lvgl\src\hal/lv_hal_disp.c **** 
  98:..\..\..\arduinoLCD\test\Pain Drain\libraries\lvgl\src\hal/lv_hal_disp.c **** 
  99:..\..\..\arduinoLCD\test\Pain Drain\libraries\lvgl\src\hal/lv_hal_disp.c **** #if LV_USE_GPU_STM32_DMA2D
 100:..\..\..\arduinoLCD\test\Pain Drain\libraries\lvgl\src\hal/lv_hal_disp.c ****     driver->draw_ctx_init = lv_draw_stm32_dma2d_ctx_init;
 101:..\..\..\arduinoLCD\test\Pain Drain\libraries\lvgl\src\hal/lv_hal_disp.c ****     driver->draw_ctx_deinit = lv_draw_stm32_dma2d_ctx_init;
 102:..\..\..\arduinoLCD\test\Pain Drain\libraries\lvgl\src\hal/lv_hal_disp.c ****     driver->draw_ctx_size = sizeof(lv_draw_stm32_dma2d_ctx_t);
 103:..\..\..\arduinoLCD\test\Pain Drain\libraries\lvgl\src\hal/lv_hal_disp.c **** #elif LV_USE_GPU_SWM341_DMA2D
 104:..\..\..\arduinoLCD\test\Pain Drain\libraries\lvgl\src\hal/lv_hal_disp.c ****     driver->draw_ctx_init = lv_draw_swm341_dma2d_ctx_init;
 105:..\..\..\arduinoLCD\test\Pain Drain\libraries\lvgl\src\hal/lv_hal_disp.c ****     driver->draw_ctx_deinit = lv_draw_swm341_dma2d_ctx_init;
 106:..\..\..\arduinoLCD\test\Pain Drain\libraries\lvgl\src\hal/lv_hal_disp.c ****     driver->draw_ctx_size = sizeof(lv_draw_swm341_dma2d_ctx_t);
 107:..\..\..\arduinoLCD\test\Pain Drain\libraries\lvgl\src\hal/lv_hal_disp.c **** #elif LV_USE_GPU_NXP_VG_LITE
 108:..\..\..\arduinoLCD\test\Pain Drain\libraries\lvgl\src\hal/lv_hal_disp.c ****     driver->draw_ctx_init = lv_draw_vglite_ctx_init;
 109:..\..\..\arduinoLCD\test\Pain Drain\libraries\lvgl\src\hal/lv_hal_disp.c ****     driver->draw_ctx_deinit = lv_draw_vglite_ctx_deinit;
 110:..\..\..\arduinoLCD\test\Pain Drain\libraries\lvgl\src\hal/lv_hal_disp.c ****     driver->draw_ctx_size = sizeof(lv_draw_vglite_ctx_t);
 111:..\..\..\arduinoLCD\test\Pain Drain\libraries\lvgl\src\hal/lv_hal_disp.c **** #elif LV_USE_GPU_NXP_PXP
 112:..\..\..\arduinoLCD\test\Pain Drain\libraries\lvgl\src\hal/lv_hal_disp.c ****     driver->draw_ctx_init = lv_draw_pxp_ctx_init;
 113:..\..\..\arduinoLCD\test\Pain Drain\libraries\lvgl\src\hal/lv_hal_disp.c ****     driver->draw_ctx_deinit = lv_draw_pxp_ctx_deinit;
 114:..\..\..\arduinoLCD\test\Pain Drain\libraries\lvgl\src\hal/lv_hal_disp.c ****     driver->draw_ctx_size = sizeof(lv_draw_pxp_ctx_t);
 115:..\..\..\arduinoLCD\test\Pain Drain\libraries\lvgl\src\hal/lv_hal_disp.c **** #elif LV_USE_GPU_SDL
 116:..\..\..\arduinoLCD\test\Pain Drain\libraries\lvgl\src\hal/lv_hal_disp.c ****     driver->draw_ctx_init = lv_draw_sdl_init_ctx;
 117:..\..\..\arduinoLCD\test\Pain Drain\libraries\lvgl\src\hal/lv_hal_disp.c ****     driver->draw_ctx_deinit = lv_draw_sdl_deinit_ctx;
 118:..\..\..\arduinoLCD\test\Pain Drain\libraries\lvgl\src\hal/lv_hal_disp.c ****     driver->draw_ctx_size = sizeof(lv_draw_sdl_ctx_t);
 119:..\..\..\arduinoLCD\test\Pain Drain\libraries\lvgl\src\hal/lv_hal_disp.c **** #elif LV_USE_GPU_ARM2D
 120:..\..\..\arduinoLCD\test\Pain Drain\libraries\lvgl\src\hal/lv_hal_disp.c ****     driver->draw_ctx_init = lv_draw_arm2d_ctx_init;
 121:..\..\..\arduinoLCD\test\Pain Drain\libraries\lvgl\src\hal/lv_hal_disp.c ****     driver->draw_ctx_deinit = lv_draw_arm2d_ctx_init;
 122:..\..\..\arduinoLCD\test\Pain Drain\libraries\lvgl\src\hal/lv_hal_disp.c ****     driver->draw_ctx_size = sizeof(lv_draw_arm2d_ctx_t);
 123:..\..\..\arduinoLCD\test\Pain Drain\libraries\lvgl\src\hal/lv_hal_disp.c **** #else
 124:..\..\..\arduinoLCD\test\Pain Drain\libraries\lvgl\src\hal/lv_hal_disp.c ****     driver->draw_ctx_init = lv_draw_sw_init_ctx;
 125:..\..\..\arduinoLCD\test\Pain Drain\libraries\lvgl\src\hal/lv_hal_disp.c ****     driver->draw_ctx_deinit = lv_draw_sw_init_ctx;
 126:..\..\..\arduinoLCD\test\Pain Drain\libraries\lvgl\src\hal/lv_hal_disp.c ****     driver->draw_ctx_size = sizeof(lv_draw_sw_ctx_t);
 127:..\..\..\arduinoLCD\test\Pain Drain\libraries\lvgl\src\hal/lv_hal_disp.c **** #endif
 128:..\..\..\arduinoLCD\test\Pain Drain\libraries\lvgl\src\hal/lv_hal_disp.c **** 
 129:..\..\..\arduinoLCD\test\Pain Drain\libraries\lvgl\src\hal/lv_hal_disp.c **** }
 130:..\..\..\arduinoLCD\test\Pain Drain\libraries\lvgl\src\hal/lv_hal_disp.c **** 
 131:..\..\..\arduinoLCD\test\Pain Drain\libraries\lvgl\src\hal/lv_hal_disp.c **** /**
 132:..\..\..\arduinoLCD\test\Pain Drain\libraries\lvgl\src\hal/lv_hal_disp.c ****  * Initialize a display buffer
 133:..\..\..\arduinoLCD\test\Pain Drain\libraries\lvgl\src\hal/lv_hal_disp.c ****  * @param draw_buf pointer `lv_disp_draw_buf_t` variable to initialize
 134:..\..\..\arduinoLCD\test\Pain Drain\libraries\lvgl\src\hal/lv_hal_disp.c ****  * @param buf1 A buffer to be used by LVGL to draw the image.
 135:..\..\..\arduinoLCD\test\Pain Drain\libraries\lvgl\src\hal/lv_hal_disp.c ****  *             Always has to specified and can't be NULL.
 136:..\..\..\arduinoLCD\test\Pain Drain\libraries\lvgl\src\hal/lv_hal_disp.c ****  *             Can be an array allocated by the user. E.g. `static lv_color_t disp_buf1[1024 * 10]`
 137:..\..\..\arduinoLCD\test\Pain Drain\libraries\lvgl\src\hal/lv_hal_disp.c ****  *             Or a memory address e.g. in external SRAM
 138:..\..\..\arduinoLCD\test\Pain Drain\libraries\lvgl\src\hal/lv_hal_disp.c ****  * @param buf2 Optionally specify a second buffer to make image rendering and image flushing
 139:..\..\..\arduinoLCD\test\Pain Drain\libraries\lvgl\src\hal/lv_hal_disp.c ****  *             (sending to the display) parallel.
 140:..\..\..\arduinoLCD\test\Pain Drain\libraries\lvgl\src\hal/lv_hal_disp.c ****  *             In the `disp_drv->flush` you should use DMA or similar hardware to send
 141:..\..\..\arduinoLCD\test\Pain Drain\libraries\lvgl\src\hal/lv_hal_disp.c ****  *             the image to the display in the background.
 142:..\..\..\arduinoLCD\test\Pain Drain\libraries\lvgl\src\hal/lv_hal_disp.c ****  *             It lets LVGL to render next frame into the other buffer while previous is being
 143:..\..\..\arduinoLCD\test\Pain Drain\libraries\lvgl\src\hal/lv_hal_disp.c ****  * sent. Set to `NULL` if unused.
 144:..\..\..\arduinoLCD\test\Pain Drain\libraries\lvgl\src\hal/lv_hal_disp.c ****  * @param size_in_px_cnt size of the `buf1` and `buf2` in pixel count.
ARM GAS  C:\Users\haske\AppData\Local\Temp\ccN8jSR9.s 			page 4


 145:..\..\..\arduinoLCD\test\Pain Drain\libraries\lvgl\src\hal/lv_hal_disp.c ****  */
 146:..\..\..\arduinoLCD\test\Pain Drain\libraries\lvgl\src\hal/lv_hal_disp.c **** void lv_disp_draw_buf_init(lv_disp_draw_buf_t * draw_buf, void * buf1, void * buf2, uint32_t size_i
 147:..\..\..\arduinoLCD\test\Pain Drain\libraries\lvgl\src\hal/lv_hal_disp.c **** {
 148:..\..\..\arduinoLCD\test\Pain Drain\libraries\lvgl\src\hal/lv_hal_disp.c ****     lv_memset_00(draw_buf, sizeof(lv_disp_draw_buf_t));
 149:..\..\..\arduinoLCD\test\Pain Drain\libraries\lvgl\src\hal/lv_hal_disp.c **** 
 150:..\..\..\arduinoLCD\test\Pain Drain\libraries\lvgl\src\hal/lv_hal_disp.c ****     draw_buf->buf1    = buf1;
 151:..\..\..\arduinoLCD\test\Pain Drain\libraries\lvgl\src\hal/lv_hal_disp.c ****     draw_buf->buf2    = buf2;
 152:..\..\..\arduinoLCD\test\Pain Drain\libraries\lvgl\src\hal/lv_hal_disp.c ****     draw_buf->buf_act = draw_buf->buf1;
 153:..\..\..\arduinoLCD\test\Pain Drain\libraries\lvgl\src\hal/lv_hal_disp.c ****     draw_buf->size    = size_in_px_cnt;
 154:..\..\..\arduinoLCD\test\Pain Drain\libraries\lvgl\src\hal/lv_hal_disp.c **** }
 155:..\..\..\arduinoLCD\test\Pain Drain\libraries\lvgl\src\hal/lv_hal_disp.c **** 
 156:..\..\..\arduinoLCD\test\Pain Drain\libraries\lvgl\src\hal/lv_hal_disp.c **** /**
 157:..\..\..\arduinoLCD\test\Pain Drain\libraries\lvgl\src\hal/lv_hal_disp.c ****  * Register an initialized display driver.
 158:..\..\..\arduinoLCD\test\Pain Drain\libraries\lvgl\src\hal/lv_hal_disp.c ****  * Automatically set the first display as active.
 159:..\..\..\arduinoLCD\test\Pain Drain\libraries\lvgl\src\hal/lv_hal_disp.c ****  * @param driver pointer to an initialized 'lv_disp_drv_t' variable. Only its pointer is saved!
 160:..\..\..\arduinoLCD\test\Pain Drain\libraries\lvgl\src\hal/lv_hal_disp.c ****  * @return pointer to the new display or NULL on error
 161:..\..\..\arduinoLCD\test\Pain Drain\libraries\lvgl\src\hal/lv_hal_disp.c ****  */
 162:..\..\..\arduinoLCD\test\Pain Drain\libraries\lvgl\src\hal/lv_hal_disp.c **** lv_disp_t * lv_disp_drv_register(lv_disp_drv_t * driver)
 163:..\..\..\arduinoLCD\test\Pain Drain\libraries\lvgl\src\hal/lv_hal_disp.c **** {
 164:..\..\..\arduinoLCD\test\Pain Drain\libraries\lvgl\src\hal/lv_hal_disp.c ****     lv_disp_t * disp = _lv_ll_ins_head(&LV_GC_ROOT(_lv_disp_ll));
 165:..\..\..\arduinoLCD\test\Pain Drain\libraries\lvgl\src\hal/lv_hal_disp.c ****     LV_ASSERT_MALLOC(disp);
 166:..\..\..\arduinoLCD\test\Pain Drain\libraries\lvgl\src\hal/lv_hal_disp.c ****     if(!disp) {
 167:..\..\..\arduinoLCD\test\Pain Drain\libraries\lvgl\src\hal/lv_hal_disp.c ****         return NULL;
 168:..\..\..\arduinoLCD\test\Pain Drain\libraries\lvgl\src\hal/lv_hal_disp.c ****     }
 169:..\..\..\arduinoLCD\test\Pain Drain\libraries\lvgl\src\hal/lv_hal_disp.c **** 
 170:..\..\..\arduinoLCD\test\Pain Drain\libraries\lvgl\src\hal/lv_hal_disp.c ****     /*Create a draw context if not created yet*/
 171:..\..\..\arduinoLCD\test\Pain Drain\libraries\lvgl\src\hal/lv_hal_disp.c ****     if(driver->draw_ctx == NULL) {
 172:..\..\..\arduinoLCD\test\Pain Drain\libraries\lvgl\src\hal/lv_hal_disp.c ****         lv_draw_ctx_t * draw_ctx = lv_mem_alloc(driver->draw_ctx_size);
 173:..\..\..\arduinoLCD\test\Pain Drain\libraries\lvgl\src\hal/lv_hal_disp.c ****         LV_ASSERT_MALLOC(draw_ctx);
 174:..\..\..\arduinoLCD\test\Pain Drain\libraries\lvgl\src\hal/lv_hal_disp.c ****         if(draw_ctx == NULL) return NULL;
 175:..\..\..\arduinoLCD\test\Pain Drain\libraries\lvgl\src\hal/lv_hal_disp.c ****         driver->draw_ctx_init(driver, draw_ctx);
 176:..\..\..\arduinoLCD\test\Pain Drain\libraries\lvgl\src\hal/lv_hal_disp.c ****         driver->draw_ctx = draw_ctx;
 177:..\..\..\arduinoLCD\test\Pain Drain\libraries\lvgl\src\hal/lv_hal_disp.c ****     }
 178:..\..\..\arduinoLCD\test\Pain Drain\libraries\lvgl\src\hal/lv_hal_disp.c **** 
 179:..\..\..\arduinoLCD\test\Pain Drain\libraries\lvgl\src\hal/lv_hal_disp.c ****     lv_memset_00(disp, sizeof(lv_disp_t));
 180:..\..\..\arduinoLCD\test\Pain Drain\libraries\lvgl\src\hal/lv_hal_disp.c **** 
 181:..\..\..\arduinoLCD\test\Pain Drain\libraries\lvgl\src\hal/lv_hal_disp.c ****     disp->driver = driver;
 182:..\..\..\arduinoLCD\test\Pain Drain\libraries\lvgl\src\hal/lv_hal_disp.c **** 
 183:..\..\..\arduinoLCD\test\Pain Drain\libraries\lvgl\src\hal/lv_hal_disp.c ****     disp->inv_en_cnt = 1;
 184:..\..\..\arduinoLCD\test\Pain Drain\libraries\lvgl\src\hal/lv_hal_disp.c **** 
 185:..\..\..\arduinoLCD\test\Pain Drain\libraries\lvgl\src\hal/lv_hal_disp.c ****     lv_disp_t * disp_def_tmp = disp_def;
 186:..\..\..\arduinoLCD\test\Pain Drain\libraries\lvgl\src\hal/lv_hal_disp.c ****     disp_def                 = disp; /*Temporarily change the default screen to create the default 
 187:..\..\..\arduinoLCD\test\Pain Drain\libraries\lvgl\src\hal/lv_hal_disp.c ****                                         new display*/
 188:..\..\..\arduinoLCD\test\Pain Drain\libraries\lvgl\src\hal/lv_hal_disp.c ****     /*Create a refresh timer*/
 189:..\..\..\arduinoLCD\test\Pain Drain\libraries\lvgl\src\hal/lv_hal_disp.c ****     disp->refr_timer = lv_timer_create(_lv_disp_refr_timer, LV_DISP_DEF_REFR_PERIOD, disp);
 190:..\..\..\arduinoLCD\test\Pain Drain\libraries\lvgl\src\hal/lv_hal_disp.c ****     LV_ASSERT_MALLOC(disp->refr_timer);
 191:..\..\..\arduinoLCD\test\Pain Drain\libraries\lvgl\src\hal/lv_hal_disp.c ****     if(disp->refr_timer == NULL) {
 192:..\..\..\arduinoLCD\test\Pain Drain\libraries\lvgl\src\hal/lv_hal_disp.c ****         lv_mem_free(disp);
 193:..\..\..\arduinoLCD\test\Pain Drain\libraries\lvgl\src\hal/lv_hal_disp.c ****         return NULL;
 194:..\..\..\arduinoLCD\test\Pain Drain\libraries\lvgl\src\hal/lv_hal_disp.c ****     }
 195:..\..\..\arduinoLCD\test\Pain Drain\libraries\lvgl\src\hal/lv_hal_disp.c **** 
 196:..\..\..\arduinoLCD\test\Pain Drain\libraries\lvgl\src\hal/lv_hal_disp.c ****     if(driver->full_refresh && driver->draw_buf->size < (uint32_t)driver->hor_res * driver->ver_res
 197:..\..\..\arduinoLCD\test\Pain Drain\libraries\lvgl\src\hal/lv_hal_disp.c ****         driver->full_refresh = 0;
 198:..\..\..\arduinoLCD\test\Pain Drain\libraries\lvgl\src\hal/lv_hal_disp.c ****         LV_LOG_WARN("full_refresh requires at least screen sized draw buffer(s)");
 199:..\..\..\arduinoLCD\test\Pain Drain\libraries\lvgl\src\hal/lv_hal_disp.c ****     }
 200:..\..\..\arduinoLCD\test\Pain Drain\libraries\lvgl\src\hal/lv_hal_disp.c **** 
 201:..\..\..\arduinoLCD\test\Pain Drain\libraries\lvgl\src\hal/lv_hal_disp.c ****     disp->bg_color = lv_color_white();
ARM GAS  C:\Users\haske\AppData\Local\Temp\ccN8jSR9.s 			page 5


 202:..\..\..\arduinoLCD\test\Pain Drain\libraries\lvgl\src\hal/lv_hal_disp.c **** #if LV_COLOR_SCREEN_TRANSP
 203:..\..\..\arduinoLCD\test\Pain Drain\libraries\lvgl\src\hal/lv_hal_disp.c ****     disp->bg_opa = LV_OPA_TRANSP;
 204:..\..\..\arduinoLCD\test\Pain Drain\libraries\lvgl\src\hal/lv_hal_disp.c **** #else
 205:..\..\..\arduinoLCD\test\Pain Drain\libraries\lvgl\src\hal/lv_hal_disp.c ****     disp->bg_opa = LV_OPA_COVER;
 206:..\..\..\arduinoLCD\test\Pain Drain\libraries\lvgl\src\hal/lv_hal_disp.c **** #endif
 207:..\..\..\arduinoLCD\test\Pain Drain\libraries\lvgl\src\hal/lv_hal_disp.c **** 
 208:..\..\..\arduinoLCD\test\Pain Drain\libraries\lvgl\src\hal/lv_hal_disp.c **** #if LV_USE_THEME_DEFAULT
 209:..\..\..\arduinoLCD\test\Pain Drain\libraries\lvgl\src\hal/lv_hal_disp.c ****     if(lv_theme_default_is_inited() == false) {
 210:..\..\..\arduinoLCD\test\Pain Drain\libraries\lvgl\src\hal/lv_hal_disp.c ****         disp->theme = lv_theme_default_init(disp, lv_palette_main(LV_PALETTE_BLUE), lv_palette_main
 211:..\..\..\arduinoLCD\test\Pain Drain\libraries\lvgl\src\hal/lv_hal_disp.c ****                                             LV_THEME_DEFAULT_DARK, LV_FONT_DEFAULT);
 212:..\..\..\arduinoLCD\test\Pain Drain\libraries\lvgl\src\hal/lv_hal_disp.c ****     }
 213:..\..\..\arduinoLCD\test\Pain Drain\libraries\lvgl\src\hal/lv_hal_disp.c ****     else {
 214:..\..\..\arduinoLCD\test\Pain Drain\libraries\lvgl\src\hal/lv_hal_disp.c ****         disp->theme = lv_theme_default_get();
 215:..\..\..\arduinoLCD\test\Pain Drain\libraries\lvgl\src\hal/lv_hal_disp.c ****     }
 216:..\..\..\arduinoLCD\test\Pain Drain\libraries\lvgl\src\hal/lv_hal_disp.c **** #endif
 217:..\..\..\arduinoLCD\test\Pain Drain\libraries\lvgl\src\hal/lv_hal_disp.c **** 
 218:..\..\..\arduinoLCD\test\Pain Drain\libraries\lvgl\src\hal/lv_hal_disp.c ****     disp->act_scr   = lv_obj_create(NULL); /*Create a default screen on the display*/
 219:..\..\..\arduinoLCD\test\Pain Drain\libraries\lvgl\src\hal/lv_hal_disp.c ****     disp->top_layer = lv_obj_create(NULL); /*Create top layer on the display*/
 220:..\..\..\arduinoLCD\test\Pain Drain\libraries\lvgl\src\hal/lv_hal_disp.c ****     disp->sys_layer = lv_obj_create(NULL); /*Create sys layer on the display*/
 221:..\..\..\arduinoLCD\test\Pain Drain\libraries\lvgl\src\hal/lv_hal_disp.c ****     lv_obj_remove_style_all(disp->top_layer);
 222:..\..\..\arduinoLCD\test\Pain Drain\libraries\lvgl\src\hal/lv_hal_disp.c ****     lv_obj_remove_style_all(disp->sys_layer);
 223:..\..\..\arduinoLCD\test\Pain Drain\libraries\lvgl\src\hal/lv_hal_disp.c ****     lv_obj_clear_flag(disp->top_layer, LV_OBJ_FLAG_CLICKABLE);
 224:..\..\..\arduinoLCD\test\Pain Drain\libraries\lvgl\src\hal/lv_hal_disp.c ****     lv_obj_clear_flag(disp->sys_layer, LV_OBJ_FLAG_CLICKABLE);
 225:..\..\..\arduinoLCD\test\Pain Drain\libraries\lvgl\src\hal/lv_hal_disp.c **** 
 226:..\..\..\arduinoLCD\test\Pain Drain\libraries\lvgl\src\hal/lv_hal_disp.c ****     lv_obj_set_scrollbar_mode(disp->top_layer, LV_SCROLLBAR_MODE_OFF);
 227:..\..\..\arduinoLCD\test\Pain Drain\libraries\lvgl\src\hal/lv_hal_disp.c ****     lv_obj_set_scrollbar_mode(disp->sys_layer, LV_SCROLLBAR_MODE_OFF);
 228:..\..\..\arduinoLCD\test\Pain Drain\libraries\lvgl\src\hal/lv_hal_disp.c **** 
 229:..\..\..\arduinoLCD\test\Pain Drain\libraries\lvgl\src\hal/lv_hal_disp.c ****     lv_obj_invalidate(disp->act_scr);
 230:..\..\..\arduinoLCD\test\Pain Drain\libraries\lvgl\src\hal/lv_hal_disp.c **** 
 231:..\..\..\arduinoLCD\test\Pain Drain\libraries\lvgl\src\hal/lv_hal_disp.c ****     disp_def = disp_def_tmp; /*Revert the default display*/
 232:..\..\..\arduinoLCD\test\Pain Drain\libraries\lvgl\src\hal/lv_hal_disp.c ****     if(disp_def == NULL) disp_def = disp; /*Initialize the default display*/
 233:..\..\..\arduinoLCD\test\Pain Drain\libraries\lvgl\src\hal/lv_hal_disp.c **** 
 234:..\..\..\arduinoLCD\test\Pain Drain\libraries\lvgl\src\hal/lv_hal_disp.c ****     lv_timer_ready(disp->refr_timer); /*Be sure the screen will be refreshed immediately on start u
 235:..\..\..\arduinoLCD\test\Pain Drain\libraries\lvgl\src\hal/lv_hal_disp.c **** 
 236:..\..\..\arduinoLCD\test\Pain Drain\libraries\lvgl\src\hal/lv_hal_disp.c ****     return disp;
 237:..\..\..\arduinoLCD\test\Pain Drain\libraries\lvgl\src\hal/lv_hal_disp.c **** }
 238:..\..\..\arduinoLCD\test\Pain Drain\libraries\lvgl\src\hal/lv_hal_disp.c **** 
 239:..\..\..\arduinoLCD\test\Pain Drain\libraries\lvgl\src\hal/lv_hal_disp.c **** /**
 240:..\..\..\arduinoLCD\test\Pain Drain\libraries\lvgl\src\hal/lv_hal_disp.c ****  * Update the driver in run time.
 241:..\..\..\arduinoLCD\test\Pain Drain\libraries\lvgl\src\hal/lv_hal_disp.c ****  * @param disp pointer to a display. (return value of `lv_disp_drv_register`)
 242:..\..\..\arduinoLCD\test\Pain Drain\libraries\lvgl\src\hal/lv_hal_disp.c ****  * @param new_drv pointer to the new driver
 243:..\..\..\arduinoLCD\test\Pain Drain\libraries\lvgl\src\hal/lv_hal_disp.c ****  */
 244:..\..\..\arduinoLCD\test\Pain Drain\libraries\lvgl\src\hal/lv_hal_disp.c **** void lv_disp_drv_update(lv_disp_t * disp, lv_disp_drv_t * new_drv)
 245:..\..\..\arduinoLCD\test\Pain Drain\libraries\lvgl\src\hal/lv_hal_disp.c **** {
 246:..\..\..\arduinoLCD\test\Pain Drain\libraries\lvgl\src\hal/lv_hal_disp.c ****     disp->driver = new_drv;
 247:..\..\..\arduinoLCD\test\Pain Drain\libraries\lvgl\src\hal/lv_hal_disp.c **** 
 248:..\..\..\arduinoLCD\test\Pain Drain\libraries\lvgl\src\hal/lv_hal_disp.c ****     if(disp->driver->full_refresh &&
 249:..\..\..\arduinoLCD\test\Pain Drain\libraries\lvgl\src\hal/lv_hal_disp.c ****        disp->driver->draw_buf->size < (uint32_t)disp->driver->hor_res * disp->driver->ver_res) {
 250:..\..\..\arduinoLCD\test\Pain Drain\libraries\lvgl\src\hal/lv_hal_disp.c ****         disp->driver->full_refresh = 0;
 251:..\..\..\arduinoLCD\test\Pain Drain\libraries\lvgl\src\hal/lv_hal_disp.c ****         LV_LOG_WARN("full_refresh requires at least screen sized draw buffer(s)");
 252:..\..\..\arduinoLCD\test\Pain Drain\libraries\lvgl\src\hal/lv_hal_disp.c ****     }
 253:..\..\..\arduinoLCD\test\Pain Drain\libraries\lvgl\src\hal/lv_hal_disp.c **** 
 254:..\..\..\arduinoLCD\test\Pain Drain\libraries\lvgl\src\hal/lv_hal_disp.c ****     lv_coord_t w = lv_disp_get_hor_res(disp);
 255:..\..\..\arduinoLCD\test\Pain Drain\libraries\lvgl\src\hal/lv_hal_disp.c ****     lv_coord_t h = lv_disp_get_ver_res(disp);
 256:..\..\..\arduinoLCD\test\Pain Drain\libraries\lvgl\src\hal/lv_hal_disp.c ****     uint32_t i;
 257:..\..\..\arduinoLCD\test\Pain Drain\libraries\lvgl\src\hal/lv_hal_disp.c ****     for(i = 0; i < disp->screen_cnt; i++) {
 258:..\..\..\arduinoLCD\test\Pain Drain\libraries\lvgl\src\hal/lv_hal_disp.c ****         lv_area_t prev_coords;
ARM GAS  C:\Users\haske\AppData\Local\Temp\ccN8jSR9.s 			page 6


 259:..\..\..\arduinoLCD\test\Pain Drain\libraries\lvgl\src\hal/lv_hal_disp.c ****         lv_obj_get_coords(disp->screens[i], &prev_coords);
 260:..\..\..\arduinoLCD\test\Pain Drain\libraries\lvgl\src\hal/lv_hal_disp.c ****         lv_area_set_width(&disp->screens[i]->coords, w);
 261:..\..\..\arduinoLCD\test\Pain Drain\libraries\lvgl\src\hal/lv_hal_disp.c ****         lv_area_set_height(&disp->screens[i]->coords, h);
 262:..\..\..\arduinoLCD\test\Pain Drain\libraries\lvgl\src\hal/lv_hal_disp.c ****         lv_event_send(disp->screens[i], LV_EVENT_SIZE_CHANGED, &prev_coords);
 263:..\..\..\arduinoLCD\test\Pain Drain\libraries\lvgl\src\hal/lv_hal_disp.c ****     }
 264:..\..\..\arduinoLCD\test\Pain Drain\libraries\lvgl\src\hal/lv_hal_disp.c **** 
 265:..\..\..\arduinoLCD\test\Pain Drain\libraries\lvgl\src\hal/lv_hal_disp.c ****     /*
 266:..\..\..\arduinoLCD\test\Pain Drain\libraries\lvgl\src\hal/lv_hal_disp.c ****      * This method is usually called upon orientation change, thus the screen is now a
 267:..\..\..\arduinoLCD\test\Pain Drain\libraries\lvgl\src\hal/lv_hal_disp.c ****      * different size.
 268:..\..\..\arduinoLCD\test\Pain Drain\libraries\lvgl\src\hal/lv_hal_disp.c ****      * The object invalidated its previous area. That area is now out of the screen area
 269:..\..\..\arduinoLCD\test\Pain Drain\libraries\lvgl\src\hal/lv_hal_disp.c ****      * so we reset all invalidated areas and invalidate the active screen's new area only.
 270:..\..\..\arduinoLCD\test\Pain Drain\libraries\lvgl\src\hal/lv_hal_disp.c ****      */
 271:..\..\..\arduinoLCD\test\Pain Drain\libraries\lvgl\src\hal/lv_hal_disp.c ****     lv_memset_00(disp->inv_areas, sizeof(disp->inv_areas));
 272:..\..\..\arduinoLCD\test\Pain Drain\libraries\lvgl\src\hal/lv_hal_disp.c ****     lv_memset_00(disp->inv_area_joined, sizeof(disp->inv_area_joined));
 273:..\..\..\arduinoLCD\test\Pain Drain\libraries\lvgl\src\hal/lv_hal_disp.c ****     disp->inv_p = 0;
 274:..\..\..\arduinoLCD\test\Pain Drain\libraries\lvgl\src\hal/lv_hal_disp.c ****     if(disp->act_scr != NULL) lv_obj_invalidate(disp->act_scr);
 275:..\..\..\arduinoLCD\test\Pain Drain\libraries\lvgl\src\hal/lv_hal_disp.c **** 
 276:..\..\..\arduinoLCD\test\Pain Drain\libraries\lvgl\src\hal/lv_hal_disp.c ****     lv_obj_tree_walk(NULL, invalidate_layout_cb, NULL);
 277:..\..\..\arduinoLCD\test\Pain Drain\libraries\lvgl\src\hal/lv_hal_disp.c **** 
 278:..\..\..\arduinoLCD\test\Pain Drain\libraries\lvgl\src\hal/lv_hal_disp.c ****     if(disp->driver->drv_update_cb) disp->driver->drv_update_cb(disp->driver);
 279:..\..\..\arduinoLCD\test\Pain Drain\libraries\lvgl\src\hal/lv_hal_disp.c **** }
 280:..\..\..\arduinoLCD\test\Pain Drain\libraries\lvgl\src\hal/lv_hal_disp.c **** 
 281:..\..\..\arduinoLCD\test\Pain Drain\libraries\lvgl\src\hal/lv_hal_disp.c **** /**
 282:..\..\..\arduinoLCD\test\Pain Drain\libraries\lvgl\src\hal/lv_hal_disp.c ****  * Remove a display
 283:..\..\..\arduinoLCD\test\Pain Drain\libraries\lvgl\src\hal/lv_hal_disp.c ****  * @param disp pointer to display
 284:..\..\..\arduinoLCD\test\Pain Drain\libraries\lvgl\src\hal/lv_hal_disp.c ****  */
 285:..\..\..\arduinoLCD\test\Pain Drain\libraries\lvgl\src\hal/lv_hal_disp.c **** void lv_disp_remove(lv_disp_t * disp)
 286:..\..\..\arduinoLCD\test\Pain Drain\libraries\lvgl\src\hal/lv_hal_disp.c **** {
 287:..\..\..\arduinoLCD\test\Pain Drain\libraries\lvgl\src\hal/lv_hal_disp.c ****     bool was_default = false;
 288:..\..\..\arduinoLCD\test\Pain Drain\libraries\lvgl\src\hal/lv_hal_disp.c ****     if(disp == lv_disp_get_default()) was_default = true;
 289:..\..\..\arduinoLCD\test\Pain Drain\libraries\lvgl\src\hal/lv_hal_disp.c **** 
 290:..\..\..\arduinoLCD\test\Pain Drain\libraries\lvgl\src\hal/lv_hal_disp.c ****     /*Detach the input devices*/
 291:..\..\..\arduinoLCD\test\Pain Drain\libraries\lvgl\src\hal/lv_hal_disp.c ****     lv_indev_t * indev;
 292:..\..\..\arduinoLCD\test\Pain Drain\libraries\lvgl\src\hal/lv_hal_disp.c ****     indev = lv_indev_get_next(NULL);
 293:..\..\..\arduinoLCD\test\Pain Drain\libraries\lvgl\src\hal/lv_hal_disp.c ****     while(indev) {
 294:..\..\..\arduinoLCD\test\Pain Drain\libraries\lvgl\src\hal/lv_hal_disp.c ****         if(indev->driver->disp == disp) {
 295:..\..\..\arduinoLCD\test\Pain Drain\libraries\lvgl\src\hal/lv_hal_disp.c ****             indev->driver->disp = NULL;
 296:..\..\..\arduinoLCD\test\Pain Drain\libraries\lvgl\src\hal/lv_hal_disp.c ****         }
 297:..\..\..\arduinoLCD\test\Pain Drain\libraries\lvgl\src\hal/lv_hal_disp.c ****         indev = lv_indev_get_next(indev);
 298:..\..\..\arduinoLCD\test\Pain Drain\libraries\lvgl\src\hal/lv_hal_disp.c ****     }
 299:..\..\..\arduinoLCD\test\Pain Drain\libraries\lvgl\src\hal/lv_hal_disp.c **** 
 300:..\..\..\arduinoLCD\test\Pain Drain\libraries\lvgl\src\hal/lv_hal_disp.c ****     /** delete screen and other obj */
 301:..\..\..\arduinoLCD\test\Pain Drain\libraries\lvgl\src\hal/lv_hal_disp.c ****     if(disp->sys_layer) {
 302:..\..\..\arduinoLCD\test\Pain Drain\libraries\lvgl\src\hal/lv_hal_disp.c ****         lv_obj_del(disp->sys_layer);
 303:..\..\..\arduinoLCD\test\Pain Drain\libraries\lvgl\src\hal/lv_hal_disp.c ****         disp->sys_layer = NULL;
 304:..\..\..\arduinoLCD\test\Pain Drain\libraries\lvgl\src\hal/lv_hal_disp.c ****     }
 305:..\..\..\arduinoLCD\test\Pain Drain\libraries\lvgl\src\hal/lv_hal_disp.c ****     if(disp->top_layer) {
 306:..\..\..\arduinoLCD\test\Pain Drain\libraries\lvgl\src\hal/lv_hal_disp.c ****         lv_obj_del(disp->top_layer);
 307:..\..\..\arduinoLCD\test\Pain Drain\libraries\lvgl\src\hal/lv_hal_disp.c ****         disp->top_layer = NULL;
 308:..\..\..\arduinoLCD\test\Pain Drain\libraries\lvgl\src\hal/lv_hal_disp.c ****     }
 309:..\..\..\arduinoLCD\test\Pain Drain\libraries\lvgl\src\hal/lv_hal_disp.c ****     while(disp->screen_cnt != 0) {
 310:..\..\..\arduinoLCD\test\Pain Drain\libraries\lvgl\src\hal/lv_hal_disp.c ****         /*Delete the screenst*/
 311:..\..\..\arduinoLCD\test\Pain Drain\libraries\lvgl\src\hal/lv_hal_disp.c ****         lv_obj_del(disp->screens[0]);
 312:..\..\..\arduinoLCD\test\Pain Drain\libraries\lvgl\src\hal/lv_hal_disp.c ****     }
 313:..\..\..\arduinoLCD\test\Pain Drain\libraries\lvgl\src\hal/lv_hal_disp.c **** 
 314:..\..\..\arduinoLCD\test\Pain Drain\libraries\lvgl\src\hal/lv_hal_disp.c ****     _lv_ll_remove(&LV_GC_ROOT(_lv_disp_ll), disp);
 315:..\..\..\arduinoLCD\test\Pain Drain\libraries\lvgl\src\hal/lv_hal_disp.c ****     if(disp->refr_timer) lv_timer_del(disp->refr_timer);
ARM GAS  C:\Users\haske\AppData\Local\Temp\ccN8jSR9.s 			page 7


 316:..\..\..\arduinoLCD\test\Pain Drain\libraries\lvgl\src\hal/lv_hal_disp.c ****     lv_mem_free(disp);
 317:..\..\..\arduinoLCD\test\Pain Drain\libraries\lvgl\src\hal/lv_hal_disp.c **** 
 318:..\..\..\arduinoLCD\test\Pain Drain\libraries\lvgl\src\hal/lv_hal_disp.c ****     if(was_default) lv_disp_set_default(_lv_ll_get_head(&LV_GC_ROOT(_lv_disp_ll)));
 319:..\..\..\arduinoLCD\test\Pain Drain\libraries\lvgl\src\hal/lv_hal_disp.c **** }
 320:..\..\..\arduinoLCD\test\Pain Drain\libraries\lvgl\src\hal/lv_hal_disp.c **** 
 321:..\..\..\arduinoLCD\test\Pain Drain\libraries\lvgl\src\hal/lv_hal_disp.c **** /**
 322:..\..\..\arduinoLCD\test\Pain Drain\libraries\lvgl\src\hal/lv_hal_disp.c ****  * Set a default display. The new screens will be created on it by default.
 323:..\..\..\arduinoLCD\test\Pain Drain\libraries\lvgl\src\hal/lv_hal_disp.c ****  * @param disp pointer to a display
 324:..\..\..\arduinoLCD\test\Pain Drain\libraries\lvgl\src\hal/lv_hal_disp.c ****  */
 325:..\..\..\arduinoLCD\test\Pain Drain\libraries\lvgl\src\hal/lv_hal_disp.c **** void lv_disp_set_default(lv_disp_t * disp)
 326:..\..\..\arduinoLCD\test\Pain Drain\libraries\lvgl\src\hal/lv_hal_disp.c **** {
 327:..\..\..\arduinoLCD\test\Pain Drain\libraries\lvgl\src\hal/lv_hal_disp.c ****     disp_def = disp;
 328:..\..\..\arduinoLCD\test\Pain Drain\libraries\lvgl\src\hal/lv_hal_disp.c **** }
 329:..\..\..\arduinoLCD\test\Pain Drain\libraries\lvgl\src\hal/lv_hal_disp.c **** 
 330:..\..\..\arduinoLCD\test\Pain Drain\libraries\lvgl\src\hal/lv_hal_disp.c **** /**
 331:..\..\..\arduinoLCD\test\Pain Drain\libraries\lvgl\src\hal/lv_hal_disp.c ****  * Get the default display
 332:..\..\..\arduinoLCD\test\Pain Drain\libraries\lvgl\src\hal/lv_hal_disp.c ****  * @return pointer to the default display
 333:..\..\..\arduinoLCD\test\Pain Drain\libraries\lvgl\src\hal/lv_hal_disp.c ****  */
 334:..\..\..\arduinoLCD\test\Pain Drain\libraries\lvgl\src\hal/lv_hal_disp.c **** lv_disp_t * lv_disp_get_default(void)
 335:..\..\..\arduinoLCD\test\Pain Drain\libraries\lvgl\src\hal/lv_hal_disp.c **** {
 336:..\..\..\arduinoLCD\test\Pain Drain\libraries\lvgl\src\hal/lv_hal_disp.c ****     return disp_def;
 337:..\..\..\arduinoLCD\test\Pain Drain\libraries\lvgl\src\hal/lv_hal_disp.c **** }
 338:..\..\..\arduinoLCD\test\Pain Drain\libraries\lvgl\src\hal/lv_hal_disp.c **** 
 339:..\..\..\arduinoLCD\test\Pain Drain\libraries\lvgl\src\hal/lv_hal_disp.c **** /**
 340:..\..\..\arduinoLCD\test\Pain Drain\libraries\lvgl\src\hal/lv_hal_disp.c ****  * Get the horizontal resolution of a display
 341:..\..\..\arduinoLCD\test\Pain Drain\libraries\lvgl\src\hal/lv_hal_disp.c ****  * @param disp pointer to a display (NULL to use the default display)
 342:..\..\..\arduinoLCD\test\Pain Drain\libraries\lvgl\src\hal/lv_hal_disp.c ****  * @return the horizontal resolution of the display
 343:..\..\..\arduinoLCD\test\Pain Drain\libraries\lvgl\src\hal/lv_hal_disp.c ****  */
 344:..\..\..\arduinoLCD\test\Pain Drain\libraries\lvgl\src\hal/lv_hal_disp.c **** lv_coord_t lv_disp_get_hor_res(lv_disp_t * disp)
 345:..\..\..\arduinoLCD\test\Pain Drain\libraries\lvgl\src\hal/lv_hal_disp.c **** {
 346:..\..\..\arduinoLCD\test\Pain Drain\libraries\lvgl\src\hal/lv_hal_disp.c ****     if(disp == NULL) disp = lv_disp_get_default();
 347:..\..\..\arduinoLCD\test\Pain Drain\libraries\lvgl\src\hal/lv_hal_disp.c **** 
 348:..\..\..\arduinoLCD\test\Pain Drain\libraries\lvgl\src\hal/lv_hal_disp.c ****     if(disp == NULL) {
 349:..\..\..\arduinoLCD\test\Pain Drain\libraries\lvgl\src\hal/lv_hal_disp.c ****         return 0;
 350:..\..\..\arduinoLCD\test\Pain Drain\libraries\lvgl\src\hal/lv_hal_disp.c ****     }
 351:..\..\..\arduinoLCD\test\Pain Drain\libraries\lvgl\src\hal/lv_hal_disp.c ****     else {
 352:..\..\..\arduinoLCD\test\Pain Drain\libraries\lvgl\src\hal/lv_hal_disp.c ****         switch(disp->driver->rotated) {
 353:..\..\..\arduinoLCD\test\Pain Drain\libraries\lvgl\src\hal/lv_hal_disp.c ****             case LV_DISP_ROT_90:
 354:..\..\..\arduinoLCD\test\Pain Drain\libraries\lvgl\src\hal/lv_hal_disp.c ****             case LV_DISP_ROT_270:
 355:..\..\..\arduinoLCD\test\Pain Drain\libraries\lvgl\src\hal/lv_hal_disp.c ****                 return disp->driver->ver_res;
 356:..\..\..\arduinoLCD\test\Pain Drain\libraries\lvgl\src\hal/lv_hal_disp.c ****             default:
 357:..\..\..\arduinoLCD\test\Pain Drain\libraries\lvgl\src\hal/lv_hal_disp.c ****                 return disp->driver->hor_res;
 358:..\..\..\arduinoLCD\test\Pain Drain\libraries\lvgl\src\hal/lv_hal_disp.c ****         }
 359:..\..\..\arduinoLCD\test\Pain Drain\libraries\lvgl\src\hal/lv_hal_disp.c ****     }
 360:..\..\..\arduinoLCD\test\Pain Drain\libraries\lvgl\src\hal/lv_hal_disp.c **** }
 361:..\..\..\arduinoLCD\test\Pain Drain\libraries\lvgl\src\hal/lv_hal_disp.c **** 
 362:..\..\..\arduinoLCD\test\Pain Drain\libraries\lvgl\src\hal/lv_hal_disp.c **** /**
 363:..\..\..\arduinoLCD\test\Pain Drain\libraries\lvgl\src\hal/lv_hal_disp.c ****  * Get the vertical resolution of a display
 364:..\..\..\arduinoLCD\test\Pain Drain\libraries\lvgl\src\hal/lv_hal_disp.c ****  * @param disp pointer to a display (NULL to use the default display)
 365:..\..\..\arduinoLCD\test\Pain Drain\libraries\lvgl\src\hal/lv_hal_disp.c ****  * @return the vertical resolution of the display
 366:..\..\..\arduinoLCD\test\Pain Drain\libraries\lvgl\src\hal/lv_hal_disp.c ****  */
 367:..\..\..\arduinoLCD\test\Pain Drain\libraries\lvgl\src\hal/lv_hal_disp.c **** lv_coord_t lv_disp_get_ver_res(lv_disp_t * disp)
 368:..\..\..\arduinoLCD\test\Pain Drain\libraries\lvgl\src\hal/lv_hal_disp.c **** {
 369:..\..\..\arduinoLCD\test\Pain Drain\libraries\lvgl\src\hal/lv_hal_disp.c ****     if(disp == NULL) disp = lv_disp_get_default();
 370:..\..\..\arduinoLCD\test\Pain Drain\libraries\lvgl\src\hal/lv_hal_disp.c **** 
 371:..\..\..\arduinoLCD\test\Pain Drain\libraries\lvgl\src\hal/lv_hal_disp.c ****     if(disp == NULL) {
 372:..\..\..\arduinoLCD\test\Pain Drain\libraries\lvgl\src\hal/lv_hal_disp.c ****         return 0;
ARM GAS  C:\Users\haske\AppData\Local\Temp\ccN8jSR9.s 			page 8


 373:..\..\..\arduinoLCD\test\Pain Drain\libraries\lvgl\src\hal/lv_hal_disp.c ****     }
 374:..\..\..\arduinoLCD\test\Pain Drain\libraries\lvgl\src\hal/lv_hal_disp.c ****     else {
 375:..\..\..\arduinoLCD\test\Pain Drain\libraries\lvgl\src\hal/lv_hal_disp.c ****         switch(disp->driver->rotated) {
 376:..\..\..\arduinoLCD\test\Pain Drain\libraries\lvgl\src\hal/lv_hal_disp.c ****             case LV_DISP_ROT_90:
 377:..\..\..\arduinoLCD\test\Pain Drain\libraries\lvgl\src\hal/lv_hal_disp.c ****             case LV_DISP_ROT_270:
 378:..\..\..\arduinoLCD\test\Pain Drain\libraries\lvgl\src\hal/lv_hal_disp.c ****                 return disp->driver->hor_res;
 379:..\..\..\arduinoLCD\test\Pain Drain\libraries\lvgl\src\hal/lv_hal_disp.c ****             default:
 380:..\..\..\arduinoLCD\test\Pain Drain\libraries\lvgl\src\hal/lv_hal_disp.c ****                 return disp->driver->ver_res;
 381:..\..\..\arduinoLCD\test\Pain Drain\libraries\lvgl\src\hal/lv_hal_disp.c ****         }
 382:..\..\..\arduinoLCD\test\Pain Drain\libraries\lvgl\src\hal/lv_hal_disp.c ****     }
 383:..\..\..\arduinoLCD\test\Pain Drain\libraries\lvgl\src\hal/lv_hal_disp.c **** }
 384:..\..\..\arduinoLCD\test\Pain Drain\libraries\lvgl\src\hal/lv_hal_disp.c **** 
 385:..\..\..\arduinoLCD\test\Pain Drain\libraries\lvgl\src\hal/lv_hal_disp.c **** /**
 386:..\..\..\arduinoLCD\test\Pain Drain\libraries\lvgl\src\hal/lv_hal_disp.c ****  * Get the full / physical horizontal resolution of a display
 387:..\..\..\arduinoLCD\test\Pain Drain\libraries\lvgl\src\hal/lv_hal_disp.c ****  * @param disp pointer to a display (NULL to use the default display)
 388:..\..\..\arduinoLCD\test\Pain Drain\libraries\lvgl\src\hal/lv_hal_disp.c ****  * @return the full / physical horizontal resolution of the display
 389:..\..\..\arduinoLCD\test\Pain Drain\libraries\lvgl\src\hal/lv_hal_disp.c ****  */
 390:..\..\..\arduinoLCD\test\Pain Drain\libraries\lvgl\src\hal/lv_hal_disp.c **** lv_coord_t lv_disp_get_physical_hor_res(lv_disp_t * disp)
 391:..\..\..\arduinoLCD\test\Pain Drain\libraries\lvgl\src\hal/lv_hal_disp.c **** {
 392:..\..\..\arduinoLCD\test\Pain Drain\libraries\lvgl\src\hal/lv_hal_disp.c ****     if(disp == NULL) disp = lv_disp_get_default();
 393:..\..\..\arduinoLCD\test\Pain Drain\libraries\lvgl\src\hal/lv_hal_disp.c **** 
 394:..\..\..\arduinoLCD\test\Pain Drain\libraries\lvgl\src\hal/lv_hal_disp.c ****     if(disp == NULL) {
 395:..\..\..\arduinoLCD\test\Pain Drain\libraries\lvgl\src\hal/lv_hal_disp.c ****         return 0;
 396:..\..\..\arduinoLCD\test\Pain Drain\libraries\lvgl\src\hal/lv_hal_disp.c ****     }
 397:..\..\..\arduinoLCD\test\Pain Drain\libraries\lvgl\src\hal/lv_hal_disp.c ****     else {
 398:..\..\..\arduinoLCD\test\Pain Drain\libraries\lvgl\src\hal/lv_hal_disp.c ****         switch(disp->driver->rotated) {
 399:..\..\..\arduinoLCD\test\Pain Drain\libraries\lvgl\src\hal/lv_hal_disp.c ****             case LV_DISP_ROT_90:
 400:..\..\..\arduinoLCD\test\Pain Drain\libraries\lvgl\src\hal/lv_hal_disp.c ****             case LV_DISP_ROT_270:
 401:..\..\..\arduinoLCD\test\Pain Drain\libraries\lvgl\src\hal/lv_hal_disp.c ****                 return disp->driver->physical_ver_res > 0 ? disp->driver->physical_ver_res : disp->
 402:..\..\..\arduinoLCD\test\Pain Drain\libraries\lvgl\src\hal/lv_hal_disp.c ****             default:
 403:..\..\..\arduinoLCD\test\Pain Drain\libraries\lvgl\src\hal/lv_hal_disp.c ****                 return disp->driver->physical_hor_res > 0 ? disp->driver->physical_hor_res : disp->
 404:..\..\..\arduinoLCD\test\Pain Drain\libraries\lvgl\src\hal/lv_hal_disp.c ****         }
 405:..\..\..\arduinoLCD\test\Pain Drain\libraries\lvgl\src\hal/lv_hal_disp.c ****     }
 406:..\..\..\arduinoLCD\test\Pain Drain\libraries\lvgl\src\hal/lv_hal_disp.c **** }
 407:..\..\..\arduinoLCD\test\Pain Drain\libraries\lvgl\src\hal/lv_hal_disp.c **** 
 408:..\..\..\arduinoLCD\test\Pain Drain\libraries\lvgl\src\hal/lv_hal_disp.c **** /**
 409:..\..\..\arduinoLCD\test\Pain Drain\libraries\lvgl\src\hal/lv_hal_disp.c ****  * Get the full / physical vertical resolution of a display
 410:..\..\..\arduinoLCD\test\Pain Drain\libraries\lvgl\src\hal/lv_hal_disp.c ****  * @param disp pointer to a display (NULL to use the default display)
 411:..\..\..\arduinoLCD\test\Pain Drain\libraries\lvgl\src\hal/lv_hal_disp.c ****  * @return the full / physical vertical resolution of the display
 412:..\..\..\arduinoLCD\test\Pain Drain\libraries\lvgl\src\hal/lv_hal_disp.c ****  */
 413:..\..\..\arduinoLCD\test\Pain Drain\libraries\lvgl\src\hal/lv_hal_disp.c **** lv_coord_t lv_disp_get_physical_ver_res(lv_disp_t * disp)
 414:..\..\..\arduinoLCD\test\Pain Drain\libraries\lvgl\src\hal/lv_hal_disp.c **** {
 415:..\..\..\arduinoLCD\test\Pain Drain\libraries\lvgl\src\hal/lv_hal_disp.c ****     if(disp == NULL) disp = lv_disp_get_default();
 416:..\..\..\arduinoLCD\test\Pain Drain\libraries\lvgl\src\hal/lv_hal_disp.c **** 
 417:..\..\..\arduinoLCD\test\Pain Drain\libraries\lvgl\src\hal/lv_hal_disp.c ****     if(disp == NULL) {
 418:..\..\..\arduinoLCD\test\Pain Drain\libraries\lvgl\src\hal/lv_hal_disp.c ****         return 0;
 419:..\..\..\arduinoLCD\test\Pain Drain\libraries\lvgl\src\hal/lv_hal_disp.c ****     }
 420:..\..\..\arduinoLCD\test\Pain Drain\libraries\lvgl\src\hal/lv_hal_disp.c ****     else {
 421:..\..\..\arduinoLCD\test\Pain Drain\libraries\lvgl\src\hal/lv_hal_disp.c ****         switch(disp->driver->rotated) {
 422:..\..\..\arduinoLCD\test\Pain Drain\libraries\lvgl\src\hal/lv_hal_disp.c ****             case LV_DISP_ROT_90:
 423:..\..\..\arduinoLCD\test\Pain Drain\libraries\lvgl\src\hal/lv_hal_disp.c ****             case LV_DISP_ROT_270:
 424:..\..\..\arduinoLCD\test\Pain Drain\libraries\lvgl\src\hal/lv_hal_disp.c ****                 return disp->driver->physical_hor_res > 0 ? disp->driver->physical_hor_res : disp->
 425:..\..\..\arduinoLCD\test\Pain Drain\libraries\lvgl\src\hal/lv_hal_disp.c ****             default:
 426:..\..\..\arduinoLCD\test\Pain Drain\libraries\lvgl\src\hal/lv_hal_disp.c ****                 return disp->driver->physical_ver_res > 0 ? disp->driver->physical_ver_res : disp->
 427:..\..\..\arduinoLCD\test\Pain Drain\libraries\lvgl\src\hal/lv_hal_disp.c ****         }
 428:..\..\..\arduinoLCD\test\Pain Drain\libraries\lvgl\src\hal/lv_hal_disp.c ****     }
 429:..\..\..\arduinoLCD\test\Pain Drain\libraries\lvgl\src\hal/lv_hal_disp.c **** }
ARM GAS  C:\Users\haske\AppData\Local\Temp\ccN8jSR9.s 			page 9


 430:..\..\..\arduinoLCD\test\Pain Drain\libraries\lvgl\src\hal/lv_hal_disp.c **** 
 431:..\..\..\arduinoLCD\test\Pain Drain\libraries\lvgl\src\hal/lv_hal_disp.c **** /**
 432:..\..\..\arduinoLCD\test\Pain Drain\libraries\lvgl\src\hal/lv_hal_disp.c ****  * Get the horizontal offset from the full / physical display
 433:..\..\..\arduinoLCD\test\Pain Drain\libraries\lvgl\src\hal/lv_hal_disp.c ****  * @param disp pointer to a display (NULL to use the default display)
 434:..\..\..\arduinoLCD\test\Pain Drain\libraries\lvgl\src\hal/lv_hal_disp.c ****  * @return the horizontal offset from the full / physical display
 435:..\..\..\arduinoLCD\test\Pain Drain\libraries\lvgl\src\hal/lv_hal_disp.c ****  */
 436:..\..\..\arduinoLCD\test\Pain Drain\libraries\lvgl\src\hal/lv_hal_disp.c **** lv_coord_t lv_disp_get_offset_x(lv_disp_t * disp)
 437:..\..\..\arduinoLCD\test\Pain Drain\libraries\lvgl\src\hal/lv_hal_disp.c **** {
 438:..\..\..\arduinoLCD\test\Pain Drain\libraries\lvgl\src\hal/lv_hal_disp.c ****     if(disp == NULL) disp = lv_disp_get_default();
 439:..\..\..\arduinoLCD\test\Pain Drain\libraries\lvgl\src\hal/lv_hal_disp.c **** 
 440:..\..\..\arduinoLCD\test\Pain Drain\libraries\lvgl\src\hal/lv_hal_disp.c ****     if(disp == NULL) {
 441:..\..\..\arduinoLCD\test\Pain Drain\libraries\lvgl\src\hal/lv_hal_disp.c ****         return 0;
 442:..\..\..\arduinoLCD\test\Pain Drain\libraries\lvgl\src\hal/lv_hal_disp.c ****     }
 443:..\..\..\arduinoLCD\test\Pain Drain\libraries\lvgl\src\hal/lv_hal_disp.c ****     else {
 444:..\..\..\arduinoLCD\test\Pain Drain\libraries\lvgl\src\hal/lv_hal_disp.c ****         switch(disp->driver->rotated) {
 445:..\..\..\arduinoLCD\test\Pain Drain\libraries\lvgl\src\hal/lv_hal_disp.c ****             case LV_DISP_ROT_90:
 446:..\..\..\arduinoLCD\test\Pain Drain\libraries\lvgl\src\hal/lv_hal_disp.c ****                 return disp->driver->offset_y;
 447:..\..\..\arduinoLCD\test\Pain Drain\libraries\lvgl\src\hal/lv_hal_disp.c ****             case LV_DISP_ROT_180:
 448:..\..\..\arduinoLCD\test\Pain Drain\libraries\lvgl\src\hal/lv_hal_disp.c ****                 return lv_disp_get_physical_hor_res(disp) - disp->driver->offset_x;
 449:..\..\..\arduinoLCD\test\Pain Drain\libraries\lvgl\src\hal/lv_hal_disp.c ****             case LV_DISP_ROT_270:
 450:..\..\..\arduinoLCD\test\Pain Drain\libraries\lvgl\src\hal/lv_hal_disp.c ****                 return lv_disp_get_physical_hor_res(disp) - disp->driver->offset_y;
 451:..\..\..\arduinoLCD\test\Pain Drain\libraries\lvgl\src\hal/lv_hal_disp.c ****             default:
 452:..\..\..\arduinoLCD\test\Pain Drain\libraries\lvgl\src\hal/lv_hal_disp.c ****                 return disp->driver->offset_x;
 453:..\..\..\arduinoLCD\test\Pain Drain\libraries\lvgl\src\hal/lv_hal_disp.c ****         }
 454:..\..\..\arduinoLCD\test\Pain Drain\libraries\lvgl\src\hal/lv_hal_disp.c ****     }
 455:..\..\..\arduinoLCD\test\Pain Drain\libraries\lvgl\src\hal/lv_hal_disp.c **** }
 456:..\..\..\arduinoLCD\test\Pain Drain\libraries\lvgl\src\hal/lv_hal_disp.c **** 
 457:..\..\..\arduinoLCD\test\Pain Drain\libraries\lvgl\src\hal/lv_hal_disp.c **** /**
 458:..\..\..\arduinoLCD\test\Pain Drain\libraries\lvgl\src\hal/lv_hal_disp.c ****  * Get the vertical offset from the full / physical display
 459:..\..\..\arduinoLCD\test\Pain Drain\libraries\lvgl\src\hal/lv_hal_disp.c ****  * @param disp pointer to a display (NULL to use the default display)
 460:..\..\..\arduinoLCD\test\Pain Drain\libraries\lvgl\src\hal/lv_hal_disp.c ****  * @return the horizontal offset from the full / physical display
 461:..\..\..\arduinoLCD\test\Pain Drain\libraries\lvgl\src\hal/lv_hal_disp.c ****  */
 462:..\..\..\arduinoLCD\test\Pain Drain\libraries\lvgl\src\hal/lv_hal_disp.c **** lv_coord_t lv_disp_get_offset_y(lv_disp_t * disp)
 463:..\..\..\arduinoLCD\test\Pain Drain\libraries\lvgl\src\hal/lv_hal_disp.c **** {
 464:..\..\..\arduinoLCD\test\Pain Drain\libraries\lvgl\src\hal/lv_hal_disp.c ****     if(disp == NULL) disp = lv_disp_get_default();
 465:..\..\..\arduinoLCD\test\Pain Drain\libraries\lvgl\src\hal/lv_hal_disp.c **** 
 466:..\..\..\arduinoLCD\test\Pain Drain\libraries\lvgl\src\hal/lv_hal_disp.c ****     if(disp == NULL) {
 467:..\..\..\arduinoLCD\test\Pain Drain\libraries\lvgl\src\hal/lv_hal_disp.c ****         return 0;
 468:..\..\..\arduinoLCD\test\Pain Drain\libraries\lvgl\src\hal/lv_hal_disp.c ****     }
 469:..\..\..\arduinoLCD\test\Pain Drain\libraries\lvgl\src\hal/lv_hal_disp.c ****     else {
 470:..\..\..\arduinoLCD\test\Pain Drain\libraries\lvgl\src\hal/lv_hal_disp.c ****         switch(disp->driver->rotated) {
 471:..\..\..\arduinoLCD\test\Pain Drain\libraries\lvgl\src\hal/lv_hal_disp.c ****             case LV_DISP_ROT_90:
 472:..\..\..\arduinoLCD\test\Pain Drain\libraries\lvgl\src\hal/lv_hal_disp.c ****                 return disp->driver->offset_x;
 473:..\..\..\arduinoLCD\test\Pain Drain\libraries\lvgl\src\hal/lv_hal_disp.c ****             case LV_DISP_ROT_180:
 474:..\..\..\arduinoLCD\test\Pain Drain\libraries\lvgl\src\hal/lv_hal_disp.c ****                 return lv_disp_get_physical_ver_res(disp) - disp->driver->offset_y;
 475:..\..\..\arduinoLCD\test\Pain Drain\libraries\lvgl\src\hal/lv_hal_disp.c ****             case LV_DISP_ROT_270:
 476:..\..\..\arduinoLCD\test\Pain Drain\libraries\lvgl\src\hal/lv_hal_disp.c ****                 return lv_disp_get_physical_ver_res(disp) - disp->driver->offset_x;
 477:..\..\..\arduinoLCD\test\Pain Drain\libraries\lvgl\src\hal/lv_hal_disp.c ****             default:
 478:..\..\..\arduinoLCD\test\Pain Drain\libraries\lvgl\src\hal/lv_hal_disp.c ****                 return disp->driver->offset_y;
 479:..\..\..\arduinoLCD\test\Pain Drain\libraries\lvgl\src\hal/lv_hal_disp.c ****         }
 480:..\..\..\arduinoLCD\test\Pain Drain\libraries\lvgl\src\hal/lv_hal_disp.c ****     }
 481:..\..\..\arduinoLCD\test\Pain Drain\libraries\lvgl\src\hal/lv_hal_disp.c **** }
 482:..\..\..\arduinoLCD\test\Pain Drain\libraries\lvgl\src\hal/lv_hal_disp.c **** 
 483:..\..\..\arduinoLCD\test\Pain Drain\libraries\lvgl\src\hal/lv_hal_disp.c **** /**
 484:..\..\..\arduinoLCD\test\Pain Drain\libraries\lvgl\src\hal/lv_hal_disp.c ****  * Get if anti-aliasing is enabled for a display or not
 485:..\..\..\arduinoLCD\test\Pain Drain\libraries\lvgl\src\hal/lv_hal_disp.c ****  * @param disp pointer to a display (NULL to use the default display)
 486:..\..\..\arduinoLCD\test\Pain Drain\libraries\lvgl\src\hal/lv_hal_disp.c ****  * @return true: anti-aliasing is enabled; false: disabled
ARM GAS  C:\Users\haske\AppData\Local\Temp\ccN8jSR9.s 			page 10


 487:..\..\..\arduinoLCD\test\Pain Drain\libraries\lvgl\src\hal/lv_hal_disp.c ****  */
 488:..\..\..\arduinoLCD\test\Pain Drain\libraries\lvgl\src\hal/lv_hal_disp.c **** bool lv_disp_get_antialiasing(lv_disp_t * disp)
 489:..\..\..\arduinoLCD\test\Pain Drain\libraries\lvgl\src\hal/lv_hal_disp.c **** {
 490:..\..\..\arduinoLCD\test\Pain Drain\libraries\lvgl\src\hal/lv_hal_disp.c ****     if(disp == NULL) disp = lv_disp_get_default();
 491:..\..\..\arduinoLCD\test\Pain Drain\libraries\lvgl\src\hal/lv_hal_disp.c ****     if(disp == NULL) return false;
 492:..\..\..\arduinoLCD\test\Pain Drain\libraries\lvgl\src\hal/lv_hal_disp.c **** 
 493:..\..\..\arduinoLCD\test\Pain Drain\libraries\lvgl\src\hal/lv_hal_disp.c ****     return disp->driver->antialiasing ? true : false;
 494:..\..\..\arduinoLCD\test\Pain Drain\libraries\lvgl\src\hal/lv_hal_disp.c **** }
 495:..\..\..\arduinoLCD\test\Pain Drain\libraries\lvgl\src\hal/lv_hal_disp.c **** 
 496:..\..\..\arduinoLCD\test\Pain Drain\libraries\lvgl\src\hal/lv_hal_disp.c **** /**
 497:..\..\..\arduinoLCD\test\Pain Drain\libraries\lvgl\src\hal/lv_hal_disp.c ****  * Get the DPI of the display
 498:..\..\..\arduinoLCD\test\Pain Drain\libraries\lvgl\src\hal/lv_hal_disp.c ****  * @param disp pointer to a display (NULL to use the default display)
 499:..\..\..\arduinoLCD\test\Pain Drain\libraries\lvgl\src\hal/lv_hal_disp.c ****  * @return dpi of the display
 500:..\..\..\arduinoLCD\test\Pain Drain\libraries\lvgl\src\hal/lv_hal_disp.c ****  */
 501:..\..\..\arduinoLCD\test\Pain Drain\libraries\lvgl\src\hal/lv_hal_disp.c **** lv_coord_t lv_disp_get_dpi(const lv_disp_t * disp)
 502:..\..\..\arduinoLCD\test\Pain Drain\libraries\lvgl\src\hal/lv_hal_disp.c **** {
 503:..\..\..\arduinoLCD\test\Pain Drain\libraries\lvgl\src\hal/lv_hal_disp.c ****     if(disp == NULL) disp = lv_disp_get_default();
 504:..\..\..\arduinoLCD\test\Pain Drain\libraries\lvgl\src\hal/lv_hal_disp.c ****     if(disp == NULL) return LV_DPI_DEF;  /*Do not return 0 because it might be a divider*/
 505:..\..\..\arduinoLCD\test\Pain Drain\libraries\lvgl\src\hal/lv_hal_disp.c ****     return disp->driver->dpi;
 506:..\..\..\arduinoLCD\test\Pain Drain\libraries\lvgl\src\hal/lv_hal_disp.c **** }
 507:..\..\..\arduinoLCD\test\Pain Drain\libraries\lvgl\src\hal/lv_hal_disp.c **** 
 508:..\..\..\arduinoLCD\test\Pain Drain\libraries\lvgl\src\hal/lv_hal_disp.c **** /**
 509:..\..\..\arduinoLCD\test\Pain Drain\libraries\lvgl\src\hal/lv_hal_disp.c ****  * Call in the display driver's `flush_cb` function when the flushing is finished
 510:..\..\..\arduinoLCD\test\Pain Drain\libraries\lvgl\src\hal/lv_hal_disp.c ****  * @param disp_drv pointer to display driver in `flush_cb` where this function is called
 511:..\..\..\arduinoLCD\test\Pain Drain\libraries\lvgl\src\hal/lv_hal_disp.c ****  */
 512:..\..\..\arduinoLCD\test\Pain Drain\libraries\lvgl\src\hal/lv_hal_disp.c **** LV_ATTRIBUTE_FLUSH_READY void lv_disp_flush_ready(lv_disp_drv_t * disp_drv)
 513:..\..\..\arduinoLCD\test\Pain Drain\libraries\lvgl\src\hal/lv_hal_disp.c **** {
 514:..\..\..\arduinoLCD\test\Pain Drain\libraries\lvgl\src\hal/lv_hal_disp.c ****     disp_drv->draw_buf->flushing = 0;
 515:..\..\..\arduinoLCD\test\Pain Drain\libraries\lvgl\src\hal/lv_hal_disp.c ****     disp_drv->draw_buf->flushing_last = 0;
 516:..\..\..\arduinoLCD\test\Pain Drain\libraries\lvgl\src\hal/lv_hal_disp.c **** }
 517:..\..\..\arduinoLCD\test\Pain Drain\libraries\lvgl\src\hal/lv_hal_disp.c **** 
 518:..\..\..\arduinoLCD\test\Pain Drain\libraries\lvgl\src\hal/lv_hal_disp.c **** /**
 519:..\..\..\arduinoLCD\test\Pain Drain\libraries\lvgl\src\hal/lv_hal_disp.c ****  * Tell if it's the last area of the refreshing process.
 520:..\..\..\arduinoLCD\test\Pain Drain\libraries\lvgl\src\hal/lv_hal_disp.c ****  * Can be called from `flush_cb` to execute some special display refreshing if needed when all area
 521:..\..\..\arduinoLCD\test\Pain Drain\libraries\lvgl\src\hal/lv_hal_disp.c ****  * @param disp_drv pointer to display driver
 522:..\..\..\arduinoLCD\test\Pain Drain\libraries\lvgl\src\hal/lv_hal_disp.c ****  * @return true: it's the last area to flush; false: there are other areas too which will be refres
 523:..\..\..\arduinoLCD\test\Pain Drain\libraries\lvgl\src\hal/lv_hal_disp.c ****  */
 524:..\..\..\arduinoLCD\test\Pain Drain\libraries\lvgl\src\hal/lv_hal_disp.c **** LV_ATTRIBUTE_FLUSH_READY bool lv_disp_flush_is_last(lv_disp_drv_t * disp_drv)
 525:..\..\..\arduinoLCD\test\Pain Drain\libraries\lvgl\src\hal/lv_hal_disp.c **** {
 526:..\..\..\arduinoLCD\test\Pain Drain\libraries\lvgl\src\hal/lv_hal_disp.c ****     return disp_drv->draw_buf->flushing_last;
 527:..\..\..\arduinoLCD\test\Pain Drain\libraries\lvgl\src\hal/lv_hal_disp.c **** }
 528:..\..\..\arduinoLCD\test\Pain Drain\libraries\lvgl\src\hal/lv_hal_disp.c **** 
 529:..\..\..\arduinoLCD\test\Pain Drain\libraries\lvgl\src\hal/lv_hal_disp.c **** /**
 530:..\..\..\arduinoLCD\test\Pain Drain\libraries\lvgl\src\hal/lv_hal_disp.c ****  * Get the next display.
 531:..\..\..\arduinoLCD\test\Pain Drain\libraries\lvgl\src\hal/lv_hal_disp.c ****  * @param disp pointer to the current display. NULL to initialize.
 532:..\..\..\arduinoLCD\test\Pain Drain\libraries\lvgl\src\hal/lv_hal_disp.c ****  * @return the next display or NULL if no more. Give the first display when the parameter is NULL
 533:..\..\..\arduinoLCD\test\Pain Drain\libraries\lvgl\src\hal/lv_hal_disp.c ****  */
 534:..\..\..\arduinoLCD\test\Pain Drain\libraries\lvgl\src\hal/lv_hal_disp.c **** lv_disp_t * lv_disp_get_next(lv_disp_t * disp)
 535:..\..\..\arduinoLCD\test\Pain Drain\libraries\lvgl\src\hal/lv_hal_disp.c **** {
 536:..\..\..\arduinoLCD\test\Pain Drain\libraries\lvgl\src\hal/lv_hal_disp.c ****     if(disp == NULL)
 537:..\..\..\arduinoLCD\test\Pain Drain\libraries\lvgl\src\hal/lv_hal_disp.c ****         return _lv_ll_get_head(&LV_GC_ROOT(_lv_disp_ll));
 538:..\..\..\arduinoLCD\test\Pain Drain\libraries\lvgl\src\hal/lv_hal_disp.c ****     else
 539:..\..\..\arduinoLCD\test\Pain Drain\libraries\lvgl\src\hal/lv_hal_disp.c ****         return _lv_ll_get_next(&LV_GC_ROOT(_lv_disp_ll), disp);
 540:..\..\..\arduinoLCD\test\Pain Drain\libraries\lvgl\src\hal/lv_hal_disp.c **** }
 541:..\..\..\arduinoLCD\test\Pain Drain\libraries\lvgl\src\hal/lv_hal_disp.c **** 
 542:..\..\..\arduinoLCD\test\Pain Drain\libraries\lvgl\src\hal/lv_hal_disp.c **** /**
 543:..\..\..\arduinoLCD\test\Pain Drain\libraries\lvgl\src\hal/lv_hal_disp.c ****  * Get the internal buffer of a display
ARM GAS  C:\Users\haske\AppData\Local\Temp\ccN8jSR9.s 			page 11


 544:..\..\..\arduinoLCD\test\Pain Drain\libraries\lvgl\src\hal/lv_hal_disp.c ****  * @param disp pointer to a display
 545:..\..\..\arduinoLCD\test\Pain Drain\libraries\lvgl\src\hal/lv_hal_disp.c ****  * @return pointer to the internal buffers
 546:..\..\..\arduinoLCD\test\Pain Drain\libraries\lvgl\src\hal/lv_hal_disp.c ****  */
 547:..\..\..\arduinoLCD\test\Pain Drain\libraries\lvgl\src\hal/lv_hal_disp.c **** lv_disp_draw_buf_t * lv_disp_get_draw_buf(lv_disp_t * disp)
 548:..\..\..\arduinoLCD\test\Pain Drain\libraries\lvgl\src\hal/lv_hal_disp.c **** {
 549:..\..\..\arduinoLCD\test\Pain Drain\libraries\lvgl\src\hal/lv_hal_disp.c ****     return disp->driver->draw_buf;
 550:..\..\..\arduinoLCD\test\Pain Drain\libraries\lvgl\src\hal/lv_hal_disp.c **** }
 551:..\..\..\arduinoLCD\test\Pain Drain\libraries\lvgl\src\hal/lv_hal_disp.c **** 
 552:..\..\..\arduinoLCD\test\Pain Drain\libraries\lvgl\src\hal/lv_hal_disp.c **** /**
 553:..\..\..\arduinoLCD\test\Pain Drain\libraries\lvgl\src\hal/lv_hal_disp.c ****  * Set the rotation of this display.
 554:..\..\..\arduinoLCD\test\Pain Drain\libraries\lvgl\src\hal/lv_hal_disp.c ****  * @param disp pointer to a display (NULL to use the default display)
 555:..\..\..\arduinoLCD\test\Pain Drain\libraries\lvgl\src\hal/lv_hal_disp.c ****  * @param rotation rotation angle
 556:..\..\..\arduinoLCD\test\Pain Drain\libraries\lvgl\src\hal/lv_hal_disp.c ****  */
 557:..\..\..\arduinoLCD\test\Pain Drain\libraries\lvgl\src\hal/lv_hal_disp.c **** void lv_disp_set_rotation(lv_disp_t * disp, lv_disp_rot_t rotation)
 558:..\..\..\arduinoLCD\test\Pain Drain\libraries\lvgl\src\hal/lv_hal_disp.c **** {
 559:..\..\..\arduinoLCD\test\Pain Drain\libraries\lvgl\src\hal/lv_hal_disp.c ****     if(disp == NULL) disp = lv_disp_get_default();
 560:..\..\..\arduinoLCD\test\Pain Drain\libraries\lvgl\src\hal/lv_hal_disp.c ****     if(disp == NULL) return;
 561:..\..\..\arduinoLCD\test\Pain Drain\libraries\lvgl\src\hal/lv_hal_disp.c **** 
 562:..\..\..\arduinoLCD\test\Pain Drain\libraries\lvgl\src\hal/lv_hal_disp.c ****     disp->driver->rotated = rotation;
 563:..\..\..\arduinoLCD\test\Pain Drain\libraries\lvgl\src\hal/lv_hal_disp.c ****     lv_disp_drv_update(disp, disp->driver);
 564:..\..\..\arduinoLCD\test\Pain Drain\libraries\lvgl\src\hal/lv_hal_disp.c **** }
 565:..\..\..\arduinoLCD\test\Pain Drain\libraries\lvgl\src\hal/lv_hal_disp.c **** 
 566:..\..\..\arduinoLCD\test\Pain Drain\libraries\lvgl\src\hal/lv_hal_disp.c **** /**
 567:..\..\..\arduinoLCD\test\Pain Drain\libraries\lvgl\src\hal/lv_hal_disp.c ****  * Get the current rotation of this display.
 568:..\..\..\arduinoLCD\test\Pain Drain\libraries\lvgl\src\hal/lv_hal_disp.c ****  * @param disp pointer to a display (NULL to use the default display)
 569:..\..\..\arduinoLCD\test\Pain Drain\libraries\lvgl\src\hal/lv_hal_disp.c ****  * @return rotation angle
 570:..\..\..\arduinoLCD\test\Pain Drain\libraries\lvgl\src\hal/lv_hal_disp.c ****  */
 571:..\..\..\arduinoLCD\test\Pain Drain\libraries\lvgl\src\hal/lv_hal_disp.c **** lv_disp_rot_t lv_disp_get_rotation(lv_disp_t * disp)
 572:..\..\..\arduinoLCD\test\Pain Drain\libraries\lvgl\src\hal/lv_hal_disp.c **** {
 573:..\..\..\arduinoLCD\test\Pain Drain\libraries\lvgl\src\hal/lv_hal_disp.c ****     if(disp == NULL) disp = lv_disp_get_default();
 574:..\..\..\arduinoLCD\test\Pain Drain\libraries\lvgl\src\hal/lv_hal_disp.c ****     if(disp == NULL) return LV_DISP_ROT_NONE;
 575:..\..\..\arduinoLCD\test\Pain Drain\libraries\lvgl\src\hal/lv_hal_disp.c ****     return disp->driver->rotated;
 576:..\..\..\arduinoLCD\test\Pain Drain\libraries\lvgl\src\hal/lv_hal_disp.c **** }
 577:..\..\..\arduinoLCD\test\Pain Drain\libraries\lvgl\src\hal/lv_hal_disp.c **** 
 578:..\..\..\arduinoLCD\test\Pain Drain\libraries\lvgl\src\hal/lv_hal_disp.c **** void lv_disp_drv_use_generic_set_px_cb(lv_disp_drv_t * disp_drv, lv_img_cf_t cf)
 579:..\..\..\arduinoLCD\test\Pain Drain\libraries\lvgl\src\hal/lv_hal_disp.c **** {
 580:..\..\..\arduinoLCD\test\Pain Drain\libraries\lvgl\src\hal/lv_hal_disp.c ****     switch(cf) {
 581:..\..\..\arduinoLCD\test\Pain Drain\libraries\lvgl\src\hal/lv_hal_disp.c ****         case LV_IMG_CF_TRUE_COLOR_ALPHA:
 582:..\..\..\arduinoLCD\test\Pain Drain\libraries\lvgl\src\hal/lv_hal_disp.c ****             disp_drv->set_px_cb = set_px_true_color_alpha;
 583:..\..\..\arduinoLCD\test\Pain Drain\libraries\lvgl\src\hal/lv_hal_disp.c ****             break;
 584:..\..\..\arduinoLCD\test\Pain Drain\libraries\lvgl\src\hal/lv_hal_disp.c ****         case LV_IMG_CF_ALPHA_1BIT:
 585:..\..\..\arduinoLCD\test\Pain Drain\libraries\lvgl\src\hal/lv_hal_disp.c ****             disp_drv->set_px_cb = set_px_cb_alpha1;
 586:..\..\..\arduinoLCD\test\Pain Drain\libraries\lvgl\src\hal/lv_hal_disp.c ****             break;
 587:..\..\..\arduinoLCD\test\Pain Drain\libraries\lvgl\src\hal/lv_hal_disp.c ****         case LV_IMG_CF_ALPHA_2BIT:
 588:..\..\..\arduinoLCD\test\Pain Drain\libraries\lvgl\src\hal/lv_hal_disp.c ****             disp_drv->set_px_cb = set_px_cb_alpha2;
 589:..\..\..\arduinoLCD\test\Pain Drain\libraries\lvgl\src\hal/lv_hal_disp.c ****             break;
 590:..\..\..\arduinoLCD\test\Pain Drain\libraries\lvgl\src\hal/lv_hal_disp.c ****         case LV_IMG_CF_ALPHA_4BIT:
 591:..\..\..\arduinoLCD\test\Pain Drain\libraries\lvgl\src\hal/lv_hal_disp.c ****             disp_drv->set_px_cb = set_px_cb_alpha4;
 592:..\..\..\arduinoLCD\test\Pain Drain\libraries\lvgl\src\hal/lv_hal_disp.c ****             break;
 593:..\..\..\arduinoLCD\test\Pain Drain\libraries\lvgl\src\hal/lv_hal_disp.c ****         case LV_IMG_CF_ALPHA_8BIT:
 594:..\..\..\arduinoLCD\test\Pain Drain\libraries\lvgl\src\hal/lv_hal_disp.c ****             disp_drv->set_px_cb = set_px_cb_alpha8;
 595:..\..\..\arduinoLCD\test\Pain Drain\libraries\lvgl\src\hal/lv_hal_disp.c ****             break;
 596:..\..\..\arduinoLCD\test\Pain Drain\libraries\lvgl\src\hal/lv_hal_disp.c ****         default:
 597:..\..\..\arduinoLCD\test\Pain Drain\libraries\lvgl\src\hal/lv_hal_disp.c ****             disp_drv->set_px_cb = NULL;
 598:..\..\..\arduinoLCD\test\Pain Drain\libraries\lvgl\src\hal/lv_hal_disp.c ****     }
 599:..\..\..\arduinoLCD\test\Pain Drain\libraries\lvgl\src\hal/lv_hal_disp.c **** }
 600:..\..\..\arduinoLCD\test\Pain Drain\libraries\lvgl\src\hal/lv_hal_disp.c **** 
ARM GAS  C:\Users\haske\AppData\Local\Temp\ccN8jSR9.s 			page 12


 601:..\..\..\arduinoLCD\test\Pain Drain\libraries\lvgl\src\hal/lv_hal_disp.c **** /**********************
 602:..\..\..\arduinoLCD\test\Pain Drain\libraries\lvgl\src\hal/lv_hal_disp.c ****  *   STATIC FUNCTIONS
 603:..\..\..\arduinoLCD\test\Pain Drain\libraries\lvgl\src\hal/lv_hal_disp.c ****  **********************/
 604:..\..\..\arduinoLCD\test\Pain Drain\libraries\lvgl\src\hal/lv_hal_disp.c **** 
 605:..\..\..\arduinoLCD\test\Pain Drain\libraries\lvgl\src\hal/lv_hal_disp.c **** static lv_obj_tree_walk_res_t invalidate_layout_cb(lv_obj_t * obj, void * user_data)
 606:..\..\..\arduinoLCD\test\Pain Drain\libraries\lvgl\src\hal/lv_hal_disp.c **** {
 607:..\..\..\arduinoLCD\test\Pain Drain\libraries\lvgl\src\hal/lv_hal_disp.c ****     LV_UNUSED(user_data);
 608:..\..\..\arduinoLCD\test\Pain Drain\libraries\lvgl\src\hal/lv_hal_disp.c ****     lv_obj_mark_layout_as_dirty(obj);
 609:..\..\..\arduinoLCD\test\Pain Drain\libraries\lvgl\src\hal/lv_hal_disp.c ****     return LV_OBJ_TREE_WALK_NEXT;
 610:..\..\..\arduinoLCD\test\Pain Drain\libraries\lvgl\src\hal/lv_hal_disp.c **** }
 611:..\..\..\arduinoLCD\test\Pain Drain\libraries\lvgl\src\hal/lv_hal_disp.c **** 
 612:..\..\..\arduinoLCD\test\Pain Drain\libraries\lvgl\src\hal/lv_hal_disp.c **** static void set_px_cb_alpha1(lv_disp_drv_t * disp_drv, uint8_t * buf, lv_coord_t buf_w, lv_coord_t 
 613:..\..\..\arduinoLCD\test\Pain Drain\libraries\lvgl\src\hal/lv_hal_disp.c ****                              lv_color_t color, lv_opa_t opa)
 614:..\..\..\arduinoLCD\test\Pain Drain\libraries\lvgl\src\hal/lv_hal_disp.c **** {
 615:..\..\..\arduinoLCD\test\Pain Drain\libraries\lvgl\src\hal/lv_hal_disp.c ****     (void) disp_drv; /*Unused*/
 616:..\..\..\arduinoLCD\test\Pain Drain\libraries\lvgl\src\hal/lv_hal_disp.c **** 
 617:..\..\..\arduinoLCD\test\Pain Drain\libraries\lvgl\src\hal/lv_hal_disp.c ****     if(opa <= LV_OPA_MIN) return;
 618:..\..\..\arduinoLCD\test\Pain Drain\libraries\lvgl\src\hal/lv_hal_disp.c ****     lv_img_dsc_t d;
 619:..\..\..\arduinoLCD\test\Pain Drain\libraries\lvgl\src\hal/lv_hal_disp.c ****     d.data = buf;
 620:..\..\..\arduinoLCD\test\Pain Drain\libraries\lvgl\src\hal/lv_hal_disp.c ****     d.header.w = buf_w;
 621:..\..\..\arduinoLCD\test\Pain Drain\libraries\lvgl\src\hal/lv_hal_disp.c ****     d.header.cf = LV_IMG_CF_ALPHA_1BIT;
 622:..\..\..\arduinoLCD\test\Pain Drain\libraries\lvgl\src\hal/lv_hal_disp.c **** 
 623:..\..\..\arduinoLCD\test\Pain Drain\libraries\lvgl\src\hal/lv_hal_disp.c ****     set_px_alpha_generic(&d, x, y, color, opa);
 624:..\..\..\arduinoLCD\test\Pain Drain\libraries\lvgl\src\hal/lv_hal_disp.c **** }
 625:..\..\..\arduinoLCD\test\Pain Drain\libraries\lvgl\src\hal/lv_hal_disp.c **** 
 626:..\..\..\arduinoLCD\test\Pain Drain\libraries\lvgl\src\hal/lv_hal_disp.c **** static void set_px_cb_alpha2(lv_disp_drv_t * disp_drv, uint8_t * buf, lv_coord_t buf_w, lv_coord_t 
 627:..\..\..\arduinoLCD\test\Pain Drain\libraries\lvgl\src\hal/lv_hal_disp.c ****                              lv_color_t color, lv_opa_t opa)
 628:..\..\..\arduinoLCD\test\Pain Drain\libraries\lvgl\src\hal/lv_hal_disp.c **** {
 629:..\..\..\arduinoLCD\test\Pain Drain\libraries\lvgl\src\hal/lv_hal_disp.c ****     (void) disp_drv; /*Unused*/
 630:..\..\..\arduinoLCD\test\Pain Drain\libraries\lvgl\src\hal/lv_hal_disp.c **** 
 631:..\..\..\arduinoLCD\test\Pain Drain\libraries\lvgl\src\hal/lv_hal_disp.c ****     if(opa <= LV_OPA_MIN) return;
 632:..\..\..\arduinoLCD\test\Pain Drain\libraries\lvgl\src\hal/lv_hal_disp.c ****     lv_img_dsc_t d;
 633:..\..\..\arduinoLCD\test\Pain Drain\libraries\lvgl\src\hal/lv_hal_disp.c ****     d.data = buf;
 634:..\..\..\arduinoLCD\test\Pain Drain\libraries\lvgl\src\hal/lv_hal_disp.c ****     d.header.w = buf_w;
 635:..\..\..\arduinoLCD\test\Pain Drain\libraries\lvgl\src\hal/lv_hal_disp.c ****     d.header.cf = LV_IMG_CF_ALPHA_2BIT;
 636:..\..\..\arduinoLCD\test\Pain Drain\libraries\lvgl\src\hal/lv_hal_disp.c **** 
 637:..\..\..\arduinoLCD\test\Pain Drain\libraries\lvgl\src\hal/lv_hal_disp.c ****     set_px_alpha_generic(&d, x, y, color, opa);
 638:..\..\..\arduinoLCD\test\Pain Drain\libraries\lvgl\src\hal/lv_hal_disp.c **** }
 639:..\..\..\arduinoLCD\test\Pain Drain\libraries\lvgl\src\hal/lv_hal_disp.c **** 
 640:..\..\..\arduinoLCD\test\Pain Drain\libraries\lvgl\src\hal/lv_hal_disp.c **** static void set_px_cb_alpha4(lv_disp_drv_t * disp_drv, uint8_t * buf, lv_coord_t buf_w, lv_coord_t 
 641:..\..\..\arduinoLCD\test\Pain Drain\libraries\lvgl\src\hal/lv_hal_disp.c ****                              lv_color_t color, lv_opa_t opa)
 642:..\..\..\arduinoLCD\test\Pain Drain\libraries\lvgl\src\hal/lv_hal_disp.c **** {
 643:..\..\..\arduinoLCD\test\Pain Drain\libraries\lvgl\src\hal/lv_hal_disp.c ****     (void) disp_drv; /*Unused*/
 644:..\..\..\arduinoLCD\test\Pain Drain\libraries\lvgl\src\hal/lv_hal_disp.c **** 
 645:..\..\..\arduinoLCD\test\Pain Drain\libraries\lvgl\src\hal/lv_hal_disp.c ****     if(opa <= LV_OPA_MIN) return;
 646:..\..\..\arduinoLCD\test\Pain Drain\libraries\lvgl\src\hal/lv_hal_disp.c ****     lv_img_dsc_t d;
 647:..\..\..\arduinoLCD\test\Pain Drain\libraries\lvgl\src\hal/lv_hal_disp.c ****     d.data = buf;
 648:..\..\..\arduinoLCD\test\Pain Drain\libraries\lvgl\src\hal/lv_hal_disp.c ****     d.header.w = buf_w;
 649:..\..\..\arduinoLCD\test\Pain Drain\libraries\lvgl\src\hal/lv_hal_disp.c ****     d.header.cf = LV_IMG_CF_ALPHA_4BIT;
 650:..\..\..\arduinoLCD\test\Pain Drain\libraries\lvgl\src\hal/lv_hal_disp.c **** 
 651:..\..\..\arduinoLCD\test\Pain Drain\libraries\lvgl\src\hal/lv_hal_disp.c ****     set_px_alpha_generic(&d, x, y, color, opa);
 652:..\..\..\arduinoLCD\test\Pain Drain\libraries\lvgl\src\hal/lv_hal_disp.c **** }
 653:..\..\..\arduinoLCD\test\Pain Drain\libraries\lvgl\src\hal/lv_hal_disp.c **** 
 654:..\..\..\arduinoLCD\test\Pain Drain\libraries\lvgl\src\hal/lv_hal_disp.c **** static void set_px_cb_alpha8(lv_disp_drv_t * disp_drv, uint8_t * buf, lv_coord_t buf_w, lv_coord_t 
 655:..\..\..\arduinoLCD\test\Pain Drain\libraries\lvgl\src\hal/lv_hal_disp.c ****                              lv_color_t color, lv_opa_t opa)
 656:..\..\..\arduinoLCD\test\Pain Drain\libraries\lvgl\src\hal/lv_hal_disp.c **** {
 657:..\..\..\arduinoLCD\test\Pain Drain\libraries\lvgl\src\hal/lv_hal_disp.c ****     (void) disp_drv; /*Unused*/
ARM GAS  C:\Users\haske\AppData\Local\Temp\ccN8jSR9.s 			page 13


 658:..\..\..\arduinoLCD\test\Pain Drain\libraries\lvgl\src\hal/lv_hal_disp.c **** 
 659:..\..\..\arduinoLCD\test\Pain Drain\libraries\lvgl\src\hal/lv_hal_disp.c ****     if(opa <= LV_OPA_MIN) return;
 660:..\..\..\arduinoLCD\test\Pain Drain\libraries\lvgl\src\hal/lv_hal_disp.c ****     lv_img_dsc_t d;
 661:..\..\..\arduinoLCD\test\Pain Drain\libraries\lvgl\src\hal/lv_hal_disp.c ****     d.data = buf;
 662:..\..\..\arduinoLCD\test\Pain Drain\libraries\lvgl\src\hal/lv_hal_disp.c ****     d.header.w = buf_w;
 663:..\..\..\arduinoLCD\test\Pain Drain\libraries\lvgl\src\hal/lv_hal_disp.c ****     d.header.cf = LV_IMG_CF_ALPHA_8BIT;
 664:..\..\..\arduinoLCD\test\Pain Drain\libraries\lvgl\src\hal/lv_hal_disp.c **** 
 665:..\..\..\arduinoLCD\test\Pain Drain\libraries\lvgl\src\hal/lv_hal_disp.c ****     set_px_alpha_generic(&d, x, y, color, opa);
 666:..\..\..\arduinoLCD\test\Pain Drain\libraries\lvgl\src\hal/lv_hal_disp.c **** }
 667:..\..\..\arduinoLCD\test\Pain Drain\libraries\lvgl\src\hal/lv_hal_disp.c **** 
 668:..\..\..\arduinoLCD\test\Pain Drain\libraries\lvgl\src\hal/lv_hal_disp.c **** static void set_px_alpha_generic(lv_img_dsc_t * d, lv_coord_t x, lv_coord_t y, lv_color_t color, lv
 669:..\..\..\arduinoLCD\test\Pain Drain\libraries\lvgl\src\hal/lv_hal_disp.c **** {
 670:..\..\..\arduinoLCD\test\Pain Drain\libraries\lvgl\src\hal/lv_hal_disp.c ****     d->header.always_zero = 0;
 671:..\..\..\arduinoLCD\test\Pain Drain\libraries\lvgl\src\hal/lv_hal_disp.c ****     d->header.h = 1;    /*Doesn't matter*/
 672:..\..\..\arduinoLCD\test\Pain Drain\libraries\lvgl\src\hal/lv_hal_disp.c **** 
 673:..\..\..\arduinoLCD\test\Pain Drain\libraries\lvgl\src\hal/lv_hal_disp.c ****     uint8_t br = lv_color_brightness(color);
 674:..\..\..\arduinoLCD\test\Pain Drain\libraries\lvgl\src\hal/lv_hal_disp.c ****     if(opa < LV_OPA_MAX) {
 675:..\..\..\arduinoLCD\test\Pain Drain\libraries\lvgl\src\hal/lv_hal_disp.c ****         uint8_t bg = lv_img_buf_get_px_alpha(d, x, y);
 676:..\..\..\arduinoLCD\test\Pain Drain\libraries\lvgl\src\hal/lv_hal_disp.c ****         br = (uint16_t)((uint16_t)br * opa + (bg * (255 - opa))) >> 8;
 677:..\..\..\arduinoLCD\test\Pain Drain\libraries\lvgl\src\hal/lv_hal_disp.c ****     }
 678:..\..\..\arduinoLCD\test\Pain Drain\libraries\lvgl\src\hal/lv_hal_disp.c **** 
 679:..\..\..\arduinoLCD\test\Pain Drain\libraries\lvgl\src\hal/lv_hal_disp.c ****     lv_img_buf_set_px_alpha(d, x, y, br);
 680:..\..\..\arduinoLCD\test\Pain Drain\libraries\lvgl\src\hal/lv_hal_disp.c **** }
 681:..\..\..\arduinoLCD\test\Pain Drain\libraries\lvgl\src\hal/lv_hal_disp.c **** 
 682:..\..\..\arduinoLCD\test\Pain Drain\libraries\lvgl\src\hal/lv_hal_disp.c **** static void set_px_true_color_alpha(lv_disp_drv_t * disp_drv, uint8_t * buf, lv_coord_t buf_w,
 683:..\..\..\arduinoLCD\test\Pain Drain\libraries\lvgl\src\hal/lv_hal_disp.c ****                                     lv_coord_t x, lv_coord_t y,
 684:..\..\..\arduinoLCD\test\Pain Drain\libraries\lvgl\src\hal/lv_hal_disp.c ****                                     lv_color_t color, lv_opa_t opa)
 685:..\..\..\arduinoLCD\test\Pain Drain\libraries\lvgl\src\hal/lv_hal_disp.c **** {
  28              		.loc 1 685 0
  29              		.cfi_startproc
  30              		@ args = 12, pretend = 0, frame = 0
  31              		@ frame_needed = 0, uses_anonymous_args = 0
  32              	.LVL0:
  33 0000 F8B5     		push	{r3, r4, r5, r6, r7, lr}
  34              		.cfi_def_cfa_offset 24
  35              		.cfi_offset 3, -24
  36              		.cfi_offset 4, -20
  37              		.cfi_offset 5, -16
  38              		.cfi_offset 6, -12
  39              		.cfi_offset 7, -8
  40              		.cfi_offset 14, -4
  41 0002 06A8     		add	r0, sp, #24
  42              	.LVL1:
  43 0004 0024     		movs	r4, #0
  44 0006 045F     		ldrsh	r4, [r0, r4]
  45              	.LVL2:
  46 0008 07A8     		add	r0, sp, #28
  47 000a 0688     		ldrh	r6, [r0]
  48              	.LVL3:
  49 000c 08A8     		add	r0, sp, #32
  50              	.LVL4:
  51 000e 0078     		ldrb	r0, [r0]
  52              	.LVL5:
 686:..\..\..\arduinoLCD\test\Pain Drain\libraries\lvgl\src\hal/lv_hal_disp.c ****     (void) disp_drv; /*Unused*/
 687:..\..\..\arduinoLCD\test\Pain Drain\libraries\lvgl\src\hal/lv_hal_disp.c **** 
 688:..\..\..\arduinoLCD\test\Pain Drain\libraries\lvgl\src\hal/lv_hal_disp.c ****     uint8_t * buf_px = buf + (buf_w * y * LV_IMG_PX_SIZE_ALPHA_BYTE + x * LV_IMG_PX_SIZE_ALPHA_BYTE
  53              		.loc 1 688 0
ARM GAS  C:\Users\haske\AppData\Local\Temp\ccN8jSR9.s 			page 14


  54 0010 6243     		muls	r2, r4
  55              	.LVL6:
  56 0012 9B18     		adds	r3, r3, r2
  57              	.LVL7:
  58 0014 5D00     		lsls	r5, r3, #1
  59 0016 EB18     		adds	r3, r5, r3
  60 0018 CD18     		adds	r5, r1, r3
  61              	.LVL8:
 689:..\..\..\arduinoLCD\test\Pain Drain\libraries\lvgl\src\hal/lv_hal_disp.c **** 
 690:..\..\..\arduinoLCD\test\Pain Drain\libraries\lvgl\src\hal/lv_hal_disp.c ****     lv_color_t bg_color;
 691:..\..\..\arduinoLCD\test\Pain Drain\libraries\lvgl\src\hal/lv_hal_disp.c ****     lv_color_t res_color;
 692:..\..\..\arduinoLCD\test\Pain Drain\libraries\lvgl\src\hal/lv_hal_disp.c ****     lv_opa_t bg_opa = buf_px[LV_IMG_PX_SIZE_ALPHA_BYTE - 1];
  62              		.loc 1 692 0
  63 001a AF78     		ldrb	r7, [r5, #2]
  64              	.LVL9:
 693:..\..\..\arduinoLCD\test\Pain Drain\libraries\lvgl\src\hal/lv_hal_disp.c **** #if LV_COLOR_DEPTH == 8 || LV_COLOR_DEPTH == 1
 694:..\..\..\arduinoLCD\test\Pain Drain\libraries\lvgl\src\hal/lv_hal_disp.c ****     bg_color.full = buf_px[0];
 695:..\..\..\arduinoLCD\test\Pain Drain\libraries\lvgl\src\hal/lv_hal_disp.c ****     lv_color_mix_with_alpha(bg_color, bg_opa, color, opa, &res_color, &buf_px[2]);
 696:..\..\..\arduinoLCD\test\Pain Drain\libraries\lvgl\src\hal/lv_hal_disp.c ****     if(buf_px[1] <= LV_OPA_MIN) return;
 697:..\..\..\arduinoLCD\test\Pain Drain\libraries\lvgl\src\hal/lv_hal_disp.c ****     buf_px[0] = res_color.full;
 698:..\..\..\arduinoLCD\test\Pain Drain\libraries\lvgl\src\hal/lv_hal_disp.c **** #elif LV_COLOR_DEPTH == 16
 699:..\..\..\arduinoLCD\test\Pain Drain\libraries\lvgl\src\hal/lv_hal_disp.c ****     bg_color.full = buf_px[0] + (buf_px[1] << 8);
  65              		.loc 1 699 0
  66 001c 2A78     		ldrb	r2, [r5]
  67 001e 6B78     		ldrb	r3, [r5, #1]
  68 0020 1B02     		lsls	r3, r3, #8
  69 0022 9B18     		adds	r3, r3, r2
  70              	.LVL10:
  71              	.LBB31:
  72              	.LBB32:
  73              		.file 2 "c:\\projects\\paindrain\\arduinolcd\\test\\pain drain\\libraries\\lvgl\\src\\misc\\lv_col
   1:c:\projects\paindrain\arduinolcd\test\pain drain\libraries\lvgl\src\misc\lv_color.h **** /**
   2:c:\projects\paindrain\arduinolcd\test\pain drain\libraries\lvgl\src\misc\lv_color.h ****  * @file lv_color.h
   3:c:\projects\paindrain\arduinolcd\test\pain drain\libraries\lvgl\src\misc\lv_color.h ****  *
   4:c:\projects\paindrain\arduinolcd\test\pain drain\libraries\lvgl\src\misc\lv_color.h ****  */
   5:c:\projects\paindrain\arduinolcd\test\pain drain\libraries\lvgl\src\misc\lv_color.h **** 
   6:c:\projects\paindrain\arduinolcd\test\pain drain\libraries\lvgl\src\misc\lv_color.h **** #ifndef LV_COLOR_H
   7:c:\projects\paindrain\arduinolcd\test\pain drain\libraries\lvgl\src\misc\lv_color.h **** #define LV_COLOR_H
   8:c:\projects\paindrain\arduinolcd\test\pain drain\libraries\lvgl\src\misc\lv_color.h **** 
   9:c:\projects\paindrain\arduinolcd\test\pain drain\libraries\lvgl\src\misc\lv_color.h **** #ifdef __cplusplus
  10:c:\projects\paindrain\arduinolcd\test\pain drain\libraries\lvgl\src\misc\lv_color.h **** extern "C" {
  11:c:\projects\paindrain\arduinolcd\test\pain drain\libraries\lvgl\src\misc\lv_color.h **** #endif
  12:c:\projects\paindrain\arduinolcd\test\pain drain\libraries\lvgl\src\misc\lv_color.h **** 
  13:c:\projects\paindrain\arduinolcd\test\pain drain\libraries\lvgl\src\misc\lv_color.h **** /*********************
  14:c:\projects\paindrain\arduinolcd\test\pain drain\libraries\lvgl\src\misc\lv_color.h ****  *      INCLUDES
  15:c:\projects\paindrain\arduinolcd\test\pain drain\libraries\lvgl\src\misc\lv_color.h ****  *********************/
  16:c:\projects\paindrain\arduinolcd\test\pain drain\libraries\lvgl\src\misc\lv_color.h **** #include "../lv_conf_internal.h"
  17:c:\projects\paindrain\arduinolcd\test\pain drain\libraries\lvgl\src\misc\lv_color.h **** #include "lv_assert.h"
  18:c:\projects\paindrain\arduinolcd\test\pain drain\libraries\lvgl\src\misc\lv_color.h **** #include "lv_math.h"
  19:c:\projects\paindrain\arduinolcd\test\pain drain\libraries\lvgl\src\misc\lv_color.h **** #include "lv_types.h"
  20:c:\projects\paindrain\arduinolcd\test\pain drain\libraries\lvgl\src\misc\lv_color.h **** 
  21:c:\projects\paindrain\arduinolcd\test\pain drain\libraries\lvgl\src\misc\lv_color.h **** /*Error checking*/
  22:c:\projects\paindrain\arduinolcd\test\pain drain\libraries\lvgl\src\misc\lv_color.h **** #if LV_COLOR_DEPTH == 24
  23:c:\projects\paindrain\arduinolcd\test\pain drain\libraries\lvgl\src\misc\lv_color.h **** #error "LV_COLOR_DEPTH 24 is deprecated. Use LV_COLOR_DEPTH 32 instead (lv_conf.h)"
  24:c:\projects\paindrain\arduinolcd\test\pain drain\libraries\lvgl\src\misc\lv_color.h **** #endif
  25:c:\projects\paindrain\arduinolcd\test\pain drain\libraries\lvgl\src\misc\lv_color.h **** 
  26:c:\projects\paindrain\arduinolcd\test\pain drain\libraries\lvgl\src\misc\lv_color.h **** #if LV_COLOR_DEPTH != 16 && LV_COLOR_16_SWAP != 0
ARM GAS  C:\Users\haske\AppData\Local\Temp\ccN8jSR9.s 			page 15


  27:c:\projects\paindrain\arduinolcd\test\pain drain\libraries\lvgl\src\misc\lv_color.h **** #error "LV_COLOR_16_SWAP requires LV_COLOR_DEPTH == 16. Set it in lv_conf.h"
  28:c:\projects\paindrain\arduinolcd\test\pain drain\libraries\lvgl\src\misc\lv_color.h **** #endif
  29:c:\projects\paindrain\arduinolcd\test\pain drain\libraries\lvgl\src\misc\lv_color.h **** 
  30:c:\projects\paindrain\arduinolcd\test\pain drain\libraries\lvgl\src\misc\lv_color.h **** #include <stdint.h>
  31:c:\projects\paindrain\arduinolcd\test\pain drain\libraries\lvgl\src\misc\lv_color.h **** 
  32:c:\projects\paindrain\arduinolcd\test\pain drain\libraries\lvgl\src\misc\lv_color.h **** /*********************
  33:c:\projects\paindrain\arduinolcd\test\pain drain\libraries\lvgl\src\misc\lv_color.h ****  *      DEFINES
  34:c:\projects\paindrain\arduinolcd\test\pain drain\libraries\lvgl\src\misc\lv_color.h ****  *********************/
  35:c:\projects\paindrain\arduinolcd\test\pain drain\libraries\lvgl\src\misc\lv_color.h **** LV_EXPORT_CONST_INT(LV_COLOR_DEPTH);
  36:c:\projects\paindrain\arduinolcd\test\pain drain\libraries\lvgl\src\misc\lv_color.h **** LV_EXPORT_CONST_INT(LV_COLOR_16_SWAP);
  37:c:\projects\paindrain\arduinolcd\test\pain drain\libraries\lvgl\src\misc\lv_color.h **** 
  38:c:\projects\paindrain\arduinolcd\test\pain drain\libraries\lvgl\src\misc\lv_color.h **** /**
  39:c:\projects\paindrain\arduinolcd\test\pain drain\libraries\lvgl\src\misc\lv_color.h ****  * Opacity percentages.
  40:c:\projects\paindrain\arduinolcd\test\pain drain\libraries\lvgl\src\misc\lv_color.h ****  */
  41:c:\projects\paindrain\arduinolcd\test\pain drain\libraries\lvgl\src\misc\lv_color.h **** enum {
  42:c:\projects\paindrain\arduinolcd\test\pain drain\libraries\lvgl\src\misc\lv_color.h ****     LV_OPA_TRANSP = 0,
  43:c:\projects\paindrain\arduinolcd\test\pain drain\libraries\lvgl\src\misc\lv_color.h ****     LV_OPA_0      = 0,
  44:c:\projects\paindrain\arduinolcd\test\pain drain\libraries\lvgl\src\misc\lv_color.h ****     LV_OPA_10     = 25,
  45:c:\projects\paindrain\arduinolcd\test\pain drain\libraries\lvgl\src\misc\lv_color.h ****     LV_OPA_20     = 51,
  46:c:\projects\paindrain\arduinolcd\test\pain drain\libraries\lvgl\src\misc\lv_color.h ****     LV_OPA_30     = 76,
  47:c:\projects\paindrain\arduinolcd\test\pain drain\libraries\lvgl\src\misc\lv_color.h ****     LV_OPA_40     = 102,
  48:c:\projects\paindrain\arduinolcd\test\pain drain\libraries\lvgl\src\misc\lv_color.h ****     LV_OPA_50     = 127,
  49:c:\projects\paindrain\arduinolcd\test\pain drain\libraries\lvgl\src\misc\lv_color.h ****     LV_OPA_60     = 153,
  50:c:\projects\paindrain\arduinolcd\test\pain drain\libraries\lvgl\src\misc\lv_color.h ****     LV_OPA_70     = 178,
  51:c:\projects\paindrain\arduinolcd\test\pain drain\libraries\lvgl\src\misc\lv_color.h ****     LV_OPA_80     = 204,
  52:c:\projects\paindrain\arduinolcd\test\pain drain\libraries\lvgl\src\misc\lv_color.h ****     LV_OPA_90     = 229,
  53:c:\projects\paindrain\arduinolcd\test\pain drain\libraries\lvgl\src\misc\lv_color.h ****     LV_OPA_100    = 255,
  54:c:\projects\paindrain\arduinolcd\test\pain drain\libraries\lvgl\src\misc\lv_color.h ****     LV_OPA_COVER  = 255,
  55:c:\projects\paindrain\arduinolcd\test\pain drain\libraries\lvgl\src\misc\lv_color.h **** };
  56:c:\projects\paindrain\arduinolcd\test\pain drain\libraries\lvgl\src\misc\lv_color.h **** 
  57:c:\projects\paindrain\arduinolcd\test\pain drain\libraries\lvgl\src\misc\lv_color.h **** #define LV_OPA_MIN 2    /*Opacities below this will be transparent*/
  58:c:\projects\paindrain\arduinolcd\test\pain drain\libraries\lvgl\src\misc\lv_color.h **** #define LV_OPA_MAX 253  /*Opacities above this will fully cover*/
  59:c:\projects\paindrain\arduinolcd\test\pain drain\libraries\lvgl\src\misc\lv_color.h **** 
  60:c:\projects\paindrain\arduinolcd\test\pain drain\libraries\lvgl\src\misc\lv_color.h **** #if LV_COLOR_DEPTH == 1
  61:c:\projects\paindrain\arduinolcd\test\pain drain\libraries\lvgl\src\misc\lv_color.h **** #define LV_COLOR_SIZE 8
  62:c:\projects\paindrain\arduinolcd\test\pain drain\libraries\lvgl\src\misc\lv_color.h **** #elif LV_COLOR_DEPTH == 8
  63:c:\projects\paindrain\arduinolcd\test\pain drain\libraries\lvgl\src\misc\lv_color.h **** #define LV_COLOR_SIZE 8
  64:c:\projects\paindrain\arduinolcd\test\pain drain\libraries\lvgl\src\misc\lv_color.h **** #elif LV_COLOR_DEPTH == 16
  65:c:\projects\paindrain\arduinolcd\test\pain drain\libraries\lvgl\src\misc\lv_color.h **** #define LV_COLOR_SIZE 16
  66:c:\projects\paindrain\arduinolcd\test\pain drain\libraries\lvgl\src\misc\lv_color.h **** #elif LV_COLOR_DEPTH == 32
  67:c:\projects\paindrain\arduinolcd\test\pain drain\libraries\lvgl\src\misc\lv_color.h **** #define LV_COLOR_SIZE 32
  68:c:\projects\paindrain\arduinolcd\test\pain drain\libraries\lvgl\src\misc\lv_color.h **** #else
  69:c:\projects\paindrain\arduinolcd\test\pain drain\libraries\lvgl\src\misc\lv_color.h **** #error "Invalid LV_COLOR_DEPTH in lv_conf.h! Set it to 1, 8, 16 or 32!"
  70:c:\projects\paindrain\arduinolcd\test\pain drain\libraries\lvgl\src\misc\lv_color.h **** #endif
  71:c:\projects\paindrain\arduinolcd\test\pain drain\libraries\lvgl\src\misc\lv_color.h **** 
  72:c:\projects\paindrain\arduinolcd\test\pain drain\libraries\lvgl\src\misc\lv_color.h **** #if defined(__cplusplus) && !defined(_LV_COLOR_HAS_MODERN_CPP)
  73:c:\projects\paindrain\arduinolcd\test\pain drain\libraries\lvgl\src\misc\lv_color.h **** /**
  74:c:\projects\paindrain\arduinolcd\test\pain drain\libraries\lvgl\src\misc\lv_color.h **** * MSVC compiler's definition of the __cplusplus indicating 199711L regardless to C++ standard versi
  75:c:\projects\paindrain\arduinolcd\test\pain drain\libraries\lvgl\src\misc\lv_color.h **** * see https://devblogs.microsoft.com/cppblog/msvc-now-correctly-reports-cplusplus
  76:c:\projects\paindrain\arduinolcd\test\pain drain\libraries\lvgl\src\misc\lv_color.h **** * so we use _MSC_VER macro instead of __cplusplus
  77:c:\projects\paindrain\arduinolcd\test\pain drain\libraries\lvgl\src\misc\lv_color.h **** */
  78:c:\projects\paindrain\arduinolcd\test\pain drain\libraries\lvgl\src\misc\lv_color.h **** #ifdef _MSC_VER
  79:c:\projects\paindrain\arduinolcd\test\pain drain\libraries\lvgl\src\misc\lv_color.h **** #if _MSC_VER >= 1900 /*Visual Studio 2015*/
  80:c:\projects\paindrain\arduinolcd\test\pain drain\libraries\lvgl\src\misc\lv_color.h **** #define _LV_COLOR_HAS_MODERN_CPP 1
  81:c:\projects\paindrain\arduinolcd\test\pain drain\libraries\lvgl\src\misc\lv_color.h **** #endif
  82:c:\projects\paindrain\arduinolcd\test\pain drain\libraries\lvgl\src\misc\lv_color.h **** #else
  83:c:\projects\paindrain\arduinolcd\test\pain drain\libraries\lvgl\src\misc\lv_color.h **** #if __cplusplus >= 201103L
ARM GAS  C:\Users\haske\AppData\Local\Temp\ccN8jSR9.s 			page 16


  84:c:\projects\paindrain\arduinolcd\test\pain drain\libraries\lvgl\src\misc\lv_color.h **** #define _LV_COLOR_HAS_MODERN_CPP 1
  85:c:\projects\paindrain\arduinolcd\test\pain drain\libraries\lvgl\src\misc\lv_color.h **** #endif
  86:c:\projects\paindrain\arduinolcd\test\pain drain\libraries\lvgl\src\misc\lv_color.h **** #endif
  87:c:\projects\paindrain\arduinolcd\test\pain drain\libraries\lvgl\src\misc\lv_color.h **** #endif /*__cplusplus*/
  88:c:\projects\paindrain\arduinolcd\test\pain drain\libraries\lvgl\src\misc\lv_color.h **** 
  89:c:\projects\paindrain\arduinolcd\test\pain drain\libraries\lvgl\src\misc\lv_color.h **** #ifndef _LV_COLOR_HAS_MODERN_CPP
  90:c:\projects\paindrain\arduinolcd\test\pain drain\libraries\lvgl\src\misc\lv_color.h **** #define _LV_COLOR_HAS_MODERN_CPP 0
  91:c:\projects\paindrain\arduinolcd\test\pain drain\libraries\lvgl\src\misc\lv_color.h **** #endif
  92:c:\projects\paindrain\arduinolcd\test\pain drain\libraries\lvgl\src\misc\lv_color.h **** 
  93:c:\projects\paindrain\arduinolcd\test\pain drain\libraries\lvgl\src\misc\lv_color.h **** #if _LV_COLOR_HAS_MODERN_CPP
  94:c:\projects\paindrain\arduinolcd\test\pain drain\libraries\lvgl\src\misc\lv_color.h **** /*Fix msvc compiler error C4576 inside C++ code*/
  95:c:\projects\paindrain\arduinolcd\test\pain drain\libraries\lvgl\src\misc\lv_color.h **** #define _LV_COLOR_MAKE_TYPE_HELPER lv_color_t
  96:c:\projects\paindrain\arduinolcd\test\pain drain\libraries\lvgl\src\misc\lv_color.h **** #else
  97:c:\projects\paindrain\arduinolcd\test\pain drain\libraries\lvgl\src\misc\lv_color.h **** #define _LV_COLOR_MAKE_TYPE_HELPER (lv_color_t)
  98:c:\projects\paindrain\arduinolcd\test\pain drain\libraries\lvgl\src\misc\lv_color.h **** #endif
  99:c:\projects\paindrain\arduinolcd\test\pain drain\libraries\lvgl\src\misc\lv_color.h **** 
 100:c:\projects\paindrain\arduinolcd\test\pain drain\libraries\lvgl\src\misc\lv_color.h **** /*---------------------------------------
 101:c:\projects\paindrain\arduinolcd\test\pain drain\libraries\lvgl\src\misc\lv_color.h ****  * Macros for all existing color depths
 102:c:\projects\paindrain\arduinolcd\test\pain drain\libraries\lvgl\src\misc\lv_color.h ****  * to set/get values of the color channels
 103:c:\projects\paindrain\arduinolcd\test\pain drain\libraries\lvgl\src\misc\lv_color.h ****  *------------------------------------------*/
 104:c:\projects\paindrain\arduinolcd\test\pain drain\libraries\lvgl\src\misc\lv_color.h **** # define LV_COLOR_SET_R1(c, v) (c).ch.red = (uint8_t)((v) & 0x1)
 105:c:\projects\paindrain\arduinolcd\test\pain drain\libraries\lvgl\src\misc\lv_color.h **** # define LV_COLOR_SET_G1(c, v) (c).ch.green = (uint8_t)((v) & 0x1)
 106:c:\projects\paindrain\arduinolcd\test\pain drain\libraries\lvgl\src\misc\lv_color.h **** # define LV_COLOR_SET_B1(c, v) (c).ch.blue = (uint8_t)((v) & 0x1)
 107:c:\projects\paindrain\arduinolcd\test\pain drain\libraries\lvgl\src\misc\lv_color.h **** # define LV_COLOR_SET_A1(c, v) do {} while(0)
 108:c:\projects\paindrain\arduinolcd\test\pain drain\libraries\lvgl\src\misc\lv_color.h **** 
 109:c:\projects\paindrain\arduinolcd\test\pain drain\libraries\lvgl\src\misc\lv_color.h **** # define LV_COLOR_GET_R1(c) (c).ch.red
 110:c:\projects\paindrain\arduinolcd\test\pain drain\libraries\lvgl\src\misc\lv_color.h **** # define LV_COLOR_GET_G1(c) (c).ch.green
 111:c:\projects\paindrain\arduinolcd\test\pain drain\libraries\lvgl\src\misc\lv_color.h **** # define LV_COLOR_GET_B1(c) (c).ch.blue
 112:c:\projects\paindrain\arduinolcd\test\pain drain\libraries\lvgl\src\misc\lv_color.h **** # define LV_COLOR_GET_A1(c) 0xFF
 113:c:\projects\paindrain\arduinolcd\test\pain drain\libraries\lvgl\src\misc\lv_color.h **** 
 114:c:\projects\paindrain\arduinolcd\test\pain drain\libraries\lvgl\src\misc\lv_color.h **** # define _LV_COLOR_ZERO_INITIALIZER1 {0x00}
 115:c:\projects\paindrain\arduinolcd\test\pain drain\libraries\lvgl\src\misc\lv_color.h **** # define LV_COLOR_MAKE1(r8, g8, b8)  {(uint8_t)((b8 >> 7) | (g8 >> 7) | (r8 >> 7))}
 116:c:\projects\paindrain\arduinolcd\test\pain drain\libraries\lvgl\src\misc\lv_color.h **** 
 117:c:\projects\paindrain\arduinolcd\test\pain drain\libraries\lvgl\src\misc\lv_color.h **** # define LV_COLOR_SET_R8(c, v) (c).ch.red = (uint8_t)((v) & 0x7U)
 118:c:\projects\paindrain\arduinolcd\test\pain drain\libraries\lvgl\src\misc\lv_color.h **** # define LV_COLOR_SET_G8(c, v) (c).ch.green = (uint8_t)((v) & 0x7U)
 119:c:\projects\paindrain\arduinolcd\test\pain drain\libraries\lvgl\src\misc\lv_color.h **** # define LV_COLOR_SET_B8(c, v) (c).ch.blue = (uint8_t)((v) & 0x3U)
 120:c:\projects\paindrain\arduinolcd\test\pain drain\libraries\lvgl\src\misc\lv_color.h **** # define LV_COLOR_SET_A8(c, v) do {} while(0)
 121:c:\projects\paindrain\arduinolcd\test\pain drain\libraries\lvgl\src\misc\lv_color.h **** 
 122:c:\projects\paindrain\arduinolcd\test\pain drain\libraries\lvgl\src\misc\lv_color.h **** # define LV_COLOR_GET_R8(c) (c).ch.red
 123:c:\projects\paindrain\arduinolcd\test\pain drain\libraries\lvgl\src\misc\lv_color.h **** # define LV_COLOR_GET_G8(c) (c).ch.green
 124:c:\projects\paindrain\arduinolcd\test\pain drain\libraries\lvgl\src\misc\lv_color.h **** # define LV_COLOR_GET_B8(c) (c).ch.blue
 125:c:\projects\paindrain\arduinolcd\test\pain drain\libraries\lvgl\src\misc\lv_color.h **** # define LV_COLOR_GET_A8(c) 0xFF
 126:c:\projects\paindrain\arduinolcd\test\pain drain\libraries\lvgl\src\misc\lv_color.h **** 
 127:c:\projects\paindrain\arduinolcd\test\pain drain\libraries\lvgl\src\misc\lv_color.h **** # define _LV_COLOR_ZERO_INITIALIZER8 {{0x00, 0x00, 0x00}}
 128:c:\projects\paindrain\arduinolcd\test\pain drain\libraries\lvgl\src\misc\lv_color.h **** # define LV_COLOR_MAKE8(r8, g8, b8) {{(uint8_t)((b8 >> 6) & 0x3U), (uint8_t)((g8 >> 5) & 0x7U), (ui
 129:c:\projects\paindrain\arduinolcd\test\pain drain\libraries\lvgl\src\misc\lv_color.h **** 
 130:c:\projects\paindrain\arduinolcd\test\pain drain\libraries\lvgl\src\misc\lv_color.h **** # define LV_COLOR_SET_R16(c, v) (c).ch.red = (uint8_t)((v) & 0x1FU)
 131:c:\projects\paindrain\arduinolcd\test\pain drain\libraries\lvgl\src\misc\lv_color.h **** #if LV_COLOR_16_SWAP == 0
 132:c:\projects\paindrain\arduinolcd\test\pain drain\libraries\lvgl\src\misc\lv_color.h **** # define LV_COLOR_SET_G16(c, v) (c).ch.green = (uint8_t)((v) & 0x3FU)
 133:c:\projects\paindrain\arduinolcd\test\pain drain\libraries\lvgl\src\misc\lv_color.h **** #else
 134:c:\projects\paindrain\arduinolcd\test\pain drain\libraries\lvgl\src\misc\lv_color.h **** # define LV_COLOR_SET_G16(c, v) {(c).ch.green_h = (uint8_t)(((v) >> 3) & 0x7); (c).ch.green_l = (ui
 135:c:\projects\paindrain\arduinolcd\test\pain drain\libraries\lvgl\src\misc\lv_color.h **** #endif
 136:c:\projects\paindrain\arduinolcd\test\pain drain\libraries\lvgl\src\misc\lv_color.h **** # define LV_COLOR_SET_B16(c, v) (c).ch.blue = (uint8_t)((v) & 0x1FU)
 137:c:\projects\paindrain\arduinolcd\test\pain drain\libraries\lvgl\src\misc\lv_color.h **** # define LV_COLOR_SET_A16(c, v) do {} while(0)
 138:c:\projects\paindrain\arduinolcd\test\pain drain\libraries\lvgl\src\misc\lv_color.h **** 
 139:c:\projects\paindrain\arduinolcd\test\pain drain\libraries\lvgl\src\misc\lv_color.h **** # define LV_COLOR_GET_R16(c) (c).ch.red
 140:c:\projects\paindrain\arduinolcd\test\pain drain\libraries\lvgl\src\misc\lv_color.h **** #if LV_COLOR_16_SWAP == 0
ARM GAS  C:\Users\haske\AppData\Local\Temp\ccN8jSR9.s 			page 17


 141:c:\projects\paindrain\arduinolcd\test\pain drain\libraries\lvgl\src\misc\lv_color.h **** # define LV_COLOR_GET_G16(c) (c).ch.green
 142:c:\projects\paindrain\arduinolcd\test\pain drain\libraries\lvgl\src\misc\lv_color.h **** #else
 143:c:\projects\paindrain\arduinolcd\test\pain drain\libraries\lvgl\src\misc\lv_color.h **** # define LV_COLOR_GET_G16(c) (((c).ch.green_h << 3) + (c).ch.green_l)
 144:c:\projects\paindrain\arduinolcd\test\pain drain\libraries\lvgl\src\misc\lv_color.h **** #endif
 145:c:\projects\paindrain\arduinolcd\test\pain drain\libraries\lvgl\src\misc\lv_color.h **** # define LV_COLOR_GET_B16(c) (c).ch.blue
 146:c:\projects\paindrain\arduinolcd\test\pain drain\libraries\lvgl\src\misc\lv_color.h **** # define LV_COLOR_GET_A16(c) 0xFF
 147:c:\projects\paindrain\arduinolcd\test\pain drain\libraries\lvgl\src\misc\lv_color.h **** 
 148:c:\projects\paindrain\arduinolcd\test\pain drain\libraries\lvgl\src\misc\lv_color.h **** #if LV_COLOR_16_SWAP == 0
 149:c:\projects\paindrain\arduinolcd\test\pain drain\libraries\lvgl\src\misc\lv_color.h **** # define _LV_COLOR_ZERO_INITIALIZER16  {{0x00, 0x00, 0x00}}
 150:c:\projects\paindrain\arduinolcd\test\pain drain\libraries\lvgl\src\misc\lv_color.h **** # define LV_COLOR_MAKE16(r8, g8, b8) {{(uint8_t)((b8 >> 3) & 0x1FU), (uint8_t)((g8 >> 2) & 0x3FU), 
 151:c:\projects\paindrain\arduinolcd\test\pain drain\libraries\lvgl\src\misc\lv_color.h **** #else
 152:c:\projects\paindrain\arduinolcd\test\pain drain\libraries\lvgl\src\misc\lv_color.h **** # define _LV_COLOR_ZERO_INITIALIZER16 {{0x00, 0x00, 0x00, 0x00}}
 153:c:\projects\paindrain\arduinolcd\test\pain drain\libraries\lvgl\src\misc\lv_color.h **** # define LV_COLOR_MAKE16(r8, g8, b8) {{(uint8_t)((g8 >> 5) & 0x7U), (uint8_t)((r8 >> 3) & 0x1FU), (
 154:c:\projects\paindrain\arduinolcd\test\pain drain\libraries\lvgl\src\misc\lv_color.h **** #endif
 155:c:\projects\paindrain\arduinolcd\test\pain drain\libraries\lvgl\src\misc\lv_color.h **** 
 156:c:\projects\paindrain\arduinolcd\test\pain drain\libraries\lvgl\src\misc\lv_color.h **** # define LV_COLOR_SET_R32(c, v) (c).ch.red = (uint8_t)((v) & 0xFF)
 157:c:\projects\paindrain\arduinolcd\test\pain drain\libraries\lvgl\src\misc\lv_color.h **** # define LV_COLOR_SET_G32(c, v) (c).ch.green = (uint8_t)((v) & 0xFF)
 158:c:\projects\paindrain\arduinolcd\test\pain drain\libraries\lvgl\src\misc\lv_color.h **** # define LV_COLOR_SET_B32(c, v) (c).ch.blue = (uint8_t)((v) & 0xFF)
 159:c:\projects\paindrain\arduinolcd\test\pain drain\libraries\lvgl\src\misc\lv_color.h **** # define LV_COLOR_SET_A32(c, v) (c).ch.alpha = (uint8_t)((v) & 0xFF)
 160:c:\projects\paindrain\arduinolcd\test\pain drain\libraries\lvgl\src\misc\lv_color.h **** 
 161:c:\projects\paindrain\arduinolcd\test\pain drain\libraries\lvgl\src\misc\lv_color.h **** # define LV_COLOR_GET_R32(c) (c).ch.red
 162:c:\projects\paindrain\arduinolcd\test\pain drain\libraries\lvgl\src\misc\lv_color.h **** # define LV_COLOR_GET_G32(c) (c).ch.green
 163:c:\projects\paindrain\arduinolcd\test\pain drain\libraries\lvgl\src\misc\lv_color.h **** # define LV_COLOR_GET_B32(c) (c).ch.blue
 164:c:\projects\paindrain\arduinolcd\test\pain drain\libraries\lvgl\src\misc\lv_color.h **** # define LV_COLOR_GET_A32(c) (c).ch.alpha
 165:c:\projects\paindrain\arduinolcd\test\pain drain\libraries\lvgl\src\misc\lv_color.h **** 
 166:c:\projects\paindrain\arduinolcd\test\pain drain\libraries\lvgl\src\misc\lv_color.h **** # define _LV_COLOR_ZERO_INITIALIZER32  {{0x00, 0x00, 0x00, 0x00}}
 167:c:\projects\paindrain\arduinolcd\test\pain drain\libraries\lvgl\src\misc\lv_color.h **** # define LV_COLOR_MAKE32(r8, g8, b8) {{b8, g8, r8, 0xff}} /*Fix 0xff alpha*/
 168:c:\projects\paindrain\arduinolcd\test\pain drain\libraries\lvgl\src\misc\lv_color.h **** 
 169:c:\projects\paindrain\arduinolcd\test\pain drain\libraries\lvgl\src\misc\lv_color.h **** /*---------------------------------------
 170:c:\projects\paindrain\arduinolcd\test\pain drain\libraries\lvgl\src\misc\lv_color.h ****  * Macros for the current color depth
 171:c:\projects\paindrain\arduinolcd\test\pain drain\libraries\lvgl\src\misc\lv_color.h ****  * to set/get values of the color channels
 172:c:\projects\paindrain\arduinolcd\test\pain drain\libraries\lvgl\src\misc\lv_color.h ****  *------------------------------------------*/
 173:c:\projects\paindrain\arduinolcd\test\pain drain\libraries\lvgl\src\misc\lv_color.h **** #define LV_COLOR_SET_R(c, v) LV_CONCAT(LV_COLOR_SET_R, LV_COLOR_DEPTH)(c, v)
 174:c:\projects\paindrain\arduinolcd\test\pain drain\libraries\lvgl\src\misc\lv_color.h **** #define LV_COLOR_SET_G(c, v) LV_CONCAT(LV_COLOR_SET_G, LV_COLOR_DEPTH)(c, v)
 175:c:\projects\paindrain\arduinolcd\test\pain drain\libraries\lvgl\src\misc\lv_color.h **** #define LV_COLOR_SET_B(c, v) LV_CONCAT(LV_COLOR_SET_B, LV_COLOR_DEPTH)(c, v)
 176:c:\projects\paindrain\arduinolcd\test\pain drain\libraries\lvgl\src\misc\lv_color.h **** #define LV_COLOR_SET_A(c, v) LV_CONCAT(LV_COLOR_SET_A, LV_COLOR_DEPTH)(c, v)
 177:c:\projects\paindrain\arduinolcd\test\pain drain\libraries\lvgl\src\misc\lv_color.h **** 
 178:c:\projects\paindrain\arduinolcd\test\pain drain\libraries\lvgl\src\misc\lv_color.h **** #define LV_COLOR_GET_R(c) LV_CONCAT(LV_COLOR_GET_R, LV_COLOR_DEPTH)(c)
 179:c:\projects\paindrain\arduinolcd\test\pain drain\libraries\lvgl\src\misc\lv_color.h **** #define LV_COLOR_GET_G(c) LV_CONCAT(LV_COLOR_GET_G, LV_COLOR_DEPTH)(c)
 180:c:\projects\paindrain\arduinolcd\test\pain drain\libraries\lvgl\src\misc\lv_color.h **** #define LV_COLOR_GET_B(c) LV_CONCAT(LV_COLOR_GET_B, LV_COLOR_DEPTH)(c)
 181:c:\projects\paindrain\arduinolcd\test\pain drain\libraries\lvgl\src\misc\lv_color.h **** #define LV_COLOR_GET_A(c) LV_CONCAT(LV_COLOR_GET_A, LV_COLOR_DEPTH)(c)
 182:c:\projects\paindrain\arduinolcd\test\pain drain\libraries\lvgl\src\misc\lv_color.h **** 
 183:c:\projects\paindrain\arduinolcd\test\pain drain\libraries\lvgl\src\misc\lv_color.h **** #define _LV_COLOR_ZERO_INITIALIZER LV_CONCAT(_LV_COLOR_ZERO_INITIALIZER, LV_COLOR_DEPTH)
 184:c:\projects\paindrain\arduinolcd\test\pain drain\libraries\lvgl\src\misc\lv_color.h **** #define LV_COLOR_MAKE(r8, g8, b8) LV_CONCAT(LV_COLOR_MAKE, LV_COLOR_DEPTH)(r8, g8, b8)
 185:c:\projects\paindrain\arduinolcd\test\pain drain\libraries\lvgl\src\misc\lv_color.h **** 
 186:c:\projects\paindrain\arduinolcd\test\pain drain\libraries\lvgl\src\misc\lv_color.h **** /**********************
 187:c:\projects\paindrain\arduinolcd\test\pain drain\libraries\lvgl\src\misc\lv_color.h ****  *      TYPEDEFS
 188:c:\projects\paindrain\arduinolcd\test\pain drain\libraries\lvgl\src\misc\lv_color.h ****  **********************/
 189:c:\projects\paindrain\arduinolcd\test\pain drain\libraries\lvgl\src\misc\lv_color.h **** 
 190:c:\projects\paindrain\arduinolcd\test\pain drain\libraries\lvgl\src\misc\lv_color.h **** typedef union {
 191:c:\projects\paindrain\arduinolcd\test\pain drain\libraries\lvgl\src\misc\lv_color.h ****     uint8_t full; /*must be declared first to set all bits of byte via initializer list*/
 192:c:\projects\paindrain\arduinolcd\test\pain drain\libraries\lvgl\src\misc\lv_color.h ****     union {
 193:c:\projects\paindrain\arduinolcd\test\pain drain\libraries\lvgl\src\misc\lv_color.h ****         uint8_t blue : 1;
 194:c:\projects\paindrain\arduinolcd\test\pain drain\libraries\lvgl\src\misc\lv_color.h ****         uint8_t green : 1;
 195:c:\projects\paindrain\arduinolcd\test\pain drain\libraries\lvgl\src\misc\lv_color.h ****         uint8_t red : 1;
 196:c:\projects\paindrain\arduinolcd\test\pain drain\libraries\lvgl\src\misc\lv_color.h ****     } ch;
 197:c:\projects\paindrain\arduinolcd\test\pain drain\libraries\lvgl\src\misc\lv_color.h **** } lv_color1_t;
ARM GAS  C:\Users\haske\AppData\Local\Temp\ccN8jSR9.s 			page 18


 198:c:\projects\paindrain\arduinolcd\test\pain drain\libraries\lvgl\src\misc\lv_color.h **** 
 199:c:\projects\paindrain\arduinolcd\test\pain drain\libraries\lvgl\src\misc\lv_color.h **** typedef union {
 200:c:\projects\paindrain\arduinolcd\test\pain drain\libraries\lvgl\src\misc\lv_color.h ****     struct {
 201:c:\projects\paindrain\arduinolcd\test\pain drain\libraries\lvgl\src\misc\lv_color.h ****         uint8_t blue : 2;
 202:c:\projects\paindrain\arduinolcd\test\pain drain\libraries\lvgl\src\misc\lv_color.h ****         uint8_t green : 3;
 203:c:\projects\paindrain\arduinolcd\test\pain drain\libraries\lvgl\src\misc\lv_color.h ****         uint8_t red : 3;
 204:c:\projects\paindrain\arduinolcd\test\pain drain\libraries\lvgl\src\misc\lv_color.h ****     } ch;
 205:c:\projects\paindrain\arduinolcd\test\pain drain\libraries\lvgl\src\misc\lv_color.h ****     uint8_t full;
 206:c:\projects\paindrain\arduinolcd\test\pain drain\libraries\lvgl\src\misc\lv_color.h **** } lv_color8_t;
 207:c:\projects\paindrain\arduinolcd\test\pain drain\libraries\lvgl\src\misc\lv_color.h **** 
 208:c:\projects\paindrain\arduinolcd\test\pain drain\libraries\lvgl\src\misc\lv_color.h **** typedef union {
 209:c:\projects\paindrain\arduinolcd\test\pain drain\libraries\lvgl\src\misc\lv_color.h ****     struct {
 210:c:\projects\paindrain\arduinolcd\test\pain drain\libraries\lvgl\src\misc\lv_color.h **** #if LV_COLOR_16_SWAP == 0
 211:c:\projects\paindrain\arduinolcd\test\pain drain\libraries\lvgl\src\misc\lv_color.h ****         uint16_t blue : 5;
 212:c:\projects\paindrain\arduinolcd\test\pain drain\libraries\lvgl\src\misc\lv_color.h ****         uint16_t green : 6;
 213:c:\projects\paindrain\arduinolcd\test\pain drain\libraries\lvgl\src\misc\lv_color.h ****         uint16_t red : 5;
 214:c:\projects\paindrain\arduinolcd\test\pain drain\libraries\lvgl\src\misc\lv_color.h **** #else
 215:c:\projects\paindrain\arduinolcd\test\pain drain\libraries\lvgl\src\misc\lv_color.h ****         uint16_t green_h : 3;
 216:c:\projects\paindrain\arduinolcd\test\pain drain\libraries\lvgl\src\misc\lv_color.h ****         uint16_t red : 5;
 217:c:\projects\paindrain\arduinolcd\test\pain drain\libraries\lvgl\src\misc\lv_color.h ****         uint16_t blue : 5;
 218:c:\projects\paindrain\arduinolcd\test\pain drain\libraries\lvgl\src\misc\lv_color.h ****         uint16_t green_l : 3;
 219:c:\projects\paindrain\arduinolcd\test\pain drain\libraries\lvgl\src\misc\lv_color.h **** #endif
 220:c:\projects\paindrain\arduinolcd\test\pain drain\libraries\lvgl\src\misc\lv_color.h ****     } ch;
 221:c:\projects\paindrain\arduinolcd\test\pain drain\libraries\lvgl\src\misc\lv_color.h ****     uint16_t full;
 222:c:\projects\paindrain\arduinolcd\test\pain drain\libraries\lvgl\src\misc\lv_color.h **** } lv_color16_t;
 223:c:\projects\paindrain\arduinolcd\test\pain drain\libraries\lvgl\src\misc\lv_color.h **** 
 224:c:\projects\paindrain\arduinolcd\test\pain drain\libraries\lvgl\src\misc\lv_color.h **** typedef union {
 225:c:\projects\paindrain\arduinolcd\test\pain drain\libraries\lvgl\src\misc\lv_color.h ****     struct {
 226:c:\projects\paindrain\arduinolcd\test\pain drain\libraries\lvgl\src\misc\lv_color.h ****         uint8_t blue;
 227:c:\projects\paindrain\arduinolcd\test\pain drain\libraries\lvgl\src\misc\lv_color.h ****         uint8_t green;
 228:c:\projects\paindrain\arduinolcd\test\pain drain\libraries\lvgl\src\misc\lv_color.h ****         uint8_t red;
 229:c:\projects\paindrain\arduinolcd\test\pain drain\libraries\lvgl\src\misc\lv_color.h ****         uint8_t alpha;
 230:c:\projects\paindrain\arduinolcd\test\pain drain\libraries\lvgl\src\misc\lv_color.h ****     } ch;
 231:c:\projects\paindrain\arduinolcd\test\pain drain\libraries\lvgl\src\misc\lv_color.h ****     uint32_t full;
 232:c:\projects\paindrain\arduinolcd\test\pain drain\libraries\lvgl\src\misc\lv_color.h **** } lv_color32_t;
 233:c:\projects\paindrain\arduinolcd\test\pain drain\libraries\lvgl\src\misc\lv_color.h **** 
 234:c:\projects\paindrain\arduinolcd\test\pain drain\libraries\lvgl\src\misc\lv_color.h **** typedef LV_CONCAT3(uint, LV_COLOR_SIZE, _t) lv_color_int_t;
 235:c:\projects\paindrain\arduinolcd\test\pain drain\libraries\lvgl\src\misc\lv_color.h **** typedef LV_CONCAT3(lv_color, LV_COLOR_DEPTH, _t) lv_color_t;
 236:c:\projects\paindrain\arduinolcd\test\pain drain\libraries\lvgl\src\misc\lv_color.h **** 
 237:c:\projects\paindrain\arduinolcd\test\pain drain\libraries\lvgl\src\misc\lv_color.h **** typedef struct {
 238:c:\projects\paindrain\arduinolcd\test\pain drain\libraries\lvgl\src\misc\lv_color.h ****     uint16_t h;
 239:c:\projects\paindrain\arduinolcd\test\pain drain\libraries\lvgl\src\misc\lv_color.h ****     uint8_t s;
 240:c:\projects\paindrain\arduinolcd\test\pain drain\libraries\lvgl\src\misc\lv_color.h ****     uint8_t v;
 241:c:\projects\paindrain\arduinolcd\test\pain drain\libraries\lvgl\src\misc\lv_color.h **** } lv_color_hsv_t;
 242:c:\projects\paindrain\arduinolcd\test\pain drain\libraries\lvgl\src\misc\lv_color.h **** 
 243:c:\projects\paindrain\arduinolcd\test\pain drain\libraries\lvgl\src\misc\lv_color.h **** //! @cond Doxygen_Suppress
 244:c:\projects\paindrain\arduinolcd\test\pain drain\libraries\lvgl\src\misc\lv_color.h **** /*No idea where the guard is required but else throws warnings in the docs*/
 245:c:\projects\paindrain\arduinolcd\test\pain drain\libraries\lvgl\src\misc\lv_color.h **** typedef uint8_t lv_opa_t;
 246:c:\projects\paindrain\arduinolcd\test\pain drain\libraries\lvgl\src\misc\lv_color.h **** //! @endcond
 247:c:\projects\paindrain\arduinolcd\test\pain drain\libraries\lvgl\src\misc\lv_color.h **** 
 248:c:\projects\paindrain\arduinolcd\test\pain drain\libraries\lvgl\src\misc\lv_color.h **** struct _lv_color_filter_dsc_t;
 249:c:\projects\paindrain\arduinolcd\test\pain drain\libraries\lvgl\src\misc\lv_color.h **** 
 250:c:\projects\paindrain\arduinolcd\test\pain drain\libraries\lvgl\src\misc\lv_color.h **** typedef lv_color_t (*lv_color_filter_cb_t)(const struct _lv_color_filter_dsc_t *, lv_color_t, lv_op
 251:c:\projects\paindrain\arduinolcd\test\pain drain\libraries\lvgl\src\misc\lv_color.h **** 
 252:c:\projects\paindrain\arduinolcd\test\pain drain\libraries\lvgl\src\misc\lv_color.h **** typedef struct _lv_color_filter_dsc_t {
 253:c:\projects\paindrain\arduinolcd\test\pain drain\libraries\lvgl\src\misc\lv_color.h ****     lv_color_filter_cb_t filter_cb;
 254:c:\projects\paindrain\arduinolcd\test\pain drain\libraries\lvgl\src\misc\lv_color.h ****     void * user_data;
ARM GAS  C:\Users\haske\AppData\Local\Temp\ccN8jSR9.s 			page 19


 255:c:\projects\paindrain\arduinolcd\test\pain drain\libraries\lvgl\src\misc\lv_color.h **** } lv_color_filter_dsc_t;
 256:c:\projects\paindrain\arduinolcd\test\pain drain\libraries\lvgl\src\misc\lv_color.h **** 
 257:c:\projects\paindrain\arduinolcd\test\pain drain\libraries\lvgl\src\misc\lv_color.h **** 
 258:c:\projects\paindrain\arduinolcd\test\pain drain\libraries\lvgl\src\misc\lv_color.h **** typedef enum {
 259:c:\projects\paindrain\arduinolcd\test\pain drain\libraries\lvgl\src\misc\lv_color.h ****     LV_PALETTE_RED,
 260:c:\projects\paindrain\arduinolcd\test\pain drain\libraries\lvgl\src\misc\lv_color.h ****     LV_PALETTE_PINK,
 261:c:\projects\paindrain\arduinolcd\test\pain drain\libraries\lvgl\src\misc\lv_color.h ****     LV_PALETTE_PURPLE,
 262:c:\projects\paindrain\arduinolcd\test\pain drain\libraries\lvgl\src\misc\lv_color.h ****     LV_PALETTE_DEEP_PURPLE,
 263:c:\projects\paindrain\arduinolcd\test\pain drain\libraries\lvgl\src\misc\lv_color.h ****     LV_PALETTE_INDIGO,
 264:c:\projects\paindrain\arduinolcd\test\pain drain\libraries\lvgl\src\misc\lv_color.h ****     LV_PALETTE_BLUE,
 265:c:\projects\paindrain\arduinolcd\test\pain drain\libraries\lvgl\src\misc\lv_color.h ****     LV_PALETTE_LIGHT_BLUE,
 266:c:\projects\paindrain\arduinolcd\test\pain drain\libraries\lvgl\src\misc\lv_color.h ****     LV_PALETTE_CYAN,
 267:c:\projects\paindrain\arduinolcd\test\pain drain\libraries\lvgl\src\misc\lv_color.h ****     LV_PALETTE_TEAL,
 268:c:\projects\paindrain\arduinolcd\test\pain drain\libraries\lvgl\src\misc\lv_color.h ****     LV_PALETTE_GREEN,
 269:c:\projects\paindrain\arduinolcd\test\pain drain\libraries\lvgl\src\misc\lv_color.h ****     LV_PALETTE_LIGHT_GREEN,
 270:c:\projects\paindrain\arduinolcd\test\pain drain\libraries\lvgl\src\misc\lv_color.h ****     LV_PALETTE_LIME,
 271:c:\projects\paindrain\arduinolcd\test\pain drain\libraries\lvgl\src\misc\lv_color.h ****     LV_PALETTE_YELLOW,
 272:c:\projects\paindrain\arduinolcd\test\pain drain\libraries\lvgl\src\misc\lv_color.h ****     LV_PALETTE_AMBER,
 273:c:\projects\paindrain\arduinolcd\test\pain drain\libraries\lvgl\src\misc\lv_color.h ****     LV_PALETTE_ORANGE,
 274:c:\projects\paindrain\arduinolcd\test\pain drain\libraries\lvgl\src\misc\lv_color.h ****     LV_PALETTE_DEEP_ORANGE,
 275:c:\projects\paindrain\arduinolcd\test\pain drain\libraries\lvgl\src\misc\lv_color.h ****     LV_PALETTE_BROWN,
 276:c:\projects\paindrain\arduinolcd\test\pain drain\libraries\lvgl\src\misc\lv_color.h ****     LV_PALETTE_BLUE_GREY,
 277:c:\projects\paindrain\arduinolcd\test\pain drain\libraries\lvgl\src\misc\lv_color.h ****     LV_PALETTE_GREY,
 278:c:\projects\paindrain\arduinolcd\test\pain drain\libraries\lvgl\src\misc\lv_color.h ****     _LV_PALETTE_LAST,
 279:c:\projects\paindrain\arduinolcd\test\pain drain\libraries\lvgl\src\misc\lv_color.h ****     LV_PALETTE_NONE = 0xff,
 280:c:\projects\paindrain\arduinolcd\test\pain drain\libraries\lvgl\src\misc\lv_color.h **** } lv_palette_t;
 281:c:\projects\paindrain\arduinolcd\test\pain drain\libraries\lvgl\src\misc\lv_color.h **** 
 282:c:\projects\paindrain\arduinolcd\test\pain drain\libraries\lvgl\src\misc\lv_color.h **** /**********************
 283:c:\projects\paindrain\arduinolcd\test\pain drain\libraries\lvgl\src\misc\lv_color.h ****  * GLOBAL PROTOTYPES
 284:c:\projects\paindrain\arduinolcd\test\pain drain\libraries\lvgl\src\misc\lv_color.h ****  **********************/
 285:c:\projects\paindrain\arduinolcd\test\pain drain\libraries\lvgl\src\misc\lv_color.h **** 
 286:c:\projects\paindrain\arduinolcd\test\pain drain\libraries\lvgl\src\misc\lv_color.h **** /*In color conversations:
 287:c:\projects\paindrain\arduinolcd\test\pain drain\libraries\lvgl\src\misc\lv_color.h ****  * - When converting to bigger color type the LSB weight of 1 LSB is calculated
 288:c:\projects\paindrain\arduinolcd\test\pain drain\libraries\lvgl\src\misc\lv_color.h ****  *   E.g. 16 bit Red has 5 bits
 289:c:\projects\paindrain\arduinolcd\test\pain drain\libraries\lvgl\src\misc\lv_color.h ****  *         8 bit Red has 3 bits
 290:c:\projects\paindrain\arduinolcd\test\pain drain\libraries\lvgl\src\misc\lv_color.h ****  *        ----------------------
 291:c:\projects\paindrain\arduinolcd\test\pain drain\libraries\lvgl\src\misc\lv_color.h ****  *        8 bit red LSB = (2^5 - 1) / (2^3 - 1) = 31 / 7 = 4
 292:c:\projects\paindrain\arduinolcd\test\pain drain\libraries\lvgl\src\misc\lv_color.h ****  *
 293:c:\projects\paindrain\arduinolcd\test\pain drain\libraries\lvgl\src\misc\lv_color.h ****  * - When calculating to smaller color type simply shift out the LSBs
 294:c:\projects\paindrain\arduinolcd\test\pain drain\libraries\lvgl\src\misc\lv_color.h ****  *   E.g.  8 bit Red has 3 bits
 295:c:\projects\paindrain\arduinolcd\test\pain drain\libraries\lvgl\src\misc\lv_color.h ****  *        16 bit Red has 5 bits
 296:c:\projects\paindrain\arduinolcd\test\pain drain\libraries\lvgl\src\misc\lv_color.h ****  *        ----------------------
 297:c:\projects\paindrain\arduinolcd\test\pain drain\libraries\lvgl\src\misc\lv_color.h ****  *         Shift right with 5 - 3 = 2
 298:c:\projects\paindrain\arduinolcd\test\pain drain\libraries\lvgl\src\misc\lv_color.h ****  */
 299:c:\projects\paindrain\arduinolcd\test\pain drain\libraries\lvgl\src\misc\lv_color.h **** static inline uint8_t lv_color_to1(lv_color_t color)
 300:c:\projects\paindrain\arduinolcd\test\pain drain\libraries\lvgl\src\misc\lv_color.h **** {
 301:c:\projects\paindrain\arduinolcd\test\pain drain\libraries\lvgl\src\misc\lv_color.h **** #if LV_COLOR_DEPTH == 1
 302:c:\projects\paindrain\arduinolcd\test\pain drain\libraries\lvgl\src\misc\lv_color.h ****     return color.full;
 303:c:\projects\paindrain\arduinolcd\test\pain drain\libraries\lvgl\src\misc\lv_color.h **** #elif LV_COLOR_DEPTH == 8
 304:c:\projects\paindrain\arduinolcd\test\pain drain\libraries\lvgl\src\misc\lv_color.h ****     if((LV_COLOR_GET_R(color) & 0x4) || (LV_COLOR_GET_G(color) & 0x4) || (LV_COLOR_GET_B(color) & 0
 305:c:\projects\paindrain\arduinolcd\test\pain drain\libraries\lvgl\src\misc\lv_color.h ****         return 1;
 306:c:\projects\paindrain\arduinolcd\test\pain drain\libraries\lvgl\src\misc\lv_color.h ****     }
 307:c:\projects\paindrain\arduinolcd\test\pain drain\libraries\lvgl\src\misc\lv_color.h ****     else {
 308:c:\projects\paindrain\arduinolcd\test\pain drain\libraries\lvgl\src\misc\lv_color.h ****         return 0;
 309:c:\projects\paindrain\arduinolcd\test\pain drain\libraries\lvgl\src\misc\lv_color.h ****     }
 310:c:\projects\paindrain\arduinolcd\test\pain drain\libraries\lvgl\src\misc\lv_color.h **** #elif LV_COLOR_DEPTH == 16
 311:c:\projects\paindrain\arduinolcd\test\pain drain\libraries\lvgl\src\misc\lv_color.h ****     if((LV_COLOR_GET_R(color) & 0x10) || (LV_COLOR_GET_G(color) & 0x20) || (LV_COLOR_GET_B(color) &
ARM GAS  C:\Users\haske\AppData\Local\Temp\ccN8jSR9.s 			page 20


 312:c:\projects\paindrain\arduinolcd\test\pain drain\libraries\lvgl\src\misc\lv_color.h ****         return 1;
 313:c:\projects\paindrain\arduinolcd\test\pain drain\libraries\lvgl\src\misc\lv_color.h ****     }
 314:c:\projects\paindrain\arduinolcd\test\pain drain\libraries\lvgl\src\misc\lv_color.h ****     else {
 315:c:\projects\paindrain\arduinolcd\test\pain drain\libraries\lvgl\src\misc\lv_color.h ****         return 0;
 316:c:\projects\paindrain\arduinolcd\test\pain drain\libraries\lvgl\src\misc\lv_color.h ****     }
 317:c:\projects\paindrain\arduinolcd\test\pain drain\libraries\lvgl\src\misc\lv_color.h **** #elif LV_COLOR_DEPTH == 32
 318:c:\projects\paindrain\arduinolcd\test\pain drain\libraries\lvgl\src\misc\lv_color.h ****     if((LV_COLOR_GET_R(color) & 0x80) || (LV_COLOR_GET_G(color) & 0x80) || (LV_COLOR_GET_B(color) &
 319:c:\projects\paindrain\arduinolcd\test\pain drain\libraries\lvgl\src\misc\lv_color.h ****         return 1;
 320:c:\projects\paindrain\arduinolcd\test\pain drain\libraries\lvgl\src\misc\lv_color.h ****     }
 321:c:\projects\paindrain\arduinolcd\test\pain drain\libraries\lvgl\src\misc\lv_color.h ****     else {
 322:c:\projects\paindrain\arduinolcd\test\pain drain\libraries\lvgl\src\misc\lv_color.h ****         return 0;
 323:c:\projects\paindrain\arduinolcd\test\pain drain\libraries\lvgl\src\misc\lv_color.h ****     }
 324:c:\projects\paindrain\arduinolcd\test\pain drain\libraries\lvgl\src\misc\lv_color.h **** #endif
 325:c:\projects\paindrain\arduinolcd\test\pain drain\libraries\lvgl\src\misc\lv_color.h **** }
 326:c:\projects\paindrain\arduinolcd\test\pain drain\libraries\lvgl\src\misc\lv_color.h **** 
 327:c:\projects\paindrain\arduinolcd\test\pain drain\libraries\lvgl\src\misc\lv_color.h **** static inline uint8_t lv_color_to8(lv_color_t color)
 328:c:\projects\paindrain\arduinolcd\test\pain drain\libraries\lvgl\src\misc\lv_color.h **** {
 329:c:\projects\paindrain\arduinolcd\test\pain drain\libraries\lvgl\src\misc\lv_color.h **** #if LV_COLOR_DEPTH == 1
 330:c:\projects\paindrain\arduinolcd\test\pain drain\libraries\lvgl\src\misc\lv_color.h ****     if(color.full == 0)
 331:c:\projects\paindrain\arduinolcd\test\pain drain\libraries\lvgl\src\misc\lv_color.h ****         return 0;
 332:c:\projects\paindrain\arduinolcd\test\pain drain\libraries\lvgl\src\misc\lv_color.h ****     else
 333:c:\projects\paindrain\arduinolcd\test\pain drain\libraries\lvgl\src\misc\lv_color.h ****         return 0xFF;
 334:c:\projects\paindrain\arduinolcd\test\pain drain\libraries\lvgl\src\misc\lv_color.h **** #elif LV_COLOR_DEPTH == 8
 335:c:\projects\paindrain\arduinolcd\test\pain drain\libraries\lvgl\src\misc\lv_color.h ****     return color.full;
 336:c:\projects\paindrain\arduinolcd\test\pain drain\libraries\lvgl\src\misc\lv_color.h **** #elif LV_COLOR_DEPTH == 16
 337:c:\projects\paindrain\arduinolcd\test\pain drain\libraries\lvgl\src\misc\lv_color.h ****     lv_color8_t ret;
 338:c:\projects\paindrain\arduinolcd\test\pain drain\libraries\lvgl\src\misc\lv_color.h ****     LV_COLOR_SET_R8(ret, LV_COLOR_GET_R(color) >> 2); /*5 - 3  = 2*/
 339:c:\projects\paindrain\arduinolcd\test\pain drain\libraries\lvgl\src\misc\lv_color.h ****     LV_COLOR_SET_G8(ret, LV_COLOR_GET_G(color) >> 3); /*6 - 3  = 3*/
 340:c:\projects\paindrain\arduinolcd\test\pain drain\libraries\lvgl\src\misc\lv_color.h ****     LV_COLOR_SET_B8(ret, LV_COLOR_GET_B(color) >> 3); /*5 - 2  = 3*/
 341:c:\projects\paindrain\arduinolcd\test\pain drain\libraries\lvgl\src\misc\lv_color.h ****     return ret.full;
 342:c:\projects\paindrain\arduinolcd\test\pain drain\libraries\lvgl\src\misc\lv_color.h **** #elif LV_COLOR_DEPTH == 32
 343:c:\projects\paindrain\arduinolcd\test\pain drain\libraries\lvgl\src\misc\lv_color.h ****     lv_color8_t ret;
 344:c:\projects\paindrain\arduinolcd\test\pain drain\libraries\lvgl\src\misc\lv_color.h ****     LV_COLOR_SET_R8(ret, LV_COLOR_GET_R(color) >> 5); /*8 - 3  = 5*/
 345:c:\projects\paindrain\arduinolcd\test\pain drain\libraries\lvgl\src\misc\lv_color.h ****     LV_COLOR_SET_G8(ret, LV_COLOR_GET_G(color) >> 5); /*8 - 3  = 5*/
 346:c:\projects\paindrain\arduinolcd\test\pain drain\libraries\lvgl\src\misc\lv_color.h ****     LV_COLOR_SET_B8(ret, LV_COLOR_GET_B(color) >> 6); /*8 - 2  = 6*/
 347:c:\projects\paindrain\arduinolcd\test\pain drain\libraries\lvgl\src\misc\lv_color.h ****     return ret.full;
 348:c:\projects\paindrain\arduinolcd\test\pain drain\libraries\lvgl\src\misc\lv_color.h **** #endif
 349:c:\projects\paindrain\arduinolcd\test\pain drain\libraries\lvgl\src\misc\lv_color.h **** }
 350:c:\projects\paindrain\arduinolcd\test\pain drain\libraries\lvgl\src\misc\lv_color.h **** 
 351:c:\projects\paindrain\arduinolcd\test\pain drain\libraries\lvgl\src\misc\lv_color.h **** static inline uint16_t lv_color_to16(lv_color_t color)
 352:c:\projects\paindrain\arduinolcd\test\pain drain\libraries\lvgl\src\misc\lv_color.h **** {
 353:c:\projects\paindrain\arduinolcd\test\pain drain\libraries\lvgl\src\misc\lv_color.h **** #if LV_COLOR_DEPTH == 1
 354:c:\projects\paindrain\arduinolcd\test\pain drain\libraries\lvgl\src\misc\lv_color.h ****     if(color.full == 0)
 355:c:\projects\paindrain\arduinolcd\test\pain drain\libraries\lvgl\src\misc\lv_color.h ****         return 0;
 356:c:\projects\paindrain\arduinolcd\test\pain drain\libraries\lvgl\src\misc\lv_color.h ****     else
 357:c:\projects\paindrain\arduinolcd\test\pain drain\libraries\lvgl\src\misc\lv_color.h ****         return 0xFFFF;
 358:c:\projects\paindrain\arduinolcd\test\pain drain\libraries\lvgl\src\misc\lv_color.h **** #elif LV_COLOR_DEPTH == 8
 359:c:\projects\paindrain\arduinolcd\test\pain drain\libraries\lvgl\src\misc\lv_color.h ****     lv_color16_t ret;
 360:c:\projects\paindrain\arduinolcd\test\pain drain\libraries\lvgl\src\misc\lv_color.h ****     LV_COLOR_SET_R16(ret, LV_COLOR_GET_R(color) * 4);  /*(2^5 - 1)/(2^3 - 1) = 31/7 = 4*/
 361:c:\projects\paindrain\arduinolcd\test\pain drain\libraries\lvgl\src\misc\lv_color.h ****     LV_COLOR_SET_G16(ret, LV_COLOR_GET_G(color) * 9);  /*(2^6 - 1)/(2^3 - 1) = 63/7 = 9*/
 362:c:\projects\paindrain\arduinolcd\test\pain drain\libraries\lvgl\src\misc\lv_color.h ****     LV_COLOR_SET_B16(ret, LV_COLOR_GET_B(color) * 10); /*(2^5 - 1)/(2^2 - 1) = 31/3 = 10*/
 363:c:\projects\paindrain\arduinolcd\test\pain drain\libraries\lvgl\src\misc\lv_color.h ****     return ret.full;
 364:c:\projects\paindrain\arduinolcd\test\pain drain\libraries\lvgl\src\misc\lv_color.h **** #elif LV_COLOR_DEPTH == 16
 365:c:\projects\paindrain\arduinolcd\test\pain drain\libraries\lvgl\src\misc\lv_color.h ****     return color.full;
 366:c:\projects\paindrain\arduinolcd\test\pain drain\libraries\lvgl\src\misc\lv_color.h **** #elif LV_COLOR_DEPTH == 32
 367:c:\projects\paindrain\arduinolcd\test\pain drain\libraries\lvgl\src\misc\lv_color.h ****     lv_color16_t ret;
 368:c:\projects\paindrain\arduinolcd\test\pain drain\libraries\lvgl\src\misc\lv_color.h ****     LV_COLOR_SET_R16(ret, LV_COLOR_GET_R(color) >> 3); /*8 - 5  = 3*/
ARM GAS  C:\Users\haske\AppData\Local\Temp\ccN8jSR9.s 			page 21


 369:c:\projects\paindrain\arduinolcd\test\pain drain\libraries\lvgl\src\misc\lv_color.h ****     LV_COLOR_SET_G16(ret, LV_COLOR_GET_G(color) >> 2); /*8 - 6  = 2*/
 370:c:\projects\paindrain\arduinolcd\test\pain drain\libraries\lvgl\src\misc\lv_color.h ****     LV_COLOR_SET_B16(ret, LV_COLOR_GET_B(color) >> 3); /*8 - 5  = 3*/
 371:c:\projects\paindrain\arduinolcd\test\pain drain\libraries\lvgl\src\misc\lv_color.h ****     return ret.full;
 372:c:\projects\paindrain\arduinolcd\test\pain drain\libraries\lvgl\src\misc\lv_color.h **** #endif
 373:c:\projects\paindrain\arduinolcd\test\pain drain\libraries\lvgl\src\misc\lv_color.h **** }
 374:c:\projects\paindrain\arduinolcd\test\pain drain\libraries\lvgl\src\misc\lv_color.h **** 
 375:c:\projects\paindrain\arduinolcd\test\pain drain\libraries\lvgl\src\misc\lv_color.h **** static inline uint32_t lv_color_to32(lv_color_t color)
 376:c:\projects\paindrain\arduinolcd\test\pain drain\libraries\lvgl\src\misc\lv_color.h **** {
 377:c:\projects\paindrain\arduinolcd\test\pain drain\libraries\lvgl\src\misc\lv_color.h **** #if LV_COLOR_DEPTH == 1
 378:c:\projects\paindrain\arduinolcd\test\pain drain\libraries\lvgl\src\misc\lv_color.h ****     if(color.full == 0)
 379:c:\projects\paindrain\arduinolcd\test\pain drain\libraries\lvgl\src\misc\lv_color.h ****         return 0xFF000000;
 380:c:\projects\paindrain\arduinolcd\test\pain drain\libraries\lvgl\src\misc\lv_color.h ****     else
 381:c:\projects\paindrain\arduinolcd\test\pain drain\libraries\lvgl\src\misc\lv_color.h ****         return 0xFFFFFFFF;
 382:c:\projects\paindrain\arduinolcd\test\pain drain\libraries\lvgl\src\misc\lv_color.h **** #elif LV_COLOR_DEPTH == 8
 383:c:\projects\paindrain\arduinolcd\test\pain drain\libraries\lvgl\src\misc\lv_color.h ****     lv_color32_t ret;
 384:c:\projects\paindrain\arduinolcd\test\pain drain\libraries\lvgl\src\misc\lv_color.h ****     LV_COLOR_SET_R32(ret, LV_COLOR_GET_R(color) * 36); /*(2^8 - 1)/(2^3 - 1) = 255/7 = 36*/
 385:c:\projects\paindrain\arduinolcd\test\pain drain\libraries\lvgl\src\misc\lv_color.h ****     LV_COLOR_SET_G32(ret, LV_COLOR_GET_G(color) * 36); /*(2^8 - 1)/(2^3 - 1) = 255/7 = 36*/
 386:c:\projects\paindrain\arduinolcd\test\pain drain\libraries\lvgl\src\misc\lv_color.h ****     LV_COLOR_SET_B32(ret, LV_COLOR_GET_B(color) * 85); /*(2^8 - 1)/(2^2 - 1) = 255/3 = 85*/
 387:c:\projects\paindrain\arduinolcd\test\pain drain\libraries\lvgl\src\misc\lv_color.h ****     LV_COLOR_SET_A32(ret, 0xFF);
 388:c:\projects\paindrain\arduinolcd\test\pain drain\libraries\lvgl\src\misc\lv_color.h ****     return ret.full;
 389:c:\projects\paindrain\arduinolcd\test\pain drain\libraries\lvgl\src\misc\lv_color.h **** #elif LV_COLOR_DEPTH == 16
 390:c:\projects\paindrain\arduinolcd\test\pain drain\libraries\lvgl\src\misc\lv_color.h ****     /**
 391:c:\projects\paindrain\arduinolcd\test\pain drain\libraries\lvgl\src\misc\lv_color.h ****      * The floating point math for conversion is:
 392:c:\projects\paindrain\arduinolcd\test\pain drain\libraries\lvgl\src\misc\lv_color.h ****      *  valueto = valuefrom * ( (2^bitsto - 1) / (float)(2^bitsfrom - 1) )
 393:c:\projects\paindrain\arduinolcd\test\pain drain\libraries\lvgl\src\misc\lv_color.h ****      * The faster integer math for conversion is:
 394:c:\projects\paindrain\arduinolcd\test\pain drain\libraries\lvgl\src\misc\lv_color.h ****      *  valueto = ( valuefrom * multiplier + adder ) >> divisor
 395:c:\projects\paindrain\arduinolcd\test\pain drain\libraries\lvgl\src\misc\lv_color.h ****      *   multiplier = FLOOR( ( (2^bitsto - 1) << divisor ) / (float)(2^bitsfrom - 1) )
 396:c:\projects\paindrain\arduinolcd\test\pain drain\libraries\lvgl\src\misc\lv_color.h ****      *
 397:c:\projects\paindrain\arduinolcd\test\pain drain\libraries\lvgl\src\misc\lv_color.h ****      * Find the first divisor where ( adder >> divisor ) <= 0
 398:c:\projects\paindrain\arduinolcd\test\pain drain\libraries\lvgl\src\misc\lv_color.h ****      *
 399:c:\projects\paindrain\arduinolcd\test\pain drain\libraries\lvgl\src\misc\lv_color.h ****      * 5-bit to 8-bit: ( 31 * multiplier + adder ) >> divisor = 255
 400:c:\projects\paindrain\arduinolcd\test\pain drain\libraries\lvgl\src\misc\lv_color.h ****      * divisor  multiplier  adder  min (0)  max (31)
 401:c:\projects\paindrain\arduinolcd\test\pain drain\libraries\lvgl\src\misc\lv_color.h ****      *       0           8      7        7       255
 402:c:\projects\paindrain\arduinolcd\test\pain drain\libraries\lvgl\src\misc\lv_color.h ****      *       1          16     14        7       255
 403:c:\projects\paindrain\arduinolcd\test\pain drain\libraries\lvgl\src\misc\lv_color.h ****      *       2          32     28        7       255
 404:c:\projects\paindrain\arduinolcd\test\pain drain\libraries\lvgl\src\misc\lv_color.h ****      *       3          65     25        3       255
 405:c:\projects\paindrain\arduinolcd\test\pain drain\libraries\lvgl\src\misc\lv_color.h ****      *       4         131     19        1       255
 406:c:\projects\paindrain\arduinolcd\test\pain drain\libraries\lvgl\src\misc\lv_color.h ****      *       5         263      7        0       255
 407:c:\projects\paindrain\arduinolcd\test\pain drain\libraries\lvgl\src\misc\lv_color.h ****      *
 408:c:\projects\paindrain\arduinolcd\test\pain drain\libraries\lvgl\src\misc\lv_color.h ****      * 6-bit to 8-bit: 255 = ( 63 * multiplier + adder ) >> divisor
 409:c:\projects\paindrain\arduinolcd\test\pain drain\libraries\lvgl\src\misc\lv_color.h ****      * divisor  multiplier  adder  min (0)  max (63)
 410:c:\projects\paindrain\arduinolcd\test\pain drain\libraries\lvgl\src\misc\lv_color.h ****      *       0           4      3        3       255
 411:c:\projects\paindrain\arduinolcd\test\pain drain\libraries\lvgl\src\misc\lv_color.h ****      *       1           8      6        3       255
 412:c:\projects\paindrain\arduinolcd\test\pain drain\libraries\lvgl\src\misc\lv_color.h ****      *       2          16     12        3       255
 413:c:\projects\paindrain\arduinolcd\test\pain drain\libraries\lvgl\src\misc\lv_color.h ****      *       3          32     24        3       255
 414:c:\projects\paindrain\arduinolcd\test\pain drain\libraries\lvgl\src\misc\lv_color.h ****      *       4          64     48        3       255
 415:c:\projects\paindrain\arduinolcd\test\pain drain\libraries\lvgl\src\misc\lv_color.h ****      *       5         129     33        1       255
 416:c:\projects\paindrain\arduinolcd\test\pain drain\libraries\lvgl\src\misc\lv_color.h ****      *       6         259      3        0       255
 417:c:\projects\paindrain\arduinolcd\test\pain drain\libraries\lvgl\src\misc\lv_color.h ****      */
 418:c:\projects\paindrain\arduinolcd\test\pain drain\libraries\lvgl\src\misc\lv_color.h **** 
 419:c:\projects\paindrain\arduinolcd\test\pain drain\libraries\lvgl\src\misc\lv_color.h ****     lv_color32_t ret;
 420:c:\projects\paindrain\arduinolcd\test\pain drain\libraries\lvgl\src\misc\lv_color.h ****     LV_COLOR_SET_R32(ret, (LV_COLOR_GET_R(color) * 263 + 7) >> 5);
 421:c:\projects\paindrain\arduinolcd\test\pain drain\libraries\lvgl\src\misc\lv_color.h ****     LV_COLOR_SET_G32(ret, (LV_COLOR_GET_G(color) * 259 + 3) >> 6);
 422:c:\projects\paindrain\arduinolcd\test\pain drain\libraries\lvgl\src\misc\lv_color.h ****     LV_COLOR_SET_B32(ret, (LV_COLOR_GET_B(color) * 263 + 7) >> 5);
 423:c:\projects\paindrain\arduinolcd\test\pain drain\libraries\lvgl\src\misc\lv_color.h ****     LV_COLOR_SET_A32(ret, 0xFF);
 424:c:\projects\paindrain\arduinolcd\test\pain drain\libraries\lvgl\src\misc\lv_color.h ****     return ret.full;
 425:c:\projects\paindrain\arduinolcd\test\pain drain\libraries\lvgl\src\misc\lv_color.h **** #elif LV_COLOR_DEPTH == 32
ARM GAS  C:\Users\haske\AppData\Local\Temp\ccN8jSR9.s 			page 22


 426:c:\projects\paindrain\arduinolcd\test\pain drain\libraries\lvgl\src\misc\lv_color.h ****     return color.full;
 427:c:\projects\paindrain\arduinolcd\test\pain drain\libraries\lvgl\src\misc\lv_color.h **** #endif
 428:c:\projects\paindrain\arduinolcd\test\pain drain\libraries\lvgl\src\misc\lv_color.h **** }
 429:c:\projects\paindrain\arduinolcd\test\pain drain\libraries\lvgl\src\misc\lv_color.h **** 
 430:c:\projects\paindrain\arduinolcd\test\pain drain\libraries\lvgl\src\misc\lv_color.h **** //! @cond Doxygen_Suppress
 431:c:\projects\paindrain\arduinolcd\test\pain drain\libraries\lvgl\src\misc\lv_color.h **** 
 432:c:\projects\paindrain\arduinolcd\test\pain drain\libraries\lvgl\src\misc\lv_color.h **** /**
 433:c:\projects\paindrain\arduinolcd\test\pain drain\libraries\lvgl\src\misc\lv_color.h ****  * Mix two colors with a given ratio.
 434:c:\projects\paindrain\arduinolcd\test\pain drain\libraries\lvgl\src\misc\lv_color.h ****  * @param c1 the first color to mix (usually the foreground)
 435:c:\projects\paindrain\arduinolcd\test\pain drain\libraries\lvgl\src\misc\lv_color.h ****  * @param c2 the second color to mix (usually the background)
 436:c:\projects\paindrain\arduinolcd\test\pain drain\libraries\lvgl\src\misc\lv_color.h ****  * @param mix The ratio of the colors. 0: full `c2`, 255: full `c1`, 127: half `c1` and half`c2`
 437:c:\projects\paindrain\arduinolcd\test\pain drain\libraries\lvgl\src\misc\lv_color.h ****  * @return the mixed color
 438:c:\projects\paindrain\arduinolcd\test\pain drain\libraries\lvgl\src\misc\lv_color.h ****  */
 439:c:\projects\paindrain\arduinolcd\test\pain drain\libraries\lvgl\src\misc\lv_color.h **** LV_ATTRIBUTE_FAST_MEM static inline lv_color_t lv_color_mix(lv_color_t c1, lv_color_t c2, uint8_t m
 440:c:\projects\paindrain\arduinolcd\test\pain drain\libraries\lvgl\src\misc\lv_color.h **** {
 441:c:\projects\paindrain\arduinolcd\test\pain drain\libraries\lvgl\src\misc\lv_color.h ****     lv_color_t ret;
 442:c:\projects\paindrain\arduinolcd\test\pain drain\libraries\lvgl\src\misc\lv_color.h **** 
 443:c:\projects\paindrain\arduinolcd\test\pain drain\libraries\lvgl\src\misc\lv_color.h **** #if LV_COLOR_DEPTH == 16 && LV_COLOR_16_SWAP == 0 && LV_COLOR_MIX_ROUND_OFS == 0
 444:c:\projects\paindrain\arduinolcd\test\pain drain\libraries\lvgl\src\misc\lv_color.h ****     /*Source: https://stackoverflow.com/a/50012418/1999969*/
 445:c:\projects\paindrain\arduinolcd\test\pain drain\libraries\lvgl\src\misc\lv_color.h ****     mix = (uint32_t)((uint32_t)mix + 4) >> 3;
 446:c:\projects\paindrain\arduinolcd\test\pain drain\libraries\lvgl\src\misc\lv_color.h ****     uint32_t bg = (uint32_t)((uint32_t)c2.full | ((uint32_t)c2.full << 16)) &
 447:c:\projects\paindrain\arduinolcd\test\pain drain\libraries\lvgl\src\misc\lv_color.h ****                   0x7E0F81F; /*0b00000111111000001111100000011111*/
 448:c:\projects\paindrain\arduinolcd\test\pain drain\libraries\lvgl\src\misc\lv_color.h ****     uint32_t fg = (uint32_t)((uint32_t)c1.full | ((uint32_t)c1.full << 16)) & 0x7E0F81F;
 449:c:\projects\paindrain\arduinolcd\test\pain drain\libraries\lvgl\src\misc\lv_color.h ****     uint32_t result = ((((fg - bg) * mix) >> 5) + bg) & 0x7E0F81F;
 450:c:\projects\paindrain\arduinolcd\test\pain drain\libraries\lvgl\src\misc\lv_color.h ****     ret.full = (uint16_t)((result >> 16) | result);
 451:c:\projects\paindrain\arduinolcd\test\pain drain\libraries\lvgl\src\misc\lv_color.h **** #elif LV_COLOR_DEPTH != 1
 452:c:\projects\paindrain\arduinolcd\test\pain drain\libraries\lvgl\src\misc\lv_color.h ****     /*LV_COLOR_DEPTH == 8, 16 or 32*/
 453:c:\projects\paindrain\arduinolcd\test\pain drain\libraries\lvgl\src\misc\lv_color.h ****     LV_COLOR_SET_R(ret, LV_UDIV255((uint16_t)LV_COLOR_GET_R(c1) * mix + LV_COLOR_GET_R(c2) *
 454:c:\projects\paindrain\arduinolcd\test\pain drain\libraries\lvgl\src\misc\lv_color.h ****                                    (255 - mix) + LV_COLOR_MIX_ROUND_OFS));
 455:c:\projects\paindrain\arduinolcd\test\pain drain\libraries\lvgl\src\misc\lv_color.h ****     LV_COLOR_SET_G(ret, LV_UDIV255((uint16_t)LV_COLOR_GET_G(c1) * mix + LV_COLOR_GET_G(c2) *
 456:c:\projects\paindrain\arduinolcd\test\pain drain\libraries\lvgl\src\misc\lv_color.h ****                                    (255 - mix) + LV_COLOR_MIX_ROUND_OFS));
 457:c:\projects\paindrain\arduinolcd\test\pain drain\libraries\lvgl\src\misc\lv_color.h ****     LV_COLOR_SET_B(ret, LV_UDIV255((uint16_t)LV_COLOR_GET_B(c1) * mix + LV_COLOR_GET_B(c2) *
 458:c:\projects\paindrain\arduinolcd\test\pain drain\libraries\lvgl\src\misc\lv_color.h ****                                    (255 - mix) + LV_COLOR_MIX_ROUND_OFS));
 459:c:\projects\paindrain\arduinolcd\test\pain drain\libraries\lvgl\src\misc\lv_color.h ****     LV_COLOR_SET_A(ret, 0xFF);
 460:c:\projects\paindrain\arduinolcd\test\pain drain\libraries\lvgl\src\misc\lv_color.h **** #else
 461:c:\projects\paindrain\arduinolcd\test\pain drain\libraries\lvgl\src\misc\lv_color.h ****     /*LV_COLOR_DEPTH == 1*/
 462:c:\projects\paindrain\arduinolcd\test\pain drain\libraries\lvgl\src\misc\lv_color.h ****     ret.full = mix > LV_OPA_50 ? c1.full : c2.full;
 463:c:\projects\paindrain\arduinolcd\test\pain drain\libraries\lvgl\src\misc\lv_color.h **** #endif
 464:c:\projects\paindrain\arduinolcd\test\pain drain\libraries\lvgl\src\misc\lv_color.h **** 
 465:c:\projects\paindrain\arduinolcd\test\pain drain\libraries\lvgl\src\misc\lv_color.h ****     return ret;
 466:c:\projects\paindrain\arduinolcd\test\pain drain\libraries\lvgl\src\misc\lv_color.h **** }
 467:c:\projects\paindrain\arduinolcd\test\pain drain\libraries\lvgl\src\misc\lv_color.h **** 
 468:c:\projects\paindrain\arduinolcd\test\pain drain\libraries\lvgl\src\misc\lv_color.h **** LV_ATTRIBUTE_FAST_MEM static inline void lv_color_premult(lv_color_t c, uint8_t mix, uint16_t * out
 469:c:\projects\paindrain\arduinolcd\test\pain drain\libraries\lvgl\src\misc\lv_color.h **** {
 470:c:\projects\paindrain\arduinolcd\test\pain drain\libraries\lvgl\src\misc\lv_color.h **** #if LV_COLOR_DEPTH != 1
 471:c:\projects\paindrain\arduinolcd\test\pain drain\libraries\lvgl\src\misc\lv_color.h ****     out[0] = (uint16_t)LV_COLOR_GET_R(c) * mix;
 472:c:\projects\paindrain\arduinolcd\test\pain drain\libraries\lvgl\src\misc\lv_color.h ****     out[1] = (uint16_t)LV_COLOR_GET_G(c) * mix;
 473:c:\projects\paindrain\arduinolcd\test\pain drain\libraries\lvgl\src\misc\lv_color.h ****     out[2] = (uint16_t)LV_COLOR_GET_B(c) * mix;
 474:c:\projects\paindrain\arduinolcd\test\pain drain\libraries\lvgl\src\misc\lv_color.h **** #else
 475:c:\projects\paindrain\arduinolcd\test\pain drain\libraries\lvgl\src\misc\lv_color.h ****     (void) mix;
 476:c:\projects\paindrain\arduinolcd\test\pain drain\libraries\lvgl\src\misc\lv_color.h ****     /*Pre-multiplication can't be used with 1 bpp*/
 477:c:\projects\paindrain\arduinolcd\test\pain drain\libraries\lvgl\src\misc\lv_color.h ****     out[0] = LV_COLOR_GET_R(c);
 478:c:\projects\paindrain\arduinolcd\test\pain drain\libraries\lvgl\src\misc\lv_color.h ****     out[1] = LV_COLOR_GET_G(c);
 479:c:\projects\paindrain\arduinolcd\test\pain drain\libraries\lvgl\src\misc\lv_color.h ****     out[2] = LV_COLOR_GET_B(c);
 480:c:\projects\paindrain\arduinolcd\test\pain drain\libraries\lvgl\src\misc\lv_color.h **** #endif
 481:c:\projects\paindrain\arduinolcd\test\pain drain\libraries\lvgl\src\misc\lv_color.h **** 
 482:c:\projects\paindrain\arduinolcd\test\pain drain\libraries\lvgl\src\misc\lv_color.h **** }
ARM GAS  C:\Users\haske\AppData\Local\Temp\ccN8jSR9.s 			page 23


 483:c:\projects\paindrain\arduinolcd\test\pain drain\libraries\lvgl\src\misc\lv_color.h **** 
 484:c:\projects\paindrain\arduinolcd\test\pain drain\libraries\lvgl\src\misc\lv_color.h **** /**
 485:c:\projects\paindrain\arduinolcd\test\pain drain\libraries\lvgl\src\misc\lv_color.h ****  * Mix two colors with a given ratio. It runs faster then `lv_color_mix` but requires some pre comp
 486:c:\projects\paindrain\arduinolcd\test\pain drain\libraries\lvgl\src\misc\lv_color.h ****  * @param premult_c1 The first color. Should be preprocessed with `lv_color_premult(c1)`
 487:c:\projects\paindrain\arduinolcd\test\pain drain\libraries\lvgl\src\misc\lv_color.h ****  * @param c2 The second color. As it is no pre computation required on it
 488:c:\projects\paindrain\arduinolcd\test\pain drain\libraries\lvgl\src\misc\lv_color.h ****  * @param mix The ratio of the colors. 0: full `c1`, 255: full `c2`, 127: half `c1` and half `c2`.
 489:c:\projects\paindrain\arduinolcd\test\pain drain\libraries\lvgl\src\misc\lv_color.h ****  *            Should be modified like mix = `255 - mix`
 490:c:\projects\paindrain\arduinolcd\test\pain drain\libraries\lvgl\src\misc\lv_color.h ****  * @return the mixed color
 491:c:\projects\paindrain\arduinolcd\test\pain drain\libraries\lvgl\src\misc\lv_color.h ****  * @note 255 won't give clearly `c1`.
 492:c:\projects\paindrain\arduinolcd\test\pain drain\libraries\lvgl\src\misc\lv_color.h ****  */
 493:c:\projects\paindrain\arduinolcd\test\pain drain\libraries\lvgl\src\misc\lv_color.h **** LV_ATTRIBUTE_FAST_MEM static inline lv_color_t lv_color_mix_premult(uint16_t * premult_c1, lv_color
 494:c:\projects\paindrain\arduinolcd\test\pain drain\libraries\lvgl\src\misc\lv_color.h **** {
 495:c:\projects\paindrain\arduinolcd\test\pain drain\libraries\lvgl\src\misc\lv_color.h ****     lv_color_t ret;
 496:c:\projects\paindrain\arduinolcd\test\pain drain\libraries\lvgl\src\misc\lv_color.h **** #if LV_COLOR_DEPTH != 1
 497:c:\projects\paindrain\arduinolcd\test\pain drain\libraries\lvgl\src\misc\lv_color.h ****     /*LV_COLOR_DEPTH == 8 or 32*/
 498:c:\projects\paindrain\arduinolcd\test\pain drain\libraries\lvgl\src\misc\lv_color.h ****     LV_COLOR_SET_R(ret, LV_UDIV255(premult_c1[0] + LV_COLOR_GET_R(c2) * mix + LV_COLOR_MIX_ROUND_OF
 499:c:\projects\paindrain\arduinolcd\test\pain drain\libraries\lvgl\src\misc\lv_color.h ****     LV_COLOR_SET_G(ret, LV_UDIV255(premult_c1[1] + LV_COLOR_GET_G(c2) * mix + LV_COLOR_MIX_ROUND_OF
 500:c:\projects\paindrain\arduinolcd\test\pain drain\libraries\lvgl\src\misc\lv_color.h ****     LV_COLOR_SET_B(ret, LV_UDIV255(premult_c1[2] + LV_COLOR_GET_B(c2) * mix + LV_COLOR_MIX_ROUND_OF
 501:c:\projects\paindrain\arduinolcd\test\pain drain\libraries\lvgl\src\misc\lv_color.h ****     LV_COLOR_SET_A(ret, 0xFF);
 502:c:\projects\paindrain\arduinolcd\test\pain drain\libraries\lvgl\src\misc\lv_color.h **** #else
 503:c:\projects\paindrain\arduinolcd\test\pain drain\libraries\lvgl\src\misc\lv_color.h ****     /*LV_COLOR_DEPTH == 1*/
 504:c:\projects\paindrain\arduinolcd\test\pain drain\libraries\lvgl\src\misc\lv_color.h ****     /*Restore color1*/
 505:c:\projects\paindrain\arduinolcd\test\pain drain\libraries\lvgl\src\misc\lv_color.h ****     lv_color_t c1;
 506:c:\projects\paindrain\arduinolcd\test\pain drain\libraries\lvgl\src\misc\lv_color.h ****     LV_COLOR_SET_R(c1, premult_c1[0]);
 507:c:\projects\paindrain\arduinolcd\test\pain drain\libraries\lvgl\src\misc\lv_color.h ****     LV_COLOR_SET_G(c1, premult_c1[1]);
 508:c:\projects\paindrain\arduinolcd\test\pain drain\libraries\lvgl\src\misc\lv_color.h ****     LV_COLOR_SET_B(c1, premult_c1[2]);
 509:c:\projects\paindrain\arduinolcd\test\pain drain\libraries\lvgl\src\misc\lv_color.h ****     ret.full = mix > LV_OPA_50 ? c2.full : c1.full;
 510:c:\projects\paindrain\arduinolcd\test\pain drain\libraries\lvgl\src\misc\lv_color.h **** #endif
 511:c:\projects\paindrain\arduinolcd\test\pain drain\libraries\lvgl\src\misc\lv_color.h **** 
 512:c:\projects\paindrain\arduinolcd\test\pain drain\libraries\lvgl\src\misc\lv_color.h ****     return ret;
 513:c:\projects\paindrain\arduinolcd\test\pain drain\libraries\lvgl\src\misc\lv_color.h **** }
 514:c:\projects\paindrain\arduinolcd\test\pain drain\libraries\lvgl\src\misc\lv_color.h **** 
 515:c:\projects\paindrain\arduinolcd\test\pain drain\libraries\lvgl\src\misc\lv_color.h **** /**
 516:c:\projects\paindrain\arduinolcd\test\pain drain\libraries\lvgl\src\misc\lv_color.h ****  * Mix two colors. Both color can have alpha value.
 517:c:\projects\paindrain\arduinolcd\test\pain drain\libraries\lvgl\src\misc\lv_color.h ****  * @param bg_color background color
 518:c:\projects\paindrain\arduinolcd\test\pain drain\libraries\lvgl\src\misc\lv_color.h ****  * @param bg_opa alpha of the background color
 519:c:\projects\paindrain\arduinolcd\test\pain drain\libraries\lvgl\src\misc\lv_color.h ****  * @param fg_color foreground color
 520:c:\projects\paindrain\arduinolcd\test\pain drain\libraries\lvgl\src\misc\lv_color.h ****  * @param fg_opa alpha of the foreground color
 521:c:\projects\paindrain\arduinolcd\test\pain drain\libraries\lvgl\src\misc\lv_color.h ****  * @param res_color the result color
 522:c:\projects\paindrain\arduinolcd\test\pain drain\libraries\lvgl\src\misc\lv_color.h ****  * @param res_opa the result opacity
 523:c:\projects\paindrain\arduinolcd\test\pain drain\libraries\lvgl\src\misc\lv_color.h ****  */
 524:c:\projects\paindrain\arduinolcd\test\pain drain\libraries\lvgl\src\misc\lv_color.h **** LV_ATTRIBUTE_FAST_MEM static inline void lv_color_mix_with_alpha(lv_color_t bg_color, lv_opa_t bg_o
 525:c:\projects\paindrain\arduinolcd\test\pain drain\libraries\lvgl\src\misc\lv_color.h ****                                                                  lv_color_t fg_color, lv_opa_t fg_o
 526:c:\projects\paindrain\arduinolcd\test\pain drain\libraries\lvgl\src\misc\lv_color.h ****                                                                  lv_color_t * res_color, lv_opa_t *
 527:c:\projects\paindrain\arduinolcd\test\pain drain\libraries\lvgl\src\misc\lv_color.h **** {
 528:c:\projects\paindrain\arduinolcd\test\pain drain\libraries\lvgl\src\misc\lv_color.h ****     /*Pick the foreground if it's fully opaque or the Background is fully transparent*/
 529:c:\projects\paindrain\arduinolcd\test\pain drain\libraries\lvgl\src\misc\lv_color.h ****     if(fg_opa >= LV_OPA_MAX || bg_opa <= LV_OPA_MIN) {
  74              		.loc 2 529 0
  75 0024 FC28     		cmp	r0, #252
  76 0026 01D8     		bhi	.L2
  77 0028 022F     		cmp	r7, #2
  78 002a 02D8     		bhi	.L3
  79              	.L2:
  80              	.LVL11:
 530:c:\projects\paindrain\arduinolcd\test\pain drain\libraries\lvgl\src\misc\lv_color.h ****         res_color->full = fg_color.full;
  81              		.loc 2 530 0
  82 002c 331C     		adds	r3, r6, #0
ARM GAS  C:\Users\haske\AppData\Local\Temp\ccN8jSR9.s 			page 24


  83              	.LVL12:
 531:c:\projects\paindrain\arduinolcd\test\pain drain\libraries\lvgl\src\misc\lv_color.h ****         *res_opa = fg_opa;
  84              		.loc 2 531 0
  85 002e A870     		strb	r0, [r5, #2]
  86 0030 64E0     		b	.L4
  87              	.LVL13:
  88              	.L3:
 532:c:\projects\paindrain\arduinolcd\test\pain drain\libraries\lvgl\src\misc\lv_color.h ****     }
 533:c:\projects\paindrain\arduinolcd\test\pain drain\libraries\lvgl\src\misc\lv_color.h ****     /*Transparent foreground: use the Background*/
 534:c:\projects\paindrain\arduinolcd\test\pain drain\libraries\lvgl\src\misc\lv_color.h ****     else if(fg_opa <= LV_OPA_MIN) {
  89              		.loc 2 534 0
  90 0032 0228     		cmp	r0, #2
  91 0034 01D8     		bhi	.L5
 535:c:\projects\paindrain\arduinolcd\test\pain drain\libraries\lvgl\src\misc\lv_color.h ****         res_color->full = bg_color.full;
 536:c:\projects\paindrain\arduinolcd\test\pain drain\libraries\lvgl\src\misc\lv_color.h ****         *res_opa = bg_opa;
  92              		.loc 2 536 0
  93 0036 AF70     		strb	r7, [r5, #2]
  94 0038 60E0     		b	.L4
  95              	.L5:
 537:c:\projects\paindrain\arduinolcd\test\pain drain\libraries\lvgl\src\misc\lv_color.h ****     }
 538:c:\projects\paindrain\arduinolcd\test\pain drain\libraries\lvgl\src\misc\lv_color.h ****     /*Opaque background: use simple mix*/
 539:c:\projects\paindrain\arduinolcd\test\pain drain\libraries\lvgl\src\misc\lv_color.h ****     else if(bg_opa >= LV_OPA_MAX) {
  96              		.loc 2 539 0
  97 003a FC2F     		cmp	r7, #252
  98 003c 17D9     		bls	.L6
  99              	.LVL14:
 100              	.LBB33:
 101              	.LBB34:
 445:c:\projects\paindrain\arduinolcd\test\pain drain\libraries\lvgl\src\misc\lv_color.h ****     uint32_t bg = (uint32_t)((uint32_t)c2.full | ((uint32_t)c2.full << 16)) &
 102              		.loc 2 445 0
 103 003e 0430     		adds	r0, r0, #4
 104              	.LVL15:
 105 0040 C008     		lsrs	r0, r0, #3
 106              	.LVL16:
 446:c:\projects\paindrain\arduinolcd\test\pain drain\libraries\lvgl\src\misc\lv_color.h ****                   0x7E0F81F; /*0b00000111111000001111100000011111*/
 107              		.loc 2 446 0
 108 0042 9BB2     		uxth	r3, r3
 109 0044 1A04     		lsls	r2, r3, #16
 110 0046 1343     		orrs	r3, r2
 111 0048 1C00     		movs	r4, r3
 112 004a 304A     		ldr	r2, .L13
 113 004c 1440     		ands	r4, r2
 114              	.LVL17:
 448:c:\projects\paindrain\arduinolcd\test\pain drain\libraries\lvgl\src\misc\lv_color.h ****     uint32_t result = ((((fg - bg) * mix) >> 5) + bg) & 0x7E0F81F;
 115              		.loc 2 448 0
 116 004e B6B2     		uxth	r6, r6
 117              	.LVL18:
 118 0050 3104     		lsls	r1, r6, #16
 119              	.LVL19:
 120 0052 3143     		orrs	r1, r6
 121 0054 1140     		ands	r1, r2
 122              	.LVL20:
 449:c:\projects\paindrain\arduinolcd\test\pain drain\libraries\lvgl\src\misc\lv_color.h ****     ret.full = (uint16_t)((result >> 16) | result);
 123              		.loc 2 449 0
 124 0056 091B     		subs	r1, r1, r4
 125              	.LVL21:
 126 0058 FF26     		movs	r6, #255
ARM GAS  C:\Users\haske\AppData\Local\Temp\ccN8jSR9.s 			page 25


 127              	.LVL22:
 128 005a 0300     		movs	r3, r0
 129 005c 3340     		ands	r3, r6
 130 005e 4B43     		muls	r3, r1
 131 0060 5B09     		lsrs	r3, r3, #5
 132 0062 E318     		adds	r3, r4, r3
 133 0064 1A40     		ands	r2, r3
 134              	.LVL23:
 450:c:\projects\paindrain\arduinolcd\test\pain drain\libraries\lvgl\src\misc\lv_color.h **** #elif LV_COLOR_DEPTH != 1
 135              		.loc 2 450 0
 136 0066 130C     		lsrs	r3, r2, #16
 137              	.LVL24:
 138              	.LBE34:
 139              	.LBE33:
 540:c:\projects\paindrain\arduinolcd\test\pain drain\libraries\lvgl\src\misc\lv_color.h ****         *res_color = lv_color_mix(fg_color, bg_color, fg_opa);
 140              		.loc 2 540 0
 141 0068 1343     		orrs	r3, r2
 541:c:\projects\paindrain\arduinolcd\test\pain drain\libraries\lvgl\src\misc\lv_color.h ****         *res_opa = LV_OPA_COVER;
 142              		.loc 2 541 0
 143 006a AE70     		strb	r6, [r5, #2]
 144 006c 46E0     		b	.L4
 145              	.LVL25:
 146              	.L6:
 147              	.LBB35:
 542:c:\projects\paindrain\arduinolcd\test\pain drain\libraries\lvgl\src\misc\lv_color.h ****     }
 543:c:\projects\paindrain\arduinolcd\test\pain drain\libraries\lvgl\src\misc\lv_color.h ****     /*Both colors have alpha. Expensive calculation need to be applied*/
 544:c:\projects\paindrain\arduinolcd\test\pain drain\libraries\lvgl\src\misc\lv_color.h ****     else {
 545:c:\projects\paindrain\arduinolcd\test\pain drain\libraries\lvgl\src\misc\lv_color.h ****         /*Save the parameters and the result. If they will be asked again don't compute again*/
 546:c:\projects\paindrain\arduinolcd\test\pain drain\libraries\lvgl\src\misc\lv_color.h ****         static lv_opa_t fg_opa_save     = 0;
 547:c:\projects\paindrain\arduinolcd\test\pain drain\libraries\lvgl\src\misc\lv_color.h ****         static lv_opa_t bg_opa_save     = 0;
 548:c:\projects\paindrain\arduinolcd\test\pain drain\libraries\lvgl\src\misc\lv_color.h ****         static lv_color_t fg_color_save = _LV_COLOR_ZERO_INITIALIZER;
 549:c:\projects\paindrain\arduinolcd\test\pain drain\libraries\lvgl\src\misc\lv_color.h ****         static lv_color_t bg_color_save = _LV_COLOR_ZERO_INITIALIZER;
 550:c:\projects\paindrain\arduinolcd\test\pain drain\libraries\lvgl\src\misc\lv_color.h ****         static lv_color_t res_color_saved = _LV_COLOR_ZERO_INITIALIZER;
 551:c:\projects\paindrain\arduinolcd\test\pain drain\libraries\lvgl\src\misc\lv_color.h ****         static lv_opa_t res_opa_saved = 0;
 552:c:\projects\paindrain\arduinolcd\test\pain drain\libraries\lvgl\src\misc\lv_color.h **** 
 553:c:\projects\paindrain\arduinolcd\test\pain drain\libraries\lvgl\src\misc\lv_color.h ****         if(fg_opa != fg_opa_save || bg_opa != bg_opa_save || fg_color.full != fg_color_save.full ||
 148              		.loc 2 553 0
 149 006e 284A     		ldr	r2, .L13+4
 150 0070 1278     		ldrb	r2, [r2]
 151 0072 9042     		cmp	r0, r2
 152 0074 0DD1     		bne	.L7
 153 0076 264A     		ldr	r2, .L13+4
 154 0078 5278     		ldrb	r2, [r2, #1]
 155 007a 9742     		cmp	r7, r2
 156 007c 09D1     		bne	.L7
 157              	.LVL26:
 158 007e B2B2     		uxth	r2, r6
 159 0080 2349     		ldr	r1, .L13+4
 160              	.LVL27:
 161 0082 8988     		ldrh	r1, [r1, #4]
 162 0084 8A42     		cmp	r2, r1
 163 0086 04D1     		bne	.L7
 554:c:\projects\paindrain\arduinolcd\test\pain drain\libraries\lvgl\src\misc\lv_color.h ****            bg_color.full != bg_color_save.full) {
 164              		.loc 2 554 0
 165 0088 9AB2     		uxth	r2, r3
 166 008a 2149     		ldr	r1, .L13+4
 167 008c 0989     		ldrh	r1, [r1, #8]
ARM GAS  C:\Users\haske\AppData\Local\Temp\ccN8jSR9.s 			page 26


 553:c:\projects\paindrain\arduinolcd\test\pain drain\libraries\lvgl\src\misc\lv_color.h ****            bg_color.full != bg_color_save.full) {
 168              		.loc 2 553 0
 169 008e 8A42     		cmp	r2, r1
 170 0090 30D0     		beq	.L8
 171              	.L7:
 172              	.LBB36:
 555:c:\projects\paindrain\arduinolcd\test\pain drain\libraries\lvgl\src\misc\lv_color.h ****             fg_opa_save        = fg_opa;
 173              		.loc 2 555 0
 174 0092 1F4A     		ldr	r2, .L13+4
 175 0094 1070     		strb	r0, [r2]
 556:c:\projects\paindrain\arduinolcd\test\pain drain\libraries\lvgl\src\misc\lv_color.h ****             bg_opa_save        = bg_opa;
 176              		.loc 2 556 0
 177 0096 5770     		strb	r7, [r2, #1]
 557:c:\projects\paindrain\arduinolcd\test\pain drain\libraries\lvgl\src\misc\lv_color.h ****             fg_color_save.full = fg_color.full;
 178              		.loc 2 557 0
 179 0098 B6B2     		uxth	r6, r6
 180              	.LVL28:
 181 009a 9680     		strh	r6, [r2, #4]
 558:c:\projects\paindrain\arduinolcd\test\pain drain\libraries\lvgl\src\misc\lv_color.h ****             bg_color_save.full = bg_color.full;
 182              		.loc 2 558 0
 183 009c 9CB2     		uxth	r4, r3
 184 009e 1481     		strh	r4, [r2, #8]
 559:c:\projects\paindrain\arduinolcd\test\pain drain\libraries\lvgl\src\misc\lv_color.h ****             /*Info:
 560:c:\projects\paindrain\arduinolcd\test\pain drain\libraries\lvgl\src\misc\lv_color.h ****              * https://en.wikipedia.org/wiki/Alpha_compositing#Analytical_derivation_of_the_over_op
 561:c:\projects\paindrain\arduinolcd\test\pain drain\libraries\lvgl\src\misc\lv_color.h ****             res_opa_saved = 255 - ((uint16_t)((uint16_t)(255 - fg_opa) * (255 - bg_opa)) >> 8);
 185              		.loc 2 561 0
 186 00a0 80B2     		uxth	r0, r0
 187              	.LVL29:
 188 00a2 FF21     		movs	r1, #255
 189 00a4 091A     		subs	r1, r1, r0
 190 00a6 89B2     		uxth	r1, r1
 191 00a8 FF23     		movs	r3, #255
 192 00aa DB1B     		subs	r3, r3, r7
 193 00ac 5943     		muls	r1, r3
 194 00ae 89B2     		uxth	r1, r1
 195 00b0 090A     		lsrs	r1, r1, #8
 196 00b2 C943     		mvns	r1, r1
 197 00b4 C9B2     		uxtb	r1, r1
 198 00b6 9172     		strb	r1, [r2, #10]
 562:c:\projects\paindrain\arduinolcd\test\pain drain\libraries\lvgl\src\misc\lv_color.h ****             LV_ASSERT(res_opa_saved != 0);
 199              		.loc 2 562 0
 200 00b8 0029     		cmp	r1, #0
 201 00ba 00D1     		bne	.L9
 202              	.L10:
 203 00bc FEE7     		b	.L10
 204              	.L9:
 563:c:\projects\paindrain\arduinolcd\test\pain drain\libraries\lvgl\src\misc\lv_color.h ****             lv_opa_t ratio = (uint16_t)((uint16_t)fg_opa * 255) / res_opa_saved;
 205              		.loc 2 563 0
 206 00be 0302     		lsls	r3, r0, #8
 207 00c0 181A     		subs	r0, r3, r0
 208 00c2 80B2     		uxth	r0, r0
 209 00c4 FFF7FEFF 		bl	__aeabi_idiv
 210              	.LVL30:
 211              	.LBB37:
 212              	.LBB38:
 445:c:\projects\paindrain\arduinolcd\test\pain drain\libraries\lvgl\src\misc\lv_color.h ****     uint32_t bg = (uint32_t)((uint32_t)c2.full | ((uint32_t)c2.full << 16)) &
 213              		.loc 2 445 0
ARM GAS  C:\Users\haske\AppData\Local\Temp\ccN8jSR9.s 			page 27


 214 00c8 FF27     		movs	r7, #255
 215              	.LVL31:
 216 00ca 0300     		movs	r3, r0
 217 00cc 3B40     		ands	r3, r7
 218 00ce 0433     		adds	r3, r3, #4
 219 00d0 DA08     		lsrs	r2, r3, #3
 220              	.LVL32:
 446:c:\projects\paindrain\arduinolcd\test\pain drain\libraries\lvgl\src\misc\lv_color.h ****                   0x7E0F81F; /*0b00000111111000001111100000011111*/
 221              		.loc 2 446 0
 222 00d2 2304     		lsls	r3, r4, #16
 223 00d4 2343     		orrs	r3, r4
 224 00d6 0D48     		ldr	r0, .L13
 225              	.LVL33:
 226 00d8 0340     		ands	r3, r0
 227              	.LVL34:
 448:c:\projects\paindrain\arduinolcd\test\pain drain\libraries\lvgl\src\misc\lv_color.h ****     uint32_t result = ((((fg - bg) * mix) >> 5) + bg) & 0x7E0F81F;
 228              		.loc 2 448 0
 229 00da 3104     		lsls	r1, r6, #16
 230 00dc 3143     		orrs	r1, r6
 231 00de 0140     		ands	r1, r0
 232              	.LVL35:
 449:c:\projects\paindrain\arduinolcd\test\pain drain\libraries\lvgl\src\misc\lv_color.h ****     ret.full = (uint16_t)((result >> 16) | result);
 233              		.loc 2 449 0
 234 00e0 C91A     		subs	r1, r1, r3
 235              	.LVL36:
 236 00e2 3A40     		ands	r2, r7
 237              	.LVL37:
 238 00e4 4A43     		muls	r2, r1
 239 00e6 5209     		lsrs	r2, r2, #5
 240 00e8 9B18     		adds	r3, r3, r2
 241              	.LVL38:
 242 00ea 0340     		ands	r3, r0
 243              	.LVL39:
 450:c:\projects\paindrain\arduinolcd\test\pain drain\libraries\lvgl\src\misc\lv_color.h **** #elif LV_COLOR_DEPTH != 1
 244              		.loc 2 450 0
 245 00ec 180C     		lsrs	r0, r3, #16
 246              	.LVL40:
 247 00ee 0343     		orrs	r3, r0
 248              	.LVL41:
 249              	.LBE38:
 250              	.LBE37:
 564:c:\projects\paindrain\arduinolcd\test\pain drain\libraries\lvgl\src\misc\lv_color.h ****             res_color_saved = lv_color_mix(fg_color, bg_color, ratio);
 251              		.loc 2 564 0
 252 00f0 074A     		ldr	r2, .L13+4
 253 00f2 9381     		strh	r3, [r2, #12]
 254              	.LVL42:
 255              	.L8:
 256              	.LBE36:
 565:c:\projects\paindrain\arduinolcd\test\pain drain\libraries\lvgl\src\misc\lv_color.h **** 
 566:c:\projects\paindrain\arduinolcd\test\pain drain\libraries\lvgl\src\misc\lv_color.h ****         }
 567:c:\projects\paindrain\arduinolcd\test\pain drain\libraries\lvgl\src\misc\lv_color.h **** 
 568:c:\projects\paindrain\arduinolcd\test\pain drain\libraries\lvgl\src\misc\lv_color.h ****         res_color->full = res_color_saved.full;
 257              		.loc 2 568 0
 258 00f4 064A     		ldr	r2, .L13+4
 259 00f6 9389     		ldrh	r3, [r2, #12]
 569:c:\projects\paindrain\arduinolcd\test\pain drain\libraries\lvgl\src\misc\lv_color.h ****         *res_opa = res_opa_saved;
 260              		.loc 2 569 0
ARM GAS  C:\Users\haske\AppData\Local\Temp\ccN8jSR9.s 			page 28


 261 00f8 927A     		ldrb	r2, [r2, #10]
 262 00fa AA70     		strb	r2, [r5, #2]
 263              	.L4:
 264              	.LVL43:
 265              	.LBE35:
 266              	.LBE32:
 267              	.LBE31:
 700:..\..\..\arduinoLCD\test\Pain Drain\libraries\lvgl\src\hal/lv_hal_disp.c ****     lv_color_mix_with_alpha(bg_color, bg_opa, color, opa, &res_color, &buf_px[2]);
 701:..\..\..\arduinoLCD\test\Pain Drain\libraries\lvgl\src\hal/lv_hal_disp.c ****     if(buf_px[2] <= LV_OPA_MIN) return;
 268              		.loc 1 701 0
 269 00fc AA78     		ldrb	r2, [r5, #2]
 270 00fe 022A     		cmp	r2, #2
 271 0100 03D9     		bls	.L1
 272              	.LVL44:
 702:..\..\..\arduinoLCD\test\Pain Drain\libraries\lvgl\src\hal/lv_hal_disp.c ****     buf_px[0] = res_color.full & 0xff;
 273              		.loc 1 702 0
 274 0102 9BB2     		uxth	r3, r3
 275              	.LVL45:
 276 0104 2B70     		strb	r3, [r5]
 703:..\..\..\arduinoLCD\test\Pain Drain\libraries\lvgl\src\hal/lv_hal_disp.c ****     buf_px[1] = res_color.full >> 8;
 277              		.loc 1 703 0
 278 0106 1B0A     		lsrs	r3, r3, #8
 279 0108 6B70     		strb	r3, [r5, #1]
 280              	.L1:
 704:..\..\..\arduinoLCD\test\Pain Drain\libraries\lvgl\src\hal/lv_hal_disp.c **** #elif LV_COLOR_DEPTH == 32
 705:..\..\..\arduinoLCD\test\Pain Drain\libraries\lvgl\src\hal/lv_hal_disp.c ****     bg_color = *((lv_color_t *)buf_px);
 706:..\..\..\arduinoLCD\test\Pain Drain\libraries\lvgl\src\hal/lv_hal_disp.c ****     lv_color_mix_with_alpha(bg_color, bg_opa, color, opa, &res_color, &buf_px[3]);
 707:..\..\..\arduinoLCD\test\Pain Drain\libraries\lvgl\src\hal/lv_hal_disp.c ****     if(buf_px[3] <= LV_OPA_MIN) return;
 708:..\..\..\arduinoLCD\test\Pain Drain\libraries\lvgl\src\hal/lv_hal_disp.c ****     buf_px[0] = res_color.ch.blue;
 709:..\..\..\arduinoLCD\test\Pain Drain\libraries\lvgl\src\hal/lv_hal_disp.c ****     buf_px[1] = res_color.ch.green;
 710:..\..\..\arduinoLCD\test\Pain Drain\libraries\lvgl\src\hal/lv_hal_disp.c ****     buf_px[2] = res_color.ch.red;
 711:..\..\..\arduinoLCD\test\Pain Drain\libraries\lvgl\src\hal/lv_hal_disp.c **** #endif
 712:..\..\..\arduinoLCD\test\Pain Drain\libraries\lvgl\src\hal/lv_hal_disp.c **** 
 713:..\..\..\arduinoLCD\test\Pain Drain\libraries\lvgl\src\hal/lv_hal_disp.c **** }
 281              		.loc 1 713 0
 282              		@ sp needed
 283              	.LVL46:
 284              	.LVL47:
 285 010a F8BD     		pop	{r3, r4, r5, r6, r7, pc}
 286              	.L14:
 287              		.align	2
 288              	.L13:
 289 010c 1FF8E007 		.word	132184095
 290 0110 00000000 		.word	.LANCHOR0
 291              		.cfi_endproc
 292              	.LFE187:
 293              		.size	set_px_true_color_alpha, .-set_px_true_color_alpha
 294              		.section	.text.invalidate_layout_cb,"ax",%progbits
 295              		.align	2
 296              		.code	16
 297              		.thumb_func
 298              		.type	invalidate_layout_cb, %function
 299              	invalidate_layout_cb:
 300              	.LFB181:
 606:..\..\..\arduinoLCD\test\Pain Drain\libraries\lvgl\src\hal/lv_hal_disp.c ****     LV_UNUSED(user_data);
 301              		.loc 1 606 0
 302              		.cfi_startproc
ARM GAS  C:\Users\haske\AppData\Local\Temp\ccN8jSR9.s 			page 29


 303              		@ args = 0, pretend = 0, frame = 0
 304              		@ frame_needed = 0, uses_anonymous_args = 0
 305              	.LVL48:
 306 0000 10B5     		push	{r4, lr}
 307              		.cfi_def_cfa_offset 8
 308              		.cfi_offset 4, -8
 309              		.cfi_offset 14, -4
 608:..\..\..\arduinoLCD\test\Pain Drain\libraries\lvgl\src\hal/lv_hal_disp.c ****     return LV_OBJ_TREE_WALK_NEXT;
 310              		.loc 1 608 0
 311 0002 FFF7FEFF 		bl	lv_obj_mark_layout_as_dirty
 312              	.LVL49:
 610:..\..\..\arduinoLCD\test\Pain Drain\libraries\lvgl\src\hal/lv_hal_disp.c **** 
 313              		.loc 1 610 0
 314 0006 0020     		movs	r0, #0
 315              		@ sp needed
 316 0008 10BD     		pop	{r4, pc}
 317              		.cfi_endproc
 318              	.LFE181:
 319              		.size	invalidate_layout_cb, .-invalidate_layout_cb
 320 000a C046     		.section	.text.set_px_alpha_generic,"ax",%progbits
 321              		.align	2
 322              		.code	16
 323              		.thumb_func
 324              		.type	set_px_alpha_generic, %function
 325              	set_px_alpha_generic:
 326              	.LFB186:
 669:..\..\..\arduinoLCD\test\Pain Drain\libraries\lvgl\src\hal/lv_hal_disp.c ****     d->header.always_zero = 0;
 327              		.loc 1 669 0
 328              		.cfi_startproc
 329              		@ args = 4, pretend = 0, frame = 8
 330              		@ frame_needed = 0, uses_anonymous_args = 0
 331              	.LVL50:
 332 0000 F0B5     		push	{r4, r5, r6, r7, lr}
 333              		.cfi_def_cfa_offset 20
 334              		.cfi_offset 4, -20
 335              		.cfi_offset 5, -16
 336              		.cfi_offset 6, -12
 337              		.cfi_offset 7, -8
 338              		.cfi_offset 14, -4
 339 0002 83B0     		sub	sp, sp, #12
 340              		.cfi_def_cfa_offset 32
 341 0004 0700     		movs	r7, r0
 342 0006 0191     		str	r1, [sp, #4]
 343 0008 1600     		movs	r6, r2
 344 000a 08AA     		add	r2, sp, #32
 345              	.LVL51:
 346 000c 1578     		ldrb	r5, [r2]
 670:..\..\..\arduinoLCD\test\Pain Drain\libraries\lvgl\src\hal/lv_hal_disp.c ****     d->header.h = 1;    /*Doesn't matter*/
 347              		.loc 1 670 0
 348 000e 0278     		ldrb	r2, [r0]
 349              	.LVL52:
 350 0010 1F21     		movs	r1, #31
 351              	.LVL53:
 352 0012 0A40     		ands	r2, r1
 353 0014 0270     		strb	r2, [r0]
 671:..\..\..\arduinoLCD\test\Pain Drain\libraries\lvgl\src\hal/lv_hal_disp.c **** 
 354              		.loc 1 671 0
ARM GAS  C:\Users\haske\AppData\Local\Temp\ccN8jSR9.s 			page 30


 355 0016 4288     		ldrh	r2, [r0, #2]
 356 0018 0A40     		ands	r2, r1
 357 001a 2021     		movs	r1, #32
 358 001c 0A43     		orrs	r2, r1
 359 001e 4280     		strh	r2, [r0, #2]
 360              	.LBB44:
 361              	.LBB45:
 362              	.LBB46:
 363              	.LBB47:
 420:c:\projects\paindrain\arduinolcd\test\pain drain\libraries\lvgl\src\misc\lv_color.h ****     LV_COLOR_SET_G32(ret, (LV_COLOR_GET_G(color) * 259 + 3) >> 6);
 364              		.loc 2 420 0
 365 0020 1A04     		lsls	r2, r3, #16
 366 0022 D10E     		lsrs	r1, r2, #27
 367 0024 4A01     		lsls	r2, r1, #5
 368 0026 5218     		adds	r2, r2, r1
 369 0028 D200     		lsls	r2, r2, #3
 370 002a 521A     		subs	r2, r2, r1
 371 002c 0732     		adds	r2, r2, #7
 372 002e 5211     		asrs	r2, r2, #5
 373 0030 D2B2     		uxtb	r2, r2
 421:c:\projects\paindrain\arduinolcd\test\pain drain\libraries\lvgl\src\misc\lv_color.h ****     LV_COLOR_SET_B32(ret, (LV_COLOR_GET_B(color) * 263 + 7) >> 5);
 374              		.loc 2 421 0
 375 0032 5905     		lsls	r1, r3, #21
 376 0034 890E     		lsrs	r1, r1, #26
 377 0036 C801     		lsls	r0, r1, #7
 378              	.LVL54:
 379 0038 4018     		adds	r0, r0, r1
 380 003a 4000     		lsls	r0, r0, #1
 381 003c 4018     		adds	r0, r0, r1
 382 003e 0330     		adds	r0, r0, #3
 383 0040 8011     		asrs	r0, r0, #6
 384 0042 C0B2     		uxtb	r0, r0
 385 0044 0002     		lsls	r0, r0, #8
 386 0046 1204     		lsls	r2, r2, #16
 422:c:\projects\paindrain\arduinolcd\test\pain drain\libraries\lvgl\src\misc\lv_color.h ****     LV_COLOR_SET_A32(ret, 0xFF);
 387              		.loc 2 422 0
 388 0048 DB06     		lsls	r3, r3, #27
 389              	.LVL55:
 390 004a DC0E     		lsrs	r4, r3, #27
 391 004c 6101     		lsls	r1, r4, #5
 392 004e 0B19     		adds	r3, r1, r4
 393 0050 D900     		lsls	r1, r3, #3
 394 0052 0B1B     		subs	r3, r1, r4
 395 0054 0733     		adds	r3, r3, #7
 396 0056 5B11     		asrs	r3, r3, #5
 397 0058 DBB2     		uxtb	r3, r3
 398 005a 0243     		orrs	r2, r0
 399 005c 1A43     		orrs	r2, r3
 400              	.LVL56:
 423:c:\projects\paindrain\arduinolcd\test\pain drain\libraries\lvgl\src\misc\lv_color.h ****     return ret.full;
 401              		.loc 2 423 0
 402 005e FF23     		movs	r3, #255
 403 0060 1B06     		lsls	r3, r3, #24
 404              	.LVL57:
 405 0062 1A43     		orrs	r2, r3
 406              	.LVL58:
 407              	.LBE47:
ARM GAS  C:\Users\haske\AppData\Local\Temp\ccN8jSR9.s 			page 31


 408              	.LBE46:
 570:c:\projects\paindrain\arduinolcd\test\pain drain\libraries\lvgl\src\misc\lv_color.h ****     }
 571:c:\projects\paindrain\arduinolcd\test\pain drain\libraries\lvgl\src\misc\lv_color.h **** }
 572:c:\projects\paindrain\arduinolcd\test\pain drain\libraries\lvgl\src\misc\lv_color.h **** 
 573:c:\projects\paindrain\arduinolcd\test\pain drain\libraries\lvgl\src\misc\lv_color.h **** //! @endcond
 574:c:\projects\paindrain\arduinolcd\test\pain drain\libraries\lvgl\src\misc\lv_color.h **** 
 575:c:\projects\paindrain\arduinolcd\test\pain drain\libraries\lvgl\src\misc\lv_color.h **** /**
 576:c:\projects\paindrain\arduinolcd\test\pain drain\libraries\lvgl\src\misc\lv_color.h ****  * Get the brightness of a color
 577:c:\projects\paindrain\arduinolcd\test\pain drain\libraries\lvgl\src\misc\lv_color.h ****  * @param color a color
 578:c:\projects\paindrain\arduinolcd\test\pain drain\libraries\lvgl\src\misc\lv_color.h ****  * @return the brightness [0..255]
 579:c:\projects\paindrain\arduinolcd\test\pain drain\libraries\lvgl\src\misc\lv_color.h ****  */
 580:c:\projects\paindrain\arduinolcd\test\pain drain\libraries\lvgl\src\misc\lv_color.h **** static inline uint8_t lv_color_brightness(lv_color_t color)
 581:c:\projects\paindrain\arduinolcd\test\pain drain\libraries\lvgl\src\misc\lv_color.h **** {
 582:c:\projects\paindrain\arduinolcd\test\pain drain\libraries\lvgl\src\misc\lv_color.h ****     lv_color32_t c32;
 583:c:\projects\paindrain\arduinolcd\test\pain drain\libraries\lvgl\src\misc\lv_color.h ****     c32.full        = lv_color_to32(color);
 584:c:\projects\paindrain\arduinolcd\test\pain drain\libraries\lvgl\src\misc\lv_color.h ****     uint16_t bright = (uint16_t)(3u * LV_COLOR_GET_R32(c32) + LV_COLOR_GET_B32(c32) + 4u * LV_COLOR
 409              		.loc 2 584 0
 410 0064 1402     		lsls	r4, r2, #8
 411 0066 240E     		lsrs	r4, r4, #24
 412 0068 1304     		lsls	r3, r2, #16
 413 006a 1B0E     		lsrs	r3, r3, #24
 414 006c 6100     		lsls	r1, r4, #1
 415 006e 6418     		adds	r4, r4, r1
 416 0070 9B00     		lsls	r3, r3, #2
 417 0072 E418     		adds	r4, r4, r3
 418 0074 A4B2     		uxth	r4, r4
 419 0076 D2B2     		uxtb	r2, r2
 420              	.LVL59:
 421 0078 A218     		adds	r2, r4, r2
 422 007a 94B2     		uxth	r4, r2
 423              	.LVL60:
 585:c:\projects\paindrain\arduinolcd\test\pain drain\libraries\lvgl\src\misc\lv_color.h ****     return (uint8_t)(bright >> 3);
 424              		.loc 2 585 0
 425 007c E208     		lsrs	r2, r4, #3
 426 007e D4B2     		uxtb	r4, r2
 427              	.LVL61:
 428              	.LBE45:
 429              	.LBE44:
 674:..\..\..\arduinoLCD\test\Pain Drain\libraries\lvgl\src\hal/lv_hal_disp.c ****         uint8_t bg = lv_img_buf_get_px_alpha(d, x, y);
 430              		.loc 1 674 0
 431 0080 FC2D     		cmp	r5, #252
 432 0082 0BD8     		bhi	.L17
 433              	.LBB48:
 675:..\..\..\arduinoLCD\test\Pain Drain\libraries\lvgl\src\hal/lv_hal_disp.c ****         br = (uint16_t)((uint16_t)br * opa + (bg * (255 - opa))) >> 8;
 434              		.loc 1 675 0
 435 0084 3200     		movs	r2, r6
 436 0086 0199     		ldr	r1, [sp, #4]
 437 0088 3800     		movs	r0, r7
 438 008a FFF7FEFF 		bl	lv_img_buf_get_px_alpha
 439              	.LVL62:
 676:..\..\..\arduinoLCD\test\Pain Drain\libraries\lvgl\src\hal/lv_hal_disp.c ****     }
 440              		.loc 1 676 0
 441 008e FF23     		movs	r3, #255
 442 0090 5B1B     		subs	r3, r3, r5
 443 0092 6C43     		muls	r4, r5
 444 0094 5843     		muls	r0, r3
 445              	.LVL63:
ARM GAS  C:\Users\haske\AppData\Local\Temp\ccN8jSR9.s 			page 32


 446 0096 2418     		adds	r4, r4, r0
 447 0098 A4B2     		uxth	r4, r4
 448 009a 240A     		lsrs	r4, r4, #8
 449              	.LVL64:
 450              	.L17:
 451              	.LBE48:
 679:..\..\..\arduinoLCD\test\Pain Drain\libraries\lvgl\src\hal/lv_hal_disp.c **** }
 452              		.loc 1 679 0
 453 009c 2300     		movs	r3, r4
 454 009e 3200     		movs	r2, r6
 455 00a0 0199     		ldr	r1, [sp, #4]
 456 00a2 3800     		movs	r0, r7
 457 00a4 FFF7FEFF 		bl	lv_img_buf_set_px_alpha
 458              	.LVL65:
 680:..\..\..\arduinoLCD\test\Pain Drain\libraries\lvgl\src\hal/lv_hal_disp.c **** 
 459              		.loc 1 680 0
 460 00a8 03B0     		add	sp, sp, #12
 461              		@ sp needed
 462              	.LVL66:
 463              	.LVL67:
 464 00aa F0BD     		pop	{r4, r5, r6, r7, pc}
 465              		.cfi_endproc
 466              	.LFE186:
 467              		.size	set_px_alpha_generic, .-set_px_alpha_generic
 468              		.section	.text.set_px_cb_alpha8,"ax",%progbits
 469              		.align	2
 470              		.code	16
 471              		.thumb_func
 472              		.type	set_px_cb_alpha8, %function
 473              	set_px_cb_alpha8:
 474              	.LFB185:
 656:..\..\..\arduinoLCD\test\Pain Drain\libraries\lvgl\src\hal/lv_hal_disp.c ****     (void) disp_drv; /*Unused*/
 475              		.loc 1 656 0
 476              		.cfi_startproc
 477              		@ args = 12, pretend = 0, frame = 24
 478              		@ frame_needed = 0, uses_anonymous_args = 0
 479              	.LVL68:
 480 0000 F0B5     		push	{r4, r5, r6, r7, lr}
 481              		.cfi_def_cfa_offset 20
 482              		.cfi_offset 4, -20
 483              		.cfi_offset 5, -16
 484              		.cfi_offset 6, -12
 485              		.cfi_offset 7, -8
 486              		.cfi_offset 14, -4
 487 0002 89B0     		sub	sp, sp, #36
 488              		.cfi_def_cfa_offset 56
 489 0004 0393     		str	r3, [sp, #12]
 490 0006 0EAB     		add	r3, sp, #56
 491              	.LVL69:
 492 0008 0026     		movs	r6, #0
 493 000a 9E5F     		ldrsh	r6, [r3, r6]
 494              	.LVL70:
 495 000c 0FAB     		add	r3, sp, #60
 496 000e 1B88     		ldrh	r3, [r3]
 497              	.LVL71:
 498 0010 10A8     		add	r0, sp, #64
 499              	.LVL72:
ARM GAS  C:\Users\haske\AppData\Local\Temp\ccN8jSR9.s 			page 33


 500 0012 0778     		ldrb	r7, [r0]
 659:..\..\..\arduinoLCD\test\Pain Drain\libraries\lvgl\src\hal/lv_hal_disp.c ****     lv_img_dsc_t d;
 501              		.loc 1 659 0
 502 0014 022F     		cmp	r7, #2
 503 0016 13D9     		bls	.L18
 661:..\..\..\arduinoLCD\test\Pain Drain\libraries\lvgl\src\hal/lv_hal_disp.c ****     d.header.w = buf_w;
 504              		.loc 1 661 0
 505 0018 05A8     		add	r0, sp, #20
 506              	.LVL73:
 507 001a 8160     		str	r1, [r0, #8]
 662:..\..\..\arduinoLCD\test\Pain Drain\libraries\lvgl\src\hal/lv_hal_disp.c ****     d.header.cf = LV_IMG_CF_ALPHA_8BIT;
 508              		.loc 1 662 0
 509 001c 5405     		lsls	r4, r2, #21
 510 001e E50A     		lsrs	r5, r4, #11
 511 0020 084C     		ldr	r4, .L21
 512 0022 059A     		ldr	r2, [sp, #20]
 513              	.LVL74:
 514 0024 1440     		ands	r4, r2
 515 0026 2C43     		orrs	r4, r5
 516 0028 0594     		str	r4, [sp, #20]
 663:..\..\..\arduinoLCD\test\Pain Drain\libraries\lvgl\src\hal/lv_hal_disp.c **** 
 517              		.loc 1 663 0
 518 002a E4B2     		uxtb	r4, r4
 519 002c 1F22     		movs	r2, #31
 520 002e 9443     		bics	r4, r2
 521 0030 0E22     		movs	r2, #14
 522 0032 1443     		orrs	r4, r2
 523 0034 0470     		strb	r4, [r0]
 665:..\..\..\arduinoLCD\test\Pain Drain\libraries\lvgl\src\hal/lv_hal_disp.c **** }
 524              		.loc 1 665 0
 525 0036 0097     		str	r7, [sp]
 526 0038 3200     		movs	r2, r6
 527 003a 0399     		ldr	r1, [sp, #12]
 528              	.LVL75:
 529 003c FFF7FEFF 		bl	set_px_alpha_generic
 530              	.LVL76:
 531              	.L18:
 666:..\..\..\arduinoLCD\test\Pain Drain\libraries\lvgl\src\hal/lv_hal_disp.c **** 
 532              		.loc 1 666 0
 533 0040 09B0     		add	sp, sp, #36
 534              		@ sp needed
 535 0042 F0BD     		pop	{r4, r5, r6, r7, pc}
 536              	.L22:
 537              		.align	2
 538              	.L21:
 539 0044 FF03E0FF 		.word	-2096129
 540              		.cfi_endproc
 541              	.LFE185:
 542              		.size	set_px_cb_alpha8, .-set_px_cb_alpha8
 543              		.section	.text.set_px_cb_alpha4,"ax",%progbits
 544              		.align	2
 545              		.code	16
 546              		.thumb_func
 547              		.type	set_px_cb_alpha4, %function
 548              	set_px_cb_alpha4:
 549              	.LFB184:
 642:..\..\..\arduinoLCD\test\Pain Drain\libraries\lvgl\src\hal/lv_hal_disp.c ****     (void) disp_drv; /*Unused*/
ARM GAS  C:\Users\haske\AppData\Local\Temp\ccN8jSR9.s 			page 34


 550              		.loc 1 642 0
 551              		.cfi_startproc
 552              		@ args = 12, pretend = 0, frame = 24
 553              		@ frame_needed = 0, uses_anonymous_args = 0
 554              	.LVL77:
 555 0000 F0B5     		push	{r4, r5, r6, r7, lr}
 556              		.cfi_def_cfa_offset 20
 557              		.cfi_offset 4, -20
 558              		.cfi_offset 5, -16
 559              		.cfi_offset 6, -12
 560              		.cfi_offset 7, -8
 561              		.cfi_offset 14, -4
 562 0002 89B0     		sub	sp, sp, #36
 563              		.cfi_def_cfa_offset 56
 564 0004 0393     		str	r3, [sp, #12]
 565 0006 0EAB     		add	r3, sp, #56
 566              	.LVL78:
 567 0008 0026     		movs	r6, #0
 568 000a 9E5F     		ldrsh	r6, [r3, r6]
 569              	.LVL79:
 570 000c 0FAB     		add	r3, sp, #60
 571 000e 1B88     		ldrh	r3, [r3]
 572              	.LVL80:
 573 0010 10A8     		add	r0, sp, #64
 574              	.LVL81:
 575 0012 0778     		ldrb	r7, [r0]
 645:..\..\..\arduinoLCD\test\Pain Drain\libraries\lvgl\src\hal/lv_hal_disp.c ****     lv_img_dsc_t d;
 576              		.loc 1 645 0
 577 0014 022F     		cmp	r7, #2
 578 0016 13D9     		bls	.L23
 647:..\..\..\arduinoLCD\test\Pain Drain\libraries\lvgl\src\hal/lv_hal_disp.c ****     d.header.w = buf_w;
 579              		.loc 1 647 0
 580 0018 05A8     		add	r0, sp, #20
 581              	.LVL82:
 582 001a 8160     		str	r1, [r0, #8]
 648:..\..\..\arduinoLCD\test\Pain Drain\libraries\lvgl\src\hal/lv_hal_disp.c ****     d.header.cf = LV_IMG_CF_ALPHA_4BIT;
 583              		.loc 1 648 0
 584 001c 5405     		lsls	r4, r2, #21
 585 001e E50A     		lsrs	r5, r4, #11
 586 0020 084C     		ldr	r4, .L26
 587 0022 059A     		ldr	r2, [sp, #20]
 588              	.LVL83:
 589 0024 1440     		ands	r4, r2
 590 0026 2C43     		orrs	r4, r5
 591 0028 0594     		str	r4, [sp, #20]
 649:..\..\..\arduinoLCD\test\Pain Drain\libraries\lvgl\src\hal/lv_hal_disp.c **** 
 592              		.loc 1 649 0
 593 002a E4B2     		uxtb	r4, r4
 594 002c 1F22     		movs	r2, #31
 595 002e 9443     		bics	r4, r2
 596 0030 0D22     		movs	r2, #13
 597 0032 1443     		orrs	r4, r2
 598 0034 0470     		strb	r4, [r0]
 651:..\..\..\arduinoLCD\test\Pain Drain\libraries\lvgl\src\hal/lv_hal_disp.c **** }
 599              		.loc 1 651 0
 600 0036 0097     		str	r7, [sp]
 601 0038 3200     		movs	r2, r6
ARM GAS  C:\Users\haske\AppData\Local\Temp\ccN8jSR9.s 			page 35


 602 003a 0399     		ldr	r1, [sp, #12]
 603              	.LVL84:
 604 003c FFF7FEFF 		bl	set_px_alpha_generic
 605              	.LVL85:
 606              	.L23:
 652:..\..\..\arduinoLCD\test\Pain Drain\libraries\lvgl\src\hal/lv_hal_disp.c **** 
 607              		.loc 1 652 0
 608 0040 09B0     		add	sp, sp, #36
 609              		@ sp needed
 610 0042 F0BD     		pop	{r4, r5, r6, r7, pc}
 611              	.L27:
 612              		.align	2
 613              	.L26:
 614 0044 FF03E0FF 		.word	-2096129
 615              		.cfi_endproc
 616              	.LFE184:
 617              		.size	set_px_cb_alpha4, .-set_px_cb_alpha4
 618              		.section	.text.set_px_cb_alpha2,"ax",%progbits
 619              		.align	2
 620              		.code	16
 621              		.thumb_func
 622              		.type	set_px_cb_alpha2, %function
 623              	set_px_cb_alpha2:
 624              	.LFB183:
 628:..\..\..\arduinoLCD\test\Pain Drain\libraries\lvgl\src\hal/lv_hal_disp.c ****     (void) disp_drv; /*Unused*/
 625              		.loc 1 628 0
 626              		.cfi_startproc
 627              		@ args = 12, pretend = 0, frame = 24
 628              		@ frame_needed = 0, uses_anonymous_args = 0
 629              	.LVL86:
 630 0000 F0B5     		push	{r4, r5, r6, r7, lr}
 631              		.cfi_def_cfa_offset 20
 632              		.cfi_offset 4, -20
 633              		.cfi_offset 5, -16
 634              		.cfi_offset 6, -12
 635              		.cfi_offset 7, -8
 636              		.cfi_offset 14, -4
 637 0002 89B0     		sub	sp, sp, #36
 638              		.cfi_def_cfa_offset 56
 639 0004 0393     		str	r3, [sp, #12]
 640 0006 0EAB     		add	r3, sp, #56
 641              	.LVL87:
 642 0008 0026     		movs	r6, #0
 643 000a 9E5F     		ldrsh	r6, [r3, r6]
 644              	.LVL88:
 645 000c 0FAB     		add	r3, sp, #60
 646 000e 1B88     		ldrh	r3, [r3]
 647              	.LVL89:
 648 0010 10A8     		add	r0, sp, #64
 649              	.LVL90:
 650 0012 0778     		ldrb	r7, [r0]
 631:..\..\..\arduinoLCD\test\Pain Drain\libraries\lvgl\src\hal/lv_hal_disp.c ****     lv_img_dsc_t d;
 651              		.loc 1 631 0
 652 0014 022F     		cmp	r7, #2
 653 0016 13D9     		bls	.L28
 633:..\..\..\arduinoLCD\test\Pain Drain\libraries\lvgl\src\hal/lv_hal_disp.c ****     d.header.w = buf_w;
 654              		.loc 1 633 0
ARM GAS  C:\Users\haske\AppData\Local\Temp\ccN8jSR9.s 			page 36


 655 0018 05A8     		add	r0, sp, #20
 656              	.LVL91:
 657 001a 8160     		str	r1, [r0, #8]
 634:..\..\..\arduinoLCD\test\Pain Drain\libraries\lvgl\src\hal/lv_hal_disp.c ****     d.header.cf = LV_IMG_CF_ALPHA_2BIT;
 658              		.loc 1 634 0
 659 001c 5405     		lsls	r4, r2, #21
 660 001e E50A     		lsrs	r5, r4, #11
 661 0020 084C     		ldr	r4, .L31
 662 0022 059A     		ldr	r2, [sp, #20]
 663              	.LVL92:
 664 0024 1440     		ands	r4, r2
 665 0026 2C43     		orrs	r4, r5
 666 0028 0594     		str	r4, [sp, #20]
 635:..\..\..\arduinoLCD\test\Pain Drain\libraries\lvgl\src\hal/lv_hal_disp.c **** 
 667              		.loc 1 635 0
 668 002a E4B2     		uxtb	r4, r4
 669 002c 1F22     		movs	r2, #31
 670 002e 9443     		bics	r4, r2
 671 0030 0C22     		movs	r2, #12
 672 0032 1443     		orrs	r4, r2
 673 0034 0470     		strb	r4, [r0]
 637:..\..\..\arduinoLCD\test\Pain Drain\libraries\lvgl\src\hal/lv_hal_disp.c **** }
 674              		.loc 1 637 0
 675 0036 0097     		str	r7, [sp]
 676 0038 3200     		movs	r2, r6
 677 003a 0399     		ldr	r1, [sp, #12]
 678              	.LVL93:
 679 003c FFF7FEFF 		bl	set_px_alpha_generic
 680              	.LVL94:
 681              	.L28:
 638:..\..\..\arduinoLCD\test\Pain Drain\libraries\lvgl\src\hal/lv_hal_disp.c **** 
 682              		.loc 1 638 0
 683 0040 09B0     		add	sp, sp, #36
 684              		@ sp needed
 685 0042 F0BD     		pop	{r4, r5, r6, r7, pc}
 686              	.L32:
 687              		.align	2
 688              	.L31:
 689 0044 FF03E0FF 		.word	-2096129
 690              		.cfi_endproc
 691              	.LFE183:
 692              		.size	set_px_cb_alpha2, .-set_px_cb_alpha2
 693              		.section	.text.set_px_cb_alpha1,"ax",%progbits
 694              		.align	2
 695              		.code	16
 696              		.thumb_func
 697              		.type	set_px_cb_alpha1, %function
 698              	set_px_cb_alpha1:
 699              	.LFB182:
 614:..\..\..\arduinoLCD\test\Pain Drain\libraries\lvgl\src\hal/lv_hal_disp.c ****     (void) disp_drv; /*Unused*/
 700              		.loc 1 614 0
 701              		.cfi_startproc
 702              		@ args = 12, pretend = 0, frame = 24
 703              		@ frame_needed = 0, uses_anonymous_args = 0
 704              	.LVL95:
 705 0000 F0B5     		push	{r4, r5, r6, r7, lr}
 706              		.cfi_def_cfa_offset 20
ARM GAS  C:\Users\haske\AppData\Local\Temp\ccN8jSR9.s 			page 37


 707              		.cfi_offset 4, -20
 708              		.cfi_offset 5, -16
 709              		.cfi_offset 6, -12
 710              		.cfi_offset 7, -8
 711              		.cfi_offset 14, -4
 712 0002 89B0     		sub	sp, sp, #36
 713              		.cfi_def_cfa_offset 56
 714 0004 0393     		str	r3, [sp, #12]
 715 0006 0EAB     		add	r3, sp, #56
 716              	.LVL96:
 717 0008 0026     		movs	r6, #0
 718 000a 9E5F     		ldrsh	r6, [r3, r6]
 719              	.LVL97:
 720 000c 0FAB     		add	r3, sp, #60
 721 000e 1B88     		ldrh	r3, [r3]
 722              	.LVL98:
 723 0010 10A8     		add	r0, sp, #64
 724              	.LVL99:
 725 0012 0778     		ldrb	r7, [r0]
 617:..\..\..\arduinoLCD\test\Pain Drain\libraries\lvgl\src\hal/lv_hal_disp.c ****     lv_img_dsc_t d;
 726              		.loc 1 617 0
 727 0014 022F     		cmp	r7, #2
 728 0016 13D9     		bls	.L33
 619:..\..\..\arduinoLCD\test\Pain Drain\libraries\lvgl\src\hal/lv_hal_disp.c ****     d.header.w = buf_w;
 729              		.loc 1 619 0
 730 0018 05A8     		add	r0, sp, #20
 731              	.LVL100:
 732 001a 8160     		str	r1, [r0, #8]
 620:..\..\..\arduinoLCD\test\Pain Drain\libraries\lvgl\src\hal/lv_hal_disp.c ****     d.header.cf = LV_IMG_CF_ALPHA_1BIT;
 733              		.loc 1 620 0
 734 001c 5405     		lsls	r4, r2, #21
 735 001e E50A     		lsrs	r5, r4, #11
 736 0020 084C     		ldr	r4, .L36
 737 0022 059A     		ldr	r2, [sp, #20]
 738              	.LVL101:
 739 0024 1440     		ands	r4, r2
 740 0026 2C43     		orrs	r4, r5
 741 0028 0594     		str	r4, [sp, #20]
 621:..\..\..\arduinoLCD\test\Pain Drain\libraries\lvgl\src\hal/lv_hal_disp.c **** 
 742              		.loc 1 621 0
 743 002a E4B2     		uxtb	r4, r4
 744 002c 1F22     		movs	r2, #31
 745 002e 9443     		bics	r4, r2
 746 0030 0B22     		movs	r2, #11
 747 0032 1443     		orrs	r4, r2
 748 0034 0470     		strb	r4, [r0]
 623:..\..\..\arduinoLCD\test\Pain Drain\libraries\lvgl\src\hal/lv_hal_disp.c **** }
 749              		.loc 1 623 0
 750 0036 0097     		str	r7, [sp]
 751 0038 3200     		movs	r2, r6
 752 003a 0399     		ldr	r1, [sp, #12]
 753              	.LVL102:
 754 003c FFF7FEFF 		bl	set_px_alpha_generic
 755              	.LVL103:
 756              	.L33:
 624:..\..\..\arduinoLCD\test\Pain Drain\libraries\lvgl\src\hal/lv_hal_disp.c **** 
 757              		.loc 1 624 0
ARM GAS  C:\Users\haske\AppData\Local\Temp\ccN8jSR9.s 			page 38


 758 0040 09B0     		add	sp, sp, #36
 759              		@ sp needed
 760 0042 F0BD     		pop	{r4, r5, r6, r7, pc}
 761              	.L37:
 762              		.align	2
 763              	.L36:
 764 0044 FF03E0FF 		.word	-2096129
 765              		.cfi_endproc
 766              	.LFE182:
 767              		.size	set_px_cb_alpha1, .-set_px_cb_alpha1
 768              		.section	.text.lv_disp_drv_init,"ax",%progbits
 769              		.align	2
 770              		.global	lv_disp_drv_init
 771              		.code	16
 772              		.thumb_func
 773              		.type	lv_disp_drv_init, %function
 774              	lv_disp_drv_init:
 775              	.LFB159:
  84:..\..\..\arduinoLCD\test\Pain Drain\libraries\lvgl\src\hal/lv_hal_disp.c ****     lv_memset_00(driver, sizeof(lv_disp_drv_t));
 776              		.loc 1 84 0
 777              		.cfi_startproc
 778              		@ args = 0, pretend = 0, frame = 0
 779              		@ frame_needed = 0, uses_anonymous_args = 0
 780              	.LVL104:
 781 0000 10B5     		push	{r4, lr}
 782              		.cfi_def_cfa_offset 8
 783              		.cfi_offset 4, -8
 784              		.cfi_offset 14, -4
 785 0002 0400     		movs	r4, r0
  85:..\..\..\arduinoLCD\test\Pain Drain\libraries\lvgl\src\hal/lv_hal_disp.c **** 
 786              		.loc 1 85 0
 787 0004 5021     		movs	r1, #80
 788 0006 FFF7FEFF 		bl	lv_memset_00
 789              	.LVL105:
  87:..\..\..\arduinoLCD\test\Pain Drain\libraries\lvgl\src\hal/lv_hal_disp.c ****     driver->ver_res          = 240;
 790              		.loc 1 87 0
 791 000a A023     		movs	r3, #160
 792 000c 5B00     		lsls	r3, r3, #1
 793 000e 2380     		strh	r3, [r4]
  88:..\..\..\arduinoLCD\test\Pain Drain\libraries\lvgl\src\hal/lv_hal_disp.c ****     driver->physical_hor_res = -1;
 794              		.loc 1 88 0
 795 0010 503B     		subs	r3, r3, #80
 796 0012 6380     		strh	r3, [r4, #2]
  89:..\..\..\arduinoLCD\test\Pain Drain\libraries\lvgl\src\hal/lv_hal_disp.c ****     driver->physical_ver_res = -1;
 797              		.loc 1 89 0
 798 0014 F13B     		subs	r3, r3, #241
 799 0016 A380     		strh	r3, [r4, #4]
  90:..\..\..\arduinoLCD\test\Pain Drain\libraries\lvgl\src\hal/lv_hal_disp.c ****     driver->offset_x         = 0;
 800              		.loc 1 90 0
 801 0018 E380     		strh	r3, [r4, #6]
  91:..\..\..\arduinoLCD\test\Pain Drain\libraries\lvgl\src\hal/lv_hal_disp.c ****     driver->offset_y         = 0;
 802              		.loc 1 91 0
 803 001a 0023     		movs	r3, #0
 804 001c 2381     		strh	r3, [r4, #8]
  92:..\..\..\arduinoLCD\test\Pain Drain\libraries\lvgl\src\hal/lv_hal_disp.c ****     driver->antialiasing     = LV_COLOR_DEPTH > 8 ? 1 : 0;
 805              		.loc 1 92 0
 806 001e 6381     		strh	r3, [r4, #10]
ARM GAS  C:\Users\haske\AppData\Local\Temp\ccN8jSR9.s 			page 39


  93:..\..\..\arduinoLCD\test\Pain Drain\libraries\lvgl\src\hal/lv_hal_disp.c ****     driver->screen_transp    = 0;
 807              		.loc 1 93 0
 808 0020 227C     		ldrb	r2, [r4, #16]
 809 0022 0823     		movs	r3, #8
 810 0024 1343     		orrs	r3, r2
  94:..\..\..\arduinoLCD\test\Pain Drain\libraries\lvgl\src\hal/lv_hal_disp.c ****     driver->dpi              = LV_DPI_DEF;
 811              		.loc 1 94 0
 812 0026 DBB2     		uxtb	r3, r3
 813 0028 4022     		movs	r2, #64
 814 002a 9343     		bics	r3, r2
 815 002c 2374     		strb	r3, [r4, #16]
  95:..\..\..\arduinoLCD\test\Pain Drain\libraries\lvgl\src\hal/lv_hal_disp.c ****     driver->color_chroma_key = LV_COLOR_CHROMA_KEY;
 816              		.loc 1 95 0
 817 002e 084B     		ldr	r3, .L39
 818 0030 2269     		ldr	r2, [r4, #16]
 819 0032 1340     		ands	r3, r2
 820 0034 8222     		movs	r2, #130
 821 0036 D201     		lsls	r2, r2, #7
 822 0038 1343     		orrs	r3, r2
 823 003a 2361     		str	r3, [r4, #16]
 824              	.LVL106:
 825              	.LBB49:
 826              	.LBB50:
 586:c:\projects\paindrain\arduinolcd\test\pain drain\libraries\lvgl\src\misc\lv_color.h **** }
 587:c:\projects\paindrain\arduinolcd\test\pain drain\libraries\lvgl\src\misc\lv_color.h **** 
 588:c:\projects\paindrain\arduinolcd\test\pain drain\libraries\lvgl\src\misc\lv_color.h **** static inline lv_color_t lv_color_make(uint8_t r, uint8_t g, uint8_t b)
 589:c:\projects\paindrain\arduinolcd\test\pain drain\libraries\lvgl\src\misc\lv_color.h **** {
 590:c:\projects\paindrain\arduinolcd\test\pain drain\libraries\lvgl\src\misc\lv_color.h ****     return _LV_COLOR_MAKE_TYPE_HELPER LV_COLOR_MAKE(r, g, b);
 591:c:\projects\paindrain\arduinolcd\test\pain drain\libraries\lvgl\src\misc\lv_color.h **** }
 592:c:\projects\paindrain\arduinolcd\test\pain drain\libraries\lvgl\src\misc\lv_color.h **** 
 593:c:\projects\paindrain\arduinolcd\test\pain drain\libraries\lvgl\src\misc\lv_color.h **** static inline lv_color_t lv_color_hex(uint32_t c)
 594:c:\projects\paindrain\arduinolcd\test\pain drain\libraries\lvgl\src\misc\lv_color.h **** {
 595:c:\projects\paindrain\arduinolcd\test\pain drain\libraries\lvgl\src\misc\lv_color.h **** #if LV_COLOR_DEPTH == 16
 596:c:\projects\paindrain\arduinolcd\test\pain drain\libraries\lvgl\src\misc\lv_color.h ****     lv_color_t r;
 597:c:\projects\paindrain\arduinolcd\test\pain drain\libraries\lvgl\src\misc\lv_color.h **** #if LV_COLOR_16_SWAP == 0
 598:c:\projects\paindrain\arduinolcd\test\pain drain\libraries\lvgl\src\misc\lv_color.h ****     /* Convert a 4 bytes per pixel in format ARGB32 to R5G6B5 format
 599:c:\projects\paindrain\arduinolcd\test\pain drain\libraries\lvgl\src\misc\lv_color.h ****         naive way (by calling lv_color_make with components):
 600:c:\projects\paindrain\arduinolcd\test\pain drain\libraries\lvgl\src\misc\lv_color.h ****                     r = ((c & 0xFF0000) >> 19)
 601:c:\projects\paindrain\arduinolcd\test\pain drain\libraries\lvgl\src\misc\lv_color.h ****                     g = ((c & 0xFF00) >> 10)
 602:c:\projects\paindrain\arduinolcd\test\pain drain\libraries\lvgl\src\misc\lv_color.h ****                     b = ((c & 0xFF) >> 3)
 603:c:\projects\paindrain\arduinolcd\test\pain drain\libraries\lvgl\src\misc\lv_color.h ****                     rgb565 = (r << 11) | (g << 5) | b
 604:c:\projects\paindrain\arduinolcd\test\pain drain\libraries\lvgl\src\misc\lv_color.h ****         That's 3 mask, 5 bitshift and 2 or operations
 605:c:\projects\paindrain\arduinolcd\test\pain drain\libraries\lvgl\src\misc\lv_color.h **** 
 606:c:\projects\paindrain\arduinolcd\test\pain drain\libraries\lvgl\src\misc\lv_color.h ****         A bit better:
 607:c:\projects\paindrain\arduinolcd\test\pain drain\libraries\lvgl\src\misc\lv_color.h ****                     r = ((c & 0xF80000) >> 8)
 608:c:\projects\paindrain\arduinolcd\test\pain drain\libraries\lvgl\src\misc\lv_color.h ****                     g = ((c & 0xFC00) >> 5)
 609:c:\projects\paindrain\arduinolcd\test\pain drain\libraries\lvgl\src\misc\lv_color.h ****                     b = ((c & 0xFF) >> 3)
 610:c:\projects\paindrain\arduinolcd\test\pain drain\libraries\lvgl\src\misc\lv_color.h ****                     rgb565 = r | g | b
 611:c:\projects\paindrain\arduinolcd\test\pain drain\libraries\lvgl\src\misc\lv_color.h ****         That's 3 mask, 3 bitshifts and 2 or operations */
 612:c:\projects\paindrain\arduinolcd\test\pain drain\libraries\lvgl\src\misc\lv_color.h ****     r.full = (uint16_t)(((c & 0xF80000) >> 8) | ((c & 0xFC00) >> 5) | ((c & 0xFF) >> 3));
 827              		.loc 2 612 0
 828 003c FC23     		movs	r3, #252
 829 003e DB00     		lsls	r3, r3, #3
 830              	.LVL107:
 831              	.LBE50:
 832              	.LBE49:
  96:..\..\..\arduinoLCD\test\Pain Drain\libraries\lvgl\src\hal/lv_hal_disp.c **** 
ARM GAS  C:\Users\haske\AppData\Local\Temp\ccN8jSR9.s 			page 40


 833              		.loc 1 96 0
 834 0040 2387     		strh	r3, [r4, #56]
 124:..\..\..\arduinoLCD\test\Pain Drain\libraries\lvgl\src\hal/lv_hal_disp.c ****     driver->draw_ctx_deinit = lv_draw_sw_init_ctx;
 835              		.loc 1 124 0
 836 0042 044B     		ldr	r3, .L39+4
 837 0044 2364     		str	r3, [r4, #64]
 125:..\..\..\arduinoLCD\test\Pain Drain\libraries\lvgl\src\hal/lv_hal_disp.c ****     driver->draw_ctx_size = sizeof(lv_draw_sw_ctx_t);
 838              		.loc 1 125 0
 839 0046 6364     		str	r3, [r4, #68]
 126:..\..\..\arduinoLCD\test\Pain Drain\libraries\lvgl\src\hal/lv_hal_disp.c **** #endif
 840              		.loc 1 126 0
 841 0048 5823     		movs	r3, #88
 842 004a A364     		str	r3, [r4, #72]
 129:..\..\..\arduinoLCD\test\Pain Drain\libraries\lvgl\src\hal/lv_hal_disp.c **** 
 843              		.loc 1 129 0
 844              		@ sp needed
 845              	.LVL108:
 846 004c 10BD     		pop	{r4, pc}
 847              	.L40:
 848 004e C046     		.align	2
 849              	.L39:
 850 0050 7F00FEFF 		.word	-130945
 851 0054 00000000 		.word	lv_draw_sw_init_ctx
 852              		.cfi_endproc
 853              	.LFE159:
 854              		.size	lv_disp_drv_init, .-lv_disp_drv_init
 855              		.section	.text.lv_disp_draw_buf_init,"ax",%progbits
 856              		.align	2
 857              		.global	lv_disp_draw_buf_init
 858              		.code	16
 859              		.thumb_func
 860              		.type	lv_disp_draw_buf_init, %function
 861              	lv_disp_draw_buf_init:
 862              	.LFB160:
 147:..\..\..\arduinoLCD\test\Pain Drain\libraries\lvgl\src\hal/lv_hal_disp.c ****     lv_memset_00(draw_buf, sizeof(lv_disp_draw_buf_t));
 863              		.loc 1 147 0
 864              		.cfi_startproc
 865              		@ args = 0, pretend = 0, frame = 0
 866              		@ frame_needed = 0, uses_anonymous_args = 0
 867              	.LVL109:
 868 0000 F8B5     		push	{r3, r4, r5, r6, r7, lr}
 869              		.cfi_def_cfa_offset 24
 870              		.cfi_offset 3, -24
 871              		.cfi_offset 4, -20
 872              		.cfi_offset 5, -16
 873              		.cfi_offset 6, -12
 874              		.cfi_offset 7, -8
 875              		.cfi_offset 14, -4
 876 0002 0400     		movs	r4, r0
 877 0004 0D00     		movs	r5, r1
 878 0006 1700     		movs	r7, r2
 879 0008 1E00     		movs	r6, r3
 148:..\..\..\arduinoLCD\test\Pain Drain\libraries\lvgl\src\hal/lv_hal_disp.c **** 
 880              		.loc 1 148 0
 881 000a 1C21     		movs	r1, #28
 882              	.LVL110:
 883 000c FFF7FEFF 		bl	lv_memset_00
ARM GAS  C:\Users\haske\AppData\Local\Temp\ccN8jSR9.s 			page 41


 884              	.LVL111:
 150:..\..\..\arduinoLCD\test\Pain Drain\libraries\lvgl\src\hal/lv_hal_disp.c ****     draw_buf->buf2    = buf2;
 885              		.loc 1 150 0
 886 0010 2560     		str	r5, [r4]
 151:..\..\..\arduinoLCD\test\Pain Drain\libraries\lvgl\src\hal/lv_hal_disp.c ****     draw_buf->buf_act = draw_buf->buf1;
 887              		.loc 1 151 0
 888 0012 6760     		str	r7, [r4, #4]
 152:..\..\..\arduinoLCD\test\Pain Drain\libraries\lvgl\src\hal/lv_hal_disp.c ****     draw_buf->size    = size_in_px_cnt;
 889              		.loc 1 152 0
 890 0014 A560     		str	r5, [r4, #8]
 153:..\..\..\arduinoLCD\test\Pain Drain\libraries\lvgl\src\hal/lv_hal_disp.c **** }
 891              		.loc 1 153 0
 892 0016 E660     		str	r6, [r4, #12]
 154:..\..\..\arduinoLCD\test\Pain Drain\libraries\lvgl\src\hal/lv_hal_disp.c **** 
 893              		.loc 1 154 0
 894              		@ sp needed
 895              	.LVL112:
 896              	.LVL113:
 897              	.LVL114:
 898              	.LVL115:
 899 0018 F8BD     		pop	{r3, r4, r5, r6, r7, pc}
 900              		.cfi_endproc
 901              	.LFE160:
 902              		.size	lv_disp_draw_buf_init, .-lv_disp_draw_buf_init
 903 001a C046     		.section	.text.lv_disp_drv_register,"ax",%progbits
 904              		.align	2
 905              		.global	lv_disp_drv_register
 906              		.code	16
 907              		.thumb_func
 908              		.type	lv_disp_drv_register, %function
 909              	lv_disp_drv_register:
 910              	.LFB161:
 163:..\..\..\arduinoLCD\test\Pain Drain\libraries\lvgl\src\hal/lv_hal_disp.c ****     lv_disp_t * disp = _lv_ll_ins_head(&LV_GC_ROOT(_lv_disp_ll));
 911              		.loc 1 163 0
 912              		.cfi_startproc
 913              		@ args = 0, pretend = 0, frame = 0
 914              		@ frame_needed = 0, uses_anonymous_args = 0
 915              	.LVL116:
 916 0000 70B5     		push	{r4, r5, r6, lr}
 917              		.cfi_def_cfa_offset 16
 918              		.cfi_offset 4, -16
 919              		.cfi_offset 5, -12
 920              		.cfi_offset 6, -8
 921              		.cfi_offset 14, -4
 922 0002 82B0     		sub	sp, sp, #8
 923              		.cfi_def_cfa_offset 24
 924 0004 0500     		movs	r5, r0
 164:..\..\..\arduinoLCD\test\Pain Drain\libraries\lvgl\src\hal/lv_hal_disp.c ****     LV_ASSERT_MALLOC(disp);
 925              		.loc 1 164 0
 926 0006 5148     		ldr	r0, .L58
 927              	.LVL117:
 928 0008 FFF7FEFF 		bl	_lv_ll_ins_head
 929              	.LVL118:
 930 000c 041E     		subs	r4, r0, #0
 931              	.LVL119:
 165:..\..\..\arduinoLCD\test\Pain Drain\libraries\lvgl\src\hal/lv_hal_disp.c ****     if(!disp) {
 932              		.loc 1 165 0
ARM GAS  C:\Users\haske\AppData\Local\Temp\ccN8jSR9.s 			page 42


 933 000e 00D1     		bne	.L43
 934              	.L44:
 935 0010 FEE7     		b	.L44
 936              	.L43:
 166:..\..\..\arduinoLCD\test\Pain Drain\libraries\lvgl\src\hal/lv_hal_disp.c ****         return NULL;
 937              		.loc 1 166 0
 938 0012 0028     		cmp	r0, #0
 939 0014 00D1     		bne	.LCB958
 940 0016 93E0     		b	.L56	@long jump
 941              	.LCB958:
 171:..\..\..\arduinoLCD\test\Pain Drain\libraries\lvgl\src\hal/lv_hal_disp.c ****         lv_draw_ctx_t * draw_ctx = lv_mem_alloc(driver->draw_ctx_size);
 942              		.loc 1 171 0
 943 0018 EB6B     		ldr	r3, [r5, #60]
 944 001a 002B     		cmp	r3, #0
 945 001c 0DD1     		bne	.L46
 946              	.LBB51:
 172:..\..\..\arduinoLCD\test\Pain Drain\libraries\lvgl\src\hal/lv_hal_disp.c ****         LV_ASSERT_MALLOC(draw_ctx);
 947              		.loc 1 172 0
 948 001e A86C     		ldr	r0, [r5, #72]
 949              	.LVL120:
 950 0020 FFF7FEFF 		bl	lv_mem_alloc
 951              	.LVL121:
 952 0024 061E     		subs	r6, r0, #0
 953              	.LVL122:
 173:..\..\..\arduinoLCD\test\Pain Drain\libraries\lvgl\src\hal/lv_hal_disp.c ****         if(draw_ctx == NULL) return NULL;
 954              		.loc 1 173 0
 955 0026 00D1     		bne	.L47
 956              	.L48:
 957 0028 FEE7     		b	.L48
 958              	.L47:
 174:..\..\..\arduinoLCD\test\Pain Drain\libraries\lvgl\src\hal/lv_hal_disp.c ****         driver->draw_ctx_init(driver, draw_ctx);
 959              		.loc 1 174 0
 960 002a 0028     		cmp	r0, #0
 961 002c 00D1     		bne	.LCB979
 962 002e 89E0     		b	.L57	@long jump
 963              	.LCB979:
 175:..\..\..\arduinoLCD\test\Pain Drain\libraries\lvgl\src\hal/lv_hal_disp.c ****         driver->draw_ctx = draw_ctx;
 964              		.loc 1 175 0
 965 0030 0100     		movs	r1, r0
 966 0032 2800     		movs	r0, r5
 967              	.LVL123:
 968 0034 2B6C     		ldr	r3, [r5, #64]
 969 0036 9847     		blx	r3
 970              	.LVL124:
 176:..\..\..\arduinoLCD\test\Pain Drain\libraries\lvgl\src\hal/lv_hal_disp.c ****     }
 971              		.loc 1 176 0
 972 0038 EE63     		str	r6, [r5, #60]
 973              	.LVL125:
 974              	.L46:
 975              	.LBE51:
 179:..\..\..\arduinoLCD\test\Pain Drain\libraries\lvgl\src\hal/lv_hal_disp.c **** 
 976              		.loc 1 179 0
 977 003a AE21     		movs	r1, #174
 978 003c 4900     		lsls	r1, r1, #1
 979 003e 2000     		movs	r0, r4
 980 0040 FFF7FEFF 		bl	lv_memset_00
 981              	.LVL126:
ARM GAS  C:\Users\haske\AppData\Local\Temp\ccN8jSR9.s 			page 43


 181:..\..\..\arduinoLCD\test\Pain Drain\libraries\lvgl\src\hal/lv_hal_disp.c **** 
 982              		.loc 1 181 0
 983 0044 2560     		str	r5, [r4]
 183:..\..\..\arduinoLCD\test\Pain Drain\libraries\lvgl\src\hal/lv_hal_disp.c **** 
 984              		.loc 1 183 0
 985 0046 0122     		movs	r2, #1
 986 0048 AA23     		movs	r3, #170
 987 004a 5B00     		lsls	r3, r3, #1
 988 004c E250     		str	r2, [r4, r3]
 185:..\..\..\arduinoLCD\test\Pain Drain\libraries\lvgl\src\hal/lv_hal_disp.c ****     disp_def                 = disp; /*Temporarily change the default screen to create the default 
 989              		.loc 1 185 0
 990 004e 404B     		ldr	r3, .L58+4
 991 0050 1E69     		ldr	r6, [r3, #16]
 992              	.LVL127:
 186:..\..\..\arduinoLCD\test\Pain Drain\libraries\lvgl\src\hal/lv_hal_disp.c ****                                         new display*/
 993              		.loc 1 186 0
 994 0052 1C61     		str	r4, [r3, #16]
 189:..\..\..\arduinoLCD\test\Pain Drain\libraries\lvgl\src\hal/lv_hal_disp.c ****     LV_ASSERT_MALLOC(disp->refr_timer);
 995              		.loc 1 189 0
 996 0054 2200     		movs	r2, r4
 997 0056 1E21     		movs	r1, #30
 998 0058 3E48     		ldr	r0, .L58+8
 999 005a FFF7FEFF 		bl	lv_timer_create
 1000              	.LVL128:
 1001 005e 6060     		str	r0, [r4, #4]
 190:..\..\..\arduinoLCD\test\Pain Drain\libraries\lvgl\src\hal/lv_hal_disp.c ****     if(disp->refr_timer == NULL) {
 1002              		.loc 1 190 0
 1003 0060 0028     		cmp	r0, #0
 1004 0062 00D1     		bne	.L49
 1005              	.L50:
 1006 0064 FEE7     		b	.L50
 1007              	.L49:
 191:..\..\..\arduinoLCD\test\Pain Drain\libraries\lvgl\src\hal/lv_hal_disp.c ****         lv_mem_free(disp);
 1008              		.loc 1 191 0
 1009 0066 0028     		cmp	r0, #0
 1010 0068 04D1     		bne	.L51
 192:..\..\..\arduinoLCD\test\Pain Drain\libraries\lvgl\src\hal/lv_hal_disp.c ****         return NULL;
 1011              		.loc 1 192 0
 1012 006a 2000     		movs	r0, r4
 1013 006c FFF7FEFF 		bl	lv_mem_free
 1014              	.LVL129:
 193:..\..\..\arduinoLCD\test\Pain Drain\libraries\lvgl\src\hal/lv_hal_disp.c ****     }
 1015              		.loc 1 193 0
 1016 0070 0020     		movs	r0, #0
 1017 0072 68E0     		b	.L45
 1018              	.L51:
 196:..\..\..\arduinoLCD\test\Pain Drain\libraries\lvgl\src\hal/lv_hal_disp.c ****         driver->full_refresh = 0;
 1019              		.loc 1 196 0
 1020 0074 2B7C     		ldrb	r3, [r5, #16]
 1021 0076 9B07     		lsls	r3, r3, #30
 1022 0078 0CD5     		bpl	.L52
 196:..\..\..\arduinoLCD\test\Pain Drain\libraries\lvgl\src\hal/lv_hal_disp.c ****         driver->full_refresh = 0;
 1023              		.loc 1 196 0 is_stmt 0 discriminator 1
 1024 007a EB68     		ldr	r3, [r5, #12]
 1025 007c DA68     		ldr	r2, [r3, #12]
 1026 007e 0021     		movs	r1, #0
 1027 0080 6B5E     		ldrsh	r3, [r5, r1]
ARM GAS  C:\Users\haske\AppData\Local\Temp\ccN8jSR9.s 			page 44


 1028 0082 0220     		movs	r0, #2
 1029 0084 295E     		ldrsh	r1, [r5, r0]
 1030 0086 4B43     		muls	r3, r1
 1031 0088 9A42     		cmp	r2, r3
 1032 008a 03D2     		bcs	.L52
 197:..\..\..\arduinoLCD\test\Pain Drain\libraries\lvgl\src\hal/lv_hal_disp.c ****         LV_LOG_WARN("full_refresh requires at least screen sized draw buffer(s)");
 1033              		.loc 1 197 0 is_stmt 1
 1034 008c 2B7C     		ldrb	r3, [r5, #16]
 1035 008e 0222     		movs	r2, #2
 1036 0090 9343     		bics	r3, r2
 1037 0092 2B74     		strb	r3, [r5, #16]
 1038              	.L52:
 1039              	.LVL130:
 1040              	.LBB52:
 1041              	.LBB53:
 1042              	.LBB54:
 590:c:\projects\paindrain\arduinolcd\test\pain drain\libraries\lvgl\src\misc\lv_color.h **** }
 1043              		.loc 2 590 0
 1044 0094 FC22     		movs	r2, #252
 1045 0096 D200     		lsls	r2, r2, #3
 1046 0098 1F23     		movs	r3, #31
 1047 009a 1343     		orrs	r3, r2
 1048 009c 2E4A     		ldr	r2, .L58+12
 1049 009e 1343     		orrs	r3, r2
 1050              	.LVL131:
 1051              	.LBE54:
 1052              	.LBE53:
 1053              	.LBE52:
 201:..\..\..\arduinoLCD\test\Pain Drain\libraries\lvgl\src\hal/lv_hal_disp.c **** #if LV_COLOR_SCREEN_TRANSP
 1054              		.loc 1 201 0
 1055 00a0 6385     		strh	r3, [r4, #42]
 205:..\..\..\arduinoLCD\test\Pain Drain\libraries\lvgl\src\hal/lv_hal_disp.c **** #endif
 1056              		.loc 1 205 0
 1057 00a2 FF22     		movs	r2, #255
 1058 00a4 2923     		movs	r3, #41
 1059 00a6 E254     		strb	r2, [r4, r3]
 209:..\..\..\arduinoLCD\test\Pain Drain\libraries\lvgl\src\hal/lv_hal_disp.c ****         disp->theme = lv_theme_default_init(disp, lv_palette_main(LV_PALETTE_BLUE), lv_palette_main
 1060              		.loc 1 209 0
 1061 00a8 FFF7FEFF 		bl	lv_theme_default_is_inited
 1062              	.LVL132:
 1063 00ac 0028     		cmp	r0, #0
 1064 00ae 10D1     		bne	.L53
 210:..\..\..\arduinoLCD\test\Pain Drain\libraries\lvgl\src\hal/lv_hal_disp.c ****                                             LV_THEME_DEFAULT_DARK, LV_FONT_DEFAULT);
 1065              		.loc 1 210 0
 1066 00b0 0530     		adds	r0, r0, #5
 1067 00b2 FFF7FEFF 		bl	lv_palette_main
 1068              	.LVL133:
 1069 00b6 051C     		adds	r5, r0, #0
 1070              	.LVL134:
 1071 00b8 0020     		movs	r0, #0
 1072 00ba FFF7FEFF 		bl	lv_palette_main
 1073              	.LVL135:
 1074 00be 021C     		adds	r2, r0, #0
 1075 00c0 264B     		ldr	r3, .L58+16
 1076 00c2 0093     		str	r3, [sp]
 1077 00c4 0023     		movs	r3, #0
 1078 00c6 291C     		adds	r1, r5, #0
ARM GAS  C:\Users\haske\AppData\Local\Temp\ccN8jSR9.s 			page 45


 1079 00c8 2000     		movs	r0, r4
 1080 00ca FFF7FEFF 		bl	lv_theme_default_init
 1081              	.LVL136:
 1082 00ce A060     		str	r0, [r4, #8]
 1083 00d0 02E0     		b	.L54
 1084              	.LVL137:
 1085              	.L53:
 214:..\..\..\arduinoLCD\test\Pain Drain\libraries\lvgl\src\hal/lv_hal_disp.c ****     }
 1086              		.loc 1 214 0
 1087 00d2 FFF7FEFF 		bl	lv_theme_default_get
 1088              	.LVL138:
 1089 00d6 A060     		str	r0, [r4, #8]
 1090              	.LVL139:
 1091              	.L54:
 218:..\..\..\arduinoLCD\test\Pain Drain\libraries\lvgl\src\hal/lv_hal_disp.c ****     disp->top_layer = lv_obj_create(NULL); /*Create top layer on the display*/
 1092              		.loc 1 218 0
 1093 00d8 0020     		movs	r0, #0
 1094 00da FFF7FEFF 		bl	lv_obj_create
 1095              	.LVL140:
 1096 00de 2061     		str	r0, [r4, #16]
 219:..\..\..\arduinoLCD\test\Pain Drain\libraries\lvgl\src\hal/lv_hal_disp.c ****     disp->sys_layer = lv_obj_create(NULL); /*Create sys layer on the display*/
 1097              		.loc 1 219 0
 1098 00e0 0020     		movs	r0, #0
 1099 00e2 FFF7FEFF 		bl	lv_obj_create
 1100              	.LVL141:
 1101 00e6 E061     		str	r0, [r4, #28]
 220:..\..\..\arduinoLCD\test\Pain Drain\libraries\lvgl\src\hal/lv_hal_disp.c ****     lv_obj_remove_style_all(disp->top_layer);
 1102              		.loc 1 220 0
 1103 00e8 0020     		movs	r0, #0
 1104 00ea FFF7FEFF 		bl	lv_obj_create
 1105              	.LVL142:
 1106 00ee 2062     		str	r0, [r4, #32]
 1107              	.LVL143:
 1108              	.LBB55:
 1109              	.LBB56:
 1110              		.file 3 "..\\..\\..\\arduinoLCD\\test\\Pain Drain\\libraries\\lvgl\\src\\hal\\../core/lv_obj_style
   1:..\..\..\arduinoLCD\test\Pain Drain\libraries\lvgl\src\hal\../core/lv_obj_style.h **** /**
   2:..\..\..\arduinoLCD\test\Pain Drain\libraries\lvgl\src\hal\../core/lv_obj_style.h ****  * @file lv_obj_style.h
   3:..\..\..\arduinoLCD\test\Pain Drain\libraries\lvgl\src\hal\../core/lv_obj_style.h ****  *
   4:..\..\..\arduinoLCD\test\Pain Drain\libraries\lvgl\src\hal\../core/lv_obj_style.h ****  */
   5:..\..\..\arduinoLCD\test\Pain Drain\libraries\lvgl\src\hal\../core/lv_obj_style.h **** 
   6:..\..\..\arduinoLCD\test\Pain Drain\libraries\lvgl\src\hal\../core/lv_obj_style.h **** #ifndef LV_OBJ_STYLE_H
   7:..\..\..\arduinoLCD\test\Pain Drain\libraries\lvgl\src\hal\../core/lv_obj_style.h **** #define LV_OBJ_STYLE_H
   8:..\..\..\arduinoLCD\test\Pain Drain\libraries\lvgl\src\hal\../core/lv_obj_style.h **** 
   9:..\..\..\arduinoLCD\test\Pain Drain\libraries\lvgl\src\hal\../core/lv_obj_style.h **** #ifdef __cplusplus
  10:..\..\..\arduinoLCD\test\Pain Drain\libraries\lvgl\src\hal\../core/lv_obj_style.h **** extern "C" {
  11:..\..\..\arduinoLCD\test\Pain Drain\libraries\lvgl\src\hal\../core/lv_obj_style.h **** #endif
  12:..\..\..\arduinoLCD\test\Pain Drain\libraries\lvgl\src\hal\../core/lv_obj_style.h **** 
  13:..\..\..\arduinoLCD\test\Pain Drain\libraries\lvgl\src\hal\../core/lv_obj_style.h **** /*********************
  14:..\..\..\arduinoLCD\test\Pain Drain\libraries\lvgl\src\hal\../core/lv_obj_style.h ****  *      INCLUDES
  15:..\..\..\arduinoLCD\test\Pain Drain\libraries\lvgl\src\hal\../core/lv_obj_style.h ****  *********************/
  16:..\..\..\arduinoLCD\test\Pain Drain\libraries\lvgl\src\hal\../core/lv_obj_style.h **** #include <stdint.h>
  17:..\..\..\arduinoLCD\test\Pain Drain\libraries\lvgl\src\hal\../core/lv_obj_style.h **** #include <stdbool.h>
  18:..\..\..\arduinoLCD\test\Pain Drain\libraries\lvgl\src\hal\../core/lv_obj_style.h **** #include "../misc/lv_bidi.h"
  19:..\..\..\arduinoLCD\test\Pain Drain\libraries\lvgl\src\hal\../core/lv_obj_style.h **** 
  20:..\..\..\arduinoLCD\test\Pain Drain\libraries\lvgl\src\hal\../core/lv_obj_style.h **** /*********************
  21:..\..\..\arduinoLCD\test\Pain Drain\libraries\lvgl\src\hal\../core/lv_obj_style.h ****  *      DEFINES
ARM GAS  C:\Users\haske\AppData\Local\Temp\ccN8jSR9.s 			page 46


  22:..\..\..\arduinoLCD\test\Pain Drain\libraries\lvgl\src\hal\../core/lv_obj_style.h ****  *********************/
  23:..\..\..\arduinoLCD\test\Pain Drain\libraries\lvgl\src\hal\../core/lv_obj_style.h **** 
  24:..\..\..\arduinoLCD\test\Pain Drain\libraries\lvgl\src\hal\../core/lv_obj_style.h **** /**********************
  25:..\..\..\arduinoLCD\test\Pain Drain\libraries\lvgl\src\hal\../core/lv_obj_style.h ****  *      TYPEDEFS
  26:..\..\..\arduinoLCD\test\Pain Drain\libraries\lvgl\src\hal\../core/lv_obj_style.h ****  **********************/
  27:..\..\..\arduinoLCD\test\Pain Drain\libraries\lvgl\src\hal\../core/lv_obj_style.h **** /*Can't include lv_obj.h because it includes this header file*/
  28:..\..\..\arduinoLCD\test\Pain Drain\libraries\lvgl\src\hal\../core/lv_obj_style.h **** struct _lv_obj_t;
  29:..\..\..\arduinoLCD\test\Pain Drain\libraries\lvgl\src\hal\../core/lv_obj_style.h **** 
  30:..\..\..\arduinoLCD\test\Pain Drain\libraries\lvgl\src\hal\../core/lv_obj_style.h **** typedef enum {
  31:..\..\..\arduinoLCD\test\Pain Drain\libraries\lvgl\src\hal\../core/lv_obj_style.h ****     _LV_STYLE_STATE_CMP_SAME,           /*The style properties in the 2 states are identical*/
  32:..\..\..\arduinoLCD\test\Pain Drain\libraries\lvgl\src\hal\../core/lv_obj_style.h ****     _LV_STYLE_STATE_CMP_DIFF_REDRAW,    /*The differences can be shown with a simple redraw*/
  33:..\..\..\arduinoLCD\test\Pain Drain\libraries\lvgl\src\hal\../core/lv_obj_style.h ****     _LV_STYLE_STATE_CMP_DIFF_DRAW_PAD,  /*The differences can be shown with a simple redraw*/
  34:..\..\..\arduinoLCD\test\Pain Drain\libraries\lvgl\src\hal\../core/lv_obj_style.h ****     _LV_STYLE_STATE_CMP_DIFF_LAYOUT,    /*The differences can be shown with a simple redraw*/
  35:..\..\..\arduinoLCD\test\Pain Drain\libraries\lvgl\src\hal\../core/lv_obj_style.h **** } _lv_style_state_cmp_t;
  36:..\..\..\arduinoLCD\test\Pain Drain\libraries\lvgl\src\hal\../core/lv_obj_style.h **** 
  37:..\..\..\arduinoLCD\test\Pain Drain\libraries\lvgl\src\hal\../core/lv_obj_style.h **** typedef uint32_t lv_style_selector_t;
  38:..\..\..\arduinoLCD\test\Pain Drain\libraries\lvgl\src\hal\../core/lv_obj_style.h **** 
  39:..\..\..\arduinoLCD\test\Pain Drain\libraries\lvgl\src\hal\../core/lv_obj_style.h **** typedef struct {
  40:..\..\..\arduinoLCD\test\Pain Drain\libraries\lvgl\src\hal\../core/lv_obj_style.h ****     lv_style_t * style;
  41:..\..\..\arduinoLCD\test\Pain Drain\libraries\lvgl\src\hal\../core/lv_obj_style.h ****     uint32_t selector : 24;
  42:..\..\..\arduinoLCD\test\Pain Drain\libraries\lvgl\src\hal\../core/lv_obj_style.h ****     uint32_t is_local : 1;
  43:..\..\..\arduinoLCD\test\Pain Drain\libraries\lvgl\src\hal\../core/lv_obj_style.h ****     uint32_t is_trans : 1;
  44:..\..\..\arduinoLCD\test\Pain Drain\libraries\lvgl\src\hal\../core/lv_obj_style.h **** } _lv_obj_style_t;
  45:..\..\..\arduinoLCD\test\Pain Drain\libraries\lvgl\src\hal\../core/lv_obj_style.h **** 
  46:..\..\..\arduinoLCD\test\Pain Drain\libraries\lvgl\src\hal\../core/lv_obj_style.h **** typedef struct {
  47:..\..\..\arduinoLCD\test\Pain Drain\libraries\lvgl\src\hal\../core/lv_obj_style.h ****     uint16_t time;
  48:..\..\..\arduinoLCD\test\Pain Drain\libraries\lvgl\src\hal\../core/lv_obj_style.h ****     uint16_t delay;
  49:..\..\..\arduinoLCD\test\Pain Drain\libraries\lvgl\src\hal\../core/lv_obj_style.h ****     lv_style_selector_t selector;
  50:..\..\..\arduinoLCD\test\Pain Drain\libraries\lvgl\src\hal\../core/lv_obj_style.h ****     lv_style_prop_t prop;
  51:..\..\..\arduinoLCD\test\Pain Drain\libraries\lvgl\src\hal\../core/lv_obj_style.h ****     lv_anim_path_cb_t path_cb;
  52:..\..\..\arduinoLCD\test\Pain Drain\libraries\lvgl\src\hal\../core/lv_obj_style.h **** #if LV_USE_USER_DATA
  53:..\..\..\arduinoLCD\test\Pain Drain\libraries\lvgl\src\hal\../core/lv_obj_style.h ****     void * user_data;
  54:..\..\..\arduinoLCD\test\Pain Drain\libraries\lvgl\src\hal\../core/lv_obj_style.h **** #endif
  55:..\..\..\arduinoLCD\test\Pain Drain\libraries\lvgl\src\hal\../core/lv_obj_style.h **** } _lv_obj_style_transition_dsc_t;
  56:..\..\..\arduinoLCD\test\Pain Drain\libraries\lvgl\src\hal\../core/lv_obj_style.h **** 
  57:..\..\..\arduinoLCD\test\Pain Drain\libraries\lvgl\src\hal\../core/lv_obj_style.h **** /**********************
  58:..\..\..\arduinoLCD\test\Pain Drain\libraries\lvgl\src\hal\../core/lv_obj_style.h ****  * GLOBAL PROTOTYPES
  59:..\..\..\arduinoLCD\test\Pain Drain\libraries\lvgl\src\hal\../core/lv_obj_style.h ****  **********************/
  60:..\..\..\arduinoLCD\test\Pain Drain\libraries\lvgl\src\hal\../core/lv_obj_style.h **** 
  61:..\..\..\arduinoLCD\test\Pain Drain\libraries\lvgl\src\hal\../core/lv_obj_style.h **** /**
  62:..\..\..\arduinoLCD\test\Pain Drain\libraries\lvgl\src\hal\../core/lv_obj_style.h ****  * Initialize the object related style manager module.
  63:..\..\..\arduinoLCD\test\Pain Drain\libraries\lvgl\src\hal\../core/lv_obj_style.h ****  * Called by LVGL in `lv_init()`
  64:..\..\..\arduinoLCD\test\Pain Drain\libraries\lvgl\src\hal\../core/lv_obj_style.h ****  */
  65:..\..\..\arduinoLCD\test\Pain Drain\libraries\lvgl\src\hal\../core/lv_obj_style.h **** void _lv_obj_style_init(void);
  66:..\..\..\arduinoLCD\test\Pain Drain\libraries\lvgl\src\hal\../core/lv_obj_style.h **** 
  67:..\..\..\arduinoLCD\test\Pain Drain\libraries\lvgl\src\hal\../core/lv_obj_style.h **** /**
  68:..\..\..\arduinoLCD\test\Pain Drain\libraries\lvgl\src\hal\../core/lv_obj_style.h ****  * Add a style to an object.
  69:..\..\..\arduinoLCD\test\Pain Drain\libraries\lvgl\src\hal\../core/lv_obj_style.h ****  * @param obj       pointer to an object
  70:..\..\..\arduinoLCD\test\Pain Drain\libraries\lvgl\src\hal\../core/lv_obj_style.h ****  * @param style     pointer to a style to add
  71:..\..\..\arduinoLCD\test\Pain Drain\libraries\lvgl\src\hal\../core/lv_obj_style.h ****  * @param selector  OR-ed value of parts and state to which the style should be added
  72:..\..\..\arduinoLCD\test\Pain Drain\libraries\lvgl\src\hal\../core/lv_obj_style.h ****  * @example         lv_obj_add_style(btn, &style_btn, 0); //Default button style
  73:..\..\..\arduinoLCD\test\Pain Drain\libraries\lvgl\src\hal\../core/lv_obj_style.h ****  * @example         lv_obj_add_style(btn, &btn_red, LV_STATE_PRESSED); //Overwrite only some colors
  74:..\..\..\arduinoLCD\test\Pain Drain\libraries\lvgl\src\hal\../core/lv_obj_style.h ****  */
  75:..\..\..\arduinoLCD\test\Pain Drain\libraries\lvgl\src\hal\../core/lv_obj_style.h **** void lv_obj_add_style(struct _lv_obj_t * obj, lv_style_t * style, lv_style_selector_t selector);
  76:..\..\..\arduinoLCD\test\Pain Drain\libraries\lvgl\src\hal\../core/lv_obj_style.h **** 
  77:..\..\..\arduinoLCD\test\Pain Drain\libraries\lvgl\src\hal\../core/lv_obj_style.h **** /**
  78:..\..\..\arduinoLCD\test\Pain Drain\libraries\lvgl\src\hal\../core/lv_obj_style.h ****  * Add a style to an object.
ARM GAS  C:\Users\haske\AppData\Local\Temp\ccN8jSR9.s 			page 47


  79:..\..\..\arduinoLCD\test\Pain Drain\libraries\lvgl\src\hal\../core/lv_obj_style.h ****  * @param obj       pointer to an object
  80:..\..\..\arduinoLCD\test\Pain Drain\libraries\lvgl\src\hal\../core/lv_obj_style.h ****  * @param style     pointer to a style to remove. Can be NULL to check only the selector
  81:..\..\..\arduinoLCD\test\Pain Drain\libraries\lvgl\src\hal\../core/lv_obj_style.h ****  * @param selector  OR-ed values of states and a part to remove only styles with matching selectors
  82:..\..\..\arduinoLCD\test\Pain Drain\libraries\lvgl\src\hal\../core/lv_obj_style.h ****  * @example lv_obj_remove_style(obj, &style, LV_PART_ANY | LV_STATE_ANY); //Remove a specific style
  83:..\..\..\arduinoLCD\test\Pain Drain\libraries\lvgl\src\hal\../core/lv_obj_style.h ****  * @example lv_obj_remove_style(obj, NULL, LV_PART_MAIN | LV_STATE_ANY); //Remove all styles from t
  84:..\..\..\arduinoLCD\test\Pain Drain\libraries\lvgl\src\hal\../core/lv_obj_style.h ****  * @example lv_obj_remove_style(obj, NULL, LV_PART_ANY | LV_STATE_ANY); //Remove all styles
  85:..\..\..\arduinoLCD\test\Pain Drain\libraries\lvgl\src\hal\../core/lv_obj_style.h ****  */
  86:..\..\..\arduinoLCD\test\Pain Drain\libraries\lvgl\src\hal\../core/lv_obj_style.h **** void lv_obj_remove_style(struct _lv_obj_t * obj, lv_style_t * style, lv_style_selector_t selector);
  87:..\..\..\arduinoLCD\test\Pain Drain\libraries\lvgl\src\hal\../core/lv_obj_style.h **** 
  88:..\..\..\arduinoLCD\test\Pain Drain\libraries\lvgl\src\hal\../core/lv_obj_style.h **** /**
  89:..\..\..\arduinoLCD\test\Pain Drain\libraries\lvgl\src\hal\../core/lv_obj_style.h ****  * Remove all styles from an object
  90:..\..\..\arduinoLCD\test\Pain Drain\libraries\lvgl\src\hal\../core/lv_obj_style.h ****  * @param obj       pointer to an object
  91:..\..\..\arduinoLCD\test\Pain Drain\libraries\lvgl\src\hal\../core/lv_obj_style.h ****  */
  92:..\..\..\arduinoLCD\test\Pain Drain\libraries\lvgl\src\hal\../core/lv_obj_style.h **** static inline void lv_obj_remove_style_all(struct _lv_obj_t * obj)
  93:..\..\..\arduinoLCD\test\Pain Drain\libraries\lvgl\src\hal\../core/lv_obj_style.h **** {
  94:..\..\..\arduinoLCD\test\Pain Drain\libraries\lvgl\src\hal\../core/lv_obj_style.h ****     lv_obj_remove_style(obj, NULL, LV_PART_ANY | LV_STATE_ANY);
 1111              		.loc 3 94 0
 1112 00f0 1B4D     		ldr	r5, .L58+20
 1113 00f2 2A00     		movs	r2, r5
 1114 00f4 0021     		movs	r1, #0
 1115 00f6 E069     		ldr	r0, [r4, #28]
 1116 00f8 FFF7FEFF 		bl	lv_obj_remove_style
 1117              	.LVL144:
 1118              	.LBE56:
 1119              	.LBE55:
 1120              	.LBB57:
 1121              	.LBB58:
 1122 00fc 2A00     		movs	r2, r5
 1123 00fe 0021     		movs	r1, #0
 1124 0100 206A     		ldr	r0, [r4, #32]
 1125 0102 FFF7FEFF 		bl	lv_obj_remove_style
 1126              	.LVL145:
 1127              	.LBE58:
 1128              	.LBE57:
 223:..\..\..\arduinoLCD\test\Pain Drain\libraries\lvgl\src\hal/lv_hal_disp.c ****     lv_obj_clear_flag(disp->sys_layer, LV_OBJ_FLAG_CLICKABLE);
 1129              		.loc 1 223 0
 1130 0106 0221     		movs	r1, #2
 1131 0108 E069     		ldr	r0, [r4, #28]
 1132 010a FFF7FEFF 		bl	lv_obj_clear_flag
 1133              	.LVL146:
 224:..\..\..\arduinoLCD\test\Pain Drain\libraries\lvgl\src\hal/lv_hal_disp.c **** 
 1134              		.loc 1 224 0
 1135 010e 0221     		movs	r1, #2
 1136 0110 206A     		ldr	r0, [r4, #32]
 1137 0112 FFF7FEFF 		bl	lv_obj_clear_flag
 1138              	.LVL147:
 226:..\..\..\arduinoLCD\test\Pain Drain\libraries\lvgl\src\hal/lv_hal_disp.c ****     lv_obj_set_scrollbar_mode(disp->sys_layer, LV_SCROLLBAR_MODE_OFF);
 1139              		.loc 1 226 0
 1140 0116 0021     		movs	r1, #0
 1141 0118 E069     		ldr	r0, [r4, #28]
 1142 011a FFF7FEFF 		bl	lv_obj_set_scrollbar_mode
 1143              	.LVL148:
 227:..\..\..\arduinoLCD\test\Pain Drain\libraries\lvgl\src\hal/lv_hal_disp.c **** 
 1144              		.loc 1 227 0
 1145 011e 0021     		movs	r1, #0
 1146 0120 206A     		ldr	r0, [r4, #32]
 1147 0122 FFF7FEFF 		bl	lv_obj_set_scrollbar_mode
ARM GAS  C:\Users\haske\AppData\Local\Temp\ccN8jSR9.s 			page 48


 1148              	.LVL149:
 229:..\..\..\arduinoLCD\test\Pain Drain\libraries\lvgl\src\hal/lv_hal_disp.c **** 
 1149              		.loc 1 229 0
 1150 0126 2069     		ldr	r0, [r4, #16]
 1151 0128 FFF7FEFF 		bl	lv_obj_invalidate
 1152              	.LVL150:
 231:..\..\..\arduinoLCD\test\Pain Drain\libraries\lvgl\src\hal/lv_hal_disp.c ****     if(disp_def == NULL) disp_def = disp; /*Initialize the default display*/
 1153              		.loc 1 231 0
 1154 012c 084B     		ldr	r3, .L58+4
 1155 012e 1E61     		str	r6, [r3, #16]
 232:..\..\..\arduinoLCD\test\Pain Drain\libraries\lvgl\src\hal/lv_hal_disp.c **** 
 1156              		.loc 1 232 0
 1157 0130 002E     		cmp	r6, #0
 1158 0132 00D1     		bne	.L55
 232:..\..\..\arduinoLCD\test\Pain Drain\libraries\lvgl\src\hal/lv_hal_disp.c **** 
 1159              		.loc 1 232 0 is_stmt 0 discriminator 1
 1160 0134 1C61     		str	r4, [r3, #16]
 1161              	.L55:
 234:..\..\..\arduinoLCD\test\Pain Drain\libraries\lvgl\src\hal/lv_hal_disp.c **** 
 1162              		.loc 1 234 0 is_stmt 1
 1163 0136 6068     		ldr	r0, [r4, #4]
 1164 0138 FFF7FEFF 		bl	lv_timer_ready
 1165              	.LVL151:
 236:..\..\..\arduinoLCD\test\Pain Drain\libraries\lvgl\src\hal/lv_hal_disp.c **** }
 1166              		.loc 1 236 0
 1167 013c 2000     		movs	r0, r4
 1168 013e 02E0     		b	.L45
 1169              	.LVL152:
 1170              	.L56:
 167:..\..\..\arduinoLCD\test\Pain Drain\libraries\lvgl\src\hal/lv_hal_disp.c ****     }
 1171              		.loc 1 167 0
 1172 0140 0020     		movs	r0, #0
 1173              	.LVL153:
 1174 0142 00E0     		b	.L45
 1175              	.LVL154:
 1176              	.L57:
 1177              	.LBB59:
 174:..\..\..\arduinoLCD\test\Pain Drain\libraries\lvgl\src\hal/lv_hal_disp.c ****         driver->draw_ctx_init(driver, draw_ctx);
 1178              		.loc 1 174 0
 1179 0144 0020     		movs	r0, #0
 1180              	.LVL155:
 1181              	.L45:
 1182              	.LBE59:
 237:..\..\..\arduinoLCD\test\Pain Drain\libraries\lvgl\src\hal/lv_hal_disp.c **** 
 1183              		.loc 1 237 0
 1184 0146 02B0     		add	sp, sp, #8
 1185              		@ sp needed
 1186              	.LVL156:
 1187 0148 70BD     		pop	{r4, r5, r6, pc}
 1188              	.L59:
 1189 014a C046     		.align	2
 1190              	.L58:
 1191 014c 00000000 		.word	_lv_disp_ll
 1192 0150 00000000 		.word	.LANCHOR0
 1193 0154 00000000 		.word	_lv_disp_refr_timer
 1194 0158 00F8FFFF 		.word	-2048
 1195 015c 00000000 		.word	lv_font_montserrat_14
ARM GAS  C:\Users\haske\AppData\Local\Temp\ccN8jSR9.s 			page 49


 1196 0160 FFFF0F00 		.word	1048575
 1197              		.cfi_endproc
 1198              	.LFE161:
 1199              		.size	lv_disp_drv_register, .-lv_disp_drv_register
 1200              		.section	.text.lv_disp_set_default,"ax",%progbits
 1201              		.align	2
 1202              		.global	lv_disp_set_default
 1203              		.code	16
 1204              		.thumb_func
 1205              		.type	lv_disp_set_default, %function
 1206              	lv_disp_set_default:
 1207              	.LFB164:
 326:..\..\..\arduinoLCD\test\Pain Drain\libraries\lvgl\src\hal/lv_hal_disp.c ****     disp_def = disp;
 1208              		.loc 1 326 0
 1209              		.cfi_startproc
 1210              		@ args = 0, pretend = 0, frame = 0
 1211              		@ frame_needed = 0, uses_anonymous_args = 0
 1212              		@ link register save eliminated.
 1213              	.LVL157:
 327:..\..\..\arduinoLCD\test\Pain Drain\libraries\lvgl\src\hal/lv_hal_disp.c **** }
 1214              		.loc 1 327 0
 1215 0000 014B     		ldr	r3, .L61
 1216 0002 1861     		str	r0, [r3, #16]
 328:..\..\..\arduinoLCD\test\Pain Drain\libraries\lvgl\src\hal/lv_hal_disp.c **** 
 1217              		.loc 1 328 0
 1218              		@ sp needed
 1219 0004 7047     		bx	lr
 1220              	.L62:
 1221 0006 C046     		.align	2
 1222              	.L61:
 1223 0008 00000000 		.word	.LANCHOR0
 1224              		.cfi_endproc
 1225              	.LFE164:
 1226              		.size	lv_disp_set_default, .-lv_disp_set_default
 1227              		.section	.text.lv_disp_get_default,"ax",%progbits
 1228              		.align	2
 1229              		.global	lv_disp_get_default
 1230              		.code	16
 1231              		.thumb_func
 1232              		.type	lv_disp_get_default, %function
 1233              	lv_disp_get_default:
 1234              	.LFB165:
 335:..\..\..\arduinoLCD\test\Pain Drain\libraries\lvgl\src\hal/lv_hal_disp.c ****     return disp_def;
 1235              		.loc 1 335 0
 1236              		.cfi_startproc
 1237              		@ args = 0, pretend = 0, frame = 0
 1238              		@ frame_needed = 0, uses_anonymous_args = 0
 1239              		@ link register save eliminated.
 336:..\..\..\arduinoLCD\test\Pain Drain\libraries\lvgl\src\hal/lv_hal_disp.c **** }
 1240              		.loc 1 336 0
 1241 0000 014B     		ldr	r3, .L64
 1242 0002 1869     		ldr	r0, [r3, #16]
 337:..\..\..\arduinoLCD\test\Pain Drain\libraries\lvgl\src\hal/lv_hal_disp.c **** 
 1243              		.loc 1 337 0
 1244              		@ sp needed
 1245 0004 7047     		bx	lr
 1246              	.L65:
ARM GAS  C:\Users\haske\AppData\Local\Temp\ccN8jSR9.s 			page 50


 1247 0006 C046     		.align	2
 1248              	.L64:
 1249 0008 00000000 		.word	.LANCHOR0
 1250              		.cfi_endproc
 1251              	.LFE165:
 1252              		.size	lv_disp_get_default, .-lv_disp_get_default
 1253              		.section	.text.lv_disp_remove,"ax",%progbits
 1254              		.align	2
 1255              		.global	lv_disp_remove
 1256              		.code	16
 1257              		.thumb_func
 1258              		.type	lv_disp_remove, %function
 1259              	lv_disp_remove:
 1260              	.LFB163:
 286:..\..\..\arduinoLCD\test\Pain Drain\libraries\lvgl\src\hal/lv_hal_disp.c ****     bool was_default = false;
 1261              		.loc 1 286 0
 1262              		.cfi_startproc
 1263              		@ args = 0, pretend = 0, frame = 0
 1264              		@ frame_needed = 0, uses_anonymous_args = 0
 1265              	.LVL158:
 1266 0000 70B5     		push	{r4, r5, r6, lr}
 1267              		.cfi_def_cfa_offset 16
 1268              		.cfi_offset 4, -16
 1269              		.cfi_offset 5, -12
 1270              		.cfi_offset 6, -8
 1271              		.cfi_offset 14, -4
 1272 0002 0400     		movs	r4, r0
 1273              	.LVL159:
 288:..\..\..\arduinoLCD\test\Pain Drain\libraries\lvgl\src\hal/lv_hal_disp.c **** 
 1274              		.loc 1 288 0
 1275 0004 FFF7FEFF 		bl	lv_disp_get_default
 1276              	.LVL160:
 1277 0008 A042     		cmp	r0, r4
 1278 000a 01D0     		beq	.L77
 287:..\..\..\arduinoLCD\test\Pain Drain\libraries\lvgl\src\hal/lv_hal_disp.c ****     if(disp == lv_disp_get_default()) was_default = true;
 1279              		.loc 1 287 0
 1280 000c 0025     		movs	r5, #0
 1281 000e 00E0     		b	.L67
 1282              	.L77:
 288:..\..\..\arduinoLCD\test\Pain Drain\libraries\lvgl\src\hal/lv_hal_disp.c **** 
 1283              		.loc 1 288 0
 1284 0010 0125     		movs	r5, #1
 1285              	.L67:
 1286              	.LVL161:
 292:..\..\..\arduinoLCD\test\Pain Drain\libraries\lvgl\src\hal/lv_hal_disp.c ****     while(indev) {
 1287              		.loc 1 292 0
 1288 0012 0020     		movs	r0, #0
 1289 0014 FFF7FEFF 		bl	lv_indev_get_next
 1290              	.LVL162:
 293:..\..\..\arduinoLCD\test\Pain Drain\libraries\lvgl\src\hal/lv_hal_disp.c ****         if(indev->driver->disp == disp) {
 1291              		.loc 1 293 0
 1292 0018 07E0     		b	.L68
 1293              	.L70:
 294:..\..\..\arduinoLCD\test\Pain Drain\libraries\lvgl\src\hal/lv_hal_disp.c ****             indev->driver->disp = NULL;
 1294              		.loc 1 294 0
 1295 001a 0368     		ldr	r3, [r0]
 1296 001c 1A69     		ldr	r2, [r3, #16]
ARM GAS  C:\Users\haske\AppData\Local\Temp\ccN8jSR9.s 			page 51


 1297 001e 9442     		cmp	r4, r2
 1298 0020 01D1     		bne	.L69
 295:..\..\..\arduinoLCD\test\Pain Drain\libraries\lvgl\src\hal/lv_hal_disp.c ****         }
 1299              		.loc 1 295 0
 1300 0022 0022     		movs	r2, #0
 1301 0024 1A61     		str	r2, [r3, #16]
 1302              	.L69:
 297:..\..\..\arduinoLCD\test\Pain Drain\libraries\lvgl\src\hal/lv_hal_disp.c ****     }
 1303              		.loc 1 297 0
 1304 0026 FFF7FEFF 		bl	lv_indev_get_next
 1305              	.LVL163:
 1306              	.L68:
 293:..\..\..\arduinoLCD\test\Pain Drain\libraries\lvgl\src\hal/lv_hal_disp.c ****         if(indev->driver->disp == disp) {
 1307              		.loc 1 293 0
 1308 002a 0028     		cmp	r0, #0
 1309 002c F5D1     		bne	.L70
 301:..\..\..\arduinoLCD\test\Pain Drain\libraries\lvgl\src\hal/lv_hal_disp.c ****         lv_obj_del(disp->sys_layer);
 1310              		.loc 1 301 0
 1311 002e 206A     		ldr	r0, [r4, #32]
 1312              	.LVL164:
 1313 0030 0028     		cmp	r0, #0
 1314 0032 03D0     		beq	.L71
 302:..\..\..\arduinoLCD\test\Pain Drain\libraries\lvgl\src\hal/lv_hal_disp.c ****         disp->sys_layer = NULL;
 1315              		.loc 1 302 0
 1316 0034 FFF7FEFF 		bl	lv_obj_del
 1317              	.LVL165:
 303:..\..\..\arduinoLCD\test\Pain Drain\libraries\lvgl\src\hal/lv_hal_disp.c ****     }
 1318              		.loc 1 303 0
 1319 0038 0023     		movs	r3, #0
 1320 003a 2362     		str	r3, [r4, #32]
 1321              	.L71:
 305:..\..\..\arduinoLCD\test\Pain Drain\libraries\lvgl\src\hal/lv_hal_disp.c ****         lv_obj_del(disp->top_layer);
 1322              		.loc 1 305 0
 1323 003c E069     		ldr	r0, [r4, #28]
 1324 003e 0028     		cmp	r0, #0
 1325 0040 08D0     		beq	.L73
 306:..\..\..\arduinoLCD\test\Pain Drain\libraries\lvgl\src\hal/lv_hal_disp.c ****         disp->top_layer = NULL;
 1326              		.loc 1 306 0
 1327 0042 FFF7FEFF 		bl	lv_obj_del
 1328              	.LVL166:
 307:..\..\..\arduinoLCD\test\Pain Drain\libraries\lvgl\src\hal/lv_hal_disp.c ****     }
 1329              		.loc 1 307 0
 1330 0046 0023     		movs	r3, #0
 1331 0048 E361     		str	r3, [r4, #28]
 1332 004a 03E0     		b	.L73
 1333              	.L74:
 311:..\..\..\arduinoLCD\test\Pain Drain\libraries\lvgl\src\hal/lv_hal_disp.c ****     }
 1334              		.loc 1 311 0
 1335 004c E368     		ldr	r3, [r4, #12]
 1336 004e 1868     		ldr	r0, [r3]
 1337 0050 FFF7FEFF 		bl	lv_obj_del
 1338              	.LVL167:
 1339              	.L73:
 309:..\..\..\arduinoLCD\test\Pain Drain\libraries\lvgl\src\hal/lv_hal_disp.c ****         /*Delete the screenst*/
 1340              		.loc 1 309 0
 1341 0054 636A     		ldr	r3, [r4, #36]
 1342 0056 002B     		cmp	r3, #0
ARM GAS  C:\Users\haske\AppData\Local\Temp\ccN8jSR9.s 			page 52


 1343 0058 F8D1     		bne	.L74
 314:..\..\..\arduinoLCD\test\Pain Drain\libraries\lvgl\src\hal/lv_hal_disp.c ****     if(disp->refr_timer) lv_timer_del(disp->refr_timer);
 1344              		.loc 1 314 0
 1345 005a 2100     		movs	r1, r4
 1346 005c 0948     		ldr	r0, .L78
 1347 005e FFF7FEFF 		bl	_lv_ll_remove
 1348              	.LVL168:
 315:..\..\..\arduinoLCD\test\Pain Drain\libraries\lvgl\src\hal/lv_hal_disp.c ****     lv_mem_free(disp);
 1349              		.loc 1 315 0
 1350 0062 6068     		ldr	r0, [r4, #4]
 1351 0064 0028     		cmp	r0, #0
 1352 0066 01D0     		beq	.L75
 315:..\..\..\arduinoLCD\test\Pain Drain\libraries\lvgl\src\hal/lv_hal_disp.c ****     lv_mem_free(disp);
 1353              		.loc 1 315 0 is_stmt 0 discriminator 1
 1354 0068 FFF7FEFF 		bl	lv_timer_del
 1355              	.LVL169:
 1356              	.L75:
 316:..\..\..\arduinoLCD\test\Pain Drain\libraries\lvgl\src\hal/lv_hal_disp.c **** 
 1357              		.loc 1 316 0 is_stmt 1
 1358 006c 2000     		movs	r0, r4
 1359 006e FFF7FEFF 		bl	lv_mem_free
 1360              	.LVL170:
 318:..\..\..\arduinoLCD\test\Pain Drain\libraries\lvgl\src\hal/lv_hal_disp.c **** }
 1361              		.loc 1 318 0
 1362 0072 002D     		cmp	r5, #0
 1363 0074 04D0     		beq	.L66
 318:..\..\..\arduinoLCD\test\Pain Drain\libraries\lvgl\src\hal/lv_hal_disp.c **** }
 1364              		.loc 1 318 0 is_stmt 0 discriminator 1
 1365 0076 0348     		ldr	r0, .L78
 1366 0078 FFF7FEFF 		bl	_lv_ll_get_head
 1367              	.LVL171:
 1368 007c FFF7FEFF 		bl	lv_disp_set_default
 1369              	.LVL172:
 1370              	.L66:
 319:..\..\..\arduinoLCD\test\Pain Drain\libraries\lvgl\src\hal/lv_hal_disp.c **** 
 1371              		.loc 1 319 0 is_stmt 1
 1372              		@ sp needed
 1373              	.LVL173:
 1374              	.LVL174:
 1375 0080 70BD     		pop	{r4, r5, r6, pc}
 1376              	.L79:
 1377 0082 C046     		.align	2
 1378              	.L78:
 1379 0084 00000000 		.word	_lv_disp_ll
 1380              		.cfi_endproc
 1381              	.LFE163:
 1382              		.size	lv_disp_remove, .-lv_disp_remove
 1383              		.section	.text.lv_disp_get_hor_res,"ax",%progbits
 1384              		.align	2
 1385              		.global	lv_disp_get_hor_res
 1386              		.code	16
 1387              		.thumb_func
 1388              		.type	lv_disp_get_hor_res, %function
 1389              	lv_disp_get_hor_res:
 1390              	.LFB166:
 345:..\..\..\arduinoLCD\test\Pain Drain\libraries\lvgl\src\hal/lv_hal_disp.c ****     if(disp == NULL) disp = lv_disp_get_default();
 1391              		.loc 1 345 0
ARM GAS  C:\Users\haske\AppData\Local\Temp\ccN8jSR9.s 			page 53


 1392              		.cfi_startproc
 1393              		@ args = 0, pretend = 0, frame = 0
 1394              		@ frame_needed = 0, uses_anonymous_args = 0
 1395              	.LVL175:
 1396 0000 10B5     		push	{r4, lr}
 1397              		.cfi_def_cfa_offset 8
 1398              		.cfi_offset 4, -8
 1399              		.cfi_offset 14, -4
 346:..\..\..\arduinoLCD\test\Pain Drain\libraries\lvgl\src\hal/lv_hal_disp.c **** 
 1400              		.loc 1 346 0
 1401 0002 0028     		cmp	r0, #0
 1402 0004 01D1     		bne	.L81
 346:..\..\..\arduinoLCD\test\Pain Drain\libraries\lvgl\src\hal/lv_hal_disp.c **** 
 1403              		.loc 1 346 0 is_stmt 0 discriminator 1
 1404 0006 FFF7FEFF 		bl	lv_disp_get_default
 1405              	.LVL176:
 1406              	.L81:
 348:..\..\..\arduinoLCD\test\Pain Drain\libraries\lvgl\src\hal/lv_hal_disp.c ****         return 0;
 1407              		.loc 1 348 0 is_stmt 1
 1408 000a 0028     		cmp	r0, #0
 1409 000c 0DD0     		beq	.L85
 352:..\..\..\arduinoLCD\test\Pain Drain\libraries\lvgl\src\hal/lv_hal_disp.c ****             case LV_DISP_ROT_90:
 1410              		.loc 1 352 0
 1411 000e 0268     		ldr	r2, [r0]
 1412 0010 137C     		ldrb	r3, [r2, #16]
 1413 0012 9B06     		lsls	r3, r3, #26
 1414 0014 9B0F     		lsrs	r3, r3, #30
 1415 0016 012B     		cmp	r3, #1
 1416 0018 01D0     		beq	.L84
 1417 001a 032B     		cmp	r3, #3
 1418 001c 02D1     		bne	.L86
 1419              	.L84:
 355:..\..\..\arduinoLCD\test\Pain Drain\libraries\lvgl\src\hal/lv_hal_disp.c ****             default:
 1420              		.loc 1 355 0
 1421 001e 0223     		movs	r3, #2
 1422 0020 D05E     		ldrsh	r0, [r2, r3]
 1423              	.LVL177:
 1424 0022 03E0     		b	.L82
 1425              	.LVL178:
 1426              	.L86:
 357:..\..\..\arduinoLCD\test\Pain Drain\libraries\lvgl\src\hal/lv_hal_disp.c ****         }
 1427              		.loc 1 357 0
 1428 0024 0023     		movs	r3, #0
 1429 0026 D05E     		ldrsh	r0, [r2, r3]
 1430              	.LVL179:
 1431 0028 00E0     		b	.L82
 1432              	.LVL180:
 1433              	.L85:
 349:..\..\..\arduinoLCD\test\Pain Drain\libraries\lvgl\src\hal/lv_hal_disp.c ****     }
 1434              		.loc 1 349 0
 1435 002a 0020     		movs	r0, #0
 1436              	.LVL181:
 1437              	.L82:
 360:..\..\..\arduinoLCD\test\Pain Drain\libraries\lvgl\src\hal/lv_hal_disp.c **** 
 1438              		.loc 1 360 0
 1439              		@ sp needed
 1440 002c 10BD     		pop	{r4, pc}
ARM GAS  C:\Users\haske\AppData\Local\Temp\ccN8jSR9.s 			page 54


 1441              		.cfi_endproc
 1442              	.LFE166:
 1443              		.size	lv_disp_get_hor_res, .-lv_disp_get_hor_res
 1444 002e C046     		.section	.text.lv_disp_get_ver_res,"ax",%progbits
 1445              		.align	2
 1446              		.global	lv_disp_get_ver_res
 1447              		.code	16
 1448              		.thumb_func
 1449              		.type	lv_disp_get_ver_res, %function
 1450              	lv_disp_get_ver_res:
 1451              	.LFB167:
 368:..\..\..\arduinoLCD\test\Pain Drain\libraries\lvgl\src\hal/lv_hal_disp.c ****     if(disp == NULL) disp = lv_disp_get_default();
 1452              		.loc 1 368 0
 1453              		.cfi_startproc
 1454              		@ args = 0, pretend = 0, frame = 0
 1455              		@ frame_needed = 0, uses_anonymous_args = 0
 1456              	.LVL182:
 1457 0000 10B5     		push	{r4, lr}
 1458              		.cfi_def_cfa_offset 8
 1459              		.cfi_offset 4, -8
 1460              		.cfi_offset 14, -4
 369:..\..\..\arduinoLCD\test\Pain Drain\libraries\lvgl\src\hal/lv_hal_disp.c **** 
 1461              		.loc 1 369 0
 1462 0002 0028     		cmp	r0, #0
 1463 0004 01D1     		bne	.L88
 369:..\..\..\arduinoLCD\test\Pain Drain\libraries\lvgl\src\hal/lv_hal_disp.c **** 
 1464              		.loc 1 369 0 is_stmt 0 discriminator 1
 1465 0006 FFF7FEFF 		bl	lv_disp_get_default
 1466              	.LVL183:
 1467              	.L88:
 371:..\..\..\arduinoLCD\test\Pain Drain\libraries\lvgl\src\hal/lv_hal_disp.c ****         return 0;
 1468              		.loc 1 371 0 is_stmt 1
 1469 000a 0028     		cmp	r0, #0
 1470 000c 0DD0     		beq	.L92
 375:..\..\..\arduinoLCD\test\Pain Drain\libraries\lvgl\src\hal/lv_hal_disp.c ****             case LV_DISP_ROT_90:
 1471              		.loc 1 375 0
 1472 000e 0268     		ldr	r2, [r0]
 1473 0010 137C     		ldrb	r3, [r2, #16]
 1474 0012 9B06     		lsls	r3, r3, #26
 1475 0014 9B0F     		lsrs	r3, r3, #30
 1476 0016 012B     		cmp	r3, #1
 1477 0018 01D0     		beq	.L91
 1478 001a 032B     		cmp	r3, #3
 1479 001c 02D1     		bne	.L93
 1480              	.L91:
 378:..\..\..\arduinoLCD\test\Pain Drain\libraries\lvgl\src\hal/lv_hal_disp.c ****             default:
 1481              		.loc 1 378 0
 1482 001e 0023     		movs	r3, #0
 1483 0020 D05E     		ldrsh	r0, [r2, r3]
 1484              	.LVL184:
 1485 0022 03E0     		b	.L89
 1486              	.LVL185:
 1487              	.L93:
 380:..\..\..\arduinoLCD\test\Pain Drain\libraries\lvgl\src\hal/lv_hal_disp.c ****         }
 1488              		.loc 1 380 0
 1489 0024 0223     		movs	r3, #2
 1490 0026 D05E     		ldrsh	r0, [r2, r3]
ARM GAS  C:\Users\haske\AppData\Local\Temp\ccN8jSR9.s 			page 55


 1491              	.LVL186:
 1492 0028 00E0     		b	.L89
 1493              	.LVL187:
 1494              	.L92:
 372:..\..\..\arduinoLCD\test\Pain Drain\libraries\lvgl\src\hal/lv_hal_disp.c ****     }
 1495              		.loc 1 372 0
 1496 002a 0020     		movs	r0, #0
 1497              	.LVL188:
 1498              	.L89:
 383:..\..\..\arduinoLCD\test\Pain Drain\libraries\lvgl\src\hal/lv_hal_disp.c **** 
 1499              		.loc 1 383 0
 1500              		@ sp needed
 1501 002c 10BD     		pop	{r4, pc}
 1502              		.cfi_endproc
 1503              	.LFE167:
 1504              		.size	lv_disp_get_ver_res, .-lv_disp_get_ver_res
 1505 002e C046     		.section	.text.lv_disp_drv_update,"ax",%progbits
 1506              		.align	2
 1507              		.global	lv_disp_drv_update
 1508              		.code	16
 1509              		.thumb_func
 1510              		.type	lv_disp_drv_update, %function
 1511              	lv_disp_drv_update:
 1512              	.LFB162:
 245:..\..\..\arduinoLCD\test\Pain Drain\libraries\lvgl\src\hal/lv_hal_disp.c ****     disp->driver = new_drv;
 1513              		.loc 1 245 0
 1514              		.cfi_startproc
 1515              		@ args = 0, pretend = 0, frame = 16
 1516              		@ frame_needed = 0, uses_anonymous_args = 0
 1517              	.LVL189:
 1518 0000 F0B5     		push	{r4, r5, r6, r7, lr}
 1519              		.cfi_def_cfa_offset 20
 1520              		.cfi_offset 4, -20
 1521              		.cfi_offset 5, -16
 1522              		.cfi_offset 6, -12
 1523              		.cfi_offset 7, -8
 1524              		.cfi_offset 14, -4
 1525 0002 85B0     		sub	sp, sp, #20
 1526              		.cfi_def_cfa_offset 40
 1527 0004 0400     		movs	r4, r0
 246:..\..\..\arduinoLCD\test\Pain Drain\libraries\lvgl\src\hal/lv_hal_disp.c **** 
 1528              		.loc 1 246 0
 1529 0006 0160     		str	r1, [r0]
 248:..\..\..\arduinoLCD\test\Pain Drain\libraries\lvgl\src\hal/lv_hal_disp.c ****        disp->driver->draw_buf->size < (uint32_t)disp->driver->hor_res * disp->driver->ver_res) {
 1530              		.loc 1 248 0
 1531 0008 0B7C     		ldrb	r3, [r1, #16]
 1532 000a 9B07     		lsls	r3, r3, #30
 1533 000c 0CD5     		bpl	.L95
 249:..\..\..\arduinoLCD\test\Pain Drain\libraries\lvgl\src\hal/lv_hal_disp.c ****         disp->driver->full_refresh = 0;
 1534              		.loc 1 249 0 discriminator 1
 1535 000e CB68     		ldr	r3, [r1, #12]
 1536 0010 DA68     		ldr	r2, [r3, #12]
 1537 0012 0020     		movs	r0, #0
 1538 0014 0B5E     		ldrsh	r3, [r1, r0]
 1539              	.LVL190:
 1540 0016 0225     		movs	r5, #2
 1541 0018 485F     		ldrsh	r0, [r1, r5]
ARM GAS  C:\Users\haske\AppData\Local\Temp\ccN8jSR9.s 			page 56


 1542 001a 4343     		muls	r3, r0
 248:..\..\..\arduinoLCD\test\Pain Drain\libraries\lvgl\src\hal/lv_hal_disp.c ****        disp->driver->draw_buf->size < (uint32_t)disp->driver->hor_res * disp->driver->ver_res) {
 1543              		.loc 1 248 0 discriminator 1
 1544 001c 9A42     		cmp	r2, r3
 1545 001e 03D2     		bcs	.L95
 250:..\..\..\arduinoLCD\test\Pain Drain\libraries\lvgl\src\hal/lv_hal_disp.c ****         LV_LOG_WARN("full_refresh requires at least screen sized draw buffer(s)");
 1546              		.loc 1 250 0
 1547 0020 0B7C     		ldrb	r3, [r1, #16]
 1548 0022 0222     		movs	r2, #2
 1549 0024 9343     		bics	r3, r2
 1550 0026 0B74     		strb	r3, [r1, #16]
 1551              	.L95:
 254:..\..\..\arduinoLCD\test\Pain Drain\libraries\lvgl\src\hal/lv_hal_disp.c ****     lv_coord_t h = lv_disp_get_ver_res(disp);
 1552              		.loc 1 254 0
 1553 0028 2000     		movs	r0, r4
 1554 002a FFF7FEFF 		bl	lv_disp_get_hor_res
 1555              	.LVL191:
 1556 002e 0700     		movs	r7, r0
 1557              	.LVL192:
 255:..\..\..\arduinoLCD\test\Pain Drain\libraries\lvgl\src\hal/lv_hal_disp.c ****     uint32_t i;
 1558              		.loc 1 255 0
 1559 0030 2000     		movs	r0, r4
 1560              	.LVL193:
 1561 0032 FFF7FEFF 		bl	lv_disp_get_ver_res
 1562              	.LVL194:
 1563 0036 0190     		str	r0, [sp, #4]
 1564              	.LVL195:
 257:..\..\..\arduinoLCD\test\Pain Drain\libraries\lvgl\src\hal/lv_hal_disp.c ****         lv_area_t prev_coords;
 1565              		.loc 1 257 0
 1566 0038 0026     		movs	r6, #0
 1567 003a 18E0     		b	.L96
 1568              	.LVL196:
 1569              	.L97:
 1570              	.LBB60:
 259:..\..\..\arduinoLCD\test\Pain Drain\libraries\lvgl\src\hal/lv_hal_disp.c ****         lv_area_set_width(&disp->screens[i]->coords, w);
 1571              		.loc 1 259 0 discriminator 3
 1572 003c B500     		lsls	r5, r6, #2
 1573 003e E368     		ldr	r3, [r4, #12]
 1574 0040 5859     		ldr	r0, [r3, r5]
 1575 0042 02A9     		add	r1, sp, #8
 1576 0044 FFF7FEFF 		bl	lv_obj_get_coords
 1577              	.LVL197:
 260:..\..\..\arduinoLCD\test\Pain Drain\libraries\lvgl\src\hal/lv_hal_disp.c ****         lv_area_set_height(&disp->screens[i]->coords, h);
 1578              		.loc 1 260 0 discriminator 3
 1579 0048 E368     		ldr	r3, [r4, #12]
 1580 004a 5859     		ldr	r0, [r3, r5]
 1581 004c 1430     		adds	r0, r0, #20
 1582 004e 3900     		movs	r1, r7
 1583 0050 FFF7FEFF 		bl	lv_area_set_width
 1584              	.LVL198:
 261:..\..\..\arduinoLCD\test\Pain Drain\libraries\lvgl\src\hal/lv_hal_disp.c ****         lv_event_send(disp->screens[i], LV_EVENT_SIZE_CHANGED, &prev_coords);
 1585              		.loc 1 261 0 discriminator 3
 1586 0054 E368     		ldr	r3, [r4, #12]
 1587 0056 5859     		ldr	r0, [r3, r5]
 1588 0058 1430     		adds	r0, r0, #20
 1589 005a 0199     		ldr	r1, [sp, #4]
 1590 005c FFF7FEFF 		bl	lv_area_set_height
ARM GAS  C:\Users\haske\AppData\Local\Temp\ccN8jSR9.s 			page 57


 1591              	.LVL199:
 262:..\..\..\arduinoLCD\test\Pain Drain\libraries\lvgl\src\hal/lv_hal_disp.c ****     }
 1592              		.loc 1 262 0 discriminator 3
 1593 0060 E368     		ldr	r3, [r4, #12]
 1594 0062 5859     		ldr	r0, [r3, r5]
 1595 0064 02AA     		add	r2, sp, #8
 1596 0066 2921     		movs	r1, #41
 1597 0068 FFF7FEFF 		bl	lv_event_send
 1598              	.LVL200:
 1599              	.LBE60:
 257:..\..\..\arduinoLCD\test\Pain Drain\libraries\lvgl\src\hal/lv_hal_disp.c ****         lv_area_t prev_coords;
 1600              		.loc 1 257 0 discriminator 3
 1601 006c 0136     		adds	r6, r6, #1
 1602              	.LVL201:
 1603              	.L96:
 257:..\..\..\arduinoLCD\test\Pain Drain\libraries\lvgl\src\hal/lv_hal_disp.c ****         lv_area_t prev_coords;
 1604              		.loc 1 257 0 is_stmt 0 discriminator 1
 1605 006e 636A     		ldr	r3, [r4, #36]
 1606 0070 9E42     		cmp	r6, r3
 1607 0072 E3D3     		bcc	.L97
 271:..\..\..\arduinoLCD\test\Pain Drain\libraries\lvgl\src\hal/lv_hal_disp.c ****     lv_memset_00(disp->inv_area_joined, sizeof(disp->inv_area_joined));
 1608              		.loc 1 271 0 is_stmt 1
 1609 0074 2000     		movs	r0, r4
 1610 0076 3030     		adds	r0, r0, #48
 1611 0078 8021     		movs	r1, #128
 1612 007a 4900     		lsls	r1, r1, #1
 1613 007c FFF7FEFF 		bl	lv_memset_00
 1614              	.LVL202:
 272:..\..\..\arduinoLCD\test\Pain Drain\libraries\lvgl\src\hal/lv_hal_disp.c ****     disp->inv_p = 0;
 1615              		.loc 1 272 0
 1616 0080 2000     		movs	r0, r4
 1617 0082 3130     		adds	r0, r0, #49
 1618 0084 FF30     		adds	r0, r0, #255
 1619 0086 2021     		movs	r1, #32
 1620 0088 FFF7FEFF 		bl	lv_memset_00
 1621              	.LVL203:
 273:..\..\..\arduinoLCD\test\Pain Drain\libraries\lvgl\src\hal/lv_hal_disp.c ****     if(disp->act_scr != NULL) lv_obj_invalidate(disp->act_scr);
 1622              		.loc 1 273 0
 1623 008c 0022     		movs	r2, #0
 1624 008e A823     		movs	r3, #168
 1625 0090 5B00     		lsls	r3, r3, #1
 1626 0092 E252     		strh	r2, [r4, r3]
 274:..\..\..\arduinoLCD\test\Pain Drain\libraries\lvgl\src\hal/lv_hal_disp.c **** 
 1627              		.loc 1 274 0
 1628 0094 2069     		ldr	r0, [r4, #16]
 1629 0096 0028     		cmp	r0, #0
 1630 0098 01D0     		beq	.L98
 274:..\..\..\arduinoLCD\test\Pain Drain\libraries\lvgl\src\hal/lv_hal_disp.c **** 
 1631              		.loc 1 274 0 is_stmt 0 discriminator 1
 1632 009a FFF7FEFF 		bl	lv_obj_invalidate
 1633              	.LVL204:
 1634              	.L98:
 276:..\..\..\arduinoLCD\test\Pain Drain\libraries\lvgl\src\hal/lv_hal_disp.c **** 
 1635              		.loc 1 276 0 is_stmt 1
 1636 009e 0022     		movs	r2, #0
 1637 00a0 0549     		ldr	r1, .L100
 1638 00a2 0020     		movs	r0, #0
ARM GAS  C:\Users\haske\AppData\Local\Temp\ccN8jSR9.s 			page 58


 1639 00a4 FFF7FEFF 		bl	lv_obj_tree_walk
 1640              	.LVL205:
 278:..\..\..\arduinoLCD\test\Pain Drain\libraries\lvgl\src\hal/lv_hal_disp.c **** }
 1641              		.loc 1 278 0
 1642 00a8 2068     		ldr	r0, [r4]
 1643 00aa 036B     		ldr	r3, [r0, #48]
 1644 00ac 002B     		cmp	r3, #0
 1645 00ae 00D0     		beq	.L94
 278:..\..\..\arduinoLCD\test\Pain Drain\libraries\lvgl\src\hal/lv_hal_disp.c **** }
 1646              		.loc 1 278 0 is_stmt 0 discriminator 1
 1647 00b0 9847     		blx	r3
 1648              	.LVL206:
 1649              	.L94:
 279:..\..\..\arduinoLCD\test\Pain Drain\libraries\lvgl\src\hal/lv_hal_disp.c **** 
 1650              		.loc 1 279 0 is_stmt 1
 1651 00b2 05B0     		add	sp, sp, #20
 1652              		@ sp needed
 1653              	.LVL207:
 1654              	.LVL208:
 1655              	.LVL209:
 1656 00b4 F0BD     		pop	{r4, r5, r6, r7, pc}
 1657              	.L101:
 1658 00b6 C046     		.align	2
 1659              	.L100:
 1660 00b8 00000000 		.word	invalidate_layout_cb
 1661              		.cfi_endproc
 1662              	.LFE162:
 1663              		.size	lv_disp_drv_update, .-lv_disp_drv_update
 1664              		.section	.text.lv_disp_get_physical_hor_res,"ax",%progbits
 1665              		.align	2
 1666              		.global	lv_disp_get_physical_hor_res
 1667              		.code	16
 1668              		.thumb_func
 1669              		.type	lv_disp_get_physical_hor_res, %function
 1670              	lv_disp_get_physical_hor_res:
 1671              	.LFB168:
 391:..\..\..\arduinoLCD\test\Pain Drain\libraries\lvgl\src\hal/lv_hal_disp.c ****     if(disp == NULL) disp = lv_disp_get_default();
 1672              		.loc 1 391 0
 1673              		.cfi_startproc
 1674              		@ args = 0, pretend = 0, frame = 0
 1675              		@ frame_needed = 0, uses_anonymous_args = 0
 1676              	.LVL210:
 1677 0000 10B5     		push	{r4, lr}
 1678              		.cfi_def_cfa_offset 8
 1679              		.cfi_offset 4, -8
 1680              		.cfi_offset 14, -4
 392:..\..\..\arduinoLCD\test\Pain Drain\libraries\lvgl\src\hal/lv_hal_disp.c **** 
 1681              		.loc 1 392 0
 1682 0002 0028     		cmp	r0, #0
 1683 0004 01D1     		bne	.L103
 392:..\..\..\arduinoLCD\test\Pain Drain\libraries\lvgl\src\hal/lv_hal_disp.c **** 
 1684              		.loc 1 392 0 is_stmt 0 discriminator 1
 1685 0006 FFF7FEFF 		bl	lv_disp_get_default
 1686              	.LVL211:
 1687              	.L103:
 394:..\..\..\arduinoLCD\test\Pain Drain\libraries\lvgl\src\hal/lv_hal_disp.c ****         return 0;
 1688              		.loc 1 394 0 is_stmt 1
ARM GAS  C:\Users\haske\AppData\Local\Temp\ccN8jSR9.s 			page 59


 1689 000a 0028     		cmp	r0, #0
 1690 000c 15D0     		beq	.L107
 398:..\..\..\arduinoLCD\test\Pain Drain\libraries\lvgl\src\hal/lv_hal_disp.c ****             case LV_DISP_ROT_90:
 1691              		.loc 1 398 0
 1692 000e 0268     		ldr	r2, [r0]
 1693 0010 137C     		ldrb	r3, [r2, #16]
 1694 0012 9B06     		lsls	r3, r3, #26
 1695 0014 9B0F     		lsrs	r3, r3, #30
 1696 0016 012B     		cmp	r3, #1
 1697 0018 01D0     		beq	.L106
 1698 001a 032B     		cmp	r3, #3
 1699 001c 06D1     		bne	.L108
 1700              	.L106:
 401:..\..\..\arduinoLCD\test\Pain Drain\libraries\lvgl\src\hal/lv_hal_disp.c ****             default:
 1701              		.loc 1 401 0
 1702 001e 0623     		movs	r3, #6
 1703 0020 D05E     		ldrsh	r0, [r2, r3]
 1704              	.LVL212:
 1705 0022 0028     		cmp	r0, #0
 1706 0024 0ADC     		bgt	.L104
 401:..\..\..\arduinoLCD\test\Pain Drain\libraries\lvgl\src\hal/lv_hal_disp.c ****             default:
 1707              		.loc 1 401 0 is_stmt 0 discriminator 2
 1708 0026 0223     		movs	r3, #2
 1709 0028 D05E     		ldrsh	r0, [r2, r3]
 1710 002a 07E0     		b	.L104
 1711              	.LVL213:
 1712              	.L108:
 403:..\..\..\arduinoLCD\test\Pain Drain\libraries\lvgl\src\hal/lv_hal_disp.c ****         }
 1713              		.loc 1 403 0 is_stmt 1
 1714 002c 0423     		movs	r3, #4
 1715 002e D05E     		ldrsh	r0, [r2, r3]
 1716              	.LVL214:
 1717 0030 0028     		cmp	r0, #0
 1718 0032 03DC     		bgt	.L104
 403:..\..\..\arduinoLCD\test\Pain Drain\libraries\lvgl\src\hal/lv_hal_disp.c ****         }
 1719              		.loc 1 403 0 is_stmt 0 discriminator 2
 1720 0034 0023     		movs	r3, #0
 1721 0036 D05E     		ldrsh	r0, [r2, r3]
 1722 0038 00E0     		b	.L104
 1723              	.LVL215:
 1724              	.L107:
 395:..\..\..\arduinoLCD\test\Pain Drain\libraries\lvgl\src\hal/lv_hal_disp.c ****     }
 1725              		.loc 1 395 0 is_stmt 1
 1726 003a 0020     		movs	r0, #0
 1727              	.LVL216:
 1728              	.L104:
 406:..\..\..\arduinoLCD\test\Pain Drain\libraries\lvgl\src\hal/lv_hal_disp.c **** 
 1729              		.loc 1 406 0
 1730              		@ sp needed
 1731 003c 10BD     		pop	{r4, pc}
 1732              		.cfi_endproc
 1733              	.LFE168:
 1734              		.size	lv_disp_get_physical_hor_res, .-lv_disp_get_physical_hor_res
 1735 003e C046     		.section	.text.lv_disp_get_physical_ver_res,"ax",%progbits
 1736              		.align	2
 1737              		.global	lv_disp_get_physical_ver_res
 1738              		.code	16
ARM GAS  C:\Users\haske\AppData\Local\Temp\ccN8jSR9.s 			page 60


 1739              		.thumb_func
 1740              		.type	lv_disp_get_physical_ver_res, %function
 1741              	lv_disp_get_physical_ver_res:
 1742              	.LFB169:
 414:..\..\..\arduinoLCD\test\Pain Drain\libraries\lvgl\src\hal/lv_hal_disp.c ****     if(disp == NULL) disp = lv_disp_get_default();
 1743              		.loc 1 414 0
 1744              		.cfi_startproc
 1745              		@ args = 0, pretend = 0, frame = 0
 1746              		@ frame_needed = 0, uses_anonymous_args = 0
 1747              	.LVL217:
 1748 0000 10B5     		push	{r4, lr}
 1749              		.cfi_def_cfa_offset 8
 1750              		.cfi_offset 4, -8
 1751              		.cfi_offset 14, -4
 415:..\..\..\arduinoLCD\test\Pain Drain\libraries\lvgl\src\hal/lv_hal_disp.c **** 
 1752              		.loc 1 415 0
 1753 0002 0028     		cmp	r0, #0
 1754 0004 01D1     		bne	.L110
 415:..\..\..\arduinoLCD\test\Pain Drain\libraries\lvgl\src\hal/lv_hal_disp.c **** 
 1755              		.loc 1 415 0 is_stmt 0 discriminator 1
 1756 0006 FFF7FEFF 		bl	lv_disp_get_default
 1757              	.LVL218:
 1758              	.L110:
 417:..\..\..\arduinoLCD\test\Pain Drain\libraries\lvgl\src\hal/lv_hal_disp.c ****         return 0;
 1759              		.loc 1 417 0 is_stmt 1
 1760 000a 0028     		cmp	r0, #0
 1761 000c 15D0     		beq	.L114
 421:..\..\..\arduinoLCD\test\Pain Drain\libraries\lvgl\src\hal/lv_hal_disp.c ****             case LV_DISP_ROT_90:
 1762              		.loc 1 421 0
 1763 000e 0268     		ldr	r2, [r0]
 1764 0010 137C     		ldrb	r3, [r2, #16]
 1765 0012 9B06     		lsls	r3, r3, #26
 1766 0014 9B0F     		lsrs	r3, r3, #30
 1767 0016 012B     		cmp	r3, #1
 1768 0018 01D0     		beq	.L113
 1769 001a 032B     		cmp	r3, #3
 1770 001c 06D1     		bne	.L115
 1771              	.L113:
 424:..\..\..\arduinoLCD\test\Pain Drain\libraries\lvgl\src\hal/lv_hal_disp.c ****             default:
 1772              		.loc 1 424 0
 1773 001e 0423     		movs	r3, #4
 1774 0020 D05E     		ldrsh	r0, [r2, r3]
 1775              	.LVL219:
 1776 0022 0028     		cmp	r0, #0
 1777 0024 0ADC     		bgt	.L111
 424:..\..\..\arduinoLCD\test\Pain Drain\libraries\lvgl\src\hal/lv_hal_disp.c ****             default:
 1778              		.loc 1 424 0 is_stmt 0 discriminator 2
 1779 0026 0023     		movs	r3, #0
 1780 0028 D05E     		ldrsh	r0, [r2, r3]
 1781 002a 07E0     		b	.L111
 1782              	.LVL220:
 1783              	.L115:
 426:..\..\..\arduinoLCD\test\Pain Drain\libraries\lvgl\src\hal/lv_hal_disp.c ****         }
 1784              		.loc 1 426 0 is_stmt 1
 1785 002c 0623     		movs	r3, #6
 1786 002e D05E     		ldrsh	r0, [r2, r3]
 1787              	.LVL221:
ARM GAS  C:\Users\haske\AppData\Local\Temp\ccN8jSR9.s 			page 61


 1788 0030 0028     		cmp	r0, #0
 1789 0032 03DC     		bgt	.L111
 426:..\..\..\arduinoLCD\test\Pain Drain\libraries\lvgl\src\hal/lv_hal_disp.c ****         }
 1790              		.loc 1 426 0 is_stmt 0 discriminator 2
 1791 0034 0223     		movs	r3, #2
 1792 0036 D05E     		ldrsh	r0, [r2, r3]
 1793 0038 00E0     		b	.L111
 1794              	.LVL222:
 1795              	.L114:
 418:..\..\..\arduinoLCD\test\Pain Drain\libraries\lvgl\src\hal/lv_hal_disp.c ****     }
 1796              		.loc 1 418 0 is_stmt 1
 1797 003a 0020     		movs	r0, #0
 1798              	.LVL223:
 1799              	.L111:
 429:..\..\..\arduinoLCD\test\Pain Drain\libraries\lvgl\src\hal/lv_hal_disp.c **** 
 1800              		.loc 1 429 0
 1801              		@ sp needed
 1802 003c 10BD     		pop	{r4, pc}
 1803              		.cfi_endproc
 1804              	.LFE169:
 1805              		.size	lv_disp_get_physical_ver_res, .-lv_disp_get_physical_ver_res
 1806 003e C046     		.section	.text.lv_disp_get_offset_x,"ax",%progbits
 1807              		.align	2
 1808              		.global	lv_disp_get_offset_x
 1809              		.code	16
 1810              		.thumb_func
 1811              		.type	lv_disp_get_offset_x, %function
 1812              	lv_disp_get_offset_x:
 1813              	.LFB170:
 437:..\..\..\arduinoLCD\test\Pain Drain\libraries\lvgl\src\hal/lv_hal_disp.c ****     if(disp == NULL) disp = lv_disp_get_default();
 1814              		.loc 1 437 0
 1815              		.cfi_startproc
 1816              		@ args = 0, pretend = 0, frame = 0
 1817              		@ frame_needed = 0, uses_anonymous_args = 0
 1818              	.LVL224:
 1819 0000 10B5     		push	{r4, lr}
 1820              		.cfi_def_cfa_offset 8
 1821              		.cfi_offset 4, -8
 1822              		.cfi_offset 14, -4
 438:..\..\..\arduinoLCD\test\Pain Drain\libraries\lvgl\src\hal/lv_hal_disp.c **** 
 1823              		.loc 1 438 0
 1824 0002 0028     		cmp	r0, #0
 1825 0004 01D1     		bne	.L117
 438:..\..\..\arduinoLCD\test\Pain Drain\libraries\lvgl\src\hal/lv_hal_disp.c **** 
 1826              		.loc 1 438 0 is_stmt 0 discriminator 1
 1827 0006 FFF7FEFF 		bl	lv_disp_get_default
 1828              	.LVL225:
 1829              	.L117:
 440:..\..\..\arduinoLCD\test\Pain Drain\libraries\lvgl\src\hal/lv_hal_disp.c ****         return 0;
 1830              		.loc 1 440 0 is_stmt 1
 1831 000a 0028     		cmp	r0, #0
 1832 000c 1CD0     		beq	.L123
 444:..\..\..\arduinoLCD\test\Pain Drain\libraries\lvgl\src\hal/lv_hal_disp.c ****             case LV_DISP_ROT_90:
 1833              		.loc 1 444 0
 1834 000e 0468     		ldr	r4, [r0]
 1835 0010 237C     		ldrb	r3, [r4, #16]
 1836 0012 9B06     		lsls	r3, r3, #26
ARM GAS  C:\Users\haske\AppData\Local\Temp\ccN8jSR9.s 			page 62


 1837 0014 9B0F     		lsrs	r3, r3, #30
 1838 0016 022B     		cmp	r3, #2
 1839 0018 05D0     		beq	.L120
 1840 001a 0BD8     		bhi	.L121
 1841 001c 012B     		cmp	r3, #1
 1842 001e 10D1     		bne	.L124
 446:..\..\..\arduinoLCD\test\Pain Drain\libraries\lvgl\src\hal/lv_hal_disp.c ****             case LV_DISP_ROT_180:
 1843              		.loc 1 446 0
 1844 0020 0A23     		movs	r3, #10
 1845 0022 E05E     		ldrsh	r0, [r4, r3]
 1846              	.LVL226:
 1847 0024 11E0     		b	.L118
 1848              	.LVL227:
 1849              	.L120:
 448:..\..\..\arduinoLCD\test\Pain Drain\libraries\lvgl\src\hal/lv_hal_disp.c ****             case LV_DISP_ROT_270:
 1850              		.loc 1 448 0
 1851 0026 FFF7FEFF 		bl	lv_disp_get_physical_hor_res
 1852              	.LVL228:
 1853 002a 0822     		movs	r2, #8
 1854 002c A35E     		ldrsh	r3, [r4, r2]
 1855 002e C01A     		subs	r0, r0, r3
 1856 0030 00B2     		sxth	r0, r0
 1857 0032 0AE0     		b	.L118
 1858              	.LVL229:
 1859              	.L121:
 450:..\..\..\arduinoLCD\test\Pain Drain\libraries\lvgl\src\hal/lv_hal_disp.c ****             default:
 1860              		.loc 1 450 0
 1861 0034 FFF7FEFF 		bl	lv_disp_get_physical_hor_res
 1862              	.LVL230:
 1863 0038 0A22     		movs	r2, #10
 1864 003a A35E     		ldrsh	r3, [r4, r2]
 1865 003c C01A     		subs	r0, r0, r3
 1866 003e 00B2     		sxth	r0, r0
 1867 0040 03E0     		b	.L118
 1868              	.LVL231:
 1869              	.L124:
 452:..\..\..\arduinoLCD\test\Pain Drain\libraries\lvgl\src\hal/lv_hal_disp.c ****         }
 1870              		.loc 1 452 0
 1871 0042 0823     		movs	r3, #8
 1872 0044 E05E     		ldrsh	r0, [r4, r3]
 1873              	.LVL232:
 1874 0046 00E0     		b	.L118
 1875              	.LVL233:
 1876              	.L123:
 441:..\..\..\arduinoLCD\test\Pain Drain\libraries\lvgl\src\hal/lv_hal_disp.c ****     }
 1877              		.loc 1 441 0
 1878 0048 0020     		movs	r0, #0
 1879              	.LVL234:
 1880              	.L118:
 455:..\..\..\arduinoLCD\test\Pain Drain\libraries\lvgl\src\hal/lv_hal_disp.c **** 
 1881              		.loc 1 455 0
 1882              		@ sp needed
 1883 004a 10BD     		pop	{r4, pc}
 1884              		.cfi_endproc
 1885              	.LFE170:
 1886              		.size	lv_disp_get_offset_x, .-lv_disp_get_offset_x
 1887              		.section	.text.lv_disp_get_offset_y,"ax",%progbits
ARM GAS  C:\Users\haske\AppData\Local\Temp\ccN8jSR9.s 			page 63


 1888              		.align	2
 1889              		.global	lv_disp_get_offset_y
 1890              		.code	16
 1891              		.thumb_func
 1892              		.type	lv_disp_get_offset_y, %function
 1893              	lv_disp_get_offset_y:
 1894              	.LFB171:
 463:..\..\..\arduinoLCD\test\Pain Drain\libraries\lvgl\src\hal/lv_hal_disp.c ****     if(disp == NULL) disp = lv_disp_get_default();
 1895              		.loc 1 463 0
 1896              		.cfi_startproc
 1897              		@ args = 0, pretend = 0, frame = 0
 1898              		@ frame_needed = 0, uses_anonymous_args = 0
 1899              	.LVL235:
 1900 0000 10B5     		push	{r4, lr}
 1901              		.cfi_def_cfa_offset 8
 1902              		.cfi_offset 4, -8
 1903              		.cfi_offset 14, -4
 464:..\..\..\arduinoLCD\test\Pain Drain\libraries\lvgl\src\hal/lv_hal_disp.c **** 
 1904              		.loc 1 464 0
 1905 0002 0028     		cmp	r0, #0
 1906 0004 01D1     		bne	.L126
 464:..\..\..\arduinoLCD\test\Pain Drain\libraries\lvgl\src\hal/lv_hal_disp.c **** 
 1907              		.loc 1 464 0 is_stmt 0 discriminator 1
 1908 0006 FFF7FEFF 		bl	lv_disp_get_default
 1909              	.LVL236:
 1910              	.L126:
 466:..\..\..\arduinoLCD\test\Pain Drain\libraries\lvgl\src\hal/lv_hal_disp.c ****         return 0;
 1911              		.loc 1 466 0 is_stmt 1
 1912 000a 0028     		cmp	r0, #0
 1913 000c 1CD0     		beq	.L132
 470:..\..\..\arduinoLCD\test\Pain Drain\libraries\lvgl\src\hal/lv_hal_disp.c ****             case LV_DISP_ROT_90:
 1914              		.loc 1 470 0
 1915 000e 0468     		ldr	r4, [r0]
 1916 0010 237C     		ldrb	r3, [r4, #16]
 1917 0012 9B06     		lsls	r3, r3, #26
 1918 0014 9B0F     		lsrs	r3, r3, #30
 1919 0016 022B     		cmp	r3, #2
 1920 0018 05D0     		beq	.L129
 1921 001a 0BD8     		bhi	.L130
 1922 001c 012B     		cmp	r3, #1
 1923 001e 10D1     		bne	.L133
 472:..\..\..\arduinoLCD\test\Pain Drain\libraries\lvgl\src\hal/lv_hal_disp.c ****             case LV_DISP_ROT_180:
 1924              		.loc 1 472 0
 1925 0020 0823     		movs	r3, #8
 1926 0022 E05E     		ldrsh	r0, [r4, r3]
 1927              	.LVL237:
 1928 0024 11E0     		b	.L127
 1929              	.LVL238:
 1930              	.L129:
 474:..\..\..\arduinoLCD\test\Pain Drain\libraries\lvgl\src\hal/lv_hal_disp.c ****             case LV_DISP_ROT_270:
 1931              		.loc 1 474 0
 1932 0026 FFF7FEFF 		bl	lv_disp_get_physical_ver_res
 1933              	.LVL239:
 1934 002a 0A22     		movs	r2, #10
 1935 002c A35E     		ldrsh	r3, [r4, r2]
 1936 002e C01A     		subs	r0, r0, r3
 1937 0030 00B2     		sxth	r0, r0
ARM GAS  C:\Users\haske\AppData\Local\Temp\ccN8jSR9.s 			page 64


 1938 0032 0AE0     		b	.L127
 1939              	.LVL240:
 1940              	.L130:
 476:..\..\..\arduinoLCD\test\Pain Drain\libraries\lvgl\src\hal/lv_hal_disp.c ****             default:
 1941              		.loc 1 476 0
 1942 0034 FFF7FEFF 		bl	lv_disp_get_physical_ver_res
 1943              	.LVL241:
 1944 0038 0822     		movs	r2, #8
 1945 003a A35E     		ldrsh	r3, [r4, r2]
 1946 003c C01A     		subs	r0, r0, r3
 1947 003e 00B2     		sxth	r0, r0
 1948 0040 03E0     		b	.L127
 1949              	.LVL242:
 1950              	.L133:
 478:..\..\..\arduinoLCD\test\Pain Drain\libraries\lvgl\src\hal/lv_hal_disp.c ****         }
 1951              		.loc 1 478 0
 1952 0042 0A23     		movs	r3, #10
 1953 0044 E05E     		ldrsh	r0, [r4, r3]
 1954              	.LVL243:
 1955 0046 00E0     		b	.L127
 1956              	.LVL244:
 1957              	.L132:
 467:..\..\..\arduinoLCD\test\Pain Drain\libraries\lvgl\src\hal/lv_hal_disp.c ****     }
 1958              		.loc 1 467 0
 1959 0048 0020     		movs	r0, #0
 1960              	.LVL245:
 1961              	.L127:
 481:..\..\..\arduinoLCD\test\Pain Drain\libraries\lvgl\src\hal/lv_hal_disp.c **** 
 1962              		.loc 1 481 0
 1963              		@ sp needed
 1964 004a 10BD     		pop	{r4, pc}
 1965              		.cfi_endproc
 1966              	.LFE171:
 1967              		.size	lv_disp_get_offset_y, .-lv_disp_get_offset_y
 1968              		.section	.text.lv_disp_get_antialiasing,"ax",%progbits
 1969              		.align	2
 1970              		.global	lv_disp_get_antialiasing
 1971              		.code	16
 1972              		.thumb_func
 1973              		.type	lv_disp_get_antialiasing, %function
 1974              	lv_disp_get_antialiasing:
 1975              	.LFB172:
 489:..\..\..\arduinoLCD\test\Pain Drain\libraries\lvgl\src\hal/lv_hal_disp.c ****     if(disp == NULL) disp = lv_disp_get_default();
 1976              		.loc 1 489 0
 1977              		.cfi_startproc
 1978              		@ args = 0, pretend = 0, frame = 0
 1979              		@ frame_needed = 0, uses_anonymous_args = 0
 1980              	.LVL246:
 1981 0000 10B5     		push	{r4, lr}
 1982              		.cfi_def_cfa_offset 8
 1983              		.cfi_offset 4, -8
 1984              		.cfi_offset 14, -4
 490:..\..\..\arduinoLCD\test\Pain Drain\libraries\lvgl\src\hal/lv_hal_disp.c ****     if(disp == NULL) return false;
 1985              		.loc 1 490 0
 1986 0002 0028     		cmp	r0, #0
 1987 0004 01D1     		bne	.L135
 490:..\..\..\arduinoLCD\test\Pain Drain\libraries\lvgl\src\hal/lv_hal_disp.c ****     if(disp == NULL) return false;
ARM GAS  C:\Users\haske\AppData\Local\Temp\ccN8jSR9.s 			page 65


 1988              		.loc 1 490 0 is_stmt 0 discriminator 1
 1989 0006 FFF7FEFF 		bl	lv_disp_get_default
 1990              	.LVL247:
 1991              	.L135:
 491:..\..\..\arduinoLCD\test\Pain Drain\libraries\lvgl\src\hal/lv_hal_disp.c **** 
 1992              		.loc 1 491 0 is_stmt 1
 1993 000a 0028     		cmp	r0, #0
 1994 000c 07D0     		beq	.L137
 493:..\..\..\arduinoLCD\test\Pain Drain\libraries\lvgl\src\hal/lv_hal_disp.c **** }
 1995              		.loc 1 493 0
 1996 000e 0368     		ldr	r3, [r0]
 1997 0010 1B7C     		ldrb	r3, [r3, #16]
 1998 0012 0820     		movs	r0, #8
 1999              	.LVL248:
 2000 0014 1840     		ands	r0, r3
 2001 0016 431E     		subs	r3, r0, #1
 2002 0018 9841     		sbcs	r0, r0, r3
 2003 001a C0B2     		uxtb	r0, r0
 2004 001c 00E0     		b	.L136
 2005              	.LVL249:
 2006              	.L137:
 491:..\..\..\arduinoLCD\test\Pain Drain\libraries\lvgl\src\hal/lv_hal_disp.c **** 
 2007              		.loc 1 491 0
 2008 001e 0020     		movs	r0, #0
 2009              	.LVL250:
 2010              	.L136:
 494:..\..\..\arduinoLCD\test\Pain Drain\libraries\lvgl\src\hal/lv_hal_disp.c **** 
 2011              		.loc 1 494 0
 2012              		@ sp needed
 2013 0020 10BD     		pop	{r4, pc}
 2014              		.cfi_endproc
 2015              	.LFE172:
 2016              		.size	lv_disp_get_antialiasing, .-lv_disp_get_antialiasing
 2017 0022 C046     		.section	.text.lv_disp_get_dpi,"ax",%progbits
 2018              		.align	2
 2019              		.global	lv_disp_get_dpi
 2020              		.code	16
 2021              		.thumb_func
 2022              		.type	lv_disp_get_dpi, %function
 2023              	lv_disp_get_dpi:
 2024              	.LFB173:
 502:..\..\..\arduinoLCD\test\Pain Drain\libraries\lvgl\src\hal/lv_hal_disp.c ****     if(disp == NULL) disp = lv_disp_get_default();
 2025              		.loc 1 502 0
 2026              		.cfi_startproc
 2027              		@ args = 0, pretend = 0, frame = 0
 2028              		@ frame_needed = 0, uses_anonymous_args = 0
 2029              	.LVL251:
 2030 0000 10B5     		push	{r4, lr}
 2031              		.cfi_def_cfa_offset 8
 2032              		.cfi_offset 4, -8
 2033              		.cfi_offset 14, -4
 503:..\..\..\arduinoLCD\test\Pain Drain\libraries\lvgl\src\hal/lv_hal_disp.c ****     if(disp == NULL) return LV_DPI_DEF;  /*Do not return 0 because it might be a divider*/
 2034              		.loc 1 503 0
 2035 0002 0028     		cmp	r0, #0
 2036 0004 01D1     		bne	.L139
 503:..\..\..\arduinoLCD\test\Pain Drain\libraries\lvgl\src\hal/lv_hal_disp.c ****     if(disp == NULL) return LV_DPI_DEF;  /*Do not return 0 because it might be a divider*/
 2037              		.loc 1 503 0 is_stmt 0 discriminator 1
ARM GAS  C:\Users\haske\AppData\Local\Temp\ccN8jSR9.s 			page 66


 2038 0006 FFF7FEFF 		bl	lv_disp_get_default
 2039              	.LVL252:
 2040              	.L139:
 504:..\..\..\arduinoLCD\test\Pain Drain\libraries\lvgl\src\hal/lv_hal_disp.c ****     return disp->driver->dpi;
 2041              		.loc 1 504 0 is_stmt 1
 2042 000a 0028     		cmp	r0, #0
 2043 000c 04D0     		beq	.L141
 505:..\..\..\arduinoLCD\test\Pain Drain\libraries\lvgl\src\hal/lv_hal_disp.c **** }
 2044              		.loc 1 505 0
 2045 000e 0368     		ldr	r3, [r0]
 2046 0010 1869     		ldr	r0, [r3, #16]
 2047              	.LVL253:
 2048 0012 C003     		lsls	r0, r0, #15
 2049 0014 800D     		lsrs	r0, r0, #22
 2050 0016 00E0     		b	.L140
 2051              	.LVL254:
 2052              	.L141:
 504:..\..\..\arduinoLCD\test\Pain Drain\libraries\lvgl\src\hal/lv_hal_disp.c ****     return disp->driver->dpi;
 2053              		.loc 1 504 0
 2054 0018 8220     		movs	r0, #130
 2055              	.LVL255:
 2056              	.L140:
 506:..\..\..\arduinoLCD\test\Pain Drain\libraries\lvgl\src\hal/lv_hal_disp.c **** 
 2057              		.loc 1 506 0
 2058              		@ sp needed
 2059 001a 10BD     		pop	{r4, pc}
 2060              		.cfi_endproc
 2061              	.LFE173:
 2062              		.size	lv_disp_get_dpi, .-lv_disp_get_dpi
 2063              		.section	.text.lv_disp_flush_ready,"ax",%progbits
 2064              		.align	2
 2065              		.global	lv_disp_flush_ready
 2066              		.code	16
 2067              		.thumb_func
 2068              		.type	lv_disp_flush_ready, %function
 2069              	lv_disp_flush_ready:
 2070              	.LFB174:
 513:..\..\..\arduinoLCD\test\Pain Drain\libraries\lvgl\src\hal/lv_hal_disp.c ****     disp_drv->draw_buf->flushing = 0;
 2071              		.loc 1 513 0
 2072              		.cfi_startproc
 2073              		@ args = 0, pretend = 0, frame = 0
 2074              		@ frame_needed = 0, uses_anonymous_args = 0
 2075              		@ link register save eliminated.
 2076              	.LVL256:
 514:..\..\..\arduinoLCD\test\Pain Drain\libraries\lvgl\src\hal/lv_hal_disp.c ****     disp_drv->draw_buf->flushing_last = 0;
 2077              		.loc 1 514 0
 2078 0000 C268     		ldr	r2, [r0, #12]
 2079 0002 0023     		movs	r3, #0
 2080 0004 1361     		str	r3, [r2, #16]
 515:..\..\..\arduinoLCD\test\Pain Drain\libraries\lvgl\src\hal/lv_hal_disp.c **** }
 2081              		.loc 1 515 0
 2082 0006 C268     		ldr	r2, [r0, #12]
 2083 0008 5361     		str	r3, [r2, #20]
 516:..\..\..\arduinoLCD\test\Pain Drain\libraries\lvgl\src\hal/lv_hal_disp.c **** 
 2084              		.loc 1 516 0
 2085              		@ sp needed
 2086 000a 7047     		bx	lr
ARM GAS  C:\Users\haske\AppData\Local\Temp\ccN8jSR9.s 			page 67


 2087              		.cfi_endproc
 2088              	.LFE174:
 2089              		.size	lv_disp_flush_ready, .-lv_disp_flush_ready
 2090              		.section	.text.lv_disp_flush_is_last,"ax",%progbits
 2091              		.align	2
 2092              		.global	lv_disp_flush_is_last
 2093              		.code	16
 2094              		.thumb_func
 2095              		.type	lv_disp_flush_is_last, %function
 2096              	lv_disp_flush_is_last:
 2097              	.LFB175:
 525:..\..\..\arduinoLCD\test\Pain Drain\libraries\lvgl\src\hal/lv_hal_disp.c ****     return disp_drv->draw_buf->flushing_last;
 2098              		.loc 1 525 0
 2099              		.cfi_startproc
 2100              		@ args = 0, pretend = 0, frame = 0
 2101              		@ frame_needed = 0, uses_anonymous_args = 0
 2102              		@ link register save eliminated.
 2103              	.LVL257:
 526:..\..\..\arduinoLCD\test\Pain Drain\libraries\lvgl\src\hal/lv_hal_disp.c **** }
 2104              		.loc 1 526 0
 2105 0000 C368     		ldr	r3, [r0, #12]
 2106 0002 5869     		ldr	r0, [r3, #20]
 2107              	.LVL258:
 2108 0004 431E     		subs	r3, r0, #1
 2109 0006 9841     		sbcs	r0, r0, r3
 2110 0008 C0B2     		uxtb	r0, r0
 527:..\..\..\arduinoLCD\test\Pain Drain\libraries\lvgl\src\hal/lv_hal_disp.c **** 
 2111              		.loc 1 527 0
 2112              		@ sp needed
 2113 000a 7047     		bx	lr
 2114              		.cfi_endproc
 2115              	.LFE175:
 2116              		.size	lv_disp_flush_is_last, .-lv_disp_flush_is_last
 2117              		.section	.text.lv_disp_get_next,"ax",%progbits
 2118              		.align	2
 2119              		.global	lv_disp_get_next
 2120              		.code	16
 2121              		.thumb_func
 2122              		.type	lv_disp_get_next, %function
 2123              	lv_disp_get_next:
 2124              	.LFB176:
 535:..\..\..\arduinoLCD\test\Pain Drain\libraries\lvgl\src\hal/lv_hal_disp.c ****     if(disp == NULL)
 2125              		.loc 1 535 0
 2126              		.cfi_startproc
 2127              		@ args = 0, pretend = 0, frame = 0
 2128              		@ frame_needed = 0, uses_anonymous_args = 0
 2129              	.LVL259:
 2130 0000 10B5     		push	{r4, lr}
 2131              		.cfi_def_cfa_offset 8
 2132              		.cfi_offset 4, -8
 2133              		.cfi_offset 14, -4
 536:..\..\..\arduinoLCD\test\Pain Drain\libraries\lvgl\src\hal/lv_hal_disp.c ****         return _lv_ll_get_head(&LV_GC_ROOT(_lv_disp_ll));
 2134              		.loc 1 536 0
 2135 0002 0028     		cmp	r0, #0
 2136 0004 03D1     		bne	.L145
 537:..\..\..\arduinoLCD\test\Pain Drain\libraries\lvgl\src\hal/lv_hal_disp.c ****     else
 2137              		.loc 1 537 0
ARM GAS  C:\Users\haske\AppData\Local\Temp\ccN8jSR9.s 			page 68


 2138 0006 0448     		ldr	r0, .L147
 2139              	.LVL260:
 2140 0008 FFF7FEFF 		bl	_lv_ll_get_head
 2141              	.LVL261:
 2142 000c 03E0     		b	.L146
 2143              	.LVL262:
 2144              	.L145:
 539:..\..\..\arduinoLCD\test\Pain Drain\libraries\lvgl\src\hal/lv_hal_disp.c **** }
 2145              		.loc 1 539 0
 2146 000e 0100     		movs	r1, r0
 2147 0010 0148     		ldr	r0, .L147
 2148              	.LVL263:
 2149 0012 FFF7FEFF 		bl	_lv_ll_get_next
 2150              	.LVL264:
 2151              	.L146:
 540:..\..\..\arduinoLCD\test\Pain Drain\libraries\lvgl\src\hal/lv_hal_disp.c **** 
 2152              		.loc 1 540 0
 2153              		@ sp needed
 2154 0016 10BD     		pop	{r4, pc}
 2155              	.L148:
 2156              		.align	2
 2157              	.L147:
 2158 0018 00000000 		.word	_lv_disp_ll
 2159              		.cfi_endproc
 2160              	.LFE176:
 2161              		.size	lv_disp_get_next, .-lv_disp_get_next
 2162              		.section	.text.lv_disp_get_draw_buf,"ax",%progbits
 2163              		.align	2
 2164              		.global	lv_disp_get_draw_buf
 2165              		.code	16
 2166              		.thumb_func
 2167              		.type	lv_disp_get_draw_buf, %function
 2168              	lv_disp_get_draw_buf:
 2169              	.LFB177:
 548:..\..\..\arduinoLCD\test\Pain Drain\libraries\lvgl\src\hal/lv_hal_disp.c ****     return disp->driver->draw_buf;
 2170              		.loc 1 548 0
 2171              		.cfi_startproc
 2172              		@ args = 0, pretend = 0, frame = 0
 2173              		@ frame_needed = 0, uses_anonymous_args = 0
 2174              		@ link register save eliminated.
 2175              	.LVL265:
 549:..\..\..\arduinoLCD\test\Pain Drain\libraries\lvgl\src\hal/lv_hal_disp.c **** }
 2176              		.loc 1 549 0
 2177 0000 0368     		ldr	r3, [r0]
 2178 0002 D868     		ldr	r0, [r3, #12]
 2179              	.LVL266:
 550:..\..\..\arduinoLCD\test\Pain Drain\libraries\lvgl\src\hal/lv_hal_disp.c **** 
 2180              		.loc 1 550 0
 2181              		@ sp needed
 2182 0004 7047     		bx	lr
 2183              		.cfi_endproc
 2184              	.LFE177:
 2185              		.size	lv_disp_get_draw_buf, .-lv_disp_get_draw_buf
 2186 0006 C046     		.section	.text.lv_disp_set_rotation,"ax",%progbits
 2187              		.align	2
 2188              		.global	lv_disp_set_rotation
 2189              		.code	16
ARM GAS  C:\Users\haske\AppData\Local\Temp\ccN8jSR9.s 			page 69


 2190              		.thumb_func
 2191              		.type	lv_disp_set_rotation, %function
 2192              	lv_disp_set_rotation:
 2193              	.LFB178:
 558:..\..\..\arduinoLCD\test\Pain Drain\libraries\lvgl\src\hal/lv_hal_disp.c ****     if(disp == NULL) disp = lv_disp_get_default();
 2194              		.loc 1 558 0
 2195              		.cfi_startproc
 2196              		@ args = 0, pretend = 0, frame = 0
 2197              		@ frame_needed = 0, uses_anonymous_args = 0
 2198              	.LVL267:
 2199 0000 10B5     		push	{r4, lr}
 2200              		.cfi_def_cfa_offset 8
 2201              		.cfi_offset 4, -8
 2202              		.cfi_offset 14, -4
 2203 0002 0C00     		movs	r4, r1
 559:..\..\..\arduinoLCD\test\Pain Drain\libraries\lvgl\src\hal/lv_hal_disp.c ****     if(disp == NULL) return;
 2204              		.loc 1 559 0
 2205 0004 0028     		cmp	r0, #0
 2206 0006 01D1     		bne	.L151
 559:..\..\..\arduinoLCD\test\Pain Drain\libraries\lvgl\src\hal/lv_hal_disp.c ****     if(disp == NULL) return;
 2207              		.loc 1 559 0 is_stmt 0 discriminator 1
 2208 0008 FFF7FEFF 		bl	lv_disp_get_default
 2209              	.LVL268:
 2210              	.L151:
 560:..\..\..\arduinoLCD\test\Pain Drain\libraries\lvgl\src\hal/lv_hal_disp.c **** 
 2211              		.loc 1 560 0 is_stmt 1
 2212 000c 0028     		cmp	r0, #0
 2213 000e 0BD0     		beq	.L150
 562:..\..\..\arduinoLCD\test\Pain Drain\libraries\lvgl\src\hal/lv_hal_disp.c ****     lv_disp_drv_update(disp, disp->driver);
 2214              		.loc 1 562 0
 2215 0010 0268     		ldr	r2, [r0]
 2216 0012 0323     		movs	r3, #3
 2217 0014 1C40     		ands	r4, r3
 2218 0016 2301     		lsls	r3, r4, #4
 2219 0018 147C     		ldrb	r4, [r2, #16]
 2220 001a 3021     		movs	r1, #48
 2221 001c 8C43     		bics	r4, r1
 2222 001e 1C43     		orrs	r4, r3
 2223 0020 1474     		strb	r4, [r2, #16]
 563:..\..\..\arduinoLCD\test\Pain Drain\libraries\lvgl\src\hal/lv_hal_disp.c **** }
 2224              		.loc 1 563 0
 2225 0022 0168     		ldr	r1, [r0]
 2226 0024 FFF7FEFF 		bl	lv_disp_drv_update
 2227              	.LVL269:
 2228              	.L150:
 564:..\..\..\arduinoLCD\test\Pain Drain\libraries\lvgl\src\hal/lv_hal_disp.c **** 
 2229              		.loc 1 564 0
 2230              		@ sp needed
 2231 0028 10BD     		pop	{r4, pc}
 2232              		.cfi_endproc
 2233              	.LFE178:
 2234              		.size	lv_disp_set_rotation, .-lv_disp_set_rotation
 2235 002a C046     		.section	.text.lv_disp_get_rotation,"ax",%progbits
 2236              		.align	2
 2237              		.global	lv_disp_get_rotation
 2238              		.code	16
 2239              		.thumb_func
ARM GAS  C:\Users\haske\AppData\Local\Temp\ccN8jSR9.s 			page 70


 2240              		.type	lv_disp_get_rotation, %function
 2241              	lv_disp_get_rotation:
 2242              	.LFB179:
 572:..\..\..\arduinoLCD\test\Pain Drain\libraries\lvgl\src\hal/lv_hal_disp.c ****     if(disp == NULL) disp = lv_disp_get_default();
 2243              		.loc 1 572 0
 2244              		.cfi_startproc
 2245              		@ args = 0, pretend = 0, frame = 0
 2246              		@ frame_needed = 0, uses_anonymous_args = 0
 2247              	.LVL270:
 2248 0000 10B5     		push	{r4, lr}
 2249              		.cfi_def_cfa_offset 8
 2250              		.cfi_offset 4, -8
 2251              		.cfi_offset 14, -4
 573:..\..\..\arduinoLCD\test\Pain Drain\libraries\lvgl\src\hal/lv_hal_disp.c ****     if(disp == NULL) return LV_DISP_ROT_NONE;
 2252              		.loc 1 573 0
 2253 0002 0028     		cmp	r0, #0
 2254 0004 01D1     		bne	.L154
 573:..\..\..\arduinoLCD\test\Pain Drain\libraries\lvgl\src\hal/lv_hal_disp.c ****     if(disp == NULL) return LV_DISP_ROT_NONE;
 2255              		.loc 1 573 0 is_stmt 0 discriminator 1
 2256 0006 FFF7FEFF 		bl	lv_disp_get_default
 2257              	.LVL271:
 2258              	.L154:
 574:..\..\..\arduinoLCD\test\Pain Drain\libraries\lvgl\src\hal/lv_hal_disp.c ****     return disp->driver->rotated;
 2259              		.loc 1 574 0 is_stmt 1
 2260 000a 0028     		cmp	r0, #0
 2261 000c 04D0     		beq	.L156
 575:..\..\..\arduinoLCD\test\Pain Drain\libraries\lvgl\src\hal/lv_hal_disp.c **** }
 2262              		.loc 1 575 0
 2263 000e 0368     		ldr	r3, [r0]
 2264 0010 187C     		ldrb	r0, [r3, #16]
 2265              	.LVL272:
 2266 0012 8006     		lsls	r0, r0, #26
 2267 0014 800F     		lsrs	r0, r0, #30
 2268 0016 00E0     		b	.L155
 2269              	.LVL273:
 2270              	.L156:
 574:..\..\..\arduinoLCD\test\Pain Drain\libraries\lvgl\src\hal/lv_hal_disp.c ****     return disp->driver->rotated;
 2271              		.loc 1 574 0
 2272 0018 0020     		movs	r0, #0
 2273              	.LVL274:
 2274              	.L155:
 576:..\..\..\arduinoLCD\test\Pain Drain\libraries\lvgl\src\hal/lv_hal_disp.c **** 
 2275              		.loc 1 576 0
 2276              		@ sp needed
 2277 001a 10BD     		pop	{r4, pc}
 2278              		.cfi_endproc
 2279              	.LFE179:
 2280              		.size	lv_disp_get_rotation, .-lv_disp_get_rotation
 2281              		.section	.text.lv_disp_drv_use_generic_set_px_cb,"ax",%progbits
 2282              		.align	2
 2283              		.global	lv_disp_drv_use_generic_set_px_cb
 2284              		.code	16
 2285              		.thumb_func
 2286              		.type	lv_disp_drv_use_generic_set_px_cb, %function
 2287              	lv_disp_drv_use_generic_set_px_cb:
 2288              	.LFB180:
 579:..\..\..\arduinoLCD\test\Pain Drain\libraries\lvgl\src\hal/lv_hal_disp.c ****     switch(cf) {
ARM GAS  C:\Users\haske\AppData\Local\Temp\ccN8jSR9.s 			page 71


 2289              		.loc 1 579 0
 2290              		.cfi_startproc
 2291              		@ args = 0, pretend = 0, frame = 0
 2292              		@ frame_needed = 0, uses_anonymous_args = 0
 2293              		@ link register save eliminated.
 2294              	.LVL275:
 580:..\..\..\arduinoLCD\test\Pain Drain\libraries\lvgl\src\hal/lv_hal_disp.c ****         case LV_IMG_CF_TRUE_COLOR_ALPHA:
 2295              		.loc 1 580 0
 2296 0000 0539     		subs	r1, r1, #5
 2297              	.LVL276:
 2298 0002 CBB2     		uxtb	r3, r1
 2299 0004 092B     		cmp	r3, #9
 2300 0006 12D8     		bhi	.L158
 2301 0008 9900     		lsls	r1, r3, #2
 2302 000a 0A4B     		ldr	r3, .L166
 2303 000c 5B58     		ldr	r3, [r3, r1]
 2304 000e 9F46     		mov	pc, r3
 2305              		.section	.rodata
 2306              		.align	2
 2307              	.L160:
 2308 0000 10000000 		.word	.L159
 2309 0004 2E000000 		.word	.L158
 2310 0008 2E000000 		.word	.L158
 2311 000c 2E000000 		.word	.L158
 2312 0010 2E000000 		.word	.L158
 2313 0014 2E000000 		.word	.L158
 2314 0018 16000000 		.word	.L161
 2315 001c 1C000000 		.word	.L162
 2316 0020 22000000 		.word	.L163
 2317 0024 28000000 		.word	.L164
 2318              		.section	.text.lv_disp_drv_use_generic_set_px_cb
 2319              	.L159:
 582:..\..\..\arduinoLCD\test\Pain Drain\libraries\lvgl\src\hal/lv_hal_disp.c ****             break;
 2320              		.loc 1 582 0
 2321 0010 094B     		ldr	r3, .L166+4
 2322 0012 C361     		str	r3, [r0, #28]
 583:..\..\..\arduinoLCD\test\Pain Drain\libraries\lvgl\src\hal/lv_hal_disp.c ****         case LV_IMG_CF_ALPHA_1BIT:
 2323              		.loc 1 583 0
 2324 0014 0DE0     		b	.L157
 2325              	.L161:
 585:..\..\..\arduinoLCD\test\Pain Drain\libraries\lvgl\src\hal/lv_hal_disp.c ****             break;
 2326              		.loc 1 585 0
 2327 0016 094B     		ldr	r3, .L166+8
 2328 0018 C361     		str	r3, [r0, #28]
 586:..\..\..\arduinoLCD\test\Pain Drain\libraries\lvgl\src\hal/lv_hal_disp.c ****         case LV_IMG_CF_ALPHA_2BIT:
 2329              		.loc 1 586 0
 2330 001a 0AE0     		b	.L157
 2331              	.L162:
 588:..\..\..\arduinoLCD\test\Pain Drain\libraries\lvgl\src\hal/lv_hal_disp.c ****             break;
 2332              		.loc 1 588 0
 2333 001c 084B     		ldr	r3, .L166+12
 2334 001e C361     		str	r3, [r0, #28]
 589:..\..\..\arduinoLCD\test\Pain Drain\libraries\lvgl\src\hal/lv_hal_disp.c ****         case LV_IMG_CF_ALPHA_4BIT:
 2335              		.loc 1 589 0
 2336 0020 07E0     		b	.L157
 2337              	.L163:
 591:..\..\..\arduinoLCD\test\Pain Drain\libraries\lvgl\src\hal/lv_hal_disp.c ****             break;
ARM GAS  C:\Users\haske\AppData\Local\Temp\ccN8jSR9.s 			page 72


 2338              		.loc 1 591 0
 2339 0022 084B     		ldr	r3, .L166+16
 2340 0024 C361     		str	r3, [r0, #28]
 592:..\..\..\arduinoLCD\test\Pain Drain\libraries\lvgl\src\hal/lv_hal_disp.c ****         case LV_IMG_CF_ALPHA_8BIT:
 2341              		.loc 1 592 0
 2342 0026 04E0     		b	.L157
 2343              	.L164:
 594:..\..\..\arduinoLCD\test\Pain Drain\libraries\lvgl\src\hal/lv_hal_disp.c ****             break;
 2344              		.loc 1 594 0
 2345 0028 074B     		ldr	r3, .L166+20
 2346 002a C361     		str	r3, [r0, #28]
 595:..\..\..\arduinoLCD\test\Pain Drain\libraries\lvgl\src\hal/lv_hal_disp.c ****         default:
 2347              		.loc 1 595 0
 2348 002c 01E0     		b	.L157
 2349              	.L158:
 597:..\..\..\arduinoLCD\test\Pain Drain\libraries\lvgl\src\hal/lv_hal_disp.c ****     }
 2350              		.loc 1 597 0
 2351 002e 0023     		movs	r3, #0
 2352 0030 C361     		str	r3, [r0, #28]
 2353              	.L157:
 599:..\..\..\arduinoLCD\test\Pain Drain\libraries\lvgl\src\hal/lv_hal_disp.c **** 
 2354              		.loc 1 599 0
 2355              		@ sp needed
 2356 0032 7047     		bx	lr
 2357              	.L167:
 2358              		.align	2
 2359              	.L166:
 2360 0034 00000000 		.word	.L160
 2361 0038 00000000 		.word	set_px_true_color_alpha
 2362 003c 00000000 		.word	set_px_cb_alpha1
 2363 0040 00000000 		.word	set_px_cb_alpha2
 2364 0044 00000000 		.word	set_px_cb_alpha4
 2365 0048 00000000 		.word	set_px_cb_alpha8
 2366              		.cfi_endproc
 2367              	.LFE180:
 2368              		.size	lv_disp_drv_use_generic_set_px_cb, .-lv_disp_drv_use_generic_set_px_cb
 2369              		.bss
 2370              		.align	2
 2371              		.set	.LANCHOR0,. + 0
 2372              		.type	fg_opa_save.5032, %object
 2373              		.size	fg_opa_save.5032, 1
 2374              	fg_opa_save.5032:
 2375 0000 00       		.space	1
 2376              		.type	bg_opa_save.5033, %object
 2377              		.size	bg_opa_save.5033, 1
 2378              	bg_opa_save.5033:
 2379 0001 00       		.space	1
 2380 0002 0000     		.space	2
 2381              		.type	fg_color_save.5034, %object
 2382              		.size	fg_color_save.5034, 2
 2383              	fg_color_save.5034:
 2384 0004 0000     		.space	2
 2385 0006 0000     		.space	2
 2386              		.type	bg_color_save.5035, %object
 2387              		.size	bg_color_save.5035, 2
 2388              	bg_color_save.5035:
 2389 0008 0000     		.space	2
ARM GAS  C:\Users\haske\AppData\Local\Temp\ccN8jSR9.s 			page 73


 2390              		.type	res_opa_saved.5037, %object
 2391              		.size	res_opa_saved.5037, 1
 2392              	res_opa_saved.5037:
 2393 000a 00       		.space	1
 2394 000b 00       		.space	1
 2395              		.type	res_color_saved.5036, %object
 2396              		.size	res_color_saved.5036, 2
 2397              	res_color_saved.5036:
 2398 000c 0000     		.space	2
 2399 000e 0000     		.space	2
 2400              		.type	disp_def, %object
 2401              		.size	disp_def, 4
 2402              	disp_def:
 2403 0010 00000000 		.space	4
 2404              		.text
 2405              	.Letext0:
 2406              		.file 4 "c:\\program files (x86)\\cypress\\psoc creator\\4.4\\psoc creator\\import\\gnu\\arm\\5.4.
 2407              		.file 5 "c:\\program files (x86)\\cypress\\psoc creator\\4.4\\psoc creator\\import\\gnu\\arm\\5.4.
 2408              		.file 6 "c:\\program files (x86)\\cypress\\psoc creator\\4.4\\psoc creator\\import\\gnu\\arm\\5.4.
 2409              		.file 7 "c:\\projects\\paindrain\\arduinolcd\\test\\pain drain\\libraries\\lvgl\\src\\misc\\lv_are
 2410              		.file 8 "c:\\projects\\paindrain\\arduinolcd\\test\\pain drain\\libraries\\lvgl\\src\\font\\lv_fon
 2411              		.file 9 "c:\\projects\\paindrain\\arduinolcd\\test\\pain drain\\libraries\\lvgl\\src\\misc\\lv_typ
 2412              		.file 10 "c:\\projects\\paindrain\\arduinolcd\\test\\pain drain\\libraries\\lvgl\\src\\misc\\lv_tx
 2413              		.file 11 "c:\\projects\\paindrain\\arduinolcd\\test\\pain drain\\libraries\\lvgl\\src\\misc\\lv_bi
 2414              		.file 12 "c:\\projects\\paindrain\\arduinolcd\\test\\pain drain\\libraries\\lvgl\\src\\misc\\lv_st
 2415              		.file 13 "..\\..\\..\\arduinoLCD\\test\\Pain Drain\\libraries\\lvgl\\src\\hal\\../draw/lv_img_buf.
 2416              		.file 14 "..\\..\\..\\arduinoLCD\\test\\Pain Drain\\libraries\\lvgl\\src\\hal\\../core/lv_obj.h"
 2417              		.file 15 "..\\..\\..\\arduinoLCD\\test\\Pain Drain\\libraries\\lvgl\\src\\hal\\../draw/lv_draw_rec
 2418              		.file 16 "..\\..\\..\\arduinoLCD\\test\\Pain Drain\\libraries\\lvgl\\src\\hal\\../draw/lv_draw_lab
 2419              		.file 17 "..\\..\\..\\arduinoLCD\\test\\Pain Drain\\libraries\\lvgl\\src\\hal\\../draw/lv_draw_img
 2420              		.file 18 "..\\..\\..\\arduinoLCD\\test\\Pain Drain\\libraries\\lvgl\\src\\hal\\../draw/lv_draw_lin
 2421              		.file 19 "..\\..\\..\\arduinoLCD\\test\\Pain Drain\\libraries\\lvgl\\src\\hal\\../draw/lv_draw_arc
 2422              		.file 20 "..\\..\\..\\arduinoLCD\\test\\Pain Drain\\libraries\\lvgl\\src\\hal\\../draw/lv_draw_lay
 2423              		.file 21 "..\\..\\..\\arduinoLCD\\test\\Pain Drain\\libraries\\lvgl\\src\\hal\\../draw/lv_draw.h"
 2424              		.file 22 "..\\..\\..\\arduinoLCD\\test\\Pain Drain\\libraries\\lvgl\\src\\hal\\../misc/lv_ll.h"
 2425              		.file 23 "..\\..\\..\\arduinoLCD\\test\\Pain Drain\\libraries\\lvgl\\src\\hal\\../misc/lv_timer.h"
 2426              		.file 24 "..\\..\\..\\arduinoLCD\\test\\Pain Drain\\libraries\\lvgl\\src\\hal\\lv_hal_disp.h"
 2427              		.file 25 "..\\..\\..\\arduinoLCD\\test\\Pain Drain\\libraries\\lvgl\\src\\hal\\../core/lv_theme.h"
 2428              		.file 26 "..\\..\\..\\arduinoLCD\\test\\Pain Drain\\libraries\\lvgl\\src\\hal\\lv_hal_indev.h"
 2429              		.file 27 "..\\..\\..\\arduinoLCD\\test\\Pain Drain\\libraries\\lvgl\\src\\hal\\../core/lv_group.h"
 2430              		.file 28 "..\\..\\..\\arduinoLCD\\test\\Pain Drain\\libraries\\lvgl\\src\\hal\\../core/lv_obj_tree
 2431              		.file 29 "..\\..\\..\\arduinoLCD\\test\\Pain Drain\\libraries\\lvgl\\src\\hal\\../core/lv_obj_scro
 2432              		.file 30 "..\\..\\..\\arduinoLCD\\test\\Pain Drain\\libraries\\lvgl\\src\\hal\\../core/lv_obj_clas
 2433              		.file 31 "..\\..\\..\\arduinoLCD\\test\\Pain Drain\\libraries\\lvgl\\src\\hal\\../core/lv_event.h"
 2434              		.file 32 "..\\..\\..\\arduinoLCD\\test\\Pain Drain\\libraries\\lvgl\\src\\hal\\../misc/lv_gc.h"
 2435              		.file 33 "c:\\projects\\paindrain\\arduinolcd\\test\\pain drain\\libraries\\lvgl\\src\\core\\lv_ob
 2436              		.file 34 "c:\\projects\\paindrain\\arduinolcd\\test\\pain drain\\libraries\\lvgl\\src\\misc\\lv_me
 2437              		.file 35 "..\\..\\..\\arduinoLCD\\test\\Pain Drain\\libraries\\lvgl\\src\\hal\\../extra/themes/def
 2438              		.section	.debug_info,"",%progbits
 2439              	.Ldebug_info0:
 2440 0000 C5350000 		.4byte	0x35c5
 2441 0004 0400     		.2byte	0x4
 2442 0006 00000000 		.4byte	.Ldebug_abbrev0
 2443 000a 04       		.byte	0x4
 2444 000b 01       		.uleb128 0x1
 2445 000c BD0B0000 		.4byte	.LASF759
 2446 0010 0C       		.byte	0xc
ARM GAS  C:\Users\haske\AppData\Local\Temp\ccN8jSR9.s 			page 74


 2447 0011 7F160000 		.4byte	.LASF760
 2448 0015 B4280000 		.4byte	.LASF761
 2449 0019 18000000 		.4byte	.Ldebug_ranges0+0x18
 2450 001d 00000000 		.4byte	0
 2451 0021 00000000 		.4byte	.Ldebug_line0
 2452 0025 02       		.uleb128 0x2
 2453 0026 3C210000 		.4byte	.LASF0
 2454 002a 04       		.byte	0x4
 2455 002b 1B       		.byte	0x1b
 2456 002c 30000000 		.4byte	0x30
 2457 0030 03       		.uleb128 0x3
 2458 0031 01       		.byte	0x1
 2459 0032 06       		.byte	0x6
 2460 0033 17090000 		.4byte	.LASF2
 2461 0037 02       		.uleb128 0x2
 2462 0038 E9040000 		.4byte	.LASF1
 2463 003c 04       		.byte	0x4
 2464 003d 1D       		.byte	0x1d
 2465 003e 42000000 		.4byte	0x42
 2466 0042 03       		.uleb128 0x3
 2467 0043 01       		.byte	0x1
 2468 0044 08       		.byte	0x8
 2469 0045 200A0000 		.4byte	.LASF3
 2470 0049 02       		.uleb128 0x2
 2471 004a 88240000 		.4byte	.LASF4
 2472 004e 04       		.byte	0x4
 2473 004f 29       		.byte	0x29
 2474 0050 54000000 		.4byte	0x54
 2475 0054 03       		.uleb128 0x3
 2476 0055 02       		.byte	0x2
 2477 0056 05       		.byte	0x5
 2478 0057 DE260000 		.4byte	.LASF5
 2479 005b 02       		.uleb128 0x2
 2480 005c BE0D0000 		.4byte	.LASF6
 2481 0060 04       		.byte	0x4
 2482 0061 2B       		.byte	0x2b
 2483 0062 66000000 		.4byte	0x66
 2484 0066 03       		.uleb128 0x3
 2485 0067 02       		.byte	0x2
 2486 0068 07       		.byte	0x7
 2487 0069 812B0000 		.4byte	.LASF7
 2488 006d 02       		.uleb128 0x2
 2489 006e 892C0000 		.4byte	.LASF8
 2490 0072 04       		.byte	0x4
 2491 0073 3F       		.byte	0x3f
 2492 0074 78000000 		.4byte	0x78
 2493 0078 03       		.uleb128 0x3
 2494 0079 04       		.byte	0x4
 2495 007a 05       		.byte	0x5
 2496 007b 1B060000 		.4byte	.LASF9
 2497 007f 02       		.uleb128 0x2
 2498 0080 E1170000 		.4byte	.LASF10
 2499 0084 04       		.byte	0x4
 2500 0085 41       		.byte	0x41
 2501 0086 8A000000 		.4byte	0x8a
 2502 008a 03       		.uleb128 0x3
 2503 008b 04       		.byte	0x4
ARM GAS  C:\Users\haske\AppData\Local\Temp\ccN8jSR9.s 			page 75


 2504 008c 07       		.byte	0x7
 2505 008d 72140000 		.4byte	.LASF11
 2506 0091 03       		.uleb128 0x3
 2507 0092 08       		.byte	0x8
 2508 0093 05       		.byte	0x5
 2509 0094 33180000 		.4byte	.LASF12
 2510 0098 03       		.uleb128 0x3
 2511 0099 08       		.byte	0x8
 2512 009a 07       		.byte	0x7
 2513 009b AB210000 		.4byte	.LASF13
 2514 009f 04       		.uleb128 0x4
 2515 00a0 04       		.byte	0x4
 2516 00a1 05       		.byte	0x5
 2517 00a2 696E7400 		.ascii	"int\000"
 2518 00a6 03       		.uleb128 0x3
 2519 00a7 04       		.byte	0x4
 2520 00a8 07       		.byte	0x7
 2521 00a9 A21A0000 		.4byte	.LASF14
 2522 00ad 02       		.uleb128 0x2
 2523 00ae 09000000 		.4byte	.LASF15
 2524 00b2 05       		.byte	0x5
 2525 00b3 14       		.byte	0x14
 2526 00b4 25000000 		.4byte	0x25
 2527 00b8 02       		.uleb128 0x2
 2528 00b9 23090000 		.4byte	.LASF16
 2529 00bd 05       		.byte	0x5
 2530 00be 18       		.byte	0x18
 2531 00bf 37000000 		.4byte	0x37
 2532 00c3 02       		.uleb128 0x2
 2533 00c4 BB270000 		.4byte	.LASF17
 2534 00c8 05       		.byte	0x5
 2535 00c9 20       		.byte	0x20
 2536 00ca 49000000 		.4byte	0x49
 2537 00ce 02       		.uleb128 0x2
 2538 00cf 51220000 		.4byte	.LASF18
 2539 00d3 05       		.byte	0x5
 2540 00d4 24       		.byte	0x24
 2541 00d5 5B000000 		.4byte	0x5b
 2542 00d9 02       		.uleb128 0x2
 2543 00da 6A010000 		.4byte	.LASF19
 2544 00de 05       		.byte	0x5
 2545 00df 2C       		.byte	0x2c
 2546 00e0 6D000000 		.4byte	0x6d
 2547 00e4 02       		.uleb128 0x2
 2548 00e5 862A0000 		.4byte	.LASF20
 2549 00e9 05       		.byte	0x5
 2550 00ea 30       		.byte	0x30
 2551 00eb 7F000000 		.4byte	0x7f
 2552 00ef 02       		.uleb128 0x2
 2553 00f0 70000000 		.4byte	.LASF21
 2554 00f4 06       		.byte	0x6
 2555 00f5 D8       		.byte	0xd8
 2556 00f6 A6000000 		.4byte	0xa6
 2557 00fa 03       		.uleb128 0x3
 2558 00fb 08       		.byte	0x8
 2559 00fc 04       		.byte	0x4
 2560 00fd 3C1F0000 		.4byte	.LASF22
ARM GAS  C:\Users\haske\AppData\Local\Temp\ccN8jSR9.s 			page 76


 2561 0101 02       		.uleb128 0x2
 2562 0102 A12B0000 		.4byte	.LASF23
 2563 0106 07       		.byte	0x7
 2564 0107 1B       		.byte	0x1b
 2565 0108 C3000000 		.4byte	0xc3
 2566 010c 05       		.uleb128 0x5
 2567 010d 04       		.byte	0x4
 2568 010e 07       		.byte	0x7
 2569 010f 25       		.byte	0x25
 2570 0110 29010000 		.4byte	0x129
 2571 0114 06       		.uleb128 0x6
 2572 0115 7800     		.ascii	"x\000"
 2573 0117 07       		.byte	0x7
 2574 0118 26       		.byte	0x26
 2575 0119 01010000 		.4byte	0x101
 2576 011d 00       		.byte	0
 2577 011e 06       		.uleb128 0x6
 2578 011f 7900     		.ascii	"y\000"
 2579 0121 07       		.byte	0x7
 2580 0122 27       		.byte	0x27
 2581 0123 01010000 		.4byte	0x101
 2582 0127 02       		.byte	0x2
 2583 0128 00       		.byte	0
 2584 0129 02       		.uleb128 0x2
 2585 012a CA010000 		.4byte	.LASF24
 2586 012e 07       		.byte	0x7
 2587 012f 28       		.byte	0x28
 2588 0130 0C010000 		.4byte	0x10c
 2589 0134 05       		.uleb128 0x5
 2590 0135 08       		.byte	0x8
 2591 0136 07       		.byte	0x7
 2592 0137 2B       		.byte	0x2b
 2593 0138 69010000 		.4byte	0x169
 2594 013c 06       		.uleb128 0x6
 2595 013d 783100   		.ascii	"x1\000"
 2596 0140 07       		.byte	0x7
 2597 0141 2C       		.byte	0x2c
 2598 0142 01010000 		.4byte	0x101
 2599 0146 00       		.byte	0
 2600 0147 06       		.uleb128 0x6
 2601 0148 793100   		.ascii	"y1\000"
 2602 014b 07       		.byte	0x7
 2603 014c 2D       		.byte	0x2d
 2604 014d 01010000 		.4byte	0x101
 2605 0151 02       		.byte	0x2
 2606 0152 06       		.uleb128 0x6
 2607 0153 783200   		.ascii	"x2\000"
 2608 0156 07       		.byte	0x7
 2609 0157 2E       		.byte	0x2e
 2610 0158 01010000 		.4byte	0x101
 2611 015c 04       		.byte	0x4
 2612 015d 06       		.uleb128 0x6
 2613 015e 793200   		.ascii	"y2\000"
 2614 0161 07       		.byte	0x7
 2615 0162 2F       		.byte	0x2f
 2616 0163 01010000 		.4byte	0x101
 2617 0167 06       		.byte	0x6
ARM GAS  C:\Users\haske\AppData\Local\Temp\ccN8jSR9.s 			page 77


 2618 0168 00       		.byte	0
 2619 0169 02       		.uleb128 0x2
 2620 016a DC100000 		.4byte	.LASF25
 2621 016e 07       		.byte	0x7
 2622 016f 30       		.byte	0x30
 2623 0170 34010000 		.4byte	0x134
 2624 0174 02       		.uleb128 0x2
 2625 0175 C30E0000 		.4byte	.LASF26
 2626 0179 07       		.byte	0x7
 2627 017a 59       		.byte	0x59
 2628 017b B8000000 		.4byte	0xb8
 2629 017f 05       		.uleb128 0x5
 2630 0180 10       		.byte	0x10
 2631 0181 08       		.byte	0x8
 2632 0182 29       		.byte	0x29
 2633 0183 EE010000 		.4byte	0x1ee
 2634 0187 07       		.uleb128 0x7
 2635 0188 61150000 		.4byte	.LASF27
 2636 018c 08       		.byte	0x8
 2637 018d 2B       		.byte	0x2b
 2638 018e 76020000 		.4byte	0x276
 2639 0192 00       		.byte	0
 2640 0193 07       		.uleb128 0x7
 2641 0194 77000000 		.4byte	.LASF28
 2642 0198 08       		.byte	0x8
 2643 0199 2C       		.byte	0x2c
 2644 019a CE000000 		.4byte	0xce
 2645 019e 04       		.byte	0x4
 2646 019f 07       		.uleb128 0x7
 2647 01a0 D8260000 		.4byte	.LASF29
 2648 01a4 08       		.byte	0x8
 2649 01a5 2D       		.byte	0x2d
 2650 01a6 CE000000 		.4byte	0xce
 2651 01aa 06       		.byte	0x6
 2652 01ab 07       		.uleb128 0x7
 2653 01ac A5260000 		.4byte	.LASF30
 2654 01b0 08       		.byte	0x8
 2655 01b1 2E       		.byte	0x2e
 2656 01b2 CE000000 		.4byte	0xce
 2657 01b6 08       		.byte	0x8
 2658 01b7 07       		.uleb128 0x7
 2659 01b8 140B0000 		.4byte	.LASF31
 2660 01bc 08       		.byte	0x8
 2661 01bd 2F       		.byte	0x2f
 2662 01be C3000000 		.4byte	0xc3
 2663 01c2 0A       		.byte	0xa
 2664 01c3 07       		.uleb128 0x7
 2665 01c4 1A0B0000 		.4byte	.LASF32
 2666 01c8 08       		.byte	0x8
 2667 01c9 30       		.byte	0x30
 2668 01ca C3000000 		.4byte	0xc3
 2669 01ce 0C       		.byte	0xc
 2670 01cf 08       		.uleb128 0x8
 2671 01d0 62707000 		.ascii	"bpp\000"
 2672 01d4 08       		.byte	0x8
 2673 01d5 31       		.byte	0x31
 2674 01d6 B8000000 		.4byte	0xb8
ARM GAS  C:\Users\haske\AppData\Local\Temp\ccN8jSR9.s 			page 78


 2675 01da 01       		.byte	0x1
 2676 01db 04       		.byte	0x4
 2677 01dc 04       		.byte	0x4
 2678 01dd 0E       		.byte	0xe
 2679 01de 09       		.uleb128 0x9
 2680 01df 6C2E0000 		.4byte	.LASF33
 2681 01e3 08       		.byte	0x8
 2682 01e4 32       		.byte	0x32
 2683 01e5 B8000000 		.4byte	0xb8
 2684 01e9 01       		.byte	0x1
 2685 01ea 01       		.byte	0x1
 2686 01eb 03       		.byte	0x3
 2687 01ec 0E       		.byte	0xe
 2688 01ed 00       		.byte	0
 2689 01ee 0A       		.uleb128 0xa
 2690 01ef CE170000 		.4byte	.LASF253
 2691 01f3 1C       		.byte	0x1c
 2692 01f4 08       		.byte	0x8
 2693 01f5 40       		.byte	0x40
 2694 01f6 76020000 		.4byte	0x276
 2695 01fa 07       		.uleb128 0x7
 2696 01fb 7B2C0000 		.4byte	.LASF34
 2697 01ff 08       		.byte	0x8
 2698 0200 42       		.byte	0x42
 2699 0201 B7020000 		.4byte	0x2b7
 2700 0205 00       		.byte	0
 2701 0206 07       		.uleb128 0x7
 2702 0207 9A090000 		.4byte	.LASF35
 2703 020b 08       		.byte	0x8
 2704 020c 45       		.byte	0x45
 2705 020d DC020000 		.4byte	0x2dc
 2706 0211 04       		.byte	0x4
 2707 0212 07       		.uleb128 0x7
 2708 0213 03020000 		.4byte	.LASF36
 2709 0217 08       		.byte	0x8
 2710 0218 48       		.byte	0x48
 2711 0219 01010000 		.4byte	0x101
 2712 021d 08       		.byte	0x8
 2713 021e 07       		.uleb128 0x7
 2714 021f E8260000 		.4byte	.LASF37
 2715 0223 08       		.byte	0x8
 2716 0224 49       		.byte	0x49
 2717 0225 01010000 		.4byte	0x101
 2718 0229 0A       		.byte	0xa
 2719 022a 09       		.uleb128 0x9
 2720 022b D41F0000 		.4byte	.LASF38
 2721 022f 08       		.byte	0x8
 2722 0230 4A       		.byte	0x4a
 2723 0231 B8000000 		.4byte	0xb8
 2724 0235 01       		.byte	0x1
 2725 0236 02       		.byte	0x2
 2726 0237 06       		.byte	0x6
 2727 0238 0C       		.byte	0xc
 2728 0239 07       		.uleb128 0x7
 2729 023a F10C0000 		.4byte	.LASF39
 2730 023e 08       		.byte	0x8
 2731 023f 4C       		.byte	0x4c
ARM GAS  C:\Users\haske\AppData\Local\Temp\ccN8jSR9.s 			page 79


 2732 0240 AD000000 		.4byte	0xad
 2733 0244 0D       		.byte	0xd
 2734 0245 07       		.uleb128 0x7
 2735 0246 62190000 		.4byte	.LASF40
 2736 024a 08       		.byte	0x8
 2737 024b 4D       		.byte	0x4d
 2738 024c AD000000 		.4byte	0xad
 2739 0250 0E       		.byte	0xe
 2740 0251 06       		.uleb128 0x6
 2741 0252 64736300 		.ascii	"dsc\000"
 2742 0256 08       		.byte	0x8
 2743 0257 4F       		.byte	0x4f
 2744 0258 E2020000 		.4byte	0x2e2
 2745 025c 10       		.byte	0x10
 2746 025d 07       		.uleb128 0x7
 2747 025e 06100000 		.4byte	.LASF41
 2748 0262 08       		.byte	0x8
 2749 0263 50       		.byte	0x50
 2750 0264 76020000 		.4byte	0x276
 2751 0268 14       		.byte	0x14
 2752 0269 07       		.uleb128 0x7
 2753 026a F22B0000 		.4byte	.LASF42
 2754 026e 08       		.byte	0x8
 2755 026f 52       		.byte	0x52
 2756 0270 E9020000 		.4byte	0x2e9
 2757 0274 18       		.byte	0x18
 2758 0275 00       		.byte	0
 2759 0276 0B       		.uleb128 0xb
 2760 0277 04       		.byte	0x4
 2761 0278 7C020000 		.4byte	0x27c
 2762 027c 0C       		.uleb128 0xc
 2763 027d EE010000 		.4byte	0x1ee
 2764 0281 02       		.uleb128 0x2
 2765 0282 AC1C0000 		.4byte	.LASF43
 2766 0286 08       		.byte	0x8
 2767 0287 33       		.byte	0x33
 2768 0288 7F010000 		.4byte	0x17f
 2769 028c 0D       		.uleb128 0xd
 2770 028d AA020000 		.4byte	0x2aa
 2771 0291 AA020000 		.4byte	0x2aa
 2772 0295 0E       		.uleb128 0xe
 2773 0296 76020000 		.4byte	0x276
 2774 029a 0E       		.uleb128 0xe
 2775 029b B1020000 		.4byte	0x2b1
 2776 029f 0E       		.uleb128 0xe
 2777 02a0 E4000000 		.4byte	0xe4
 2778 02a4 0E       		.uleb128 0xe
 2779 02a5 E4000000 		.4byte	0xe4
 2780 02a9 00       		.byte	0
 2781 02aa 03       		.uleb128 0x3
 2782 02ab 01       		.byte	0x1
 2783 02ac 02       		.byte	0x2
 2784 02ad 640B0000 		.4byte	.LASF44
 2785 02b1 0B       		.uleb128 0xb
 2786 02b2 04       		.byte	0x4
 2787 02b3 81020000 		.4byte	0x281
 2788 02b7 0B       		.uleb128 0xb
ARM GAS  C:\Users\haske\AppData\Local\Temp\ccN8jSR9.s 			page 80


 2789 02b8 04       		.byte	0x4
 2790 02b9 8C020000 		.4byte	0x28c
 2791 02bd 0D       		.uleb128 0xd
 2792 02be D1020000 		.4byte	0x2d1
 2793 02c2 D1020000 		.4byte	0x2d1
 2794 02c6 0E       		.uleb128 0xe
 2795 02c7 76020000 		.4byte	0x276
 2796 02cb 0E       		.uleb128 0xe
 2797 02cc E4000000 		.4byte	0xe4
 2798 02d0 00       		.byte	0
 2799 02d1 0B       		.uleb128 0xb
 2800 02d2 04       		.byte	0x4
 2801 02d3 D7020000 		.4byte	0x2d7
 2802 02d7 0C       		.uleb128 0xc
 2803 02d8 B8000000 		.4byte	0xb8
 2804 02dc 0B       		.uleb128 0xb
 2805 02dd 04       		.byte	0x4
 2806 02de BD020000 		.4byte	0x2bd
 2807 02e2 0B       		.uleb128 0xb
 2808 02e3 04       		.byte	0x4
 2809 02e4 E8020000 		.4byte	0x2e8
 2810 02e8 0F       		.uleb128 0xf
 2811 02e9 10       		.uleb128 0x10
 2812 02ea 04       		.byte	0x4
 2813 02eb 02       		.uleb128 0x2
 2814 02ec 0B2B0000 		.4byte	.LASF45
 2815 02f0 08       		.byte	0x8
 2816 02f1 54       		.byte	0x54
 2817 02f2 EE010000 		.4byte	0x1ee
 2818 02f6 02       		.uleb128 0x2
 2819 02f7 FF1E0000 		.4byte	.LASF46
 2820 02fb 09       		.byte	0x9
 2821 02fc 2F       		.byte	0x2f
 2822 02fd B8000000 		.4byte	0xb8
 2823 0301 03       		.uleb128 0x3
 2824 0302 04       		.byte	0x4
 2825 0303 07       		.byte	0x7
 2826 0304 93000000 		.4byte	.LASF47
 2827 0308 03       		.uleb128 0x3
 2828 0309 01       		.byte	0x1
 2829 030a 08       		.byte	0x8
 2830 030b 980C0000 		.4byte	.LASF48
 2831 030f 11       		.uleb128 0x11
 2832 0310 01       		.byte	0x1
 2833 0311 42000000 		.4byte	0x42
 2834 0315 02       		.byte	0x2
 2835 0316 29       		.byte	0x29
 2836 0317 6A030000 		.4byte	0x36a
 2837 031b 12       		.uleb128 0x12
 2838 031c A6190000 		.4byte	.LASF49
 2839 0320 00       		.byte	0
 2840 0321 12       		.uleb128 0x12
 2841 0322 BC150000 		.4byte	.LASF50
 2842 0326 00       		.byte	0
 2843 0327 12       		.uleb128 0x12
 2844 0328 B2230000 		.4byte	.LASF51
 2845 032c 19       		.byte	0x19
ARM GAS  C:\Users\haske\AppData\Local\Temp\ccN8jSR9.s 			page 81


 2846 032d 12       		.uleb128 0x12
 2847 032e 70250000 		.4byte	.LASF52
 2848 0332 33       		.byte	0x33
 2849 0333 12       		.uleb128 0x12
 2850 0334 50260000 		.4byte	.LASF53
 2851 0338 4C       		.byte	0x4c
 2852 0339 12       		.uleb128 0x12
 2853 033a B1270000 		.4byte	.LASF54
 2854 033e 66       		.byte	0x66
 2855 033f 12       		.uleb128 0x12
 2856 0340 AA280000 		.4byte	.LASF55
 2857 0344 7F       		.byte	0x7f
 2858 0345 12       		.uleb128 0x12
 2859 0346 2F2A0000 		.4byte	.LASF56
 2860 034a 99       		.byte	0x99
 2861 034b 12       		.uleb128 0x12
 2862 034c 772B0000 		.4byte	.LASF57
 2863 0350 B2       		.byte	0xb2
 2864 0351 12       		.uleb128 0x12
 2865 0352 162D0000 		.4byte	.LASF58
 2866 0356 CC       		.byte	0xcc
 2867 0357 12       		.uleb128 0x12
 2868 0358 902E0000 		.4byte	.LASF59
 2869 035c E5       		.byte	0xe5
 2870 035d 12       		.uleb128 0x12
 2871 035e B51D0000 		.4byte	.LASF60
 2872 0362 FF       		.byte	0xff
 2873 0363 12       		.uleb128 0x12
 2874 0364 DA1F0000 		.4byte	.LASF61
 2875 0368 FF       		.byte	0xff
 2876 0369 00       		.byte	0
 2877 036a 05       		.uleb128 0x5
 2878 036b 02       		.byte	0x2
 2879 036c 02       		.byte	0x2
 2880 036d D1       		.byte	0xd1
 2881 036e A0030000 		.4byte	0x3a0
 2882 0372 09       		.uleb128 0x9
 2883 0373 BB090000 		.4byte	.LASF62
 2884 0377 02       		.byte	0x2
 2885 0378 D3       		.byte	0xd3
 2886 0379 CE000000 		.4byte	0xce
 2887 037d 02       		.byte	0x2
 2888 037e 05       		.byte	0x5
 2889 037f 0B       		.byte	0xb
 2890 0380 00       		.byte	0
 2891 0381 09       		.uleb128 0x9
 2892 0382 052B0000 		.4byte	.LASF63
 2893 0386 02       		.byte	0x2
 2894 0387 D4       		.byte	0xd4
 2895 0388 CE000000 		.4byte	0xce
 2896 038c 02       		.byte	0x2
 2897 038d 06       		.byte	0x6
 2898 038e 05       		.byte	0x5
 2899 038f 00       		.byte	0
 2900 0390 08       		.uleb128 0x8
 2901 0391 72656400 		.ascii	"red\000"
 2902 0395 02       		.byte	0x2
ARM GAS  C:\Users\haske\AppData\Local\Temp\ccN8jSR9.s 			page 82


 2903 0396 D5       		.byte	0xd5
 2904 0397 CE000000 		.4byte	0xce
 2905 039b 02       		.byte	0x2
 2906 039c 05       		.byte	0x5
 2907 039d 00       		.byte	0
 2908 039e 00       		.byte	0
 2909 039f 00       		.byte	0
 2910 03a0 13       		.uleb128 0x13
 2911 03a1 02       		.byte	0x2
 2912 03a2 02       		.byte	0x2
 2913 03a3 D0       		.byte	0xd0
 2914 03a4 BE030000 		.4byte	0x3be
 2915 03a8 14       		.uleb128 0x14
 2916 03a9 636800   		.ascii	"ch\000"
 2917 03ac 02       		.byte	0x2
 2918 03ad DC       		.byte	0xdc
 2919 03ae 6A030000 		.4byte	0x36a
 2920 03b2 15       		.uleb128 0x15
 2921 03b3 57250000 		.4byte	.LASF64
 2922 03b7 02       		.byte	0x2
 2923 03b8 DD       		.byte	0xdd
 2924 03b9 CE000000 		.4byte	0xce
 2925 03bd 00       		.byte	0
 2926 03be 02       		.uleb128 0x2
 2927 03bf CB260000 		.4byte	.LASF65
 2928 03c3 02       		.byte	0x2
 2929 03c4 DE       		.byte	0xde
 2930 03c5 A0030000 		.4byte	0x3a0
 2931 03c9 05       		.uleb128 0x5
 2932 03ca 04       		.byte	0x4
 2933 03cb 02       		.byte	0x2
 2934 03cc E1       		.byte	0xe1
 2935 03cd 02040000 		.4byte	0x402
 2936 03d1 07       		.uleb128 0x7
 2937 03d2 BB090000 		.4byte	.LASF62
 2938 03d6 02       		.byte	0x2
 2939 03d7 E2       		.byte	0xe2
 2940 03d8 B8000000 		.4byte	0xb8
 2941 03dc 00       		.byte	0
 2942 03dd 07       		.uleb128 0x7
 2943 03de 052B0000 		.4byte	.LASF63
 2944 03e2 02       		.byte	0x2
 2945 03e3 E3       		.byte	0xe3
 2946 03e4 B8000000 		.4byte	0xb8
 2947 03e8 01       		.byte	0x1
 2948 03e9 06       		.uleb128 0x6
 2949 03ea 72656400 		.ascii	"red\000"
 2950 03ee 02       		.byte	0x2
 2951 03ef E4       		.byte	0xe4
 2952 03f0 B8000000 		.4byte	0xb8
 2953 03f4 02       		.byte	0x2
 2954 03f5 07       		.uleb128 0x7
 2955 03f6 17050000 		.4byte	.LASF66
 2956 03fa 02       		.byte	0x2
 2957 03fb E5       		.byte	0xe5
 2958 03fc B8000000 		.4byte	0xb8
 2959 0400 03       		.byte	0x3
ARM GAS  C:\Users\haske\AppData\Local\Temp\ccN8jSR9.s 			page 83


 2960 0401 00       		.byte	0
 2961 0402 13       		.uleb128 0x13
 2962 0403 04       		.byte	0x4
 2963 0404 02       		.byte	0x2
 2964 0405 E0       		.byte	0xe0
 2965 0406 20040000 		.4byte	0x420
 2966 040a 14       		.uleb128 0x14
 2967 040b 636800   		.ascii	"ch\000"
 2968 040e 02       		.byte	0x2
 2969 040f E6       		.byte	0xe6
 2970 0410 C9030000 		.4byte	0x3c9
 2971 0414 15       		.uleb128 0x15
 2972 0415 57250000 		.4byte	.LASF64
 2973 0419 02       		.byte	0x2
 2974 041a E7       		.byte	0xe7
 2975 041b E4000000 		.4byte	0xe4
 2976 041f 00       		.byte	0
 2977 0420 02       		.uleb128 0x2
 2978 0421 CB000000 		.4byte	.LASF67
 2979 0425 02       		.byte	0x2
 2980 0426 E8       		.byte	0xe8
 2981 0427 02040000 		.4byte	0x402
 2982 042b 02       		.uleb128 0x2
 2983 042c 96220000 		.4byte	.LASF68
 2984 0430 02       		.byte	0x2
 2985 0431 EB       		.byte	0xeb
 2986 0432 BE030000 		.4byte	0x3be
 2987 0436 02       		.uleb128 0x2
 2988 0437 48010000 		.4byte	.LASF69
 2989 043b 02       		.byte	0x2
 2990 043c F5       		.byte	0xf5
 2991 043d B8000000 		.4byte	0xb8
 2992 0441 16       		.uleb128 0x16
 2993 0442 01       		.byte	0x1
 2994 0443 42000000 		.4byte	0x42
 2995 0447 02       		.byte	0x2
 2996 0448 0201     		.2byte	0x102
 2997 044a CD040000 		.4byte	0x4cd
 2998 044e 12       		.uleb128 0x12
 2999 044f 31150000 		.4byte	.LASF70
 3000 0453 00       		.byte	0
 3001 0454 12       		.uleb128 0x12
 3002 0455 E32A0000 		.4byte	.LASF71
 3003 0459 01       		.byte	0x1
 3004 045a 12       		.uleb128 0x12
 3005 045b 05180000 		.4byte	.LASF72
 3006 045f 02       		.byte	0x2
 3007 0460 12       		.uleb128 0x12
 3008 0461 B22D0000 		.4byte	.LASF73
 3009 0465 03       		.byte	0x3
 3010 0466 12       		.uleb128 0x12
 3011 0467 C92D0000 		.4byte	.LASF74
 3012 046b 04       		.byte	0x4
 3013 046c 12       		.uleb128 0x12
 3014 046d C3200000 		.4byte	.LASF75
 3015 0471 05       		.byte	0x5
 3016 0472 12       		.uleb128 0x12
ARM GAS  C:\Users\haske\AppData\Local\Temp\ccN8jSR9.s 			page 84


 3017 0473 65070000 		.4byte	.LASF76
 3018 0477 06       		.byte	0x6
 3019 0478 12       		.uleb128 0x12
 3020 0479 24060000 		.4byte	.LASF77
 3021 047d 07       		.byte	0x7
 3022 047e 12       		.uleb128 0x12
 3023 047f 81220000 		.4byte	.LASF78
 3024 0483 08       		.byte	0x8
 3025 0484 12       		.uleb128 0x12
 3026 0485 A1220000 		.4byte	.LASF79
 3027 0489 09       		.byte	0x9
 3028 048a 12       		.uleb128 0x12
 3029 048b 7E170000 		.4byte	.LASF80
 3030 048f 0A       		.byte	0xa
 3031 0490 12       		.uleb128 0x12
 3032 0491 9A280000 		.4byte	.LASF81
 3033 0495 0B       		.byte	0xb
 3034 0496 12       		.uleb128 0x12
 3035 0497 DE240000 		.4byte	.LASF82
 3036 049b 0C       		.byte	0xc
 3037 049c 12       		.uleb128 0x12
 3038 049d 81180000 		.4byte	.LASF83
 3039 04a1 0D       		.byte	0xd
 3040 04a2 12       		.uleb128 0x12
 3041 04a3 54080000 		.4byte	.LASF84
 3042 04a7 0E       		.byte	0xe
 3043 04a8 12       		.uleb128 0x12
 3044 04a9 6F100000 		.4byte	.LASF85
 3045 04ad 0F       		.byte	0xf
 3046 04ae 12       		.uleb128 0x12
 3047 04af B7030000 		.4byte	.LASF86
 3048 04b3 10       		.byte	0x10
 3049 04b4 12       		.uleb128 0x12
 3050 04b5 5D140000 		.4byte	.LASF87
 3051 04b9 11       		.byte	0x11
 3052 04ba 12       		.uleb128 0x12
 3053 04bb 1F2A0000 		.4byte	.LASF88
 3054 04bf 12       		.byte	0x12
 3055 04c0 12       		.uleb128 0x12
 3056 04c1 040D0000 		.4byte	.LASF89
 3057 04c5 13       		.byte	0x13
 3058 04c6 12       		.uleb128 0x12
 3059 04c7 74040000 		.4byte	.LASF90
 3060 04cb FF       		.byte	0xff
 3061 04cc 00       		.byte	0
 3062 04cd 02       		.uleb128 0x2
 3063 04ce 22230000 		.4byte	.LASF91
 3064 04d2 0A       		.byte	0xa
 3065 04d3 30       		.byte	0x30
 3066 04d4 B8000000 		.4byte	0xb8
 3067 04d8 02       		.uleb128 0x2
 3068 04d9 26190000 		.4byte	.LASF92
 3069 04dd 0A       		.byte	0xa
 3070 04de 42       		.byte	0x42
 3071 04df B8000000 		.4byte	0xb8
 3072 04e3 02       		.uleb128 0x2
 3073 04e4 200B0000 		.4byte	.LASF93
ARM GAS  C:\Users\haske\AppData\Local\Temp\ccN8jSR9.s 			page 85


 3074 04e8 0B       		.byte	0xb
 3075 04e9 2A       		.byte	0x2a
 3076 04ea B8000000 		.4byte	0xb8
 3077 04ee 02       		.uleb128 0x2
 3078 04ef 20020000 		.4byte	.LASF94
 3079 04f3 0C       		.byte	0xc
 3080 04f4 5E       		.byte	0x5e
 3081 04f5 B8000000 		.4byte	0xb8
 3082 04f9 02       		.uleb128 0x2
 3083 04fa 17180000 		.4byte	.LASF95
 3084 04fe 0C       		.byte	0xc
 3085 04ff 6A       		.byte	0x6a
 3086 0500 B8000000 		.4byte	0xb8
 3087 0504 02       		.uleb128 0x2
 3088 0505 FC250000 		.4byte	.LASF96
 3089 0509 0C       		.byte	0xc
 3090 050a 79       		.byte	0x79
 3091 050b B8000000 		.4byte	0xb8
 3092 050f 02       		.uleb128 0x2
 3093 0510 CE2C0000 		.4byte	.LASF97
 3094 0514 0C       		.byte	0xc
 3095 0515 84       		.byte	0x84
 3096 0516 B8000000 		.4byte	0xb8
 3097 051a 02       		.uleb128 0x2
 3098 051b 4E1F0000 		.4byte	.LASF98
 3099 051f 0C       		.byte	0xc
 3100 0520 90       		.byte	0x90
 3101 0521 B8000000 		.4byte	0xb8
 3102 0525 05       		.uleb128 0x5
 3103 0526 04       		.byte	0x4
 3104 0527 0C       		.byte	0xc
 3105 0528 95       		.byte	0x95
 3106 0529 46050000 		.4byte	0x546
 3107 052d 07       		.uleb128 0x7
 3108 052e 7A250000 		.4byte	.LASF99
 3109 0532 0C       		.byte	0xc
 3110 0533 96       		.byte	0x96
 3111 0534 2B040000 		.4byte	0x42b
 3112 0538 00       		.byte	0
 3113 0539 07       		.uleb128 0x7
 3114 053a 0D260000 		.4byte	.LASF100
 3115 053e 0C       		.byte	0xc
 3116 053f 97       		.byte	0x97
 3117 0540 B8000000 		.4byte	0xb8
 3118 0544 02       		.byte	0x2
 3119 0545 00       		.byte	0
 3120 0546 02       		.uleb128 0x2
 3121 0547 EB290000 		.4byte	.LASF101
 3122 054b 0C       		.byte	0xc
 3123 054c 98       		.byte	0x98
 3124 054d 25050000 		.4byte	0x525
 3125 0551 05       		.uleb128 0x5
 3126 0552 0A       		.byte	0xa
 3127 0553 0C       		.byte	0xc
 3128 0554 9B       		.byte	0x9b
 3129 0555 90050000 		.4byte	0x590
 3130 0559 07       		.uleb128 0x7
ARM GAS  C:\Users\haske\AppData\Local\Temp\ccN8jSR9.s 			page 86


 3131 055a 86250000 		.4byte	.LASF102
 3132 055e 0C       		.byte	0xc
 3133 055f 9C       		.byte	0x9c
 3134 0560 90050000 		.4byte	0x590
 3135 0564 00       		.byte	0
 3136 0565 07       		.uleb128 0x7
 3137 0566 9E0D0000 		.4byte	.LASF103
 3138 056a 0C       		.byte	0xc
 3139 056b 9D       		.byte	0x9d
 3140 056c B8000000 		.4byte	0xb8
 3141 0570 08       		.byte	0x8
 3142 0571 08       		.uleb128 0x8
 3143 0572 64697200 		.ascii	"dir\000"
 3144 0576 0C       		.byte	0xc
 3145 0577 9E       		.byte	0x9e
 3146 0578 0F050000 		.4byte	0x50f
 3147 057c 01       		.byte	0x1
 3148 057d 03       		.byte	0x3
 3149 057e 05       		.byte	0x5
 3150 057f 09       		.byte	0x9
 3151 0580 09       		.uleb128 0x9
 3152 0581 702B0000 		.4byte	.LASF104
 3153 0585 0C       		.byte	0xc
 3154 0586 A0       		.byte	0xa0
 3155 0587 1A050000 		.4byte	0x51a
 3156 058b 01       		.byte	0x1
 3157 058c 03       		.byte	0x3
 3158 058d 02       		.byte	0x2
 3159 058e 09       		.byte	0x9
 3160 058f 00       		.byte	0
 3161 0590 17       		.uleb128 0x17
 3162 0591 46050000 		.4byte	0x546
 3163 0595 A0050000 		.4byte	0x5a0
 3164 0599 18       		.uleb128 0x18
 3165 059a 01030000 		.4byte	0x301
 3166 059e 01       		.byte	0x1
 3167 059f 00       		.byte	0
 3168 05a0 02       		.uleb128 0x2
 3169 05a1 152E0000 		.4byte	.LASF105
 3170 05a5 0C       		.byte	0xc
 3171 05a6 A2       		.byte	0xa2
 3172 05a7 51050000 		.4byte	0x551
 3173 05ab 13       		.uleb128 0x13
 3174 05ac 04       		.byte	0x4
 3175 05ad 0C       		.byte	0xc
 3176 05ae A7       		.byte	0xa7
 3177 05af D5050000 		.4byte	0x5d5
 3178 05b3 14       		.uleb128 0x14
 3179 05b4 6E756D00 		.ascii	"num\000"
 3180 05b8 0C       		.byte	0xc
 3181 05b9 A8       		.byte	0xa8
 3182 05ba D9000000 		.4byte	0xd9
 3183 05be 14       		.uleb128 0x14
 3184 05bf 70747200 		.ascii	"ptr\000"
 3185 05c3 0C       		.byte	0xc
 3186 05c4 A9       		.byte	0xa9
 3187 05c5 E2020000 		.4byte	0x2e2
ARM GAS  C:\Users\haske\AppData\Local\Temp\ccN8jSR9.s 			page 87


 3188 05c9 15       		.uleb128 0x15
 3189 05ca 7A250000 		.4byte	.LASF99
 3190 05ce 0C       		.byte	0xc
 3191 05cf AA       		.byte	0xaa
 3192 05d0 2B040000 		.4byte	0x42b
 3193 05d4 00       		.byte	0
 3194 05d5 02       		.uleb128 0x2
 3195 05d6 ED1A0000 		.4byte	.LASF106
 3196 05da 0C       		.byte	0xc
 3197 05db AB       		.byte	0xab
 3198 05dc AB050000 		.4byte	0x5ab
 3199 05e0 11       		.uleb128 0x11
 3200 05e1 02       		.byte	0x2
 3201 05e2 66000000 		.4byte	0x66
 3202 05e6 0C       		.byte	0xc
 3203 05e7 B2       		.byte	0xb2
 3204 05e8 05080000 		.4byte	0x805
 3205 05ec 12       		.uleb128 0x12
 3206 05ed E7110000 		.4byte	.LASF107
 3207 05f1 00       		.byte	0
 3208 05f2 12       		.uleb128 0x12
 3209 05f3 F3220000 		.4byte	.LASF108
 3210 05f7 01       		.byte	0x1
 3211 05f8 12       		.uleb128 0x12
 3212 05f9 0F230000 		.4byte	.LASF109
 3213 05fd 02       		.byte	0x2
 3214 05fe 12       		.uleb128 0x12
 3215 05ff 34050000 		.4byte	.LASF110
 3216 0603 03       		.byte	0x3
 3217 0604 12       		.uleb128 0x12
 3218 0605 C7020000 		.4byte	.LASF111
 3219 0609 04       		.byte	0x4
 3220 060a 12       		.uleb128 0x12
 3221 060b 33290000 		.4byte	.LASF112
 3222 060f 05       		.byte	0x5
 3223 0610 12       		.uleb128 0x12
 3224 0611 3C260000 		.4byte	.LASF113
 3225 0615 06       		.byte	0x6
 3226 0616 12       		.uleb128 0x12
 3227 0617 30170000 		.4byte	.LASF114
 3228 061b 07       		.byte	0x7
 3229 061c 12       		.uleb128 0x12
 3230 061d FE290000 		.4byte	.LASF115
 3231 0621 08       		.byte	0x8
 3232 0622 12       		.uleb128 0x12
 3233 0623 110A0000 		.4byte	.LASF116
 3234 0627 09       		.byte	0x9
 3235 0628 12       		.uleb128 0x12
 3236 0629 9C1C0000 		.4byte	.LASF117
 3237 062d 0A       		.byte	0xa
 3238 062e 12       		.uleb128 0x12
 3239 062f 07050000 		.4byte	.LASF118
 3240 0633 0B       		.byte	0xb
 3241 0634 12       		.uleb128 0x12
 3242 0635 2D280000 		.4byte	.LASF119
 3243 0639 10       		.byte	0x10
 3244 063a 12       		.uleb128 0x12
ARM GAS  C:\Users\haske\AppData\Local\Temp\ccN8jSR9.s 			page 88


 3245 063b 0A130000 		.4byte	.LASF120
 3246 063f 11       		.byte	0x11
 3247 0640 12       		.uleb128 0x12
 3248 0641 39160000 		.4byte	.LASF121
 3249 0645 12       		.byte	0x12
 3250 0646 12       		.uleb128 0x12
 3251 0647 D5050000 		.4byte	.LASF122
 3252 064b 13       		.byte	0x13
 3253 064c 12       		.uleb128 0x12
 3254 064d C5150000 		.4byte	.LASF123
 3255 0651 14       		.byte	0x14
 3256 0652 12       		.uleb128 0x12
 3257 0653 50040000 		.4byte	.LASF124
 3258 0657 15       		.byte	0x15
 3259 0658 12       		.uleb128 0x12
 3260 0659 5F0D0000 		.4byte	.LASF125
 3261 065d 16       		.byte	0x16
 3262 065e 12       		.uleb128 0x12
 3263 065f 591D0000 		.4byte	.LASF126
 3264 0663 17       		.byte	0x17
 3265 0664 12       		.uleb128 0x12
 3266 0665 5E0E0000 		.4byte	.LASF127
 3267 0669 20       		.byte	0x20
 3268 066a 12       		.uleb128 0x12
 3269 066b B9130000 		.4byte	.LASF128
 3270 066f 21       		.byte	0x21
 3271 0670 12       		.uleb128 0x12
 3272 0671 85260000 		.4byte	.LASF129
 3273 0675 22       		.byte	0x22
 3274 0676 12       		.uleb128 0x12
 3275 0677 85090000 		.4byte	.LASF130
 3276 067b 23       		.byte	0x23
 3277 067c 12       		.uleb128 0x12
 3278 067d 3F030000 		.4byte	.LASF131
 3279 0681 24       		.byte	0x24
 3280 0682 12       		.uleb128 0x12
 3281 0683 CC210000 		.4byte	.LASF132
 3282 0687 25       		.byte	0x25
 3283 0688 12       		.uleb128 0x12
 3284 0689 492E0000 		.4byte	.LASF133
 3285 068d 26       		.byte	0x26
 3286 068e 12       		.uleb128 0x12
 3287 068f B2040000 		.4byte	.LASF134
 3288 0693 27       		.byte	0x27
 3289 0694 12       		.uleb128 0x12
 3290 0695 BC230000 		.4byte	.LASF135
 3291 0699 28       		.byte	0x28
 3292 069a 12       		.uleb128 0x12
 3293 069b 72280000 		.4byte	.LASF136
 3294 069f 29       		.byte	0x29
 3295 06a0 12       		.uleb128 0x12
 3296 06a1 4F050000 		.4byte	.LASF137
 3297 06a5 2A       		.byte	0x2a
 3298 06a6 12       		.uleb128 0x12
 3299 06a7 75060000 		.4byte	.LASF138
 3300 06ab 2B       		.byte	0x2b
 3301 06ac 12       		.uleb128 0x12
ARM GAS  C:\Users\haske\AppData\Local\Temp\ccN8jSR9.s 			page 89


 3302 06ad 93070000 		.4byte	.LASF139
 3303 06b1 2C       		.byte	0x2c
 3304 06b2 12       		.uleb128 0x12
 3305 06b3 E1200000 		.4byte	.LASF140
 3306 06b7 30       		.byte	0x30
 3307 06b8 12       		.uleb128 0x12
 3308 06b9 CC070000 		.4byte	.LASF141
 3309 06bd 31       		.byte	0x31
 3310 06be 12       		.uleb128 0x12
 3311 06bf D3030000 		.4byte	.LASF142
 3312 06c3 32       		.byte	0x32
 3313 06c4 12       		.uleb128 0x12
 3314 06c5 E2210000 		.4byte	.LASF143
 3315 06c9 33       		.byte	0x33
 3316 06ca 12       		.uleb128 0x12
 3317 06cb C4290000 		.4byte	.LASF144
 3318 06cf 34       		.byte	0x34
 3319 06d0 12       		.uleb128 0x12
 3320 06d1 F1100000 		.4byte	.LASF145
 3321 06d5 35       		.byte	0x35
 3322 06d6 12       		.uleb128 0x12
 3323 06d7 DB2B0000 		.4byte	.LASF146
 3324 06db 36       		.byte	0x36
 3325 06dc 12       		.uleb128 0x12
 3326 06dd 710D0000 		.4byte	.LASF147
 3327 06e1 37       		.byte	0x37
 3328 06e2 12       		.uleb128 0x12
 3329 06e3 7B2E0000 		.4byte	.LASF148
 3330 06e7 38       		.byte	0x38
 3331 06e8 12       		.uleb128 0x12
 3332 06e9 F71C0000 		.4byte	.LASF149
 3333 06ed 40       		.byte	0x40
 3334 06ee 12       		.uleb128 0x12
 3335 06ef 47230000 		.4byte	.LASF150
 3336 06f3 41       		.byte	0x41
 3337 06f4 12       		.uleb128 0x12
 3338 06f5 5D230000 		.4byte	.LASF151
 3339 06f9 42       		.byte	0x42
 3340 06fa 12       		.uleb128 0x12
 3341 06fb 2C2C0000 		.4byte	.LASF152
 3342 06ff 43       		.byte	0x43
 3343 0700 12       		.uleb128 0x12
 3344 0701 B1080000 		.4byte	.LASF153
 3345 0705 44       		.byte	0x44
 3346 0706 12       		.uleb128 0x12
 3347 0707 67050000 		.4byte	.LASF154
 3348 070b 45       		.byte	0x45
 3349 070c 12       		.uleb128 0x12
 3350 070d 25140000 		.4byte	.LASF155
 3351 0711 46       		.byte	0x46
 3352 0712 12       		.uleb128 0x12
 3353 0713 E30A0000 		.4byte	.LASF156
 3354 0717 47       		.byte	0x47
 3355 0718 12       		.uleb128 0x12
 3356 0719 700E0000 		.4byte	.LASF157
 3357 071d 48       		.byte	0x48
 3358 071e 12       		.uleb128 0x12
ARM GAS  C:\Users\haske\AppData\Local\Temp\ccN8jSR9.s 			page 90


 3359 071f 86280000 		.4byte	.LASF158
 3360 0723 49       		.byte	0x49
 3361 0724 12       		.uleb128 0x12
 3362 0725 3F0F0000 		.4byte	.LASF159
 3363 0729 4A       		.byte	0x4a
 3364 072a 12       		.uleb128 0x12
 3365 072b D8000000 		.4byte	.LASF160
 3366 072f 4B       		.byte	0x4b
 3367 0730 12       		.uleb128 0x12
 3368 0731 092A0000 		.4byte	.LASF161
 3369 0735 4C       		.byte	0x4c
 3370 0736 12       		.uleb128 0x12
 3371 0737 95150000 		.4byte	.LASF162
 3372 073b 4D       		.byte	0x4d
 3373 073c 12       		.uleb128 0x12
 3374 073d C9130000 		.4byte	.LASF163
 3375 0741 4E       		.byte	0x4e
 3376 0742 12       		.uleb128 0x12
 3377 0743 010B0000 		.4byte	.LASF164
 3378 0747 50       		.byte	0x50
 3379 0748 12       		.uleb128 0x12
 3380 0749 B4190000 		.4byte	.LASF165
 3381 074d 51       		.byte	0x51
 3382 074e 12       		.uleb128 0x12
 3383 074f 9E270000 		.4byte	.LASF166
 3384 0753 52       		.byte	0x52
 3385 0754 12       		.uleb128 0x12
 3386 0755 51010000 		.4byte	.LASF167
 3387 0759 53       		.byte	0x53
 3388 075a 12       		.uleb128 0x12
 3389 075b F3230000 		.4byte	.LASF168
 3390 075f 54       		.byte	0x54
 3391 0760 12       		.uleb128 0x12
 3392 0761 5D1A0000 		.4byte	.LASF169
 3393 0765 55       		.byte	0x55
 3394 0766 12       		.uleb128 0x12
 3395 0767 D0140000 		.4byte	.LASF170
 3396 076b 56       		.byte	0x56
 3397 076c 12       		.uleb128 0x12
 3398 076d 9F240000 		.4byte	.LASF171
 3399 0771 57       		.byte	0x57
 3400 0772 12       		.uleb128 0x12
 3401 0773 A42E0000 		.4byte	.LASF172
 3402 0777 58       		.byte	0x58
 3403 0778 12       		.uleb128 0x12
 3404 0779 0F120000 		.4byte	.LASF173
 3405 077d 59       		.byte	0x59
 3406 077e 12       		.uleb128 0x12
 3407 077f 76190000 		.4byte	.LASF174
 3408 0783 5A       		.byte	0x5a
 3409 0784 12       		.uleb128 0x12
 3410 0785 6A170000 		.4byte	.LASF175
 3411 0789 5B       		.byte	0x5b
 3412 078a 12       		.uleb128 0x12
 3413 078b 32000000 		.4byte	.LASF176
 3414 078f 60       		.byte	0x60
 3415 0790 12       		.uleb128 0x12
ARM GAS  C:\Users\haske\AppData\Local\Temp\ccN8jSR9.s 			page 91


 3416 0791 0C190000 		.4byte	.LASF177
 3417 0795 61       		.byte	0x61
 3418 0796 12       		.uleb128 0x12
 3419 0797 1A1F0000 		.4byte	.LASF178
 3420 079b 62       		.byte	0x62
 3421 079c 12       		.uleb128 0x12
 3422 079d 22170000 		.4byte	.LASF179
 3423 07a1 63       		.byte	0x63
 3424 07a2 12       		.uleb128 0x12
 3425 07a3 DE120000 		.4byte	.LASF180
 3426 07a7 64       		.byte	0x64
 3427 07a8 12       		.uleb128 0x12
 3428 07a9 B2100000 		.4byte	.LASF181
 3429 07ad 65       		.byte	0x65
 3430 07ae 12       		.uleb128 0x12
 3431 07af 34060000 		.4byte	.LASF182
 3432 07b3 66       		.byte	0x66
 3433 07b4 12       		.uleb128 0x12
 3434 07b5 AF0E0000 		.4byte	.LASF183
 3435 07b9 67       		.byte	0x67
 3436 07ba 12       		.uleb128 0x12
 3437 07bb 810F0000 		.4byte	.LASF184
 3438 07bf 68       		.byte	0x68
 3439 07c0 12       		.uleb128 0x12
 3440 07c1 A4050000 		.4byte	.LASF185
 3441 07c5 69       		.byte	0x69
 3442 07c6 12       		.uleb128 0x12
 3443 07c7 930B0000 		.4byte	.LASF186
 3444 07cb 6A       		.byte	0x6a
 3445 07cc 12       		.uleb128 0x12
 3446 07cd A80B0000 		.4byte	.LASF187
 3447 07d1 6B       		.byte	0x6b
 3448 07d2 12       		.uleb128 0x12
 3449 07d3 36140000 		.4byte	.LASF188
 3450 07d7 6C       		.byte	0x6c
 3451 07d8 12       		.uleb128 0x12
 3452 07d9 C0180000 		.4byte	.LASF189
 3453 07dd 6D       		.byte	0x6d
 3454 07de 12       		.uleb128 0x12
 3455 07df 8A0A0000 		.4byte	.LASF190
 3456 07e3 6E       		.byte	0x6e
 3457 07e4 12       		.uleb128 0x12
 3458 07e5 A50A0000 		.4byte	.LASF191
 3459 07e9 6F       		.byte	0x6f
 3460 07ea 12       		.uleb128 0x12
 3461 07eb 75030000 		.4byte	.LASF192
 3462 07ef 6F       		.byte	0x6f
 3463 07f0 12       		.uleb128 0x12
 3464 07f1 10280000 		.4byte	.LASF193
 3465 07f5 70       		.byte	0x70
 3466 07f6 19       		.uleb128 0x19
 3467 07f7 1A250000 		.4byte	.LASF194
 3468 07fb FFFF     		.2byte	0xffff
 3469 07fd 19       		.uleb128 0x19
 3470 07fe 411B0000 		.4byte	.LASF195
 3471 0802 FFFF     		.2byte	0xffff
 3472 0804 00       		.byte	0
ARM GAS  C:\Users\haske\AppData\Local\Temp\ccN8jSR9.s 			page 92


 3473 0805 1A       		.uleb128 0x1a
 3474 0806 AD0F0000 		.4byte	.LASF196
 3475 080a 0C       		.byte	0xc
 3476 080b 1C01     		.2byte	0x11c
 3477 080d E0050000 		.4byte	0x5e0
 3478 0811 1B       		.uleb128 0x1b
 3479 0812 08       		.byte	0x8
 3480 0813 0C       		.byte	0xc
 3481 0814 3601     		.2byte	0x136
 3482 0816 35080000 		.4byte	0x835
 3483 081a 1C       		.uleb128 0x1c
 3484 081b E30E0000 		.4byte	.LASF197
 3485 081f 0C       		.byte	0xc
 3486 0820 3701     		.2byte	0x137
 3487 0822 05080000 		.4byte	0x805
 3488 0826 00       		.byte	0
 3489 0827 1C       		.uleb128 0x1c
 3490 0828 5F0C0000 		.4byte	.LASF198
 3491 082c 0C       		.byte	0xc
 3492 082d 3801     		.2byte	0x138
 3493 082f D5050000 		.4byte	0x5d5
 3494 0833 04       		.byte	0x4
 3495 0834 00       		.byte	0
 3496 0835 1A       		.uleb128 0x1a
 3497 0836 48120000 		.4byte	.LASF199
 3498 083a 0C       		.byte	0xc
 3499 083b 3901     		.2byte	0x139
 3500 083d 11080000 		.4byte	0x811
 3501 0841 1D       		.uleb128 0x1d
 3502 0842 04       		.byte	0x4
 3503 0843 0C       		.byte	0xc
 3504 0844 4601     		.2byte	0x146
 3505 0846 6F080000 		.4byte	0x86f
 3506 084a 1E       		.uleb128 0x1e
 3507 084b 08240000 		.4byte	.LASF200
 3508 084f 0C       		.byte	0xc
 3509 0850 4701     		.2byte	0x147
 3510 0852 D5050000 		.4byte	0x5d5
 3511 0856 1E       		.uleb128 0x1e
 3512 0857 0F100000 		.4byte	.LASF201
 3513 085b 0C       		.byte	0xc
 3514 085c 4801     		.2byte	0x148
 3515 085e 6F080000 		.4byte	0x86f
 3516 0862 1E       		.uleb128 0x1e
 3517 0863 F40E0000 		.4byte	.LASF202
 3518 0867 0C       		.byte	0xc
 3519 0868 4901     		.2byte	0x149
 3520 086a 75080000 		.4byte	0x875
 3521 086e 00       		.byte	0
 3522 086f 0B       		.uleb128 0xb
 3523 0870 04       		.byte	0x4
 3524 0871 B8000000 		.4byte	0xb8
 3525 0875 0B       		.uleb128 0xb
 3526 0876 04       		.byte	0x4
 3527 0877 7B080000 		.4byte	0x87b
 3528 087b 0C       		.uleb128 0xc
 3529 087c 35080000 		.4byte	0x835
ARM GAS  C:\Users\haske\AppData\Local\Temp\ccN8jSR9.s 			page 93


 3530 0880 1B       		.uleb128 0x1b
 3531 0881 08       		.byte	0x8
 3532 0882 0C       		.byte	0xc
 3533 0883 3E01     		.2byte	0x13e
 3534 0885 BE080000 		.4byte	0x8be
 3535 0889 1F       		.uleb128 0x1f
 3536 088a 765F7000 		.ascii	"v_p\000"
 3537 088e 0C       		.byte	0xc
 3538 088f 4A01     		.2byte	0x14a
 3539 0891 41080000 		.4byte	0x841
 3540 0895 00       		.byte	0
 3541 0896 1C       		.uleb128 0x1c
 3542 0897 ED280000 		.4byte	.LASF203
 3543 089b 0C       		.byte	0xc
 3544 089c 4C01     		.2byte	0x14c
 3545 089e CE000000 		.4byte	0xce
 3546 08a2 04       		.byte	0x4
 3547 08a3 1C       		.uleb128 0x1c
 3548 08a4 9B010000 		.4byte	.LASF204
 3549 08a8 0C       		.byte	0xc
 3550 08a9 4D01     		.2byte	0x14d
 3551 08ab B8000000 		.4byte	0xb8
 3552 08af 06       		.byte	0x6
 3553 08b0 1C       		.uleb128 0x1c
 3554 08b1 00000000 		.4byte	.LASF205
 3555 08b5 0C       		.byte	0xc
 3556 08b6 4E01     		.2byte	0x14e
 3557 08b8 B8000000 		.4byte	0xb8
 3558 08bc 07       		.byte	0x7
 3559 08bd 00       		.byte	0
 3560 08be 1A       		.uleb128 0x1a
 3561 08bf DB130000 		.4byte	.LASF206
 3562 08c3 0C       		.byte	0xc
 3563 08c4 4F01     		.2byte	0x14f
 3564 08c6 80080000 		.4byte	0x880
 3565 08ca 11       		.uleb128 0x11
 3566 08cb 01       		.byte	0x1
 3567 08cc 42000000 		.4byte	0x42
 3568 08d0 0D       		.byte	0xd
 3569 08d1 37       		.byte	0x37
 3570 08d2 BB090000 		.4byte	0x9bb
 3571 08d6 12       		.uleb128 0x12
 3572 08d7 D4220000 		.4byte	.LASF207
 3573 08db 00       		.byte	0
 3574 08dc 12       		.uleb128 0x12
 3575 08dd D9090000 		.4byte	.LASF208
 3576 08e1 01       		.byte	0x1
 3577 08e2 12       		.uleb128 0x12
 3578 08e3 78290000 		.4byte	.LASF209
 3579 08e7 02       		.byte	0x2
 3580 08e8 12       		.uleb128 0x12
 3581 08e9 241D0000 		.4byte	.LASF210
 3582 08ed 03       		.byte	0x3
 3583 08ee 12       		.uleb128 0x12
 3584 08ef DE230000 		.4byte	.LASF211
 3585 08f3 04       		.byte	0x4
 3586 08f4 12       		.uleb128 0x12
ARM GAS  C:\Users\haske\AppData\Local\Temp\ccN8jSR9.s 			page 94


 3587 08f5 C81A0000 		.4byte	.LASF212
 3588 08f9 05       		.byte	0x5
 3589 08fa 12       		.uleb128 0x12
 3590 08fb 6E1D0000 		.4byte	.LASF213
 3591 08ff 06       		.byte	0x6
 3592 0900 12       		.uleb128 0x12
 3593 0901 F4020000 		.4byte	.LASF214
 3594 0905 07       		.byte	0x7
 3595 0906 12       		.uleb128 0x12
 3596 0907 601B0000 		.4byte	.LASF215
 3597 090b 08       		.byte	0x8
 3598 090c 12       		.uleb128 0x12
 3599 090d D91B0000 		.4byte	.LASF216
 3600 0911 09       		.byte	0x9
 3601 0912 12       		.uleb128 0x12
 3602 0913 0D1D0000 		.4byte	.LASF217
 3603 0917 0A       		.byte	0xa
 3604 0918 12       		.uleb128 0x12
 3605 0919 72010000 		.4byte	.LASF218
 3606 091d 0B       		.byte	0xb
 3607 091e 12       		.uleb128 0x12
 3608 091f EA190000 		.4byte	.LASF219
 3609 0923 0C       		.byte	0xc
 3610 0924 12       		.uleb128 0x12
 3611 0925 481A0000 		.4byte	.LASF220
 3612 0929 0D       		.byte	0xd
 3613 092a 12       		.uleb128 0x12
 3614 092b 091B0000 		.4byte	.LASF221
 3615 092f 0E       		.byte	0xe
 3616 0930 12       		.uleb128 0x12
 3617 0931 F22D0000 		.4byte	.LASF222
 3618 0935 0F       		.byte	0xf
 3619 0936 12       		.uleb128 0x12
 3620 0937 00070000 		.4byte	.LASF223
 3621 093b 10       		.byte	0x10
 3622 093c 12       		.uleb128 0x12
 3623 093d 671C0000 		.4byte	.LASF224
 3624 0941 11       		.byte	0x11
 3625 0942 12       		.uleb128 0x12
 3626 0943 7C020000 		.4byte	.LASF225
 3627 0947 12       		.byte	0x12
 3628 0948 12       		.uleb128 0x12
 3629 0949 F5050000 		.4byte	.LASF226
 3630 094d 13       		.byte	0x13
 3631 094e 12       		.uleb128 0x12
 3632 094f 47240000 		.4byte	.LASF227
 3633 0953 14       		.byte	0x14
 3634 0954 12       		.uleb128 0x12
 3635 0955 BB110000 		.4byte	.LASF228
 3636 0959 15       		.byte	0x15
 3637 095a 12       		.uleb128 0x12
 3638 095b D1110000 		.4byte	.LASF229
 3639 095f 16       		.byte	0x16
 3640 0960 12       		.uleb128 0x12
 3641 0961 9D200000 		.4byte	.LASF230
 3642 0965 17       		.byte	0x17
 3643 0966 12       		.uleb128 0x12
ARM GAS  C:\Users\haske\AppData\Local\Temp\ccN8jSR9.s 			page 95


 3644 0967 F9110000 		.4byte	.LASF231
 3645 096b 18       		.byte	0x18
 3646 096c 12       		.uleb128 0x12
 3647 096d 0D0E0000 		.4byte	.LASF232
 3648 0971 19       		.byte	0x19
 3649 0972 12       		.uleb128 0x12
 3650 0973 3D130000 		.4byte	.LASF233
 3651 0977 1A       		.byte	0x1a
 3652 0978 12       		.uleb128 0x12
 3653 0979 53130000 		.4byte	.LASF234
 3654 097d 1B       		.byte	0x1b
 3655 097e 12       		.uleb128 0x12
 3656 097f 69130000 		.4byte	.LASF235
 3657 0983 1C       		.byte	0x1c
 3658 0984 12       		.uleb128 0x12
 3659 0985 7F130000 		.4byte	.LASF236
 3660 0989 1D       		.byte	0x1d
 3661 098a 12       		.uleb128 0x12
 3662 098b 371E0000 		.4byte	.LASF237
 3663 098f 1E       		.byte	0x1e
 3664 0990 12       		.uleb128 0x12
 3665 0991 501E0000 		.4byte	.LASF238
 3666 0995 1F       		.byte	0x1f
 3667 0996 12       		.uleb128 0x12
 3668 0997 691E0000 		.4byte	.LASF239
 3669 099b 20       		.byte	0x20
 3670 099c 12       		.uleb128 0x12
 3671 099d 821E0000 		.4byte	.LASF240
 3672 09a1 21       		.byte	0x21
 3673 09a2 12       		.uleb128 0x12
 3674 09a3 9B1E0000 		.4byte	.LASF241
 3675 09a7 22       		.byte	0x22
 3676 09a8 12       		.uleb128 0x12
 3677 09a9 B41E0000 		.4byte	.LASF242
 3678 09ad 23       		.byte	0x23
 3679 09ae 12       		.uleb128 0x12
 3680 09af CD1E0000 		.4byte	.LASF243
 3681 09b3 24       		.byte	0x24
 3682 09b4 12       		.uleb128 0x12
 3683 09b5 E61E0000 		.4byte	.LASF244
 3684 09b9 25       		.byte	0x25
 3685 09ba 00       		.byte	0
 3686 09bb 02       		.uleb128 0x2
 3687 09bc A8140000 		.4byte	.LASF245
 3688 09c0 0D       		.byte	0xd
 3689 09c1 69       		.byte	0x69
 3690 09c2 B8000000 		.4byte	0xb8
 3691 09c6 05       		.uleb128 0x5
 3692 09c7 04       		.byte	0x4
 3693 09c8 0D       		.byte	0xd
 3694 09c9 7E       		.byte	0x7e
 3695 09ca 150A0000 		.4byte	0xa15
 3696 09ce 08       		.uleb128 0x8
 3697 09cf 636600   		.ascii	"cf\000"
 3698 09d2 0D       		.byte	0xd
 3699 09d3 80       		.byte	0x80
 3700 09d4 E4000000 		.4byte	0xe4
ARM GAS  C:\Users\haske\AppData\Local\Temp\ccN8jSR9.s 			page 96


 3701 09d8 04       		.byte	0x4
 3702 09d9 05       		.byte	0x5
 3703 09da 1B       		.byte	0x1b
 3704 09db 00       		.byte	0
 3705 09dc 09       		.uleb128 0x9
 3706 09dd 102C0000 		.4byte	.LASF246
 3707 09e1 0D       		.byte	0xd
 3708 09e2 81       		.byte	0x81
 3709 09e3 E4000000 		.4byte	0xe4
 3710 09e7 04       		.byte	0x4
 3711 09e8 03       		.byte	0x3
 3712 09e9 18       		.byte	0x18
 3713 09ea 00       		.byte	0
 3714 09eb 09       		.uleb128 0x9
 3715 09ec 152B0000 		.4byte	.LASF247
 3716 09f0 0D       		.byte	0xd
 3717 09f1 84       		.byte	0x84
 3718 09f2 E4000000 		.4byte	0xe4
 3719 09f6 04       		.byte	0x4
 3720 09f7 02       		.byte	0x2
 3721 09f8 16       		.byte	0x16
 3722 09f9 00       		.byte	0
 3723 09fa 08       		.uleb128 0x8
 3724 09fb 7700     		.ascii	"w\000"
 3725 09fd 0D       		.byte	0xd
 3726 09fe 86       		.byte	0x86
 3727 09ff E4000000 		.4byte	0xe4
 3728 0a03 04       		.byte	0x4
 3729 0a04 0B       		.byte	0xb
 3730 0a05 0B       		.byte	0xb
 3731 0a06 00       		.byte	0
 3732 0a07 08       		.uleb128 0x8
 3733 0a08 6800     		.ascii	"h\000"
 3734 0a0a 0D       		.byte	0xd
 3735 0a0b 87       		.byte	0x87
 3736 0a0c E4000000 		.4byte	0xe4
 3737 0a10 04       		.byte	0x4
 3738 0a11 0B       		.byte	0xb
 3739 0a12 00       		.byte	0
 3740 0a13 00       		.byte	0
 3741 0a14 00       		.byte	0
 3742 0a15 02       		.uleb128 0x2
 3743 0a16 E3010000 		.4byte	.LASF248
 3744 0a1a 0D       		.byte	0xd
 3745 0a1b 88       		.byte	0x88
 3746 0a1c C6090000 		.4byte	0x9c6
 3747 0a20 05       		.uleb128 0x5
 3748 0a21 0C       		.byte	0xc
 3749 0a22 0D       		.byte	0xd
 3750 0a23 8D       		.byte	0x8d
 3751 0a24 4D0A0000 		.4byte	0xa4d
 3752 0a28 07       		.uleb128 0x7
 3753 0a29 2E0B0000 		.4byte	.LASF249
 3754 0a2d 0D       		.byte	0xd
 3755 0a2e 8E       		.byte	0x8e
 3756 0a2f 150A0000 		.4byte	0xa15
 3757 0a33 00       		.byte	0
ARM GAS  C:\Users\haske\AppData\Local\Temp\ccN8jSR9.s 			page 97


 3758 0a34 07       		.uleb128 0x7
 3759 0a35 0C160000 		.4byte	.LASF250
 3760 0a39 0D       		.byte	0xd
 3761 0a3a 8F       		.byte	0x8f
 3762 0a3b E4000000 		.4byte	0xe4
 3763 0a3f 04       		.byte	0x4
 3764 0a40 07       		.uleb128 0x7
 3765 0a41 4F080000 		.4byte	.LASF251
 3766 0a45 0D       		.byte	0xd
 3767 0a46 90       		.byte	0x90
 3768 0a47 D1020000 		.4byte	0x2d1
 3769 0a4b 08       		.byte	0x8
 3770 0a4c 00       		.byte	0
 3771 0a4d 02       		.uleb128 0x2
 3772 0a4e 73230000 		.4byte	.LASF252
 3773 0a52 0D       		.byte	0xd
 3774 0a53 91       		.byte	0x91
 3775 0a54 200A0000 		.4byte	0xa20
 3776 0a58 0B       		.uleb128 0xb
 3777 0a59 04       		.byte	0x4
 3778 0a5a 5E0A0000 		.4byte	0xa5e
 3779 0a5e 0A       		.uleb128 0xa
 3780 0a5f 12260000 		.4byte	.LASF254
 3781 0a63 24       		.byte	0x24
 3782 0a64 0E       		.byte	0xe
 3783 0a65 AE       		.byte	0xae
 3784 0a66 250B0000 		.4byte	0xb25
 3785 0a6a 07       		.uleb128 0x7
 3786 0a6b 811A0000 		.4byte	.LASF255
 3787 0a6f 0E       		.byte	0xe
 3788 0a70 AF       		.byte	0xaf
 3789 0a71 F5220000 		.4byte	0x22f5
 3790 0a75 00       		.byte	0
 3791 0a76 07       		.uleb128 0x7
 3792 0a77 7D120000 		.4byte	.LASF256
 3793 0a7b 0E       		.byte	0xe
 3794 0a7c B0       		.byte	0xb0
 3795 0a7d 580A0000 		.4byte	0xa58
 3796 0a81 04       		.byte	0x4
 3797 0a82 07       		.uleb128 0x7
 3798 0a83 56020000 		.4byte	.LASF257
 3799 0a87 0E       		.byte	0xe
 3800 0a88 B1       		.byte	0xb1
 3801 0a89 00230000 		.4byte	0x2300
 3802 0a8d 08       		.byte	0x8
 3803 0a8e 07       		.uleb128 0x7
 3804 0a8f 03140000 		.4byte	.LASF258
 3805 0a93 0E       		.byte	0xe
 3806 0a94 B2       		.byte	0xb2
 3807 0a95 06230000 		.4byte	0x2306
 3808 0a99 0C       		.byte	0xc
 3809 0a9a 07       		.uleb128 0x7
 3810 0a9b F22B0000 		.4byte	.LASF42
 3811 0a9f 0E       		.byte	0xe
 3812 0aa0 B4       		.byte	0xb4
 3813 0aa1 E9020000 		.4byte	0x2e9
 3814 0aa5 10       		.byte	0x10
ARM GAS  C:\Users\haske\AppData\Local\Temp\ccN8jSR9.s 			page 98


 3815 0aa6 07       		.uleb128 0x7
 3816 0aa7 DC270000 		.4byte	.LASF259
 3817 0aab 0E       		.byte	0xe
 3818 0aac B6       		.byte	0xb6
 3819 0aad 69010000 		.4byte	0x169
 3820 0ab1 14       		.byte	0x14
 3821 0ab2 07       		.uleb128 0x7
 3822 0ab3 7C0C0000 		.4byte	.LASF260
 3823 0ab7 0E       		.byte	0xe
 3824 0ab8 B7       		.byte	0xb7
 3825 0ab9 8D1E0000 		.4byte	0x1e8d
 3826 0abd 1C       		.byte	0x1c
 3827 0abe 07       		.uleb128 0x7
 3828 0abf C1020000 		.4byte	.LASF261
 3829 0ac3 0E       		.byte	0xe
 3830 0ac4 B8       		.byte	0xb8
 3831 0ac5 361D0000 		.4byte	0x1d36
 3832 0ac9 20       		.byte	0x20
 3833 0aca 09       		.uleb128 0x9
 3834 0acb FB080000 		.4byte	.LASF262
 3835 0acf 0E       		.byte	0xe
 3836 0ad0 B9       		.byte	0xb9
 3837 0ad1 CE000000 		.4byte	0xce
 3838 0ad5 02       		.byte	0x2
 3839 0ad6 01       		.byte	0x1
 3840 0ad7 0F       		.byte	0xf
 3841 0ad8 22       		.byte	0x22
 3842 0ad9 09       		.uleb128 0x9
 3843 0ada 25050000 		.4byte	.LASF263
 3844 0ade 0E       		.byte	0xe
 3845 0adf BA       		.byte	0xba
 3846 0ae0 CE000000 		.4byte	0xce
 3847 0ae4 02       		.byte	0x2
 3848 0ae5 01       		.byte	0x1
 3849 0ae6 0E       		.byte	0xe
 3850 0ae7 22       		.byte	0x22
 3851 0ae8 09       		.uleb128 0x9
 3852 0ae9 FF190000 		.4byte	.LASF264
 3853 0aed 0E       		.byte	0xe
 3854 0aee BB       		.byte	0xbb
 3855 0aef CE000000 		.4byte	0xce
 3856 0af3 02       		.byte	0x2
 3857 0af4 01       		.byte	0x1
 3858 0af5 0D       		.byte	0xd
 3859 0af6 22       		.byte	0x22
 3860 0af7 09       		.uleb128 0x9
 3861 0af8 F1080000 		.4byte	.LASF265
 3862 0afc 0E       		.byte	0xe
 3863 0afd BC       		.byte	0xbc
 3864 0afe CE000000 		.4byte	0xce
 3865 0b02 02       		.byte	0x2
 3866 0b03 06       		.byte	0x6
 3867 0b04 07       		.byte	0x7
 3868 0b05 22       		.byte	0x22
 3869 0b06 09       		.uleb128 0x9
 3870 0b07 4D0B0000 		.4byte	.LASF266
 3871 0b0b 0E       		.byte	0xe
ARM GAS  C:\Users\haske\AppData\Local\Temp\ccN8jSR9.s 			page 99


 3872 0b0c BD       		.byte	0xbd
 3873 0b0d CE000000 		.4byte	0xce
 3874 0b11 02       		.byte	0x2
 3875 0b12 01       		.byte	0x1
 3876 0b13 06       		.byte	0x6
 3877 0b14 22       		.byte	0x22
 3878 0b15 09       		.uleb128 0x9
 3879 0b16 F3040000 		.4byte	.LASF267
 3880 0b1a 0E       		.byte	0xe
 3881 0b1b BE       		.byte	0xbe
 3882 0b1c CE000000 		.4byte	0xce
 3883 0b20 02       		.byte	0x2
 3884 0b21 01       		.byte	0x1
 3885 0b22 05       		.byte	0x5
 3886 0b23 22       		.byte	0x22
 3887 0b24 00       		.byte	0
 3888 0b25 0B       		.uleb128 0xb
 3889 0b26 04       		.byte	0x4
 3890 0b27 2B040000 		.4byte	0x42b
 3891 0b2b 05       		.uleb128 0x5
 3892 0b2c 38       		.byte	0x38
 3893 0b2d 0F       		.byte	0xf
 3894 0b2e 20       		.byte	0x20
 3895 0b2f 720C0000 		.4byte	0xc72
 3896 0b33 07       		.uleb128 0x7
 3897 0b34 F3010000 		.4byte	.LASF268
 3898 0b38 0F       		.byte	0xf
 3899 0b39 21       		.byte	0x21
 3900 0b3a 01010000 		.4byte	0x101
 3901 0b3e 00       		.byte	0
 3902 0b3f 07       		.uleb128 0x7
 3903 0b40 FC040000 		.4byte	.LASF269
 3904 0b44 0F       		.byte	0xf
 3905 0b45 22       		.byte	0x22
 3906 0b46 EE040000 		.4byte	0x4ee
 3907 0b4a 02       		.byte	0x2
 3908 0b4b 07       		.uleb128 0x7
 3909 0b4c A2060000 		.4byte	.LASF270
 3910 0b50 0F       		.byte	0xf
 3911 0b51 25       		.byte	0x25
 3912 0b52 36040000 		.4byte	0x436
 3913 0b56 03       		.byte	0x3
 3914 0b57 07       		.uleb128 0x7
 3915 0b58 FA010000 		.4byte	.LASF271
 3916 0b5c 0F       		.byte	0xf
 3917 0b5d 26       		.byte	0x26
 3918 0b5e 2B040000 		.4byte	0x42b
 3919 0b62 04       		.byte	0x4
 3920 0b63 07       		.uleb128 0x7
 3921 0b64 AC290000 		.4byte	.LASF272
 3922 0b68 0F       		.byte	0xf
 3923 0b69 27       		.byte	0x27
 3924 0b6a A0050000 		.4byte	0x5a0
 3925 0b6e 06       		.byte	0x6
 3926 0b6f 07       		.uleb128 0x7
 3927 0b70 C8030000 		.4byte	.LASF273
 3928 0b74 0F       		.byte	0xf
ARM GAS  C:\Users\haske\AppData\Local\Temp\ccN8jSR9.s 			page 100


 3929 0b75 2A       		.byte	0x2a
 3930 0b76 E2020000 		.4byte	0x2e2
 3931 0b7a 10       		.byte	0x10
 3932 0b7b 07       		.uleb128 0x7
 3933 0b7c CA040000 		.4byte	.LASF274
 3934 0b80 0F       		.byte	0xf
 3935 0b81 2B       		.byte	0x2b
 3936 0b82 E2020000 		.4byte	0x2e2
 3937 0b86 14       		.byte	0x14
 3938 0b87 07       		.uleb128 0x7
 3939 0b88 BC260000 		.4byte	.LASF275
 3940 0b8c 0F       		.byte	0xf
 3941 0b8d 2C       		.byte	0x2c
 3942 0b8e 2B040000 		.4byte	0x42b
 3943 0b92 18       		.byte	0x18
 3944 0b93 07       		.uleb128 0x7
 3945 0b94 6E270000 		.4byte	.LASF276
 3946 0b98 0F       		.byte	0xf
 3947 0b99 2D       		.byte	0x2d
 3948 0b9a 36040000 		.4byte	0x436
 3949 0b9e 1A       		.byte	0x1a
 3950 0b9f 07       		.uleb128 0x7
 3951 0ba0 36200000 		.4byte	.LASF277
 3952 0ba4 0F       		.byte	0xf
 3953 0ba5 2E       		.byte	0x2e
 3954 0ba6 36040000 		.4byte	0x436
 3955 0baa 1B       		.byte	0x1b
 3956 0bab 07       		.uleb128 0x7
 3957 0bac 78090000 		.4byte	.LASF278
 3958 0bb0 0F       		.byte	0xf
 3959 0bb1 2F       		.byte	0x2f
 3960 0bb2 B8000000 		.4byte	0xb8
 3961 0bb6 1C       		.byte	0x1c
 3962 0bb7 07       		.uleb128 0x7
 3963 0bb8 8E0E0000 		.4byte	.LASF279
 3964 0bbc 0F       		.byte	0xf
 3965 0bbd 32       		.byte	0x32
 3966 0bbe 2B040000 		.4byte	0x42b
 3967 0bc2 1E       		.byte	0x1e
 3968 0bc3 07       		.uleb128 0x7
 3969 0bc4 02230000 		.4byte	.LASF280
 3970 0bc8 0F       		.byte	0xf
 3971 0bc9 33       		.byte	0x33
 3972 0bca 01010000 		.4byte	0x101
 3973 0bce 20       		.byte	0x20
 3974 0bcf 07       		.uleb128 0x7
 3975 0bd0 28290000 		.4byte	.LASF281
 3976 0bd4 0F       		.byte	0xf
 3977 0bd5 34       		.byte	0x34
 3978 0bd6 36040000 		.4byte	0x436
 3979 0bda 22       		.byte	0x22
 3980 0bdb 09       		.uleb128 0x9
 3981 0bdc 200F0000 		.4byte	.LASF282
 3982 0be0 0F       		.byte	0xf
 3983 0be1 35       		.byte	0x35
 3984 0be2 B8000000 		.4byte	0xb8
 3985 0be6 01       		.byte	0x1
ARM GAS  C:\Users\haske\AppData\Local\Temp\ccN8jSR9.s 			page 101


 3986 0be7 01       		.byte	0x1
 3987 0be8 07       		.byte	0x7
 3988 0be9 23       		.byte	0x23
 3989 0bea 09       		.uleb128 0x9
 3990 0beb DD040000 		.4byte	.LASF283
 3991 0bef 0F       		.byte	0xf
 3992 0bf0 36       		.byte	0x36
 3993 0bf1 04050000 		.4byte	0x504
 3994 0bf5 01       		.byte	0x1
 3995 0bf6 05       		.byte	0x5
 3996 0bf7 02       		.byte	0x2
 3997 0bf8 23       		.byte	0x23
 3998 0bf9 07       		.uleb128 0x7
 3999 0bfa A3080000 		.4byte	.LASF284
 4000 0bfe 0F       		.byte	0xf
 4001 0bff 39       		.byte	0x39
 4002 0c00 2B040000 		.4byte	0x42b
 4003 0c04 24       		.byte	0x24
 4004 0c05 07       		.uleb128 0x7
 4005 0c06 E91C0000 		.4byte	.LASF285
 4006 0c0a 0F       		.byte	0xf
 4007 0c0b 3A       		.byte	0x3a
 4008 0c0c 01010000 		.4byte	0x101
 4009 0c10 26       		.byte	0x26
 4010 0c11 07       		.uleb128 0x7
 4011 0c12 440E0000 		.4byte	.LASF286
 4012 0c16 0F       		.byte	0xf
 4013 0c17 3B       		.byte	0x3b
 4014 0c18 01010000 		.4byte	0x101
 4015 0c1c 28       		.byte	0x28
 4016 0c1d 07       		.uleb128 0x7
 4017 0c1e C31B0000 		.4byte	.LASF287
 4018 0c22 0F       		.byte	0xf
 4019 0c23 3C       		.byte	0x3c
 4020 0c24 36040000 		.4byte	0x436
 4021 0c28 2A       		.byte	0x2a
 4022 0c29 07       		.uleb128 0x7
 4023 0c2a 41180000 		.4byte	.LASF288
 4024 0c2e 0F       		.byte	0xf
 4025 0c2f 3F       		.byte	0x3f
 4026 0c30 2B040000 		.4byte	0x42b
 4027 0c34 2C       		.byte	0x2c
 4028 0c35 07       		.uleb128 0x7
 4029 0c36 CB2A0000 		.4byte	.LASF289
 4030 0c3a 0F       		.byte	0xf
 4031 0c3b 40       		.byte	0x40
 4032 0c3c 01010000 		.4byte	0x101
 4033 0c40 2E       		.byte	0x2e
 4034 0c41 07       		.uleb128 0x7
 4035 0c42 740F0000 		.4byte	.LASF290
 4036 0c46 0F       		.byte	0xf
 4037 0c47 41       		.byte	0x41
 4038 0c48 01010000 		.4byte	0x101
 4039 0c4c 30       		.byte	0x30
 4040 0c4d 07       		.uleb128 0x7
 4041 0c4e 032E0000 		.4byte	.LASF291
 4042 0c52 0F       		.byte	0xf
ARM GAS  C:\Users\haske\AppData\Local\Temp\ccN8jSR9.s 			page 102


 4043 0c53 42       		.byte	0x42
 4044 0c54 01010000 		.4byte	0x101
 4045 0c58 32       		.byte	0x32
 4046 0c59 07       		.uleb128 0x7
 4047 0c5a D0120000 		.4byte	.LASF292
 4048 0c5e 0F       		.byte	0xf
 4049 0c5f 43       		.byte	0x43
 4050 0c60 01010000 		.4byte	0x101
 4051 0c64 34       		.byte	0x34
 4052 0c65 07       		.uleb128 0x7
 4053 0c66 79270000 		.4byte	.LASF293
 4054 0c6a 0F       		.byte	0xf
 4055 0c6b 44       		.byte	0x44
 4056 0c6c 36040000 		.4byte	0x436
 4057 0c70 36       		.byte	0x36
 4058 0c71 00       		.byte	0
 4059 0c72 02       		.uleb128 0x2
 4060 0c73 22220000 		.4byte	.LASF294
 4061 0c77 0F       		.byte	0xf
 4062 0c78 45       		.byte	0x45
 4063 0c79 2B0B0000 		.4byte	0xb2b
 4064 0c7d 05       		.uleb128 0x5
 4065 0c7e 20       		.byte	0x20
 4066 0c7f 10       		.byte	0x10
 4067 0c80 1E       		.byte	0x1e
 4068 0c81 4C0D0000 		.4byte	0xd4c
 4069 0c85 07       		.uleb128 0x7
 4070 0c86 1C260000 		.4byte	.LASF295
 4071 0c8a 10       		.byte	0x10
 4072 0c8b 1F       		.byte	0x1f
 4073 0c8c 4C0D0000 		.4byte	0xd4c
 4074 0c90 00       		.byte	0
 4075 0c91 07       		.uleb128 0x7
 4076 0c92 692A0000 		.4byte	.LASF296
 4077 0c96 10       		.byte	0x10
 4078 0c97 20       		.byte	0x20
 4079 0c98 E4000000 		.4byte	0xe4
 4080 0c9c 04       		.byte	0x4
 4081 0c9d 07       		.uleb128 0x7
 4082 0c9e 391B0000 		.4byte	.LASF297
 4083 0ca2 10       		.byte	0x10
 4084 0ca3 21       		.byte	0x21
 4085 0ca4 E4000000 		.4byte	0xe4
 4086 0ca8 08       		.byte	0x8
 4087 0ca9 07       		.uleb128 0x7
 4088 0caa 7A250000 		.4byte	.LASF99
 4089 0cae 10       		.byte	0x10
 4090 0caf 22       		.byte	0x22
 4091 0cb0 2B040000 		.4byte	0x42b
 4092 0cb4 0C       		.byte	0xc
 4093 0cb5 07       		.uleb128 0x7
 4094 0cb6 962D0000 		.4byte	.LASF298
 4095 0cba 10       		.byte	0x10
 4096 0cbb 23       		.byte	0x23
 4097 0cbc 2B040000 		.4byte	0x42b
 4098 0cc0 0E       		.byte	0xe
 4099 0cc1 07       		.uleb128 0x7
ARM GAS  C:\Users\haske\AppData\Local\Temp\ccN8jSR9.s 			page 103


 4100 0cc2 36070000 		.4byte	.LASF299
 4101 0cc6 10       		.byte	0x10
 4102 0cc7 24       		.byte	0x24
 4103 0cc8 2B040000 		.4byte	0x42b
 4104 0ccc 10       		.byte	0x10
 4105 0ccd 07       		.uleb128 0x7
 4106 0cce 95250000 		.4byte	.LASF300
 4107 0cd2 10       		.byte	0x10
 4108 0cd3 25       		.byte	0x25
 4109 0cd4 01010000 		.4byte	0x101
 4110 0cd8 12       		.byte	0x12
 4111 0cd9 07       		.uleb128 0x7
 4112 0cda 21260000 		.4byte	.LASF301
 4113 0cde 10       		.byte	0x10
 4114 0cdf 26       		.byte	0x26
 4115 0ce0 01010000 		.4byte	0x101
 4116 0ce4 14       		.byte	0x14
 4117 0ce5 07       		.uleb128 0x7
 4118 0ce6 140B0000 		.4byte	.LASF31
 4119 0cea 10       		.byte	0x10
 4120 0ceb 27       		.byte	0x27
 4121 0cec 01010000 		.4byte	0x101
 4122 0cf0 16       		.byte	0x16
 4123 0cf1 07       		.uleb128 0x7
 4124 0cf2 1A0B0000 		.4byte	.LASF32
 4125 0cf6 10       		.byte	0x10
 4126 0cf7 28       		.byte	0x28
 4127 0cf8 01010000 		.4byte	0x101
 4128 0cfc 18       		.byte	0x18
 4129 0cfd 06       		.uleb128 0x6
 4130 0cfe 6F706100 		.ascii	"opa\000"
 4131 0d02 10       		.byte	0x10
 4132 0d03 29       		.byte	0x29
 4133 0d04 36040000 		.4byte	0x436
 4134 0d08 1A       		.byte	0x1a
 4135 0d09 07       		.uleb128 0x7
 4136 0d0a 30020000 		.4byte	.LASF302
 4137 0d0e 10       		.byte	0x10
 4138 0d0f 2A       		.byte	0x2a
 4139 0d10 E3040000 		.4byte	0x4e3
 4140 0d14 1B       		.byte	0x1b
 4141 0d15 07       		.uleb128 0x7
 4142 0d16 A0190000 		.4byte	.LASF303
 4143 0d1a 10       		.byte	0x10
 4144 0d1b 2B       		.byte	0x2b
 4145 0d1c D8040000 		.4byte	0x4d8
 4146 0d20 1C       		.byte	0x1c
 4147 0d21 07       		.uleb128 0x7
 4148 0d22 771B0000 		.4byte	.LASF304
 4149 0d26 10       		.byte	0x10
 4150 0d27 2C       		.byte	0x2c
 4151 0d28 CD040000 		.4byte	0x4cd
 4152 0d2c 1D       		.byte	0x1d
 4153 0d2d 09       		.uleb128 0x9
 4154 0d2e 5A240000 		.4byte	.LASF305
 4155 0d32 10       		.byte	0x10
 4156 0d33 2D       		.byte	0x2d
ARM GAS  C:\Users\haske\AppData\Local\Temp\ccN8jSR9.s 			page 104


 4157 0d34 F9040000 		.4byte	0x4f9
 4158 0d38 01       		.byte	0x1
 4159 0d39 03       		.byte	0x3
 4160 0d3a 05       		.byte	0x5
 4161 0d3b 1E       		.byte	0x1e
 4162 0d3c 09       		.uleb128 0x9
 4163 0d3d FC040000 		.4byte	.LASF269
 4164 0d41 10       		.byte	0x10
 4165 0d42 2E       		.byte	0x2e
 4166 0d43 EE040000 		.4byte	0x4ee
 4167 0d47 01       		.byte	0x1
 4168 0d48 03       		.byte	0x3
 4169 0d49 02       		.byte	0x2
 4170 0d4a 1E       		.byte	0x1e
 4171 0d4b 00       		.byte	0
 4172 0d4c 0B       		.uleb128 0xb
 4173 0d4d 04       		.byte	0x4
 4174 0d4e 520D0000 		.4byte	0xd52
 4175 0d52 0C       		.uleb128 0xc
 4176 0d53 EB020000 		.4byte	0x2eb
 4177 0d57 02       		.uleb128 0x2
 4178 0d58 D7060000 		.4byte	.LASF306
 4179 0d5c 10       		.byte	0x10
 4180 0d5d 2F       		.byte	0x2f
 4181 0d5e 7D0C0000 		.4byte	0xc7d
 4182 0d62 05       		.uleb128 0x5
 4183 0d63 18       		.byte	0x18
 4184 0d64 11       		.byte	0x11
 4185 0d65 20       		.byte	0x20
 4186 0d66 DD0D0000 		.4byte	0xddd
 4187 0d6a 07       		.uleb128 0x7
 4188 0d6b 33160000 		.4byte	.LASF307
 4189 0d6f 11       		.byte	0x11
 4190 0d70 22       		.byte	0x22
 4191 0d71 C3000000 		.4byte	0xc3
 4192 0d75 00       		.byte	0
 4193 0d76 07       		.uleb128 0x7
 4194 0d77 F3150000 		.4byte	.LASF308
 4195 0d7b 11       		.byte	0x11
 4196 0d7c 23       		.byte	0x23
 4197 0d7d CE000000 		.4byte	0xce
 4198 0d81 02       		.byte	0x2
 4199 0d82 07       		.uleb128 0x7
 4200 0d83 80250000 		.4byte	.LASF309
 4201 0d87 11       		.byte	0x11
 4202 0d88 24       		.byte	0x24
 4203 0d89 29010000 		.4byte	0x129
 4204 0d8d 04       		.byte	0x4
 4205 0d8e 07       		.uleb128 0x7
 4206 0d8f 04160000 		.4byte	.LASF310
 4207 0d93 11       		.byte	0x11
 4208 0d94 26       		.byte	0x26
 4209 0d95 2B040000 		.4byte	0x42b
 4210 0d99 08       		.byte	0x8
 4211 0d9a 07       		.uleb128 0x7
 4212 0d9b 7A1C0000 		.4byte	.LASF311
 4213 0d9f 11       		.byte	0x11
ARM GAS  C:\Users\haske\AppData\Local\Temp\ccN8jSR9.s 			page 105


 4214 0da0 27       		.byte	0x27
 4215 0da1 36040000 		.4byte	0x436
 4216 0da5 0A       		.byte	0xa
 4217 0da6 06       		.uleb128 0x6
 4218 0da7 6F706100 		.ascii	"opa\000"
 4219 0dab 11       		.byte	0x11
 4220 0dac 29       		.byte	0x29
 4221 0dad 36040000 		.4byte	0x436
 4222 0db1 0B       		.byte	0xb
 4223 0db2 09       		.uleb128 0x9
 4224 0db3 FC040000 		.4byte	.LASF269
 4225 0db7 11       		.byte	0x11
 4226 0db8 2A       		.byte	0x2a
 4227 0db9 EE040000 		.4byte	0x4ee
 4228 0dbd 01       		.byte	0x1
 4229 0dbe 04       		.byte	0x4
 4230 0dbf 04       		.byte	0x4
 4231 0dc0 0C       		.byte	0xc
 4232 0dc1 07       		.uleb128 0x7
 4233 0dc2 341C0000 		.4byte	.LASF312
 4234 0dc6 11       		.byte	0x11
 4235 0dc7 2C       		.byte	0x2c
 4236 0dc8 D9000000 		.4byte	0xd9
 4237 0dcc 10       		.byte	0x10
 4238 0dcd 09       		.uleb128 0x9
 4239 0dce 901D0000 		.4byte	.LASF313
 4240 0dd2 11       		.byte	0x11
 4241 0dd3 2D       		.byte	0x2d
 4242 0dd4 B8000000 		.4byte	0xb8
 4243 0dd8 01       		.byte	0x1
 4244 0dd9 01       		.byte	0x1
 4245 0dda 07       		.byte	0x7
 4246 0ddb 14       		.byte	0x14
 4247 0ddc 00       		.byte	0
 4248 0ddd 02       		.uleb128 0x2
 4249 0dde 9D0C0000 		.4byte	.LASF314
 4250 0de2 11       		.byte	0x11
 4251 0de3 2E       		.byte	0x2e
 4252 0de4 620D0000 		.4byte	0xd62
 4253 0de8 05       		.uleb128 0x5
 4254 0de9 0A       		.byte	0xa
 4255 0dea 12       		.byte	0x12
 4256 0deb 1C       		.byte	0x1c
 4257 0dec 690E0000 		.4byte	0xe69
 4258 0df0 07       		.uleb128 0x7
 4259 0df1 7A250000 		.4byte	.LASF99
 4260 0df5 12       		.byte	0x12
 4261 0df6 1D       		.byte	0x1d
 4262 0df7 2B040000 		.4byte	0x42b
 4263 0dfb 00       		.byte	0
 4264 0dfc 07       		.uleb128 0x7
 4265 0dfd 6B180000 		.4byte	.LASF315
 4266 0e01 12       		.byte	0x12
 4267 0e02 1E       		.byte	0x1e
 4268 0e03 01010000 		.4byte	0x101
 4269 0e07 02       		.byte	0x2
 4270 0e08 07       		.uleb128 0x7
ARM GAS  C:\Users\haske\AppData\Local\Temp\ccN8jSR9.s 			page 106


 4271 0e09 1C150000 		.4byte	.LASF316
 4272 0e0d 12       		.byte	0x12
 4273 0e0e 1F       		.byte	0x1f
 4274 0e0f 01010000 		.4byte	0x101
 4275 0e13 04       		.byte	0x4
 4276 0e14 07       		.uleb128 0x7
 4277 0e15 260D0000 		.4byte	.LASF317
 4278 0e19 12       		.byte	0x12
 4279 0e1a 20       		.byte	0x20
 4280 0e1b 01010000 		.4byte	0x101
 4281 0e1f 06       		.byte	0x6
 4282 0e20 06       		.uleb128 0x6
 4283 0e21 6F706100 		.ascii	"opa\000"
 4284 0e25 12       		.byte	0x12
 4285 0e26 21       		.byte	0x21
 4286 0e27 36040000 		.4byte	0x436
 4287 0e2b 08       		.byte	0x8
 4288 0e2c 09       		.uleb128 0x9
 4289 0e2d FC040000 		.4byte	.LASF269
 4290 0e31 12       		.byte	0x12
 4291 0e32 22       		.byte	0x22
 4292 0e33 EE040000 		.4byte	0x4ee
 4293 0e37 01       		.byte	0x1
 4294 0e38 02       		.byte	0x2
 4295 0e39 06       		.byte	0x6
 4296 0e3a 09       		.byte	0x9
 4297 0e3b 09       		.uleb128 0x9
 4298 0e3c F30F0000 		.4byte	.LASF318
 4299 0e40 12       		.byte	0x12
 4300 0e41 23       		.byte	0x23
 4301 0e42 B8000000 		.4byte	0xb8
 4302 0e46 01       		.byte	0x1
 4303 0e47 01       		.byte	0x1
 4304 0e48 05       		.byte	0x5
 4305 0e49 09       		.byte	0x9
 4306 0e4a 09       		.uleb128 0x9
 4307 0e4b 91120000 		.4byte	.LASF319
 4308 0e4f 12       		.byte	0x12
 4309 0e50 24       		.byte	0x24
 4310 0e51 B8000000 		.4byte	0xb8
 4311 0e55 01       		.byte	0x1
 4312 0e56 01       		.byte	0x1
 4313 0e57 04       		.byte	0x4
 4314 0e58 09       		.byte	0x9
 4315 0e59 09       		.uleb128 0x9
 4316 0e5a 62010000 		.4byte	.LASF320
 4317 0e5e 12       		.byte	0x12
 4318 0e5f 25       		.byte	0x25
 4319 0e60 B8000000 		.4byte	0xb8
 4320 0e64 01       		.byte	0x1
 4321 0e65 01       		.byte	0x1
 4322 0e66 03       		.byte	0x3
 4323 0e67 09       		.byte	0x9
 4324 0e68 00       		.byte	0
 4325 0e69 02       		.uleb128 0x2
 4326 0e6a 770A0000 		.4byte	.LASF321
 4327 0e6e 12       		.byte	0x12
ARM GAS  C:\Users\haske\AppData\Local\Temp\ccN8jSR9.s 			page 107


 4328 0e6f 26       		.byte	0x26
 4329 0e70 E80D0000 		.4byte	0xde8
 4330 0e74 05       		.uleb128 0x5
 4331 0e75 10       		.byte	0x10
 4332 0e76 13       		.byte	0x13
 4333 0e77 1C       		.byte	0x1c
 4334 0e78 E30E0000 		.4byte	0xee3
 4335 0e7c 07       		.uleb128 0x7
 4336 0e7d 7A250000 		.4byte	.LASF99
 4337 0e81 13       		.byte	0x13
 4338 0e82 1D       		.byte	0x1d
 4339 0e83 2B040000 		.4byte	0x42b
 4340 0e87 00       		.byte	0
 4341 0e88 07       		.uleb128 0x7
 4342 0e89 6B180000 		.4byte	.LASF315
 4343 0e8d 13       		.byte	0x13
 4344 0e8e 1E       		.byte	0x1e
 4345 0e8f 01010000 		.4byte	0x101
 4346 0e93 02       		.byte	0x2
 4347 0e94 07       		.uleb128 0x7
 4348 0e95 E2140000 		.4byte	.LASF322
 4349 0e99 13       		.byte	0x13
 4350 0e9a 1F       		.byte	0x1f
 4351 0e9b CE000000 		.4byte	0xce
 4352 0e9f 04       		.byte	0x4
 4353 0ea0 07       		.uleb128 0x7
 4354 0ea1 B1090000 		.4byte	.LASF323
 4355 0ea5 13       		.byte	0x13
 4356 0ea6 20       		.byte	0x20
 4357 0ea7 CE000000 		.4byte	0xce
 4358 0eab 06       		.byte	0x6
 4359 0eac 07       		.uleb128 0x7
 4360 0ead 9B120000 		.4byte	.LASF324
 4361 0eb1 13       		.byte	0x13
 4362 0eb2 21       		.byte	0x21
 4363 0eb3 E2020000 		.4byte	0x2e2
 4364 0eb7 08       		.byte	0x8
 4365 0eb8 06       		.uleb128 0x6
 4366 0eb9 6F706100 		.ascii	"opa\000"
 4367 0ebd 13       		.byte	0x13
 4368 0ebe 22       		.byte	0x22
 4369 0ebf 36040000 		.4byte	0x436
 4370 0ec3 0C       		.byte	0xc
 4371 0ec4 09       		.uleb128 0x9
 4372 0ec5 FC040000 		.4byte	.LASF269
 4373 0ec9 13       		.byte	0x13
 4374 0eca 23       		.byte	0x23
 4375 0ecb EE040000 		.4byte	0x4ee
 4376 0ecf 01       		.byte	0x1
 4377 0ed0 02       		.byte	0x2
 4378 0ed1 06       		.byte	0x6
 4379 0ed2 0D       		.byte	0xd
 4380 0ed3 09       		.uleb128 0x9
 4381 0ed4 6D030000 		.4byte	.LASF325
 4382 0ed8 13       		.byte	0x13
 4383 0ed9 24       		.byte	0x24
 4384 0eda B8000000 		.4byte	0xb8
ARM GAS  C:\Users\haske\AppData\Local\Temp\ccN8jSR9.s 			page 108


 4385 0ede 01       		.byte	0x1
 4386 0edf 01       		.byte	0x1
 4387 0ee0 05       		.byte	0x5
 4388 0ee1 0D       		.byte	0xd
 4389 0ee2 00       		.byte	0
 4390 0ee3 02       		.uleb128 0x2
 4391 0ee4 73260000 		.4byte	.LASF326
 4392 0ee8 13       		.byte	0x13
 4393 0ee9 25       		.byte	0x25
 4394 0eea 740E0000 		.4byte	0xe74
 4395 0eee 0B       		.uleb128 0xb
 4396 0eef 04       		.byte	0x4
 4397 0ef0 36040000 		.4byte	0x436
 4398 0ef4 11       		.uleb128 0x11
 4399 0ef5 01       		.byte	0x1
 4400 0ef6 42000000 		.4byte	0x42
 4401 0efa 14       		.byte	0x14
 4402 0efb 1C       		.byte	0x1c
 4403 0efc 130F0000 		.4byte	0xf13
 4404 0f00 12       		.uleb128 0x12
 4405 0f01 F4180000 		.4byte	.LASF327
 4406 0f05 00       		.byte	0
 4407 0f06 12       		.uleb128 0x12
 4408 0f07 8D020000 		.4byte	.LASF328
 4409 0f0b 01       		.byte	0x1
 4410 0f0c 12       		.uleb128 0x12
 4411 0f0d 49200000 		.4byte	.LASF329
 4412 0f11 02       		.byte	0x2
 4413 0f12 00       		.byte	0
 4414 0f13 02       		.uleb128 0x2
 4415 0f14 820C0000 		.4byte	.LASF330
 4416 0f18 14       		.byte	0x14
 4417 0f19 20       		.byte	0x20
 4418 0f1a F40E0000 		.4byte	0xef4
 4419 0f1e 05       		.uleb128 0x5
 4420 0f1f 10       		.byte	0x10
 4421 0f20 15       		.byte	0x15
 4422 0f21 33       		.byte	0x33
 4423 0f22 570F0000 		.4byte	0xf57
 4424 0f26 07       		.uleb128 0x7
 4425 0f27 E31A0000 		.4byte	.LASF331
 4426 0f2b 15       		.byte	0x15
 4427 0f2c 34       		.byte	0x34
 4428 0f2d 570F0000 		.4byte	0xf57
 4429 0f31 00       		.byte	0
 4430 0f32 07       		.uleb128 0x7
 4431 0f33 EA150000 		.4byte	.LASF332
 4432 0f37 15       		.byte	0x15
 4433 0f38 35       		.byte	0x35
 4434 0f39 620F0000 		.4byte	0xf62
 4435 0f3d 04       		.byte	0x4
 4436 0f3e 06       		.uleb128 0x6
 4437 0f3f 62756600 		.ascii	"buf\000"
 4438 0f43 15       		.byte	0x15
 4439 0f44 36       		.byte	0x36
 4440 0f45 E9020000 		.4byte	0x2e9
 4441 0f49 08       		.byte	0x8
ARM GAS  C:\Users\haske\AppData\Local\Temp\ccN8jSR9.s 			page 109


 4442 0f4a 07       		.uleb128 0x7
 4443 0f4b CE270000 		.4byte	.LASF333
 4444 0f4f 15       		.byte	0x15
 4445 0f50 37       		.byte	0x37
 4446 0f51 AA020000 		.4byte	0x2aa
 4447 0f55 0C       		.byte	0xc
 4448 0f56 00       		.byte	0
 4449 0f57 0B       		.uleb128 0xb
 4450 0f58 04       		.byte	0x4
 4451 0f59 5D0F0000 		.4byte	0xf5d
 4452 0f5d 0C       		.uleb128 0xc
 4453 0f5e 69010000 		.4byte	0x169
 4454 0f62 0B       		.uleb128 0xb
 4455 0f63 04       		.byte	0x4
 4456 0f64 69010000 		.4byte	0x169
 4457 0f68 0A       		.uleb128 0xa
 4458 0f69 AE1B0000 		.4byte	.LASF334
 4459 0f6d 28       		.byte	0x28
 4460 0f6e 15       		.byte	0x15
 4461 0f6f 2D       		.byte	0x2d
 4462 0f70 BD0F0000 		.4byte	0xfbd
 4463 0f74 07       		.uleb128 0x7
 4464 0f75 561B0000 		.4byte	.LASF335
 4465 0f79 15       		.byte	0x15
 4466 0f7a 2E       		.byte	0x2e
 4467 0f7b 69010000 		.4byte	0x169
 4468 0f7f 00       		.byte	0
 4469 0f80 07       		.uleb128 0x7
 4470 0f81 F80A0000 		.4byte	.LASF336
 4471 0f85 15       		.byte	0x15
 4472 0f86 2F       		.byte	0x2f
 4473 0f87 69010000 		.4byte	0x169
 4474 0f8b 08       		.byte	0x8
 4475 0f8c 07       		.uleb128 0x7
 4476 0f8d F01B0000 		.4byte	.LASF337
 4477 0f91 15       		.byte	0x15
 4478 0f92 30       		.byte	0x30
 4479 0f93 01010000 		.4byte	0x101
 4480 0f97 10       		.byte	0x10
 4481 0f98 07       		.uleb128 0x7
 4482 0f99 85210000 		.4byte	.LASF338
 4483 0f9d 15       		.byte	0x15
 4484 0f9e 31       		.byte	0x31
 4485 0f9f 01010000 		.4byte	0x101
 4486 0fa3 12       		.byte	0x12
 4487 0fa4 06       		.uleb128 0x6
 4488 0fa5 62756600 		.ascii	"buf\000"
 4489 0fa9 15       		.byte	0x15
 4490 0faa 32       		.byte	0x32
 4491 0fab E9020000 		.4byte	0x2e9
 4492 0faf 14       		.byte	0x14
 4493 0fb0 07       		.uleb128 0x7
 4494 0fb1 8A0B0000 		.4byte	.LASF339
 4495 0fb5 15       		.byte	0x15
 4496 0fb6 38       		.byte	0x38
 4497 0fb7 1E0F0000 		.4byte	0xf1e
 4498 0fbb 18       		.byte	0x18
ARM GAS  C:\Users\haske\AppData\Local\Temp\ccN8jSR9.s 			page 110


 4499 0fbc 00       		.byte	0
 4500 0fbd 02       		.uleb128 0x2
 4501 0fbe 5C250000 		.4byte	.LASF340
 4502 0fc2 15       		.byte	0x15
 4503 0fc3 39       		.byte	0x39
 4504 0fc4 680F0000 		.4byte	0xf68
 4505 0fc8 0A       		.uleb128 0xa
 4506 0fc9 92030000 		.4byte	.LASF341
 4507 0fcd 54       		.byte	0x54
 4508 0fce 15       		.byte	0x15
 4509 0fcf 3B       		.byte	0x3b
 4510 0fd0 D1100000 		.4byte	0x10d1
 4511 0fd4 06       		.uleb128 0x6
 4512 0fd5 62756600 		.ascii	"buf\000"
 4513 0fd9 15       		.byte	0x15
 4514 0fda 3F       		.byte	0x3f
 4515 0fdb E9020000 		.4byte	0x2e9
 4516 0fdf 00       		.byte	0
 4517 0fe0 07       		.uleb128 0x7
 4518 0fe1 EA150000 		.4byte	.LASF332
 4519 0fe5 15       		.byte	0x15
 4520 0fe6 44       		.byte	0x44
 4521 0fe7 620F0000 		.4byte	0xf62
 4522 0feb 04       		.byte	0x4
 4523 0fec 07       		.uleb128 0x7
 4524 0fed E31A0000 		.4byte	.LASF331
 4525 0ff1 15       		.byte	0x15
 4526 0ff2 49       		.byte	0x49
 4527 0ff3 570F0000 		.4byte	0xf57
 4528 0ff7 08       		.byte	0x8
 4529 0ff8 07       		.uleb128 0x7
 4530 0ff9 55030000 		.4byte	.LASF342
 4531 0ffd 15       		.byte	0x15
 4532 0ffe 4B       		.byte	0x4b
 4533 0fff E2100000 		.4byte	0x10e2
 4534 1003 0C       		.byte	0xc
 4535 1004 07       		.uleb128 0x7
 4536 1005 14030000 		.4byte	.LASF343
 4537 1009 15       		.byte	0x15
 4538 100a 4D       		.byte	0x4d
 4539 100b 08110000 		.4byte	0x1108
 4540 100f 10       		.byte	0x10
 4541 1010 07       		.uleb128 0x7
 4542 1011 8C150000 		.4byte	.LASF344
 4543 1015 15       		.byte	0x15
 4544 1016 4F       		.byte	0x4f
 4545 1017 48110000 		.4byte	0x1148
 4546 101b 14       		.byte	0x14
 4547 101c 07       		.uleb128 0x7
 4548 101d 03170000 		.4byte	.LASF345
 4549 1021 15       		.byte	0x15
 4550 1022 52       		.byte	0x52
 4551 1023 78110000 		.4byte	0x1178
 4552 1027 18       		.byte	0x18
 4553 1028 07       		.uleb128 0x7
 4554 1029 E2290000 		.4byte	.LASF346
 4555 102d 15       		.byte	0x15
ARM GAS  C:\Users\haske\AppData\Local\Temp\ccN8jSR9.s 			page 111


 4556 102e 55       		.byte	0x55
 4557 102f 9C110000 		.4byte	0x119c
 4558 1033 1C       		.byte	0x1c
 4559 1034 07       		.uleb128 0x7
 4560 1035 2A1A0000 		.4byte	.LASF347
 4561 1039 15       		.byte	0x15
 4562 103a 58       		.byte	0x58
 4563 103b C7110000 		.4byte	0x11c7
 4564 103f 20       		.byte	0x20
 4565 1040 07       		.uleb128 0x7
 4566 1041 2B090000 		.4byte	.LASF348
 4567 1045 15       		.byte	0x15
 4568 1046 5C       		.byte	0x5c
 4569 1047 F2110000 		.4byte	0x11f2
 4570 104b 24       		.byte	0x24
 4571 104c 07       		.uleb128 0x7
 4572 104d 392A0000 		.4byte	.LASF349
 4573 1051 15       		.byte	0x15
 4574 1052 60       		.byte	0x60
 4575 1053 12120000 		.4byte	0x1212
 4576 1057 28       		.byte	0x28
 4577 1058 07       		.uleb128 0x7
 4578 1059 2F0D0000 		.4byte	.LASF350
 4579 105d 15       		.byte	0x15
 4580 105e 71       		.byte	0x71
 4581 105f 50120000 		.4byte	0x1250
 4582 1063 2C       		.byte	0x2c
 4583 1064 07       		.uleb128 0x7
 4584 1065 34010000 		.4byte	.LASF351
 4585 1069 15       		.byte	0x15
 4586 106a 78       		.byte	0x78
 4587 106b 08110000 		.4byte	0x1108
 4588 106f 30       		.byte	0x30
 4589 1070 07       		.uleb128 0x7
 4590 1071 E71F0000 		.4byte	.LASF352
 4591 1075 15       		.byte	0x15
 4592 1076 7D       		.byte	0x7d
 4593 1077 E2100000 		.4byte	0x10e2
 4594 107b 34       		.byte	0x34
 4595 107c 07       		.uleb128 0x7
 4596 107d 7C080000 		.4byte	.LASF353
 4597 1081 15       		.byte	0x15
 4598 1082 8D       		.byte	0x8d
 4599 1083 7F120000 		.4byte	0x127f
 4600 1087 38       		.byte	0x38
 4601 1088 07       		.uleb128 0x7
 4602 1089 E6100000 		.4byte	.LASF354
 4603 108d 15       		.byte	0x15
 4604 108e 99       		.byte	0x99
 4605 108f A4120000 		.4byte	0x12a4
 4606 1093 3C       		.byte	0x3c
 4607 1094 07       		.uleb128 0x7
 4608 1095 92240000 		.4byte	.LASF355
 4609 1099 15       		.byte	0x15
 4610 109a A3       		.byte	0xa3
 4611 109b BF120000 		.4byte	0x12bf
 4612 109f 40       		.byte	0x40
ARM GAS  C:\Users\haske\AppData\Local\Temp\ccN8jSR9.s 			page 112


 4613 10a0 07       		.uleb128 0x7
 4614 10a1 B8250000 		.4byte	.LASF356
 4615 10a5 15       		.byte	0x15
 4616 10a6 AC       		.byte	0xac
 4617 10a7 DA120000 		.4byte	0x12da
 4618 10ab 44       		.byte	0x44
 4619 10ac 07       		.uleb128 0x7
 4620 10ad 0E150000 		.4byte	.LASF357
 4621 10b1 15       		.byte	0x15
 4622 10b2 B5       		.byte	0xb5
 4623 10b3 F6120000 		.4byte	0x12f6
 4624 10b7 48       		.byte	0x48
 4625 10b8 07       		.uleb128 0x7
 4626 10b9 462A0000 		.4byte	.LASF358
 4627 10bd 15       		.byte	0x15
 4628 10be BA       		.byte	0xba
 4629 10bf EF000000 		.4byte	0xef
 4630 10c3 4C       		.byte	0x4c
 4631 10c4 07       		.uleb128 0x7
 4632 10c5 F22B0000 		.4byte	.LASF42
 4633 10c9 15       		.byte	0x15
 4634 10ca BD       		.byte	0xbd
 4635 10cb E9020000 		.4byte	0x2e9
 4636 10cf 50       		.byte	0x50
 4637 10d0 00       		.byte	0
 4638 10d1 20       		.uleb128 0x20
 4639 10d2 DC100000 		.4byte	0x10dc
 4640 10d6 0E       		.uleb128 0xe
 4641 10d7 DC100000 		.4byte	0x10dc
 4642 10db 00       		.byte	0
 4643 10dc 0B       		.uleb128 0xb
 4644 10dd 04       		.byte	0x4
 4645 10de C80F0000 		.4byte	0xfc8
 4646 10e2 0B       		.uleb128 0xb
 4647 10e3 04       		.byte	0x4
 4648 10e4 D1100000 		.4byte	0x10d1
 4649 10e8 20       		.uleb128 0x20
 4650 10e9 FD100000 		.4byte	0x10fd
 4651 10ed 0E       		.uleb128 0xe
 4652 10ee DC100000 		.4byte	0x10dc
 4653 10f2 0E       		.uleb128 0xe
 4654 10f3 FD100000 		.4byte	0x10fd
 4655 10f7 0E       		.uleb128 0xe
 4656 10f8 570F0000 		.4byte	0xf57
 4657 10fc 00       		.byte	0
 4658 10fd 0B       		.uleb128 0xb
 4659 10fe 04       		.byte	0x4
 4660 10ff 03110000 		.4byte	0x1103
 4661 1103 0C       		.uleb128 0xc
 4662 1104 720C0000 		.4byte	0xc72
 4663 1108 0B       		.uleb128 0xb
 4664 1109 04       		.byte	0x4
 4665 110a E8100000 		.4byte	0x10e8
 4666 110e 20       		.uleb128 0x20
 4667 110f 32110000 		.4byte	0x1132
 4668 1113 0E       		.uleb128 0xe
 4669 1114 DC100000 		.4byte	0x10dc
ARM GAS  C:\Users\haske\AppData\Local\Temp\ccN8jSR9.s 			page 113


 4670 1118 0E       		.uleb128 0xe
 4671 1119 32110000 		.4byte	0x1132
 4672 111d 0E       		.uleb128 0xe
 4673 111e 3D110000 		.4byte	0x113d
 4674 1122 0E       		.uleb128 0xe
 4675 1123 CE000000 		.4byte	0xce
 4676 1127 0E       		.uleb128 0xe
 4677 1128 CE000000 		.4byte	0xce
 4678 112c 0E       		.uleb128 0xe
 4679 112d CE000000 		.4byte	0xce
 4680 1131 00       		.byte	0
 4681 1132 0B       		.uleb128 0xb
 4682 1133 04       		.byte	0x4
 4683 1134 38110000 		.4byte	0x1138
 4684 1138 0C       		.uleb128 0xc
 4685 1139 E30E0000 		.4byte	0xee3
 4686 113d 0B       		.uleb128 0xb
 4687 113e 04       		.byte	0x4
 4688 113f 43110000 		.4byte	0x1143
 4689 1143 0C       		.uleb128 0xc
 4690 1144 29010000 		.4byte	0x129
 4691 1148 0B       		.uleb128 0xb
 4692 1149 04       		.byte	0x4
 4693 114a 0E110000 		.4byte	0x110e
 4694 114e 20       		.uleb128 0x20
 4695 114f 6D110000 		.4byte	0x116d
 4696 1153 0E       		.uleb128 0xe
 4697 1154 DC100000 		.4byte	0x10dc
 4698 1158 0E       		.uleb128 0xe
 4699 1159 6D110000 		.4byte	0x116d
 4700 115d 0E       		.uleb128 0xe
 4701 115e 570F0000 		.4byte	0xf57
 4702 1162 0E       		.uleb128 0xe
 4703 1163 D1020000 		.4byte	0x2d1
 4704 1167 0E       		.uleb128 0xe
 4705 1168 BB090000 		.4byte	0x9bb
 4706 116c 00       		.byte	0
 4707 116d 0B       		.uleb128 0xb
 4708 116e 04       		.byte	0x4
 4709 116f 73110000 		.4byte	0x1173
 4710 1173 0C       		.uleb128 0xc
 4711 1174 DD0D0000 		.4byte	0xddd
 4712 1178 0B       		.uleb128 0xb
 4713 1179 04       		.byte	0x4
 4714 117a 4E110000 		.4byte	0x114e
 4715 117e 0D       		.uleb128 0xd
 4716 117f F6020000 		.4byte	0x2f6
 4717 1183 9C110000 		.4byte	0x119c
 4718 1187 0E       		.uleb128 0xe
 4719 1188 DC100000 		.4byte	0x10dc
 4720 118c 0E       		.uleb128 0xe
 4721 118d 6D110000 		.4byte	0x116d
 4722 1191 0E       		.uleb128 0xe
 4723 1192 570F0000 		.4byte	0xf57
 4724 1196 0E       		.uleb128 0xe
 4725 1197 E2020000 		.4byte	0x2e2
 4726 119b 00       		.byte	0
ARM GAS  C:\Users\haske\AppData\Local\Temp\ccN8jSR9.s 			page 114


 4727 119c 0B       		.uleb128 0xb
 4728 119d 04       		.byte	0x4
 4729 119e 7E110000 		.4byte	0x117e
 4730 11a2 20       		.uleb128 0x20
 4731 11a3 BC110000 		.4byte	0x11bc
 4732 11a7 0E       		.uleb128 0xe
 4733 11a8 DC100000 		.4byte	0x10dc
 4734 11ac 0E       		.uleb128 0xe
 4735 11ad BC110000 		.4byte	0x11bc
 4736 11b1 0E       		.uleb128 0xe
 4737 11b2 3D110000 		.4byte	0x113d
 4738 11b6 0E       		.uleb128 0xe
 4739 11b7 E4000000 		.4byte	0xe4
 4740 11bb 00       		.byte	0
 4741 11bc 0B       		.uleb128 0xb
 4742 11bd 04       		.byte	0x4
 4743 11be C2110000 		.4byte	0x11c2
 4744 11c2 0C       		.uleb128 0xc
 4745 11c3 570D0000 		.4byte	0xd57
 4746 11c7 0B       		.uleb128 0xb
 4747 11c8 04       		.byte	0x4
 4748 11c9 A2110000 		.4byte	0x11a2
 4749 11cd 20       		.uleb128 0x20
 4750 11ce E7110000 		.4byte	0x11e7
 4751 11d2 0E       		.uleb128 0xe
 4752 11d3 DC100000 		.4byte	0x10dc
 4753 11d7 0E       		.uleb128 0xe
 4754 11d8 E7110000 		.4byte	0x11e7
 4755 11dc 0E       		.uleb128 0xe
 4756 11dd 3D110000 		.4byte	0x113d
 4757 11e1 0E       		.uleb128 0xe
 4758 11e2 3D110000 		.4byte	0x113d
 4759 11e6 00       		.byte	0
 4760 11e7 0B       		.uleb128 0xb
 4761 11e8 04       		.byte	0x4
 4762 11e9 ED110000 		.4byte	0x11ed
 4763 11ed 0C       		.uleb128 0xc
 4764 11ee 690E0000 		.4byte	0xe69
 4765 11f2 0B       		.uleb128 0xb
 4766 11f3 04       		.byte	0x4
 4767 11f4 CD110000 		.4byte	0x11cd
 4768 11f8 20       		.uleb128 0x20
 4769 11f9 12120000 		.4byte	0x1212
 4770 11fd 0E       		.uleb128 0xe
 4771 11fe DC100000 		.4byte	0x10dc
 4772 1202 0E       		.uleb128 0xe
 4773 1203 FD100000 		.4byte	0x10fd
 4774 1207 0E       		.uleb128 0xe
 4775 1208 3D110000 		.4byte	0x113d
 4776 120c 0E       		.uleb128 0xe
 4777 120d CE000000 		.4byte	0xce
 4778 1211 00       		.byte	0
 4779 1212 0B       		.uleb128 0xb
 4780 1213 04       		.byte	0x4
 4781 1214 F8110000 		.4byte	0x11f8
 4782 1218 20       		.uleb128 0x20
 4783 1219 50120000 		.4byte	0x1250
ARM GAS  C:\Users\haske\AppData\Local\Temp\ccN8jSR9.s 			page 115


 4784 121d 0E       		.uleb128 0xe
 4785 121e DC100000 		.4byte	0x10dc
 4786 1222 0E       		.uleb128 0xe
 4787 1223 570F0000 		.4byte	0xf57
 4788 1227 0E       		.uleb128 0xe
 4789 1228 E2020000 		.4byte	0x2e2
 4790 122c 0E       		.uleb128 0xe
 4791 122d 01010000 		.4byte	0x101
 4792 1231 0E       		.uleb128 0xe
 4793 1232 01010000 		.4byte	0x101
 4794 1236 0E       		.uleb128 0xe
 4795 1237 01010000 		.4byte	0x101
 4796 123b 0E       		.uleb128 0xe
 4797 123c 6D110000 		.4byte	0x116d
 4798 1240 0E       		.uleb128 0xe
 4799 1241 BB090000 		.4byte	0x9bb
 4800 1245 0E       		.uleb128 0xe
 4801 1246 250B0000 		.4byte	0xb25
 4802 124a 0E       		.uleb128 0xe
 4803 124b EE0E0000 		.4byte	0xeee
 4804 124f 00       		.byte	0
 4805 1250 0B       		.uleb128 0xb
 4806 1251 04       		.byte	0x4
 4807 1252 18120000 		.4byte	0x1218
 4808 1256 20       		.uleb128 0x20
 4809 1257 7F120000 		.4byte	0x127f
 4810 125b 0E       		.uleb128 0xe
 4811 125c DC100000 		.4byte	0x10dc
 4812 1260 0E       		.uleb128 0xe
 4813 1261 E9020000 		.4byte	0x2e9
 4814 1265 0E       		.uleb128 0xe
 4815 1266 01010000 		.4byte	0x101
 4816 126a 0E       		.uleb128 0xe
 4817 126b 570F0000 		.4byte	0xf57
 4818 126f 0E       		.uleb128 0xe
 4819 1270 E9020000 		.4byte	0x2e9
 4820 1274 0E       		.uleb128 0xe
 4821 1275 01010000 		.4byte	0x101
 4822 1279 0E       		.uleb128 0xe
 4823 127a 570F0000 		.4byte	0xf57
 4824 127e 00       		.byte	0
 4825 127f 0B       		.uleb128 0xb
 4826 1280 04       		.byte	0x4
 4827 1281 56120000 		.4byte	0x1256
 4828 1285 0D       		.uleb128 0xd
 4829 1286 9E120000 		.4byte	0x129e
 4830 128a 9E120000 		.4byte	0x129e
 4831 128e 0E       		.uleb128 0xe
 4832 128f DC100000 		.4byte	0x10dc
 4833 1293 0E       		.uleb128 0xe
 4834 1294 9E120000 		.4byte	0x129e
 4835 1298 0E       		.uleb128 0xe
 4836 1299 130F0000 		.4byte	0xf13
 4837 129d 00       		.byte	0
 4838 129e 0B       		.uleb128 0xb
 4839 129f 04       		.byte	0x4
 4840 12a0 680F0000 		.4byte	0xf68
ARM GAS  C:\Users\haske\AppData\Local\Temp\ccN8jSR9.s 			page 116


 4841 12a4 0B       		.uleb128 0xb
 4842 12a5 04       		.byte	0x4
 4843 12a6 85120000 		.4byte	0x1285
 4844 12aa 20       		.uleb128 0x20
 4845 12ab BF120000 		.4byte	0x12bf
 4846 12af 0E       		.uleb128 0xe
 4847 12b0 DC100000 		.4byte	0x10dc
 4848 12b4 0E       		.uleb128 0xe
 4849 12b5 9E120000 		.4byte	0x129e
 4850 12b9 0E       		.uleb128 0xe
 4851 12ba 130F0000 		.4byte	0xf13
 4852 12be 00       		.byte	0
 4853 12bf 0B       		.uleb128 0xb
 4854 12c0 04       		.byte	0x4
 4855 12c1 AA120000 		.4byte	0x12aa
 4856 12c5 20       		.uleb128 0x20
 4857 12c6 DA120000 		.4byte	0x12da
 4858 12ca 0E       		.uleb128 0xe
 4859 12cb DC100000 		.4byte	0x10dc
 4860 12cf 0E       		.uleb128 0xe
 4861 12d0 9E120000 		.4byte	0x129e
 4862 12d4 0E       		.uleb128 0xe
 4863 12d5 6D110000 		.4byte	0x116d
 4864 12d9 00       		.byte	0
 4865 12da 0B       		.uleb128 0xb
 4866 12db 04       		.byte	0x4
 4867 12dc C5120000 		.4byte	0x12c5
 4868 12e0 20       		.uleb128 0x20
 4869 12e1 F0120000 		.4byte	0x12f0
 4870 12e5 0E       		.uleb128 0xe
 4871 12e6 DC100000 		.4byte	0x10dc
 4872 12ea 0E       		.uleb128 0xe
 4873 12eb F0120000 		.4byte	0x12f0
 4874 12ef 00       		.byte	0
 4875 12f0 0B       		.uleb128 0xb
 4876 12f1 04       		.byte	0x4
 4877 12f2 BD0F0000 		.4byte	0xfbd
 4878 12f6 0B       		.uleb128 0xb
 4879 12f7 04       		.byte	0x4
 4880 12f8 E0120000 		.4byte	0x12e0
 4881 12fc 02       		.uleb128 0x2
 4882 12fd 500E0000 		.4byte	.LASF359
 4883 1301 15       		.byte	0x15
 4884 1302 C0       		.byte	0xc0
 4885 1303 C80F0000 		.4byte	0xfc8
 4886 1307 02       		.uleb128 0x2
 4887 1308 50000000 		.4byte	.LASF360
 4888 130c 16       		.byte	0x16
 4889 130d 1D       		.byte	0x1d
 4890 130e B8000000 		.4byte	0xb8
 4891 1312 05       		.uleb128 0x5
 4892 1313 0C       		.byte	0xc
 4893 1314 16       		.byte	0x16
 4894 1315 20       		.byte	0x20
 4895 1316 3F130000 		.4byte	0x133f
 4896 131a 07       		.uleb128 0x7
 4897 131b 2F2E0000 		.4byte	.LASF361
ARM GAS  C:\Users\haske\AppData\Local\Temp\ccN8jSR9.s 			page 117


 4898 131f 16       		.byte	0x16
 4899 1320 21       		.byte	0x21
 4900 1321 E4000000 		.4byte	0xe4
 4901 1325 00       		.byte	0
 4902 1326 07       		.uleb128 0x7
 4903 1327 C7070000 		.4byte	.LASF362
 4904 132b 16       		.byte	0x16
 4905 132c 22       		.byte	0x22
 4906 132d 3F130000 		.4byte	0x133f
 4907 1331 04       		.byte	0x4
 4908 1332 07       		.uleb128 0x7
 4909 1333 EF000000 		.4byte	.LASF363
 4910 1337 16       		.byte	0x16
 4911 1338 23       		.byte	0x23
 4912 1339 3F130000 		.4byte	0x133f
 4913 133d 08       		.byte	0x8
 4914 133e 00       		.byte	0
 4915 133f 0B       		.uleb128 0xb
 4916 1340 04       		.byte	0x4
 4917 1341 07130000 		.4byte	0x1307
 4918 1345 02       		.uleb128 0x2
 4919 1346 F8260000 		.4byte	.LASF364
 4920 134a 16       		.byte	0x16
 4921 134b 24       		.byte	0x24
 4922 134c 12130000 		.4byte	0x1312
 4923 1350 02       		.uleb128 0x2
 4924 1351 14170000 		.4byte	.LASF365
 4925 1355 17       		.byte	0x17
 4926 1356 27       		.byte	0x27
 4927 1357 5B130000 		.4byte	0x135b
 4928 135b 0B       		.uleb128 0xb
 4929 135c 04       		.byte	0x4
 4930 135d 61130000 		.4byte	0x1361
 4931 1361 20       		.uleb128 0x20
 4932 1362 6C130000 		.4byte	0x136c
 4933 1366 0E       		.uleb128 0xe
 4934 1367 6C130000 		.4byte	0x136c
 4935 136b 00       		.byte	0
 4936 136c 0B       		.uleb128 0xb
 4937 136d 04       		.byte	0x4
 4938 136e 72130000 		.4byte	0x1372
 4939 1372 0A       		.uleb128 0xa
 4940 1373 33030000 		.4byte	.LASF366
 4941 1377 18       		.byte	0x18
 4942 1378 17       		.byte	0x17
 4943 1379 2C       		.byte	0x2c
 4944 137a CA130000 		.4byte	0x13ca
 4945 137e 07       		.uleb128 0x7
 4946 137f 27240000 		.4byte	.LASF367
 4947 1383 17       		.byte	0x17
 4948 1384 2D       		.byte	0x2d
 4949 1385 E4000000 		.4byte	0xe4
 4950 1389 00       		.byte	0
 4951 138a 07       		.uleb128 0x7
 4952 138b 78220000 		.4byte	.LASF368
 4953 138f 17       		.byte	0x17
 4954 1390 2E       		.byte	0x2e
ARM GAS  C:\Users\haske\AppData\Local\Temp\ccN8jSR9.s 			page 118


 4955 1391 E4000000 		.4byte	0xe4
 4956 1395 04       		.byte	0x4
 4957 1396 07       		.uleb128 0x7
 4958 1397 76200000 		.4byte	.LASF369
 4959 139b 17       		.byte	0x17
 4960 139c 2F       		.byte	0x2f
 4961 139d 50130000 		.4byte	0x1350
 4962 13a1 08       		.byte	0x8
 4963 13a2 07       		.uleb128 0x7
 4964 13a3 F22B0000 		.4byte	.LASF42
 4965 13a7 17       		.byte	0x17
 4966 13a8 30       		.byte	0x30
 4967 13a9 E9020000 		.4byte	0x2e9
 4968 13ad 0C       		.byte	0xc
 4969 13ae 07       		.uleb128 0x7
 4970 13af E7020000 		.4byte	.LASF370
 4971 13b3 17       		.byte	0x17
 4972 13b4 31       		.byte	0x31
 4973 13b5 D9000000 		.4byte	0xd9
 4974 13b9 10       		.byte	0x10
 4975 13ba 09       		.uleb128 0x9
 4976 13bb A9170000 		.4byte	.LASF371
 4977 13bf 17       		.byte	0x17
 4978 13c0 32       		.byte	0x32
 4979 13c1 E4000000 		.4byte	0xe4
 4980 13c5 04       		.byte	0x4
 4981 13c6 01       		.byte	0x1
 4982 13c7 1F       		.byte	0x1f
 4983 13c8 14       		.byte	0x14
 4984 13c9 00       		.byte	0
 4985 13ca 02       		.uleb128 0x2
 4986 13cb 9A0F0000 		.4byte	.LASF372
 4987 13cf 17       		.byte	0x17
 4988 13d0 33       		.byte	0x33
 4989 13d1 72130000 		.4byte	0x1372
 4990 13d5 0A       		.uleb128 0xa
 4991 13d6 D6150000 		.4byte	.LASF373
 4992 13da 1C       		.byte	0x1c
 4993 13db 18       		.byte	0x18
 4994 13dc 32       		.byte	0x32
 4995 13dd 48140000 		.4byte	0x1448
 4996 13e1 07       		.uleb128 0x7
 4997 13e2 AD180000 		.4byte	.LASF374
 4998 13e6 18       		.byte	0x18
 4999 13e7 33       		.byte	0x33
 5000 13e8 E9020000 		.4byte	0x2e9
 5001 13ec 00       		.byte	0
 5002 13ed 07       		.uleb128 0x7
 5003 13ee B2180000 		.4byte	.LASF375
 5004 13f2 18       		.byte	0x18
 5005 13f3 34       		.byte	0x34
 5006 13f4 E9020000 		.4byte	0x2e9
 5007 13f8 04       		.byte	0x4
 5008 13f9 07       		.uleb128 0x7
 5009 13fa 341F0000 		.4byte	.LASF376
 5010 13fe 18       		.byte	0x18
 5011 13ff 37       		.byte	0x37
ARM GAS  C:\Users\haske\AppData\Local\Temp\ccN8jSR9.s 			page 119


 5012 1400 E9020000 		.4byte	0x2e9
 5013 1404 08       		.byte	0x8
 5014 1405 07       		.uleb128 0x7
 5015 1406 80210000 		.4byte	.LASF377
 5016 140a 18       		.byte	0x18
 5017 140b 38       		.byte	0x38
 5018 140c E4000000 		.4byte	0xe4
 5019 1410 0C       		.byte	0xc
 5020 1411 07       		.uleb128 0x7
 5021 1412 360F0000 		.4byte	.LASF378
 5022 1416 18       		.byte	0x18
 5023 1417 3A       		.byte	0x3a
 5024 1418 48140000 		.4byte	0x1448
 5025 141c 10       		.byte	0x10
 5026 141d 07       		.uleb128 0x7
 5027 141e 560B0000 		.4byte	.LASF379
 5028 1422 18       		.byte	0x18
 5029 1423 3C       		.byte	0x3c
 5030 1424 48140000 		.4byte	0x1448
 5031 1428 14       		.byte	0x14
 5032 1429 09       		.uleb128 0x9
 5033 142a 66080000 		.4byte	.LASF380
 5034 142e 18       		.byte	0x18
 5035 142f 3D       		.byte	0x3d
 5036 1430 4D140000 		.4byte	0x144d
 5037 1434 04       		.byte	0x4
 5038 1435 01       		.byte	0x1
 5039 1436 1F       		.byte	0x1f
 5040 1437 18       		.byte	0x18
 5041 1438 09       		.uleb128 0x9
 5042 1439 27150000 		.4byte	.LASF381
 5043 143d 18       		.byte	0x18
 5044 143e 3E       		.byte	0x3e
 5045 143f 4D140000 		.4byte	0x144d
 5046 1443 04       		.byte	0x4
 5047 1444 01       		.byte	0x1
 5048 1445 1E       		.byte	0x1e
 5049 1446 18       		.byte	0x18
 5050 1447 00       		.byte	0
 5051 1448 21       		.uleb128 0x21
 5052 1449 9F000000 		.4byte	0x9f
 5053 144d 21       		.uleb128 0x21
 5054 144e E4000000 		.4byte	0xe4
 5055 1452 02       		.uleb128 0x2
 5056 1453 5D000000 		.4byte	.LASF382
 5057 1457 18       		.byte	0x18
 5058 1458 3F       		.byte	0x3f
 5059 1459 D5130000 		.4byte	0x13d5
 5060 145d 11       		.uleb128 0x11
 5061 145e 01       		.byte	0x1
 5062 145f 42000000 		.4byte	0x42
 5063 1463 18       		.byte	0x18
 5064 1464 41       		.byte	0x41
 5065 1465 82140000 		.4byte	0x1482
 5066 1469 12       		.uleb128 0x12
 5067 146a 3D090000 		.4byte	.LASF383
 5068 146e 00       		.byte	0
ARM GAS  C:\Users\haske\AppData\Local\Temp\ccN8jSR9.s 			page 120


 5069 146f 12       		.uleb128 0x12
 5070 1470 680A0000 		.4byte	.LASF384
 5071 1474 01       		.byte	0x1
 5072 1475 12       		.uleb128 0x12
 5073 1476 98140000 		.4byte	.LASF385
 5074 147a 02       		.byte	0x2
 5075 147b 12       		.uleb128 0x12
 5076 147c 9E1B0000 		.4byte	.LASF386
 5077 1480 03       		.byte	0x3
 5078 1481 00       		.byte	0
 5079 1482 02       		.uleb128 0x2
 5080 1483 2E260000 		.4byte	.LASF387
 5081 1487 18       		.byte	0x18
 5082 1488 46       		.byte	0x46
 5083 1489 5D140000 		.4byte	0x145d
 5084 148d 0A       		.uleb128 0xa
 5085 148e FA2C0000 		.4byte	.LASF388
 5086 1492 50       		.byte	0x50
 5087 1493 18       		.byte	0x18
 5088 1494 4D       		.byte	0x4d
 5089 1495 0B160000 		.4byte	0x160b
 5090 1499 07       		.uleb128 0x7
 5091 149a 35090000 		.4byte	.LASF389
 5092 149e 18       		.byte	0x18
 5093 149f 4F       		.byte	0x4f
 5094 14a0 01010000 		.4byte	0x101
 5095 14a4 00       		.byte	0
 5096 14a5 07       		.uleb128 0x7
 5097 14a6 1D050000 		.4byte	.LASF390
 5098 14aa 18       		.byte	0x18
 5099 14ab 50       		.byte	0x50
 5100 14ac 01010000 		.4byte	0x101
 5101 14b0 02       		.byte	0x2
 5102 14b1 07       		.uleb128 0x7
 5103 14b2 5E210000 		.4byte	.LASF391
 5104 14b6 18       		.byte	0x18
 5105 14b7 53       		.byte	0x53
 5106 14b8 01010000 		.4byte	0x101
 5107 14bc 04       		.byte	0x4
 5108 14bd 07       		.uleb128 0x7
 5109 14be 790B0000 		.4byte	.LASF392
 5110 14c2 18       		.byte	0x18
 5111 14c3 55       		.byte	0x55
 5112 14c4 01010000 		.4byte	0x101
 5113 14c8 06       		.byte	0x6
 5114 14c9 07       		.uleb128 0x7
 5115 14ca 4F150000 		.4byte	.LASF393
 5116 14ce 18       		.byte	0x18
 5117 14cf 57       		.byte	0x57
 5118 14d0 01010000 		.4byte	0x101
 5119 14d4 08       		.byte	0x8
 5120 14d5 07       		.uleb128 0x7
 5121 14d6 58150000 		.4byte	.LASF394
 5122 14da 18       		.byte	0x18
 5123 14db 58       		.byte	0x58
 5124 14dc 01010000 		.4byte	0x101
 5125 14e0 0A       		.byte	0xa
ARM GAS  C:\Users\haske\AppData\Local\Temp\ccN8jSR9.s 			page 121


 5126 14e1 07       		.uleb128 0x7
 5127 14e2 1E240000 		.4byte	.LASF395
 5128 14e6 18       		.byte	0x18
 5129 14e7 5C       		.byte	0x5c
 5130 14e8 0B160000 		.4byte	0x160b
 5131 14ec 0C       		.byte	0xc
 5132 14ed 09       		.uleb128 0x9
 5133 14ee 3E0D0000 		.4byte	.LASF396
 5134 14f2 18       		.byte	0x18
 5135 14f3 5E       		.byte	0x5e
 5136 14f4 E4000000 		.4byte	0xe4
 5137 14f8 04       		.byte	0x4
 5138 14f9 01       		.byte	0x1
 5139 14fa 1F       		.byte	0x1f
 5140 14fb 10       		.byte	0x10
 5141 14fc 09       		.uleb128 0x9
 5142 14fd 84120000 		.4byte	.LASF397
 5143 1501 18       		.byte	0x18
 5144 1502 5F       		.byte	0x5f
 5145 1503 E4000000 		.4byte	0xe4
 5146 1507 04       		.byte	0x4
 5147 1508 01       		.byte	0x1
 5148 1509 1E       		.byte	0x1e
 5149 150a 10       		.byte	0x10
 5150 150b 09       		.uleb128 0x9
 5151 150c 86100000 		.4byte	.LASF398
 5152 1510 18       		.byte	0x18
 5153 1511 60       		.byte	0x60
 5154 1512 E4000000 		.4byte	0xe4
 5155 1516 04       		.byte	0x4
 5156 1517 01       		.byte	0x1
 5157 1518 1D       		.byte	0x1d
 5158 1519 10       		.byte	0x10
 5159 151a 09       		.uleb128 0x9
 5160 151b AA0D0000 		.4byte	.LASF399
 5161 151f 18       		.byte	0x18
 5162 1520 61       		.byte	0x61
 5163 1521 E4000000 		.4byte	0xe4
 5164 1525 04       		.byte	0x4
 5165 1526 01       		.byte	0x1
 5166 1527 1C       		.byte	0x1c
 5167 1528 10       		.byte	0x10
 5168 1529 09       		.uleb128 0x9
 5169 152a 48060000 		.4byte	.LASF400
 5170 152e 18       		.byte	0x18
 5171 152f 62       		.byte	0x62
 5172 1530 E4000000 		.4byte	0xe4
 5173 1534 04       		.byte	0x4
 5174 1535 02       		.byte	0x2
 5175 1536 1A       		.byte	0x1a
 5176 1537 10       		.byte	0x10
 5177 1538 09       		.uleb128 0x9
 5178 1539 CE270000 		.4byte	.LASF333
 5179 153d 18       		.byte	0x18
 5180 153e 63       		.byte	0x63
 5181 153f E4000000 		.4byte	0xe4
 5182 1543 04       		.byte	0x4
ARM GAS  C:\Users\haske\AppData\Local\Temp\ccN8jSR9.s 			page 122


 5183 1544 01       		.byte	0x1
 5184 1545 19       		.byte	0x19
 5185 1546 10       		.byte	0x10
 5186 1547 08       		.uleb128 0x8
 5187 1548 64706900 		.ascii	"dpi\000"
 5188 154c 18       		.byte	0x18
 5189 154d 66       		.byte	0x66
 5190 154e E4000000 		.4byte	0xe4
 5191 1552 04       		.byte	0x4
 5192 1553 0A       		.byte	0xa
 5193 1554 0F       		.byte	0xf
 5194 1555 10       		.byte	0x10
 5195 1556 07       		.uleb128 0x7
 5196 1557 D22B0000 		.4byte	.LASF401
 5197 155b 18       		.byte	0x18
 5198 155c 6A       		.byte	0x6a
 5199 155d 2C160000 		.4byte	0x162c
 5200 1561 14       		.byte	0x14
 5201 1562 07       		.uleb128 0x7
 5202 1563 3C240000 		.4byte	.LASF402
 5203 1567 18       		.byte	0x18
 5204 1568 6E       		.byte	0x6e
 5205 1569 42160000 		.4byte	0x1642
 5206 156d 18       		.byte	0x18
 5207 156e 07       		.uleb128 0x7
 5208 156f F3280000 		.4byte	.LASF403
 5209 1573 18       		.byte	0x18
 5210 1574 73       		.byte	0x73
 5211 1575 71160000 		.4byte	0x1671
 5212 1579 1C       		.byte	0x1c
 5213 157a 07       		.uleb128 0x7
 5214 157b B0130000 		.4byte	.LASF404
 5215 157f 18       		.byte	0x18
 5216 1580 76       		.byte	0x76
 5217 1581 8C160000 		.4byte	0x168c
 5218 1585 20       		.byte	0x20
 5219 1586 07       		.uleb128 0x7
 5220 1587 DF190000 		.4byte	.LASF405
 5221 158b 18       		.byte	0x18
 5222 158c 7B       		.byte	0x7b
 5223 158d A7160000 		.4byte	0x16a7
 5224 1591 24       		.byte	0x24
 5225 1592 07       		.uleb128 0x7
 5226 1593 D9170000 		.4byte	.LASF406
 5227 1597 18       		.byte	0x18
 5228 1598 80       		.byte	0x80
 5229 1599 B8160000 		.4byte	0x16b8
 5230 159d 28       		.byte	0x28
 5231 159e 07       		.uleb128 0x7
 5232 159f 782D0000 		.4byte	.LASF407
 5233 15a3 18       		.byte	0x18
 5234 15a4 83       		.byte	0x83
 5235 15a5 B8160000 		.4byte	0x16b8
 5236 15a9 2C       		.byte	0x2c
 5237 15aa 07       		.uleb128 0x7
 5238 15ab 07210000 		.4byte	.LASF408
 5239 15af 18       		.byte	0x18
ARM GAS  C:\Users\haske\AppData\Local\Temp\ccN8jSR9.s 			page 123


 5240 15b0 86       		.byte	0x86
 5241 15b1 B8160000 		.4byte	0x16b8
 5242 15b5 30       		.byte	0x30
 5243 15b6 07       		.uleb128 0x7
 5244 15b7 F7200000 		.4byte	.LASF409
 5245 15bb 18       		.byte	0x18
 5246 15bc 89       		.byte	0x89
 5247 15bd B8160000 		.4byte	0x16b8
 5248 15c1 34       		.byte	0x34
 5249 15c2 07       		.uleb128 0x7
 5250 15c3 3F000000 		.4byte	.LASF410
 5251 15c7 18       		.byte	0x18
 5252 15c8 8D       		.byte	0x8d
 5253 15c9 2B040000 		.4byte	0x42b
 5254 15cd 38       		.byte	0x38
 5255 15ce 07       		.uleb128 0x7
 5256 15cf D9290000 		.4byte	.LASF411
 5257 15d3 18       		.byte	0x18
 5258 15d4 8F       		.byte	0x8f
 5259 15d5 BE160000 		.4byte	0x16be
 5260 15d9 3C       		.byte	0x3c
 5261 15da 07       		.uleb128 0x7
 5262 15db 4B160000 		.4byte	.LASF412
 5263 15df 18       		.byte	0x18
 5264 15e0 90       		.byte	0x90
 5265 15e1 D4160000 		.4byte	0x16d4
 5266 15e5 40       		.byte	0x40
 5267 15e6 07       		.uleb128 0x7
 5268 15e7 65060000 		.4byte	.LASF413
 5269 15eb 18       		.byte	0x18
 5270 15ec 91       		.byte	0x91
 5271 15ed D4160000 		.4byte	0x16d4
 5272 15f1 44       		.byte	0x44
 5273 15f2 07       		.uleb128 0x7
 5274 15f3 39020000 		.4byte	.LASF414
 5275 15f7 18       		.byte	0x18
 5276 15f8 92       		.byte	0x92
 5277 15f9 EF000000 		.4byte	0xef
 5278 15fd 48       		.byte	0x48
 5279 15fe 07       		.uleb128 0x7
 5280 15ff F22B0000 		.4byte	.LASF42
 5281 1603 18       		.byte	0x18
 5282 1604 95       		.byte	0x95
 5283 1605 E9020000 		.4byte	0x2e9
 5284 1609 4C       		.byte	0x4c
 5285 160a 00       		.byte	0
 5286 160b 0B       		.uleb128 0xb
 5287 160c 04       		.byte	0x4
 5288 160d 52140000 		.4byte	0x1452
 5289 1611 20       		.uleb128 0x20
 5290 1612 26160000 		.4byte	0x1626
 5291 1616 0E       		.uleb128 0xe
 5292 1617 26160000 		.4byte	0x1626
 5293 161b 0E       		.uleb128 0xe
 5294 161c 570F0000 		.4byte	0xf57
 5295 1620 0E       		.uleb128 0xe
 5296 1621 250B0000 		.4byte	0xb25
ARM GAS  C:\Users\haske\AppData\Local\Temp\ccN8jSR9.s 			page 124


 5297 1625 00       		.byte	0
 5298 1626 0B       		.uleb128 0xb
 5299 1627 04       		.byte	0x4
 5300 1628 8D140000 		.4byte	0x148d
 5301 162c 0B       		.uleb128 0xb
 5302 162d 04       		.byte	0x4
 5303 162e 11160000 		.4byte	0x1611
 5304 1632 20       		.uleb128 0x20
 5305 1633 42160000 		.4byte	0x1642
 5306 1637 0E       		.uleb128 0xe
 5307 1638 26160000 		.4byte	0x1626
 5308 163c 0E       		.uleb128 0xe
 5309 163d 620F0000 		.4byte	0xf62
 5310 1641 00       		.byte	0
 5311 1642 0B       		.uleb128 0xb
 5312 1643 04       		.byte	0x4
 5313 1644 32160000 		.4byte	0x1632
 5314 1648 20       		.uleb128 0x20
 5315 1649 71160000 		.4byte	0x1671
 5316 164d 0E       		.uleb128 0xe
 5317 164e 26160000 		.4byte	0x1626
 5318 1652 0E       		.uleb128 0xe
 5319 1653 6F080000 		.4byte	0x86f
 5320 1657 0E       		.uleb128 0xe
 5321 1658 01010000 		.4byte	0x101
 5322 165c 0E       		.uleb128 0xe
 5323 165d 01010000 		.4byte	0x101
 5324 1661 0E       		.uleb128 0xe
 5325 1662 01010000 		.4byte	0x101
 5326 1666 0E       		.uleb128 0xe
 5327 1667 2B040000 		.4byte	0x42b
 5328 166b 0E       		.uleb128 0xe
 5329 166c 36040000 		.4byte	0x436
 5330 1670 00       		.byte	0
 5331 1671 0B       		.uleb128 0xb
 5332 1672 04       		.byte	0x4
 5333 1673 48160000 		.4byte	0x1648
 5334 1677 20       		.uleb128 0x20
 5335 1678 8C160000 		.4byte	0x168c
 5336 167c 0E       		.uleb128 0xe
 5337 167d 26160000 		.4byte	0x1626
 5338 1681 0E       		.uleb128 0xe
 5339 1682 6F080000 		.4byte	0x86f
 5340 1686 0E       		.uleb128 0xe
 5341 1687 E4000000 		.4byte	0xe4
 5342 168b 00       		.byte	0
 5343 168c 0B       		.uleb128 0xb
 5344 168d 04       		.byte	0x4
 5345 168e 77160000 		.4byte	0x1677
 5346 1692 20       		.uleb128 0x20
 5347 1693 A7160000 		.4byte	0x16a7
 5348 1697 0E       		.uleb128 0xe
 5349 1698 26160000 		.4byte	0x1626
 5350 169c 0E       		.uleb128 0xe
 5351 169d E4000000 		.4byte	0xe4
 5352 16a1 0E       		.uleb128 0xe
 5353 16a2 E4000000 		.4byte	0xe4
ARM GAS  C:\Users\haske\AppData\Local\Temp\ccN8jSR9.s 			page 125


 5354 16a6 00       		.byte	0
 5355 16a7 0B       		.uleb128 0xb
 5356 16a8 04       		.byte	0x4
 5357 16a9 92160000 		.4byte	0x1692
 5358 16ad 20       		.uleb128 0x20
 5359 16ae B8160000 		.4byte	0x16b8
 5360 16b2 0E       		.uleb128 0xe
 5361 16b3 26160000 		.4byte	0x1626
 5362 16b7 00       		.byte	0
 5363 16b8 0B       		.uleb128 0xb
 5364 16b9 04       		.byte	0x4
 5365 16ba AD160000 		.4byte	0x16ad
 5366 16be 0B       		.uleb128 0xb
 5367 16bf 04       		.byte	0x4
 5368 16c0 FC120000 		.4byte	0x12fc
 5369 16c4 20       		.uleb128 0x20
 5370 16c5 D4160000 		.4byte	0x16d4
 5371 16c9 0E       		.uleb128 0xe
 5372 16ca 26160000 		.4byte	0x1626
 5373 16ce 0E       		.uleb128 0xe
 5374 16cf BE160000 		.4byte	0x16be
 5375 16d3 00       		.byte	0
 5376 16d4 0B       		.uleb128 0xb
 5377 16d5 04       		.byte	0x4
 5378 16d6 C4160000 		.4byte	0x16c4
 5379 16da 02       		.uleb128 0x2
 5380 16db 5A290000 		.4byte	.LASF415
 5381 16df 18       		.byte	0x18
 5382 16e0 98       		.byte	0x98
 5383 16e1 8D140000 		.4byte	0x148d
 5384 16e5 22       		.uleb128 0x22
 5385 16e6 7C1B0000 		.4byte	.LASF416
 5386 16ea 5C01     		.2byte	0x15c
 5387 16ec 18       		.byte	0x18
 5388 16ed 9E       		.byte	0x9e
 5389 16ee FC170000 		.4byte	0x17fc
 5390 16f2 07       		.uleb128 0x7
 5391 16f3 B70D0000 		.4byte	.LASF417
 5392 16f7 18       		.byte	0x18
 5393 16f8 A0       		.byte	0xa0
 5394 16f9 26160000 		.4byte	0x1626
 5395 16fd 00       		.byte	0
 5396 16fe 07       		.uleb128 0x7
 5397 16ff B9060000 		.4byte	.LASF418
 5398 1703 18       		.byte	0x18
 5399 1704 A3       		.byte	0xa3
 5400 1705 FC170000 		.4byte	0x17fc
 5401 1709 04       		.byte	0x4
 5402 170a 07       		.uleb128 0x7
 5403 170b 49150000 		.4byte	.LASF419
 5404 170f 18       		.byte	0x18
 5405 1710 A6       		.byte	0xa6
 5406 1711 87180000 		.4byte	0x1887
 5407 1715 08       		.byte	0x8
 5408 1716 07       		.uleb128 0x7
 5409 1717 47050000 		.4byte	.LASF420
 5410 171b 18       		.byte	0x18
ARM GAS  C:\Users\haske\AppData\Local\Temp\ccN8jSR9.s 			page 126


 5411 171c A9       		.byte	0xa9
 5412 171d 8D180000 		.4byte	0x188d
 5413 1721 0C       		.byte	0xc
 5414 1722 07       		.uleb128 0x7
 5415 1723 08010000 		.4byte	.LASF421
 5416 1727 18       		.byte	0x18
 5417 1728 AA       		.byte	0xaa
 5418 1729 580A0000 		.4byte	0xa58
 5419 172d 10       		.byte	0x10
 5420 172e 07       		.uleb128 0x7
 5421 172f 9C260000 		.4byte	.LASF422
 5422 1733 18       		.byte	0x18
 5423 1734 AB       		.byte	0xab
 5424 1735 580A0000 		.4byte	0xa58
 5425 1739 14       		.byte	0x14
 5426 173a 07       		.uleb128 0x7
 5427 173b A9070000 		.4byte	.LASF423
 5428 173f 18       		.byte	0x18
 5429 1740 AC       		.byte	0xac
 5430 1741 580A0000 		.4byte	0xa58
 5431 1745 18       		.byte	0x18
 5432 1746 07       		.uleb128 0x7
 5433 1747 2E0A0000 		.4byte	.LASF424
 5434 174b 18       		.byte	0x18
 5435 174c AD       		.byte	0xad
 5436 174d 580A0000 		.4byte	0xa58
 5437 1751 1C       		.byte	0x1c
 5438 1752 07       		.uleb128 0x7
 5439 1753 C2210000 		.4byte	.LASF425
 5440 1757 18       		.byte	0x18
 5441 1758 AE       		.byte	0xae
 5442 1759 580A0000 		.4byte	0xa58
 5443 175d 20       		.byte	0x20
 5444 175e 07       		.uleb128 0x7
 5445 175f 10010000 		.4byte	.LASF426
 5446 1763 18       		.byte	0x18
 5447 1764 AF       		.byte	0xaf
 5448 1765 E4000000 		.4byte	0xe4
 5449 1769 24       		.byte	0x24
 5450 176a 09       		.uleb128 0x9
 5451 176b FB140000 		.4byte	.LASF427
 5452 176f 18       		.byte	0x18
 5453 1770 B0       		.byte	0xb0
 5454 1771 B8000000 		.4byte	0xb8
 5455 1775 01       		.byte	0x1
 5456 1776 01       		.byte	0x1
 5457 1777 07       		.byte	0x7
 5458 1778 28       		.byte	0x28
 5459 1779 09       		.uleb128 0x9
 5460 177a 3E280000 		.4byte	.LASF428
 5461 177e 18       		.byte	0x18
 5462 177f B2       		.byte	0xb2
 5463 1780 B8000000 		.4byte	0xb8
 5464 1784 01       		.byte	0x1
 5465 1785 01       		.byte	0x1
 5466 1786 06       		.byte	0x6
 5467 1787 28       		.byte	0x28
ARM GAS  C:\Users\haske\AppData\Local\Temp\ccN8jSR9.s 			page 127


 5468 1788 09       		.uleb128 0x9
 5469 1789 861C0000 		.4byte	.LASF429
 5470 178d 18       		.byte	0x18
 5471 178e B4       		.byte	0xb4
 5472 178f B8000000 		.4byte	0xb8
 5473 1793 01       		.byte	0x1
 5474 1794 01       		.byte	0x1
 5475 1795 05       		.byte	0x5
 5476 1796 28       		.byte	0x28
 5477 1797 07       		.uleb128 0x7
 5478 1798 A2060000 		.4byte	.LASF270
 5479 179c 18       		.byte	0x18
 5480 179d B6       		.byte	0xb6
 5481 179e 36040000 		.4byte	0x436
 5482 17a2 29       		.byte	0x29
 5483 17a3 07       		.uleb128 0x7
 5484 17a4 FA010000 		.4byte	.LASF271
 5485 17a8 18       		.byte	0x18
 5486 17a9 B7       		.byte	0xb7
 5487 17aa 2B040000 		.4byte	0x42b
 5488 17ae 2A       		.byte	0x2a
 5489 17af 07       		.uleb128 0x7
 5490 17b0 56280000 		.4byte	.LASF430
 5491 17b4 18       		.byte	0x18
 5492 17b5 B8       		.byte	0xb8
 5493 17b6 E2020000 		.4byte	0x2e2
 5494 17ba 2C       		.byte	0x2c
 5495 17bb 07       		.uleb128 0x7
 5496 17bc CF1B0000 		.4byte	.LASF431
 5497 17c0 18       		.byte	0x18
 5498 17c1 BB       		.byte	0xbb
 5499 17c2 93180000 		.4byte	0x1893
 5500 17c6 30       		.byte	0x30
 5501 17c7 23       		.uleb128 0x23
 5502 17c8 83070000 		.4byte	.LASF432
 5503 17cc 18       		.byte	0x18
 5504 17cd BC       		.byte	0xbc
 5505 17ce A3180000 		.4byte	0x18a3
 5506 17d2 3001     		.2byte	0x130
 5507 17d4 23       		.uleb128 0x23
 5508 17d5 F2260000 		.4byte	.LASF433
 5509 17d9 18       		.byte	0x18
 5510 17da BD       		.byte	0xbd
 5511 17db CE000000 		.4byte	0xce
 5512 17df 5001     		.2byte	0x150
 5513 17e1 23       		.uleb128 0x23
 5514 17e2 C3270000 		.4byte	.LASF434
 5515 17e6 18       		.byte	0x18
 5516 17e7 BE       		.byte	0xbe
 5517 17e8 D9000000 		.4byte	0xd9
 5518 17ec 5401     		.2byte	0x154
 5519 17ee 23       		.uleb128 0x23
 5520 17ef 08060000 		.4byte	.LASF435
 5521 17f3 18       		.byte	0x18
 5522 17f4 C1       		.byte	0xc1
 5523 17f5 E4000000 		.4byte	0xe4
 5524 17f9 5801     		.2byte	0x158
ARM GAS  C:\Users\haske\AppData\Local\Temp\ccN8jSR9.s 			page 128


 5525 17fb 00       		.byte	0
 5526 17fc 0B       		.uleb128 0xb
 5527 17fd 04       		.byte	0x4
 5528 17fe CA130000 		.4byte	0x13ca
 5529 1802 0A       		.uleb128 0xa
 5530 1803 67260000 		.4byte	.LASF436
 5531 1807 24       		.byte	0x24
 5532 1808 19       		.byte	0x19
 5533 1809 1F       		.byte	0x1f
 5534 180a 87180000 		.4byte	0x1887
 5535 180e 07       		.uleb128 0x7
 5536 180f 9E2A0000 		.4byte	.LASF437
 5537 1813 19       		.byte	0x19
 5538 1814 20       		.byte	0x20
 5539 1815 17230000 		.4byte	0x2317
 5540 1819 00       		.byte	0
 5541 181a 07       		.uleb128 0x7
 5542 181b 7D120000 		.4byte	.LASF256
 5543 181f 19       		.byte	0x19
 5544 1820 21       		.byte	0x21
 5545 1821 87180000 		.4byte	0x1887
 5546 1825 04       		.byte	0x4
 5547 1826 07       		.uleb128 0x7
 5548 1827 F22B0000 		.4byte	.LASF42
 5549 182b 19       		.byte	0x19
 5550 182c 22       		.byte	0x22
 5551 182d E9020000 		.4byte	0x2e9
 5552 1831 08       		.byte	0x8
 5553 1832 07       		.uleb128 0x7
 5554 1833 C31A0000 		.4byte	.LASF438
 5555 1837 19       		.byte	0x19
 5556 1838 23       		.byte	0x23
 5557 1839 491A0000 		.4byte	0x1a49
 5558 183d 0C       		.byte	0xc
 5559 183e 07       		.uleb128 0x7
 5560 183f BC010000 		.4byte	.LASF439
 5561 1843 19       		.byte	0x19
 5562 1844 24       		.byte	0x24
 5563 1845 2B040000 		.4byte	0x42b
 5564 1849 10       		.byte	0x10
 5565 184a 07       		.uleb128 0x7
 5566 184b D7020000 		.4byte	.LASF440
 5567 184f 19       		.byte	0x19
 5568 1850 25       		.byte	0x25
 5569 1851 2B040000 		.4byte	0x42b
 5570 1855 12       		.byte	0x12
 5571 1856 07       		.uleb128 0x7
 5572 1857 08110000 		.4byte	.LASF441
 5573 185b 19       		.byte	0x19
 5574 185c 26       		.byte	0x26
 5575 185d 4C0D0000 		.4byte	0xd4c
 5576 1861 14       		.byte	0x14
 5577 1862 07       		.uleb128 0x7
 5578 1863 582C0000 		.4byte	.LASF442
 5579 1867 19       		.byte	0x19
 5580 1868 27       		.byte	0x27
 5581 1869 4C0D0000 		.4byte	0xd4c
ARM GAS  C:\Users\haske\AppData\Local\Temp\ccN8jSR9.s 			page 129


 5582 186d 18       		.byte	0x18
 5583 186e 07       		.uleb128 0x7
 5584 186f 081F0000 		.4byte	.LASF443
 5585 1873 19       		.byte	0x19
 5586 1874 28       		.byte	0x28
 5587 1875 4C0D0000 		.4byte	0xd4c
 5588 1879 1C       		.byte	0x1c
 5589 187a 07       		.uleb128 0x7
 5590 187b 7C0C0000 		.4byte	.LASF260
 5591 187f 19       		.byte	0x19
 5592 1880 29       		.byte	0x29
 5593 1881 E4000000 		.4byte	0xe4
 5594 1885 20       		.byte	0x20
 5595 1886 00       		.byte	0
 5596 1887 0B       		.uleb128 0xb
 5597 1888 04       		.byte	0x4
 5598 1889 02180000 		.4byte	0x1802
 5599 188d 0B       		.uleb128 0xb
 5600 188e 04       		.byte	0x4
 5601 188f 580A0000 		.4byte	0xa58
 5602 1893 17       		.uleb128 0x17
 5603 1894 69010000 		.4byte	0x169
 5604 1898 A3180000 		.4byte	0x18a3
 5605 189c 18       		.uleb128 0x18
 5606 189d 01030000 		.4byte	0x301
 5607 18a1 1F       		.byte	0x1f
 5608 18a2 00       		.byte	0
 5609 18a3 17       		.uleb128 0x17
 5610 18a4 B8000000 		.4byte	0xb8
 5611 18a8 B3180000 		.4byte	0x18b3
 5612 18ac 18       		.uleb128 0x18
 5613 18ad 01030000 		.4byte	0x301
 5614 18b1 1F       		.byte	0x1f
 5615 18b2 00       		.byte	0
 5616 18b3 02       		.uleb128 0x2
 5617 18b4 9C000000 		.4byte	.LASF444
 5618 18b8 18       		.byte	0x18
 5619 18b9 C2       		.byte	0xc2
 5620 18ba E5160000 		.4byte	0x16e5
 5621 18be 11       		.uleb128 0x11
 5622 18bf 01       		.byte	0x1
 5623 18c0 42000000 		.4byte	0x42
 5624 18c4 1A       		.byte	0x1a
 5625 18c5 3E       		.byte	0x3e
 5626 18c6 E9180000 		.4byte	0x18e9
 5627 18ca 12       		.uleb128 0x12
 5628 18cb AC2B0000 		.4byte	.LASF445
 5629 18cf 00       		.byte	0
 5630 18d0 12       		.uleb128 0x12
 5631 18d1 7B1F0000 		.4byte	.LASF446
 5632 18d5 01       		.byte	0x1
 5633 18d6 12       		.uleb128 0x12
 5634 18d7 9D230000 		.4byte	.LASF447
 5635 18db 02       		.byte	0x2
 5636 18dc 12       		.uleb128 0x12
 5637 18dd 20100000 		.4byte	.LASF448
 5638 18e1 03       		.byte	0x3
ARM GAS  C:\Users\haske\AppData\Local\Temp\ccN8jSR9.s 			page 130


 5639 18e2 12       		.uleb128 0x12
 5640 18e3 7D000000 		.4byte	.LASF449
 5641 18e7 04       		.byte	0x4
 5642 18e8 00       		.byte	0
 5643 18e9 02       		.uleb128 0x2
 5644 18ea 5A170000 		.4byte	.LASF450
 5645 18ee 1A       		.byte	0x1a
 5646 18ef 44       		.byte	0x44
 5647 18f0 BE180000 		.4byte	0x18be
 5648 18f4 11       		.uleb128 0x11
 5649 18f5 01       		.byte	0x1
 5650 18f6 42000000 		.4byte	0x42
 5651 18fa 1A       		.byte	0x1a
 5652 18fb 47       		.byte	0x47
 5653 18fc 0D190000 		.4byte	0x190d
 5654 1900 12       		.uleb128 0x12
 5655 1901 CB0A0000 		.4byte	.LASF451
 5656 1905 00       		.byte	0
 5657 1906 12       		.uleb128 0x12
 5658 1907 E5160000 		.4byte	.LASF452
 5659 190b 01       		.byte	0x1
 5660 190c 00       		.byte	0
 5661 190d 02       		.uleb128 0x2
 5662 190e 35100000 		.4byte	.LASF453
 5663 1912 1A       		.byte	0x1a
 5664 1913 4A       		.byte	0x4a
 5665 1914 F4180000 		.4byte	0x18f4
 5666 1918 05       		.uleb128 0x5
 5667 1919 10       		.byte	0x10
 5668 191a 1A       		.byte	0x1a
 5669 191b 4D       		.byte	0x4d
 5670 191c 69190000 		.4byte	0x1969
 5671 1920 07       		.uleb128 0x7
 5672 1921 95040000 		.4byte	.LASF454
 5673 1925 1A       		.byte	0x1a
 5674 1926 4E       		.byte	0x4e
 5675 1927 29010000 		.4byte	0x129
 5676 192b 00       		.byte	0
 5677 192c 06       		.uleb128 0x6
 5678 192d 6B657900 		.ascii	"key\000"
 5679 1931 1A       		.byte	0x1a
 5680 1932 4F       		.byte	0x4f
 5681 1933 E4000000 		.4byte	0xe4
 5682 1937 04       		.byte	0x4
 5683 1938 07       		.uleb128 0x7
 5684 1939 AF0C0000 		.4byte	.LASF455
 5685 193d 1A       		.byte	0x1a
 5686 193e 50       		.byte	0x50
 5687 193f E4000000 		.4byte	0xe4
 5688 1943 08       		.byte	0x8
 5689 1944 07       		.uleb128 0x7
 5690 1945 1E1B0000 		.4byte	.LASF456
 5691 1949 1A       		.byte	0x1a
 5692 194a 51       		.byte	0x51
 5693 194b C3000000 		.4byte	0xc3
 5694 194f 0C       		.byte	0xc
 5695 1950 07       		.uleb128 0x7
ARM GAS  C:\Users\haske\AppData\Local\Temp\ccN8jSR9.s 			page 131


 5696 1951 C1020000 		.4byte	.LASF261
 5697 1955 1A       		.byte	0x1a
 5698 1956 53       		.byte	0x53
 5699 1957 0D190000 		.4byte	0x190d
 5700 195b 0E       		.byte	0xe
 5701 195c 07       		.uleb128 0x7
 5702 195d 0A140000 		.4byte	.LASF457
 5703 1961 1A       		.byte	0x1a
 5704 1962 54       		.byte	0x54
 5705 1963 AA020000 		.4byte	0x2aa
 5706 1967 0F       		.byte	0xf
 5707 1968 00       		.byte	0
 5708 1969 02       		.uleb128 0x2
 5709 196a B4290000 		.4byte	.LASF458
 5710 196e 1A       		.byte	0x1a
 5711 196f 55       		.byte	0x55
 5712 1970 18190000 		.4byte	0x1918
 5713 1974 0A       		.uleb128 0xa
 5714 1975 64040000 		.4byte	.LASF459
 5715 1979 20       		.byte	0x20
 5716 197a 1A       		.byte	0x1a
 5717 197b 58       		.byte	0x58
 5718 197c 111A0000 		.4byte	0x1a11
 5719 1980 07       		.uleb128 0x7
 5720 1981 A1030000 		.4byte	.LASF460
 5721 1985 1A       		.byte	0x1a
 5722 1986 5B       		.byte	0x5b
 5723 1987 E9180000 		.4byte	0x18e9
 5724 198b 00       		.byte	0
 5725 198c 07       		.uleb128 0x7
 5726 198d 14080000 		.4byte	.LASF461
 5727 1991 1A       		.byte	0x1a
 5728 1992 5E       		.byte	0x5e
 5729 1993 2D1A0000 		.4byte	0x1a2d
 5730 1997 04       		.byte	0x4
 5731 1998 07       		.uleb128 0x7
 5732 1999 6A200000 		.4byte	.LASF462
 5733 199d 1A       		.byte	0x1a
 5734 199e 62       		.byte	0x62
 5735 199f 431A0000 		.4byte	0x1a43
 5736 19a3 08       		.byte	0x8
 5737 19a4 07       		.uleb128 0x7
 5738 19a5 F22B0000 		.4byte	.LASF42
 5739 19a9 1A       		.byte	0x1a
 5740 19aa 65       		.byte	0x65
 5741 19ab E9020000 		.4byte	0x2e9
 5742 19af 0C       		.byte	0xc
 5743 19b0 07       		.uleb128 0x7
 5744 19b1 C31A0000 		.4byte	.LASF438
 5745 19b5 1A       		.byte	0x1a
 5746 19b6 69       		.byte	0x69
 5747 19b7 491A0000 		.4byte	0x1a49
 5748 19bb 10       		.byte	0x10
 5749 19bc 07       		.uleb128 0x7
 5750 19bd B41F0000 		.4byte	.LASF463
 5751 19c1 1A       		.byte	0x1a
 5752 19c2 6C       		.byte	0x6c
ARM GAS  C:\Users\haske\AppData\Local\Temp\ccN8jSR9.s 			page 132


 5753 19c3 FC170000 		.4byte	0x17fc
 5754 19c7 14       		.byte	0x14
 5755 19c8 07       		.uleb128 0x7
 5756 19c9 E6220000 		.4byte	.LASF464
 5757 19cd 1A       		.byte	0x1a
 5758 19ce 6F       		.byte	0x6f
 5759 19cf B8000000 		.4byte	0xb8
 5760 19d3 18       		.byte	0x18
 5761 19d4 07       		.uleb128 0x7
 5762 19d5 7F200000 		.4byte	.LASF465
 5763 19d9 1A       		.byte	0x1a
 5764 19da 72       		.byte	0x72
 5765 19db B8000000 		.4byte	0xb8
 5766 19df 19       		.byte	0x19
 5767 19e0 07       		.uleb128 0x7
 5768 19e1 5B2B0000 		.4byte	.LASF466
 5769 19e5 1A       		.byte	0x1a
 5770 19e6 75       		.byte	0x75
 5771 19e7 B8000000 		.4byte	0xb8
 5772 19eb 1A       		.byte	0x1a
 5773 19ec 07       		.uleb128 0x7
 5774 19ed 882D0000 		.4byte	.LASF467
 5775 19f1 1A       		.byte	0x1a
 5776 19f2 78       		.byte	0x78
 5777 19f3 B8000000 		.4byte	0xb8
 5778 19f7 1B       		.byte	0x1b
 5779 19f8 07       		.uleb128 0x7
 5780 19f9 9B210000 		.4byte	.LASF468
 5781 19fd 1A       		.byte	0x1a
 5782 19fe 7B       		.byte	0x7b
 5783 19ff CE000000 		.4byte	0xce
 5784 1a03 1C       		.byte	0x1c
 5785 1a04 07       		.uleb128 0x7
 5786 1a05 FD280000 		.4byte	.LASF469
 5787 1a09 1A       		.byte	0x1a
 5788 1a0a 7E       		.byte	0x7e
 5789 1a0b CE000000 		.4byte	0xce
 5790 1a0f 1E       		.byte	0x1e
 5791 1a10 00       		.byte	0
 5792 1a11 20       		.uleb128 0x20
 5793 1a12 211A0000 		.4byte	0x1a21
 5794 1a16 0E       		.uleb128 0xe
 5795 1a17 211A0000 		.4byte	0x1a21
 5796 1a1b 0E       		.uleb128 0xe
 5797 1a1c 271A0000 		.4byte	0x1a27
 5798 1a20 00       		.byte	0
 5799 1a21 0B       		.uleb128 0xb
 5800 1a22 04       		.byte	0x4
 5801 1a23 74190000 		.4byte	0x1974
 5802 1a27 0B       		.uleb128 0xb
 5803 1a28 04       		.byte	0x4
 5804 1a29 69190000 		.4byte	0x1969
 5805 1a2d 0B       		.uleb128 0xb
 5806 1a2e 04       		.byte	0x4
 5807 1a2f 111A0000 		.4byte	0x1a11
 5808 1a33 20       		.uleb128 0x20
 5809 1a34 431A0000 		.4byte	0x1a43
ARM GAS  C:\Users\haske\AppData\Local\Temp\ccN8jSR9.s 			page 133


 5810 1a38 0E       		.uleb128 0xe
 5811 1a39 211A0000 		.4byte	0x1a21
 5812 1a3d 0E       		.uleb128 0xe
 5813 1a3e B8000000 		.4byte	0xb8
 5814 1a42 00       		.byte	0
 5815 1a43 0B       		.uleb128 0xb
 5816 1a44 04       		.byte	0x4
 5817 1a45 331A0000 		.4byte	0x1a33
 5818 1a49 0B       		.uleb128 0xb
 5819 1a4a 04       		.byte	0x4
 5820 1a4b E5160000 		.4byte	0x16e5
 5821 1a4f 05       		.uleb128 0x5
 5822 1a50 40       		.byte	0x40
 5823 1a51 1A       		.byte	0x1a
 5824 1a52 8D       		.byte	0x8d
 5825 1a53 2D1B0000 		.4byte	0x1b2d
 5826 1a57 07       		.uleb128 0x7
 5827 1a58 16270000 		.4byte	.LASF470
 5828 1a5c 1A       		.byte	0x1a
 5829 1a5d 8F       		.byte	0x8f
 5830 1a5e 29010000 		.4byte	0x129
 5831 1a62 00       		.byte	0
 5832 1a63 07       		.uleb128 0x7
 5833 1a64 B71A0000 		.4byte	.LASF471
 5834 1a68 1A       		.byte	0x1a
 5835 1a69 90       		.byte	0x90
 5836 1a6a 29010000 		.4byte	0x129
 5837 1a6e 04       		.byte	0x4
 5838 1a6f 07       		.uleb128 0x7
 5839 1a70 D9180000 		.4byte	.LASF472
 5840 1a74 1A       		.byte	0x1a
 5841 1a75 91       		.byte	0x91
 5842 1a76 29010000 		.4byte	0x129
 5843 1a7a 08       		.byte	0x8
 5844 1a7b 07       		.uleb128 0x7
 5845 1a7c DC2C0000 		.4byte	.LASF473
 5846 1a80 1A       		.byte	0x1a
 5847 1a81 92       		.byte	0x92
 5848 1a82 29010000 		.4byte	0x129
 5849 1a86 0C       		.byte	0xc
 5850 1a87 07       		.uleb128 0x7
 5851 1a88 7B210000 		.4byte	.LASF474
 5852 1a8c 1A       		.byte	0x1a
 5853 1a8d 93       		.byte	0x93
 5854 1a8e 29010000 		.4byte	0x129
 5855 1a92 10       		.byte	0x10
 5856 1a93 07       		.uleb128 0x7
 5857 1a94 FE1A0000 		.4byte	.LASF475
 5858 1a98 1A       		.byte	0x1a
 5859 1a99 94       		.byte	0x94
 5860 1a9a 29010000 		.4byte	0x129
 5861 1a9e 14       		.byte	0x14
 5862 1a9f 07       		.uleb128 0x7
 5863 1aa0 2A210000 		.4byte	.LASF476
 5864 1aa4 1A       		.byte	0x1a
 5865 1aa5 95       		.byte	0x95
 5866 1aa6 29010000 		.4byte	0x129
ARM GAS  C:\Users\haske\AppData\Local\Temp\ccN8jSR9.s 			page 134


 5867 1aaa 18       		.byte	0x18
 5868 1aab 07       		.uleb128 0x7
 5869 1aac 31230000 		.4byte	.LASF477
 5870 1ab0 1A       		.byte	0x1a
 5871 1ab1 96       		.byte	0x96
 5872 1ab2 29010000 		.4byte	0x129
 5873 1ab6 1C       		.byte	0x1c
 5874 1ab7 07       		.uleb128 0x7
 5875 1ab8 EC180000 		.4byte	.LASF478
 5876 1abc 1A       		.byte	0x1a
 5877 1abd 97       		.byte	0x97
 5878 1abe 580A0000 		.4byte	0xa58
 5879 1ac2 20       		.byte	0x20
 5880 1ac3 07       		.uleb128 0x7
 5881 1ac4 3B170000 		.4byte	.LASF479
 5882 1ac8 1A       		.byte	0x1a
 5883 1ac9 98       		.byte	0x98
 5884 1aca 580A0000 		.4byte	0xa58
 5885 1ace 24       		.byte	0x24
 5886 1acf 07       		.uleb128 0x7
 5887 1ad0 99050000 		.4byte	.LASF480
 5888 1ad4 1A       		.byte	0x1a
 5889 1ad5 99       		.byte	0x99
 5890 1ad6 580A0000 		.4byte	0xa58
 5891 1ada 28       		.byte	0x28
 5892 1adb 07       		.uleb128 0x7
 5893 1adc 88080000 		.4byte	.LASF481
 5894 1ae0 1A       		.byte	0x1a
 5895 1ae1 9A       		.byte	0x9a
 5896 1ae2 580A0000 		.4byte	0xa58
 5897 1ae6 2C       		.byte	0x2c
 5898 1ae7 07       		.uleb128 0x7
 5899 1ae8 C90D0000 		.4byte	.LASF482
 5900 1aec 1A       		.byte	0x1a
 5901 1aed 9B       		.byte	0x9b
 5902 1aee 69010000 		.4byte	0x169
 5903 1af2 30       		.byte	0x30
 5904 1af3 07       		.uleb128 0x7
 5905 1af4 70080000 		.4byte	.LASF483
 5906 1af8 1A       		.byte	0x1a
 5907 1af9 9D       		.byte	0x9d
 5908 1afa 29010000 		.4byte	0x129
 5909 1afe 38       		.byte	0x38
 5910 1aff 09       		.uleb128 0x9
 5911 1b00 50060000 		.4byte	.LASF484
 5912 1b04 1A       		.byte	0x1a
 5913 1b05 9F       		.byte	0x9f
 5914 1b06 74010000 		.4byte	0x174
 5915 1b0a 01       		.byte	0x1
 5916 1b0b 04       		.byte	0x4
 5917 1b0c 04       		.byte	0x4
 5918 1b0d 3C       		.byte	0x3c
 5919 1b0e 09       		.uleb128 0x9
 5920 1b0f AC250000 		.4byte	.LASF485
 5921 1b13 1A       		.byte	0x1a
 5922 1b14 A0       		.byte	0xa0
 5923 1b15 74010000 		.4byte	0x174
ARM GAS  C:\Users\haske\AppData\Local\Temp\ccN8jSR9.s 			page 135


 5924 1b19 01       		.byte	0x1
 5925 1b1a 04       		.byte	0x4
 5926 1b1b 00       		.byte	0
 5927 1b1c 3C       		.byte	0x3c
 5928 1b1d 09       		.uleb128 0x9
 5929 1b1e C4250000 		.4byte	.LASF486
 5930 1b22 1A       		.byte	0x1a
 5931 1b23 A1       		.byte	0xa1
 5932 1b24 B8000000 		.4byte	0xb8
 5933 1b28 01       		.byte	0x1
 5934 1b29 01       		.byte	0x1
 5935 1b2a 07       		.byte	0x7
 5936 1b2b 3D       		.byte	0x3d
 5937 1b2c 00       		.byte	0
 5938 1b2d 05       		.uleb128 0x5
 5939 1b2e 08       		.byte	0x8
 5940 1b2f 1A       		.byte	0x1a
 5941 1b30 A3       		.byte	0xa3
 5942 1b31 4E1B0000 		.4byte	0x1b4e
 5943 1b35 07       		.uleb128 0x7
 5944 1b36 701F0000 		.4byte	.LASF487
 5945 1b3a 1A       		.byte	0x1a
 5946 1b3b A5       		.byte	0xa5
 5947 1b3c 0D190000 		.4byte	0x190d
 5948 1b40 00       		.byte	0
 5949 1b41 07       		.uleb128 0x7
 5950 1b42 8C250000 		.4byte	.LASF488
 5951 1b46 1A       		.byte	0x1a
 5952 1b47 A6       		.byte	0xa6
 5953 1b48 E4000000 		.4byte	0xe4
 5954 1b4c 04       		.byte	0x4
 5955 1b4d 00       		.byte	0
 5956 1b4e 13       		.uleb128 0x13
 5957 1b4f 40       		.byte	0x40
 5958 1b50 1A       		.byte	0x1a
 5959 1b51 8C       		.byte	0x8c
 5960 1b52 6D1B0000 		.4byte	0x1b6d
 5961 1b56 15       		.uleb128 0x15
 5962 1b57 75120000 		.4byte	.LASF489
 5963 1b5b 1A       		.byte	0x1a
 5964 1b5c A2       		.byte	0xa2
 5965 1b5d 4F1A0000 		.4byte	0x1a4f
 5966 1b61 15       		.uleb128 0x15
 5967 1b62 67270000 		.4byte	.LASF490
 5968 1b66 1A       		.byte	0x1a
 5969 1b67 A7       		.byte	0xa7
 5970 1b68 2D1B0000 		.4byte	0x1b2d
 5971 1b6c 00       		.byte	0
 5972 1b6d 0A       		.uleb128 0xa
 5973 1b6e 45210000 		.4byte	.LASF491
 5974 1b72 4C       		.byte	0x4c
 5975 1b73 1A       		.byte	0x1a
 5976 1b74 84       		.byte	0x84
 5977 1b75 E61B0000 		.4byte	0x1be6
 5978 1b79 07       		.uleb128 0x7
 5979 1b7a C1020000 		.4byte	.LASF261
 5980 1b7e 1A       		.byte	0x1a
ARM GAS  C:\Users\haske\AppData\Local\Temp\ccN8jSR9.s 			page 136


 5981 1b7f 85       		.byte	0x85
 5982 1b80 0D190000 		.4byte	0x190d
 5983 1b84 00       		.byte	0
 5984 1b85 09       		.uleb128 0x9
 5985 1b86 092D0000 		.4byte	.LASF492
 5986 1b8a 1A       		.byte	0x1a
 5987 1b8b 87       		.byte	0x87
 5988 1b8c B8000000 		.4byte	0xb8
 5989 1b90 01       		.byte	0x1
 5990 1b91 01       		.byte	0x1
 5991 1b92 07       		.byte	0x7
 5992 1b93 01       		.byte	0x1
 5993 1b94 09       		.uleb128 0x9
 5994 1b95 B2220000 		.4byte	.LASF493
 5995 1b99 1A       		.byte	0x1a
 5996 1b9a 88       		.byte	0x88
 5997 1b9b B8000000 		.4byte	0xb8
 5998 1b9f 01       		.byte	0x1
 5999 1ba0 01       		.byte	0x1
 6000 1ba1 06       		.byte	0x6
 6001 1ba2 01       		.byte	0x1
 6002 1ba3 09       		.uleb128 0x9
 6003 1ba4 FC2A0000 		.4byte	.LASF494
 6004 1ba8 1A       		.byte	0x1a
 6005 1ba9 89       		.byte	0x89
 6006 1baa B8000000 		.4byte	0xb8
 6007 1bae 01       		.byte	0x1
 6008 1baf 01       		.byte	0x1
 6009 1bb0 05       		.byte	0x5
 6010 1bb1 01       		.byte	0x1
 6011 1bb2 09       		.uleb128 0x9
 6012 1bb3 F7120000 		.4byte	.LASF495
 6013 1bb7 1A       		.byte	0x1a
 6014 1bb8 8A       		.byte	0x8a
 6015 1bb9 B8000000 		.4byte	0xb8
 6016 1bbd 01       		.byte	0x1
 6017 1bbe 01       		.byte	0x1
 6018 1bbf 04       		.byte	0x4
 6019 1bc0 01       		.byte	0x1
 6020 1bc1 07       		.uleb128 0x7
 6021 1bc2 380A0000 		.4byte	.LASF496
 6022 1bc6 1A       		.byte	0x1a
 6023 1bc7 A8       		.byte	0xa8
 6024 1bc8 4E1B0000 		.4byte	0x1b4e
 6025 1bcc 04       		.byte	0x4
 6026 1bcd 07       		.uleb128 0x7
 6027 1bce A71F0000 		.4byte	.LASF497
 6028 1bd2 1A       		.byte	0x1a
 6029 1bd3 AA       		.byte	0xaa
 6030 1bd4 E4000000 		.4byte	0xe4
 6031 1bd8 44       		.byte	0x44
 6032 1bd9 07       		.uleb128 0x7
 6033 1bda 031C0000 		.4byte	.LASF498
 6034 1bde 1A       		.byte	0x1a
 6035 1bdf AB       		.byte	0xab
 6036 1be0 E4000000 		.4byte	0xe4
 6037 1be4 48       		.byte	0x48
ARM GAS  C:\Users\haske\AppData\Local\Temp\ccN8jSR9.s 			page 137


 6038 1be5 00       		.byte	0
 6039 1be6 02       		.uleb128 0x2
 6040 1be7 45210000 		.4byte	.LASF491
 6041 1beb 1A       		.byte	0x1a
 6042 1bec AC       		.byte	0xac
 6043 1bed 6D1B0000 		.4byte	0x1b6d
 6044 1bf1 0A       		.uleb128 0xa
 6045 1bf2 A0250000 		.4byte	.LASF499
 6046 1bf6 5C       		.byte	0x5c
 6047 1bf7 1A       		.byte	0x1a
 6048 1bf8 B0       		.byte	0xb0
 6049 1bf9 3A1C0000 		.4byte	0x1c3a
 6050 1bfd 07       		.uleb128 0x7
 6051 1bfe B70D0000 		.4byte	.LASF417
 6052 1c02 1A       		.byte	0x1a
 6053 1c03 B1       		.byte	0xb1
 6054 1c04 211A0000 		.4byte	0x1a21
 6055 1c08 00       		.byte	0
 6056 1c09 07       		.uleb128 0x7
 6057 1c0a 890E0000 		.4byte	.LASF500
 6058 1c0e 1A       		.byte	0x1a
 6059 1c0f B2       		.byte	0xb2
 6060 1c10 E61B0000 		.4byte	0x1be6
 6061 1c14 04       		.byte	0x4
 6062 1c15 07       		.uleb128 0x7
 6063 1c16 362E0000 		.4byte	.LASF501
 6064 1c1a 1A       		.byte	0x1a
 6065 1c1b B3       		.byte	0xb3
 6066 1c1c 580A0000 		.4byte	0xa58
 6067 1c20 50       		.byte	0x50
 6068 1c21 07       		.uleb128 0x7
 6069 1c22 C1070000 		.4byte	.LASF502
 6070 1c26 1A       		.byte	0x1a
 6071 1c27 B4       		.byte	0xb4
 6072 1c28 BF1C0000 		.4byte	0x1cbf
 6073 1c2c 54       		.byte	0x54
 6074 1c2d 07       		.uleb128 0x7
 6075 1c2e C5120000 		.4byte	.LASF503
 6076 1c32 1A       		.byte	0x1a
 6077 1c33 B5       		.byte	0xb5
 6078 1c34 3D110000 		.4byte	0x113d
 6079 1c38 58       		.byte	0x58
 6080 1c39 00       		.byte	0
 6081 1c3a 0A       		.uleb128 0xa
 6082 1c3b 3D2E0000 		.4byte	.LASF504
 6083 1c3f 20       		.byte	0x20
 6084 1c40 1B       		.byte	0x1b
 6085 1c41 3B       		.byte	0x3b
 6086 1c42 BF1C0000 		.4byte	0x1cbf
 6087 1c46 07       		.uleb128 0x7
 6088 1c47 85150000 		.4byte	.LASF505
 6089 1c4b 1B       		.byte	0x1b
 6090 1c4c 3C       		.byte	0x3c
 6091 1c4d 45130000 		.4byte	0x1345
 6092 1c51 00       		.byte	0
 6093 1c52 07       		.uleb128 0x7
 6094 1c53 9A2E0000 		.4byte	.LASF506
ARM GAS  C:\Users\haske\AppData\Local\Temp\ccN8jSR9.s 			page 138


 6095 1c57 1B       		.byte	0x1b
 6096 1c58 3D       		.byte	0x3d
 6097 1c59 8D180000 		.4byte	0x188d
 6098 1c5d 0C       		.byte	0xc
 6099 1c5e 07       		.uleb128 0x7
 6100 1c5f 2E1E0000 		.4byte	.LASF507
 6101 1c63 1B       		.byte	0x1b
 6102 1c64 3F       		.byte	0x3f
 6103 1c65 DA210000 		.4byte	0x21da
 6104 1c69 10       		.byte	0x10
 6105 1c6a 07       		.uleb128 0x7
 6106 1c6b 7B070000 		.4byte	.LASF508
 6107 1c6f 1B       		.byte	0x1b
 6108 1c70 40       		.byte	0x40
 6109 1c71 F6210000 		.4byte	0x21f6
 6110 1c75 14       		.byte	0x14
 6111 1c76 07       		.uleb128 0x7
 6112 1c77 F22B0000 		.4byte	.LASF42
 6113 1c7b 1B       		.byte	0x1b
 6114 1c7c 45       		.byte	0x45
 6115 1c7d E9020000 		.4byte	0x2e9
 6116 1c81 18       		.byte	0x18
 6117 1c82 09       		.uleb128 0x9
 6118 1c83 B5010000 		.4byte	.LASF509
 6119 1c87 1B       		.byte	0x1b
 6120 1c88 48       		.byte	0x48
 6121 1c89 B8000000 		.4byte	0xb8
 6122 1c8d 01       		.byte	0x1
 6123 1c8e 01       		.byte	0x1
 6124 1c8f 07       		.byte	0x7
 6125 1c90 1C       		.byte	0x1c
 6126 1c91 09       		.uleb128 0x9
 6127 1c92 56210000 		.4byte	.LASF510
 6128 1c96 1B       		.byte	0x1b
 6129 1c97 49       		.byte	0x49
 6130 1c98 B8000000 		.4byte	0xb8
 6131 1c9c 01       		.byte	0x1
 6132 1c9d 01       		.byte	0x1
 6133 1c9e 06       		.byte	0x6
 6134 1c9f 1C       		.byte	0x1c
 6135 1ca0 09       		.uleb128 0x9
 6136 1ca1 EB2C0000 		.4byte	.LASF511
 6137 1ca5 1B       		.byte	0x1b
 6138 1ca6 4A       		.byte	0x4a
 6139 1ca7 B8000000 		.4byte	0xb8
 6140 1cab 01       		.byte	0x1
 6141 1cac 01       		.byte	0x1
 6142 1cad 05       		.byte	0x5
 6143 1cae 1C       		.byte	0x1c
 6144 1caf 09       		.uleb128 0x9
 6145 1cb0 91220000 		.4byte	.LASF512
 6146 1cb4 1B       		.byte	0x1b
 6147 1cb5 4C       		.byte	0x4c
 6148 1cb6 B8000000 		.4byte	0xb8
 6149 1cba 01       		.byte	0x1
 6150 1cbb 01       		.byte	0x1
 6151 1cbc 04       		.byte	0x4
ARM GAS  C:\Users\haske\AppData\Local\Temp\ccN8jSR9.s 			page 139


 6152 1cbd 1C       		.byte	0x1c
 6153 1cbe 00       		.byte	0
 6154 1cbf 0B       		.uleb128 0xb
 6155 1cc0 04       		.byte	0x4
 6156 1cc1 3A1C0000 		.4byte	0x1c3a
 6157 1cc5 02       		.uleb128 0x2
 6158 1cc6 BA120000 		.4byte	.LASF513
 6159 1cca 1A       		.byte	0x1a
 6160 1ccb B7       		.byte	0xb7
 6161 1ccc F11B0000 		.4byte	0x1bf1
 6162 1cd0 11       		.uleb128 0x11
 6163 1cd1 02       		.byte	0x2
 6164 1cd2 66000000 		.4byte	0x66
 6165 1cd6 0E       		.byte	0xe
 6166 1cd7 29       		.byte	0x29
 6167 1cd8 361D0000 		.4byte	0x1d36
 6168 1cdc 12       		.uleb128 0x12
 6169 1cdd AB260000 		.4byte	.LASF514
 6170 1ce1 00       		.byte	0
 6171 1ce2 12       		.uleb128 0x12
 6172 1ce3 FF270000 		.4byte	.LASF515
 6173 1ce7 01       		.byte	0x1
 6174 1ce8 12       		.uleb128 0x12
 6175 1ce9 2D2D0000 		.4byte	.LASF516
 6176 1ced 02       		.byte	0x2
 6177 1cee 12       		.uleb128 0x12
 6178 1cef C4060000 		.4byte	.LASF517
 6179 1cf3 04       		.byte	0x4
 6180 1cf4 12       		.uleb128 0x12
 6181 1cf5 100F0000 		.4byte	.LASF518
 6182 1cf9 08       		.byte	0x8
 6183 1cfa 12       		.uleb128 0x12
 6184 1cfb 91060000 		.4byte	.LASF519
 6185 1cff 10       		.byte	0x10
 6186 1d00 12       		.uleb128 0x12
 6187 1d01 06090000 		.4byte	.LASF520
 6188 1d05 20       		.byte	0x20
 6189 1d06 12       		.uleb128 0x12
 6190 1d07 D50D0000 		.4byte	.LASF521
 6191 1d0b 40       		.byte	0x40
 6192 1d0c 12       		.uleb128 0x12
 6193 1d0d 75110000 		.4byte	.LASF522
 6194 1d11 80       		.byte	0x80
 6195 1d12 19       		.uleb128 0x19
 6196 1d13 68290000 		.4byte	.LASF523
 6197 1d17 0010     		.2byte	0x1000
 6198 1d19 19       		.uleb128 0x19
 6199 1d1a A9060000 		.4byte	.LASF524
 6200 1d1e 0020     		.2byte	0x2000
 6201 1d20 19       		.uleb128 0x19
 6202 1d21 8C290000 		.4byte	.LASF525
 6203 1d25 0040     		.2byte	0x4000
 6204 1d27 19       		.uleb128 0x19
 6205 1d28 9C290000 		.4byte	.LASF526
 6206 1d2c 0080     		.2byte	0x8000
 6207 1d2e 19       		.uleb128 0x19
 6208 1d2f F6070000 		.4byte	.LASF527
ARM GAS  C:\Users\haske\AppData\Local\Temp\ccN8jSR9.s 			page 140


 6209 1d33 FFFF     		.2byte	0xffff
 6210 1d35 00       		.byte	0
 6211 1d36 02       		.uleb128 0x2
 6212 1d37 13070000 		.4byte	.LASF528
 6213 1d3b 0E       		.byte	0xe
 6214 1d3c 3C       		.byte	0x3c
 6215 1d3d CE000000 		.4byte	0xce
 6216 1d41 11       		.uleb128 0x11
 6217 1d42 04       		.byte	0x4
 6218 1d43 A6000000 		.4byte	0xa6
 6219 1d47 0E       		.byte	0xe
 6220 1d48 44       		.byte	0x44
 6221 1d49 A51D0000 		.4byte	0x1da5
 6222 1d4d 12       		.uleb128 0x12
 6223 1d4e 29200000 		.4byte	.LASF529
 6224 1d52 00       		.byte	0
 6225 1d53 24       		.uleb128 0x24
 6226 1d54 361A0000 		.4byte	.LASF530
 6227 1d58 00000100 		.4byte	0x10000
 6228 1d5c 24       		.uleb128 0x24
 6229 1d5d 0A1A0000 		.4byte	.LASF531
 6230 1d61 00000200 		.4byte	0x20000
 6231 1d65 24       		.uleb128 0x24
 6232 1d66 D8160000 		.4byte	.LASF532
 6233 1d6a 00000300 		.4byte	0x30000
 6234 1d6e 24       		.uleb128 0x24
 6235 1d6f 84040000 		.4byte	.LASF533
 6236 1d73 00000400 		.4byte	0x40000
 6237 1d77 24       		.uleb128 0x24
 6238 1d78 D3200000 		.4byte	.LASF534
 6239 1d7c 00000500 		.4byte	0x50000
 6240 1d80 24       		.uleb128 0x24
 6241 1d81 432C0000 		.4byte	.LASF535
 6242 1d85 00000600 		.4byte	0x60000
 6243 1d89 24       		.uleb128 0x24
 6244 1d8a 8F2A0000 		.4byte	.LASF536
 6245 1d8e 00000700 		.4byte	0x70000
 6246 1d92 24       		.uleb128 0x24
 6247 1d93 5D280000 		.4byte	.LASF537
 6248 1d97 00000800 		.4byte	0x80000
 6249 1d9b 24       		.uleb128 0x24
 6250 1d9c E80E0000 		.4byte	.LASF538
 6251 1da0 00000F00 		.4byte	0xf0000
 6252 1da4 00       		.byte	0
 6253 1da5 11       		.uleb128 0x11
 6254 1da6 04       		.byte	0x4
 6255 1da7 A6000000 		.4byte	0xa6
 6256 1dab 0E       		.byte	0xe
 6257 1dac 59       		.byte	0x59
 6258 1dad 8D1E0000 		.4byte	0x1e8d
 6259 1db1 12       		.uleb128 0x12
 6260 1db2 A9150000 		.4byte	.LASF539
 6261 1db6 01       		.byte	0x1
 6262 1db7 12       		.uleb128 0x12
 6263 1db8 C9190000 		.4byte	.LASF540
 6264 1dbc 02       		.byte	0x2
 6265 1dbd 12       		.uleb128 0x12
ARM GAS  C:\Users\haske\AppData\Local\Temp\ccN8jSR9.s 			page 141


 6266 1dbe 35220000 		.4byte	.LASF541
 6267 1dc2 04       		.byte	0x4
 6268 1dc3 12       		.uleb128 0x12
 6269 1dc4 6F150000 		.4byte	.LASF542
 6270 1dc8 08       		.byte	0x8
 6271 1dc9 12       		.uleb128 0x12
 6272 1dca BE050000 		.4byte	.LASF543
 6273 1dce 10       		.byte	0x10
 6274 1dcf 12       		.uleb128 0x12
 6275 1dd0 36190000 		.4byte	.LASF544
 6276 1dd4 20       		.byte	0x20
 6277 1dd5 12       		.uleb128 0x12
 6278 1dd6 B4140000 		.4byte	.LASF545
 6279 1dda 40       		.byte	0x40
 6280 1ddb 12       		.uleb128 0x12
 6281 1ddc DB2D0000 		.4byte	.LASF546
 6282 1de0 80       		.byte	0x80
 6283 1de1 19       		.uleb128 0x19
 6284 1de2 80230000 		.4byte	.LASF547
 6285 1de6 0001     		.2byte	0x100
 6286 1de8 19       		.uleb128 0x19
 6287 1de9 BD0F0000 		.4byte	.LASF548
 6288 1ded 0002     		.2byte	0x200
 6289 1def 19       		.uleb128 0x19
 6290 1df0 C0090000 		.4byte	.LASF549
 6291 1df4 0003     		.2byte	0x300
 6292 1df6 19       		.uleb128 0x19
 6293 1df7 181C0000 		.4byte	.LASF550
 6294 1dfb 0004     		.2byte	0x400
 6295 1dfd 19       		.uleb128 0x19
 6296 1dfe 39250000 		.4byte	.LASF551
 6297 1e02 0008     		.2byte	0x800
 6298 1e04 19       		.uleb128 0x19
 6299 1e05 44170000 		.4byte	.LASF552
 6300 1e09 0010     		.2byte	0x1000
 6301 1e0b 19       		.uleb128 0x19
 6302 1e0c 20270000 		.4byte	.LASF553
 6303 1e10 0020     		.2byte	0x2000
 6304 1e12 19       		.uleb128 0x19
 6305 1e13 DA0F0000 		.4byte	.LASF554
 6306 1e17 0040     		.2byte	0x4000
 6307 1e19 19       		.uleb128 0x19
 6308 1e1a 92180000 		.4byte	.LASF555
 6309 1e1e 0080     		.2byte	0x8000
 6310 1e20 24       		.uleb128 0x24
 6311 1e21 1E070000 		.4byte	.LASF556
 6312 1e25 00000100 		.4byte	0x10000
 6313 1e29 24       		.uleb128 0x24
 6314 1e2a 3F1D0000 		.4byte	.LASF557
 6315 1e2e 00000200 		.4byte	0x20000
 6316 1e32 24       		.uleb128 0x24
 6317 1e33 28130000 		.4byte	.LASF558
 6318 1e37 00000400 		.4byte	0x40000
 6319 1e3b 24       		.uleb128 0x24
 6320 1e3c E6130000 		.4byte	.LASF559
 6321 1e40 00000800 		.4byte	0x80000
 6322 1e44 24       		.uleb128 0x24
ARM GAS  C:\Users\haske\AppData\Local\Temp\ccN8jSR9.s 			page 142


 6323 1e45 4E090000 		.4byte	.LASF560
 6324 1e49 00008000 		.4byte	0x800000
 6325 1e4d 24       		.uleb128 0x24
 6326 1e4e 63090000 		.4byte	.LASF561
 6327 1e52 00000001 		.4byte	0x1000000
 6328 1e56 24       		.uleb128 0x24
 6329 1e57 E7090000 		.4byte	.LASF562
 6330 1e5b 00000002 		.4byte	0x2000000
 6331 1e5f 24       		.uleb128 0x24
 6332 1e60 FC090000 		.4byte	.LASF563
 6333 1e64 00000004 		.4byte	0x4000000
 6334 1e68 24       		.uleb128 0x24
 6335 1e69 4F110000 		.4byte	.LASF564
 6336 1e6d 00000008 		.4byte	0x8000000
 6337 1e71 24       		.uleb128 0x24
 6338 1e72 62110000 		.4byte	.LASF565
 6339 1e76 00000010 		.4byte	0x10000000
 6340 1e7a 24       		.uleb128 0x24
 6341 1e7b 482B0000 		.4byte	.LASF566
 6342 1e7f 00000020 		.4byte	0x20000000
 6343 1e83 24       		.uleb128 0x24
 6344 1e84 87110000 		.4byte	.LASF567
 6345 1e88 00000040 		.4byte	0x40000000
 6346 1e8c 00       		.byte	0
 6347 1e8d 02       		.uleb128 0x2
 6348 1e8e A72A0000 		.4byte	.LASF568
 6349 1e92 0E       		.byte	0xe
 6350 1e93 7D       		.byte	0x7d
 6351 1e94 E4000000 		.4byte	0xe4
 6352 1e98 11       		.uleb128 0x11
 6353 1e99 01       		.byte	0x1
 6354 1e9a 42000000 		.4byte	0x42
 6355 1e9e 1C       		.byte	0x1c
 6356 1e9f 1F       		.byte	0x1f
 6357 1ea0 B71E0000 		.4byte	0x1eb7
 6358 1ea4 12       		.uleb128 0x12
 6359 1ea5 B60C0000 		.4byte	.LASF569
 6360 1ea9 00       		.byte	0
 6361 1eaa 12       		.uleb128 0x12
 6362 1eab 2B040000 		.4byte	.LASF570
 6363 1eaf 01       		.byte	0x1
 6364 1eb0 12       		.uleb128 0x12
 6365 1eb1 15210000 		.4byte	.LASF571
 6366 1eb5 02       		.byte	0x2
 6367 1eb6 00       		.byte	0
 6368 1eb7 02       		.uleb128 0x2
 6369 1eb8 642C0000 		.4byte	.LASF572
 6370 1ebc 1C       		.byte	0x1c
 6371 1ebd 23       		.byte	0x23
 6372 1ebe 981E0000 		.4byte	0x1e98
 6373 1ec2 11       		.uleb128 0x11
 6374 1ec3 01       		.byte	0x1
 6375 1ec4 42000000 		.4byte	0x42
 6376 1ec8 1D       		.byte	0x1d
 6377 1ec9 20       		.byte	0x20
 6378 1eca E71E0000 		.4byte	0x1ee7
 6379 1ece 12       		.uleb128 0x12
ARM GAS  C:\Users\haske\AppData\Local\Temp\ccN8jSR9.s 			page 143


 6380 1ecf 511C0000 		.4byte	.LASF573
 6381 1ed3 00       		.byte	0
 6382 1ed4 12       		.uleb128 0x12
 6383 1ed5 1E030000 		.4byte	.LASF574
 6384 1ed9 01       		.byte	0x1
 6385 1eda 12       		.uleb128 0x12
 6386 1edb 1B010000 		.4byte	.LASF575
 6387 1edf 02       		.byte	0x2
 6388 1ee0 12       		.uleb128 0x12
 6389 1ee1 650C0000 		.4byte	.LASF576
 6390 1ee5 03       		.byte	0x3
 6391 1ee6 00       		.byte	0
 6392 1ee7 02       		.uleb128 0x2
 6393 1ee8 87010000 		.4byte	.LASF577
 6394 1eec 1D       		.byte	0x1d
 6395 1eed 26       		.byte	0x26
 6396 1eee B8000000 		.4byte	0xb8
 6397 1ef2 02       		.uleb128 0x2
 6398 1ef3 5F1F0000 		.4byte	.LASF578
 6399 1ef7 1D       		.byte	0x1d
 6400 1ef8 30       		.byte	0x30
 6401 1ef9 B8000000 		.4byte	0xb8
 6402 1efd 05       		.uleb128 0x5
 6403 1efe 08       		.byte	0x8
 6404 1eff 03       		.byte	0x3
 6405 1f00 27       		.byte	0x27
 6406 1f01 3F1F0000 		.4byte	0x1f3f
 6407 1f05 07       		.uleb128 0x7
 6408 1f06 481F0000 		.4byte	.LASF579
 6409 1f0a 03       		.byte	0x3
 6410 1f0b 28       		.byte	0x28
 6411 1f0c 3F1F0000 		.4byte	0x1f3f
 6412 1f10 00       		.byte	0
 6413 1f11 09       		.uleb128 0x9
 6414 1f12 A32C0000 		.4byte	.LASF580
 6415 1f16 03       		.byte	0x3
 6416 1f17 29       		.byte	0x29
 6417 1f18 E4000000 		.4byte	0xe4
 6418 1f1c 04       		.byte	0x4
 6419 1f1d 18       		.byte	0x18
 6420 1f1e 08       		.byte	0x8
 6421 1f1f 04       		.byte	0x4
 6422 1f20 09       		.uleb128 0x9
 6423 1f21 0B030000 		.4byte	.LASF581
 6424 1f25 03       		.byte	0x3
 6425 1f26 2A       		.byte	0x2a
 6426 1f27 E4000000 		.4byte	0xe4
 6427 1f2b 04       		.byte	0x4
 6428 1f2c 01       		.byte	0x1
 6429 1f2d 07       		.byte	0x7
 6430 1f2e 04       		.byte	0x4
 6431 1f2f 09       		.uleb128 0x9
 6432 1f30 A3120000 		.4byte	.LASF582
 6433 1f34 03       		.byte	0x3
 6434 1f35 2B       		.byte	0x2b
 6435 1f36 E4000000 		.4byte	0xe4
 6436 1f3a 04       		.byte	0x4
ARM GAS  C:\Users\haske\AppData\Local\Temp\ccN8jSR9.s 			page 144


 6437 1f3b 01       		.byte	0x1
 6438 1f3c 06       		.byte	0x6
 6439 1f3d 04       		.byte	0x4
 6440 1f3e 00       		.byte	0
 6441 1f3f 0B       		.uleb128 0xb
 6442 1f40 04       		.byte	0x4
 6443 1f41 BE080000 		.4byte	0x8be
 6444 1f45 02       		.uleb128 0x2
 6445 1f46 000F0000 		.4byte	.LASF583
 6446 1f4a 03       		.byte	0x3
 6447 1f4b 2C       		.byte	0x2c
 6448 1f4c FD1E0000 		.4byte	0x1efd
 6449 1f50 0A       		.uleb128 0xa
 6450 1f51 12220000 		.4byte	.LASF584
 6451 1f55 1C       		.byte	0x1c
 6452 1f56 1E       		.byte	0x1e
 6453 1f57 31       		.byte	0x31
 6454 1f58 DE1F0000 		.4byte	0x1fde
 6455 1f5c 07       		.uleb128 0x7
 6456 1f5d 9A1D0000 		.4byte	.LASF585
 6457 1f61 1E       		.byte	0x1e
 6458 1f62 32       		.byte	0x32
 6459 1f63 DE1F0000 		.4byte	0x1fde
 6460 1f67 00       		.byte	0
 6461 1f68 07       		.uleb128 0x7
 6462 1f69 5E030000 		.4byte	.LASF586
 6463 1f6d 1E       		.byte	0x1e
 6464 1f6e 33       		.byte	0x33
 6465 1f6f 81200000 		.4byte	0x2081
 6466 1f73 04       		.byte	0x4
 6467 1f74 07       		.uleb128 0x7
 6468 1f75 EE250000 		.4byte	.LASF587
 6469 1f79 1E       		.byte	0x1e
 6470 1f7a 34       		.byte	0x34
 6471 1f7b 81200000 		.4byte	0x2081
 6472 1f7f 08       		.byte	0x8
 6473 1f80 07       		.uleb128 0x7
 6474 1f81 F22B0000 		.4byte	.LASF42
 6475 1f85 1E       		.byte	0x1e
 6476 1f86 36       		.byte	0x36
 6477 1f87 E9020000 		.4byte	0x2e9
 6478 1f8b 0C       		.byte	0xc
 6479 1f8c 07       		.uleb128 0x7
 6480 1f8d EC170000 		.4byte	.LASF588
 6481 1f91 1E       		.byte	0x1e
 6482 1f92 38       		.byte	0x38
 6483 1f93 97200000 		.4byte	0x2097
 6484 1f97 10       		.byte	0x10
 6485 1f98 07       		.uleb128 0x7
 6486 1f99 1E130000 		.4byte	.LASF589
 6487 1f9d 1E       		.byte	0x1e
 6488 1f9e 3A       		.byte	0x3a
 6489 1f9f 01010000 		.4byte	0x101
 6490 1fa3 14       		.byte	0x14
 6491 1fa4 07       		.uleb128 0x7
 6492 1fa5 502D0000 		.4byte	.LASF590
 6493 1fa9 1E       		.byte	0x1e
ARM GAS  C:\Users\haske\AppData\Local\Temp\ccN8jSR9.s 			page 145


 6494 1faa 3B       		.byte	0x3b
 6495 1fab 01010000 		.4byte	0x101
 6496 1faf 16       		.byte	0x16
 6497 1fb0 09       		.uleb128 0x9
 6498 1fb1 40150000 		.4byte	.LASF591
 6499 1fb5 1E       		.byte	0x1e
 6500 1fb6 3C       		.byte	0x3c
 6501 1fb7 E4000000 		.4byte	0xe4
 6502 1fbb 04       		.byte	0x4
 6503 1fbc 02       		.byte	0x2
 6504 1fbd 1E       		.byte	0x1e
 6505 1fbe 18       		.byte	0x18
 6506 1fbf 09       		.uleb128 0x9
 6507 1fc0 5B060000 		.4byte	.LASF592
 6508 1fc4 1E       		.byte	0x1e
 6509 1fc5 3D       		.byte	0x3d
 6510 1fc6 E4000000 		.4byte	0xe4
 6511 1fca 04       		.byte	0x4
 6512 1fcb 02       		.byte	0x2
 6513 1fcc 1C       		.byte	0x1c
 6514 1fcd 18       		.byte	0x18
 6515 1fce 09       		.uleb128 0x9
 6516 1fcf 16160000 		.4byte	.LASF593
 6517 1fd3 1E       		.byte	0x1e
 6518 1fd4 3E       		.byte	0x3e
 6519 1fd5 E4000000 		.4byte	0xe4
 6520 1fd9 04       		.byte	0x4
 6521 1fda 10       		.byte	0x10
 6522 1fdb 0C       		.byte	0xc
 6523 1fdc 18       		.byte	0x18
 6524 1fdd 00       		.byte	0
 6525 1fde 0B       		.uleb128 0xb
 6526 1fdf 04       		.byte	0x4
 6527 1fe0 E41F0000 		.4byte	0x1fe4
 6528 1fe4 0C       		.uleb128 0xc
 6529 1fe5 501F0000 		.4byte	0x1f50
 6530 1fe9 0B       		.uleb128 0xb
 6531 1fea 04       		.byte	0x4
 6532 1feb EF1F0000 		.4byte	0x1fef
 6533 1fef 0A       		.uleb128 0xa
 6534 1ff0 27180000 		.4byte	.LASF594
 6535 1ff4 1C       		.byte	0x1c
 6536 1ff5 1F       		.byte	0x1f
 6537 1ff6 5E       		.byte	0x5e
 6538 1ff7 71200000 		.4byte	0x2071
 6539 1ffb 07       		.uleb128 0x7
 6540 1ffc F4140000 		.4byte	.LASF595
 6541 2000 1F       		.byte	0x1f
 6542 2001 5F       		.byte	0x5f
 6543 2002 580A0000 		.4byte	0xa58
 6544 2006 00       		.byte	0
 6545 2007 07       		.uleb128 0x7
 6546 2008 59160000 		.4byte	.LASF596
 6547 200c 1F       		.byte	0x1f
 6548 200d 60       		.byte	0x60
 6549 200e 580A0000 		.4byte	0xa58
 6550 2012 04       		.byte	0x4
ARM GAS  C:\Users\haske\AppData\Local\Temp\ccN8jSR9.s 			page 146


 6551 2013 07       		.uleb128 0x7
 6552 2014 BF1F0000 		.4byte	.LASF597
 6553 2018 1F       		.byte	0x1f
 6554 2019 61       		.byte	0x61
 6555 201a CF210000 		.4byte	0x21cf
 6556 201e 08       		.byte	0x8
 6557 201f 07       		.uleb128 0x7
 6558 2020 F22B0000 		.4byte	.LASF42
 6559 2024 1F       		.byte	0x1f
 6560 2025 62       		.byte	0x62
 6561 2026 E9020000 		.4byte	0x2e9
 6562 202a 0C       		.byte	0xc
 6563 202b 07       		.uleb128 0x7
 6564 202c EE140000 		.4byte	.LASF598
 6565 2030 1F       		.byte	0x1f
 6566 2031 63       		.byte	0x63
 6567 2032 E9020000 		.4byte	0x2e9
 6568 2036 10       		.byte	0x10
 6569 2037 07       		.uleb128 0x7
 6570 2038 102E0000 		.4byte	.LASF599
 6571 203c 1F       		.byte	0x1f
 6572 203d 64       		.byte	0x64
 6573 203e E91F0000 		.4byte	0x1fe9
 6574 2042 14       		.byte	0x14
 6575 2043 09       		.uleb128 0x9
 6576 2044 4E180000 		.4byte	.LASF600
 6577 2048 1F       		.byte	0x1f
 6578 2049 65       		.byte	0x65
 6579 204a B8000000 		.4byte	0xb8
 6580 204e 01       		.byte	0x1
 6581 204f 01       		.byte	0x1
 6582 2050 07       		.byte	0x7
 6583 2051 18       		.byte	0x18
 6584 2052 09       		.uleb128 0x9
 6585 2053 4F0C0000 		.4byte	.LASF601
 6586 2057 1F       		.byte	0x1f
 6587 2058 66       		.byte	0x66
 6588 2059 B8000000 		.4byte	0xb8
 6589 205d 01       		.byte	0x1
 6590 205e 01       		.byte	0x1
 6591 205f 06       		.byte	0x6
 6592 2060 18       		.byte	0x18
 6593 2061 09       		.uleb128 0x9
 6594 2062 DB1C0000 		.4byte	.LASF602
 6595 2066 1F       		.byte	0x1f
 6596 2067 67       		.byte	0x67
 6597 2068 B8000000 		.4byte	0xb8
 6598 206c 01       		.byte	0x1
 6599 206d 01       		.byte	0x1
 6600 206e 05       		.byte	0x5
 6601 206f 18       		.byte	0x18
 6602 2070 00       		.byte	0
 6603 2071 20       		.uleb128 0x20
 6604 2072 81200000 		.4byte	0x2081
 6605 2076 0E       		.uleb128 0xe
 6606 2077 DE1F0000 		.4byte	0x1fde
 6607 207b 0E       		.uleb128 0xe
ARM GAS  C:\Users\haske\AppData\Local\Temp\ccN8jSR9.s 			page 147


 6608 207c 580A0000 		.4byte	0xa58
 6609 2080 00       		.byte	0
 6610 2081 0B       		.uleb128 0xb
 6611 2082 04       		.byte	0x4
 6612 2083 71200000 		.4byte	0x2071
 6613 2087 20       		.uleb128 0x20
 6614 2088 97200000 		.4byte	0x2097
 6615 208c 0E       		.uleb128 0xe
 6616 208d DE1F0000 		.4byte	0x1fde
 6617 2091 0E       		.uleb128 0xe
 6618 2092 E91F0000 		.4byte	0x1fe9
 6619 2096 00       		.byte	0
 6620 2097 0B       		.uleb128 0xb
 6621 2098 04       		.byte	0x4
 6622 2099 87200000 		.4byte	0x2087
 6623 209d 02       		.uleb128 0x2
 6624 209e 39120000 		.4byte	.LASF603
 6625 20a2 1E       		.byte	0x1e
 6626 20a3 3F       		.byte	0x3f
 6627 20a4 501F0000 		.4byte	0x1f50
 6628 20a8 11       		.uleb128 0x11
 6629 20a9 01       		.byte	0x1
 6630 20aa 42000000 		.4byte	0x42
 6631 20ae 1F       		.byte	0x1f
 6632 20af 20       		.byte	0x20
 6633 20b0 CF210000 		.4byte	0x21cf
 6634 20b4 12       		.uleb128 0x12
 6635 20b5 E8050000 		.4byte	.LASF604
 6636 20b9 00       		.byte	0
 6637 20ba 12       		.uleb128 0x12
 6638 20bb 8C200000 		.4byte	.LASF605
 6639 20bf 01       		.byte	0x1
 6640 20c0 12       		.uleb128 0x12
 6641 20c1 DF080000 		.4byte	.LASF606
 6642 20c5 02       		.byte	0x2
 6643 20c6 12       		.uleb128 0x12
 6644 20c7 FC2B0000 		.4byte	.LASF607
 6645 20cb 03       		.byte	0x3
 6646 20cc 12       		.uleb128 0x12
 6647 20cd 9B040000 		.4byte	.LASF608
 6648 20d1 04       		.byte	0x4
 6649 20d2 12       		.uleb128 0x12
 6650 20d3 911F0000 		.4byte	.LASF609
 6651 20d7 05       		.byte	0x5
 6652 20d8 12       		.uleb128 0x12
 6653 20d9 FC1D0000 		.4byte	.LASF610
 6654 20dd 06       		.byte	0x6
 6655 20de 12       		.uleb128 0x12
 6656 20df 51190000 		.4byte	.LASF611
 6657 20e3 07       		.byte	0x7
 6658 20e4 12       		.uleb128 0x12
 6659 20e5 5A2E0000 		.4byte	.LASF612
 6660 20e9 08       		.byte	0x8
 6661 20ea 12       		.uleb128 0x12
 6662 20eb 8A190000 		.4byte	.LASF613
 6663 20ef 09       		.byte	0x9
 6664 20f0 12       		.uleb128 0x12
ARM GAS  C:\Users\haske\AppData\Local\Temp\ccN8jSR9.s 			page 148


 6665 20f1 14290000 		.4byte	.LASF614
 6666 20f5 0A       		.byte	0xa
 6667 20f6 12       		.uleb128 0x12
 6668 20f7 71180000 		.4byte	.LASF615
 6669 20fb 0B       		.byte	0xb
 6670 20fc 12       		.uleb128 0x12
 6671 20fd A6030000 		.4byte	.LASF616
 6672 2101 0C       		.byte	0xc
 6673 2102 12       		.uleb128 0x12
 6674 2103 942B0000 		.4byte	.LASF617
 6675 2107 0D       		.byte	0xd
 6676 2108 12       		.uleb128 0x12
 6677 2109 BD2C0000 		.4byte	.LASF618
 6678 210d 0E       		.byte	0xe
 6679 210e 12       		.uleb128 0x12
 6680 210f 47290000 		.4byte	.LASF619
 6681 2113 0F       		.byte	0xf
 6682 2114 12       		.uleb128 0x12
 6683 2115 4E140000 		.4byte	.LASF620
 6684 2119 10       		.byte	0x10
 6685 211a 12       		.uleb128 0x12
 6686 211b FB0D0000 		.4byte	.LASF621
 6687 211f 11       		.byte	0x11
 6688 2120 12       		.uleb128 0x12
 6689 2121 4A0D0000 		.4byte	.LASF622
 6690 2125 12       		.byte	0x12
 6691 2126 12       		.uleb128 0x12
 6692 2127 D50C0000 		.4byte	.LASF623
 6693 212b 13       		.byte	0x13
 6694 212c 12       		.uleb128 0x12
 6695 212d A6000000 		.4byte	.LASF624
 6696 2131 14       		.byte	0x14
 6697 2132 12       		.uleb128 0x12
 6698 2133 550A0000 		.4byte	.LASF625
 6699 2137 15       		.byte	0x15
 6700 2138 12       		.uleb128 0x12
 6701 2139 5E120000 		.4byte	.LASF626
 6702 213d 16       		.byte	0x16
 6703 213e 12       		.uleb128 0x12
 6704 213f 891A0000 		.4byte	.LASF627
 6705 2143 17       		.byte	0x17
 6706 2144 12       		.uleb128 0x12
 6707 2145 732A0000 		.4byte	.LASF628
 6708 2149 18       		.byte	0x18
 6709 214a 12       		.uleb128 0x12
 6710 214b 37270000 		.4byte	.LASF629
 6711 214f 19       		.byte	0x19
 6712 2150 12       		.uleb128 0x12
 6713 2151 4E270000 		.4byte	.LASF630
 6714 2155 1A       		.byte	0x1a
 6715 2156 12       		.uleb128 0x12
 6716 2157 38080000 		.4byte	.LASF631
 6717 215b 1B       		.byte	0x1b
 6718 215c 12       		.uleb128 0x12
 6719 215d 871B0000 		.4byte	.LASF632
 6720 2161 1C       		.byte	0x1c
 6721 2162 12       		.uleb128 0x12
ARM GAS  C:\Users\haske\AppData\Local\Temp\ccN8jSR9.s 			page 149


 6722 2163 A5010000 		.4byte	.LASF633
 6723 2167 1D       		.byte	0x1d
 6724 2168 12       		.uleb128 0x12
 6725 2169 AC2C0000 		.4byte	.LASF634
 6726 216d 1E       		.byte	0x1e
 6727 216e 12       		.uleb128 0x12
 6728 216f 5A2A0000 		.4byte	.LASF635
 6729 2173 1F       		.byte	0x1f
 6730 2174 12       		.uleb128 0x12
 6731 2175 B3200000 		.4byte	.LASF636
 6732 2179 20       		.byte	0x20
 6733 217a 12       		.uleb128 0x12
 6734 217b 711A0000 		.4byte	.LASF637
 6735 217f 21       		.byte	0x21
 6736 2180 12       		.uleb128 0x12
 6737 2181 AA020000 		.4byte	.LASF638
 6738 2185 22       		.byte	0x22
 6739 2186 12       		.uleb128 0x12
 6740 2187 14040000 		.4byte	.LASF639
 6741 218b 23       		.byte	0x23
 6742 218c 12       		.uleb128 0x12
 6743 218d 68160000 		.4byte	.LASF640
 6744 2191 24       		.byte	0x24
 6745 2192 12       		.uleb128 0x12
 6746 2193 5B2D0000 		.4byte	.LASF641
 6747 2197 25       		.byte	0x25
 6748 2198 12       		.uleb128 0x12
 6749 2199 C01C0000 		.4byte	.LASF642
 6750 219d 26       		.byte	0x26
 6751 219e 12       		.uleb128 0x12
 6752 219f CC0E0000 		.4byte	.LASF643
 6753 21a3 27       		.byte	0x27
 6754 21a4 12       		.uleb128 0x12
 6755 21a5 F0240000 		.4byte	.LASF644
 6756 21a9 28       		.byte	0x28
 6757 21aa 12       		.uleb128 0x12
 6758 21ab B52A0000 		.4byte	.LASF645
 6759 21af 29       		.byte	0x29
 6760 21b0 12       		.uleb128 0x12
 6761 21b1 90100000 		.4byte	.LASF646
 6762 21b5 2A       		.byte	0x2a
 6763 21b6 12       		.uleb128 0x12
 6764 21b7 302B0000 		.4byte	.LASF647
 6765 21bb 2B       		.byte	0x2b
 6766 21bc 12       		.uleb128 0x12
 6767 21bd 3E0A0000 		.4byte	.LASF648
 6768 21c1 2C       		.byte	0x2c
 6769 21c2 12       		.uleb128 0x12
 6770 21c3 47280000 		.4byte	.LASF649
 6771 21c7 2D       		.byte	0x2d
 6772 21c8 12       		.uleb128 0x12
 6773 21c9 84140000 		.4byte	.LASF650
 6774 21cd 80       		.byte	0x80
 6775 21ce 00       		.byte	0
 6776 21cf 02       		.uleb128 0x2
 6777 21d0 F5170000 		.4byte	.LASF651
 6778 21d4 1F       		.byte	0x1f
ARM GAS  C:\Users\haske\AppData\Local\Temp\ccN8jSR9.s 			page 150


 6779 21d5 5C       		.byte	0x5c
 6780 21d6 A8200000 		.4byte	0x20a8
 6781 21da 02       		.uleb128 0x2
 6782 21db F7210000 		.4byte	.LASF652
 6783 21df 1B       		.byte	0x1b
 6784 21e0 34       		.byte	0x34
 6785 21e1 E5210000 		.4byte	0x21e5
 6786 21e5 0B       		.uleb128 0xb
 6787 21e6 04       		.byte	0x4
 6788 21e7 EB210000 		.4byte	0x21eb
 6789 21eb 20       		.uleb128 0x20
 6790 21ec F6210000 		.4byte	0x21f6
 6791 21f0 0E       		.uleb128 0xe
 6792 21f1 BF1C0000 		.4byte	0x1cbf
 6793 21f5 00       		.byte	0
 6794 21f6 02       		.uleb128 0x2
 6795 21f7 13110000 		.4byte	.LASF653
 6796 21fb 1B       		.byte	0x1b
 6797 21fc 35       		.byte	0x35
 6798 21fd 01220000 		.4byte	0x2201
 6799 2201 0B       		.uleb128 0xb
 6800 2202 04       		.byte	0x4
 6801 2203 07220000 		.4byte	0x2207
 6802 2207 20       		.uleb128 0x20
 6803 2208 17220000 		.4byte	0x2217
 6804 220c 0E       		.uleb128 0xe
 6805 220d BF1C0000 		.4byte	0x1cbf
 6806 2211 0E       		.uleb128 0xe
 6807 2212 AA020000 		.4byte	0x2aa
 6808 2216 00       		.byte	0
 6809 2217 02       		.uleb128 0x2
 6810 2218 C00A0000 		.4byte	.LASF654
 6811 221c 1B       		.byte	0x1b
 6812 221d 4E       		.byte	0x4e
 6813 221e 3A1C0000 		.4byte	0x1c3a
 6814 2222 05       		.uleb128 0x5
 6815 2223 1C       		.byte	0x1c
 6816 2224 0E       		.byte	0xe
 6817 2225 9B       		.byte	0x9b
 6818 2226 D9220000 		.4byte	0x22d9
 6819 222a 07       		.uleb128 0x7
 6820 222b B7180000 		.4byte	.LASF655
 6821 222f 0E       		.byte	0xe
 6822 2230 9C       		.byte	0x9c
 6823 2231 8D180000 		.4byte	0x188d
 6824 2235 00       		.byte	0
 6825 2236 07       		.uleb128 0x7
 6826 2237 1B140000 		.4byte	.LASF656
 6827 223b 0E       		.byte	0xe
 6828 223c 9D       		.byte	0x9d
 6829 223d E4000000 		.4byte	0xe4
 6830 2241 04       		.byte	0x4
 6831 2242 07       		.uleb128 0x7
 6832 2243 A50F0000 		.4byte	.LASF657
 6833 2247 0E       		.byte	0xe
 6834 2248 9E       		.byte	0x9e
 6835 2249 D9220000 		.4byte	0x22d9
ARM GAS  C:\Users\haske\AppData\Local\Temp\ccN8jSR9.s 			page 151


 6836 224d 08       		.byte	0x8
 6837 224e 07       		.uleb128 0x7
 6838 224f 2C0F0000 		.4byte	.LASF658
 6839 2253 0E       		.byte	0xe
 6840 2254 A0       		.byte	0xa0
 6841 2255 E4220000 		.4byte	0x22e4
 6842 2259 0C       		.byte	0xc
 6843 225a 07       		.uleb128 0x7
 6844 225b FF0F0000 		.4byte	.LASF659
 6845 225f 0E       		.byte	0xe
 6846 2260 A1       		.byte	0xa1
 6847 2261 29010000 		.4byte	0x129
 6848 2265 10       		.byte	0x10
 6849 2266 07       		.uleb128 0x7
 6850 2267 E3270000 		.4byte	.LASF660
 6851 226b 0E       		.byte	0xe
 6852 226c A3       		.byte	0xa3
 6853 226d 01010000 		.4byte	0x101
 6854 2271 14       		.byte	0x14
 6855 2272 07       		.uleb128 0x7
 6856 2273 1C1A0000 		.4byte	.LASF661
 6857 2277 0E       		.byte	0xe
 6858 2278 A4       		.byte	0xa4
 6859 2279 01010000 		.4byte	0x101
 6860 227d 16       		.byte	0x16
 6861 227e 09       		.uleb128 0x9
 6862 227f 6A0B0000 		.4byte	.LASF662
 6863 2283 0E       		.byte	0xe
 6864 2284 A6       		.byte	0xa6
 6865 2285 E71E0000 		.4byte	0x1ee7
 6866 2289 01       		.byte	0x1
 6867 228a 02       		.byte	0x2
 6868 228b 06       		.byte	0x6
 6869 228c 18       		.byte	0x18
 6870 228d 09       		.uleb128 0x9
 6871 228e 60020000 		.4byte	.LASF663
 6872 2292 0E       		.byte	0xe
 6873 2293 A7       		.byte	0xa7
 6874 2294 F21E0000 		.4byte	0x1ef2
 6875 2298 01       		.byte	0x1
 6876 2299 02       		.byte	0x2
 6877 229a 04       		.byte	0x4
 6878 229b 18       		.byte	0x18
 6879 229c 09       		.uleb128 0x9
 6880 229d 6E020000 		.4byte	.LASF664
 6881 22a1 0E       		.byte	0xe
 6882 22a2 A8       		.byte	0xa8
 6883 22a3 F21E0000 		.4byte	0x1ef2
 6884 22a7 01       		.byte	0x1
 6885 22a8 02       		.byte	0x2
 6886 22a9 02       		.byte	0x2
 6887 22aa 18       		.byte	0x18
 6888 22ab 09       		.uleb128 0x9
 6889 22ac 50060000 		.4byte	.LASF484
 6890 22b0 0E       		.byte	0xe
 6891 22b1 A9       		.byte	0xa9
 6892 22b2 74010000 		.4byte	0x174
ARM GAS  C:\Users\haske\AppData\Local\Temp\ccN8jSR9.s 			page 152


 6893 22b6 01       		.byte	0x1
 6894 22b7 04       		.byte	0x4
 6895 22b8 04       		.byte	0x4
 6896 22b9 19       		.byte	0x19
 6897 22ba 09       		.uleb128 0x9
 6898 22bb C82E0000 		.4byte	.LASF665
 6899 22bf 0E       		.byte	0xe
 6900 22c0 AA       		.byte	0xaa
 6901 22c1 B8000000 		.4byte	0xb8
 6902 22c5 01       		.byte	0x1
 6903 22c6 06       		.byte	0x6
 6904 22c7 02       		.byte	0x2
 6905 22c8 1A       		.byte	0x1a
 6906 22c9 09       		.uleb128 0x9
 6907 22ca A7100000 		.4byte	.LASF666
 6908 22ce 0E       		.byte	0xe
 6909 22cf AB       		.byte	0xab
 6910 22d0 B8000000 		.4byte	0xb8
 6911 22d4 01       		.byte	0x1
 6912 22d5 02       		.byte	0x2
 6913 22d6 00       		.byte	0
 6914 22d7 1A       		.byte	0x1a
 6915 22d8 00       		.byte	0
 6916 22d9 0B       		.uleb128 0xb
 6917 22da 04       		.byte	0x4
 6918 22db 17220000 		.4byte	0x2217
 6919 22df 25       		.uleb128 0x25
 6920 22e0 1C2C0000 		.4byte	.LASF762
 6921 22e4 0B       		.uleb128 0xb
 6922 22e5 04       		.byte	0x4
 6923 22e6 DF220000 		.4byte	0x22df
 6924 22ea 02       		.uleb128 0x2
 6925 22eb 300E0000 		.4byte	.LASF667
 6926 22ef 0E       		.byte	0xe
 6927 22f0 AC       		.byte	0xac
 6928 22f1 22220000 		.4byte	0x2222
 6929 22f5 0B       		.uleb128 0xb
 6930 22f6 04       		.byte	0x4
 6931 22f7 FB220000 		.4byte	0x22fb
 6932 22fb 0C       		.uleb128 0xc
 6933 22fc 9D200000 		.4byte	0x209d
 6934 2300 0B       		.uleb128 0xb
 6935 2301 04       		.byte	0x4
 6936 2302 EA220000 		.4byte	0x22ea
 6937 2306 0B       		.uleb128 0xb
 6938 2307 04       		.byte	0x4
 6939 2308 451F0000 		.4byte	0x1f45
 6940 230c 02       		.uleb128 0x2
 6941 230d BF2E0000 		.4byte	.LASF668
 6942 2311 0E       		.byte	0xe
 6943 2312 BF       		.byte	0xbf
 6944 2313 5E0A0000 		.4byte	0xa5e
 6945 2317 02       		.uleb128 0x2
 6946 2318 5B100000 		.4byte	.LASF669
 6947 231c 19       		.byte	0x19
 6948 231d 1D       		.byte	0x1d
 6949 231e 22230000 		.4byte	0x2322
ARM GAS  C:\Users\haske\AppData\Local\Temp\ccN8jSR9.s 			page 153


 6950 2322 0B       		.uleb128 0xb
 6951 2323 04       		.byte	0x4
 6952 2324 28230000 		.4byte	0x2328
 6953 2328 20       		.uleb128 0x20
 6954 2329 38230000 		.4byte	0x2338
 6955 232d 0E       		.uleb128 0xe
 6956 232e 87180000 		.4byte	0x1887
 6957 2332 0E       		.uleb128 0xe
 6958 2333 38230000 		.4byte	0x2338
 6959 2337 00       		.byte	0
 6960 2338 0B       		.uleb128 0xb
 6961 2339 04       		.byte	0x4
 6962 233a 0C230000 		.4byte	0x230c
 6963 233e 26       		.uleb128 0x26
 6964 233f C1170000 		.4byte	.LASF671
 6965 2343 02       		.byte	0x2
 6966 2344 B701     		.2byte	0x1b7
 6967 2346 2B040000 		.4byte	0x42b
 6968 234a 03       		.byte	0x3
 6969 234b A0230000 		.4byte	0x23a0
 6970 234f 27       		.uleb128 0x27
 6971 2350 633100   		.ascii	"c1\000"
 6972 2353 02       		.byte	0x2
 6973 2354 B701     		.2byte	0x1b7
 6974 2356 2B040000 		.4byte	0x42b
 6975 235a 27       		.uleb128 0x27
 6976 235b 633200   		.ascii	"c2\000"
 6977 235e 02       		.byte	0x2
 6978 235f B701     		.2byte	0x1b7
 6979 2361 2B040000 		.4byte	0x42b
 6980 2365 27       		.uleb128 0x27
 6981 2366 6D697800 		.ascii	"mix\000"
 6982 236a 02       		.byte	0x2
 6983 236b B701     		.2byte	0x1b7
 6984 236d B8000000 		.4byte	0xb8
 6985 2371 28       		.uleb128 0x28
 6986 2372 72657400 		.ascii	"ret\000"
 6987 2376 02       		.byte	0x2
 6988 2377 B901     		.2byte	0x1b9
 6989 2379 2B040000 		.4byte	0x42b
 6990 237d 28       		.uleb128 0x28
 6991 237e 626700   		.ascii	"bg\000"
 6992 2381 02       		.byte	0x2
 6993 2382 BE01     		.2byte	0x1be
 6994 2384 E4000000 		.4byte	0xe4
 6995 2388 28       		.uleb128 0x28
 6996 2389 666700   		.ascii	"fg\000"
 6997 238c 02       		.byte	0x2
 6998 238d C001     		.2byte	0x1c0
 6999 238f E4000000 		.4byte	0xe4
 7000 2393 29       		.uleb128 0x29
 7001 2394 FC160000 		.4byte	.LASF670
 7002 2398 02       		.byte	0x2
 7003 2399 C101     		.2byte	0x1c1
 7004 239b E4000000 		.4byte	0xe4
 7005 239f 00       		.byte	0
 7006 23a0 26       		.uleb128 0x26
ARM GAS  C:\Users\haske\AppData\Local\Temp\ccN8jSR9.s 			page 154


 7007 23a1 FC030000 		.4byte	.LASF672
 7008 23a5 02       		.byte	0x2
 7009 23a6 7701     		.2byte	0x177
 7010 23a8 E4000000 		.4byte	0xe4
 7011 23ac 03       		.byte	0x3
 7012 23ad CA230000 		.4byte	0x23ca
 7013 23b1 2A       		.uleb128 0x2a
 7014 23b2 7A250000 		.4byte	.LASF99
 7015 23b6 02       		.byte	0x2
 7016 23b7 7701     		.2byte	0x177
 7017 23b9 2B040000 		.4byte	0x42b
 7018 23bd 28       		.uleb128 0x28
 7019 23be 72657400 		.ascii	"ret\000"
 7020 23c2 02       		.byte	0x2
 7021 23c3 A301     		.2byte	0x1a3
 7022 23c5 20040000 		.4byte	0x420
 7023 23c9 00       		.byte	0
 7024 23ca 26       		.uleb128 0x26
 7025 23cb 2E240000 		.4byte	.LASF673
 7026 23cf 02       		.byte	0x2
 7027 23d0 4C02     		.2byte	0x24c
 7028 23d2 2B040000 		.4byte	0x42b
 7029 23d6 03       		.byte	0x3
 7030 23d7 FA230000 		.4byte	0x23fa
 7031 23db 27       		.uleb128 0x27
 7032 23dc 7200     		.ascii	"r\000"
 7033 23de 02       		.byte	0x2
 7034 23df 4C02     		.2byte	0x24c
 7035 23e1 B8000000 		.4byte	0xb8
 7036 23e5 27       		.uleb128 0x27
 7037 23e6 6700     		.ascii	"g\000"
 7038 23e8 02       		.byte	0x2
 7039 23e9 4C02     		.2byte	0x24c
 7040 23eb B8000000 		.4byte	0xb8
 7041 23ef 27       		.uleb128 0x27
 7042 23f0 6200     		.ascii	"b\000"
 7043 23f2 02       		.byte	0x2
 7044 23f3 4C02     		.2byte	0x24c
 7045 23f5 B8000000 		.4byte	0xb8
 7046 23f9 00       		.byte	0
 7047 23fa 26       		.uleb128 0x26
 7048 23fb 670F0000 		.4byte	.LASF674
 7049 23ff 02       		.byte	0x2
 7050 2400 5102     		.2byte	0x251
 7051 2402 2B040000 		.4byte	0x42b
 7052 2406 03       		.byte	0x3
 7053 2407 20240000 		.4byte	0x2420
 7054 240b 27       		.uleb128 0x27
 7055 240c 6300     		.ascii	"c\000"
 7056 240e 02       		.byte	0x2
 7057 240f 5102     		.2byte	0x251
 7058 2411 E4000000 		.4byte	0xe4
 7059 2415 28       		.uleb128 0x28
 7060 2416 7200     		.ascii	"r\000"
 7061 2418 02       		.byte	0x2
 7062 2419 5402     		.2byte	0x254
 7063 241b 2B040000 		.4byte	0x42b
ARM GAS  C:\Users\haske\AppData\Local\Temp\ccN8jSR9.s 			page 155


 7064 241f 00       		.byte	0
 7065 2420 2B       		.uleb128 0x2b
 7066 2421 580F0000 		.4byte	.LASF763
 7067 2425 02       		.byte	0x2
 7068 2426 B102     		.2byte	0x2b1
 7069 2428 2B040000 		.4byte	0x42b
 7070 242c 03       		.byte	0x3
 7071 242d 2C       		.uleb128 0x2c
 7072 242e 350B0000 		.4byte	.LASF675
 7073 2432 03       		.byte	0x3
 7074 2433 5C       		.byte	0x5c
 7075 2434 03       		.byte	0x3
 7076 2435 45240000 		.4byte	0x2445
 7077 2439 2D       		.uleb128 0x2d
 7078 243a 6F626A00 		.ascii	"obj\000"
 7079 243e 03       		.byte	0x3
 7080 243f 5C       		.byte	0x5c
 7081 2440 580A0000 		.4byte	0xa58
 7082 2444 00       		.byte	0
 7083 2445 2E       		.uleb128 0x2e
 7084 2446 B2240000 		.4byte	.LASF676
 7085 244a 02       		.byte	0x2
 7086 244b 0C02     		.2byte	0x20c
 7087 244d 03       		.byte	0x3
 7088 244e F3240000 		.4byte	0x24f3
 7089 2452 2A       		.uleb128 0x2a
 7090 2453 FA010000 		.4byte	.LASF271
 7091 2457 02       		.byte	0x2
 7092 2458 0C02     		.2byte	0x20c
 7093 245a 2B040000 		.4byte	0x42b
 7094 245e 2A       		.uleb128 0x2a
 7095 245f A2060000 		.4byte	.LASF270
 7096 2463 02       		.byte	0x2
 7097 2464 0C02     		.2byte	0x20c
 7098 2466 36040000 		.4byte	0x436
 7099 246a 2A       		.uleb128 0x2a
 7100 246b F32A0000 		.4byte	.LASF677
 7101 246f 02       		.byte	0x2
 7102 2470 0D02     		.2byte	0x20d
 7103 2472 2B040000 		.4byte	0x42b
 7104 2476 2A       		.uleb128 0x2a
 7105 2477 512C0000 		.4byte	.LASF678
 7106 247b 02       		.byte	0x2
 7107 247c 0D02     		.2byte	0x20d
 7108 247e 36040000 		.4byte	0x436
 7109 2482 2A       		.uleb128 0x2a
 7110 2483 0A040000 		.4byte	.LASF679
 7111 2487 02       		.byte	0x2
 7112 2488 0E02     		.2byte	0x20e
 7113 248a 250B0000 		.4byte	0xb25
 7114 248e 2A       		.uleb128 0x2a
 7115 248f E4180000 		.4byte	.LASF680
 7116 2493 02       		.byte	0x2
 7117 2494 0E02     		.2byte	0x20e
 7118 2496 EE0E0000 		.4byte	0xeee
 7119 249a 2F       		.uleb128 0x2f
 7120 249b 29       		.uleb128 0x29
ARM GAS  C:\Users\haske\AppData\Local\Temp\ccN8jSR9.s 			page 156


 7121 249c BF000000 		.4byte	.LASF681
 7122 24a0 02       		.byte	0x2
 7123 24a1 2202     		.2byte	0x222
 7124 24a3 36040000 		.4byte	0x436
 7125 24a7 29       		.uleb128 0x29
 7126 24a8 F8150000 		.4byte	.LASF682
 7127 24ac 02       		.byte	0x2
 7128 24ad 2302     		.2byte	0x223
 7129 24af 36040000 		.4byte	0x436
 7130 24b3 29       		.uleb128 0x29
 7131 24b4 95080000 		.4byte	.LASF683
 7132 24b8 02       		.byte	0x2
 7133 24b9 2402     		.2byte	0x224
 7134 24bb 2B040000 		.4byte	0x42b
 7135 24bf 29       		.uleb128 0x29
 7136 24c0 AC120000 		.4byte	.LASF684
 7137 24c4 02       		.byte	0x2
 7138 24c5 2502     		.2byte	0x225
 7139 24c7 2B040000 		.4byte	0x42b
 7140 24cb 29       		.uleb128 0x29
 7141 24cc C8160000 		.4byte	.LASF685
 7142 24d0 02       		.byte	0x2
 7143 24d1 2602     		.2byte	0x226
 7144 24d3 2B040000 		.4byte	0x42b
 7145 24d7 29       		.uleb128 0x29
 7146 24d8 D5010000 		.4byte	.LASF686
 7147 24dc 02       		.byte	0x2
 7148 24dd 2702     		.2byte	0x227
 7149 24df 36040000 		.4byte	0x436
 7150 24e3 2F       		.uleb128 0x2f
 7151 24e4 29       		.uleb128 0x29
 7152 24e5 4A040000 		.4byte	.LASF687
 7153 24e9 02       		.byte	0x2
 7154 24ea 3302     		.2byte	0x233
 7155 24ec 36040000 		.4byte	0x436
 7156 24f0 00       		.byte	0
 7157 24f1 00       		.byte	0
 7158 24f2 00       		.byte	0
 7159 24f3 30       		.uleb128 0x30
 7160 24f4 C7080000 		.4byte	.LASF693
 7161 24f8 01       		.byte	0x1
 7162 24f9 AA02     		.2byte	0x2aa
 7163 24fb 00000000 		.4byte	.LFB187
 7164 24ff 14010000 		.4byte	.LFE187-.LFB187
 7165 2503 01       		.uleb128 0x1
 7166 2504 9C       		.byte	0x9c
 7167 2505 F0260000 		.4byte	0x26f0
 7168 2509 31       		.uleb128 0x31
 7169 250a 5C070000 		.4byte	.LASF688
 7170 250e 01       		.byte	0x1
 7171 250f AA02     		.2byte	0x2aa
 7172 2511 F0260000 		.4byte	0x26f0
 7173 2515 00000000 		.4byte	.LLST0
 7174 2519 32       		.uleb128 0x32
 7175 251a 62756600 		.ascii	"buf\000"
 7176 251e 01       		.byte	0x1
 7177 251f AA02     		.2byte	0x2aa
ARM GAS  C:\Users\haske\AppData\Local\Temp\ccN8jSR9.s 			page 157


 7178 2521 6F080000 		.4byte	0x86f
 7179 2525 21000000 		.4byte	.LLST1
 7180 2529 31       		.uleb128 0x31
 7181 252a AB090000 		.4byte	.LASF689
 7182 252e 01       		.byte	0x1
 7183 252f AA02     		.2byte	0x2aa
 7184 2531 01010000 		.4byte	0x101
 7185 2535 5B000000 		.4byte	.LLST2
 7186 2539 32       		.uleb128 0x32
 7187 253a 7800     		.ascii	"x\000"
 7188 253c 01       		.byte	0x1
 7189 253d AB02     		.2byte	0x2ab
 7190 253f 01010000 		.4byte	0x101
 7191 2543 7C000000 		.4byte	.LLST3
 7192 2547 32       		.uleb128 0x32
 7193 2548 7900     		.ascii	"y\000"
 7194 254a 01       		.byte	0x1
 7195 254b AB02     		.2byte	0x2ab
 7196 254d 01010000 		.4byte	0x101
 7197 2551 9D000000 		.4byte	.LLST4
 7198 2555 31       		.uleb128 0x31
 7199 2556 7A250000 		.4byte	.LASF99
 7200 255a 01       		.byte	0x1
 7201 255b AC02     		.2byte	0x2ac
 7202 255d 2B040000 		.4byte	0x42b
 7203 2561 C9000000 		.4byte	.LLST5
 7204 2565 32       		.uleb128 0x32
 7205 2566 6F706100 		.ascii	"opa\000"
 7206 256a 01       		.byte	0x1
 7207 256b AC02     		.2byte	0x2ac
 7208 256d 36040000 		.4byte	0x436
 7209 2571 09010000 		.4byte	.LLST6
 7210 2575 33       		.uleb128 0x33
 7211 2576 0B220000 		.4byte	.LASF690
 7212 257a 01       		.byte	0x1
 7213 257b B002     		.2byte	0x2b0
 7214 257d 6F080000 		.4byte	0x86f
 7215 2581 4D010000 		.4byte	.LLST7
 7216 2585 29       		.uleb128 0x29
 7217 2586 FA010000 		.4byte	.LASF271
 7218 258a 01       		.byte	0x1
 7219 258b B202     		.2byte	0x2b2
 7220 258d 2B040000 		.4byte	0x42b
 7221 2591 33       		.uleb128 0x33
 7222 2592 0A040000 		.4byte	.LASF679
 7223 2596 01       		.byte	0x1
 7224 2597 B302     		.2byte	0x2b3
 7225 2599 2B040000 		.4byte	0x42b
 7226 259d 60010000 		.4byte	.LLST8
 7227 25a1 33       		.uleb128 0x33
 7228 25a2 A2060000 		.4byte	.LASF270
 7229 25a6 01       		.byte	0x1
 7230 25a7 B402     		.2byte	0x2b4
 7231 25a9 36040000 		.4byte	0x436
 7232 25ad 73010000 		.4byte	.LLST9
 7233 25b1 34       		.uleb128 0x34
 7234 25b2 45240000 		.4byte	0x2445
ARM GAS  C:\Users\haske\AppData\Local\Temp\ccN8jSR9.s 			page 158


 7235 25b6 24000000 		.4byte	.LBB31
 7236 25ba D8000000 		.4byte	.LBE31-.LBB31
 7237 25be 01       		.byte	0x1
 7238 25bf BC02     		.2byte	0x2bc
 7239 25c1 35       		.uleb128 0x35
 7240 25c2 8E240000 		.4byte	0x248e
 7241 25c6 86010000 		.4byte	.LLST10
 7242 25ca 35       		.uleb128 0x35
 7243 25cb 82240000 		.4byte	0x2482
 7244 25cf 9B010000 		.4byte	.LLST11
 7245 25d3 35       		.uleb128 0x35
 7246 25d4 76240000 		.4byte	0x2476
 7247 25d8 B3010000 		.4byte	.LLST12
 7248 25dc 36       		.uleb128 0x36
 7249 25dd 6A240000 		.4byte	0x246a
 7250 25e1 35       		.uleb128 0x35
 7251 25e2 5E240000 		.4byte	0x245e
 7252 25e6 05020000 		.4byte	.LLST13
 7253 25ea 36       		.uleb128 0x36
 7254 25eb 52240000 		.4byte	0x2452
 7255 25ef 37       		.uleb128 0x37
 7256 25f0 3E230000 		.4byte	0x233e
 7257 25f4 3E000000 		.4byte	.LBB33
 7258 25f8 2A000000 		.4byte	.LBE33-.LBB33
 7259 25fc 02       		.byte	0x2
 7260 25fd 1C02     		.2byte	0x21c
 7261 25ff 41260000 		.4byte	0x2641
 7262 2603 35       		.uleb128 0x35
 7263 2604 65230000 		.4byte	0x2365
 7264 2608 18020000 		.4byte	.LLST14
 7265 260c 36       		.uleb128 0x36
 7266 260d 5A230000 		.4byte	0x235a
 7267 2611 36       		.uleb128 0x36
 7268 2612 4F230000 		.4byte	0x234f
 7269 2616 38       		.uleb128 0x38
 7270 2617 3E000000 		.4byte	.LBB34
 7271 261b 2A000000 		.4byte	.LBE34-.LBB34
 7272 261f 39       		.uleb128 0x39
 7273 2620 71230000 		.4byte	0x2371
 7274 2624 3A       		.uleb128 0x3a
 7275 2625 7D230000 		.4byte	0x237d
 7276 2629 43020000 		.4byte	.LLST15
 7277 262d 3A       		.uleb128 0x3a
 7278 262e 88230000 		.4byte	0x2388
 7279 2632 56020000 		.4byte	.LLST16
 7280 2636 3A       		.uleb128 0x3a
 7281 2637 93230000 		.4byte	0x2393
 7282 263b 7E020000 		.4byte	.LLST17
 7283 263f 00       		.byte	0
 7284 2640 00       		.byte	0
 7285 2641 38       		.uleb128 0x38
 7286 2642 6E000000 		.4byte	.LBB35
 7287 2646 8E000000 		.4byte	.LBE35-.LBB35
 7288 264a 3B       		.uleb128 0x3b
 7289 264b 9B240000 		.4byte	0x249b
 7290 264f 05       		.uleb128 0x5
 7291 2650 03       		.byte	0x3
ARM GAS  C:\Users\haske\AppData\Local\Temp\ccN8jSR9.s 			page 159


 7292 2651 00000000 		.4byte	fg_opa_save.5032
 7293 2655 3B       		.uleb128 0x3b
 7294 2656 A7240000 		.4byte	0x24a7
 7295 265a 05       		.uleb128 0x5
 7296 265b 03       		.byte	0x3
 7297 265c 01000000 		.4byte	bg_opa_save.5033
 7298 2660 3B       		.uleb128 0x3b
 7299 2661 B3240000 		.4byte	0x24b3
 7300 2665 05       		.uleb128 0x5
 7301 2666 03       		.byte	0x3
 7302 2667 04000000 		.4byte	fg_color_save.5034
 7303 266b 3B       		.uleb128 0x3b
 7304 266c BF240000 		.4byte	0x24bf
 7305 2670 05       		.uleb128 0x5
 7306 2671 03       		.byte	0x3
 7307 2672 08000000 		.4byte	bg_color_save.5035
 7308 2676 3B       		.uleb128 0x3b
 7309 2677 CB240000 		.4byte	0x24cb
 7310 267b 05       		.uleb128 0x5
 7311 267c 03       		.byte	0x3
 7312 267d 0C000000 		.4byte	res_color_saved.5036
 7313 2681 3B       		.uleb128 0x3b
 7314 2682 D7240000 		.4byte	0x24d7
 7315 2686 05       		.uleb128 0x5
 7316 2687 03       		.byte	0x3
 7317 2688 0A000000 		.4byte	res_opa_saved.5037
 7318 268c 38       		.uleb128 0x38
 7319 268d 92000000 		.4byte	.LBB36
 7320 2691 62000000 		.4byte	.LBE36-.LBB36
 7321 2695 3A       		.uleb128 0x3a
 7322 2696 E4240000 		.4byte	0x24e4
 7323 269a 91020000 		.4byte	.LLST18
 7324 269e 34       		.uleb128 0x34
 7325 269f 3E230000 		.4byte	0x233e
 7326 26a3 C8000000 		.4byte	.LBB37
 7327 26a7 28000000 		.4byte	.LBE37-.LBB37
 7328 26ab 02       		.byte	0x2
 7329 26ac 3402     		.2byte	0x234
 7330 26ae 35       		.uleb128 0x35
 7331 26af 65230000 		.4byte	0x2365
 7332 26b3 A4020000 		.4byte	.LLST19
 7333 26b7 36       		.uleb128 0x36
 7334 26b8 5A230000 		.4byte	0x235a
 7335 26bc 36       		.uleb128 0x36
 7336 26bd 4F230000 		.4byte	0x234f
 7337 26c1 38       		.uleb128 0x38
 7338 26c2 C8000000 		.4byte	.LBB38
 7339 26c6 28000000 		.4byte	.LBE38-.LBB38
 7340 26ca 39       		.uleb128 0x39
 7341 26cb 71230000 		.4byte	0x2371
 7342 26cf 3A       		.uleb128 0x3a
 7343 26d0 7D230000 		.4byte	0x237d
 7344 26d4 C2020000 		.4byte	.LLST20
 7345 26d8 3A       		.uleb128 0x3a
 7346 26d9 88230000 		.4byte	0x2388
 7347 26dd 02030000 		.4byte	.LLST21
 7348 26e1 3A       		.uleb128 0x3a
ARM GAS  C:\Users\haske\AppData\Local\Temp\ccN8jSR9.s 			page 160


 7349 26e2 93230000 		.4byte	0x2393
 7350 26e6 42030000 		.4byte	.LLST22
 7351 26ea 00       		.byte	0
 7352 26eb 00       		.byte	0
 7353 26ec 00       		.byte	0
 7354 26ed 00       		.byte	0
 7355 26ee 00       		.byte	0
 7356 26ef 00       		.byte	0
 7357 26f0 0B       		.uleb128 0xb
 7358 26f1 04       		.byte	0x4
 7359 26f2 DA160000 		.4byte	0x16da
 7360 26f6 3C       		.uleb128 0x3c
 7361 26f7 191E0000 		.4byte	.LASF764
 7362 26fb 01       		.byte	0x1
 7363 26fc 5D02     		.2byte	0x25d
 7364 26fe B71E0000 		.4byte	0x1eb7
 7365 2702 00000000 		.4byte	.LFB181
 7366 2706 0A000000 		.4byte	.LFE181-.LFB181
 7367 270a 01       		.uleb128 0x1
 7368 270b 9C       		.byte	0x9c
 7369 270c 42270000 		.4byte	0x2742
 7370 2710 32       		.uleb128 0x32
 7371 2711 6F626A00 		.ascii	"obj\000"
 7372 2715 01       		.byte	0x1
 7373 2716 5D02     		.2byte	0x25d
 7374 2718 38230000 		.4byte	0x2338
 7375 271c 55030000 		.4byte	.LLST23
 7376 2720 31       		.uleb128 0x31
 7377 2721 F22B0000 		.4byte	.LASF42
 7378 2725 01       		.byte	0x1
 7379 2726 5D02     		.2byte	0x25d
 7380 2728 E9020000 		.4byte	0x2e9
 7381 272c 76030000 		.4byte	.LLST24
 7382 2730 3D       		.uleb128 0x3d
 7383 2731 06000000 		.4byte	.LVL49
 7384 2735 87340000 		.4byte	0x3487
 7385 2739 3E       		.uleb128 0x3e
 7386 273a 01       		.uleb128 0x1
 7387 273b 50       		.byte	0x50
 7388 273c 03       		.uleb128 0x3
 7389 273d F3       		.byte	0xf3
 7390 273e 01       		.uleb128 0x1
 7391 273f 50       		.byte	0x50
 7392 2740 00       		.byte	0
 7393 2741 00       		.byte	0
 7394 2742 26       		.uleb128 0x26
 7395 2743 95170000 		.4byte	.LASF691
 7396 2747 02       		.byte	0x2
 7397 2748 4402     		.2byte	0x244
 7398 274a B8000000 		.4byte	0xb8
 7399 274e 03       		.byte	0x3
 7400 274f 78270000 		.4byte	0x2778
 7401 2753 2A       		.uleb128 0x2a
 7402 2754 7A250000 		.4byte	.LASF99
 7403 2758 02       		.byte	0x2
 7404 2759 4402     		.2byte	0x244
 7405 275b 2B040000 		.4byte	0x42b
ARM GAS  C:\Users\haske\AppData\Local\Temp\ccN8jSR9.s 			page 161


 7406 275f 28       		.uleb128 0x28
 7407 2760 63333200 		.ascii	"c32\000"
 7408 2764 02       		.byte	0x2
 7409 2765 4602     		.2byte	0x246
 7410 2767 20040000 		.4byte	0x420
 7411 276b 29       		.uleb128 0x29
 7412 276c 131F0000 		.4byte	.LASF692
 7413 2770 02       		.byte	0x2
 7414 2771 4802     		.2byte	0x248
 7415 2773 CE000000 		.4byte	0xce
 7416 2777 00       		.byte	0
 7417 2778 3F       		.uleb128 0x3f
 7418 2779 56180000 		.4byte	.LASF694
 7419 277d 01       		.byte	0x1
 7420 277e 9C02     		.2byte	0x29c
 7421 2780 00000000 		.4byte	.LFB186
 7422 2784 AC000000 		.4byte	.LFE186-.LFB186
 7423 2788 01       		.uleb128 0x1
 7424 2789 9C       		.byte	0x9c
 7425 278a A2280000 		.4byte	0x28a2
 7426 278e 32       		.uleb128 0x32
 7427 278f 6400     		.ascii	"d\000"
 7428 2791 01       		.byte	0x1
 7429 2792 9C02     		.2byte	0x29c
 7430 2794 A2280000 		.4byte	0x28a2
 7431 2798 97030000 		.4byte	.LLST25
 7432 279c 32       		.uleb128 0x32
 7433 279d 7800     		.ascii	"x\000"
 7434 279f 01       		.byte	0x1
 7435 27a0 9C02     		.2byte	0x29c
 7436 27a2 01010000 		.4byte	0x101
 7437 27a6 C3030000 		.4byte	.LLST26
 7438 27aa 32       		.uleb128 0x32
 7439 27ab 7900     		.ascii	"y\000"
 7440 27ad 01       		.byte	0x1
 7441 27ae 9C02     		.2byte	0x29c
 7442 27b0 01010000 		.4byte	0x101
 7443 27b4 E4030000 		.4byte	.LLST27
 7444 27b8 31       		.uleb128 0x31
 7445 27b9 7A250000 		.4byte	.LASF99
 7446 27bd 01       		.byte	0x1
 7447 27be 9C02     		.2byte	0x29c
 7448 27c0 2B040000 		.4byte	0x42b
 7449 27c4 05040000 		.4byte	.LLST28
 7450 27c8 32       		.uleb128 0x32
 7451 27c9 6F706100 		.ascii	"opa\000"
 7452 27cd 01       		.byte	0x1
 7453 27ce 9C02     		.2byte	0x29c
 7454 27d0 36040000 		.4byte	0x436
 7455 27d4 18040000 		.4byte	.LLST29
 7456 27d8 40       		.uleb128 0x40
 7457 27d9 627200   		.ascii	"br\000"
 7458 27dc 01       		.byte	0x1
 7459 27dd A102     		.2byte	0x2a1
 7460 27df B8000000 		.4byte	0xb8
 7461 27e3 44040000 		.4byte	.LLST30
 7462 27e7 37       		.uleb128 0x37
ARM GAS  C:\Users\haske\AppData\Local\Temp\ccN8jSR9.s 			page 162


 7463 27e8 42270000 		.4byte	0x2742
 7464 27ec 20000000 		.4byte	.LBB44
 7465 27f0 60000000 		.4byte	.LBE44-.LBB44
 7466 27f4 01       		.byte	0x1
 7467 27f5 A102     		.2byte	0x2a1
 7468 27f7 42280000 		.4byte	0x2842
 7469 27fb 36       		.uleb128 0x36
 7470 27fc 53270000 		.4byte	0x2753
 7471 2800 38       		.uleb128 0x38
 7472 2801 20000000 		.4byte	.LBB45
 7473 2805 60000000 		.4byte	.LBE45-.LBB45
 7474 2809 39       		.uleb128 0x39
 7475 280a 5F270000 		.4byte	0x275f
 7476 280e 3A       		.uleb128 0x3a
 7477 280f 6B270000 		.4byte	0x276b
 7478 2813 57040000 		.4byte	.LLST31
 7479 2817 34       		.uleb128 0x34
 7480 2818 A0230000 		.4byte	0x23a0
 7481 281c 20000000 		.4byte	.LBB46
 7482 2820 44000000 		.4byte	.LBE46-.LBB46
 7483 2824 02       		.byte	0x2
 7484 2825 4702     		.2byte	0x247
 7485 2827 36       		.uleb128 0x36
 7486 2828 B1230000 		.4byte	0x23b1
 7487 282c 38       		.uleb128 0x38
 7488 282d 20000000 		.4byte	.LBB47
 7489 2831 44000000 		.4byte	.LBE47-.LBB47
 7490 2835 3A       		.uleb128 0x3a
 7491 2836 BD230000 		.4byte	0x23bd
 7492 283a 6A040000 		.4byte	.LLST32
 7493 283e 00       		.byte	0
 7494 283f 00       		.byte	0
 7495 2840 00       		.byte	0
 7496 2841 00       		.byte	0
 7497 2842 41       		.uleb128 0x41
 7498 2843 84000000 		.4byte	.LBB48
 7499 2847 18000000 		.4byte	.LBE48-.LBB48
 7500 284b 7D280000 		.4byte	0x287d
 7501 284f 40       		.uleb128 0x40
 7502 2850 626700   		.ascii	"bg\000"
 7503 2853 01       		.byte	0x1
 7504 2854 A302     		.2byte	0x2a3
 7505 2856 B8000000 		.4byte	0xb8
 7506 285a 7D040000 		.4byte	.LLST33
 7507 285e 3D       		.uleb128 0x3d
 7508 285f 8E000000 		.4byte	.LVL62
 7509 2863 92340000 		.4byte	0x3492
 7510 2867 3E       		.uleb128 0x3e
 7511 2868 01       		.uleb128 0x1
 7512 2869 50       		.byte	0x50
 7513 286a 02       		.uleb128 0x2
 7514 286b 77       		.byte	0x77
 7515 286c 00       		.sleb128 0
 7516 286d 3E       		.uleb128 0x3e
 7517 286e 01       		.uleb128 0x1
 7518 286f 51       		.byte	0x51
 7519 2870 04       		.uleb128 0x4
ARM GAS  C:\Users\haske\AppData\Local\Temp\ccN8jSR9.s 			page 163


 7520 2871 91       		.byte	0x91
 7521 2872 64       		.sleb128 -28
 7522 2873 94       		.byte	0x94
 7523 2874 02       		.byte	0x2
 7524 2875 3E       		.uleb128 0x3e
 7525 2876 01       		.uleb128 0x1
 7526 2877 52       		.byte	0x52
 7527 2878 02       		.uleb128 0x2
 7528 2879 76       		.byte	0x76
 7529 287a 00       		.sleb128 0
 7530 287b 00       		.byte	0
 7531 287c 00       		.byte	0
 7532 287d 3D       		.uleb128 0x3d
 7533 287e A8000000 		.4byte	.LVL65
 7534 2882 9D340000 		.4byte	0x349d
 7535 2886 3E       		.uleb128 0x3e
 7536 2887 01       		.uleb128 0x1
 7537 2888 50       		.byte	0x50
 7538 2889 02       		.uleb128 0x2
 7539 288a 77       		.byte	0x77
 7540 288b 00       		.sleb128 0
 7541 288c 3E       		.uleb128 0x3e
 7542 288d 01       		.uleb128 0x1
 7543 288e 51       		.byte	0x51
 7544 288f 04       		.uleb128 0x4
 7545 2890 91       		.byte	0x91
 7546 2891 64       		.sleb128 -28
 7547 2892 94       		.byte	0x94
 7548 2893 02       		.byte	0x2
 7549 2894 3E       		.uleb128 0x3e
 7550 2895 01       		.uleb128 0x1
 7551 2896 52       		.byte	0x52
 7552 2897 02       		.uleb128 0x2
 7553 2898 76       		.byte	0x76
 7554 2899 00       		.sleb128 0
 7555 289a 3E       		.uleb128 0x3e
 7556 289b 01       		.uleb128 0x1
 7557 289c 53       		.byte	0x53
 7558 289d 02       		.uleb128 0x2
 7559 289e 74       		.byte	0x74
 7560 289f 00       		.sleb128 0
 7561 28a0 00       		.byte	0
 7562 28a1 00       		.byte	0
 7563 28a2 0B       		.uleb128 0xb
 7564 28a3 04       		.byte	0x4
 7565 28a4 4D0A0000 		.4byte	0xa4d
 7566 28a8 3F       		.uleb128 0x3f
 7567 28a9 28120000 		.4byte	.LASF695
 7568 28ad 01       		.byte	0x1
 7569 28ae 8E02     		.2byte	0x28e
 7570 28b0 00000000 		.4byte	.LFB185
 7571 28b4 48000000 		.4byte	.LFE185-.LFB185
 7572 28b8 01       		.uleb128 0x1
 7573 28b9 9C       		.byte	0x9c
 7574 28ba 65290000 		.4byte	0x2965
 7575 28be 31       		.uleb128 0x31
 7576 28bf 5C070000 		.4byte	.LASF688
ARM GAS  C:\Users\haske\AppData\Local\Temp\ccN8jSR9.s 			page 164


 7577 28c3 01       		.byte	0x1
 7578 28c4 8E02     		.2byte	0x28e
 7579 28c6 F0260000 		.4byte	0x26f0
 7580 28ca 90040000 		.4byte	.LLST34
 7581 28ce 32       		.uleb128 0x32
 7582 28cf 62756600 		.ascii	"buf\000"
 7583 28d3 01       		.byte	0x1
 7584 28d4 8E02     		.2byte	0x28e
 7585 28d6 6F080000 		.4byte	0x86f
 7586 28da B1040000 		.4byte	.LLST35
 7587 28de 31       		.uleb128 0x31
 7588 28df AB090000 		.4byte	.LASF689
 7589 28e3 01       		.byte	0x1
 7590 28e4 8E02     		.2byte	0x28e
 7591 28e6 01010000 		.4byte	0x101
 7592 28ea DE040000 		.4byte	.LLST36
 7593 28ee 32       		.uleb128 0x32
 7594 28ef 7800     		.ascii	"x\000"
 7595 28f1 01       		.byte	0x1
 7596 28f2 8E02     		.2byte	0x28e
 7597 28f4 01010000 		.4byte	0x101
 7598 28f8 FF040000 		.4byte	.LLST37
 7599 28fc 32       		.uleb128 0x32
 7600 28fd 7900     		.ascii	"y\000"
 7601 28ff 01       		.byte	0x1
 7602 2900 8E02     		.2byte	0x28e
 7603 2902 01010000 		.4byte	0x101
 7604 2906 20050000 		.4byte	.LLST38
 7605 290a 31       		.uleb128 0x31
 7606 290b 7A250000 		.4byte	.LASF99
 7607 290f 01       		.byte	0x1
 7608 2910 8F02     		.2byte	0x28f
 7609 2912 2B040000 		.4byte	0x42b
 7610 2916 4C050000 		.4byte	.LLST39
 7611 291a 32       		.uleb128 0x32
 7612 291b 6F706100 		.ascii	"opa\000"
 7613 291f 01       		.byte	0x1
 7614 2920 8F02     		.2byte	0x28f
 7615 2922 36040000 		.4byte	0x436
 7616 2926 60050000 		.4byte	.LLST40
 7617 292a 42       		.uleb128 0x42
 7618 292b 6400     		.ascii	"d\000"
 7619 292d 01       		.byte	0x1
 7620 292e 9402     		.2byte	0x294
 7621 2930 4D0A0000 		.4byte	0xa4d
 7622 2934 02       		.uleb128 0x2
 7623 2935 91       		.byte	0x91
 7624 2936 5C       		.sleb128 -36
 7625 2937 3D       		.uleb128 0x3d
 7626 2938 40000000 		.4byte	.LVL76
 7627 293c 78270000 		.4byte	0x2778
 7628 2940 3E       		.uleb128 0x3e
 7629 2941 01       		.uleb128 0x1
 7630 2942 50       		.byte	0x50
 7631 2943 02       		.uleb128 0x2
 7632 2944 91       		.byte	0x91
 7633 2945 5C       		.sleb128 -36
ARM GAS  C:\Users\haske\AppData\Local\Temp\ccN8jSR9.s 			page 165


 7634 2946 3E       		.uleb128 0x3e
 7635 2947 01       		.uleb128 0x1
 7636 2948 51       		.byte	0x51
 7637 2949 04       		.uleb128 0x4
 7638 294a 91       		.byte	0x91
 7639 294b 54       		.sleb128 -44
 7640 294c 94       		.byte	0x94
 7641 294d 02       		.byte	0x2
 7642 294e 3E       		.uleb128 0x3e
 7643 294f 01       		.uleb128 0x1
 7644 2950 52       		.byte	0x52
 7645 2951 02       		.uleb128 0x2
 7646 2952 76       		.byte	0x76
 7647 2953 00       		.sleb128 0
 7648 2954 3E       		.uleb128 0x3e
 7649 2955 01       		.uleb128 0x1
 7650 2956 53       		.byte	0x53
 7651 2957 04       		.uleb128 0x4
 7652 2958 91       		.byte	0x91
 7653 2959 04       		.sleb128 4
 7654 295a 94       		.byte	0x94
 7655 295b 02       		.byte	0x2
 7656 295c 3E       		.uleb128 0x3e
 7657 295d 02       		.uleb128 0x2
 7658 295e 7D       		.byte	0x7d
 7659 295f 00       		.sleb128 0
 7660 2960 02       		.uleb128 0x2
 7661 2961 77       		.byte	0x77
 7662 2962 00       		.sleb128 0
 7663 2963 00       		.byte	0
 7664 2964 00       		.byte	0
 7665 2965 3F       		.uleb128 0x3f
 7666 2966 0F020000 		.4byte	.LASF696
 7667 296a 01       		.byte	0x1
 7668 296b 8002     		.2byte	0x280
 7669 296d 00000000 		.4byte	.LFB184
 7670 2971 48000000 		.4byte	.LFE184-.LFB184
 7671 2975 01       		.uleb128 0x1
 7672 2976 9C       		.byte	0x9c
 7673 2977 222A0000 		.4byte	0x2a22
 7674 297b 31       		.uleb128 0x31
 7675 297c 5C070000 		.4byte	.LASF688
 7676 2980 01       		.byte	0x1
 7677 2981 8002     		.2byte	0x280
 7678 2983 F0260000 		.4byte	0x26f0
 7679 2987 A4050000 		.4byte	.LLST41
 7680 298b 32       		.uleb128 0x32
 7681 298c 62756600 		.ascii	"buf\000"
 7682 2990 01       		.byte	0x1
 7683 2991 8002     		.2byte	0x280
 7684 2993 6F080000 		.4byte	0x86f
 7685 2997 C5050000 		.4byte	.LLST42
 7686 299b 31       		.uleb128 0x31
 7687 299c AB090000 		.4byte	.LASF689
 7688 29a0 01       		.byte	0x1
 7689 29a1 8002     		.2byte	0x280
 7690 29a3 01010000 		.4byte	0x101
ARM GAS  C:\Users\haske\AppData\Local\Temp\ccN8jSR9.s 			page 166


 7691 29a7 F2050000 		.4byte	.LLST43
 7692 29ab 32       		.uleb128 0x32
 7693 29ac 7800     		.ascii	"x\000"
 7694 29ae 01       		.byte	0x1
 7695 29af 8002     		.2byte	0x280
 7696 29b1 01010000 		.4byte	0x101
 7697 29b5 13060000 		.4byte	.LLST44
 7698 29b9 32       		.uleb128 0x32
 7699 29ba 7900     		.ascii	"y\000"
 7700 29bc 01       		.byte	0x1
 7701 29bd 8002     		.2byte	0x280
 7702 29bf 01010000 		.4byte	0x101
 7703 29c3 34060000 		.4byte	.LLST45
 7704 29c7 31       		.uleb128 0x31
 7705 29c8 7A250000 		.4byte	.LASF99
 7706 29cc 01       		.byte	0x1
 7707 29cd 8102     		.2byte	0x281
 7708 29cf 2B040000 		.4byte	0x42b
 7709 29d3 60060000 		.4byte	.LLST46
 7710 29d7 32       		.uleb128 0x32
 7711 29d8 6F706100 		.ascii	"opa\000"
 7712 29dc 01       		.byte	0x1
 7713 29dd 8102     		.2byte	0x281
 7714 29df 36040000 		.4byte	0x436
 7715 29e3 74060000 		.4byte	.LLST47
 7716 29e7 42       		.uleb128 0x42
 7717 29e8 6400     		.ascii	"d\000"
 7718 29ea 01       		.byte	0x1
 7719 29eb 8602     		.2byte	0x286
 7720 29ed 4D0A0000 		.4byte	0xa4d
 7721 29f1 02       		.uleb128 0x2
 7722 29f2 91       		.byte	0x91
 7723 29f3 5C       		.sleb128 -36
 7724 29f4 3D       		.uleb128 0x3d
 7725 29f5 40000000 		.4byte	.LVL85
 7726 29f9 78270000 		.4byte	0x2778
 7727 29fd 3E       		.uleb128 0x3e
 7728 29fe 01       		.uleb128 0x1
 7729 29ff 50       		.byte	0x50
 7730 2a00 02       		.uleb128 0x2
 7731 2a01 91       		.byte	0x91
 7732 2a02 5C       		.sleb128 -36
 7733 2a03 3E       		.uleb128 0x3e
 7734 2a04 01       		.uleb128 0x1
 7735 2a05 51       		.byte	0x51
 7736 2a06 04       		.uleb128 0x4
 7737 2a07 91       		.byte	0x91
 7738 2a08 54       		.sleb128 -44
 7739 2a09 94       		.byte	0x94
 7740 2a0a 02       		.byte	0x2
 7741 2a0b 3E       		.uleb128 0x3e
 7742 2a0c 01       		.uleb128 0x1
 7743 2a0d 52       		.byte	0x52
 7744 2a0e 02       		.uleb128 0x2
 7745 2a0f 76       		.byte	0x76
 7746 2a10 00       		.sleb128 0
 7747 2a11 3E       		.uleb128 0x3e
ARM GAS  C:\Users\haske\AppData\Local\Temp\ccN8jSR9.s 			page 167


 7748 2a12 01       		.uleb128 0x1
 7749 2a13 53       		.byte	0x53
 7750 2a14 04       		.uleb128 0x4
 7751 2a15 91       		.byte	0x91
 7752 2a16 04       		.sleb128 4
 7753 2a17 94       		.byte	0x94
 7754 2a18 02       		.byte	0x2
 7755 2a19 3E       		.uleb128 0x3e
 7756 2a1a 02       		.uleb128 0x2
 7757 2a1b 7D       		.byte	0x7d
 7758 2a1c 00       		.sleb128 0
 7759 2a1d 02       		.uleb128 0x2
 7760 2a1e 77       		.byte	0x77
 7761 2a1f 00       		.sleb128 0
 7762 2a20 00       		.byte	0
 7763 2a21 00       		.byte	0
 7764 2a22 3F       		.uleb128 0x3f
 7765 2a23 B0170000 		.4byte	.LASF697
 7766 2a27 01       		.byte	0x1
 7767 2a28 7202     		.2byte	0x272
 7768 2a2a 00000000 		.4byte	.LFB183
 7769 2a2e 48000000 		.4byte	.LFE183-.LFB183
 7770 2a32 01       		.uleb128 0x1
 7771 2a33 9C       		.byte	0x9c
 7772 2a34 DF2A0000 		.4byte	0x2adf
 7773 2a38 31       		.uleb128 0x31
 7774 2a39 5C070000 		.4byte	.LASF688
 7775 2a3d 01       		.byte	0x1
 7776 2a3e 7202     		.2byte	0x272
 7777 2a40 F0260000 		.4byte	0x26f0
 7778 2a44 B8060000 		.4byte	.LLST48
 7779 2a48 32       		.uleb128 0x32
 7780 2a49 62756600 		.ascii	"buf\000"
 7781 2a4d 01       		.byte	0x1
 7782 2a4e 7202     		.2byte	0x272
 7783 2a50 6F080000 		.4byte	0x86f
 7784 2a54 D9060000 		.4byte	.LLST49
 7785 2a58 31       		.uleb128 0x31
 7786 2a59 AB090000 		.4byte	.LASF689
 7787 2a5d 01       		.byte	0x1
 7788 2a5e 7202     		.2byte	0x272
 7789 2a60 01010000 		.4byte	0x101
 7790 2a64 06070000 		.4byte	.LLST50
 7791 2a68 32       		.uleb128 0x32
 7792 2a69 7800     		.ascii	"x\000"
 7793 2a6b 01       		.byte	0x1
 7794 2a6c 7202     		.2byte	0x272
 7795 2a6e 01010000 		.4byte	0x101
 7796 2a72 27070000 		.4byte	.LLST51
 7797 2a76 32       		.uleb128 0x32
 7798 2a77 7900     		.ascii	"y\000"
 7799 2a79 01       		.byte	0x1
 7800 2a7a 7202     		.2byte	0x272
 7801 2a7c 01010000 		.4byte	0x101
 7802 2a80 48070000 		.4byte	.LLST52
 7803 2a84 31       		.uleb128 0x31
 7804 2a85 7A250000 		.4byte	.LASF99
ARM GAS  C:\Users\haske\AppData\Local\Temp\ccN8jSR9.s 			page 168


 7805 2a89 01       		.byte	0x1
 7806 2a8a 7302     		.2byte	0x273
 7807 2a8c 2B040000 		.4byte	0x42b
 7808 2a90 74070000 		.4byte	.LLST53
 7809 2a94 32       		.uleb128 0x32
 7810 2a95 6F706100 		.ascii	"opa\000"
 7811 2a99 01       		.byte	0x1
 7812 2a9a 7302     		.2byte	0x273
 7813 2a9c 36040000 		.4byte	0x436
 7814 2aa0 88070000 		.4byte	.LLST54
 7815 2aa4 42       		.uleb128 0x42
 7816 2aa5 6400     		.ascii	"d\000"
 7817 2aa7 01       		.byte	0x1
 7818 2aa8 7802     		.2byte	0x278
 7819 2aaa 4D0A0000 		.4byte	0xa4d
 7820 2aae 02       		.uleb128 0x2
 7821 2aaf 91       		.byte	0x91
 7822 2ab0 5C       		.sleb128 -36
 7823 2ab1 3D       		.uleb128 0x3d
 7824 2ab2 40000000 		.4byte	.LVL94
 7825 2ab6 78270000 		.4byte	0x2778
 7826 2aba 3E       		.uleb128 0x3e
 7827 2abb 01       		.uleb128 0x1
 7828 2abc 50       		.byte	0x50
 7829 2abd 02       		.uleb128 0x2
 7830 2abe 91       		.byte	0x91
 7831 2abf 5C       		.sleb128 -36
 7832 2ac0 3E       		.uleb128 0x3e
 7833 2ac1 01       		.uleb128 0x1
 7834 2ac2 51       		.byte	0x51
 7835 2ac3 04       		.uleb128 0x4
 7836 2ac4 91       		.byte	0x91
 7837 2ac5 54       		.sleb128 -44
 7838 2ac6 94       		.byte	0x94
 7839 2ac7 02       		.byte	0x2
 7840 2ac8 3E       		.uleb128 0x3e
 7841 2ac9 01       		.uleb128 0x1
 7842 2aca 52       		.byte	0x52
 7843 2acb 02       		.uleb128 0x2
 7844 2acc 76       		.byte	0x76
 7845 2acd 00       		.sleb128 0
 7846 2ace 3E       		.uleb128 0x3e
 7847 2acf 01       		.uleb128 0x1
 7848 2ad0 53       		.byte	0x53
 7849 2ad1 04       		.uleb128 0x4
 7850 2ad2 91       		.byte	0x91
 7851 2ad3 04       		.sleb128 4
 7852 2ad4 94       		.byte	0x94
 7853 2ad5 02       		.byte	0x2
 7854 2ad6 3E       		.uleb128 0x3e
 7855 2ad7 02       		.uleb128 0x2
 7856 2ad8 7D       		.byte	0x7d
 7857 2ad9 00       		.sleb128 0
 7858 2ada 02       		.uleb128 0x2
 7859 2adb 77       		.byte	0x77
 7860 2adc 00       		.sleb128 0
 7861 2add 00       		.byte	0
ARM GAS  C:\Users\haske\AppData\Local\Temp\ccN8jSR9.s 			page 169


 7862 2ade 00       		.byte	0
 7863 2adf 3F       		.uleb128 0x3f
 7864 2ae0 AA110000 		.4byte	.LASF698
 7865 2ae4 01       		.byte	0x1
 7866 2ae5 6402     		.2byte	0x264
 7867 2ae7 00000000 		.4byte	.LFB182
 7868 2aeb 48000000 		.4byte	.LFE182-.LFB182
 7869 2aef 01       		.uleb128 0x1
 7870 2af0 9C       		.byte	0x9c
 7871 2af1 9C2B0000 		.4byte	0x2b9c
 7872 2af5 31       		.uleb128 0x31
 7873 2af6 5C070000 		.4byte	.LASF688
 7874 2afa 01       		.byte	0x1
 7875 2afb 6402     		.2byte	0x264
 7876 2afd F0260000 		.4byte	0x26f0
 7877 2b01 CC070000 		.4byte	.LLST55
 7878 2b05 32       		.uleb128 0x32
 7879 2b06 62756600 		.ascii	"buf\000"
 7880 2b0a 01       		.byte	0x1
 7881 2b0b 6402     		.2byte	0x264
 7882 2b0d 6F080000 		.4byte	0x86f
 7883 2b11 ED070000 		.4byte	.LLST56
 7884 2b15 31       		.uleb128 0x31
 7885 2b16 AB090000 		.4byte	.LASF689
 7886 2b1a 01       		.byte	0x1
 7887 2b1b 6402     		.2byte	0x264
 7888 2b1d 01010000 		.4byte	0x101
 7889 2b21 1A080000 		.4byte	.LLST57
 7890 2b25 32       		.uleb128 0x32
 7891 2b26 7800     		.ascii	"x\000"
 7892 2b28 01       		.byte	0x1
 7893 2b29 6402     		.2byte	0x264
 7894 2b2b 01010000 		.4byte	0x101
 7895 2b2f 3B080000 		.4byte	.LLST58
 7896 2b33 32       		.uleb128 0x32
 7897 2b34 7900     		.ascii	"y\000"
 7898 2b36 01       		.byte	0x1
 7899 2b37 6402     		.2byte	0x264
 7900 2b39 01010000 		.4byte	0x101
 7901 2b3d 5C080000 		.4byte	.LLST59
 7902 2b41 31       		.uleb128 0x31
 7903 2b42 7A250000 		.4byte	.LASF99
 7904 2b46 01       		.byte	0x1
 7905 2b47 6502     		.2byte	0x265
 7906 2b49 2B040000 		.4byte	0x42b
 7907 2b4d 88080000 		.4byte	.LLST60
 7908 2b51 32       		.uleb128 0x32
 7909 2b52 6F706100 		.ascii	"opa\000"
 7910 2b56 01       		.byte	0x1
 7911 2b57 6502     		.2byte	0x265
 7912 2b59 36040000 		.4byte	0x436
 7913 2b5d 9C080000 		.4byte	.LLST61
 7914 2b61 42       		.uleb128 0x42
 7915 2b62 6400     		.ascii	"d\000"
 7916 2b64 01       		.byte	0x1
 7917 2b65 6A02     		.2byte	0x26a
 7918 2b67 4D0A0000 		.4byte	0xa4d
ARM GAS  C:\Users\haske\AppData\Local\Temp\ccN8jSR9.s 			page 170


 7919 2b6b 02       		.uleb128 0x2
 7920 2b6c 91       		.byte	0x91
 7921 2b6d 5C       		.sleb128 -36
 7922 2b6e 3D       		.uleb128 0x3d
 7923 2b6f 40000000 		.4byte	.LVL103
 7924 2b73 78270000 		.4byte	0x2778
 7925 2b77 3E       		.uleb128 0x3e
 7926 2b78 01       		.uleb128 0x1
 7927 2b79 50       		.byte	0x50
 7928 2b7a 02       		.uleb128 0x2
 7929 2b7b 91       		.byte	0x91
 7930 2b7c 5C       		.sleb128 -36
 7931 2b7d 3E       		.uleb128 0x3e
 7932 2b7e 01       		.uleb128 0x1
 7933 2b7f 51       		.byte	0x51
 7934 2b80 04       		.uleb128 0x4
 7935 2b81 91       		.byte	0x91
 7936 2b82 54       		.sleb128 -44
 7937 2b83 94       		.byte	0x94
 7938 2b84 02       		.byte	0x2
 7939 2b85 3E       		.uleb128 0x3e
 7940 2b86 01       		.uleb128 0x1
 7941 2b87 52       		.byte	0x52
 7942 2b88 02       		.uleb128 0x2
 7943 2b89 76       		.byte	0x76
 7944 2b8a 00       		.sleb128 0
 7945 2b8b 3E       		.uleb128 0x3e
 7946 2b8c 01       		.uleb128 0x1
 7947 2b8d 53       		.byte	0x53
 7948 2b8e 04       		.uleb128 0x4
 7949 2b8f 91       		.byte	0x91
 7950 2b90 04       		.sleb128 4
 7951 2b91 94       		.byte	0x94
 7952 2b92 02       		.byte	0x2
 7953 2b93 3E       		.uleb128 0x3e
 7954 2b94 02       		.uleb128 0x2
 7955 2b95 7D       		.byte	0x7d
 7956 2b96 00       		.sleb128 0
 7957 2b97 02       		.uleb128 0x2
 7958 2b98 77       		.byte	0x77
 7959 2b99 00       		.sleb128 0
 7960 2b9a 00       		.byte	0
 7961 2b9b 00       		.byte	0
 7962 2b9c 43       		.uleb128 0x43
 7963 2b9d 150D0000 		.4byte	.LASF699
 7964 2ba1 01       		.byte	0x1
 7965 2ba2 53       		.byte	0x53
 7966 2ba3 00000000 		.4byte	.LFB159
 7967 2ba7 58000000 		.4byte	.LFE159-.LFB159
 7968 2bab 01       		.uleb128 0x1
 7969 2bac 9C       		.byte	0x9c
 7970 2bad 032C0000 		.4byte	0x2c03
 7971 2bb1 44       		.uleb128 0x44
 7972 2bb2 B70D0000 		.4byte	.LASF417
 7973 2bb6 01       		.byte	0x1
 7974 2bb7 53       		.byte	0x53
 7975 2bb8 F0260000 		.4byte	0x26f0
ARM GAS  C:\Users\haske\AppData\Local\Temp\ccN8jSR9.s 			page 171


 7976 2bbc E0080000 		.4byte	.LLST62
 7977 2bc0 45       		.uleb128 0x45
 7978 2bc1 FA230000 		.4byte	0x23fa
 7979 2bc5 3C000000 		.4byte	.LBB49
 7980 2bc9 04000000 		.4byte	.LBE49-.LBB49
 7981 2bcd 01       		.byte	0x1
 7982 2bce 60       		.byte	0x60
 7983 2bcf EC2B0000 		.4byte	0x2bec
 7984 2bd3 35       		.uleb128 0x35
 7985 2bd4 0B240000 		.4byte	0x240b
 7986 2bd8 0C090000 		.4byte	.LLST63
 7987 2bdc 38       		.uleb128 0x38
 7988 2bdd 3C000000 		.4byte	.LBB50
 7989 2be1 04000000 		.4byte	.LBE50-.LBB50
 7990 2be5 39       		.uleb128 0x39
 7991 2be6 15240000 		.4byte	0x2415
 7992 2bea 00       		.byte	0
 7993 2beb 00       		.byte	0
 7994 2bec 3D       		.uleb128 0x3d
 7995 2bed 0A000000 		.4byte	.LVL105
 7996 2bf1 A8340000 		.4byte	0x34a8
 7997 2bf5 3E       		.uleb128 0x3e
 7998 2bf6 01       		.uleb128 0x1
 7999 2bf7 50       		.byte	0x50
 8000 2bf8 02       		.uleb128 0x2
 8001 2bf9 74       		.byte	0x74
 8002 2bfa 00       		.sleb128 0
 8003 2bfb 3E       		.uleb128 0x3e
 8004 2bfc 01       		.uleb128 0x1
 8005 2bfd 51       		.byte	0x51
 8006 2bfe 02       		.uleb128 0x2
 8007 2bff 08       		.byte	0x8
 8008 2c00 50       		.byte	0x50
 8009 2c01 00       		.byte	0
 8010 2c02 00       		.byte	0
 8011 2c03 43       		.uleb128 0x43
 8012 2c04 C6100000 		.4byte	.LASF700
 8013 2c08 01       		.byte	0x1
 8014 2c09 92       		.byte	0x92
 8015 2c0a 00000000 		.4byte	.LFB160
 8016 2c0e 1A000000 		.4byte	.LFE160-.LFB160
 8017 2c12 01       		.uleb128 0x1
 8018 2c13 9C       		.byte	0x9c
 8019 2c14 6A2C0000 		.4byte	0x2c6a
 8020 2c18 44       		.uleb128 0x44
 8021 2c19 1E240000 		.4byte	.LASF395
 8022 2c1d 01       		.byte	0x1
 8023 2c1e 92       		.byte	0x92
 8024 2c1f 0B160000 		.4byte	0x160b
 8025 2c23 22090000 		.4byte	.LLST64
 8026 2c27 44       		.uleb128 0x44
 8027 2c28 AD180000 		.4byte	.LASF374
 8028 2c2c 01       		.byte	0x1
 8029 2c2d 92       		.byte	0x92
 8030 2c2e E9020000 		.4byte	0x2e9
 8031 2c32 4E090000 		.4byte	.LLST65
 8032 2c36 44       		.uleb128 0x44
ARM GAS  C:\Users\haske\AppData\Local\Temp\ccN8jSR9.s 			page 172


 8033 2c37 B2180000 		.4byte	.LASF375
 8034 2c3b 01       		.byte	0x1
 8035 2c3c 92       		.byte	0x92
 8036 2c3d E9020000 		.4byte	0x2e9
 8037 2c41 79090000 		.4byte	.LLST66
 8038 2c45 44       		.uleb128 0x44
 8039 2c46 47020000 		.4byte	.LASF701
 8040 2c4a 01       		.byte	0x1
 8041 2c4b 92       		.byte	0x92
 8042 2c4c E4000000 		.4byte	0xe4
 8043 2c50 A6090000 		.4byte	.LLST67
 8044 2c54 3D       		.uleb128 0x3d
 8045 2c55 10000000 		.4byte	.LVL111
 8046 2c59 A8340000 		.4byte	0x34a8
 8047 2c5d 3E       		.uleb128 0x3e
 8048 2c5e 01       		.uleb128 0x1
 8049 2c5f 50       		.byte	0x50
 8050 2c60 02       		.uleb128 0x2
 8051 2c61 74       		.byte	0x74
 8052 2c62 00       		.sleb128 0
 8053 2c63 3E       		.uleb128 0x3e
 8054 2c64 01       		.uleb128 0x1
 8055 2c65 51       		.byte	0x51
 8056 2c66 01       		.uleb128 0x1
 8057 2c67 4C       		.byte	0x4c
 8058 2c68 00       		.byte	0
 8059 2c69 00       		.byte	0
 8060 2c6a 46       		.uleb128 0x46
 8061 2c6b 46100000 		.4byte	.LASF707
 8062 2c6f 01       		.byte	0x1
 8063 2c70 A2       		.byte	0xa2
 8064 2c71 BE2E0000 		.4byte	0x2ebe
 8065 2c75 00000000 		.4byte	.LFB161
 8066 2c79 64010000 		.4byte	.LFE161-.LFB161
 8067 2c7d 01       		.uleb128 0x1
 8068 2c7e 9C       		.byte	0x9c
 8069 2c7f BE2E0000 		.4byte	0x2ebe
 8070 2c83 44       		.uleb128 0x44
 8071 2c84 B70D0000 		.4byte	.LASF417
 8072 2c88 01       		.byte	0x1
 8073 2c89 A2       		.byte	0xa2
 8074 2c8a F0260000 		.4byte	0x26f0
 8075 2c8e D3090000 		.4byte	.LLST68
 8076 2c92 47       		.uleb128 0x47
 8077 2c93 C31A0000 		.4byte	.LASF438
 8078 2c97 01       		.byte	0x1
 8079 2c98 A4       		.byte	0xa4
 8080 2c99 BE2E0000 		.4byte	0x2ebe
 8081 2c9d 310A0000 		.4byte	.LLST69
 8082 2ca1 47       		.uleb128 0x47
 8083 2ca2 230E0000 		.4byte	.LASF702
 8084 2ca6 01       		.byte	0x1
 8085 2ca7 B9       		.byte	0xb9
 8086 2ca8 BE2E0000 		.4byte	0x2ebe
 8087 2cac 650A0000 		.4byte	.LLST70
 8088 2cb0 48       		.uleb128 0x48
 8089 2cb1 00000000 		.4byte	.Ldebug_ranges0+0
ARM GAS  C:\Users\haske\AppData\Local\Temp\ccN8jSR9.s 			page 173


 8090 2cb5 E42C0000 		.4byte	0x2ce4
 8091 2cb9 47       		.uleb128 0x47
 8092 2cba D9290000 		.4byte	.LASF411
 8093 2cbe 01       		.byte	0x1
 8094 2cbf AC       		.byte	0xac
 8095 2cc0 BE160000 		.4byte	0x16be
 8096 2cc4 780A0000 		.4byte	.LLST71
 8097 2cc8 49       		.uleb128 0x49
 8098 2cc9 24000000 		.4byte	.LVL121
 8099 2ccd B3340000 		.4byte	0x34b3
 8100 2cd1 4A       		.uleb128 0x4a
 8101 2cd2 38000000 		.4byte	.LVL124
 8102 2cd6 3E       		.uleb128 0x3e
 8103 2cd7 01       		.uleb128 0x1
 8104 2cd8 50       		.byte	0x50
 8105 2cd9 02       		.uleb128 0x2
 8106 2cda 75       		.byte	0x75
 8107 2cdb 00       		.sleb128 0
 8108 2cdc 3E       		.uleb128 0x3e
 8109 2cdd 01       		.uleb128 0x1
 8110 2cde 51       		.byte	0x51
 8111 2cdf 02       		.uleb128 0x2
 8112 2ce0 76       		.byte	0x76
 8113 2ce1 00       		.sleb128 0
 8114 2ce2 00       		.byte	0
 8115 2ce3 00       		.byte	0
 8116 2ce4 45       		.uleb128 0x45
 8117 2ce5 20240000 		.4byte	0x2420
 8118 2ce9 94000000 		.4byte	.LBB52
 8119 2ced 0C000000 		.4byte	.LBE52-.LBB52
 8120 2cf1 01       		.byte	0x1
 8121 2cf2 C9       		.byte	0xc9
 8122 2cf3 242D0000 		.4byte	0x2d24
 8123 2cf7 34       		.uleb128 0x34
 8124 2cf8 CA230000 		.4byte	0x23ca
 8125 2cfc 94000000 		.4byte	.LBB53
 8126 2d00 0C000000 		.4byte	.LBE53-.LBB53
 8127 2d04 02       		.byte	0x2
 8128 2d05 B302     		.2byte	0x2b3
 8129 2d07 35       		.uleb128 0x35
 8130 2d08 EF230000 		.4byte	0x23ef
 8131 2d0c A10A0000 		.4byte	.LLST72
 8132 2d10 35       		.uleb128 0x35
 8133 2d11 E5230000 		.4byte	0x23e5
 8134 2d15 A10A0000 		.4byte	.LLST72
 8135 2d19 35       		.uleb128 0x35
 8136 2d1a DB230000 		.4byte	0x23db
 8137 2d1e A10A0000 		.4byte	.LLST72
 8138 2d22 00       		.byte	0
 8139 2d23 00       		.byte	0
 8140 2d24 45       		.uleb128 0x45
 8141 2d25 2D240000 		.4byte	0x242d
 8142 2d29 F0000000 		.4byte	.LBB55
 8143 2d2d 0C000000 		.4byte	.LBE55-.LBB55
 8144 2d31 01       		.byte	0x1
 8145 2d32 DD       		.byte	0xdd
 8146 2d33 562D0000 		.4byte	0x2d56
ARM GAS  C:\Users\haske\AppData\Local\Temp\ccN8jSR9.s 			page 174


 8147 2d37 35       		.uleb128 0x35
 8148 2d38 39240000 		.4byte	0x2439
 8149 2d3c B60A0000 		.4byte	.LLST75
 8150 2d40 3D       		.uleb128 0x3d
 8151 2d41 FC000000 		.4byte	.LVL144
 8152 2d45 BE340000 		.4byte	0x34be
 8153 2d49 3E       		.uleb128 0x3e
 8154 2d4a 01       		.uleb128 0x1
 8155 2d4b 51       		.byte	0x51
 8156 2d4c 01       		.uleb128 0x1
 8157 2d4d 30       		.byte	0x30
 8158 2d4e 3E       		.uleb128 0x3e
 8159 2d4f 01       		.uleb128 0x1
 8160 2d50 52       		.byte	0x52
 8161 2d51 02       		.uleb128 0x2
 8162 2d52 75       		.byte	0x75
 8163 2d53 00       		.sleb128 0
 8164 2d54 00       		.byte	0
 8165 2d55 00       		.byte	0
 8166 2d56 45       		.uleb128 0x45
 8167 2d57 2D240000 		.4byte	0x242d
 8168 2d5b FC000000 		.4byte	.LBB57
 8169 2d5f 0A000000 		.4byte	.LBE57-.LBB57
 8170 2d63 01       		.byte	0x1
 8171 2d64 DE       		.byte	0xde
 8172 2d65 882D0000 		.4byte	0x2d88
 8173 2d69 35       		.uleb128 0x35
 8174 2d6a 39240000 		.4byte	0x2439
 8175 2d6e CA0A0000 		.4byte	.LLST76
 8176 2d72 3D       		.uleb128 0x3d
 8177 2d73 06010000 		.4byte	.LVL145
 8178 2d77 BE340000 		.4byte	0x34be
 8179 2d7b 3E       		.uleb128 0x3e
 8180 2d7c 01       		.uleb128 0x1
 8181 2d7d 51       		.byte	0x51
 8182 2d7e 01       		.uleb128 0x1
 8183 2d7f 30       		.byte	0x30
 8184 2d80 3E       		.uleb128 0x3e
 8185 2d81 01       		.uleb128 0x1
 8186 2d82 52       		.byte	0x52
 8187 2d83 02       		.uleb128 0x2
 8188 2d84 75       		.byte	0x75
 8189 2d85 00       		.sleb128 0
 8190 2d86 00       		.byte	0
 8191 2d87 00       		.byte	0
 8192 2d88 49       		.uleb128 0x49
 8193 2d89 0C000000 		.4byte	.LVL118
 8194 2d8d C9340000 		.4byte	0x34c9
 8195 2d91 4B       		.uleb128 0x4b
 8196 2d92 44000000 		.4byte	.LVL126
 8197 2d96 A8340000 		.4byte	0x34a8
 8198 2d9a AC2D0000 		.4byte	0x2dac
 8199 2d9e 3E       		.uleb128 0x3e
 8200 2d9f 01       		.uleb128 0x1
 8201 2da0 50       		.byte	0x50
 8202 2da1 02       		.uleb128 0x2
 8203 2da2 74       		.byte	0x74
ARM GAS  C:\Users\haske\AppData\Local\Temp\ccN8jSR9.s 			page 175


 8204 2da3 00       		.sleb128 0
 8205 2da4 3E       		.uleb128 0x3e
 8206 2da5 01       		.uleb128 0x1
 8207 2da6 51       		.byte	0x51
 8208 2da7 03       		.uleb128 0x3
 8209 2da8 0A       		.byte	0xa
 8210 2da9 5C01     		.2byte	0x15c
 8211 2dab 00       		.byte	0
 8212 2dac 4B       		.uleb128 0x4b
 8213 2dad 5E000000 		.4byte	.LVL128
 8214 2db1 D4340000 		.4byte	0x34d4
 8215 2db5 C52D0000 		.4byte	0x2dc5
 8216 2db9 3E       		.uleb128 0x3e
 8217 2dba 01       		.uleb128 0x1
 8218 2dbb 51       		.byte	0x51
 8219 2dbc 01       		.uleb128 0x1
 8220 2dbd 4E       		.byte	0x4e
 8221 2dbe 3E       		.uleb128 0x3e
 8222 2dbf 01       		.uleb128 0x1
 8223 2dc0 52       		.byte	0x52
 8224 2dc1 02       		.uleb128 0x2
 8225 2dc2 74       		.byte	0x74
 8226 2dc3 00       		.sleb128 0
 8227 2dc4 00       		.byte	0
 8228 2dc5 4B       		.uleb128 0x4b
 8229 2dc6 70000000 		.4byte	.LVL129
 8230 2dca DF340000 		.4byte	0x34df
 8231 2dce D92D0000 		.4byte	0x2dd9
 8232 2dd2 3E       		.uleb128 0x3e
 8233 2dd3 01       		.uleb128 0x1
 8234 2dd4 50       		.byte	0x50
 8235 2dd5 02       		.uleb128 0x2
 8236 2dd6 74       		.byte	0x74
 8237 2dd7 00       		.sleb128 0
 8238 2dd8 00       		.byte	0
 8239 2dd9 49       		.uleb128 0x49
 8240 2dda AC000000 		.4byte	.LVL132
 8241 2dde EA340000 		.4byte	0x34ea
 8242 2de2 49       		.uleb128 0x49
 8243 2de3 B6000000 		.4byte	.LVL133
 8244 2de7 F5340000 		.4byte	0x34f5
 8245 2deb 4B       		.uleb128 0x4b
 8246 2dec BE000000 		.4byte	.LVL135
 8247 2df0 F5340000 		.4byte	0x34f5
 8248 2df4 FE2D0000 		.4byte	0x2dfe
 8249 2df8 3E       		.uleb128 0x3e
 8250 2df9 01       		.uleb128 0x1
 8251 2dfa 50       		.byte	0x50
 8252 2dfb 01       		.uleb128 0x1
 8253 2dfc 30       		.byte	0x30
 8254 2dfd 00       		.byte	0
 8255 2dfe 4B       		.uleb128 0x4b
 8256 2dff CE000000 		.4byte	.LVL136
 8257 2e03 01350000 		.4byte	0x3501
 8258 2e07 1D2E0000 		.4byte	0x2e1d
 8259 2e0b 3E       		.uleb128 0x3e
 8260 2e0c 01       		.uleb128 0x1
ARM GAS  C:\Users\haske\AppData\Local\Temp\ccN8jSR9.s 			page 176


 8261 2e0d 50       		.byte	0x50
 8262 2e0e 02       		.uleb128 0x2
 8263 2e0f 74       		.byte	0x74
 8264 2e10 00       		.sleb128 0
 8265 2e11 3E       		.uleb128 0x3e
 8266 2e12 01       		.uleb128 0x1
 8267 2e13 51       		.byte	0x51
 8268 2e14 02       		.uleb128 0x2
 8269 2e15 75       		.byte	0x75
 8270 2e16 00       		.sleb128 0
 8271 2e17 3E       		.uleb128 0x3e
 8272 2e18 01       		.uleb128 0x1
 8273 2e19 53       		.byte	0x53
 8274 2e1a 01       		.uleb128 0x1
 8275 2e1b 30       		.byte	0x30
 8276 2e1c 00       		.byte	0
 8277 2e1d 49       		.uleb128 0x49
 8278 2e1e D6000000 		.4byte	.LVL138
 8279 2e22 0C350000 		.4byte	0x350c
 8280 2e26 4B       		.uleb128 0x4b
 8281 2e27 DE000000 		.4byte	.LVL140
 8282 2e2b 17350000 		.4byte	0x3517
 8283 2e2f 392E0000 		.4byte	0x2e39
 8284 2e33 3E       		.uleb128 0x3e
 8285 2e34 01       		.uleb128 0x1
 8286 2e35 50       		.byte	0x50
 8287 2e36 01       		.uleb128 0x1
 8288 2e37 30       		.byte	0x30
 8289 2e38 00       		.byte	0
 8290 2e39 4B       		.uleb128 0x4b
 8291 2e3a E6000000 		.4byte	.LVL141
 8292 2e3e 17350000 		.4byte	0x3517
 8293 2e42 4C2E0000 		.4byte	0x2e4c
 8294 2e46 3E       		.uleb128 0x3e
 8295 2e47 01       		.uleb128 0x1
 8296 2e48 50       		.byte	0x50
 8297 2e49 01       		.uleb128 0x1
 8298 2e4a 30       		.byte	0x30
 8299 2e4b 00       		.byte	0
 8300 2e4c 4B       		.uleb128 0x4b
 8301 2e4d EE000000 		.4byte	.LVL142
 8302 2e51 17350000 		.4byte	0x3517
 8303 2e55 5F2E0000 		.4byte	0x2e5f
 8304 2e59 3E       		.uleb128 0x3e
 8305 2e5a 01       		.uleb128 0x1
 8306 2e5b 50       		.byte	0x50
 8307 2e5c 01       		.uleb128 0x1
 8308 2e5d 30       		.byte	0x30
 8309 2e5e 00       		.byte	0
 8310 2e5f 4B       		.uleb128 0x4b
 8311 2e60 0E010000 		.4byte	.LVL146
 8312 2e64 22350000 		.4byte	0x3522
 8313 2e68 722E0000 		.4byte	0x2e72
 8314 2e6c 3E       		.uleb128 0x3e
 8315 2e6d 01       		.uleb128 0x1
 8316 2e6e 51       		.byte	0x51
 8317 2e6f 01       		.uleb128 0x1
ARM GAS  C:\Users\haske\AppData\Local\Temp\ccN8jSR9.s 			page 177


 8318 2e70 32       		.byte	0x32
 8319 2e71 00       		.byte	0
 8320 2e72 4B       		.uleb128 0x4b
 8321 2e73 16010000 		.4byte	.LVL147
 8322 2e77 22350000 		.4byte	0x3522
 8323 2e7b 852E0000 		.4byte	0x2e85
 8324 2e7f 3E       		.uleb128 0x3e
 8325 2e80 01       		.uleb128 0x1
 8326 2e81 51       		.byte	0x51
 8327 2e82 01       		.uleb128 0x1
 8328 2e83 32       		.byte	0x32
 8329 2e84 00       		.byte	0
 8330 2e85 4B       		.uleb128 0x4b
 8331 2e86 1E010000 		.4byte	.LVL148
 8332 2e8a 2D350000 		.4byte	0x352d
 8333 2e8e 982E0000 		.4byte	0x2e98
 8334 2e92 3E       		.uleb128 0x3e
 8335 2e93 01       		.uleb128 0x1
 8336 2e94 51       		.byte	0x51
 8337 2e95 01       		.uleb128 0x1
 8338 2e96 30       		.byte	0x30
 8339 2e97 00       		.byte	0
 8340 2e98 4B       		.uleb128 0x4b
 8341 2e99 26010000 		.4byte	.LVL149
 8342 2e9d 2D350000 		.4byte	0x352d
 8343 2ea1 AB2E0000 		.4byte	0x2eab
 8344 2ea5 3E       		.uleb128 0x3e
 8345 2ea6 01       		.uleb128 0x1
 8346 2ea7 51       		.byte	0x51
 8347 2ea8 01       		.uleb128 0x1
 8348 2ea9 30       		.byte	0x30
 8349 2eaa 00       		.byte	0
 8350 2eab 49       		.uleb128 0x49
 8351 2eac 2C010000 		.4byte	.LVL150
 8352 2eb0 38350000 		.4byte	0x3538
 8353 2eb4 49       		.uleb128 0x49
 8354 2eb5 3C010000 		.4byte	.LVL151
 8355 2eb9 44350000 		.4byte	0x3544
 8356 2ebd 00       		.byte	0
 8357 2ebe 0B       		.uleb128 0xb
 8358 2ebf 04       		.byte	0x4
 8359 2ec0 B3180000 		.4byte	0x18b3
 8360 2ec4 4C       		.uleb128 0x4c
 8361 2ec5 F4000000 		.4byte	.LASF703
 8362 2ec9 01       		.byte	0x1
 8363 2eca 4501     		.2byte	0x145
 8364 2ecc 00000000 		.4byte	.LFB164
 8365 2ed0 0C000000 		.4byte	.LFE164-.LFB164
 8366 2ed4 01       		.uleb128 0x1
 8367 2ed5 9C       		.byte	0x9c
 8368 2ed6 E92E0000 		.4byte	0x2ee9
 8369 2eda 4D       		.uleb128 0x4d
 8370 2edb C31A0000 		.4byte	.LASF438
 8371 2edf 01       		.byte	0x1
 8372 2ee0 4501     		.2byte	0x145
 8373 2ee2 BE2E0000 		.4byte	0x2ebe
 8374 2ee6 01       		.uleb128 0x1
ARM GAS  C:\Users\haske\AppData\Local\Temp\ccN8jSR9.s 			page 178


 8375 2ee7 50       		.byte	0x50
 8376 2ee8 00       		.byte	0
 8377 2ee9 4E       		.uleb128 0x4e
 8378 2eea 3B110000 		.4byte	.LASF765
 8379 2eee 01       		.byte	0x1
 8380 2eef 4E01     		.2byte	0x14e
 8381 2ef1 BE2E0000 		.4byte	0x2ebe
 8382 2ef5 00000000 		.4byte	.LFB165
 8383 2ef9 0C000000 		.4byte	.LFE165-.LFB165
 8384 2efd 01       		.uleb128 0x1
 8385 2efe 9C       		.byte	0x9c
 8386 2eff 4C       		.uleb128 0x4c
 8387 2f00 24160000 		.4byte	.LASF704
 8388 2f04 01       		.byte	0x1
 8389 2f05 1D01     		.2byte	0x11d
 8390 2f07 00000000 		.4byte	.LFB163
 8391 2f0b 88000000 		.4byte	.LFE163-.LFB163
 8392 2f0f 01       		.uleb128 0x1
 8393 2f10 9C       		.byte	0x9c
 8394 2f11 C92F0000 		.4byte	0x2fc9
 8395 2f15 31       		.uleb128 0x31
 8396 2f16 C31A0000 		.4byte	.LASF438
 8397 2f1a 01       		.byte	0x1
 8398 2f1b 1D01     		.2byte	0x11d
 8399 2f1d BE2E0000 		.4byte	0x2ebe
 8400 2f21 DE0A0000 		.4byte	.LLST77
 8401 2f25 33       		.uleb128 0x33
 8402 2f26 6F210000 		.4byte	.LASF705
 8403 2f2a 01       		.byte	0x1
 8404 2f2b 1F01     		.2byte	0x11f
 8405 2f2d AA020000 		.4byte	0x2aa
 8406 2f31 0A0B0000 		.4byte	.LLST78
 8407 2f35 33       		.uleb128 0x33
 8408 2f36 F1120000 		.4byte	.LASF706
 8409 2f3a 01       		.byte	0x1
 8410 2f3b 2301     		.2byte	0x123
 8411 2f3d C92F0000 		.4byte	0x2fc9
 8412 2f41 290B0000 		.4byte	.LLST79
 8413 2f45 49       		.uleb128 0x49
 8414 2f46 08000000 		.4byte	.LVL160
 8415 2f4a E92E0000 		.4byte	0x2ee9
 8416 2f4e 4B       		.uleb128 0x4b
 8417 2f4f 18000000 		.4byte	.LVL162
 8418 2f53 4F350000 		.4byte	0x354f
 8419 2f57 612F0000 		.4byte	0x2f61
 8420 2f5b 3E       		.uleb128 0x3e
 8421 2f5c 01       		.uleb128 0x1
 8422 2f5d 50       		.byte	0x50
 8423 2f5e 01       		.uleb128 0x1
 8424 2f5f 30       		.byte	0x30
 8425 2f60 00       		.byte	0
 8426 2f61 49       		.uleb128 0x49
 8427 2f62 2A000000 		.4byte	.LVL163
 8428 2f66 4F350000 		.4byte	0x354f
 8429 2f6a 49       		.uleb128 0x49
 8430 2f6b 38000000 		.4byte	.LVL165
 8431 2f6f 5A350000 		.4byte	0x355a
ARM GAS  C:\Users\haske\AppData\Local\Temp\ccN8jSR9.s 			page 179


 8432 2f73 49       		.uleb128 0x49
 8433 2f74 46000000 		.4byte	.LVL166
 8434 2f78 5A350000 		.4byte	0x355a
 8435 2f7c 49       		.uleb128 0x49
 8436 2f7d 54000000 		.4byte	.LVL167
 8437 2f81 5A350000 		.4byte	0x355a
 8438 2f85 4B       		.uleb128 0x4b
 8439 2f86 62000000 		.4byte	.LVL168
 8440 2f8a 65350000 		.4byte	0x3565
 8441 2f8e 992F0000 		.4byte	0x2f99
 8442 2f92 3E       		.uleb128 0x3e
 8443 2f93 01       		.uleb128 0x1
 8444 2f94 51       		.byte	0x51
 8445 2f95 02       		.uleb128 0x2
 8446 2f96 74       		.byte	0x74
 8447 2f97 00       		.sleb128 0
 8448 2f98 00       		.byte	0
 8449 2f99 49       		.uleb128 0x49
 8450 2f9a 6C000000 		.4byte	.LVL169
 8451 2f9e 70350000 		.4byte	0x3570
 8452 2fa2 4B       		.uleb128 0x4b
 8453 2fa3 72000000 		.4byte	.LVL170
 8454 2fa7 DF340000 		.4byte	0x34df
 8455 2fab B62F0000 		.4byte	0x2fb6
 8456 2faf 3E       		.uleb128 0x3e
 8457 2fb0 01       		.uleb128 0x1
 8458 2fb1 50       		.byte	0x50
 8459 2fb2 02       		.uleb128 0x2
 8460 2fb3 74       		.byte	0x74
 8461 2fb4 00       		.sleb128 0
 8462 2fb5 00       		.byte	0
 8463 2fb6 49       		.uleb128 0x49
 8464 2fb7 7C000000 		.4byte	.LVL171
 8465 2fbb 7B350000 		.4byte	0x357b
 8466 2fbf 49       		.uleb128 0x49
 8467 2fc0 80000000 		.4byte	.LVL172
 8468 2fc4 C42E0000 		.4byte	0x2ec4
 8469 2fc8 00       		.byte	0
 8470 2fc9 0B       		.uleb128 0xb
 8471 2fca 04       		.byte	0x4
 8472 2fcb C51C0000 		.4byte	0x1cc5
 8473 2fcf 4F       		.uleb128 0x4f
 8474 2fd0 9B0E0000 		.4byte	.LASF708
 8475 2fd4 01       		.byte	0x1
 8476 2fd5 5801     		.2byte	0x158
 8477 2fd7 01010000 		.4byte	0x101
 8478 2fdb 00000000 		.4byte	.LFB166
 8479 2fdf 2E000000 		.4byte	.LFE166-.LFB166
 8480 2fe3 01       		.uleb128 0x1
 8481 2fe4 9C       		.byte	0x9c
 8482 2fe5 03300000 		.4byte	0x3003
 8483 2fe9 31       		.uleb128 0x31
 8484 2fea C31A0000 		.4byte	.LASF438
 8485 2fee 01       		.byte	0x1
 8486 2fef 5801     		.2byte	0x158
 8487 2ff1 BE2E0000 		.4byte	0x2ebe
 8488 2ff5 470B0000 		.4byte	.LLST80
ARM GAS  C:\Users\haske\AppData\Local\Temp\ccN8jSR9.s 			page 180


 8489 2ff9 49       		.uleb128 0x49
 8490 2ffa 0A000000 		.4byte	.LVL176
 8491 2ffe E92E0000 		.4byte	0x2ee9
 8492 3002 00       		.byte	0
 8493 3003 4F       		.uleb128 0x4f
 8494 3004 E70D0000 		.4byte	.LASF709
 8495 3008 01       		.byte	0x1
 8496 3009 6F01     		.2byte	0x16f
 8497 300b 01010000 		.4byte	0x101
 8498 300f 00000000 		.4byte	.LFB167
 8499 3013 2E000000 		.4byte	.LFE167-.LFB167
 8500 3017 01       		.uleb128 0x1
 8501 3018 9C       		.byte	0x9c
 8502 3019 37300000 		.4byte	0x3037
 8503 301d 31       		.uleb128 0x31
 8504 301e C31A0000 		.4byte	.LASF438
 8505 3022 01       		.byte	0x1
 8506 3023 6F01     		.2byte	0x16f
 8507 3025 BE2E0000 		.4byte	0x2ebe
 8508 3029 890B0000 		.4byte	.LLST81
 8509 302d 49       		.uleb128 0x49
 8510 302e 0A000000 		.4byte	.LVL183
 8511 3032 E92E0000 		.4byte	0x2ee9
 8512 3036 00       		.byte	0
 8513 3037 50       		.uleb128 0x50
 8514 3038 E9030000 		.4byte	.LASF710
 8515 303c 01       		.byte	0x1
 8516 303d F4       		.byte	0xf4
 8517 303e 00000000 		.4byte	.LFB162
 8518 3042 BC000000 		.4byte	.LFE162-.LFB162
 8519 3046 01       		.uleb128 0x1
 8520 3047 9C       		.byte	0x9c
 8521 3048 88310000 		.4byte	0x3188
 8522 304c 44       		.uleb128 0x44
 8523 304d C31A0000 		.4byte	.LASF438
 8524 3051 01       		.byte	0x1
 8525 3052 F4       		.byte	0xf4
 8526 3053 BE2E0000 		.4byte	0x2ebe
 8527 3057 CB0B0000 		.4byte	.LLST82
 8528 305b 44       		.uleb128 0x44
 8529 305c AF1A0000 		.4byte	.LASF711
 8530 3060 01       		.byte	0x1
 8531 3061 F4       		.byte	0xf4
 8532 3062 F0260000 		.4byte	0x26f0
 8533 3066 F70B0000 		.4byte	.LLST83
 8534 306a 51       		.uleb128 0x51
 8535 306b 7700     		.ascii	"w\000"
 8536 306d 01       		.byte	0x1
 8537 306e FE       		.byte	0xfe
 8538 306f 01010000 		.4byte	0x101
 8539 3073 180C0000 		.4byte	.LLST84
 8540 3077 51       		.uleb128 0x51
 8541 3078 6800     		.ascii	"h\000"
 8542 307a 01       		.byte	0x1
 8543 307b FF       		.byte	0xff
 8544 307c 01010000 		.4byte	0x101
 8545 3080 360C0000 		.4byte	.LLST85
ARM GAS  C:\Users\haske\AppData\Local\Temp\ccN8jSR9.s 			page 181


 8546 3084 40       		.uleb128 0x40
 8547 3085 6900     		.ascii	"i\000"
 8548 3087 01       		.byte	0x1
 8549 3088 0001     		.2byte	0x100
 8550 308a E4000000 		.4byte	0xe4
 8551 308e 550C0000 		.4byte	.LLST86
 8552 3092 41       		.uleb128 0x41
 8553 3093 3C000000 		.4byte	.LBB60
 8554 3097 30000000 		.4byte	.LBE60-.LBB60
 8555 309b 03310000 		.4byte	0x3103
 8556 309f 52       		.uleb128 0x52
 8557 30a0 232E0000 		.4byte	.LASF712
 8558 30a4 01       		.byte	0x1
 8559 30a5 0201     		.2byte	0x102
 8560 30a7 69010000 		.4byte	0x169
 8561 30ab 02       		.uleb128 0x2
 8562 30ac 91       		.byte	0x91
 8563 30ad 60       		.sleb128 -32
 8564 30ae 4B       		.uleb128 0x4b
 8565 30af 48000000 		.4byte	.LVL197
 8566 30b3 86350000 		.4byte	0x3586
 8567 30b7 C2300000 		.4byte	0x30c2
 8568 30bb 3E       		.uleb128 0x3e
 8569 30bc 01       		.uleb128 0x1
 8570 30bd 51       		.byte	0x51
 8571 30be 02       		.uleb128 0x2
 8572 30bf 91       		.byte	0x91
 8573 30c0 60       		.sleb128 -32
 8574 30c1 00       		.byte	0
 8575 30c2 4B       		.uleb128 0x4b
 8576 30c3 54000000 		.4byte	.LVL198
 8577 30c7 91350000 		.4byte	0x3591
 8578 30cb D6300000 		.4byte	0x30d6
 8579 30cf 3E       		.uleb128 0x3e
 8580 30d0 01       		.uleb128 0x1
 8581 30d1 51       		.byte	0x51
 8582 30d2 02       		.uleb128 0x2
 8583 30d3 77       		.byte	0x77
 8584 30d4 00       		.sleb128 0
 8585 30d5 00       		.byte	0
 8586 30d6 4B       		.uleb128 0x4b
 8587 30d7 60000000 		.4byte	.LVL199
 8588 30db 9C350000 		.4byte	0x359c
 8589 30df EC300000 		.4byte	0x30ec
 8590 30e3 3E       		.uleb128 0x3e
 8591 30e4 01       		.uleb128 0x1
 8592 30e5 51       		.byte	0x51
 8593 30e6 04       		.uleb128 0x4
 8594 30e7 91       		.byte	0x91
 8595 30e8 5C       		.sleb128 -36
 8596 30e9 94       		.byte	0x94
 8597 30ea 02       		.byte	0x2
 8598 30eb 00       		.byte	0
 8599 30ec 3D       		.uleb128 0x3d
 8600 30ed 6C000000 		.4byte	.LVL200
 8601 30f1 A7350000 		.4byte	0x35a7
 8602 30f5 3E       		.uleb128 0x3e
ARM GAS  C:\Users\haske\AppData\Local\Temp\ccN8jSR9.s 			page 182


 8603 30f6 01       		.uleb128 0x1
 8604 30f7 51       		.byte	0x51
 8605 30f8 02       		.uleb128 0x2
 8606 30f9 08       		.byte	0x8
 8607 30fa 29       		.byte	0x29
 8608 30fb 3E       		.uleb128 0x3e
 8609 30fc 01       		.uleb128 0x1
 8610 30fd 52       		.byte	0x52
 8611 30fe 02       		.uleb128 0x2
 8612 30ff 91       		.byte	0x91
 8613 3100 60       		.sleb128 -32
 8614 3101 00       		.byte	0
 8615 3102 00       		.byte	0
 8616 3103 4B       		.uleb128 0x4b
 8617 3104 2E000000 		.4byte	.LVL191
 8618 3108 CF2F0000 		.4byte	0x2fcf
 8619 310c 17310000 		.4byte	0x3117
 8620 3110 3E       		.uleb128 0x3e
 8621 3111 01       		.uleb128 0x1
 8622 3112 50       		.byte	0x50
 8623 3113 02       		.uleb128 0x2
 8624 3114 74       		.byte	0x74
 8625 3115 00       		.sleb128 0
 8626 3116 00       		.byte	0
 8627 3117 4B       		.uleb128 0x4b
 8628 3118 36000000 		.4byte	.LVL194
 8629 311c 03300000 		.4byte	0x3003
 8630 3120 2B310000 		.4byte	0x312b
 8631 3124 3E       		.uleb128 0x3e
 8632 3125 01       		.uleb128 0x1
 8633 3126 50       		.byte	0x50
 8634 3127 02       		.uleb128 0x2
 8635 3128 74       		.byte	0x74
 8636 3129 00       		.sleb128 0
 8637 312a 00       		.byte	0
 8638 312b 4B       		.uleb128 0x4b
 8639 312c 80000000 		.4byte	.LVL202
 8640 3130 A8340000 		.4byte	0x34a8
 8641 3134 46310000 		.4byte	0x3146
 8642 3138 3E       		.uleb128 0x3e
 8643 3139 01       		.uleb128 0x1
 8644 313a 50       		.byte	0x50
 8645 313b 02       		.uleb128 0x2
 8646 313c 74       		.byte	0x74
 8647 313d 30       		.sleb128 48
 8648 313e 3E       		.uleb128 0x3e
 8649 313f 01       		.uleb128 0x1
 8650 3140 51       		.byte	0x51
 8651 3141 03       		.uleb128 0x3
 8652 3142 0A       		.byte	0xa
 8653 3143 0001     		.2byte	0x100
 8654 3145 00       		.byte	0
 8655 3146 4B       		.uleb128 0x4b
 8656 3147 8C000000 		.4byte	.LVL203
 8657 314b A8340000 		.4byte	0x34a8
 8658 314f 61310000 		.4byte	0x3161
 8659 3153 3E       		.uleb128 0x3e
ARM GAS  C:\Users\haske\AppData\Local\Temp\ccN8jSR9.s 			page 183


 8660 3154 01       		.uleb128 0x1
 8661 3155 50       		.byte	0x50
 8662 3156 03       		.uleb128 0x3
 8663 3157 74       		.byte	0x74
 8664 3158 B002     		.sleb128 304
 8665 315a 3E       		.uleb128 0x3e
 8666 315b 01       		.uleb128 0x1
 8667 315c 51       		.byte	0x51
 8668 315d 02       		.uleb128 0x2
 8669 315e 08       		.byte	0x8
 8670 315f 20       		.byte	0x20
 8671 3160 00       		.byte	0
 8672 3161 49       		.uleb128 0x49
 8673 3162 9E000000 		.4byte	.LVL204
 8674 3166 38350000 		.4byte	0x3538
 8675 316a 3D       		.uleb128 0x3d
 8676 316b A8000000 		.4byte	.LVL205
 8677 316f B2350000 		.4byte	0x35b2
 8678 3173 3E       		.uleb128 0x3e
 8679 3174 01       		.uleb128 0x1
 8680 3175 50       		.byte	0x50
 8681 3176 01       		.uleb128 0x1
 8682 3177 30       		.byte	0x30
 8683 3178 3E       		.uleb128 0x3e
 8684 3179 01       		.uleb128 0x1
 8685 317a 51       		.byte	0x51
 8686 317b 05       		.uleb128 0x5
 8687 317c 03       		.byte	0x3
 8688 317d 00000000 		.4byte	invalidate_layout_cb
 8689 3181 3E       		.uleb128 0x3e
 8690 3182 01       		.uleb128 0x1
 8691 3183 52       		.byte	0x52
 8692 3184 01       		.uleb128 0x1
 8693 3185 30       		.byte	0x30
 8694 3186 00       		.byte	0
 8695 3187 00       		.byte	0
 8696 3188 4F       		.uleb128 0x4f
 8697 3189 D1250000 		.4byte	.LASF713
 8698 318d 01       		.byte	0x1
 8699 318e 8601     		.2byte	0x186
 8700 3190 01010000 		.4byte	0x101
 8701 3194 00000000 		.4byte	.LFB168
 8702 3198 3E000000 		.4byte	.LFE168-.LFB168
 8703 319c 01       		.uleb128 0x1
 8704 319d 9C       		.byte	0x9c
 8705 319e BC310000 		.4byte	0x31bc
 8706 31a2 31       		.uleb128 0x31
 8707 31a3 C31A0000 		.4byte	.LASF438
 8708 31a7 01       		.byte	0x1
 8709 31a8 8601     		.2byte	0x186
 8710 31aa BE2E0000 		.4byte	0x2ebe
 8711 31ae 740C0000 		.4byte	.LLST87
 8712 31b2 49       		.uleb128 0x49
 8713 31b3 0A000000 		.4byte	.LVL211
 8714 31b7 E92E0000 		.4byte	0x2ee9
 8715 31bb 00       		.byte	0
 8716 31bc 4F       		.uleb128 0x4f
ARM GAS  C:\Users\haske\AppData\Local\Temp\ccN8jSR9.s 			page 184


 8717 31bd F71F0000 		.4byte	.LASF714
 8718 31c1 01       		.byte	0x1
 8719 31c2 9D01     		.2byte	0x19d
 8720 31c4 01010000 		.4byte	0x101
 8721 31c8 00000000 		.4byte	.LFB169
 8722 31cc 3E000000 		.4byte	.LFE169-.LFB169
 8723 31d0 01       		.uleb128 0x1
 8724 31d1 9C       		.byte	0x9c
 8725 31d2 F0310000 		.4byte	0x31f0
 8726 31d6 31       		.uleb128 0x31
 8727 31d7 C31A0000 		.4byte	.LASF438
 8728 31db 01       		.byte	0x1
 8729 31dc 9D01     		.2byte	0x19d
 8730 31de BE2E0000 		.4byte	0x2ebe
 8731 31e2 B60C0000 		.4byte	.LLST88
 8732 31e6 49       		.uleb128 0x49
 8733 31e7 0A000000 		.4byte	.LVL218
 8734 31eb E92E0000 		.4byte	0x2ee9
 8735 31ef 00       		.byte	0
 8736 31f0 4F       		.uleb128 0x4f
 8737 31f1 26110000 		.4byte	.LASF715
 8738 31f5 01       		.byte	0x1
 8739 31f6 B401     		.2byte	0x1b4
 8740 31f8 01010000 		.4byte	0x101
 8741 31fc 00000000 		.4byte	.LFB170
 8742 3200 4C000000 		.4byte	.LFE170-.LFB170
 8743 3204 01       		.uleb128 0x1
 8744 3205 9C       		.byte	0x9c
 8745 3206 36320000 		.4byte	0x3236
 8746 320a 31       		.uleb128 0x31
 8747 320b C31A0000 		.4byte	.LASF438
 8748 320f 01       		.byte	0x1
 8749 3210 B401     		.2byte	0x1b4
 8750 3212 BE2E0000 		.4byte	0x2ebe
 8751 3216 F80C0000 		.4byte	.LLST89
 8752 321a 49       		.uleb128 0x49
 8753 321b 0A000000 		.4byte	.LVL225
 8754 321f E92E0000 		.4byte	0x2ee9
 8755 3223 49       		.uleb128 0x49
 8756 3224 2A000000 		.4byte	.LVL228
 8757 3228 88310000 		.4byte	0x3188
 8758 322c 49       		.uleb128 0x49
 8759 322d 38000000 		.4byte	.LVL230
 8760 3231 88310000 		.4byte	0x3188
 8761 3235 00       		.byte	0
 8762 3236 4F       		.uleb128 0x4f
 8763 3237 14200000 		.4byte	.LASF716
 8764 323b 01       		.byte	0x1
 8765 323c CE01     		.2byte	0x1ce
 8766 323e 01010000 		.4byte	0x101
 8767 3242 00000000 		.4byte	.LFB171
 8768 3246 4C000000 		.4byte	.LFE171-.LFB171
 8769 324a 01       		.uleb128 0x1
 8770 324b 9C       		.byte	0x9c
 8771 324c 7C320000 		.4byte	0x327c
 8772 3250 31       		.uleb128 0x31
 8773 3251 C31A0000 		.4byte	.LASF438
ARM GAS  C:\Users\haske\AppData\Local\Temp\ccN8jSR9.s 			page 185


 8774 3255 01       		.byte	0x1
 8775 3256 CE01     		.2byte	0x1ce
 8776 3258 BE2E0000 		.4byte	0x2ebe
 8777 325c 500D0000 		.4byte	.LLST90
 8778 3260 49       		.uleb128 0x49
 8779 3261 0A000000 		.4byte	.LVL236
 8780 3265 E92E0000 		.4byte	0x2ee9
 8781 3269 49       		.uleb128 0x49
 8782 326a 2A000000 		.4byte	.LVL239
 8783 326e BC310000 		.4byte	0x31bc
 8784 3272 49       		.uleb128 0x49
 8785 3273 38000000 		.4byte	.LVL241
 8786 3277 BC310000 		.4byte	0x31bc
 8787 327b 00       		.byte	0
 8788 327c 4F       		.uleb128 0x4f
 8789 327d 43070000 		.4byte	.LASF717
 8790 3281 01       		.byte	0x1
 8791 3282 E801     		.2byte	0x1e8
 8792 3284 AA020000 		.4byte	0x2aa
 8793 3288 00000000 		.4byte	.LFB172
 8794 328c 22000000 		.4byte	.LFE172-.LFB172
 8795 3290 01       		.uleb128 0x1
 8796 3291 9C       		.byte	0x9c
 8797 3292 B0320000 		.4byte	0x32b0
 8798 3296 31       		.uleb128 0x31
 8799 3297 C31A0000 		.4byte	.LASF438
 8800 329b 01       		.byte	0x1
 8801 329c E801     		.2byte	0x1e8
 8802 329e BE2E0000 		.4byte	0x2ebe
 8803 32a2 A80D0000 		.4byte	.LLST91
 8804 32a6 49       		.uleb128 0x49
 8805 32a7 0A000000 		.4byte	.LVL247
 8806 32ab E92E0000 		.4byte	0x2ee9
 8807 32af 00       		.byte	0
 8808 32b0 4F       		.uleb128 0x4f
 8809 32b1 A51D0000 		.4byte	.LASF718
 8810 32b5 01       		.byte	0x1
 8811 32b6 F501     		.2byte	0x1f5
 8812 32b8 01010000 		.4byte	0x101
 8813 32bc 00000000 		.4byte	.LFB173
 8814 32c0 1C000000 		.4byte	.LFE173-.LFB173
 8815 32c4 01       		.uleb128 0x1
 8816 32c5 9C       		.byte	0x9c
 8817 32c6 E4320000 		.4byte	0x32e4
 8818 32ca 31       		.uleb128 0x31
 8819 32cb C31A0000 		.4byte	.LASF438
 8820 32cf 01       		.byte	0x1
 8821 32d0 F501     		.2byte	0x1f5
 8822 32d2 E4320000 		.4byte	0x32e4
 8823 32d6 DF0D0000 		.4byte	.LLST92
 8824 32da 49       		.uleb128 0x49
 8825 32db 0A000000 		.4byte	.LVL252
 8826 32df E92E0000 		.4byte	0x2ee9
 8827 32e3 00       		.byte	0
 8828 32e4 0B       		.uleb128 0xb
 8829 32e5 04       		.byte	0x4
 8830 32e6 EA320000 		.4byte	0x32ea
ARM GAS  C:\Users\haske\AppData\Local\Temp\ccN8jSR9.s 			page 186


 8831 32ea 0C       		.uleb128 0xc
 8832 32eb B3180000 		.4byte	0x18b3
 8833 32ef 4C       		.uleb128 0x4c
 8834 32f0 3D1C0000 		.4byte	.LASF719
 8835 32f4 01       		.byte	0x1
 8836 32f5 0002     		.2byte	0x200
 8837 32f7 00000000 		.4byte	.LFB174
 8838 32fb 0C000000 		.4byte	.LFE174-.LFB174
 8839 32ff 01       		.uleb128 0x1
 8840 3300 9C       		.byte	0x9c
 8841 3301 14330000 		.4byte	0x3314
 8842 3305 4D       		.uleb128 0x4d
 8843 3306 5C070000 		.4byte	.LASF688
 8844 330a 01       		.byte	0x1
 8845 330b 0002     		.2byte	0x200
 8846 330d F0260000 		.4byte	0x26f0
 8847 3311 01       		.uleb128 0x1
 8848 3312 50       		.byte	0x50
 8849 3313 00       		.byte	0
 8850 3314 4F       		.uleb128 0x4f
 8851 3315 E0070000 		.4byte	.LASF720
 8852 3319 01       		.byte	0x1
 8853 331a 0C02     		.2byte	0x20c
 8854 331c AA020000 		.4byte	0x2aa
 8855 3320 00000000 		.4byte	.LFB175
 8856 3324 0C000000 		.4byte	.LFE175-.LFB175
 8857 3328 01       		.uleb128 0x1
 8858 3329 9C       		.byte	0x9c
 8859 332a 3F330000 		.4byte	0x333f
 8860 332e 31       		.uleb128 0x31
 8861 332f 5C070000 		.4byte	.LASF688
 8862 3333 01       		.byte	0x1
 8863 3334 0C02     		.2byte	0x20c
 8864 3336 F0260000 		.4byte	0x26f0
 8865 333a 160E0000 		.4byte	.LLST93
 8866 333e 00       		.byte	0
 8867 333f 4F       		.uleb128 0x4f
 8868 3340 03080000 		.4byte	.LASF721
 8869 3344 01       		.byte	0x1
 8870 3345 1602     		.2byte	0x216
 8871 3347 BE2E0000 		.4byte	0x2ebe
 8872 334b 00000000 		.4byte	.LFB176
 8873 334f 1C000000 		.4byte	.LFE176-.LFB176
 8874 3353 01       		.uleb128 0x1
 8875 3354 9C       		.byte	0x9c
 8876 3355 84330000 		.4byte	0x3384
 8877 3359 31       		.uleb128 0x31
 8878 335a C31A0000 		.4byte	.LASF438
 8879 335e 01       		.byte	0x1
 8880 335f 1602     		.2byte	0x216
 8881 3361 BE2E0000 		.4byte	0x2ebe
 8882 3365 370E0000 		.4byte	.LLST94
 8883 3369 49       		.uleb128 0x49
 8884 336a 0C000000 		.4byte	.LVL261
 8885 336e 7B350000 		.4byte	0x357b
 8886 3372 3D       		.uleb128 0x3d
 8887 3373 16000000 		.4byte	.LVL264
ARM GAS  C:\Users\haske\AppData\Local\Temp\ccN8jSR9.s 			page 187


 8888 3377 BD350000 		.4byte	0x35bd
 8889 337b 3E       		.uleb128 0x3e
 8890 337c 01       		.uleb128 0x1
 8891 337d 51       		.byte	0x51
 8892 337e 03       		.uleb128 0x3
 8893 337f F3       		.byte	0xf3
 8894 3380 01       		.uleb128 0x1
 8895 3381 50       		.byte	0x50
 8896 3382 00       		.byte	0
 8897 3383 00       		.byte	0
 8898 3384 4F       		.uleb128 0x4f
 8899 3385 D51D0000 		.4byte	.LASF722
 8900 3389 01       		.byte	0x1
 8901 338a 2302     		.2byte	0x223
 8902 338c 0B160000 		.4byte	0x160b
 8903 3390 00000000 		.4byte	.LFB177
 8904 3394 06000000 		.4byte	.LFE177-.LFB177
 8905 3398 01       		.uleb128 0x1
 8906 3399 9C       		.byte	0x9c
 8907 339a AF330000 		.4byte	0x33af
 8908 339e 31       		.uleb128 0x31
 8909 339f C31A0000 		.4byte	.LASF438
 8910 33a3 01       		.byte	0x1
 8911 33a4 2302     		.2byte	0x223
 8912 33a6 BE2E0000 		.4byte	0x2ebe
 8913 33aa 7C0E0000 		.4byte	.LLST95
 8914 33ae 00       		.byte	0
 8915 33af 4C       		.uleb128 0x4c
 8916 33b0 EB060000 		.4byte	.LASF723
 8917 33b4 01       		.byte	0x1
 8918 33b5 2D02     		.2byte	0x22d
 8919 33b7 00000000 		.4byte	.LFB178
 8920 33bb 2A000000 		.4byte	.LFE178-.LFB178
 8921 33bf 01       		.uleb128 0x1
 8922 33c0 9C       		.byte	0x9c
 8923 33c1 F8330000 		.4byte	0x33f8
 8924 33c5 31       		.uleb128 0x31
 8925 33c6 C31A0000 		.4byte	.LASF438
 8926 33ca 01       		.byte	0x1
 8927 33cb 2D02     		.2byte	0x22d
 8928 33cd BE2E0000 		.4byte	0x2ebe
 8929 33d1 9D0E0000 		.4byte	.LLST96
 8930 33d5 31       		.uleb128 0x31
 8931 33d6 6F220000 		.4byte	.LASF724
 8932 33da 01       		.byte	0x1
 8933 33db 2D02     		.2byte	0x22d
 8934 33dd 82140000 		.4byte	0x1482
 8935 33e1 C90E0000 		.4byte	.LLST97
 8936 33e5 49       		.uleb128 0x49
 8937 33e6 0C000000 		.4byte	.LVL268
 8938 33ea E92E0000 		.4byte	0x2ee9
 8939 33ee 49       		.uleb128 0x49
 8940 33ef 28000000 		.4byte	.LVL269
 8941 33f3 37300000 		.4byte	0x3037
 8942 33f7 00       		.byte	0
 8943 33f8 4F       		.uleb128 0x4f
 8944 33f9 C01D0000 		.4byte	.LASF725
ARM GAS  C:\Users\haske\AppData\Local\Temp\ccN8jSR9.s 			page 188


 8945 33fd 01       		.byte	0x1
 8946 33fe 3B02     		.2byte	0x23b
 8947 3400 82140000 		.4byte	0x1482
 8948 3404 00000000 		.4byte	.LFB179
 8949 3408 1C000000 		.4byte	.LFE179-.LFB179
 8950 340c 01       		.uleb128 0x1
 8951 340d 9C       		.byte	0x9c
 8952 340e 2C340000 		.4byte	0x342c
 8953 3412 31       		.uleb128 0x31
 8954 3413 C31A0000 		.4byte	.LASF438
 8955 3417 01       		.byte	0x1
 8956 3418 3B02     		.2byte	0x23b
 8957 341a BE2E0000 		.4byte	0x2ebe
 8958 341e EA0E0000 		.4byte	.LLST98
 8959 3422 49       		.uleb128 0x49
 8960 3423 0A000000 		.4byte	.LVL271
 8961 3427 E92E0000 		.4byte	0x2ee9
 8962 342b 00       		.byte	0
 8963 342c 4C       		.uleb128 0x4c
 8964 342d 10000000 		.4byte	.LASF726
 8965 3431 01       		.byte	0x1
 8966 3432 4202     		.2byte	0x242
 8967 3434 00000000 		.4byte	.LFB180
 8968 3438 4C000000 		.4byte	.LFE180-.LFB180
 8969 343c 01       		.uleb128 0x1
 8970 343d 9C       		.byte	0x9c
 8971 343e 60340000 		.4byte	0x3460
 8972 3442 4D       		.uleb128 0x4d
 8973 3443 5C070000 		.4byte	.LASF688
 8974 3447 01       		.byte	0x1
 8975 3448 4202     		.2byte	0x242
 8976 344a F0260000 		.4byte	0x26f0
 8977 344e 01       		.uleb128 0x1
 8978 344f 50       		.byte	0x50
 8979 3450 32       		.uleb128 0x32
 8980 3451 636600   		.ascii	"cf\000"
 8981 3454 01       		.byte	0x1
 8982 3455 4202     		.2byte	0x242
 8983 3457 BB090000 		.4byte	0x9bb
 8984 345b 210F0000 		.4byte	.LLST99
 8985 345f 00       		.byte	0
 8986 3460 53       		.uleb128 0x53
 8987 3461 CC0C0000 		.4byte	.LASF727
 8988 3465 01       		.byte	0x1
 8989 3466 43       		.byte	0x43
 8990 3467 BE2E0000 		.4byte	0x2ebe
 8991 346b 05       		.uleb128 0x5
 8992 346c 03       		.byte	0x3
 8993 346d 10000000 		.4byte	disp_def
 8994 3471 54       		.uleb128 0x54
 8995 3472 00270000 		.4byte	.LASF728
 8996 3476 08       		.byte	0x8
 8997 3477 94       		.byte	0x94
 8998 3478 520D0000 		.4byte	0xd52
 8999 347c 54       		.uleb128 0x54
 9000 347d B5070000 		.4byte	.LASF729
 9001 3481 20       		.byte	0x20
ARM GAS  C:\Users\haske\AppData\Local\Temp\ccN8jSR9.s 			page 189


 9002 3482 4C       		.byte	0x4c
 9003 3483 45130000 		.4byte	0x1345
 9004 3487 55       		.uleb128 0x55
 9005 3488 1C080000 		.4byte	.LASF730
 9006 348c 1C080000 		.4byte	.LASF730
 9007 3490 21       		.byte	0x21
 9008 3491 93       		.byte	0x93
 9009 3492 55       		.uleb128 0x55
 9010 3493 60240000 		.4byte	.LASF731
 9011 3497 60240000 		.4byte	.LASF731
 9012 349b 0D       		.byte	0xd
 9013 349c B4       		.byte	0xb4
 9014 349d 55       		.uleb128 0x55
 9015 349e 860D0000 		.4byte	.LASF732
 9016 34a2 860D0000 		.4byte	.LASF732
 9017 34a6 0D       		.byte	0xd
 9018 34a7 C8       		.byte	0xc8
 9019 34a8 55       		.uleb128 0x55
 9020 34a9 5A260000 		.4byte	.LASF733
 9021 34ad 5A260000 		.4byte	.LASF733
 9022 34b1 22       		.byte	0x22
 9023 34b2 DE       		.byte	0xde
 9024 34b3 55       		.uleb128 0x55
 9025 34b4 2C250000 		.4byte	.LASF734
 9026 34b8 2C250000 		.4byte	.LASF734
 9027 34bc 22       		.byte	0x22
 9028 34bd 4A       		.byte	0x4a
 9029 34be 55       		.uleb128 0x55
 9030 34bf CA240000 		.4byte	.LASF735
 9031 34c3 CA240000 		.4byte	.LASF735
 9032 34c7 03       		.byte	0x3
 9033 34c8 56       		.byte	0x56
 9034 34c9 55       		.uleb128 0x55
 9035 34ca 9A110000 		.4byte	.LASF736
 9036 34ce 9A110000 		.4byte	.LASF736
 9037 34d2 16       		.byte	0x16
 9038 34d3 36       		.byte	0x36
 9039 34d4 55       		.uleb128 0x55
 9040 34d5 89050000 		.4byte	.LASF737
 9041 34d9 89050000 		.4byte	.LASF737
 9042 34dd 17       		.byte	0x17
 9043 34de 6A       		.byte	0x6a
 9044 34df 55       		.uleb128 0x55
 9045 34e0 3C010000 		.4byte	.LASF738
 9046 34e4 3C010000 		.4byte	.LASF738
 9047 34e8 22       		.byte	0x22
 9048 34e9 50       		.byte	0x50
 9049 34ea 55       		.uleb128 0x55
 9050 34eb 95130000 		.4byte	.LASF739
 9051 34ef 95130000 		.4byte	.LASF739
 9052 34f3 23       		.byte	0x23
 9053 34f4 34       		.byte	0x34
 9054 34f5 56       		.uleb128 0x56
 9055 34f6 C41F0000 		.4byte	.LASF740
 9056 34fa C41F0000 		.4byte	.LASF740
 9057 34fe 02       		.byte	0x2
 9058 34ff B002     		.2byte	0x2b0
ARM GAS  C:\Users\haske\AppData\Local\Temp\ccN8jSR9.s 			page 190


 9059 3501 55       		.uleb128 0x55
 9060 3502 BE220000 		.4byte	.LASF741
 9061 3506 BE220000 		.4byte	.LASF741
 9062 350a 23       		.byte	0x23
 9063 350b 27       		.byte	0x27
 9064 350c 55       		.uleb128 0x55
 9065 350d 5A220000 		.4byte	.LASF742
 9066 3511 5A220000 		.4byte	.LASF742
 9067 3515 23       		.byte	0x23
 9068 3516 2E       		.byte	0x2e
 9069 3517 55       		.uleb128 0x55
 9070 3518 D0230000 		.4byte	.LASF743
 9071 351c D0230000 		.4byte	.LASF743
 9072 3520 0E       		.byte	0xe
 9073 3521 E0       		.byte	0xe0
 9074 3522 55       		.uleb128 0x55
 9075 3523 271B0000 		.4byte	.LASF744
 9076 3527 271B0000 		.4byte	.LASF744
 9077 352b 0E       		.byte	0xe
 9078 352c F3       		.byte	0xf3
 9079 352d 55       		.uleb128 0x55
 9080 352e 84270000 		.4byte	.LASF745
 9081 3532 84270000 		.4byte	.LASF745
 9082 3536 1D       		.byte	0x1d
 9083 3537 3F       		.byte	0x3f
 9084 3538 56       		.uleb128 0x56
 9085 3539 A02D0000 		.4byte	.LASF746
 9086 353d A02D0000 		.4byte	.LASF746
 9087 3541 21       		.byte	0x21
 9088 3542 7D01     		.2byte	0x17d
 9089 3544 55       		.uleb128 0x55
 9090 3545 0F240000 		.4byte	.LASF747
 9091 3549 0F240000 		.4byte	.LASF747
 9092 354d 17       		.byte	0x17
 9093 354e 8C       		.byte	0x8c
 9094 354f 55       		.uleb128 0x55
 9095 3550 EA1D0000 		.4byte	.LASF748
 9096 3554 EA1D0000 		.4byte	.LASF748
 9097 3558 1A       		.byte	0x1a
 9098 3559 DF       		.byte	0xdf
 9099 355a 55       		.uleb128 0x55
 9100 355b D82A0000 		.4byte	.LASF749
 9101 355f D82A0000 		.4byte	.LASF749
 9102 3563 1C       		.byte	0x1c
 9103 3564 31       		.byte	0x31
 9104 3565 55       		.uleb128 0x55
 9105 3566 F1270000 		.4byte	.LASF750
 9106 356a F1270000 		.4byte	.LASF750
 9107 356e 16       		.byte	0x16
 9108 356f 4D       		.byte	0x4d
 9109 3570 55       		.uleb128 0x55
 9110 3571 202D0000 		.4byte	.LASF751
 9111 3575 202D0000 		.4byte	.LASF751
 9112 3579 17       		.byte	0x17
 9113 357a 70       		.byte	0x70
 9114 357b 55       		.uleb128 0x55
 9115 357c 932C0000 		.4byte	.LASF752
ARM GAS  C:\Users\haske\AppData\Local\Temp\ccN8jSR9.s 			page 191


 9116 3580 932C0000 		.4byte	.LASF752
 9117 3584 16       		.byte	0x16
 9118 3585 64       		.byte	0x64
 9119 3586 55       		.uleb128 0x55
 9120 3587 1E2B0000 		.4byte	.LASF753
 9121 358b 1E2B0000 		.4byte	.LASF753
 9122 358f 21       		.byte	0x21
 9123 3590 D2       		.byte	0xd2
 9124 3591 55       		.uleb128 0x55
 9125 3592 3E2D0000 		.4byte	.LASF754
 9126 3596 3E2D0000 		.4byte	.LASF754
 9127 359a 07       		.byte	0x7
 9128 359b 8F       		.byte	0x8f
 9129 359c 55       		.uleb128 0x55
 9130 359d BF2B0000 		.4byte	.LASF755
 9131 35a1 BF2B0000 		.4byte	.LASF755
 9132 35a5 07       		.byte	0x7
 9133 35a6 96       		.byte	0x96
 9134 35a7 55       		.uleb128 0x55
 9135 35a8 7B050000 		.4byte	.LASF756
 9136 35ac 7B050000 		.4byte	.LASF756
 9137 35b0 1F       		.byte	0x1f
 9138 35b1 92       		.byte	0x92
 9139 35b2 55       		.uleb128 0x55
 9140 35b3 09250000 		.4byte	.LASF757
 9141 35b7 09250000 		.4byte	.LASF757
 9142 35bb 1C       		.byte	0x1c
 9143 35bc A1       		.byte	0xa1
 9144 35bd 55       		.uleb128 0x55
 9145 35be 78240000 		.4byte	.LASF758
 9146 35c2 78240000 		.4byte	.LASF758
 9147 35c6 16       		.byte	0x16
 9148 35c7 73       		.byte	0x73
 9149 35c8 00       		.byte	0
 9150              		.section	.debug_abbrev,"",%progbits
 9151              	.Ldebug_abbrev0:
 9152 0000 01       		.uleb128 0x1
 9153 0001 11       		.uleb128 0x11
 9154 0002 01       		.byte	0x1
 9155 0003 25       		.uleb128 0x25
 9156 0004 0E       		.uleb128 0xe
 9157 0005 13       		.uleb128 0x13
 9158 0006 0B       		.uleb128 0xb
 9159 0007 03       		.uleb128 0x3
 9160 0008 0E       		.uleb128 0xe
 9161 0009 1B       		.uleb128 0x1b
 9162 000a 0E       		.uleb128 0xe
 9163 000b 55       		.uleb128 0x55
 9164 000c 17       		.uleb128 0x17
 9165 000d 11       		.uleb128 0x11
 9166 000e 01       		.uleb128 0x1
 9167 000f 10       		.uleb128 0x10
 9168 0010 17       		.uleb128 0x17
 9169 0011 00       		.byte	0
 9170 0012 00       		.byte	0
 9171 0013 02       		.uleb128 0x2
 9172 0014 16       		.uleb128 0x16
ARM GAS  C:\Users\haske\AppData\Local\Temp\ccN8jSR9.s 			page 192


 9173 0015 00       		.byte	0
 9174 0016 03       		.uleb128 0x3
 9175 0017 0E       		.uleb128 0xe
 9176 0018 3A       		.uleb128 0x3a
 9177 0019 0B       		.uleb128 0xb
 9178 001a 3B       		.uleb128 0x3b
 9179 001b 0B       		.uleb128 0xb
 9180 001c 49       		.uleb128 0x49
 9181 001d 13       		.uleb128 0x13
 9182 001e 00       		.byte	0
 9183 001f 00       		.byte	0
 9184 0020 03       		.uleb128 0x3
 9185 0021 24       		.uleb128 0x24
 9186 0022 00       		.byte	0
 9187 0023 0B       		.uleb128 0xb
 9188 0024 0B       		.uleb128 0xb
 9189 0025 3E       		.uleb128 0x3e
 9190 0026 0B       		.uleb128 0xb
 9191 0027 03       		.uleb128 0x3
 9192 0028 0E       		.uleb128 0xe
 9193 0029 00       		.byte	0
 9194 002a 00       		.byte	0
 9195 002b 04       		.uleb128 0x4
 9196 002c 24       		.uleb128 0x24
 9197 002d 00       		.byte	0
 9198 002e 0B       		.uleb128 0xb
 9199 002f 0B       		.uleb128 0xb
 9200 0030 3E       		.uleb128 0x3e
 9201 0031 0B       		.uleb128 0xb
 9202 0032 03       		.uleb128 0x3
 9203 0033 08       		.uleb128 0x8
 9204 0034 00       		.byte	0
 9205 0035 00       		.byte	0
 9206 0036 05       		.uleb128 0x5
 9207 0037 13       		.uleb128 0x13
 9208 0038 01       		.byte	0x1
 9209 0039 0B       		.uleb128 0xb
 9210 003a 0B       		.uleb128 0xb
 9211 003b 3A       		.uleb128 0x3a
 9212 003c 0B       		.uleb128 0xb
 9213 003d 3B       		.uleb128 0x3b
 9214 003e 0B       		.uleb128 0xb
 9215 003f 01       		.uleb128 0x1
 9216 0040 13       		.uleb128 0x13
 9217 0041 00       		.byte	0
 9218 0042 00       		.byte	0
 9219 0043 06       		.uleb128 0x6
 9220 0044 0D       		.uleb128 0xd
 9221 0045 00       		.byte	0
 9222 0046 03       		.uleb128 0x3
 9223 0047 08       		.uleb128 0x8
 9224 0048 3A       		.uleb128 0x3a
 9225 0049 0B       		.uleb128 0xb
 9226 004a 3B       		.uleb128 0x3b
 9227 004b 0B       		.uleb128 0xb
 9228 004c 49       		.uleb128 0x49
 9229 004d 13       		.uleb128 0x13
ARM GAS  C:\Users\haske\AppData\Local\Temp\ccN8jSR9.s 			page 193


 9230 004e 38       		.uleb128 0x38
 9231 004f 0B       		.uleb128 0xb
 9232 0050 00       		.byte	0
 9233 0051 00       		.byte	0
 9234 0052 07       		.uleb128 0x7
 9235 0053 0D       		.uleb128 0xd
 9236 0054 00       		.byte	0
 9237 0055 03       		.uleb128 0x3
 9238 0056 0E       		.uleb128 0xe
 9239 0057 3A       		.uleb128 0x3a
 9240 0058 0B       		.uleb128 0xb
 9241 0059 3B       		.uleb128 0x3b
 9242 005a 0B       		.uleb128 0xb
 9243 005b 49       		.uleb128 0x49
 9244 005c 13       		.uleb128 0x13
 9245 005d 38       		.uleb128 0x38
 9246 005e 0B       		.uleb128 0xb
 9247 005f 00       		.byte	0
 9248 0060 00       		.byte	0
 9249 0061 08       		.uleb128 0x8
 9250 0062 0D       		.uleb128 0xd
 9251 0063 00       		.byte	0
 9252 0064 03       		.uleb128 0x3
 9253 0065 08       		.uleb128 0x8
 9254 0066 3A       		.uleb128 0x3a
 9255 0067 0B       		.uleb128 0xb
 9256 0068 3B       		.uleb128 0x3b
 9257 0069 0B       		.uleb128 0xb
 9258 006a 49       		.uleb128 0x49
 9259 006b 13       		.uleb128 0x13
 9260 006c 0B       		.uleb128 0xb
 9261 006d 0B       		.uleb128 0xb
 9262 006e 0D       		.uleb128 0xd
 9263 006f 0B       		.uleb128 0xb
 9264 0070 0C       		.uleb128 0xc
 9265 0071 0B       		.uleb128 0xb
 9266 0072 38       		.uleb128 0x38
 9267 0073 0B       		.uleb128 0xb
 9268 0074 00       		.byte	0
 9269 0075 00       		.byte	0
 9270 0076 09       		.uleb128 0x9
 9271 0077 0D       		.uleb128 0xd
 9272 0078 00       		.byte	0
 9273 0079 03       		.uleb128 0x3
 9274 007a 0E       		.uleb128 0xe
 9275 007b 3A       		.uleb128 0x3a
 9276 007c 0B       		.uleb128 0xb
 9277 007d 3B       		.uleb128 0x3b
 9278 007e 0B       		.uleb128 0xb
 9279 007f 49       		.uleb128 0x49
 9280 0080 13       		.uleb128 0x13
 9281 0081 0B       		.uleb128 0xb
 9282 0082 0B       		.uleb128 0xb
 9283 0083 0D       		.uleb128 0xd
 9284 0084 0B       		.uleb128 0xb
 9285 0085 0C       		.uleb128 0xc
 9286 0086 0B       		.uleb128 0xb
ARM GAS  C:\Users\haske\AppData\Local\Temp\ccN8jSR9.s 			page 194


 9287 0087 38       		.uleb128 0x38
 9288 0088 0B       		.uleb128 0xb
 9289 0089 00       		.byte	0
 9290 008a 00       		.byte	0
 9291 008b 0A       		.uleb128 0xa
 9292 008c 13       		.uleb128 0x13
 9293 008d 01       		.byte	0x1
 9294 008e 03       		.uleb128 0x3
 9295 008f 0E       		.uleb128 0xe
 9296 0090 0B       		.uleb128 0xb
 9297 0091 0B       		.uleb128 0xb
 9298 0092 3A       		.uleb128 0x3a
 9299 0093 0B       		.uleb128 0xb
 9300 0094 3B       		.uleb128 0x3b
 9301 0095 0B       		.uleb128 0xb
 9302 0096 01       		.uleb128 0x1
 9303 0097 13       		.uleb128 0x13
 9304 0098 00       		.byte	0
 9305 0099 00       		.byte	0
 9306 009a 0B       		.uleb128 0xb
 9307 009b 0F       		.uleb128 0xf
 9308 009c 00       		.byte	0
 9309 009d 0B       		.uleb128 0xb
 9310 009e 0B       		.uleb128 0xb
 9311 009f 49       		.uleb128 0x49
 9312 00a0 13       		.uleb128 0x13
 9313 00a1 00       		.byte	0
 9314 00a2 00       		.byte	0
 9315 00a3 0C       		.uleb128 0xc
 9316 00a4 26       		.uleb128 0x26
 9317 00a5 00       		.byte	0
 9318 00a6 49       		.uleb128 0x49
 9319 00a7 13       		.uleb128 0x13
 9320 00a8 00       		.byte	0
 9321 00a9 00       		.byte	0
 9322 00aa 0D       		.uleb128 0xd
 9323 00ab 15       		.uleb128 0x15
 9324 00ac 01       		.byte	0x1
 9325 00ad 27       		.uleb128 0x27
 9326 00ae 19       		.uleb128 0x19
 9327 00af 49       		.uleb128 0x49
 9328 00b0 13       		.uleb128 0x13
 9329 00b1 01       		.uleb128 0x1
 9330 00b2 13       		.uleb128 0x13
 9331 00b3 00       		.byte	0
 9332 00b4 00       		.byte	0
 9333 00b5 0E       		.uleb128 0xe
 9334 00b6 05       		.uleb128 0x5
 9335 00b7 00       		.byte	0
 9336 00b8 49       		.uleb128 0x49
 9337 00b9 13       		.uleb128 0x13
 9338 00ba 00       		.byte	0
 9339 00bb 00       		.byte	0
 9340 00bc 0F       		.uleb128 0xf
 9341 00bd 26       		.uleb128 0x26
 9342 00be 00       		.byte	0
 9343 00bf 00       		.byte	0
ARM GAS  C:\Users\haske\AppData\Local\Temp\ccN8jSR9.s 			page 195


 9344 00c0 00       		.byte	0
 9345 00c1 10       		.uleb128 0x10
 9346 00c2 0F       		.uleb128 0xf
 9347 00c3 00       		.byte	0
 9348 00c4 0B       		.uleb128 0xb
 9349 00c5 0B       		.uleb128 0xb
 9350 00c6 00       		.byte	0
 9351 00c7 00       		.byte	0
 9352 00c8 11       		.uleb128 0x11
 9353 00c9 04       		.uleb128 0x4
 9354 00ca 01       		.byte	0x1
 9355 00cb 0B       		.uleb128 0xb
 9356 00cc 0B       		.uleb128 0xb
 9357 00cd 49       		.uleb128 0x49
 9358 00ce 13       		.uleb128 0x13
 9359 00cf 3A       		.uleb128 0x3a
 9360 00d0 0B       		.uleb128 0xb
 9361 00d1 3B       		.uleb128 0x3b
 9362 00d2 0B       		.uleb128 0xb
 9363 00d3 01       		.uleb128 0x1
 9364 00d4 13       		.uleb128 0x13
 9365 00d5 00       		.byte	0
 9366 00d6 00       		.byte	0
 9367 00d7 12       		.uleb128 0x12
 9368 00d8 28       		.uleb128 0x28
 9369 00d9 00       		.byte	0
 9370 00da 03       		.uleb128 0x3
 9371 00db 0E       		.uleb128 0xe
 9372 00dc 1C       		.uleb128 0x1c
 9373 00dd 0B       		.uleb128 0xb
 9374 00de 00       		.byte	0
 9375 00df 00       		.byte	0
 9376 00e0 13       		.uleb128 0x13
 9377 00e1 17       		.uleb128 0x17
 9378 00e2 01       		.byte	0x1
 9379 00e3 0B       		.uleb128 0xb
 9380 00e4 0B       		.uleb128 0xb
 9381 00e5 3A       		.uleb128 0x3a
 9382 00e6 0B       		.uleb128 0xb
 9383 00e7 3B       		.uleb128 0x3b
 9384 00e8 0B       		.uleb128 0xb
 9385 00e9 01       		.uleb128 0x1
 9386 00ea 13       		.uleb128 0x13
 9387 00eb 00       		.byte	0
 9388 00ec 00       		.byte	0
 9389 00ed 14       		.uleb128 0x14
 9390 00ee 0D       		.uleb128 0xd
 9391 00ef 00       		.byte	0
 9392 00f0 03       		.uleb128 0x3
 9393 00f1 08       		.uleb128 0x8
 9394 00f2 3A       		.uleb128 0x3a
 9395 00f3 0B       		.uleb128 0xb
 9396 00f4 3B       		.uleb128 0x3b
 9397 00f5 0B       		.uleb128 0xb
 9398 00f6 49       		.uleb128 0x49
 9399 00f7 13       		.uleb128 0x13
 9400 00f8 00       		.byte	0
ARM GAS  C:\Users\haske\AppData\Local\Temp\ccN8jSR9.s 			page 196


 9401 00f9 00       		.byte	0
 9402 00fa 15       		.uleb128 0x15
 9403 00fb 0D       		.uleb128 0xd
 9404 00fc 00       		.byte	0
 9405 00fd 03       		.uleb128 0x3
 9406 00fe 0E       		.uleb128 0xe
 9407 00ff 3A       		.uleb128 0x3a
 9408 0100 0B       		.uleb128 0xb
 9409 0101 3B       		.uleb128 0x3b
 9410 0102 0B       		.uleb128 0xb
 9411 0103 49       		.uleb128 0x49
 9412 0104 13       		.uleb128 0x13
 9413 0105 00       		.byte	0
 9414 0106 00       		.byte	0
 9415 0107 16       		.uleb128 0x16
 9416 0108 04       		.uleb128 0x4
 9417 0109 01       		.byte	0x1
 9418 010a 0B       		.uleb128 0xb
 9419 010b 0B       		.uleb128 0xb
 9420 010c 49       		.uleb128 0x49
 9421 010d 13       		.uleb128 0x13
 9422 010e 3A       		.uleb128 0x3a
 9423 010f 0B       		.uleb128 0xb
 9424 0110 3B       		.uleb128 0x3b
 9425 0111 05       		.uleb128 0x5
 9426 0112 01       		.uleb128 0x1
 9427 0113 13       		.uleb128 0x13
 9428 0114 00       		.byte	0
 9429 0115 00       		.byte	0
 9430 0116 17       		.uleb128 0x17
 9431 0117 01       		.uleb128 0x1
 9432 0118 01       		.byte	0x1
 9433 0119 49       		.uleb128 0x49
 9434 011a 13       		.uleb128 0x13
 9435 011b 01       		.uleb128 0x1
 9436 011c 13       		.uleb128 0x13
 9437 011d 00       		.byte	0
 9438 011e 00       		.byte	0
 9439 011f 18       		.uleb128 0x18
 9440 0120 21       		.uleb128 0x21
 9441 0121 00       		.byte	0
 9442 0122 49       		.uleb128 0x49
 9443 0123 13       		.uleb128 0x13
 9444 0124 2F       		.uleb128 0x2f
 9445 0125 0B       		.uleb128 0xb
 9446 0126 00       		.byte	0
 9447 0127 00       		.byte	0
 9448 0128 19       		.uleb128 0x19
 9449 0129 28       		.uleb128 0x28
 9450 012a 00       		.byte	0
 9451 012b 03       		.uleb128 0x3
 9452 012c 0E       		.uleb128 0xe
 9453 012d 1C       		.uleb128 0x1c
 9454 012e 05       		.uleb128 0x5
 9455 012f 00       		.byte	0
 9456 0130 00       		.byte	0
 9457 0131 1A       		.uleb128 0x1a
ARM GAS  C:\Users\haske\AppData\Local\Temp\ccN8jSR9.s 			page 197


 9458 0132 16       		.uleb128 0x16
 9459 0133 00       		.byte	0
 9460 0134 03       		.uleb128 0x3
 9461 0135 0E       		.uleb128 0xe
 9462 0136 3A       		.uleb128 0x3a
 9463 0137 0B       		.uleb128 0xb
 9464 0138 3B       		.uleb128 0x3b
 9465 0139 05       		.uleb128 0x5
 9466 013a 49       		.uleb128 0x49
 9467 013b 13       		.uleb128 0x13
 9468 013c 00       		.byte	0
 9469 013d 00       		.byte	0
 9470 013e 1B       		.uleb128 0x1b
 9471 013f 13       		.uleb128 0x13
 9472 0140 01       		.byte	0x1
 9473 0141 0B       		.uleb128 0xb
 9474 0142 0B       		.uleb128 0xb
 9475 0143 3A       		.uleb128 0x3a
 9476 0144 0B       		.uleb128 0xb
 9477 0145 3B       		.uleb128 0x3b
 9478 0146 05       		.uleb128 0x5
 9479 0147 01       		.uleb128 0x1
 9480 0148 13       		.uleb128 0x13
 9481 0149 00       		.byte	0
 9482 014a 00       		.byte	0
 9483 014b 1C       		.uleb128 0x1c
 9484 014c 0D       		.uleb128 0xd
 9485 014d 00       		.byte	0
 9486 014e 03       		.uleb128 0x3
 9487 014f 0E       		.uleb128 0xe
 9488 0150 3A       		.uleb128 0x3a
 9489 0151 0B       		.uleb128 0xb
 9490 0152 3B       		.uleb128 0x3b
 9491 0153 05       		.uleb128 0x5
 9492 0154 49       		.uleb128 0x49
 9493 0155 13       		.uleb128 0x13
 9494 0156 38       		.uleb128 0x38
 9495 0157 0B       		.uleb128 0xb
 9496 0158 00       		.byte	0
 9497 0159 00       		.byte	0
 9498 015a 1D       		.uleb128 0x1d
 9499 015b 17       		.uleb128 0x17
 9500 015c 01       		.byte	0x1
 9501 015d 0B       		.uleb128 0xb
 9502 015e 0B       		.uleb128 0xb
 9503 015f 3A       		.uleb128 0x3a
 9504 0160 0B       		.uleb128 0xb
 9505 0161 3B       		.uleb128 0x3b
 9506 0162 05       		.uleb128 0x5
 9507 0163 01       		.uleb128 0x1
 9508 0164 13       		.uleb128 0x13
 9509 0165 00       		.byte	0
 9510 0166 00       		.byte	0
 9511 0167 1E       		.uleb128 0x1e
 9512 0168 0D       		.uleb128 0xd
 9513 0169 00       		.byte	0
 9514 016a 03       		.uleb128 0x3
ARM GAS  C:\Users\haske\AppData\Local\Temp\ccN8jSR9.s 			page 198


 9515 016b 0E       		.uleb128 0xe
 9516 016c 3A       		.uleb128 0x3a
 9517 016d 0B       		.uleb128 0xb
 9518 016e 3B       		.uleb128 0x3b
 9519 016f 05       		.uleb128 0x5
 9520 0170 49       		.uleb128 0x49
 9521 0171 13       		.uleb128 0x13
 9522 0172 00       		.byte	0
 9523 0173 00       		.byte	0
 9524 0174 1F       		.uleb128 0x1f
 9525 0175 0D       		.uleb128 0xd
 9526 0176 00       		.byte	0
 9527 0177 03       		.uleb128 0x3
 9528 0178 08       		.uleb128 0x8
 9529 0179 3A       		.uleb128 0x3a
 9530 017a 0B       		.uleb128 0xb
 9531 017b 3B       		.uleb128 0x3b
 9532 017c 05       		.uleb128 0x5
 9533 017d 49       		.uleb128 0x49
 9534 017e 13       		.uleb128 0x13
 9535 017f 38       		.uleb128 0x38
 9536 0180 0B       		.uleb128 0xb
 9537 0181 00       		.byte	0
 9538 0182 00       		.byte	0
 9539 0183 20       		.uleb128 0x20
 9540 0184 15       		.uleb128 0x15
 9541 0185 01       		.byte	0x1
 9542 0186 27       		.uleb128 0x27
 9543 0187 19       		.uleb128 0x19
 9544 0188 01       		.uleb128 0x1
 9545 0189 13       		.uleb128 0x13
 9546 018a 00       		.byte	0
 9547 018b 00       		.byte	0
 9548 018c 21       		.uleb128 0x21
 9549 018d 35       		.uleb128 0x35
 9550 018e 00       		.byte	0
 9551 018f 49       		.uleb128 0x49
 9552 0190 13       		.uleb128 0x13
 9553 0191 00       		.byte	0
 9554 0192 00       		.byte	0
 9555 0193 22       		.uleb128 0x22
 9556 0194 13       		.uleb128 0x13
 9557 0195 01       		.byte	0x1
 9558 0196 03       		.uleb128 0x3
 9559 0197 0E       		.uleb128 0xe
 9560 0198 0B       		.uleb128 0xb
 9561 0199 05       		.uleb128 0x5
 9562 019a 3A       		.uleb128 0x3a
 9563 019b 0B       		.uleb128 0xb
 9564 019c 3B       		.uleb128 0x3b
 9565 019d 0B       		.uleb128 0xb
 9566 019e 01       		.uleb128 0x1
 9567 019f 13       		.uleb128 0x13
 9568 01a0 00       		.byte	0
 9569 01a1 00       		.byte	0
 9570 01a2 23       		.uleb128 0x23
 9571 01a3 0D       		.uleb128 0xd
ARM GAS  C:\Users\haske\AppData\Local\Temp\ccN8jSR9.s 			page 199


 9572 01a4 00       		.byte	0
 9573 01a5 03       		.uleb128 0x3
 9574 01a6 0E       		.uleb128 0xe
 9575 01a7 3A       		.uleb128 0x3a
 9576 01a8 0B       		.uleb128 0xb
 9577 01a9 3B       		.uleb128 0x3b
 9578 01aa 0B       		.uleb128 0xb
 9579 01ab 49       		.uleb128 0x49
 9580 01ac 13       		.uleb128 0x13
 9581 01ad 38       		.uleb128 0x38
 9582 01ae 05       		.uleb128 0x5
 9583 01af 00       		.byte	0
 9584 01b0 00       		.byte	0
 9585 01b1 24       		.uleb128 0x24
 9586 01b2 28       		.uleb128 0x28
 9587 01b3 00       		.byte	0
 9588 01b4 03       		.uleb128 0x3
 9589 01b5 0E       		.uleb128 0xe
 9590 01b6 1C       		.uleb128 0x1c
 9591 01b7 06       		.uleb128 0x6
 9592 01b8 00       		.byte	0
 9593 01b9 00       		.byte	0
 9594 01ba 25       		.uleb128 0x25
 9595 01bb 13       		.uleb128 0x13
 9596 01bc 00       		.byte	0
 9597 01bd 03       		.uleb128 0x3
 9598 01be 0E       		.uleb128 0xe
 9599 01bf 3C       		.uleb128 0x3c
 9600 01c0 19       		.uleb128 0x19
 9601 01c1 00       		.byte	0
 9602 01c2 00       		.byte	0
 9603 01c3 26       		.uleb128 0x26
 9604 01c4 2E       		.uleb128 0x2e
 9605 01c5 01       		.byte	0x1
 9606 01c6 03       		.uleb128 0x3
 9607 01c7 0E       		.uleb128 0xe
 9608 01c8 3A       		.uleb128 0x3a
 9609 01c9 0B       		.uleb128 0xb
 9610 01ca 3B       		.uleb128 0x3b
 9611 01cb 05       		.uleb128 0x5
 9612 01cc 27       		.uleb128 0x27
 9613 01cd 19       		.uleb128 0x19
 9614 01ce 49       		.uleb128 0x49
 9615 01cf 13       		.uleb128 0x13
 9616 01d0 20       		.uleb128 0x20
 9617 01d1 0B       		.uleb128 0xb
 9618 01d2 01       		.uleb128 0x1
 9619 01d3 13       		.uleb128 0x13
 9620 01d4 00       		.byte	0
 9621 01d5 00       		.byte	0
 9622 01d6 27       		.uleb128 0x27
 9623 01d7 05       		.uleb128 0x5
 9624 01d8 00       		.byte	0
 9625 01d9 03       		.uleb128 0x3
 9626 01da 08       		.uleb128 0x8
 9627 01db 3A       		.uleb128 0x3a
 9628 01dc 0B       		.uleb128 0xb
ARM GAS  C:\Users\haske\AppData\Local\Temp\ccN8jSR9.s 			page 200


 9629 01dd 3B       		.uleb128 0x3b
 9630 01de 05       		.uleb128 0x5
 9631 01df 49       		.uleb128 0x49
 9632 01e0 13       		.uleb128 0x13
 9633 01e1 00       		.byte	0
 9634 01e2 00       		.byte	0
 9635 01e3 28       		.uleb128 0x28
 9636 01e4 34       		.uleb128 0x34
 9637 01e5 00       		.byte	0
 9638 01e6 03       		.uleb128 0x3
 9639 01e7 08       		.uleb128 0x8
 9640 01e8 3A       		.uleb128 0x3a
 9641 01e9 0B       		.uleb128 0xb
 9642 01ea 3B       		.uleb128 0x3b
 9643 01eb 05       		.uleb128 0x5
 9644 01ec 49       		.uleb128 0x49
 9645 01ed 13       		.uleb128 0x13
 9646 01ee 00       		.byte	0
 9647 01ef 00       		.byte	0
 9648 01f0 29       		.uleb128 0x29
 9649 01f1 34       		.uleb128 0x34
 9650 01f2 00       		.byte	0
 9651 01f3 03       		.uleb128 0x3
 9652 01f4 0E       		.uleb128 0xe
 9653 01f5 3A       		.uleb128 0x3a
 9654 01f6 0B       		.uleb128 0xb
 9655 01f7 3B       		.uleb128 0x3b
 9656 01f8 05       		.uleb128 0x5
 9657 01f9 49       		.uleb128 0x49
 9658 01fa 13       		.uleb128 0x13
 9659 01fb 00       		.byte	0
 9660 01fc 00       		.byte	0
 9661 01fd 2A       		.uleb128 0x2a
 9662 01fe 05       		.uleb128 0x5
 9663 01ff 00       		.byte	0
 9664 0200 03       		.uleb128 0x3
 9665 0201 0E       		.uleb128 0xe
 9666 0202 3A       		.uleb128 0x3a
 9667 0203 0B       		.uleb128 0xb
 9668 0204 3B       		.uleb128 0x3b
 9669 0205 05       		.uleb128 0x5
 9670 0206 49       		.uleb128 0x49
 9671 0207 13       		.uleb128 0x13
 9672 0208 00       		.byte	0
 9673 0209 00       		.byte	0
 9674 020a 2B       		.uleb128 0x2b
 9675 020b 2E       		.uleb128 0x2e
 9676 020c 00       		.byte	0
 9677 020d 03       		.uleb128 0x3
 9678 020e 0E       		.uleb128 0xe
 9679 020f 3A       		.uleb128 0x3a
 9680 0210 0B       		.uleb128 0xb
 9681 0211 3B       		.uleb128 0x3b
 9682 0212 05       		.uleb128 0x5
 9683 0213 27       		.uleb128 0x27
 9684 0214 19       		.uleb128 0x19
 9685 0215 49       		.uleb128 0x49
ARM GAS  C:\Users\haske\AppData\Local\Temp\ccN8jSR9.s 			page 201


 9686 0216 13       		.uleb128 0x13
 9687 0217 20       		.uleb128 0x20
 9688 0218 0B       		.uleb128 0xb
 9689 0219 00       		.byte	0
 9690 021a 00       		.byte	0
 9691 021b 2C       		.uleb128 0x2c
 9692 021c 2E       		.uleb128 0x2e
 9693 021d 01       		.byte	0x1
 9694 021e 03       		.uleb128 0x3
 9695 021f 0E       		.uleb128 0xe
 9696 0220 3A       		.uleb128 0x3a
 9697 0221 0B       		.uleb128 0xb
 9698 0222 3B       		.uleb128 0x3b
 9699 0223 0B       		.uleb128 0xb
 9700 0224 27       		.uleb128 0x27
 9701 0225 19       		.uleb128 0x19
 9702 0226 20       		.uleb128 0x20
 9703 0227 0B       		.uleb128 0xb
 9704 0228 01       		.uleb128 0x1
 9705 0229 13       		.uleb128 0x13
 9706 022a 00       		.byte	0
 9707 022b 00       		.byte	0
 9708 022c 2D       		.uleb128 0x2d
 9709 022d 05       		.uleb128 0x5
 9710 022e 00       		.byte	0
 9711 022f 03       		.uleb128 0x3
 9712 0230 08       		.uleb128 0x8
 9713 0231 3A       		.uleb128 0x3a
 9714 0232 0B       		.uleb128 0xb
 9715 0233 3B       		.uleb128 0x3b
 9716 0234 0B       		.uleb128 0xb
 9717 0235 49       		.uleb128 0x49
 9718 0236 13       		.uleb128 0x13
 9719 0237 00       		.byte	0
 9720 0238 00       		.byte	0
 9721 0239 2E       		.uleb128 0x2e
 9722 023a 2E       		.uleb128 0x2e
 9723 023b 01       		.byte	0x1
 9724 023c 03       		.uleb128 0x3
 9725 023d 0E       		.uleb128 0xe
 9726 023e 3A       		.uleb128 0x3a
 9727 023f 0B       		.uleb128 0xb
 9728 0240 3B       		.uleb128 0x3b
 9729 0241 05       		.uleb128 0x5
 9730 0242 27       		.uleb128 0x27
 9731 0243 19       		.uleb128 0x19
 9732 0244 20       		.uleb128 0x20
 9733 0245 0B       		.uleb128 0xb
 9734 0246 01       		.uleb128 0x1
 9735 0247 13       		.uleb128 0x13
 9736 0248 00       		.byte	0
 9737 0249 00       		.byte	0
 9738 024a 2F       		.uleb128 0x2f
 9739 024b 0B       		.uleb128 0xb
 9740 024c 01       		.byte	0x1
 9741 024d 00       		.byte	0
 9742 024e 00       		.byte	0
ARM GAS  C:\Users\haske\AppData\Local\Temp\ccN8jSR9.s 			page 202


 9743 024f 30       		.uleb128 0x30
 9744 0250 2E       		.uleb128 0x2e
 9745 0251 01       		.byte	0x1
 9746 0252 03       		.uleb128 0x3
 9747 0253 0E       		.uleb128 0xe
 9748 0254 3A       		.uleb128 0x3a
 9749 0255 0B       		.uleb128 0xb
 9750 0256 3B       		.uleb128 0x3b
 9751 0257 05       		.uleb128 0x5
 9752 0258 27       		.uleb128 0x27
 9753 0259 19       		.uleb128 0x19
 9754 025a 11       		.uleb128 0x11
 9755 025b 01       		.uleb128 0x1
 9756 025c 12       		.uleb128 0x12
 9757 025d 06       		.uleb128 0x6
 9758 025e 40       		.uleb128 0x40
 9759 025f 18       		.uleb128 0x18
 9760 0260 9642     		.uleb128 0x2116
 9761 0262 19       		.uleb128 0x19
 9762 0263 01       		.uleb128 0x1
 9763 0264 13       		.uleb128 0x13
 9764 0265 00       		.byte	0
 9765 0266 00       		.byte	0
 9766 0267 31       		.uleb128 0x31
 9767 0268 05       		.uleb128 0x5
 9768 0269 00       		.byte	0
 9769 026a 03       		.uleb128 0x3
 9770 026b 0E       		.uleb128 0xe
 9771 026c 3A       		.uleb128 0x3a
 9772 026d 0B       		.uleb128 0xb
 9773 026e 3B       		.uleb128 0x3b
 9774 026f 05       		.uleb128 0x5
 9775 0270 49       		.uleb128 0x49
 9776 0271 13       		.uleb128 0x13
 9777 0272 02       		.uleb128 0x2
 9778 0273 17       		.uleb128 0x17
 9779 0274 00       		.byte	0
 9780 0275 00       		.byte	0
 9781 0276 32       		.uleb128 0x32
 9782 0277 05       		.uleb128 0x5
 9783 0278 00       		.byte	0
 9784 0279 03       		.uleb128 0x3
 9785 027a 08       		.uleb128 0x8
 9786 027b 3A       		.uleb128 0x3a
 9787 027c 0B       		.uleb128 0xb
 9788 027d 3B       		.uleb128 0x3b
 9789 027e 05       		.uleb128 0x5
 9790 027f 49       		.uleb128 0x49
 9791 0280 13       		.uleb128 0x13
 9792 0281 02       		.uleb128 0x2
 9793 0282 17       		.uleb128 0x17
 9794 0283 00       		.byte	0
 9795 0284 00       		.byte	0
 9796 0285 33       		.uleb128 0x33
 9797 0286 34       		.uleb128 0x34
 9798 0287 00       		.byte	0
 9799 0288 03       		.uleb128 0x3
ARM GAS  C:\Users\haske\AppData\Local\Temp\ccN8jSR9.s 			page 203


 9800 0289 0E       		.uleb128 0xe
 9801 028a 3A       		.uleb128 0x3a
 9802 028b 0B       		.uleb128 0xb
 9803 028c 3B       		.uleb128 0x3b
 9804 028d 05       		.uleb128 0x5
 9805 028e 49       		.uleb128 0x49
 9806 028f 13       		.uleb128 0x13
 9807 0290 02       		.uleb128 0x2
 9808 0291 17       		.uleb128 0x17
 9809 0292 00       		.byte	0
 9810 0293 00       		.byte	0
 9811 0294 34       		.uleb128 0x34
 9812 0295 1D       		.uleb128 0x1d
 9813 0296 01       		.byte	0x1
 9814 0297 31       		.uleb128 0x31
 9815 0298 13       		.uleb128 0x13
 9816 0299 11       		.uleb128 0x11
 9817 029a 01       		.uleb128 0x1
 9818 029b 12       		.uleb128 0x12
 9819 029c 06       		.uleb128 0x6
 9820 029d 58       		.uleb128 0x58
 9821 029e 0B       		.uleb128 0xb
 9822 029f 59       		.uleb128 0x59
 9823 02a0 05       		.uleb128 0x5
 9824 02a1 00       		.byte	0
 9825 02a2 00       		.byte	0
 9826 02a3 35       		.uleb128 0x35
 9827 02a4 05       		.uleb128 0x5
 9828 02a5 00       		.byte	0
 9829 02a6 31       		.uleb128 0x31
 9830 02a7 13       		.uleb128 0x13
 9831 02a8 02       		.uleb128 0x2
 9832 02a9 17       		.uleb128 0x17
 9833 02aa 00       		.byte	0
 9834 02ab 00       		.byte	0
 9835 02ac 36       		.uleb128 0x36
 9836 02ad 05       		.uleb128 0x5
 9837 02ae 00       		.byte	0
 9838 02af 31       		.uleb128 0x31
 9839 02b0 13       		.uleb128 0x13
 9840 02b1 00       		.byte	0
 9841 02b2 00       		.byte	0
 9842 02b3 37       		.uleb128 0x37
 9843 02b4 1D       		.uleb128 0x1d
 9844 02b5 01       		.byte	0x1
 9845 02b6 31       		.uleb128 0x31
 9846 02b7 13       		.uleb128 0x13
 9847 02b8 11       		.uleb128 0x11
 9848 02b9 01       		.uleb128 0x1
 9849 02ba 12       		.uleb128 0x12
 9850 02bb 06       		.uleb128 0x6
 9851 02bc 58       		.uleb128 0x58
 9852 02bd 0B       		.uleb128 0xb
 9853 02be 59       		.uleb128 0x59
 9854 02bf 05       		.uleb128 0x5
 9855 02c0 01       		.uleb128 0x1
 9856 02c1 13       		.uleb128 0x13
ARM GAS  C:\Users\haske\AppData\Local\Temp\ccN8jSR9.s 			page 204


 9857 02c2 00       		.byte	0
 9858 02c3 00       		.byte	0
 9859 02c4 38       		.uleb128 0x38
 9860 02c5 0B       		.uleb128 0xb
 9861 02c6 01       		.byte	0x1
 9862 02c7 11       		.uleb128 0x11
 9863 02c8 01       		.uleb128 0x1
 9864 02c9 12       		.uleb128 0x12
 9865 02ca 06       		.uleb128 0x6
 9866 02cb 00       		.byte	0
 9867 02cc 00       		.byte	0
 9868 02cd 39       		.uleb128 0x39
 9869 02ce 34       		.uleb128 0x34
 9870 02cf 00       		.byte	0
 9871 02d0 31       		.uleb128 0x31
 9872 02d1 13       		.uleb128 0x13
 9873 02d2 00       		.byte	0
 9874 02d3 00       		.byte	0
 9875 02d4 3A       		.uleb128 0x3a
 9876 02d5 34       		.uleb128 0x34
 9877 02d6 00       		.byte	0
 9878 02d7 31       		.uleb128 0x31
 9879 02d8 13       		.uleb128 0x13
 9880 02d9 02       		.uleb128 0x2
 9881 02da 17       		.uleb128 0x17
 9882 02db 00       		.byte	0
 9883 02dc 00       		.byte	0
 9884 02dd 3B       		.uleb128 0x3b
 9885 02de 34       		.uleb128 0x34
 9886 02df 00       		.byte	0
 9887 02e0 31       		.uleb128 0x31
 9888 02e1 13       		.uleb128 0x13
 9889 02e2 02       		.uleb128 0x2
 9890 02e3 18       		.uleb128 0x18
 9891 02e4 00       		.byte	0
 9892 02e5 00       		.byte	0
 9893 02e6 3C       		.uleb128 0x3c
 9894 02e7 2E       		.uleb128 0x2e
 9895 02e8 01       		.byte	0x1
 9896 02e9 03       		.uleb128 0x3
 9897 02ea 0E       		.uleb128 0xe
 9898 02eb 3A       		.uleb128 0x3a
 9899 02ec 0B       		.uleb128 0xb
 9900 02ed 3B       		.uleb128 0x3b
 9901 02ee 05       		.uleb128 0x5
 9902 02ef 27       		.uleb128 0x27
 9903 02f0 19       		.uleb128 0x19
 9904 02f1 49       		.uleb128 0x49
 9905 02f2 13       		.uleb128 0x13
 9906 02f3 11       		.uleb128 0x11
 9907 02f4 01       		.uleb128 0x1
 9908 02f5 12       		.uleb128 0x12
 9909 02f6 06       		.uleb128 0x6
 9910 02f7 40       		.uleb128 0x40
 9911 02f8 18       		.uleb128 0x18
 9912 02f9 9742     		.uleb128 0x2117
 9913 02fb 19       		.uleb128 0x19
ARM GAS  C:\Users\haske\AppData\Local\Temp\ccN8jSR9.s 			page 205


 9914 02fc 01       		.uleb128 0x1
 9915 02fd 13       		.uleb128 0x13
 9916 02fe 00       		.byte	0
 9917 02ff 00       		.byte	0
 9918 0300 3D       		.uleb128 0x3d
 9919 0301 898201   		.uleb128 0x4109
 9920 0304 01       		.byte	0x1
 9921 0305 11       		.uleb128 0x11
 9922 0306 01       		.uleb128 0x1
 9923 0307 31       		.uleb128 0x31
 9924 0308 13       		.uleb128 0x13
 9925 0309 00       		.byte	0
 9926 030a 00       		.byte	0
 9927 030b 3E       		.uleb128 0x3e
 9928 030c 8A8201   		.uleb128 0x410a
 9929 030f 00       		.byte	0
 9930 0310 02       		.uleb128 0x2
 9931 0311 18       		.uleb128 0x18
 9932 0312 9142     		.uleb128 0x2111
 9933 0314 18       		.uleb128 0x18
 9934 0315 00       		.byte	0
 9935 0316 00       		.byte	0
 9936 0317 3F       		.uleb128 0x3f
 9937 0318 2E       		.uleb128 0x2e
 9938 0319 01       		.byte	0x1
 9939 031a 03       		.uleb128 0x3
 9940 031b 0E       		.uleb128 0xe
 9941 031c 3A       		.uleb128 0x3a
 9942 031d 0B       		.uleb128 0xb
 9943 031e 3B       		.uleb128 0x3b
 9944 031f 05       		.uleb128 0x5
 9945 0320 27       		.uleb128 0x27
 9946 0321 19       		.uleb128 0x19
 9947 0322 11       		.uleb128 0x11
 9948 0323 01       		.uleb128 0x1
 9949 0324 12       		.uleb128 0x12
 9950 0325 06       		.uleb128 0x6
 9951 0326 40       		.uleb128 0x40
 9952 0327 18       		.uleb128 0x18
 9953 0328 9742     		.uleb128 0x2117
 9954 032a 19       		.uleb128 0x19
 9955 032b 01       		.uleb128 0x1
 9956 032c 13       		.uleb128 0x13
 9957 032d 00       		.byte	0
 9958 032e 00       		.byte	0
 9959 032f 40       		.uleb128 0x40
 9960 0330 34       		.uleb128 0x34
 9961 0331 00       		.byte	0
 9962 0332 03       		.uleb128 0x3
 9963 0333 08       		.uleb128 0x8
 9964 0334 3A       		.uleb128 0x3a
 9965 0335 0B       		.uleb128 0xb
 9966 0336 3B       		.uleb128 0x3b
 9967 0337 05       		.uleb128 0x5
 9968 0338 49       		.uleb128 0x49
 9969 0339 13       		.uleb128 0x13
 9970 033a 02       		.uleb128 0x2
ARM GAS  C:\Users\haske\AppData\Local\Temp\ccN8jSR9.s 			page 206


 9971 033b 17       		.uleb128 0x17
 9972 033c 00       		.byte	0
 9973 033d 00       		.byte	0
 9974 033e 41       		.uleb128 0x41
 9975 033f 0B       		.uleb128 0xb
 9976 0340 01       		.byte	0x1
 9977 0341 11       		.uleb128 0x11
 9978 0342 01       		.uleb128 0x1
 9979 0343 12       		.uleb128 0x12
 9980 0344 06       		.uleb128 0x6
 9981 0345 01       		.uleb128 0x1
 9982 0346 13       		.uleb128 0x13
 9983 0347 00       		.byte	0
 9984 0348 00       		.byte	0
 9985 0349 42       		.uleb128 0x42
 9986 034a 34       		.uleb128 0x34
 9987 034b 00       		.byte	0
 9988 034c 03       		.uleb128 0x3
 9989 034d 08       		.uleb128 0x8
 9990 034e 3A       		.uleb128 0x3a
 9991 034f 0B       		.uleb128 0xb
 9992 0350 3B       		.uleb128 0x3b
 9993 0351 05       		.uleb128 0x5
 9994 0352 49       		.uleb128 0x49
 9995 0353 13       		.uleb128 0x13
 9996 0354 02       		.uleb128 0x2
 9997 0355 18       		.uleb128 0x18
 9998 0356 00       		.byte	0
 9999 0357 00       		.byte	0
 10000 0358 43       		.uleb128 0x43
 10001 0359 2E       		.uleb128 0x2e
 10002 035a 01       		.byte	0x1
 10003 035b 3F       		.uleb128 0x3f
 10004 035c 19       		.uleb128 0x19
 10005 035d 03       		.uleb128 0x3
 10006 035e 0E       		.uleb128 0xe
 10007 035f 3A       		.uleb128 0x3a
 10008 0360 0B       		.uleb128 0xb
 10009 0361 3B       		.uleb128 0x3b
 10010 0362 0B       		.uleb128 0xb
 10011 0363 27       		.uleb128 0x27
 10012 0364 19       		.uleb128 0x19
 10013 0365 11       		.uleb128 0x11
 10014 0366 01       		.uleb128 0x1
 10015 0367 12       		.uleb128 0x12
 10016 0368 06       		.uleb128 0x6
 10017 0369 40       		.uleb128 0x40
 10018 036a 18       		.uleb128 0x18
 10019 036b 9742     		.uleb128 0x2117
 10020 036d 19       		.uleb128 0x19
 10021 036e 01       		.uleb128 0x1
 10022 036f 13       		.uleb128 0x13
 10023 0370 00       		.byte	0
 10024 0371 00       		.byte	0
 10025 0372 44       		.uleb128 0x44
 10026 0373 05       		.uleb128 0x5
 10027 0374 00       		.byte	0
ARM GAS  C:\Users\haske\AppData\Local\Temp\ccN8jSR9.s 			page 207


 10028 0375 03       		.uleb128 0x3
 10029 0376 0E       		.uleb128 0xe
 10030 0377 3A       		.uleb128 0x3a
 10031 0378 0B       		.uleb128 0xb
 10032 0379 3B       		.uleb128 0x3b
 10033 037a 0B       		.uleb128 0xb
 10034 037b 49       		.uleb128 0x49
 10035 037c 13       		.uleb128 0x13
 10036 037d 02       		.uleb128 0x2
 10037 037e 17       		.uleb128 0x17
 10038 037f 00       		.byte	0
 10039 0380 00       		.byte	0
 10040 0381 45       		.uleb128 0x45
 10041 0382 1D       		.uleb128 0x1d
 10042 0383 01       		.byte	0x1
 10043 0384 31       		.uleb128 0x31
 10044 0385 13       		.uleb128 0x13
 10045 0386 11       		.uleb128 0x11
 10046 0387 01       		.uleb128 0x1
 10047 0388 12       		.uleb128 0x12
 10048 0389 06       		.uleb128 0x6
 10049 038a 58       		.uleb128 0x58
 10050 038b 0B       		.uleb128 0xb
 10051 038c 59       		.uleb128 0x59
 10052 038d 0B       		.uleb128 0xb
 10053 038e 01       		.uleb128 0x1
 10054 038f 13       		.uleb128 0x13
 10055 0390 00       		.byte	0
 10056 0391 00       		.byte	0
 10057 0392 46       		.uleb128 0x46
 10058 0393 2E       		.uleb128 0x2e
 10059 0394 01       		.byte	0x1
 10060 0395 3F       		.uleb128 0x3f
 10061 0396 19       		.uleb128 0x19
 10062 0397 03       		.uleb128 0x3
 10063 0398 0E       		.uleb128 0xe
 10064 0399 3A       		.uleb128 0x3a
 10065 039a 0B       		.uleb128 0xb
 10066 039b 3B       		.uleb128 0x3b
 10067 039c 0B       		.uleb128 0xb
 10068 039d 27       		.uleb128 0x27
 10069 039e 19       		.uleb128 0x19
 10070 039f 49       		.uleb128 0x49
 10071 03a0 13       		.uleb128 0x13
 10072 03a1 11       		.uleb128 0x11
 10073 03a2 01       		.uleb128 0x1
 10074 03a3 12       		.uleb128 0x12
 10075 03a4 06       		.uleb128 0x6
 10076 03a5 40       		.uleb128 0x40
 10077 03a6 18       		.uleb128 0x18
 10078 03a7 9742     		.uleb128 0x2117
 10079 03a9 19       		.uleb128 0x19
 10080 03aa 01       		.uleb128 0x1
 10081 03ab 13       		.uleb128 0x13
 10082 03ac 00       		.byte	0
 10083 03ad 00       		.byte	0
 10084 03ae 47       		.uleb128 0x47
ARM GAS  C:\Users\haske\AppData\Local\Temp\ccN8jSR9.s 			page 208


 10085 03af 34       		.uleb128 0x34
 10086 03b0 00       		.byte	0
 10087 03b1 03       		.uleb128 0x3
 10088 03b2 0E       		.uleb128 0xe
 10089 03b3 3A       		.uleb128 0x3a
 10090 03b4 0B       		.uleb128 0xb
 10091 03b5 3B       		.uleb128 0x3b
 10092 03b6 0B       		.uleb128 0xb
 10093 03b7 49       		.uleb128 0x49
 10094 03b8 13       		.uleb128 0x13
 10095 03b9 02       		.uleb128 0x2
 10096 03ba 17       		.uleb128 0x17
 10097 03bb 00       		.byte	0
 10098 03bc 00       		.byte	0
 10099 03bd 48       		.uleb128 0x48
 10100 03be 0B       		.uleb128 0xb
 10101 03bf 01       		.byte	0x1
 10102 03c0 55       		.uleb128 0x55
 10103 03c1 17       		.uleb128 0x17
 10104 03c2 01       		.uleb128 0x1
 10105 03c3 13       		.uleb128 0x13
 10106 03c4 00       		.byte	0
 10107 03c5 00       		.byte	0
 10108 03c6 49       		.uleb128 0x49
 10109 03c7 898201   		.uleb128 0x4109
 10110 03ca 00       		.byte	0
 10111 03cb 11       		.uleb128 0x11
 10112 03cc 01       		.uleb128 0x1
 10113 03cd 31       		.uleb128 0x31
 10114 03ce 13       		.uleb128 0x13
 10115 03cf 00       		.byte	0
 10116 03d0 00       		.byte	0
 10117 03d1 4A       		.uleb128 0x4a
 10118 03d2 898201   		.uleb128 0x4109
 10119 03d5 01       		.byte	0x1
 10120 03d6 11       		.uleb128 0x11
 10121 03d7 01       		.uleb128 0x1
 10122 03d8 00       		.byte	0
 10123 03d9 00       		.byte	0
 10124 03da 4B       		.uleb128 0x4b
 10125 03db 898201   		.uleb128 0x4109
 10126 03de 01       		.byte	0x1
 10127 03df 11       		.uleb128 0x11
 10128 03e0 01       		.uleb128 0x1
 10129 03e1 31       		.uleb128 0x31
 10130 03e2 13       		.uleb128 0x13
 10131 03e3 01       		.uleb128 0x1
 10132 03e4 13       		.uleb128 0x13
 10133 03e5 00       		.byte	0
 10134 03e6 00       		.byte	0
 10135 03e7 4C       		.uleb128 0x4c
 10136 03e8 2E       		.uleb128 0x2e
 10137 03e9 01       		.byte	0x1
 10138 03ea 3F       		.uleb128 0x3f
 10139 03eb 19       		.uleb128 0x19
 10140 03ec 03       		.uleb128 0x3
 10141 03ed 0E       		.uleb128 0xe
ARM GAS  C:\Users\haske\AppData\Local\Temp\ccN8jSR9.s 			page 209


 10142 03ee 3A       		.uleb128 0x3a
 10143 03ef 0B       		.uleb128 0xb
 10144 03f0 3B       		.uleb128 0x3b
 10145 03f1 05       		.uleb128 0x5
 10146 03f2 27       		.uleb128 0x27
 10147 03f3 19       		.uleb128 0x19
 10148 03f4 11       		.uleb128 0x11
 10149 03f5 01       		.uleb128 0x1
 10150 03f6 12       		.uleb128 0x12
 10151 03f7 06       		.uleb128 0x6
 10152 03f8 40       		.uleb128 0x40
 10153 03f9 18       		.uleb128 0x18
 10154 03fa 9742     		.uleb128 0x2117
 10155 03fc 19       		.uleb128 0x19
 10156 03fd 01       		.uleb128 0x1
 10157 03fe 13       		.uleb128 0x13
 10158 03ff 00       		.byte	0
 10159 0400 00       		.byte	0
 10160 0401 4D       		.uleb128 0x4d
 10161 0402 05       		.uleb128 0x5
 10162 0403 00       		.byte	0
 10163 0404 03       		.uleb128 0x3
 10164 0405 0E       		.uleb128 0xe
 10165 0406 3A       		.uleb128 0x3a
 10166 0407 0B       		.uleb128 0xb
 10167 0408 3B       		.uleb128 0x3b
 10168 0409 05       		.uleb128 0x5
 10169 040a 49       		.uleb128 0x49
 10170 040b 13       		.uleb128 0x13
 10171 040c 02       		.uleb128 0x2
 10172 040d 18       		.uleb128 0x18
 10173 040e 00       		.byte	0
 10174 040f 00       		.byte	0
 10175 0410 4E       		.uleb128 0x4e
 10176 0411 2E       		.uleb128 0x2e
 10177 0412 00       		.byte	0
 10178 0413 3F       		.uleb128 0x3f
 10179 0414 19       		.uleb128 0x19
 10180 0415 03       		.uleb128 0x3
 10181 0416 0E       		.uleb128 0xe
 10182 0417 3A       		.uleb128 0x3a
 10183 0418 0B       		.uleb128 0xb
 10184 0419 3B       		.uleb128 0x3b
 10185 041a 05       		.uleb128 0x5
 10186 041b 27       		.uleb128 0x27
 10187 041c 19       		.uleb128 0x19
 10188 041d 49       		.uleb128 0x49
 10189 041e 13       		.uleb128 0x13
 10190 041f 11       		.uleb128 0x11
 10191 0420 01       		.uleb128 0x1
 10192 0421 12       		.uleb128 0x12
 10193 0422 06       		.uleb128 0x6
 10194 0423 40       		.uleb128 0x40
 10195 0424 18       		.uleb128 0x18
 10196 0425 9742     		.uleb128 0x2117
 10197 0427 19       		.uleb128 0x19
 10198 0428 00       		.byte	0
ARM GAS  C:\Users\haske\AppData\Local\Temp\ccN8jSR9.s 			page 210


 10199 0429 00       		.byte	0
 10200 042a 4F       		.uleb128 0x4f
 10201 042b 2E       		.uleb128 0x2e
 10202 042c 01       		.byte	0x1
 10203 042d 3F       		.uleb128 0x3f
 10204 042e 19       		.uleb128 0x19
 10205 042f 03       		.uleb128 0x3
 10206 0430 0E       		.uleb128 0xe
 10207 0431 3A       		.uleb128 0x3a
 10208 0432 0B       		.uleb128 0xb
 10209 0433 3B       		.uleb128 0x3b
 10210 0434 05       		.uleb128 0x5
 10211 0435 27       		.uleb128 0x27
 10212 0436 19       		.uleb128 0x19
 10213 0437 49       		.uleb128 0x49
 10214 0438 13       		.uleb128 0x13
 10215 0439 11       		.uleb128 0x11
 10216 043a 01       		.uleb128 0x1
 10217 043b 12       		.uleb128 0x12
 10218 043c 06       		.uleb128 0x6
 10219 043d 40       		.uleb128 0x40
 10220 043e 18       		.uleb128 0x18
 10221 043f 9742     		.uleb128 0x2117
 10222 0441 19       		.uleb128 0x19
 10223 0442 01       		.uleb128 0x1
 10224 0443 13       		.uleb128 0x13
 10225 0444 00       		.byte	0
 10226 0445 00       		.byte	0
 10227 0446 50       		.uleb128 0x50
 10228 0447 2E       		.uleb128 0x2e
 10229 0448 01       		.byte	0x1
 10230 0449 3F       		.uleb128 0x3f
 10231 044a 19       		.uleb128 0x19
 10232 044b 03       		.uleb128 0x3
 10233 044c 0E       		.uleb128 0xe
 10234 044d 3A       		.uleb128 0x3a
 10235 044e 0B       		.uleb128 0xb
 10236 044f 3B       		.uleb128 0x3b
 10237 0450 0B       		.uleb128 0xb
 10238 0451 27       		.uleb128 0x27
 10239 0452 19       		.uleb128 0x19
 10240 0453 11       		.uleb128 0x11
 10241 0454 01       		.uleb128 0x1
 10242 0455 12       		.uleb128 0x12
 10243 0456 06       		.uleb128 0x6
 10244 0457 40       		.uleb128 0x40
 10245 0458 18       		.uleb128 0x18
 10246 0459 9642     		.uleb128 0x2116
 10247 045b 19       		.uleb128 0x19
 10248 045c 01       		.uleb128 0x1
 10249 045d 13       		.uleb128 0x13
 10250 045e 00       		.byte	0
 10251 045f 00       		.byte	0
 10252 0460 51       		.uleb128 0x51
 10253 0461 34       		.uleb128 0x34
 10254 0462 00       		.byte	0
 10255 0463 03       		.uleb128 0x3
ARM GAS  C:\Users\haske\AppData\Local\Temp\ccN8jSR9.s 			page 211


 10256 0464 08       		.uleb128 0x8
 10257 0465 3A       		.uleb128 0x3a
 10258 0466 0B       		.uleb128 0xb
 10259 0467 3B       		.uleb128 0x3b
 10260 0468 0B       		.uleb128 0xb
 10261 0469 49       		.uleb128 0x49
 10262 046a 13       		.uleb128 0x13
 10263 046b 02       		.uleb128 0x2
 10264 046c 17       		.uleb128 0x17
 10265 046d 00       		.byte	0
 10266 046e 00       		.byte	0
 10267 046f 52       		.uleb128 0x52
 10268 0470 34       		.uleb128 0x34
 10269 0471 00       		.byte	0
 10270 0472 03       		.uleb128 0x3
 10271 0473 0E       		.uleb128 0xe
 10272 0474 3A       		.uleb128 0x3a
 10273 0475 0B       		.uleb128 0xb
 10274 0476 3B       		.uleb128 0x3b
 10275 0477 05       		.uleb128 0x5
 10276 0478 49       		.uleb128 0x49
 10277 0479 13       		.uleb128 0x13
 10278 047a 02       		.uleb128 0x2
 10279 047b 18       		.uleb128 0x18
 10280 047c 00       		.byte	0
 10281 047d 00       		.byte	0
 10282 047e 53       		.uleb128 0x53
 10283 047f 34       		.uleb128 0x34
 10284 0480 00       		.byte	0
 10285 0481 03       		.uleb128 0x3
 10286 0482 0E       		.uleb128 0xe
 10287 0483 3A       		.uleb128 0x3a
 10288 0484 0B       		.uleb128 0xb
 10289 0485 3B       		.uleb128 0x3b
 10290 0486 0B       		.uleb128 0xb
 10291 0487 49       		.uleb128 0x49
 10292 0488 13       		.uleb128 0x13
 10293 0489 02       		.uleb128 0x2
 10294 048a 18       		.uleb128 0x18
 10295 048b 00       		.byte	0
 10296 048c 00       		.byte	0
 10297 048d 54       		.uleb128 0x54
 10298 048e 34       		.uleb128 0x34
 10299 048f 00       		.byte	0
 10300 0490 03       		.uleb128 0x3
 10301 0491 0E       		.uleb128 0xe
 10302 0492 3A       		.uleb128 0x3a
 10303 0493 0B       		.uleb128 0xb
 10304 0494 3B       		.uleb128 0x3b
 10305 0495 0B       		.uleb128 0xb
 10306 0496 49       		.uleb128 0x49
 10307 0497 13       		.uleb128 0x13
 10308 0498 3F       		.uleb128 0x3f
 10309 0499 19       		.uleb128 0x19
 10310 049a 3C       		.uleb128 0x3c
 10311 049b 19       		.uleb128 0x19
 10312 049c 00       		.byte	0
ARM GAS  C:\Users\haske\AppData\Local\Temp\ccN8jSR9.s 			page 212


 10313 049d 00       		.byte	0
 10314 049e 55       		.uleb128 0x55
 10315 049f 2E       		.uleb128 0x2e
 10316 04a0 00       		.byte	0
 10317 04a1 3F       		.uleb128 0x3f
 10318 04a2 19       		.uleb128 0x19
 10319 04a3 3C       		.uleb128 0x3c
 10320 04a4 19       		.uleb128 0x19
 10321 04a5 6E       		.uleb128 0x6e
 10322 04a6 0E       		.uleb128 0xe
 10323 04a7 03       		.uleb128 0x3
 10324 04a8 0E       		.uleb128 0xe
 10325 04a9 3A       		.uleb128 0x3a
 10326 04aa 0B       		.uleb128 0xb
 10327 04ab 3B       		.uleb128 0x3b
 10328 04ac 0B       		.uleb128 0xb
 10329 04ad 00       		.byte	0
 10330 04ae 00       		.byte	0
 10331 04af 56       		.uleb128 0x56
 10332 04b0 2E       		.uleb128 0x2e
 10333 04b1 00       		.byte	0
 10334 04b2 3F       		.uleb128 0x3f
 10335 04b3 19       		.uleb128 0x19
 10336 04b4 3C       		.uleb128 0x3c
 10337 04b5 19       		.uleb128 0x19
 10338 04b6 6E       		.uleb128 0x6e
 10339 04b7 0E       		.uleb128 0xe
 10340 04b8 03       		.uleb128 0x3
 10341 04b9 0E       		.uleb128 0xe
 10342 04ba 3A       		.uleb128 0x3a
 10343 04bb 0B       		.uleb128 0xb
 10344 04bc 3B       		.uleb128 0x3b
 10345 04bd 05       		.uleb128 0x5
 10346 04be 00       		.byte	0
 10347 04bf 00       		.byte	0
 10348 04c0 00       		.byte	0
 10349              		.section	.debug_loc,"",%progbits
 10350              	.Ldebug_loc0:
 10351              	.LLST0:
 10352 0000 00000000 		.4byte	.LVL0
 10353 0004 04000000 		.4byte	.LVL1
 10354 0008 0100     		.2byte	0x1
 10355 000a 50       		.byte	0x50
 10356 000b 04000000 		.4byte	.LVL1
 10357 000f 14010000 		.4byte	.LFE187
 10358 0013 0400     		.2byte	0x4
 10359 0015 F3       		.byte	0xf3
 10360 0016 01       		.uleb128 0x1
 10361 0017 50       		.byte	0x50
 10362 0018 9F       		.byte	0x9f
 10363 0019 00000000 		.4byte	0
 10364 001d 00000000 		.4byte	0
 10365              	.LLST1:
 10366 0021 00000000 		.4byte	.LVL0
 10367 0025 52000000 		.4byte	.LVL19
 10368 0029 0100     		.2byte	0x1
 10369 002b 51       		.byte	0x51
ARM GAS  C:\Users\haske\AppData\Local\Temp\ccN8jSR9.s 			page 213


 10370 002c 52000000 		.4byte	.LVL19
 10371 0030 6E000000 		.4byte	.LVL25
 10372 0034 0400     		.2byte	0x4
 10373 0036 F3       		.byte	0xf3
 10374 0037 01       		.uleb128 0x1
 10375 0038 51       		.byte	0x51
 10376 0039 9F       		.byte	0x9f
 10377 003a 6E000000 		.4byte	.LVL25
 10378 003e 82000000 		.4byte	.LVL27
 10379 0042 0100     		.2byte	0x1
 10380 0044 51       		.byte	0x51
 10381 0045 82000000 		.4byte	.LVL27
 10382 0049 14010000 		.4byte	.LFE187
 10383 004d 0400     		.2byte	0x4
 10384 004f F3       		.byte	0xf3
 10385 0050 01       		.uleb128 0x1
 10386 0051 51       		.byte	0x51
 10387 0052 9F       		.byte	0x9f
 10388 0053 00000000 		.4byte	0
 10389 0057 00000000 		.4byte	0
 10390              	.LLST2:
 10391 005b 00000000 		.4byte	.LVL0
 10392 005f 12000000 		.4byte	.LVL6
 10393 0063 0100     		.2byte	0x1
 10394 0065 52       		.byte	0x52
 10395 0066 12000000 		.4byte	.LVL6
 10396 006a 14010000 		.4byte	.LFE187
 10397 006e 0400     		.2byte	0x4
 10398 0070 F3       		.byte	0xf3
 10399 0071 01       		.uleb128 0x1
 10400 0072 52       		.byte	0x52
 10401 0073 9F       		.byte	0x9f
 10402 0074 00000000 		.4byte	0
 10403 0078 00000000 		.4byte	0
 10404              	.LLST3:
 10405 007c 00000000 		.4byte	.LVL0
 10406 0080 14000000 		.4byte	.LVL7
 10407 0084 0100     		.2byte	0x1
 10408 0086 53       		.byte	0x53
 10409 0087 14000000 		.4byte	.LVL7
 10410 008b 14010000 		.4byte	.LFE187
 10411 008f 0400     		.2byte	0x4
 10412 0091 F3       		.byte	0xf3
 10413 0092 01       		.uleb128 0x1
 10414 0093 53       		.byte	0x53
 10415 0094 9F       		.byte	0x9f
 10416 0095 00000000 		.4byte	0
 10417 0099 00000000 		.4byte	0
 10418              	.LLST4:
 10419 009d 00000000 		.4byte	.LVL0
 10420 00a1 04000000 		.4byte	.LVL1
 10421 00a5 0200     		.2byte	0x2
 10422 00a7 91       		.byte	0x91
 10423 00a8 00       		.sleb128 0
 10424 00a9 04000000 		.4byte	.LVL1
 10425 00ad 08000000 		.4byte	.LVL2
 10426 00b1 0200     		.2byte	0x2
ARM GAS  C:\Users\haske\AppData\Local\Temp\ccN8jSR9.s 			page 214


 10427 00b3 70       		.byte	0x70
 10428 00b4 00       		.sleb128 0
 10429 00b5 08000000 		.4byte	.LVL2
 10430 00b9 14010000 		.4byte	.LFE187
 10431 00bd 0200     		.2byte	0x2
 10432 00bf 91       		.byte	0x91
 10433 00c0 00       		.sleb128 0
 10434 00c1 00000000 		.4byte	0
 10435 00c5 00000000 		.4byte	0
 10436              	.LLST5:
 10437 00c9 00000000 		.4byte	.LVL0
 10438 00cd 0C000000 		.4byte	.LVL3
 10439 00d1 0200     		.2byte	0x2
 10440 00d3 91       		.byte	0x91
 10441 00d4 04       		.sleb128 4
 10442 00d5 2C000000 		.4byte	.LVL11
 10443 00d9 32000000 		.4byte	.LVL13
 10444 00dd 0100     		.2byte	0x1
 10445 00df 56       		.byte	0x56
 10446 00e0 4E000000 		.4byte	.LVL17
 10447 00e4 50000000 		.4byte	.LVL18
 10448 00e8 0100     		.2byte	0x1
 10449 00ea 56       		.byte	0x56
 10450 00eb 7E000000 		.4byte	.LVL26
 10451 00ef 9A000000 		.4byte	.LVL28
 10452 00f3 0100     		.2byte	0x1
 10453 00f5 56       		.byte	0x56
 10454 00f6 F4000000 		.4byte	.LVL42
 10455 00fa 0A010000 		.4byte	.LVL47
 10456 00fe 0100     		.2byte	0x1
 10457 0100 56       		.byte	0x56
 10458 0101 00000000 		.4byte	0
 10459 0105 00000000 		.4byte	0
 10460              	.LLST6:
 10461 0109 00000000 		.4byte	.LVL0
 10462 010d 04000000 		.4byte	.LVL1
 10463 0111 0200     		.2byte	0x2
 10464 0113 91       		.byte	0x91
 10465 0114 08       		.sleb128 8
 10466 0115 04000000 		.4byte	.LVL1
 10467 0119 08000000 		.4byte	.LVL2
 10468 011d 0200     		.2byte	0x2
 10469 011f 70       		.byte	0x70
 10470 0120 08       		.sleb128 8
 10471 0121 08000000 		.4byte	.LVL2
 10472 0125 0E000000 		.4byte	.LVL4
 10473 0129 0200     		.2byte	0x2
 10474 012b 91       		.byte	0x91
 10475 012c 08       		.sleb128 8
 10476 012d 0E000000 		.4byte	.LVL4
 10477 0131 10000000 		.4byte	.LVL5
 10478 0135 0200     		.2byte	0x2
 10479 0137 70       		.byte	0x70
 10480 0138 00       		.sleb128 0
 10481 0139 10000000 		.4byte	.LVL5
 10482 013d 14010000 		.4byte	.LFE187
 10483 0141 0200     		.2byte	0x2
ARM GAS  C:\Users\haske\AppData\Local\Temp\ccN8jSR9.s 			page 215


 10484 0143 91       		.byte	0x91
 10485 0144 08       		.sleb128 8
 10486 0145 00000000 		.4byte	0
 10487 0149 00000000 		.4byte	0
 10488              	.LLST7:
 10489 014d 1A000000 		.4byte	.LVL8
 10490 0151 0A010000 		.4byte	.LVL46
 10491 0155 0100     		.2byte	0x1
 10492 0157 55       		.byte	0x55
 10493 0158 00000000 		.4byte	0
 10494 015c 00000000 		.4byte	0
 10495              	.LLST8:
 10496 0160 02010000 		.4byte	.LVL44
 10497 0164 04010000 		.4byte	.LVL45
 10498 0168 0100     		.2byte	0x1
 10499 016a 53       		.byte	0x53
 10500 016b 00000000 		.4byte	0
 10501 016f 00000000 		.4byte	0
 10502              	.LLST9:
 10503 0173 1C000000 		.4byte	.LVL9
 10504 0177 CA000000 		.4byte	.LVL31
 10505 017b 0100     		.2byte	0x1
 10506 017d 57       		.byte	0x57
 10507 017e 00000000 		.4byte	0
 10508 0182 00000000 		.4byte	0
 10509              	.LLST10:
 10510 0186 24000000 		.4byte	.LVL10
 10511 018a FC000000 		.4byte	.LVL43
 10512 018e 0300     		.2byte	0x3
 10513 0190 75       		.byte	0x75
 10514 0191 02       		.sleb128 2
 10515 0192 9F       		.byte	0x9f
 10516 0193 00000000 		.4byte	0
 10517 0197 00000000 		.4byte	0
 10518              	.LLST11:
 10519 019b 24000000 		.4byte	.LVL10
 10520 019f FC000000 		.4byte	.LVL43
 10521 01a3 0600     		.2byte	0x6
 10522 01a5 F2       		.byte	0xf2
 10523 01a6 91250000 		.4byte	.Ldebug_info0+9617
 10524 01aa 00       		.sleb128 0
 10525 01ab 00000000 		.4byte	0
 10526 01af 00000000 		.4byte	0
 10527              	.LLST12:
 10528 01b3 24000000 		.4byte	.LVL10
 10529 01b7 40000000 		.4byte	.LVL15
 10530 01bb 0100     		.2byte	0x1
 10531 01bd 50       		.byte	0x50
 10532 01be 40000000 		.4byte	.LVL15
 10533 01c2 42000000 		.4byte	.LVL16
 10534 01c6 0300     		.2byte	0x3
 10535 01c8 70       		.byte	0x70
 10536 01c9 7C       		.sleb128 -4
 10537 01ca 9F       		.byte	0x9f
 10538 01cb 42000000 		.4byte	.LVL16
 10539 01cf 6E000000 		.4byte	.LVL25
 10540 01d3 0200     		.2byte	0x2
ARM GAS  C:\Users\haske\AppData\Local\Temp\ccN8jSR9.s 			page 216


 10541 01d5 91       		.byte	0x91
 10542 01d6 08       		.sleb128 8
 10543 01d7 6E000000 		.4byte	.LVL25
 10544 01db A2000000 		.4byte	.LVL29
 10545 01df 0100     		.2byte	0x1
 10546 01e1 50       		.byte	0x50
 10547 01e2 A2000000 		.4byte	.LVL29
 10548 01e6 C7000000 		.4byte	.LVL30-1
 10549 01ea 0500     		.2byte	0x5
 10550 01ec 03       		.byte	0x3
 10551 01ed 00000000 		.4byte	fg_opa_save.5032
 10552 01f1 C7000000 		.4byte	.LVL30-1
 10553 01f5 FC000000 		.4byte	.LVL43
 10554 01f9 0200     		.2byte	0x2
 10555 01fb 91       		.byte	0x91
 10556 01fc 08       		.sleb128 8
 10557 01fd 00000000 		.4byte	0
 10558 0201 00000000 		.4byte	0
 10559              	.LLST13:
 10560 0205 24000000 		.4byte	.LVL10
 10561 0209 CA000000 		.4byte	.LVL31
 10562 020d 0100     		.2byte	0x1
 10563 020f 57       		.byte	0x57
 10564 0210 00000000 		.4byte	0
 10565 0214 00000000 		.4byte	0
 10566              	.LLST14:
 10567 0218 3E000000 		.4byte	.LVL14
 10568 021c 40000000 		.4byte	.LVL15
 10569 0220 0100     		.2byte	0x1
 10570 0222 50       		.byte	0x50
 10571 0223 40000000 		.4byte	.LVL15
 10572 0227 42000000 		.4byte	.LVL16
 10573 022b 0300     		.2byte	0x3
 10574 022d 70       		.byte	0x70
 10575 022e 7C       		.sleb128 -4
 10576 022f 9F       		.byte	0x9f
 10577 0230 42000000 		.4byte	.LVL16
 10578 0234 68000000 		.4byte	.LVL24
 10579 0238 0100     		.2byte	0x1
 10580 023a 50       		.byte	0x50
 10581 023b 00000000 		.4byte	0
 10582 023f 00000000 		.4byte	0
 10583              	.LLST15:
 10584 0243 4E000000 		.4byte	.LVL17
 10585 0247 68000000 		.4byte	.LVL24
 10586 024b 0100     		.2byte	0x1
 10587 024d 54       		.byte	0x54
 10588 024e 00000000 		.4byte	0
 10589 0252 00000000 		.4byte	0
 10590              	.LLST16:
 10591 0256 56000000 		.4byte	.LVL20
 10592 025a 58000000 		.4byte	.LVL21
 10593 025e 0100     		.2byte	0x1
 10594 0260 51       		.byte	0x51
 10595 0261 58000000 		.4byte	.LVL21
 10596 0265 5A000000 		.4byte	.LVL22
 10597 0269 0B00     		.2byte	0xb
ARM GAS  C:\Users\haske\AppData\Local\Temp\ccN8jSR9.s 			page 217


 10598 026b 76       		.byte	0x76
 10599 026c 00       		.sleb128 0
 10600 026d 40       		.byte	0x40
 10601 026e 24       		.byte	0x24
 10602 026f 76       		.byte	0x76
 10603 0270 00       		.sleb128 0
 10604 0271 21       		.byte	0x21
 10605 0272 72       		.byte	0x72
 10606 0273 00       		.sleb128 0
 10607 0274 1A       		.byte	0x1a
 10608 0275 9F       		.byte	0x9f
 10609 0276 00000000 		.4byte	0
 10610 027a 00000000 		.4byte	0
 10611              	.LLST17:
 10612 027e 66000000 		.4byte	.LVL23
 10613 0282 68000000 		.4byte	.LVL24
 10614 0286 0100     		.2byte	0x1
 10615 0288 52       		.byte	0x52
 10616 0289 00000000 		.4byte	0
 10617 028d 00000000 		.4byte	0
 10618              	.LLST18:
 10619 0291 C8000000 		.4byte	.LVL30
 10620 0295 D8000000 		.4byte	.LVL33
 10621 0299 0100     		.2byte	0x1
 10622 029b 50       		.byte	0x50
 10623 029c 00000000 		.4byte	0
 10624 02a0 00000000 		.4byte	0
 10625              	.LLST19:
 10626 02a4 C8000000 		.4byte	.LVL30
 10627 02a8 D2000000 		.4byte	.LVL32
 10628 02ac 0100     		.2byte	0x1
 10629 02ae 50       		.byte	0x50
 10630 02af D2000000 		.4byte	.LVL32
 10631 02b3 E4000000 		.4byte	.LVL37
 10632 02b7 0100     		.2byte	0x1
 10633 02b9 52       		.byte	0x52
 10634 02ba 00000000 		.4byte	0
 10635 02be 00000000 		.4byte	0
 10636              	.LLST20:
 10637 02c2 DA000000 		.4byte	.LVL34
 10638 02c6 EA000000 		.4byte	.LVL38
 10639 02ca 0100     		.2byte	0x1
 10640 02cc 53       		.byte	0x53
 10641 02cd EA000000 		.4byte	.LVL38
 10642 02d1 EE000000 		.4byte	.LVL40
 10643 02d5 0B00     		.2byte	0xb
 10644 02d7 74       		.byte	0x74
 10645 02d8 00       		.sleb128 0
 10646 02d9 40       		.byte	0x40
 10647 02da 24       		.byte	0x24
 10648 02db 74       		.byte	0x74
 10649 02dc 00       		.sleb128 0
 10650 02dd 21       		.byte	0x21
 10651 02de 70       		.byte	0x70
 10652 02df 00       		.sleb128 0
 10653 02e0 1A       		.byte	0x1a
 10654 02e1 9F       		.byte	0x9f
ARM GAS  C:\Users\haske\AppData\Local\Temp\ccN8jSR9.s 			page 218


 10655 02e2 EE000000 		.4byte	.LVL40
 10656 02e6 F0000000 		.4byte	.LVL41
 10657 02ea 0E00     		.2byte	0xe
 10658 02ec 74       		.byte	0x74
 10659 02ed 00       		.sleb128 0
 10660 02ee 40       		.byte	0x40
 10661 02ef 24       		.byte	0x24
 10662 02f0 74       		.byte	0x74
 10663 02f1 00       		.sleb128 0
 10664 02f2 21       		.byte	0x21
 10665 02f3 0C       		.byte	0xc
 10666 02f4 1FF8E007 		.4byte	0x7e0f81f
 10667 02f8 1A       		.byte	0x1a
 10668 02f9 9F       		.byte	0x9f
 10669 02fa 00000000 		.4byte	0
 10670 02fe 00000000 		.4byte	0
 10671              	.LLST21:
 10672 0302 E0000000 		.4byte	.LVL35
 10673 0306 E2000000 		.4byte	.LVL36
 10674 030a 0100     		.2byte	0x1
 10675 030c 51       		.byte	0x51
 10676 030d E2000000 		.4byte	.LVL36
 10677 0311 EE000000 		.4byte	.LVL40
 10678 0315 0B00     		.2byte	0xb
 10679 0317 76       		.byte	0x76
 10680 0318 00       		.sleb128 0
 10681 0319 40       		.byte	0x40
 10682 031a 24       		.byte	0x24
 10683 031b 76       		.byte	0x76
 10684 031c 00       		.sleb128 0
 10685 031d 21       		.byte	0x21
 10686 031e 70       		.byte	0x70
 10687 031f 00       		.sleb128 0
 10688 0320 1A       		.byte	0x1a
 10689 0321 9F       		.byte	0x9f
 10690 0322 EE000000 		.4byte	.LVL40
 10691 0326 F0000000 		.4byte	.LVL41
 10692 032a 0E00     		.2byte	0xe
 10693 032c 76       		.byte	0x76
 10694 032d 00       		.sleb128 0
 10695 032e 40       		.byte	0x40
 10696 032f 24       		.byte	0x24
 10697 0330 76       		.byte	0x76
 10698 0331 00       		.sleb128 0
 10699 0332 21       		.byte	0x21
 10700 0333 0C       		.byte	0xc
 10701 0334 1FF8E007 		.4byte	0x7e0f81f
 10702 0338 1A       		.byte	0x1a
 10703 0339 9F       		.byte	0x9f
 10704 033a 00000000 		.4byte	0
 10705 033e 00000000 		.4byte	0
 10706              	.LLST22:
 10707 0342 EC000000 		.4byte	.LVL39
 10708 0346 F0000000 		.4byte	.LVL41
 10709 034a 0100     		.2byte	0x1
 10710 034c 53       		.byte	0x53
 10711 034d 00000000 		.4byte	0
ARM GAS  C:\Users\haske\AppData\Local\Temp\ccN8jSR9.s 			page 219


 10712 0351 00000000 		.4byte	0
 10713              	.LLST23:
 10714 0355 00000000 		.4byte	.LVL48
 10715 0359 05000000 		.4byte	.LVL49-1
 10716 035d 0100     		.2byte	0x1
 10717 035f 50       		.byte	0x50
 10718 0360 05000000 		.4byte	.LVL49-1
 10719 0364 0A000000 		.4byte	.LFE181
 10720 0368 0400     		.2byte	0x4
 10721 036a F3       		.byte	0xf3
 10722 036b 01       		.uleb128 0x1
 10723 036c 50       		.byte	0x50
 10724 036d 9F       		.byte	0x9f
 10725 036e 00000000 		.4byte	0
 10726 0372 00000000 		.4byte	0
 10727              	.LLST24:
 10728 0376 00000000 		.4byte	.LVL48
 10729 037a 05000000 		.4byte	.LVL49-1
 10730 037e 0100     		.2byte	0x1
 10731 0380 51       		.byte	0x51
 10732 0381 05000000 		.4byte	.LVL49-1
 10733 0385 0A000000 		.4byte	.LFE181
 10734 0389 0400     		.2byte	0x4
 10735 038b F3       		.byte	0xf3
 10736 038c 01       		.uleb128 0x1
 10737 038d 51       		.byte	0x51
 10738 038e 9F       		.byte	0x9f
 10739 038f 00000000 		.4byte	0
 10740 0393 00000000 		.4byte	0
 10741              	.LLST25:
 10742 0397 00000000 		.4byte	.LVL50
 10743 039b 38000000 		.4byte	.LVL54
 10744 039f 0100     		.2byte	0x1
 10745 03a1 50       		.byte	0x50
 10746 03a2 38000000 		.4byte	.LVL54
 10747 03a6 AA000000 		.4byte	.LVL67
 10748 03aa 0100     		.2byte	0x1
 10749 03ac 57       		.byte	0x57
 10750 03ad AA000000 		.4byte	.LVL67
 10751 03b1 AC000000 		.4byte	.LFE186
 10752 03b5 0400     		.2byte	0x4
 10753 03b7 F3       		.byte	0xf3
 10754 03b8 01       		.uleb128 0x1
 10755 03b9 50       		.byte	0x50
 10756 03ba 9F       		.byte	0x9f
 10757 03bb 00000000 		.4byte	0
 10758 03bf 00000000 		.4byte	0
 10759              	.LLST26:
 10760 03c3 00000000 		.4byte	.LVL50
 10761 03c7 12000000 		.4byte	.LVL53
 10762 03cb 0100     		.2byte	0x1
 10763 03cd 51       		.byte	0x51
 10764 03ce 12000000 		.4byte	.LVL53
 10765 03d2 AC000000 		.4byte	.LFE186
 10766 03d6 0400     		.2byte	0x4
 10767 03d8 F3       		.byte	0xf3
 10768 03d9 01       		.uleb128 0x1
ARM GAS  C:\Users\haske\AppData\Local\Temp\ccN8jSR9.s 			page 220


 10769 03da 51       		.byte	0x51
 10770 03db 9F       		.byte	0x9f
 10771 03dc 00000000 		.4byte	0
 10772 03e0 00000000 		.4byte	0
 10773              	.LLST27:
 10774 03e4 00000000 		.4byte	.LVL50
 10775 03e8 0C000000 		.4byte	.LVL51
 10776 03ec 0100     		.2byte	0x1
 10777 03ee 52       		.byte	0x52
 10778 03ef 0C000000 		.4byte	.LVL51
 10779 03f3 AC000000 		.4byte	.LFE186
 10780 03f7 0400     		.2byte	0x4
 10781 03f9 F3       		.byte	0xf3
 10782 03fa 01       		.uleb128 0x1
 10783 03fb 52       		.byte	0x52
 10784 03fc 9F       		.byte	0x9f
 10785 03fd 00000000 		.4byte	0
 10786 0401 00000000 		.4byte	0
 10787              	.LLST28:
 10788 0405 00000000 		.4byte	.LVL50
 10789 0409 4A000000 		.4byte	.LVL55
 10790 040d 0100     		.2byte	0x1
 10791 040f 53       		.byte	0x53
 10792 0410 00000000 		.4byte	0
 10793 0414 00000000 		.4byte	0
 10794              	.LLST29:
 10795 0418 00000000 		.4byte	.LVL50
 10796 041c 0C000000 		.4byte	.LVL51
 10797 0420 0200     		.2byte	0x2
 10798 0422 91       		.byte	0x91
 10799 0423 00       		.sleb128 0
 10800 0424 0C000000 		.4byte	.LVL51
 10801 0428 10000000 		.4byte	.LVL52
 10802 042c 0200     		.2byte	0x2
 10803 042e 72       		.byte	0x72
 10804 042f 00       		.sleb128 0
 10805 0430 10000000 		.4byte	.LVL52
 10806 0434 AC000000 		.4byte	.LFE186
 10807 0438 0200     		.2byte	0x2
 10808 043a 91       		.byte	0x91
 10809 043b 00       		.sleb128 0
 10810 043c 00000000 		.4byte	0
 10811 0440 00000000 		.4byte	0
 10812              	.LLST30:
 10813 0444 9C000000 		.4byte	.LVL64
 10814 0448 AA000000 		.4byte	.LVL66
 10815 044c 0100     		.2byte	0x1
 10816 044e 54       		.byte	0x54
 10817 044f 00000000 		.4byte	0
 10818 0453 00000000 		.4byte	0
 10819              	.LLST31:
 10820 0457 7C000000 		.4byte	.LVL60
 10821 045b 80000000 		.4byte	.LVL61
 10822 045f 0100     		.2byte	0x1
 10823 0461 54       		.byte	0x54
 10824 0462 00000000 		.4byte	0
 10825 0466 00000000 		.4byte	0
ARM GAS  C:\Users\haske\AppData\Local\Temp\ccN8jSR9.s 			page 221


 10826              	.LLST32:
 10827 046a 62000000 		.4byte	.LVL57
 10828 046e 78000000 		.4byte	.LVL59
 10829 0472 0100     		.2byte	0x1
 10830 0474 52       		.byte	0x52
 10831 0475 00000000 		.4byte	0
 10832 0479 00000000 		.4byte	0
 10833              	.LLST33:
 10834 047d 8E000000 		.4byte	.LVL62
 10835 0481 96000000 		.4byte	.LVL63
 10836 0485 0100     		.2byte	0x1
 10837 0487 50       		.byte	0x50
 10838 0488 00000000 		.4byte	0
 10839 048c 00000000 		.4byte	0
 10840              	.LLST34:
 10841 0490 00000000 		.4byte	.LVL68
 10842 0494 12000000 		.4byte	.LVL72
 10843 0498 0100     		.2byte	0x1
 10844 049a 50       		.byte	0x50
 10845 049b 12000000 		.4byte	.LVL72
 10846 049f 48000000 		.4byte	.LFE185
 10847 04a3 0400     		.2byte	0x4
 10848 04a5 F3       		.byte	0xf3
 10849 04a6 01       		.uleb128 0x1
 10850 04a7 50       		.byte	0x50
 10851 04a8 9F       		.byte	0x9f
 10852 04a9 00000000 		.4byte	0
 10853 04ad 00000000 		.4byte	0
 10854              	.LLST35:
 10855 04b1 00000000 		.4byte	.LVL68
 10856 04b5 3C000000 		.4byte	.LVL75
 10857 04b9 0100     		.2byte	0x1
 10858 04bb 51       		.byte	0x51
 10859 04bc 3C000000 		.4byte	.LVL75
 10860 04c0 3F000000 		.4byte	.LVL76-1
 10861 04c4 0200     		.2byte	0x2
 10862 04c6 70       		.byte	0x70
 10863 04c7 08       		.sleb128 8
 10864 04c8 3F000000 		.4byte	.LVL76-1
 10865 04cc 48000000 		.4byte	.LFE185
 10866 04d0 0400     		.2byte	0x4
 10867 04d2 F3       		.byte	0xf3
 10868 04d3 01       		.uleb128 0x1
 10869 04d4 51       		.byte	0x51
 10870 04d5 9F       		.byte	0x9f
 10871 04d6 00000000 		.4byte	0
 10872 04da 00000000 		.4byte	0
 10873              	.LLST36:
 10874 04de 00000000 		.4byte	.LVL68
 10875 04e2 24000000 		.4byte	.LVL74
 10876 04e6 0100     		.2byte	0x1
 10877 04e8 52       		.byte	0x52
 10878 04e9 24000000 		.4byte	.LVL74
 10879 04ed 48000000 		.4byte	.LFE185
 10880 04f1 0400     		.2byte	0x4
 10881 04f3 F3       		.byte	0xf3
 10882 04f4 01       		.uleb128 0x1
ARM GAS  C:\Users\haske\AppData\Local\Temp\ccN8jSR9.s 			page 222


 10883 04f5 52       		.byte	0x52
 10884 04f6 9F       		.byte	0x9f
 10885 04f7 00000000 		.4byte	0
 10886 04fb 00000000 		.4byte	0
 10887              	.LLST37:
 10888 04ff 00000000 		.4byte	.LVL68
 10889 0503 08000000 		.4byte	.LVL69
 10890 0507 0100     		.2byte	0x1
 10891 0509 53       		.byte	0x53
 10892 050a 08000000 		.4byte	.LVL69
 10893 050e 48000000 		.4byte	.LFE185
 10894 0512 0400     		.2byte	0x4
 10895 0514 F3       		.byte	0xf3
 10896 0515 01       		.uleb128 0x1
 10897 0516 53       		.byte	0x53
 10898 0517 9F       		.byte	0x9f
 10899 0518 00000000 		.4byte	0
 10900 051c 00000000 		.4byte	0
 10901              	.LLST38:
 10902 0520 00000000 		.4byte	.LVL68
 10903 0524 08000000 		.4byte	.LVL69
 10904 0528 0200     		.2byte	0x2
 10905 052a 91       		.byte	0x91
 10906 052b 00       		.sleb128 0
 10907 052c 08000000 		.4byte	.LVL69
 10908 0530 0C000000 		.4byte	.LVL70
 10909 0534 0200     		.2byte	0x2
 10910 0536 73       		.byte	0x73
 10911 0537 00       		.sleb128 0
 10912 0538 0C000000 		.4byte	.LVL70
 10913 053c 48000000 		.4byte	.LFE185
 10914 0540 0200     		.2byte	0x2
 10915 0542 91       		.byte	0x91
 10916 0543 00       		.sleb128 0
 10917 0544 00000000 		.4byte	0
 10918 0548 00000000 		.4byte	0
 10919              	.LLST39:
 10920 054c 00000000 		.4byte	.LVL68
 10921 0550 10000000 		.4byte	.LVL71
 10922 0554 0200     		.2byte	0x2
 10923 0556 91       		.byte	0x91
 10924 0557 04       		.sleb128 4
 10925 0558 00000000 		.4byte	0
 10926 055c 00000000 		.4byte	0
 10927              	.LLST40:
 10928 0560 00000000 		.4byte	.LVL68
 10929 0564 08000000 		.4byte	.LVL69
 10930 0568 0200     		.2byte	0x2
 10931 056a 91       		.byte	0x91
 10932 056b 08       		.sleb128 8
 10933 056c 08000000 		.4byte	.LVL69
 10934 0570 0C000000 		.4byte	.LVL70
 10935 0574 0200     		.2byte	0x2
 10936 0576 73       		.byte	0x73
 10937 0577 08       		.sleb128 8
 10938 0578 0C000000 		.4byte	.LVL70
 10939 057c 12000000 		.4byte	.LVL72
ARM GAS  C:\Users\haske\AppData\Local\Temp\ccN8jSR9.s 			page 223


 10940 0580 0200     		.2byte	0x2
 10941 0582 91       		.byte	0x91
 10942 0583 08       		.sleb128 8
 10943 0584 12000000 		.4byte	.LVL72
 10944 0588 1A000000 		.4byte	.LVL73
 10945 058c 0200     		.2byte	0x2
 10946 058e 70       		.byte	0x70
 10947 058f 00       		.sleb128 0
 10948 0590 1A000000 		.4byte	.LVL73
 10949 0594 48000000 		.4byte	.LFE185
 10950 0598 0200     		.2byte	0x2
 10951 059a 91       		.byte	0x91
 10952 059b 08       		.sleb128 8
 10953 059c 00000000 		.4byte	0
 10954 05a0 00000000 		.4byte	0
 10955              	.LLST41:
 10956 05a4 00000000 		.4byte	.LVL77
 10957 05a8 12000000 		.4byte	.LVL81
 10958 05ac 0100     		.2byte	0x1
 10959 05ae 50       		.byte	0x50
 10960 05af 12000000 		.4byte	.LVL81
 10961 05b3 48000000 		.4byte	.LFE184
 10962 05b7 0400     		.2byte	0x4
 10963 05b9 F3       		.byte	0xf3
 10964 05ba 01       		.uleb128 0x1
 10965 05bb 50       		.byte	0x50
 10966 05bc 9F       		.byte	0x9f
 10967 05bd 00000000 		.4byte	0
 10968 05c1 00000000 		.4byte	0
 10969              	.LLST42:
 10970 05c5 00000000 		.4byte	.LVL77
 10971 05c9 3C000000 		.4byte	.LVL84
 10972 05cd 0100     		.2byte	0x1
 10973 05cf 51       		.byte	0x51
 10974 05d0 3C000000 		.4byte	.LVL84
 10975 05d4 3F000000 		.4byte	.LVL85-1
 10976 05d8 0200     		.2byte	0x2
 10977 05da 70       		.byte	0x70
 10978 05db 08       		.sleb128 8
 10979 05dc 3F000000 		.4byte	.LVL85-1
 10980 05e0 48000000 		.4byte	.LFE184
 10981 05e4 0400     		.2byte	0x4
 10982 05e6 F3       		.byte	0xf3
 10983 05e7 01       		.uleb128 0x1
 10984 05e8 51       		.byte	0x51
 10985 05e9 9F       		.byte	0x9f
 10986 05ea 00000000 		.4byte	0
 10987 05ee 00000000 		.4byte	0
 10988              	.LLST43:
 10989 05f2 00000000 		.4byte	.LVL77
 10990 05f6 24000000 		.4byte	.LVL83
 10991 05fa 0100     		.2byte	0x1
 10992 05fc 52       		.byte	0x52
 10993 05fd 24000000 		.4byte	.LVL83
 10994 0601 48000000 		.4byte	.LFE184
 10995 0605 0400     		.2byte	0x4
 10996 0607 F3       		.byte	0xf3
ARM GAS  C:\Users\haske\AppData\Local\Temp\ccN8jSR9.s 			page 224


 10997 0608 01       		.uleb128 0x1
 10998 0609 52       		.byte	0x52
 10999 060a 9F       		.byte	0x9f
 11000 060b 00000000 		.4byte	0
 11001 060f 00000000 		.4byte	0
 11002              	.LLST44:
 11003 0613 00000000 		.4byte	.LVL77
 11004 0617 08000000 		.4byte	.LVL78
 11005 061b 0100     		.2byte	0x1
 11006 061d 53       		.byte	0x53
 11007 061e 08000000 		.4byte	.LVL78
 11008 0622 48000000 		.4byte	.LFE184
 11009 0626 0400     		.2byte	0x4
 11010 0628 F3       		.byte	0xf3
 11011 0629 01       		.uleb128 0x1
 11012 062a 53       		.byte	0x53
 11013 062b 9F       		.byte	0x9f
 11014 062c 00000000 		.4byte	0
 11015 0630 00000000 		.4byte	0
 11016              	.LLST45:
 11017 0634 00000000 		.4byte	.LVL77
 11018 0638 08000000 		.4byte	.LVL78
 11019 063c 0200     		.2byte	0x2
 11020 063e 91       		.byte	0x91
 11021 063f 00       		.sleb128 0
 11022 0640 08000000 		.4byte	.LVL78
 11023 0644 0C000000 		.4byte	.LVL79
 11024 0648 0200     		.2byte	0x2
 11025 064a 73       		.byte	0x73
 11026 064b 00       		.sleb128 0
 11027 064c 0C000000 		.4byte	.LVL79
 11028 0650 48000000 		.4byte	.LFE184
 11029 0654 0200     		.2byte	0x2
 11030 0656 91       		.byte	0x91
 11031 0657 00       		.sleb128 0
 11032 0658 00000000 		.4byte	0
 11033 065c 00000000 		.4byte	0
 11034              	.LLST46:
 11035 0660 00000000 		.4byte	.LVL77
 11036 0664 10000000 		.4byte	.LVL80
 11037 0668 0200     		.2byte	0x2
 11038 066a 91       		.byte	0x91
 11039 066b 04       		.sleb128 4
 11040 066c 00000000 		.4byte	0
 11041 0670 00000000 		.4byte	0
 11042              	.LLST47:
 11043 0674 00000000 		.4byte	.LVL77
 11044 0678 08000000 		.4byte	.LVL78
 11045 067c 0200     		.2byte	0x2
 11046 067e 91       		.byte	0x91
 11047 067f 08       		.sleb128 8
 11048 0680 08000000 		.4byte	.LVL78
 11049 0684 0C000000 		.4byte	.LVL79
 11050 0688 0200     		.2byte	0x2
 11051 068a 73       		.byte	0x73
 11052 068b 08       		.sleb128 8
 11053 068c 0C000000 		.4byte	.LVL79
ARM GAS  C:\Users\haske\AppData\Local\Temp\ccN8jSR9.s 			page 225


 11054 0690 12000000 		.4byte	.LVL81
 11055 0694 0200     		.2byte	0x2
 11056 0696 91       		.byte	0x91
 11057 0697 08       		.sleb128 8
 11058 0698 12000000 		.4byte	.LVL81
 11059 069c 1A000000 		.4byte	.LVL82
 11060 06a0 0200     		.2byte	0x2
 11061 06a2 70       		.byte	0x70
 11062 06a3 00       		.sleb128 0
 11063 06a4 1A000000 		.4byte	.LVL82
 11064 06a8 48000000 		.4byte	.LFE184
 11065 06ac 0200     		.2byte	0x2
 11066 06ae 91       		.byte	0x91
 11067 06af 08       		.sleb128 8
 11068 06b0 00000000 		.4byte	0
 11069 06b4 00000000 		.4byte	0
 11070              	.LLST48:
 11071 06b8 00000000 		.4byte	.LVL86
 11072 06bc 12000000 		.4byte	.LVL90
 11073 06c0 0100     		.2byte	0x1
 11074 06c2 50       		.byte	0x50
 11075 06c3 12000000 		.4byte	.LVL90
 11076 06c7 48000000 		.4byte	.LFE183
 11077 06cb 0400     		.2byte	0x4
 11078 06cd F3       		.byte	0xf3
 11079 06ce 01       		.uleb128 0x1
 11080 06cf 50       		.byte	0x50
 11081 06d0 9F       		.byte	0x9f
 11082 06d1 00000000 		.4byte	0
 11083 06d5 00000000 		.4byte	0
 11084              	.LLST49:
 11085 06d9 00000000 		.4byte	.LVL86
 11086 06dd 3C000000 		.4byte	.LVL93
 11087 06e1 0100     		.2byte	0x1
 11088 06e3 51       		.byte	0x51
 11089 06e4 3C000000 		.4byte	.LVL93
 11090 06e8 3F000000 		.4byte	.LVL94-1
 11091 06ec 0200     		.2byte	0x2
 11092 06ee 70       		.byte	0x70
 11093 06ef 08       		.sleb128 8
 11094 06f0 3F000000 		.4byte	.LVL94-1
 11095 06f4 48000000 		.4byte	.LFE183
 11096 06f8 0400     		.2byte	0x4
 11097 06fa F3       		.byte	0xf3
 11098 06fb 01       		.uleb128 0x1
 11099 06fc 51       		.byte	0x51
 11100 06fd 9F       		.byte	0x9f
 11101 06fe 00000000 		.4byte	0
 11102 0702 00000000 		.4byte	0
 11103              	.LLST50:
 11104 0706 00000000 		.4byte	.LVL86
 11105 070a 24000000 		.4byte	.LVL92
 11106 070e 0100     		.2byte	0x1
 11107 0710 52       		.byte	0x52
 11108 0711 24000000 		.4byte	.LVL92
 11109 0715 48000000 		.4byte	.LFE183
 11110 0719 0400     		.2byte	0x4
ARM GAS  C:\Users\haske\AppData\Local\Temp\ccN8jSR9.s 			page 226


 11111 071b F3       		.byte	0xf3
 11112 071c 01       		.uleb128 0x1
 11113 071d 52       		.byte	0x52
 11114 071e 9F       		.byte	0x9f
 11115 071f 00000000 		.4byte	0
 11116 0723 00000000 		.4byte	0
 11117              	.LLST51:
 11118 0727 00000000 		.4byte	.LVL86
 11119 072b 08000000 		.4byte	.LVL87
 11120 072f 0100     		.2byte	0x1
 11121 0731 53       		.byte	0x53
 11122 0732 08000000 		.4byte	.LVL87
 11123 0736 48000000 		.4byte	.LFE183
 11124 073a 0400     		.2byte	0x4
 11125 073c F3       		.byte	0xf3
 11126 073d 01       		.uleb128 0x1
 11127 073e 53       		.byte	0x53
 11128 073f 9F       		.byte	0x9f
 11129 0740 00000000 		.4byte	0
 11130 0744 00000000 		.4byte	0
 11131              	.LLST52:
 11132 0748 00000000 		.4byte	.LVL86
 11133 074c 08000000 		.4byte	.LVL87
 11134 0750 0200     		.2byte	0x2
 11135 0752 91       		.byte	0x91
 11136 0753 00       		.sleb128 0
 11137 0754 08000000 		.4byte	.LVL87
 11138 0758 0C000000 		.4byte	.LVL88
 11139 075c 0200     		.2byte	0x2
 11140 075e 73       		.byte	0x73
 11141 075f 00       		.sleb128 0
 11142 0760 0C000000 		.4byte	.LVL88
 11143 0764 48000000 		.4byte	.LFE183
 11144 0768 0200     		.2byte	0x2
 11145 076a 91       		.byte	0x91
 11146 076b 00       		.sleb128 0
 11147 076c 00000000 		.4byte	0
 11148 0770 00000000 		.4byte	0
 11149              	.LLST53:
 11150 0774 00000000 		.4byte	.LVL86
 11151 0778 10000000 		.4byte	.LVL89
 11152 077c 0200     		.2byte	0x2
 11153 077e 91       		.byte	0x91
 11154 077f 04       		.sleb128 4
 11155 0780 00000000 		.4byte	0
 11156 0784 00000000 		.4byte	0
 11157              	.LLST54:
 11158 0788 00000000 		.4byte	.LVL86
 11159 078c 08000000 		.4byte	.LVL87
 11160 0790 0200     		.2byte	0x2
 11161 0792 91       		.byte	0x91
 11162 0793 08       		.sleb128 8
 11163 0794 08000000 		.4byte	.LVL87
 11164 0798 0C000000 		.4byte	.LVL88
 11165 079c 0200     		.2byte	0x2
 11166 079e 73       		.byte	0x73
 11167 079f 08       		.sleb128 8
ARM GAS  C:\Users\haske\AppData\Local\Temp\ccN8jSR9.s 			page 227


 11168 07a0 0C000000 		.4byte	.LVL88
 11169 07a4 12000000 		.4byte	.LVL90
 11170 07a8 0200     		.2byte	0x2
 11171 07aa 91       		.byte	0x91
 11172 07ab 08       		.sleb128 8
 11173 07ac 12000000 		.4byte	.LVL90
 11174 07b0 1A000000 		.4byte	.LVL91
 11175 07b4 0200     		.2byte	0x2
 11176 07b6 70       		.byte	0x70
 11177 07b7 00       		.sleb128 0
 11178 07b8 1A000000 		.4byte	.LVL91
 11179 07bc 48000000 		.4byte	.LFE183
 11180 07c0 0200     		.2byte	0x2
 11181 07c2 91       		.byte	0x91
 11182 07c3 08       		.sleb128 8
 11183 07c4 00000000 		.4byte	0
 11184 07c8 00000000 		.4byte	0
 11185              	.LLST55:
 11186 07cc 00000000 		.4byte	.LVL95
 11187 07d0 12000000 		.4byte	.LVL99
 11188 07d4 0100     		.2byte	0x1
 11189 07d6 50       		.byte	0x50
 11190 07d7 12000000 		.4byte	.LVL99
 11191 07db 48000000 		.4byte	.LFE182
 11192 07df 0400     		.2byte	0x4
 11193 07e1 F3       		.byte	0xf3
 11194 07e2 01       		.uleb128 0x1
 11195 07e3 50       		.byte	0x50
 11196 07e4 9F       		.byte	0x9f
 11197 07e5 00000000 		.4byte	0
 11198 07e9 00000000 		.4byte	0
 11199              	.LLST56:
 11200 07ed 00000000 		.4byte	.LVL95
 11201 07f1 3C000000 		.4byte	.LVL102
 11202 07f5 0100     		.2byte	0x1
 11203 07f7 51       		.byte	0x51
 11204 07f8 3C000000 		.4byte	.LVL102
 11205 07fc 3F000000 		.4byte	.LVL103-1
 11206 0800 0200     		.2byte	0x2
 11207 0802 70       		.byte	0x70
 11208 0803 08       		.sleb128 8
 11209 0804 3F000000 		.4byte	.LVL103-1
 11210 0808 48000000 		.4byte	.LFE182
 11211 080c 0400     		.2byte	0x4
 11212 080e F3       		.byte	0xf3
 11213 080f 01       		.uleb128 0x1
 11214 0810 51       		.byte	0x51
 11215 0811 9F       		.byte	0x9f
 11216 0812 00000000 		.4byte	0
 11217 0816 00000000 		.4byte	0
 11218              	.LLST57:
 11219 081a 00000000 		.4byte	.LVL95
 11220 081e 24000000 		.4byte	.LVL101
 11221 0822 0100     		.2byte	0x1
 11222 0824 52       		.byte	0x52
 11223 0825 24000000 		.4byte	.LVL101
 11224 0829 48000000 		.4byte	.LFE182
ARM GAS  C:\Users\haske\AppData\Local\Temp\ccN8jSR9.s 			page 228


 11225 082d 0400     		.2byte	0x4
 11226 082f F3       		.byte	0xf3
 11227 0830 01       		.uleb128 0x1
 11228 0831 52       		.byte	0x52
 11229 0832 9F       		.byte	0x9f
 11230 0833 00000000 		.4byte	0
 11231 0837 00000000 		.4byte	0
 11232              	.LLST58:
 11233 083b 00000000 		.4byte	.LVL95
 11234 083f 08000000 		.4byte	.LVL96
 11235 0843 0100     		.2byte	0x1
 11236 0845 53       		.byte	0x53
 11237 0846 08000000 		.4byte	.LVL96
 11238 084a 48000000 		.4byte	.LFE182
 11239 084e 0400     		.2byte	0x4
 11240 0850 F3       		.byte	0xf3
 11241 0851 01       		.uleb128 0x1
 11242 0852 53       		.byte	0x53
 11243 0853 9F       		.byte	0x9f
 11244 0854 00000000 		.4byte	0
 11245 0858 00000000 		.4byte	0
 11246              	.LLST59:
 11247 085c 00000000 		.4byte	.LVL95
 11248 0860 08000000 		.4byte	.LVL96
 11249 0864 0200     		.2byte	0x2
 11250 0866 91       		.byte	0x91
 11251 0867 00       		.sleb128 0
 11252 0868 08000000 		.4byte	.LVL96
 11253 086c 0C000000 		.4byte	.LVL97
 11254 0870 0200     		.2byte	0x2
 11255 0872 73       		.byte	0x73
 11256 0873 00       		.sleb128 0
 11257 0874 0C000000 		.4byte	.LVL97
 11258 0878 48000000 		.4byte	.LFE182
 11259 087c 0200     		.2byte	0x2
 11260 087e 91       		.byte	0x91
 11261 087f 00       		.sleb128 0
 11262 0880 00000000 		.4byte	0
 11263 0884 00000000 		.4byte	0
 11264              	.LLST60:
 11265 0888 00000000 		.4byte	.LVL95
 11266 088c 10000000 		.4byte	.LVL98
 11267 0890 0200     		.2byte	0x2
 11268 0892 91       		.byte	0x91
 11269 0893 04       		.sleb128 4
 11270 0894 00000000 		.4byte	0
 11271 0898 00000000 		.4byte	0
 11272              	.LLST61:
 11273 089c 00000000 		.4byte	.LVL95
 11274 08a0 08000000 		.4byte	.LVL96
 11275 08a4 0200     		.2byte	0x2
 11276 08a6 91       		.byte	0x91
 11277 08a7 08       		.sleb128 8
 11278 08a8 08000000 		.4byte	.LVL96
 11279 08ac 0C000000 		.4byte	.LVL97
 11280 08b0 0200     		.2byte	0x2
 11281 08b2 73       		.byte	0x73
ARM GAS  C:\Users\haske\AppData\Local\Temp\ccN8jSR9.s 			page 229


 11282 08b3 08       		.sleb128 8
 11283 08b4 0C000000 		.4byte	.LVL97
 11284 08b8 12000000 		.4byte	.LVL99
 11285 08bc 0200     		.2byte	0x2
 11286 08be 91       		.byte	0x91
 11287 08bf 08       		.sleb128 8
 11288 08c0 12000000 		.4byte	.LVL99
 11289 08c4 1A000000 		.4byte	.LVL100
 11290 08c8 0200     		.2byte	0x2
 11291 08ca 70       		.byte	0x70
 11292 08cb 00       		.sleb128 0
 11293 08cc 1A000000 		.4byte	.LVL100
 11294 08d0 48000000 		.4byte	.LFE182
 11295 08d4 0200     		.2byte	0x2
 11296 08d6 91       		.byte	0x91
 11297 08d7 08       		.sleb128 8
 11298 08d8 00000000 		.4byte	0
 11299 08dc 00000000 		.4byte	0
 11300              	.LLST62:
 11301 08e0 00000000 		.4byte	.LVL104
 11302 08e4 09000000 		.4byte	.LVL105-1
 11303 08e8 0100     		.2byte	0x1
 11304 08ea 50       		.byte	0x50
 11305 08eb 09000000 		.4byte	.LVL105-1
 11306 08ef 4C000000 		.4byte	.LVL108
 11307 08f3 0100     		.2byte	0x1
 11308 08f5 54       		.byte	0x54
 11309 08f6 4C000000 		.4byte	.LVL108
 11310 08fa 58000000 		.4byte	.LFE159
 11311 08fe 0400     		.2byte	0x4
 11312 0900 F3       		.byte	0xf3
 11313 0901 01       		.uleb128 0x1
 11314 0902 50       		.byte	0x50
 11315 0903 9F       		.byte	0x9f
 11316 0904 00000000 		.4byte	0
 11317 0908 00000000 		.4byte	0
 11318              	.LLST63:
 11319 090c 3C000000 		.4byte	.LVL106
 11320 0910 40000000 		.4byte	.LVL107
 11321 0914 0400     		.2byte	0x4
 11322 0916 0A       		.byte	0xa
 11323 0917 00FF     		.2byte	0xff00
 11324 0919 9F       		.byte	0x9f
 11325 091a 00000000 		.4byte	0
 11326 091e 00000000 		.4byte	0
 11327              	.LLST64:
 11328 0922 00000000 		.4byte	.LVL109
 11329 0926 0F000000 		.4byte	.LVL111-1
 11330 092a 0100     		.2byte	0x1
 11331 092c 50       		.byte	0x50
 11332 092d 0F000000 		.4byte	.LVL111-1
 11333 0931 18000000 		.4byte	.LVL112
 11334 0935 0100     		.2byte	0x1
 11335 0937 54       		.byte	0x54
 11336 0938 18000000 		.4byte	.LVL112
 11337 093c 1A000000 		.4byte	.LFE160
 11338 0940 0400     		.2byte	0x4
ARM GAS  C:\Users\haske\AppData\Local\Temp\ccN8jSR9.s 			page 230


 11339 0942 F3       		.byte	0xf3
 11340 0943 01       		.uleb128 0x1
 11341 0944 50       		.byte	0x50
 11342 0945 9F       		.byte	0x9f
 11343 0946 00000000 		.4byte	0
 11344 094a 00000000 		.4byte	0
 11345              	.LLST65:
 11346 094e 00000000 		.4byte	.LVL109
 11347 0952 0C000000 		.4byte	.LVL110
 11348 0956 0100     		.2byte	0x1
 11349 0958 51       		.byte	0x51
 11350 0959 0C000000 		.4byte	.LVL110
 11351 095d 18000000 		.4byte	.LVL113
 11352 0961 0100     		.2byte	0x1
 11353 0963 55       		.byte	0x55
 11354 0964 18000000 		.4byte	.LVL113
 11355 0968 1A000000 		.4byte	.LFE160
 11356 096c 0300     		.2byte	0x3
 11357 096e F3       		.byte	0xf3
 11358 096f 01       		.uleb128 0x1
 11359 0970 50       		.byte	0x50
 11360 0971 00000000 		.4byte	0
 11361 0975 00000000 		.4byte	0
 11362              	.LLST66:
 11363 0979 00000000 		.4byte	.LVL109
 11364 097d 0F000000 		.4byte	.LVL111-1
 11365 0981 0100     		.2byte	0x1
 11366 0983 52       		.byte	0x52
 11367 0984 0F000000 		.4byte	.LVL111-1
 11368 0988 18000000 		.4byte	.LVL115
 11369 098c 0100     		.2byte	0x1
 11370 098e 57       		.byte	0x57
 11371 098f 18000000 		.4byte	.LVL115
 11372 0993 1A000000 		.4byte	.LFE160
 11373 0997 0500     		.2byte	0x5
 11374 0999 F3       		.byte	0xf3
 11375 099a 01       		.uleb128 0x1
 11376 099b 50       		.byte	0x50
 11377 099c 23       		.byte	0x23
 11378 099d 04       		.uleb128 0x4
 11379 099e 00000000 		.4byte	0
 11380 09a2 00000000 		.4byte	0
 11381              	.LLST67:
 11382 09a6 00000000 		.4byte	.LVL109
 11383 09aa 0F000000 		.4byte	.LVL111-1
 11384 09ae 0100     		.2byte	0x1
 11385 09b0 53       		.byte	0x53
 11386 09b1 0F000000 		.4byte	.LVL111-1
 11387 09b5 18000000 		.4byte	.LVL114
 11388 09b9 0100     		.2byte	0x1
 11389 09bb 56       		.byte	0x56
 11390 09bc 18000000 		.4byte	.LVL114
 11391 09c0 1A000000 		.4byte	.LFE160
 11392 09c4 0500     		.2byte	0x5
 11393 09c6 F3       		.byte	0xf3
 11394 09c7 01       		.uleb128 0x1
 11395 09c8 50       		.byte	0x50
ARM GAS  C:\Users\haske\AppData\Local\Temp\ccN8jSR9.s 			page 231


 11396 09c9 23       		.byte	0x23
 11397 09ca 0C       		.uleb128 0xc
 11398 09cb 00000000 		.4byte	0
 11399 09cf 00000000 		.4byte	0
 11400              	.LLST68:
 11401 09d3 00000000 		.4byte	.LVL116
 11402 09d7 08000000 		.4byte	.LVL117
 11403 09db 0100     		.2byte	0x1
 11404 09dd 50       		.byte	0x50
 11405 09de 08000000 		.4byte	.LVL117
 11406 09e2 B8000000 		.4byte	.LVL134
 11407 09e6 0100     		.2byte	0x1
 11408 09e8 55       		.byte	0x55
 11409 09e9 B8000000 		.4byte	.LVL134
 11410 09ed D2000000 		.4byte	.LVL137
 11411 09f1 0400     		.2byte	0x4
 11412 09f3 F3       		.byte	0xf3
 11413 09f4 01       		.uleb128 0x1
 11414 09f5 50       		.byte	0x50
 11415 09f6 9F       		.byte	0x9f
 11416 09f7 D2000000 		.4byte	.LVL137
 11417 09fb D8000000 		.4byte	.LVL139
 11418 09ff 0100     		.2byte	0x1
 11419 0a01 55       		.byte	0x55
 11420 0a02 D8000000 		.4byte	.LVL139
 11421 0a06 40010000 		.4byte	.LVL152
 11422 0a0a 0400     		.2byte	0x4
 11423 0a0c F3       		.byte	0xf3
 11424 0a0d 01       		.uleb128 0x1
 11425 0a0e 50       		.byte	0x50
 11426 0a0f 9F       		.byte	0x9f
 11427 0a10 40010000 		.4byte	.LVL152
 11428 0a14 46010000 		.4byte	.LVL155
 11429 0a18 0100     		.2byte	0x1
 11430 0a1a 55       		.byte	0x55
 11431 0a1b 46010000 		.4byte	.LVL155
 11432 0a1f 64010000 		.4byte	.LFE161
 11433 0a23 0400     		.2byte	0x4
 11434 0a25 F3       		.byte	0xf3
 11435 0a26 01       		.uleb128 0x1
 11436 0a27 50       		.byte	0x50
 11437 0a28 9F       		.byte	0x9f
 11438 0a29 00000000 		.4byte	0
 11439 0a2d 00000000 		.4byte	0
 11440              	.LLST69:
 11441 0a31 0E000000 		.4byte	.LVL119
 11442 0a35 20000000 		.4byte	.LVL120
 11443 0a39 0100     		.2byte	0x1
 11444 0a3b 50       		.byte	0x50
 11445 0a3c 20000000 		.4byte	.LVL120
 11446 0a40 40010000 		.4byte	.LVL152
 11447 0a44 0100     		.2byte	0x1
 11448 0a46 54       		.byte	0x54
 11449 0a47 40010000 		.4byte	.LVL152
 11450 0a4b 42010000 		.4byte	.LVL153
 11451 0a4f 0100     		.2byte	0x1
 11452 0a51 50       		.byte	0x50
ARM GAS  C:\Users\haske\AppData\Local\Temp\ccN8jSR9.s 			page 232


 11453 0a52 42010000 		.4byte	.LVL153
 11454 0a56 48010000 		.4byte	.LVL156
 11455 0a5a 0100     		.2byte	0x1
 11456 0a5c 54       		.byte	0x54
 11457 0a5d 00000000 		.4byte	0
 11458 0a61 00000000 		.4byte	0
 11459              	.LLST70:
 11460 0a65 52000000 		.4byte	.LVL127
 11461 0a69 40010000 		.4byte	.LVL152
 11462 0a6d 0100     		.2byte	0x1
 11463 0a6f 56       		.byte	0x56
 11464 0a70 00000000 		.4byte	0
 11465 0a74 00000000 		.4byte	0
 11466              	.LLST71:
 11467 0a78 26000000 		.4byte	.LVL122
 11468 0a7c 34000000 		.4byte	.LVL123
 11469 0a80 0100     		.2byte	0x1
 11470 0a82 50       		.byte	0x50
 11471 0a83 34000000 		.4byte	.LVL123
 11472 0a87 3A000000 		.4byte	.LVL125
 11473 0a8b 0100     		.2byte	0x1
 11474 0a8d 56       		.byte	0x56
 11475 0a8e 44010000 		.4byte	.LVL154
 11476 0a92 46010000 		.4byte	.LVL155
 11477 0a96 0100     		.2byte	0x1
 11478 0a98 50       		.byte	0x50
 11479 0a99 00000000 		.4byte	0
 11480 0a9d 00000000 		.4byte	0
 11481              	.LLST72:
 11482 0aa1 94000000 		.4byte	.LVL130
 11483 0aa5 A0000000 		.4byte	.LVL131
 11484 0aa9 0300     		.2byte	0x3
 11485 0aab 09       		.byte	0x9
 11486 0aac FF       		.byte	0xff
 11487 0aad 9F       		.byte	0x9f
 11488 0aae 00000000 		.4byte	0
 11489 0ab2 00000000 		.4byte	0
 11490              	.LLST75:
 11491 0ab6 F0000000 		.4byte	.LVL143
 11492 0aba FB000000 		.4byte	.LVL144-1
 11493 0abe 0200     		.2byte	0x2
 11494 0ac0 74       		.byte	0x74
 11495 0ac1 1C       		.sleb128 28
 11496 0ac2 00000000 		.4byte	0
 11497 0ac6 00000000 		.4byte	0
 11498              	.LLST76:
 11499 0aca FC000000 		.4byte	.LVL144
 11500 0ace 05010000 		.4byte	.LVL145-1
 11501 0ad2 0200     		.2byte	0x2
 11502 0ad4 74       		.byte	0x74
 11503 0ad5 20       		.sleb128 32
 11504 0ad6 00000000 		.4byte	0
 11505 0ada 00000000 		.4byte	0
 11506              	.LLST77:
 11507 0ade 00000000 		.4byte	.LVL158
 11508 0ae2 07000000 		.4byte	.LVL160-1
 11509 0ae6 0100     		.2byte	0x1
ARM GAS  C:\Users\haske\AppData\Local\Temp\ccN8jSR9.s 			page 233


 11510 0ae8 50       		.byte	0x50
 11511 0ae9 07000000 		.4byte	.LVL160-1
 11512 0aed 80000000 		.4byte	.LVL173
 11513 0af1 0100     		.2byte	0x1
 11514 0af3 54       		.byte	0x54
 11515 0af4 80000000 		.4byte	.LVL173
 11516 0af8 88000000 		.4byte	.LFE163
 11517 0afc 0400     		.2byte	0x4
 11518 0afe F3       		.byte	0xf3
 11519 0aff 01       		.uleb128 0x1
 11520 0b00 50       		.byte	0x50
 11521 0b01 9F       		.byte	0x9f
 11522 0b02 00000000 		.4byte	0
 11523 0b06 00000000 		.4byte	0
 11524              	.LLST78:
 11525 0b0a 04000000 		.4byte	.LVL159
 11526 0b0e 12000000 		.4byte	.LVL161
 11527 0b12 0200     		.2byte	0x2
 11528 0b14 30       		.byte	0x30
 11529 0b15 9F       		.byte	0x9f
 11530 0b16 12000000 		.4byte	.LVL161
 11531 0b1a 80000000 		.4byte	.LVL174
 11532 0b1e 0100     		.2byte	0x1
 11533 0b20 55       		.byte	0x55
 11534 0b21 00000000 		.4byte	0
 11535 0b25 00000000 		.4byte	0
 11536              	.LLST79:
 11537 0b29 18000000 		.4byte	.LVL162
 11538 0b2d 29000000 		.4byte	.LVL163-1
 11539 0b31 0100     		.2byte	0x1
 11540 0b33 50       		.byte	0x50
 11541 0b34 2A000000 		.4byte	.LVL163
 11542 0b38 30000000 		.4byte	.LVL164
 11543 0b3c 0100     		.2byte	0x1
 11544 0b3e 50       		.byte	0x50
 11545 0b3f 00000000 		.4byte	0
 11546 0b43 00000000 		.4byte	0
 11547              	.LLST80:
 11548 0b47 00000000 		.4byte	.LVL175
 11549 0b4b 09000000 		.4byte	.LVL176-1
 11550 0b4f 0100     		.2byte	0x1
 11551 0b51 50       		.byte	0x50
 11552 0b52 09000000 		.4byte	.LVL176-1
 11553 0b56 0A000000 		.4byte	.LVL176
 11554 0b5a 0400     		.2byte	0x4
 11555 0b5c F3       		.byte	0xf3
 11556 0b5d 01       		.uleb128 0x1
 11557 0b5e 50       		.byte	0x50
 11558 0b5f 9F       		.byte	0x9f
 11559 0b60 0A000000 		.4byte	.LVL176
 11560 0b64 22000000 		.4byte	.LVL177
 11561 0b68 0100     		.2byte	0x1
 11562 0b6a 50       		.byte	0x50
 11563 0b6b 24000000 		.4byte	.LVL178
 11564 0b6f 28000000 		.4byte	.LVL179
 11565 0b73 0100     		.2byte	0x1
 11566 0b75 50       		.byte	0x50
ARM GAS  C:\Users\haske\AppData\Local\Temp\ccN8jSR9.s 			page 234


 11567 0b76 2A000000 		.4byte	.LVL180
 11568 0b7a 2C000000 		.4byte	.LVL181
 11569 0b7e 0100     		.2byte	0x1
 11570 0b80 50       		.byte	0x50
 11571 0b81 00000000 		.4byte	0
 11572 0b85 00000000 		.4byte	0
 11573              	.LLST81:
 11574 0b89 00000000 		.4byte	.LVL182
 11575 0b8d 09000000 		.4byte	.LVL183-1
 11576 0b91 0100     		.2byte	0x1
 11577 0b93 50       		.byte	0x50
 11578 0b94 09000000 		.4byte	.LVL183-1
 11579 0b98 0A000000 		.4byte	.LVL183
 11580 0b9c 0400     		.2byte	0x4
 11581 0b9e F3       		.byte	0xf3
 11582 0b9f 01       		.uleb128 0x1
 11583 0ba0 50       		.byte	0x50
 11584 0ba1 9F       		.byte	0x9f
 11585 0ba2 0A000000 		.4byte	.LVL183
 11586 0ba6 22000000 		.4byte	.LVL184
 11587 0baa 0100     		.2byte	0x1
 11588 0bac 50       		.byte	0x50
 11589 0bad 24000000 		.4byte	.LVL185
 11590 0bb1 28000000 		.4byte	.LVL186
 11591 0bb5 0100     		.2byte	0x1
 11592 0bb7 50       		.byte	0x50
 11593 0bb8 2A000000 		.4byte	.LVL187
 11594 0bbc 2C000000 		.4byte	.LVL188
 11595 0bc0 0100     		.2byte	0x1
 11596 0bc2 50       		.byte	0x50
 11597 0bc3 00000000 		.4byte	0
 11598 0bc7 00000000 		.4byte	0
 11599              	.LLST82:
 11600 0bcb 00000000 		.4byte	.LVL189
 11601 0bcf 16000000 		.4byte	.LVL190
 11602 0bd3 0100     		.2byte	0x1
 11603 0bd5 50       		.byte	0x50
 11604 0bd6 16000000 		.4byte	.LVL190
 11605 0bda B4000000 		.4byte	.LVL207
 11606 0bde 0100     		.2byte	0x1
 11607 0be0 54       		.byte	0x54
 11608 0be1 B4000000 		.4byte	.LVL207
 11609 0be5 BC000000 		.4byte	.LFE162
 11610 0be9 0400     		.2byte	0x4
 11611 0beb F3       		.byte	0xf3
 11612 0bec 01       		.uleb128 0x1
 11613 0bed 50       		.byte	0x50
 11614 0bee 9F       		.byte	0x9f
 11615 0bef 00000000 		.4byte	0
 11616 0bf3 00000000 		.4byte	0
 11617              	.LLST83:
 11618 0bf7 00000000 		.4byte	.LVL189
 11619 0bfb 2D000000 		.4byte	.LVL191-1
 11620 0bff 0100     		.2byte	0x1
 11621 0c01 51       		.byte	0x51
 11622 0c02 2D000000 		.4byte	.LVL191-1
 11623 0c06 BC000000 		.4byte	.LFE162
ARM GAS  C:\Users\haske\AppData\Local\Temp\ccN8jSR9.s 			page 235


 11624 0c0a 0400     		.2byte	0x4
 11625 0c0c F3       		.byte	0xf3
 11626 0c0d 01       		.uleb128 0x1
 11627 0c0e 51       		.byte	0x51
 11628 0c0f 9F       		.byte	0x9f
 11629 0c10 00000000 		.4byte	0
 11630 0c14 00000000 		.4byte	0
 11631              	.LLST84:
 11632 0c18 30000000 		.4byte	.LVL192
 11633 0c1c 32000000 		.4byte	.LVL193
 11634 0c20 0100     		.2byte	0x1
 11635 0c22 50       		.byte	0x50
 11636 0c23 32000000 		.4byte	.LVL193
 11637 0c27 B4000000 		.4byte	.LVL209
 11638 0c2b 0100     		.2byte	0x1
 11639 0c2d 57       		.byte	0x57
 11640 0c2e 00000000 		.4byte	0
 11641 0c32 00000000 		.4byte	0
 11642              	.LLST85:
 11643 0c36 38000000 		.4byte	.LVL195
 11644 0c3a 3C000000 		.4byte	.LVL196
 11645 0c3e 0100     		.2byte	0x1
 11646 0c40 50       		.byte	0x50
 11647 0c41 3C000000 		.4byte	.LVL196
 11648 0c45 BC000000 		.4byte	.LFE162
 11649 0c49 0200     		.2byte	0x2
 11650 0c4b 91       		.byte	0x91
 11651 0c4c 5C       		.sleb128 -36
 11652 0c4d 00000000 		.4byte	0
 11653 0c51 00000000 		.4byte	0
 11654              	.LLST86:
 11655 0c55 38000000 		.4byte	.LVL195
 11656 0c59 3C000000 		.4byte	.LVL196
 11657 0c5d 0200     		.2byte	0x2
 11658 0c5f 30       		.byte	0x30
 11659 0c60 9F       		.byte	0x9f
 11660 0c61 3C000000 		.4byte	.LVL196
 11661 0c65 B4000000 		.4byte	.LVL208
 11662 0c69 0100     		.2byte	0x1
 11663 0c6b 56       		.byte	0x56
 11664 0c6c 00000000 		.4byte	0
 11665 0c70 00000000 		.4byte	0
 11666              	.LLST87:
 11667 0c74 00000000 		.4byte	.LVL210
 11668 0c78 09000000 		.4byte	.LVL211-1
 11669 0c7c 0100     		.2byte	0x1
 11670 0c7e 50       		.byte	0x50
 11671 0c7f 09000000 		.4byte	.LVL211-1
 11672 0c83 0A000000 		.4byte	.LVL211
 11673 0c87 0400     		.2byte	0x4
 11674 0c89 F3       		.byte	0xf3
 11675 0c8a 01       		.uleb128 0x1
 11676 0c8b 50       		.byte	0x50
 11677 0c8c 9F       		.byte	0x9f
 11678 0c8d 0A000000 		.4byte	.LVL211
 11679 0c91 22000000 		.4byte	.LVL212
 11680 0c95 0100     		.2byte	0x1
ARM GAS  C:\Users\haske\AppData\Local\Temp\ccN8jSR9.s 			page 236


 11681 0c97 50       		.byte	0x50
 11682 0c98 2C000000 		.4byte	.LVL213
 11683 0c9c 30000000 		.4byte	.LVL214
 11684 0ca0 0100     		.2byte	0x1
 11685 0ca2 50       		.byte	0x50
 11686 0ca3 3A000000 		.4byte	.LVL215
 11687 0ca7 3C000000 		.4byte	.LVL216
 11688 0cab 0100     		.2byte	0x1
 11689 0cad 50       		.byte	0x50
 11690 0cae 00000000 		.4byte	0
 11691 0cb2 00000000 		.4byte	0
 11692              	.LLST88:
 11693 0cb6 00000000 		.4byte	.LVL217
 11694 0cba 09000000 		.4byte	.LVL218-1
 11695 0cbe 0100     		.2byte	0x1
 11696 0cc0 50       		.byte	0x50
 11697 0cc1 09000000 		.4byte	.LVL218-1
 11698 0cc5 0A000000 		.4byte	.LVL218
 11699 0cc9 0400     		.2byte	0x4
 11700 0ccb F3       		.byte	0xf3
 11701 0ccc 01       		.uleb128 0x1
 11702 0ccd 50       		.byte	0x50
 11703 0cce 9F       		.byte	0x9f
 11704 0ccf 0A000000 		.4byte	.LVL218
 11705 0cd3 22000000 		.4byte	.LVL219
 11706 0cd7 0100     		.2byte	0x1
 11707 0cd9 50       		.byte	0x50
 11708 0cda 2C000000 		.4byte	.LVL220
 11709 0cde 30000000 		.4byte	.LVL221
 11710 0ce2 0100     		.2byte	0x1
 11711 0ce4 50       		.byte	0x50
 11712 0ce5 3A000000 		.4byte	.LVL222
 11713 0ce9 3C000000 		.4byte	.LVL223
 11714 0ced 0100     		.2byte	0x1
 11715 0cef 50       		.byte	0x50
 11716 0cf0 00000000 		.4byte	0
 11717 0cf4 00000000 		.4byte	0
 11718              	.LLST89:
 11719 0cf8 00000000 		.4byte	.LVL224
 11720 0cfc 09000000 		.4byte	.LVL225-1
 11721 0d00 0100     		.2byte	0x1
 11722 0d02 50       		.byte	0x50
 11723 0d03 09000000 		.4byte	.LVL225-1
 11724 0d07 0A000000 		.4byte	.LVL225
 11725 0d0b 0400     		.2byte	0x4
 11726 0d0d F3       		.byte	0xf3
 11727 0d0e 01       		.uleb128 0x1
 11728 0d0f 50       		.byte	0x50
 11729 0d10 9F       		.byte	0x9f
 11730 0d11 0A000000 		.4byte	.LVL225
 11731 0d15 24000000 		.4byte	.LVL226
 11732 0d19 0100     		.2byte	0x1
 11733 0d1b 50       		.byte	0x50
 11734 0d1c 26000000 		.4byte	.LVL227
 11735 0d20 29000000 		.4byte	.LVL228-1
 11736 0d24 0100     		.2byte	0x1
 11737 0d26 50       		.byte	0x50
ARM GAS  C:\Users\haske\AppData\Local\Temp\ccN8jSR9.s 			page 237


 11738 0d27 34000000 		.4byte	.LVL229
 11739 0d2b 37000000 		.4byte	.LVL230-1
 11740 0d2f 0100     		.2byte	0x1
 11741 0d31 50       		.byte	0x50
 11742 0d32 42000000 		.4byte	.LVL231
 11743 0d36 46000000 		.4byte	.LVL232
 11744 0d3a 0100     		.2byte	0x1
 11745 0d3c 50       		.byte	0x50
 11746 0d3d 48000000 		.4byte	.LVL233
 11747 0d41 4A000000 		.4byte	.LVL234
 11748 0d45 0100     		.2byte	0x1
 11749 0d47 50       		.byte	0x50
 11750 0d48 00000000 		.4byte	0
 11751 0d4c 00000000 		.4byte	0
 11752              	.LLST90:
 11753 0d50 00000000 		.4byte	.LVL235
 11754 0d54 09000000 		.4byte	.LVL236-1
 11755 0d58 0100     		.2byte	0x1
 11756 0d5a 50       		.byte	0x50
 11757 0d5b 09000000 		.4byte	.LVL236-1
 11758 0d5f 0A000000 		.4byte	.LVL236
 11759 0d63 0400     		.2byte	0x4
 11760 0d65 F3       		.byte	0xf3
 11761 0d66 01       		.uleb128 0x1
 11762 0d67 50       		.byte	0x50
 11763 0d68 9F       		.byte	0x9f
 11764 0d69 0A000000 		.4byte	.LVL236
 11765 0d6d 24000000 		.4byte	.LVL237
 11766 0d71 0100     		.2byte	0x1
 11767 0d73 50       		.byte	0x50
 11768 0d74 26000000 		.4byte	.LVL238
 11769 0d78 29000000 		.4byte	.LVL239-1
 11770 0d7c 0100     		.2byte	0x1
 11771 0d7e 50       		.byte	0x50
 11772 0d7f 34000000 		.4byte	.LVL240
 11773 0d83 37000000 		.4byte	.LVL241-1
 11774 0d87 0100     		.2byte	0x1
 11775 0d89 50       		.byte	0x50
 11776 0d8a 42000000 		.4byte	.LVL242
 11777 0d8e 46000000 		.4byte	.LVL243
 11778 0d92 0100     		.2byte	0x1
 11779 0d94 50       		.byte	0x50
 11780 0d95 48000000 		.4byte	.LVL244
 11781 0d99 4A000000 		.4byte	.LVL245
 11782 0d9d 0100     		.2byte	0x1
 11783 0d9f 50       		.byte	0x50
 11784 0da0 00000000 		.4byte	0
 11785 0da4 00000000 		.4byte	0
 11786              	.LLST91:
 11787 0da8 00000000 		.4byte	.LVL246
 11788 0dac 09000000 		.4byte	.LVL247-1
 11789 0db0 0100     		.2byte	0x1
 11790 0db2 50       		.byte	0x50
 11791 0db3 09000000 		.4byte	.LVL247-1
 11792 0db7 0A000000 		.4byte	.LVL247
 11793 0dbb 0400     		.2byte	0x4
 11794 0dbd F3       		.byte	0xf3
ARM GAS  C:\Users\haske\AppData\Local\Temp\ccN8jSR9.s 			page 238


 11795 0dbe 01       		.uleb128 0x1
 11796 0dbf 50       		.byte	0x50
 11797 0dc0 9F       		.byte	0x9f
 11798 0dc1 0A000000 		.4byte	.LVL247
 11799 0dc5 14000000 		.4byte	.LVL248
 11800 0dc9 0100     		.2byte	0x1
 11801 0dcb 50       		.byte	0x50
 11802 0dcc 1E000000 		.4byte	.LVL249
 11803 0dd0 20000000 		.4byte	.LVL250
 11804 0dd4 0100     		.2byte	0x1
 11805 0dd6 50       		.byte	0x50
 11806 0dd7 00000000 		.4byte	0
 11807 0ddb 00000000 		.4byte	0
 11808              	.LLST92:
 11809 0ddf 00000000 		.4byte	.LVL251
 11810 0de3 09000000 		.4byte	.LVL252-1
 11811 0de7 0100     		.2byte	0x1
 11812 0de9 50       		.byte	0x50
 11813 0dea 09000000 		.4byte	.LVL252-1
 11814 0dee 0A000000 		.4byte	.LVL252
 11815 0df2 0400     		.2byte	0x4
 11816 0df4 F3       		.byte	0xf3
 11817 0df5 01       		.uleb128 0x1
 11818 0df6 50       		.byte	0x50
 11819 0df7 9F       		.byte	0x9f
 11820 0df8 0A000000 		.4byte	.LVL252
 11821 0dfc 12000000 		.4byte	.LVL253
 11822 0e00 0100     		.2byte	0x1
 11823 0e02 50       		.byte	0x50
 11824 0e03 18000000 		.4byte	.LVL254
 11825 0e07 1A000000 		.4byte	.LVL255
 11826 0e0b 0100     		.2byte	0x1
 11827 0e0d 50       		.byte	0x50
 11828 0e0e 00000000 		.4byte	0
 11829 0e12 00000000 		.4byte	0
 11830              	.LLST93:
 11831 0e16 00000000 		.4byte	.LVL257
 11832 0e1a 04000000 		.4byte	.LVL258
 11833 0e1e 0100     		.2byte	0x1
 11834 0e20 50       		.byte	0x50
 11835 0e21 04000000 		.4byte	.LVL258
 11836 0e25 0C000000 		.4byte	.LFE175
 11837 0e29 0400     		.2byte	0x4
 11838 0e2b F3       		.byte	0xf3
 11839 0e2c 01       		.uleb128 0x1
 11840 0e2d 50       		.byte	0x50
 11841 0e2e 9F       		.byte	0x9f
 11842 0e2f 00000000 		.4byte	0
 11843 0e33 00000000 		.4byte	0
 11844              	.LLST94:
 11845 0e37 00000000 		.4byte	.LVL259
 11846 0e3b 08000000 		.4byte	.LVL260
 11847 0e3f 0100     		.2byte	0x1
 11848 0e41 50       		.byte	0x50
 11849 0e42 08000000 		.4byte	.LVL260
 11850 0e46 0E000000 		.4byte	.LVL262
 11851 0e4a 0400     		.2byte	0x4
ARM GAS  C:\Users\haske\AppData\Local\Temp\ccN8jSR9.s 			page 239


 11852 0e4c F3       		.byte	0xf3
 11853 0e4d 01       		.uleb128 0x1
 11854 0e4e 50       		.byte	0x50
 11855 0e4f 9F       		.byte	0x9f
 11856 0e50 0E000000 		.4byte	.LVL262
 11857 0e54 12000000 		.4byte	.LVL263
 11858 0e58 0100     		.2byte	0x1
 11859 0e5a 50       		.byte	0x50
 11860 0e5b 12000000 		.4byte	.LVL263
 11861 0e5f 15000000 		.4byte	.LVL264-1
 11862 0e63 0100     		.2byte	0x1
 11863 0e65 51       		.byte	0x51
 11864 0e66 15000000 		.4byte	.LVL264-1
 11865 0e6a 1C000000 		.4byte	.LFE176
 11866 0e6e 0400     		.2byte	0x4
 11867 0e70 F3       		.byte	0xf3
 11868 0e71 01       		.uleb128 0x1
 11869 0e72 50       		.byte	0x50
 11870 0e73 9F       		.byte	0x9f
 11871 0e74 00000000 		.4byte	0
 11872 0e78 00000000 		.4byte	0
 11873              	.LLST95:
 11874 0e7c 00000000 		.4byte	.LVL265
 11875 0e80 04000000 		.4byte	.LVL266
 11876 0e84 0100     		.2byte	0x1
 11877 0e86 50       		.byte	0x50
 11878 0e87 04000000 		.4byte	.LVL266
 11879 0e8b 06000000 		.4byte	.LFE177
 11880 0e8f 0400     		.2byte	0x4
 11881 0e91 F3       		.byte	0xf3
 11882 0e92 01       		.uleb128 0x1
 11883 0e93 50       		.byte	0x50
 11884 0e94 9F       		.byte	0x9f
 11885 0e95 00000000 		.4byte	0
 11886 0e99 00000000 		.4byte	0
 11887              	.LLST96:
 11888 0e9d 00000000 		.4byte	.LVL267
 11889 0ea1 0B000000 		.4byte	.LVL268-1
 11890 0ea5 0100     		.2byte	0x1
 11891 0ea7 50       		.byte	0x50
 11892 0ea8 0B000000 		.4byte	.LVL268-1
 11893 0eac 0C000000 		.4byte	.LVL268
 11894 0eb0 0400     		.2byte	0x4
 11895 0eb2 F3       		.byte	0xf3
 11896 0eb3 01       		.uleb128 0x1
 11897 0eb4 50       		.byte	0x50
 11898 0eb5 9F       		.byte	0x9f
 11899 0eb6 0C000000 		.4byte	.LVL268
 11900 0eba 27000000 		.4byte	.LVL269-1
 11901 0ebe 0100     		.2byte	0x1
 11902 0ec0 50       		.byte	0x50
 11903 0ec1 00000000 		.4byte	0
 11904 0ec5 00000000 		.4byte	0
 11905              	.LLST97:
 11906 0ec9 00000000 		.4byte	.LVL267
 11907 0ecd 0B000000 		.4byte	.LVL268-1
 11908 0ed1 0100     		.2byte	0x1
ARM GAS  C:\Users\haske\AppData\Local\Temp\ccN8jSR9.s 			page 240


 11909 0ed3 51       		.byte	0x51
 11910 0ed4 0B000000 		.4byte	.LVL268-1
 11911 0ed8 2A000000 		.4byte	.LFE178
 11912 0edc 0400     		.2byte	0x4
 11913 0ede F3       		.byte	0xf3
 11914 0edf 01       		.uleb128 0x1
 11915 0ee0 51       		.byte	0x51
 11916 0ee1 9F       		.byte	0x9f
 11917 0ee2 00000000 		.4byte	0
 11918 0ee6 00000000 		.4byte	0
 11919              	.LLST98:
 11920 0eea 00000000 		.4byte	.LVL270
 11921 0eee 09000000 		.4byte	.LVL271-1
 11922 0ef2 0100     		.2byte	0x1
 11923 0ef4 50       		.byte	0x50
 11924 0ef5 09000000 		.4byte	.LVL271-1
 11925 0ef9 0A000000 		.4byte	.LVL271
 11926 0efd 0400     		.2byte	0x4
 11927 0eff F3       		.byte	0xf3
 11928 0f00 01       		.uleb128 0x1
 11929 0f01 50       		.byte	0x50
 11930 0f02 9F       		.byte	0x9f
 11931 0f03 0A000000 		.4byte	.LVL271
 11932 0f07 12000000 		.4byte	.LVL272
 11933 0f0b 0100     		.2byte	0x1
 11934 0f0d 50       		.byte	0x50
 11935 0f0e 18000000 		.4byte	.LVL273
 11936 0f12 1A000000 		.4byte	.LVL274
 11937 0f16 0100     		.2byte	0x1
 11938 0f18 50       		.byte	0x50
 11939 0f19 00000000 		.4byte	0
 11940 0f1d 00000000 		.4byte	0
 11941              	.LLST99:
 11942 0f21 00000000 		.4byte	.LVL275
 11943 0f25 02000000 		.4byte	.LVL276
 11944 0f29 0100     		.2byte	0x1
 11945 0f2b 51       		.byte	0x51
 11946 0f2c 02000000 		.4byte	.LVL276
 11947 0f30 4C000000 		.4byte	.LFE180
 11948 0f34 0400     		.2byte	0x4
 11949 0f36 F3       		.byte	0xf3
 11950 0f37 01       		.uleb128 0x1
 11951 0f38 51       		.byte	0x51
 11952 0f39 9F       		.byte	0x9f
 11953 0f3a 00000000 		.4byte	0
 11954 0f3e 00000000 		.4byte	0
 11955              		.section	.debug_aranges,"",%progbits
 11956 0000 FC000000 		.4byte	0xfc
 11957 0004 0200     		.2byte	0x2
 11958 0006 00000000 		.4byte	.Ldebug_info0
 11959 000a 04       		.byte	0x4
 11960 000b 00       		.byte	0
 11961 000c 0000     		.2byte	0
 11962 000e 0000     		.2byte	0
 11963 0010 00000000 		.4byte	.LFB187
 11964 0014 14010000 		.4byte	.LFE187-.LFB187
 11965 0018 00000000 		.4byte	.LFB181
ARM GAS  C:\Users\haske\AppData\Local\Temp\ccN8jSR9.s 			page 241


 11966 001c 0A000000 		.4byte	.LFE181-.LFB181
 11967 0020 00000000 		.4byte	.LFB186
 11968 0024 AC000000 		.4byte	.LFE186-.LFB186
 11969 0028 00000000 		.4byte	.LFB185
 11970 002c 48000000 		.4byte	.LFE185-.LFB185
 11971 0030 00000000 		.4byte	.LFB184
 11972 0034 48000000 		.4byte	.LFE184-.LFB184
 11973 0038 00000000 		.4byte	.LFB183
 11974 003c 48000000 		.4byte	.LFE183-.LFB183
 11975 0040 00000000 		.4byte	.LFB182
 11976 0044 48000000 		.4byte	.LFE182-.LFB182
 11977 0048 00000000 		.4byte	.LFB159
 11978 004c 58000000 		.4byte	.LFE159-.LFB159
 11979 0050 00000000 		.4byte	.LFB160
 11980 0054 1A000000 		.4byte	.LFE160-.LFB160
 11981 0058 00000000 		.4byte	.LFB161
 11982 005c 64010000 		.4byte	.LFE161-.LFB161
 11983 0060 00000000 		.4byte	.LFB164
 11984 0064 0C000000 		.4byte	.LFE164-.LFB164
 11985 0068 00000000 		.4byte	.LFB165
 11986 006c 0C000000 		.4byte	.LFE165-.LFB165
 11987 0070 00000000 		.4byte	.LFB163
 11988 0074 88000000 		.4byte	.LFE163-.LFB163
 11989 0078 00000000 		.4byte	.LFB166
 11990 007c 2E000000 		.4byte	.LFE166-.LFB166
 11991 0080 00000000 		.4byte	.LFB167
 11992 0084 2E000000 		.4byte	.LFE167-.LFB167
 11993 0088 00000000 		.4byte	.LFB162
 11994 008c BC000000 		.4byte	.LFE162-.LFB162
 11995 0090 00000000 		.4byte	.LFB168
 11996 0094 3E000000 		.4byte	.LFE168-.LFB168
 11997 0098 00000000 		.4byte	.LFB169
 11998 009c 3E000000 		.4byte	.LFE169-.LFB169
 11999 00a0 00000000 		.4byte	.LFB170
 12000 00a4 4C000000 		.4byte	.LFE170-.LFB170
 12001 00a8 00000000 		.4byte	.LFB171
 12002 00ac 4C000000 		.4byte	.LFE171-.LFB171
 12003 00b0 00000000 		.4byte	.LFB172
 12004 00b4 22000000 		.4byte	.LFE172-.LFB172
 12005 00b8 00000000 		.4byte	.LFB173
 12006 00bc 1C000000 		.4byte	.LFE173-.LFB173
 12007 00c0 00000000 		.4byte	.LFB174
 12008 00c4 0C000000 		.4byte	.LFE174-.LFB174
 12009 00c8 00000000 		.4byte	.LFB175
 12010 00cc 0C000000 		.4byte	.LFE175-.LFB175
 12011 00d0 00000000 		.4byte	.LFB176
 12012 00d4 1C000000 		.4byte	.LFE176-.LFB176
 12013 00d8 00000000 		.4byte	.LFB177
 12014 00dc 06000000 		.4byte	.LFE177-.LFB177
 12015 00e0 00000000 		.4byte	.LFB178
 12016 00e4 2A000000 		.4byte	.LFE178-.LFB178
 12017 00e8 00000000 		.4byte	.LFB179
 12018 00ec 1C000000 		.4byte	.LFE179-.LFB179
 12019 00f0 00000000 		.4byte	.LFB180
 12020 00f4 4C000000 		.4byte	.LFE180-.LFB180
 12021 00f8 00000000 		.4byte	0
 12022 00fc 00000000 		.4byte	0
ARM GAS  C:\Users\haske\AppData\Local\Temp\ccN8jSR9.s 			page 242


 12023              		.section	.debug_ranges,"",%progbits
 12024              	.Ldebug_ranges0:
 12025 0000 1E000000 		.4byte	.LBB51
 12026 0004 3A000000 		.4byte	.LBE51
 12027 0008 44010000 		.4byte	.LBB59
 12028 000c 46010000 		.4byte	.LBE59
 12029 0010 00000000 		.4byte	0
 12030 0014 00000000 		.4byte	0
 12031 0018 00000000 		.4byte	.LFB187
 12032 001c 14010000 		.4byte	.LFE187
 12033 0020 00000000 		.4byte	.LFB181
 12034 0024 0A000000 		.4byte	.LFE181
 12035 0028 00000000 		.4byte	.LFB186
 12036 002c AC000000 		.4byte	.LFE186
 12037 0030 00000000 		.4byte	.LFB185
 12038 0034 48000000 		.4byte	.LFE185
 12039 0038 00000000 		.4byte	.LFB184
 12040 003c 48000000 		.4byte	.LFE184
 12041 0040 00000000 		.4byte	.LFB183
 12042 0044 48000000 		.4byte	.LFE183
 12043 0048 00000000 		.4byte	.LFB182
 12044 004c 48000000 		.4byte	.LFE182
 12045 0050 00000000 		.4byte	.LFB159
 12046 0054 58000000 		.4byte	.LFE159
 12047 0058 00000000 		.4byte	.LFB160
 12048 005c 1A000000 		.4byte	.LFE160
 12049 0060 00000000 		.4byte	.LFB161
 12050 0064 64010000 		.4byte	.LFE161
 12051 0068 00000000 		.4byte	.LFB164
 12052 006c 0C000000 		.4byte	.LFE164
 12053 0070 00000000 		.4byte	.LFB165
 12054 0074 0C000000 		.4byte	.LFE165
 12055 0078 00000000 		.4byte	.LFB163
 12056 007c 88000000 		.4byte	.LFE163
 12057 0080 00000000 		.4byte	.LFB166
 12058 0084 2E000000 		.4byte	.LFE166
 12059 0088 00000000 		.4byte	.LFB167
 12060 008c 2E000000 		.4byte	.LFE167
 12061 0090 00000000 		.4byte	.LFB162
 12062 0094 BC000000 		.4byte	.LFE162
 12063 0098 00000000 		.4byte	.LFB168
 12064 009c 3E000000 		.4byte	.LFE168
 12065 00a0 00000000 		.4byte	.LFB169
 12066 00a4 3E000000 		.4byte	.LFE169
 12067 00a8 00000000 		.4byte	.LFB170
 12068 00ac 4C000000 		.4byte	.LFE170
 12069 00b0 00000000 		.4byte	.LFB171
 12070 00b4 4C000000 		.4byte	.LFE171
 12071 00b8 00000000 		.4byte	.LFB172
 12072 00bc 22000000 		.4byte	.LFE172
 12073 00c0 00000000 		.4byte	.LFB173
 12074 00c4 1C000000 		.4byte	.LFE173
 12075 00c8 00000000 		.4byte	.LFB174
 12076 00cc 0C000000 		.4byte	.LFE174
 12077 00d0 00000000 		.4byte	.LFB175
 12078 00d4 0C000000 		.4byte	.LFE175
 12079 00d8 00000000 		.4byte	.LFB176
ARM GAS  C:\Users\haske\AppData\Local\Temp\ccN8jSR9.s 			page 243


 12080 00dc 1C000000 		.4byte	.LFE176
 12081 00e0 00000000 		.4byte	.LFB177
 12082 00e4 06000000 		.4byte	.LFE177
 12083 00e8 00000000 		.4byte	.LFB178
 12084 00ec 2A000000 		.4byte	.LFE178
 12085 00f0 00000000 		.4byte	.LFB179
 12086 00f4 1C000000 		.4byte	.LFE179
 12087 00f8 00000000 		.4byte	.LFB180
 12088 00fc 4C000000 		.4byte	.LFE180
 12089 0100 00000000 		.4byte	0
 12090 0104 00000000 		.4byte	0
 12091              		.section	.debug_line,"",%progbits
 12092              	.Ldebug_line0:
 12093 0000 B4090000 		.section	.debug_str,"MS",%progbits,1
 12093      0200B205 
 12093      00000201 
 12093      FB0E0D00 
 12093      01010101 
 12094              	.LASF205:
 12095 0000 70726F70 		.ascii	"prop_cnt\000"
 12095      5F636E74 
 12095      00
 12096              	.LASF15:
 12097 0009 696E7438 		.ascii	"int8_t\000"
 12097      5F7400
 12098              	.LASF726:
 12099 0010 6C765F64 		.ascii	"lv_disp_drv_use_generic_set_px_cb\000"
 12099      6973705F 
 12099      6472765F 
 12099      7573655F 
 12099      67656E65 
 12100              	.LASF176:
 12101 0032 4C565F53 		.ascii	"LV_STYLE_OPA\000"
 12101      54594C45 
 12101      5F4F5041 
 12101      00
 12102              	.LASF410:
 12103 003f 636F6C6F 		.ascii	"color_chroma_key\000"
 12103      725F6368 
 12103      726F6D61 
 12103      5F6B6579 
 12103      00
 12104              	.LASF360:
 12105 0050 6C765F6C 		.ascii	"lv_ll_node_t\000"
 12105      6C5F6E6F 
 12105      64655F74 
 12105      00
 12106              	.LASF382:
 12107 005d 6C765F64 		.ascii	"lv_disp_draw_buf_t\000"
 12107      6973705F 
 12107      64726177 
 12107      5F627566 
 12107      5F7400
 12108              	.LASF21:
 12109 0070 73697A65 		.ascii	"size_t\000"
 12109      5F7400
 12110              	.LASF28:
ARM GAS  C:\Users\haske\AppData\Local\Temp\ccN8jSR9.s 			page 244


 12111 0077 6164765F 		.ascii	"adv_w\000"
 12111      7700
 12112              	.LASF449:
 12113 007d 4C565F49 		.ascii	"LV_INDEV_TYPE_ENCODER\000"
 12113      4E444556 
 12113      5F545950 
 12113      455F454E 
 12113      434F4445 
 12114              	.LASF47:
 12115 0093 73697A65 		.ascii	"sizetype\000"
 12115      74797065 
 12115      00
 12116              	.LASF444:
 12117 009c 6C765F64 		.ascii	"lv_disp_t\000"
 12117      6973705F 
 12117      7400
 12118              	.LASF624:
 12119 00a6 4C565F45 		.ascii	"LV_EVENT_DRAW_MAIN_BEGIN\000"
 12119      56454E54 
 12119      5F445241 
 12119      575F4D41 
 12119      494E5F42 
 12120              	.LASF681:
 12121 00bf 66675F6F 		.ascii	"fg_opa_save\000"
 12121      70615F73 
 12121      61766500 
 12122              	.LASF67:
 12123 00cb 6C765F63 		.ascii	"lv_color32_t\000"
 12123      6F6C6F72 
 12123      33325F74 
 12123      00
 12124              	.LASF160:
 12125 00d8 4C565F53 		.ascii	"LV_STYLE_LINE_DASH_GAP\000"
 12125      54594C45 
 12125      5F4C494E 
 12125      455F4441 
 12125      53485F47 
 12126              	.LASF363:
 12127 00ef 7461696C 		.ascii	"tail\000"
 12127      00
 12128              	.LASF703:
 12129 00f4 6C765F64 		.ascii	"lv_disp_set_default\000"
 12129      6973705F 
 12129      7365745F 
 12129      64656661 
 12129      756C7400 
 12130              	.LASF421:
 12131 0108 6163745F 		.ascii	"act_scr\000"
 12131      73637200 
 12132              	.LASF426:
 12133 0110 73637265 		.ascii	"screen_cnt\000"
 12133      656E5F63 
 12133      6E7400
 12134              	.LASF575:
 12135 011b 4C565F53 		.ascii	"LV_SCROLLBAR_MODE_ACTIVE\000"
 12135      43524F4C 
 12135      4C424152 
ARM GAS  C:\Users\haske\AppData\Local\Temp\ccN8jSR9.s 			page 245


 12135      5F4D4F44 
 12135      455F4143 
 12136              	.LASF351:
 12137 0134 64726177 		.ascii	"draw_bg\000"
 12137      5F626700 
 12138              	.LASF738:
 12139 013c 6C765F6D 		.ascii	"lv_mem_free\000"
 12139      656D5F66 
 12139      72656500 
 12140              	.LASF69:
 12141 0148 6C765F6F 		.ascii	"lv_opa_t\000"
 12141      70615F74 
 12141      00
 12142              	.LASF167:
 12143 0151 4C565F53 		.ascii	"LV_STYLE_ARC_OPA\000"
 12143      54594C45 
 12143      5F415243 
 12143      5F4F5041 
 12143      00
 12144              	.LASF320:
 12145 0162 7261775F 		.ascii	"raw_end\000"
 12145      656E6400 
 12146              	.LASF19:
 12147 016a 696E7433 		.ascii	"int32_t\000"
 12147      325F7400 
 12148              	.LASF218:
 12149 0172 4C565F49 		.ascii	"LV_IMG_CF_ALPHA_1BIT\000"
 12149      4D475F43 
 12149      465F414C 
 12149      5048415F 
 12149      31424954 
 12150              	.LASF577:
 12151 0187 6C765F73 		.ascii	"lv_scrollbar_mode_t\000"
 12151      63726F6C 
 12151      6C626172 
 12151      5F6D6F64 
 12151      655F7400 
 12152              	.LASF204:
 12153 019b 6861735F 		.ascii	"has_group\000"
 12153      67726F75 
 12153      7000
 12154              	.LASF633:
 12155 01a5 4C565F45 		.ascii	"LV_EVENT_INSERT\000"
 12155      56454E54 
 12155      5F494E53 
 12155      45525400 
 12156              	.LASF509:
 12157 01b5 66726F7A 		.ascii	"frozen\000"
 12157      656E00
 12158              	.LASF439:
 12159 01bc 636F6C6F 		.ascii	"color_primary\000"
 12159      725F7072 
 12159      696D6172 
 12159      7900
 12160              	.LASF24:
 12161 01ca 6C765F70 		.ascii	"lv_point_t\000"
 12161      6F696E74 
ARM GAS  C:\Users\haske\AppData\Local\Temp\ccN8jSR9.s 			page 246


 12161      5F7400
 12162              	.LASF686:
 12163 01d5 7265735F 		.ascii	"res_opa_saved\000"
 12163      6F70615F 
 12163      73617665 
 12163      6400
 12164              	.LASF248:
 12165 01e3 6C765F69 		.ascii	"lv_img_header_t\000"
 12165      6D675F68 
 12165      65616465 
 12165      725F7400 
 12166              	.LASF268:
 12167 01f3 72616469 		.ascii	"radius\000"
 12167      757300
 12168              	.LASF271:
 12169 01fa 62675F63 		.ascii	"bg_color\000"
 12169      6F6C6F72 
 12169      00
 12170              	.LASF36:
 12171 0203 6C696E65 		.ascii	"line_height\000"
 12171      5F686569 
 12171      67687400 
 12172              	.LASF696:
 12173 020f 7365745F 		.ascii	"set_px_cb_alpha4\000"
 12173      70785F63 
 12173      625F616C 
 12173      70686134 
 12173      00
 12174              	.LASF94:
 12175 0220 6C765F62 		.ascii	"lv_blend_mode_t\000"
 12175      6C656E64 
 12175      5F6D6F64 
 12175      655F7400 
 12176              	.LASF302:
 12177 0230 62696469 		.ascii	"bidi_dir\000"
 12177      5F646972 
 12177      00
 12178              	.LASF414:
 12179 0239 64726177 		.ascii	"draw_ctx_size\000"
 12179      5F637478 
 12179      5F73697A 
 12179      6500
 12180              	.LASF701:
 12181 0247 73697A65 		.ascii	"size_in_px_cnt\000"
 12181      5F696E5F 
 12181      70785F63 
 12181      6E7400
 12182              	.LASF257:
 12183 0256 73706563 		.ascii	"spec_attr\000"
 12183      5F617474 
 12183      7200
 12184              	.LASF663:
 12185 0260 7363726F 		.ascii	"scroll_snap_x\000"
 12185      6C6C5F73 
 12185      6E61705F 
 12185      7800
 12186              	.LASF664:
ARM GAS  C:\Users\haske\AppData\Local\Temp\ccN8jSR9.s 			page 247


 12187 026e 7363726F 		.ascii	"scroll_snap_y\000"
 12187      6C6C5F73 
 12187      6E61705F 
 12187      7900
 12188              	.LASF225:
 12189 027c 4C565F49 		.ascii	"LV_IMG_CF_RGB565\000"
 12189      4D475F43 
 12189      465F5247 
 12189      42353635 
 12189      00
 12190              	.LASF328:
 12191 028d 4C565F44 		.ascii	"LV_DRAW_LAYER_FLAG_HAS_ALPHA\000"
 12191      5241575F 
 12191      4C415945 
 12191      525F464C 
 12191      41475F48 
 12192              	.LASF638:
 12193 02aa 4C565F45 		.ascii	"LV_EVENT_CHILD_CHANGED\000"
 12193      56454E54 
 12193      5F434849 
 12193      4C445F43 
 12193      48414E47 
 12194              	.LASF261:
 12195 02c1 73746174 		.ascii	"state\000"
 12195      6500
 12196              	.LASF111:
 12197 02c7 4C565F53 		.ascii	"LV_STYLE_HEIGHT\000"
 12197      54594C45 
 12197      5F484549 
 12197      47485400 
 12198              	.LASF440:
 12199 02d7 636F6C6F 		.ascii	"color_secondary\000"
 12199      725F7365 
 12199      636F6E64 
 12199      61727900 
 12200              	.LASF370:
 12201 02e7 72657065 		.ascii	"repeat_count\000"
 12201      61745F63 
 12201      6F756E74 
 12201      00
 12202              	.LASF214:
 12203 02f4 4C565F49 		.ascii	"LV_IMG_CF_INDEXED_1BIT\000"
 12203      4D475F43 
 12203      465F494E 
 12203      44455845 
 12203      445F3142 
 12204              	.LASF581:
 12205 030b 69735F6C 		.ascii	"is_local\000"
 12205      6F63616C 
 12205      00
 12206              	.LASF343:
 12207 0314 64726177 		.ascii	"draw_rect\000"
 12207      5F726563 
 12207      7400
 12208              	.LASF574:
 12209 031e 4C565F53 		.ascii	"LV_SCROLLBAR_MODE_ON\000"
 12209      43524F4C 
ARM GAS  C:\Users\haske\AppData\Local\Temp\ccN8jSR9.s 			page 248


 12209      4C424152 
 12209      5F4D4F44 
 12209      455F4F4E 
 12210              	.LASF366:
 12211 0333 5F6C765F 		.ascii	"_lv_timer_t\000"
 12211      74696D65 
 12211      725F7400 
 12212              	.LASF131:
 12213 033f 4C565F53 		.ascii	"LV_STYLE_BG_MAIN_STOP\000"
 12213      54594C45 
 12213      5F42475F 
 12213      4D41494E 
 12213      5F53544F 
 12214              	.LASF342:
 12215 0355 696E6974 		.ascii	"init_buf\000"
 12215      5F627566 
 12215      00
 12216              	.LASF586:
 12217 035e 636F6E73 		.ascii	"constructor_cb\000"
 12217      74727563 
 12217      746F725F 
 12217      636200
 12218              	.LASF325:
 12219 036d 726F756E 		.ascii	"rounded\000"
 12219      64656400 
 12220              	.LASF192:
 12221 0375 5F4C565F 		.ascii	"_LV_STYLE_LAST_BUILT_IN_PROP\000"
 12221      5354594C 
 12221      455F4C41 
 12221      53545F42 
 12221      55494C54 
 12222              	.LASF341:
 12223 0392 5F6C765F 		.ascii	"_lv_draw_ctx_t\000"
 12223      64726177 
 12223      5F637478 
 12223      5F7400
 12224              	.LASF460:
 12225 03a1 74797065 		.ascii	"type\000"
 12225      00
 12226              	.LASF616:
 12227 03a6 4C565F45 		.ascii	"LV_EVENT_GESTURE\000"
 12227      56454E54 
 12227      5F474553 
 12227      54555245 
 12227      00
 12228              	.LASF86:
 12229 03b7 4C565F50 		.ascii	"LV_PALETTE_BROWN\000"
 12229      414C4554 
 12229      54455F42 
 12229      524F574E 
 12229      00
 12230              	.LASF273:
 12231 03c8 62675F69 		.ascii	"bg_img_src\000"
 12231      6D675F73 
 12231      726300
 12232              	.LASF142:
 12233 03d3 4C565F53 		.ascii	"LV_STYLE_BORDER_WIDTH\000"
ARM GAS  C:\Users\haske\AppData\Local\Temp\ccN8jSR9.s 			page 249


 12233      54594C45 
 12233      5F424F52 
 12233      4445525F 
 12233      57494454 
 12234              	.LASF710:
 12235 03e9 6C765F64 		.ascii	"lv_disp_drv_update\000"
 12235      6973705F 
 12235      6472765F 
 12235      75706461 
 12235      746500
 12236              	.LASF672:
 12237 03fc 6C765F63 		.ascii	"lv_color_to32\000"
 12237      6F6C6F72 
 12237      5F746F33 
 12237      3200
 12238              	.LASF679:
 12239 040a 7265735F 		.ascii	"res_color\000"
 12239      636F6C6F 
 12239      7200
 12240              	.LASF639:
 12241 0414 4C565F45 		.ascii	"LV_EVENT_CHILD_CREATED\000"
 12241      56454E54 
 12241      5F434849 
 12241      4C445F43 
 12241      52454154 
 12242              	.LASF570:
 12243 042b 4C565F4F 		.ascii	"LV_OBJ_TREE_WALK_SKIP_CHILDREN\000"
 12243      424A5F54 
 12243      5245455F 
 12243      57414C4B 
 12243      5F534B49 
 12244              	.LASF687:
 12245 044a 72617469 		.ascii	"ratio\000"
 12245      6F00
 12246              	.LASF124:
 12247 0450 4C565F53 		.ascii	"LV_STYLE_PAD_COLUMN\000"
 12247      54594C45 
 12247      5F504144 
 12247      5F434F4C 
 12247      554D4E00 
 12248              	.LASF459:
 12249 0464 5F6C765F 		.ascii	"_lv_indev_drv_t\000"
 12249      696E6465 
 12249      765F6472 
 12249      765F7400 
 12250              	.LASF90:
 12251 0474 4C565F50 		.ascii	"LV_PALETTE_NONE\000"
 12251      414C4554 
 12251      54455F4E 
 12251      4F4E4500 
 12252              	.LASF533:
 12253 0484 4C565F50 		.ascii	"LV_PART_SELECTED\000"
 12253      4152545F 
 12253      53454C45 
 12253      43544544 
 12253      00
 12254              	.LASF454:
ARM GAS  C:\Users\haske\AppData\Local\Temp\ccN8jSR9.s 			page 250


 12255 0495 706F696E 		.ascii	"point\000"
 12255      7400
 12256              	.LASF608:
 12257 049b 4C565F45 		.ascii	"LV_EVENT_SHORT_CLICKED\000"
 12257      56454E54 
 12257      5F53484F 
 12257      52545F43 
 12257      4C49434B 
 12258              	.LASF134:
 12259 04b2 4C565F53 		.ascii	"LV_STYLE_BG_DITHER_MODE\000"
 12259      54594C45 
 12259      5F42475F 
 12259      44495448 
 12259      45525F4D 
 12260              	.LASF274:
 12261 04ca 62675F69 		.ascii	"bg_img_symbol_font\000"
 12261      6D675F73 
 12261      796D626F 
 12261      6C5F666F 
 12261      6E7400
 12262              	.LASF283:
 12263 04dd 626F7264 		.ascii	"border_side\000"
 12263      65725F73 
 12263      69646500 
 12264              	.LASF1:
 12265 04e9 5F5F7569 		.ascii	"__uint8_t\000"
 12265      6E74385F 
 12265      7400
 12266              	.LASF267:
 12267 04f3 775F6C61 		.ascii	"w_layout\000"
 12267      796F7574 
 12267      00
 12268              	.LASF269:
 12269 04fc 626C656E 		.ascii	"blend_mode\000"
 12269      645F6D6F 
 12269      646500
 12270              	.LASF118:
 12271 0507 4C565F53 		.ascii	"LV_STYLE_RADIUS\000"
 12271      54594C45 
 12271      5F524144 
 12271      49555300 
 12272              	.LASF66:
 12273 0517 616C7068 		.ascii	"alpha\000"
 12273      6100
 12274              	.LASF390:
 12275 051d 7665725F 		.ascii	"ver_res\000"
 12275      72657300 
 12276              	.LASF263:
 12277 0525 7363725F 		.ascii	"scr_layout_inv\000"
 12277      6C61796F 
 12277      75745F69 
 12277      6E7600
 12278              	.LASF110:
 12279 0534 4C565F53 		.ascii	"LV_STYLE_MAX_WIDTH\000"
 12279      54594C45 
 12279      5F4D4158 
 12279      5F574944 
ARM GAS  C:\Users\haske\AppData\Local\Temp\ccN8jSR9.s 			page 251


 12279      544800
 12280              	.LASF420:
 12281 0547 73637265 		.ascii	"screens\000"
 12281      656E7300 
 12282              	.LASF137:
 12283 054f 4C565F53 		.ascii	"LV_STYLE_BG_IMG_RECOLOR\000"
 12283      54594C45 
 12283      5F42475F 
 12283      494D475F 
 12283      5245434F 
 12284              	.LASF154:
 12285 0567 4C565F53 		.ascii	"LV_STYLE_SHADOW_OPA\000"
 12285      54594C45 
 12285      5F534841 
 12285      444F575F 
 12285      4F504100 
 12286              	.LASF756:
 12287 057b 6C765F65 		.ascii	"lv_event_send\000"
 12287      76656E74 
 12287      5F73656E 
 12287      6400
 12288              	.LASF737:
 12289 0589 6C765F74 		.ascii	"lv_timer_create\000"
 12289      696D6572 
 12289      5F637265 
 12289      61746500 
 12290              	.LASF480:
 12291 0599 7363726F 		.ascii	"scroll_obj\000"
 12291      6C6C5F6F 
 12291      626A00
 12292              	.LASF185:
 12293 05a4 4C565F53 		.ascii	"LV_STYLE_TRANSFORM_HEIGHT\000"
 12293      54594C45 
 12293      5F545241 
 12293      4E53464F 
 12293      524D5F48 
 12294              	.LASF543:
 12295 05be 4C565F4F 		.ascii	"LV_OBJ_FLAG_SCROLLABLE\000"
 12295      424A5F46 
 12295      4C41475F 
 12295      5343524F 
 12295      4C4C4142 
 12296              	.LASF122:
 12297 05d5 4C565F53 		.ascii	"LV_STYLE_PAD_RIGHT\000"
 12297      54594C45 
 12297      5F504144 
 12297      5F524947 
 12297      485400
 12298              	.LASF604:
 12299 05e8 4C565F45 		.ascii	"LV_EVENT_ALL\000"
 12299      56454E54 
 12299      5F414C4C 
 12299      00
 12300              	.LASF226:
 12301 05f5 4C565F49 		.ascii	"LV_IMG_CF_RGBA5658\000"
 12301      4D475F43 
 12301      465F5247 
ARM GAS  C:\Users\haske\AppData\Local\Temp\ccN8jSR9.s 			page 252


 12301      42413536 
 12301      353800
 12302              	.LASF435:
 12303 0608 6C617374 		.ascii	"last_activity_time\000"
 12303      5F616374 
 12303      69766974 
 12303      795F7469 
 12303      6D6500
 12304              	.LASF9:
 12305 061b 6C6F6E67 		.ascii	"long int\000"
 12305      20696E74 
 12305      00
 12306              	.LASF77:
 12307 0624 4C565F50 		.ascii	"LV_PALETTE_CYAN\000"
 12307      414C4554 
 12307      54455F43 
 12307      59414E00 
 12308              	.LASF182:
 12309 0634 4C565F53 		.ascii	"LV_STYLE_TRANSITION\000"
 12309      54594C45 
 12309      5F545241 
 12309      4E534954 
 12309      494F4E00 
 12310              	.LASF400:
 12311 0648 726F7461 		.ascii	"rotated\000"
 12311      74656400 
 12312              	.LASF484:
 12313 0650 7363726F 		.ascii	"scroll_dir\000"
 12313      6C6C5F64 
 12313      697200
 12314              	.LASF592:
 12315 065b 67726F75 		.ascii	"group_def\000"
 12315      705F6465 
 12315      6600
 12316              	.LASF413:
 12317 0665 64726177 		.ascii	"draw_ctx_deinit\000"
 12317      5F637478 
 12317      5F646569 
 12317      6E697400 
 12318              	.LASF138:
 12319 0675 4C565F53 		.ascii	"LV_STYLE_BG_IMG_RECOLOR_OPA\000"
 12319      54594C45 
 12319      5F42475F 
 12319      494D475F 
 12319      5245434F 
 12320              	.LASF519:
 12321 0691 4C565F53 		.ascii	"LV_STATE_HOVERED\000"
 12321      54415445 
 12321      5F484F56 
 12321      45524544 
 12321      00
 12322              	.LASF270:
 12323 06a2 62675F6F 		.ascii	"bg_opa\000"
 12323      706100
 12324              	.LASF524:
 12325 06a9 4C565F53 		.ascii	"LV_STATE_USER_2\000"
 12325      54415445 
ARM GAS  C:\Users\haske\AppData\Local\Temp\ccN8jSR9.s 			page 253


 12325      5F555345 
 12325      525F3200 
 12326              	.LASF418:
 12327 06b9 72656672 		.ascii	"refr_timer\000"
 12327      5F74696D 
 12327      657200
 12328              	.LASF517:
 12329 06c4 4C565F53 		.ascii	"LV_STATE_FOCUS_KEY\000"
 12329      54415445 
 12329      5F464F43 
 12329      55535F4B 
 12329      455900
 12330              	.LASF306:
 12331 06d7 6C765F64 		.ascii	"lv_draw_label_dsc_t\000"
 12331      7261775F 
 12331      6C616265 
 12331      6C5F6473 
 12331      635F7400 
 12332              	.LASF723:
 12333 06eb 6C765F64 		.ascii	"lv_disp_set_rotation\000"
 12333      6973705F 
 12333      7365745F 
 12333      726F7461 
 12333      74696F6E 
 12334              	.LASF223:
 12335 0700 4C565F49 		.ascii	"LV_IMG_CF_RGBA8888\000"
 12335      4D475F43 
 12335      465F5247 
 12335      42413838 
 12335      383800
 12336              	.LASF528:
 12337 0713 6C765F73 		.ascii	"lv_state_t\000"
 12337      74617465 
 12337      5F7400
 12338              	.LASF556:
 12339 071e 4C565F4F 		.ascii	"LV_OBJ_FLAG_ADV_HITTEST\000"
 12339      424A5F46 
 12339      4C41475F 
 12339      4144565F 
 12339      48495454 
 12340              	.LASF299:
 12341 0736 73656C5F 		.ascii	"sel_bg_color\000"
 12341      62675F63 
 12341      6F6C6F72 
 12341      00
 12342              	.LASF717:
 12343 0743 6C765F64 		.ascii	"lv_disp_get_antialiasing\000"
 12343      6973705F 
 12343      6765745F 
 12343      616E7469 
 12343      616C6961 
 12344              	.LASF688:
 12345 075c 64697370 		.ascii	"disp_drv\000"
 12345      5F647276 
 12345      00
 12346              	.LASF76:
 12347 0765 4C565F50 		.ascii	"LV_PALETTE_LIGHT_BLUE\000"
ARM GAS  C:\Users\haske\AppData\Local\Temp\ccN8jSR9.s 			page 254


 12347      414C4554 
 12347      54455F4C 
 12347      49474854 
 12347      5F424C55 
 12348              	.LASF508:
 12349 077b 65646765 		.ascii	"edge_cb\000"
 12349      5F636200 
 12350              	.LASF432:
 12351 0783 696E765F 		.ascii	"inv_area_joined\000"
 12351      61726561 
 12351      5F6A6F69 
 12351      6E656400 
 12352              	.LASF139:
 12353 0793 4C565F53 		.ascii	"LV_STYLE_BG_IMG_TILED\000"
 12353      54594C45 
 12353      5F42475F 
 12353      494D475F 
 12353      54494C45 
 12354              	.LASF423:
 12355 07a9 7363725F 		.ascii	"scr_to_load\000"
 12355      746F5F6C 
 12355      6F616400 
 12356              	.LASF729:
 12357 07b5 5F6C765F 		.ascii	"_lv_disp_ll\000"
 12357      64697370 
 12357      5F6C6C00 
 12358              	.LASF502:
 12359 07c1 67726F75 		.ascii	"group\000"
 12359      7000
 12360              	.LASF362:
 12361 07c7 68656164 		.ascii	"head\000"
 12361      00
 12362              	.LASF141:
 12363 07cc 4C565F53 		.ascii	"LV_STYLE_BORDER_OPA\000"
 12363      54594C45 
 12363      5F424F52 
 12363      4445525F 
 12363      4F504100 
 12364              	.LASF720:
 12365 07e0 6C765F64 		.ascii	"lv_disp_flush_is_last\000"
 12365      6973705F 
 12365      666C7573 
 12365      685F6973 
 12365      5F6C6173 
 12366              	.LASF527:
 12367 07f6 4C565F53 		.ascii	"LV_STATE_ANY\000"
 12367      54415445 
 12367      5F414E59 
 12367      00
 12368              	.LASF721:
 12369 0803 6C765F64 		.ascii	"lv_disp_get_next\000"
 12369      6973705F 
 12369      6765745F 
 12369      6E657874 
 12369      00
 12370              	.LASF461:
 12371 0814 72656164 		.ascii	"read_cb\000"
ARM GAS  C:\Users\haske\AppData\Local\Temp\ccN8jSR9.s 			page 255


 12371      5F636200 
 12372              	.LASF730:
 12373 081c 6C765F6F 		.ascii	"lv_obj_mark_layout_as_dirty\000"
 12373      626A5F6D 
 12373      61726B5F 
 12373      6C61796F 
 12373      75745F61 
 12374              	.LASF631:
 12375 0838 4C565F45 		.ascii	"LV_EVENT_DRAW_PART_END\000"
 12375      56454E54 
 12375      5F445241 
 12375      575F5041 
 12375      52545F45 
 12376              	.LASF251:
 12377 084f 64617461 		.ascii	"data\000"
 12377      00
 12378              	.LASF84:
 12379 0854 4C565F50 		.ascii	"LV_PALETTE_ORANGE\000"
 12379      414C4554 
 12379      54455F4F 
 12379      52414E47 
 12379      4500
 12380              	.LASF380:
 12381 0866 6C617374 		.ascii	"last_area\000"
 12381      5F617265 
 12381      6100
 12382              	.LASF483:
 12383 0870 67657374 		.ascii	"gesture_sum\000"
 12383      7572655F 
 12383      73756D00 
 12384              	.LASF353:
 12385 087c 62756666 		.ascii	"buffer_copy\000"
 12385      65725F63 
 12385      6F707900 
 12386              	.LASF481:
 12387 0888 6C617374 		.ascii	"last_pressed\000"
 12387      5F707265 
 12387      73736564 
 12387      00
 12388              	.LASF683:
 12389 0895 66675F63 		.ascii	"fg_color_save\000"
 12389      6F6C6F72 
 12389      5F736176 
 12389      6500
 12390              	.LASF284:
 12391 08a3 6F75746C 		.ascii	"outline_color\000"
 12391      696E655F 
 12391      636F6C6F 
 12391      7200
 12392              	.LASF153:
 12393 08b1 4C565F53 		.ascii	"LV_STYLE_SHADOW_COLOR\000"
 12393      54594C45 
 12393      5F534841 
 12393      444F575F 
 12393      434F4C4F 
 12394              	.LASF693:
 12395 08c7 7365745F 		.ascii	"set_px_true_color_alpha\000"
ARM GAS  C:\Users\haske\AppData\Local\Temp\ccN8jSR9.s 			page 256


 12395      70785F74 
 12395      7275655F 
 12395      636F6C6F 
 12395      725F616C 
 12396              	.LASF606:
 12397 08df 4C565F45 		.ascii	"LV_EVENT_PRESSING\000"
 12397      56454E54 
 12397      5F505245 
 12397      5353494E 
 12397      4700
 12398              	.LASF265:
 12399 08f1 7374796C 		.ascii	"style_cnt\000"
 12399      655F636E 
 12399      7400
 12400              	.LASF262:
 12401 08fb 6C61796F 		.ascii	"layout_inv\000"
 12401      75745F69 
 12401      6E7600
 12402              	.LASF520:
 12403 0906 4C565F53 		.ascii	"LV_STATE_PRESSED\000"
 12403      54415445 
 12403      5F505245 
 12403      53534544 
 12403      00
 12404              	.LASF2:
 12405 0917 7369676E 		.ascii	"signed char\000"
 12405      65642063 
 12405      68617200 
 12406              	.LASF16:
 12407 0923 75696E74 		.ascii	"uint8_t\000"
 12407      385F7400 
 12408              	.LASF348:
 12409 092b 64726177 		.ascii	"draw_line\000"
 12409      5F6C696E 
 12409      6500
 12410              	.LASF389:
 12411 0935 686F725F 		.ascii	"hor_res\000"
 12411      72657300 
 12412              	.LASF383:
 12413 093d 4C565F44 		.ascii	"LV_DISP_ROT_NONE\000"
 12413      4953505F 
 12413      524F545F 
 12413      4E4F4E45 
 12413      00
 12414              	.LASF560:
 12415 094e 4C565F4F 		.ascii	"LV_OBJ_FLAG_LAYOUT_1\000"
 12415      424A5F46 
 12415      4C41475F 
 12415      4C41594F 
 12415      55545F31 
 12416              	.LASF561:
 12417 0963 4C565F4F 		.ascii	"LV_OBJ_FLAG_LAYOUT_2\000"
 12417      424A5F46 
 12417      4C41475F 
 12417      4C41594F 
 12417      55545F32 
 12418              	.LASF278:
ARM GAS  C:\Users\haske\AppData\Local\Temp\ccN8jSR9.s 			page 257


 12419 0978 62675F69 		.ascii	"bg_img_tiled\000"
 12419      6D675F74 
 12419      696C6564 
 12419      00
 12420              	.LASF130:
 12421 0985 4C565F53 		.ascii	"LV_STYLE_BG_GRAD_DIR\000"
 12421      54594C45 
 12421      5F42475F 
 12421      47524144 
 12421      5F444952 
 12422              	.LASF35:
 12423 099a 6765745F 		.ascii	"get_glyph_bitmap\000"
 12423      676C7970 
 12423      685F6269 
 12423      746D6170 
 12423      00
 12424              	.LASF689:
 12425 09ab 6275665F 		.ascii	"buf_w\000"
 12425      7700
 12426              	.LASF323:
 12427 09b1 656E645F 		.ascii	"end_angle\000"
 12427      616E676C 
 12427      6500
 12428              	.LASF62:
 12429 09bb 626C7565 		.ascii	"blue\000"
 12429      00
 12430              	.LASF549:
 12431 09c0 4C565F4F 		.ascii	"LV_OBJ_FLAG_SCROLL_CHAIN\000"
 12431      424A5F46 
 12431      4C41475F 
 12431      5343524F 
 12431      4C4C5F43 
 12432              	.LASF208:
 12433 09d9 4C565F49 		.ascii	"LV_IMG_CF_RAW\000"
 12433      4D475F43 
 12433      465F5241 
 12433      5700
 12434              	.LASF562:
 12435 09e7 4C565F4F 		.ascii	"LV_OBJ_FLAG_WIDGET_1\000"
 12435      424A5F46 
 12435      4C41475F 
 12435      57494447 
 12435      45545F31 
 12436              	.LASF563:
 12437 09fc 4C565F4F 		.ascii	"LV_OBJ_FLAG_WIDGET_2\000"
 12437      424A5F46 
 12437      4C41475F 
 12437      57494447 
 12437      45545F32 
 12438              	.LASF116:
 12439 0a11 4C565F53 		.ascii	"LV_STYLE_ALIGN\000"
 12439      54594C45 
 12439      5F414C49 
 12439      474E00
 12440              	.LASF3:
 12441 0a20 756E7369 		.ascii	"unsigned char\000"
 12441      676E6564 
ARM GAS  C:\Users\haske\AppData\Local\Temp\ccN8jSR9.s 			page 258


 12441      20636861 
 12441      7200
 12442              	.LASF424:
 12443 0a2e 746F705F 		.ascii	"top_layer\000"
 12443      6C617965 
 12443      7200
 12444              	.LASF496:
 12445 0a38 74797065 		.ascii	"types\000"
 12445      7300
 12446              	.LASF648:
 12447 0a3e 4C565F45 		.ascii	"LV_EVENT_GET_SELF_SIZE\000"
 12447      56454E54 
 12447      5F474554 
 12447      5F53454C 
 12447      465F5349 
 12448              	.LASF625:
 12449 0a55 4C565F45 		.ascii	"LV_EVENT_DRAW_MAIN\000"
 12449      56454E54 
 12449      5F445241 
 12449      575F4D41 
 12449      494E00
 12450              	.LASF384:
 12451 0a68 4C565F44 		.ascii	"LV_DISP_ROT_90\000"
 12451      4953505F 
 12451      524F545F 
 12451      393000
 12452              	.LASF321:
 12453 0a77 6C765F64 		.ascii	"lv_draw_line_dsc_t\000"
 12453      7261775F 
 12453      6C696E65 
 12453      5F647363 
 12453      5F7400
 12454              	.LASF190:
 12455 0a8a 4C565F53 		.ascii	"LV_STYLE_TRANSFORM_PIVOT_X\000"
 12455      54594C45 
 12455      5F545241 
 12455      4E53464F 
 12455      524D5F50 
 12456              	.LASF191:
 12457 0aa5 4C565F53 		.ascii	"LV_STYLE_TRANSFORM_PIVOT_Y\000"
 12457      54594C45 
 12457      5F545241 
 12457      4E53464F 
 12457      524D5F50 
 12458              	.LASF654:
 12459 0ac0 6C765F67 		.ascii	"lv_group_t\000"
 12459      726F7570 
 12459      5F7400
 12460              	.LASF451:
 12461 0acb 4C565F49 		.ascii	"LV_INDEV_STATE_RELEASED\000"
 12461      4E444556 
 12461      5F535441 
 12461      54455F52 
 12461      454C4541 
 12462              	.LASF156:
 12463 0ae3 4C565F53 		.ascii	"LV_STYLE_IMG_RECOLOR\000"
 12463      54594C45 
ARM GAS  C:\Users\haske\AppData\Local\Temp\ccN8jSR9.s 			page 259


 12463      5F494D47 
 12463      5F524543 
 12463      4F4C4F52 
 12464              	.LASF336:
 12465 0af8 61726561 		.ascii	"area_act\000"
 12465      5F616374 
 12465      00
 12466              	.LASF164:
 12467 0b01 4C565F53 		.ascii	"LV_STYLE_ARC_WIDTH\000"
 12467      54594C45 
 12467      5F415243 
 12467      5F574944 
 12467      544800
 12468              	.LASF31:
 12469 0b14 6F66735F 		.ascii	"ofs_x\000"
 12469      7800
 12470              	.LASF32:
 12471 0b1a 6F66735F 		.ascii	"ofs_y\000"
 12471      7900
 12472              	.LASF93:
 12473 0b20 6C765F62 		.ascii	"lv_base_dir_t\000"
 12473      6173655F 
 12473      6469725F 
 12473      7400
 12474              	.LASF249:
 12475 0b2e 68656164 		.ascii	"header\000"
 12475      657200
 12476              	.LASF675:
 12477 0b35 6C765F6F 		.ascii	"lv_obj_remove_style_all\000"
 12477      626A5F72 
 12477      656D6F76 
 12477      655F7374 
 12477      796C655F 
 12478              	.LASF266:
 12479 0b4d 685F6C61 		.ascii	"h_layout\000"
 12479      796F7574 
 12479      00
 12480              	.LASF379:
 12481 0b56 666C7573 		.ascii	"flushing_last\000"
 12481      68696E67 
 12481      5F6C6173 
 12481      7400
 12482              	.LASF44:
 12483 0b64 5F426F6F 		.ascii	"_Bool\000"
 12483      6C00
 12484              	.LASF662:
 12485 0b6a 7363726F 		.ascii	"scrollbar_mode\000"
 12485      6C6C6261 
 12485      725F6D6F 
 12485      646500
 12486              	.LASF392:
 12487 0b79 70687973 		.ascii	"physical_ver_res\000"
 12487      6963616C 
 12487      5F766572 
 12487      5F726573 
 12487      00
 12488              	.LASF339:
ARM GAS  C:\Users\haske\AppData\Local\Temp\ccN8jSR9.s 			page 260


 12489 0b8a 6F726967 		.ascii	"original\000"
 12489      696E616C 
 12489      00
 12490              	.LASF186:
 12491 0b93 4C565F53 		.ascii	"LV_STYLE_TRANSLATE_X\000"
 12491      54594C45 
 12491      5F545241 
 12491      4E534C41 
 12491      54455F58 
 12492              	.LASF187:
 12493 0ba8 4C565F53 		.ascii	"LV_STYLE_TRANSLATE_Y\000"
 12493      54594C45 
 12493      5F545241 
 12493      4E534C41 
 12493      54455F59 
 12494              	.LASF759:
 12495 0bbd 474E5520 		.ascii	"GNU C11 5.4.1 20160609 (release) [ARM/embedded-5-br"
 12495      43313120 
 12495      352E342E 
 12495      31203230 
 12495      31363036 
 12496 0bf0 616E6368 		.ascii	"anch revision 237715] -mcpu=cortex-m0plus -mthumb -"
 12496      20726576 
 12496      6973696F 
 12496      6E203233 
 12496      37373135 
 12497 0c23 67202D4F 		.ascii	"g -Og -ffunction-sections -ffat-lto-objects\000"
 12497      67202D66 
 12497      66756E63 
 12497      74696F6E 
 12497      2D736563 
 12498              	.LASF601:
 12499 0c4f 73746F70 		.ascii	"stop_processing\000"
 12499      5F70726F 
 12499      63657373 
 12499      696E6700 
 12500              	.LASF198:
 12501 0c5f 76616C75 		.ascii	"value\000"
 12501      6500
 12502              	.LASF576:
 12503 0c65 4C565F53 		.ascii	"LV_SCROLLBAR_MODE_AUTO\000"
 12503      43524F4C 
 12503      4C424152 
 12503      5F4D4F44 
 12503      455F4155 
 12504              	.LASF260:
 12505 0c7c 666C6167 		.ascii	"flags\000"
 12505      7300
 12506              	.LASF330:
 12507 0c82 6C765F64 		.ascii	"lv_draw_layer_flags_t\000"
 12507      7261775F 
 12507      6C617965 
 12507      725F666C 
 12507      6167735F 
 12508              	.LASF48:
 12509 0c98 63686172 		.ascii	"char\000"
 12509      00
ARM GAS  C:\Users\haske\AppData\Local\Temp\ccN8jSR9.s 			page 261


 12510              	.LASF314:
 12511 0c9d 6C765F64 		.ascii	"lv_draw_img_dsc_t\000"
 12511      7261775F 
 12511      696D675F 
 12511      6473635F 
 12511      7400
 12512              	.LASF455:
 12513 0caf 62746E5F 		.ascii	"btn_id\000"
 12513      696400
 12514              	.LASF569:
 12515 0cb6 4C565F4F 		.ascii	"LV_OBJ_TREE_WALK_NEXT\000"
 12515      424A5F54 
 12515      5245455F 
 12515      57414C4B 
 12515      5F4E4558 
 12516              	.LASF727:
 12517 0ccc 64697370 		.ascii	"disp_def\000"
 12517      5F646566 
 12517      00
 12518              	.LASF623:
 12519 0cd5 4C565F45 		.ascii	"LV_EVENT_REFR_EXT_DRAW_SIZE\000"
 12519      56454E54 
 12519      5F524546 
 12519      525F4558 
 12519      545F4452 
 12520              	.LASF39:
 12521 0cf1 756E6465 		.ascii	"underline_position\000"
 12521      726C696E 
 12521      655F706F 
 12521      73697469 
 12521      6F6E00
 12522              	.LASF89:
 12523 0d04 5F4C565F 		.ascii	"_LV_PALETTE_LAST\000"
 12523      50414C45 
 12523      5454455F 
 12523      4C415354 
 12523      00
 12524              	.LASF699:
 12525 0d15 6C765F64 		.ascii	"lv_disp_drv_init\000"
 12525      6973705F 
 12525      6472765F 
 12525      696E6974 
 12525      00
 12526              	.LASF317:
 12527 0d26 64617368 		.ascii	"dash_gap\000"
 12527      5F676170 
 12527      00
 12528              	.LASF350:
 12529 0d2f 64726177 		.ascii	"draw_transform\000"
 12529      5F747261 
 12529      6E73666F 
 12529      726D00
 12530              	.LASF396:
 12531 0d3e 64697265 		.ascii	"direct_mode\000"
 12531      63745F6D 
 12531      6F646500 
 12532              	.LASF622:
ARM GAS  C:\Users\haske\AppData\Local\Temp\ccN8jSR9.s 			page 262


 12533 0d4a 4C565F45 		.ascii	"LV_EVENT_COVER_CHECK\000"
 12533      56454E54 
 12533      5F434F56 
 12533      45525F43 
 12533      4845434B 
 12534              	.LASF125:
 12535 0d5f 4C565F53 		.ascii	"LV_STYLE_BASE_DIR\000"
 12535      54594C45 
 12535      5F424153 
 12535      455F4449 
 12535      5200
 12536              	.LASF147:
 12537 0d71 4C565F53 		.ascii	"LV_STYLE_OUTLINE_OPA\000"
 12537      54594C45 
 12537      5F4F5554 
 12537      4C494E45 
 12537      5F4F5041 
 12538              	.LASF732:
 12539 0d86 6C765F69 		.ascii	"lv_img_buf_set_px_alpha\000"
 12539      6D675F62 
 12539      75665F73 
 12539      65745F70 
 12539      785F616C 
 12540              	.LASF103:
 12541 0d9e 73746F70 		.ascii	"stops_count\000"
 12541      735F636F 
 12541      756E7400 
 12542              	.LASF399:
 12543 0daa 616E7469 		.ascii	"antialiasing\000"
 12543      616C6961 
 12543      73696E67 
 12543      00
 12544              	.LASF417:
 12545 0db7 64726976 		.ascii	"driver\000"
 12545      657200
 12546              	.LASF6:
 12547 0dbe 5F5F7569 		.ascii	"__uint16_t\000"
 12547      6E743136 
 12547      5F7400
 12548              	.LASF482:
 12549 0dc9 7363726F 		.ascii	"scroll_area\000"
 12549      6C6C5F61 
 12549      72656100 
 12550              	.LASF521:
 12551 0dd5 4C565F53 		.ascii	"LV_STATE_SCROLLED\000"
 12551      54415445 
 12551      5F534352 
 12551      4F4C4C45 
 12551      4400
 12552              	.LASF709:
 12553 0de7 6C765F64 		.ascii	"lv_disp_get_ver_res\000"
 12553      6973705F 
 12553      6765745F 
 12553      7665725F 
 12553      72657300 
 12554              	.LASF621:
 12555 0dfb 4C565F45 		.ascii	"LV_EVENT_HIT_TEST\000"
ARM GAS  C:\Users\haske\AppData\Local\Temp\ccN8jSR9.s 			page 263


 12555      56454E54 
 12555      5F484954 
 12555      5F544553 
 12555      5400
 12556              	.LASF232:
 12557 0e0d 4C565F49 		.ascii	"LV_IMG_CF_RESERVED_19\000"
 12557      4D475F43 
 12557      465F5245 
 12557      53455256 
 12557      45445F31 
 12558              	.LASF702:
 12559 0e23 64697370 		.ascii	"disp_def_tmp\000"
 12559      5F646566 
 12559      5F746D70 
 12559      00
 12560              	.LASF667:
 12561 0e30 5F6C765F 		.ascii	"_lv_obj_spec_attr_t\000"
 12561      6F626A5F 
 12561      73706563 
 12561      5F617474 
 12561      725F7400 
 12562              	.LASF286:
 12563 0e44 6F75746C 		.ascii	"outline_pad\000"
 12563      696E655F 
 12563      70616400 
 12564              	.LASF359:
 12565 0e50 6C765F64 		.ascii	"lv_draw_ctx_t\000"
 12565      7261775F 
 12565      6374785F 
 12565      7400
 12566              	.LASF127:
 12567 0e5e 4C565F53 		.ascii	"LV_STYLE_BG_COLOR\000"
 12567      54594C45 
 12567      5F42475F 
 12567      434F4C4F 
 12567      5200
 12568              	.LASF157:
 12569 0e70 4C565F53 		.ascii	"LV_STYLE_IMG_RECOLOR_OPA\000"
 12569      54594C45 
 12569      5F494D47 
 12569      5F524543 
 12569      4F4C4F52 
 12570              	.LASF500:
 12571 0e89 70726F63 		.ascii	"proc\000"
 12571      00
 12572              	.LASF279:
 12573 0e8e 626F7264 		.ascii	"border_color\000"
 12573      65725F63 
 12573      6F6C6F72 
 12573      00
 12574              	.LASF708:
 12575 0e9b 6C765F64 		.ascii	"lv_disp_get_hor_res\000"
 12575      6973705F 
 12575      6765745F 
 12575      686F725F 
 12575      72657300 
 12576              	.LASF183:
ARM GAS  C:\Users\haske\AppData\Local\Temp\ccN8jSR9.s 			page 264


 12577 0eaf 4C565F53 		.ascii	"LV_STYLE_BLEND_MODE\000"
 12577      54594C45 
 12577      5F424C45 
 12577      4E445F4D 
 12577      4F444500 
 12578              	.LASF26:
 12579 0ec3 6C765F64 		.ascii	"lv_dir_t\000"
 12579      69725F74 
 12579      00
 12580              	.LASF643:
 12581 0ecc 4C565F45 		.ascii	"LV_EVENT_SCREEN_LOADED\000"
 12581      56454E54 
 12581      5F534352 
 12581      45454E5F 
 12581      4C4F4144 
 12582              	.LASF197:
 12583 0ee3 70726F70 		.ascii	"prop\000"
 12583      00
 12584              	.LASF538:
 12585 0ee8 4C565F50 		.ascii	"LV_PART_ANY\000"
 12585      4152545F 
 12585      414E5900 
 12586              	.LASF202:
 12587 0ef4 636F6E73 		.ascii	"const_props\000"
 12587      745F7072 
 12587      6F707300 
 12588              	.LASF583:
 12589 0f00 5F6C765F 		.ascii	"_lv_obj_style_t\000"
 12589      6F626A5F 
 12589      7374796C 
 12589      655F7400 
 12590              	.LASF518:
 12591 0f10 4C565F53 		.ascii	"LV_STATE_EDITED\000"
 12591      54415445 
 12591      5F454449 
 12591      54454400 
 12592              	.LASF282:
 12593 0f20 626F7264 		.ascii	"border_post\000"
 12593      65725F70 
 12593      6F737400 
 12594              	.LASF658:
 12595 0f2c 6576656E 		.ascii	"event_dsc\000"
 12595      745F6473 
 12595      6300
 12596              	.LASF378:
 12597 0f36 666C7573 		.ascii	"flushing\000"
 12597      68696E67 
 12597      00
 12598              	.LASF159:
 12599 0f3f 4C565F53 		.ascii	"LV_STYLE_LINE_DASH_WIDTH\000"
 12599      54594C45 
 12599      5F4C494E 
 12599      455F4441 
 12599      53485F57 
 12600              	.LASF763:
 12601 0f58 6C765F63 		.ascii	"lv_color_white\000"
 12601      6F6C6F72 
ARM GAS  C:\Users\haske\AppData\Local\Temp\ccN8jSR9.s 			page 265


 12601      5F776869 
 12601      746500
 12602              	.LASF674:
 12603 0f67 6C765F63 		.ascii	"lv_color_hex\000"
 12603      6F6C6F72 
 12603      5F686578 
 12603      00
 12604              	.LASF290:
 12605 0f74 73686164 		.ascii	"shadow_ofs_x\000"
 12605      6F775F6F 
 12605      66735F78 
 12605      00
 12606              	.LASF184:
 12607 0f81 4C565F53 		.ascii	"LV_STYLE_TRANSFORM_WIDTH\000"
 12607      54594C45 
 12607      5F545241 
 12607      4E53464F 
 12607      524D5F57 
 12608              	.LASF372:
 12609 0f9a 6C765F74 		.ascii	"lv_timer_t\000"
 12609      696D6572 
 12609      5F7400
 12610              	.LASF657:
 12611 0fa5 67726F75 		.ascii	"group_p\000"
 12611      705F7000 
 12612              	.LASF196:
 12613 0fad 6C765F73 		.ascii	"lv_style_prop_t\000"
 12613      74796C65 
 12613      5F70726F 
 12613      705F7400 
 12614              	.LASF548:
 12615 0fbd 4C565F4F 		.ascii	"LV_OBJ_FLAG_SCROLL_CHAIN_VER\000"
 12615      424A5F46 
 12615      4C41475F 
 12615      5343524F 
 12615      4C4C5F43 
 12616              	.LASF554:
 12617 0fda 4C565F4F 		.ascii	"LV_OBJ_FLAG_EVENT_BUBBLE\000"
 12617      424A5F46 
 12617      4C41475F 
 12617      4556454E 
 12617      545F4255 
 12618              	.LASF318:
 12619 0ff3 726F756E 		.ascii	"round_start\000"
 12619      645F7374 
 12619      61727400 
 12620              	.LASF659:
 12621 0fff 7363726F 		.ascii	"scroll\000"
 12621      6C6C00
 12622              	.LASF41:
 12623 1006 66616C6C 		.ascii	"fallback\000"
 12623      6261636B 
 12623      00
 12624              	.LASF201:
 12625 100f 76616C75 		.ascii	"values_and_props\000"
 12625      65735F61 
 12625      6E645F70 
ARM GAS  C:\Users\haske\AppData\Local\Temp\ccN8jSR9.s 			page 266


 12625      726F7073 
 12625      00
 12626              	.LASF448:
 12627 1020 4C565F49 		.ascii	"LV_INDEV_TYPE_BUTTON\000"
 12627      4E444556 
 12627      5F545950 
 12627      455F4255 
 12627      54544F4E 
 12628              	.LASF453:
 12629 1035 6C765F69 		.ascii	"lv_indev_state_t\000"
 12629      6E646576 
 12629      5F737461 
 12629      74655F74 
 12629      00
 12630              	.LASF707:
 12631 1046 6C765F64 		.ascii	"lv_disp_drv_register\000"
 12631      6973705F 
 12631      6472765F 
 12631      72656769 
 12631      73746572 
 12632              	.LASF669:
 12633 105b 6C765F74 		.ascii	"lv_theme_apply_cb_t\000"
 12633      68656D65 
 12633      5F617070 
 12633      6C795F63 
 12633      625F7400 
 12634              	.LASF85:
 12635 106f 4C565F50 		.ascii	"LV_PALETTE_DEEP_ORANGE\000"
 12635      414C4554 
 12635      54455F44 
 12635      4545505F 
 12635      4F52414E 
 12636              	.LASF398:
 12637 1086 73775F72 		.ascii	"sw_rotate\000"
 12637      6F746174 
 12637      6500
 12638              	.LASF646:
 12639 1090 4C565F45 		.ascii	"LV_EVENT_STYLE_CHANGED\000"
 12639      56454E54 
 12639      5F535459 
 12639      4C455F43 
 12639      48414E47 
 12640              	.LASF666:
 12641 10a7 6C617965 		.ascii	"layer_type\000"
 12641      725F7479 
 12641      706500
 12642              	.LASF181:
 12643 10b2 4C565F53 		.ascii	"LV_STYLE_ANIM_SPEED\000"
 12643      54594C45 
 12643      5F414E49 
 12643      4D5F5350 
 12643      45454400 
 12644              	.LASF700:
 12645 10c6 6C765F64 		.ascii	"lv_disp_draw_buf_init\000"
 12645      6973705F 
 12645      64726177 
 12645      5F627566 
ARM GAS  C:\Users\haske\AppData\Local\Temp\ccN8jSR9.s 			page 267


 12645      5F696E69 
 12646              	.LASF25:
 12647 10dc 6C765F61 		.ascii	"lv_area_t\000"
 12647      7265615F 
 12647      7400
 12648              	.LASF354:
 12649 10e6 6C617965 		.ascii	"layer_init\000"
 12649      725F696E 
 12649      697400
 12650              	.LASF145:
 12651 10f1 4C565F53 		.ascii	"LV_STYLE_OUTLINE_WIDTH\000"
 12651      54594C45 
 12651      5F4F5554 
 12651      4C494E45 
 12651      5F574944 
 12652              	.LASF441:
 12653 1108 666F6E74 		.ascii	"font_small\000"
 12653      5F736D61 
 12653      6C6C00
 12654              	.LASF653:
 12655 1113 6C765F67 		.ascii	"lv_group_edge_cb_t\000"
 12655      726F7570 
 12655      5F656467 
 12655      655F6362 
 12655      5F7400
 12656              	.LASF715:
 12657 1126 6C765F64 		.ascii	"lv_disp_get_offset_x\000"
 12657      6973705F 
 12657      6765745F 
 12657      6F666673 
 12657      65745F78 
 12658              	.LASF765:
 12659 113b 6C765F64 		.ascii	"lv_disp_get_default\000"
 12659      6973705F 
 12659      6765745F 
 12659      64656661 
 12659      756C7400 
 12660              	.LASF564:
 12661 114f 4C565F4F 		.ascii	"LV_OBJ_FLAG_USER_1\000"
 12661      424A5F46 
 12661      4C41475F 
 12661      55534552 
 12661      5F3100
 12662              	.LASF565:
 12663 1162 4C565F4F 		.ascii	"LV_OBJ_FLAG_USER_2\000"
 12663      424A5F46 
 12663      4C41475F 
 12663      55534552 
 12663      5F3200
 12664              	.LASF522:
 12665 1175 4C565F53 		.ascii	"LV_STATE_DISABLED\000"
 12665      54415445 
 12665      5F444953 
 12665      41424C45 
 12665      4400
 12666              	.LASF567:
 12667 1187 4C565F4F 		.ascii	"LV_OBJ_FLAG_USER_4\000"
ARM GAS  C:\Users\haske\AppData\Local\Temp\ccN8jSR9.s 			page 268


 12667      424A5F46 
 12667      4C41475F 
 12667      55534552 
 12667      5F3400
 12668              	.LASF736:
 12669 119a 5F6C765F 		.ascii	"_lv_ll_ins_head\000"
 12669      6C6C5F69 
 12669      6E735F68 
 12669      65616400 
 12670              	.LASF698:
 12671 11aa 7365745F 		.ascii	"set_px_cb_alpha1\000"
 12671      70785F63 
 12671      625F616C 
 12671      70686131 
 12671      00
 12672              	.LASF228:
 12673 11bb 4C565F49 		.ascii	"LV_IMG_CF_RESERVED_15\000"
 12673      4D475F43 
 12673      465F5245 
 12673      53455256 
 12673      45445F31 
 12674              	.LASF229:
 12675 11d1 4C565F49 		.ascii	"LV_IMG_CF_RESERVED_16\000"
 12675      4D475F43 
 12675      465F5245 
 12675      53455256 
 12675      45445F31 
 12676              	.LASF107:
 12677 11e7 4C565F53 		.ascii	"LV_STYLE_PROP_INV\000"
 12677      54594C45 
 12677      5F50524F 
 12677      505F494E 
 12677      5600
 12678              	.LASF231:
 12679 11f9 4C565F49 		.ascii	"LV_IMG_CF_RESERVED_18\000"
 12679      4D475F43 
 12679      465F5245 
 12679      53455256 
 12679      45445F31 
 12680              	.LASF173:
 12681 120f 4C565F53 		.ascii	"LV_STYLE_TEXT_LINE_SPACE\000"
 12681      54594C45 
 12681      5F544558 
 12681      545F4C49 
 12681      4E455F53 
 12682              	.LASF695:
 12683 1228 7365745F 		.ascii	"set_px_cb_alpha8\000"
 12683      70785F63 
 12683      625F616C 
 12683      70686138 
 12683      00
 12684              	.LASF603:
 12685 1239 6C765F6F 		.ascii	"lv_obj_class_t\000"
 12685      626A5F63 
 12685      6C617373 
 12685      5F7400
 12686              	.LASF199:
ARM GAS  C:\Users\haske\AppData\Local\Temp\ccN8jSR9.s 			page 269


 12687 1248 6C765F73 		.ascii	"lv_style_const_prop_t\000"
 12687      74796C65 
 12687      5F636F6E 
 12687      73745F70 
 12687      726F705F 
 12688              	.LASF626:
 12689 125e 4C565F45 		.ascii	"LV_EVENT_DRAW_MAIN_END\000"
 12689      56454E54 
 12689      5F445241 
 12689      575F4D41 
 12689      494E5F45 
 12690              	.LASF489:
 12691 1275 706F696E 		.ascii	"pointer\000"
 12691      74657200 
 12692              	.LASF256:
 12693 127d 70617265 		.ascii	"parent\000"
 12693      6E7400
 12694              	.LASF397:
 12695 1284 66756C6C 		.ascii	"full_refresh\000"
 12695      5F726566 
 12695      72657368 
 12695      00
 12696              	.LASF319:
 12697 1291 726F756E 		.ascii	"round_end\000"
 12697      645F656E 
 12697      6400
 12698              	.LASF324:
 12699 129b 696D675F 		.ascii	"img_src\000"
 12699      73726300 
 12700              	.LASF582:
 12701 12a3 69735F74 		.ascii	"is_trans\000"
 12701      72616E73 
 12701      00
 12702              	.LASF684:
 12703 12ac 62675F63 		.ascii	"bg_color_save\000"
 12703      6F6C6F72 
 12703      5F736176 
 12703      6500
 12704              	.LASF513:
 12705 12ba 6C765F69 		.ascii	"lv_indev_t\000"
 12705      6E646576 
 12705      5F7400
 12706              	.LASF503:
 12707 12c5 62746E5F 		.ascii	"btn_points\000"
 12707      706F696E 
 12707      747300
 12708              	.LASF292:
 12709 12d0 73686164 		.ascii	"shadow_spread\000"
 12709      6F775F73 
 12709      70726561 
 12709      6400
 12710              	.LASF180:
 12711 12de 4C565F53 		.ascii	"LV_STYLE_ANIM_TIME\000"
 12711      54594C45 
 12711      5F414E49 
 12711      4D5F5449 
 12711      4D4500
ARM GAS  C:\Users\haske\AppData\Local\Temp\ccN8jSR9.s 			page 270


 12712              	.LASF706:
 12713 12f1 696E6465 		.ascii	"indev\000"
 12713      7600
 12714              	.LASF495:
 12715 12f7 77616974 		.ascii	"wait_until_release\000"
 12715      5F756E74 
 12715      696C5F72 
 12715      656C6561 
 12715      736500
 12716              	.LASF120:
 12717 130a 4C565F53 		.ascii	"LV_STYLE_PAD_BOTTOM\000"
 12717      54594C45 
 12717      5F504144 
 12717      5F424F54 
 12717      544F4D00 
 12718              	.LASF589:
 12719 131e 77696474 		.ascii	"width_def\000"
 12719      685F6465 
 12719      6600
 12720              	.LASF558:
 12721 1328 4C565F4F 		.ascii	"LV_OBJ_FLAG_FLOATING\000"
 12721      424A5F46 
 12721      4C41475F 
 12721      464C4F41 
 12721      54494E47 
 12722              	.LASF233:
 12723 133d 4C565F49 		.ascii	"LV_IMG_CF_RESERVED_20\000"
 12723      4D475F43 
 12723      465F5245 
 12723      53455256 
 12723      45445F32 
 12724              	.LASF234:
 12725 1353 4C565F49 		.ascii	"LV_IMG_CF_RESERVED_21\000"
 12725      4D475F43 
 12725      465F5245 
 12725      53455256 
 12725      45445F32 
 12726              	.LASF235:
 12727 1369 4C565F49 		.ascii	"LV_IMG_CF_RESERVED_22\000"
 12727      4D475F43 
 12727      465F5245 
 12727      53455256 
 12727      45445F32 
 12728              	.LASF236:
 12729 137f 4C565F49 		.ascii	"LV_IMG_CF_RESERVED_23\000"
 12729      4D475F43 
 12729      465F5245 
 12729      53455256 
 12729      45445F32 
 12730              	.LASF739:
 12731 1395 6C765F74 		.ascii	"lv_theme_default_is_inited\000"
 12731      68656D65 
 12731      5F646566 
 12731      61756C74 
 12731      5F69735F 
 12732              	.LASF404:
 12733 13b0 636C6561 		.ascii	"clear_cb\000"
ARM GAS  C:\Users\haske\AppData\Local\Temp\ccN8jSR9.s 			page 271


 12733      725F6362 
 12733      00
 12734              	.LASF128:
 12735 13b9 4C565F53 		.ascii	"LV_STYLE_BG_OPA\000"
 12735      54594C45 
 12735      5F42475F 
 12735      4F504100 
 12736              	.LASF163:
 12737 13c9 4C565F53 		.ascii	"LV_STYLE_LINE_OPA\000"
 12737      54594C45 
 12737      5F4C494E 
 12737      455F4F50 
 12737      4100
 12738              	.LASF206:
 12739 13db 6C765F73 		.ascii	"lv_style_t\000"
 12739      74796C65 
 12739      5F7400
 12740              	.LASF559:
 12741 13e6 4C565F4F 		.ascii	"LV_OBJ_FLAG_OVERFLOW_VISIBLE\000"
 12741      424A5F46 
 12741      4C41475F 
 12741      4F564552 
 12741      464C4F57 
 12742              	.LASF258:
 12743 1403 7374796C 		.ascii	"styles\000"
 12743      657300
 12744              	.LASF457:
 12745 140a 636F6E74 		.ascii	"continue_reading\000"
 12745      696E7565 
 12745      5F726561 
 12745      64696E67 
 12745      00
 12746              	.LASF656:
 12747 141b 6368696C 		.ascii	"child_cnt\000"
 12747      645F636E 
 12747      7400
 12748              	.LASF155:
 12749 1425 4C565F53 		.ascii	"LV_STYLE_IMG_OPA\000"
 12749      54594C45 
 12749      5F494D47 
 12749      5F4F5041 
 12749      00
 12750              	.LASF188:
 12751 1436 4C565F53 		.ascii	"LV_STYLE_TRANSFORM_ZOOM\000"
 12751      54594C45 
 12751      5F545241 
 12751      4E53464F 
 12751      524D5F5A 
 12752              	.LASF620:
 12753 144e 4C565F45 		.ascii	"LV_EVENT_LEAVE\000"
 12753      56454E54 
 12753      5F4C4541 
 12753      564500
 12754              	.LASF87:
 12755 145d 4C565F50 		.ascii	"LV_PALETTE_BLUE_GREY\000"
 12755      414C4554 
 12755      54455F42 
ARM GAS  C:\Users\haske\AppData\Local\Temp\ccN8jSR9.s 			page 272


 12755      4C55455F 
 12755      47524559 
 12756              	.LASF11:
 12757 1472 6C6F6E67 		.ascii	"long unsigned int\000"
 12757      20756E73 
 12757      69676E65 
 12757      6420696E 
 12757      7400
 12758              	.LASF650:
 12759 1484 4C565F45 		.ascii	"LV_EVENT_PREPROCESS\000"
 12759      56454E54 
 12759      5F505245 
 12759      50524F43 
 12759      45535300 
 12760              	.LASF385:
 12761 1498 4C565F44 		.ascii	"LV_DISP_ROT_180\000"
 12761      4953505F 
 12761      524F545F 
 12761      31383000 
 12762              	.LASF245:
 12763 14a8 6C765F69 		.ascii	"lv_img_cf_t\000"
 12763      6D675F63 
 12763      665F7400 
 12764              	.LASF545:
 12765 14b4 4C565F4F 		.ascii	"LV_OBJ_FLAG_SCROLL_MOMENTUM\000"
 12765      424A5F46 
 12765      4C41475F 
 12765      5343524F 
 12765      4C4C5F4D 
 12766              	.LASF170:
 12767 14d0 4C565F53 		.ascii	"LV_STYLE_TEXT_OPA\000"
 12767      54594C45 
 12767      5F544558 
 12767      545F4F50 
 12767      4100
 12768              	.LASF322:
 12769 14e2 73746172 		.ascii	"start_angle\000"
 12769      745F616E 
 12769      676C6500 
 12770              	.LASF598:
 12771 14ee 70617261 		.ascii	"param\000"
 12771      6D00
 12772              	.LASF595:
 12773 14f4 74617267 		.ascii	"target\000"
 12773      657400
 12774              	.LASF427:
 12775 14fb 64726177 		.ascii	"draw_prev_over_act\000"
 12775      5F707265 
 12775      765F6F76 
 12775      65725F61 
 12775      637400
 12776              	.LASF357:
 12777 150e 6C617965 		.ascii	"layer_destroy\000"
 12777      725F6465 
 12777      7374726F 
 12777      7900
 12778              	.LASF316:
ARM GAS  C:\Users\haske\AppData\Local\Temp\ccN8jSR9.s 			page 273


 12779 151c 64617368 		.ascii	"dash_width\000"
 12779      5F776964 
 12779      746800
 12780              	.LASF381:
 12781 1527 6C617374 		.ascii	"last_part\000"
 12781      5F706172 
 12781      7400
 12782              	.LASF70:
 12783 1531 4C565F50 		.ascii	"LV_PALETTE_RED\000"
 12783      414C4554 
 12783      54455F52 
 12783      454400
 12784              	.LASF591:
 12785 1540 65646974 		.ascii	"editable\000"
 12785      61626C65 
 12785      00
 12786              	.LASF419:
 12787 1549 7468656D 		.ascii	"theme\000"
 12787      6500
 12788              	.LASF393:
 12789 154f 6F666673 		.ascii	"offset_x\000"
 12789      65745F78 
 12789      00
 12790              	.LASF394:
 12791 1558 6F666673 		.ascii	"offset_y\000"
 12791      65745F79 
 12791      00
 12792              	.LASF27:
 12793 1561 7265736F 		.ascii	"resolved_font\000"
 12793      6C766564 
 12793      5F666F6E 
 12793      7400
 12794              	.LASF542:
 12795 156f 4C565F4F 		.ascii	"LV_OBJ_FLAG_CHECKABLE\000"
 12795      424A5F46 
 12795      4C41475F 
 12795      43484543 
 12795      4B41424C 
 12796              	.LASF505:
 12797 1585 6F626A5F 		.ascii	"obj_ll\000"
 12797      6C6C00
 12798              	.LASF344:
 12799 158c 64726177 		.ascii	"draw_arc\000"
 12799      5F617263 
 12799      00
 12800              	.LASF162:
 12801 1595 4C565F53 		.ascii	"LV_STYLE_LINE_COLOR\000"
 12801      54594C45 
 12801      5F4C494E 
 12801      455F434F 
 12801      4C4F5200 
 12802              	.LASF539:
 12803 15a9 4C565F4F 		.ascii	"LV_OBJ_FLAG_HIDDEN\000"
 12803      424A5F46 
 12803      4C41475F 
 12803      48494444 
 12803      454E00
ARM GAS  C:\Users\haske\AppData\Local\Temp\ccN8jSR9.s 			page 274


 12804              	.LASF50:
 12805 15bc 4C565F4F 		.ascii	"LV_OPA_0\000"
 12805      50415F30 
 12805      00
 12806              	.LASF123:
 12807 15c5 4C565F53 		.ascii	"LV_STYLE_PAD_ROW\000"
 12807      54594C45 
 12807      5F504144 
 12807      5F524F57 
 12807      00
 12808              	.LASF373:
 12809 15d6 5F6C765F 		.ascii	"_lv_disp_draw_buf_t\000"
 12809      64697370 
 12809      5F647261 
 12809      775F6275 
 12809      665F7400 
 12810              	.LASF332:
 12811 15ea 6275665F 		.ascii	"buf_area\000"
 12811      61726561 
 12811      00
 12812              	.LASF308:
 12813 15f3 7A6F6F6D 		.ascii	"zoom\000"
 12813      00
 12814              	.LASF682:
 12815 15f8 62675F6F 		.ascii	"bg_opa_save\000"
 12815      70615F73 
 12815      61766500 
 12816              	.LASF310:
 12817 1604 7265636F 		.ascii	"recolor\000"
 12817      6C6F7200 
 12818              	.LASF250:
 12819 160c 64617461 		.ascii	"data_size\000"
 12819      5F73697A 
 12819      6500
 12820              	.LASF593:
 12821 1616 696E7374 		.ascii	"instance_size\000"
 12821      616E6365 
 12821      5F73697A 
 12821      6500
 12822              	.LASF704:
 12823 1624 6C765F64 		.ascii	"lv_disp_remove\000"
 12823      6973705F 
 12823      72656D6F 
 12823      766500
 12824              	.LASF307:
 12825 1633 616E676C 		.ascii	"angle\000"
 12825      6500
 12826              	.LASF121:
 12827 1639 4C565F53 		.ascii	"LV_STYLE_PAD_LEFT\000"
 12827      54594C45 
 12827      5F504144 
 12827      5F4C4546 
 12827      5400
 12828              	.LASF412:
 12829 164b 64726177 		.ascii	"draw_ctx_init\000"
 12829      5F637478 
 12829      5F696E69 
ARM GAS  C:\Users\haske\AppData\Local\Temp\ccN8jSR9.s 			page 275


 12829      7400
 12830              	.LASF596:
 12831 1659 63757272 		.ascii	"current_target\000"
 12831      656E745F 
 12831      74617267 
 12831      657400
 12832              	.LASF640:
 12833 1668 4C565F45 		.ascii	"LV_EVENT_CHILD_DELETED\000"
 12833      56454E54 
 12833      5F434849 
 12833      4C445F44 
 12833      454C4554 
 12834              	.LASF760:
 12835 167f 2E2E5C2E 		.ascii	"..\\..\\..\\arduinoLCD\\test\\Pain Drain\\libraries"
 12835      2E5C2E2E 
 12835      5C617264 
 12835      75696E6F 
 12835      4C43445C 
 12836 16ac 5C6C7667 		.ascii	"\\lvgl\\src\\hal\\lv_hal_disp.c\000"
 12836      6C5C7372 
 12836      635C6861 
 12836      6C5C6C76 
 12836      5F68616C 
 12837              	.LASF685:
 12838 16c8 7265735F 		.ascii	"res_color_saved\000"
 12838      636F6C6F 
 12838      725F7361 
 12838      76656400 
 12839              	.LASF532:
 12840 16d8 4C565F50 		.ascii	"LV_PART_KNOB\000"
 12840      4152545F 
 12840      4B4E4F42 
 12840      00
 12841              	.LASF452:
 12842 16e5 4C565F49 		.ascii	"LV_INDEV_STATE_PRESSED\000"
 12842      4E444556 
 12842      5F535441 
 12842      54455F50 
 12842      52455353 
 12843              	.LASF670:
 12844 16fc 72657375 		.ascii	"result\000"
 12844      6C7400
 12845              	.LASF345:
 12846 1703 64726177 		.ascii	"draw_img_decoded\000"
 12846      5F696D67 
 12846      5F646563 
 12846      6F646564 
 12846      00
 12847              	.LASF365:
 12848 1714 6C765F74 		.ascii	"lv_timer_cb_t\000"
 12848      696D6572 
 12848      5F63625F 
 12848      7400
 12849              	.LASF179:
 12850 1722 4C565F53 		.ascii	"LV_STYLE_ANIM\000"
 12850      54594C45 
 12850      5F414E49 
ARM GAS  C:\Users\haske\AppData\Local\Temp\ccN8jSR9.s 			page 276


 12850      4D00
 12851              	.LASF114:
 12852 1730 4C565F53 		.ascii	"LV_STYLE_X\000"
 12852      54594C45 
 12852      5F5800
 12853              	.LASF479:
 12854 173b 6C617374 		.ascii	"last_obj\000"
 12854      5F6F626A 
 12854      00
 12855              	.LASF552:
 12856 1744 4C565F4F 		.ascii	"LV_OBJ_FLAG_SNAPPABLE\000"
 12856      424A5F46 
 12856      4C41475F 
 12856      534E4150 
 12856      5041424C 
 12857              	.LASF450:
 12858 175a 6C765F69 		.ascii	"lv_indev_type_t\000"
 12858      6E646576 
 12858      5F747970 
 12858      655F7400 
 12859              	.LASF175:
 12860 176a 4C565F53 		.ascii	"LV_STYLE_TEXT_ALIGN\000"
 12860      54594C45 
 12860      5F544558 
 12860      545F414C 
 12860      49474E00 
 12861              	.LASF80:
 12862 177e 4C565F50 		.ascii	"LV_PALETTE_LIGHT_GREEN\000"
 12862      414C4554 
 12862      54455F4C 
 12862      49474854 
 12862      5F475245 
 12863              	.LASF691:
 12864 1795 6C765F63 		.ascii	"lv_color_brightness\000"
 12864      6F6C6F72 
 12864      5F627269 
 12864      6768746E 
 12864      65737300 
 12865              	.LASF371:
 12866 17a9 70617573 		.ascii	"paused\000"
 12866      656400
 12867              	.LASF697:
 12868 17b0 7365745F 		.ascii	"set_px_cb_alpha2\000"
 12868      70785F63 
 12868      625F616C 
 12868      70686132 
 12868      00
 12869              	.LASF671:
 12870 17c1 6C765F63 		.ascii	"lv_color_mix\000"
 12870      6F6C6F72 
 12870      5F6D6978 
 12870      00
 12871              	.LASF253:
 12872 17ce 5F6C765F 		.ascii	"_lv_font_t\000"
 12872      666F6E74 
 12872      5F7400
 12873              	.LASF406:
ARM GAS  C:\Users\haske\AppData\Local\Temp\ccN8jSR9.s 			page 277


 12874 17d9 77616974 		.ascii	"wait_cb\000"
 12874      5F636200 
 12875              	.LASF10:
 12876 17e1 5F5F7569 		.ascii	"__uint32_t\000"
 12876      6E743332 
 12876      5F7400
 12877              	.LASF588:
 12878 17ec 6576656E 		.ascii	"event_cb\000"
 12878      745F6362 
 12878      00
 12879              	.LASF651:
 12880 17f5 6C765F65 		.ascii	"lv_event_code_t\000"
 12880      76656E74 
 12880      5F636F64 
 12880      655F7400 
 12881              	.LASF72:
 12882 1805 4C565F50 		.ascii	"LV_PALETTE_PURPLE\000"
 12882      414C4554 
 12882      54455F50 
 12882      5552504C 
 12882      4500
 12883              	.LASF95:
 12884 1817 6C765F74 		.ascii	"lv_text_decor_t\000"
 12884      6578745F 
 12884      6465636F 
 12884      725F7400 
 12885              	.LASF594:
 12886 1827 5F6C765F 		.ascii	"_lv_event_t\000"
 12886      6576656E 
 12886      745F7400 
 12887              	.LASF12:
 12888 1833 6C6F6E67 		.ascii	"long long int\000"
 12888      206C6F6E 
 12888      6720696E 
 12888      7400
 12889              	.LASF288:
 12890 1841 73686164 		.ascii	"shadow_color\000"
 12890      6F775F63 
 12890      6F6C6F72 
 12890      00
 12891              	.LASF600:
 12892 184e 64656C65 		.ascii	"deleted\000"
 12892      74656400 
 12893              	.LASF694:
 12894 1856 7365745F 		.ascii	"set_px_alpha_generic\000"
 12894      70785F61 
 12894      6C706861 
 12894      5F67656E 
 12894      65726963 
 12895              	.LASF315:
 12896 186b 77696474 		.ascii	"width\000"
 12896      6800
 12897              	.LASF615:
 12898 1871 4C565F45 		.ascii	"LV_EVENT_SCROLL\000"
 12898      56454E54 
 12898      5F534352 
 12898      4F4C4C00 
ARM GAS  C:\Users\haske\AppData\Local\Temp\ccN8jSR9.s 			page 278


 12899              	.LASF83:
 12900 1881 4C565F50 		.ascii	"LV_PALETTE_AMBER\000"
 12900      414C4554 
 12900      54455F41 
 12900      4D424552 
 12900      00
 12901              	.LASF555:
 12902 1892 4C565F4F 		.ascii	"LV_OBJ_FLAG_GESTURE_BUBBLE\000"
 12902      424A5F46 
 12902      4C41475F 
 12902      47455354 
 12902      5552455F 
 12903              	.LASF374:
 12904 18ad 62756631 		.ascii	"buf1\000"
 12904      00
 12905              	.LASF375:
 12906 18b2 62756632 		.ascii	"buf2\000"
 12906      00
 12907              	.LASF655:
 12908 18b7 6368696C 		.ascii	"children\000"
 12908      6472656E 
 12908      00
 12909              	.LASF189:
 12910 18c0 4C565F53 		.ascii	"LV_STYLE_TRANSFORM_ANGLE\000"
 12910      54594C45 
 12910      5F545241 
 12910      4E53464F 
 12910      524D5F41 
 12911              	.LASF472:
 12912 18d9 6C617374 		.ascii	"last_point\000"
 12912      5F706F69 
 12912      6E7400
 12913              	.LASF680:
 12914 18e4 7265735F 		.ascii	"res_opa\000"
 12914      6F706100 
 12915              	.LASF478:
 12916 18ec 6163745F 		.ascii	"act_obj\000"
 12916      6F626A00 
 12917              	.LASF327:
 12918 18f4 4C565F44 		.ascii	"LV_DRAW_LAYER_FLAG_NONE\000"
 12918      5241575F 
 12918      4C415945 
 12918      525F464C 
 12918      41475F4E 
 12919              	.LASF177:
 12920 190c 4C565F53 		.ascii	"LV_STYLE_COLOR_FILTER_DSC\000"
 12920      54594C45 
 12920      5F434F4C 
 12920      4F525F46 
 12920      494C5445 
 12921              	.LASF92:
 12922 1926 6C765F74 		.ascii	"lv_text_align_t\000"
 12922      6578745F 
 12922      616C6967 
 12922      6E5F7400 
 12923              	.LASF544:
 12924 1936 4C565F4F 		.ascii	"LV_OBJ_FLAG_SCROLL_ELASTIC\000"
ARM GAS  C:\Users\haske\AppData\Local\Temp\ccN8jSR9.s 			page 279


 12924      424A5F46 
 12924      4C41475F 
 12924      5343524F 
 12924      4C4C5F45 
 12925              	.LASF611:
 12926 1951 4C565F45 		.ascii	"LV_EVENT_CLICKED\000"
 12926      56454E54 
 12926      5F434C49 
 12926      434B4544 
 12926      00
 12927              	.LASF40:
 12928 1962 756E6465 		.ascii	"underline_thickness\000"
 12928      726C696E 
 12928      655F7468 
 12928      69636B6E 
 12928      65737300 
 12929              	.LASF174:
 12930 1976 4C565F53 		.ascii	"LV_STYLE_TEXT_DECOR\000"
 12930      54594C45 
 12930      5F544558 
 12930      545F4445 
 12930      434F5200 
 12931              	.LASF613:
 12932 198a 4C565F45 		.ascii	"LV_EVENT_SCROLL_BEGIN\000"
 12932      56454E54 
 12932      5F534352 
 12932      4F4C4C5F 
 12932      42454749 
 12933              	.LASF303:
 12934 19a0 616C6967 		.ascii	"align\000"
 12934      6E00
 12935              	.LASF49:
 12936 19a6 4C565F4F 		.ascii	"LV_OPA_TRANSP\000"
 12936      50415F54 
 12936      52414E53 
 12936      5000
 12937              	.LASF165:
 12938 19b4 4C565F53 		.ascii	"LV_STYLE_ARC_ROUNDED\000"
 12938      54594C45 
 12938      5F415243 
 12938      5F524F55 
 12938      4E444544 
 12939              	.LASF540:
 12940 19c9 4C565F4F 		.ascii	"LV_OBJ_FLAG_CLICKABLE\000"
 12940      424A5F46 
 12940      4C41475F 
 12940      434C4943 
 12940      4B41424C 
 12941              	.LASF405:
 12942 19df 6D6F6E69 		.ascii	"monitor_cb\000"
 12942      746F725F 
 12942      636200
 12943              	.LASF219:
 12944 19ea 4C565F49 		.ascii	"LV_IMG_CF_ALPHA_2BIT\000"
 12944      4D475F43 
 12944      465F414C 
 12944      5048415F 
ARM GAS  C:\Users\haske\AppData\Local\Temp\ccN8jSR9.s 			page 280


 12944      32424954 
 12945              	.LASF264:
 12946 19ff 736B6970 		.ascii	"skip_trans\000"
 12946      5F747261 
 12946      6E7300
 12947              	.LASF531:
 12948 1a0a 4C565F50 		.ascii	"LV_PART_INDICATOR\000"
 12948      4152545F 
 12948      494E4449 
 12948      4341544F 
 12948      5200
 12949              	.LASF661:
 12950 1a1c 6578745F 		.ascii	"ext_draw_size\000"
 12950      64726177 
 12950      5F73697A 
 12950      6500
 12951              	.LASF347:
 12952 1a2a 64726177 		.ascii	"draw_letter\000"
 12952      5F6C6574 
 12952      74657200 
 12953              	.LASF530:
 12954 1a36 4C565F50 		.ascii	"LV_PART_SCROLLBAR\000"
 12954      4152545F 
 12954      5343524F 
 12954      4C4C4241 
 12954      5200
 12955              	.LASF220:
 12956 1a48 4C565F49 		.ascii	"LV_IMG_CF_ALPHA_4BIT\000"
 12956      4D475F43 
 12956      465F414C 
 12956      5048415F 
 12956      34424954 
 12957              	.LASF169:
 12958 1a5d 4C565F53 		.ascii	"LV_STYLE_TEXT_COLOR\000"
 12958      54594C45 
 12958      5F544558 
 12958      545F434F 
 12958      4C4F5200 
 12959              	.LASF637:
 12960 1a71 4C565F45 		.ascii	"LV_EVENT_DELETE\000"
 12960      56454E54 
 12960      5F44454C 
 12960      45544500 
 12961              	.LASF255:
 12962 1a81 636C6173 		.ascii	"class_p\000"
 12962      735F7000 
 12963              	.LASF627:
 12964 1a89 4C565F45 		.ascii	"LV_EVENT_DRAW_POST_BEGIN\000"
 12964      56454E54 
 12964      5F445241 
 12964      575F504F 
 12964      53545F42 
 12965              	.LASF14:
 12966 1aa2 756E7369 		.ascii	"unsigned int\000"
 12966      676E6564 
 12966      20696E74 
 12966      00
ARM GAS  C:\Users\haske\AppData\Local\Temp\ccN8jSR9.s 			page 281


 12967              	.LASF711:
 12968 1aaf 6E65775F 		.ascii	"new_drv\000"
 12968      64727600 
 12969              	.LASF471:
 12970 1ab7 696E6465 		.ascii	"indev_point\000"
 12970      765F706F 
 12970      696E7400 
 12971              	.LASF438:
 12972 1ac3 64697370 		.ascii	"disp\000"
 12972      00
 12973              	.LASF212:
 12974 1ac8 4C565F49 		.ascii	"LV_IMG_CF_TRUE_COLOR_ALPHA\000"
 12974      4D475F43 
 12974      465F5452 
 12974      55455F43 
 12974      4F4C4F52 
 12975              	.LASF331:
 12976 1ae3 636C6970 		.ascii	"clip_area\000"
 12976      5F617265 
 12976      6100
 12977              	.LASF106:
 12978 1aed 6C765F73 		.ascii	"lv_style_value_t\000"
 12978      74796C65 
 12978      5F76616C 
 12978      75655F74 
 12978      00
 12979              	.LASF475:
 12980 1afe 7363726F 		.ascii	"scroll_sum\000"
 12980      6C6C5F73 
 12980      756D00
 12981              	.LASF221:
 12982 1b09 4C565F49 		.ascii	"LV_IMG_CF_ALPHA_8BIT\000"
 12982      4D475F43 
 12982      465F414C 
 12982      5048415F 
 12982      38424954 
 12983              	.LASF456:
 12984 1b1e 656E635F 		.ascii	"enc_diff\000"
 12984      64696666 
 12984      00
 12985              	.LASF744:
 12986 1b27 6C765F6F 		.ascii	"lv_obj_clear_flag\000"
 12986      626A5F63 
 12986      6C656172 
 12986      5F666C61 
 12986      6700
 12987              	.LASF297:
 12988 1b39 73656C5F 		.ascii	"sel_end\000"
 12988      656E6400 
 12989              	.LASF195:
 12990 1b41 5F4C565F 		.ascii	"_LV_STYLE_PROP_CONST\000"
 12990      5354594C 
 12990      455F5052 
 12990      4F505F43 
 12990      4F4E5354 
 12991              	.LASF335:
 12992 1b56 61726561 		.ascii	"area_full\000"
ARM GAS  C:\Users\haske\AppData\Local\Temp\ccN8jSR9.s 			page 282


 12992      5F66756C 
 12992      6C00
 12993              	.LASF215:
 12994 1b60 4C565F49 		.ascii	"LV_IMG_CF_INDEXED_2BIT\000"
 12994      4D475F43 
 12994      465F494E 
 12994      44455845 
 12994      445F3242 
 12995              	.LASF304:
 12996 1b77 666C6167 		.ascii	"flag\000"
 12996      00
 12997              	.LASF416:
 12998 1b7c 5F6C765F 		.ascii	"_lv_disp_t\000"
 12998      64697370 
 12998      5F7400
 12999              	.LASF632:
 13000 1b87 4C565F45 		.ascii	"LV_EVENT_VALUE_CHANGED\000"
 13000      56454E54 
 13000      5F56414C 
 13000      55455F43 
 13000      48414E47 
 13001              	.LASF386:
 13002 1b9e 4C565F44 		.ascii	"LV_DISP_ROT_270\000"
 13002      4953505F 
 13002      524F545F 
 13002      32373000 
 13003              	.LASF334:
 13004 1bae 5F6C765F 		.ascii	"_lv_draw_layer_ctx_t\000"
 13004      64726177 
 13004      5F6C6179 
 13004      65725F63 
 13004      74785F74 
 13005              	.LASF287:
 13006 1bc3 6F75746C 		.ascii	"outline_opa\000"
 13006      696E655F 
 13006      6F706100 
 13007              	.LASF431:
 13008 1bcf 696E765F 		.ascii	"inv_areas\000"
 13008      61726561 
 13008      7300
 13009              	.LASF216:
 13010 1bd9 4C565F49 		.ascii	"LV_IMG_CF_INDEXED_4BIT\000"
 13010      4D475F43 
 13010      465F494E 
 13010      44455845 
 13010      445F3442 
 13011              	.LASF337:
 13012 1bf0 6D61785F 		.ascii	"max_row_with_alpha\000"
 13012      726F775F 
 13012      77697468 
 13012      5F616C70 
 13012      686100
 13013              	.LASF498:
 13014 1c03 6C6F6E67 		.ascii	"longpr_rep_timestamp\000"
 13014      70725F72 
 13014      65705F74 
 13014      696D6573 
ARM GAS  C:\Users\haske\AppData\Local\Temp\ccN8jSR9.s 			page 283


 13014      74616D70 
 13015              	.LASF550:
 13016 1c18 4C565F4F 		.ascii	"LV_OBJ_FLAG_SCROLL_ON_FOCUS\000"
 13016      424A5F46 
 13016      4C41475F 
 13016      5343524F 
 13016      4C4C5F4F 
 13017              	.LASF312:
 13018 1c34 6672616D 		.ascii	"frame_id\000"
 13018      655F6964 
 13018      00
 13019              	.LASF719:
 13020 1c3d 6C765F64 		.ascii	"lv_disp_flush_ready\000"
 13020      6973705F 
 13020      666C7573 
 13020      685F7265 
 13020      61647900 
 13021              	.LASF573:
 13022 1c51 4C565F53 		.ascii	"LV_SCROLLBAR_MODE_OFF\000"
 13022      43524F4C 
 13022      4C424152 
 13022      5F4D4F44 
 13022      455F4F46 
 13023              	.LASF224:
 13024 1c67 4C565F49 		.ascii	"LV_IMG_CF_RGBX8888\000"
 13024      4D475F43 
 13024      465F5247 
 13024      42583838 
 13024      383800
 13025              	.LASF311:
 13026 1c7a 7265636F 		.ascii	"recolor_opa\000"
 13026      6C6F725F 
 13026      6F706100 
 13027              	.LASF429:
 13028 1c86 72656E64 		.ascii	"rendering_in_progress\000"
 13028      6572696E 
 13028      675F696E 
 13028      5F70726F 
 13028      67726573 
 13029              	.LASF117:
 13030 1c9c 4C565F53 		.ascii	"LV_STYLE_LAYOUT\000"
 13030      54594C45 
 13030      5F4C4159 
 13030      4F555400 
 13031              	.LASF43:
 13032 1cac 6C765F66 		.ascii	"lv_font_glyph_dsc_t\000"
 13032      6F6E745F 
 13032      676C7970 
 13032      685F6473 
 13032      635F7400 
 13033              	.LASF642:
 13034 1cc0 4C565F45 		.ascii	"LV_EVENT_SCREEN_LOAD_START\000"
 13034      56454E54 
 13034      5F534352 
 13034      45454E5F 
 13034      4C4F4144 
 13035              	.LASF602:
ARM GAS  C:\Users\haske\AppData\Local\Temp\ccN8jSR9.s 			page 284


 13036 1cdb 73746F70 		.ascii	"stop_bubbling\000"
 13036      5F627562 
 13036      626C696E 
 13036      6700
 13037              	.LASF285:
 13038 1ce9 6F75746C 		.ascii	"outline_width\000"
 13038      696E655F 
 13038      77696474 
 13038      6800
 13039              	.LASF149:
 13040 1cf7 4C565F53 		.ascii	"LV_STYLE_SHADOW_WIDTH\000"
 13040      54594C45 
 13040      5F534841 
 13040      444F575F 
 13040      57494454 
 13041              	.LASF217:
 13042 1d0d 4C565F49 		.ascii	"LV_IMG_CF_INDEXED_8BIT\000"
 13042      4D475F43 
 13042      465F494E 
 13042      44455845 
 13042      445F3842 
 13043              	.LASF210:
 13044 1d24 4C565F49 		.ascii	"LV_IMG_CF_RAW_CHROMA_KEYED\000"
 13044      4D475F43 
 13044      465F5241 
 13044      575F4348 
 13044      524F4D41 
 13045              	.LASF557:
 13046 1d3f 4C565F4F 		.ascii	"LV_OBJ_FLAG_IGNORE_LAYOUT\000"
 13046      424A5F46 
 13046      4C41475F 
 13046      49474E4F 
 13046      52455F4C 
 13047              	.LASF126:
 13048 1d59 4C565F53 		.ascii	"LV_STYLE_CLIP_CORNER\000"
 13048      54594C45 
 13048      5F434C49 
 13048      505F434F 
 13048      524E4552 
 13049              	.LASF213:
 13050 1d6e 4C565F49 		.ascii	"LV_IMG_CF_TRUE_COLOR_CHROMA_KEYED\000"
 13050      4D475F43 
 13050      465F5452 
 13050      55455F43 
 13050      4F4C4F52 
 13051              	.LASF313:
 13052 1d90 616E7469 		.ascii	"antialias\000"
 13052      616C6961 
 13052      7300
 13053              	.LASF585:
 13054 1d9a 62617365 		.ascii	"base_class\000"
 13054      5F636C61 
 13054      737300
 13055              	.LASF718:
 13056 1da5 6C765F64 		.ascii	"lv_disp_get_dpi\000"
 13056      6973705F 
 13056      6765745F 
ARM GAS  C:\Users\haske\AppData\Local\Temp\ccN8jSR9.s 			page 285


 13056      64706900 
 13057              	.LASF60:
 13058 1db5 4C565F4F 		.ascii	"LV_OPA_100\000"
 13058      50415F31 
 13058      303000
 13059              	.LASF725:
 13060 1dc0 6C765F64 		.ascii	"lv_disp_get_rotation\000"
 13060      6973705F 
 13060      6765745F 
 13060      726F7461 
 13060      74696F6E 
 13061              	.LASF722:
 13062 1dd5 6C765F64 		.ascii	"lv_disp_get_draw_buf\000"
 13062      6973705F 
 13062      6765745F 
 13062      64726177 
 13062      5F627566 
 13063              	.LASF748:
 13064 1dea 6C765F69 		.ascii	"lv_indev_get_next\000"
 13064      6E646576 
 13064      5F676574 
 13064      5F6E6578 
 13064      7400
 13065              	.LASF610:
 13066 1dfc 4C565F45 		.ascii	"LV_EVENT_LONG_PRESSED_REPEAT\000"
 13066      56454E54 
 13066      5F4C4F4E 
 13066      475F5052 
 13066      45535345 
 13067              	.LASF764:
 13068 1e19 696E7661 		.ascii	"invalidate_layout_cb\000"
 13068      6C696461 
 13068      74655F6C 
 13068      61796F75 
 13068      745F6362 
 13069              	.LASF507:
 13070 1e2e 666F6375 		.ascii	"focus_cb\000"
 13070      735F6362 
 13070      00
 13071              	.LASF237:
 13072 1e37 4C565F49 		.ascii	"LV_IMG_CF_USER_ENCODED_0\000"
 13072      4D475F43 
 13072      465F5553 
 13072      45525F45 
 13072      4E434F44 
 13073              	.LASF238:
 13074 1e50 4C565F49 		.ascii	"LV_IMG_CF_USER_ENCODED_1\000"
 13074      4D475F43 
 13074      465F5553 
 13074      45525F45 
 13074      4E434F44 
 13075              	.LASF239:
 13076 1e69 4C565F49 		.ascii	"LV_IMG_CF_USER_ENCODED_2\000"
 13076      4D475F43 
 13076      465F5553 
 13076      45525F45 
 13076      4E434F44 
ARM GAS  C:\Users\haske\AppData\Local\Temp\ccN8jSR9.s 			page 286


 13077              	.LASF240:
 13078 1e82 4C565F49 		.ascii	"LV_IMG_CF_USER_ENCODED_3\000"
 13078      4D475F43 
 13078      465F5553 
 13078      45525F45 
 13078      4E434F44 
 13079              	.LASF241:
 13080 1e9b 4C565F49 		.ascii	"LV_IMG_CF_USER_ENCODED_4\000"
 13080      4D475F43 
 13080      465F5553 
 13080      45525F45 
 13080      4E434F44 
 13081              	.LASF242:
 13082 1eb4 4C565F49 		.ascii	"LV_IMG_CF_USER_ENCODED_5\000"
 13082      4D475F43 
 13082      465F5553 
 13082      45525F45 
 13082      4E434F44 
 13083              	.LASF243:
 13084 1ecd 4C565F49 		.ascii	"LV_IMG_CF_USER_ENCODED_6\000"
 13084      4D475F43 
 13084      465F5553 
 13084      45525F45 
 13084      4E434F44 
 13085              	.LASF244:
 13086 1ee6 4C565F49 		.ascii	"LV_IMG_CF_USER_ENCODED_7\000"
 13086      4D475F43 
 13086      465F5553 
 13086      45525F45 
 13086      4E434F44 
 13087              	.LASF46:
 13088 1eff 6C765F72 		.ascii	"lv_res_t\000"
 13088      65735F74 
 13088      00
 13089              	.LASF443:
 13090 1f08 666F6E74 		.ascii	"font_large\000"
 13090      5F6C6172 
 13090      676500
 13091              	.LASF692:
 13092 1f13 62726967 		.ascii	"bright\000"
 13092      687400
 13093              	.LASF178:
 13094 1f1a 4C565F53 		.ascii	"LV_STYLE_COLOR_FILTER_OPA\000"
 13094      54594C45 
 13094      5F434F4C 
 13094      4F525F46 
 13094      494C5445 
 13095              	.LASF376:
 13096 1f34 6275665F 		.ascii	"buf_act\000"
 13096      61637400 
 13097              	.LASF22:
 13098 1f3c 6C6F6E67 		.ascii	"long double\000"
 13098      20646F75 
 13098      626C6500 
 13099              	.LASF579:
 13100 1f48 7374796C 		.ascii	"style\000"
 13100      6500
ARM GAS  C:\Users\haske\AppData\Local\Temp\ccN8jSR9.s 			page 287


 13101              	.LASF98:
 13102 1f4e 6C765F64 		.ascii	"lv_dither_mode_t\000"
 13102      69746865 
 13102      725F6D6F 
 13102      64655F74 
 13102      00
 13103              	.LASF578:
 13104 1f5f 6C765F73 		.ascii	"lv_scroll_snap_t\000"
 13104      63726F6C 
 13104      6C5F736E 
 13104      61705F74 
 13104      00
 13105              	.LASF487:
 13106 1f70 6C617374 		.ascii	"last_state\000"
 13106      5F737461 
 13106      746500
 13107              	.LASF446:
 13108 1f7b 4C565F49 		.ascii	"LV_INDEV_TYPE_POINTER\000"
 13108      4E444556 
 13108      5F545950 
 13108      455F504F 
 13108      494E5445 
 13109              	.LASF609:
 13110 1f91 4C565F45 		.ascii	"LV_EVENT_LONG_PRESSED\000"
 13110      56454E54 
 13110      5F4C4F4E 
 13110      475F5052 
 13110      45535345 
 13111              	.LASF497:
 13112 1fa7 70725F74 		.ascii	"pr_timestamp\000"
 13112      696D6573 
 13112      74616D70 
 13112      00
 13113              	.LASF463:
 13114 1fb4 72656164 		.ascii	"read_timer\000"
 13114      5F74696D 
 13114      657200
 13115              	.LASF597:
 13116 1fbf 636F6465 		.ascii	"code\000"
 13116      00
 13117              	.LASF740:
 13118 1fc4 6C765F70 		.ascii	"lv_palette_main\000"
 13118      616C6574 
 13118      74655F6D 
 13118      61696E00 
 13119              	.LASF38:
 13120 1fd4 73756270 		.ascii	"subpx\000"
 13120      7800
 13121              	.LASF61:
 13122 1fda 4C565F4F 		.ascii	"LV_OPA_COVER\000"
 13122      50415F43 
 13122      4F564552 
 13122      00
 13123              	.LASF352:
 13124 1fe7 77616974 		.ascii	"wait_for_finish\000"
 13124      5F666F72 
 13124      5F66696E 
ARM GAS  C:\Users\haske\AppData\Local\Temp\ccN8jSR9.s 			page 288


 13124      69736800 
 13125              	.LASF714:
 13126 1ff7 6C765F64 		.ascii	"lv_disp_get_physical_ver_res\000"
 13126      6973705F 
 13126      6765745F 
 13126      70687973 
 13126      6963616C 
 13127              	.LASF716:
 13128 2014 6C765F64 		.ascii	"lv_disp_get_offset_y\000"
 13128      6973705F 
 13128      6765745F 
 13128      6F666673 
 13128      65745F79 
 13129              	.LASF529:
 13130 2029 4C565F50 		.ascii	"LV_PART_MAIN\000"
 13130      4152545F 
 13130      4D41494E 
 13130      00
 13131              	.LASF277:
 13132 2036 62675F69 		.ascii	"bg_img_recolor_opa\000"
 13132      6D675F72 
 13132      65636F6C 
 13132      6F725F6F 
 13132      706100
 13133              	.LASF329:
 13134 2049 4C565F44 		.ascii	"LV_DRAW_LAYER_FLAG_CAN_SUBDIVIDE\000"
 13134      5241575F 
 13134      4C415945 
 13134      525F464C 
 13134      41475F43 
 13135              	.LASF462:
 13136 206a 66656564 		.ascii	"feedback_cb\000"
 13136      6261636B 
 13136      5F636200 
 13137              	.LASF369:
 13138 2076 74696D65 		.ascii	"timer_cb\000"
 13138      725F6362 
 13138      00
 13139              	.LASF465:
 13140 207f 7363726F 		.ascii	"scroll_throw\000"
 13140      6C6C5F74 
 13140      68726F77 
 13140      00
 13141              	.LASF605:
 13142 208c 4C565F45 		.ascii	"LV_EVENT_PRESSED\000"
 13142      56454E54 
 13142      5F505245 
 13142      53534544 
 13142      00
 13143              	.LASF230:
 13144 209d 4C565F49 		.ascii	"LV_IMG_CF_RESERVED_17\000"
 13144      4D475F43 
 13144      465F5245 
 13144      53455256 
 13144      45445F31 
 13145              	.LASF636:
 13146 20b3 4C565F45 		.ascii	"LV_EVENT_CANCEL\000"
ARM GAS  C:\Users\haske\AppData\Local\Temp\ccN8jSR9.s 			page 289


 13146      56454E54 
 13146      5F43414E 
 13146      43454C00 
 13147              	.LASF75:
 13148 20c3 4C565F50 		.ascii	"LV_PALETTE_BLUE\000"
 13148      414C4554 
 13148      54455F42 
 13148      4C554500 
 13149              	.LASF534:
 13150 20d3 4C565F50 		.ascii	"LV_PART_ITEMS\000"
 13150      4152545F 
 13150      4954454D 
 13150      5300
 13151              	.LASF140:
 13152 20e1 4C565F53 		.ascii	"LV_STYLE_BORDER_COLOR\000"
 13152      54594C45 
 13152      5F424F52 
 13152      4445525F 
 13152      434F4C4F 
 13153              	.LASF409:
 13154 20f7 72656E64 		.ascii	"render_start_cb\000"
 13154      65725F73 
 13154      74617274 
 13154      5F636200 
 13155              	.LASF408:
 13156 2107 6472765F 		.ascii	"drv_update_cb\000"
 13156      75706461 
 13156      74655F63 
 13156      6200
 13157              	.LASF571:
 13158 2115 4C565F4F 		.ascii	"LV_OBJ_TREE_WALK_END\000"
 13158      424A5F54 
 13158      5245455F 
 13158      57414C4B 
 13158      5F454E44 
 13159              	.LASF476:
 13160 212a 7363726F 		.ascii	"scroll_throw_vect\000"
 13160      6C6C5F74 
 13160      68726F77 
 13160      5F766563 
 13160      7400
 13161              	.LASF0:
 13162 213c 5F5F696E 		.ascii	"__int8_t\000"
 13162      74385F74 
 13162      00
 13163              	.LASF491:
 13164 2145 5F6C765F 		.ascii	"_lv_indev_proc_t\000"
 13164      696E6465 
 13164      765F7072 
 13164      6F635F74 
 13164      00
 13165              	.LASF510:
 13166 2156 65646974 		.ascii	"editing\000"
 13166      696E6700 
 13167              	.LASF391:
 13168 215e 70687973 		.ascii	"physical_hor_res\000"
 13168      6963616C 
ARM GAS  C:\Users\haske\AppData\Local\Temp\ccN8jSR9.s 			page 290


 13168      5F686F72 
 13168      5F726573 
 13168      00
 13169              	.LASF705:
 13170 216f 7761735F 		.ascii	"was_default\000"
 13170      64656661 
 13170      756C7400 
 13171              	.LASF474:
 13172 217b 76656374 		.ascii	"vect\000"
 13172      00
 13173              	.LASF377:
 13174 2180 73697A65 		.ascii	"size\000"
 13174      00
 13175              	.LASF338:
 13176 2185 6D61785F 		.ascii	"max_row_with_no_alpha\000"
 13176      726F775F 
 13176      77697468 
 13176      5F6E6F5F 
 13176      616C7068 
 13177              	.LASF468:
 13178 219b 6C6F6E67 		.ascii	"long_press_time\000"
 13178      5F707265 
 13178      73735F74 
 13178      696D6500 
 13179              	.LASF13:
 13180 21ab 6C6F6E67 		.ascii	"long long unsigned int\000"
 13180      206C6F6E 
 13180      6720756E 
 13180      7369676E 
 13180      65642069 
 13181              	.LASF425:
 13182 21c2 7379735F 		.ascii	"sys_layer\000"
 13182      6C617965 
 13182      7200
 13183              	.LASF132:
 13184 21cc 4C565F53 		.ascii	"LV_STYLE_BG_GRAD_STOP\000"
 13184      54594C45 
 13184      5F42475F 
 13184      47524144 
 13184      5F53544F 
 13185              	.LASF143:
 13186 21e2 4C565F53 		.ascii	"LV_STYLE_BORDER_SIDE\000"
 13186      54594C45 
 13186      5F424F52 
 13186      4445525F 
 13186      53494445 
 13187              	.LASF652:
 13188 21f7 6C765F67 		.ascii	"lv_group_focus_cb_t\000"
 13188      726F7570 
 13188      5F666F63 
 13188      75735F63 
 13188      625F7400 
 13189              	.LASF690:
 13190 220b 6275665F 		.ascii	"buf_px\000"
 13190      707800
 13191              	.LASF584:
 13192 2212 5F6C765F 		.ascii	"_lv_obj_class_t\000"
ARM GAS  C:\Users\haske\AppData\Local\Temp\ccN8jSR9.s 			page 291


 13192      6F626A5F 
 13192      636C6173 
 13192      735F7400 
 13193              	.LASF294:
 13194 2222 6C765F64 		.ascii	"lv_draw_rect_dsc_t\000"
 13194      7261775F 
 13194      72656374 
 13194      5F647363 
 13194      5F7400
 13195              	.LASF541:
 13196 2235 4C565F4F 		.ascii	"LV_OBJ_FLAG_CLICK_FOCUSABLE\000"
 13196      424A5F46 
 13196      4C41475F 
 13196      434C4943 
 13196      4B5F464F 
 13197              	.LASF18:
 13198 2251 75696E74 		.ascii	"uint16_t\000"
 13198      31365F74 
 13198      00
 13199              	.LASF742:
 13200 225a 6C765F74 		.ascii	"lv_theme_default_get\000"
 13200      68656D65 
 13200      5F646566 
 13200      61756C74 
 13200      5F676574 
 13201              	.LASF724:
 13202 226f 726F7461 		.ascii	"rotation\000"
 13202      74696F6E 
 13202      00
 13203              	.LASF368:
 13204 2278 6C617374 		.ascii	"last_run\000"
 13204      5F72756E 
 13204      00
 13205              	.LASF78:
 13206 2281 4C565F50 		.ascii	"LV_PALETTE_TEAL\000"
 13206      414C4554 
 13206      54455F54 
 13206      45414C00 
 13207              	.LASF512:
 13208 2291 77726170 		.ascii	"wrap\000"
 13208      00
 13209              	.LASF68:
 13210 2296 6C765F63 		.ascii	"lv_color_t\000"
 13210      6F6C6F72 
 13210      5F7400
 13211              	.LASF79:
 13212 22a1 4C565F50 		.ascii	"LV_PALETTE_GREEN\000"
 13212      414C4554 
 13212      54455F47 
 13212      5245454E 
 13212      00
 13213              	.LASF493:
 13214 22b2 72657365 		.ascii	"reset_query\000"
 13214      745F7175 
 13214      65727900 
 13215              	.LASF741:
 13216 22be 6C765F74 		.ascii	"lv_theme_default_init\000"
ARM GAS  C:\Users\haske\AppData\Local\Temp\ccN8jSR9.s 			page 292


 13216      68656D65 
 13216      5F646566 
 13216      61756C74 
 13216      5F696E69 
 13217              	.LASF207:
 13218 22d4 4C565F49 		.ascii	"LV_IMG_CF_UNKNOWN\000"
 13218      4D475F43 
 13218      465F554E 
 13218      4B4E4F57 
 13218      4E00
 13219              	.LASF464:
 13220 22e6 7363726F 		.ascii	"scroll_limit\000"
 13220      6C6C5F6C 
 13220      696D6974 
 13220      00
 13221              	.LASF108:
 13222 22f3 4C565F53 		.ascii	"LV_STYLE_WIDTH\000"
 13222      54594C45 
 13222      5F574944 
 13222      544800
 13223              	.LASF280:
 13224 2302 626F7264 		.ascii	"border_width\000"
 13224      65725F77 
 13224      69647468 
 13224      00
 13225              	.LASF109:
 13226 230f 4C565F53 		.ascii	"LV_STYLE_MIN_WIDTH\000"
 13226      54594C45 
 13226      5F4D494E 
 13226      5F574944 
 13226      544800
 13227              	.LASF91:
 13228 2322 6C765F74 		.ascii	"lv_text_flag_t\000"
 13228      6578745F 
 13228      666C6167 
 13228      5F7400
 13229              	.LASF477:
 13230 2331 7363726F 		.ascii	"scroll_throw_vect_ori\000"
 13230      6C6C5F74 
 13230      68726F77 
 13230      5F766563 
 13230      745F6F72 
 13231              	.LASF150:
 13232 2347 4C565F53 		.ascii	"LV_STYLE_SHADOW_OFS_X\000"
 13232      54594C45 
 13232      5F534841 
 13232      444F575F 
 13232      4F46535F 
 13233              	.LASF151:
 13234 235d 4C565F53 		.ascii	"LV_STYLE_SHADOW_OFS_Y\000"
 13234      54594C45 
 13234      5F534841 
 13234      444F575F 
 13234      4F46535F 
 13235              	.LASF252:
 13236 2373 6C765F69 		.ascii	"lv_img_dsc_t\000"
 13236      6D675F64 
ARM GAS  C:\Users\haske\AppData\Local\Temp\ccN8jSR9.s 			page 293


 13236      73635F74 
 13236      00
 13237              	.LASF547:
 13238 2380 4C565F4F 		.ascii	"LV_OBJ_FLAG_SCROLL_CHAIN_HOR\000"
 13238      424A5F46 
 13238      4C41475F 
 13238      5343524F 
 13238      4C4C5F43 
 13239              	.LASF447:
 13240 239d 4C565F49 		.ascii	"LV_INDEV_TYPE_KEYPAD\000"
 13240      4E444556 
 13240      5F545950 
 13240      455F4B45 
 13240      59504144 
 13241              	.LASF51:
 13242 23b2 4C565F4F 		.ascii	"LV_OPA_10\000"
 13242      50415F31 
 13242      3000
 13243              	.LASF135:
 13244 23bc 4C565F53 		.ascii	"LV_STYLE_BG_IMG_SRC\000"
 13244      54594C45 
 13244      5F42475F 
 13244      494D475F 
 13244      53524300 
 13245              	.LASF743:
 13246 23d0 6C765F6F 		.ascii	"lv_obj_create\000"
 13246      626A5F63 
 13246      72656174 
 13246      6500
 13247              	.LASF211:
 13248 23de 4C565F49 		.ascii	"LV_IMG_CF_TRUE_COLOR\000"
 13248      4D475F43 
 13248      465F5452 
 13248      55455F43 
 13248      4F4C4F52 
 13249              	.LASF168:
 13250 23f3 4C565F53 		.ascii	"LV_STYLE_ARC_IMG_SRC\000"
 13250      54594C45 
 13250      5F415243 
 13250      5F494D47 
 13250      5F535243 
 13251              	.LASF200:
 13252 2408 76616C75 		.ascii	"value1\000"
 13252      653100
 13253              	.LASF747:
 13254 240f 6C765F74 		.ascii	"lv_timer_ready\000"
 13254      696D6572 
 13254      5F726561 
 13254      647900
 13255              	.LASF395:
 13256 241e 64726177 		.ascii	"draw_buf\000"
 13256      5F627566 
 13256      00
 13257              	.LASF367:
 13258 2427 70657269 		.ascii	"period\000"
 13258      6F6400
 13259              	.LASF673:
ARM GAS  C:\Users\haske\AppData\Local\Temp\ccN8jSR9.s 			page 294


 13260 242e 6C765F63 		.ascii	"lv_color_make\000"
 13260      6F6C6F72 
 13260      5F6D616B 
 13260      6500
 13261              	.LASF402:
 13262 243c 726F756E 		.ascii	"rounder_cb\000"
 13262      6465725F 
 13262      636200
 13263              	.LASF227:
 13264 2447 4C565F49 		.ascii	"LV_IMG_CF_RGB565A8\000"
 13264      4D475F43 
 13264      465F5247 
 13264      42353635 
 13264      413800
 13265              	.LASF305:
 13266 245a 6465636F 		.ascii	"decor\000"
 13266      7200
 13267              	.LASF731:
 13268 2460 6C765F69 		.ascii	"lv_img_buf_get_px_alpha\000"
 13268      6D675F62 
 13268      75665F67 
 13268      65745F70 
 13268      785F616C 
 13269              	.LASF758:
 13270 2478 5F6C765F 		.ascii	"_lv_ll_get_next\000"
 13270      6C6C5F67 
 13270      65745F6E 
 13270      65787400 
 13271              	.LASF4:
 13272 2488 5F5F696E 		.ascii	"__int16_t\000"
 13272      7431365F 
 13272      7400
 13273              	.LASF355:
 13274 2492 6C617965 		.ascii	"layer_adjust\000"
 13274      725F6164 
 13274      6A757374 
 13274      00
 13275              	.LASF171:
 13276 249f 4C565F53 		.ascii	"LV_STYLE_TEXT_FONT\000"
 13276      54594C45 
 13276      5F544558 
 13276      545F464F 
 13276      4E5400
 13277              	.LASF676:
 13278 24b2 6C765F63 		.ascii	"lv_color_mix_with_alpha\000"
 13278      6F6C6F72 
 13278      5F6D6978 
 13278      5F776974 
 13278      685F616C 
 13279              	.LASF735:
 13280 24ca 6C765F6F 		.ascii	"lv_obj_remove_style\000"
 13280      626A5F72 
 13280      656D6F76 
 13280      655F7374 
 13280      796C6500 
 13281              	.LASF82:
 13282 24de 4C565F50 		.ascii	"LV_PALETTE_YELLOW\000"
ARM GAS  C:\Users\haske\AppData\Local\Temp\ccN8jSR9.s 			page 295


 13282      414C4554 
 13282      54455F59 
 13282      454C4C4F 
 13282      5700
 13283              	.LASF644:
 13284 24f0 4C565F45 		.ascii	"LV_EVENT_SCREEN_UNLOADED\000"
 13284      56454E54 
 13284      5F534352 
 13284      45454E5F 
 13284      554E4C4F 
 13285              	.LASF757:
 13286 2509 6C765F6F 		.ascii	"lv_obj_tree_walk\000"
 13286      626A5F74 
 13286      7265655F 
 13286      77616C6B 
 13286      00
 13287              	.LASF194:
 13288 251a 4C565F53 		.ascii	"LV_STYLE_PROP_ANY\000"
 13288      54594C45 
 13288      5F50524F 
 13288      505F414E 
 13288      5900
 13289              	.LASF734:
 13290 252c 6C765F6D 		.ascii	"lv_mem_alloc\000"
 13290      656D5F61 
 13290      6C6C6F63 
 13290      00
 13291              	.LASF551:
 13292 2539 4C565F4F 		.ascii	"LV_OBJ_FLAG_SCROLL_WITH_ARROW\000"
 13292      424A5F46 
 13292      4C41475F 
 13292      5343524F 
 13292      4C4C5F57 
 13293              	.LASF64:
 13294 2557 66756C6C 		.ascii	"full\000"
 13294      00
 13295              	.LASF340:
 13296 255c 6C765F64 		.ascii	"lv_draw_layer_ctx_t\000"
 13296      7261775F 
 13296      6C617965 
 13296      725F6374 
 13296      785F7400 
 13297              	.LASF52:
 13298 2570 4C565F4F 		.ascii	"LV_OPA_20\000"
 13298      50415F32 
 13298      3000
 13299              	.LASF99:
 13300 257a 636F6C6F 		.ascii	"color\000"
 13300      7200
 13301              	.LASF309:
 13302 2580 7069766F 		.ascii	"pivot\000"
 13302      7400
 13303              	.LASF102:
 13304 2586 73746F70 		.ascii	"stops\000"
 13304      7300
 13305              	.LASF488:
 13306 258c 6C617374 		.ascii	"last_key\000"
ARM GAS  C:\Users\haske\AppData\Local\Temp\ccN8jSR9.s 			page 296


 13306      5F6B6579 
 13306      00
 13307              	.LASF300:
 13308 2595 6C696E65 		.ascii	"line_space\000"
 13308      5F737061 
 13308      636500
 13309              	.LASF499:
 13310 25a0 5F6C765F 		.ascii	"_lv_indev_t\000"
 13310      696E6465 
 13310      765F7400 
 13311              	.LASF485:
 13312 25ac 67657374 		.ascii	"gesture_dir\000"
 13312      7572655F 
 13312      64697200 
 13313              	.LASF356:
 13314 25b8 6C617965 		.ascii	"layer_blend\000"
 13314      725F626C 
 13314      656E6400 
 13315              	.LASF486:
 13316 25c4 67657374 		.ascii	"gesture_sent\000"
 13316      7572655F 
 13316      73656E74 
 13316      00
 13317              	.LASF713:
 13318 25d1 6C765F64 		.ascii	"lv_disp_get_physical_hor_res\000"
 13318      6973705F 
 13318      6765745F 
 13318      70687973 
 13318      6963616C 
 13319              	.LASF587:
 13320 25ee 64657374 		.ascii	"destructor_cb\000"
 13320      72756374 
 13320      6F725F63 
 13320      6200
 13321              	.LASF96:
 13322 25fc 6C765F62 		.ascii	"lv_border_side_t\000"
 13322      6F726465 
 13322      725F7369 
 13322      64655F74 
 13322      00
 13323              	.LASF100:
 13324 260d 66726163 		.ascii	"frac\000"
 13324      00
 13325              	.LASF254:
 13326 2612 5F6C765F 		.ascii	"_lv_obj_t\000"
 13326      6F626A5F 
 13326      7400
 13327              	.LASF295:
 13328 261c 666F6E74 		.ascii	"font\000"
 13328      00
 13329              	.LASF301:
 13330 2621 6C657474 		.ascii	"letter_space\000"
 13330      65725F73 
 13330      70616365 
 13330      00
 13331              	.LASF387:
 13332 262e 6C765F64 		.ascii	"lv_disp_rot_t\000"
ARM GAS  C:\Users\haske\AppData\Local\Temp\ccN8jSR9.s 			page 297


 13332      6973705F 
 13332      726F745F 
 13332      7400
 13333              	.LASF113:
 13334 263c 4C565F53 		.ascii	"LV_STYLE_MAX_HEIGHT\000"
 13334      54594C45 
 13334      5F4D4158 
 13334      5F484549 
 13334      47485400 
 13335              	.LASF53:
 13336 2650 4C565F4F 		.ascii	"LV_OPA_30\000"
 13336      50415F33 
 13336      3000
 13337              	.LASF733:
 13338 265a 6C765F6D 		.ascii	"lv_memset_00\000"
 13338      656D7365 
 13338      745F3030 
 13338      00
 13339              	.LASF436:
 13340 2667 5F6C765F 		.ascii	"_lv_theme_t\000"
 13340      7468656D 
 13340      655F7400 
 13341              	.LASF326:
 13342 2673 6C765F64 		.ascii	"lv_draw_arc_dsc_t\000"
 13342      7261775F 
 13342      6172635F 
 13342      6473635F 
 13342      7400
 13343              	.LASF129:
 13344 2685 4C565F53 		.ascii	"LV_STYLE_BG_GRAD_COLOR\000"
 13344      54594C45 
 13344      5F42475F 
 13344      47524144 
 13344      5F434F4C 
 13345              	.LASF422:
 13346 269c 70726576 		.ascii	"prev_scr\000"
 13346      5F736372 
 13346      00
 13347              	.LASF30:
 13348 26a5 626F785F 		.ascii	"box_h\000"
 13348      6800
 13349              	.LASF514:
 13350 26ab 4C565F53 		.ascii	"LV_STATE_DEFAULT\000"
 13350      54415445 
 13350      5F444546 
 13350      41554C54 
 13350      00
 13351              	.LASF275:
 13352 26bc 62675F69 		.ascii	"bg_img_recolor\000"
 13352      6D675F72 
 13352      65636F6C 
 13352      6F7200
 13353              	.LASF65:
 13354 26cb 6C765F63 		.ascii	"lv_color16_t\000"
 13354      6F6C6F72 
 13354      31365F74 
 13354      00
ARM GAS  C:\Users\haske\AppData\Local\Temp\ccN8jSR9.s 			page 298


 13355              	.LASF29:
 13356 26d8 626F785F 		.ascii	"box_w\000"
 13356      7700
 13357              	.LASF5:
 13358 26de 73686F72 		.ascii	"short int\000"
 13358      7420696E 
 13358      7400
 13359              	.LASF37:
 13360 26e8 62617365 		.ascii	"base_line\000"
 13360      5F6C696E 
 13360      6500
 13361              	.LASF433:
 13362 26f2 696E765F 		.ascii	"inv_p\000"
 13362      7000
 13363              	.LASF364:
 13364 26f8 6C765F6C 		.ascii	"lv_ll_t\000"
 13364      6C5F7400 
 13365              	.LASF728:
 13366 2700 6C765F66 		.ascii	"lv_font_montserrat_14\000"
 13366      6F6E745F 
 13366      6D6F6E74 
 13366      73657272 
 13366      61745F31 
 13367              	.LASF470:
 13368 2716 6163745F 		.ascii	"act_point\000"
 13368      706F696E 
 13368      7400
 13369              	.LASF553:
 13370 2720 4C565F4F 		.ascii	"LV_OBJ_FLAG_PRESS_LOCK\000"
 13370      424A5F46 
 13370      4C41475F 
 13370      50524553 
 13370      535F4C4F 
 13371              	.LASF629:
 13372 2737 4C565F45 		.ascii	"LV_EVENT_DRAW_POST_END\000"
 13372      56454E54 
 13372      5F445241 
 13372      575F504F 
 13372      53545F45 
 13373              	.LASF630:
 13374 274e 4C565F45 		.ascii	"LV_EVENT_DRAW_PART_BEGIN\000"
 13374      56454E54 
 13374      5F445241 
 13374      575F5041 
 13374      52545F42 
 13375              	.LASF490:
 13376 2767 6B657970 		.ascii	"keypad\000"
 13376      616400
 13377              	.LASF276:
 13378 276e 62675F69 		.ascii	"bg_img_opa\000"
 13378      6D675F6F 
 13378      706100
 13379              	.LASF293:
 13380 2779 73686164 		.ascii	"shadow_opa\000"
 13380      6F775F6F 
 13380      706100
 13381              	.LASF745:
ARM GAS  C:\Users\haske\AppData\Local\Temp\ccN8jSR9.s 			page 299


 13382 2784 6C765F6F 		.ascii	"lv_obj_set_scrollbar_mode\000"
 13382      626A5F73 
 13382      65745F73 
 13382      63726F6C 
 13382      6C626172 
 13383              	.LASF166:
 13384 279e 4C565F53 		.ascii	"LV_STYLE_ARC_COLOR\000"
 13384      54594C45 
 13384      5F415243 
 13384      5F434F4C 
 13384      4F5200
 13385              	.LASF54:
 13386 27b1 4C565F4F 		.ascii	"LV_OPA_40\000"
 13386      50415F34 
 13386      3000
 13387              	.LASF17:
 13388 27bb 696E7431 		.ascii	"int16_t\000"
 13388      365F7400 
 13389              	.LASF434:
 13390 27c3 696E765F 		.ascii	"inv_en_cnt\000"
 13390      656E5F63 
 13390      6E7400
 13391              	.LASF333:
 13392 27ce 73637265 		.ascii	"screen_transp\000"
 13392      656E5F74 
 13392      72616E73 
 13392      7000
 13393              	.LASF259:
 13394 27dc 636F6F72 		.ascii	"coords\000"
 13394      647300
 13395              	.LASF660:
 13396 27e3 6578745F 		.ascii	"ext_click_pad\000"
 13396      636C6963 
 13396      6B5F7061 
 13396      6400
 13397              	.LASF750:
 13398 27f1 5F6C765F 		.ascii	"_lv_ll_remove\000"
 13398      6C6C5F72 
 13398      656D6F76 
 13398      6500
 13399              	.LASF515:
 13400 27ff 4C565F53 		.ascii	"LV_STATE_CHECKED\000"
 13400      54415445 
 13400      5F434845 
 13400      434B4544 
 13400      00
 13401              	.LASF193:
 13402 2810 5F4C565F 		.ascii	"_LV_STYLE_NUM_BUILT_IN_PROPS\000"
 13402      5354594C 
 13402      455F4E55 
 13402      4D5F4255 
 13402      494C545F 
 13403              	.LASF119:
 13404 282d 4C565F53 		.ascii	"LV_STYLE_PAD_TOP\000"
 13404      54594C45 
 13404      5F504144 
 13404      5F544F50 
ARM GAS  C:\Users\haske\AppData\Local\Temp\ccN8jSR9.s 			page 300


 13404      00
 13405              	.LASF428:
 13406 283e 64656C5F 		.ascii	"del_prev\000"
 13406      70726576 
 13406      00
 13407              	.LASF649:
 13408 2847 5F4C565F 		.ascii	"_LV_EVENT_LAST\000"
 13408      4556454E 
 13408      545F4C41 
 13408      535400
 13409              	.LASF430:
 13410 2856 62675F69 		.ascii	"bg_img\000"
 13410      6D6700
 13411              	.LASF537:
 13412 285d 4C565F50 		.ascii	"LV_PART_CUSTOM_FIRST\000"
 13412      4152545F 
 13412      43555354 
 13412      4F4D5F46 
 13412      49525354 
 13413              	.LASF136:
 13414 2872 4C565F53 		.ascii	"LV_STYLE_BG_IMG_OPA\000"
 13414      54594C45 
 13414      5F42475F 
 13414      494D475F 
 13414      4F504100 
 13415              	.LASF158:
 13416 2886 4C565F53 		.ascii	"LV_STYLE_LINE_WIDTH\000"
 13416      54594C45 
 13416      5F4C494E 
 13416      455F5749 
 13416      44544800 
 13417              	.LASF81:
 13418 289a 4C565F50 		.ascii	"LV_PALETTE_LIME\000"
 13418      414C4554 
 13418      54455F4C 
 13418      494D4500 
 13419              	.LASF55:
 13420 28aa 4C565F4F 		.ascii	"LV_OPA_50\000"
 13420      50415F35 
 13420      3000
 13421              	.LASF761:
 13422 28b4 433A5C50 		.ascii	"C:\\Projects\\PainDrain\\firmware\\PainDrain\\PainD"
 13422      726F6A65 
 13422      6374735C 
 13422      5061696E 
 13422      44726169 
 13423 28e2 7261696E 		.ascii	"rain.cydsn\000"
 13423      2E637964 
 13423      736E00
 13424              	.LASF203:
 13425 28ed 70726F70 		.ascii	"prop1\000"
 13425      3100
 13426              	.LASF403:
 13427 28f3 7365745F 		.ascii	"set_px_cb\000"
 13427      70785F63 
 13427      6200
 13428              	.LASF469:
ARM GAS  C:\Users\haske\AppData\Local\Temp\ccN8jSR9.s 			page 301


 13429 28fd 6C6F6E67 		.ascii	"long_press_repeat_time\000"
 13429      5F707265 
 13429      73735F72 
 13429      65706561 
 13429      745F7469 
 13430              	.LASF614:
 13431 2914 4C565F45 		.ascii	"LV_EVENT_SCROLL_END\000"
 13431      56454E54 
 13431      5F534352 
 13431      4F4C4C5F 
 13431      454E4400 
 13432              	.LASF281:
 13433 2928 626F7264 		.ascii	"border_opa\000"
 13433      65725F6F 
 13433      706100
 13434              	.LASF112:
 13435 2933 4C565F53 		.ascii	"LV_STYLE_MIN_HEIGHT\000"
 13435      54594C45 
 13435      5F4D494E 
 13435      5F484549 
 13435      47485400 
 13436              	.LASF619:
 13437 2947 4C565F45 		.ascii	"LV_EVENT_DEFOCUSED\000"
 13437      56454E54 
 13437      5F444546 
 13437      4F435553 
 13437      454400
 13438              	.LASF415:
 13439 295a 6C765F64 		.ascii	"lv_disp_drv_t\000"
 13439      6973705F 
 13439      6472765F 
 13439      7400
 13440              	.LASF523:
 13441 2968 4C565F53 		.ascii	"LV_STATE_USER_1\000"
 13441      54415445 
 13441      5F555345 
 13441      525F3100 
 13442              	.LASF209:
 13443 2978 4C565F49 		.ascii	"LV_IMG_CF_RAW_ALPHA\000"
 13443      4D475F43 
 13443      465F5241 
 13443      575F414C 
 13443      50484100 
 13444              	.LASF525:
 13445 298c 4C565F53 		.ascii	"LV_STATE_USER_3\000"
 13445      54415445 
 13445      5F555345 
 13445      525F3300 
 13446              	.LASF526:
 13447 299c 4C565F53 		.ascii	"LV_STATE_USER_4\000"
 13447      54415445 
 13447      5F555345 
 13447      525F3400 
 13448              	.LASF272:
 13449 29ac 62675F67 		.ascii	"bg_grad\000"
 13449      72616400 
 13450              	.LASF458:
ARM GAS  C:\Users\haske\AppData\Local\Temp\ccN8jSR9.s 			page 302


 13451 29b4 6C765F69 		.ascii	"lv_indev_data_t\000"
 13451      6E646576 
 13451      5F646174 
 13451      615F7400 
 13452              	.LASF144:
 13453 29c4 4C565F53 		.ascii	"LV_STYLE_BORDER_POST\000"
 13453      54594C45 
 13453      5F424F52 
 13453      4445525F 
 13453      504F5354 
 13454              	.LASF411:
 13455 29d9 64726177 		.ascii	"draw_ctx\000"
 13455      5F637478 
 13455      00
 13456              	.LASF346:
 13457 29e2 64726177 		.ascii	"draw_img\000"
 13457      5F696D67 
 13457      00
 13458              	.LASF101:
 13459 29eb 6C765F67 		.ascii	"lv_gradient_stop_t\000"
 13459      72616469 
 13459      656E745F 
 13459      73746F70 
 13459      5F7400
 13460              	.LASF115:
 13461 29fe 4C565F53 		.ascii	"LV_STYLE_Y\000"
 13461      54594C45 
 13461      5F5900
 13462              	.LASF161:
 13463 2a09 4C565F53 		.ascii	"LV_STYLE_LINE_ROUNDED\000"
 13463      54594C45 
 13463      5F4C494E 
 13463      455F524F 
 13463      554E4445 
 13464              	.LASF88:
 13465 2a1f 4C565F50 		.ascii	"LV_PALETTE_GREY\000"
 13465      414C4554 
 13465      54455F47 
 13465      52455900 
 13466              	.LASF56:
 13467 2a2f 4C565F4F 		.ascii	"LV_OPA_60\000"
 13467      50415F36 
 13467      3000
 13468              	.LASF349:
 13469 2a39 64726177 		.ascii	"draw_polygon\000"
 13469      5F706F6C 
 13469      79676F6E 
 13469      00
 13470              	.LASF358:
 13471 2a46 6C617965 		.ascii	"layer_instance_size\000"
 13471      725F696E 
 13471      7374616E 
 13471      63655F73 
 13471      697A6500 
 13472              	.LASF635:
 13473 2a5a 4C565F45 		.ascii	"LV_EVENT_READY\000"
 13473      56454E54 
ARM GAS  C:\Users\haske\AppData\Local\Temp\ccN8jSR9.s 			page 303


 13473      5F524541 
 13473      445900
 13474              	.LASF296:
 13475 2a69 73656C5F 		.ascii	"sel_start\000"
 13475      73746172 
 13475      7400
 13476              	.LASF628:
 13477 2a73 4C565F45 		.ascii	"LV_EVENT_DRAW_POST\000"
 13477      56454E54 
 13477      5F445241 
 13477      575F504F 
 13477      535400
 13478              	.LASF20:
 13479 2a86 75696E74 		.ascii	"uint32_t\000"
 13479      33325F74 
 13479      00
 13480              	.LASF536:
 13481 2a8f 4C565F50 		.ascii	"LV_PART_CURSOR\000"
 13481      4152545F 
 13481      43555253 
 13481      4F5200
 13482              	.LASF437:
 13483 2a9e 6170706C 		.ascii	"apply_cb\000"
 13483      795F6362 
 13483      00
 13484              	.LASF568:
 13485 2aa7 6C765F6F 		.ascii	"lv_obj_flag_t\000"
 13485      626A5F66 
 13485      6C61675F 
 13485      7400
 13486              	.LASF645:
 13487 2ab5 4C565F45 		.ascii	"LV_EVENT_SIZE_CHANGED\000"
 13487      56454E54 
 13487      5F53495A 
 13487      455F4348 
 13487      414E4745 
 13488              	.LASF289:
 13489 2acb 73686164 		.ascii	"shadow_width\000"
 13489      6F775F77 
 13489      69647468 
 13489      00
 13490              	.LASF749:
 13491 2ad8 6C765F6F 		.ascii	"lv_obj_del\000"
 13491      626A5F64 
 13491      656C00
 13492              	.LASF71:
 13493 2ae3 4C565F50 		.ascii	"LV_PALETTE_PINK\000"
 13493      414C4554 
 13493      54455F50 
 13493      494E4B00 
 13494              	.LASF677:
 13495 2af3 66675F63 		.ascii	"fg_color\000"
 13495      6F6C6F72 
 13495      00
 13496              	.LASF494:
 13497 2afc 64697361 		.ascii	"disabled\000"
 13497      626C6564 
ARM GAS  C:\Users\haske\AppData\Local\Temp\ccN8jSR9.s 			page 304


 13497      00
 13498              	.LASF63:
 13499 2b05 67726565 		.ascii	"green\000"
 13499      6E00
 13500              	.LASF45:
 13501 2b0b 6C765F66 		.ascii	"lv_font_t\000"
 13501      6F6E745F 
 13501      7400
 13502              	.LASF247:
 13503 2b15 72657365 		.ascii	"reserved\000"
 13503      72766564 
 13503      00
 13504              	.LASF753:
 13505 2b1e 6C765F6F 		.ascii	"lv_obj_get_coords\000"
 13505      626A5F67 
 13505      65745F63 
 13505      6F6F7264 
 13505      7300
 13506              	.LASF647:
 13507 2b30 4C565F45 		.ascii	"LV_EVENT_LAYOUT_CHANGED\000"
 13507      56454E54 
 13507      5F4C4159 
 13507      4F55545F 
 13507      4348414E 
 13508              	.LASF566:
 13509 2b48 4C565F4F 		.ascii	"LV_OBJ_FLAG_USER_3\000"
 13509      424A5F46 
 13509      4C41475F 
 13509      55534552 
 13509      5F3300
 13510              	.LASF466:
 13511 2b5b 67657374 		.ascii	"gesture_min_velocity\000"
 13511      7572655F 
 13511      6D696E5F 
 13511      76656C6F 
 13511      63697479 
 13512              	.LASF104:
 13513 2b70 64697468 		.ascii	"dither\000"
 13513      657200
 13514              	.LASF57:
 13515 2b77 4C565F4F 		.ascii	"LV_OPA_70\000"
 13515      50415F37 
 13515      3000
 13516              	.LASF7:
 13517 2b81 73686F72 		.ascii	"short unsigned int\000"
 13517      7420756E 
 13517      7369676E 
 13517      65642069 
 13517      6E7400
 13518              	.LASF617:
 13519 2b94 4C565F45 		.ascii	"LV_EVENT_KEY\000"
 13519      56454E54 
 13519      5F4B4559 
 13519      00
 13520              	.LASF23:
 13521 2ba1 6C765F63 		.ascii	"lv_coord_t\000"
 13521      6F6F7264 
ARM GAS  C:\Users\haske\AppData\Local\Temp\ccN8jSR9.s 			page 305


 13521      5F7400
 13522              	.LASF445:
 13523 2bac 4C565F49 		.ascii	"LV_INDEV_TYPE_NONE\000"
 13523      4E444556 
 13523      5F545950 
 13523      455F4E4F 
 13523      4E4500
 13524              	.LASF755:
 13525 2bbf 6C765F61 		.ascii	"lv_area_set_height\000"
 13525      7265615F 
 13525      7365745F 
 13525      68656967 
 13525      687400
 13526              	.LASF401:
 13527 2bd2 666C7573 		.ascii	"flush_cb\000"
 13527      685F6362 
 13527      00
 13528              	.LASF146:
 13529 2bdb 4C565F53 		.ascii	"LV_STYLE_OUTLINE_COLOR\000"
 13529      54594C45 
 13529      5F4F5554 
 13529      4C494E45 
 13529      5F434F4C 
 13530              	.LASF42:
 13531 2bf2 75736572 		.ascii	"user_data\000"
 13531      5F646174 
 13531      6100
 13532              	.LASF607:
 13533 2bfc 4C565F45 		.ascii	"LV_EVENT_PRESS_LOST\000"
 13533      56454E54 
 13533      5F505245 
 13533      53535F4C 
 13533      4F535400 
 13534              	.LASF246:
 13535 2c10 616C7761 		.ascii	"always_zero\000"
 13535      79735F7A 
 13535      65726F00 
 13536              	.LASF762:
 13537 2c1c 5F6C765F 		.ascii	"_lv_event_dsc_t\000"
 13537      6576656E 
 13537      745F6473 
 13537      635F7400 
 13538              	.LASF152:
 13539 2c2c 4C565F53 		.ascii	"LV_STYLE_SHADOW_SPREAD\000"
 13539      54594C45 
 13539      5F534841 
 13539      444F575F 
 13539      53505245 
 13540              	.LASF535:
 13541 2c43 4C565F50 		.ascii	"LV_PART_TICKS\000"
 13541      4152545F 
 13541      5449434B 
 13541      5300
 13542              	.LASF678:
 13543 2c51 66675F6F 		.ascii	"fg_opa\000"
 13543      706100
 13544              	.LASF442:
ARM GAS  C:\Users\haske\AppData\Local\Temp\ccN8jSR9.s 			page 306


 13545 2c58 666F6E74 		.ascii	"font_normal\000"
 13545      5F6E6F72 
 13545      6D616C00 
 13546              	.LASF572:
 13547 2c64 6C765F6F 		.ascii	"lv_obj_tree_walk_res_t\000"
 13547      626A5F74 
 13547      7265655F 
 13547      77616C6B 
 13547      5F726573 
 13548              	.LASF34:
 13549 2c7b 6765745F 		.ascii	"get_glyph_dsc\000"
 13549      676C7970 
 13549      685F6473 
 13549      6300
 13550              	.LASF8:
 13551 2c89 5F5F696E 		.ascii	"__int32_t\000"
 13551      7433325F 
 13551      7400
 13552              	.LASF752:
 13553 2c93 5F6C765F 		.ascii	"_lv_ll_get_head\000"
 13553      6C6C5F67 
 13553      65745F68 
 13553      65616400 
 13554              	.LASF580:
 13555 2ca3 73656C65 		.ascii	"selector\000"
 13555      63746F72 
 13555      00
 13556              	.LASF634:
 13557 2cac 4C565F45 		.ascii	"LV_EVENT_REFRESH\000"
 13557      56454E54 
 13557      5F524546 
 13557      52455348 
 13557      00
 13558              	.LASF618:
 13559 2cbd 4C565F45 		.ascii	"LV_EVENT_FOCUSED\000"
 13559      56454E54 
 13559      5F464F43 
 13559      55534544 
 13559      00
 13560              	.LASF97:
 13561 2cce 6C765F67 		.ascii	"lv_grad_dir_t\000"
 13561      7261645F 
 13561      6469725F 
 13561      7400
 13562              	.LASF473:
 13563 2cdc 6C617374 		.ascii	"last_raw_point\000"
 13563      5F726177 
 13563      5F706F69 
 13563      6E7400
 13564              	.LASF511:
 13565 2ceb 7265666F 		.ascii	"refocus_policy\000"
 13565      6375735F 
 13565      706F6C69 
 13565      637900
 13566              	.LASF388:
 13567 2cfa 5F6C765F 		.ascii	"_lv_disp_drv_t\000"
 13567      64697370 
ARM GAS  C:\Users\haske\AppData\Local\Temp\ccN8jSR9.s 			page 307


 13567      5F647276 
 13567      5F7400
 13568              	.LASF492:
 13569 2d09 6C6F6E67 		.ascii	"long_pr_sent\000"
 13569      5F70725F 
 13569      73656E74 
 13569      00
 13570              	.LASF58:
 13571 2d16 4C565F4F 		.ascii	"LV_OPA_80\000"
 13571      50415F38 
 13571      3000
 13572              	.LASF751:
 13573 2d20 6C765F74 		.ascii	"lv_timer_del\000"
 13573      696D6572 
 13573      5F64656C 
 13573      00
 13574              	.LASF516:
 13575 2d2d 4C565F53 		.ascii	"LV_STATE_FOCUSED\000"
 13575      54415445 
 13575      5F464F43 
 13575      55534544 
 13575      00
 13576              	.LASF754:
 13577 2d3e 6C765F61 		.ascii	"lv_area_set_width\000"
 13577      7265615F 
 13577      7365745F 
 13577      77696474 
 13577      6800
 13578              	.LASF590:
 13579 2d50 68656967 		.ascii	"height_def\000"
 13579      68745F64 
 13579      656600
 13580              	.LASF641:
 13581 2d5b 4C565F45 		.ascii	"LV_EVENT_SCREEN_UNLOAD_START\000"
 13581      56454E54 
 13581      5F534352 
 13581      45454E5F 
 13581      554E4C4F 
 13582              	.LASF407:
 13583 2d78 636C6561 		.ascii	"clean_dcache_cb\000"
 13583      6E5F6463 
 13583      61636865 
 13583      5F636200 
 13584              	.LASF467:
 13585 2d88 67657374 		.ascii	"gesture_limit\000"
 13585      7572655F 
 13585      6C696D69 
 13585      7400
 13586              	.LASF298:
 13587 2d96 73656C5F 		.ascii	"sel_color\000"
 13587      636F6C6F 
 13587      7200
 13588              	.LASF746:
 13589 2da0 6C765F6F 		.ascii	"lv_obj_invalidate\000"
 13589      626A5F69 
 13589      6E76616C 
 13589      69646174 
ARM GAS  C:\Users\haske\AppData\Local\Temp\ccN8jSR9.s 			page 308


 13589      6500
 13590              	.LASF73:
 13591 2db2 4C565F50 		.ascii	"LV_PALETTE_DEEP_PURPLE\000"
 13591      414C4554 
 13591      54455F44 
 13591      4545505F 
 13591      50555250 
 13592              	.LASF74:
 13593 2dc9 4C565F50 		.ascii	"LV_PALETTE_INDIGO\000"
 13593      414C4554 
 13593      54455F49 
 13593      4E444947 
 13593      4F00
 13594              	.LASF546:
 13595 2ddb 4C565F4F 		.ascii	"LV_OBJ_FLAG_SCROLL_ONE\000"
 13595      424A5F46 
 13595      4C41475F 
 13595      5343524F 
 13595      4C4C5F4F 
 13596              	.LASF222:
 13597 2df2 4C565F49 		.ascii	"LV_IMG_CF_RGB888\000"
 13597      4D475F43 
 13597      465F5247 
 13597      42383838 
 13597      00
 13598              	.LASF291:
 13599 2e03 73686164 		.ascii	"shadow_ofs_y\000"
 13599      6F775F6F 
 13599      66735F79 
 13599      00
 13600              	.LASF599:
 13601 2e10 70726576 		.ascii	"prev\000"
 13601      00
 13602              	.LASF105:
 13603 2e15 6C765F67 		.ascii	"lv_grad_dsc_t\000"
 13603      7261645F 
 13603      6473635F 
 13603      7400
 13604              	.LASF712:
 13605 2e23 70726576 		.ascii	"prev_coords\000"
 13605      5F636F6F 
 13605      72647300 
 13606              	.LASF361:
 13607 2e2f 6E5F7369 		.ascii	"n_size\000"
 13607      7A6500
 13608              	.LASF501:
 13609 2e36 63757273 		.ascii	"cursor\000"
 13609      6F7200
 13610              	.LASF504:
 13611 2e3d 5F6C765F 		.ascii	"_lv_group_t\000"
 13611      67726F75 
 13611      705F7400 
 13612              	.LASF133:
 13613 2e49 4C565F53 		.ascii	"LV_STYLE_BG_GRAD\000"
 13613      54594C45 
 13613      5F42475F 
 13613      47524144 
ARM GAS  C:\Users\haske\AppData\Local\Temp\ccN8jSR9.s 			page 309


 13613      00
 13614              	.LASF612:
 13615 2e5a 4C565F45 		.ascii	"LV_EVENT_RELEASED\000"
 13615      56454E54 
 13615      5F52454C 
 13615      45415345 
 13615      4400
 13616              	.LASF33:
 13617 2e6c 69735F70 		.ascii	"is_placeholder\000"
 13617      6C616365 
 13617      686F6C64 
 13617      657200
 13618              	.LASF148:
 13619 2e7b 4C565F53 		.ascii	"LV_STYLE_OUTLINE_PAD\000"
 13619      54594C45 
 13619      5F4F5554 
 13619      4C494E45 
 13619      5F504144 
 13620              	.LASF59:
 13621 2e90 4C565F4F 		.ascii	"LV_OPA_90\000"
 13621      50415F39 
 13621      3000
 13622              	.LASF506:
 13623 2e9a 6F626A5F 		.ascii	"obj_focus\000"
 13623      666F6375 
 13623      7300
 13624              	.LASF172:
 13625 2ea4 4C565F53 		.ascii	"LV_STYLE_TEXT_LETTER_SPACE\000"
 13625      54594C45 
 13625      5F544558 
 13625      545F4C45 
 13625      54544552 
 13626              	.LASF668:
 13627 2ebf 6C765F6F 		.ascii	"lv_obj_t\000"
 13627      626A5F74 
 13627      00
 13628              	.LASF665:
 13629 2ec8 6576656E 		.ascii	"event_dsc_cnt\000"
 13629      745F6473 
 13629      635F636E 
 13629      7400
 13630              		.ident	"GCC: (GNU Tools for ARM Embedded Processors) 5.4.1 20160609 (release) [ARM/embedded-5-bran
