ARM GAS  C:\Users\haske\AppData\Local\Temp\ccUfwBqq.s 			page 1


   1              		.syntax unified
   2              		.cpu cortex-m0plus
   3              		.fpu softvfp
   4              		.eabi_attribute 20, 1
   5              		.eabi_attribute 21, 1
   6              		.eabi_attribute 23, 3
   7              		.eabi_attribute 24, 1
   8              		.eabi_attribute 25, 1
   9              		.eabi_attribute 26, 1
  10              		.eabi_attribute 30, 1
  11              		.eabi_attribute 34, 0
  12              		.eabi_attribute 18, 4
  13              		.thumb
  14              		.syntax unified
  15              		.file	"lv_hal_tick.c"
  16              		.text
  17              	.Ltext0:
  18              		.cfi_sections	.debug_frame
  19              		.section	.text.lv_tick_inc,"ax",%progbits
  20              		.align	2
  21              		.global	lv_tick_inc
  22              		.code	16
  23              		.thumb_func
  24              		.type	lv_tick_inc, %function
  25              	lv_tick_inc:
  26              	.LFB0:
  27              		.file 1 "..\\..\\..\\arduinoLCD\\test\\Pain Drain\\libraries\\lvgl\\src\\hal\\lv_hal_tick.c"
   1:..\..\..\arduinoLCD\test\Pain Drain\libraries\lvgl\src\hal/lv_hal_tick.c **** /**
   2:..\..\..\arduinoLCD\test\Pain Drain\libraries\lvgl\src\hal/lv_hal_tick.c ****  * @file lv_hal_tick.c
   3:..\..\..\arduinoLCD\test\Pain Drain\libraries\lvgl\src\hal/lv_hal_tick.c ****  * Provide access to the system tick with 1 millisecond resolution
   4:..\..\..\arduinoLCD\test\Pain Drain\libraries\lvgl\src\hal/lv_hal_tick.c ****  */
   5:..\..\..\arduinoLCD\test\Pain Drain\libraries\lvgl\src\hal/lv_hal_tick.c **** 
   6:..\..\..\arduinoLCD\test\Pain Drain\libraries\lvgl\src\hal/lv_hal_tick.c **** /*********************
   7:..\..\..\arduinoLCD\test\Pain Drain\libraries\lvgl\src\hal/lv_hal_tick.c ****  *      INCLUDES
   8:..\..\..\arduinoLCD\test\Pain Drain\libraries\lvgl\src\hal/lv_hal_tick.c ****  *********************/
   9:..\..\..\arduinoLCD\test\Pain Drain\libraries\lvgl\src\hal/lv_hal_tick.c **** #include "lv_hal_tick.h"
  10:..\..\..\arduinoLCD\test\Pain Drain\libraries\lvgl\src\hal/lv_hal_tick.c **** #include <stddef.h>
  11:..\..\..\arduinoLCD\test\Pain Drain\libraries\lvgl\src\hal/lv_hal_tick.c **** 
  12:..\..\..\arduinoLCD\test\Pain Drain\libraries\lvgl\src\hal/lv_hal_tick.c **** #if LV_TICK_CUSTOM == 1
  13:..\..\..\arduinoLCD\test\Pain Drain\libraries\lvgl\src\hal/lv_hal_tick.c ****     #include LV_TICK_CUSTOM_INCLUDE
  14:..\..\..\arduinoLCD\test\Pain Drain\libraries\lvgl\src\hal/lv_hal_tick.c **** #endif
  15:..\..\..\arduinoLCD\test\Pain Drain\libraries\lvgl\src\hal/lv_hal_tick.c **** 
  16:..\..\..\arduinoLCD\test\Pain Drain\libraries\lvgl\src\hal/lv_hal_tick.c **** /*********************
  17:..\..\..\arduinoLCD\test\Pain Drain\libraries\lvgl\src\hal/lv_hal_tick.c ****  *      DEFINES
  18:..\..\..\arduinoLCD\test\Pain Drain\libraries\lvgl\src\hal/lv_hal_tick.c ****  *********************/
  19:..\..\..\arduinoLCD\test\Pain Drain\libraries\lvgl\src\hal/lv_hal_tick.c **** 
  20:..\..\..\arduinoLCD\test\Pain Drain\libraries\lvgl\src\hal/lv_hal_tick.c **** /**********************
  21:..\..\..\arduinoLCD\test\Pain Drain\libraries\lvgl\src\hal/lv_hal_tick.c ****  *      TYPEDEFS
  22:..\..\..\arduinoLCD\test\Pain Drain\libraries\lvgl\src\hal/lv_hal_tick.c ****  **********************/
  23:..\..\..\arduinoLCD\test\Pain Drain\libraries\lvgl\src\hal/lv_hal_tick.c **** 
  24:..\..\..\arduinoLCD\test\Pain Drain\libraries\lvgl\src\hal/lv_hal_tick.c **** /**********************
  25:..\..\..\arduinoLCD\test\Pain Drain\libraries\lvgl\src\hal/lv_hal_tick.c ****  *  STATIC PROTOTYPES
  26:..\..\..\arduinoLCD\test\Pain Drain\libraries\lvgl\src\hal/lv_hal_tick.c ****  **********************/
  27:..\..\..\arduinoLCD\test\Pain Drain\libraries\lvgl\src\hal/lv_hal_tick.c **** 
  28:..\..\..\arduinoLCD\test\Pain Drain\libraries\lvgl\src\hal/lv_hal_tick.c **** /**********************
  29:..\..\..\arduinoLCD\test\Pain Drain\libraries\lvgl\src\hal/lv_hal_tick.c ****  *  STATIC VARIABLES
  30:..\..\..\arduinoLCD\test\Pain Drain\libraries\lvgl\src\hal/lv_hal_tick.c ****  **********************/
ARM GAS  C:\Users\haske\AppData\Local\Temp\ccUfwBqq.s 			page 2


  31:..\..\..\arduinoLCD\test\Pain Drain\libraries\lvgl\src\hal/lv_hal_tick.c **** #if !LV_TICK_CUSTOM
  32:..\..\..\arduinoLCD\test\Pain Drain\libraries\lvgl\src\hal/lv_hal_tick.c ****     static uint32_t sys_time = 0;
  33:..\..\..\arduinoLCD\test\Pain Drain\libraries\lvgl\src\hal/lv_hal_tick.c ****     static volatile uint8_t tick_irq_flag;
  34:..\..\..\arduinoLCD\test\Pain Drain\libraries\lvgl\src\hal/lv_hal_tick.c **** #endif
  35:..\..\..\arduinoLCD\test\Pain Drain\libraries\lvgl\src\hal/lv_hal_tick.c **** 
  36:..\..\..\arduinoLCD\test\Pain Drain\libraries\lvgl\src\hal/lv_hal_tick.c **** /**********************
  37:..\..\..\arduinoLCD\test\Pain Drain\libraries\lvgl\src\hal/lv_hal_tick.c ****  *      MACROS
  38:..\..\..\arduinoLCD\test\Pain Drain\libraries\lvgl\src\hal/lv_hal_tick.c ****  **********************/
  39:..\..\..\arduinoLCD\test\Pain Drain\libraries\lvgl\src\hal/lv_hal_tick.c **** 
  40:..\..\..\arduinoLCD\test\Pain Drain\libraries\lvgl\src\hal/lv_hal_tick.c **** /**********************
  41:..\..\..\arduinoLCD\test\Pain Drain\libraries\lvgl\src\hal/lv_hal_tick.c ****  *   GLOBAL FUNCTIONS
  42:..\..\..\arduinoLCD\test\Pain Drain\libraries\lvgl\src\hal/lv_hal_tick.c ****  **********************/
  43:..\..\..\arduinoLCD\test\Pain Drain\libraries\lvgl\src\hal/lv_hal_tick.c **** 
  44:..\..\..\arduinoLCD\test\Pain Drain\libraries\lvgl\src\hal/lv_hal_tick.c **** #if !LV_TICK_CUSTOM
  45:..\..\..\arduinoLCD\test\Pain Drain\libraries\lvgl\src\hal/lv_hal_tick.c **** /**
  46:..\..\..\arduinoLCD\test\Pain Drain\libraries\lvgl\src\hal/lv_hal_tick.c ****  * You have to call this function periodically
  47:..\..\..\arduinoLCD\test\Pain Drain\libraries\lvgl\src\hal/lv_hal_tick.c ****  * @param tick_period the call period of this function in milliseconds
  48:..\..\..\arduinoLCD\test\Pain Drain\libraries\lvgl\src\hal/lv_hal_tick.c ****  */
  49:..\..\..\arduinoLCD\test\Pain Drain\libraries\lvgl\src\hal/lv_hal_tick.c **** LV_ATTRIBUTE_TICK_INC void lv_tick_inc(uint32_t tick_period)
  50:..\..\..\arduinoLCD\test\Pain Drain\libraries\lvgl\src\hal/lv_hal_tick.c **** {
  28              		.loc 1 50 0
  29              		.cfi_startproc
  30              		@ args = 0, pretend = 0, frame = 0
  31              		@ frame_needed = 0, uses_anonymous_args = 0
  32              		@ link register save eliminated.
  33              	.LVL0:
  51:..\..\..\arduinoLCD\test\Pain Drain\libraries\lvgl\src\hal/lv_hal_tick.c ****     tick_irq_flag = 0;
  34              		.loc 1 51 0
  35 0000 034B     		ldr	r3, .L2
  36 0002 0022     		movs	r2, #0
  37 0004 1A70     		strb	r2, [r3]
  52:..\..\..\arduinoLCD\test\Pain Drain\libraries\lvgl\src\hal/lv_hal_tick.c ****     sys_time += tick_period;
  38              		.loc 1 52 0
  39 0006 5A68     		ldr	r2, [r3, #4]
  40 0008 9446     		mov	ip, r2
  41 000a 6044     		add	r0, r0, ip
  42              	.LVL1:
  43 000c 5860     		str	r0, [r3, #4]
  53:..\..\..\arduinoLCD\test\Pain Drain\libraries\lvgl\src\hal/lv_hal_tick.c **** }
  44              		.loc 1 53 0
  45              		@ sp needed
  46 000e 7047     		bx	lr
  47              	.L3:
  48              		.align	2
  49              	.L2:
  50 0010 00000000 		.word	.LANCHOR0
  51              		.cfi_endproc
  52              	.LFE0:
  53              		.size	lv_tick_inc, .-lv_tick_inc
  54              		.section	.text.lv_tick_get,"ax",%progbits
  55              		.align	2
  56              		.global	lv_tick_get
  57              		.code	16
  58              		.thumb_func
  59              		.type	lv_tick_get, %function
  60              	lv_tick_get:
  61              	.LFB1:
ARM GAS  C:\Users\haske\AppData\Local\Temp\ccUfwBqq.s 			page 3


  54:..\..\..\arduinoLCD\test\Pain Drain\libraries\lvgl\src\hal/lv_hal_tick.c **** #endif
  55:..\..\..\arduinoLCD\test\Pain Drain\libraries\lvgl\src\hal/lv_hal_tick.c **** 
  56:..\..\..\arduinoLCD\test\Pain Drain\libraries\lvgl\src\hal/lv_hal_tick.c **** /**
  57:..\..\..\arduinoLCD\test\Pain Drain\libraries\lvgl\src\hal/lv_hal_tick.c ****  * Get the elapsed milliseconds since start up
  58:..\..\..\arduinoLCD\test\Pain Drain\libraries\lvgl\src\hal/lv_hal_tick.c ****  * @return the elapsed milliseconds
  59:..\..\..\arduinoLCD\test\Pain Drain\libraries\lvgl\src\hal/lv_hal_tick.c ****  */
  60:..\..\..\arduinoLCD\test\Pain Drain\libraries\lvgl\src\hal/lv_hal_tick.c **** uint32_t lv_tick_get(void)
  61:..\..\..\arduinoLCD\test\Pain Drain\libraries\lvgl\src\hal/lv_hal_tick.c **** {
  62              		.loc 1 61 0
  63              		.cfi_startproc
  64              		@ args = 0, pretend = 0, frame = 0
  65              		@ frame_needed = 0, uses_anonymous_args = 0
  66              		@ link register save eliminated.
  67              	.L5:
  62:..\..\..\arduinoLCD\test\Pain Drain\libraries\lvgl\src\hal/lv_hal_tick.c **** #if LV_TICK_CUSTOM == 0
  63:..\..\..\arduinoLCD\test\Pain Drain\libraries\lvgl\src\hal/lv_hal_tick.c **** 
  64:..\..\..\arduinoLCD\test\Pain Drain\libraries\lvgl\src\hal/lv_hal_tick.c ****     /*If `lv_tick_inc` is called from an interrupt while `sys_time` is read
  65:..\..\..\arduinoLCD\test\Pain Drain\libraries\lvgl\src\hal/lv_hal_tick.c ****      *the result might be corrupted.
  66:..\..\..\arduinoLCD\test\Pain Drain\libraries\lvgl\src\hal/lv_hal_tick.c ****      *This loop detects if `lv_tick_inc` was called while reading `sys_time`.
  67:..\..\..\arduinoLCD\test\Pain Drain\libraries\lvgl\src\hal/lv_hal_tick.c ****      *If `tick_irq_flag` was cleared in `lv_tick_inc` try to read again
  68:..\..\..\arduinoLCD\test\Pain Drain\libraries\lvgl\src\hal/lv_hal_tick.c ****      *until `tick_irq_flag` remains `1`.*/
  69:..\..\..\arduinoLCD\test\Pain Drain\libraries\lvgl\src\hal/lv_hal_tick.c ****     uint32_t result;
  70:..\..\..\arduinoLCD\test\Pain Drain\libraries\lvgl\src\hal/lv_hal_tick.c ****     do {
  71:..\..\..\arduinoLCD\test\Pain Drain\libraries\lvgl\src\hal/lv_hal_tick.c ****         tick_irq_flag = 1;
  68              		.loc 1 71 0 discriminator 1
  69 0000 034B     		ldr	r3, .L6
  70 0002 0122     		movs	r2, #1
  71 0004 1A70     		strb	r2, [r3]
  72:..\..\..\arduinoLCD\test\Pain Drain\libraries\lvgl\src\hal/lv_hal_tick.c ****         result        = sys_time;
  72              		.loc 1 72 0 discriminator 1
  73 0006 5868     		ldr	r0, [r3, #4]
  74              	.LVL2:
  73:..\..\..\arduinoLCD\test\Pain Drain\libraries\lvgl\src\hal/lv_hal_tick.c ****     } while(!tick_irq_flag); /*Continue until see a non interrupted cycle*/
  75              		.loc 1 73 0 discriminator 1
  76 0008 1B78     		ldrb	r3, [r3]
  77 000a 002B     		cmp	r3, #0
  78 000c F8D0     		beq	.L5
  74:..\..\..\arduinoLCD\test\Pain Drain\libraries\lvgl\src\hal/lv_hal_tick.c **** 
  75:..\..\..\arduinoLCD\test\Pain Drain\libraries\lvgl\src\hal/lv_hal_tick.c ****     return result;
  76:..\..\..\arduinoLCD\test\Pain Drain\libraries\lvgl\src\hal/lv_hal_tick.c **** #else
  77:..\..\..\arduinoLCD\test\Pain Drain\libraries\lvgl\src\hal/lv_hal_tick.c ****     return LV_TICK_CUSTOM_SYS_TIME_EXPR;
  78:..\..\..\arduinoLCD\test\Pain Drain\libraries\lvgl\src\hal/lv_hal_tick.c **** #endif
  79:..\..\..\arduinoLCD\test\Pain Drain\libraries\lvgl\src\hal/lv_hal_tick.c **** }
  79              		.loc 1 79 0
  80              		@ sp needed
  81 000e 7047     		bx	lr
  82              	.L7:
  83              		.align	2
  84              	.L6:
  85 0010 00000000 		.word	.LANCHOR0
  86              		.cfi_endproc
  87              	.LFE1:
  88              		.size	lv_tick_get, .-lv_tick_get
  89              		.section	.text.lv_tick_elaps,"ax",%progbits
  90              		.align	2
  91              		.global	lv_tick_elaps
  92              		.code	16
ARM GAS  C:\Users\haske\AppData\Local\Temp\ccUfwBqq.s 			page 4


  93              		.thumb_func
  94              		.type	lv_tick_elaps, %function
  95              	lv_tick_elaps:
  96              	.LFB2:
  80:..\..\..\arduinoLCD\test\Pain Drain\libraries\lvgl\src\hal/lv_hal_tick.c **** 
  81:..\..\..\arduinoLCD\test\Pain Drain\libraries\lvgl\src\hal/lv_hal_tick.c **** /**
  82:..\..\..\arduinoLCD\test\Pain Drain\libraries\lvgl\src\hal/lv_hal_tick.c ****  * Get the elapsed milliseconds since a previous time stamp
  83:..\..\..\arduinoLCD\test\Pain Drain\libraries\lvgl\src\hal/lv_hal_tick.c ****  * @param prev_tick a previous time stamp (return value of lv_tick_get() )
  84:..\..\..\arduinoLCD\test\Pain Drain\libraries\lvgl\src\hal/lv_hal_tick.c ****  * @return the elapsed milliseconds since 'prev_tick'
  85:..\..\..\arduinoLCD\test\Pain Drain\libraries\lvgl\src\hal/lv_hal_tick.c ****  */
  86:..\..\..\arduinoLCD\test\Pain Drain\libraries\lvgl\src\hal/lv_hal_tick.c **** uint32_t lv_tick_elaps(uint32_t prev_tick)
  87:..\..\..\arduinoLCD\test\Pain Drain\libraries\lvgl\src\hal/lv_hal_tick.c **** {
  97              		.loc 1 87 0
  98              		.cfi_startproc
  99              		@ args = 0, pretend = 0, frame = 0
 100              		@ frame_needed = 0, uses_anonymous_args = 0
 101              	.LVL3:
 102 0000 10B5     		push	{r4, lr}
 103              		.cfi_def_cfa_offset 8
 104              		.cfi_offset 4, -8
 105              		.cfi_offset 14, -4
 106 0002 0400     		movs	r4, r0
  88:..\..\..\arduinoLCD\test\Pain Drain\libraries\lvgl\src\hal/lv_hal_tick.c ****     uint32_t act_time = lv_tick_get();
 107              		.loc 1 88 0
 108 0004 FFF7FEFF 		bl	lv_tick_get
 109              	.LVL4:
  89:..\..\..\arduinoLCD\test\Pain Drain\libraries\lvgl\src\hal/lv_hal_tick.c **** 
  90:..\..\..\arduinoLCD\test\Pain Drain\libraries\lvgl\src\hal/lv_hal_tick.c ****     /*If there is no overflow in sys_time simple subtract*/
  91:..\..\..\arduinoLCD\test\Pain Drain\libraries\lvgl\src\hal/lv_hal_tick.c ****     if(act_time >= prev_tick) {
 110              		.loc 1 91 0
 111 0008 A042     		cmp	r0, r4
 112 000a 01D3     		bcc	.L9
  92:..\..\..\arduinoLCD\test\Pain Drain\libraries\lvgl\src\hal/lv_hal_tick.c ****         prev_tick = act_time - prev_tick;
 113              		.loc 1 92 0
 114 000c 001B     		subs	r0, r0, r4
 115              	.LVL5:
 116 000e 00E0     		b	.L10
 117              	.LVL6:
 118              	.L9:
  93:..\..\..\arduinoLCD\test\Pain Drain\libraries\lvgl\src\hal/lv_hal_tick.c ****     }
  94:..\..\..\arduinoLCD\test\Pain Drain\libraries\lvgl\src\hal/lv_hal_tick.c ****     else {
  95:..\..\..\arduinoLCD\test\Pain Drain\libraries\lvgl\src\hal/lv_hal_tick.c ****         prev_tick = UINT32_MAX - prev_tick + 1;
  96:..\..\..\arduinoLCD\test\Pain Drain\libraries\lvgl\src\hal/lv_hal_tick.c ****         prev_tick += act_time;
 119              		.loc 1 96 0
 120 0010 001B     		subs	r0, r0, r4
 121              	.LVL7:
 122              	.L10:
  97:..\..\..\arduinoLCD\test\Pain Drain\libraries\lvgl\src\hal/lv_hal_tick.c ****     }
  98:..\..\..\arduinoLCD\test\Pain Drain\libraries\lvgl\src\hal/lv_hal_tick.c **** 
  99:..\..\..\arduinoLCD\test\Pain Drain\libraries\lvgl\src\hal/lv_hal_tick.c ****     return prev_tick;
 100:..\..\..\arduinoLCD\test\Pain Drain\libraries\lvgl\src\hal/lv_hal_tick.c **** }
 123              		.loc 1 100 0
 124              		@ sp needed
 125 0012 10BD     		pop	{r4, pc}
 126              		.cfi_endproc
 127              	.LFE2:
 128              		.size	lv_tick_elaps, .-lv_tick_elaps
ARM GAS  C:\Users\haske\AppData\Local\Temp\ccUfwBqq.s 			page 5


 129              		.bss
 130              		.align	2
 131              		.set	.LANCHOR0,. + 0
 132              		.type	tick_irq_flag, %object
 133              		.size	tick_irq_flag, 1
 134              	tick_irq_flag:
 135 0000 00       		.space	1
 136 0001 000000   		.space	3
 137              		.type	sys_time, %object
 138              		.size	sys_time, 4
 139              	sys_time:
 140 0004 00000000 		.space	4
 141              		.text
 142              	.Letext0:
 143              		.file 2 "c:\\program files (x86)\\cypress\\psoc creator\\4.4\\psoc creator\\import\\gnu\\arm\\5.4.
 144              		.file 3 "c:\\program files (x86)\\cypress\\psoc creator\\4.4\\psoc creator\\import\\gnu\\arm\\5.4.