ARM GAS  C:\Users\haske\AppData\Local\Temp\ccGWO5DZ.s 			page 1


   1              		.syntax unified
   2              		.cpu cortex-m0plus
   3              		.fpu softvfp
   4              		.eabi_attribute 20, 1
   5              		.eabi_attribute 21, 1
   6              		.eabi_attribute 23, 3
   7              		.eabi_attribute 24, 1
   8              		.eabi_attribute 25, 1
   9              		.eabi_attribute 26, 1
  10              		.eabi_attribute 30, 1
  11              		.eabi_attribute 34, 0
  12              		.eabi_attribute 18, 4
  13              		.thumb
  14              		.syntax unified
  15              		.file	"lv_img.c"
  16              		.text
  17              	.Ltext0:
  18              		.cfi_sections	.debug_frame
  19              		.section	.text.lv_img_get_transformed_size,"ax",%progbits
  20              		.align	2
  21              		.code	16
  22              		.thumb_func
  23              		.type	lv_img_get_transformed_size, %function
  24              	lv_img_get_transformed_size:
  25              	.LFB184:
  26              		.file 1 "..\\..\\..\\arduinoLCD\\test\\Pain Drain\\libraries\\lvgl\\src\\widgets\\lv_img.c"
   1:..\..\..\arduinoLCD\test\Pain Drain\libraries\lvgl\src\widgets/lv_img.c **** /**
   2:..\..\..\arduinoLCD\test\Pain Drain\libraries\lvgl\src\widgets/lv_img.c ****  * @file lv_img.c
   3:..\..\..\arduinoLCD\test\Pain Drain\libraries\lvgl\src\widgets/lv_img.c ****  *
   4:..\..\..\arduinoLCD\test\Pain Drain\libraries\lvgl\src\widgets/lv_img.c ****  */
   5:..\..\..\arduinoLCD\test\Pain Drain\libraries\lvgl\src\widgets/lv_img.c **** 
   6:..\..\..\arduinoLCD\test\Pain Drain\libraries\lvgl\src\widgets/lv_img.c **** /*********************
   7:..\..\..\arduinoLCD\test\Pain Drain\libraries\lvgl\src\widgets/lv_img.c ****  *      INCLUDES
   8:..\..\..\arduinoLCD\test\Pain Drain\libraries\lvgl\src\widgets/lv_img.c ****  *********************/
   9:..\..\..\arduinoLCD\test\Pain Drain\libraries\lvgl\src\widgets/lv_img.c **** #include "lv_img.h"
  10:..\..\..\arduinoLCD\test\Pain Drain\libraries\lvgl\src\widgets/lv_img.c **** #if LV_USE_IMG != 0
  11:..\..\..\arduinoLCD\test\Pain Drain\libraries\lvgl\src\widgets/lv_img.c **** 
  12:..\..\..\arduinoLCD\test\Pain Drain\libraries\lvgl\src\widgets/lv_img.c **** #include "../core/lv_disp.h"
  13:..\..\..\arduinoLCD\test\Pain Drain\libraries\lvgl\src\widgets/lv_img.c **** #include "../misc/lv_assert.h"
  14:..\..\..\arduinoLCD\test\Pain Drain\libraries\lvgl\src\widgets/lv_img.c **** #include "../draw/lv_img_decoder.h"
  15:..\..\..\arduinoLCD\test\Pain Drain\libraries\lvgl\src\widgets/lv_img.c **** #include "../misc/lv_fs.h"
  16:..\..\..\arduinoLCD\test\Pain Drain\libraries\lvgl\src\widgets/lv_img.c **** #include "../misc/lv_txt.h"
  17:..\..\..\arduinoLCD\test\Pain Drain\libraries\lvgl\src\widgets/lv_img.c **** #include "../misc/lv_math.h"
  18:..\..\..\arduinoLCD\test\Pain Drain\libraries\lvgl\src\widgets/lv_img.c **** #include "../misc/lv_log.h"
  19:..\..\..\arduinoLCD\test\Pain Drain\libraries\lvgl\src\widgets/lv_img.c **** 
  20:..\..\..\arduinoLCD\test\Pain Drain\libraries\lvgl\src\widgets/lv_img.c **** /*********************
  21:..\..\..\arduinoLCD\test\Pain Drain\libraries\lvgl\src\widgets/lv_img.c ****  *      DEFINES
  22:..\..\..\arduinoLCD\test\Pain Drain\libraries\lvgl\src\widgets/lv_img.c ****  *********************/
  23:..\..\..\arduinoLCD\test\Pain Drain\libraries\lvgl\src\widgets/lv_img.c **** #define MY_CLASS &lv_img_class
  24:..\..\..\arduinoLCD\test\Pain Drain\libraries\lvgl\src\widgets/lv_img.c **** 
  25:..\..\..\arduinoLCD\test\Pain Drain\libraries\lvgl\src\widgets/lv_img.c **** /**********************
  26:..\..\..\arduinoLCD\test\Pain Drain\libraries\lvgl\src\widgets/lv_img.c ****  *      TYPEDEFS
  27:..\..\..\arduinoLCD\test\Pain Drain\libraries\lvgl\src\widgets/lv_img.c ****  **********************/
  28:..\..\..\arduinoLCD\test\Pain Drain\libraries\lvgl\src\widgets/lv_img.c **** 
  29:..\..\..\arduinoLCD\test\Pain Drain\libraries\lvgl\src\widgets/lv_img.c **** /**********************
  30:..\..\..\arduinoLCD\test\Pain Drain\libraries\lvgl\src\widgets/lv_img.c ****  *  STATIC PROTOTYPES
  31:..\..\..\arduinoLCD\test\Pain Drain\libraries\lvgl\src\widgets/lv_img.c ****  **********************/
ARM GAS  C:\Users\haske\AppData\Local\Temp\ccGWO5DZ.s 			page 2


  32:..\..\..\arduinoLCD\test\Pain Drain\libraries\lvgl\src\widgets/lv_img.c **** static void lv_img_constructor(const lv_obj_class_t * class_p, lv_obj_t * obj);
  33:..\..\..\arduinoLCD\test\Pain Drain\libraries\lvgl\src\widgets/lv_img.c **** static void lv_img_destructor(const lv_obj_class_t * class_p, lv_obj_t * obj);
  34:..\..\..\arduinoLCD\test\Pain Drain\libraries\lvgl\src\widgets/lv_img.c **** static void lv_img_event(const lv_obj_class_t * class_p, lv_event_t * e);
  35:..\..\..\arduinoLCD\test\Pain Drain\libraries\lvgl\src\widgets/lv_img.c **** static void draw_img(lv_event_t * e);
  36:..\..\..\arduinoLCD\test\Pain Drain\libraries\lvgl\src\widgets/lv_img.c **** 
  37:..\..\..\arduinoLCD\test\Pain Drain\libraries\lvgl\src\widgets/lv_img.c **** /**********************
  38:..\..\..\arduinoLCD\test\Pain Drain\libraries\lvgl\src\widgets/lv_img.c ****  *  STATIC VARIABLES
  39:..\..\..\arduinoLCD\test\Pain Drain\libraries\lvgl\src\widgets/lv_img.c ****  **********************/
  40:..\..\..\arduinoLCD\test\Pain Drain\libraries\lvgl\src\widgets/lv_img.c **** const lv_obj_class_t lv_img_class = {
  41:..\..\..\arduinoLCD\test\Pain Drain\libraries\lvgl\src\widgets/lv_img.c ****     .constructor_cb = lv_img_constructor,
  42:..\..\..\arduinoLCD\test\Pain Drain\libraries\lvgl\src\widgets/lv_img.c ****     .destructor_cb = lv_img_destructor,
  43:..\..\..\arduinoLCD\test\Pain Drain\libraries\lvgl\src\widgets/lv_img.c ****     .event_cb = lv_img_event,
  44:..\..\..\arduinoLCD\test\Pain Drain\libraries\lvgl\src\widgets/lv_img.c ****     .width_def = LV_SIZE_CONTENT,
  45:..\..\..\arduinoLCD\test\Pain Drain\libraries\lvgl\src\widgets/lv_img.c ****     .height_def = LV_SIZE_CONTENT,
  46:..\..\..\arduinoLCD\test\Pain Drain\libraries\lvgl\src\widgets/lv_img.c ****     .instance_size = sizeof(lv_img_t),
  47:..\..\..\arduinoLCD\test\Pain Drain\libraries\lvgl\src\widgets/lv_img.c ****     .base_class = &lv_obj_class
  48:..\..\..\arduinoLCD\test\Pain Drain\libraries\lvgl\src\widgets/lv_img.c **** };
  49:..\..\..\arduinoLCD\test\Pain Drain\libraries\lvgl\src\widgets/lv_img.c **** 
  50:..\..\..\arduinoLCD\test\Pain Drain\libraries\lvgl\src\widgets/lv_img.c **** /**********************
  51:..\..\..\arduinoLCD\test\Pain Drain\libraries\lvgl\src\widgets/lv_img.c ****  *      MACROS
  52:..\..\..\arduinoLCD\test\Pain Drain\libraries\lvgl\src\widgets/lv_img.c ****  **********************/
  53:..\..\..\arduinoLCD\test\Pain Drain\libraries\lvgl\src\widgets/lv_img.c **** 
  54:..\..\..\arduinoLCD\test\Pain Drain\libraries\lvgl\src\widgets/lv_img.c **** /**********************
  55:..\..\..\arduinoLCD\test\Pain Drain\libraries\lvgl\src\widgets/lv_img.c ****  *   GLOBAL FUNCTIONS
  56:..\..\..\arduinoLCD\test\Pain Drain\libraries\lvgl\src\widgets/lv_img.c ****  **********************/
  57:..\..\..\arduinoLCD\test\Pain Drain\libraries\lvgl\src\widgets/lv_img.c **** 
  58:..\..\..\arduinoLCD\test\Pain Drain\libraries\lvgl\src\widgets/lv_img.c **** lv_obj_t * lv_img_create(lv_obj_t * parent)
  59:..\..\..\arduinoLCD\test\Pain Drain\libraries\lvgl\src\widgets/lv_img.c **** {
  60:..\..\..\arduinoLCD\test\Pain Drain\libraries\lvgl\src\widgets/lv_img.c ****     LV_LOG_INFO("begin");
  61:..\..\..\arduinoLCD\test\Pain Drain\libraries\lvgl\src\widgets/lv_img.c ****     lv_obj_t * obj = lv_obj_class_create_obj(MY_CLASS, parent);
  62:..\..\..\arduinoLCD\test\Pain Drain\libraries\lvgl\src\widgets/lv_img.c ****     lv_obj_class_init_obj(obj);
  63:..\..\..\arduinoLCD\test\Pain Drain\libraries\lvgl\src\widgets/lv_img.c ****     return obj;
  64:..\..\..\arduinoLCD\test\Pain Drain\libraries\lvgl\src\widgets/lv_img.c **** }
  65:..\..\..\arduinoLCD\test\Pain Drain\libraries\lvgl\src\widgets/lv_img.c **** 
  66:..\..\..\arduinoLCD\test\Pain Drain\libraries\lvgl\src\widgets/lv_img.c **** /*=====================
  67:..\..\..\arduinoLCD\test\Pain Drain\libraries\lvgl\src\widgets/lv_img.c ****  * Setter functions
  68:..\..\..\arduinoLCD\test\Pain Drain\libraries\lvgl\src\widgets/lv_img.c ****  *====================*/
  69:..\..\..\arduinoLCD\test\Pain Drain\libraries\lvgl\src\widgets/lv_img.c **** 
  70:..\..\..\arduinoLCD\test\Pain Drain\libraries\lvgl\src\widgets/lv_img.c **** void lv_img_set_src(lv_obj_t * obj, const void * src)
  71:..\..\..\arduinoLCD\test\Pain Drain\libraries\lvgl\src\widgets/lv_img.c **** {
  72:..\..\..\arduinoLCD\test\Pain Drain\libraries\lvgl\src\widgets/lv_img.c ****     LV_ASSERT_OBJ(obj, MY_CLASS);
  73:..\..\..\arduinoLCD\test\Pain Drain\libraries\lvgl\src\widgets/lv_img.c **** 
  74:..\..\..\arduinoLCD\test\Pain Drain\libraries\lvgl\src\widgets/lv_img.c ****     lv_obj_invalidate(obj);
  75:..\..\..\arduinoLCD\test\Pain Drain\libraries\lvgl\src\widgets/lv_img.c **** 
  76:..\..\..\arduinoLCD\test\Pain Drain\libraries\lvgl\src\widgets/lv_img.c ****     lv_img_src_t src_type = lv_img_src_get_type(src);
  77:..\..\..\arduinoLCD\test\Pain Drain\libraries\lvgl\src\widgets/lv_img.c ****     lv_img_t * img = (lv_img_t *)obj;
  78:..\..\..\arduinoLCD\test\Pain Drain\libraries\lvgl\src\widgets/lv_img.c **** 
  79:..\..\..\arduinoLCD\test\Pain Drain\libraries\lvgl\src\widgets/lv_img.c **** #if LV_USE_LOG && LV_LOG_LEVEL >= LV_LOG_LEVEL_INFO
  80:..\..\..\arduinoLCD\test\Pain Drain\libraries\lvgl\src\widgets/lv_img.c ****     switch(src_type) {
  81:..\..\..\arduinoLCD\test\Pain Drain\libraries\lvgl\src\widgets/lv_img.c ****         case LV_IMG_SRC_FILE:
  82:..\..\..\arduinoLCD\test\Pain Drain\libraries\lvgl\src\widgets/lv_img.c ****             LV_LOG_TRACE("lv_img_set_src: `LV_IMG_SRC_FILE` type found");
  83:..\..\..\arduinoLCD\test\Pain Drain\libraries\lvgl\src\widgets/lv_img.c ****             break;
  84:..\..\..\arduinoLCD\test\Pain Drain\libraries\lvgl\src\widgets/lv_img.c ****         case LV_IMG_SRC_VARIABLE:
  85:..\..\..\arduinoLCD\test\Pain Drain\libraries\lvgl\src\widgets/lv_img.c ****             LV_LOG_TRACE("lv_img_set_src: `LV_IMG_SRC_VARIABLE` type found");
  86:..\..\..\arduinoLCD\test\Pain Drain\libraries\lvgl\src\widgets/lv_img.c ****             break;
  87:..\..\..\arduinoLCD\test\Pain Drain\libraries\lvgl\src\widgets/lv_img.c ****         case LV_IMG_SRC_SYMBOL:
  88:..\..\..\arduinoLCD\test\Pain Drain\libraries\lvgl\src\widgets/lv_img.c ****             LV_LOG_TRACE("lv_img_set_src: `LV_IMG_SRC_SYMBOL` type found");
ARM GAS  C:\Users\haske\AppData\Local\Temp\ccGWO5DZ.s 			page 3


  89:..\..\..\arduinoLCD\test\Pain Drain\libraries\lvgl\src\widgets/lv_img.c ****             break;
  90:..\..\..\arduinoLCD\test\Pain Drain\libraries\lvgl\src\widgets/lv_img.c ****         default:
  91:..\..\..\arduinoLCD\test\Pain Drain\libraries\lvgl\src\widgets/lv_img.c ****             LV_LOG_WARN("lv_img_set_src: unknown type");
  92:..\..\..\arduinoLCD\test\Pain Drain\libraries\lvgl\src\widgets/lv_img.c ****     }
  93:..\..\..\arduinoLCD\test\Pain Drain\libraries\lvgl\src\widgets/lv_img.c **** #endif
  94:..\..\..\arduinoLCD\test\Pain Drain\libraries\lvgl\src\widgets/lv_img.c **** 
  95:..\..\..\arduinoLCD\test\Pain Drain\libraries\lvgl\src\widgets/lv_img.c ****     /*If the new source type is unknown free the memories of the old source*/
  96:..\..\..\arduinoLCD\test\Pain Drain\libraries\lvgl\src\widgets/lv_img.c ****     if(src_type == LV_IMG_SRC_UNKNOWN) {
  97:..\..\..\arduinoLCD\test\Pain Drain\libraries\lvgl\src\widgets/lv_img.c ****         LV_LOG_WARN("lv_img_set_src: unknown image type");
  98:..\..\..\arduinoLCD\test\Pain Drain\libraries\lvgl\src\widgets/lv_img.c ****         if(img->src_type == LV_IMG_SRC_SYMBOL || img->src_type == LV_IMG_SRC_FILE) {
  99:..\..\..\arduinoLCD\test\Pain Drain\libraries\lvgl\src\widgets/lv_img.c ****             lv_mem_free((void *)img->src);
 100:..\..\..\arduinoLCD\test\Pain Drain\libraries\lvgl\src\widgets/lv_img.c ****         }
 101:..\..\..\arduinoLCD\test\Pain Drain\libraries\lvgl\src\widgets/lv_img.c ****         img->src      = NULL;
 102:..\..\..\arduinoLCD\test\Pain Drain\libraries\lvgl\src\widgets/lv_img.c ****         img->src_type = LV_IMG_SRC_UNKNOWN;
 103:..\..\..\arduinoLCD\test\Pain Drain\libraries\lvgl\src\widgets/lv_img.c ****         return;
 104:..\..\..\arduinoLCD\test\Pain Drain\libraries\lvgl\src\widgets/lv_img.c ****     }
 105:..\..\..\arduinoLCD\test\Pain Drain\libraries\lvgl\src\widgets/lv_img.c **** 
 106:..\..\..\arduinoLCD\test\Pain Drain\libraries\lvgl\src\widgets/lv_img.c ****     lv_img_header_t header;
 107:..\..\..\arduinoLCD\test\Pain Drain\libraries\lvgl\src\widgets/lv_img.c ****     lv_img_decoder_get_info(src, &header);
 108:..\..\..\arduinoLCD\test\Pain Drain\libraries\lvgl\src\widgets/lv_img.c **** 
 109:..\..\..\arduinoLCD\test\Pain Drain\libraries\lvgl\src\widgets/lv_img.c ****     /*Save the source*/
 110:..\..\..\arduinoLCD\test\Pain Drain\libraries\lvgl\src\widgets/lv_img.c ****     if(src_type == LV_IMG_SRC_VARIABLE) {
 111:..\..\..\arduinoLCD\test\Pain Drain\libraries\lvgl\src\widgets/lv_img.c ****         /*If memory was allocated because of the previous `src_type` then free it*/
 112:..\..\..\arduinoLCD\test\Pain Drain\libraries\lvgl\src\widgets/lv_img.c ****         if(img->src_type == LV_IMG_SRC_FILE || img->src_type == LV_IMG_SRC_SYMBOL) {
 113:..\..\..\arduinoLCD\test\Pain Drain\libraries\lvgl\src\widgets/lv_img.c ****             lv_mem_free((void *)img->src);
 114:..\..\..\arduinoLCD\test\Pain Drain\libraries\lvgl\src\widgets/lv_img.c ****         }
 115:..\..\..\arduinoLCD\test\Pain Drain\libraries\lvgl\src\widgets/lv_img.c ****         img->src = src;
 116:..\..\..\arduinoLCD\test\Pain Drain\libraries\lvgl\src\widgets/lv_img.c ****     }
 117:..\..\..\arduinoLCD\test\Pain Drain\libraries\lvgl\src\widgets/lv_img.c ****     else if(src_type == LV_IMG_SRC_FILE || src_type == LV_IMG_SRC_SYMBOL) {
 118:..\..\..\arduinoLCD\test\Pain Drain\libraries\lvgl\src\widgets/lv_img.c ****         /*If the new and the old src are the same then it was only a refresh.*/
 119:..\..\..\arduinoLCD\test\Pain Drain\libraries\lvgl\src\widgets/lv_img.c ****         if(img->src != src) {
 120:..\..\..\arduinoLCD\test\Pain Drain\libraries\lvgl\src\widgets/lv_img.c ****             const void * old_src = NULL;
 121:..\..\..\arduinoLCD\test\Pain Drain\libraries\lvgl\src\widgets/lv_img.c ****             /*If memory was allocated because of the previous `src_type` then save its pointer and 
 122:..\..\..\arduinoLCD\test\Pain Drain\libraries\lvgl\src\widgets/lv_img.c ****              *It's important to allocate first to be sure the new data will be on a new address.
 123:..\..\..\arduinoLCD\test\Pain Drain\libraries\lvgl\src\widgets/lv_img.c ****              *Else `img_cache` wouldn't see the change in source.*/
 124:..\..\..\arduinoLCD\test\Pain Drain\libraries\lvgl\src\widgets/lv_img.c ****             if(img->src_type == LV_IMG_SRC_FILE || img->src_type == LV_IMG_SRC_SYMBOL) {
 125:..\..\..\arduinoLCD\test\Pain Drain\libraries\lvgl\src\widgets/lv_img.c ****                 old_src = img->src;
 126:..\..\..\arduinoLCD\test\Pain Drain\libraries\lvgl\src\widgets/lv_img.c ****             }
 127:..\..\..\arduinoLCD\test\Pain Drain\libraries\lvgl\src\widgets/lv_img.c ****             char * new_str = lv_mem_alloc(strlen(src) + 1);
 128:..\..\..\arduinoLCD\test\Pain Drain\libraries\lvgl\src\widgets/lv_img.c ****             LV_ASSERT_MALLOC(new_str);
 129:..\..\..\arduinoLCD\test\Pain Drain\libraries\lvgl\src\widgets/lv_img.c ****             if(new_str == NULL) return;
 130:..\..\..\arduinoLCD\test\Pain Drain\libraries\lvgl\src\widgets/lv_img.c ****             strcpy(new_str, src);
 131:..\..\..\arduinoLCD\test\Pain Drain\libraries\lvgl\src\widgets/lv_img.c ****             img->src = new_str;
 132:..\..\..\arduinoLCD\test\Pain Drain\libraries\lvgl\src\widgets/lv_img.c **** 
 133:..\..\..\arduinoLCD\test\Pain Drain\libraries\lvgl\src\widgets/lv_img.c ****             if(old_src) lv_mem_free((void *)old_src);
 134:..\..\..\arduinoLCD\test\Pain Drain\libraries\lvgl\src\widgets/lv_img.c ****         }
 135:..\..\..\arduinoLCD\test\Pain Drain\libraries\lvgl\src\widgets/lv_img.c ****     }
 136:..\..\..\arduinoLCD\test\Pain Drain\libraries\lvgl\src\widgets/lv_img.c **** 
 137:..\..\..\arduinoLCD\test\Pain Drain\libraries\lvgl\src\widgets/lv_img.c ****     if(src_type == LV_IMG_SRC_SYMBOL) {
 138:..\..\..\arduinoLCD\test\Pain Drain\libraries\lvgl\src\widgets/lv_img.c ****         /*`lv_img_dsc_get_info` couldn't set the width and height of a font so set it here*/
 139:..\..\..\arduinoLCD\test\Pain Drain\libraries\lvgl\src\widgets/lv_img.c ****         const lv_font_t * font = lv_obj_get_style_text_font(obj, LV_PART_MAIN);
 140:..\..\..\arduinoLCD\test\Pain Drain\libraries\lvgl\src\widgets/lv_img.c ****         lv_coord_t letter_space = lv_obj_get_style_text_letter_space(obj, LV_PART_MAIN);
 141:..\..\..\arduinoLCD\test\Pain Drain\libraries\lvgl\src\widgets/lv_img.c ****         lv_coord_t line_space = lv_obj_get_style_text_line_space(obj, LV_PART_MAIN);
 142:..\..\..\arduinoLCD\test\Pain Drain\libraries\lvgl\src\widgets/lv_img.c ****         lv_point_t size;
 143:..\..\..\arduinoLCD\test\Pain Drain\libraries\lvgl\src\widgets/lv_img.c ****         lv_txt_get_size(&size, src, font, letter_space, line_space, LV_COORD_MAX, LV_TEXT_FLAG_NONE
 144:..\..\..\arduinoLCD\test\Pain Drain\libraries\lvgl\src\widgets/lv_img.c ****         header.w = size.x;
 145:..\..\..\arduinoLCD\test\Pain Drain\libraries\lvgl\src\widgets/lv_img.c ****         header.h = size.y;
ARM GAS  C:\Users\haske\AppData\Local\Temp\ccGWO5DZ.s 			page 4


 146:..\..\..\arduinoLCD\test\Pain Drain\libraries\lvgl\src\widgets/lv_img.c ****     }
 147:..\..\..\arduinoLCD\test\Pain Drain\libraries\lvgl\src\widgets/lv_img.c **** 
 148:..\..\..\arduinoLCD\test\Pain Drain\libraries\lvgl\src\widgets/lv_img.c ****     img->src_type = src_type;
 149:..\..\..\arduinoLCD\test\Pain Drain\libraries\lvgl\src\widgets/lv_img.c ****     img->w        = header.w;
 150:..\..\..\arduinoLCD\test\Pain Drain\libraries\lvgl\src\widgets/lv_img.c ****     img->h        = header.h;
 151:..\..\..\arduinoLCD\test\Pain Drain\libraries\lvgl\src\widgets/lv_img.c ****     img->cf       = header.cf;
 152:..\..\..\arduinoLCD\test\Pain Drain\libraries\lvgl\src\widgets/lv_img.c ****     img->pivot.x = header.w / 2;
 153:..\..\..\arduinoLCD\test\Pain Drain\libraries\lvgl\src\widgets/lv_img.c ****     img->pivot.y = header.h / 2;
 154:..\..\..\arduinoLCD\test\Pain Drain\libraries\lvgl\src\widgets/lv_img.c **** 
 155:..\..\..\arduinoLCD\test\Pain Drain\libraries\lvgl\src\widgets/lv_img.c ****     lv_obj_refresh_self_size(obj);
 156:..\..\..\arduinoLCD\test\Pain Drain\libraries\lvgl\src\widgets/lv_img.c **** 
 157:..\..\..\arduinoLCD\test\Pain Drain\libraries\lvgl\src\widgets/lv_img.c ****     /*Provide enough room for the rotated corners*/
 158:..\..\..\arduinoLCD\test\Pain Drain\libraries\lvgl\src\widgets/lv_img.c ****     if(img->angle || img->zoom != LV_IMG_ZOOM_NONE) lv_obj_refresh_ext_draw_size(obj);
 159:..\..\..\arduinoLCD\test\Pain Drain\libraries\lvgl\src\widgets/lv_img.c **** 
 160:..\..\..\arduinoLCD\test\Pain Drain\libraries\lvgl\src\widgets/lv_img.c ****     lv_obj_invalidate(obj);
 161:..\..\..\arduinoLCD\test\Pain Drain\libraries\lvgl\src\widgets/lv_img.c **** }
 162:..\..\..\arduinoLCD\test\Pain Drain\libraries\lvgl\src\widgets/lv_img.c **** 
 163:..\..\..\arduinoLCD\test\Pain Drain\libraries\lvgl\src\widgets/lv_img.c **** void lv_img_set_offset_x(lv_obj_t * obj, lv_coord_t x)
 164:..\..\..\arduinoLCD\test\Pain Drain\libraries\lvgl\src\widgets/lv_img.c **** {
 165:..\..\..\arduinoLCD\test\Pain Drain\libraries\lvgl\src\widgets/lv_img.c ****     LV_ASSERT_OBJ(obj, MY_CLASS);
 166:..\..\..\arduinoLCD\test\Pain Drain\libraries\lvgl\src\widgets/lv_img.c **** 
 167:..\..\..\arduinoLCD\test\Pain Drain\libraries\lvgl\src\widgets/lv_img.c ****     lv_img_t * img = (lv_img_t *)obj;
 168:..\..\..\arduinoLCD\test\Pain Drain\libraries\lvgl\src\widgets/lv_img.c **** 
 169:..\..\..\arduinoLCD\test\Pain Drain\libraries\lvgl\src\widgets/lv_img.c ****     img->offset.x = x;
 170:..\..\..\arduinoLCD\test\Pain Drain\libraries\lvgl\src\widgets/lv_img.c ****     lv_obj_invalidate(obj);
 171:..\..\..\arduinoLCD\test\Pain Drain\libraries\lvgl\src\widgets/lv_img.c **** }
 172:..\..\..\arduinoLCD\test\Pain Drain\libraries\lvgl\src\widgets/lv_img.c **** 
 173:..\..\..\arduinoLCD\test\Pain Drain\libraries\lvgl\src\widgets/lv_img.c **** void lv_img_set_offset_y(lv_obj_t * obj, lv_coord_t y)
 174:..\..\..\arduinoLCD\test\Pain Drain\libraries\lvgl\src\widgets/lv_img.c **** {
 175:..\..\..\arduinoLCD\test\Pain Drain\libraries\lvgl\src\widgets/lv_img.c ****     LV_ASSERT_OBJ(obj, MY_CLASS);
 176:..\..\..\arduinoLCD\test\Pain Drain\libraries\lvgl\src\widgets/lv_img.c **** 
 177:..\..\..\arduinoLCD\test\Pain Drain\libraries\lvgl\src\widgets/lv_img.c ****     lv_img_t * img = (lv_img_t *)obj;
 178:..\..\..\arduinoLCD\test\Pain Drain\libraries\lvgl\src\widgets/lv_img.c **** 
 179:..\..\..\arduinoLCD\test\Pain Drain\libraries\lvgl\src\widgets/lv_img.c ****     img->offset.y = y;
 180:..\..\..\arduinoLCD\test\Pain Drain\libraries\lvgl\src\widgets/lv_img.c ****     lv_obj_invalidate(obj);
 181:..\..\..\arduinoLCD\test\Pain Drain\libraries\lvgl\src\widgets/lv_img.c **** }
 182:..\..\..\arduinoLCD\test\Pain Drain\libraries\lvgl\src\widgets/lv_img.c **** 
 183:..\..\..\arduinoLCD\test\Pain Drain\libraries\lvgl\src\widgets/lv_img.c **** void lv_img_set_angle(lv_obj_t * obj, int16_t angle)
 184:..\..\..\arduinoLCD\test\Pain Drain\libraries\lvgl\src\widgets/lv_img.c **** {
 185:..\..\..\arduinoLCD\test\Pain Drain\libraries\lvgl\src\widgets/lv_img.c ****     while(angle >= 3600) angle -= 3600;
 186:..\..\..\arduinoLCD\test\Pain Drain\libraries\lvgl\src\widgets/lv_img.c ****     while(angle < 0) angle += 3600;
 187:..\..\..\arduinoLCD\test\Pain Drain\libraries\lvgl\src\widgets/lv_img.c **** 
 188:..\..\..\arduinoLCD\test\Pain Drain\libraries\lvgl\src\widgets/lv_img.c ****     lv_img_t * img = (lv_img_t *)obj;
 189:..\..\..\arduinoLCD\test\Pain Drain\libraries\lvgl\src\widgets/lv_img.c ****     if(angle == img->angle) return;
 190:..\..\..\arduinoLCD\test\Pain Drain\libraries\lvgl\src\widgets/lv_img.c **** 
 191:..\..\..\arduinoLCD\test\Pain Drain\libraries\lvgl\src\widgets/lv_img.c ****     lv_obj_update_layout(obj);  /*Be sure the object's size is calculated*/
 192:..\..\..\arduinoLCD\test\Pain Drain\libraries\lvgl\src\widgets/lv_img.c ****     lv_coord_t w = lv_obj_get_width(obj);
 193:..\..\..\arduinoLCD\test\Pain Drain\libraries\lvgl\src\widgets/lv_img.c ****     lv_coord_t h = lv_obj_get_height(obj);
 194:..\..\..\arduinoLCD\test\Pain Drain\libraries\lvgl\src\widgets/lv_img.c ****     lv_area_t a;
 195:..\..\..\arduinoLCD\test\Pain Drain\libraries\lvgl\src\widgets/lv_img.c ****     _lv_img_buf_get_transformed_area(&a, w, h, img->angle, img->zoom, &img->pivot);
 196:..\..\..\arduinoLCD\test\Pain Drain\libraries\lvgl\src\widgets/lv_img.c ****     a.x1 += obj->coords.x1;
 197:..\..\..\arduinoLCD\test\Pain Drain\libraries\lvgl\src\widgets/lv_img.c ****     a.y1 += obj->coords.y1;
 198:..\..\..\arduinoLCD\test\Pain Drain\libraries\lvgl\src\widgets/lv_img.c ****     a.x2 += obj->coords.x1;
 199:..\..\..\arduinoLCD\test\Pain Drain\libraries\lvgl\src\widgets/lv_img.c ****     a.y2 += obj->coords.y1;
 200:..\..\..\arduinoLCD\test\Pain Drain\libraries\lvgl\src\widgets/lv_img.c ****     lv_obj_invalidate_area(obj, &a);
 201:..\..\..\arduinoLCD\test\Pain Drain\libraries\lvgl\src\widgets/lv_img.c **** 
 202:..\..\..\arduinoLCD\test\Pain Drain\libraries\lvgl\src\widgets/lv_img.c ****     img->angle = angle;
ARM GAS  C:\Users\haske\AppData\Local\Temp\ccGWO5DZ.s 			page 5


 203:..\..\..\arduinoLCD\test\Pain Drain\libraries\lvgl\src\widgets/lv_img.c **** 
 204:..\..\..\arduinoLCD\test\Pain Drain\libraries\lvgl\src\widgets/lv_img.c ****     /* Disable invalidations because lv_obj_refresh_ext_draw_size would invalidate
 205:..\..\..\arduinoLCD\test\Pain Drain\libraries\lvgl\src\widgets/lv_img.c ****      * the whole ext draw area */
 206:..\..\..\arduinoLCD\test\Pain Drain\libraries\lvgl\src\widgets/lv_img.c ****     lv_disp_t * disp = lv_obj_get_disp(obj);
 207:..\..\..\arduinoLCD\test\Pain Drain\libraries\lvgl\src\widgets/lv_img.c ****     lv_disp_enable_invalidation(disp, false);
 208:..\..\..\arduinoLCD\test\Pain Drain\libraries\lvgl\src\widgets/lv_img.c ****     lv_obj_refresh_ext_draw_size(obj);
 209:..\..\..\arduinoLCD\test\Pain Drain\libraries\lvgl\src\widgets/lv_img.c ****     lv_disp_enable_invalidation(disp, true);
 210:..\..\..\arduinoLCD\test\Pain Drain\libraries\lvgl\src\widgets/lv_img.c **** 
 211:..\..\..\arduinoLCD\test\Pain Drain\libraries\lvgl\src\widgets/lv_img.c ****     _lv_img_buf_get_transformed_area(&a, w, h, img->angle, img->zoom, &img->pivot);
 212:..\..\..\arduinoLCD\test\Pain Drain\libraries\lvgl\src\widgets/lv_img.c ****     a.x1 += obj->coords.x1;
 213:..\..\..\arduinoLCD\test\Pain Drain\libraries\lvgl\src\widgets/lv_img.c ****     a.y1 += obj->coords.y1;
 214:..\..\..\arduinoLCD\test\Pain Drain\libraries\lvgl\src\widgets/lv_img.c ****     a.x2 += obj->coords.x1;
 215:..\..\..\arduinoLCD\test\Pain Drain\libraries\lvgl\src\widgets/lv_img.c ****     a.y2 += obj->coords.y1;
 216:..\..\..\arduinoLCD\test\Pain Drain\libraries\lvgl\src\widgets/lv_img.c ****     lv_obj_invalidate_area(obj, &a);
 217:..\..\..\arduinoLCD\test\Pain Drain\libraries\lvgl\src\widgets/lv_img.c **** }
 218:..\..\..\arduinoLCD\test\Pain Drain\libraries\lvgl\src\widgets/lv_img.c **** 
 219:..\..\..\arduinoLCD\test\Pain Drain\libraries\lvgl\src\widgets/lv_img.c **** void lv_img_set_pivot(lv_obj_t * obj, lv_coord_t x, lv_coord_t y)
 220:..\..\..\arduinoLCD\test\Pain Drain\libraries\lvgl\src\widgets/lv_img.c **** {
 221:..\..\..\arduinoLCD\test\Pain Drain\libraries\lvgl\src\widgets/lv_img.c ****     lv_img_t * img = (lv_img_t *)obj;
 222:..\..\..\arduinoLCD\test\Pain Drain\libraries\lvgl\src\widgets/lv_img.c ****     if(img->pivot.x == x && img->pivot.y == y) return;
 223:..\..\..\arduinoLCD\test\Pain Drain\libraries\lvgl\src\widgets/lv_img.c **** 
 224:..\..\..\arduinoLCD\test\Pain Drain\libraries\lvgl\src\widgets/lv_img.c ****     lv_obj_update_layout(obj);  /*Be sure the object's size is calculated*/
 225:..\..\..\arduinoLCD\test\Pain Drain\libraries\lvgl\src\widgets/lv_img.c ****     lv_coord_t w = lv_obj_get_width(obj);
 226:..\..\..\arduinoLCD\test\Pain Drain\libraries\lvgl\src\widgets/lv_img.c ****     lv_coord_t h = lv_obj_get_height(obj);
 227:..\..\..\arduinoLCD\test\Pain Drain\libraries\lvgl\src\widgets/lv_img.c ****     lv_area_t a;
 228:..\..\..\arduinoLCD\test\Pain Drain\libraries\lvgl\src\widgets/lv_img.c ****     _lv_img_buf_get_transformed_area(&a, w, h, img->angle, img->zoom, &img->pivot);
 229:..\..\..\arduinoLCD\test\Pain Drain\libraries\lvgl\src\widgets/lv_img.c ****     a.x1 += obj->coords.x1;
 230:..\..\..\arduinoLCD\test\Pain Drain\libraries\lvgl\src\widgets/lv_img.c ****     a.y1 += obj->coords.y1;
 231:..\..\..\arduinoLCD\test\Pain Drain\libraries\lvgl\src\widgets/lv_img.c ****     a.x2 += obj->coords.x1;
 232:..\..\..\arduinoLCD\test\Pain Drain\libraries\lvgl\src\widgets/lv_img.c ****     a.y2 += obj->coords.y1;
 233:..\..\..\arduinoLCD\test\Pain Drain\libraries\lvgl\src\widgets/lv_img.c ****     lv_obj_invalidate_area(obj, &a);
 234:..\..\..\arduinoLCD\test\Pain Drain\libraries\lvgl\src\widgets/lv_img.c **** 
 235:..\..\..\arduinoLCD\test\Pain Drain\libraries\lvgl\src\widgets/lv_img.c ****     img->pivot.x = x;
 236:..\..\..\arduinoLCD\test\Pain Drain\libraries\lvgl\src\widgets/lv_img.c ****     img->pivot.y = y;
 237:..\..\..\arduinoLCD\test\Pain Drain\libraries\lvgl\src\widgets/lv_img.c **** 
 238:..\..\..\arduinoLCD\test\Pain Drain\libraries\lvgl\src\widgets/lv_img.c ****     /* Disable invalidations because lv_obj_refresh_ext_draw_size would invalidate
 239:..\..\..\arduinoLCD\test\Pain Drain\libraries\lvgl\src\widgets/lv_img.c ****      * the whole ext draw area */
 240:..\..\..\arduinoLCD\test\Pain Drain\libraries\lvgl\src\widgets/lv_img.c ****     lv_disp_t * disp = lv_obj_get_disp(obj);
 241:..\..\..\arduinoLCD\test\Pain Drain\libraries\lvgl\src\widgets/lv_img.c ****     lv_disp_enable_invalidation(disp, false);
 242:..\..\..\arduinoLCD\test\Pain Drain\libraries\lvgl\src\widgets/lv_img.c ****     lv_obj_refresh_ext_draw_size(obj);
 243:..\..\..\arduinoLCD\test\Pain Drain\libraries\lvgl\src\widgets/lv_img.c ****     lv_disp_enable_invalidation(disp, true);
 244:..\..\..\arduinoLCD\test\Pain Drain\libraries\lvgl\src\widgets/lv_img.c **** 
 245:..\..\..\arduinoLCD\test\Pain Drain\libraries\lvgl\src\widgets/lv_img.c ****     _lv_img_buf_get_transformed_area(&a, w, h, img->angle, img->zoom, &img->pivot);
 246:..\..\..\arduinoLCD\test\Pain Drain\libraries\lvgl\src\widgets/lv_img.c ****     a.x1 += obj->coords.x1;
 247:..\..\..\arduinoLCD\test\Pain Drain\libraries\lvgl\src\widgets/lv_img.c ****     a.y1 += obj->coords.y1;
 248:..\..\..\arduinoLCD\test\Pain Drain\libraries\lvgl\src\widgets/lv_img.c ****     a.x2 += obj->coords.x1;
 249:..\..\..\arduinoLCD\test\Pain Drain\libraries\lvgl\src\widgets/lv_img.c ****     a.y2 += obj->coords.y1;
 250:..\..\..\arduinoLCD\test\Pain Drain\libraries\lvgl\src\widgets/lv_img.c ****     lv_obj_invalidate_area(obj, &a);
 251:..\..\..\arduinoLCD\test\Pain Drain\libraries\lvgl\src\widgets/lv_img.c **** }
 252:..\..\..\arduinoLCD\test\Pain Drain\libraries\lvgl\src\widgets/lv_img.c **** 
 253:..\..\..\arduinoLCD\test\Pain Drain\libraries\lvgl\src\widgets/lv_img.c **** void lv_img_set_zoom(lv_obj_t * obj, uint16_t zoom)
 254:..\..\..\arduinoLCD\test\Pain Drain\libraries\lvgl\src\widgets/lv_img.c **** {
 255:..\..\..\arduinoLCD\test\Pain Drain\libraries\lvgl\src\widgets/lv_img.c ****     lv_img_t * img = (lv_img_t *)obj;
 256:..\..\..\arduinoLCD\test\Pain Drain\libraries\lvgl\src\widgets/lv_img.c ****     if(zoom == img->zoom) return;
 257:..\..\..\arduinoLCD\test\Pain Drain\libraries\lvgl\src\widgets/lv_img.c **** 
 258:..\..\..\arduinoLCD\test\Pain Drain\libraries\lvgl\src\widgets/lv_img.c ****     if(zoom == 0) zoom = 1;
 259:..\..\..\arduinoLCD\test\Pain Drain\libraries\lvgl\src\widgets/lv_img.c **** 
ARM GAS  C:\Users\haske\AppData\Local\Temp\ccGWO5DZ.s 			page 6


 260:..\..\..\arduinoLCD\test\Pain Drain\libraries\lvgl\src\widgets/lv_img.c ****     lv_obj_update_layout(obj);  /*Be sure the object's size is calculated*/
 261:..\..\..\arduinoLCD\test\Pain Drain\libraries\lvgl\src\widgets/lv_img.c ****     lv_coord_t w = lv_obj_get_width(obj);
 262:..\..\..\arduinoLCD\test\Pain Drain\libraries\lvgl\src\widgets/lv_img.c ****     lv_coord_t h = lv_obj_get_height(obj);
 263:..\..\..\arduinoLCD\test\Pain Drain\libraries\lvgl\src\widgets/lv_img.c ****     lv_area_t a;
 264:..\..\..\arduinoLCD\test\Pain Drain\libraries\lvgl\src\widgets/lv_img.c ****     _lv_img_buf_get_transformed_area(&a, w, h, img->angle, img->zoom >> 8, &img->pivot);
 265:..\..\..\arduinoLCD\test\Pain Drain\libraries\lvgl\src\widgets/lv_img.c ****     a.x1 += obj->coords.x1 - 1;
 266:..\..\..\arduinoLCD\test\Pain Drain\libraries\lvgl\src\widgets/lv_img.c ****     a.y1 += obj->coords.y1 - 1;
 267:..\..\..\arduinoLCD\test\Pain Drain\libraries\lvgl\src\widgets/lv_img.c ****     a.x2 += obj->coords.x1 + 1;
 268:..\..\..\arduinoLCD\test\Pain Drain\libraries\lvgl\src\widgets/lv_img.c ****     a.y2 += obj->coords.y1 + 1;
 269:..\..\..\arduinoLCD\test\Pain Drain\libraries\lvgl\src\widgets/lv_img.c ****     lv_obj_invalidate_area(obj, &a);
 270:..\..\..\arduinoLCD\test\Pain Drain\libraries\lvgl\src\widgets/lv_img.c **** 
 271:..\..\..\arduinoLCD\test\Pain Drain\libraries\lvgl\src\widgets/lv_img.c ****     img->zoom = zoom;
 272:..\..\..\arduinoLCD\test\Pain Drain\libraries\lvgl\src\widgets/lv_img.c **** 
 273:..\..\..\arduinoLCD\test\Pain Drain\libraries\lvgl\src\widgets/lv_img.c ****     /* Disable invalidations because lv_obj_refresh_ext_draw_size would invalidate
 274:..\..\..\arduinoLCD\test\Pain Drain\libraries\lvgl\src\widgets/lv_img.c ****      * the whole ext draw area */
 275:..\..\..\arduinoLCD\test\Pain Drain\libraries\lvgl\src\widgets/lv_img.c ****     lv_disp_t * disp = lv_obj_get_disp(obj);
 276:..\..\..\arduinoLCD\test\Pain Drain\libraries\lvgl\src\widgets/lv_img.c ****     lv_disp_enable_invalidation(disp, false);
 277:..\..\..\arduinoLCD\test\Pain Drain\libraries\lvgl\src\widgets/lv_img.c ****     lv_obj_refresh_ext_draw_size(obj);
 278:..\..\..\arduinoLCD\test\Pain Drain\libraries\lvgl\src\widgets/lv_img.c ****     lv_disp_enable_invalidation(disp, true);
 279:..\..\..\arduinoLCD\test\Pain Drain\libraries\lvgl\src\widgets/lv_img.c **** 
 280:..\..\..\arduinoLCD\test\Pain Drain\libraries\lvgl\src\widgets/lv_img.c ****     _lv_img_buf_get_transformed_area(&a, w, h, img->angle, img->zoom, &img->pivot);
 281:..\..\..\arduinoLCD\test\Pain Drain\libraries\lvgl\src\widgets/lv_img.c ****     a.x1 += obj->coords.x1 - 1;
 282:..\..\..\arduinoLCD\test\Pain Drain\libraries\lvgl\src\widgets/lv_img.c ****     a.y1 += obj->coords.y1 - 1;
 283:..\..\..\arduinoLCD\test\Pain Drain\libraries\lvgl\src\widgets/lv_img.c ****     a.x2 += obj->coords.x1 + 1;
 284:..\..\..\arduinoLCD\test\Pain Drain\libraries\lvgl\src\widgets/lv_img.c ****     a.y2 += obj->coords.y1 + 1;
 285:..\..\..\arduinoLCD\test\Pain Drain\libraries\lvgl\src\widgets/lv_img.c ****     lv_obj_invalidate_area(obj, &a);
 286:..\..\..\arduinoLCD\test\Pain Drain\libraries\lvgl\src\widgets/lv_img.c **** }
 287:..\..\..\arduinoLCD\test\Pain Drain\libraries\lvgl\src\widgets/lv_img.c **** 
 288:..\..\..\arduinoLCD\test\Pain Drain\libraries\lvgl\src\widgets/lv_img.c **** void lv_img_set_antialias(lv_obj_t * obj, bool antialias)
 289:..\..\..\arduinoLCD\test\Pain Drain\libraries\lvgl\src\widgets/lv_img.c **** {
 290:..\..\..\arduinoLCD\test\Pain Drain\libraries\lvgl\src\widgets/lv_img.c ****     lv_img_t * img = (lv_img_t *)obj;
 291:..\..\..\arduinoLCD\test\Pain Drain\libraries\lvgl\src\widgets/lv_img.c ****     if(antialias == img->antialias) return;
 292:..\..\..\arduinoLCD\test\Pain Drain\libraries\lvgl\src\widgets/lv_img.c **** 
 293:..\..\..\arduinoLCD\test\Pain Drain\libraries\lvgl\src\widgets/lv_img.c ****     img->antialias = antialias;
 294:..\..\..\arduinoLCD\test\Pain Drain\libraries\lvgl\src\widgets/lv_img.c ****     lv_obj_invalidate(obj);
 295:..\..\..\arduinoLCD\test\Pain Drain\libraries\lvgl\src\widgets/lv_img.c **** }
 296:..\..\..\arduinoLCD\test\Pain Drain\libraries\lvgl\src\widgets/lv_img.c **** 
 297:..\..\..\arduinoLCD\test\Pain Drain\libraries\lvgl\src\widgets/lv_img.c **** void lv_img_set_size_mode(lv_obj_t * obj, lv_img_size_mode_t mode)
 298:..\..\..\arduinoLCD\test\Pain Drain\libraries\lvgl\src\widgets/lv_img.c **** {
 299:..\..\..\arduinoLCD\test\Pain Drain\libraries\lvgl\src\widgets/lv_img.c ****     LV_ASSERT_OBJ(obj, MY_CLASS);
 300:..\..\..\arduinoLCD\test\Pain Drain\libraries\lvgl\src\widgets/lv_img.c ****     lv_img_t * img = (lv_img_t *)obj;
 301:..\..\..\arduinoLCD\test\Pain Drain\libraries\lvgl\src\widgets/lv_img.c ****     if(mode == img->obj_size_mode) return;
 302:..\..\..\arduinoLCD\test\Pain Drain\libraries\lvgl\src\widgets/lv_img.c **** 
 303:..\..\..\arduinoLCD\test\Pain Drain\libraries\lvgl\src\widgets/lv_img.c ****     img->obj_size_mode = mode;
 304:..\..\..\arduinoLCD\test\Pain Drain\libraries\lvgl\src\widgets/lv_img.c ****     lv_obj_invalidate(obj);
 305:..\..\..\arduinoLCD\test\Pain Drain\libraries\lvgl\src\widgets/lv_img.c **** }
 306:..\..\..\arduinoLCD\test\Pain Drain\libraries\lvgl\src\widgets/lv_img.c **** 
 307:..\..\..\arduinoLCD\test\Pain Drain\libraries\lvgl\src\widgets/lv_img.c **** /*=====================
 308:..\..\..\arduinoLCD\test\Pain Drain\libraries\lvgl\src\widgets/lv_img.c ****  * Getter functions
 309:..\..\..\arduinoLCD\test\Pain Drain\libraries\lvgl\src\widgets/lv_img.c ****  *====================*/
 310:..\..\..\arduinoLCD\test\Pain Drain\libraries\lvgl\src\widgets/lv_img.c **** 
 311:..\..\..\arduinoLCD\test\Pain Drain\libraries\lvgl\src\widgets/lv_img.c **** const void * lv_img_get_src(lv_obj_t * obj)
 312:..\..\..\arduinoLCD\test\Pain Drain\libraries\lvgl\src\widgets/lv_img.c **** {
 313:..\..\..\arduinoLCD\test\Pain Drain\libraries\lvgl\src\widgets/lv_img.c ****     LV_ASSERT_OBJ(obj, MY_CLASS);
 314:..\..\..\arduinoLCD\test\Pain Drain\libraries\lvgl\src\widgets/lv_img.c **** 
 315:..\..\..\arduinoLCD\test\Pain Drain\libraries\lvgl\src\widgets/lv_img.c ****     lv_img_t * img = (lv_img_t *)obj;
 316:..\..\..\arduinoLCD\test\Pain Drain\libraries\lvgl\src\widgets/lv_img.c **** 
ARM GAS  C:\Users\haske\AppData\Local\Temp\ccGWO5DZ.s 			page 7


 317:..\..\..\arduinoLCD\test\Pain Drain\libraries\lvgl\src\widgets/lv_img.c ****     return img->src;
 318:..\..\..\arduinoLCD\test\Pain Drain\libraries\lvgl\src\widgets/lv_img.c **** }
 319:..\..\..\arduinoLCD\test\Pain Drain\libraries\lvgl\src\widgets/lv_img.c **** 
 320:..\..\..\arduinoLCD\test\Pain Drain\libraries\lvgl\src\widgets/lv_img.c **** lv_coord_t lv_img_get_offset_x(lv_obj_t * obj)
 321:..\..\..\arduinoLCD\test\Pain Drain\libraries\lvgl\src\widgets/lv_img.c **** {
 322:..\..\..\arduinoLCD\test\Pain Drain\libraries\lvgl\src\widgets/lv_img.c ****     LV_ASSERT_OBJ(obj, MY_CLASS);
 323:..\..\..\arduinoLCD\test\Pain Drain\libraries\lvgl\src\widgets/lv_img.c **** 
 324:..\..\..\arduinoLCD\test\Pain Drain\libraries\lvgl\src\widgets/lv_img.c ****     lv_img_t * img = (lv_img_t *)obj;
 325:..\..\..\arduinoLCD\test\Pain Drain\libraries\lvgl\src\widgets/lv_img.c **** 
 326:..\..\..\arduinoLCD\test\Pain Drain\libraries\lvgl\src\widgets/lv_img.c ****     return img->offset.x;
 327:..\..\..\arduinoLCD\test\Pain Drain\libraries\lvgl\src\widgets/lv_img.c **** }
 328:..\..\..\arduinoLCD\test\Pain Drain\libraries\lvgl\src\widgets/lv_img.c **** 
 329:..\..\..\arduinoLCD\test\Pain Drain\libraries\lvgl\src\widgets/lv_img.c **** lv_coord_t lv_img_get_offset_y(lv_obj_t * obj)
 330:..\..\..\arduinoLCD\test\Pain Drain\libraries\lvgl\src\widgets/lv_img.c **** {
 331:..\..\..\arduinoLCD\test\Pain Drain\libraries\lvgl\src\widgets/lv_img.c ****     LV_ASSERT_OBJ(obj, MY_CLASS);
 332:..\..\..\arduinoLCD\test\Pain Drain\libraries\lvgl\src\widgets/lv_img.c **** 
 333:..\..\..\arduinoLCD\test\Pain Drain\libraries\lvgl\src\widgets/lv_img.c ****     lv_img_t * img = (lv_img_t *)obj;
 334:..\..\..\arduinoLCD\test\Pain Drain\libraries\lvgl\src\widgets/lv_img.c **** 
 335:..\..\..\arduinoLCD\test\Pain Drain\libraries\lvgl\src\widgets/lv_img.c ****     return img->offset.y;
 336:..\..\..\arduinoLCD\test\Pain Drain\libraries\lvgl\src\widgets/lv_img.c **** }
 337:..\..\..\arduinoLCD\test\Pain Drain\libraries\lvgl\src\widgets/lv_img.c **** 
 338:..\..\..\arduinoLCD\test\Pain Drain\libraries\lvgl\src\widgets/lv_img.c **** uint16_t lv_img_get_angle(lv_obj_t * obj)
 339:..\..\..\arduinoLCD\test\Pain Drain\libraries\lvgl\src\widgets/lv_img.c **** {
 340:..\..\..\arduinoLCD\test\Pain Drain\libraries\lvgl\src\widgets/lv_img.c ****     LV_ASSERT_OBJ(obj, MY_CLASS);
 341:..\..\..\arduinoLCD\test\Pain Drain\libraries\lvgl\src\widgets/lv_img.c **** 
 342:..\..\..\arduinoLCD\test\Pain Drain\libraries\lvgl\src\widgets/lv_img.c ****     lv_img_t * img = (lv_img_t *)obj;
 343:..\..\..\arduinoLCD\test\Pain Drain\libraries\lvgl\src\widgets/lv_img.c **** 
 344:..\..\..\arduinoLCD\test\Pain Drain\libraries\lvgl\src\widgets/lv_img.c ****     return img->angle;
 345:..\..\..\arduinoLCD\test\Pain Drain\libraries\lvgl\src\widgets/lv_img.c **** }
 346:..\..\..\arduinoLCD\test\Pain Drain\libraries\lvgl\src\widgets/lv_img.c **** 
 347:..\..\..\arduinoLCD\test\Pain Drain\libraries\lvgl\src\widgets/lv_img.c **** void lv_img_get_pivot(lv_obj_t * obj, lv_point_t * pivot)
 348:..\..\..\arduinoLCD\test\Pain Drain\libraries\lvgl\src\widgets/lv_img.c **** {
 349:..\..\..\arduinoLCD\test\Pain Drain\libraries\lvgl\src\widgets/lv_img.c ****     LV_ASSERT_OBJ(obj, MY_CLASS);
 350:..\..\..\arduinoLCD\test\Pain Drain\libraries\lvgl\src\widgets/lv_img.c **** 
 351:..\..\..\arduinoLCD\test\Pain Drain\libraries\lvgl\src\widgets/lv_img.c ****     lv_img_t * img = (lv_img_t *)obj;
 352:..\..\..\arduinoLCD\test\Pain Drain\libraries\lvgl\src\widgets/lv_img.c **** 
 353:..\..\..\arduinoLCD\test\Pain Drain\libraries\lvgl\src\widgets/lv_img.c ****     *pivot = img->pivot;
 354:..\..\..\arduinoLCD\test\Pain Drain\libraries\lvgl\src\widgets/lv_img.c **** }
 355:..\..\..\arduinoLCD\test\Pain Drain\libraries\lvgl\src\widgets/lv_img.c **** 
 356:..\..\..\arduinoLCD\test\Pain Drain\libraries\lvgl\src\widgets/lv_img.c **** uint16_t lv_img_get_zoom(lv_obj_t * obj)
 357:..\..\..\arduinoLCD\test\Pain Drain\libraries\lvgl\src\widgets/lv_img.c **** {
 358:..\..\..\arduinoLCD\test\Pain Drain\libraries\lvgl\src\widgets/lv_img.c ****     LV_ASSERT_OBJ(obj, MY_CLASS);
 359:..\..\..\arduinoLCD\test\Pain Drain\libraries\lvgl\src\widgets/lv_img.c **** 
 360:..\..\..\arduinoLCD\test\Pain Drain\libraries\lvgl\src\widgets/lv_img.c ****     lv_img_t * img = (lv_img_t *)obj;
 361:..\..\..\arduinoLCD\test\Pain Drain\libraries\lvgl\src\widgets/lv_img.c **** 
 362:..\..\..\arduinoLCD\test\Pain Drain\libraries\lvgl\src\widgets/lv_img.c ****     return img->zoom;
 363:..\..\..\arduinoLCD\test\Pain Drain\libraries\lvgl\src\widgets/lv_img.c **** }
 364:..\..\..\arduinoLCD\test\Pain Drain\libraries\lvgl\src\widgets/lv_img.c **** 
 365:..\..\..\arduinoLCD\test\Pain Drain\libraries\lvgl\src\widgets/lv_img.c **** bool lv_img_get_antialias(lv_obj_t * obj)
 366:..\..\..\arduinoLCD\test\Pain Drain\libraries\lvgl\src\widgets/lv_img.c **** {
 367:..\..\..\arduinoLCD\test\Pain Drain\libraries\lvgl\src\widgets/lv_img.c ****     LV_ASSERT_OBJ(obj, MY_CLASS);
 368:..\..\..\arduinoLCD\test\Pain Drain\libraries\lvgl\src\widgets/lv_img.c **** 
 369:..\..\..\arduinoLCD\test\Pain Drain\libraries\lvgl\src\widgets/lv_img.c ****     lv_img_t * img = (lv_img_t *)obj;
 370:..\..\..\arduinoLCD\test\Pain Drain\libraries\lvgl\src\widgets/lv_img.c **** 
 371:..\..\..\arduinoLCD\test\Pain Drain\libraries\lvgl\src\widgets/lv_img.c ****     return img->antialias ? true : false;
 372:..\..\..\arduinoLCD\test\Pain Drain\libraries\lvgl\src\widgets/lv_img.c **** }
 373:..\..\..\arduinoLCD\test\Pain Drain\libraries\lvgl\src\widgets/lv_img.c **** 
ARM GAS  C:\Users\haske\AppData\Local\Temp\ccGWO5DZ.s 			page 8


 374:..\..\..\arduinoLCD\test\Pain Drain\libraries\lvgl\src\widgets/lv_img.c **** lv_img_size_mode_t lv_img_get_size_mode(lv_obj_t * obj)
 375:..\..\..\arduinoLCD\test\Pain Drain\libraries\lvgl\src\widgets/lv_img.c **** {
 376:..\..\..\arduinoLCD\test\Pain Drain\libraries\lvgl\src\widgets/lv_img.c ****     LV_ASSERT_OBJ(obj, MY_CLASS);
 377:..\..\..\arduinoLCD\test\Pain Drain\libraries\lvgl\src\widgets/lv_img.c ****     lv_img_t * img = (lv_img_t *)obj;
 378:..\..\..\arduinoLCD\test\Pain Drain\libraries\lvgl\src\widgets/lv_img.c ****     return img->obj_size_mode;
 379:..\..\..\arduinoLCD\test\Pain Drain\libraries\lvgl\src\widgets/lv_img.c **** }
 380:..\..\..\arduinoLCD\test\Pain Drain\libraries\lvgl\src\widgets/lv_img.c **** 
 381:..\..\..\arduinoLCD\test\Pain Drain\libraries\lvgl\src\widgets/lv_img.c **** /**********************
 382:..\..\..\arduinoLCD\test\Pain Drain\libraries\lvgl\src\widgets/lv_img.c ****  *   STATIC FUNCTIONS
 383:..\..\..\arduinoLCD\test\Pain Drain\libraries\lvgl\src\widgets/lv_img.c ****  **********************/
 384:..\..\..\arduinoLCD\test\Pain Drain\libraries\lvgl\src\widgets/lv_img.c **** 
 385:..\..\..\arduinoLCD\test\Pain Drain\libraries\lvgl\src\widgets/lv_img.c **** static void lv_img_constructor(const lv_obj_class_t * class_p, lv_obj_t * obj)
 386:..\..\..\arduinoLCD\test\Pain Drain\libraries\lvgl\src\widgets/lv_img.c **** {
 387:..\..\..\arduinoLCD\test\Pain Drain\libraries\lvgl\src\widgets/lv_img.c ****     LV_UNUSED(class_p);
 388:..\..\..\arduinoLCD\test\Pain Drain\libraries\lvgl\src\widgets/lv_img.c ****     LV_TRACE_OBJ_CREATE("begin");
 389:..\..\..\arduinoLCD\test\Pain Drain\libraries\lvgl\src\widgets/lv_img.c **** 
 390:..\..\..\arduinoLCD\test\Pain Drain\libraries\lvgl\src\widgets/lv_img.c ****     lv_img_t * img = (lv_img_t *)obj;
 391:..\..\..\arduinoLCD\test\Pain Drain\libraries\lvgl\src\widgets/lv_img.c **** 
 392:..\..\..\arduinoLCD\test\Pain Drain\libraries\lvgl\src\widgets/lv_img.c ****     img->src       = NULL;
 393:..\..\..\arduinoLCD\test\Pain Drain\libraries\lvgl\src\widgets/lv_img.c ****     img->src_type  = LV_IMG_SRC_UNKNOWN;
 394:..\..\..\arduinoLCD\test\Pain Drain\libraries\lvgl\src\widgets/lv_img.c ****     img->cf        = LV_IMG_CF_UNKNOWN;
 395:..\..\..\arduinoLCD\test\Pain Drain\libraries\lvgl\src\widgets/lv_img.c ****     img->w         = lv_obj_get_width(obj);
 396:..\..\..\arduinoLCD\test\Pain Drain\libraries\lvgl\src\widgets/lv_img.c ****     img->h         = lv_obj_get_height(obj);
 397:..\..\..\arduinoLCD\test\Pain Drain\libraries\lvgl\src\widgets/lv_img.c ****     img->angle = 0;
 398:..\..\..\arduinoLCD\test\Pain Drain\libraries\lvgl\src\widgets/lv_img.c ****     img->zoom = LV_IMG_ZOOM_NONE;
 399:..\..\..\arduinoLCD\test\Pain Drain\libraries\lvgl\src\widgets/lv_img.c ****     img->antialias = LV_COLOR_DEPTH > 8 ? 1 : 0;
 400:..\..\..\arduinoLCD\test\Pain Drain\libraries\lvgl\src\widgets/lv_img.c ****     img->offset.x  = 0;
 401:..\..\..\arduinoLCD\test\Pain Drain\libraries\lvgl\src\widgets/lv_img.c ****     img->offset.y  = 0;
 402:..\..\..\arduinoLCD\test\Pain Drain\libraries\lvgl\src\widgets/lv_img.c ****     img->pivot.x = 0;
 403:..\..\..\arduinoLCD\test\Pain Drain\libraries\lvgl\src\widgets/lv_img.c ****     img->pivot.y = 0;
 404:..\..\..\arduinoLCD\test\Pain Drain\libraries\lvgl\src\widgets/lv_img.c ****     img->obj_size_mode = LV_IMG_SIZE_MODE_VIRTUAL;
 405:..\..\..\arduinoLCD\test\Pain Drain\libraries\lvgl\src\widgets/lv_img.c **** 
 406:..\..\..\arduinoLCD\test\Pain Drain\libraries\lvgl\src\widgets/lv_img.c ****     lv_obj_clear_flag(obj, LV_OBJ_FLAG_CLICKABLE);
 407:..\..\..\arduinoLCD\test\Pain Drain\libraries\lvgl\src\widgets/lv_img.c ****     lv_obj_add_flag(obj, LV_OBJ_FLAG_ADV_HITTEST);
 408:..\..\..\arduinoLCD\test\Pain Drain\libraries\lvgl\src\widgets/lv_img.c **** 
 409:..\..\..\arduinoLCD\test\Pain Drain\libraries\lvgl\src\widgets/lv_img.c ****     LV_TRACE_OBJ_CREATE("finished");
 410:..\..\..\arduinoLCD\test\Pain Drain\libraries\lvgl\src\widgets/lv_img.c **** }
 411:..\..\..\arduinoLCD\test\Pain Drain\libraries\lvgl\src\widgets/lv_img.c **** 
 412:..\..\..\arduinoLCD\test\Pain Drain\libraries\lvgl\src\widgets/lv_img.c **** static void lv_img_destructor(const lv_obj_class_t * class_p, lv_obj_t * obj)
 413:..\..\..\arduinoLCD\test\Pain Drain\libraries\lvgl\src\widgets/lv_img.c **** {
 414:..\..\..\arduinoLCD\test\Pain Drain\libraries\lvgl\src\widgets/lv_img.c ****     LV_UNUSED(class_p);
 415:..\..\..\arduinoLCD\test\Pain Drain\libraries\lvgl\src\widgets/lv_img.c ****     lv_img_t * img = (lv_img_t *)obj;
 416:..\..\..\arduinoLCD\test\Pain Drain\libraries\lvgl\src\widgets/lv_img.c ****     if(img->src_type == LV_IMG_SRC_FILE || img->src_type == LV_IMG_SRC_SYMBOL) {
 417:..\..\..\arduinoLCD\test\Pain Drain\libraries\lvgl\src\widgets/lv_img.c ****         lv_mem_free((void *)img->src);
 418:..\..\..\arduinoLCD\test\Pain Drain\libraries\lvgl\src\widgets/lv_img.c ****         img->src      = NULL;
 419:..\..\..\arduinoLCD\test\Pain Drain\libraries\lvgl\src\widgets/lv_img.c ****         img->src_type = LV_IMG_SRC_UNKNOWN;
 420:..\..\..\arduinoLCD\test\Pain Drain\libraries\lvgl\src\widgets/lv_img.c ****     }
 421:..\..\..\arduinoLCD\test\Pain Drain\libraries\lvgl\src\widgets/lv_img.c **** }
 422:..\..\..\arduinoLCD\test\Pain Drain\libraries\lvgl\src\widgets/lv_img.c **** 
 423:..\..\..\arduinoLCD\test\Pain Drain\libraries\lvgl\src\widgets/lv_img.c **** static lv_point_t lv_img_get_transformed_size(lv_obj_t * obj)
 424:..\..\..\arduinoLCD\test\Pain Drain\libraries\lvgl\src\widgets/lv_img.c **** {
  27              		.loc 1 424 0
  28              		.cfi_startproc
  29              		@ args = 0, pretend = 0, frame = 16
  30              		@ frame_needed = 0, uses_anonymous_args = 0
  31              	.LVL0:
  32 0000 30B5     		push	{r4, r5, lr}
ARM GAS  C:\Users\haske\AppData\Local\Temp\ccGWO5DZ.s 			page 9


  33              		.cfi_def_cfa_offset 12
  34              		.cfi_offset 4, -12
  35              		.cfi_offset 5, -8
  36              		.cfi_offset 14, -4
  37 0002 87B0     		sub	sp, sp, #28
  38              		.cfi_def_cfa_offset 40
  39              	.LVL1:
 425:..\..\..\arduinoLCD\test\Pain Drain\libraries\lvgl\src\widgets/lv_img.c ****     lv_img_t * img = (lv_img_t *)obj;
 426:..\..\..\arduinoLCD\test\Pain Drain\libraries\lvgl\src\widgets/lv_img.c **** 
 427:..\..\..\arduinoLCD\test\Pain Drain\libraries\lvgl\src\widgets/lv_img.c **** 
 428:..\..\..\arduinoLCD\test\Pain Drain\libraries\lvgl\src\widgets/lv_img.c ****     lv_area_t area_transform;
 429:..\..\..\arduinoLCD\test\Pain Drain\libraries\lvgl\src\widgets/lv_img.c ****     _lv_img_buf_get_transformed_area(&area_transform, img->w, img->h,
 430:..\..\..\arduinoLCD\test\Pain Drain\libraries\lvgl\src\widgets/lv_img.c ****                                      img->angle, img->zoom, &img->pivot);
  40              		.loc 1 430 0
  41 0004 0500     		movs	r5, r0
  42 0006 3235     		adds	r5, r5, #50
 429:..\..\..\arduinoLCD\test\Pain Drain\libraries\lvgl\src\widgets/lv_img.c ****                                      img->angle, img->zoom, &img->pivot);
  43              		.loc 1 429 0
  44 0008 3022     		movs	r2, #48
  45 000a 835E     		ldrsh	r3, [r0, r2]
  46 000c 2E21     		movs	r1, #46
  47 000e 425E     		ldrsh	r2, [r0, r1]
  48 0010 2C24     		movs	r4, #44
  49 0012 015F     		ldrsh	r1, [r0, r4]
  50 0014 03AC     		add	r4, sp, #12
  51 0016 0195     		str	r5, [sp, #4]
  52 0018 C08E     		ldrh	r0, [r0, #54]
  53              	.LVL2:
  54 001a 0090     		str	r0, [sp]
  55 001c 2000     		movs	r0, r4
  56 001e FFF7FEFF 		bl	_lv_img_buf_get_transformed_area
  57              	.LVL3:
  58              	.LBB44:
  59              	.LBB45:
  60              		.file 2 "c:\\projects\\paindrain\\arduinolcd\\test\\pain drain\\libraries\\lvgl\\src\\misc\\lv_are
   1:c:\projects\paindrain\arduinolcd\test\pain drain\libraries\lvgl\src\misc\lv_area.h **** /**
   2:c:\projects\paindrain\arduinolcd\test\pain drain\libraries\lvgl\src\misc\lv_area.h ****  * @file lv_area.h
   3:c:\projects\paindrain\arduinolcd\test\pain drain\libraries\lvgl\src\misc\lv_area.h ****  *
   4:c:\projects\paindrain\arduinolcd\test\pain drain\libraries\lvgl\src\misc\lv_area.h ****  */
   5:c:\projects\paindrain\arduinolcd\test\pain drain\libraries\lvgl\src\misc\lv_area.h **** 
   6:c:\projects\paindrain\arduinolcd\test\pain drain\libraries\lvgl\src\misc\lv_area.h **** #ifndef LV_AREA_H
   7:c:\projects\paindrain\arduinolcd\test\pain drain\libraries\lvgl\src\misc\lv_area.h **** #define LV_AREA_H
   8:c:\projects\paindrain\arduinolcd\test\pain drain\libraries\lvgl\src\misc\lv_area.h **** 
   9:c:\projects\paindrain\arduinolcd\test\pain drain\libraries\lvgl\src\misc\lv_area.h **** #ifdef __cplusplus
  10:c:\projects\paindrain\arduinolcd\test\pain drain\libraries\lvgl\src\misc\lv_area.h **** extern "C" {
  11:c:\projects\paindrain\arduinolcd\test\pain drain\libraries\lvgl\src\misc\lv_area.h **** #endif
  12:c:\projects\paindrain\arduinolcd\test\pain drain\libraries\lvgl\src\misc\lv_area.h **** 
  13:c:\projects\paindrain\arduinolcd\test\pain drain\libraries\lvgl\src\misc\lv_area.h **** /*********************
  14:c:\projects\paindrain\arduinolcd\test\pain drain\libraries\lvgl\src\misc\lv_area.h ****  *      INCLUDES
  15:c:\projects\paindrain\arduinolcd\test\pain drain\libraries\lvgl\src\misc\lv_area.h ****  *********************/
  16:c:\projects\paindrain\arduinolcd\test\pain drain\libraries\lvgl\src\misc\lv_area.h **** #include "../lv_conf_internal.h"
  17:c:\projects\paindrain\arduinolcd\test\pain drain\libraries\lvgl\src\misc\lv_area.h **** #include <stdbool.h>
  18:c:\projects\paindrain\arduinolcd\test\pain drain\libraries\lvgl\src\misc\lv_area.h **** #include <stdint.h>
  19:c:\projects\paindrain\arduinolcd\test\pain drain\libraries\lvgl\src\misc\lv_area.h **** 
  20:c:\projects\paindrain\arduinolcd\test\pain drain\libraries\lvgl\src\misc\lv_area.h **** /*********************
  21:c:\projects\paindrain\arduinolcd\test\pain drain\libraries\lvgl\src\misc\lv_area.h ****  *      DEFINES
  22:c:\projects\paindrain\arduinolcd\test\pain drain\libraries\lvgl\src\misc\lv_area.h ****  *********************/
ARM GAS  C:\Users\haske\AppData\Local\Temp\ccGWO5DZ.s 			page 10


  23:c:\projects\paindrain\arduinolcd\test\pain drain\libraries\lvgl\src\misc\lv_area.h **** 
  24:c:\projects\paindrain\arduinolcd\test\pain drain\libraries\lvgl\src\misc\lv_area.h **** #if LV_USE_LARGE_COORD
  25:c:\projects\paindrain\arduinolcd\test\pain drain\libraries\lvgl\src\misc\lv_area.h **** typedef int32_t lv_coord_t;
  26:c:\projects\paindrain\arduinolcd\test\pain drain\libraries\lvgl\src\misc\lv_area.h **** #else
  27:c:\projects\paindrain\arduinolcd\test\pain drain\libraries\lvgl\src\misc\lv_area.h **** typedef int16_t lv_coord_t;
  28:c:\projects\paindrain\arduinolcd\test\pain drain\libraries\lvgl\src\misc\lv_area.h **** #endif
  29:c:\projects\paindrain\arduinolcd\test\pain drain\libraries\lvgl\src\misc\lv_area.h **** 
  30:c:\projects\paindrain\arduinolcd\test\pain drain\libraries\lvgl\src\misc\lv_area.h **** /**********************
  31:c:\projects\paindrain\arduinolcd\test\pain drain\libraries\lvgl\src\misc\lv_area.h ****  *      TYPEDEFS
  32:c:\projects\paindrain\arduinolcd\test\pain drain\libraries\lvgl\src\misc\lv_area.h ****  **********************/
  33:c:\projects\paindrain\arduinolcd\test\pain drain\libraries\lvgl\src\misc\lv_area.h **** 
  34:c:\projects\paindrain\arduinolcd\test\pain drain\libraries\lvgl\src\misc\lv_area.h **** /**
  35:c:\projects\paindrain\arduinolcd\test\pain drain\libraries\lvgl\src\misc\lv_area.h ****  * Represents a point on the screen.
  36:c:\projects\paindrain\arduinolcd\test\pain drain\libraries\lvgl\src\misc\lv_area.h ****  */
  37:c:\projects\paindrain\arduinolcd\test\pain drain\libraries\lvgl\src\misc\lv_area.h **** typedef struct {
  38:c:\projects\paindrain\arduinolcd\test\pain drain\libraries\lvgl\src\misc\lv_area.h ****     lv_coord_t x;
  39:c:\projects\paindrain\arduinolcd\test\pain drain\libraries\lvgl\src\misc\lv_area.h ****     lv_coord_t y;
  40:c:\projects\paindrain\arduinolcd\test\pain drain\libraries\lvgl\src\misc\lv_area.h **** } lv_point_t;
  41:c:\projects\paindrain\arduinolcd\test\pain drain\libraries\lvgl\src\misc\lv_area.h **** 
  42:c:\projects\paindrain\arduinolcd\test\pain drain\libraries\lvgl\src\misc\lv_area.h **** /** Represents an area of the screen.*/
  43:c:\projects\paindrain\arduinolcd\test\pain drain\libraries\lvgl\src\misc\lv_area.h **** typedef struct {
  44:c:\projects\paindrain\arduinolcd\test\pain drain\libraries\lvgl\src\misc\lv_area.h ****     lv_coord_t x1;
  45:c:\projects\paindrain\arduinolcd\test\pain drain\libraries\lvgl\src\misc\lv_area.h ****     lv_coord_t y1;
  46:c:\projects\paindrain\arduinolcd\test\pain drain\libraries\lvgl\src\misc\lv_area.h ****     lv_coord_t x2;
  47:c:\projects\paindrain\arduinolcd\test\pain drain\libraries\lvgl\src\misc\lv_area.h ****     lv_coord_t y2;
  48:c:\projects\paindrain\arduinolcd\test\pain drain\libraries\lvgl\src\misc\lv_area.h **** } lv_area_t;
  49:c:\projects\paindrain\arduinolcd\test\pain drain\libraries\lvgl\src\misc\lv_area.h **** 
  50:c:\projects\paindrain\arduinolcd\test\pain drain\libraries\lvgl\src\misc\lv_area.h **** /** Alignments*/
  51:c:\projects\paindrain\arduinolcd\test\pain drain\libraries\lvgl\src\misc\lv_area.h **** enum {
  52:c:\projects\paindrain\arduinolcd\test\pain drain\libraries\lvgl\src\misc\lv_area.h ****     LV_ALIGN_DEFAULT = 0,
  53:c:\projects\paindrain\arduinolcd\test\pain drain\libraries\lvgl\src\misc\lv_area.h ****     LV_ALIGN_TOP_LEFT,
  54:c:\projects\paindrain\arduinolcd\test\pain drain\libraries\lvgl\src\misc\lv_area.h ****     LV_ALIGN_TOP_MID,
  55:c:\projects\paindrain\arduinolcd\test\pain drain\libraries\lvgl\src\misc\lv_area.h ****     LV_ALIGN_TOP_RIGHT,
  56:c:\projects\paindrain\arduinolcd\test\pain drain\libraries\lvgl\src\misc\lv_area.h ****     LV_ALIGN_BOTTOM_LEFT,
  57:c:\projects\paindrain\arduinolcd\test\pain drain\libraries\lvgl\src\misc\lv_area.h ****     LV_ALIGN_BOTTOM_MID,
  58:c:\projects\paindrain\arduinolcd\test\pain drain\libraries\lvgl\src\misc\lv_area.h ****     LV_ALIGN_BOTTOM_RIGHT,
  59:c:\projects\paindrain\arduinolcd\test\pain drain\libraries\lvgl\src\misc\lv_area.h ****     LV_ALIGN_LEFT_MID,
  60:c:\projects\paindrain\arduinolcd\test\pain drain\libraries\lvgl\src\misc\lv_area.h ****     LV_ALIGN_RIGHT_MID,
  61:c:\projects\paindrain\arduinolcd\test\pain drain\libraries\lvgl\src\misc\lv_area.h ****     LV_ALIGN_CENTER,
  62:c:\projects\paindrain\arduinolcd\test\pain drain\libraries\lvgl\src\misc\lv_area.h **** 
  63:c:\projects\paindrain\arduinolcd\test\pain drain\libraries\lvgl\src\misc\lv_area.h ****     LV_ALIGN_OUT_TOP_LEFT,
  64:c:\projects\paindrain\arduinolcd\test\pain drain\libraries\lvgl\src\misc\lv_area.h ****     LV_ALIGN_OUT_TOP_MID,
  65:c:\projects\paindrain\arduinolcd\test\pain drain\libraries\lvgl\src\misc\lv_area.h ****     LV_ALIGN_OUT_TOP_RIGHT,
  66:c:\projects\paindrain\arduinolcd\test\pain drain\libraries\lvgl\src\misc\lv_area.h ****     LV_ALIGN_OUT_BOTTOM_LEFT,
  67:c:\projects\paindrain\arduinolcd\test\pain drain\libraries\lvgl\src\misc\lv_area.h ****     LV_ALIGN_OUT_BOTTOM_MID,
  68:c:\projects\paindrain\arduinolcd\test\pain drain\libraries\lvgl\src\misc\lv_area.h ****     LV_ALIGN_OUT_BOTTOM_RIGHT,
  69:c:\projects\paindrain\arduinolcd\test\pain drain\libraries\lvgl\src\misc\lv_area.h ****     LV_ALIGN_OUT_LEFT_TOP,
  70:c:\projects\paindrain\arduinolcd\test\pain drain\libraries\lvgl\src\misc\lv_area.h ****     LV_ALIGN_OUT_LEFT_MID,
  71:c:\projects\paindrain\arduinolcd\test\pain drain\libraries\lvgl\src\misc\lv_area.h ****     LV_ALIGN_OUT_LEFT_BOTTOM,
  72:c:\projects\paindrain\arduinolcd\test\pain drain\libraries\lvgl\src\misc\lv_area.h ****     LV_ALIGN_OUT_RIGHT_TOP,
  73:c:\projects\paindrain\arduinolcd\test\pain drain\libraries\lvgl\src\misc\lv_area.h ****     LV_ALIGN_OUT_RIGHT_MID,
  74:c:\projects\paindrain\arduinolcd\test\pain drain\libraries\lvgl\src\misc\lv_area.h ****     LV_ALIGN_OUT_RIGHT_BOTTOM,
  75:c:\projects\paindrain\arduinolcd\test\pain drain\libraries\lvgl\src\misc\lv_area.h **** };
  76:c:\projects\paindrain\arduinolcd\test\pain drain\libraries\lvgl\src\misc\lv_area.h **** typedef uint8_t lv_align_t;
  77:c:\projects\paindrain\arduinolcd\test\pain drain\libraries\lvgl\src\misc\lv_area.h **** 
  78:c:\projects\paindrain\arduinolcd\test\pain drain\libraries\lvgl\src\misc\lv_area.h **** enum {
  79:c:\projects\paindrain\arduinolcd\test\pain drain\libraries\lvgl\src\misc\lv_area.h ****     LV_DIR_NONE     = 0x00,
ARM GAS  C:\Users\haske\AppData\Local\Temp\ccGWO5DZ.s 			page 11


  80:c:\projects\paindrain\arduinolcd\test\pain drain\libraries\lvgl\src\misc\lv_area.h ****     LV_DIR_LEFT     = (1 << 0),
  81:c:\projects\paindrain\arduinolcd\test\pain drain\libraries\lvgl\src\misc\lv_area.h ****     LV_DIR_RIGHT    = (1 << 1),
  82:c:\projects\paindrain\arduinolcd\test\pain drain\libraries\lvgl\src\misc\lv_area.h ****     LV_DIR_TOP      = (1 << 2),
  83:c:\projects\paindrain\arduinolcd\test\pain drain\libraries\lvgl\src\misc\lv_area.h ****     LV_DIR_BOTTOM   = (1 << 3),
  84:c:\projects\paindrain\arduinolcd\test\pain drain\libraries\lvgl\src\misc\lv_area.h ****     LV_DIR_HOR      = LV_DIR_LEFT | LV_DIR_RIGHT,
  85:c:\projects\paindrain\arduinolcd\test\pain drain\libraries\lvgl\src\misc\lv_area.h ****     LV_DIR_VER      = LV_DIR_TOP | LV_DIR_BOTTOM,
  86:c:\projects\paindrain\arduinolcd\test\pain drain\libraries\lvgl\src\misc\lv_area.h ****     LV_DIR_ALL      = LV_DIR_HOR | LV_DIR_VER,
  87:c:\projects\paindrain\arduinolcd\test\pain drain\libraries\lvgl\src\misc\lv_area.h **** };
  88:c:\projects\paindrain\arduinolcd\test\pain drain\libraries\lvgl\src\misc\lv_area.h **** 
  89:c:\projects\paindrain\arduinolcd\test\pain drain\libraries\lvgl\src\misc\lv_area.h **** typedef uint8_t lv_dir_t;
  90:c:\projects\paindrain\arduinolcd\test\pain drain\libraries\lvgl\src\misc\lv_area.h **** 
  91:c:\projects\paindrain\arduinolcd\test\pain drain\libraries\lvgl\src\misc\lv_area.h **** /**********************
  92:c:\projects\paindrain\arduinolcd\test\pain drain\libraries\lvgl\src\misc\lv_area.h ****  * GLOBAL PROTOTYPES
  93:c:\projects\paindrain\arduinolcd\test\pain drain\libraries\lvgl\src\misc\lv_area.h ****  **********************/
  94:c:\projects\paindrain\arduinolcd\test\pain drain\libraries\lvgl\src\misc\lv_area.h **** 
  95:c:\projects\paindrain\arduinolcd\test\pain drain\libraries\lvgl\src\misc\lv_area.h **** /**
  96:c:\projects\paindrain\arduinolcd\test\pain drain\libraries\lvgl\src\misc\lv_area.h ****  * Initialize an area
  97:c:\projects\paindrain\arduinolcd\test\pain drain\libraries\lvgl\src\misc\lv_area.h ****  * @param area_p pointer to an area
  98:c:\projects\paindrain\arduinolcd\test\pain drain\libraries\lvgl\src\misc\lv_area.h ****  * @param x1 left coordinate of the area
  99:c:\projects\paindrain\arduinolcd\test\pain drain\libraries\lvgl\src\misc\lv_area.h ****  * @param y1 top coordinate of the area
 100:c:\projects\paindrain\arduinolcd\test\pain drain\libraries\lvgl\src\misc\lv_area.h ****  * @param x2 right coordinate of the area
 101:c:\projects\paindrain\arduinolcd\test\pain drain\libraries\lvgl\src\misc\lv_area.h ****  * @param y2 bottom coordinate of the area
 102:c:\projects\paindrain\arduinolcd\test\pain drain\libraries\lvgl\src\misc\lv_area.h ****  */
 103:c:\projects\paindrain\arduinolcd\test\pain drain\libraries\lvgl\src\misc\lv_area.h **** void lv_area_set(lv_area_t * area_p, lv_coord_t x1, lv_coord_t y1, lv_coord_t x2, lv_coord_t y2);
 104:c:\projects\paindrain\arduinolcd\test\pain drain\libraries\lvgl\src\misc\lv_area.h **** 
 105:c:\projects\paindrain\arduinolcd\test\pain drain\libraries\lvgl\src\misc\lv_area.h **** /**
 106:c:\projects\paindrain\arduinolcd\test\pain drain\libraries\lvgl\src\misc\lv_area.h ****  * Copy an area
 107:c:\projects\paindrain\arduinolcd\test\pain drain\libraries\lvgl\src\misc\lv_area.h ****  * @param dest pointer to the destination area
 108:c:\projects\paindrain\arduinolcd\test\pain drain\libraries\lvgl\src\misc\lv_area.h ****  * @param src pointer to the source area
 109:c:\projects\paindrain\arduinolcd\test\pain drain\libraries\lvgl\src\misc\lv_area.h ****  */
 110:c:\projects\paindrain\arduinolcd\test\pain drain\libraries\lvgl\src\misc\lv_area.h **** inline static void lv_area_copy(lv_area_t * dest, const lv_area_t * src)
 111:c:\projects\paindrain\arduinolcd\test\pain drain\libraries\lvgl\src\misc\lv_area.h **** {
 112:c:\projects\paindrain\arduinolcd\test\pain drain\libraries\lvgl\src\misc\lv_area.h ****     dest->x1 = src->x1;
 113:c:\projects\paindrain\arduinolcd\test\pain drain\libraries\lvgl\src\misc\lv_area.h ****     dest->y1 = src->y1;
 114:c:\projects\paindrain\arduinolcd\test\pain drain\libraries\lvgl\src\misc\lv_area.h ****     dest->x2 = src->x2;
 115:c:\projects\paindrain\arduinolcd\test\pain drain\libraries\lvgl\src\misc\lv_area.h ****     dest->y2 = src->y2;
 116:c:\projects\paindrain\arduinolcd\test\pain drain\libraries\lvgl\src\misc\lv_area.h **** }
 117:c:\projects\paindrain\arduinolcd\test\pain drain\libraries\lvgl\src\misc\lv_area.h **** 
 118:c:\projects\paindrain\arduinolcd\test\pain drain\libraries\lvgl\src\misc\lv_area.h **** /**
 119:c:\projects\paindrain\arduinolcd\test\pain drain\libraries\lvgl\src\misc\lv_area.h ****  * Get the width of an area
 120:c:\projects\paindrain\arduinolcd\test\pain drain\libraries\lvgl\src\misc\lv_area.h ****  * @param area_p pointer to an area
 121:c:\projects\paindrain\arduinolcd\test\pain drain\libraries\lvgl\src\misc\lv_area.h ****  * @return the width of the area (if x1 == x2 -> width = 1)
 122:c:\projects\paindrain\arduinolcd\test\pain drain\libraries\lvgl\src\misc\lv_area.h ****  */
 123:c:\projects\paindrain\arduinolcd\test\pain drain\libraries\lvgl\src\misc\lv_area.h **** static inline lv_coord_t lv_area_get_width(const lv_area_t * area_p)
 124:c:\projects\paindrain\arduinolcd\test\pain drain\libraries\lvgl\src\misc\lv_area.h **** {
 125:c:\projects\paindrain\arduinolcd\test\pain drain\libraries\lvgl\src\misc\lv_area.h ****     return (lv_coord_t)(area_p->x2 - area_p->x1 + 1);
  61              		.loc 2 125 0
  62 0022 0422     		movs	r2, #4
  63 0024 A35E     		ldrsh	r3, [r4, r2]
  64 0026 0021     		movs	r1, #0
  65 0028 625E     		ldrsh	r2, [r4, r1]
  66 002a 9A1A     		subs	r2, r3, r2
  67              	.LVL4:
  68              	.LBE45:
  69              	.LBE44:
  70              	.LBB46:
  71              	.LBB47:
ARM GAS  C:\Users\haske\AppData\Local\Temp\ccGWO5DZ.s 			page 12


 126:c:\projects\paindrain\arduinolcd\test\pain drain\libraries\lvgl\src\misc\lv_area.h **** }
 127:c:\projects\paindrain\arduinolcd\test\pain drain\libraries\lvgl\src\misc\lv_area.h **** 
 128:c:\projects\paindrain\arduinolcd\test\pain drain\libraries\lvgl\src\misc\lv_area.h **** /**
 129:c:\projects\paindrain\arduinolcd\test\pain drain\libraries\lvgl\src\misc\lv_area.h ****  * Get the height of an area
 130:c:\projects\paindrain\arduinolcd\test\pain drain\libraries\lvgl\src\misc\lv_area.h ****  * @param area_p pointer to an area
 131:c:\projects\paindrain\arduinolcd\test\pain drain\libraries\lvgl\src\misc\lv_area.h ****  * @return the height of the area (if y1 == y2 -> height = 1)
 132:c:\projects\paindrain\arduinolcd\test\pain drain\libraries\lvgl\src\misc\lv_area.h ****  */
 133:c:\projects\paindrain\arduinolcd\test\pain drain\libraries\lvgl\src\misc\lv_area.h **** static inline lv_coord_t lv_area_get_height(const lv_area_t * area_p)
 134:c:\projects\paindrain\arduinolcd\test\pain drain\libraries\lvgl\src\misc\lv_area.h **** {
 135:c:\projects\paindrain\arduinolcd\test\pain drain\libraries\lvgl\src\misc\lv_area.h ****     return (lv_coord_t)(area_p->y2 - area_p->y1 + 1);
  72              		.loc 2 135 0
  73 002c 0621     		movs	r1, #6
  74 002e 635E     		ldrsh	r3, [r4, r1]
  75 0030 0221     		movs	r1, #2
  76 0032 605E     		ldrsh	r0, [r4, r1]
  77 0034 181A     		subs	r0, r3, r0
  78              	.LVL5:
  79              	.LBE47:
  80              	.LBE46:
 431:..\..\..\arduinoLCD\test\Pain Drain\libraries\lvgl\src\widgets/lv_img.c **** 
 432:..\..\..\arduinoLCD\test\Pain Drain\libraries\lvgl\src\widgets/lv_img.c ****     return (lv_point_t) {
  81              		.loc 1 432 0
  82 0036 0132     		adds	r2, r2, #1
  83 0038 0130     		adds	r0, r0, #1
  84 003a 0304     		lsls	r3, r0, #16
  85 003c 1004     		lsls	r0, r2, #16
  86 003e 000C     		lsrs	r0, r0, #16
  87 0040 1843     		orrs	r0, r3
 433:..\..\..\arduinoLCD\test\Pain Drain\libraries\lvgl\src\widgets/lv_img.c ****         lv_area_get_width(&area_transform), lv_area_get_height(&area_transform)
 434:..\..\..\arduinoLCD\test\Pain Drain\libraries\lvgl\src\widgets/lv_img.c ****     };
 435:..\..\..\arduinoLCD\test\Pain Drain\libraries\lvgl\src\widgets/lv_img.c **** }
  88              		.loc 1 435 0
  89 0042 07B0     		add	sp, sp, #28
  90              		@ sp needed
  91              	.LVL6:
  92 0044 30BD     		pop	{r4, r5, pc}
  93              		.cfi_endproc
  94              	.LFE184:
  95              		.size	lv_img_get_transformed_size, .-lv_img_get_transformed_size
  96              		.global	__aeabi_idivmod
  97 0046 C046     		.section	.text.draw_img,"ax",%progbits
  98              		.align	2
  99              		.code	16
 100              		.thumb_func
 101              		.type	draw_img, %function
 102              	draw_img:
 103              	.LFB186:
 436:..\..\..\arduinoLCD\test\Pain Drain\libraries\lvgl\src\widgets/lv_img.c **** 
 437:..\..\..\arduinoLCD\test\Pain Drain\libraries\lvgl\src\widgets/lv_img.c **** static void lv_img_event(const lv_obj_class_t * class_p, lv_event_t * e)
 438:..\..\..\arduinoLCD\test\Pain Drain\libraries\lvgl\src\widgets/lv_img.c **** {
 439:..\..\..\arduinoLCD\test\Pain Drain\libraries\lvgl\src\widgets/lv_img.c ****     LV_UNUSED(class_p);
 440:..\..\..\arduinoLCD\test\Pain Drain\libraries\lvgl\src\widgets/lv_img.c **** 
 441:..\..\..\arduinoLCD\test\Pain Drain\libraries\lvgl\src\widgets/lv_img.c ****     lv_event_code_t code = lv_event_get_code(e);
 442:..\..\..\arduinoLCD\test\Pain Drain\libraries\lvgl\src\widgets/lv_img.c **** 
 443:..\..\..\arduinoLCD\test\Pain Drain\libraries\lvgl\src\widgets/lv_img.c ****     /*Ancestor events will be called during drawing*/
 444:..\..\..\arduinoLCD\test\Pain Drain\libraries\lvgl\src\widgets/lv_img.c ****     if(code != LV_EVENT_DRAW_MAIN && code != LV_EVENT_DRAW_POST) {
 445:..\..\..\arduinoLCD\test\Pain Drain\libraries\lvgl\src\widgets/lv_img.c ****         /*Call the ancestor's event handler*/
ARM GAS  C:\Users\haske\AppData\Local\Temp\ccGWO5DZ.s 			page 13


 446:..\..\..\arduinoLCD\test\Pain Drain\libraries\lvgl\src\widgets/lv_img.c ****         lv_res_t res = lv_obj_event_base(MY_CLASS, e);
 447:..\..\..\arduinoLCD\test\Pain Drain\libraries\lvgl\src\widgets/lv_img.c ****         if(res != LV_RES_OK) return;
 448:..\..\..\arduinoLCD\test\Pain Drain\libraries\lvgl\src\widgets/lv_img.c ****     }
 449:..\..\..\arduinoLCD\test\Pain Drain\libraries\lvgl\src\widgets/lv_img.c **** 
 450:..\..\..\arduinoLCD\test\Pain Drain\libraries\lvgl\src\widgets/lv_img.c ****     lv_obj_t * obj = lv_event_get_target(e);
 451:..\..\..\arduinoLCD\test\Pain Drain\libraries\lvgl\src\widgets/lv_img.c ****     lv_img_t * img = (lv_img_t *)obj;
 452:..\..\..\arduinoLCD\test\Pain Drain\libraries\lvgl\src\widgets/lv_img.c **** 
 453:..\..\..\arduinoLCD\test\Pain Drain\libraries\lvgl\src\widgets/lv_img.c ****     if(code == LV_EVENT_STYLE_CHANGED) {
 454:..\..\..\arduinoLCD\test\Pain Drain\libraries\lvgl\src\widgets/lv_img.c ****         /*Refresh the file name to refresh the symbol text size*/
 455:..\..\..\arduinoLCD\test\Pain Drain\libraries\lvgl\src\widgets/lv_img.c ****         if(img->src_type == LV_IMG_SRC_SYMBOL) {
 456:..\..\..\arduinoLCD\test\Pain Drain\libraries\lvgl\src\widgets/lv_img.c ****             lv_img_set_src(obj, img->src);
 457:..\..\..\arduinoLCD\test\Pain Drain\libraries\lvgl\src\widgets/lv_img.c ****         }
 458:..\..\..\arduinoLCD\test\Pain Drain\libraries\lvgl\src\widgets/lv_img.c ****         else {
 459:..\..\..\arduinoLCD\test\Pain Drain\libraries\lvgl\src\widgets/lv_img.c ****             /*With transformation it might change*/
 460:..\..\..\arduinoLCD\test\Pain Drain\libraries\lvgl\src\widgets/lv_img.c ****             lv_obj_refresh_ext_draw_size(obj);
 461:..\..\..\arduinoLCD\test\Pain Drain\libraries\lvgl\src\widgets/lv_img.c ****         }
 462:..\..\..\arduinoLCD\test\Pain Drain\libraries\lvgl\src\widgets/lv_img.c ****     }
 463:..\..\..\arduinoLCD\test\Pain Drain\libraries\lvgl\src\widgets/lv_img.c ****     else if(code == LV_EVENT_REFR_EXT_DRAW_SIZE) {
 464:..\..\..\arduinoLCD\test\Pain Drain\libraries\lvgl\src\widgets/lv_img.c **** 
 465:..\..\..\arduinoLCD\test\Pain Drain\libraries\lvgl\src\widgets/lv_img.c ****         lv_coord_t * s = lv_event_get_param(e);
 466:..\..\..\arduinoLCD\test\Pain Drain\libraries\lvgl\src\widgets/lv_img.c **** 
 467:..\..\..\arduinoLCD\test\Pain Drain\libraries\lvgl\src\widgets/lv_img.c ****         /*If the image has angle provide enough room for the rotated corners*/
 468:..\..\..\arduinoLCD\test\Pain Drain\libraries\lvgl\src\widgets/lv_img.c ****         if(img->angle || img->zoom != LV_IMG_ZOOM_NONE) {
 469:..\..\..\arduinoLCD\test\Pain Drain\libraries\lvgl\src\widgets/lv_img.c ****             lv_area_t a;
 470:..\..\..\arduinoLCD\test\Pain Drain\libraries\lvgl\src\widgets/lv_img.c ****             lv_coord_t w = lv_obj_get_width(obj);
 471:..\..\..\arduinoLCD\test\Pain Drain\libraries\lvgl\src\widgets/lv_img.c ****             lv_coord_t h = lv_obj_get_height(obj);
 472:..\..\..\arduinoLCD\test\Pain Drain\libraries\lvgl\src\widgets/lv_img.c ****             _lv_img_buf_get_transformed_area(&a, w, h, img->angle, img->zoom, &img->pivot);
 473:..\..\..\arduinoLCD\test\Pain Drain\libraries\lvgl\src\widgets/lv_img.c ****             *s = LV_MAX(*s, -a.x1);
 474:..\..\..\arduinoLCD\test\Pain Drain\libraries\lvgl\src\widgets/lv_img.c ****             *s = LV_MAX(*s, -a.y1);
 475:..\..\..\arduinoLCD\test\Pain Drain\libraries\lvgl\src\widgets/lv_img.c ****             *s = LV_MAX(*s, a.x2 - w);
 476:..\..\..\arduinoLCD\test\Pain Drain\libraries\lvgl\src\widgets/lv_img.c ****             *s = LV_MAX(*s, a.y2 - h);
 477:..\..\..\arduinoLCD\test\Pain Drain\libraries\lvgl\src\widgets/lv_img.c ****         }
 478:..\..\..\arduinoLCD\test\Pain Drain\libraries\lvgl\src\widgets/lv_img.c ****     }
 479:..\..\..\arduinoLCD\test\Pain Drain\libraries\lvgl\src\widgets/lv_img.c ****     else if(code == LV_EVENT_HIT_TEST) {
 480:..\..\..\arduinoLCD\test\Pain Drain\libraries\lvgl\src\widgets/lv_img.c ****         lv_hit_test_info_t * info = lv_event_get_param(e);
 481:..\..\..\arduinoLCD\test\Pain Drain\libraries\lvgl\src\widgets/lv_img.c **** 
 482:..\..\..\arduinoLCD\test\Pain Drain\libraries\lvgl\src\widgets/lv_img.c ****         /*If the object is exactly image sized (not cropped, not mosaic) and transformed
 483:..\..\..\arduinoLCD\test\Pain Drain\libraries\lvgl\src\widgets/lv_img.c ****          *perform hit test on its transformed area*/
 484:..\..\..\arduinoLCD\test\Pain Drain\libraries\lvgl\src\widgets/lv_img.c ****         if(img->w == lv_obj_get_width(obj) && img->h == lv_obj_get_height(obj) &&
 485:..\..\..\arduinoLCD\test\Pain Drain\libraries\lvgl\src\widgets/lv_img.c ****            (img->zoom != LV_IMG_ZOOM_NONE || img->angle != 0 || img->pivot.x != img->w / 2 || img->
 486:..\..\..\arduinoLCD\test\Pain Drain\libraries\lvgl\src\widgets/lv_img.c **** 
 487:..\..\..\arduinoLCD\test\Pain Drain\libraries\lvgl\src\widgets/lv_img.c ****             lv_coord_t w = lv_obj_get_width(obj);
 488:..\..\..\arduinoLCD\test\Pain Drain\libraries\lvgl\src\widgets/lv_img.c ****             lv_coord_t h = lv_obj_get_height(obj);
 489:..\..\..\arduinoLCD\test\Pain Drain\libraries\lvgl\src\widgets/lv_img.c ****             lv_area_t coords;
 490:..\..\..\arduinoLCD\test\Pain Drain\libraries\lvgl\src\widgets/lv_img.c ****             _lv_img_buf_get_transformed_area(&coords, w, h, img->angle, img->zoom, &img->pivot);
 491:..\..\..\arduinoLCD\test\Pain Drain\libraries\lvgl\src\widgets/lv_img.c ****             coords.x1 += obj->coords.x1;
 492:..\..\..\arduinoLCD\test\Pain Drain\libraries\lvgl\src\widgets/lv_img.c ****             coords.y1 += obj->coords.y1;
 493:..\..\..\arduinoLCD\test\Pain Drain\libraries\lvgl\src\widgets/lv_img.c ****             coords.x2 += obj->coords.x1;
 494:..\..\..\arduinoLCD\test\Pain Drain\libraries\lvgl\src\widgets/lv_img.c ****             coords.y2 += obj->coords.y1;
 495:..\..\..\arduinoLCD\test\Pain Drain\libraries\lvgl\src\widgets/lv_img.c **** 
 496:..\..\..\arduinoLCD\test\Pain Drain\libraries\lvgl\src\widgets/lv_img.c ****             info->res = _lv_area_is_point_on(&coords, info->point, 0);
 497:..\..\..\arduinoLCD\test\Pain Drain\libraries\lvgl\src\widgets/lv_img.c ****         }
 498:..\..\..\arduinoLCD\test\Pain Drain\libraries\lvgl\src\widgets/lv_img.c ****         else {
 499:..\..\..\arduinoLCD\test\Pain Drain\libraries\lvgl\src\widgets/lv_img.c ****             lv_area_t a;
 500:..\..\..\arduinoLCD\test\Pain Drain\libraries\lvgl\src\widgets/lv_img.c ****             lv_obj_get_click_area(obj, &a);
 501:..\..\..\arduinoLCD\test\Pain Drain\libraries\lvgl\src\widgets/lv_img.c ****             info->res = _lv_area_is_point_on(&a, info->point, 0);
 502:..\..\..\arduinoLCD\test\Pain Drain\libraries\lvgl\src\widgets/lv_img.c ****         }
ARM GAS  C:\Users\haske\AppData\Local\Temp\ccGWO5DZ.s 			page 14


 503:..\..\..\arduinoLCD\test\Pain Drain\libraries\lvgl\src\widgets/lv_img.c ****     }
 504:..\..\..\arduinoLCD\test\Pain Drain\libraries\lvgl\src\widgets/lv_img.c ****     else if(code == LV_EVENT_GET_SELF_SIZE) {
 505:..\..\..\arduinoLCD\test\Pain Drain\libraries\lvgl\src\widgets/lv_img.c ****         lv_point_t * p = lv_event_get_param(e);
 506:..\..\..\arduinoLCD\test\Pain Drain\libraries\lvgl\src\widgets/lv_img.c ****         if(img->obj_size_mode == LV_IMG_SIZE_MODE_REAL) {
 507:..\..\..\arduinoLCD\test\Pain Drain\libraries\lvgl\src\widgets/lv_img.c ****             *p = lv_img_get_transformed_size(obj);
 508:..\..\..\arduinoLCD\test\Pain Drain\libraries\lvgl\src\widgets/lv_img.c ****         }
 509:..\..\..\arduinoLCD\test\Pain Drain\libraries\lvgl\src\widgets/lv_img.c ****         else {
 510:..\..\..\arduinoLCD\test\Pain Drain\libraries\lvgl\src\widgets/lv_img.c ****             p->x = img->w;
 511:..\..\..\arduinoLCD\test\Pain Drain\libraries\lvgl\src\widgets/lv_img.c ****             p->y = img->h;
 512:..\..\..\arduinoLCD\test\Pain Drain\libraries\lvgl\src\widgets/lv_img.c ****         }
 513:..\..\..\arduinoLCD\test\Pain Drain\libraries\lvgl\src\widgets/lv_img.c ****     }
 514:..\..\..\arduinoLCD\test\Pain Drain\libraries\lvgl\src\widgets/lv_img.c ****     else if(code == LV_EVENT_DRAW_MAIN || code == LV_EVENT_DRAW_POST || code == LV_EVENT_COVER_CHEC
 515:..\..\..\arduinoLCD\test\Pain Drain\libraries\lvgl\src\widgets/lv_img.c ****         draw_img(e);
 516:..\..\..\arduinoLCD\test\Pain Drain\libraries\lvgl\src\widgets/lv_img.c ****     }
 517:..\..\..\arduinoLCD\test\Pain Drain\libraries\lvgl\src\widgets/lv_img.c **** }
 518:..\..\..\arduinoLCD\test\Pain Drain\libraries\lvgl\src\widgets/lv_img.c **** 
 519:..\..\..\arduinoLCD\test\Pain Drain\libraries\lvgl\src\widgets/lv_img.c **** static void draw_img(lv_event_t * e)
 520:..\..\..\arduinoLCD\test\Pain Drain\libraries\lvgl\src\widgets/lv_img.c **** {
 104              		.loc 1 520 0
 105              		.cfi_startproc
 106              		@ args = 0, pretend = 0, frame = 96
 107              		@ frame_needed = 0, uses_anonymous_args = 0
 108              	.LVL7:
 109 0000 F0B5     		push	{r4, r5, r6, r7, lr}
 110              		.cfi_def_cfa_offset 20
 111              		.cfi_offset 4, -20
 112              		.cfi_offset 5, -16
 113              		.cfi_offset 6, -12
 114              		.cfi_offset 7, -8
 115              		.cfi_offset 14, -4
 116 0002 5F46     		mov	r7, fp
 117 0004 5646     		mov	r6, r10
 118 0006 4D46     		mov	r5, r9
 119 0008 4446     		mov	r4, r8
 120 000a F0B4     		push	{r4, r5, r6, r7}
 121              		.cfi_def_cfa_offset 36
 122              		.cfi_offset 8, -36
 123              		.cfi_offset 9, -32
 124              		.cfi_offset 10, -28
 125              		.cfi_offset 11, -24
 126 000c 9BB0     		sub	sp, sp, #108
 127              		.cfi_def_cfa_offset 144
 128 000e 0400     		movs	r4, r0
 129 0010 0390     		str	r0, [sp, #12]
 521:..\..\..\arduinoLCD\test\Pain Drain\libraries\lvgl\src\widgets/lv_img.c ****     lv_event_code_t code = lv_event_get_code(e);
 130              		.loc 1 521 0
 131 0012 FFF7FEFF 		bl	lv_event_get_code
 132              	.LVL8:
 133 0016 0600     		movs	r6, r0
 134              	.LVL9:
 522:..\..\..\arduinoLCD\test\Pain Drain\libraries\lvgl\src\widgets/lv_img.c ****     lv_obj_t * obj = lv_event_get_target(e);
 135              		.loc 1 522 0
 136 0018 2000     		movs	r0, r4
 137              	.LVL10:
 138 001a FFF7FEFF 		bl	lv_event_get_target
 139              	.LVL11:
 140 001e 0400     		movs	r4, r0
ARM GAS  C:\Users\haske\AppData\Local\Temp\ccGWO5DZ.s 			page 15


 141              	.LVL12:
 523:..\..\..\arduinoLCD\test\Pain Drain\libraries\lvgl\src\widgets/lv_img.c ****     lv_img_t * img = (lv_img_t *)obj;
 524:..\..\..\arduinoLCD\test\Pain Drain\libraries\lvgl\src\widgets/lv_img.c ****     if(code == LV_EVENT_COVER_CHECK) {
 142              		.loc 1 524 0
 143 0020 122E     		cmp	r6, #18
 144 0022 6CD1     		bne	.L3
 145              	.LBB48:
 525:..\..\..\arduinoLCD\test\Pain Drain\libraries\lvgl\src\widgets/lv_img.c ****         lv_cover_check_info_t * info = lv_event_get_param(e);
 146              		.loc 1 525 0
 147 0024 0398     		ldr	r0, [sp, #12]
 148              	.LVL13:
 149 0026 FFF7FEFF 		bl	lv_event_get_param
 150              	.LVL14:
 151 002a 0700     		movs	r7, r0
 152              	.LVL15:
 526:..\..\..\arduinoLCD\test\Pain Drain\libraries\lvgl\src\widgets/lv_img.c ****         if(info->res == LV_COVER_RES_MASKED) return;
 153              		.loc 1 526 0
 154 002c 0378     		ldrb	r3, [r0]
 155 002e 022B     		cmp	r3, #2
 156 0030 00D1     		bne	.LCB123
 157 0032 18E2     		b	.L2	@long jump
 158              	.LCB123:
 527:..\..\..\arduinoLCD\test\Pain Drain\libraries\lvgl\src\widgets/lv_img.c ****         if(img->src_type == LV_IMG_SRC_UNKNOWN || img->src_type == LV_IMG_SRC_SYMBOL) {
 159              		.loc 1 527 0
 160 0034 3823     		movs	r3, #56
 161 0036 E25C     		ldrb	r2, [r4, r3]
 162 0038 353B     		subs	r3, r3, #53
 163 003a 1340     		ands	r3, r2
 164 003c 023B     		subs	r3, r3, #2
 165 003e DBB2     		uxtb	r3, r3
 166 0040 012B     		cmp	r3, #1
 167 0042 02D8     		bhi	.L5
 528:..\..\..\arduinoLCD\test\Pain Drain\libraries\lvgl\src\widgets/lv_img.c ****             info->res = LV_COVER_RES_NOT_COVER;
 168              		.loc 1 528 0
 169 0044 0123     		movs	r3, #1
 170 0046 0370     		strb	r3, [r0]
 529:..\..\..\arduinoLCD\test\Pain Drain\libraries\lvgl\src\widgets/lv_img.c ****             return;
 171              		.loc 1 529 0
 172 0048 0DE2     		b	.L2
 173              	.L5:
 530:..\..\..\arduinoLCD\test\Pain Drain\libraries\lvgl\src\widgets/lv_img.c ****         }
 531:..\..\..\arduinoLCD\test\Pain Drain\libraries\lvgl\src\widgets/lv_img.c **** 
 532:..\..\..\arduinoLCD\test\Pain Drain\libraries\lvgl\src\widgets/lv_img.c ****         /*Non true color format might have "holes"*/
 533:..\..\..\arduinoLCD\test\Pain Drain\libraries\lvgl\src\widgets/lv_img.c ****         if(img->cf != LV_IMG_CF_TRUE_COLOR && img->cf != LV_IMG_CF_RAW) {
 174              		.loc 1 533 0
 175 004a 7C23     		movs	r3, #124
 176 004c 1A40     		ands	r2, r3
 177 004e 102A     		cmp	r2, #16
 178 0050 04D0     		beq	.L6
 179              		.loc 1 533 0 is_stmt 0 discriminator 1
 180 0052 042A     		cmp	r2, #4
 181 0054 02D0     		beq	.L6
 534:..\..\..\arduinoLCD\test\Pain Drain\libraries\lvgl\src\widgets/lv_img.c ****             info->res = LV_COVER_RES_NOT_COVER;
 182              		.loc 1 534 0 is_stmt 1
 183 0056 7B3B     		subs	r3, r3, #123
 184 0058 0370     		strb	r3, [r0]
 535:..\..\..\arduinoLCD\test\Pain Drain\libraries\lvgl\src\widgets/lv_img.c ****             return;
ARM GAS  C:\Users\haske\AppData\Local\Temp\ccGWO5DZ.s 			page 16


 185              		.loc 1 535 0
 186 005a 04E2     		b	.L2
 187              	.L6:
 188              	.LVL16:
 189              	.LBB49:
 190              	.LBB50:
 191              		.file 3 "..\\..\\..\\arduinoLCD\\test\\Pain Drain\\libraries\\lvgl\\src\\widgets\\../core/lv_obj_s
   1:..\..\..\arduinoLCD\test\Pain Drain\libraries\lvgl\src\widgets\../core/lv_obj_style_gen.h **** static inline lv_coord_t lv_obj_get_style_width(const struct _lv_obj_t * obj, uint32_t part)
   2:..\..\..\arduinoLCD\test\Pain Drain\libraries\lvgl\src\widgets\../core/lv_obj_style_gen.h **** {
   3:..\..\..\arduinoLCD\test\Pain Drain\libraries\lvgl\src\widgets\../core/lv_obj_style_gen.h ****     lv_style_value_t v = lv_obj_get_style_prop(obj, part, LV_STYLE_WIDTH);
   4:..\..\..\arduinoLCD\test\Pain Drain\libraries\lvgl\src\widgets\../core/lv_obj_style_gen.h ****     return (lv_coord_t)v.num;
   5:..\..\..\arduinoLCD\test\Pain Drain\libraries\lvgl\src\widgets\../core/lv_obj_style_gen.h **** }
   6:..\..\..\arduinoLCD\test\Pain Drain\libraries\lvgl\src\widgets\../core/lv_obj_style_gen.h **** 
   7:..\..\..\arduinoLCD\test\Pain Drain\libraries\lvgl\src\widgets\../core/lv_obj_style_gen.h **** static inline lv_coord_t lv_obj_get_style_min_width(const struct _lv_obj_t * obj, uint32_t part)
   8:..\..\..\arduinoLCD\test\Pain Drain\libraries\lvgl\src\widgets\../core/lv_obj_style_gen.h **** {
   9:..\..\..\arduinoLCD\test\Pain Drain\libraries\lvgl\src\widgets\../core/lv_obj_style_gen.h ****     lv_style_value_t v = lv_obj_get_style_prop(obj, part, LV_STYLE_MIN_WIDTH);
  10:..\..\..\arduinoLCD\test\Pain Drain\libraries\lvgl\src\widgets\../core/lv_obj_style_gen.h ****     return (lv_coord_t)v.num;
  11:..\..\..\arduinoLCD\test\Pain Drain\libraries\lvgl\src\widgets\../core/lv_obj_style_gen.h **** }
  12:..\..\..\arduinoLCD\test\Pain Drain\libraries\lvgl\src\widgets\../core/lv_obj_style_gen.h **** 
  13:..\..\..\arduinoLCD\test\Pain Drain\libraries\lvgl\src\widgets\../core/lv_obj_style_gen.h **** static inline lv_coord_t lv_obj_get_style_max_width(const struct _lv_obj_t * obj, uint32_t part)
  14:..\..\..\arduinoLCD\test\Pain Drain\libraries\lvgl\src\widgets\../core/lv_obj_style_gen.h **** {
  15:..\..\..\arduinoLCD\test\Pain Drain\libraries\lvgl\src\widgets\../core/lv_obj_style_gen.h ****     lv_style_value_t v = lv_obj_get_style_prop(obj, part, LV_STYLE_MAX_WIDTH);
  16:..\..\..\arduinoLCD\test\Pain Drain\libraries\lvgl\src\widgets\../core/lv_obj_style_gen.h ****     return (lv_coord_t)v.num;
  17:..\..\..\arduinoLCD\test\Pain Drain\libraries\lvgl\src\widgets\../core/lv_obj_style_gen.h **** }
  18:..\..\..\arduinoLCD\test\Pain Drain\libraries\lvgl\src\widgets\../core/lv_obj_style_gen.h **** 
  19:..\..\..\arduinoLCD\test\Pain Drain\libraries\lvgl\src\widgets\../core/lv_obj_style_gen.h **** static inline lv_coord_t lv_obj_get_style_height(const struct _lv_obj_t * obj, uint32_t part)
  20:..\..\..\arduinoLCD\test\Pain Drain\libraries\lvgl\src\widgets\../core/lv_obj_style_gen.h **** {
  21:..\..\..\arduinoLCD\test\Pain Drain\libraries\lvgl\src\widgets\../core/lv_obj_style_gen.h ****     lv_style_value_t v = lv_obj_get_style_prop(obj, part, LV_STYLE_HEIGHT);
  22:..\..\..\arduinoLCD\test\Pain Drain\libraries\lvgl\src\widgets\../core/lv_obj_style_gen.h ****     return (lv_coord_t)v.num;
  23:..\..\..\arduinoLCD\test\Pain Drain\libraries\lvgl\src\widgets\../core/lv_obj_style_gen.h **** }
  24:..\..\..\arduinoLCD\test\Pain Drain\libraries\lvgl\src\widgets\../core/lv_obj_style_gen.h **** 
  25:..\..\..\arduinoLCD\test\Pain Drain\libraries\lvgl\src\widgets\../core/lv_obj_style_gen.h **** static inline lv_coord_t lv_obj_get_style_min_height(const struct _lv_obj_t * obj, uint32_t part)
  26:..\..\..\arduinoLCD\test\Pain Drain\libraries\lvgl\src\widgets\../core/lv_obj_style_gen.h **** {
  27:..\..\..\arduinoLCD\test\Pain Drain\libraries\lvgl\src\widgets\../core/lv_obj_style_gen.h ****     lv_style_value_t v = lv_obj_get_style_prop(obj, part, LV_STYLE_MIN_HEIGHT);
  28:..\..\..\arduinoLCD\test\Pain Drain\libraries\lvgl\src\widgets\../core/lv_obj_style_gen.h ****     return (lv_coord_t)v.num;
  29:..\..\..\arduinoLCD\test\Pain Drain\libraries\lvgl\src\widgets\../core/lv_obj_style_gen.h **** }
  30:..\..\..\arduinoLCD\test\Pain Drain\libraries\lvgl\src\widgets\../core/lv_obj_style_gen.h **** 
  31:..\..\..\arduinoLCD\test\Pain Drain\libraries\lvgl\src\widgets\../core/lv_obj_style_gen.h **** static inline lv_coord_t lv_obj_get_style_max_height(const struct _lv_obj_t * obj, uint32_t part)
  32:..\..\..\arduinoLCD\test\Pain Drain\libraries\lvgl\src\widgets\../core/lv_obj_style_gen.h **** {
  33:..\..\..\arduinoLCD\test\Pain Drain\libraries\lvgl\src\widgets\../core/lv_obj_style_gen.h ****     lv_style_value_t v = lv_obj_get_style_prop(obj, part, LV_STYLE_MAX_HEIGHT);
  34:..\..\..\arduinoLCD\test\Pain Drain\libraries\lvgl\src\widgets\../core/lv_obj_style_gen.h ****     return (lv_coord_t)v.num;
  35:..\..\..\arduinoLCD\test\Pain Drain\libraries\lvgl\src\widgets\../core/lv_obj_style_gen.h **** }
  36:..\..\..\arduinoLCD\test\Pain Drain\libraries\lvgl\src\widgets\../core/lv_obj_style_gen.h **** 
  37:..\..\..\arduinoLCD\test\Pain Drain\libraries\lvgl\src\widgets\../core/lv_obj_style_gen.h **** static inline lv_coord_t lv_obj_get_style_x(const struct _lv_obj_t * obj, uint32_t part)
  38:..\..\..\arduinoLCD\test\Pain Drain\libraries\lvgl\src\widgets\../core/lv_obj_style_gen.h **** {
  39:..\..\..\arduinoLCD\test\Pain Drain\libraries\lvgl\src\widgets\../core/lv_obj_style_gen.h ****     lv_style_value_t v = lv_obj_get_style_prop(obj, part, LV_STYLE_X);
  40:..\..\..\arduinoLCD\test\Pain Drain\libraries\lvgl\src\widgets\../core/lv_obj_style_gen.h ****     return (lv_coord_t)v.num;
  41:..\..\..\arduinoLCD\test\Pain Drain\libraries\lvgl\src\widgets\../core/lv_obj_style_gen.h **** }
  42:..\..\..\arduinoLCD\test\Pain Drain\libraries\lvgl\src\widgets\../core/lv_obj_style_gen.h **** 
  43:..\..\..\arduinoLCD\test\Pain Drain\libraries\lvgl\src\widgets\../core/lv_obj_style_gen.h **** static inline lv_coord_t lv_obj_get_style_y(const struct _lv_obj_t * obj, uint32_t part)
  44:..\..\..\arduinoLCD\test\Pain Drain\libraries\lvgl\src\widgets\../core/lv_obj_style_gen.h **** {
  45:..\..\..\arduinoLCD\test\Pain Drain\libraries\lvgl\src\widgets\../core/lv_obj_style_gen.h ****     lv_style_value_t v = lv_obj_get_style_prop(obj, part, LV_STYLE_Y);
  46:..\..\..\arduinoLCD\test\Pain Drain\libraries\lvgl\src\widgets\../core/lv_obj_style_gen.h ****     return (lv_coord_t)v.num;
  47:..\..\..\arduinoLCD\test\Pain Drain\libraries\lvgl\src\widgets\../core/lv_obj_style_gen.h **** }
  48:..\..\..\arduinoLCD\test\Pain Drain\libraries\lvgl\src\widgets\../core/lv_obj_style_gen.h **** 
  49:..\..\..\arduinoLCD\test\Pain Drain\libraries\lvgl\src\widgets\../core/lv_obj_style_gen.h **** static inline lv_align_t lv_obj_get_style_align(const struct _lv_obj_t * obj, uint32_t part)
  50:..\..\..\arduinoLCD\test\Pain Drain\libraries\lvgl\src\widgets\../core/lv_obj_style_gen.h **** {
ARM GAS  C:\Users\haske\AppData\Local\Temp\ccGWO5DZ.s 			page 17


  51:..\..\..\arduinoLCD\test\Pain Drain\libraries\lvgl\src\widgets\../core/lv_obj_style_gen.h ****     lv_style_value_t v = lv_obj_get_style_prop(obj, part, LV_STYLE_ALIGN);
  52:..\..\..\arduinoLCD\test\Pain Drain\libraries\lvgl\src\widgets\../core/lv_obj_style_gen.h ****     return (lv_align_t)v.num;
  53:..\..\..\arduinoLCD\test\Pain Drain\libraries\lvgl\src\widgets\../core/lv_obj_style_gen.h **** }
  54:..\..\..\arduinoLCD\test\Pain Drain\libraries\lvgl\src\widgets\../core/lv_obj_style_gen.h **** 
  55:..\..\..\arduinoLCD\test\Pain Drain\libraries\lvgl\src\widgets\../core/lv_obj_style_gen.h **** static inline lv_coord_t lv_obj_get_style_transform_width(const struct _lv_obj_t * obj, uint32_t pa
  56:..\..\..\arduinoLCD\test\Pain Drain\libraries\lvgl\src\widgets\../core/lv_obj_style_gen.h **** {
  57:..\..\..\arduinoLCD\test\Pain Drain\libraries\lvgl\src\widgets\../core/lv_obj_style_gen.h ****     lv_style_value_t v = lv_obj_get_style_prop(obj, part, LV_STYLE_TRANSFORM_WIDTH);
  58:..\..\..\arduinoLCD\test\Pain Drain\libraries\lvgl\src\widgets\../core/lv_obj_style_gen.h ****     return (lv_coord_t)v.num;
  59:..\..\..\arduinoLCD\test\Pain Drain\libraries\lvgl\src\widgets\../core/lv_obj_style_gen.h **** }
  60:..\..\..\arduinoLCD\test\Pain Drain\libraries\lvgl\src\widgets\../core/lv_obj_style_gen.h **** 
  61:..\..\..\arduinoLCD\test\Pain Drain\libraries\lvgl\src\widgets\../core/lv_obj_style_gen.h **** static inline lv_coord_t lv_obj_get_style_transform_height(const struct _lv_obj_t * obj, uint32_t p
  62:..\..\..\arduinoLCD\test\Pain Drain\libraries\lvgl\src\widgets\../core/lv_obj_style_gen.h **** {
  63:..\..\..\arduinoLCD\test\Pain Drain\libraries\lvgl\src\widgets\../core/lv_obj_style_gen.h ****     lv_style_value_t v = lv_obj_get_style_prop(obj, part, LV_STYLE_TRANSFORM_HEIGHT);
  64:..\..\..\arduinoLCD\test\Pain Drain\libraries\lvgl\src\widgets\../core/lv_obj_style_gen.h ****     return (lv_coord_t)v.num;
  65:..\..\..\arduinoLCD\test\Pain Drain\libraries\lvgl\src\widgets\../core/lv_obj_style_gen.h **** }
  66:..\..\..\arduinoLCD\test\Pain Drain\libraries\lvgl\src\widgets\../core/lv_obj_style_gen.h **** 
  67:..\..\..\arduinoLCD\test\Pain Drain\libraries\lvgl\src\widgets\../core/lv_obj_style_gen.h **** static inline lv_coord_t lv_obj_get_style_translate_x(const struct _lv_obj_t * obj, uint32_t part)
  68:..\..\..\arduinoLCD\test\Pain Drain\libraries\lvgl\src\widgets\../core/lv_obj_style_gen.h **** {
  69:..\..\..\arduinoLCD\test\Pain Drain\libraries\lvgl\src\widgets\../core/lv_obj_style_gen.h ****     lv_style_value_t v = lv_obj_get_style_prop(obj, part, LV_STYLE_TRANSLATE_X);
  70:..\..\..\arduinoLCD\test\Pain Drain\libraries\lvgl\src\widgets\../core/lv_obj_style_gen.h ****     return (lv_coord_t)v.num;
  71:..\..\..\arduinoLCD\test\Pain Drain\libraries\lvgl\src\widgets\../core/lv_obj_style_gen.h **** }
  72:..\..\..\arduinoLCD\test\Pain Drain\libraries\lvgl\src\widgets\../core/lv_obj_style_gen.h **** 
  73:..\..\..\arduinoLCD\test\Pain Drain\libraries\lvgl\src\widgets\../core/lv_obj_style_gen.h **** static inline lv_coord_t lv_obj_get_style_translate_y(const struct _lv_obj_t * obj, uint32_t part)
  74:..\..\..\arduinoLCD\test\Pain Drain\libraries\lvgl\src\widgets\../core/lv_obj_style_gen.h **** {
  75:..\..\..\arduinoLCD\test\Pain Drain\libraries\lvgl\src\widgets\../core/lv_obj_style_gen.h ****     lv_style_value_t v = lv_obj_get_style_prop(obj, part, LV_STYLE_TRANSLATE_Y);
  76:..\..\..\arduinoLCD\test\Pain Drain\libraries\lvgl\src\widgets\../core/lv_obj_style_gen.h ****     return (lv_coord_t)v.num;
  77:..\..\..\arduinoLCD\test\Pain Drain\libraries\lvgl\src\widgets\../core/lv_obj_style_gen.h **** }
  78:..\..\..\arduinoLCD\test\Pain Drain\libraries\lvgl\src\widgets\../core/lv_obj_style_gen.h **** 
  79:..\..\..\arduinoLCD\test\Pain Drain\libraries\lvgl\src\widgets\../core/lv_obj_style_gen.h **** static inline lv_coord_t lv_obj_get_style_transform_zoom(const struct _lv_obj_t * obj, uint32_t par
  80:..\..\..\arduinoLCD\test\Pain Drain\libraries\lvgl\src\widgets\../core/lv_obj_style_gen.h **** {
  81:..\..\..\arduinoLCD\test\Pain Drain\libraries\lvgl\src\widgets\../core/lv_obj_style_gen.h ****     lv_style_value_t v = lv_obj_get_style_prop(obj, part, LV_STYLE_TRANSFORM_ZOOM);
  82:..\..\..\arduinoLCD\test\Pain Drain\libraries\lvgl\src\widgets\../core/lv_obj_style_gen.h ****     return (lv_coord_t)v.num;
  83:..\..\..\arduinoLCD\test\Pain Drain\libraries\lvgl\src\widgets\../core/lv_obj_style_gen.h **** }
  84:..\..\..\arduinoLCD\test\Pain Drain\libraries\lvgl\src\widgets\../core/lv_obj_style_gen.h **** 
  85:..\..\..\arduinoLCD\test\Pain Drain\libraries\lvgl\src\widgets\../core/lv_obj_style_gen.h **** static inline lv_coord_t lv_obj_get_style_transform_angle(const struct _lv_obj_t * obj, uint32_t pa
  86:..\..\..\arduinoLCD\test\Pain Drain\libraries\lvgl\src\widgets\../core/lv_obj_style_gen.h **** {
  87:..\..\..\arduinoLCD\test\Pain Drain\libraries\lvgl\src\widgets\../core/lv_obj_style_gen.h ****     lv_style_value_t v = lv_obj_get_style_prop(obj, part, LV_STYLE_TRANSFORM_ANGLE);
  88:..\..\..\arduinoLCD\test\Pain Drain\libraries\lvgl\src\widgets\../core/lv_obj_style_gen.h ****     return (lv_coord_t)v.num;
  89:..\..\..\arduinoLCD\test\Pain Drain\libraries\lvgl\src\widgets\../core/lv_obj_style_gen.h **** }
  90:..\..\..\arduinoLCD\test\Pain Drain\libraries\lvgl\src\widgets\../core/lv_obj_style_gen.h **** 
  91:..\..\..\arduinoLCD\test\Pain Drain\libraries\lvgl\src\widgets\../core/lv_obj_style_gen.h **** static inline lv_coord_t lv_obj_get_style_transform_pivot_x(const struct _lv_obj_t * obj, uint32_t 
  92:..\..\..\arduinoLCD\test\Pain Drain\libraries\lvgl\src\widgets\../core/lv_obj_style_gen.h **** {
  93:..\..\..\arduinoLCD\test\Pain Drain\libraries\lvgl\src\widgets\../core/lv_obj_style_gen.h ****     lv_style_value_t v = lv_obj_get_style_prop(obj, part, LV_STYLE_TRANSFORM_PIVOT_X);
  94:..\..\..\arduinoLCD\test\Pain Drain\libraries\lvgl\src\widgets\../core/lv_obj_style_gen.h ****     return (lv_coord_t)v.num;
  95:..\..\..\arduinoLCD\test\Pain Drain\libraries\lvgl\src\widgets\../core/lv_obj_style_gen.h **** }
  96:..\..\..\arduinoLCD\test\Pain Drain\libraries\lvgl\src\widgets\../core/lv_obj_style_gen.h **** 
  97:..\..\..\arduinoLCD\test\Pain Drain\libraries\lvgl\src\widgets\../core/lv_obj_style_gen.h **** static inline lv_coord_t lv_obj_get_style_transform_pivot_y(const struct _lv_obj_t * obj, uint32_t 
  98:..\..\..\arduinoLCD\test\Pain Drain\libraries\lvgl\src\widgets\../core/lv_obj_style_gen.h **** {
  99:..\..\..\arduinoLCD\test\Pain Drain\libraries\lvgl\src\widgets\../core/lv_obj_style_gen.h ****     lv_style_value_t v = lv_obj_get_style_prop(obj, part, LV_STYLE_TRANSFORM_PIVOT_Y);
 100:..\..\..\arduinoLCD\test\Pain Drain\libraries\lvgl\src\widgets\../core/lv_obj_style_gen.h ****     return (lv_coord_t)v.num;
 101:..\..\..\arduinoLCD\test\Pain Drain\libraries\lvgl\src\widgets\../core/lv_obj_style_gen.h **** }
 102:..\..\..\arduinoLCD\test\Pain Drain\libraries\lvgl\src\widgets\../core/lv_obj_style_gen.h **** 
 103:..\..\..\arduinoLCD\test\Pain Drain\libraries\lvgl\src\widgets\../core/lv_obj_style_gen.h **** static inline lv_coord_t lv_obj_get_style_pad_top(const struct _lv_obj_t * obj, uint32_t part)
 104:..\..\..\arduinoLCD\test\Pain Drain\libraries\lvgl\src\widgets\../core/lv_obj_style_gen.h **** {
 105:..\..\..\arduinoLCD\test\Pain Drain\libraries\lvgl\src\widgets\../core/lv_obj_style_gen.h ****     lv_style_value_t v = lv_obj_get_style_prop(obj, part, LV_STYLE_PAD_TOP);
 106:..\..\..\arduinoLCD\test\Pain Drain\libraries\lvgl\src\widgets\../core/lv_obj_style_gen.h ****     return (lv_coord_t)v.num;
 107:..\..\..\arduinoLCD\test\Pain Drain\libraries\lvgl\src\widgets\../core/lv_obj_style_gen.h **** }
ARM GAS  C:\Users\haske\AppData\Local\Temp\ccGWO5DZ.s 			page 18


 108:..\..\..\arduinoLCD\test\Pain Drain\libraries\lvgl\src\widgets\../core/lv_obj_style_gen.h **** 
 109:..\..\..\arduinoLCD\test\Pain Drain\libraries\lvgl\src\widgets\../core/lv_obj_style_gen.h **** static inline lv_coord_t lv_obj_get_style_pad_bottom(const struct _lv_obj_t * obj, uint32_t part)
 110:..\..\..\arduinoLCD\test\Pain Drain\libraries\lvgl\src\widgets\../core/lv_obj_style_gen.h **** {
 111:..\..\..\arduinoLCD\test\Pain Drain\libraries\lvgl\src\widgets\../core/lv_obj_style_gen.h ****     lv_style_value_t v = lv_obj_get_style_prop(obj, part, LV_STYLE_PAD_BOTTOM);
 112:..\..\..\arduinoLCD\test\Pain Drain\libraries\lvgl\src\widgets\../core/lv_obj_style_gen.h ****     return (lv_coord_t)v.num;
 113:..\..\..\arduinoLCD\test\Pain Drain\libraries\lvgl\src\widgets\../core/lv_obj_style_gen.h **** }
 114:..\..\..\arduinoLCD\test\Pain Drain\libraries\lvgl\src\widgets\../core/lv_obj_style_gen.h **** 
 115:..\..\..\arduinoLCD\test\Pain Drain\libraries\lvgl\src\widgets\../core/lv_obj_style_gen.h **** static inline lv_coord_t lv_obj_get_style_pad_left(const struct _lv_obj_t * obj, uint32_t part)
 116:..\..\..\arduinoLCD\test\Pain Drain\libraries\lvgl\src\widgets\../core/lv_obj_style_gen.h **** {
 117:..\..\..\arduinoLCD\test\Pain Drain\libraries\lvgl\src\widgets\../core/lv_obj_style_gen.h ****     lv_style_value_t v = lv_obj_get_style_prop(obj, part, LV_STYLE_PAD_LEFT);
 118:..\..\..\arduinoLCD\test\Pain Drain\libraries\lvgl\src\widgets\../core/lv_obj_style_gen.h ****     return (lv_coord_t)v.num;
 119:..\..\..\arduinoLCD\test\Pain Drain\libraries\lvgl\src\widgets\../core/lv_obj_style_gen.h **** }
 120:..\..\..\arduinoLCD\test\Pain Drain\libraries\lvgl\src\widgets\../core/lv_obj_style_gen.h **** 
 121:..\..\..\arduinoLCD\test\Pain Drain\libraries\lvgl\src\widgets\../core/lv_obj_style_gen.h **** static inline lv_coord_t lv_obj_get_style_pad_right(const struct _lv_obj_t * obj, uint32_t part)
 122:..\..\..\arduinoLCD\test\Pain Drain\libraries\lvgl\src\widgets\../core/lv_obj_style_gen.h **** {
 123:..\..\..\arduinoLCD\test\Pain Drain\libraries\lvgl\src\widgets\../core/lv_obj_style_gen.h ****     lv_style_value_t v = lv_obj_get_style_prop(obj, part, LV_STYLE_PAD_RIGHT);
 124:..\..\..\arduinoLCD\test\Pain Drain\libraries\lvgl\src\widgets\../core/lv_obj_style_gen.h ****     return (lv_coord_t)v.num;
 125:..\..\..\arduinoLCD\test\Pain Drain\libraries\lvgl\src\widgets\../core/lv_obj_style_gen.h **** }
 126:..\..\..\arduinoLCD\test\Pain Drain\libraries\lvgl\src\widgets\../core/lv_obj_style_gen.h **** 
 127:..\..\..\arduinoLCD\test\Pain Drain\libraries\lvgl\src\widgets\../core/lv_obj_style_gen.h **** static inline lv_coord_t lv_obj_get_style_pad_row(const struct _lv_obj_t * obj, uint32_t part)
 128:..\..\..\arduinoLCD\test\Pain Drain\libraries\lvgl\src\widgets\../core/lv_obj_style_gen.h **** {
 129:..\..\..\arduinoLCD\test\Pain Drain\libraries\lvgl\src\widgets\../core/lv_obj_style_gen.h ****     lv_style_value_t v = lv_obj_get_style_prop(obj, part, LV_STYLE_PAD_ROW);
 130:..\..\..\arduinoLCD\test\Pain Drain\libraries\lvgl\src\widgets\../core/lv_obj_style_gen.h ****     return (lv_coord_t)v.num;
 131:..\..\..\arduinoLCD\test\Pain Drain\libraries\lvgl\src\widgets\../core/lv_obj_style_gen.h **** }
 132:..\..\..\arduinoLCD\test\Pain Drain\libraries\lvgl\src\widgets\../core/lv_obj_style_gen.h **** 
 133:..\..\..\arduinoLCD\test\Pain Drain\libraries\lvgl\src\widgets\../core/lv_obj_style_gen.h **** static inline lv_coord_t lv_obj_get_style_pad_column(const struct _lv_obj_t * obj, uint32_t part)
 134:..\..\..\arduinoLCD\test\Pain Drain\libraries\lvgl\src\widgets\../core/lv_obj_style_gen.h **** {
 135:..\..\..\arduinoLCD\test\Pain Drain\libraries\lvgl\src\widgets\../core/lv_obj_style_gen.h ****     lv_style_value_t v = lv_obj_get_style_prop(obj, part, LV_STYLE_PAD_COLUMN);
 136:..\..\..\arduinoLCD\test\Pain Drain\libraries\lvgl\src\widgets\../core/lv_obj_style_gen.h ****     return (lv_coord_t)v.num;
 137:..\..\..\arduinoLCD\test\Pain Drain\libraries\lvgl\src\widgets\../core/lv_obj_style_gen.h **** }
 138:..\..\..\arduinoLCD\test\Pain Drain\libraries\lvgl\src\widgets\../core/lv_obj_style_gen.h **** 
 139:..\..\..\arduinoLCD\test\Pain Drain\libraries\lvgl\src\widgets\../core/lv_obj_style_gen.h **** static inline lv_color_t lv_obj_get_style_bg_color(const struct _lv_obj_t * obj, uint32_t part)
 140:..\..\..\arduinoLCD\test\Pain Drain\libraries\lvgl\src\widgets\../core/lv_obj_style_gen.h **** {
 141:..\..\..\arduinoLCD\test\Pain Drain\libraries\lvgl\src\widgets\../core/lv_obj_style_gen.h ****     lv_style_value_t v = lv_obj_get_style_prop(obj, part, LV_STYLE_BG_COLOR);
 142:..\..\..\arduinoLCD\test\Pain Drain\libraries\lvgl\src\widgets\../core/lv_obj_style_gen.h ****     return v.color;
 143:..\..\..\arduinoLCD\test\Pain Drain\libraries\lvgl\src\widgets\../core/lv_obj_style_gen.h **** }
 144:..\..\..\arduinoLCD\test\Pain Drain\libraries\lvgl\src\widgets\../core/lv_obj_style_gen.h **** 
 145:..\..\..\arduinoLCD\test\Pain Drain\libraries\lvgl\src\widgets\../core/lv_obj_style_gen.h **** static inline lv_color_t lv_obj_get_style_bg_color_filtered(const struct _lv_obj_t * obj, uint32_t 
 146:..\..\..\arduinoLCD\test\Pain Drain\libraries\lvgl\src\widgets\../core/lv_obj_style_gen.h **** {
 147:..\..\..\arduinoLCD\test\Pain Drain\libraries\lvgl\src\widgets\../core/lv_obj_style_gen.h ****     lv_style_value_t v = _lv_obj_style_apply_color_filter(obj, part, lv_obj_get_style_prop(obj, par
 148:..\..\..\arduinoLCD\test\Pain Drain\libraries\lvgl\src\widgets\../core/lv_obj_style_gen.h ****     return v.color;
 149:..\..\..\arduinoLCD\test\Pain Drain\libraries\lvgl\src\widgets\../core/lv_obj_style_gen.h **** }
 150:..\..\..\arduinoLCD\test\Pain Drain\libraries\lvgl\src\widgets\../core/lv_obj_style_gen.h **** 
 151:..\..\..\arduinoLCD\test\Pain Drain\libraries\lvgl\src\widgets\../core/lv_obj_style_gen.h **** static inline lv_opa_t lv_obj_get_style_bg_opa(const struct _lv_obj_t * obj, uint32_t part)
 152:..\..\..\arduinoLCD\test\Pain Drain\libraries\lvgl\src\widgets\../core/lv_obj_style_gen.h **** {
 153:..\..\..\arduinoLCD\test\Pain Drain\libraries\lvgl\src\widgets\../core/lv_obj_style_gen.h ****     lv_style_value_t v = lv_obj_get_style_prop(obj, part, LV_STYLE_BG_OPA);
 154:..\..\..\arduinoLCD\test\Pain Drain\libraries\lvgl\src\widgets\../core/lv_obj_style_gen.h ****     return (lv_opa_t)v.num;
 155:..\..\..\arduinoLCD\test\Pain Drain\libraries\lvgl\src\widgets\../core/lv_obj_style_gen.h **** }
 156:..\..\..\arduinoLCD\test\Pain Drain\libraries\lvgl\src\widgets\../core/lv_obj_style_gen.h **** 
 157:..\..\..\arduinoLCD\test\Pain Drain\libraries\lvgl\src\widgets\../core/lv_obj_style_gen.h **** static inline lv_color_t lv_obj_get_style_bg_grad_color(const struct _lv_obj_t * obj, uint32_t part
 158:..\..\..\arduinoLCD\test\Pain Drain\libraries\lvgl\src\widgets\../core/lv_obj_style_gen.h **** {
 159:..\..\..\arduinoLCD\test\Pain Drain\libraries\lvgl\src\widgets\../core/lv_obj_style_gen.h ****     lv_style_value_t v = lv_obj_get_style_prop(obj, part, LV_STYLE_BG_GRAD_COLOR);
 160:..\..\..\arduinoLCD\test\Pain Drain\libraries\lvgl\src\widgets\../core/lv_obj_style_gen.h ****     return v.color;
 161:..\..\..\arduinoLCD\test\Pain Drain\libraries\lvgl\src\widgets\../core/lv_obj_style_gen.h **** }
 162:..\..\..\arduinoLCD\test\Pain Drain\libraries\lvgl\src\widgets\../core/lv_obj_style_gen.h **** 
 163:..\..\..\arduinoLCD\test\Pain Drain\libraries\lvgl\src\widgets\../core/lv_obj_style_gen.h **** static inline lv_color_t lv_obj_get_style_bg_grad_color_filtered(const struct _lv_obj_t * obj, uint
 164:..\..\..\arduinoLCD\test\Pain Drain\libraries\lvgl\src\widgets\../core/lv_obj_style_gen.h **** {
ARM GAS  C:\Users\haske\AppData\Local\Temp\ccGWO5DZ.s 			page 19


 165:..\..\..\arduinoLCD\test\Pain Drain\libraries\lvgl\src\widgets\../core/lv_obj_style_gen.h ****     lv_style_value_t v = _lv_obj_style_apply_color_filter(obj, part, lv_obj_get_style_prop(obj, par
 166:..\..\..\arduinoLCD\test\Pain Drain\libraries\lvgl\src\widgets\../core/lv_obj_style_gen.h ****     return v.color;
 167:..\..\..\arduinoLCD\test\Pain Drain\libraries\lvgl\src\widgets\../core/lv_obj_style_gen.h **** }
 168:..\..\..\arduinoLCD\test\Pain Drain\libraries\lvgl\src\widgets\../core/lv_obj_style_gen.h **** 
 169:..\..\..\arduinoLCD\test\Pain Drain\libraries\lvgl\src\widgets\../core/lv_obj_style_gen.h **** static inline lv_grad_dir_t lv_obj_get_style_bg_grad_dir(const struct _lv_obj_t * obj, uint32_t par
 170:..\..\..\arduinoLCD\test\Pain Drain\libraries\lvgl\src\widgets\../core/lv_obj_style_gen.h **** {
 171:..\..\..\arduinoLCD\test\Pain Drain\libraries\lvgl\src\widgets\../core/lv_obj_style_gen.h ****     lv_style_value_t v = lv_obj_get_style_prop(obj, part, LV_STYLE_BG_GRAD_DIR);
 172:..\..\..\arduinoLCD\test\Pain Drain\libraries\lvgl\src\widgets\../core/lv_obj_style_gen.h ****     return (lv_grad_dir_t)v.num;
 173:..\..\..\arduinoLCD\test\Pain Drain\libraries\lvgl\src\widgets\../core/lv_obj_style_gen.h **** }
 174:..\..\..\arduinoLCD\test\Pain Drain\libraries\lvgl\src\widgets\../core/lv_obj_style_gen.h **** 
 175:..\..\..\arduinoLCD\test\Pain Drain\libraries\lvgl\src\widgets\../core/lv_obj_style_gen.h **** static inline lv_coord_t lv_obj_get_style_bg_main_stop(const struct _lv_obj_t * obj, uint32_t part)
 176:..\..\..\arduinoLCD\test\Pain Drain\libraries\lvgl\src\widgets\../core/lv_obj_style_gen.h **** {
 177:..\..\..\arduinoLCD\test\Pain Drain\libraries\lvgl\src\widgets\../core/lv_obj_style_gen.h ****     lv_style_value_t v = lv_obj_get_style_prop(obj, part, LV_STYLE_BG_MAIN_STOP);
 178:..\..\..\arduinoLCD\test\Pain Drain\libraries\lvgl\src\widgets\../core/lv_obj_style_gen.h ****     return (lv_coord_t)v.num;
 179:..\..\..\arduinoLCD\test\Pain Drain\libraries\lvgl\src\widgets\../core/lv_obj_style_gen.h **** }
 180:..\..\..\arduinoLCD\test\Pain Drain\libraries\lvgl\src\widgets\../core/lv_obj_style_gen.h **** 
 181:..\..\..\arduinoLCD\test\Pain Drain\libraries\lvgl\src\widgets\../core/lv_obj_style_gen.h **** static inline lv_coord_t lv_obj_get_style_bg_grad_stop(const struct _lv_obj_t * obj, uint32_t part)
 182:..\..\..\arduinoLCD\test\Pain Drain\libraries\lvgl\src\widgets\../core/lv_obj_style_gen.h **** {
 183:..\..\..\arduinoLCD\test\Pain Drain\libraries\lvgl\src\widgets\../core/lv_obj_style_gen.h ****     lv_style_value_t v = lv_obj_get_style_prop(obj, part, LV_STYLE_BG_GRAD_STOP);
 184:..\..\..\arduinoLCD\test\Pain Drain\libraries\lvgl\src\widgets\../core/lv_obj_style_gen.h ****     return (lv_coord_t)v.num;
 185:..\..\..\arduinoLCD\test\Pain Drain\libraries\lvgl\src\widgets\../core/lv_obj_style_gen.h **** }
 186:..\..\..\arduinoLCD\test\Pain Drain\libraries\lvgl\src\widgets\../core/lv_obj_style_gen.h **** 
 187:..\..\..\arduinoLCD\test\Pain Drain\libraries\lvgl\src\widgets\../core/lv_obj_style_gen.h **** static inline const lv_grad_dsc_t * lv_obj_get_style_bg_grad(const struct _lv_obj_t * obj, uint32_t
 188:..\..\..\arduinoLCD\test\Pain Drain\libraries\lvgl\src\widgets\../core/lv_obj_style_gen.h **** {
 189:..\..\..\arduinoLCD\test\Pain Drain\libraries\lvgl\src\widgets\../core/lv_obj_style_gen.h ****     lv_style_value_t v = lv_obj_get_style_prop(obj, part, LV_STYLE_BG_GRAD);
 190:..\..\..\arduinoLCD\test\Pain Drain\libraries\lvgl\src\widgets\../core/lv_obj_style_gen.h ****     return (const lv_grad_dsc_t *)v.ptr;
 191:..\..\..\arduinoLCD\test\Pain Drain\libraries\lvgl\src\widgets\../core/lv_obj_style_gen.h **** }
 192:..\..\..\arduinoLCD\test\Pain Drain\libraries\lvgl\src\widgets\../core/lv_obj_style_gen.h **** 
 193:..\..\..\arduinoLCD\test\Pain Drain\libraries\lvgl\src\widgets\../core/lv_obj_style_gen.h **** static inline lv_dither_mode_t lv_obj_get_style_bg_dither_mode(const struct _lv_obj_t * obj, uint32
 194:..\..\..\arduinoLCD\test\Pain Drain\libraries\lvgl\src\widgets\../core/lv_obj_style_gen.h **** {
 195:..\..\..\arduinoLCD\test\Pain Drain\libraries\lvgl\src\widgets\../core/lv_obj_style_gen.h ****     lv_style_value_t v = lv_obj_get_style_prop(obj, part, LV_STYLE_BG_DITHER_MODE);
 196:..\..\..\arduinoLCD\test\Pain Drain\libraries\lvgl\src\widgets\../core/lv_obj_style_gen.h ****     return (lv_dither_mode_t)v.num;
 197:..\..\..\arduinoLCD\test\Pain Drain\libraries\lvgl\src\widgets\../core/lv_obj_style_gen.h **** }
 198:..\..\..\arduinoLCD\test\Pain Drain\libraries\lvgl\src\widgets\../core/lv_obj_style_gen.h **** 
 199:..\..\..\arduinoLCD\test\Pain Drain\libraries\lvgl\src\widgets\../core/lv_obj_style_gen.h **** static inline const void * lv_obj_get_style_bg_img_src(const struct _lv_obj_t * obj, uint32_t part)
 200:..\..\..\arduinoLCD\test\Pain Drain\libraries\lvgl\src\widgets\../core/lv_obj_style_gen.h **** {
 201:..\..\..\arduinoLCD\test\Pain Drain\libraries\lvgl\src\widgets\../core/lv_obj_style_gen.h ****     lv_style_value_t v = lv_obj_get_style_prop(obj, part, LV_STYLE_BG_IMG_SRC);
 202:..\..\..\arduinoLCD\test\Pain Drain\libraries\lvgl\src\widgets\../core/lv_obj_style_gen.h ****     return (const void *)v.ptr;
 203:..\..\..\arduinoLCD\test\Pain Drain\libraries\lvgl\src\widgets\../core/lv_obj_style_gen.h **** }
 204:..\..\..\arduinoLCD\test\Pain Drain\libraries\lvgl\src\widgets\../core/lv_obj_style_gen.h **** 
 205:..\..\..\arduinoLCD\test\Pain Drain\libraries\lvgl\src\widgets\../core/lv_obj_style_gen.h **** static inline lv_opa_t lv_obj_get_style_bg_img_opa(const struct _lv_obj_t * obj, uint32_t part)
 206:..\..\..\arduinoLCD\test\Pain Drain\libraries\lvgl\src\widgets\../core/lv_obj_style_gen.h **** {
 207:..\..\..\arduinoLCD\test\Pain Drain\libraries\lvgl\src\widgets\../core/lv_obj_style_gen.h ****     lv_style_value_t v = lv_obj_get_style_prop(obj, part, LV_STYLE_BG_IMG_OPA);
 208:..\..\..\arduinoLCD\test\Pain Drain\libraries\lvgl\src\widgets\../core/lv_obj_style_gen.h ****     return (lv_opa_t)v.num;
 209:..\..\..\arduinoLCD\test\Pain Drain\libraries\lvgl\src\widgets\../core/lv_obj_style_gen.h **** }
 210:..\..\..\arduinoLCD\test\Pain Drain\libraries\lvgl\src\widgets\../core/lv_obj_style_gen.h **** 
 211:..\..\..\arduinoLCD\test\Pain Drain\libraries\lvgl\src\widgets\../core/lv_obj_style_gen.h **** static inline lv_color_t lv_obj_get_style_bg_img_recolor(const struct _lv_obj_t * obj, uint32_t par
 212:..\..\..\arduinoLCD\test\Pain Drain\libraries\lvgl\src\widgets\../core/lv_obj_style_gen.h **** {
 213:..\..\..\arduinoLCD\test\Pain Drain\libraries\lvgl\src\widgets\../core/lv_obj_style_gen.h ****     lv_style_value_t v = lv_obj_get_style_prop(obj, part, LV_STYLE_BG_IMG_RECOLOR);
 214:..\..\..\arduinoLCD\test\Pain Drain\libraries\lvgl\src\widgets\../core/lv_obj_style_gen.h ****     return v.color;
 215:..\..\..\arduinoLCD\test\Pain Drain\libraries\lvgl\src\widgets\../core/lv_obj_style_gen.h **** }
 216:..\..\..\arduinoLCD\test\Pain Drain\libraries\lvgl\src\widgets\../core/lv_obj_style_gen.h **** 
 217:..\..\..\arduinoLCD\test\Pain Drain\libraries\lvgl\src\widgets\../core/lv_obj_style_gen.h **** static inline lv_color_t lv_obj_get_style_bg_img_recolor_filtered(const struct _lv_obj_t * obj, uin
 218:..\..\..\arduinoLCD\test\Pain Drain\libraries\lvgl\src\widgets\../core/lv_obj_style_gen.h **** {
 219:..\..\..\arduinoLCD\test\Pain Drain\libraries\lvgl\src\widgets\../core/lv_obj_style_gen.h ****     lv_style_value_t v = _lv_obj_style_apply_color_filter(obj, part, lv_obj_get_style_prop(obj, par
 220:..\..\..\arduinoLCD\test\Pain Drain\libraries\lvgl\src\widgets\../core/lv_obj_style_gen.h ****     return v.color;
 221:..\..\..\arduinoLCD\test\Pain Drain\libraries\lvgl\src\widgets\../core/lv_obj_style_gen.h **** }
ARM GAS  C:\Users\haske\AppData\Local\Temp\ccGWO5DZ.s 			page 20


 222:..\..\..\arduinoLCD\test\Pain Drain\libraries\lvgl\src\widgets\../core/lv_obj_style_gen.h **** 
 223:..\..\..\arduinoLCD\test\Pain Drain\libraries\lvgl\src\widgets\../core/lv_obj_style_gen.h **** static inline lv_opa_t lv_obj_get_style_bg_img_recolor_opa(const struct _lv_obj_t * obj, uint32_t p
 224:..\..\..\arduinoLCD\test\Pain Drain\libraries\lvgl\src\widgets\../core/lv_obj_style_gen.h **** {
 225:..\..\..\arduinoLCD\test\Pain Drain\libraries\lvgl\src\widgets\../core/lv_obj_style_gen.h ****     lv_style_value_t v = lv_obj_get_style_prop(obj, part, LV_STYLE_BG_IMG_RECOLOR_OPA);
 226:..\..\..\arduinoLCD\test\Pain Drain\libraries\lvgl\src\widgets\../core/lv_obj_style_gen.h ****     return (lv_opa_t)v.num;
 227:..\..\..\arduinoLCD\test\Pain Drain\libraries\lvgl\src\widgets\../core/lv_obj_style_gen.h **** }
 228:..\..\..\arduinoLCD\test\Pain Drain\libraries\lvgl\src\widgets\../core/lv_obj_style_gen.h **** 
 229:..\..\..\arduinoLCD\test\Pain Drain\libraries\lvgl\src\widgets\../core/lv_obj_style_gen.h **** static inline bool lv_obj_get_style_bg_img_tiled(const struct _lv_obj_t * obj, uint32_t part)
 230:..\..\..\arduinoLCD\test\Pain Drain\libraries\lvgl\src\widgets\../core/lv_obj_style_gen.h **** {
 231:..\..\..\arduinoLCD\test\Pain Drain\libraries\lvgl\src\widgets\../core/lv_obj_style_gen.h ****     lv_style_value_t v = lv_obj_get_style_prop(obj, part, LV_STYLE_BG_IMG_TILED);
 232:..\..\..\arduinoLCD\test\Pain Drain\libraries\lvgl\src\widgets\../core/lv_obj_style_gen.h ****     return (bool)v.num;
 233:..\..\..\arduinoLCD\test\Pain Drain\libraries\lvgl\src\widgets\../core/lv_obj_style_gen.h **** }
 234:..\..\..\arduinoLCD\test\Pain Drain\libraries\lvgl\src\widgets\../core/lv_obj_style_gen.h **** 
 235:..\..\..\arduinoLCD\test\Pain Drain\libraries\lvgl\src\widgets\../core/lv_obj_style_gen.h **** static inline lv_color_t lv_obj_get_style_border_color(const struct _lv_obj_t * obj, uint32_t part)
 236:..\..\..\arduinoLCD\test\Pain Drain\libraries\lvgl\src\widgets\../core/lv_obj_style_gen.h **** {
 237:..\..\..\arduinoLCD\test\Pain Drain\libraries\lvgl\src\widgets\../core/lv_obj_style_gen.h ****     lv_style_value_t v = lv_obj_get_style_prop(obj, part, LV_STYLE_BORDER_COLOR);
 238:..\..\..\arduinoLCD\test\Pain Drain\libraries\lvgl\src\widgets\../core/lv_obj_style_gen.h ****     return v.color;
 239:..\..\..\arduinoLCD\test\Pain Drain\libraries\lvgl\src\widgets\../core/lv_obj_style_gen.h **** }
 240:..\..\..\arduinoLCD\test\Pain Drain\libraries\lvgl\src\widgets\../core/lv_obj_style_gen.h **** 
 241:..\..\..\arduinoLCD\test\Pain Drain\libraries\lvgl\src\widgets\../core/lv_obj_style_gen.h **** static inline lv_color_t lv_obj_get_style_border_color_filtered(const struct _lv_obj_t * obj, uint3
 242:..\..\..\arduinoLCD\test\Pain Drain\libraries\lvgl\src\widgets\../core/lv_obj_style_gen.h **** {
 243:..\..\..\arduinoLCD\test\Pain Drain\libraries\lvgl\src\widgets\../core/lv_obj_style_gen.h ****     lv_style_value_t v = _lv_obj_style_apply_color_filter(obj, part, lv_obj_get_style_prop(obj, par
 244:..\..\..\arduinoLCD\test\Pain Drain\libraries\lvgl\src\widgets\../core/lv_obj_style_gen.h ****     return v.color;
 245:..\..\..\arduinoLCD\test\Pain Drain\libraries\lvgl\src\widgets\../core/lv_obj_style_gen.h **** }
 246:..\..\..\arduinoLCD\test\Pain Drain\libraries\lvgl\src\widgets\../core/lv_obj_style_gen.h **** 
 247:..\..\..\arduinoLCD\test\Pain Drain\libraries\lvgl\src\widgets\../core/lv_obj_style_gen.h **** static inline lv_opa_t lv_obj_get_style_border_opa(const struct _lv_obj_t * obj, uint32_t part)
 248:..\..\..\arduinoLCD\test\Pain Drain\libraries\lvgl\src\widgets\../core/lv_obj_style_gen.h **** {
 249:..\..\..\arduinoLCD\test\Pain Drain\libraries\lvgl\src\widgets\../core/lv_obj_style_gen.h ****     lv_style_value_t v = lv_obj_get_style_prop(obj, part, LV_STYLE_BORDER_OPA);
 250:..\..\..\arduinoLCD\test\Pain Drain\libraries\lvgl\src\widgets\../core/lv_obj_style_gen.h ****     return (lv_opa_t)v.num;
 251:..\..\..\arduinoLCD\test\Pain Drain\libraries\lvgl\src\widgets\../core/lv_obj_style_gen.h **** }
 252:..\..\..\arduinoLCD\test\Pain Drain\libraries\lvgl\src\widgets\../core/lv_obj_style_gen.h **** 
 253:..\..\..\arduinoLCD\test\Pain Drain\libraries\lvgl\src\widgets\../core/lv_obj_style_gen.h **** static inline lv_coord_t lv_obj_get_style_border_width(const struct _lv_obj_t * obj, uint32_t part)
 254:..\..\..\arduinoLCD\test\Pain Drain\libraries\lvgl\src\widgets\../core/lv_obj_style_gen.h **** {
 255:..\..\..\arduinoLCD\test\Pain Drain\libraries\lvgl\src\widgets\../core/lv_obj_style_gen.h ****     lv_style_value_t v = lv_obj_get_style_prop(obj, part, LV_STYLE_BORDER_WIDTH);
 256:..\..\..\arduinoLCD\test\Pain Drain\libraries\lvgl\src\widgets\../core/lv_obj_style_gen.h ****     return (lv_coord_t)v.num;
 257:..\..\..\arduinoLCD\test\Pain Drain\libraries\lvgl\src\widgets\../core/lv_obj_style_gen.h **** }
 258:..\..\..\arduinoLCD\test\Pain Drain\libraries\lvgl\src\widgets\../core/lv_obj_style_gen.h **** 
 259:..\..\..\arduinoLCD\test\Pain Drain\libraries\lvgl\src\widgets\../core/lv_obj_style_gen.h **** static inline lv_border_side_t lv_obj_get_style_border_side(const struct _lv_obj_t * obj, uint32_t 
 260:..\..\..\arduinoLCD\test\Pain Drain\libraries\lvgl\src\widgets\../core/lv_obj_style_gen.h **** {
 261:..\..\..\arduinoLCD\test\Pain Drain\libraries\lvgl\src\widgets\../core/lv_obj_style_gen.h ****     lv_style_value_t v = lv_obj_get_style_prop(obj, part, LV_STYLE_BORDER_SIDE);
 262:..\..\..\arduinoLCD\test\Pain Drain\libraries\lvgl\src\widgets\../core/lv_obj_style_gen.h ****     return (lv_border_side_t)v.num;
 263:..\..\..\arduinoLCD\test\Pain Drain\libraries\lvgl\src\widgets\../core/lv_obj_style_gen.h **** }
 264:..\..\..\arduinoLCD\test\Pain Drain\libraries\lvgl\src\widgets\../core/lv_obj_style_gen.h **** 
 265:..\..\..\arduinoLCD\test\Pain Drain\libraries\lvgl\src\widgets\../core/lv_obj_style_gen.h **** static inline bool lv_obj_get_style_border_post(const struct _lv_obj_t * obj, uint32_t part)
 266:..\..\..\arduinoLCD\test\Pain Drain\libraries\lvgl\src\widgets\../core/lv_obj_style_gen.h **** {
 267:..\..\..\arduinoLCD\test\Pain Drain\libraries\lvgl\src\widgets\../core/lv_obj_style_gen.h ****     lv_style_value_t v = lv_obj_get_style_prop(obj, part, LV_STYLE_BORDER_POST);
 268:..\..\..\arduinoLCD\test\Pain Drain\libraries\lvgl\src\widgets\../core/lv_obj_style_gen.h ****     return (bool)v.num;
 269:..\..\..\arduinoLCD\test\Pain Drain\libraries\lvgl\src\widgets\../core/lv_obj_style_gen.h **** }
 270:..\..\..\arduinoLCD\test\Pain Drain\libraries\lvgl\src\widgets\../core/lv_obj_style_gen.h **** 
 271:..\..\..\arduinoLCD\test\Pain Drain\libraries\lvgl\src\widgets\../core/lv_obj_style_gen.h **** static inline lv_coord_t lv_obj_get_style_outline_width(const struct _lv_obj_t * obj, uint32_t part
 272:..\..\..\arduinoLCD\test\Pain Drain\libraries\lvgl\src\widgets\../core/lv_obj_style_gen.h **** {
 273:..\..\..\arduinoLCD\test\Pain Drain\libraries\lvgl\src\widgets\../core/lv_obj_style_gen.h ****     lv_style_value_t v = lv_obj_get_style_prop(obj, part, LV_STYLE_OUTLINE_WIDTH);
 274:..\..\..\arduinoLCD\test\Pain Drain\libraries\lvgl\src\widgets\../core/lv_obj_style_gen.h ****     return (lv_coord_t)v.num;
 275:..\..\..\arduinoLCD\test\Pain Drain\libraries\lvgl\src\widgets\../core/lv_obj_style_gen.h **** }
 276:..\..\..\arduinoLCD\test\Pain Drain\libraries\lvgl\src\widgets\../core/lv_obj_style_gen.h **** 
 277:..\..\..\arduinoLCD\test\Pain Drain\libraries\lvgl\src\widgets\../core/lv_obj_style_gen.h **** static inline lv_color_t lv_obj_get_style_outline_color(const struct _lv_obj_t * obj, uint32_t part
 278:..\..\..\arduinoLCD\test\Pain Drain\libraries\lvgl\src\widgets\../core/lv_obj_style_gen.h **** {
ARM GAS  C:\Users\haske\AppData\Local\Temp\ccGWO5DZ.s 			page 21


 279:..\..\..\arduinoLCD\test\Pain Drain\libraries\lvgl\src\widgets\../core/lv_obj_style_gen.h ****     lv_style_value_t v = lv_obj_get_style_prop(obj, part, LV_STYLE_OUTLINE_COLOR);
 280:..\..\..\arduinoLCD\test\Pain Drain\libraries\lvgl\src\widgets\../core/lv_obj_style_gen.h ****     return v.color;
 281:..\..\..\arduinoLCD\test\Pain Drain\libraries\lvgl\src\widgets\../core/lv_obj_style_gen.h **** }
 282:..\..\..\arduinoLCD\test\Pain Drain\libraries\lvgl\src\widgets\../core/lv_obj_style_gen.h **** 
 283:..\..\..\arduinoLCD\test\Pain Drain\libraries\lvgl\src\widgets\../core/lv_obj_style_gen.h **** static inline lv_color_t lv_obj_get_style_outline_color_filtered(const struct _lv_obj_t * obj, uint
 284:..\..\..\arduinoLCD\test\Pain Drain\libraries\lvgl\src\widgets\../core/lv_obj_style_gen.h **** {
 285:..\..\..\arduinoLCD\test\Pain Drain\libraries\lvgl\src\widgets\../core/lv_obj_style_gen.h ****     lv_style_value_t v = _lv_obj_style_apply_color_filter(obj, part, lv_obj_get_style_prop(obj, par
 286:..\..\..\arduinoLCD\test\Pain Drain\libraries\lvgl\src\widgets\../core/lv_obj_style_gen.h ****     return v.color;
 287:..\..\..\arduinoLCD\test\Pain Drain\libraries\lvgl\src\widgets\../core/lv_obj_style_gen.h **** }
 288:..\..\..\arduinoLCD\test\Pain Drain\libraries\lvgl\src\widgets\../core/lv_obj_style_gen.h **** 
 289:..\..\..\arduinoLCD\test\Pain Drain\libraries\lvgl\src\widgets\../core/lv_obj_style_gen.h **** static inline lv_opa_t lv_obj_get_style_outline_opa(const struct _lv_obj_t * obj, uint32_t part)
 290:..\..\..\arduinoLCD\test\Pain Drain\libraries\lvgl\src\widgets\../core/lv_obj_style_gen.h **** {
 291:..\..\..\arduinoLCD\test\Pain Drain\libraries\lvgl\src\widgets\../core/lv_obj_style_gen.h ****     lv_style_value_t v = lv_obj_get_style_prop(obj, part, LV_STYLE_OUTLINE_OPA);
 292:..\..\..\arduinoLCD\test\Pain Drain\libraries\lvgl\src\widgets\../core/lv_obj_style_gen.h ****     return (lv_opa_t)v.num;
 293:..\..\..\arduinoLCD\test\Pain Drain\libraries\lvgl\src\widgets\../core/lv_obj_style_gen.h **** }
 294:..\..\..\arduinoLCD\test\Pain Drain\libraries\lvgl\src\widgets\../core/lv_obj_style_gen.h **** 
 295:..\..\..\arduinoLCD\test\Pain Drain\libraries\lvgl\src\widgets\../core/lv_obj_style_gen.h **** static inline lv_coord_t lv_obj_get_style_outline_pad(const struct _lv_obj_t * obj, uint32_t part)
 296:..\..\..\arduinoLCD\test\Pain Drain\libraries\lvgl\src\widgets\../core/lv_obj_style_gen.h **** {
 297:..\..\..\arduinoLCD\test\Pain Drain\libraries\lvgl\src\widgets\../core/lv_obj_style_gen.h ****     lv_style_value_t v = lv_obj_get_style_prop(obj, part, LV_STYLE_OUTLINE_PAD);
 298:..\..\..\arduinoLCD\test\Pain Drain\libraries\lvgl\src\widgets\../core/lv_obj_style_gen.h ****     return (lv_coord_t)v.num;
 299:..\..\..\arduinoLCD\test\Pain Drain\libraries\lvgl\src\widgets\../core/lv_obj_style_gen.h **** }
 300:..\..\..\arduinoLCD\test\Pain Drain\libraries\lvgl\src\widgets\../core/lv_obj_style_gen.h **** 
 301:..\..\..\arduinoLCD\test\Pain Drain\libraries\lvgl\src\widgets\../core/lv_obj_style_gen.h **** static inline lv_coord_t lv_obj_get_style_shadow_width(const struct _lv_obj_t * obj, uint32_t part)
 302:..\..\..\arduinoLCD\test\Pain Drain\libraries\lvgl\src\widgets\../core/lv_obj_style_gen.h **** {
 303:..\..\..\arduinoLCD\test\Pain Drain\libraries\lvgl\src\widgets\../core/lv_obj_style_gen.h ****     lv_style_value_t v = lv_obj_get_style_prop(obj, part, LV_STYLE_SHADOW_WIDTH);
 304:..\..\..\arduinoLCD\test\Pain Drain\libraries\lvgl\src\widgets\../core/lv_obj_style_gen.h ****     return (lv_coord_t)v.num;
 305:..\..\..\arduinoLCD\test\Pain Drain\libraries\lvgl\src\widgets\../core/lv_obj_style_gen.h **** }
 306:..\..\..\arduinoLCD\test\Pain Drain\libraries\lvgl\src\widgets\../core/lv_obj_style_gen.h **** 
 307:..\..\..\arduinoLCD\test\Pain Drain\libraries\lvgl\src\widgets\../core/lv_obj_style_gen.h **** static inline lv_coord_t lv_obj_get_style_shadow_ofs_x(const struct _lv_obj_t * obj, uint32_t part)
 308:..\..\..\arduinoLCD\test\Pain Drain\libraries\lvgl\src\widgets\../core/lv_obj_style_gen.h **** {
 309:..\..\..\arduinoLCD\test\Pain Drain\libraries\lvgl\src\widgets\../core/lv_obj_style_gen.h ****     lv_style_value_t v = lv_obj_get_style_prop(obj, part, LV_STYLE_SHADOW_OFS_X);
 310:..\..\..\arduinoLCD\test\Pain Drain\libraries\lvgl\src\widgets\../core/lv_obj_style_gen.h ****     return (lv_coord_t)v.num;
 311:..\..\..\arduinoLCD\test\Pain Drain\libraries\lvgl\src\widgets\../core/lv_obj_style_gen.h **** }
 312:..\..\..\arduinoLCD\test\Pain Drain\libraries\lvgl\src\widgets\../core/lv_obj_style_gen.h **** 
 313:..\..\..\arduinoLCD\test\Pain Drain\libraries\lvgl\src\widgets\../core/lv_obj_style_gen.h **** static inline lv_coord_t lv_obj_get_style_shadow_ofs_y(const struct _lv_obj_t * obj, uint32_t part)
 314:..\..\..\arduinoLCD\test\Pain Drain\libraries\lvgl\src\widgets\../core/lv_obj_style_gen.h **** {
 315:..\..\..\arduinoLCD\test\Pain Drain\libraries\lvgl\src\widgets\../core/lv_obj_style_gen.h ****     lv_style_value_t v = lv_obj_get_style_prop(obj, part, LV_STYLE_SHADOW_OFS_Y);
 316:..\..\..\arduinoLCD\test\Pain Drain\libraries\lvgl\src\widgets\../core/lv_obj_style_gen.h ****     return (lv_coord_t)v.num;
 317:..\..\..\arduinoLCD\test\Pain Drain\libraries\lvgl\src\widgets\../core/lv_obj_style_gen.h **** }
 318:..\..\..\arduinoLCD\test\Pain Drain\libraries\lvgl\src\widgets\../core/lv_obj_style_gen.h **** 
 319:..\..\..\arduinoLCD\test\Pain Drain\libraries\lvgl\src\widgets\../core/lv_obj_style_gen.h **** static inline lv_coord_t lv_obj_get_style_shadow_spread(const struct _lv_obj_t * obj, uint32_t part
 320:..\..\..\arduinoLCD\test\Pain Drain\libraries\lvgl\src\widgets\../core/lv_obj_style_gen.h **** {
 321:..\..\..\arduinoLCD\test\Pain Drain\libraries\lvgl\src\widgets\../core/lv_obj_style_gen.h ****     lv_style_value_t v = lv_obj_get_style_prop(obj, part, LV_STYLE_SHADOW_SPREAD);
 322:..\..\..\arduinoLCD\test\Pain Drain\libraries\lvgl\src\widgets\../core/lv_obj_style_gen.h ****     return (lv_coord_t)v.num;
 323:..\..\..\arduinoLCD\test\Pain Drain\libraries\lvgl\src\widgets\../core/lv_obj_style_gen.h **** }
 324:..\..\..\arduinoLCD\test\Pain Drain\libraries\lvgl\src\widgets\../core/lv_obj_style_gen.h **** 
 325:..\..\..\arduinoLCD\test\Pain Drain\libraries\lvgl\src\widgets\../core/lv_obj_style_gen.h **** static inline lv_color_t lv_obj_get_style_shadow_color(const struct _lv_obj_t * obj, uint32_t part)
 326:..\..\..\arduinoLCD\test\Pain Drain\libraries\lvgl\src\widgets\../core/lv_obj_style_gen.h **** {
 327:..\..\..\arduinoLCD\test\Pain Drain\libraries\lvgl\src\widgets\../core/lv_obj_style_gen.h ****     lv_style_value_t v = lv_obj_get_style_prop(obj, part, LV_STYLE_SHADOW_COLOR);
 328:..\..\..\arduinoLCD\test\Pain Drain\libraries\lvgl\src\widgets\../core/lv_obj_style_gen.h ****     return v.color;
 329:..\..\..\arduinoLCD\test\Pain Drain\libraries\lvgl\src\widgets\../core/lv_obj_style_gen.h **** }
 330:..\..\..\arduinoLCD\test\Pain Drain\libraries\lvgl\src\widgets\../core/lv_obj_style_gen.h **** 
 331:..\..\..\arduinoLCD\test\Pain Drain\libraries\lvgl\src\widgets\../core/lv_obj_style_gen.h **** static inline lv_color_t lv_obj_get_style_shadow_color_filtered(const struct _lv_obj_t * obj, uint3
 332:..\..\..\arduinoLCD\test\Pain Drain\libraries\lvgl\src\widgets\../core/lv_obj_style_gen.h **** {
 333:..\..\..\arduinoLCD\test\Pain Drain\libraries\lvgl\src\widgets\../core/lv_obj_style_gen.h ****     lv_style_value_t v = _lv_obj_style_apply_color_filter(obj, part, lv_obj_get_style_prop(obj, par
 334:..\..\..\arduinoLCD\test\Pain Drain\libraries\lvgl\src\widgets\../core/lv_obj_style_gen.h ****     return v.color;
 335:..\..\..\arduinoLCD\test\Pain Drain\libraries\lvgl\src\widgets\../core/lv_obj_style_gen.h **** }
ARM GAS  C:\Users\haske\AppData\Local\Temp\ccGWO5DZ.s 			page 22


 336:..\..\..\arduinoLCD\test\Pain Drain\libraries\lvgl\src\widgets\../core/lv_obj_style_gen.h **** 
 337:..\..\..\arduinoLCD\test\Pain Drain\libraries\lvgl\src\widgets\../core/lv_obj_style_gen.h **** static inline lv_opa_t lv_obj_get_style_shadow_opa(const struct _lv_obj_t * obj, uint32_t part)
 338:..\..\..\arduinoLCD\test\Pain Drain\libraries\lvgl\src\widgets\../core/lv_obj_style_gen.h **** {
 339:..\..\..\arduinoLCD\test\Pain Drain\libraries\lvgl\src\widgets\../core/lv_obj_style_gen.h ****     lv_style_value_t v = lv_obj_get_style_prop(obj, part, LV_STYLE_SHADOW_OPA);
 340:..\..\..\arduinoLCD\test\Pain Drain\libraries\lvgl\src\widgets\../core/lv_obj_style_gen.h ****     return (lv_opa_t)v.num;
 341:..\..\..\arduinoLCD\test\Pain Drain\libraries\lvgl\src\widgets\../core/lv_obj_style_gen.h **** }
 342:..\..\..\arduinoLCD\test\Pain Drain\libraries\lvgl\src\widgets\../core/lv_obj_style_gen.h **** 
 343:..\..\..\arduinoLCD\test\Pain Drain\libraries\lvgl\src\widgets\../core/lv_obj_style_gen.h **** static inline lv_opa_t lv_obj_get_style_img_opa(const struct _lv_obj_t * obj, uint32_t part)
 344:..\..\..\arduinoLCD\test\Pain Drain\libraries\lvgl\src\widgets\../core/lv_obj_style_gen.h **** {
 345:..\..\..\arduinoLCD\test\Pain Drain\libraries\lvgl\src\widgets\../core/lv_obj_style_gen.h ****     lv_style_value_t v = lv_obj_get_style_prop(obj, part, LV_STYLE_IMG_OPA);
 192              		.loc 3 345 0
 193 005c 4622     		movs	r2, #70
 194 005e 0021     		movs	r1, #0
 195 0060 2000     		movs	r0, r4
 196              	.LVL17:
 197 0062 FFF7FEFF 		bl	lv_obj_get_style_prop
 198              	.LVL18:
 346:..\..\..\arduinoLCD\test\Pain Drain\libraries\lvgl\src\widgets\../core/lv_obj_style_gen.h ****     return (lv_opa_t)v.num;
 199              		.loc 3 346 0
 200 0066 C0B2     		uxtb	r0, r0
 201              	.LVL19:
 202              	.LBE50:
 203              	.LBE49:
 536:..\..\..\arduinoLCD\test\Pain Drain\libraries\lvgl\src\widgets/lv_img.c ****         }
 537:..\..\..\arduinoLCD\test\Pain Drain\libraries\lvgl\src\widgets/lv_img.c **** 
 538:..\..\..\arduinoLCD\test\Pain Drain\libraries\lvgl\src\widgets/lv_img.c ****         /*With not LV_OPA_COVER images can't cover an area */
 539:..\..\..\arduinoLCD\test\Pain Drain\libraries\lvgl\src\widgets/lv_img.c ****         if(lv_obj_get_style_img_opa(obj, LV_PART_MAIN) != LV_OPA_COVER) {
 204              		.loc 1 539 0
 205 0068 FF28     		cmp	r0, #255
 206 006a 02D0     		beq	.L7
 540:..\..\..\arduinoLCD\test\Pain Drain\libraries\lvgl\src\widgets/lv_img.c ****             info->res = LV_COVER_RES_NOT_COVER;
 207              		.loc 1 540 0
 208 006c 0123     		movs	r3, #1
 209 006e 3B70     		strb	r3, [r7]
 541:..\..\..\arduinoLCD\test\Pain Drain\libraries\lvgl\src\widgets/lv_img.c ****             return;
 210              		.loc 1 541 0
 211 0070 F9E1     		b	.L2
 212              	.L7:
 542:..\..\..\arduinoLCD\test\Pain Drain\libraries\lvgl\src\widgets/lv_img.c ****         }
 543:..\..\..\arduinoLCD\test\Pain Drain\libraries\lvgl\src\widgets/lv_img.c **** 
 544:..\..\..\arduinoLCD\test\Pain Drain\libraries\lvgl\src\widgets/lv_img.c ****         if(img->angle != 0) {
 213              		.loc 1 544 0
 214 0072 238E     		ldrh	r3, [r4, #48]
 215 0074 002B     		cmp	r3, #0
 216 0076 02D0     		beq	.L8
 545:..\..\..\arduinoLCD\test\Pain Drain\libraries\lvgl\src\widgets/lv_img.c ****             info->res = LV_COVER_RES_NOT_COVER;
 217              		.loc 1 545 0
 218 0078 0123     		movs	r3, #1
 219 007a 3B70     		strb	r3, [r7]
 546:..\..\..\arduinoLCD\test\Pain Drain\libraries\lvgl\src\widgets/lv_img.c ****             return;
 220              		.loc 1 546 0
 221 007c F3E1     		b	.L2
 222              	.L8:
 547:..\..\..\arduinoLCD\test\Pain Drain\libraries\lvgl\src\widgets/lv_img.c ****         }
 548:..\..\..\arduinoLCD\test\Pain Drain\libraries\lvgl\src\widgets/lv_img.c **** 
 549:..\..\..\arduinoLCD\test\Pain Drain\libraries\lvgl\src\widgets/lv_img.c ****         const lv_area_t * clip_area = lv_event_get_param(e);
 223              		.loc 1 549 0
ARM GAS  C:\Users\haske\AppData\Local\Temp\ccGWO5DZ.s 			page 23


 224 007e 0398     		ldr	r0, [sp, #12]
 225 0080 FFF7FEFF 		bl	lv_event_get_param
 226              	.LVL20:
 227 0084 0390     		str	r0, [sp, #12]
 228              	.LVL21:
 550:..\..\..\arduinoLCD\test\Pain Drain\libraries\lvgl\src\widgets/lv_img.c ****         if(img->zoom == LV_IMG_ZOOM_NONE) {
 229              		.loc 1 550 0
 230 0086 E28E     		ldrh	r2, [r4, #54]
 231 0088 8023     		movs	r3, #128
 232 008a 5B00     		lsls	r3, r3, #1
 233 008c 9A42     		cmp	r2, r3
 234 008e 0AD1     		bne	.L9
 551:..\..\..\arduinoLCD\test\Pain Drain\libraries\lvgl\src\widgets/lv_img.c ****             if(_lv_area_is_in(clip_area, &obj->coords, 0) == false) {
 235              		.loc 1 551 0
 236 0090 2100     		movs	r1, r4
 237 0092 1431     		adds	r1, r1, #20
 238 0094 0022     		movs	r2, #0
 239 0096 FFF7FEFF 		bl	_lv_area_is_in
 240              	.LVL22:
 241 009a 0028     		cmp	r0, #0
 242 009c 00D0     		beq	.LCB206
 243 009e E2E1     		b	.L2	@long jump
 244              	.LCB206:
 552:..\..\..\arduinoLCD\test\Pain Drain\libraries\lvgl\src\widgets/lv_img.c ****                 info->res = LV_COVER_RES_NOT_COVER;
 245              		.loc 1 552 0
 246 00a0 0123     		movs	r3, #1
 247 00a2 3B70     		strb	r3, [r7]
 553:..\..\..\arduinoLCD\test\Pain Drain\libraries\lvgl\src\widgets/lv_img.c ****                 return;
 248              		.loc 1 553 0
 249 00a4 DFE1     		b	.L2
 250              	.LVL23:
 251              	.L9:
 252              	.LBB51:
 554:..\..\..\arduinoLCD\test\Pain Drain\libraries\lvgl\src\widgets/lv_img.c ****             }
 555:..\..\..\arduinoLCD\test\Pain Drain\libraries\lvgl\src\widgets/lv_img.c ****         }
 556:..\..\..\arduinoLCD\test\Pain Drain\libraries\lvgl\src\widgets/lv_img.c ****         else {
 557:..\..\..\arduinoLCD\test\Pain Drain\libraries\lvgl\src\widgets/lv_img.c ****             lv_area_t a;
 558:..\..\..\arduinoLCD\test\Pain Drain\libraries\lvgl\src\widgets/lv_img.c ****             _lv_img_buf_get_transformed_area(&a, lv_obj_get_width(obj), lv_obj_get_height(obj), 0, 
 253              		.loc 1 558 0
 254 00a6 2000     		movs	r0, r4
 255              	.LVL24:
 256 00a8 FFF7FEFF 		bl	lv_obj_get_width
 257              	.LVL25:
 258 00ac 0600     		movs	r6, r0
 259              	.LVL26:
 260 00ae 2000     		movs	r0, r4
 261 00b0 FFF7FEFF 		bl	lv_obj_get_height
 262              	.LVL27:
 263 00b4 0200     		movs	r2, r0
 264 00b6 2300     		movs	r3, r4
 265 00b8 3233     		adds	r3, r3, #50
 266 00ba 12AD     		add	r5, sp, #72
 267 00bc 0193     		str	r3, [sp, #4]
 268 00be E38E     		ldrh	r3, [r4, #54]
 269 00c0 0093     		str	r3, [sp]
 270 00c2 0023     		movs	r3, #0
 271 00c4 3100     		movs	r1, r6
ARM GAS  C:\Users\haske\AppData\Local\Temp\ccGWO5DZ.s 			page 24


 272 00c6 2800     		movs	r0, r5
 273 00c8 FFF7FEFF 		bl	_lv_img_buf_get_transformed_area
 274              	.LVL28:
 559:..\..\..\arduinoLCD\test\Pain Drain\libraries\lvgl\src\widgets/lv_img.c ****             a.x1 += obj->coords.x1;
 275              		.loc 1 559 0
 276 00cc A68A     		ldrh	r6, [r4, #20]
 277 00ce 2B88     		ldrh	r3, [r5]
 278 00d0 F318     		adds	r3, r6, r3
 279 00d2 2B80     		strh	r3, [r5]
 560:..\..\..\arduinoLCD\test\Pain Drain\libraries\lvgl\src\widgets/lv_img.c ****             a.y1 += obj->coords.y1;
 280              		.loc 1 560 0
 281 00d4 E08A     		ldrh	r0, [r4, #22]
 282 00d6 6988     		ldrh	r1, [r5, #2]
 283 00d8 4118     		adds	r1, r0, r1
 284 00da 6980     		strh	r1, [r5, #2]
 561:..\..\..\arduinoLCD\test\Pain Drain\libraries\lvgl\src\widgets/lv_img.c ****             a.x2 += obj->coords.x1;
 285              		.loc 1 561 0
 286 00dc AA88     		ldrh	r2, [r5, #4]
 287 00de B218     		adds	r2, r6, r2
 288 00e0 AA80     		strh	r2, [r5, #4]
 562:..\..\..\arduinoLCD\test\Pain Drain\libraries\lvgl\src\widgets/lv_img.c ****             a.y2 += obj->coords.y1;
 289              		.loc 1 562 0
 290 00e2 EB88     		ldrh	r3, [r5, #6]
 291 00e4 C318     		adds	r3, r0, r3
 292 00e6 EB80     		strh	r3, [r5, #6]
 563:..\..\..\arduinoLCD\test\Pain Drain\libraries\lvgl\src\widgets/lv_img.c **** 
 564:..\..\..\arduinoLCD\test\Pain Drain\libraries\lvgl\src\widgets/lv_img.c ****             if(_lv_area_is_in(clip_area, &a, 0) == false) {
 293              		.loc 1 564 0
 294 00e8 0022     		movs	r2, #0
 295 00ea 2900     		movs	r1, r5
 296 00ec 0398     		ldr	r0, [sp, #12]
 297 00ee FFF7FEFF 		bl	_lv_area_is_in
 298              	.LVL29:
 299 00f2 0028     		cmp	r0, #0
 300 00f4 00D0     		beq	.LCB259
 301 00f6 B6E1     		b	.L2	@long jump
 302              	.LCB259:
 565:..\..\..\arduinoLCD\test\Pain Drain\libraries\lvgl\src\widgets/lv_img.c ****                 info->res = LV_COVER_RES_NOT_COVER;
 303              		.loc 1 565 0
 304 00f8 0123     		movs	r3, #1
 305 00fa 3B70     		strb	r3, [r7]
 306 00fc B3E1     		b	.L2
 307              	.LVL30:
 308              	.L3:
 309              	.LBE51:
 310              	.LBE48:
 566:..\..\..\arduinoLCD\test\Pain Drain\libraries\lvgl\src\widgets/lv_img.c ****                 return;
 567:..\..\..\arduinoLCD\test\Pain Drain\libraries\lvgl\src\widgets/lv_img.c ****             }
 568:..\..\..\arduinoLCD\test\Pain Drain\libraries\lvgl\src\widgets/lv_img.c ****         }
 569:..\..\..\arduinoLCD\test\Pain Drain\libraries\lvgl\src\widgets/lv_img.c ****     }
 570:..\..\..\arduinoLCD\test\Pain Drain\libraries\lvgl\src\widgets/lv_img.c ****     else if(code == LV_EVENT_DRAW_MAIN || code == LV_EVENT_DRAW_POST) {
 311              		.loc 1 570 0
 312 00fe 152E     		cmp	r6, #21
 313 0100 02D0     		beq	.L11
 314              		.loc 1 570 0 is_stmt 0 discriminator 1
 315 0102 182E     		cmp	r6, #24
 316 0104 00D0     		beq	.LCB277
ARM GAS  C:\Users\haske\AppData\Local\Temp\ccGWO5DZ.s 			page 25


 317 0106 AEE1     		b	.L2	@long jump
 318              	.LCB277:
 319              	.L11:
 320              	.LBB52:
 571:..\..\..\arduinoLCD\test\Pain Drain\libraries\lvgl\src\widgets/lv_img.c **** 
 572:..\..\..\arduinoLCD\test\Pain Drain\libraries\lvgl\src\widgets/lv_img.c ****         lv_coord_t obj_w = lv_obj_get_width(obj);
 321              		.loc 1 572 0 is_stmt 1
 322 0108 2000     		movs	r0, r4
 323              	.LVL31:
 324 010a FFF7FEFF 		bl	lv_obj_get_width
 325              	.LVL32:
 326 010e 0490     		str	r0, [sp, #16]
 327              	.LVL33:
 573:..\..\..\arduinoLCD\test\Pain Drain\libraries\lvgl\src\widgets/lv_img.c ****         lv_coord_t obj_h = lv_obj_get_height(obj);
 328              		.loc 1 573 0
 329 0110 2000     		movs	r0, r4
 330 0112 FFF7FEFF 		bl	lv_obj_get_height
 331              	.LVL34:
 332 0116 0700     		movs	r7, r0
 333              	.LVL35:
 334              	.LBB53:
 335              	.LBB54:
 255:..\..\..\arduinoLCD\test\Pain Drain\libraries\lvgl\src\widgets\../core/lv_obj_style_gen.h ****     return (lv_coord_t)v.num;
 336              		.loc 3 255 0
 337 0118 3222     		movs	r2, #50
 338 011a 0021     		movs	r1, #0
 339 011c 2000     		movs	r0, r4
 340 011e FFF7FEFF 		bl	lv_obj_get_style_prop
 341              	.LVL36:
 342 0122 0500     		movs	r5, r0
 343              	.LVL37:
 344              	.LBE54:
 345              	.LBE53:
 346              	.LBB55:
 347              	.LBB56:
 117:..\..\..\arduinoLCD\test\Pain Drain\libraries\lvgl\src\widgets\../core/lv_obj_style_gen.h ****     return (lv_coord_t)v.num;
 348              		.loc 3 117 0
 349 0124 1222     		movs	r2, #18
 350 0126 0021     		movs	r1, #0
 351 0128 2000     		movs	r0, r4
 352 012a FFF7FEFF 		bl	lv_obj_get_style_prop
 353              	.LVL38:
 354              	.LBE56:
 355              	.LBE55:
 574:..\..\..\arduinoLCD\test\Pain Drain\libraries\lvgl\src\widgets/lv_img.c **** 
 575:..\..\..\arduinoLCD\test\Pain Drain\libraries\lvgl\src\widgets/lv_img.c ****         lv_coord_t border_width = lv_obj_get_style_border_width(obj, LV_PART_MAIN);
 576:..\..\..\arduinoLCD\test\Pain Drain\libraries\lvgl\src\widgets/lv_img.c ****         lv_coord_t pleft = lv_obj_get_style_pad_left(obj, LV_PART_MAIN) + border_width;
 356              		.loc 1 576 0
 357 012e ADB2     		uxth	r5, r5
 358              	.LVL39:
 359 0130 2818     		adds	r0, r5, r0
 360              	.LVL40:
 361 0132 83B2     		uxth	r3, r0
 362 0134 9A46     		mov	r10, r3
 363              	.LVL41:
 364              	.LBB57:
 365              	.LBB58:
ARM GAS  C:\Users\haske\AppData\Local\Temp\ccGWO5DZ.s 			page 26


 123:..\..\..\arduinoLCD\test\Pain Drain\libraries\lvgl\src\widgets\../core/lv_obj_style_gen.h ****     return (lv_coord_t)v.num;
 366              		.loc 3 123 0
 367 0136 1322     		movs	r2, #19
 368 0138 0021     		movs	r1, #0
 369 013a 2000     		movs	r0, r4
 370 013c FFF7FEFF 		bl	lv_obj_get_style_prop
 371              	.LVL42:
 372              	.LBE58:
 373              	.LBE57:
 577:..\..\..\arduinoLCD\test\Pain Drain\libraries\lvgl\src\widgets/lv_img.c ****         lv_coord_t pright = lv_obj_get_style_pad_right(obj, LV_PART_MAIN) + border_width;
 374              		.loc 1 577 0
 375 0140 2818     		adds	r0, r5, r0
 376              	.LVL43:
 377 0142 83B2     		uxth	r3, r0
 378 0144 0593     		str	r3, [sp, #20]
 379              	.LVL44:
 380              	.LBB59:
 381              	.LBB60:
 105:..\..\..\arduinoLCD\test\Pain Drain\libraries\lvgl\src\widgets\../core/lv_obj_style_gen.h ****     return (lv_coord_t)v.num;
 382              		.loc 3 105 0
 383 0146 1022     		movs	r2, #16
 384 0148 0021     		movs	r1, #0
 385 014a 2000     		movs	r0, r4
 386 014c FFF7FEFF 		bl	lv_obj_get_style_prop
 387              	.LVL45:
 388              	.LBE60:
 389              	.LBE59:
 578:..\..\..\arduinoLCD\test\Pain Drain\libraries\lvgl\src\widgets/lv_img.c ****         lv_coord_t ptop = lv_obj_get_style_pad_top(obj, LV_PART_MAIN) + border_width;
 390              		.loc 1 578 0
 391 0150 2818     		adds	r0, r5, r0
 392              	.LVL46:
 393 0152 83B2     		uxth	r3, r0
 394 0154 9846     		mov	r8, r3
 395              	.LVL47:
 396              	.LBB61:
 397              	.LBB62:
 111:..\..\..\arduinoLCD\test\Pain Drain\libraries\lvgl\src\widgets\../core/lv_obj_style_gen.h ****     return (lv_coord_t)v.num;
 398              		.loc 3 111 0
 399 0156 1122     		movs	r2, #17
 400 0158 0021     		movs	r1, #0
 401 015a 2000     		movs	r0, r4
 402 015c FFF7FEFF 		bl	lv_obj_get_style_prop
 403              	.LVL48:
 404              	.LBE62:
 405              	.LBE61:
 579:..\..\..\arduinoLCD\test\Pain Drain\libraries\lvgl\src\widgets/lv_img.c ****         lv_coord_t pbottom = lv_obj_get_style_pad_bottom(obj, LV_PART_MAIN) + border_width;
 406              		.loc 1 579 0
 407 0160 2D18     		adds	r5, r5, r0
 408 0162 ABB2     		uxth	r3, r5
 409 0164 0693     		str	r3, [sp, #24]
 410              	.LVL49:
 580:..\..\..\arduinoLCD\test\Pain Drain\libraries\lvgl\src\widgets/lv_img.c **** 
 581:..\..\..\arduinoLCD\test\Pain Drain\libraries\lvgl\src\widgets/lv_img.c ****         lv_point_t bg_pivot;
 582:..\..\..\arduinoLCD\test\Pain Drain\libraries\lvgl\src\widgets/lv_img.c ****         bg_pivot.x = img->pivot.x + pleft;
 411              		.loc 1 582 0
 412 0166 3222     		movs	r2, #50
 413 0168 A35E     		ldrsh	r3, [r4, r2]
ARM GAS  C:\Users\haske\AppData\Local\Temp\ccGWO5DZ.s 			page 27


 414 016a 08AA     		add	r2, sp, #32
 415 016c 5344     		add	r3, r3, r10
 416 016e 1380     		strh	r3, [r2]
 583:..\..\..\arduinoLCD\test\Pain Drain\libraries\lvgl\src\widgets/lv_img.c ****         bg_pivot.y = img->pivot.y + ptop;
 417              		.loc 1 583 0
 418 0170 3421     		movs	r1, #52
 419 0172 635E     		ldrsh	r3, [r4, r1]
 420 0174 4344     		add	r3, r3, r8
 421 0176 5380     		strh	r3, [r2, #2]
 584:..\..\..\arduinoLCD\test\Pain Drain\libraries\lvgl\src\widgets/lv_img.c ****         lv_area_t bg_coords;
 585:..\..\..\arduinoLCD\test\Pain Drain\libraries\lvgl\src\widgets/lv_img.c **** 
 586:..\..\..\arduinoLCD\test\Pain Drain\libraries\lvgl\src\widgets/lv_img.c ****         if(img->obj_size_mode == LV_IMG_SIZE_MODE_REAL) {
 422              		.loc 1 586 0
 423 0178 3923     		movs	r3, #57
 424 017a E35C     		ldrb	r3, [r4, r3]
 425 017c 0322     		movs	r2, #3
 426 017e 1340     		ands	r3, r2
 427 0180 012B     		cmp	r3, #1
 428 0182 04D1     		bne	.L12
 587:..\..\..\arduinoLCD\test\Pain Drain\libraries\lvgl\src\widgets/lv_img.c ****             /*Object size equals to transformed image size*/
 588:..\..\..\arduinoLCD\test\Pain Drain\libraries\lvgl\src\widgets/lv_img.c ****             lv_obj_get_coords(obj, &bg_coords);
 429              		.loc 1 588 0
 430 0184 0AA9     		add	r1, sp, #40
 431 0186 2000     		movs	r0, r4
 432              	.LVL50:
 433 0188 FFF7FEFF 		bl	lv_obj_get_coords
 434              	.LVL51:
 435 018c 19E0     		b	.L13
 436              	.LVL52:
 437              	.L12:
 589:..\..\..\arduinoLCD\test\Pain Drain\libraries\lvgl\src\widgets/lv_img.c ****         }
 590:..\..\..\arduinoLCD\test\Pain Drain\libraries\lvgl\src\widgets/lv_img.c ****         else {
 591:..\..\..\arduinoLCD\test\Pain Drain\libraries\lvgl\src\widgets/lv_img.c ****             _lv_img_buf_get_transformed_area(&bg_coords, obj_w, obj_h,
 438              		.loc 1 591 0
 439 018e 3022     		movs	r2, #48
 440 0190 A35E     		ldrsh	r3, [r4, r2]
 441 0192 0AAD     		add	r5, sp, #40
 442 0194 08AA     		add	r2, sp, #32
 443 0196 0192     		str	r2, [sp, #4]
 444 0198 E28E     		ldrh	r2, [r4, #54]
 445 019a 0092     		str	r2, [sp]
 446 019c 3A00     		movs	r2, r7
 447 019e 0499     		ldr	r1, [sp, #16]
 448 01a0 2800     		movs	r0, r5
 449              	.LVL53:
 450 01a2 FFF7FEFF 		bl	_lv_img_buf_get_transformed_area
 451              	.LVL54:
 592:..\..\..\arduinoLCD\test\Pain Drain\libraries\lvgl\src\widgets/lv_img.c ****                                              img->angle, img->zoom, &bg_pivot);
 593:..\..\..\arduinoLCD\test\Pain Drain\libraries\lvgl\src\widgets/lv_img.c **** 
 594:..\..\..\arduinoLCD\test\Pain Drain\libraries\lvgl\src\widgets/lv_img.c ****             /*Modify the coordinates to draw the background for the rotated and scaled coordinates*
 595:..\..\..\arduinoLCD\test\Pain Drain\libraries\lvgl\src\widgets/lv_img.c ****             bg_coords.x1 += obj->coords.x1;
 452              		.loc 1 595 0
 453 01a6 A38A     		ldrh	r3, [r4, #20]
 454 01a8 2A88     		ldrh	r2, [r5]
 455 01aa 9A18     		adds	r2, r3, r2
 456 01ac 2A80     		strh	r2, [r5]
 596:..\..\..\arduinoLCD\test\Pain Drain\libraries\lvgl\src\widgets/lv_img.c ****             bg_coords.y1 += obj->coords.y1;
ARM GAS  C:\Users\haske\AppData\Local\Temp\ccGWO5DZ.s 			page 28


 457              		.loc 1 596 0
 458 01ae E08A     		ldrh	r0, [r4, #22]
 459 01b0 6988     		ldrh	r1, [r5, #2]
 460 01b2 4118     		adds	r1, r0, r1
 461 01b4 6980     		strh	r1, [r5, #2]
 597:..\..\..\arduinoLCD\test\Pain Drain\libraries\lvgl\src\widgets/lv_img.c ****             bg_coords.x2 += obj->coords.x1;
 462              		.loc 1 597 0
 463 01b6 AA88     		ldrh	r2, [r5, #4]
 464 01b8 9A18     		adds	r2, r3, r2
 465 01ba AA80     		strh	r2, [r5, #4]
 598:..\..\..\arduinoLCD\test\Pain Drain\libraries\lvgl\src\widgets/lv_img.c ****             bg_coords.y2 += obj->coords.y1;
 466              		.loc 1 598 0
 467 01bc EB88     		ldrh	r3, [r5, #6]
 468 01be C318     		adds	r3, r0, r3
 469 01c0 EB80     		strh	r3, [r5, #6]
 470              	.L13:
 471              	.LVL55:
 472              	.LBB63:
 473              	.LBB64:
 112:c:\projects\paindrain\arduinolcd\test\pain drain\libraries\lvgl\src\misc\lv_area.h ****     dest->y1 = src->y1;
 474              		.loc 2 112 0
 475 01c2 1422     		movs	r2, #20
 476 01c4 A35E     		ldrsh	r3, [r4, r2]
 477 01c6 9B46     		mov	fp, r3
 113:c:\projects\paindrain\arduinolcd\test\pain drain\libraries\lvgl\src\misc\lv_area.h ****     dest->x2 = src->x2;
 478              		.loc 2 113 0
 479 01c8 1623     		movs	r3, #22
 480 01ca E75E     		ldrsh	r7, [r4, r3]
 481              	.LVL56:
 114:c:\projects\paindrain\arduinolcd\test\pain drain\libraries\lvgl\src\misc\lv_area.h ****     dest->y2 = src->y2;
 482              		.loc 2 114 0
 483 01cc 1822     		movs	r2, #24
 484 01ce A35E     		ldrsh	r3, [r4, r2]
 485 01d0 9946     		mov	r9, r3
 115:c:\projects\paindrain\arduinolcd\test\pain drain\libraries\lvgl\src\misc\lv_area.h **** }
 486              		.loc 2 115 0
 487 01d2 1A23     		movs	r3, #26
 488 01d4 E55E     		ldrsh	r5, [r4, r3]
 489              	.LVL57:
 490              	.LBE64:
 491              	.LBE63:
 492              	.LBB65:
 493              	.LBB66:
 112:c:\projects\paindrain\arduinolcd\test\pain drain\libraries\lvgl\src\misc\lv_area.h ****     dest->y1 = src->y1;
 494              		.loc 2 112 0
 495 01d6 0AAB     		add	r3, sp, #40
 496              	.LVL58:
 497 01d8 0021     		movs	r1, #0
 498 01da 5A5E     		ldrsh	r2, [r3, r1]
 499 01dc A282     		strh	r2, [r4, #20]
 113:c:\projects\paindrain\arduinolcd\test\pain drain\libraries\lvgl\src\misc\lv_area.h ****     dest->x2 = src->x2;
 500              		.loc 2 113 0
 501 01de 0221     		movs	r1, #2
 502 01e0 5A5E     		ldrsh	r2, [r3, r1]
 503 01e2 E282     		strh	r2, [r4, #22]
 114:c:\projects\paindrain\arduinolcd\test\pain drain\libraries\lvgl\src\misc\lv_area.h ****     dest->y2 = src->y2;
 504              		.loc 2 114 0
ARM GAS  C:\Users\haske\AppData\Local\Temp\ccGWO5DZ.s 			page 29


 505 01e4 0421     		movs	r1, #4
 506 01e6 5A5E     		ldrsh	r2, [r3, r1]
 507 01e8 2283     		strh	r2, [r4, #24]
 115:c:\projects\paindrain\arduinolcd\test\pain drain\libraries\lvgl\src\misc\lv_area.h **** }
 508              		.loc 2 115 0
 509 01ea 0622     		movs	r2, #6
 510 01ec 9B5E     		ldrsh	r3, [r3, r2]
 511              	.LVL59:
 512 01ee 6383     		strh	r3, [r4, #26]
 513              	.LVL60:
 514              	.LBE66:
 515              	.LBE65:
 599:..\..\..\arduinoLCD\test\Pain Drain\libraries\lvgl\src\widgets/lv_img.c ****         }
 600:..\..\..\arduinoLCD\test\Pain Drain\libraries\lvgl\src\widgets/lv_img.c **** 
 601:..\..\..\arduinoLCD\test\Pain Drain\libraries\lvgl\src\widgets/lv_img.c ****         lv_area_t ori_coords;
 602:..\..\..\arduinoLCD\test\Pain Drain\libraries\lvgl\src\widgets/lv_img.c ****         lv_area_copy(&ori_coords, &obj->coords);
 603:..\..\..\arduinoLCD\test\Pain Drain\libraries\lvgl\src\widgets/lv_img.c ****         lv_area_copy(&obj->coords, &bg_coords);
 604:..\..\..\arduinoLCD\test\Pain Drain\libraries\lvgl\src\widgets/lv_img.c **** 
 605:..\..\..\arduinoLCD\test\Pain Drain\libraries\lvgl\src\widgets/lv_img.c ****         lv_res_t res = lv_obj_event_base(MY_CLASS, e);
 516              		.loc 1 605 0
 517 01f0 0399     		ldr	r1, [sp, #12]
 518 01f2 A048     		ldr	r0, .L29
 519 01f4 FFF7FEFF 		bl	lv_obj_event_base
 520              	.LVL61:
 606:..\..\..\arduinoLCD\test\Pain Drain\libraries\lvgl\src\widgets/lv_img.c ****         if(res != LV_RES_OK) return;
 521              		.loc 1 606 0
 522 01f8 0128     		cmp	r0, #1
 523 01fa 00D0     		beq	.LCB482
 524 01fc 33E1     		b	.L2	@long jump
 525              	.LCB482:
 526              	.LVL62:
 527              	.LBB67:
 528              	.LBB68:
 112:c:\projects\paindrain\arduinolcd\test\pain drain\libraries\lvgl\src\misc\lv_area.h ****     dest->y1 = src->y1;
 529              		.loc 2 112 0
 530 01fe 5B46     		mov	r3, fp
 531 0200 A382     		strh	r3, [r4, #20]
 113:c:\projects\paindrain\arduinolcd\test\pain drain\libraries\lvgl\src\misc\lv_area.h ****     dest->x2 = src->x2;
 532              		.loc 2 113 0
 533 0202 E782     		strh	r7, [r4, #22]
 114:c:\projects\paindrain\arduinolcd\test\pain drain\libraries\lvgl\src\misc\lv_area.h ****     dest->y2 = src->y2;
 534              		.loc 2 114 0
 535 0204 4B46     		mov	r3, r9
 536 0206 2383     		strh	r3, [r4, #24]
 115:c:\projects\paindrain\arduinolcd\test\pain drain\libraries\lvgl\src\misc\lv_area.h **** }
 537              		.loc 2 115 0
 538 0208 6583     		strh	r5, [r4, #26]
 539              	.LVL63:
 540              	.LBE68:
 541              	.LBE67:
 607:..\..\..\arduinoLCD\test\Pain Drain\libraries\lvgl\src\widgets/lv_img.c **** 
 608:..\..\..\arduinoLCD\test\Pain Drain\libraries\lvgl\src\widgets/lv_img.c ****         lv_area_copy(&obj->coords, &ori_coords);
 609:..\..\..\arduinoLCD\test\Pain Drain\libraries\lvgl\src\widgets/lv_img.c **** 
 610:..\..\..\arduinoLCD\test\Pain Drain\libraries\lvgl\src\widgets/lv_img.c ****         if(code == LV_EVENT_DRAW_MAIN) {
 542              		.loc 1 610 0
 543 020a 152E     		cmp	r6, #21
 544 020c 00D0     		beq	.LCB498
ARM GAS  C:\Users\haske\AppData\Local\Temp\ccGWO5DZ.s 			page 30


 545 020e 2AE1     		b	.L2	@long jump
 546              	.LCB498:
 547              	.LBB69:
 611:..\..\..\arduinoLCD\test\Pain Drain\libraries\lvgl\src\widgets/lv_img.c ****             if(img->h == 0 || img->w == 0) return;
 548              		.loc 1 611 0
 549 0210 2E22     		movs	r2, #46
 550 0212 A35E     		ldrsh	r3, [r4, r2]
 551 0214 002B     		cmp	r3, #0
 552 0216 00D1     		bne	.LCB502
 553 0218 25E1     		b	.L2	@long jump
 554              	.LCB502:
 555              		.loc 1 611 0 is_stmt 0 discriminator 1
 556 021a 2C22     		movs	r2, #44
 557 021c A35E     		ldrsh	r3, [r4, r2]
 558 021e 002B     		cmp	r3, #0
 559 0220 00D1     		bne	.LCB505
 560 0222 20E1     		b	.L2	@long jump
 561              	.LCB505:
 612:..\..\..\arduinoLCD\test\Pain Drain\libraries\lvgl\src\widgets/lv_img.c ****             if(img->zoom == 0) return;
 562              		.loc 1 612 0 is_stmt 1
 563 0224 E38E     		ldrh	r3, [r4, #54]
 564 0226 002B     		cmp	r3, #0
 565 0228 00D1     		bne	.LCB508
 566 022a 1CE1     		b	.L2	@long jump
 567              	.LCB508:
 613:..\..\..\arduinoLCD\test\Pain Drain\libraries\lvgl\src\widgets/lv_img.c **** 
 614:..\..\..\arduinoLCD\test\Pain Drain\libraries\lvgl\src\widgets/lv_img.c ****             lv_draw_ctx_t * draw_ctx = lv_event_get_draw_ctx(e);
 568              		.loc 1 614 0
 569 022c 0398     		ldr	r0, [sp, #12]
 570              	.LVL64:
 571 022e FFF7FEFF 		bl	lv_event_get_draw_ctx
 572              	.LVL65:
 573 0232 0390     		str	r0, [sp, #12]
 574              	.LVL66:
 575              	.LBB70:
 576              	.LBB71:
 112:c:\projects\paindrain\arduinolcd\test\pain drain\libraries\lvgl\src\misc\lv_area.h ****     dest->y1 = src->y1;
 577              		.loc 2 112 0
 578 0234 1423     		movs	r3, #20
 579 0236 E55E     		ldrsh	r5, [r4, r3]
 580 0238 0CAB     		add	r3, sp, #48
 581              	.LVL67:
 582 023a 1D80     		strh	r5, [r3]
 113:c:\projects\paindrain\arduinolcd\test\pain drain\libraries\lvgl\src\misc\lv_area.h ****     dest->x2 = src->x2;
 583              		.loc 2 113 0
 584 023c 1622     		movs	r2, #22
 585 023e A75E     		ldrsh	r7, [r4, r2]
 586 0240 5F80     		strh	r7, [r3, #2]
 114:c:\projects\paindrain\arduinolcd\test\pain drain\libraries\lvgl\src\misc\lv_area.h ****     dest->y2 = src->y2;
 587              		.loc 2 114 0
 588 0242 1823     		movs	r3, #24
 589 0244 E65E     		ldrsh	r6, [r4, r3]
 590              	.LVL68:
 115:c:\projects\paindrain\arduinolcd\test\pain drain\libraries\lvgl\src\misc\lv_area.h **** }
 591              		.loc 2 115 0
 592 0246 1A22     		movs	r2, #26
 593 0248 A35E     		ldrsh	r3, [r4, r2]
ARM GAS  C:\Users\haske\AppData\Local\Temp\ccGWO5DZ.s 			page 31


 594 024a 9946     		mov	r9, r3
 595              	.LVL69:
 596              	.LBE71:
 597              	.LBE70:
 615:..\..\..\arduinoLCD\test\Pain Drain\libraries\lvgl\src\widgets/lv_img.c **** 
 616:..\..\..\arduinoLCD\test\Pain Drain\libraries\lvgl\src\widgets/lv_img.c ****             lv_area_t img_max_area;
 617:..\..\..\arduinoLCD\test\Pain Drain\libraries\lvgl\src\widgets/lv_img.c ****             lv_area_copy(&img_max_area, &obj->coords);
 618:..\..\..\arduinoLCD\test\Pain Drain\libraries\lvgl\src\widgets/lv_img.c **** 
 619:..\..\..\arduinoLCD\test\Pain Drain\libraries\lvgl\src\widgets/lv_img.c ****             lv_point_t img_size_final = lv_img_get_transformed_size(obj);
 598              		.loc 1 619 0
 599 024c 2000     		movs	r0, r4
 600              	.LVL70:
 601 024e FFF7FEFF 		bl	lv_img_get_transformed_size
 602              	.LVL71:
 603 0252 0990     		str	r0, [sp, #36]
 620:..\..\..\arduinoLCD\test\Pain Drain\libraries\lvgl\src\widgets/lv_img.c **** 
 621:..\..\..\arduinoLCD\test\Pain Drain\libraries\lvgl\src\widgets/lv_img.c ****             if(img->obj_size_mode == LV_IMG_SIZE_MODE_REAL) {
 604              		.loc 1 621 0
 605 0254 3923     		movs	r3, #57
 606 0256 E35C     		ldrb	r3, [r4, r3]
 607 0258 0322     		movs	r2, #3
 608 025a 1340     		ands	r3, r2
 609 025c 012B     		cmp	r3, #1
 610 025e 1FD1     		bne	.L17
 622:..\..\..\arduinoLCD\test\Pain Drain\libraries\lvgl\src\widgets/lv_img.c ****                 img_max_area.x1 -= ((img->w - img_size_final.x) + 1) / 2;
 611              		.loc 1 622 0
 612 0260 2C22     		movs	r2, #44
 613 0262 A35E     		ldrsh	r3, [r4, r2]
 614 0264 09A9     		add	r1, sp, #36
 615 0266 0020     		movs	r0, #0
 616 0268 0A5E     		ldrsh	r2, [r1, r0]
 617 026a 9B1A     		subs	r3, r3, r2
 618 026c 0133     		adds	r3, r3, #1
 619 026e DA0F     		lsrs	r2, r3, #31
 620 0270 D318     		adds	r3, r2, r3
 621 0272 5B10     		asrs	r3, r3, #1
 622 0274 9BB2     		uxth	r3, r3
 623 0276 0CAA     		add	r2, sp, #48
 624 0278 ED1A     		subs	r5, r5, r3
 625 027a 1580     		strh	r5, [r2]
 623:..\..\..\arduinoLCD\test\Pain Drain\libraries\lvgl\src\widgets/lv_img.c ****                 img_max_area.x2 -= ((img->w - img_size_final.x) + 1) / 2;
 626              		.loc 1 623 0
 627 027c F61A     		subs	r6, r6, r3
 628 027e 9680     		strh	r6, [r2, #4]
 624:..\..\..\arduinoLCD\test\Pain Drain\libraries\lvgl\src\widgets/lv_img.c ****                 img_max_area.y1 -= ((img->h - img_size_final.y) + 1) / 2;
 629              		.loc 1 624 0
 630 0280 2E20     		movs	r0, #46
 631 0282 235E     		ldrsh	r3, [r4, r0]
 632 0284 0220     		movs	r0, #2
 633 0286 095E     		ldrsh	r1, [r1, r0]
 634 0288 5B1A     		subs	r3, r3, r1
 635 028a 0133     		adds	r3, r3, #1
 636 028c D90F     		lsrs	r1, r3, #31
 637 028e CB18     		adds	r3, r1, r3
 638 0290 5B10     		asrs	r3, r3, #1
 639 0292 9BB2     		uxth	r3, r3
 640 0294 F91A     		subs	r1, r7, r3
ARM GAS  C:\Users\haske\AppData\Local\Temp\ccGWO5DZ.s 			page 32


 641 0296 5180     		strh	r1, [r2, #2]
 625:..\..\..\arduinoLCD\test\Pain Drain\libraries\lvgl\src\widgets/lv_img.c ****                 img_max_area.y2 -= ((img->h - img_size_final.y) + 1) / 2;
 642              		.loc 1 625 0
 643 0298 4946     		mov	r1, r9
 644 029a CF1A     		subs	r7, r1, r3
 645 029c D780     		strh	r7, [r2, #6]
 646 029e 15E0     		b	.L18
 647              	.L17:
 648              	.LVL72:
 649              	.LBB72:
 650              	.LBB73:
 125:c:\projects\paindrain\arduinolcd\test\pain drain\libraries\lvgl\src\misc\lv_area.h **** }
 651              		.loc 2 125 0
 652 02a0 0AA9     		add	r1, sp, #40
 653              	.LVL73:
 654 02a2 0422     		movs	r2, #4
 655 02a4 8B5E     		ldrsh	r3, [r1, r2]
 656 02a6 0020     		movs	r0, #0
 657 02a8 0A5E     		ldrsh	r2, [r1, r0]
 658 02aa 9A1A     		subs	r2, r3, r2
 659 02ac 0132     		adds	r2, r2, #1
 660 02ae 92B2     		uxth	r2, r2
 661              	.LVL74:
 662              	.LBE73:
 663              	.LBE72:
 626:..\..\..\arduinoLCD\test\Pain Drain\libraries\lvgl\src\widgets/lv_img.c ****             }
 627:..\..\..\arduinoLCD\test\Pain Drain\libraries\lvgl\src\widgets/lv_img.c ****             else {
 628:..\..\..\arduinoLCD\test\Pain Drain\libraries\lvgl\src\widgets/lv_img.c ****                 img_max_area.x2 = img_max_area.x1 + lv_area_get_width(&bg_coords) - 1;
 664              		.loc 1 628 0
 665 02b0 0CAB     		add	r3, sp, #48
 666 02b2 5519     		adds	r5, r2, r5
 667 02b4 013D     		subs	r5, r5, #1
 668 02b6 9D80     		strh	r5, [r3, #4]
 669              	.LVL75:
 670              	.LBB74:
 671              	.LBB75:
 672              		.loc 2 135 0
 673 02b8 0620     		movs	r0, #6
 674 02ba 0A5E     		ldrsh	r2, [r1, r0]
 675 02bc 0220     		movs	r0, #2
 676 02be 095E     		ldrsh	r1, [r1, r0]
 677              	.LVL76:
 678 02c0 521A     		subs	r2, r2, r1
 679 02c2 0132     		adds	r2, r2, #1
 680 02c4 92B2     		uxth	r2, r2
 681              	.LVL77:
 682              	.LBE75:
 683              	.LBE74:
 629:..\..\..\arduinoLCD\test\Pain Drain\libraries\lvgl\src\widgets/lv_img.c ****                 img_max_area.y2 = img_max_area.y1 + lv_area_get_height(&bg_coords) - 1;
 684              		.loc 1 629 0
 685 02c6 D219     		adds	r2, r2, r7
 686 02c8 013A     		subs	r2, r2, #1
 687 02ca DA80     		strh	r2, [r3, #6]
 688              	.L18:
 630:..\..\..\arduinoLCD\test\Pain Drain\libraries\lvgl\src\widgets/lv_img.c ****             }
 631:..\..\..\arduinoLCD\test\Pain Drain\libraries\lvgl\src\widgets/lv_img.c **** 
 632:..\..\..\arduinoLCD\test\Pain Drain\libraries\lvgl\src\widgets/lv_img.c ****             img_max_area.x1 += pleft;
ARM GAS  C:\Users\haske\AppData\Local\Temp\ccGWO5DZ.s 			page 33


 689              		.loc 1 632 0
 690 02cc 0CAB     		add	r3, sp, #48
 691 02ce 1F88     		ldrh	r7, [r3]
 692 02d0 5744     		add	r7, r7, r10
 693 02d2 BFB2     		uxth	r7, r7
 694 02d4 3AB2     		sxth	r2, r7
 695 02d6 9346     		mov	fp, r2
 633:..\..\..\arduinoLCD\test\Pain Drain\libraries\lvgl\src\widgets/lv_img.c ****             img_max_area.y1 += ptop;
 696              		.loc 1 633 0
 697 02d8 5A88     		ldrh	r2, [r3, #2]
 698 02da 4244     		add	r2, r2, r8
 699 02dc 92B2     		uxth	r2, r2
 700 02de 0792     		str	r2, [sp, #28]
 701 02e0 12B2     		sxth	r2, r2
 702 02e2 9146     		mov	r9, r2
 634:..\..\..\arduinoLCD\test\Pain Drain\libraries\lvgl\src\widgets/lv_img.c ****             img_max_area.x2 -= pright;
 703              		.loc 1 634 0
 704 02e4 9E88     		ldrh	r6, [r3, #4]
 705 02e6 059A     		ldr	r2, [sp, #20]
 706 02e8 B61A     		subs	r6, r6, r2
 707 02ea 36B2     		sxth	r6, r6
 635:..\..\..\arduinoLCD\test\Pain Drain\libraries\lvgl\src\widgets/lv_img.c ****             img_max_area.y2 -= pbottom;
 708              		.loc 1 635 0
 709 02ec DD88     		ldrh	r5, [r3, #6]
 710 02ee 069B     		ldr	r3, [sp, #24]
 711 02f0 ED1A     		subs	r5, r5, r3
 712 02f2 2BB2     		sxth	r3, r5
 713 02f4 0493     		str	r3, [sp, #16]
 714              	.LVL78:
 636:..\..\..\arduinoLCD\test\Pain Drain\libraries\lvgl\src\widgets/lv_img.c **** 
 637:..\..\..\arduinoLCD\test\Pain Drain\libraries\lvgl\src\widgets/lv_img.c ****             if(img->src_type == LV_IMG_SRC_FILE || img->src_type == LV_IMG_SRC_VARIABLE) {
 715              		.loc 1 637 0
 716 02f6 3823     		movs	r3, #56
 717 02f8 E35C     		ldrb	r3, [r4, r3]
 718 02fa 0322     		movs	r2, #3
 719 02fc 1340     		ands	r3, r2
 720 02fe 012B     		cmp	r3, #1
 721 0300 00D9     		bls	.LCB640
 722 0302 95E0     		b	.L19	@long jump
 723              	.LCB640:
 724              	.LBB76:
 638:..\..\..\arduinoLCD\test\Pain Drain\libraries\lvgl\src\widgets/lv_img.c ****                 lv_draw_img_dsc_t img_dsc;
 639:..\..\..\arduinoLCD\test\Pain Drain\libraries\lvgl\src\widgets/lv_img.c ****                 lv_draw_img_dsc_init(&img_dsc);
 725              		.loc 1 639 0
 726 0304 12AD     		add	r5, sp, #72
 727 0306 2800     		movs	r0, r5
 728 0308 FFF7FEFF 		bl	lv_draw_img_dsc_init
 729              	.LVL79:
 640:..\..\..\arduinoLCD\test\Pain Drain\libraries\lvgl\src\widgets/lv_img.c ****                 lv_obj_init_draw_img_dsc(obj, LV_PART_MAIN, &img_dsc);
 730              		.loc 1 640 0
 731 030c 2A00     		movs	r2, r5
 732 030e 0021     		movs	r1, #0
 733 0310 2000     		movs	r0, r4
 734 0312 FFF7FEFF 		bl	lv_obj_init_draw_img_dsc
 735              	.LVL80:
 641:..\..\..\arduinoLCD\test\Pain Drain\libraries\lvgl\src\widgets/lv_img.c **** 
 642:..\..\..\arduinoLCD\test\Pain Drain\libraries\lvgl\src\widgets/lv_img.c ****                 img_dsc.zoom = img->zoom;
ARM GAS  C:\Users\haske\AppData\Local\Temp\ccGWO5DZ.s 			page 34


 736              		.loc 1 642 0
 737 0316 E38E     		ldrh	r3, [r4, #54]
 738 0318 6B80     		strh	r3, [r5, #2]
 643:..\..\..\arduinoLCD\test\Pain Drain\libraries\lvgl\src\widgets/lv_img.c ****                 img_dsc.angle = img->angle;
 739              		.loc 1 643 0
 740 031a 238E     		ldrh	r3, [r4, #48]
 741 031c 2B80     		strh	r3, [r5]
 644:..\..\..\arduinoLCD\test\Pain Drain\libraries\lvgl\src\widgets/lv_img.c ****                 img_dsc.pivot.x = img->pivot.x;
 742              		.loc 1 644 0
 743 031e 3222     		movs	r2, #50
 744 0320 A35E     		ldrsh	r3, [r4, r2]
 745 0322 AB80     		strh	r3, [r5, #4]
 645:..\..\..\arduinoLCD\test\Pain Drain\libraries\lvgl\src\widgets/lv_img.c ****                 img_dsc.pivot.y = img->pivot.y;
 746              		.loc 1 645 0
 747 0324 3422     		movs	r2, #52
 748 0326 A35E     		ldrsh	r3, [r4, r2]
 749 0328 EB80     		strh	r3, [r5, #6]
 646:..\..\..\arduinoLCD\test\Pain Drain\libraries\lvgl\src\widgets/lv_img.c ****                 img_dsc.antialias = img->antialias;
 750              		.loc 1 646 0
 751 032a 3823     		movs	r3, #56
 752 032c E35C     		ldrb	r3, [r4, r3]
 753 032e DA09     		lsrs	r2, r3, #7
 754 0330 2B7D     		ldrb	r3, [r5, #20]
 755 0332 0121     		movs	r1, #1
 756 0334 8B43     		bics	r3, r1
 757 0336 1343     		orrs	r3, r2
 758 0338 2B75     		strb	r3, [r5, #20]
 647:..\..\..\arduinoLCD\test\Pain Drain\libraries\lvgl\src\widgets/lv_img.c **** 
 648:..\..\..\arduinoLCD\test\Pain Drain\libraries\lvgl\src\widgets/lv_img.c ****                 lv_area_t img_clip_area;
 649:..\..\..\arduinoLCD\test\Pain Drain\libraries\lvgl\src\widgets/lv_img.c ****                 img_clip_area.x1 = bg_coords.x1 + pleft;
 759              		.loc 1 649 0
 760 033a 0AAB     		add	r3, sp, #40
 761 033c 0021     		movs	r1, #0
 762 033e 5A5E     		ldrsh	r2, [r3, r1]
 763 0340 0EA8     		add	r0, sp, #56
 764 0342 5244     		add	r2, r2, r10
 765 0344 0280     		strh	r2, [r0]
 650:..\..\..\arduinoLCD\test\Pain Drain\libraries\lvgl\src\widgets/lv_img.c ****                 img_clip_area.y1 = bg_coords.y1 + ptop;
 766              		.loc 1 650 0
 767 0346 0221     		movs	r1, #2
 768 0348 5A5E     		ldrsh	r2, [r3, r1]
 769 034a 4244     		add	r2, r2, r8
 770 034c 4280     		strh	r2, [r0, #2]
 651:..\..\..\arduinoLCD\test\Pain Drain\libraries\lvgl\src\widgets/lv_img.c ****                 img_clip_area.x2 = bg_coords.x2 - pright;
 771              		.loc 1 651 0
 772 034e 0421     		movs	r1, #4
 773 0350 5A5E     		ldrsh	r2, [r3, r1]
 774 0352 0599     		ldr	r1, [sp, #20]
 775 0354 521A     		subs	r2, r2, r1
 776 0356 8280     		strh	r2, [r0, #4]
 652:..\..\..\arduinoLCD\test\Pain Drain\libraries\lvgl\src\widgets/lv_img.c ****                 img_clip_area.y2 = bg_coords.y2 - pbottom;
 777              		.loc 1 652 0
 778 0358 0622     		movs	r2, #6
 779 035a 9B5E     		ldrsh	r3, [r3, r2]
 780 035c 069A     		ldr	r2, [sp, #24]
 781 035e 9B1A     		subs	r3, r3, r2
 782 0360 C380     		strh	r3, [r0, #6]
ARM GAS  C:\Users\haske\AppData\Local\Temp\ccGWO5DZ.s 			page 35


 653:..\..\..\arduinoLCD\test\Pain Drain\libraries\lvgl\src\widgets/lv_img.c ****                 const lv_area_t * clip_area_ori = draw_ctx->clip_area;
 783              		.loc 1 653 0
 784 0362 039D     		ldr	r5, [sp, #12]
 785 0364 AB68     		ldr	r3, [r5, #8]
 786 0366 9846     		mov	r8, r3
 787              	.LVL81:
 654:..\..\..\arduinoLCD\test\Pain Drain\libraries\lvgl\src\widgets/lv_img.c **** 
 655:..\..\..\arduinoLCD\test\Pain Drain\libraries\lvgl\src\widgets/lv_img.c ****                 if(!_lv_area_intersect(&img_clip_area, draw_ctx->clip_area, &img_clip_area)) return
 788              		.loc 1 655 0
 789 0368 0200     		movs	r2, r0
 790 036a 1900     		movs	r1, r3
 791 036c FFF7FEFF 		bl	_lv_area_intersect
 792              	.LVL82:
 793 0370 0028     		cmp	r0, #0
 794 0372 78D0     		beq	.L2
 656:..\..\..\arduinoLCD\test\Pain Drain\libraries\lvgl\src\widgets/lv_img.c ****                 draw_ctx->clip_area = &img_clip_area;
 795              		.loc 1 656 0
 796 0374 0EAB     		add	r3, sp, #56
 797 0376 AB60     		str	r3, [r5, #8]
 657:..\..\..\arduinoLCD\test\Pain Drain\libraries\lvgl\src\widgets/lv_img.c **** 
 658:..\..\..\arduinoLCD\test\Pain Drain\libraries\lvgl\src\widgets/lv_img.c ****                 lv_area_t coords_tmp;
 659:..\..\..\arduinoLCD\test\Pain Drain\libraries\lvgl\src\widgets/lv_img.c ****                 lv_coord_t offset_x = img->offset.x % img->w;
 798              		.loc 1 659 0
 799 0378 2823     		movs	r3, #40
 800 037a E05E     		ldrsh	r0, [r4, r3]
 801 037c 2C23     		movs	r3, #44
 802 037e E15E     		ldrsh	r1, [r4, r3]
 803 0380 FFF7FEFF 		bl	__aeabi_idivmod
 804              	.LVL83:
 805 0384 8A46     		mov	r10, r1
 806              	.LVL84:
 660:..\..\..\arduinoLCD\test\Pain Drain\libraries\lvgl\src\widgets/lv_img.c ****                 lv_coord_t offset_y = img->offset.y % img->h;
 807              		.loc 1 660 0
 808 0386 2A23     		movs	r3, #42
 809 0388 E05E     		ldrsh	r0, [r4, r3]
 810 038a 2E23     		movs	r3, #46
 811 038c E55E     		ldrsh	r5, [r4, r3]
 812 038e 2900     		movs	r1, r5
 813 0390 FFF7FEFF 		bl	__aeabi_idivmod
 814              	.LVL85:
 661:..\..\..\arduinoLCD\test\Pain Drain\libraries\lvgl\src\widgets/lv_img.c ****                 coords_tmp.y1 = img_max_area.y1 + offset_y;
 815              		.loc 1 661 0
 816 0394 079B     		ldr	r3, [sp, #28]
 817 0396 5B18     		adds	r3, r3, r1
 818 0398 9BB2     		uxth	r3, r3
 819 039a 1AB2     		sxth	r2, r3
 820 039c 10A9     		add	r1, sp, #64
 821              	.LVL86:
 822 039e 4A80     		strh	r2, [r1, #2]
 662:..\..\..\arduinoLCD\test\Pain Drain\libraries\lvgl\src\widgets/lv_img.c ****                 if(coords_tmp.y1 > img_max_area.y1) coords_tmp.y1 -= img->h;
 823              		.loc 1 662 0
 824 03a0 9145     		cmp	r9, r2
 825 03a2 01DA     		bge	.L21
 826              		.loc 1 662 0 is_stmt 0 discriminator 1
 827 03a4 5B1B     		subs	r3, r3, r5
 828 03a6 4B80     		strh	r3, [r1, #2]
 829              	.L21:
ARM GAS  C:\Users\haske\AppData\Local\Temp\ccGWO5DZ.s 			page 36


 663:..\..\..\arduinoLCD\test\Pain Drain\libraries\lvgl\src\widgets/lv_img.c ****                 coords_tmp.y2 = coords_tmp.y1 + img->h - 1;
 830              		.loc 1 663 0 is_stmt 1
 831 03a8 10AB     		add	r3, sp, #64
 832 03aa 0221     		movs	r1, #2
 833 03ac 5A5E     		ldrsh	r2, [r3, r1]
 834 03ae 5219     		adds	r2, r2, r5
 835 03b0 013A     		subs	r2, r2, #1
 836 03b2 DA80     		strh	r2, [r3, #6]
 664:..\..\..\arduinoLCD\test\Pain Drain\libraries\lvgl\src\widgets/lv_img.c **** 
 665:..\..\..\arduinoLCD\test\Pain Drain\libraries\lvgl\src\widgets/lv_img.c ****                 for(; coords_tmp.y1 < img_max_area.y2; coords_tmp.y1 += img_size_final.y, coords_tm
 837              		.loc 1 665 0
 838 03b4 32E0     		b	.L22
 839              	.L26:
 666:..\..\..\arduinoLCD\test\Pain Drain\libraries\lvgl\src\widgets/lv_img.c ****                     coords_tmp.x1 = img_max_area.x1 + offset_x;
 840              		.loc 1 666 0
 841 03b6 5346     		mov	r3, r10
 842 03b8 FB18     		adds	r3, r7, r3
 843 03ba 9BB2     		uxth	r3, r3
 844 03bc 1AB2     		sxth	r2, r3
 845 03be 10A9     		add	r1, sp, #64
 846 03c0 0A80     		strh	r2, [r1]
 667:..\..\..\arduinoLCD\test\Pain Drain\libraries\lvgl\src\widgets/lv_img.c ****                     if(coords_tmp.x1 > img_max_area.x1) coords_tmp.x1 -= img->w;
 847              		.loc 1 667 0
 848 03c2 9345     		cmp	fp, r2
 849 03c4 04DA     		bge	.L23
 850              		.loc 1 667 0 is_stmt 0 discriminator 1
 851 03c6 2C21     		movs	r1, #44
 852 03c8 625E     		ldrsh	r2, [r4, r1]
 853 03ca 9B1A     		subs	r3, r3, r2
 854 03cc 10AA     		add	r2, sp, #64
 855 03ce 1380     		strh	r3, [r2]
 856              	.L23:
 668:..\..\..\arduinoLCD\test\Pain Drain\libraries\lvgl\src\widgets/lv_img.c ****                     coords_tmp.x2 = coords_tmp.x1 + img->w - 1;
 857              		.loc 1 668 0 is_stmt 1
 858 03d0 10AA     		add	r2, sp, #64
 859 03d2 0023     		movs	r3, #0
 860 03d4 D15E     		ldrsh	r1, [r2, r3]
 861 03d6 2C20     		movs	r0, #44
 862 03d8 235E     		ldrsh	r3, [r4, r0]
 863 03da CB18     		adds	r3, r1, r3
 864 03dc 013B     		subs	r3, r3, #1
 865 03de 9380     		strh	r3, [r2, #4]
 669:..\..\..\arduinoLCD\test\Pain Drain\libraries\lvgl\src\widgets/lv_img.c **** 
 670:..\..\..\arduinoLCD\test\Pain Drain\libraries\lvgl\src\widgets/lv_img.c ****                     for(; coords_tmp.x1 < img_max_area.x2; coords_tmp.x1 += img_size_final.x, coord
 866              		.loc 1 670 0
 867 03e0 0EE0     		b	.L24
 868              	.L25:
 671:..\..\..\arduinoLCD\test\Pain Drain\libraries\lvgl\src\widgets/lv_img.c ****                         lv_draw_img(draw_ctx, &img_dsc, &coords_tmp, img->src);
 869              		.loc 1 671 0 discriminator 2
 870 03e2 10AD     		add	r5, sp, #64
 871 03e4 636A     		ldr	r3, [r4, #36]
 872 03e6 2A00     		movs	r2, r5
 873 03e8 12A9     		add	r1, sp, #72
 874 03ea 0398     		ldr	r0, [sp, #12]
 875 03ec FFF7FEFF 		bl	lv_draw_img
 876              	.LVL87:
 670:..\..\..\arduinoLCD\test\Pain Drain\libraries\lvgl\src\widgets/lv_img.c ****                         lv_draw_img(draw_ctx, &img_dsc, &coords_tmp, img->src);
ARM GAS  C:\Users\haske\AppData\Local\Temp\ccGWO5DZ.s 			page 37


 877              		.loc 1 670 0 discriminator 2
 878 03f0 09AB     		add	r3, sp, #36
 879 03f2 1988     		ldrh	r1, [r3]
 880 03f4 2A88     		ldrh	r2, [r5]
 881 03f6 8A18     		adds	r2, r1, r2
 882 03f8 2A80     		strh	r2, [r5]
 883 03fa AB88     		ldrh	r3, [r5, #4]
 884 03fc CB18     		adds	r3, r1, r3
 885 03fe AB80     		strh	r3, [r5, #4]
 886              	.L24:
 670:..\..\..\arduinoLCD\test\Pain Drain\libraries\lvgl\src\widgets/lv_img.c ****                         lv_draw_img(draw_ctx, &img_dsc, &coords_tmp, img->src);
 887              		.loc 1 670 0 is_stmt 0 discriminator 1
 888 0400 10AB     		add	r3, sp, #64
 889 0402 0022     		movs	r2, #0
 890 0404 9B5E     		ldrsh	r3, [r3, r2]
 891 0406 9E42     		cmp	r6, r3
 892 0408 EBDC     		bgt	.L25
 665:..\..\..\arduinoLCD\test\Pain Drain\libraries\lvgl\src\widgets/lv_img.c ****                     coords_tmp.x1 = img_max_area.x1 + offset_x;
 893              		.loc 1 665 0 is_stmt 1
 894 040a 09AB     		add	r3, sp, #36
 895 040c 5888     		ldrh	r0, [r3, #2]
 896 040e 10AB     		add	r3, sp, #64
 897 0410 5988     		ldrh	r1, [r3, #2]
 898 0412 4118     		adds	r1, r0, r1
 899 0414 5980     		strh	r1, [r3, #2]
 900 0416 DA88     		ldrh	r2, [r3, #6]
 901 0418 8218     		adds	r2, r0, r2
 902 041a DA80     		strh	r2, [r3, #6]
 903              	.L22:
 665:..\..\..\arduinoLCD\test\Pain Drain\libraries\lvgl\src\widgets/lv_img.c ****                     coords_tmp.x1 = img_max_area.x1 + offset_x;
 904              		.loc 1 665 0 is_stmt 0 discriminator 1
 905 041c 10AB     		add	r3, sp, #64
 906 041e 0222     		movs	r2, #2
 907 0420 9B5E     		ldrsh	r3, [r3, r2]
 908 0422 049A     		ldr	r2, [sp, #16]
 909 0424 9A42     		cmp	r2, r3
 910 0426 C6DC     		bgt	.L26
 672:..\..\..\arduinoLCD\test\Pain Drain\libraries\lvgl\src\widgets/lv_img.c ****                     }
 673:..\..\..\arduinoLCD\test\Pain Drain\libraries\lvgl\src\widgets/lv_img.c ****                 }
 674:..\..\..\arduinoLCD\test\Pain Drain\libraries\lvgl\src\widgets/lv_img.c ****                 draw_ctx->clip_area = clip_area_ori;
 911              		.loc 1 674 0 is_stmt 1
 912 0428 039B     		ldr	r3, [sp, #12]
 913 042a 4246     		mov	r2, r8
 914 042c 9A60     		str	r2, [r3, #8]
 915              	.LBE76:
 916 042e 1AE0     		b	.L2
 917              	.LVL88:
 918              	.L19:
 675:..\..\..\arduinoLCD\test\Pain Drain\libraries\lvgl\src\widgets/lv_img.c ****             }
 676:..\..\..\arduinoLCD\test\Pain Drain\libraries\lvgl\src\widgets/lv_img.c ****             else if(img->src_type == LV_IMG_SRC_SYMBOL) {
 919              		.loc 1 676 0
 920 0430 022B     		cmp	r3, #2
 921 0432 11D1     		bne	.L28
 922              	.LBB77:
 677:..\..\..\arduinoLCD\test\Pain Drain\libraries\lvgl\src\widgets/lv_img.c ****                 lv_draw_label_dsc_t label_dsc;
 678:..\..\..\arduinoLCD\test\Pain Drain\libraries\lvgl\src\widgets/lv_img.c ****                 lv_draw_label_dsc_init(&label_dsc);
 923              		.loc 1 678 0
ARM GAS  C:\Users\haske\AppData\Local\Temp\ccGWO5DZ.s 			page 38


 924 0434 12A8     		add	r0, sp, #72
 925 0436 FFF7FEFF 		bl	lv_draw_label_dsc_init
 926              	.LVL89:
 679:..\..\..\arduinoLCD\test\Pain Drain\libraries\lvgl\src\widgets/lv_img.c ****                 lv_obj_init_draw_label_dsc(obj, LV_PART_MAIN, &label_dsc);
 927              		.loc 1 679 0
 928 043a 12AA     		add	r2, sp, #72
 929 043c 0021     		movs	r1, #0
 930 043e 2000     		movs	r0, r4
 931 0440 FFF7FEFF 		bl	lv_obj_init_draw_label_dsc
 932              	.LVL90:
 680:..\..\..\arduinoLCD\test\Pain Drain\libraries\lvgl\src\widgets/lv_img.c **** 
 681:..\..\..\arduinoLCD\test\Pain Drain\libraries\lvgl\src\widgets/lv_img.c ****                 lv_draw_label(draw_ctx, &label_dsc, &obj->coords, img->src, NULL);
 933              		.loc 1 681 0
 934 0444 2200     		movs	r2, r4
 935 0446 1432     		adds	r2, r2, #20
 936 0448 636A     		ldr	r3, [r4, #36]
 937 044a 0021     		movs	r1, #0
 938 044c 0091     		str	r1, [sp]
 939 044e 12A9     		add	r1, sp, #72
 940 0450 0398     		ldr	r0, [sp, #12]
 941 0452 FFF7FEFF 		bl	lv_draw_label
 942              	.LVL91:
 943              	.LBE77:
 944 0456 06E0     		b	.L2
 945              	.L28:
 682:..\..\..\arduinoLCD\test\Pain Drain\libraries\lvgl\src\widgets/lv_img.c ****             }
 683:..\..\..\arduinoLCD\test\Pain Drain\libraries\lvgl\src\widgets/lv_img.c ****             else {
 684:..\..\..\arduinoLCD\test\Pain Drain\libraries\lvgl\src\widgets/lv_img.c ****                 /*Trigger the error handler of image draw*/
 685:..\..\..\arduinoLCD\test\Pain Drain\libraries\lvgl\src\widgets/lv_img.c ****                 LV_LOG_WARN("draw_img: image source type is unknown");
 686:..\..\..\arduinoLCD\test\Pain Drain\libraries\lvgl\src\widgets/lv_img.c ****                 lv_draw_img(draw_ctx, NULL, &obj->coords, NULL);
 946              		.loc 1 686 0
 947 0458 2200     		movs	r2, r4
 948 045a 1432     		adds	r2, r2, #20
 949 045c 0023     		movs	r3, #0
 950 045e 0021     		movs	r1, #0
 951 0460 0398     		ldr	r0, [sp, #12]
 952 0462 FFF7FEFF 		bl	lv_draw_img
 953              	.LVL92:
 954              	.L2:
 955              	.LBE69:
 956              	.LBE52:
 687:..\..\..\arduinoLCD\test\Pain Drain\libraries\lvgl\src\widgets/lv_img.c ****             }
 688:..\..\..\arduinoLCD\test\Pain Drain\libraries\lvgl\src\widgets/lv_img.c ****         }
 689:..\..\..\arduinoLCD\test\Pain Drain\libraries\lvgl\src\widgets/lv_img.c ****     }
 690:..\..\..\arduinoLCD\test\Pain Drain\libraries\lvgl\src\widgets/lv_img.c **** }
 957              		.loc 1 690 0
 958 0466 1BB0     		add	sp, sp, #108
 959              		@ sp needed
 960              	.LVL93:
 961 0468 3CBC     		pop	{r2, r3, r4, r5}
 962 046a 9046     		mov	r8, r2
 963 046c 9946     		mov	r9, r3
 964 046e A246     		mov	r10, r4
 965 0470 AB46     		mov	fp, r5
 966 0472 F0BD     		pop	{r4, r5, r6, r7, pc}
 967              	.L30:
 968              		.align	2
ARM GAS  C:\Users\haske\AppData\Local\Temp\ccGWO5DZ.s 			page 39


 969              	.L29:
 970 0474 00000000 		.word	.LANCHOR0
 971              		.cfi_endproc
 972              	.LFE186:
 973              		.size	draw_img, .-draw_img
 974              		.section	.text.lv_img_destructor,"ax",%progbits
 975              		.align	2
 976              		.code	16
 977              		.thumb_func
 978              		.type	lv_img_destructor, %function
 979              	lv_img_destructor:
 980              	.LFB183:
 413:..\..\..\arduinoLCD\test\Pain Drain\libraries\lvgl\src\widgets/lv_img.c ****     LV_UNUSED(class_p);
 981              		.loc 1 413 0
 982              		.cfi_startproc
 983              		@ args = 0, pretend = 0, frame = 0
 984              		@ frame_needed = 0, uses_anonymous_args = 0
 985              	.LVL94:
 986 0000 10B5     		push	{r4, lr}
 987              		.cfi_def_cfa_offset 8
 988              		.cfi_offset 4, -8
 989              		.cfi_offset 14, -4
 990 0002 0C00     		movs	r4, r1
 991              	.LVL95:
 416:..\..\..\arduinoLCD\test\Pain Drain\libraries\lvgl\src\widgets/lv_img.c ****         lv_mem_free((void *)img->src);
 992              		.loc 1 416 0
 993 0004 3823     		movs	r3, #56
 994 0006 CB5C     		ldrb	r3, [r1, r3]
 995 0008 0322     		movs	r2, #3
 996 000a 1340     		ands	r3, r2
 997 000c 013B     		subs	r3, r3, #1
 998 000e DBB2     		uxtb	r3, r3
 999 0010 012B     		cmp	r3, #1
 1000 0012 09D8     		bhi	.L31
 417:..\..\..\arduinoLCD\test\Pain Drain\libraries\lvgl\src\widgets/lv_img.c ****         img->src      = NULL;
 1001              		.loc 1 417 0
 1002 0014 486A     		ldr	r0, [r1, #36]
 1003              	.LVL96:
 1004 0016 FFF7FEFF 		bl	lv_mem_free
 1005              	.LVL97:
 418:..\..\..\arduinoLCD\test\Pain Drain\libraries\lvgl\src\widgets/lv_img.c ****         img->src_type = LV_IMG_SRC_UNKNOWN;
 1006              		.loc 1 418 0
 1007 001a 0023     		movs	r3, #0
 1008 001c 6362     		str	r3, [r4, #36]
 419:..\..\..\arduinoLCD\test\Pain Drain\libraries\lvgl\src\widgets/lv_img.c ****     }
 1009              		.loc 1 419 0
 1010 001e 3822     		movs	r2, #56
 1011 0020 A15C     		ldrb	r1, [r4, r2]
 1012 0022 0323     		movs	r3, #3
 1013 0024 0B43     		orrs	r3, r1
 1014 0026 A354     		strb	r3, [r4, r2]
 1015              	.L31:
 421:..\..\..\arduinoLCD\test\Pain Drain\libraries\lvgl\src\widgets/lv_img.c **** 
 1016              		.loc 1 421 0
 1017              		@ sp needed
 1018              	.LVL98:
 1019 0028 10BD     		pop	{r4, pc}
ARM GAS  C:\Users\haske\AppData\Local\Temp\ccGWO5DZ.s 			page 40


 1020              		.cfi_endproc
 1021              	.LFE183:
 1022              		.size	lv_img_destructor, .-lv_img_destructor
 1023 002a C046     		.section	.text.lv_img_constructor,"ax",%progbits
 1024              		.align	2
 1025              		.code	16
 1026              		.thumb_func
 1027              		.type	lv_img_constructor, %function
 1028              	lv_img_constructor:
 1029              	.LFB182:
 386:..\..\..\arduinoLCD\test\Pain Drain\libraries\lvgl\src\widgets/lv_img.c ****     LV_UNUSED(class_p);
 1030              		.loc 1 386 0
 1031              		.cfi_startproc
 1032              		@ args = 0, pretend = 0, frame = 0
 1033              		@ frame_needed = 0, uses_anonymous_args = 0
 1034              	.LVL99:
 1035 0000 70B5     		push	{r4, r5, r6, lr}
 1036              		.cfi_def_cfa_offset 16
 1037              		.cfi_offset 4, -16
 1038              		.cfi_offset 5, -12
 1039              		.cfi_offset 6, -8
 1040              		.cfi_offset 14, -4
 1041 0002 0C00     		movs	r4, r1
 1042              	.LVL100:
 392:..\..\..\arduinoLCD\test\Pain Drain\libraries\lvgl\src\widgets/lv_img.c ****     img->src_type  = LV_IMG_SRC_UNKNOWN;
 1043              		.loc 1 392 0
 1044 0004 0025     		movs	r5, #0
 1045 0006 4D62     		str	r5, [r1, #36]
 393:..\..\..\arduinoLCD\test\Pain Drain\libraries\lvgl\src\widgets/lv_img.c ****     img->cf        = LV_IMG_CF_UNKNOWN;
 1046              		.loc 1 393 0
 1047 0008 3826     		movs	r6, #56
 1048 000a 8A5D     		ldrb	r2, [r1, r6]
 1049 000c 0323     		movs	r3, #3
 1050 000e 1343     		orrs	r3, r2
 394:..\..\..\arduinoLCD\test\Pain Drain\libraries\lvgl\src\widgets/lv_img.c ****     img->w         = lv_obj_get_width(obj);
 1051              		.loc 1 394 0
 1052 0010 DBB2     		uxtb	r3, r3
 1053 0012 7C22     		movs	r2, #124
 1054 0014 9343     		bics	r3, r2
 1055 0016 8B55     		strb	r3, [r1, r6]
 395:..\..\..\arduinoLCD\test\Pain Drain\libraries\lvgl\src\widgets/lv_img.c ****     img->h         = lv_obj_get_height(obj);
 1056              		.loc 1 395 0
 1057 0018 0800     		movs	r0, r1
 1058              	.LVL101:
 1059 001a FFF7FEFF 		bl	lv_obj_get_width
 1060              	.LVL102:
 1061 001e A085     		strh	r0, [r4, #44]
 396:..\..\..\arduinoLCD\test\Pain Drain\libraries\lvgl\src\widgets/lv_img.c ****     img->angle = 0;
 1062              		.loc 1 396 0
 1063 0020 2000     		movs	r0, r4
 1064 0022 FFF7FEFF 		bl	lv_obj_get_height
 1065              	.LVL103:
 1066 0026 E085     		strh	r0, [r4, #46]
 397:..\..\..\arduinoLCD\test\Pain Drain\libraries\lvgl\src\widgets/lv_img.c ****     img->zoom = LV_IMG_ZOOM_NONE;
 1067              		.loc 1 397 0
 1068 0028 2586     		strh	r5, [r4, #48]
 398:..\..\..\arduinoLCD\test\Pain Drain\libraries\lvgl\src\widgets/lv_img.c ****     img->antialias = LV_COLOR_DEPTH > 8 ? 1 : 0;
ARM GAS  C:\Users\haske\AppData\Local\Temp\ccGWO5DZ.s 			page 41


 1069              		.loc 1 398 0
 1070 002a 8023     		movs	r3, #128
 1071 002c 5B00     		lsls	r3, r3, #1
 1072 002e E386     		strh	r3, [r4, #54]
 399:..\..\..\arduinoLCD\test\Pain Drain\libraries\lvgl\src\widgets/lv_img.c ****     img->offset.x  = 0;
 1073              		.loc 1 399 0
 1074 0030 A35D     		ldrb	r3, [r4, r6]
 1075 0032 8022     		movs	r2, #128
 1076 0034 5242     		rsbs	r2, r2, #0
 1077 0036 1343     		orrs	r3, r2
 1078 0038 A355     		strb	r3, [r4, r6]
 400:..\..\..\arduinoLCD\test\Pain Drain\libraries\lvgl\src\widgets/lv_img.c ****     img->offset.y  = 0;
 1079              		.loc 1 400 0
 1080 003a 2585     		strh	r5, [r4, #40]
 401:..\..\..\arduinoLCD\test\Pain Drain\libraries\lvgl\src\widgets/lv_img.c ****     img->pivot.x = 0;
 1081              		.loc 1 401 0
 1082 003c 6585     		strh	r5, [r4, #42]
 402:..\..\..\arduinoLCD\test\Pain Drain\libraries\lvgl\src\widgets/lv_img.c ****     img->pivot.y = 0;
 1083              		.loc 1 402 0
 1084 003e 6586     		strh	r5, [r4, #50]
 403:..\..\..\arduinoLCD\test\Pain Drain\libraries\lvgl\src\widgets/lv_img.c ****     img->obj_size_mode = LV_IMG_SIZE_MODE_VIRTUAL;
 1085              		.loc 1 403 0
 1086 0040 A586     		strh	r5, [r4, #52]
 404:..\..\..\arduinoLCD\test\Pain Drain\libraries\lvgl\src\widgets/lv_img.c **** 
 1087              		.loc 1 404 0
 1088 0042 2200     		movs	r2, r4
 1089 0044 3832     		adds	r2, r2, #56
 1090 0046 5378     		ldrb	r3, [r2, #1]
 1091 0048 0321     		movs	r1, #3
 1092 004a 8B43     		bics	r3, r1
 1093 004c 5370     		strb	r3, [r2, #1]
 406:..\..\..\arduinoLCD\test\Pain Drain\libraries\lvgl\src\widgets/lv_img.c ****     lv_obj_add_flag(obj, LV_OBJ_FLAG_ADV_HITTEST);
 1094              		.loc 1 406 0
 1095 004e 0139     		subs	r1, r1, #1
 1096 0050 2000     		movs	r0, r4
 1097 0052 FFF7FEFF 		bl	lv_obj_clear_flag
 1098              	.LVL104:
 407:..\..\..\arduinoLCD\test\Pain Drain\libraries\lvgl\src\widgets/lv_img.c **** 
 1099              		.loc 1 407 0
 1100 0056 8021     		movs	r1, #128
 1101 0058 4902     		lsls	r1, r1, #9
 1102 005a 2000     		movs	r0, r4
 1103 005c FFF7FEFF 		bl	lv_obj_add_flag
 1104              	.LVL105:
 410:..\..\..\arduinoLCD\test\Pain Drain\libraries\lvgl\src\widgets/lv_img.c **** 
 1105              		.loc 1 410 0
 1106              		@ sp needed
 1107              	.LVL106:
 1108 0060 70BD     		pop	{r4, r5, r6, pc}
 1109              		.cfi_endproc
 1110              	.LFE182:
 1111              		.size	lv_img_constructor, .-lv_img_constructor
 1112 0062 C046     		.section	.text.lv_img_create,"ax",%progbits
 1113              		.align	2
 1114              		.global	lv_img_create
 1115              		.code	16
 1116              		.thumb_func
ARM GAS  C:\Users\haske\AppData\Local\Temp\ccGWO5DZ.s 			page 42


 1117              		.type	lv_img_create, %function
 1118              	lv_img_create:
 1119              	.LFB165:
  59:..\..\..\arduinoLCD\test\Pain Drain\libraries\lvgl\src\widgets/lv_img.c ****     LV_LOG_INFO("begin");
 1120              		.loc 1 59 0
 1121              		.cfi_startproc
 1122              		@ args = 0, pretend = 0, frame = 0
 1123              		@ frame_needed = 0, uses_anonymous_args = 0
 1124              	.LVL107:
 1125 0000 10B5     		push	{r4, lr}
 1126              		.cfi_def_cfa_offset 8
 1127              		.cfi_offset 4, -8
 1128              		.cfi_offset 14, -4
 1129 0002 0100     		movs	r1, r0
  61:..\..\..\arduinoLCD\test\Pain Drain\libraries\lvgl\src\widgets/lv_img.c ****     lv_obj_class_init_obj(obj);
 1130              		.loc 1 61 0
 1131 0004 0348     		ldr	r0, .L35
 1132              	.LVL108:
 1133 0006 FFF7FEFF 		bl	lv_obj_class_create_obj
 1134              	.LVL109:
 1135 000a 0400     		movs	r4, r0
 1136              	.LVL110:
  62:..\..\..\arduinoLCD\test\Pain Drain\libraries\lvgl\src\widgets/lv_img.c ****     return obj;
 1137              		.loc 1 62 0
 1138 000c FFF7FEFF 		bl	lv_obj_class_init_obj
 1139              	.LVL111:
  64:..\..\..\arduinoLCD\test\Pain Drain\libraries\lvgl\src\widgets/lv_img.c **** 
 1140              		.loc 1 64 0
 1141 0010 2000     		movs	r0, r4
 1142              		@ sp needed
 1143              	.LVL112:
 1144 0012 10BD     		pop	{r4, pc}
 1145              	.L36:
 1146              		.align	2
 1147              	.L35:
 1148 0014 00000000 		.word	.LANCHOR0
 1149              		.cfi_endproc
 1150              	.LFE165:
 1151              		.size	lv_img_create, .-lv_img_create
 1152              		.section	.text.lv_img_set_src,"ax",%progbits
 1153              		.align	2
 1154              		.global	lv_img_set_src
 1155              		.code	16
 1156              		.thumb_func
 1157              		.type	lv_img_set_src, %function
 1158              	lv_img_set_src:
 1159              	.LFB166:
  71:..\..\..\arduinoLCD\test\Pain Drain\libraries\lvgl\src\widgets/lv_img.c ****     LV_ASSERT_OBJ(obj, MY_CLASS);
 1160              		.loc 1 71 0
 1161              		.cfi_startproc
 1162              		@ args = 0, pretend = 0, frame = 16
 1163              		@ frame_needed = 0, uses_anonymous_args = 0
 1164              	.LVL113:
 1165 0000 F0B5     		push	{r4, r5, r6, r7, lr}
 1166              		.cfi_def_cfa_offset 20
 1167              		.cfi_offset 4, -20
 1168              		.cfi_offset 5, -16
ARM GAS  C:\Users\haske\AppData\Local\Temp\ccGWO5DZ.s 			page 43


 1169              		.cfi_offset 6, -12
 1170              		.cfi_offset 7, -8
 1171              		.cfi_offset 14, -4
 1172 0002 4F46     		mov	r7, r9
 1173 0004 4646     		mov	r6, r8
 1174 0006 C0B4     		push	{r6, r7}
 1175              		.cfi_def_cfa_offset 28
 1176              		.cfi_offset 8, -28
 1177              		.cfi_offset 9, -24
 1178 0008 89B0     		sub	sp, sp, #36
 1179              		.cfi_def_cfa_offset 64
 1180 000a 0700     		movs	r7, r0
 1181 000c 0C00     		movs	r4, r1
  74:..\..\..\arduinoLCD\test\Pain Drain\libraries\lvgl\src\widgets/lv_img.c **** 
 1182              		.loc 1 74 0
 1183 000e FFF7FEFF 		bl	lv_obj_invalidate
 1184              	.LVL114:
  76:..\..\..\arduinoLCD\test\Pain Drain\libraries\lvgl\src\widgets/lv_img.c ****     lv_img_t * img = (lv_img_t *)obj;
 1185              		.loc 1 76 0
 1186 0012 2000     		movs	r0, r4
 1187 0014 FFF7FEFF 		bl	lv_img_src_get_type
 1188              	.LVL115:
 1189 0018 0500     		movs	r5, r0
 1190 001a 0600     		movs	r6, r0
 1191              	.LVL116:
  96:..\..\..\arduinoLCD\test\Pain Drain\libraries\lvgl\src\widgets/lv_img.c ****         LV_LOG_WARN("lv_img_set_src: unknown image type");
 1192              		.loc 1 96 0
 1193 001c 0328     		cmp	r0, #3
 1194 001e 12D1     		bne	.L38
  98:..\..\..\arduinoLCD\test\Pain Drain\libraries\lvgl\src\widgets/lv_img.c ****             lv_mem_free((void *)img->src);
 1195              		.loc 1 98 0
 1196 0020 3823     		movs	r3, #56
 1197 0022 FB5C     		ldrb	r3, [r7, r3]
 1198 0024 0322     		movs	r2, #3
 1199 0026 1340     		ands	r3, r2
 1200 0028 013B     		subs	r3, r3, #1
 1201 002a DBB2     		uxtb	r3, r3
 1202 002c 012B     		cmp	r3, #1
 1203 002e 02D8     		bhi	.L39
  99:..\..\..\arduinoLCD\test\Pain Drain\libraries\lvgl\src\widgets/lv_img.c ****         }
 1204              		.loc 1 99 0
 1205 0030 786A     		ldr	r0, [r7, #36]
 1206              	.LVL117:
 1207 0032 FFF7FEFF 		bl	lv_mem_free
 1208              	.LVL118:
 1209              	.L39:
 101:..\..\..\arduinoLCD\test\Pain Drain\libraries\lvgl\src\widgets/lv_img.c ****         img->src_type = LV_IMG_SRC_UNKNOWN;
 1210              		.loc 1 101 0
 1211 0036 0023     		movs	r3, #0
 1212 0038 7B62     		str	r3, [r7, #36]
 102:..\..\..\arduinoLCD\test\Pain Drain\libraries\lvgl\src\widgets/lv_img.c ****         return;
 1213              		.loc 1 102 0
 1214 003a 3822     		movs	r2, #56
 1215 003c B95C     		ldrb	r1, [r7, r2]
 1216 003e 0323     		movs	r3, #3
 1217 0040 0B43     		orrs	r3, r1
 1218 0042 BB54     		strb	r3, [r7, r2]
ARM GAS  C:\Users\haske\AppData\Local\Temp\ccGWO5DZ.s 			page 44


 103:..\..\..\arduinoLCD\test\Pain Drain\libraries\lvgl\src\widgets/lv_img.c ****     }
 1219              		.loc 1 103 0
 1220 0044 A3E0     		b	.L37
 1221              	.LVL119:
 1222              	.L38:
 107:..\..\..\arduinoLCD\test\Pain Drain\libraries\lvgl\src\widgets/lv_img.c **** 
 1223              		.loc 1 107 0
 1224 0046 07A9     		add	r1, sp, #28
 1225 0048 2000     		movs	r0, r4
 1226              	.LVL120:
 1227 004a FFF7FEFF 		bl	lv_img_decoder_get_info
 1228              	.LVL121:
 110:..\..\..\arduinoLCD\test\Pain Drain\libraries\lvgl\src\widgets/lv_img.c ****         /*If memory was allocated because of the previous `src_type` then free it*/
 1229              		.loc 1 110 0
 1230 004e 002D     		cmp	r5, #0
 1231 0050 0CD1     		bne	.L41
 112:..\..\..\arduinoLCD\test\Pain Drain\libraries\lvgl\src\widgets/lv_img.c ****             lv_mem_free((void *)img->src);
 1232              		.loc 1 112 0
 1233 0052 3823     		movs	r3, #56
 1234 0054 FB5C     		ldrb	r3, [r7, r3]
 1235 0056 0322     		movs	r2, #3
 1236 0058 1340     		ands	r3, r2
 1237 005a 013B     		subs	r3, r3, #1
 1238 005c DBB2     		uxtb	r3, r3
 1239 005e 012B     		cmp	r3, #1
 1240 0060 02D8     		bhi	.L42
 113:..\..\..\arduinoLCD\test\Pain Drain\libraries\lvgl\src\widgets/lv_img.c ****         }
 1241              		.loc 1 113 0
 1242 0062 786A     		ldr	r0, [r7, #36]
 1243 0064 FFF7FEFF 		bl	lv_mem_free
 1244              	.LVL122:
 1245              	.L42:
 115:..\..\..\arduinoLCD\test\Pain Drain\libraries\lvgl\src\widgets/lv_img.c ****     }
 1246              		.loc 1 115 0
 1247 0068 7C62     		str	r4, [r7, #36]
 1248 006a 28E0     		b	.L43
 1249              	.L41:
 117:..\..\..\arduinoLCD\test\Pain Drain\libraries\lvgl\src\widgets/lv_img.c ****         /*If the new and the old src are the same then it was only a refresh.*/
 1250              		.loc 1 117 0
 1251 006c 6B1E     		subs	r3, r5, #1
 1252 006e DBB2     		uxtb	r3, r3
 1253 0070 012B     		cmp	r3, #1
 1254 0072 24D8     		bhi	.L43
 119:..\..\..\arduinoLCD\test\Pain Drain\libraries\lvgl\src\widgets/lv_img.c ****             const void * old_src = NULL;
 1255              		.loc 1 119 0
 1256 0074 7B6A     		ldr	r3, [r7, #36]
 1257 0076 9846     		mov	r8, r3
 1258 0078 9C42     		cmp	r4, r3
 1259 007a 20D0     		beq	.L43
 1260              	.LVL123:
 1261              	.LBB78:
 124:..\..\..\arduinoLCD\test\Pain Drain\libraries\lvgl\src\widgets/lv_img.c ****                 old_src = img->src;
 1262              		.loc 1 124 0
 1263 007c 3823     		movs	r3, #56
 1264 007e FB5C     		ldrb	r3, [r7, r3]
 1265 0080 0322     		movs	r2, #3
 1266 0082 1340     		ands	r3, r2
ARM GAS  C:\Users\haske\AppData\Local\Temp\ccGWO5DZ.s 			page 45


 1267 0084 013B     		subs	r3, r3, #1
 1268 0086 DBB2     		uxtb	r3, r3
 1269 0088 012B     		cmp	r3, #1
 1270 008a 01D9     		bls	.L44
 120:..\..\..\arduinoLCD\test\Pain Drain\libraries\lvgl\src\widgets/lv_img.c ****             /*If memory was allocated because of the previous `src_type` then save its pointer and 
 1271              		.loc 1 120 0
 1272 008c 0023     		movs	r3, #0
 1273 008e 9846     		mov	r8, r3
 1274              	.L44:
 1275              	.LVL124:
 127:..\..\..\arduinoLCD\test\Pain Drain\libraries\lvgl\src\widgets/lv_img.c ****             LV_ASSERT_MALLOC(new_str);
 1276              		.loc 1 127 0
 1277 0090 2000     		movs	r0, r4
 1278 0092 FFF7FEFF 		bl	strlen
 1279              	.LVL125:
 1280 0096 0130     		adds	r0, r0, #1
 1281 0098 FFF7FEFF 		bl	lv_mem_alloc
 1282              	.LVL126:
 1283 009c 8146     		mov	r9, r0
 1284              	.LVL127:
 128:..\..\..\arduinoLCD\test\Pain Drain\libraries\lvgl\src\widgets/lv_img.c ****             if(new_str == NULL) return;
 1285              		.loc 1 128 0
 1286 009e 0028     		cmp	r0, #0
 1287 00a0 00D1     		bne	.L45
 1288              	.L46:
 1289 00a2 FEE7     		b	.L46
 1290              	.L45:
 129:..\..\..\arduinoLCD\test\Pain Drain\libraries\lvgl\src\widgets/lv_img.c ****             strcpy(new_str, src);
 1291              		.loc 1 129 0
 1292 00a4 0028     		cmp	r0, #0
 1293 00a6 72D0     		beq	.L37
 130:..\..\..\arduinoLCD\test\Pain Drain\libraries\lvgl\src\widgets/lv_img.c ****             img->src = new_str;
 1294              		.loc 1 130 0
 1295 00a8 2100     		movs	r1, r4
 1296 00aa FFF7FEFF 		bl	strcpy
 1297              	.LVL128:
 131:..\..\..\arduinoLCD\test\Pain Drain\libraries\lvgl\src\widgets/lv_img.c **** 
 1298              		.loc 1 131 0
 1299 00ae 4B46     		mov	r3, r9
 1300 00b0 7B62     		str	r3, [r7, #36]
 133:..\..\..\arduinoLCD\test\Pain Drain\libraries\lvgl\src\widgets/lv_img.c ****         }
 1301              		.loc 1 133 0
 1302 00b2 4346     		mov	r3, r8
 1303 00b4 002B     		cmp	r3, #0
 1304 00b6 02D0     		beq	.L43
 1305              	.LVL129:
 133:..\..\..\arduinoLCD\test\Pain Drain\libraries\lvgl\src\widgets/lv_img.c ****         }
 1306              		.loc 1 133 0 is_stmt 0 discriminator 1
 1307 00b8 4046     		mov	r0, r8
 1308 00ba FFF7FEFF 		bl	lv_mem_free
 1309              	.LVL130:
 1310              	.L43:
 1311              	.LBE78:
 137:..\..\..\arduinoLCD\test\Pain Drain\libraries\lvgl\src\widgets/lv_img.c ****         /*`lv_img_dsc_get_info` couldn't set the width and height of a font so set it here*/
 1312              		.loc 1 137 0 is_stmt 1
 1313 00be 022E     		cmp	r6, #2
 1314 00c0 32D1     		bne	.L47
ARM GAS  C:\Users\haske\AppData\Local\Temp\ccGWO5DZ.s 			page 46


 1315              	.LVL131:
 1316              	.LBB79:
 1317              	.LBB80:
 1318              	.LBB81:
 347:..\..\..\arduinoLCD\test\Pain Drain\libraries\lvgl\src\widgets\../core/lv_obj_style_gen.h **** }
 348:..\..\..\arduinoLCD\test\Pain Drain\libraries\lvgl\src\widgets\../core/lv_obj_style_gen.h **** 
 349:..\..\..\arduinoLCD\test\Pain Drain\libraries\lvgl\src\widgets\../core/lv_obj_style_gen.h **** static inline lv_color_t lv_obj_get_style_img_recolor(const struct _lv_obj_t * obj, uint32_t part)
 350:..\..\..\arduinoLCD\test\Pain Drain\libraries\lvgl\src\widgets\../core/lv_obj_style_gen.h **** {
 351:..\..\..\arduinoLCD\test\Pain Drain\libraries\lvgl\src\widgets\../core/lv_obj_style_gen.h ****     lv_style_value_t v = lv_obj_get_style_prop(obj, part, LV_STYLE_IMG_RECOLOR);
 352:..\..\..\arduinoLCD\test\Pain Drain\libraries\lvgl\src\widgets\../core/lv_obj_style_gen.h ****     return v.color;
 353:..\..\..\arduinoLCD\test\Pain Drain\libraries\lvgl\src\widgets\../core/lv_obj_style_gen.h **** }
 354:..\..\..\arduinoLCD\test\Pain Drain\libraries\lvgl\src\widgets\../core/lv_obj_style_gen.h **** 
 355:..\..\..\arduinoLCD\test\Pain Drain\libraries\lvgl\src\widgets\../core/lv_obj_style_gen.h **** static inline lv_color_t lv_obj_get_style_img_recolor_filtered(const struct _lv_obj_t * obj, uint32
 356:..\..\..\arduinoLCD\test\Pain Drain\libraries\lvgl\src\widgets\../core/lv_obj_style_gen.h **** {
 357:..\..\..\arduinoLCD\test\Pain Drain\libraries\lvgl\src\widgets\../core/lv_obj_style_gen.h ****     lv_style_value_t v = _lv_obj_style_apply_color_filter(obj, part, lv_obj_get_style_prop(obj, par
 358:..\..\..\arduinoLCD\test\Pain Drain\libraries\lvgl\src\widgets\../core/lv_obj_style_gen.h ****     return v.color;
 359:..\..\..\arduinoLCD\test\Pain Drain\libraries\lvgl\src\widgets\../core/lv_obj_style_gen.h **** }
 360:..\..\..\arduinoLCD\test\Pain Drain\libraries\lvgl\src\widgets\../core/lv_obj_style_gen.h **** 
 361:..\..\..\arduinoLCD\test\Pain Drain\libraries\lvgl\src\widgets\../core/lv_obj_style_gen.h **** static inline lv_opa_t lv_obj_get_style_img_recolor_opa(const struct _lv_obj_t * obj, uint32_t part
 362:..\..\..\arduinoLCD\test\Pain Drain\libraries\lvgl\src\widgets\../core/lv_obj_style_gen.h **** {
 363:..\..\..\arduinoLCD\test\Pain Drain\libraries\lvgl\src\widgets\../core/lv_obj_style_gen.h ****     lv_style_value_t v = lv_obj_get_style_prop(obj, part, LV_STYLE_IMG_RECOLOR_OPA);
 364:..\..\..\arduinoLCD\test\Pain Drain\libraries\lvgl\src\widgets\../core/lv_obj_style_gen.h ****     return (lv_opa_t)v.num;
 365:..\..\..\arduinoLCD\test\Pain Drain\libraries\lvgl\src\widgets\../core/lv_obj_style_gen.h **** }
 366:..\..\..\arduinoLCD\test\Pain Drain\libraries\lvgl\src\widgets\../core/lv_obj_style_gen.h **** 
 367:..\..\..\arduinoLCD\test\Pain Drain\libraries\lvgl\src\widgets\../core/lv_obj_style_gen.h **** static inline lv_coord_t lv_obj_get_style_line_width(const struct _lv_obj_t * obj, uint32_t part)
 368:..\..\..\arduinoLCD\test\Pain Drain\libraries\lvgl\src\widgets\../core/lv_obj_style_gen.h **** {
 369:..\..\..\arduinoLCD\test\Pain Drain\libraries\lvgl\src\widgets\../core/lv_obj_style_gen.h ****     lv_style_value_t v = lv_obj_get_style_prop(obj, part, LV_STYLE_LINE_WIDTH);
 370:..\..\..\arduinoLCD\test\Pain Drain\libraries\lvgl\src\widgets\../core/lv_obj_style_gen.h ****     return (lv_coord_t)v.num;
 371:..\..\..\arduinoLCD\test\Pain Drain\libraries\lvgl\src\widgets\../core/lv_obj_style_gen.h **** }
 372:..\..\..\arduinoLCD\test\Pain Drain\libraries\lvgl\src\widgets\../core/lv_obj_style_gen.h **** 
 373:..\..\..\arduinoLCD\test\Pain Drain\libraries\lvgl\src\widgets\../core/lv_obj_style_gen.h **** static inline lv_coord_t lv_obj_get_style_line_dash_width(const struct _lv_obj_t * obj, uint32_t pa
 374:..\..\..\arduinoLCD\test\Pain Drain\libraries\lvgl\src\widgets\../core/lv_obj_style_gen.h **** {
 375:..\..\..\arduinoLCD\test\Pain Drain\libraries\lvgl\src\widgets\../core/lv_obj_style_gen.h ****     lv_style_value_t v = lv_obj_get_style_prop(obj, part, LV_STYLE_LINE_DASH_WIDTH);
 376:..\..\..\arduinoLCD\test\Pain Drain\libraries\lvgl\src\widgets\../core/lv_obj_style_gen.h ****     return (lv_coord_t)v.num;
 377:..\..\..\arduinoLCD\test\Pain Drain\libraries\lvgl\src\widgets\../core/lv_obj_style_gen.h **** }
 378:..\..\..\arduinoLCD\test\Pain Drain\libraries\lvgl\src\widgets\../core/lv_obj_style_gen.h **** 
 379:..\..\..\arduinoLCD\test\Pain Drain\libraries\lvgl\src\widgets\../core/lv_obj_style_gen.h **** static inline lv_coord_t lv_obj_get_style_line_dash_gap(const struct _lv_obj_t * obj, uint32_t part
 380:..\..\..\arduinoLCD\test\Pain Drain\libraries\lvgl\src\widgets\../core/lv_obj_style_gen.h **** {
 381:..\..\..\arduinoLCD\test\Pain Drain\libraries\lvgl\src\widgets\../core/lv_obj_style_gen.h ****     lv_style_value_t v = lv_obj_get_style_prop(obj, part, LV_STYLE_LINE_DASH_GAP);
 382:..\..\..\arduinoLCD\test\Pain Drain\libraries\lvgl\src\widgets\../core/lv_obj_style_gen.h ****     return (lv_coord_t)v.num;
 383:..\..\..\arduinoLCD\test\Pain Drain\libraries\lvgl\src\widgets\../core/lv_obj_style_gen.h **** }
 384:..\..\..\arduinoLCD\test\Pain Drain\libraries\lvgl\src\widgets\../core/lv_obj_style_gen.h **** 
 385:..\..\..\arduinoLCD\test\Pain Drain\libraries\lvgl\src\widgets\../core/lv_obj_style_gen.h **** static inline bool lv_obj_get_style_line_rounded(const struct _lv_obj_t * obj, uint32_t part)
 386:..\..\..\arduinoLCD\test\Pain Drain\libraries\lvgl\src\widgets\../core/lv_obj_style_gen.h **** {
 387:..\..\..\arduinoLCD\test\Pain Drain\libraries\lvgl\src\widgets\../core/lv_obj_style_gen.h ****     lv_style_value_t v = lv_obj_get_style_prop(obj, part, LV_STYLE_LINE_ROUNDED);
 388:..\..\..\arduinoLCD\test\Pain Drain\libraries\lvgl\src\widgets\../core/lv_obj_style_gen.h ****     return (bool)v.num;
 389:..\..\..\arduinoLCD\test\Pain Drain\libraries\lvgl\src\widgets\../core/lv_obj_style_gen.h **** }
 390:..\..\..\arduinoLCD\test\Pain Drain\libraries\lvgl\src\widgets\../core/lv_obj_style_gen.h **** 
 391:..\..\..\arduinoLCD\test\Pain Drain\libraries\lvgl\src\widgets\../core/lv_obj_style_gen.h **** static inline lv_color_t lv_obj_get_style_line_color(const struct _lv_obj_t * obj, uint32_t part)
 392:..\..\..\arduinoLCD\test\Pain Drain\libraries\lvgl\src\widgets\../core/lv_obj_style_gen.h **** {
 393:..\..\..\arduinoLCD\test\Pain Drain\libraries\lvgl\src\widgets\../core/lv_obj_style_gen.h ****     lv_style_value_t v = lv_obj_get_style_prop(obj, part, LV_STYLE_LINE_COLOR);
 394:..\..\..\arduinoLCD\test\Pain Drain\libraries\lvgl\src\widgets\../core/lv_obj_style_gen.h ****     return v.color;
 395:..\..\..\arduinoLCD\test\Pain Drain\libraries\lvgl\src\widgets\../core/lv_obj_style_gen.h **** }
 396:..\..\..\arduinoLCD\test\Pain Drain\libraries\lvgl\src\widgets\../core/lv_obj_style_gen.h **** 
 397:..\..\..\arduinoLCD\test\Pain Drain\libraries\lvgl\src\widgets\../core/lv_obj_style_gen.h **** static inline lv_color_t lv_obj_get_style_line_color_filtered(const struct _lv_obj_t * obj, uint32_
 398:..\..\..\arduinoLCD\test\Pain Drain\libraries\lvgl\src\widgets\../core/lv_obj_style_gen.h **** {
 399:..\..\..\arduinoLCD\test\Pain Drain\libraries\lvgl\src\widgets\../core/lv_obj_style_gen.h ****     lv_style_value_t v = _lv_obj_style_apply_color_filter(obj, part, lv_obj_get_style_prop(obj, par
ARM GAS  C:\Users\haske\AppData\Local\Temp\ccGWO5DZ.s 			page 47


 400:..\..\..\arduinoLCD\test\Pain Drain\libraries\lvgl\src\widgets\../core/lv_obj_style_gen.h ****     return v.color;
 401:..\..\..\arduinoLCD\test\Pain Drain\libraries\lvgl\src\widgets\../core/lv_obj_style_gen.h **** }
 402:..\..\..\arduinoLCD\test\Pain Drain\libraries\lvgl\src\widgets\../core/lv_obj_style_gen.h **** 
 403:..\..\..\arduinoLCD\test\Pain Drain\libraries\lvgl\src\widgets\../core/lv_obj_style_gen.h **** static inline lv_opa_t lv_obj_get_style_line_opa(const struct _lv_obj_t * obj, uint32_t part)
 404:..\..\..\arduinoLCD\test\Pain Drain\libraries\lvgl\src\widgets\../core/lv_obj_style_gen.h **** {
 405:..\..\..\arduinoLCD\test\Pain Drain\libraries\lvgl\src\widgets\../core/lv_obj_style_gen.h ****     lv_style_value_t v = lv_obj_get_style_prop(obj, part, LV_STYLE_LINE_OPA);
 406:..\..\..\arduinoLCD\test\Pain Drain\libraries\lvgl\src\widgets\../core/lv_obj_style_gen.h ****     return (lv_opa_t)v.num;
 407:..\..\..\arduinoLCD\test\Pain Drain\libraries\lvgl\src\widgets\../core/lv_obj_style_gen.h **** }
 408:..\..\..\arduinoLCD\test\Pain Drain\libraries\lvgl\src\widgets\../core/lv_obj_style_gen.h **** 
 409:..\..\..\arduinoLCD\test\Pain Drain\libraries\lvgl\src\widgets\../core/lv_obj_style_gen.h **** static inline lv_coord_t lv_obj_get_style_arc_width(const struct _lv_obj_t * obj, uint32_t part)
 410:..\..\..\arduinoLCD\test\Pain Drain\libraries\lvgl\src\widgets\../core/lv_obj_style_gen.h **** {
 411:..\..\..\arduinoLCD\test\Pain Drain\libraries\lvgl\src\widgets\../core/lv_obj_style_gen.h ****     lv_style_value_t v = lv_obj_get_style_prop(obj, part, LV_STYLE_ARC_WIDTH);
 412:..\..\..\arduinoLCD\test\Pain Drain\libraries\lvgl\src\widgets\../core/lv_obj_style_gen.h ****     return (lv_coord_t)v.num;
 413:..\..\..\arduinoLCD\test\Pain Drain\libraries\lvgl\src\widgets\../core/lv_obj_style_gen.h **** }
 414:..\..\..\arduinoLCD\test\Pain Drain\libraries\lvgl\src\widgets\../core/lv_obj_style_gen.h **** 
 415:..\..\..\arduinoLCD\test\Pain Drain\libraries\lvgl\src\widgets\../core/lv_obj_style_gen.h **** static inline bool lv_obj_get_style_arc_rounded(const struct _lv_obj_t * obj, uint32_t part)
 416:..\..\..\arduinoLCD\test\Pain Drain\libraries\lvgl\src\widgets\../core/lv_obj_style_gen.h **** {
 417:..\..\..\arduinoLCD\test\Pain Drain\libraries\lvgl\src\widgets\../core/lv_obj_style_gen.h ****     lv_style_value_t v = lv_obj_get_style_prop(obj, part, LV_STYLE_ARC_ROUNDED);
 418:..\..\..\arduinoLCD\test\Pain Drain\libraries\lvgl\src\widgets\../core/lv_obj_style_gen.h ****     return (bool)v.num;
 419:..\..\..\arduinoLCD\test\Pain Drain\libraries\lvgl\src\widgets\../core/lv_obj_style_gen.h **** }
 420:..\..\..\arduinoLCD\test\Pain Drain\libraries\lvgl\src\widgets\../core/lv_obj_style_gen.h **** 
 421:..\..\..\arduinoLCD\test\Pain Drain\libraries\lvgl\src\widgets\../core/lv_obj_style_gen.h **** static inline lv_color_t lv_obj_get_style_arc_color(const struct _lv_obj_t * obj, uint32_t part)
 422:..\..\..\arduinoLCD\test\Pain Drain\libraries\lvgl\src\widgets\../core/lv_obj_style_gen.h **** {
 423:..\..\..\arduinoLCD\test\Pain Drain\libraries\lvgl\src\widgets\../core/lv_obj_style_gen.h ****     lv_style_value_t v = lv_obj_get_style_prop(obj, part, LV_STYLE_ARC_COLOR);
 424:..\..\..\arduinoLCD\test\Pain Drain\libraries\lvgl\src\widgets\../core/lv_obj_style_gen.h ****     return v.color;
 425:..\..\..\arduinoLCD\test\Pain Drain\libraries\lvgl\src\widgets\../core/lv_obj_style_gen.h **** }
 426:..\..\..\arduinoLCD\test\Pain Drain\libraries\lvgl\src\widgets\../core/lv_obj_style_gen.h **** 
 427:..\..\..\arduinoLCD\test\Pain Drain\libraries\lvgl\src\widgets\../core/lv_obj_style_gen.h **** static inline lv_color_t lv_obj_get_style_arc_color_filtered(const struct _lv_obj_t * obj, uint32_t
 428:..\..\..\arduinoLCD\test\Pain Drain\libraries\lvgl\src\widgets\../core/lv_obj_style_gen.h **** {
 429:..\..\..\arduinoLCD\test\Pain Drain\libraries\lvgl\src\widgets\../core/lv_obj_style_gen.h ****     lv_style_value_t v = _lv_obj_style_apply_color_filter(obj, part, lv_obj_get_style_prop(obj, par
 430:..\..\..\arduinoLCD\test\Pain Drain\libraries\lvgl\src\widgets\../core/lv_obj_style_gen.h ****     return v.color;
 431:..\..\..\arduinoLCD\test\Pain Drain\libraries\lvgl\src\widgets\../core/lv_obj_style_gen.h **** }
 432:..\..\..\arduinoLCD\test\Pain Drain\libraries\lvgl\src\widgets\../core/lv_obj_style_gen.h **** 
 433:..\..\..\arduinoLCD\test\Pain Drain\libraries\lvgl\src\widgets\../core/lv_obj_style_gen.h **** static inline lv_opa_t lv_obj_get_style_arc_opa(const struct _lv_obj_t * obj, uint32_t part)
 434:..\..\..\arduinoLCD\test\Pain Drain\libraries\lvgl\src\widgets\../core/lv_obj_style_gen.h **** {
 435:..\..\..\arduinoLCD\test\Pain Drain\libraries\lvgl\src\widgets\../core/lv_obj_style_gen.h ****     lv_style_value_t v = lv_obj_get_style_prop(obj, part, LV_STYLE_ARC_OPA);
 436:..\..\..\arduinoLCD\test\Pain Drain\libraries\lvgl\src\widgets\../core/lv_obj_style_gen.h ****     return (lv_opa_t)v.num;
 437:..\..\..\arduinoLCD\test\Pain Drain\libraries\lvgl\src\widgets\../core/lv_obj_style_gen.h **** }
 438:..\..\..\arduinoLCD\test\Pain Drain\libraries\lvgl\src\widgets\../core/lv_obj_style_gen.h **** 
 439:..\..\..\arduinoLCD\test\Pain Drain\libraries\lvgl\src\widgets\../core/lv_obj_style_gen.h **** static inline const void * lv_obj_get_style_arc_img_src(const struct _lv_obj_t * obj, uint32_t part
 440:..\..\..\arduinoLCD\test\Pain Drain\libraries\lvgl\src\widgets\../core/lv_obj_style_gen.h **** {
 441:..\..\..\arduinoLCD\test\Pain Drain\libraries\lvgl\src\widgets\../core/lv_obj_style_gen.h ****     lv_style_value_t v = lv_obj_get_style_prop(obj, part, LV_STYLE_ARC_IMG_SRC);
 442:..\..\..\arduinoLCD\test\Pain Drain\libraries\lvgl\src\widgets\../core/lv_obj_style_gen.h ****     return (const void *)v.ptr;
 443:..\..\..\arduinoLCD\test\Pain Drain\libraries\lvgl\src\widgets\../core/lv_obj_style_gen.h **** }
 444:..\..\..\arduinoLCD\test\Pain Drain\libraries\lvgl\src\widgets\../core/lv_obj_style_gen.h **** 
 445:..\..\..\arduinoLCD\test\Pain Drain\libraries\lvgl\src\widgets\../core/lv_obj_style_gen.h **** static inline lv_color_t lv_obj_get_style_text_color(const struct _lv_obj_t * obj, uint32_t part)
 446:..\..\..\arduinoLCD\test\Pain Drain\libraries\lvgl\src\widgets\../core/lv_obj_style_gen.h **** {
 447:..\..\..\arduinoLCD\test\Pain Drain\libraries\lvgl\src\widgets\../core/lv_obj_style_gen.h ****     lv_style_value_t v = lv_obj_get_style_prop(obj, part, LV_STYLE_TEXT_COLOR);
 448:..\..\..\arduinoLCD\test\Pain Drain\libraries\lvgl\src\widgets\../core/lv_obj_style_gen.h ****     return v.color;
 449:..\..\..\arduinoLCD\test\Pain Drain\libraries\lvgl\src\widgets\../core/lv_obj_style_gen.h **** }
 450:..\..\..\arduinoLCD\test\Pain Drain\libraries\lvgl\src\widgets\../core/lv_obj_style_gen.h **** 
 451:..\..\..\arduinoLCD\test\Pain Drain\libraries\lvgl\src\widgets\../core/lv_obj_style_gen.h **** static inline lv_color_t lv_obj_get_style_text_color_filtered(const struct _lv_obj_t * obj, uint32_
 452:..\..\..\arduinoLCD\test\Pain Drain\libraries\lvgl\src\widgets\../core/lv_obj_style_gen.h **** {
 453:..\..\..\arduinoLCD\test\Pain Drain\libraries\lvgl\src\widgets\../core/lv_obj_style_gen.h ****     lv_style_value_t v = _lv_obj_style_apply_color_filter(obj, part, lv_obj_get_style_prop(obj, par
 454:..\..\..\arduinoLCD\test\Pain Drain\libraries\lvgl\src\widgets\../core/lv_obj_style_gen.h ****     return v.color;
 455:..\..\..\arduinoLCD\test\Pain Drain\libraries\lvgl\src\widgets\../core/lv_obj_style_gen.h **** }
 456:..\..\..\arduinoLCD\test\Pain Drain\libraries\lvgl\src\widgets\../core/lv_obj_style_gen.h **** 
ARM GAS  C:\Users\haske\AppData\Local\Temp\ccGWO5DZ.s 			page 48


 457:..\..\..\arduinoLCD\test\Pain Drain\libraries\lvgl\src\widgets\../core/lv_obj_style_gen.h **** static inline lv_opa_t lv_obj_get_style_text_opa(const struct _lv_obj_t * obj, uint32_t part)
 458:..\..\..\arduinoLCD\test\Pain Drain\libraries\lvgl\src\widgets\../core/lv_obj_style_gen.h **** {
 459:..\..\..\arduinoLCD\test\Pain Drain\libraries\lvgl\src\widgets\../core/lv_obj_style_gen.h ****     lv_style_value_t v = lv_obj_get_style_prop(obj, part, LV_STYLE_TEXT_OPA);
 460:..\..\..\arduinoLCD\test\Pain Drain\libraries\lvgl\src\widgets\../core/lv_obj_style_gen.h ****     return (lv_opa_t)v.num;
 461:..\..\..\arduinoLCD\test\Pain Drain\libraries\lvgl\src\widgets\../core/lv_obj_style_gen.h **** }
 462:..\..\..\arduinoLCD\test\Pain Drain\libraries\lvgl\src\widgets\../core/lv_obj_style_gen.h **** 
 463:..\..\..\arduinoLCD\test\Pain Drain\libraries\lvgl\src\widgets\../core/lv_obj_style_gen.h **** static inline const lv_font_t * lv_obj_get_style_text_font(const struct _lv_obj_t * obj, uint32_t p
 464:..\..\..\arduinoLCD\test\Pain Drain\libraries\lvgl\src\widgets\../core/lv_obj_style_gen.h **** {
 465:..\..\..\arduinoLCD\test\Pain Drain\libraries\lvgl\src\widgets\../core/lv_obj_style_gen.h ****     lv_style_value_t v = lv_obj_get_style_prop(obj, part, LV_STYLE_TEXT_FONT);
 1319              		.loc 3 465 0
 1320 00c2 5722     		movs	r2, #87
 1321 00c4 0021     		movs	r1, #0
 1322 00c6 3800     		movs	r0, r7
 1323 00c8 FFF7FEFF 		bl	lv_obj_get_style_prop
 1324              	.LVL132:
 1325 00cc 0590     		str	r0, [sp, #20]
 1326              	.LVL133:
 1327              	.LBE81:
 1328              	.LBE80:
 1329              	.LBB82:
 1330              	.LBB83:
 466:..\..\..\arduinoLCD\test\Pain Drain\libraries\lvgl\src\widgets\../core/lv_obj_style_gen.h ****     return (const lv_font_t *)v.ptr;
 467:..\..\..\arduinoLCD\test\Pain Drain\libraries\lvgl\src\widgets\../core/lv_obj_style_gen.h **** }
 468:..\..\..\arduinoLCD\test\Pain Drain\libraries\lvgl\src\widgets\../core/lv_obj_style_gen.h **** 
 469:..\..\..\arduinoLCD\test\Pain Drain\libraries\lvgl\src\widgets\../core/lv_obj_style_gen.h **** static inline lv_coord_t lv_obj_get_style_text_letter_space(const struct _lv_obj_t * obj, uint32_t 
 470:..\..\..\arduinoLCD\test\Pain Drain\libraries\lvgl\src\widgets\../core/lv_obj_style_gen.h **** {
 471:..\..\..\arduinoLCD\test\Pain Drain\libraries\lvgl\src\widgets\../core/lv_obj_style_gen.h ****     lv_style_value_t v = lv_obj_get_style_prop(obj, part, LV_STYLE_TEXT_LETTER_SPACE);
 1331              		.loc 3 471 0
 1332 00ce 5822     		movs	r2, #88
 1333 00d0 0021     		movs	r1, #0
 1334 00d2 3800     		movs	r0, r7
 1335 00d4 FFF7FEFF 		bl	lv_obj_get_style_prop
 1336              	.LVL134:
 472:..\..\..\arduinoLCD\test\Pain Drain\libraries\lvgl\src\widgets\../core/lv_obj_style_gen.h ****     return (lv_coord_t)v.num;
 1337              		.loc 3 472 0
 1338 00d8 03B2     		sxth	r3, r0
 1339 00da 9946     		mov	r9, r3
 1340              	.LVL135:
 1341              	.LBE83:
 1342              	.LBE82:
 1343              	.LBB84:
 1344              	.LBB85:
 473:..\..\..\arduinoLCD\test\Pain Drain\libraries\lvgl\src\widgets\../core/lv_obj_style_gen.h **** }
 474:..\..\..\arduinoLCD\test\Pain Drain\libraries\lvgl\src\widgets\../core/lv_obj_style_gen.h **** 
 475:..\..\..\arduinoLCD\test\Pain Drain\libraries\lvgl\src\widgets\../core/lv_obj_style_gen.h **** static inline lv_coord_t lv_obj_get_style_text_line_space(const struct _lv_obj_t * obj, uint32_t pa
 476:..\..\..\arduinoLCD\test\Pain Drain\libraries\lvgl\src\widgets\../core/lv_obj_style_gen.h **** {
 477:..\..\..\arduinoLCD\test\Pain Drain\libraries\lvgl\src\widgets\../core/lv_obj_style_gen.h ****     lv_style_value_t v = lv_obj_get_style_prop(obj, part, LV_STYLE_TEXT_LINE_SPACE);
 1345              		.loc 3 477 0
 1346 00dc 5922     		movs	r2, #89
 1347 00de 0021     		movs	r1, #0
 1348 00e0 3800     		movs	r0, r7
 1349 00e2 FFF7FEFF 		bl	lv_obj_get_style_prop
 1350              	.LVL136:
 478:..\..\..\arduinoLCD\test\Pain Drain\libraries\lvgl\src\widgets\../core/lv_obj_style_gen.h ****     return (lv_coord_t)v.num;
 1351              		.loc 3 478 0
 1352 00e6 00B2     		sxth	r0, r0
 1353              	.LVL137:
ARM GAS  C:\Users\haske\AppData\Local\Temp\ccGWO5DZ.s 			page 49


 1354              	.LBE85:
 1355              	.LBE84:
 143:..\..\..\arduinoLCD\test\Pain Drain\libraries\lvgl\src\widgets/lv_img.c ****         header.w = size.x;
 1356              		.loc 1 143 0
 1357 00e8 06AE     		add	r6, sp, #24
 1358 00ea 0023     		movs	r3, #0
 1359 00ec 0293     		str	r3, [sp, #8]
 1360 00ee 2A4B     		ldr	r3, .L51
 1361 00f0 0193     		str	r3, [sp, #4]
 1362 00f2 0090     		str	r0, [sp]
 1363 00f4 4B46     		mov	r3, r9
 1364 00f6 059A     		ldr	r2, [sp, #20]
 1365 00f8 2100     		movs	r1, r4
 1366 00fa 3000     		movs	r0, r6
 1367 00fc FFF7FEFF 		bl	lv_txt_get_size
 1368              	.LVL138:
 144:..\..\..\arduinoLCD\test\Pain Drain\libraries\lvgl\src\widgets/lv_img.c ****         header.h = size.y;
 1369              		.loc 1 144 0
 1370 0100 3388     		ldrh	r3, [r6]
 1371 0102 5B05     		lsls	r3, r3, #21
 1372 0104 DA0A     		lsrs	r2, r3, #11
 1373 0106 254B     		ldr	r3, .L51+4
 1374 0108 0799     		ldr	r1, [sp, #28]
 1375 010a 0B40     		ands	r3, r1
 1376 010c 1343     		orrs	r3, r2
 1377 010e 0793     		str	r3, [sp, #28]
 145:..\..\..\arduinoLCD\test\Pain Drain\libraries\lvgl\src\widgets/lv_img.c ****     }
 1378              		.loc 1 145 0
 1379 0110 0221     		movs	r1, #2
 1380 0112 725E     		ldrsh	r2, [r6, r1]
 1381 0114 5201     		lsls	r2, r2, #5
 1382 0116 1B0C     		lsrs	r3, r3, #16
 1383 0118 1F21     		movs	r1, #31
 1384 011a 0B40     		ands	r3, r1
 1385 011c 1343     		orrs	r3, r2
 1386 011e 1622     		movs	r2, #22
 1387 0120 02A9     		add	r1, sp, #8
 1388 0122 8C46     		mov	ip, r1
 1389 0124 6244     		add	r2, r2, ip
 1390 0126 1380     		strh	r3, [r2]
 1391              	.L47:
 1392              	.LBE79:
 148:..\..\..\arduinoLCD\test\Pain Drain\libraries\lvgl\src\widgets/lv_img.c ****     img->w        = header.w;
 1393              		.loc 1 148 0
 1394 0128 3821     		movs	r1, #56
 1395 012a 0323     		movs	r3, #3
 1396 012c 1D40     		ands	r5, r3
 1397 012e 7B5C     		ldrb	r3, [r7, r1]
 1398 0130 0322     		movs	r2, #3
 1399 0132 9343     		bics	r3, r2
 1400 0134 1E00     		movs	r6, r3
 149:..\..\..\arduinoLCD\test\Pain Drain\libraries\lvgl\src\widgets/lv_img.c ****     img->h        = header.h;
 1401              		.loc 1 149 0
 1402 0136 079B     		ldr	r3, [sp, #28]
 1403 0138 DA02     		lsls	r2, r3, #11
 1404 013a 520D     		lsrs	r2, r2, #21
 1405 013c 90B2     		uxth	r0, r2
ARM GAS  C:\Users\haske\AppData\Local\Temp\ccGWO5DZ.s 			page 50


 1406 013e BA85     		strh	r2, [r7, #44]
 150:..\..\..\arduinoLCD\test\Pain Drain\libraries\lvgl\src\widgets/lv_img.c ****     img->cf       = header.cf;
 1407              		.loc 1 150 0
 1408 0140 1623     		movs	r3, #22
 1409 0142 02AA     		add	r2, sp, #8
 1410 0144 9446     		mov	ip, r2
 1411 0146 6344     		add	r3, r3, ip
 1412 0148 1A88     		ldrh	r2, [r3]
 1413 014a 5209     		lsrs	r2, r2, #5
 1414 014c 94B2     		uxth	r4, r2
 1415              	.LVL139:
 1416 014e FA85     		strh	r2, [r7, #46]
 151:..\..\..\arduinoLCD\test\Pain Drain\libraries\lvgl\src\widgets/lv_img.c ****     img->pivot.x = header.w / 2;
 1417              		.loc 1 151 0
 1418 0150 07AB     		add	r3, sp, #28
 1419 0152 1B78     		ldrb	r3, [r3]
 1420 0154 DB06     		lsls	r3, r3, #27
 1421 0156 5A0E     		lsrs	r2, r3, #25
 1422 0158 3300     		movs	r3, r6
 1423 015a 2B43     		orrs	r3, r5
 1424 015c 7C25     		movs	r5, #124
 1425 015e AB43     		bics	r3, r5
 1426 0160 1343     		orrs	r3, r2
 1427 0162 7B54     		strb	r3, [r7, r1]
 152:..\..\..\arduinoLCD\test\Pain Drain\libraries\lvgl\src\widgets/lv_img.c ****     img->pivot.y = header.h / 2;
 1428              		.loc 1 152 0
 1429 0164 4008     		lsrs	r0, r0, #1
 1430 0166 7886     		strh	r0, [r7, #50]
 153:..\..\..\arduinoLCD\test\Pain Drain\libraries\lvgl\src\widgets/lv_img.c **** 
 1431              		.loc 1 153 0
 1432 0168 6308     		lsrs	r3, r4, #1
 1433 016a BB86     		strh	r3, [r7, #52]
 155:..\..\..\arduinoLCD\test\Pain Drain\libraries\lvgl\src\widgets/lv_img.c **** 
 1434              		.loc 1 155 0
 1435 016c 3800     		movs	r0, r7
 1436 016e FFF7FEFF 		bl	lv_obj_refresh_self_size
 1437              	.LVL140:
 158:..\..\..\arduinoLCD\test\Pain Drain\libraries\lvgl\src\widgets/lv_img.c **** 
 1438              		.loc 1 158 0
 1439 0172 3B8E     		ldrh	r3, [r7, #48]
 1440 0174 002B     		cmp	r3, #0
 1441 0176 04D1     		bne	.L48
 158:..\..\..\arduinoLCD\test\Pain Drain\libraries\lvgl\src\widgets/lv_img.c **** 
 1442              		.loc 1 158 0 is_stmt 0 discriminator 2
 1443 0178 FA8E     		ldrh	r2, [r7, #54]
 1444 017a 0133     		adds	r3, r3, #1
 1445 017c FF33     		adds	r3, r3, #255
 1446 017e 9A42     		cmp	r2, r3
 1447 0180 02D0     		beq	.L49
 1448              	.L48:
 158:..\..\..\arduinoLCD\test\Pain Drain\libraries\lvgl\src\widgets/lv_img.c **** 
 1449              		.loc 1 158 0 discriminator 3
 1450 0182 3800     		movs	r0, r7
 1451 0184 FFF7FEFF 		bl	lv_obj_refresh_ext_draw_size
 1452              	.LVL141:
 1453              	.L49:
 160:..\..\..\arduinoLCD\test\Pain Drain\libraries\lvgl\src\widgets/lv_img.c **** }
ARM GAS  C:\Users\haske\AppData\Local\Temp\ccGWO5DZ.s 			page 51


 1454              		.loc 1 160 0 is_stmt 1
 1455 0188 3800     		movs	r0, r7
 1456 018a FFF7FEFF 		bl	lv_obj_invalidate
 1457              	.LVL142:
 1458              	.L37:
 161:..\..\..\arduinoLCD\test\Pain Drain\libraries\lvgl\src\widgets/lv_img.c **** 
 1459              		.loc 1 161 0
 1460 018e 09B0     		add	sp, sp, #36
 1461              		@ sp needed
 1462              	.LVL143:
 1463 0190 0CBC     		pop	{r2, r3}
 1464 0192 9046     		mov	r8, r2
 1465 0194 9946     		mov	r9, r3
 1466 0196 F0BD     		pop	{r4, r5, r6, r7, pc}
 1467              	.L52:
 1468              		.align	2
 1469              	.L51:
 1470 0198 FF1F0000 		.word	8191
 1471 019c FF03E0FF 		.word	-2096129
 1472              		.cfi_endproc
 1473              	.LFE166:
 1474              		.size	lv_img_set_src, .-lv_img_set_src
 1475              		.section	.text.lv_img_event,"ax",%progbits
 1476              		.align	2
 1477              		.code	16
 1478              		.thumb_func
 1479              		.type	lv_img_event, %function
 1480              	lv_img_event:
 1481              	.LFB185:
 438:..\..\..\arduinoLCD\test\Pain Drain\libraries\lvgl\src\widgets/lv_img.c ****     LV_UNUSED(class_p);
 1482              		.loc 1 438 0
 1483              		.cfi_startproc
 1484              		@ args = 0, pretend = 0, frame = 16
 1485              		@ frame_needed = 0, uses_anonymous_args = 0
 1486              	.LVL144:
 1487 0000 F0B5     		push	{r4, r5, r6, r7, lr}
 1488              		.cfi_def_cfa_offset 20
 1489              		.cfi_offset 4, -20
 1490              		.cfi_offset 5, -16
 1491              		.cfi_offset 6, -12
 1492              		.cfi_offset 7, -8
 1493              		.cfi_offset 14, -4
 1494 0002 87B0     		sub	sp, sp, #28
 1495              		.cfi_def_cfa_offset 48
 1496 0004 0D00     		movs	r5, r1
 441:..\..\..\arduinoLCD\test\Pain Drain\libraries\lvgl\src\widgets/lv_img.c **** 
 1497              		.loc 1 441 0
 1498 0006 0800     		movs	r0, r1
 1499              	.LVL145:
 1500 0008 FFF7FEFF 		bl	lv_event_get_code
 1501              	.LVL146:
 1502 000c 0400     		movs	r4, r0
 1503              	.LVL147:
 444:..\..\..\arduinoLCD\test\Pain Drain\libraries\lvgl\src\widgets/lv_img.c ****         /*Call the ancestor's event handler*/
 1504              		.loc 1 444 0
 1505 000e 1528     		cmp	r0, #21
 1506 0010 08D0     		beq	.L54
ARM GAS  C:\Users\haske\AppData\Local\Temp\ccGWO5DZ.s 			page 52


 444:..\..\..\arduinoLCD\test\Pain Drain\libraries\lvgl\src\widgets/lv_img.c ****         /*Call the ancestor's event handler*/
 1507              		.loc 1 444 0 is_stmt 0 discriminator 1
 1508 0012 1828     		cmp	r0, #24
 1509 0014 06D0     		beq	.L54
 1510              	.LBB86:
 446:..\..\..\arduinoLCD\test\Pain Drain\libraries\lvgl\src\widgets/lv_img.c ****         if(res != LV_RES_OK) return;
 1511              		.loc 1 446 0 is_stmt 1
 1512 0016 2900     		movs	r1, r5
 1513 0018 7548     		ldr	r0, .L70
 1514              	.LVL148:
 1515 001a FFF7FEFF 		bl	lv_obj_event_base
 1516              	.LVL149:
 447:..\..\..\arduinoLCD\test\Pain Drain\libraries\lvgl\src\widgets/lv_img.c ****     }
 1517              		.loc 1 447 0
 1518 001e 0128     		cmp	r0, #1
 1519 0020 00D0     		beq	.LCB1425
 1520 0022 E2E0     		b	.L53	@long jump
 1521              	.LCB1425:
 1522              	.LVL150:
 1523              	.L54:
 1524              	.LBE86:
 450:..\..\..\arduinoLCD\test\Pain Drain\libraries\lvgl\src\widgets/lv_img.c ****     lv_img_t * img = (lv_img_t *)obj;
 1525              		.loc 1 450 0
 1526 0024 2800     		movs	r0, r5
 1527 0026 FFF7FEFF 		bl	lv_event_get_target
 1528              	.LVL151:
 1529 002a 0600     		movs	r6, r0
 1530              	.LVL152:
 453:..\..\..\arduinoLCD\test\Pain Drain\libraries\lvgl\src\widgets/lv_img.c ****         /*Refresh the file name to refresh the symbol text size*/
 1531              		.loc 1 453 0
 1532 002c 2A2C     		cmp	r4, #42
 1533 002e 0CD1     		bne	.L56
 455:..\..\..\arduinoLCD\test\Pain Drain\libraries\lvgl\src\widgets/lv_img.c ****             lv_img_set_src(obj, img->src);
 1534              		.loc 1 455 0
 1535 0030 3823     		movs	r3, #56
 1536 0032 C35C     		ldrb	r3, [r0, r3]
 1537 0034 0322     		movs	r2, #3
 1538 0036 1340     		ands	r3, r2
 1539 0038 022B     		cmp	r3, #2
 1540 003a 03D1     		bne	.L57
 456:..\..\..\arduinoLCD\test\Pain Drain\libraries\lvgl\src\widgets/lv_img.c ****         }
 1541              		.loc 1 456 0
 1542 003c 416A     		ldr	r1, [r0, #36]
 1543 003e FFF7FEFF 		bl	lv_img_set_src
 1544              	.LVL153:
 1545 0042 D2E0     		b	.L53
 1546              	.LVL154:
 1547              	.L57:
 460:..\..\..\arduinoLCD\test\Pain Drain\libraries\lvgl\src\widgets/lv_img.c ****         }
 1548              		.loc 1 460 0
 1549 0044 FFF7FEFF 		bl	lv_obj_refresh_ext_draw_size
 1550              	.LVL155:
 1551 0048 CFE0     		b	.L53
 1552              	.LVL156:
 1553              	.L56:
 463:..\..\..\arduinoLCD\test\Pain Drain\libraries\lvgl\src\widgets/lv_img.c **** 
 1554              		.loc 1 463 0
ARM GAS  C:\Users\haske\AppData\Local\Temp\ccGWO5DZ.s 			page 53


 1555 004a 132C     		cmp	r4, #19
 1556 004c 48D1     		bne	.L58
 1557              	.LBB87:
 465:..\..\..\arduinoLCD\test\Pain Drain\libraries\lvgl\src\widgets/lv_img.c **** 
 1558              		.loc 1 465 0
 1559 004e 2800     		movs	r0, r5
 1560              	.LVL157:
 1561 0050 FFF7FEFF 		bl	lv_event_get_param
 1562              	.LVL158:
 1563 0054 0700     		movs	r7, r0
 1564              	.LVL159:
 468:..\..\..\arduinoLCD\test\Pain Drain\libraries\lvgl\src\widgets/lv_img.c ****             lv_area_t a;
 1565              		.loc 1 468 0
 1566 0056 338E     		ldrh	r3, [r6, #48]
 1567 0058 002B     		cmp	r3, #0
 1568 005a 05D1     		bne	.L59
 468:..\..\..\arduinoLCD\test\Pain Drain\libraries\lvgl\src\widgets/lv_img.c ****             lv_area_t a;
 1569              		.loc 1 468 0 is_stmt 0 discriminator 1
 1570 005c F28E     		ldrh	r2, [r6, #54]
 1571 005e 0133     		adds	r3, r3, #1
 1572 0060 FF33     		adds	r3, r3, #255
 1573 0062 9A42     		cmp	r2, r3
 1574 0064 00D1     		bne	.LCB1483
 1575 0066 C0E0     		b	.L53	@long jump
 1576              	.LCB1483:
 1577              	.L59:
 1578              	.LBB88:
 470:..\..\..\arduinoLCD\test\Pain Drain\libraries\lvgl\src\widgets/lv_img.c ****             lv_coord_t h = lv_obj_get_height(obj);
 1579              		.loc 1 470 0 is_stmt 1
 1580 0068 3000     		movs	r0, r6
 1581              	.LVL160:
 1582 006a FFF7FEFF 		bl	lv_obj_get_width
 1583              	.LVL161:
 1584 006e 0500     		movs	r5, r0
 1585              	.LVL162:
 471:..\..\..\arduinoLCD\test\Pain Drain\libraries\lvgl\src\widgets/lv_img.c ****             _lv_img_buf_get_transformed_area(&a, w, h, img->angle, img->zoom, &img->pivot);
 1586              		.loc 1 471 0
 1587 0070 3000     		movs	r0, r6
 1588 0072 FFF7FEFF 		bl	lv_obj_get_height
 1589              	.LVL163:
 1590 0076 0390     		str	r0, [sp, #12]
 1591              	.LVL164:
 472:..\..\..\arduinoLCD\test\Pain Drain\libraries\lvgl\src\widgets/lv_img.c ****             *s = LV_MAX(*s, -a.x1);
 1592              		.loc 1 472 0
 1593 0078 3300     		movs	r3, r6
 1594 007a 3233     		adds	r3, r3, #50
 1595 007c 1A00     		movs	r2, r3
 1596 007e 3021     		movs	r1, #48
 1597 0080 735E     		ldrsh	r3, [r6, r1]
 1598 0082 04AC     		add	r4, sp, #16
 1599              	.LVL165:
 1600 0084 0192     		str	r2, [sp, #4]
 1601 0086 F28E     		ldrh	r2, [r6, #54]
 1602 0088 0092     		str	r2, [sp]
 1603 008a 0200     		movs	r2, r0
 1604 008c 2900     		movs	r1, r5
 1605 008e 2000     		movs	r0, r4
ARM GAS  C:\Users\haske\AppData\Local\Temp\ccGWO5DZ.s 			page 54


 1606              	.LVL166:
 1607 0090 FFF7FEFF 		bl	_lv_img_buf_get_transformed_area
 1608              	.LVL167:
 473:..\..\..\arduinoLCD\test\Pain Drain\libraries\lvgl\src\widgets/lv_img.c ****             *s = LV_MAX(*s, -a.y1);
 1609              		.loc 1 473 0
 1610 0094 0023     		movs	r3, #0
 1611 0096 E25E     		ldrsh	r2, [r4, r3]
 1612 0098 5242     		rsbs	r2, r2, #0
 1613 009a 0021     		movs	r1, #0
 1614 009c 7B5E     		ldrsh	r3, [r7, r1]
 1615 009e 9342     		cmp	r3, r2
 1616 00a0 00DA     		bge	.L60
 1617 00a2 1300     		movs	r3, r2
 1618              	.L60:
 1619 00a4 1BB2     		sxth	r3, r3
 1620 00a6 3B80     		strh	r3, [r7]
 474:..\..\..\arduinoLCD\test\Pain Drain\libraries\lvgl\src\widgets/lv_img.c ****             *s = LV_MAX(*s, a.x2 - w);
 1621              		.loc 1 474 0
 1622 00a8 04AA     		add	r2, sp, #16
 1623 00aa 0221     		movs	r1, #2
 1624 00ac 525E     		ldrsh	r2, [r2, r1]
 1625 00ae 5242     		rsbs	r2, r2, #0
 1626 00b0 9342     		cmp	r3, r2
 1627 00b2 00DA     		bge	.L61
 1628 00b4 1300     		movs	r3, r2
 1629              	.L61:
 1630 00b6 1BB2     		sxth	r3, r3
 1631 00b8 3B80     		strh	r3, [r7]
 475:..\..\..\arduinoLCD\test\Pain Drain\libraries\lvgl\src\widgets/lv_img.c ****             *s = LV_MAX(*s, a.y2 - h);
 1632              		.loc 1 475 0
 1633 00ba 04AA     		add	r2, sp, #16
 1634 00bc 0421     		movs	r1, #4
 1635 00be 525E     		ldrsh	r2, [r2, r1]
 1636 00c0 551B     		subs	r5, r2, r5
 1637              	.LVL168:
 1638 00c2 AB42     		cmp	r3, r5
 1639 00c4 00DA     		bge	.L62
 1640 00c6 2B00     		movs	r3, r5
 1641              	.L62:
 1642 00c8 1BB2     		sxth	r3, r3
 1643 00ca 3B80     		strh	r3, [r7]
 476:..\..\..\arduinoLCD\test\Pain Drain\libraries\lvgl\src\widgets/lv_img.c ****         }
 1644              		.loc 1 476 0
 1645 00cc 04AA     		add	r2, sp, #16
 1646 00ce 0621     		movs	r1, #6
 1647 00d0 525E     		ldrsh	r2, [r2, r1]
 1648 00d2 0399     		ldr	r1, [sp, #12]
 1649 00d4 541A     		subs	r4, r2, r1
 1650 00d6 A342     		cmp	r3, r4
 1651 00d8 00DA     		bge	.L63
 1652 00da 2300     		movs	r3, r4
 1653              	.L63:
 1654 00dc 3B80     		strh	r3, [r7]
 1655 00de 84E0     		b	.L53
 1656              	.LVL169:
 1657              	.L58:
 1658              	.LBE88:
ARM GAS  C:\Users\haske\AppData\Local\Temp\ccGWO5DZ.s 			page 55


 1659              	.LBE87:
 479:..\..\..\arduinoLCD\test\Pain Drain\libraries\lvgl\src\widgets/lv_img.c ****         lv_hit_test_info_t * info = lv_event_get_param(e);
 1660              		.loc 1 479 0
 1661 00e0 112C     		cmp	r4, #17
 1662 00e2 5FD1     		bne	.L64
 1663              	.LBB89:
 480:..\..\..\arduinoLCD\test\Pain Drain\libraries\lvgl\src\widgets/lv_img.c **** 
 1664              		.loc 1 480 0
 1665 00e4 2800     		movs	r0, r5
 1666              	.LVL170:
 1667 00e6 FFF7FEFF 		bl	lv_event_get_param
 1668              	.LVL171:
 1669 00ea 0400     		movs	r4, r0
 1670              	.LVL172:
 484:..\..\..\arduinoLCD\test\Pain Drain\libraries\lvgl\src\widgets/lv_img.c ****            (img->zoom != LV_IMG_ZOOM_NONE || img->angle != 0 || img->pivot.x != img->w / 2 || img->
 1671              		.loc 1 484 0
 1672 00ec 2C23     		movs	r3, #44
 1673 00ee F55E     		ldrsh	r5, [r6, r3]
 1674              	.LVL173:
 1675 00f0 3000     		movs	r0, r6
 1676              	.LVL174:
 1677 00f2 FFF7FEFF 		bl	lv_obj_get_width
 1678              	.LVL175:
 1679 00f6 8542     		cmp	r5, r0
 1680 00f8 49D1     		bne	.L65
 484:..\..\..\arduinoLCD\test\Pain Drain\libraries\lvgl\src\widgets/lv_img.c ****            (img->zoom != LV_IMG_ZOOM_NONE || img->angle != 0 || img->pivot.x != img->w / 2 || img->
 1681              		.loc 1 484 0 is_stmt 0 discriminator 1
 1682 00fa 2E23     		movs	r3, #46
 1683 00fc F55E     		ldrsh	r5, [r6, r3]
 1684 00fe 3000     		movs	r0, r6
 1685 0100 FFF7FEFF 		bl	lv_obj_get_height
 1686              	.LVL176:
 1687 0104 8542     		cmp	r5, r0
 1688 0106 42D1     		bne	.L65
 485:..\..\..\arduinoLCD\test\Pain Drain\libraries\lvgl\src\widgets/lv_img.c **** 
 1689              		.loc 1 485 0 is_stmt 1 discriminator 2
 1690 0108 F28E     		ldrh	r2, [r6, #54]
 484:..\..\..\arduinoLCD\test\Pain Drain\libraries\lvgl\src\widgets/lv_img.c ****            (img->zoom != LV_IMG_ZOOM_NONE || img->angle != 0 || img->pivot.x != img->w / 2 || img->
 1691              		.loc 1 484 0 discriminator 2
 1692 010a 8023     		movs	r3, #128
 1693 010c 5B00     		lsls	r3, r3, #1
 1694 010e 9A42     		cmp	r2, r3
 1695 0110 14D1     		bne	.L66
 485:..\..\..\arduinoLCD\test\Pain Drain\libraries\lvgl\src\widgets/lv_img.c **** 
 1696              		.loc 1 485 0
 1697 0112 338E     		ldrh	r3, [r6, #48]
 1698 0114 002B     		cmp	r3, #0
 1699 0116 11D1     		bne	.L66
 485:..\..\..\arduinoLCD\test\Pain Drain\libraries\lvgl\src\widgets/lv_img.c **** 
 1700              		.loc 1 485 0 is_stmt 0 discriminator 1
 1701 0118 3223     		movs	r3, #50
 1702 011a F25E     		ldrsh	r2, [r6, r3]
 1703 011c 2C21     		movs	r1, #44
 1704 011e 735E     		ldrsh	r3, [r6, r1]
 1705 0120 D90F     		lsrs	r1, r3, #31
 1706 0122 CB18     		adds	r3, r1, r3
 1707 0124 5B10     		asrs	r3, r3, #1
ARM GAS  C:\Users\haske\AppData\Local\Temp\ccGWO5DZ.s 			page 56


 1708 0126 9A42     		cmp	r2, r3
 1709 0128 08D1     		bne	.L66
 485:..\..\..\arduinoLCD\test\Pain Drain\libraries\lvgl\src\widgets/lv_img.c **** 
 1710              		.loc 1 485 0 discriminator 2
 1711 012a 3423     		movs	r3, #52
 1712 012c F25E     		ldrsh	r2, [r6, r3]
 1713 012e 2E21     		movs	r1, #46
 1714 0130 735E     		ldrsh	r3, [r6, r1]
 1715 0132 D90F     		lsrs	r1, r3, #31
 1716 0134 CB18     		adds	r3, r1, r3
 1717 0136 5B10     		asrs	r3, r3, #1
 1718 0138 9A42     		cmp	r2, r3
 1719 013a 28D0     		beq	.L65
 1720              	.L66:
 1721              	.LBB90:
 487:..\..\..\arduinoLCD\test\Pain Drain\libraries\lvgl\src\widgets/lv_img.c ****             lv_coord_t h = lv_obj_get_height(obj);
 1722              		.loc 1 487 0 is_stmt 1
 1723 013c 3000     		movs	r0, r6
 1724 013e FFF7FEFF 		bl	lv_obj_get_width
 1725              	.LVL177:
 1726 0142 0700     		movs	r7, r0
 1727              	.LVL178:
 488:..\..\..\arduinoLCD\test\Pain Drain\libraries\lvgl\src\widgets/lv_img.c ****             lv_area_t coords;
 1728              		.loc 1 488 0
 1729 0144 3000     		movs	r0, r6
 1730 0146 FFF7FEFF 		bl	lv_obj_get_height
 1731              	.LVL179:
 1732 014a 0200     		movs	r2, r0
 1733              	.LVL180:
 490:..\..\..\arduinoLCD\test\Pain Drain\libraries\lvgl\src\widgets/lv_img.c ****             coords.x1 += obj->coords.x1;
 1734              		.loc 1 490 0
 1735 014c 3100     		movs	r1, r6
 1736 014e 3231     		adds	r1, r1, #50
 1737 0150 3020     		movs	r0, #48
 1738 0152 335E     		ldrsh	r3, [r6, r0]
 1739 0154 04AD     		add	r5, sp, #16
 1740 0156 0191     		str	r1, [sp, #4]
 1741 0158 F18E     		ldrh	r1, [r6, #54]
 1742 015a 0091     		str	r1, [sp]
 1743 015c 3900     		movs	r1, r7
 1744 015e 2800     		movs	r0, r5
 1745 0160 FFF7FEFF 		bl	_lv_img_buf_get_transformed_area
 1746              	.LVL181:
 491:..\..\..\arduinoLCD\test\Pain Drain\libraries\lvgl\src\widgets/lv_img.c ****             coords.y1 += obj->coords.y1;
 1747              		.loc 1 491 0
 1748 0164 B78A     		ldrh	r7, [r6, #20]
 1749              	.LVL182:
 1750 0166 2B88     		ldrh	r3, [r5]
 1751 0168 FB18     		adds	r3, r7, r3
 1752 016a 2B80     		strh	r3, [r5]
 492:..\..\..\arduinoLCD\test\Pain Drain\libraries\lvgl\src\widgets/lv_img.c ****             coords.x2 += obj->coords.x1;
 1753              		.loc 1 492 0
 1754 016c F08A     		ldrh	r0, [r6, #22]
 1755 016e 6988     		ldrh	r1, [r5, #2]
 1756 0170 4118     		adds	r1, r0, r1
 1757 0172 6980     		strh	r1, [r5, #2]
 493:..\..\..\arduinoLCD\test\Pain Drain\libraries\lvgl\src\widgets/lv_img.c ****             coords.y2 += obj->coords.y1;
ARM GAS  C:\Users\haske\AppData\Local\Temp\ccGWO5DZ.s 			page 57


 1758              		.loc 1 493 0
 1759 0174 AA88     		ldrh	r2, [r5, #4]
 1760 0176 BA18     		adds	r2, r7, r2
 1761 0178 AA80     		strh	r2, [r5, #4]
 494:..\..\..\arduinoLCD\test\Pain Drain\libraries\lvgl\src\widgets/lv_img.c **** 
 1762              		.loc 1 494 0
 1763 017a EB88     		ldrh	r3, [r5, #6]
 1764 017c C318     		adds	r3, r0, r3
 1765 017e EB80     		strh	r3, [r5, #6]
 496:..\..\..\arduinoLCD\test\Pain Drain\libraries\lvgl\src\widgets/lv_img.c ****         }
 1766              		.loc 1 496 0
 1767 0180 0022     		movs	r2, #0
 1768 0182 2168     		ldr	r1, [r4]
 1769 0184 2800     		movs	r0, r5
 1770 0186 FFF7FEFF 		bl	_lv_area_is_point_on
 1771              	.LVL183:
 1772 018a 2071     		strb	r0, [r4, #4]
 1773              	.LBE90:
 485:..\..\..\arduinoLCD\test\Pain Drain\libraries\lvgl\src\widgets/lv_img.c **** 
 1774              		.loc 1 485 0
 1775 018c 2DE0     		b	.L53
 1776              	.L65:
 1777              	.LBB91:
 500:..\..\..\arduinoLCD\test\Pain Drain\libraries\lvgl\src\widgets/lv_img.c ****             info->res = _lv_area_is_point_on(&a, info->point, 0);
 1778              		.loc 1 500 0 discriminator 6
 1779 018e 04A9     		add	r1, sp, #16
 1780 0190 3000     		movs	r0, r6
 1781 0192 FFF7FEFF 		bl	lv_obj_get_click_area
 1782              	.LVL184:
 501:..\..\..\arduinoLCD\test\Pain Drain\libraries\lvgl\src\widgets/lv_img.c ****         }
 1783              		.loc 1 501 0 discriminator 6
 1784 0196 0022     		movs	r2, #0
 1785 0198 2168     		ldr	r1, [r4]
 1786 019a 04A8     		add	r0, sp, #16
 1787 019c FFF7FEFF 		bl	_lv_area_is_point_on
 1788              	.LVL185:
 1789 01a0 2071     		strb	r0, [r4, #4]
 1790 01a2 22E0     		b	.L53
 1791              	.LVL186:
 1792              	.L64:
 1793              	.LBE91:
 1794              	.LBE89:
 504:..\..\..\arduinoLCD\test\Pain Drain\libraries\lvgl\src\widgets/lv_img.c ****         lv_point_t * p = lv_event_get_param(e);
 1795              		.loc 1 504 0
 1796 01a4 2C2C     		cmp	r4, #44
 1797 01a6 17D1     		bne	.L67
 1798              	.LBB92:
 505:..\..\..\arduinoLCD\test\Pain Drain\libraries\lvgl\src\widgets/lv_img.c ****         if(img->obj_size_mode == LV_IMG_SIZE_MODE_REAL) {
 1799              		.loc 1 505 0
 1800 01a8 2800     		movs	r0, r5
 1801              	.LVL187:
 1802 01aa FFF7FEFF 		bl	lv_event_get_param
 1803              	.LVL188:
 1804 01ae 0400     		movs	r4, r0
 1805              	.LVL189:
 506:..\..\..\arduinoLCD\test\Pain Drain\libraries\lvgl\src\widgets/lv_img.c ****             *p = lv_img_get_transformed_size(obj);
 1806              		.loc 1 506 0
ARM GAS  C:\Users\haske\AppData\Local\Temp\ccGWO5DZ.s 			page 58


 1807 01b0 3923     		movs	r3, #57
 1808 01b2 F35C     		ldrb	r3, [r6, r3]
 1809 01b4 0322     		movs	r2, #3
 1810 01b6 1340     		ands	r3, r2
 1811 01b8 012B     		cmp	r3, #1
 1812 01ba 06D1     		bne	.L68
 507:..\..\..\arduinoLCD\test\Pain Drain\libraries\lvgl\src\widgets/lv_img.c ****         }
 1813              		.loc 1 507 0
 1814 01bc 3000     		movs	r0, r6
 1815              	.LVL190:
 1816 01be FFF7FEFF 		bl	lv_img_get_transformed_size
 1817              	.LVL191:
 1818 01c2 2080     		strh	r0, [r4]
 1819 01c4 000C     		lsrs	r0, r0, #16
 1820 01c6 6080     		strh	r0, [r4, #2]
 1821 01c8 0FE0     		b	.L53
 1822              	.LVL192:
 1823              	.L68:
 510:..\..\..\arduinoLCD\test\Pain Drain\libraries\lvgl\src\widgets/lv_img.c ****             p->y = img->h;
 1824              		.loc 1 510 0
 1825 01ca 2C22     		movs	r2, #44
 1826 01cc B35E     		ldrsh	r3, [r6, r2]
 1827 01ce 0380     		strh	r3, [r0]
 511:..\..\..\arduinoLCD\test\Pain Drain\libraries\lvgl\src\widgets/lv_img.c ****         }
 1828              		.loc 1 511 0
 1829 01d0 2E22     		movs	r2, #46
 1830 01d2 B35E     		ldrsh	r3, [r6, r2]
 1831 01d4 4380     		strh	r3, [r0, #2]
 1832 01d6 08E0     		b	.L53
 1833              	.LVL193:
 1834              	.L67:
 1835              	.LBE92:
 514:..\..\..\arduinoLCD\test\Pain Drain\libraries\lvgl\src\widgets/lv_img.c ****         draw_img(e);
 1836              		.loc 1 514 0
 1837 01d8 152C     		cmp	r4, #21
 1838 01da 03D0     		beq	.L69
 514:..\..\..\arduinoLCD\test\Pain Drain\libraries\lvgl\src\widgets/lv_img.c ****         draw_img(e);
 1839              		.loc 1 514 0 is_stmt 0 discriminator 1
 1840 01dc 182C     		cmp	r4, #24
 1841 01de 01D0     		beq	.L69
 514:..\..\..\arduinoLCD\test\Pain Drain\libraries\lvgl\src\widgets/lv_img.c ****         draw_img(e);
 1842              		.loc 1 514 0 discriminator 2
 1843 01e0 122C     		cmp	r4, #18
 1844 01e2 02D1     		bne	.L53
 1845              	.L69:
 515:..\..\..\arduinoLCD\test\Pain Drain\libraries\lvgl\src\widgets/lv_img.c ****     }
 1846              		.loc 1 515 0 is_stmt 1
 1847 01e4 2800     		movs	r0, r5
 1848              	.LVL194:
 1849 01e6 FFF7FEFF 		bl	draw_img
 1850              	.LVL195:
 1851              	.L53:
 517:..\..\..\arduinoLCD\test\Pain Drain\libraries\lvgl\src\widgets/lv_img.c **** 
 1852              		.loc 1 517 0
 1853 01ea 07B0     		add	sp, sp, #28
 1854              		@ sp needed
 1855 01ec F0BD     		pop	{r4, r5, r6, r7, pc}
ARM GAS  C:\Users\haske\AppData\Local\Temp\ccGWO5DZ.s 			page 59


 1856              	.L71:
 1857 01ee C046     		.align	2
 1858              	.L70:
 1859 01f0 00000000 		.word	.LANCHOR0
 1860              		.cfi_endproc
 1861              	.LFE185:
 1862              		.size	lv_img_event, .-lv_img_event
 1863              		.section	.text.lv_img_set_offset_x,"ax",%progbits
 1864              		.align	2
 1865              		.global	lv_img_set_offset_x
 1866              		.code	16
 1867              		.thumb_func
 1868              		.type	lv_img_set_offset_x, %function
 1869              	lv_img_set_offset_x:
 1870              	.LFB167:
 164:..\..\..\arduinoLCD\test\Pain Drain\libraries\lvgl\src\widgets/lv_img.c ****     LV_ASSERT_OBJ(obj, MY_CLASS);
 1871              		.loc 1 164 0
 1872              		.cfi_startproc
 1873              		@ args = 0, pretend = 0, frame = 0
 1874              		@ frame_needed = 0, uses_anonymous_args = 0
 1875              	.LVL196:
 1876 0000 10B5     		push	{r4, lr}
 1877              		.cfi_def_cfa_offset 8
 1878              		.cfi_offset 4, -8
 1879              		.cfi_offset 14, -4
 1880              	.LVL197:
 169:..\..\..\arduinoLCD\test\Pain Drain\libraries\lvgl\src\widgets/lv_img.c ****     lv_obj_invalidate(obj);
 1881              		.loc 1 169 0
 1882 0002 0185     		strh	r1, [r0, #40]
 170:..\..\..\arduinoLCD\test\Pain Drain\libraries\lvgl\src\widgets/lv_img.c **** }
 1883              		.loc 1 170 0
 1884 0004 FFF7FEFF 		bl	lv_obj_invalidate
 1885              	.LVL198:
 171:..\..\..\arduinoLCD\test\Pain Drain\libraries\lvgl\src\widgets/lv_img.c **** 
 1886              		.loc 1 171 0
 1887              		@ sp needed
 1888 0008 10BD     		pop	{r4, pc}
 1889              		.cfi_endproc
 1890              	.LFE167:
 1891              		.size	lv_img_set_offset_x, .-lv_img_set_offset_x
 1892 000a C046     		.section	.text.lv_img_set_offset_y,"ax",%progbits
 1893              		.align	2
 1894              		.global	lv_img_set_offset_y
 1895              		.code	16
 1896              		.thumb_func
 1897              		.type	lv_img_set_offset_y, %function
 1898              	lv_img_set_offset_y:
 1899              	.LFB168:
 174:..\..\..\arduinoLCD\test\Pain Drain\libraries\lvgl\src\widgets/lv_img.c ****     LV_ASSERT_OBJ(obj, MY_CLASS);
 1900              		.loc 1 174 0
 1901              		.cfi_startproc
 1902              		@ args = 0, pretend = 0, frame = 0
 1903              		@ frame_needed = 0, uses_anonymous_args = 0
 1904              	.LVL199:
 1905 0000 10B5     		push	{r4, lr}
 1906              		.cfi_def_cfa_offset 8
 1907              		.cfi_offset 4, -8
ARM GAS  C:\Users\haske\AppData\Local\Temp\ccGWO5DZ.s 			page 60


 1908              		.cfi_offset 14, -4
 1909              	.LVL200:
 179:..\..\..\arduinoLCD\test\Pain Drain\libraries\lvgl\src\widgets/lv_img.c ****     lv_obj_invalidate(obj);
 1910              		.loc 1 179 0
 1911 0002 4185     		strh	r1, [r0, #42]
 180:..\..\..\arduinoLCD\test\Pain Drain\libraries\lvgl\src\widgets/lv_img.c **** }
 1912              		.loc 1 180 0
 1913 0004 FFF7FEFF 		bl	lv_obj_invalidate
 1914              	.LVL201:
 181:..\..\..\arduinoLCD\test\Pain Drain\libraries\lvgl\src\widgets/lv_img.c **** 
 1915              		.loc 1 181 0
 1916              		@ sp needed
 1917 0008 10BD     		pop	{r4, pc}
 1918              		.cfi_endproc
 1919              	.LFE168:
 1920              		.size	lv_img_set_offset_y, .-lv_img_set_offset_y
 1921 000a C046     		.section	.text.lv_img_set_angle,"ax",%progbits
 1922              		.align	2
 1923              		.global	lv_img_set_angle
 1924              		.code	16
 1925              		.thumb_func
 1926              		.type	lv_img_set_angle, %function
 1927              	lv_img_set_angle:
 1928              	.LFB169:
 184:..\..\..\arduinoLCD\test\Pain Drain\libraries\lvgl\src\widgets/lv_img.c ****     while(angle >= 3600) angle -= 3600;
 1929              		.loc 1 184 0
 1930              		.cfi_startproc
 1931              		@ args = 0, pretend = 0, frame = 16
 1932              		@ frame_needed = 0, uses_anonymous_args = 0
 1933              	.LVL202:
 1934 0000 F0B5     		push	{r4, r5, r6, r7, lr}
 1935              		.cfi_def_cfa_offset 20
 1936              		.cfi_offset 4, -20
 1937              		.cfi_offset 5, -16
 1938              		.cfi_offset 6, -12
 1939              		.cfi_offset 7, -8
 1940              		.cfi_offset 14, -4
 1941 0002 87B0     		sub	sp, sp, #28
 1942              		.cfi_def_cfa_offset 48
 1943 0004 0600     		movs	r6, r0
 1944 0006 0C00     		movs	r4, r1
 185:..\..\..\arduinoLCD\test\Pain Drain\libraries\lvgl\src\widgets/lv_img.c ****     while(angle < 0) angle += 3600;
 1945              		.loc 1 185 0
 1946 0008 03E0     		b	.L75
 1947              	.LVL203:
 1948              	.L76:
 185:..\..\..\arduinoLCD\test\Pain Drain\libraries\lvgl\src\widgets/lv_img.c ****     while(angle < 0) angle += 3600;
 1949              		.loc 1 185 0 is_stmt 0 discriminator 2
 1950 000a 354B     		ldr	r3, .L81
 1951 000c 9C46     		mov	ip, r3
