ARM GAS  C:\Users\haske\AppData\Local\Temp\ccc4gGVR.s 			page 1


   1              		.syntax unified
   2              		.cpu cortex-m0plus
   3              		.fpu softvfp
   4              		.eabi_attribute 20, 1
   5              		.eabi_attribute 21, 1
   6              		.eabi_attribute 23, 3
   7              		.eabi_attribute 24, 1
   8              		.eabi_attribute 25, 1
   9              		.eabi_attribute 26, 1
  10              		.eabi_attribute 30, 1
  11              		.eabi_attribute 34, 0
  12              		.eabi_attribute 18, 4
  13              		.thumb
  14              		.syntax unified
  15              		.file	"lv_imgbtn.c"
  16              		.text
  17              	.Ltext0:
  18              		.cfi_sections	.debug_frame
  19              		.section	.text.suggest_state,"ax",%progbits
  20              		.align	2
  21              		.code	16
  22              		.thumb_func
  23              		.type	suggest_state, %function
  24              	suggest_state:
  25              	.LFB212:
  26              		.file 1 "..\\..\\..\\arduinoLCD\\test\\Pain Drain\\libraries\\lvgl\\src\\extra\\widgets\\imgbtn\\l
   1:..\..\..\arduinoLCD\test\Pain Drain\libraries\lvgl\src\extra\widgets\imgbtn/lv_imgbtn.c **** /**
   2:..\..\..\arduinoLCD\test\Pain Drain\libraries\lvgl\src\extra\widgets\imgbtn/lv_imgbtn.c ****  * @file lv_imgbtn.c
   3:..\..\..\arduinoLCD\test\Pain Drain\libraries\lvgl\src\extra\widgets\imgbtn/lv_imgbtn.c ****  *
   4:..\..\..\arduinoLCD\test\Pain Drain\libraries\lvgl\src\extra\widgets\imgbtn/lv_imgbtn.c ****  */
   5:..\..\..\arduinoLCD\test\Pain Drain\libraries\lvgl\src\extra\widgets\imgbtn/lv_imgbtn.c **** 
   6:..\..\..\arduinoLCD\test\Pain Drain\libraries\lvgl\src\extra\widgets\imgbtn/lv_imgbtn.c **** /*********************
   7:..\..\..\arduinoLCD\test\Pain Drain\libraries\lvgl\src\extra\widgets\imgbtn/lv_imgbtn.c ****  *      INCLUDES
   8:..\..\..\arduinoLCD\test\Pain Drain\libraries\lvgl\src\extra\widgets\imgbtn/lv_imgbtn.c ****  *********************/
   9:..\..\..\arduinoLCD\test\Pain Drain\libraries\lvgl\src\extra\widgets\imgbtn/lv_imgbtn.c **** 
  10:..\..\..\arduinoLCD\test\Pain Drain\libraries\lvgl\src\extra\widgets\imgbtn/lv_imgbtn.c **** #include "lv_imgbtn.h"
  11:..\..\..\arduinoLCD\test\Pain Drain\libraries\lvgl\src\extra\widgets\imgbtn/lv_imgbtn.c **** 
  12:..\..\..\arduinoLCD\test\Pain Drain\libraries\lvgl\src\extra\widgets\imgbtn/lv_imgbtn.c **** #if LV_USE_IMGBTN != 0
  13:..\..\..\arduinoLCD\test\Pain Drain\libraries\lvgl\src\extra\widgets\imgbtn/lv_imgbtn.c **** 
  14:..\..\..\arduinoLCD\test\Pain Drain\libraries\lvgl\src\extra\widgets\imgbtn/lv_imgbtn.c **** /*********************
  15:..\..\..\arduinoLCD\test\Pain Drain\libraries\lvgl\src\extra\widgets\imgbtn/lv_imgbtn.c ****  *      DEFINES
  16:..\..\..\arduinoLCD\test\Pain Drain\libraries\lvgl\src\extra\widgets\imgbtn/lv_imgbtn.c ****  *********************/
  17:..\..\..\arduinoLCD\test\Pain Drain\libraries\lvgl\src\extra\widgets\imgbtn/lv_imgbtn.c **** #define MY_CLASS &lv_imgbtn_class
  18:..\..\..\arduinoLCD\test\Pain Drain\libraries\lvgl\src\extra\widgets\imgbtn/lv_imgbtn.c **** 
  19:..\..\..\arduinoLCD\test\Pain Drain\libraries\lvgl\src\extra\widgets\imgbtn/lv_imgbtn.c **** /**********************
  20:..\..\..\arduinoLCD\test\Pain Drain\libraries\lvgl\src\extra\widgets\imgbtn/lv_imgbtn.c ****  *      TYPEDEFS
  21:..\..\..\arduinoLCD\test\Pain Drain\libraries\lvgl\src\extra\widgets\imgbtn/lv_imgbtn.c ****  **********************/
  22:..\..\..\arduinoLCD\test\Pain Drain\libraries\lvgl\src\extra\widgets\imgbtn/lv_imgbtn.c **** 
  23:..\..\..\arduinoLCD\test\Pain Drain\libraries\lvgl\src\extra\widgets\imgbtn/lv_imgbtn.c **** /**********************
  24:..\..\..\arduinoLCD\test\Pain Drain\libraries\lvgl\src\extra\widgets\imgbtn/lv_imgbtn.c ****  *  STATIC PROTOTYPES
  25:..\..\..\arduinoLCD\test\Pain Drain\libraries\lvgl\src\extra\widgets\imgbtn/lv_imgbtn.c ****  **********************/
  26:..\..\..\arduinoLCD\test\Pain Drain\libraries\lvgl\src\extra\widgets\imgbtn/lv_imgbtn.c **** static void lv_imgbtn_constructor(const lv_obj_class_t * class_p, lv_obj_t * obj);
  27:..\..\..\arduinoLCD\test\Pain Drain\libraries\lvgl\src\extra\widgets\imgbtn/lv_imgbtn.c **** static void draw_main(lv_event_t * e);
  28:..\..\..\arduinoLCD\test\Pain Drain\libraries\lvgl\src\extra\widgets\imgbtn/lv_imgbtn.c **** static void lv_imgbtn_event(const lv_obj_class_t * class_p, lv_event_t * e);
  29:..\..\..\arduinoLCD\test\Pain Drain\libraries\lvgl\src\extra\widgets\imgbtn/lv_imgbtn.c **** static void refr_img(lv_obj_t * imgbtn);
  30:..\..\..\arduinoLCD\test\Pain Drain\libraries\lvgl\src\extra\widgets\imgbtn/lv_imgbtn.c **** static lv_imgbtn_state_t suggest_state(lv_obj_t * imgbtn, lv_imgbtn_state_t state);
  31:..\..\..\arduinoLCD\test\Pain Drain\libraries\lvgl\src\extra\widgets\imgbtn/lv_imgbtn.c **** lv_imgbtn_state_t get_state(const lv_obj_t * imgbtn);
ARM GAS  C:\Users\haske\AppData\Local\Temp\ccc4gGVR.s 			page 2


  32:..\..\..\arduinoLCD\test\Pain Drain\libraries\lvgl\src\extra\widgets\imgbtn/lv_imgbtn.c **** 
  33:..\..\..\arduinoLCD\test\Pain Drain\libraries\lvgl\src\extra\widgets\imgbtn/lv_imgbtn.c **** /**********************
  34:..\..\..\arduinoLCD\test\Pain Drain\libraries\lvgl\src\extra\widgets\imgbtn/lv_imgbtn.c ****  *  STATIC VARIABLES
  35:..\..\..\arduinoLCD\test\Pain Drain\libraries\lvgl\src\extra\widgets\imgbtn/lv_imgbtn.c ****  **********************/
  36:..\..\..\arduinoLCD\test\Pain Drain\libraries\lvgl\src\extra\widgets\imgbtn/lv_imgbtn.c **** const lv_obj_class_t lv_imgbtn_class = {
  37:..\..\..\arduinoLCD\test\Pain Drain\libraries\lvgl\src\extra\widgets\imgbtn/lv_imgbtn.c ****     .base_class = &lv_obj_class,
  38:..\..\..\arduinoLCD\test\Pain Drain\libraries\lvgl\src\extra\widgets\imgbtn/lv_imgbtn.c ****     .instance_size = sizeof(lv_imgbtn_t),
  39:..\..\..\arduinoLCD\test\Pain Drain\libraries\lvgl\src\extra\widgets\imgbtn/lv_imgbtn.c ****     .constructor_cb = lv_imgbtn_constructor,
  40:..\..\..\arduinoLCD\test\Pain Drain\libraries\lvgl\src\extra\widgets\imgbtn/lv_imgbtn.c ****     .event_cb = lv_imgbtn_event,
  41:..\..\..\arduinoLCD\test\Pain Drain\libraries\lvgl\src\extra\widgets\imgbtn/lv_imgbtn.c **** };
  42:..\..\..\arduinoLCD\test\Pain Drain\libraries\lvgl\src\extra\widgets\imgbtn/lv_imgbtn.c **** 
  43:..\..\..\arduinoLCD\test\Pain Drain\libraries\lvgl\src\extra\widgets\imgbtn/lv_imgbtn.c **** /**********************
  44:..\..\..\arduinoLCD\test\Pain Drain\libraries\lvgl\src\extra\widgets\imgbtn/lv_imgbtn.c ****  *      MACROS
  45:..\..\..\arduinoLCD\test\Pain Drain\libraries\lvgl\src\extra\widgets\imgbtn/lv_imgbtn.c ****  **********************/
  46:..\..\..\arduinoLCD\test\Pain Drain\libraries\lvgl\src\extra\widgets\imgbtn/lv_imgbtn.c **** 
  47:..\..\..\arduinoLCD\test\Pain Drain\libraries\lvgl\src\extra\widgets\imgbtn/lv_imgbtn.c **** /**********************
  48:..\..\..\arduinoLCD\test\Pain Drain\libraries\lvgl\src\extra\widgets\imgbtn/lv_imgbtn.c ****  *   GLOBAL FUNCTIONS
  49:..\..\..\arduinoLCD\test\Pain Drain\libraries\lvgl\src\extra\widgets\imgbtn/lv_imgbtn.c ****  **********************/
  50:..\..\..\arduinoLCD\test\Pain Drain\libraries\lvgl\src\extra\widgets\imgbtn/lv_imgbtn.c **** 
  51:..\..\..\arduinoLCD\test\Pain Drain\libraries\lvgl\src\extra\widgets\imgbtn/lv_imgbtn.c **** /**
  52:..\..\..\arduinoLCD\test\Pain Drain\libraries\lvgl\src\extra\widgets\imgbtn/lv_imgbtn.c ****  * Create an image button object
  53:..\..\..\arduinoLCD\test\Pain Drain\libraries\lvgl\src\extra\widgets\imgbtn/lv_imgbtn.c ****  * @param parent pointer to an object, it will be the parent of the new image button
  54:..\..\..\arduinoLCD\test\Pain Drain\libraries\lvgl\src\extra\widgets\imgbtn/lv_imgbtn.c ****  * @return pointer to the created image button
  55:..\..\..\arduinoLCD\test\Pain Drain\libraries\lvgl\src\extra\widgets\imgbtn/lv_imgbtn.c ****  */
  56:..\..\..\arduinoLCD\test\Pain Drain\libraries\lvgl\src\extra\widgets\imgbtn/lv_imgbtn.c **** lv_obj_t * lv_imgbtn_create(lv_obj_t * parent)
  57:..\..\..\arduinoLCD\test\Pain Drain\libraries\lvgl\src\extra\widgets\imgbtn/lv_imgbtn.c **** {
  58:..\..\..\arduinoLCD\test\Pain Drain\libraries\lvgl\src\extra\widgets\imgbtn/lv_imgbtn.c ****     LV_LOG_INFO("begin");
  59:..\..\..\arduinoLCD\test\Pain Drain\libraries\lvgl\src\extra\widgets\imgbtn/lv_imgbtn.c ****     lv_obj_t * obj = lv_obj_class_create_obj(MY_CLASS, parent);
  60:..\..\..\arduinoLCD\test\Pain Drain\libraries\lvgl\src\extra\widgets\imgbtn/lv_imgbtn.c ****     lv_obj_class_init_obj(obj);
  61:..\..\..\arduinoLCD\test\Pain Drain\libraries\lvgl\src\extra\widgets\imgbtn/lv_imgbtn.c ****     return obj;
  62:..\..\..\arduinoLCD\test\Pain Drain\libraries\lvgl\src\extra\widgets\imgbtn/lv_imgbtn.c **** }
  63:..\..\..\arduinoLCD\test\Pain Drain\libraries\lvgl\src\extra\widgets\imgbtn/lv_imgbtn.c **** 
  64:..\..\..\arduinoLCD\test\Pain Drain\libraries\lvgl\src\extra\widgets\imgbtn/lv_imgbtn.c **** /*=====================
  65:..\..\..\arduinoLCD\test\Pain Drain\libraries\lvgl\src\extra\widgets\imgbtn/lv_imgbtn.c ****  * Setter functions
  66:..\..\..\arduinoLCD\test\Pain Drain\libraries\lvgl\src\extra\widgets\imgbtn/lv_imgbtn.c ****  *====================*/
  67:..\..\..\arduinoLCD\test\Pain Drain\libraries\lvgl\src\extra\widgets\imgbtn/lv_imgbtn.c **** 
  68:..\..\..\arduinoLCD\test\Pain Drain\libraries\lvgl\src\extra\widgets\imgbtn/lv_imgbtn.c **** /**
  69:..\..\..\arduinoLCD\test\Pain Drain\libraries\lvgl\src\extra\widgets\imgbtn/lv_imgbtn.c ****  * Set images for a state of the image button
  70:..\..\..\arduinoLCD\test\Pain Drain\libraries\lvgl\src\extra\widgets\imgbtn/lv_imgbtn.c ****  * @param obj pointer to an image button object
  71:..\..\..\arduinoLCD\test\Pain Drain\libraries\lvgl\src\extra\widgets\imgbtn/lv_imgbtn.c ****  * @param state for which state set the new image
  72:..\..\..\arduinoLCD\test\Pain Drain\libraries\lvgl\src\extra\widgets\imgbtn/lv_imgbtn.c ****  * @param src_left pointer to an image source for the left side of the button (a C array or path to
  73:..\..\..\arduinoLCD\test\Pain Drain\libraries\lvgl\src\extra\widgets\imgbtn/lv_imgbtn.c ****  * a file)
  74:..\..\..\arduinoLCD\test\Pain Drain\libraries\lvgl\src\extra\widgets\imgbtn/lv_imgbtn.c ****  * @param src_mid pointer to an image source for the middle of the button (ideally 1px wide) (a C
  75:..\..\..\arduinoLCD\test\Pain Drain\libraries\lvgl\src\extra\widgets\imgbtn/lv_imgbtn.c ****  * array or path to a file)
  76:..\..\..\arduinoLCD\test\Pain Drain\libraries\lvgl\src\extra\widgets\imgbtn/lv_imgbtn.c ****  * @param src_right pointer to an image source for the right side of the button (a C array or path
  77:..\..\..\arduinoLCD\test\Pain Drain\libraries\lvgl\src\extra\widgets\imgbtn/lv_imgbtn.c ****  * to a file)
  78:..\..\..\arduinoLCD\test\Pain Drain\libraries\lvgl\src\extra\widgets\imgbtn/lv_imgbtn.c ****  */
  79:..\..\..\arduinoLCD\test\Pain Drain\libraries\lvgl\src\extra\widgets\imgbtn/lv_imgbtn.c **** void lv_imgbtn_set_src(lv_obj_t * obj, lv_imgbtn_state_t state, const void * src_left, const void *
  80:..\..\..\arduinoLCD\test\Pain Drain\libraries\lvgl\src\extra\widgets\imgbtn/lv_imgbtn.c ****                        const void * src_right)
  81:..\..\..\arduinoLCD\test\Pain Drain\libraries\lvgl\src\extra\widgets\imgbtn/lv_imgbtn.c **** {
  82:..\..\..\arduinoLCD\test\Pain Drain\libraries\lvgl\src\extra\widgets\imgbtn/lv_imgbtn.c ****     LV_ASSERT_OBJ(obj, MY_CLASS);
  83:..\..\..\arduinoLCD\test\Pain Drain\libraries\lvgl\src\extra\widgets\imgbtn/lv_imgbtn.c **** 
  84:..\..\..\arduinoLCD\test\Pain Drain\libraries\lvgl\src\extra\widgets\imgbtn/lv_imgbtn.c ****     lv_imgbtn_t * imgbtn = (lv_imgbtn_t *)obj;
  85:..\..\..\arduinoLCD\test\Pain Drain\libraries\lvgl\src\extra\widgets\imgbtn/lv_imgbtn.c **** 
  86:..\..\..\arduinoLCD\test\Pain Drain\libraries\lvgl\src\extra\widgets\imgbtn/lv_imgbtn.c ****     imgbtn->img_src_left[state] = src_left;
  87:..\..\..\arduinoLCD\test\Pain Drain\libraries\lvgl\src\extra\widgets\imgbtn/lv_imgbtn.c ****     imgbtn->img_src_mid[state] = src_mid;
  88:..\..\..\arduinoLCD\test\Pain Drain\libraries\lvgl\src\extra\widgets\imgbtn/lv_imgbtn.c ****     imgbtn->img_src_right[state] = src_right;
ARM GAS  C:\Users\haske\AppData\Local\Temp\ccc4gGVR.s 			page 3


  89:..\..\..\arduinoLCD\test\Pain Drain\libraries\lvgl\src\extra\widgets\imgbtn/lv_imgbtn.c **** 
  90:..\..\..\arduinoLCD\test\Pain Drain\libraries\lvgl\src\extra\widgets\imgbtn/lv_imgbtn.c ****     refr_img(obj);
  91:..\..\..\arduinoLCD\test\Pain Drain\libraries\lvgl\src\extra\widgets\imgbtn/lv_imgbtn.c **** }
  92:..\..\..\arduinoLCD\test\Pain Drain\libraries\lvgl\src\extra\widgets\imgbtn/lv_imgbtn.c **** 
  93:..\..\..\arduinoLCD\test\Pain Drain\libraries\lvgl\src\extra\widgets\imgbtn/lv_imgbtn.c **** void lv_imgbtn_set_state(lv_obj_t * obj, lv_imgbtn_state_t state)
  94:..\..\..\arduinoLCD\test\Pain Drain\libraries\lvgl\src\extra\widgets\imgbtn/lv_imgbtn.c **** {
  95:..\..\..\arduinoLCD\test\Pain Drain\libraries\lvgl\src\extra\widgets\imgbtn/lv_imgbtn.c ****     LV_ASSERT_OBJ(obj, MY_CLASS);
  96:..\..\..\arduinoLCD\test\Pain Drain\libraries\lvgl\src\extra\widgets\imgbtn/lv_imgbtn.c **** 
  97:..\..\..\arduinoLCD\test\Pain Drain\libraries\lvgl\src\extra\widgets\imgbtn/lv_imgbtn.c ****     lv_state_t obj_state = LV_STATE_DEFAULT;
  98:..\..\..\arduinoLCD\test\Pain Drain\libraries\lvgl\src\extra\widgets\imgbtn/lv_imgbtn.c ****     if(state == LV_IMGBTN_STATE_PRESSED || state == LV_IMGBTN_STATE_CHECKED_PRESSED) obj_state |= L
  99:..\..\..\arduinoLCD\test\Pain Drain\libraries\lvgl\src\extra\widgets\imgbtn/lv_imgbtn.c ****     if(state == LV_IMGBTN_STATE_DISABLED || state == LV_IMGBTN_STATE_CHECKED_DISABLED) obj_state |=
 100:..\..\..\arduinoLCD\test\Pain Drain\libraries\lvgl\src\extra\widgets\imgbtn/lv_imgbtn.c ****     if(state == LV_IMGBTN_STATE_CHECKED_DISABLED || state == LV_IMGBTN_STATE_CHECKED_PRESSED ||
 101:..\..\..\arduinoLCD\test\Pain Drain\libraries\lvgl\src\extra\widgets\imgbtn/lv_imgbtn.c ****        state == LV_IMGBTN_STATE_CHECKED_RELEASED) {
 102:..\..\..\arduinoLCD\test\Pain Drain\libraries\lvgl\src\extra\widgets\imgbtn/lv_imgbtn.c ****         obj_state |= LV_STATE_CHECKED;
 103:..\..\..\arduinoLCD\test\Pain Drain\libraries\lvgl\src\extra\widgets\imgbtn/lv_imgbtn.c ****     }
 104:..\..\..\arduinoLCD\test\Pain Drain\libraries\lvgl\src\extra\widgets\imgbtn/lv_imgbtn.c **** 
 105:..\..\..\arduinoLCD\test\Pain Drain\libraries\lvgl\src\extra\widgets\imgbtn/lv_imgbtn.c ****     lv_obj_clear_state(obj, LV_STATE_CHECKED | LV_STATE_PRESSED | LV_STATE_DISABLED);
 106:..\..\..\arduinoLCD\test\Pain Drain\libraries\lvgl\src\extra\widgets\imgbtn/lv_imgbtn.c ****     lv_obj_add_state(obj, obj_state);
 107:..\..\..\arduinoLCD\test\Pain Drain\libraries\lvgl\src\extra\widgets\imgbtn/lv_imgbtn.c **** 
 108:..\..\..\arduinoLCD\test\Pain Drain\libraries\lvgl\src\extra\widgets\imgbtn/lv_imgbtn.c ****     refr_img(obj);
 109:..\..\..\arduinoLCD\test\Pain Drain\libraries\lvgl\src\extra\widgets\imgbtn/lv_imgbtn.c **** }
 110:..\..\..\arduinoLCD\test\Pain Drain\libraries\lvgl\src\extra\widgets\imgbtn/lv_imgbtn.c **** 
 111:..\..\..\arduinoLCD\test\Pain Drain\libraries\lvgl\src\extra\widgets\imgbtn/lv_imgbtn.c **** /*=====================
 112:..\..\..\arduinoLCD\test\Pain Drain\libraries\lvgl\src\extra\widgets\imgbtn/lv_imgbtn.c ****  * Getter functions
 113:..\..\..\arduinoLCD\test\Pain Drain\libraries\lvgl\src\extra\widgets\imgbtn/lv_imgbtn.c ****  *====================*/
 114:..\..\..\arduinoLCD\test\Pain Drain\libraries\lvgl\src\extra\widgets\imgbtn/lv_imgbtn.c **** 
 115:..\..\..\arduinoLCD\test\Pain Drain\libraries\lvgl\src\extra\widgets\imgbtn/lv_imgbtn.c **** 
 116:..\..\..\arduinoLCD\test\Pain Drain\libraries\lvgl\src\extra\widgets\imgbtn/lv_imgbtn.c **** /**
 117:..\..\..\arduinoLCD\test\Pain Drain\libraries\lvgl\src\extra\widgets\imgbtn/lv_imgbtn.c ****  * Get the left image in a given state
 118:..\..\..\arduinoLCD\test\Pain Drain\libraries\lvgl\src\extra\widgets\imgbtn/lv_imgbtn.c ****  * @param obj pointer to an image button object
 119:..\..\..\arduinoLCD\test\Pain Drain\libraries\lvgl\src\extra\widgets\imgbtn/lv_imgbtn.c ****  * @param state the state where to get the image (from `lv_btn_state_t`) `
 120:..\..\..\arduinoLCD\test\Pain Drain\libraries\lvgl\src\extra\widgets\imgbtn/lv_imgbtn.c ****  * @return pointer to the left image source (a C array or path to a file)
 121:..\..\..\arduinoLCD\test\Pain Drain\libraries\lvgl\src\extra\widgets\imgbtn/lv_imgbtn.c ****  */
 122:..\..\..\arduinoLCD\test\Pain Drain\libraries\lvgl\src\extra\widgets\imgbtn/lv_imgbtn.c **** const void * lv_imgbtn_get_src_left(lv_obj_t * obj, lv_imgbtn_state_t state)
 123:..\..\..\arduinoLCD\test\Pain Drain\libraries\lvgl\src\extra\widgets\imgbtn/lv_imgbtn.c **** {
 124:..\..\..\arduinoLCD\test\Pain Drain\libraries\lvgl\src\extra\widgets\imgbtn/lv_imgbtn.c ****     LV_ASSERT_OBJ(obj, MY_CLASS);
 125:..\..\..\arduinoLCD\test\Pain Drain\libraries\lvgl\src\extra\widgets\imgbtn/lv_imgbtn.c **** 
 126:..\..\..\arduinoLCD\test\Pain Drain\libraries\lvgl\src\extra\widgets\imgbtn/lv_imgbtn.c ****     lv_imgbtn_t * imgbtn = (lv_imgbtn_t *)obj;
 127:..\..\..\arduinoLCD\test\Pain Drain\libraries\lvgl\src\extra\widgets\imgbtn/lv_imgbtn.c **** 
 128:..\..\..\arduinoLCD\test\Pain Drain\libraries\lvgl\src\extra\widgets\imgbtn/lv_imgbtn.c ****     return imgbtn->img_src_left[state];
 129:..\..\..\arduinoLCD\test\Pain Drain\libraries\lvgl\src\extra\widgets\imgbtn/lv_imgbtn.c **** }
 130:..\..\..\arduinoLCD\test\Pain Drain\libraries\lvgl\src\extra\widgets\imgbtn/lv_imgbtn.c **** 
 131:..\..\..\arduinoLCD\test\Pain Drain\libraries\lvgl\src\extra\widgets\imgbtn/lv_imgbtn.c **** /**
 132:..\..\..\arduinoLCD\test\Pain Drain\libraries\lvgl\src\extra\widgets\imgbtn/lv_imgbtn.c ****  * Get the middle image in a given state
 133:..\..\..\arduinoLCD\test\Pain Drain\libraries\lvgl\src\extra\widgets\imgbtn/lv_imgbtn.c ****  * @param obj pointer to an image button object
 134:..\..\..\arduinoLCD\test\Pain Drain\libraries\lvgl\src\extra\widgets\imgbtn/lv_imgbtn.c ****  * @param state the state where to get the image (from `lv_btn_state_t`) `
 135:..\..\..\arduinoLCD\test\Pain Drain\libraries\lvgl\src\extra\widgets\imgbtn/lv_imgbtn.c ****  * @return pointer to the middle image source (a C array or path to a file)
 136:..\..\..\arduinoLCD\test\Pain Drain\libraries\lvgl\src\extra\widgets\imgbtn/lv_imgbtn.c ****  */
 137:..\..\..\arduinoLCD\test\Pain Drain\libraries\lvgl\src\extra\widgets\imgbtn/lv_imgbtn.c **** const void * lv_imgbtn_get_src_middle(lv_obj_t * obj, lv_imgbtn_state_t state)
 138:..\..\..\arduinoLCD\test\Pain Drain\libraries\lvgl\src\extra\widgets\imgbtn/lv_imgbtn.c **** {
 139:..\..\..\arduinoLCD\test\Pain Drain\libraries\lvgl\src\extra\widgets\imgbtn/lv_imgbtn.c ****     LV_ASSERT_OBJ(obj, MY_CLASS);
 140:..\..\..\arduinoLCD\test\Pain Drain\libraries\lvgl\src\extra\widgets\imgbtn/lv_imgbtn.c ****     lv_imgbtn_t * imgbtn = (lv_imgbtn_t *)obj;
 141:..\..\..\arduinoLCD\test\Pain Drain\libraries\lvgl\src\extra\widgets\imgbtn/lv_imgbtn.c **** 
 142:..\..\..\arduinoLCD\test\Pain Drain\libraries\lvgl\src\extra\widgets\imgbtn/lv_imgbtn.c ****     return imgbtn->img_src_mid[state];
 143:..\..\..\arduinoLCD\test\Pain Drain\libraries\lvgl\src\extra\widgets\imgbtn/lv_imgbtn.c **** }
 144:..\..\..\arduinoLCD\test\Pain Drain\libraries\lvgl\src\extra\widgets\imgbtn/lv_imgbtn.c **** 
 145:..\..\..\arduinoLCD\test\Pain Drain\libraries\lvgl\src\extra\widgets\imgbtn/lv_imgbtn.c **** /**
ARM GAS  C:\Users\haske\AppData\Local\Temp\ccc4gGVR.s 			page 4


 146:..\..\..\arduinoLCD\test\Pain Drain\libraries\lvgl\src\extra\widgets\imgbtn/lv_imgbtn.c ****  * Get the right image in a given state
 147:..\..\..\arduinoLCD\test\Pain Drain\libraries\lvgl\src\extra\widgets\imgbtn/lv_imgbtn.c ****  * @param obj pointer to an image button object
 148:..\..\..\arduinoLCD\test\Pain Drain\libraries\lvgl\src\extra\widgets\imgbtn/lv_imgbtn.c ****  * @param state the state where to get the image (from `lv_btn_state_t`) `
 149:..\..\..\arduinoLCD\test\Pain Drain\libraries\lvgl\src\extra\widgets\imgbtn/lv_imgbtn.c ****  * @return pointer to the left image source (a C array or path to a file)
 150:..\..\..\arduinoLCD\test\Pain Drain\libraries\lvgl\src\extra\widgets\imgbtn/lv_imgbtn.c ****  */
 151:..\..\..\arduinoLCD\test\Pain Drain\libraries\lvgl\src\extra\widgets\imgbtn/lv_imgbtn.c **** const void * lv_imgbtn_get_src_right(lv_obj_t * obj, lv_imgbtn_state_t state)
 152:..\..\..\arduinoLCD\test\Pain Drain\libraries\lvgl\src\extra\widgets\imgbtn/lv_imgbtn.c **** {
 153:..\..\..\arduinoLCD\test\Pain Drain\libraries\lvgl\src\extra\widgets\imgbtn/lv_imgbtn.c ****     LV_ASSERT_OBJ(obj, MY_CLASS);
 154:..\..\..\arduinoLCD\test\Pain Drain\libraries\lvgl\src\extra\widgets\imgbtn/lv_imgbtn.c ****     lv_imgbtn_t * imgbtn = (lv_imgbtn_t *)obj;
 155:..\..\..\arduinoLCD\test\Pain Drain\libraries\lvgl\src\extra\widgets\imgbtn/lv_imgbtn.c **** 
 156:..\..\..\arduinoLCD\test\Pain Drain\libraries\lvgl\src\extra\widgets\imgbtn/lv_imgbtn.c ****     return imgbtn->img_src_right[state];
 157:..\..\..\arduinoLCD\test\Pain Drain\libraries\lvgl\src\extra\widgets\imgbtn/lv_imgbtn.c **** }
 158:..\..\..\arduinoLCD\test\Pain Drain\libraries\lvgl\src\extra\widgets\imgbtn/lv_imgbtn.c **** 
 159:..\..\..\arduinoLCD\test\Pain Drain\libraries\lvgl\src\extra\widgets\imgbtn/lv_imgbtn.c **** 
 160:..\..\..\arduinoLCD\test\Pain Drain\libraries\lvgl\src\extra\widgets\imgbtn/lv_imgbtn.c **** /**********************
 161:..\..\..\arduinoLCD\test\Pain Drain\libraries\lvgl\src\extra\widgets\imgbtn/lv_imgbtn.c ****  *   STATIC FUNCTIONS
 162:..\..\..\arduinoLCD\test\Pain Drain\libraries\lvgl\src\extra\widgets\imgbtn/lv_imgbtn.c ****  **********************/
 163:..\..\..\arduinoLCD\test\Pain Drain\libraries\lvgl\src\extra\widgets\imgbtn/lv_imgbtn.c **** 
 164:..\..\..\arduinoLCD\test\Pain Drain\libraries\lvgl\src\extra\widgets\imgbtn/lv_imgbtn.c **** static void lv_imgbtn_constructor(const lv_obj_class_t * class_p, lv_obj_t * obj)
 165:..\..\..\arduinoLCD\test\Pain Drain\libraries\lvgl\src\extra\widgets\imgbtn/lv_imgbtn.c **** {
 166:..\..\..\arduinoLCD\test\Pain Drain\libraries\lvgl\src\extra\widgets\imgbtn/lv_imgbtn.c ****     LV_UNUSED(class_p);
 167:..\..\..\arduinoLCD\test\Pain Drain\libraries\lvgl\src\extra\widgets\imgbtn/lv_imgbtn.c ****     lv_imgbtn_t * imgbtn = (lv_imgbtn_t *)obj;
 168:..\..\..\arduinoLCD\test\Pain Drain\libraries\lvgl\src\extra\widgets\imgbtn/lv_imgbtn.c ****     /*Initialize the allocated 'ext'*/
 169:..\..\..\arduinoLCD\test\Pain Drain\libraries\lvgl\src\extra\widgets\imgbtn/lv_imgbtn.c ****     lv_memset_00((void *)imgbtn->img_src_mid, sizeof(imgbtn->img_src_mid));
 170:..\..\..\arduinoLCD\test\Pain Drain\libraries\lvgl\src\extra\widgets\imgbtn/lv_imgbtn.c ****     lv_memset_00(imgbtn->img_src_left, sizeof(imgbtn->img_src_left));
 171:..\..\..\arduinoLCD\test\Pain Drain\libraries\lvgl\src\extra\widgets\imgbtn/lv_imgbtn.c ****     lv_memset_00(imgbtn->img_src_right, sizeof(imgbtn->img_src_right));
 172:..\..\..\arduinoLCD\test\Pain Drain\libraries\lvgl\src\extra\widgets\imgbtn/lv_imgbtn.c **** 
 173:..\..\..\arduinoLCD\test\Pain Drain\libraries\lvgl\src\extra\widgets\imgbtn/lv_imgbtn.c ****     imgbtn->act_cf = LV_IMG_CF_UNKNOWN;
 174:..\..\..\arduinoLCD\test\Pain Drain\libraries\lvgl\src\extra\widgets\imgbtn/lv_imgbtn.c **** }
 175:..\..\..\arduinoLCD\test\Pain Drain\libraries\lvgl\src\extra\widgets\imgbtn/lv_imgbtn.c **** 
 176:..\..\..\arduinoLCD\test\Pain Drain\libraries\lvgl\src\extra\widgets\imgbtn/lv_imgbtn.c **** 
 177:..\..\..\arduinoLCD\test\Pain Drain\libraries\lvgl\src\extra\widgets\imgbtn/lv_imgbtn.c **** static void lv_imgbtn_event(const lv_obj_class_t * class_p, lv_event_t * e)
 178:..\..\..\arduinoLCD\test\Pain Drain\libraries\lvgl\src\extra\widgets\imgbtn/lv_imgbtn.c **** {
 179:..\..\..\arduinoLCD\test\Pain Drain\libraries\lvgl\src\extra\widgets\imgbtn/lv_imgbtn.c ****     LV_UNUSED(class_p);
 180:..\..\..\arduinoLCD\test\Pain Drain\libraries\lvgl\src\extra\widgets\imgbtn/lv_imgbtn.c **** 
 181:..\..\..\arduinoLCD\test\Pain Drain\libraries\lvgl\src\extra\widgets\imgbtn/lv_imgbtn.c ****     lv_res_t res = lv_obj_event_base(&lv_imgbtn_class, e);
 182:..\..\..\arduinoLCD\test\Pain Drain\libraries\lvgl\src\extra\widgets\imgbtn/lv_imgbtn.c ****     if(res != LV_RES_OK) return;
 183:..\..\..\arduinoLCD\test\Pain Drain\libraries\lvgl\src\extra\widgets\imgbtn/lv_imgbtn.c **** 
 184:..\..\..\arduinoLCD\test\Pain Drain\libraries\lvgl\src\extra\widgets\imgbtn/lv_imgbtn.c ****     lv_event_code_t code = lv_event_get_code(e);
 185:..\..\..\arduinoLCD\test\Pain Drain\libraries\lvgl\src\extra\widgets\imgbtn/lv_imgbtn.c ****     lv_obj_t * obj = lv_event_get_target(e);
 186:..\..\..\arduinoLCD\test\Pain Drain\libraries\lvgl\src\extra\widgets\imgbtn/lv_imgbtn.c ****     if(code == LV_EVENT_PRESSED || code == LV_EVENT_RELEASED || code == LV_EVENT_PRESS_LOST) {
 187:..\..\..\arduinoLCD\test\Pain Drain\libraries\lvgl\src\extra\widgets\imgbtn/lv_imgbtn.c ****         refr_img(obj);
 188:..\..\..\arduinoLCD\test\Pain Drain\libraries\lvgl\src\extra\widgets\imgbtn/lv_imgbtn.c ****     }
 189:..\..\..\arduinoLCD\test\Pain Drain\libraries\lvgl\src\extra\widgets\imgbtn/lv_imgbtn.c ****     else if(code == LV_EVENT_DRAW_MAIN) {
 190:..\..\..\arduinoLCD\test\Pain Drain\libraries\lvgl\src\extra\widgets\imgbtn/lv_imgbtn.c ****         draw_main(e);
 191:..\..\..\arduinoLCD\test\Pain Drain\libraries\lvgl\src\extra\widgets\imgbtn/lv_imgbtn.c ****     }
 192:..\..\..\arduinoLCD\test\Pain Drain\libraries\lvgl\src\extra\widgets\imgbtn/lv_imgbtn.c ****     else if(code == LV_EVENT_COVER_CHECK) {
 193:..\..\..\arduinoLCD\test\Pain Drain\libraries\lvgl\src\extra\widgets\imgbtn/lv_imgbtn.c ****         lv_cover_check_info_t * info = lv_event_get_param(e);
 194:..\..\..\arduinoLCD\test\Pain Drain\libraries\lvgl\src\extra\widgets\imgbtn/lv_imgbtn.c ****         if(info->res != LV_COVER_RES_MASKED) info->res = LV_COVER_RES_NOT_COVER;
 195:..\..\..\arduinoLCD\test\Pain Drain\libraries\lvgl\src\extra\widgets\imgbtn/lv_imgbtn.c ****     }
 196:..\..\..\arduinoLCD\test\Pain Drain\libraries\lvgl\src\extra\widgets\imgbtn/lv_imgbtn.c ****     else if(code == LV_EVENT_GET_SELF_SIZE) {
 197:..\..\..\arduinoLCD\test\Pain Drain\libraries\lvgl\src\extra\widgets\imgbtn/lv_imgbtn.c ****         lv_point_t * p = lv_event_get_self_size_info(e);
 198:..\..\..\arduinoLCD\test\Pain Drain\libraries\lvgl\src\extra\widgets\imgbtn/lv_imgbtn.c ****         lv_imgbtn_t * imgbtn = (lv_imgbtn_t *)obj;
 199:..\..\..\arduinoLCD\test\Pain Drain\libraries\lvgl\src\extra\widgets\imgbtn/lv_imgbtn.c ****         lv_imgbtn_state_t state  = suggest_state(obj, get_state(obj));
 200:..\..\..\arduinoLCD\test\Pain Drain\libraries\lvgl\src\extra\widgets\imgbtn/lv_imgbtn.c ****         if(imgbtn->img_src_left[state] == NULL &&
 201:..\..\..\arduinoLCD\test\Pain Drain\libraries\lvgl\src\extra\widgets\imgbtn/lv_imgbtn.c ****            imgbtn->img_src_mid[state] != NULL &&
 202:..\..\..\arduinoLCD\test\Pain Drain\libraries\lvgl\src\extra\widgets\imgbtn/lv_imgbtn.c ****            imgbtn->img_src_right[state] == NULL) {
ARM GAS  C:\Users\haske\AppData\Local\Temp\ccc4gGVR.s 			page 5


 203:..\..\..\arduinoLCD\test\Pain Drain\libraries\lvgl\src\extra\widgets\imgbtn/lv_imgbtn.c ****             lv_img_header_t header;
 204:..\..\..\arduinoLCD\test\Pain Drain\libraries\lvgl\src\extra\widgets\imgbtn/lv_imgbtn.c ****             lv_img_decoder_get_info(imgbtn->img_src_mid[state], &header);
 205:..\..\..\arduinoLCD\test\Pain Drain\libraries\lvgl\src\extra\widgets\imgbtn/lv_imgbtn.c ****             p->x = LV_MAX(p->x, header.w);
 206:..\..\..\arduinoLCD\test\Pain Drain\libraries\lvgl\src\extra\widgets\imgbtn/lv_imgbtn.c ****         }
 207:..\..\..\arduinoLCD\test\Pain Drain\libraries\lvgl\src\extra\widgets\imgbtn/lv_imgbtn.c ****     }
 208:..\..\..\arduinoLCD\test\Pain Drain\libraries\lvgl\src\extra\widgets\imgbtn/lv_imgbtn.c **** }
 209:..\..\..\arduinoLCD\test\Pain Drain\libraries\lvgl\src\extra\widgets\imgbtn/lv_imgbtn.c **** 
 210:..\..\..\arduinoLCD\test\Pain Drain\libraries\lvgl\src\extra\widgets\imgbtn/lv_imgbtn.c **** static void draw_main(lv_event_t * e)
 211:..\..\..\arduinoLCD\test\Pain Drain\libraries\lvgl\src\extra\widgets\imgbtn/lv_imgbtn.c **** {
 212:..\..\..\arduinoLCD\test\Pain Drain\libraries\lvgl\src\extra\widgets\imgbtn/lv_imgbtn.c ****     lv_obj_t * obj = lv_event_get_target(e);
 213:..\..\..\arduinoLCD\test\Pain Drain\libraries\lvgl\src\extra\widgets\imgbtn/lv_imgbtn.c ****     lv_imgbtn_t * imgbtn = (lv_imgbtn_t *)obj;
 214:..\..\..\arduinoLCD\test\Pain Drain\libraries\lvgl\src\extra\widgets\imgbtn/lv_imgbtn.c ****     lv_draw_ctx_t * draw_ctx = lv_event_get_draw_ctx(e);
 215:..\..\..\arduinoLCD\test\Pain Drain\libraries\lvgl\src\extra\widgets\imgbtn/lv_imgbtn.c **** 
 216:..\..\..\arduinoLCD\test\Pain Drain\libraries\lvgl\src\extra\widgets\imgbtn/lv_imgbtn.c ****     /*Just draw_main an image*/
 217:..\..\..\arduinoLCD\test\Pain Drain\libraries\lvgl\src\extra\widgets\imgbtn/lv_imgbtn.c ****     lv_imgbtn_state_t state  = suggest_state(obj, get_state(obj));
 218:..\..\..\arduinoLCD\test\Pain Drain\libraries\lvgl\src\extra\widgets\imgbtn/lv_imgbtn.c **** 
 219:..\..\..\arduinoLCD\test\Pain Drain\libraries\lvgl\src\extra\widgets\imgbtn/lv_imgbtn.c ****     /*Simply draw the middle src if no tiled*/
 220:..\..\..\arduinoLCD\test\Pain Drain\libraries\lvgl\src\extra\widgets\imgbtn/lv_imgbtn.c ****     const void * src = imgbtn->img_src_left[state];
 221:..\..\..\arduinoLCD\test\Pain Drain\libraries\lvgl\src\extra\widgets\imgbtn/lv_imgbtn.c **** 
 222:..\..\..\arduinoLCD\test\Pain Drain\libraries\lvgl\src\extra\widgets\imgbtn/lv_imgbtn.c ****     lv_coord_t tw = lv_obj_get_style_transform_width(obj, LV_PART_MAIN);
 223:..\..\..\arduinoLCD\test\Pain Drain\libraries\lvgl\src\extra\widgets\imgbtn/lv_imgbtn.c ****     lv_coord_t th = lv_obj_get_style_transform_height(obj, LV_PART_MAIN);
 224:..\..\..\arduinoLCD\test\Pain Drain\libraries\lvgl\src\extra\widgets\imgbtn/lv_imgbtn.c ****     lv_area_t coords;
 225:..\..\..\arduinoLCD\test\Pain Drain\libraries\lvgl\src\extra\widgets\imgbtn/lv_imgbtn.c ****     lv_area_copy(&coords, &obj->coords);
 226:..\..\..\arduinoLCD\test\Pain Drain\libraries\lvgl\src\extra\widgets\imgbtn/lv_imgbtn.c ****     coords.x1 -= tw;
 227:..\..\..\arduinoLCD\test\Pain Drain\libraries\lvgl\src\extra\widgets\imgbtn/lv_imgbtn.c ****     coords.x2 += tw;
 228:..\..\..\arduinoLCD\test\Pain Drain\libraries\lvgl\src\extra\widgets\imgbtn/lv_imgbtn.c ****     coords.y1 -= th;
 229:..\..\..\arduinoLCD\test\Pain Drain\libraries\lvgl\src\extra\widgets\imgbtn/lv_imgbtn.c ****     coords.y2 += th;
 230:..\..\..\arduinoLCD\test\Pain Drain\libraries\lvgl\src\extra\widgets\imgbtn/lv_imgbtn.c **** 
 231:..\..\..\arduinoLCD\test\Pain Drain\libraries\lvgl\src\extra\widgets\imgbtn/lv_imgbtn.c ****     lv_draw_img_dsc_t img_dsc;
 232:..\..\..\arduinoLCD\test\Pain Drain\libraries\lvgl\src\extra\widgets\imgbtn/lv_imgbtn.c ****     lv_draw_img_dsc_init(&img_dsc);
 233:..\..\..\arduinoLCD\test\Pain Drain\libraries\lvgl\src\extra\widgets\imgbtn/lv_imgbtn.c ****     lv_obj_init_draw_img_dsc(obj, LV_PART_MAIN, &img_dsc);
 234:..\..\..\arduinoLCD\test\Pain Drain\libraries\lvgl\src\extra\widgets\imgbtn/lv_imgbtn.c **** 
 235:..\..\..\arduinoLCD\test\Pain Drain\libraries\lvgl\src\extra\widgets\imgbtn/lv_imgbtn.c ****     lv_img_header_t header;
 236:..\..\..\arduinoLCD\test\Pain Drain\libraries\lvgl\src\extra\widgets\imgbtn/lv_imgbtn.c ****     lv_area_t coords_part;
 237:..\..\..\arduinoLCD\test\Pain Drain\libraries\lvgl\src\extra\widgets\imgbtn/lv_imgbtn.c ****     lv_coord_t left_w = 0;
 238:..\..\..\arduinoLCD\test\Pain Drain\libraries\lvgl\src\extra\widgets\imgbtn/lv_imgbtn.c ****     lv_coord_t right_w = 0;
 239:..\..\..\arduinoLCD\test\Pain Drain\libraries\lvgl\src\extra\widgets\imgbtn/lv_imgbtn.c **** 
 240:..\..\..\arduinoLCD\test\Pain Drain\libraries\lvgl\src\extra\widgets\imgbtn/lv_imgbtn.c ****     if(src) {
 241:..\..\..\arduinoLCD\test\Pain Drain\libraries\lvgl\src\extra\widgets\imgbtn/lv_imgbtn.c ****         lv_img_decoder_get_info(src, &header);
 242:..\..\..\arduinoLCD\test\Pain Drain\libraries\lvgl\src\extra\widgets\imgbtn/lv_imgbtn.c ****         left_w = header.w;
 243:..\..\..\arduinoLCD\test\Pain Drain\libraries\lvgl\src\extra\widgets\imgbtn/lv_imgbtn.c ****         coords_part.x1 = coords.x1;
 244:..\..\..\arduinoLCD\test\Pain Drain\libraries\lvgl\src\extra\widgets\imgbtn/lv_imgbtn.c ****         coords_part.y1 = coords.y1;
 245:..\..\..\arduinoLCD\test\Pain Drain\libraries\lvgl\src\extra\widgets\imgbtn/lv_imgbtn.c ****         coords_part.x2 = coords.x1 + header.w - 1;
 246:..\..\..\arduinoLCD\test\Pain Drain\libraries\lvgl\src\extra\widgets\imgbtn/lv_imgbtn.c ****         coords_part.y2 = coords.y1 + header.h - 1;
 247:..\..\..\arduinoLCD\test\Pain Drain\libraries\lvgl\src\extra\widgets\imgbtn/lv_imgbtn.c ****         lv_draw_img(draw_ctx, &img_dsc, &coords_part, src);
 248:..\..\..\arduinoLCD\test\Pain Drain\libraries\lvgl\src\extra\widgets\imgbtn/lv_imgbtn.c ****     }
 249:..\..\..\arduinoLCD\test\Pain Drain\libraries\lvgl\src\extra\widgets\imgbtn/lv_imgbtn.c **** 
 250:..\..\..\arduinoLCD\test\Pain Drain\libraries\lvgl\src\extra\widgets\imgbtn/lv_imgbtn.c ****     src = imgbtn->img_src_right[state];
 251:..\..\..\arduinoLCD\test\Pain Drain\libraries\lvgl\src\extra\widgets\imgbtn/lv_imgbtn.c ****     if(src) {
 252:..\..\..\arduinoLCD\test\Pain Drain\libraries\lvgl\src\extra\widgets\imgbtn/lv_imgbtn.c ****         lv_img_decoder_get_info(src, &header);
 253:..\..\..\arduinoLCD\test\Pain Drain\libraries\lvgl\src\extra\widgets\imgbtn/lv_imgbtn.c ****         right_w = header.w;
 254:..\..\..\arduinoLCD\test\Pain Drain\libraries\lvgl\src\extra\widgets\imgbtn/lv_imgbtn.c ****         coords_part.x1 = coords.x2 - header.w + 1;
 255:..\..\..\arduinoLCD\test\Pain Drain\libraries\lvgl\src\extra\widgets\imgbtn/lv_imgbtn.c ****         coords_part.y1 = coords.y1;
 256:..\..\..\arduinoLCD\test\Pain Drain\libraries\lvgl\src\extra\widgets\imgbtn/lv_imgbtn.c ****         coords_part.x2 = coords.x2;
 257:..\..\..\arduinoLCD\test\Pain Drain\libraries\lvgl\src\extra\widgets\imgbtn/lv_imgbtn.c ****         coords_part.y2 = coords.y1 + header.h - 1;
 258:..\..\..\arduinoLCD\test\Pain Drain\libraries\lvgl\src\extra\widgets\imgbtn/lv_imgbtn.c ****         lv_draw_img(draw_ctx, &img_dsc, &coords_part, src);
 259:..\..\..\arduinoLCD\test\Pain Drain\libraries\lvgl\src\extra\widgets\imgbtn/lv_imgbtn.c ****     }
ARM GAS  C:\Users\haske\AppData\Local\Temp\ccc4gGVR.s 			page 6


 260:..\..\..\arduinoLCD\test\Pain Drain\libraries\lvgl\src\extra\widgets\imgbtn/lv_imgbtn.c **** 
 261:..\..\..\arduinoLCD\test\Pain Drain\libraries\lvgl\src\extra\widgets\imgbtn/lv_imgbtn.c ****     src = imgbtn->img_src_mid[state];
 262:..\..\..\arduinoLCD\test\Pain Drain\libraries\lvgl\src\extra\widgets\imgbtn/lv_imgbtn.c ****     if(src) {
 263:..\..\..\arduinoLCD\test\Pain Drain\libraries\lvgl\src\extra\widgets\imgbtn/lv_imgbtn.c ****         lv_area_t clip_area_center;
 264:..\..\..\arduinoLCD\test\Pain Drain\libraries\lvgl\src\extra\widgets\imgbtn/lv_imgbtn.c ****         clip_area_center.x1 = coords.x1 + left_w;
 265:..\..\..\arduinoLCD\test\Pain Drain\libraries\lvgl\src\extra\widgets\imgbtn/lv_imgbtn.c ****         clip_area_center.x2 = coords.x2 - right_w;
 266:..\..\..\arduinoLCD\test\Pain Drain\libraries\lvgl\src\extra\widgets\imgbtn/lv_imgbtn.c ****         clip_area_center.y1 = coords.y1;
 267:..\..\..\arduinoLCD\test\Pain Drain\libraries\lvgl\src\extra\widgets\imgbtn/lv_imgbtn.c ****         clip_area_center.y2 = coords.y2;
 268:..\..\..\arduinoLCD\test\Pain Drain\libraries\lvgl\src\extra\widgets\imgbtn/lv_imgbtn.c **** 
 269:..\..\..\arduinoLCD\test\Pain Drain\libraries\lvgl\src\extra\widgets\imgbtn/lv_imgbtn.c **** 
 270:..\..\..\arduinoLCD\test\Pain Drain\libraries\lvgl\src\extra\widgets\imgbtn/lv_imgbtn.c ****         bool comm_res;
 271:..\..\..\arduinoLCD\test\Pain Drain\libraries\lvgl\src\extra\widgets\imgbtn/lv_imgbtn.c ****         comm_res = _lv_area_intersect(&clip_area_center, &clip_area_center, draw_ctx->clip_area);
 272:..\..\..\arduinoLCD\test\Pain Drain\libraries\lvgl\src\extra\widgets\imgbtn/lv_imgbtn.c ****         if(comm_res) {
 273:..\..\..\arduinoLCD\test\Pain Drain\libraries\lvgl\src\extra\widgets\imgbtn/lv_imgbtn.c ****             lv_coord_t i;
 274:..\..\..\arduinoLCD\test\Pain Drain\libraries\lvgl\src\extra\widgets\imgbtn/lv_imgbtn.c ****             lv_img_decoder_get_info(src, &header);
 275:..\..\..\arduinoLCD\test\Pain Drain\libraries\lvgl\src\extra\widgets\imgbtn/lv_imgbtn.c **** 
 276:..\..\..\arduinoLCD\test\Pain Drain\libraries\lvgl\src\extra\widgets\imgbtn/lv_imgbtn.c ****             const lv_area_t * clip_area_ori = draw_ctx->clip_area;
 277:..\..\..\arduinoLCD\test\Pain Drain\libraries\lvgl\src\extra\widgets\imgbtn/lv_imgbtn.c ****             draw_ctx->clip_area = &clip_area_center;
 278:..\..\..\arduinoLCD\test\Pain Drain\libraries\lvgl\src\extra\widgets\imgbtn/lv_imgbtn.c **** 
 279:..\..\..\arduinoLCD\test\Pain Drain\libraries\lvgl\src\extra\widgets\imgbtn/lv_imgbtn.c ****             coords_part.x1 = coords.x1 + left_w;
 280:..\..\..\arduinoLCD\test\Pain Drain\libraries\lvgl\src\extra\widgets\imgbtn/lv_imgbtn.c ****             coords_part.y1 = coords.y1;
 281:..\..\..\arduinoLCD\test\Pain Drain\libraries\lvgl\src\extra\widgets\imgbtn/lv_imgbtn.c ****             coords_part.x2 = coords_part.x1 + header.w - 1;
 282:..\..\..\arduinoLCD\test\Pain Drain\libraries\lvgl\src\extra\widgets\imgbtn/lv_imgbtn.c ****             coords_part.y2 = coords_part.y1 + header.h - 1;
 283:..\..\..\arduinoLCD\test\Pain Drain\libraries\lvgl\src\extra\widgets\imgbtn/lv_imgbtn.c **** 
 284:..\..\..\arduinoLCD\test\Pain Drain\libraries\lvgl\src\extra\widgets\imgbtn/lv_imgbtn.c ****             for(i = coords_part.x1; i < (lv_coord_t)(clip_area_center.x2 + header.w - 1); i += head
 285:..\..\..\arduinoLCD\test\Pain Drain\libraries\lvgl\src\extra\widgets\imgbtn/lv_imgbtn.c ****                 lv_draw_img(draw_ctx, &img_dsc, &coords_part, src);
 286:..\..\..\arduinoLCD\test\Pain Drain\libraries\lvgl\src\extra\widgets\imgbtn/lv_imgbtn.c ****                 coords_part.x1 = coords_part.x2 + 1;
 287:..\..\..\arduinoLCD\test\Pain Drain\libraries\lvgl\src\extra\widgets\imgbtn/lv_imgbtn.c ****                 coords_part.x2 += header.w;
 288:..\..\..\arduinoLCD\test\Pain Drain\libraries\lvgl\src\extra\widgets\imgbtn/lv_imgbtn.c ****             }
 289:..\..\..\arduinoLCD\test\Pain Drain\libraries\lvgl\src\extra\widgets\imgbtn/lv_imgbtn.c ****             draw_ctx->clip_area = clip_area_ori;
 290:..\..\..\arduinoLCD\test\Pain Drain\libraries\lvgl\src\extra\widgets\imgbtn/lv_imgbtn.c ****         }
 291:..\..\..\arduinoLCD\test\Pain Drain\libraries\lvgl\src\extra\widgets\imgbtn/lv_imgbtn.c ****     }
 292:..\..\..\arduinoLCD\test\Pain Drain\libraries\lvgl\src\extra\widgets\imgbtn/lv_imgbtn.c **** }
 293:..\..\..\arduinoLCD\test\Pain Drain\libraries\lvgl\src\extra\widgets\imgbtn/lv_imgbtn.c **** 
 294:..\..\..\arduinoLCD\test\Pain Drain\libraries\lvgl\src\extra\widgets\imgbtn/lv_imgbtn.c **** static void refr_img(lv_obj_t * obj)
 295:..\..\..\arduinoLCD\test\Pain Drain\libraries\lvgl\src\extra\widgets\imgbtn/lv_imgbtn.c **** {
 296:..\..\..\arduinoLCD\test\Pain Drain\libraries\lvgl\src\extra\widgets\imgbtn/lv_imgbtn.c ****     lv_imgbtn_t * imgbtn = (lv_imgbtn_t *)obj;
 297:..\..\..\arduinoLCD\test\Pain Drain\libraries\lvgl\src\extra\widgets\imgbtn/lv_imgbtn.c ****     lv_imgbtn_state_t state  = suggest_state(obj, get_state(obj));
 298:..\..\..\arduinoLCD\test\Pain Drain\libraries\lvgl\src\extra\widgets\imgbtn/lv_imgbtn.c ****     lv_img_header_t header;
 299:..\..\..\arduinoLCD\test\Pain Drain\libraries\lvgl\src\extra\widgets\imgbtn/lv_imgbtn.c **** 
 300:..\..\..\arduinoLCD\test\Pain Drain\libraries\lvgl\src\extra\widgets\imgbtn/lv_imgbtn.c ****     const void * src = imgbtn->img_src_mid[state];
 301:..\..\..\arduinoLCD\test\Pain Drain\libraries\lvgl\src\extra\widgets\imgbtn/lv_imgbtn.c ****     if(src == NULL) return;
 302:..\..\..\arduinoLCD\test\Pain Drain\libraries\lvgl\src\extra\widgets\imgbtn/lv_imgbtn.c **** 
 303:..\..\..\arduinoLCD\test\Pain Drain\libraries\lvgl\src\extra\widgets\imgbtn/lv_imgbtn.c ****     lv_res_t info_res = LV_RES_OK;
 304:..\..\..\arduinoLCD\test\Pain Drain\libraries\lvgl\src\extra\widgets\imgbtn/lv_imgbtn.c ****     info_res = lv_img_decoder_get_info(src, &header);
 305:..\..\..\arduinoLCD\test\Pain Drain\libraries\lvgl\src\extra\widgets\imgbtn/lv_imgbtn.c **** 
 306:..\..\..\arduinoLCD\test\Pain Drain\libraries\lvgl\src\extra\widgets\imgbtn/lv_imgbtn.c ****     if(info_res == LV_RES_OK) {
 307:..\..\..\arduinoLCD\test\Pain Drain\libraries\lvgl\src\extra\widgets\imgbtn/lv_imgbtn.c ****         imgbtn->act_cf = header.cf;
 308:..\..\..\arduinoLCD\test\Pain Drain\libraries\lvgl\src\extra\widgets\imgbtn/lv_imgbtn.c ****         lv_obj_refresh_self_size(obj);
 309:..\..\..\arduinoLCD\test\Pain Drain\libraries\lvgl\src\extra\widgets\imgbtn/lv_imgbtn.c ****         lv_obj_set_height(obj, header.h); /*Keep the user defined width*/
 310:..\..\..\arduinoLCD\test\Pain Drain\libraries\lvgl\src\extra\widgets\imgbtn/lv_imgbtn.c ****     }
 311:..\..\..\arduinoLCD\test\Pain Drain\libraries\lvgl\src\extra\widgets\imgbtn/lv_imgbtn.c ****     else {
 312:..\..\..\arduinoLCD\test\Pain Drain\libraries\lvgl\src\extra\widgets\imgbtn/lv_imgbtn.c ****         imgbtn->act_cf = LV_IMG_CF_UNKNOWN;
 313:..\..\..\arduinoLCD\test\Pain Drain\libraries\lvgl\src\extra\widgets\imgbtn/lv_imgbtn.c ****     }
 314:..\..\..\arduinoLCD\test\Pain Drain\libraries\lvgl\src\extra\widgets\imgbtn/lv_imgbtn.c **** 
 315:..\..\..\arduinoLCD\test\Pain Drain\libraries\lvgl\src\extra\widgets\imgbtn/lv_imgbtn.c ****     lv_obj_invalidate(obj);
 316:..\..\..\arduinoLCD\test\Pain Drain\libraries\lvgl\src\extra\widgets\imgbtn/lv_imgbtn.c **** }
ARM GAS  C:\Users\haske\AppData\Local\Temp\ccc4gGVR.s 			page 7


 317:..\..\..\arduinoLCD\test\Pain Drain\libraries\lvgl\src\extra\widgets\imgbtn/lv_imgbtn.c **** 
 318:..\..\..\arduinoLCD\test\Pain Drain\libraries\lvgl\src\extra\widgets\imgbtn/lv_imgbtn.c **** /**
 319:..\..\..\arduinoLCD\test\Pain Drain\libraries\lvgl\src\extra\widgets\imgbtn/lv_imgbtn.c ****  * If `src` is not defined for the current state try to get a state which is related to the current
 320:..\..\..\arduinoLCD\test\Pain Drain\libraries\lvgl\src\extra\widgets\imgbtn/lv_imgbtn.c ****  * E.g. if the PRESSED src is not set but the RELEASED does, use the RELEASED.
 321:..\..\..\arduinoLCD\test\Pain Drain\libraries\lvgl\src\extra\widgets\imgbtn/lv_imgbtn.c ****  * @param imgbtn pointer to an image button
 322:..\..\..\arduinoLCD\test\Pain Drain\libraries\lvgl\src\extra\widgets\imgbtn/lv_imgbtn.c ****  * @param state the state to convert
 323:..\..\..\arduinoLCD\test\Pain Drain\libraries\lvgl\src\extra\widgets\imgbtn/lv_imgbtn.c ****  * @return the suggested state
 324:..\..\..\arduinoLCD\test\Pain Drain\libraries\lvgl\src\extra\widgets\imgbtn/lv_imgbtn.c ****  */
 325:..\..\..\arduinoLCD\test\Pain Drain\libraries\lvgl\src\extra\widgets\imgbtn/lv_imgbtn.c **** static lv_imgbtn_state_t suggest_state(lv_obj_t * obj, lv_imgbtn_state_t state)
 326:..\..\..\arduinoLCD\test\Pain Drain\libraries\lvgl\src\extra\widgets\imgbtn/lv_imgbtn.c **** {
  27              		.loc 1 326 0
  28              		.cfi_startproc
  29              		@ args = 0, pretend = 0, frame = 0
  30              		@ frame_needed = 0, uses_anonymous_args = 0
  31              		@ link register save eliminated.
  32              	.LVL0:
 327:..\..\..\arduinoLCD\test\Pain Drain\libraries\lvgl\src\extra\widgets\imgbtn/lv_imgbtn.c ****     lv_imgbtn_t * imgbtn = (lv_imgbtn_t *)obj;
 328:..\..\..\arduinoLCD\test\Pain Drain\libraries\lvgl\src\extra\widgets\imgbtn/lv_imgbtn.c ****     if(imgbtn->img_src_mid[state] == NULL) {
  33              		.loc 1 328 0
  34 0000 0B00     		movs	r3, r1
  35 0002 0833     		adds	r3, r3, #8
  36 0004 9B00     		lsls	r3, r3, #2
  37 0006 C318     		adds	r3, r0, r3
  38 0008 5B68     		ldr	r3, [r3, #4]
  39 000a 002B     		cmp	r3, #0
  40 000c 27D1     		bne	.L9
 329:..\..\..\arduinoLCD\test\Pain Drain\libraries\lvgl\src\extra\widgets\imgbtn/lv_imgbtn.c ****         switch(state) {
  41              		.loc 1 329 0
  42 000e 0529     		cmp	r1, #5
  43 0010 27D8     		bhi	.L10
  44 0012 8B00     		lsls	r3, r1, #2
  45 0014 1C4A     		ldr	r2, .L19
  46 0016 D358     		ldr	r3, [r2, r3]
  47 0018 9F46     		mov	pc, r3
  48              		.section	.rodata
  49              		.align	2
  50              	.L4:
  51 0000 62000000 		.word	.L10
  52 0004 1A000000 		.word	.L3
  53 0008 44000000 		.word	.L5
  54 000c 24000000 		.word	.L6
  55 0010 2E000000 		.word	.L7
  56 0014 4E000000 		.word	.L8
  57              		.section	.text.suggest_state
  58              	.L3:
 330:..\..\..\arduinoLCD\test\Pain Drain\libraries\lvgl\src\extra\widgets\imgbtn/lv_imgbtn.c ****             case LV_IMGBTN_STATE_PRESSED:
 331:..\..\..\arduinoLCD\test\Pain Drain\libraries\lvgl\src\extra\widgets\imgbtn/lv_imgbtn.c ****                 if(imgbtn->img_src_mid[LV_IMGBTN_STATE_RELEASED]) return LV_IMGBTN_STATE_RELEASED;
  59              		.loc 1 331 0
  60 001a 436A     		ldr	r3, [r0, #36]
  61 001c 002B     		cmp	r3, #0
  62 001e 22D1     		bne	.L11
 332:..\..\..\arduinoLCD\test\Pain Drain\libraries\lvgl\src\extra\widgets\imgbtn/lv_imgbtn.c ****                 break;
 333:..\..\..\arduinoLCD\test\Pain Drain\libraries\lvgl\src\extra\widgets\imgbtn/lv_imgbtn.c ****             case LV_IMGBTN_STATE_CHECKED_RELEASED:
 334:..\..\..\arduinoLCD\test\Pain Drain\libraries\lvgl\src\extra\widgets\imgbtn/lv_imgbtn.c ****                 if(imgbtn->img_src_mid[LV_IMGBTN_STATE_RELEASED]) return LV_IMGBTN_STATE_RELEASED;
 335:..\..\..\arduinoLCD\test\Pain Drain\libraries\lvgl\src\extra\widgets\imgbtn/lv_imgbtn.c ****                 break;
 336:..\..\..\arduinoLCD\test\Pain Drain\libraries\lvgl\src\extra\widgets\imgbtn/lv_imgbtn.c ****             case LV_IMGBTN_STATE_CHECKED_PRESSED:
 337:..\..\..\arduinoLCD\test\Pain Drain\libraries\lvgl\src\extra\widgets\imgbtn/lv_imgbtn.c ****                 if(imgbtn->img_src_mid[LV_IMGBTN_STATE_CHECKED_RELEASED]) return LV_IMGBTN_STATE_CH
ARM GAS  C:\Users\haske\AppData\Local\Temp\ccc4gGVR.s 			page 8


 338:..\..\..\arduinoLCD\test\Pain Drain\libraries\lvgl\src\extra\widgets\imgbtn/lv_imgbtn.c ****                 if(imgbtn->img_src_mid[LV_IMGBTN_STATE_PRESSED]) return LV_IMGBTN_STATE_PRESSED;
 339:..\..\..\arduinoLCD\test\Pain Drain\libraries\lvgl\src\extra\widgets\imgbtn/lv_imgbtn.c ****                 if(imgbtn->img_src_mid[LV_IMGBTN_STATE_RELEASED]) return LV_IMGBTN_STATE_RELEASED;
 340:..\..\..\arduinoLCD\test\Pain Drain\libraries\lvgl\src\extra\widgets\imgbtn/lv_imgbtn.c ****                 break;
 341:..\..\..\arduinoLCD\test\Pain Drain\libraries\lvgl\src\extra\widgets\imgbtn/lv_imgbtn.c ****             case LV_IMGBTN_STATE_DISABLED:
 342:..\..\..\arduinoLCD\test\Pain Drain\libraries\lvgl\src\extra\widgets\imgbtn/lv_imgbtn.c ****                 if(imgbtn->img_src_mid[LV_IMGBTN_STATE_RELEASED]) return LV_IMGBTN_STATE_RELEASED;
 343:..\..\..\arduinoLCD\test\Pain Drain\libraries\lvgl\src\extra\widgets\imgbtn/lv_imgbtn.c ****                 break;
 344:..\..\..\arduinoLCD\test\Pain Drain\libraries\lvgl\src\extra\widgets\imgbtn/lv_imgbtn.c ****             case LV_IMGBTN_STATE_CHECKED_DISABLED:
 345:..\..\..\arduinoLCD\test\Pain Drain\libraries\lvgl\src\extra\widgets\imgbtn/lv_imgbtn.c ****                 if(imgbtn->img_src_mid[LV_IMGBTN_STATE_CHECKED_RELEASED]) return LV_IMGBTN_STATE_CH
 346:..\..\..\arduinoLCD\test\Pain Drain\libraries\lvgl\src\extra\widgets\imgbtn/lv_imgbtn.c ****                 if(imgbtn->img_src_mid[LV_IMGBTN_STATE_RELEASED]) return LV_IMGBTN_STATE_RELEASED;
 347:..\..\..\arduinoLCD\test\Pain Drain\libraries\lvgl\src\extra\widgets\imgbtn/lv_imgbtn.c ****                 break;
 348:..\..\..\arduinoLCD\test\Pain Drain\libraries\lvgl\src\extra\widgets\imgbtn/lv_imgbtn.c ****             default:
 349:..\..\..\arduinoLCD\test\Pain Drain\libraries\lvgl\src\extra\widgets\imgbtn/lv_imgbtn.c ****                 break;
 350:..\..\..\arduinoLCD\test\Pain Drain\libraries\lvgl\src\extra\widgets\imgbtn/lv_imgbtn.c ****         }
 351:..\..\..\arduinoLCD\test\Pain Drain\libraries\lvgl\src\extra\widgets\imgbtn/lv_imgbtn.c ****     }
 352:..\..\..\arduinoLCD\test\Pain Drain\libraries\lvgl\src\extra\widgets\imgbtn/lv_imgbtn.c **** 
 353:..\..\..\arduinoLCD\test\Pain Drain\libraries\lvgl\src\extra\widgets\imgbtn/lv_imgbtn.c ****     return state;
  63              		.loc 1 353 0
  64 0020 0800     		movs	r0, r1
  65              	.LVL1:
  66 0022 2FE0     		b	.L2
  67              	.LVL2:
  68              	.L6:
 334:..\..\..\arduinoLCD\test\Pain Drain\libraries\lvgl\src\extra\widgets\imgbtn/lv_imgbtn.c ****                 break;
  69              		.loc 1 334 0
  70 0024 436A     		ldr	r3, [r0, #36]
  71 0026 002B     		cmp	r3, #0
  72 0028 1FD1     		bne	.L12
  73              		.loc 1 353 0
  74 002a 0800     		movs	r0, r1
  75              	.LVL3:
  76 002c 2AE0     		b	.L2
  77              	.LVL4:
  78              	.L7:
 337:..\..\..\arduinoLCD\test\Pain Drain\libraries\lvgl\src\extra\widgets\imgbtn/lv_imgbtn.c ****                 if(imgbtn->img_src_mid[LV_IMGBTN_STATE_PRESSED]) return LV_IMGBTN_STATE_PRESSED;
  79              		.loc 1 337 0
  80 002e 036B     		ldr	r3, [r0, #48]
  81 0030 002B     		cmp	r3, #0
  82 0032 1CD1     		bne	.L13
 338:..\..\..\arduinoLCD\test\Pain Drain\libraries\lvgl\src\extra\widgets\imgbtn/lv_imgbtn.c ****                 if(imgbtn->img_src_mid[LV_IMGBTN_STATE_RELEASED]) return LV_IMGBTN_STATE_RELEASED;
  83              		.loc 1 338 0
  84 0034 836A     		ldr	r3, [r0, #40]
  85 0036 002B     		cmp	r3, #0
  86 0038 1BD1     		bne	.L14
 339:..\..\..\arduinoLCD\test\Pain Drain\libraries\lvgl\src\extra\widgets\imgbtn/lv_imgbtn.c ****                 break;
  87              		.loc 1 339 0
  88 003a 436A     		ldr	r3, [r0, #36]
  89 003c 002B     		cmp	r3, #0
  90 003e 1AD1     		bne	.L15
  91              		.loc 1 353 0
  92 0040 0800     		movs	r0, r1
  93              	.LVL5:
  94 0042 1FE0     		b	.L2
  95              	.LVL6:
  96              	.L5:
 342:..\..\..\arduinoLCD\test\Pain Drain\libraries\lvgl\src\extra\widgets\imgbtn/lv_imgbtn.c ****                 break;
  97              		.loc 1 342 0
  98 0044 436A     		ldr	r3, [r0, #36]
ARM GAS  C:\Users\haske\AppData\Local\Temp\ccc4gGVR.s 			page 9


  99 0046 002B     		cmp	r3, #0
 100 0048 17D1     		bne	.L16
 101              		.loc 1 353 0
 102 004a 0800     		movs	r0, r1
 103              	.LVL7:
 104 004c 1AE0     		b	.L2
 105              	.LVL8:
 106              	.L8:
 345:..\..\..\arduinoLCD\test\Pain Drain\libraries\lvgl\src\extra\widgets\imgbtn/lv_imgbtn.c ****                 if(imgbtn->img_src_mid[LV_IMGBTN_STATE_RELEASED]) return LV_IMGBTN_STATE_RELEASED;
 107              		.loc 1 345 0
 108 004e 036B     		ldr	r3, [r0, #48]
 109 0050 002B     		cmp	r3, #0
 110 0052 14D1     		bne	.L17
 346:..\..\..\arduinoLCD\test\Pain Drain\libraries\lvgl\src\extra\widgets\imgbtn/lv_imgbtn.c ****                 break;
 111              		.loc 1 346 0
 112 0054 436A     		ldr	r3, [r0, #36]
 113 0056 002B     		cmp	r3, #0
 114 0058 13D1     		bne	.L18
 115              		.loc 1 353 0
 116 005a 0800     		movs	r0, r1
 117              	.LVL9:
 118 005c 12E0     		b	.L2
 119              	.LVL10:
 120              	.L9:
 121 005e 0800     		movs	r0, r1
 122              	.LVL11:
 123 0060 10E0     		b	.L2
 124              	.LVL12:
 125              	.L10:
 126 0062 0800     		movs	r0, r1
 127              	.LVL13:
 128 0064 0EE0     		b	.L2
 129              	.LVL14:
 130              	.L11:
 331:..\..\..\arduinoLCD\test\Pain Drain\libraries\lvgl\src\extra\widgets\imgbtn/lv_imgbtn.c ****                 break;
 131              		.loc 1 331 0
 132 0066 0020     		movs	r0, #0
 133              	.LVL15:
 134 0068 0CE0     		b	.L2
 135              	.LVL16:
 136              	.L12:
 334:..\..\..\arduinoLCD\test\Pain Drain\libraries\lvgl\src\extra\widgets\imgbtn/lv_imgbtn.c ****                 break;
 137              		.loc 1 334 0
 138 006a 0020     		movs	r0, #0
 139              	.LVL17:
 140 006c 0AE0     		b	.L2
 141              	.LVL18:
 142              	.L13:
 337:..\..\..\arduinoLCD\test\Pain Drain\libraries\lvgl\src\extra\widgets\imgbtn/lv_imgbtn.c ****                 if(imgbtn->img_src_mid[LV_IMGBTN_STATE_PRESSED]) return LV_IMGBTN_STATE_PRESSED;
 143              		.loc 1 337 0
 144 006e 0320     		movs	r0, #3
 145              	.LVL19:
 146 0070 08E0     		b	.L2
 147              	.LVL20:
 148              	.L14:
 338:..\..\..\arduinoLCD\test\Pain Drain\libraries\lvgl\src\extra\widgets\imgbtn/lv_imgbtn.c ****                 if(imgbtn->img_src_mid[LV_IMGBTN_STATE_RELEASED]) return LV_IMGBTN_STATE_RELEASED;
 149              		.loc 1 338 0
ARM GAS  C:\Users\haske\AppData\Local\Temp\ccc4gGVR.s 			page 10


 150 0072 0120     		movs	r0, #1
 151              	.LVL21:
 152 0074 06E0     		b	.L2
 153              	.LVL22:
 154              	.L15:
 339:..\..\..\arduinoLCD\test\Pain Drain\libraries\lvgl\src\extra\widgets\imgbtn/lv_imgbtn.c ****                 break;
 155              		.loc 1 339 0
 156 0076 0020     		movs	r0, #0
 157              	.LVL23:
 158 0078 04E0     		b	.L2
 159              	.LVL24:
 160              	.L16:
 342:..\..\..\arduinoLCD\test\Pain Drain\libraries\lvgl\src\extra\widgets\imgbtn/lv_imgbtn.c ****                 break;
 161              		.loc 1 342 0
 162 007a 0020     		movs	r0, #0
 163              	.LVL25:
 164 007c 02E0     		b	.L2
 165              	.LVL26:
 166              	.L17:
 345:..\..\..\arduinoLCD\test\Pain Drain\libraries\lvgl\src\extra\widgets\imgbtn/lv_imgbtn.c ****                 if(imgbtn->img_src_mid[LV_IMGBTN_STATE_RELEASED]) return LV_IMGBTN_STATE_RELEASED;
 167              		.loc 1 345 0
 168 007e 0320     		movs	r0, #3
 169              	.LVL27:
 170 0080 00E0     		b	.L2
 171              	.LVL28:
 172              	.L18:
 346:..\..\..\arduinoLCD\test\Pain Drain\libraries\lvgl\src\extra\widgets\imgbtn/lv_imgbtn.c ****                 break;
 173              		.loc 1 346 0
 174 0082 0020     		movs	r0, #0
 175              	.LVL29:
 176              	.L2:
 354:..\..\..\arduinoLCD\test\Pain Drain\libraries\lvgl\src\extra\widgets\imgbtn/lv_imgbtn.c **** }
 177              		.loc 1 354 0
 178              		@ sp needed
 179 0084 7047     		bx	lr
 180              	.L20:
 181 0086 C046     		.align	2
 182              	.L19:
 183 0088 00000000 		.word	.L4
 184              		.cfi_endproc
 185              	.LFE212:
 186              		.size	suggest_state, .-suggest_state
 187              		.section	.text.lv_imgbtn_constructor,"ax",%progbits
 188              		.align	2
 189              		.code	16
 190              		.thumb_func
 191              		.type	lv_imgbtn_constructor, %function
 192              	lv_imgbtn_constructor:
 193              	.LFB208:
 165:..\..\..\arduinoLCD\test\Pain Drain\libraries\lvgl\src\extra\widgets\imgbtn/lv_imgbtn.c ****     LV_UNUSED(class_p);
 194              		.loc 1 165 0
 195              		.cfi_startproc
 196              		@ args = 0, pretend = 0, frame = 0
 197              		@ frame_needed = 0, uses_anonymous_args = 0
 198              	.LVL30:
 199 0000 10B5     		push	{r4, lr}
 200              		.cfi_def_cfa_offset 8
ARM GAS  C:\Users\haske\AppData\Local\Temp\ccc4gGVR.s 			page 11


 201              		.cfi_offset 4, -8
 202              		.cfi_offset 14, -4
 203 0002 0C00     		movs	r4, r1
 204              	.LVL31:
 169:..\..\..\arduinoLCD\test\Pain Drain\libraries\lvgl\src\extra\widgets\imgbtn/lv_imgbtn.c ****     lv_memset_00(imgbtn->img_src_left, sizeof(imgbtn->img_src_left));
 205              		.loc 1 169 0
 206 0004 0800     		movs	r0, r1
 207              	.LVL32:
 208 0006 2430     		adds	r0, r0, #36
 209 0008 1821     		movs	r1, #24
 210              	.LVL33:
 211 000a FFF7FEFF 		bl	lv_memset_00
 212              	.LVL34:
 170:..\..\..\arduinoLCD\test\Pain Drain\libraries\lvgl\src\extra\widgets\imgbtn/lv_imgbtn.c ****     lv_memset_00(imgbtn->img_src_right, sizeof(imgbtn->img_src_right));
 213              		.loc 1 170 0
 214 000e 2000     		movs	r0, r4
 215 0010 3C30     		adds	r0, r0, #60
 216 0012 1821     		movs	r1, #24
 217 0014 FFF7FEFF 		bl	lv_memset_00
 218              	.LVL35:
 171:..\..\..\arduinoLCD\test\Pain Drain\libraries\lvgl\src\extra\widgets\imgbtn/lv_imgbtn.c **** 
 219              		.loc 1 171 0
 220 0018 2000     		movs	r0, r4
 221 001a 5430     		adds	r0, r0, #84
 222 001c 1821     		movs	r1, #24
 223 001e FFF7FEFF 		bl	lv_memset_00
 224              	.LVL36:
 173:..\..\..\arduinoLCD\test\Pain Drain\libraries\lvgl\src\extra\widgets\imgbtn/lv_imgbtn.c **** }
 225              		.loc 1 173 0
 226 0022 0022     		movs	r2, #0
 227 0024 6C23     		movs	r3, #108
 228 0026 E254     		strb	r2, [r4, r3]
 174:..\..\..\arduinoLCD\test\Pain Drain\libraries\lvgl\src\extra\widgets\imgbtn/lv_imgbtn.c **** 
 229              		.loc 1 174 0
 230              		@ sp needed
 231              	.LVL37:
 232 0028 10BD     		pop	{r4, pc}
 233              		.cfi_endproc
 234              	.LFE208:
 235              		.size	lv_imgbtn_constructor, .-lv_imgbtn_constructor
 236 002a C046     		.section	.text.lv_imgbtn_create,"ax",%progbits
 237              		.align	2
 238              		.global	lv_imgbtn_create
 239              		.code	16
 240              		.thumb_func
 241              		.type	lv_imgbtn_create, %function
 242              	lv_imgbtn_create:
 243              	.LFB202:
  57:..\..\..\arduinoLCD\test\Pain Drain\libraries\lvgl\src\extra\widgets\imgbtn/lv_imgbtn.c ****     LV_LOG_INFO("begin");
 244              		.loc 1 57 0
 245              		.cfi_startproc
 246              		@ args = 0, pretend = 0, frame = 0
 247              		@ frame_needed = 0, uses_anonymous_args = 0
 248              	.LVL38:
 249 0000 10B5     		push	{r4, lr}
 250              		.cfi_def_cfa_offset 8
 251              		.cfi_offset 4, -8
ARM GAS  C:\Users\haske\AppData\Local\Temp\ccc4gGVR.s 			page 12


 252              		.cfi_offset 14, -4
 253 0002 0100     		movs	r1, r0
  59:..\..\..\arduinoLCD\test\Pain Drain\libraries\lvgl\src\extra\widgets\imgbtn/lv_imgbtn.c ****     lv_obj_class_init_obj(obj);
 254              		.loc 1 59 0
 255 0004 0348     		ldr	r0, .L23
 256              	.LVL39:
 257 0006 FFF7FEFF 		bl	lv_obj_class_create_obj
 258              	.LVL40:
 259 000a 0400     		movs	r4, r0
 260              	.LVL41:
  60:..\..\..\arduinoLCD\test\Pain Drain\libraries\lvgl\src\extra\widgets\imgbtn/lv_imgbtn.c ****     return obj;
 261              		.loc 1 60 0
 262 000c FFF7FEFF 		bl	lv_obj_class_init_obj
 263              	.LVL42:
  62:..\..\..\arduinoLCD\test\Pain Drain\libraries\lvgl\src\extra\widgets\imgbtn/lv_imgbtn.c **** 
 264              		.loc 1 62 0
 265 0010 2000     		movs	r0, r4
 266              		@ sp needed
 267              	.LVL43:
 268 0012 10BD     		pop	{r4, pc}
 269              	.L24:
 270              		.align	2
 271              	.L23:
 272 0014 18000000 		.word	.LANCHOR0
 273              		.cfi_endproc
 274              	.LFE202:
 275              		.size	lv_imgbtn_create, .-lv_imgbtn_create
 276              		.section	.text.lv_imgbtn_get_src_left,"ax",%progbits
 277              		.align	2
 278              		.global	lv_imgbtn_get_src_left
 279              		.code	16
 280              		.thumb_func
 281              		.type	lv_imgbtn_get_src_left, %function
 282              	lv_imgbtn_get_src_left:
 283              	.LFB205:
 123:..\..\..\arduinoLCD\test\Pain Drain\libraries\lvgl\src\extra\widgets\imgbtn/lv_imgbtn.c ****     LV_ASSERT_OBJ(obj, MY_CLASS);
 284              		.loc 1 123 0
 285              		.cfi_startproc
 286              		@ args = 0, pretend = 0, frame = 0
 287              		@ frame_needed = 0, uses_anonymous_args = 0
 288              		@ link register save eliminated.
 289              	.LVL44:
 128:..\..\..\arduinoLCD\test\Pain Drain\libraries\lvgl\src\extra\widgets\imgbtn/lv_imgbtn.c **** }
 290              		.loc 1 128 0
 291 0000 0E31     		adds	r1, r1, #14
 292              	.LVL45:
 293 0002 8900     		lsls	r1, r1, #2
 294 0004 4018     		adds	r0, r0, r1
 295              	.LVL46:
 296 0006 4068     		ldr	r0, [r0, #4]
 129:..\..\..\arduinoLCD\test\Pain Drain\libraries\lvgl\src\extra\widgets\imgbtn/lv_imgbtn.c **** 
 297              		.loc 1 129 0
 298              		@ sp needed
 299 0008 7047     		bx	lr
 300              		.cfi_endproc
 301              	.LFE205:
 302              		.size	lv_imgbtn_get_src_left, .-lv_imgbtn_get_src_left
ARM GAS  C:\Users\haske\AppData\Local\Temp\ccc4gGVR.s 			page 13


 303 000a C046     		.section	.text.lv_imgbtn_get_src_middle,"ax",%progbits
 304              		.align	2
 305              		.global	lv_imgbtn_get_src_middle
 306              		.code	16
 307              		.thumb_func
 308              		.type	lv_imgbtn_get_src_middle, %function
 309              	lv_imgbtn_get_src_middle:
 310              	.LFB206:
 138:..\..\..\arduinoLCD\test\Pain Drain\libraries\lvgl\src\extra\widgets\imgbtn/lv_imgbtn.c ****     LV_ASSERT_OBJ(obj, MY_CLASS);
 311              		.loc 1 138 0
 312              		.cfi_startproc
 313              		@ args = 0, pretend = 0, frame = 0
 314              		@ frame_needed = 0, uses_anonymous_args = 0
 315              		@ link register save eliminated.
 316              	.LVL47:
 142:..\..\..\arduinoLCD\test\Pain Drain\libraries\lvgl\src\extra\widgets\imgbtn/lv_imgbtn.c **** }
 317              		.loc 1 142 0
 318 0000 0831     		adds	r1, r1, #8
 319              	.LVL48:
 320 0002 8900     		lsls	r1, r1, #2
 321 0004 4018     		adds	r0, r0, r1
 322              	.LVL49:
 323 0006 4068     		ldr	r0, [r0, #4]
 143:..\..\..\arduinoLCD\test\Pain Drain\libraries\lvgl\src\extra\widgets\imgbtn/lv_imgbtn.c **** 
 324              		.loc 1 143 0
 325              		@ sp needed
 326 0008 7047     		bx	lr
 327              		.cfi_endproc
 328              	.LFE206:
 329              		.size	lv_imgbtn_get_src_middle, .-lv_imgbtn_get_src_middle
 330 000a C046     		.section	.text.lv_imgbtn_get_src_right,"ax",%progbits
 331              		.align	2
 332              		.global	lv_imgbtn_get_src_right
 333              		.code	16
 334              		.thumb_func
 335              		.type	lv_imgbtn_get_src_right, %function
 336              	lv_imgbtn_get_src_right:
 337              	.LFB207:
 152:..\..\..\arduinoLCD\test\Pain Drain\libraries\lvgl\src\extra\widgets\imgbtn/lv_imgbtn.c ****     LV_ASSERT_OBJ(obj, MY_CLASS);
 338              		.loc 1 152 0
 339              		.cfi_startproc
 340              		@ args = 0, pretend = 0, frame = 0
 341              		@ frame_needed = 0, uses_anonymous_args = 0
 342              		@ link register save eliminated.
 343              	.LVL50:
 156:..\..\..\arduinoLCD\test\Pain Drain\libraries\lvgl\src\extra\widgets\imgbtn/lv_imgbtn.c **** }
 344              		.loc 1 156 0
 345 0000 1431     		adds	r1, r1, #20
 346              	.LVL51:
 347 0002 8900     		lsls	r1, r1, #2
 348 0004 4018     		adds	r0, r0, r1
 349              	.LVL52:
 350 0006 4068     		ldr	r0, [r0, #4]
 157:..\..\..\arduinoLCD\test\Pain Drain\libraries\lvgl\src\extra\widgets\imgbtn/lv_imgbtn.c **** 
 351              		.loc 1 157 0
 352              		@ sp needed
 353 0008 7047     		bx	lr
ARM GAS  C:\Users\haske\AppData\Local\Temp\ccc4gGVR.s 			page 14


 354              		.cfi_endproc
 355              	.LFE207:
 356              		.size	lv_imgbtn_get_src_right, .-lv_imgbtn_get_src_right
 357 000a C046     		.section	.text.get_state,"ax",%progbits
 358              		.align	2
 359              		.global	get_state
 360              		.code	16
 361              		.thumb_func
 362              		.type	get_state, %function
 363              	get_state:
 364              	.LFB213:
 355:..\..\..\arduinoLCD\test\Pain Drain\libraries\lvgl\src\extra\widgets\imgbtn/lv_imgbtn.c **** 
 356:..\..\..\arduinoLCD\test\Pain Drain\libraries\lvgl\src\extra\widgets\imgbtn/lv_imgbtn.c **** lv_imgbtn_state_t get_state(const lv_obj_t * imgbtn)
 357:..\..\..\arduinoLCD\test\Pain Drain\libraries\lvgl\src\extra\widgets\imgbtn/lv_imgbtn.c **** {
 365              		.loc 1 357 0
 366              		.cfi_startproc
 367              		@ args = 0, pretend = 0, frame = 0
 368              		@ frame_needed = 0, uses_anonymous_args = 0
 369              	.LVL53:
 370 0000 10B5     		push	{r4, lr}
 371              		.cfi_def_cfa_offset 8
 372              		.cfi_offset 4, -8
 373              		.cfi_offset 14, -4
 358:..\..\..\arduinoLCD\test\Pain Drain\libraries\lvgl\src\extra\widgets\imgbtn/lv_imgbtn.c ****     LV_ASSERT_OBJ(imgbtn, MY_CLASS);
 359:..\..\..\arduinoLCD\test\Pain Drain\libraries\lvgl\src\extra\widgets\imgbtn/lv_imgbtn.c **** 
 360:..\..\..\arduinoLCD\test\Pain Drain\libraries\lvgl\src\extra\widgets\imgbtn/lv_imgbtn.c ****     lv_state_t obj_state = lv_obj_get_state(imgbtn);
 374              		.loc 1 360 0
 375 0002 FFF7FEFF 		bl	lv_obj_get_state
 376              	.LVL54:
 361:..\..\..\arduinoLCD\test\Pain Drain\libraries\lvgl\src\extra\widgets\imgbtn/lv_imgbtn.c **** 
 362:..\..\..\arduinoLCD\test\Pain Drain\libraries\lvgl\src\extra\widgets\imgbtn/lv_imgbtn.c ****     if(obj_state & LV_STATE_DISABLED) {
 377              		.loc 1 362 0
 378 0006 0306     		lsls	r3, r0, #24
 379 0008 03D5     		bpl	.L29
 363:..\..\..\arduinoLCD\test\Pain Drain\libraries\lvgl\src\extra\widgets\imgbtn/lv_imgbtn.c ****         if(obj_state & LV_STATE_CHECKED) return LV_IMGBTN_STATE_CHECKED_DISABLED;
 380              		.loc 1 363 0
 381 000a C307     		lsls	r3, r0, #31
 382 000c 0BD5     		bpl	.L32
 383 000e 0520     		movs	r0, #5
 384              	.LVL55:
 385 0010 0EE0     		b	.L30
 386              	.LVL56:
 387              	.L29:
 364:..\..\..\arduinoLCD\test\Pain Drain\libraries\lvgl\src\extra\widgets\imgbtn/lv_imgbtn.c ****         else return LV_IMGBTN_STATE_DISABLED;
 365:..\..\..\arduinoLCD\test\Pain Drain\libraries\lvgl\src\extra\widgets\imgbtn/lv_imgbtn.c ****     }
 366:..\..\..\arduinoLCD\test\Pain Drain\libraries\lvgl\src\extra\widgets\imgbtn/lv_imgbtn.c **** 
 367:..\..\..\arduinoLCD\test\Pain Drain\libraries\lvgl\src\extra\widgets\imgbtn/lv_imgbtn.c ****     if(obj_state & LV_STATE_CHECKED) {
 388              		.loc 1 367 0
 389 0012 C307     		lsls	r3, r0, #31
 390 0014 03D5     		bpl	.L31
 368:..\..\..\arduinoLCD\test\Pain Drain\libraries\lvgl\src\extra\widgets\imgbtn/lv_imgbtn.c ****         if(obj_state & LV_STATE_PRESSED) return LV_IMGBTN_STATE_CHECKED_PRESSED;
 391              		.loc 1 368 0
 392 0016 8306     		lsls	r3, r0, #26
 393 0018 07D5     		bpl	.L33
 394 001a 0420     		movs	r0, #4
 395              	.LVL57:
 396 001c 08E0     		b	.L30
ARM GAS  C:\Users\haske\AppData\Local\Temp\ccc4gGVR.s 			page 15


 397              	.LVL58:
 398              	.L31:
 369:..\..\..\arduinoLCD\test\Pain Drain\libraries\lvgl\src\extra\widgets\imgbtn/lv_imgbtn.c ****         else return LV_IMGBTN_STATE_CHECKED_RELEASED;
 370:..\..\..\arduinoLCD\test\Pain Drain\libraries\lvgl\src\extra\widgets\imgbtn/lv_imgbtn.c ****     }
 371:..\..\..\arduinoLCD\test\Pain Drain\libraries\lvgl\src\extra\widgets\imgbtn/lv_imgbtn.c ****     else {
 372:..\..\..\arduinoLCD\test\Pain Drain\libraries\lvgl\src\extra\widgets\imgbtn/lv_imgbtn.c ****         if(obj_state & LV_STATE_PRESSED) return LV_IMGBTN_STATE_PRESSED;
 399              		.loc 1 372 0
 400 001e 8306     		lsls	r3, r0, #26
 401 0020 05D5     		bpl	.L34
 402 0022 0120     		movs	r0, #1
 403              	.LVL59:
 404 0024 04E0     		b	.L30
 405              	.LVL60:
 406              	.L32:
 364:..\..\..\arduinoLCD\test\Pain Drain\libraries\lvgl\src\extra\widgets\imgbtn/lv_imgbtn.c ****     }
 407              		.loc 1 364 0
 408 0026 0220     		movs	r0, #2
 409              	.LVL61:
 410 0028 02E0     		b	.L30
 411              	.LVL62:
 412              	.L33:
 369:..\..\..\arduinoLCD\test\Pain Drain\libraries\lvgl\src\extra\widgets\imgbtn/lv_imgbtn.c ****         else return LV_IMGBTN_STATE_CHECKED_RELEASED;
 413              		.loc 1 369 0
 414 002a 0320     		movs	r0, #3
 415              	.LVL63:
 416 002c 00E0     		b	.L30
 417              	.LVL64:
 418              	.L34:
 373:..\..\..\arduinoLCD\test\Pain Drain\libraries\lvgl\src\extra\widgets\imgbtn/lv_imgbtn.c ****         else return LV_IMGBTN_STATE_RELEASED;
 419              		.loc 1 373 0
 420 002e 0020     		movs	r0, #0
 421              	.LVL65:
 422              	.L30:
 374:..\..\..\arduinoLCD\test\Pain Drain\libraries\lvgl\src\extra\widgets\imgbtn/lv_imgbtn.c ****     }
 375:..\..\..\arduinoLCD\test\Pain Drain\libraries\lvgl\src\extra\widgets\imgbtn/lv_imgbtn.c **** }
 423              		.loc 1 375 0
 424              		@ sp needed
 425 0030 10BD     		pop	{r4, pc}
 426              		.cfi_endproc
 427              	.LFE213:
 428              		.size	get_state, .-get_state
 429 0032 C046     		.section	.text.refr_img,"ax",%progbits
 430              		.align	2
 431              		.code	16
 432              		.thumb_func
 433              		.type	refr_img, %function
 434              	refr_img:
 435              	.LFB211:
 295:..\..\..\arduinoLCD\test\Pain Drain\libraries\lvgl\src\extra\widgets\imgbtn/lv_imgbtn.c ****     lv_imgbtn_t * imgbtn = (lv_imgbtn_t *)obj;
 436              		.loc 1 295 0
 437              		.cfi_startproc
 438              		@ args = 0, pretend = 0, frame = 8
 439              		@ frame_needed = 0, uses_anonymous_args = 0
 440              	.LVL66:
 441 0000 10B5     		push	{r4, lr}
 442              		.cfi_def_cfa_offset 8
 443              		.cfi_offset 4, -8
ARM GAS  C:\Users\haske\AppData\Local\Temp\ccc4gGVR.s 			page 16


 444              		.cfi_offset 14, -4
 445 0002 82B0     		sub	sp, sp, #8
 446              		.cfi_def_cfa_offset 16
 447 0004 0400     		movs	r4, r0
 448              	.LVL67:
 297:..\..\..\arduinoLCD\test\Pain Drain\libraries\lvgl\src\extra\widgets\imgbtn/lv_imgbtn.c ****     lv_img_header_t header;
 449              		.loc 1 297 0
 450 0006 FFF7FEFF 		bl	get_state
 451              	.LVL68:
 452 000a 0100     		movs	r1, r0
 453 000c 2000     		movs	r0, r4
 454 000e FFF7FEFF 		bl	suggest_state
 455              	.LVL69:
 300:..\..\..\arduinoLCD\test\Pain Drain\libraries\lvgl\src\extra\widgets\imgbtn/lv_imgbtn.c ****     if(src == NULL) return;
 456              		.loc 1 300 0
 457 0012 0830     		adds	r0, r0, #8
 458              	.LVL70:
 459 0014 8000     		lsls	r0, r0, #2
 460 0016 2018     		adds	r0, r4, r0
 461 0018 4068     		ldr	r0, [r0, #4]
 462              	.LVL71:
 301:..\..\..\arduinoLCD\test\Pain Drain\libraries\lvgl\src\extra\widgets\imgbtn/lv_imgbtn.c **** 
 463              		.loc 1 301 0
 464 001a 0028     		cmp	r0, #0
 465 001c 1AD0     		beq	.L35
 466              	.LVL72:
 304:..\..\..\arduinoLCD\test\Pain Drain\libraries\lvgl\src\extra\widgets\imgbtn/lv_imgbtn.c **** 
 467              		.loc 1 304 0
 468 001e 01A9     		add	r1, sp, #4
 469 0020 FFF7FEFF 		bl	lv_img_decoder_get_info
 470              	.LVL73:
 306:..\..\..\arduinoLCD\test\Pain Drain\libraries\lvgl\src\extra\widgets\imgbtn/lv_imgbtn.c ****         imgbtn->act_cf = header.cf;
 471              		.loc 1 306 0
 472 0024 0128     		cmp	r0, #1
 473 0026 0FD1     		bne	.L37
 307:..\..\..\arduinoLCD\test\Pain Drain\libraries\lvgl\src\extra\widgets\imgbtn/lv_imgbtn.c ****         lv_obj_refresh_self_size(obj);
 474              		.loc 1 307 0
 475 0028 01AB     		add	r3, sp, #4
 476 002a 1B78     		ldrb	r3, [r3]
 477 002c DB06     		lsls	r3, r3, #27
 478 002e DB0E     		lsrs	r3, r3, #27
 479 0030 6C22     		movs	r2, #108
 480 0032 A354     		strb	r3, [r4, r2]
 308:..\..\..\arduinoLCD\test\Pain Drain\libraries\lvgl\src\extra\widgets\imgbtn/lv_imgbtn.c ****         lv_obj_set_height(obj, header.h); /*Keep the user defined width*/
 481              		.loc 1 308 0
 482 0034 2000     		movs	r0, r4
 483              	.LVL74:
 484 0036 FFF7FEFF 		bl	lv_obj_refresh_self_size
 485              	.LVL75:
 309:..\..\..\arduinoLCD\test\Pain Drain\libraries\lvgl\src\extra\widgets\imgbtn/lv_imgbtn.c ****     }
 486              		.loc 1 309 0
 487 003a 6B46     		mov	r3, sp
 488 003c D988     		ldrh	r1, [r3, #6]
 489 003e 4909     		lsrs	r1, r1, #5
 490 0040 2000     		movs	r0, r4
 491 0042 FFF7FEFF 		bl	lv_obj_set_height
 492              	.LVL76:
ARM GAS  C:\Users\haske\AppData\Local\Temp\ccc4gGVR.s 			page 17


 493 0046 02E0     		b	.L38
 494              	.LVL77:
 495              	.L37:
 312:..\..\..\arduinoLCD\test\Pain Drain\libraries\lvgl\src\extra\widgets\imgbtn/lv_imgbtn.c ****     }
 496              		.loc 1 312 0
 497 0048 0022     		movs	r2, #0
 498 004a 6C23     		movs	r3, #108
 499 004c E254     		strb	r2, [r4, r3]
 500              	.LVL78:
 501              	.L38:
 315:..\..\..\arduinoLCD\test\Pain Drain\libraries\lvgl\src\extra\widgets\imgbtn/lv_imgbtn.c **** }
 502              		.loc 1 315 0
 503 004e 2000     		movs	r0, r4
 504 0050 FFF7FEFF 		bl	lv_obj_invalidate
 505              	.LVL79:
 506              	.L35:
 316:..\..\..\arduinoLCD\test\Pain Drain\libraries\lvgl\src\extra\widgets\imgbtn/lv_imgbtn.c **** 
 507              		.loc 1 316 0
 508 0054 02B0     		add	sp, sp, #8
 509              		@ sp needed
 510              	.LVL80:
 511 0056 10BD     		pop	{r4, pc}
 512              		.cfi_endproc
 513              	.LFE211:
 514              		.size	refr_img, .-refr_img
 515              		.section	.text.lv_imgbtn_set_src,"ax",%progbits
 516              		.align	2
 517              		.global	lv_imgbtn_set_src
 518              		.code	16
 519              		.thumb_func
 520              		.type	lv_imgbtn_set_src, %function
 521              	lv_imgbtn_set_src:
 522              	.LFB203:
  81:..\..\..\arduinoLCD\test\Pain Drain\libraries\lvgl\src\extra\widgets\imgbtn/lv_imgbtn.c ****     LV_ASSERT_OBJ(obj, MY_CLASS);
 523              		.loc 1 81 0
 524              		.cfi_startproc
 525              		@ args = 4, pretend = 0, frame = 0
 526              		@ frame_needed = 0, uses_anonymous_args = 0
 527              	.LVL81:
 528 0000 10B5     		push	{r4, lr}
 529              		.cfi_def_cfa_offset 8
 530              		.cfi_offset 4, -8
 531              		.cfi_offset 14, -4
 532              	.LVL82:
  86:..\..\..\arduinoLCD\test\Pain Drain\libraries\lvgl\src\extra\widgets\imgbtn/lv_imgbtn.c ****     imgbtn->img_src_mid[state] = src_mid;
 533              		.loc 1 86 0
 534 0002 0C00     		movs	r4, r1
 535 0004 0E34     		adds	r4, r4, #14
 536 0006 A400     		lsls	r4, r4, #2
 537 0008 0419     		adds	r4, r0, r4
 538 000a 6260     		str	r2, [r4, #4]
  87:..\..\..\arduinoLCD\test\Pain Drain\libraries\lvgl\src\extra\widgets\imgbtn/lv_imgbtn.c ****     imgbtn->img_src_right[state] = src_right;
 539              		.loc 1 87 0
 540 000c 0A00     		movs	r2, r1
 541              	.LVL83:
 542 000e 0832     		adds	r2, r2, #8
 543 0010 9200     		lsls	r2, r2, #2
ARM GAS  C:\Users\haske\AppData\Local\Temp\ccc4gGVR.s 			page 18


 544 0012 8218     		adds	r2, r0, r2
 545 0014 5360     		str	r3, [r2, #4]
 546              	.LVL84:
  88:..\..\..\arduinoLCD\test\Pain Drain\libraries\lvgl\src\extra\widgets\imgbtn/lv_imgbtn.c **** 
 547              		.loc 1 88 0
 548 0016 1431     		adds	r1, r1, #20
 549              	.LVL85:
 550 0018 8900     		lsls	r1, r1, #2
 551 001a 4118     		adds	r1, r0, r1
 552 001c 029B     		ldr	r3, [sp, #8]
 553              	.LVL86:
 554 001e 4B60     		str	r3, [r1, #4]
 555              	.LVL87:
  90:..\..\..\arduinoLCD\test\Pain Drain\libraries\lvgl\src\extra\widgets\imgbtn/lv_imgbtn.c **** }
 556              		.loc 1 90 0
 557 0020 FFF7FEFF 		bl	refr_img
 558              	.LVL88:
  91:..\..\..\arduinoLCD\test\Pain Drain\libraries\lvgl\src\extra\widgets\imgbtn/lv_imgbtn.c **** 
 559              		.loc 1 91 0
 560              		@ sp needed
 561 0024 10BD     		pop	{r4, pc}
 562              		.cfi_endproc
 563              	.LFE203:
 564              		.size	lv_imgbtn_set_src, .-lv_imgbtn_set_src
 565 0026 C046     		.section	.text.lv_imgbtn_set_state,"ax",%progbits
 566              		.align	2
 567              		.global	lv_imgbtn_set_state
 568              		.code	16
 569              		.thumb_func
 570              		.type	lv_imgbtn_set_state, %function
 571              	lv_imgbtn_set_state:
 572              	.LFB204:
  94:..\..\..\arduinoLCD\test\Pain Drain\libraries\lvgl\src\extra\widgets\imgbtn/lv_imgbtn.c ****     LV_ASSERT_OBJ(obj, MY_CLASS);
 573              		.loc 1 94 0
 574              		.cfi_startproc
 575              		@ args = 0, pretend = 0, frame = 0
 576              		@ frame_needed = 0, uses_anonymous_args = 0
 577              	.LVL89:
 578 0000 70B5     		push	{r4, r5, r6, lr}
 579              		.cfi_def_cfa_offset 16
 580              		.cfi_offset 4, -16
 581              		.cfi_offset 5, -12
 582              		.cfi_offset 6, -8
 583              		.cfi_offset 14, -4
 584 0002 0400     		movs	r4, r0
 585              	.LVL90:
  98:..\..\..\arduinoLCD\test\Pain Drain\libraries\lvgl\src\extra\widgets\imgbtn/lv_imgbtn.c ****     if(state == LV_IMGBTN_STATE_DISABLED || state == LV_IMGBTN_STATE_CHECKED_DISABLED) obj_state |=
 586              		.loc 1 98 0
 587 0004 0129     		cmp	r1, #1
 588 0006 03D0     		beq	.L46
  98:..\..\..\arduinoLCD\test\Pain Drain\libraries\lvgl\src\extra\widgets\imgbtn/lv_imgbtn.c ****     if(state == LV_IMGBTN_STATE_DISABLED || state == LV_IMGBTN_STATE_CHECKED_DISABLED) obj_state |=
 589              		.loc 1 98 0 is_stmt 0 discriminator 2
 590 0008 0429     		cmp	r1, #4
 591 000a 03D0     		beq	.L47
  97:..\..\..\arduinoLCD\test\Pain Drain\libraries\lvgl\src\extra\widgets\imgbtn/lv_imgbtn.c ****     if(state == LV_IMGBTN_STATE_PRESSED || state == LV_IMGBTN_STATE_CHECKED_PRESSED) obj_state |= L
 592              		.loc 1 97 0 is_stmt 1
 593 000c 0025     		movs	r5, #0
ARM GAS  C:\Users\haske\AppData\Local\Temp\ccc4gGVR.s 			page 19


 594 000e 02E0     		b	.L42
 595              	.L46:
  98:..\..\..\arduinoLCD\test\Pain Drain\libraries\lvgl\src\extra\widgets\imgbtn/lv_imgbtn.c ****     if(state == LV_IMGBTN_STATE_DISABLED || state == LV_IMGBTN_STATE_CHECKED_DISABLED) obj_state |=
 596              		.loc 1 98 0
 597 0010 2025     		movs	r5, #32
 598 0012 00E0     		b	.L42
 599              	.L47:
 600 0014 2025     		movs	r5, #32
 601              	.L42:
 602              	.LVL91:
  99:..\..\..\arduinoLCD\test\Pain Drain\libraries\lvgl\src\extra\widgets\imgbtn/lv_imgbtn.c ****     if(state == LV_IMGBTN_STATE_CHECKED_DISABLED || state == LV_IMGBTN_STATE_CHECKED_PRESSED ||
 603              		.loc 1 99 0
 604 0016 0229     		cmp	r1, #2
 605 0018 01D0     		beq	.L43
  99:..\..\..\arduinoLCD\test\Pain Drain\libraries\lvgl\src\extra\widgets\imgbtn/lv_imgbtn.c ****     if(state == LV_IMGBTN_STATE_CHECKED_DISABLED || state == LV_IMGBTN_STATE_CHECKED_PRESSED ||
 606              		.loc 1 99 0 is_stmt 0 discriminator 2
 607 001a 0529     		cmp	r1, #5
 608 001c 02D1     		bne	.L44
 609              	.L43:
  99:..\..\..\arduinoLCD\test\Pain Drain\libraries\lvgl\src\extra\widgets\imgbtn/lv_imgbtn.c ****     if(state == LV_IMGBTN_STATE_CHECKED_DISABLED || state == LV_IMGBTN_STATE_CHECKED_PRESSED ||
 610              		.loc 1 99 0 discriminator 3
 611 001e 8023     		movs	r3, #128
 612 0020 1D43     		orrs	r5, r3
 613              	.LVL92:
 614 0022 ADB2     		uxth	r5, r5
 615              	.LVL93:
 616              	.L44:
 100:..\..\..\arduinoLCD\test\Pain Drain\libraries\lvgl\src\extra\widgets\imgbtn/lv_imgbtn.c ****        state == LV_IMGBTN_STATE_CHECKED_RELEASED) {
 617              		.loc 1 100 0 is_stmt 1
 618 0024 0339     		subs	r1, r1, #3
 619              	.LVL94:
 620 0026 C9B2     		uxtb	r1, r1
 621 0028 0229     		cmp	r1, #2
 622 002a 02D8     		bhi	.L45
 102:..\..\..\arduinoLCD\test\Pain Drain\libraries\lvgl\src\extra\widgets\imgbtn/lv_imgbtn.c ****     }
 623              		.loc 1 102 0
 624 002c 0123     		movs	r3, #1
 625 002e 1D43     		orrs	r5, r3
 626              	.LVL95:
 627 0030 ADB2     		uxth	r5, r5
 628              	.LVL96:
 629              	.L45:
 105:..\..\..\arduinoLCD\test\Pain Drain\libraries\lvgl\src\extra\widgets\imgbtn/lv_imgbtn.c ****     lv_obj_add_state(obj, obj_state);
 630              		.loc 1 105 0
 631 0032 A121     		movs	r1, #161
 632 0034 2000     		movs	r0, r4
 633              	.LVL97:
 634 0036 FFF7FEFF 		bl	lv_obj_clear_state
 635              	.LVL98:
 106:..\..\..\arduinoLCD\test\Pain Drain\libraries\lvgl\src\extra\widgets\imgbtn/lv_imgbtn.c **** 
 636              		.loc 1 106 0
 637 003a 2900     		movs	r1, r5
 638 003c 2000     		movs	r0, r4
 639 003e FFF7FEFF 		bl	lv_obj_add_state
 640              	.LVL99:
 108:..\..\..\arduinoLCD\test\Pain Drain\libraries\lvgl\src\extra\widgets\imgbtn/lv_imgbtn.c **** }
 641              		.loc 1 108 0
ARM GAS  C:\Users\haske\AppData\Local\Temp\ccc4gGVR.s 			page 20


 642 0042 2000     		movs	r0, r4
 643 0044 FFF7FEFF 		bl	refr_img
 644              	.LVL100:
 109:..\..\..\arduinoLCD\test\Pain Drain\libraries\lvgl\src\extra\widgets\imgbtn/lv_imgbtn.c **** 
 645              		.loc 1 109 0
 646              		@ sp needed
 647              	.LVL101:
 648              	.LVL102:
 649 0048 70BD     		pop	{r4, r5, r6, pc}
 650              		.cfi_endproc
 651              	.LFE204:
 652              		.size	lv_imgbtn_set_state, .-lv_imgbtn_set_state
 653 004a C046     		.section	.text.draw_main,"ax",%progbits
 654              		.align	2
 655              		.code	16
 656              		.thumb_func
 657              		.type	draw_main, %function
 658              	draw_main:
 659              	.LFB210:
 211:..\..\..\arduinoLCD\test\Pain Drain\libraries\lvgl\src\extra\widgets\imgbtn/lv_imgbtn.c ****     lv_obj_t * obj = lv_event_get_target(e);
 660              		.loc 1 211 0
 661              		.cfi_startproc
 662              		@ args = 0, pretend = 0, frame = 64
 663              		@ frame_needed = 0, uses_anonymous_args = 0
 664              	.LVL103:
 665 0000 F0B5     		push	{r4, r5, r6, r7, lr}
 666              		.cfi_def_cfa_offset 20
 667              		.cfi_offset 4, -20
 668              		.cfi_offset 5, -16
 669              		.cfi_offset 6, -12
 670              		.cfi_offset 7, -8
 671              		.cfi_offset 14, -4
 672 0002 5F46     		mov	r7, fp
 673 0004 5646     		mov	r6, r10
 674 0006 4D46     		mov	r5, r9
 675 0008 4446     		mov	r4, r8
 676 000a F0B4     		push	{r4, r5, r6, r7}
 677              		.cfi_def_cfa_offset 36
 678              		.cfi_offset 8, -36
 679              		.cfi_offset 9, -32
 680              		.cfi_offset 10, -28
 681              		.cfi_offset 11, -24
 682 000c 91B0     		sub	sp, sp, #68
 683              		.cfi_def_cfa_offset 104
 684 000e 0500     		movs	r5, r0
 212:..\..\..\arduinoLCD\test\Pain Drain\libraries\lvgl\src\extra\widgets\imgbtn/lv_imgbtn.c ****     lv_imgbtn_t * imgbtn = (lv_imgbtn_t *)obj;
 685              		.loc 1 212 0
 686 0010 FFF7FEFF 		bl	lv_event_get_target
 687              	.LVL104:
 688 0014 0400     		movs	r4, r0
 689              	.LVL105:
 214:..\..\..\arduinoLCD\test\Pain Drain\libraries\lvgl\src\extra\widgets\imgbtn/lv_imgbtn.c **** 
 690              		.loc 1 214 0
 691 0016 2800     		movs	r0, r5
 692              	.LVL106:
 693 0018 FFF7FEFF 		bl	lv_event_get_draw_ctx
 694              	.LVL107:
ARM GAS  C:\Users\haske\AppData\Local\Temp\ccc4gGVR.s 			page 21


 695 001c 8146     		mov	r9, r0
 696              	.LVL108:
 217:..\..\..\arduinoLCD\test\Pain Drain\libraries\lvgl\src\extra\widgets\imgbtn/lv_imgbtn.c **** 
 697              		.loc 1 217 0
 698 001e 2000     		movs	r0, r4
 699              	.LVL109:
 700 0020 FFF7FEFF 		bl	get_state
 701              	.LVL110:
 702 0024 0100     		movs	r1, r0
 703 0026 2000     		movs	r0, r4
 704 0028 FFF7FEFF 		bl	suggest_state
 705              	.LVL111:
 706 002c 0500     		movs	r5, r0
 707              	.LVL112:
 220:..\..\..\arduinoLCD\test\Pain Drain\libraries\lvgl\src\extra\widgets\imgbtn/lv_imgbtn.c **** 
 708              		.loc 1 220 0
 709 002e 0300     		movs	r3, r0
 710 0030 0E33     		adds	r3, r3, #14
 711 0032 9B00     		lsls	r3, r3, #2
 712 0034 E318     		adds	r3, r4, r3
 713 0036 5B68     		ldr	r3, [r3, #4]
 714 0038 9B46     		mov	fp, r3
 715              	.LVL113:
 716              	.LBB10:
 717              	.LBB11:
 718              		.file 2 "c:\\projects\\paindrain\\arduinolcd\\test\\pain drain\\libraries\\lvgl\\src/core/lv_obj_s
   1:c:\projects\paindrain\arduinolcd\test\pain drain\libraries\lvgl\src/core\lv_obj_style_gen.h **** static inline lv_coord_t lv_obj_get_style_width(const struct _lv_obj_t * obj, uint32_t part)
   2:c:\projects\paindrain\arduinolcd\test\pain drain\libraries\lvgl\src/core\lv_obj_style_gen.h **** {
   3:c:\projects\paindrain\arduinolcd\test\pain drain\libraries\lvgl\src/core\lv_obj_style_gen.h ****     lv_style_value_t v = lv_obj_get_style_prop(obj, part, LV_STYLE_WIDTH);
   4:c:\projects\paindrain\arduinolcd\test\pain drain\libraries\lvgl\src/core\lv_obj_style_gen.h ****     return (lv_coord_t)v.num;
   5:c:\projects\paindrain\arduinolcd\test\pain drain\libraries\lvgl\src/core\lv_obj_style_gen.h **** }
   6:c:\projects\paindrain\arduinolcd\test\pain drain\libraries\lvgl\src/core\lv_obj_style_gen.h **** 
   7:c:\projects\paindrain\arduinolcd\test\pain drain\libraries\lvgl\src/core\lv_obj_style_gen.h **** static inline lv_coord_t lv_obj_get_style_min_width(const struct _lv_obj_t * obj, uint32_t part)
   8:c:\projects\paindrain\arduinolcd\test\pain drain\libraries\lvgl\src/core\lv_obj_style_gen.h **** {
   9:c:\projects\paindrain\arduinolcd\test\pain drain\libraries\lvgl\src/core\lv_obj_style_gen.h ****     lv_style_value_t v = lv_obj_get_style_prop(obj, part, LV_STYLE_MIN_WIDTH);
  10:c:\projects\paindrain\arduinolcd\test\pain drain\libraries\lvgl\src/core\lv_obj_style_gen.h ****     return (lv_coord_t)v.num;
  11:c:\projects\paindrain\arduinolcd\test\pain drain\libraries\lvgl\src/core\lv_obj_style_gen.h **** }
  12:c:\projects\paindrain\arduinolcd\test\pain drain\libraries\lvgl\src/core\lv_obj_style_gen.h **** 
  13:c:\projects\paindrain\arduinolcd\test\pain drain\libraries\lvgl\src/core\lv_obj_style_gen.h **** static inline lv_coord_t lv_obj_get_style_max_width(const struct _lv_obj_t * obj, uint32_t part)
  14:c:\projects\paindrain\arduinolcd\test\pain drain\libraries\lvgl\src/core\lv_obj_style_gen.h **** {
  15:c:\projects\paindrain\arduinolcd\test\pain drain\libraries\lvgl\src/core\lv_obj_style_gen.h ****     lv_style_value_t v = lv_obj_get_style_prop(obj, part, LV_STYLE_MAX_WIDTH);
  16:c:\projects\paindrain\arduinolcd\test\pain drain\libraries\lvgl\src/core\lv_obj_style_gen.h ****     return (lv_coord_t)v.num;
  17:c:\projects\paindrain\arduinolcd\test\pain drain\libraries\lvgl\src/core\lv_obj_style_gen.h **** }
  18:c:\projects\paindrain\arduinolcd\test\pain drain\libraries\lvgl\src/core\lv_obj_style_gen.h **** 
  19:c:\projects\paindrain\arduinolcd\test\pain drain\libraries\lvgl\src/core\lv_obj_style_gen.h **** static inline lv_coord_t lv_obj_get_style_height(const struct _lv_obj_t * obj, uint32_t part)
  20:c:\projects\paindrain\arduinolcd\test\pain drain\libraries\lvgl\src/core\lv_obj_style_gen.h **** {
  21:c:\projects\paindrain\arduinolcd\test\pain drain\libraries\lvgl\src/core\lv_obj_style_gen.h ****     lv_style_value_t v = lv_obj_get_style_prop(obj, part, LV_STYLE_HEIGHT);
  22:c:\projects\paindrain\arduinolcd\test\pain drain\libraries\lvgl\src/core\lv_obj_style_gen.h ****     return (lv_coord_t)v.num;
  23:c:\projects\paindrain\arduinolcd\test\pain drain\libraries\lvgl\src/core\lv_obj_style_gen.h **** }
  24:c:\projects\paindrain\arduinolcd\test\pain drain\libraries\lvgl\src/core\lv_obj_style_gen.h **** 
  25:c:\projects\paindrain\arduinolcd\test\pain drain\libraries\lvgl\src/core\lv_obj_style_gen.h **** static inline lv_coord_t lv_obj_get_style_min_height(const struct _lv_obj_t * obj, uint32_t part)
  26:c:\projects\paindrain\arduinolcd\test\pain drain\libraries\lvgl\src/core\lv_obj_style_gen.h **** {
  27:c:\projects\paindrain\arduinolcd\test\pain drain\libraries\lvgl\src/core\lv_obj_style_gen.h ****     lv_style_value_t v = lv_obj_get_style_prop(obj, part, LV_STYLE_MIN_HEIGHT);
  28:c:\projects\paindrain\arduinolcd\test\pain drain\libraries\lvgl\src/core\lv_obj_style_gen.h ****     return (lv_coord_t)v.num;
  29:c:\projects\paindrain\arduinolcd\test\pain drain\libraries\lvgl\src/core\lv_obj_style_gen.h **** }
  30:c:\projects\paindrain\arduinolcd\test\pain drain\libraries\lvgl\src/core\lv_obj_style_gen.h **** 
  31:c:\projects\paindrain\arduinolcd\test\pain drain\libraries\lvgl\src/core\lv_obj_style_gen.h **** static inline lv_coord_t lv_obj_get_style_max_height(const struct _lv_obj_t * obj, uint32_t part)
ARM GAS  C:\Users\haske\AppData\Local\Temp\ccc4gGVR.s 			page 22


  32:c:\projects\paindrain\arduinolcd\test\pain drain\libraries\lvgl\src/core\lv_obj_style_gen.h **** {
  33:c:\projects\paindrain\arduinolcd\test\pain drain\libraries\lvgl\src/core\lv_obj_style_gen.h ****     lv_style_value_t v = lv_obj_get_style_prop(obj, part, LV_STYLE_MAX_HEIGHT);
  34:c:\projects\paindrain\arduinolcd\test\pain drain\libraries\lvgl\src/core\lv_obj_style_gen.h ****     return (lv_coord_t)v.num;
  35:c:\projects\paindrain\arduinolcd\test\pain drain\libraries\lvgl\src/core\lv_obj_style_gen.h **** }
  36:c:\projects\paindrain\arduinolcd\test\pain drain\libraries\lvgl\src/core\lv_obj_style_gen.h **** 
  37:c:\projects\paindrain\arduinolcd\test\pain drain\libraries\lvgl\src/core\lv_obj_style_gen.h **** static inline lv_coord_t lv_obj_get_style_x(const struct _lv_obj_t * obj, uint32_t part)
  38:c:\projects\paindrain\arduinolcd\test\pain drain\libraries\lvgl\src/core\lv_obj_style_gen.h **** {
  39:c:\projects\paindrain\arduinolcd\test\pain drain\libraries\lvgl\src/core\lv_obj_style_gen.h ****     lv_style_value_t v = lv_obj_get_style_prop(obj, part, LV_STYLE_X);
  40:c:\projects\paindrain\arduinolcd\test\pain drain\libraries\lvgl\src/core\lv_obj_style_gen.h ****     return (lv_coord_t)v.num;
  41:c:\projects\paindrain\arduinolcd\test\pain drain\libraries\lvgl\src/core\lv_obj_style_gen.h **** }
  42:c:\projects\paindrain\arduinolcd\test\pain drain\libraries\lvgl\src/core\lv_obj_style_gen.h **** 
  43:c:\projects\paindrain\arduinolcd\test\pain drain\libraries\lvgl\src/core\lv_obj_style_gen.h **** static inline lv_coord_t lv_obj_get_style_y(const struct _lv_obj_t * obj, uint32_t part)
  44:c:\projects\paindrain\arduinolcd\test\pain drain\libraries\lvgl\src/core\lv_obj_style_gen.h **** {
  45:c:\projects\paindrain\arduinolcd\test\pain drain\libraries\lvgl\src/core\lv_obj_style_gen.h ****     lv_style_value_t v = lv_obj_get_style_prop(obj, part, LV_STYLE_Y);
  46:c:\projects\paindrain\arduinolcd\test\pain drain\libraries\lvgl\src/core\lv_obj_style_gen.h ****     return (lv_coord_t)v.num;
  47:c:\projects\paindrain\arduinolcd\test\pain drain\libraries\lvgl\src/core\lv_obj_style_gen.h **** }
  48:c:\projects\paindrain\arduinolcd\test\pain drain\libraries\lvgl\src/core\lv_obj_style_gen.h **** 
  49:c:\projects\paindrain\arduinolcd\test\pain drain\libraries\lvgl\src/core\lv_obj_style_gen.h **** static inline lv_align_t lv_obj_get_style_align(const struct _lv_obj_t * obj, uint32_t part)
  50:c:\projects\paindrain\arduinolcd\test\pain drain\libraries\lvgl\src/core\lv_obj_style_gen.h **** {
  51:c:\projects\paindrain\arduinolcd\test\pain drain\libraries\lvgl\src/core\lv_obj_style_gen.h ****     lv_style_value_t v = lv_obj_get_style_prop(obj, part, LV_STYLE_ALIGN);
  52:c:\projects\paindrain\arduinolcd\test\pain drain\libraries\lvgl\src/core\lv_obj_style_gen.h ****     return (lv_align_t)v.num;
  53:c:\projects\paindrain\arduinolcd\test\pain drain\libraries\lvgl\src/core\lv_obj_style_gen.h **** }
  54:c:\projects\paindrain\arduinolcd\test\pain drain\libraries\lvgl\src/core\lv_obj_style_gen.h **** 
  55:c:\projects\paindrain\arduinolcd\test\pain drain\libraries\lvgl\src/core\lv_obj_style_gen.h **** static inline lv_coord_t lv_obj_get_style_transform_width(const struct _lv_obj_t * obj, uint32_t pa
  56:c:\projects\paindrain\arduinolcd\test\pain drain\libraries\lvgl\src/core\lv_obj_style_gen.h **** {
  57:c:\projects\paindrain\arduinolcd\test\pain drain\libraries\lvgl\src/core\lv_obj_style_gen.h ****     lv_style_value_t v = lv_obj_get_style_prop(obj, part, LV_STYLE_TRANSFORM_WIDTH);
 719              		.loc 2 57 0
 720 003a 6822     		movs	r2, #104
 721 003c 0021     		movs	r1, #0
 722 003e 2000     		movs	r0, r4
 723              	.LVL114:
 724 0040 FFF7FEFF 		bl	lv_obj_get_style_prop
 725              	.LVL115:
 726 0044 0600     		movs	r6, r0
 727              	.LVL116:
 728              	.LBE11:
 729              	.LBE10:
 730              	.LBB12:
 731              	.LBB13:
  58:c:\projects\paindrain\arduinolcd\test\pain drain\libraries\lvgl\src/core\lv_obj_style_gen.h ****     return (lv_coord_t)v.num;
  59:c:\projects\paindrain\arduinolcd\test\pain drain\libraries\lvgl\src/core\lv_obj_style_gen.h **** }
  60:c:\projects\paindrain\arduinolcd\test\pain drain\libraries\lvgl\src/core\lv_obj_style_gen.h **** 
  61:c:\projects\paindrain\arduinolcd\test\pain drain\libraries\lvgl\src/core\lv_obj_style_gen.h **** static inline lv_coord_t lv_obj_get_style_transform_height(const struct _lv_obj_t * obj, uint32_t p
  62:c:\projects\paindrain\arduinolcd\test\pain drain\libraries\lvgl\src/core\lv_obj_style_gen.h **** {
  63:c:\projects\paindrain\arduinolcd\test\pain drain\libraries\lvgl\src/core\lv_obj_style_gen.h ****     lv_style_value_t v = lv_obj_get_style_prop(obj, part, LV_STYLE_TRANSFORM_HEIGHT);
 732              		.loc 2 63 0
 733 0046 6922     		movs	r2, #105
 734 0048 0021     		movs	r1, #0
 735 004a 2000     		movs	r0, r4
 736 004c FFF7FEFF 		bl	lv_obj_get_style_prop
 737              	.LVL117:
 738              	.LBE13:
 739              	.LBE12:
 740              	.LBB14:
 741              	.LBB15:
 742              		.file 3 "c:\\projects\\paindrain\\arduinolcd\\test\\pain drain\\libraries\\lvgl\\src\\misc\\lv_are
   1:c:\projects\paindrain\arduinolcd\test\pain drain\libraries\lvgl\src\misc\lv_area.h **** /**
ARM GAS  C:\Users\haske\AppData\Local\Temp\ccc4gGVR.s 			page 23


   2:c:\projects\paindrain\arduinolcd\test\pain drain\libraries\lvgl\src\misc\lv_area.h ****  * @file lv_area.h
   3:c:\projects\paindrain\arduinolcd\test\pain drain\libraries\lvgl\src\misc\lv_area.h ****  *
   4:c:\projects\paindrain\arduinolcd\test\pain drain\libraries\lvgl\src\misc\lv_area.h ****  */
   5:c:\projects\paindrain\arduinolcd\test\pain drain\libraries\lvgl\src\misc\lv_area.h **** 
   6:c:\projects\paindrain\arduinolcd\test\pain drain\libraries\lvgl\src\misc\lv_area.h **** #ifndef LV_AREA_H
   7:c:\projects\paindrain\arduinolcd\test\pain drain\libraries\lvgl\src\misc\lv_area.h **** #define LV_AREA_H
   8:c:\projects\paindrain\arduinolcd\test\pain drain\libraries\lvgl\src\misc\lv_area.h **** 
   9:c:\projects\paindrain\arduinolcd\test\pain drain\libraries\lvgl\src\misc\lv_area.h **** #ifdef __cplusplus
  10:c:\projects\paindrain\arduinolcd\test\pain drain\libraries\lvgl\src\misc\lv_area.h **** extern "C" {
  11:c:\projects\paindrain\arduinolcd\test\pain drain\libraries\lvgl\src\misc\lv_area.h **** #endif
  12:c:\projects\paindrain\arduinolcd\test\pain drain\libraries\lvgl\src\misc\lv_area.h **** 
  13:c:\projects\paindrain\arduinolcd\test\pain drain\libraries\lvgl\src\misc\lv_area.h **** /*********************
  14:c:\projects\paindrain\arduinolcd\test\pain drain\libraries\lvgl\src\misc\lv_area.h ****  *      INCLUDES
  15:c:\projects\paindrain\arduinolcd\test\pain drain\libraries\lvgl\src\misc\lv_area.h ****  *********************/
  16:c:\projects\paindrain\arduinolcd\test\pain drain\libraries\lvgl\src\misc\lv_area.h **** #include "../lv_conf_internal.h"
  17:c:\projects\paindrain\arduinolcd\test\pain drain\libraries\lvgl\src\misc\lv_area.h **** #include <stdbool.h>
  18:c:\projects\paindrain\arduinolcd\test\pain drain\libraries\lvgl\src\misc\lv_area.h **** #include <stdint.h>
  19:c:\projects\paindrain\arduinolcd\test\pain drain\libraries\lvgl\src\misc\lv_area.h **** 
  20:c:\projects\paindrain\arduinolcd\test\pain drain\libraries\lvgl\src\misc\lv_area.h **** /*********************
  21:c:\projects\paindrain\arduinolcd\test\pain drain\libraries\lvgl\src\misc\lv_area.h ****  *      DEFINES
  22:c:\projects\paindrain\arduinolcd\test\pain drain\libraries\lvgl\src\misc\lv_area.h ****  *********************/
  23:c:\projects\paindrain\arduinolcd\test\pain drain\libraries\lvgl\src\misc\lv_area.h **** 
  24:c:\projects\paindrain\arduinolcd\test\pain drain\libraries\lvgl\src\misc\lv_area.h **** #if LV_USE_LARGE_COORD
  25:c:\projects\paindrain\arduinolcd\test\pain drain\libraries\lvgl\src\misc\lv_area.h **** typedef int32_t lv_coord_t;
  26:c:\projects\paindrain\arduinolcd\test\pain drain\libraries\lvgl\src\misc\lv_area.h **** #else
  27:c:\projects\paindrain\arduinolcd\test\pain drain\libraries\lvgl\src\misc\lv_area.h **** typedef int16_t lv_coord_t;
  28:c:\projects\paindrain\arduinolcd\test\pain drain\libraries\lvgl\src\misc\lv_area.h **** #endif
  29:c:\projects\paindrain\arduinolcd\test\pain drain\libraries\lvgl\src\misc\lv_area.h **** 
  30:c:\projects\paindrain\arduinolcd\test\pain drain\libraries\lvgl\src\misc\lv_area.h **** /**********************
  31:c:\projects\paindrain\arduinolcd\test\pain drain\libraries\lvgl\src\misc\lv_area.h ****  *      TYPEDEFS
  32:c:\projects\paindrain\arduinolcd\test\pain drain\libraries\lvgl\src\misc\lv_area.h ****  **********************/
  33:c:\projects\paindrain\arduinolcd\test\pain drain\libraries\lvgl\src\misc\lv_area.h **** 
  34:c:\projects\paindrain\arduinolcd\test\pain drain\libraries\lvgl\src\misc\lv_area.h **** /**
  35:c:\projects\paindrain\arduinolcd\test\pain drain\libraries\lvgl\src\misc\lv_area.h ****  * Represents a point on the screen.
  36:c:\projects\paindrain\arduinolcd\test\pain drain\libraries\lvgl\src\misc\lv_area.h ****  */
  37:c:\projects\paindrain\arduinolcd\test\pain drain\libraries\lvgl\src\misc\lv_area.h **** typedef struct {
  38:c:\projects\paindrain\arduinolcd\test\pain drain\libraries\lvgl\src\misc\lv_area.h ****     lv_coord_t x;
  39:c:\projects\paindrain\arduinolcd\test\pain drain\libraries\lvgl\src\misc\lv_area.h ****     lv_coord_t y;
  40:c:\projects\paindrain\arduinolcd\test\pain drain\libraries\lvgl\src\misc\lv_area.h **** } lv_point_t;
  41:c:\projects\paindrain\arduinolcd\test\pain drain\libraries\lvgl\src\misc\lv_area.h **** 
  42:c:\projects\paindrain\arduinolcd\test\pain drain\libraries\lvgl\src\misc\lv_area.h **** /** Represents an area of the screen.*/
  43:c:\projects\paindrain\arduinolcd\test\pain drain\libraries\lvgl\src\misc\lv_area.h **** typedef struct {
  44:c:\projects\paindrain\arduinolcd\test\pain drain\libraries\lvgl\src\misc\lv_area.h ****     lv_coord_t x1;
  45:c:\projects\paindrain\arduinolcd\test\pain drain\libraries\lvgl\src\misc\lv_area.h ****     lv_coord_t y1;
  46:c:\projects\paindrain\arduinolcd\test\pain drain\libraries\lvgl\src\misc\lv_area.h ****     lv_coord_t x2;
  47:c:\projects\paindrain\arduinolcd\test\pain drain\libraries\lvgl\src\misc\lv_area.h ****     lv_coord_t y2;
  48:c:\projects\paindrain\arduinolcd\test\pain drain\libraries\lvgl\src\misc\lv_area.h **** } lv_area_t;
  49:c:\projects\paindrain\arduinolcd\test\pain drain\libraries\lvgl\src\misc\lv_area.h **** 
  50:c:\projects\paindrain\arduinolcd\test\pain drain\libraries\lvgl\src\misc\lv_area.h **** /** Alignments*/
  51:c:\projects\paindrain\arduinolcd\test\pain drain\libraries\lvgl\src\misc\lv_area.h **** enum {
  52:c:\projects\paindrain\arduinolcd\test\pain drain\libraries\lvgl\src\misc\lv_area.h ****     LV_ALIGN_DEFAULT = 0,
  53:c:\projects\paindrain\arduinolcd\test\pain drain\libraries\lvgl\src\misc\lv_area.h ****     LV_ALIGN_TOP_LEFT,
  54:c:\projects\paindrain\arduinolcd\test\pain drain\libraries\lvgl\src\misc\lv_area.h ****     LV_ALIGN_TOP_MID,
  55:c:\projects\paindrain\arduinolcd\test\pain drain\libraries\lvgl\src\misc\lv_area.h ****     LV_ALIGN_TOP_RIGHT,
  56:c:\projects\paindrain\arduinolcd\test\pain drain\libraries\lvgl\src\misc\lv_area.h ****     LV_ALIGN_BOTTOM_LEFT,
  57:c:\projects\paindrain\arduinolcd\test\pain drain\libraries\lvgl\src\misc\lv_area.h ****     LV_ALIGN_BOTTOM_MID,
  58:c:\projects\paindrain\arduinolcd\test\pain drain\libraries\lvgl\src\misc\lv_area.h ****     LV_ALIGN_BOTTOM_RIGHT,
ARM GAS  C:\Users\haske\AppData\Local\Temp\ccc4gGVR.s 			page 24


  59:c:\projects\paindrain\arduinolcd\test\pain drain\libraries\lvgl\src\misc\lv_area.h ****     LV_ALIGN_LEFT_MID,
  60:c:\projects\paindrain\arduinolcd\test\pain drain\libraries\lvgl\src\misc\lv_area.h ****     LV_ALIGN_RIGHT_MID,
  61:c:\projects\paindrain\arduinolcd\test\pain drain\libraries\lvgl\src\misc\lv_area.h ****     LV_ALIGN_CENTER,
  62:c:\projects\paindrain\arduinolcd\test\pain drain\libraries\lvgl\src\misc\lv_area.h **** 
  63:c:\projects\paindrain\arduinolcd\test\pain drain\libraries\lvgl\src\misc\lv_area.h ****     LV_ALIGN_OUT_TOP_LEFT,
  64:c:\projects\paindrain\arduinolcd\test\pain drain\libraries\lvgl\src\misc\lv_area.h ****     LV_ALIGN_OUT_TOP_MID,
  65:c:\projects\paindrain\arduinolcd\test\pain drain\libraries\lvgl\src\misc\lv_area.h ****     LV_ALIGN_OUT_TOP_RIGHT,
  66:c:\projects\paindrain\arduinolcd\test\pain drain\libraries\lvgl\src\misc\lv_area.h ****     LV_ALIGN_OUT_BOTTOM_LEFT,
  67:c:\projects\paindrain\arduinolcd\test\pain drain\libraries\lvgl\src\misc\lv_area.h ****     LV_ALIGN_OUT_BOTTOM_MID,
  68:c:\projects\paindrain\arduinolcd\test\pain drain\libraries\lvgl\src\misc\lv_area.h ****     LV_ALIGN_OUT_BOTTOM_RIGHT,
  69:c:\projects\paindrain\arduinolcd\test\pain drain\libraries\lvgl\src\misc\lv_area.h ****     LV_ALIGN_OUT_LEFT_TOP,
  70:c:\projects\paindrain\arduinolcd\test\pain drain\libraries\lvgl\src\misc\lv_area.h ****     LV_ALIGN_OUT_LEFT_MID,
  71:c:\projects\paindrain\arduinolcd\test\pain drain\libraries\lvgl\src\misc\lv_area.h ****     LV_ALIGN_OUT_LEFT_BOTTOM,
  72:c:\projects\paindrain\arduinolcd\test\pain drain\libraries\lvgl\src\misc\lv_area.h ****     LV_ALIGN_OUT_RIGHT_TOP,
  73:c:\projects\paindrain\arduinolcd\test\pain drain\libraries\lvgl\src\misc\lv_area.h ****     LV_ALIGN_OUT_RIGHT_MID,
  74:c:\projects\paindrain\arduinolcd\test\pain drain\libraries\lvgl\src\misc\lv_area.h ****     LV_ALIGN_OUT_RIGHT_BOTTOM,
  75:c:\projects\paindrain\arduinolcd\test\pain drain\libraries\lvgl\src\misc\lv_area.h **** };
  76:c:\projects\paindrain\arduinolcd\test\pain drain\libraries\lvgl\src\misc\lv_area.h **** typedef uint8_t lv_align_t;
  77:c:\projects\paindrain\arduinolcd\test\pain drain\libraries\lvgl\src\misc\lv_area.h **** 
  78:c:\projects\paindrain\arduinolcd\test\pain drain\libraries\lvgl\src\misc\lv_area.h **** enum {
  79:c:\projects\paindrain\arduinolcd\test\pain drain\libraries\lvgl\src\misc\lv_area.h ****     LV_DIR_NONE     = 0x00,
  80:c:\projects\paindrain\arduinolcd\test\pain drain\libraries\lvgl\src\misc\lv_area.h ****     LV_DIR_LEFT     = (1 << 0),
  81:c:\projects\paindrain\arduinolcd\test\pain drain\libraries\lvgl\src\misc\lv_area.h ****     LV_DIR_RIGHT    = (1 << 1),
  82:c:\projects\paindrain\arduinolcd\test\pain drain\libraries\lvgl\src\misc\lv_area.h ****     LV_DIR_TOP      = (1 << 2),
  83:c:\projects\paindrain\arduinolcd\test\pain drain\libraries\lvgl\src\misc\lv_area.h ****     LV_DIR_BOTTOM   = (1 << 3),
  84:c:\projects\paindrain\arduinolcd\test\pain drain\libraries\lvgl\src\misc\lv_area.h ****     LV_DIR_HOR      = LV_DIR_LEFT | LV_DIR_RIGHT,
  85:c:\projects\paindrain\arduinolcd\test\pain drain\libraries\lvgl\src\misc\lv_area.h ****     LV_DIR_VER      = LV_DIR_TOP | LV_DIR_BOTTOM,
  86:c:\projects\paindrain\arduinolcd\test\pain drain\libraries\lvgl\src\misc\lv_area.h ****     LV_DIR_ALL      = LV_DIR_HOR | LV_DIR_VER,
  87:c:\projects\paindrain\arduinolcd\test\pain drain\libraries\lvgl\src\misc\lv_area.h **** };
  88:c:\projects\paindrain\arduinolcd\test\pain drain\libraries\lvgl\src\misc\lv_area.h **** 
  89:c:\projects\paindrain\arduinolcd\test\pain drain\libraries\lvgl\src\misc\lv_area.h **** typedef uint8_t lv_dir_t;
  90:c:\projects\paindrain\arduinolcd\test\pain drain\libraries\lvgl\src\misc\lv_area.h **** 
  91:c:\projects\paindrain\arduinolcd\test\pain drain\libraries\lvgl\src\misc\lv_area.h **** /**********************
  92:c:\projects\paindrain\arduinolcd\test\pain drain\libraries\lvgl\src\misc\lv_area.h ****  * GLOBAL PROTOTYPES
  93:c:\projects\paindrain\arduinolcd\test\pain drain\libraries\lvgl\src\misc\lv_area.h ****  **********************/
  94:c:\projects\paindrain\arduinolcd\test\pain drain\libraries\lvgl\src\misc\lv_area.h **** 
  95:c:\projects\paindrain\arduinolcd\test\pain drain\libraries\lvgl\src\misc\lv_area.h **** /**
  96:c:\projects\paindrain\arduinolcd\test\pain drain\libraries\lvgl\src\misc\lv_area.h ****  * Initialize an area
  97:c:\projects\paindrain\arduinolcd\test\pain drain\libraries\lvgl\src\misc\lv_area.h ****  * @param area_p pointer to an area
  98:c:\projects\paindrain\arduinolcd\test\pain drain\libraries\lvgl\src\misc\lv_area.h ****  * @param x1 left coordinate of the area
  99:c:\projects\paindrain\arduinolcd\test\pain drain\libraries\lvgl\src\misc\lv_area.h ****  * @param y1 top coordinate of the area
 100:c:\projects\paindrain\arduinolcd\test\pain drain\libraries\lvgl\src\misc\lv_area.h ****  * @param x2 right coordinate of the area
 101:c:\projects\paindrain\arduinolcd\test\pain drain\libraries\lvgl\src\misc\lv_area.h ****  * @param y2 bottom coordinate of the area
 102:c:\projects\paindrain\arduinolcd\test\pain drain\libraries\lvgl\src\misc\lv_area.h ****  */
 103:c:\projects\paindrain\arduinolcd\test\pain drain\libraries\lvgl\src\misc\lv_area.h **** void lv_area_set(lv_area_t * area_p, lv_coord_t x1, lv_coord_t y1, lv_coord_t x2, lv_coord_t y2);
 104:c:\projects\paindrain\arduinolcd\test\pain drain\libraries\lvgl\src\misc\lv_area.h **** 
 105:c:\projects\paindrain\arduinolcd\test\pain drain\libraries\lvgl\src\misc\lv_area.h **** /**
 106:c:\projects\paindrain\arduinolcd\test\pain drain\libraries\lvgl\src\misc\lv_area.h ****  * Copy an area
 107:c:\projects\paindrain\arduinolcd\test\pain drain\libraries\lvgl\src\misc\lv_area.h ****  * @param dest pointer to the destination area
 108:c:\projects\paindrain\arduinolcd\test\pain drain\libraries\lvgl\src\misc\lv_area.h ****  * @param src pointer to the source area
 109:c:\projects\paindrain\arduinolcd\test\pain drain\libraries\lvgl\src\misc\lv_area.h ****  */
 110:c:\projects\paindrain\arduinolcd\test\pain drain\libraries\lvgl\src\misc\lv_area.h **** inline static void lv_area_copy(lv_area_t * dest, const lv_area_t * src)
 111:c:\projects\paindrain\arduinolcd\test\pain drain\libraries\lvgl\src\misc\lv_area.h **** {
 112:c:\projects\paindrain\arduinolcd\test\pain drain\libraries\lvgl\src\misc\lv_area.h ****     dest->x1 = src->x1;
 743              		.loc 3 112 0
 744 0050 1423     		movs	r3, #20
 745 0052 E75E     		ldrsh	r7, [r4, r3]
ARM GAS  C:\Users\haske\AppData\Local\Temp\ccc4gGVR.s 			page 25


 113:c:\projects\paindrain\arduinolcd\test\pain drain\libraries\lvgl\src\misc\lv_area.h ****     dest->y1 = src->y1;
 746              		.loc 3 113 0
 747 0054 1623     		movs	r3, #22
 748 0056 E25E     		ldrsh	r2, [r4, r3]
 749 0058 9246     		mov	r10, r2
 114:c:\projects\paindrain\arduinolcd\test\pain drain\libraries\lvgl\src\misc\lv_area.h ****     dest->x2 = src->x2;
 750              		.loc 3 114 0
 751 005a 1823     		movs	r3, #24
 752 005c E15E     		ldrsh	r1, [r4, r3]
 115:c:\projects\paindrain\arduinolcd\test\pain drain\libraries\lvgl\src\misc\lv_area.h ****     dest->y2 = src->y2;
 753              		.loc 3 115 0
 754 005e 1A23     		movs	r3, #26
 755 0060 E25E     		ldrsh	r2, [r4, r3]
 756 0062 9446     		mov	ip, r2
 757              	.LVL118:
 758              	.LBE15:
 759              	.LBE14:
 226:..\..\..\arduinoLCD\test\Pain Drain\libraries\lvgl\src\extra\widgets\imgbtn/lv_imgbtn.c ****     coords.x2 += tw;
 760              		.loc 1 226 0
 761 0064 B6B2     		uxth	r6, r6
 762 0066 BF1B     		subs	r7, r7, r6
 763 0068 BFB2     		uxth	r7, r7
 764 006a 3BB2     		sxth	r3, r7
 765 006c 9846     		mov	r8, r3
 227:..\..\..\arduinoLCD\test\Pain Drain\libraries\lvgl\src\extra\widgets\imgbtn/lv_imgbtn.c ****     coords.y1 -= th;
 766              		.loc 1 227 0
 767 006e 7618     		adds	r6, r6, r1
 768 0070 B1B2     		uxth	r1, r6
 769 0072 0091     		str	r1, [sp]
 770 0074 0BB2     		sxth	r3, r1
 771 0076 0393     		str	r3, [sp, #12]
 772              	.LVL119:
 228:..\..\..\arduinoLCD\test\Pain Drain\libraries\lvgl\src\extra\widgets\imgbtn/lv_imgbtn.c ****     coords.y2 += th;
 773              		.loc 1 228 0
 774 0078 80B2     		uxth	r0, r0
 775 007a 5346     		mov	r3, r10
 776 007c 1E1A     		subs	r6, r3, r0
 777 007e B6B2     		uxth	r6, r6
 778 0080 33B2     		sxth	r3, r6
 779 0082 9A46     		mov	r10, r3
 229:..\..\..\arduinoLCD\test\Pain Drain\libraries\lvgl\src\extra\widgets\imgbtn/lv_imgbtn.c **** 
 780              		.loc 1 229 0
 781 0084 6044     		add	r0, r0, ip
 782 0086 03B2     		sxth	r3, r0
 783 0088 0193     		str	r3, [sp, #4]
 232:..\..\..\arduinoLCD\test\Pain Drain\libraries\lvgl\src\extra\widgets\imgbtn/lv_imgbtn.c ****     lv_obj_init_draw_img_dsc(obj, LV_PART_MAIN, &img_dsc);
 784              		.loc 1 232 0
 785 008a 0AA8     		add	r0, sp, #40
 786 008c FFF7FEFF 		bl	lv_draw_img_dsc_init
 787              	.LVL120:
 233:..\..\..\arduinoLCD\test\Pain Drain\libraries\lvgl\src\extra\widgets\imgbtn/lv_imgbtn.c **** 
 788              		.loc 1 233 0
 789 0090 0AAA     		add	r2, sp, #40
 790 0092 0021     		movs	r1, #0
 791 0094 2000     		movs	r0, r4
 792 0096 FFF7FEFF 		bl	lv_obj_init_draw_img_dsc
 793              	.LVL121:
ARM GAS  C:\Users\haske\AppData\Local\Temp\ccc4gGVR.s 			page 26


 240:..\..\..\arduinoLCD\test\Pain Drain\libraries\lvgl\src\extra\widgets\imgbtn/lv_imgbtn.c ****         lv_img_decoder_get_info(src, &header);
 794              		.loc 1 240 0
 795 009a 5B46     		mov	r3, fp
 796 009c 002B     		cmp	r3, #0
 797 009e 20D0     		beq	.L55
 241:..\..\..\arduinoLCD\test\Pain Drain\libraries\lvgl\src\extra\widgets\imgbtn/lv_imgbtn.c ****         left_w = header.w;
 798              		.loc 1 241 0
 799 00a0 09A9     		add	r1, sp, #36
 800 00a2 5846     		mov	r0, fp
 801 00a4 FFF7FEFF 		bl	lv_img_decoder_get_info
 802              	.LVL122:
 242:..\..\..\arduinoLCD\test\Pain Drain\libraries\lvgl\src\extra\widgets\imgbtn/lv_imgbtn.c ****         coords_part.x1 = coords.x1;
 803              		.loc 1 242 0
 804 00a8 099B     		ldr	r3, [sp, #36]
 805 00aa DB02     		lsls	r3, r3, #11
 806 00ac 5B0D     		lsrs	r3, r3, #21
 807 00ae 99B2     		uxth	r1, r3
 808 00b0 1BB2     		sxth	r3, r3
 809 00b2 0293     		str	r3, [sp, #8]
 810              	.LVL123:
 243:..\..\..\arduinoLCD\test\Pain Drain\libraries\lvgl\src\extra\widgets\imgbtn/lv_imgbtn.c ****         coords_part.y1 = coords.y1;
 811              		.loc 1 243 0
 812 00b4 07AA     		add	r2, sp, #28
 813 00b6 4346     		mov	r3, r8
 814              	.LVL124:
 815 00b8 1380     		strh	r3, [r2]
 244:..\..\..\arduinoLCD\test\Pain Drain\libraries\lvgl\src\extra\widgets\imgbtn/lv_imgbtn.c ****         coords_part.x2 = coords.x1 + header.w - 1;
 816              		.loc 1 244 0
 817 00ba 5346     		mov	r3, r10
 818 00bc 5380     		strh	r3, [r2, #2]
 245:..\..\..\arduinoLCD\test\Pain Drain\libraries\lvgl\src\extra\widgets\imgbtn/lv_imgbtn.c ****         coords_part.y2 = coords.y1 + header.h - 1;
 819              		.loc 1 245 0
 820 00be CB19     		adds	r3, r1, r7
 821 00c0 013B     		subs	r3, r3, #1
 822 00c2 9380     		strh	r3, [r2, #4]
 246:..\..\..\arduinoLCD\test\Pain Drain\libraries\lvgl\src\extra\widgets\imgbtn/lv_imgbtn.c ****         lv_draw_img(draw_ctx, &img_dsc, &coords_part, src);
 823              		.loc 1 246 0
 824 00c4 1623     		movs	r3, #22
 825 00c6 04A9     		add	r1, sp, #16
 826 00c8 8C46     		mov	ip, r1
 827 00ca 6344     		add	r3, r3, ip
 828 00cc 1B88     		ldrh	r3, [r3]
 829 00ce 5B09     		lsrs	r3, r3, #5
 830 00d0 9B19     		adds	r3, r3, r6
 831 00d2 013B     		subs	r3, r3, #1
 832 00d4 D380     		strh	r3, [r2, #6]
 247:..\..\..\arduinoLCD\test\Pain Drain\libraries\lvgl\src\extra\widgets\imgbtn/lv_imgbtn.c ****     }
 833              		.loc 1 247 0
 834 00d6 5B46     		mov	r3, fp
 835 00d8 0AA9     		add	r1, sp, #40
 836 00da 4846     		mov	r0, r9
 837 00dc FFF7FEFF 		bl	lv_draw_img
 838              	.LVL125:
 839 00e0 01E0     		b	.L49
 840              	.LVL126:
 841              	.L55:
 237:..\..\..\arduinoLCD\test\Pain Drain\libraries\lvgl\src\extra\widgets\imgbtn/lv_imgbtn.c ****     lv_coord_t right_w = 0;
ARM GAS  C:\Users\haske\AppData\Local\Temp\ccc4gGVR.s 			page 27


 842              		.loc 1 237 0
 843 00e2 0023     		movs	r3, #0
 844              	.LVL127:
 845 00e4 0293     		str	r3, [sp, #8]
 846              	.LVL128:
 847              	.L49:
 250:..\..\..\arduinoLCD\test\Pain Drain\libraries\lvgl\src\extra\widgets\imgbtn/lv_imgbtn.c ****     if(src) {
 848              		.loc 1 250 0
 849 00e6 2B00     		movs	r3, r5
 850 00e8 1433     		adds	r3, r3, #20
 851 00ea 9B00     		lsls	r3, r3, #2
 852 00ec E318     		adds	r3, r4, r3
 853 00ee 5B68     		ldr	r3, [r3, #4]
 854 00f0 9B46     		mov	fp, r3
 855              	.LVL129:
 251:..\..\..\arduinoLCD\test\Pain Drain\libraries\lvgl\src\extra\widgets\imgbtn/lv_imgbtn.c ****         lv_img_decoder_get_info(src, &header);
 856              		.loc 1 251 0
 857 00f2 002B     		cmp	r3, #0
 858 00f4 22D0     		beq	.L56
 252:..\..\..\arduinoLCD\test\Pain Drain\libraries\lvgl\src\extra\widgets\imgbtn/lv_imgbtn.c ****         right_w = header.w;
 859              		.loc 1 252 0
 860 00f6 09A9     		add	r1, sp, #36
 861 00f8 1800     		movs	r0, r3
 862 00fa FFF7FEFF 		bl	lv_img_decoder_get_info
 863              	.LVL130:
 253:..\..\..\arduinoLCD\test\Pain Drain\libraries\lvgl\src\extra\widgets\imgbtn/lv_imgbtn.c ****         coords_part.x1 = coords.x2 - header.w + 1;
 864              		.loc 1 253 0
 865 00fe 099B     		ldr	r3, [sp, #36]
 866 0100 DB02     		lsls	r3, r3, #11
 867 0102 5B0D     		lsrs	r3, r3, #21
 868 0104 99B2     		uxth	r1, r3
 869 0106 1BB2     		sxth	r3, r3
 870 0108 9846     		mov	r8, r3
 871              	.LVL131:
 254:..\..\..\arduinoLCD\test\Pain Drain\libraries\lvgl\src\extra\widgets\imgbtn/lv_imgbtn.c ****         coords_part.y1 = coords.y1;
 872              		.loc 1 254 0
 873 010a 07AA     		add	r2, sp, #28
 874 010c 009B     		ldr	r3, [sp]
 875              	.LVL132:
 876 010e 5B1A     		subs	r3, r3, r1
 877 0110 0133     		adds	r3, r3, #1
 878 0112 1380     		strh	r3, [r2]
 255:..\..\..\arduinoLCD\test\Pain Drain\libraries\lvgl\src\extra\widgets\imgbtn/lv_imgbtn.c ****         coords_part.x2 = coords.x2;
 879              		.loc 1 255 0
 880 0114 5346     		mov	r3, r10
 881 0116 5380     		strh	r3, [r2, #2]
 256:..\..\..\arduinoLCD\test\Pain Drain\libraries\lvgl\src\extra\widgets\imgbtn/lv_imgbtn.c ****         coords_part.y2 = coords.y1 + header.h - 1;
 882              		.loc 1 256 0
 883 0118 6B46     		mov	r3, sp
 884 011a 9B89     		ldrh	r3, [r3, #12]
 885 011c 9380     		strh	r3, [r2, #4]
 257:..\..\..\arduinoLCD\test\Pain Drain\libraries\lvgl\src\extra\widgets\imgbtn/lv_imgbtn.c ****         lv_draw_img(draw_ctx, &img_dsc, &coords_part, src);
 886              		.loc 1 257 0
 887 011e 1623     		movs	r3, #22
 888 0120 04A9     		add	r1, sp, #16
 889 0122 8C46     		mov	ip, r1
 890 0124 6344     		add	r3, r3, ip
ARM GAS  C:\Users\haske\AppData\Local\Temp\ccc4gGVR.s 			page 28


 891 0126 1B88     		ldrh	r3, [r3]
 892 0128 5B09     		lsrs	r3, r3, #5
 893 012a 9B19     		adds	r3, r3, r6
 894 012c 013B     		subs	r3, r3, #1
 895 012e D380     		strh	r3, [r2, #6]
 258:..\..\..\arduinoLCD\test\Pain Drain\libraries\lvgl\src\extra\widgets\imgbtn/lv_imgbtn.c ****     }
 896              		.loc 1 258 0
 897 0130 5B46     		mov	r3, fp
 898 0132 0AA9     		add	r1, sp, #40
 899 0134 4846     		mov	r0, r9
 900 0136 FFF7FEFF 		bl	lv_draw_img
 901              	.LVL133:
 902 013a 01E0     		b	.L50
 903              	.LVL134:
 904              	.L56:
 238:..\..\..\arduinoLCD\test\Pain Drain\libraries\lvgl\src\extra\widgets\imgbtn/lv_imgbtn.c **** 
 905              		.loc 1 238 0
 906 013c 0023     		movs	r3, #0
 907              	.LVL135:
 908 013e 9846     		mov	r8, r3
 909              	.LVL136:
 910              	.L50:
 261:..\..\..\arduinoLCD\test\Pain Drain\libraries\lvgl\src\extra\widgets\imgbtn/lv_imgbtn.c ****     if(src) {
 911              		.loc 1 261 0
 912 0140 0835     		adds	r5, r5, #8
 913 0142 AD00     		lsls	r5, r5, #2
 914 0144 6419     		adds	r4, r4, r5
 915              	.LVL137:
 916 0146 6468     		ldr	r4, [r4, #4]
 917              	.LVL138:
 262:..\..\..\arduinoLCD\test\Pain Drain\libraries\lvgl\src\extra\widgets\imgbtn/lv_imgbtn.c ****         lv_area_t clip_area_center;
 918              		.loc 1 262 0
 919 0148 002C     		cmp	r4, #0
 920 014a 53D0     		beq	.L48
 921              	.LBB16:
 264:..\..\..\arduinoLCD\test\Pain Drain\libraries\lvgl\src\extra\widgets\imgbtn/lv_imgbtn.c ****         clip_area_center.x2 = coords.x2 - right_w;
 922              		.loc 1 264 0
 923 014c 029B     		ldr	r3, [sp, #8]
 924 014e 9C46     		mov	ip, r3
 925 0150 6744     		add	r7, r7, ip
 926 0152 BFB2     		uxth	r7, r7
 927 0154 3DB2     		sxth	r5, r7
 928 0156 05A8     		add	r0, sp, #20
 929 0158 0580     		strh	r5, [r0]
 265:..\..\..\arduinoLCD\test\Pain Drain\libraries\lvgl\src\extra\widgets\imgbtn/lv_imgbtn.c ****         clip_area_center.y1 = coords.y1;
 930              		.loc 1 265 0
 931 015a 009B     		ldr	r3, [sp]
 932 015c 4246     		mov	r2, r8
 933 015e 9B1A     		subs	r3, r3, r2
 934 0160 8380     		strh	r3, [r0, #4]
 266:..\..\..\arduinoLCD\test\Pain Drain\libraries\lvgl\src\extra\widgets\imgbtn/lv_imgbtn.c ****         clip_area_center.y2 = coords.y2;
 935              		.loc 1 266 0
 936 0162 5346     		mov	r3, r10
 937 0164 4380     		strh	r3, [r0, #2]
 267:..\..\..\arduinoLCD\test\Pain Drain\libraries\lvgl\src\extra\widgets\imgbtn/lv_imgbtn.c **** 
 938              		.loc 1 267 0
 939 0166 6B46     		mov	r3, sp
ARM GAS  C:\Users\haske\AppData\Local\Temp\ccc4gGVR.s 			page 29


 940 0168 9B88     		ldrh	r3, [r3, #4]
 941 016a C380     		strh	r3, [r0, #6]
 271:..\..\..\arduinoLCD\test\Pain Drain\libraries\lvgl\src\extra\widgets\imgbtn/lv_imgbtn.c ****         if(comm_res) {
 942              		.loc 1 271 0
 943 016c 4B46     		mov	r3, r9
 944 016e 9A68     		ldr	r2, [r3, #8]
 945 0170 0100     		movs	r1, r0
 946 0172 FFF7FEFF 		bl	_lv_area_intersect
 947              	.LVL139:
 272:..\..\..\arduinoLCD\test\Pain Drain\libraries\lvgl\src\extra\widgets\imgbtn/lv_imgbtn.c ****             lv_coord_t i;
 948              		.loc 1 272 0
 949 0176 0028     		cmp	r0, #0
 950 0178 3CD0     		beq	.L48
 951              	.LBB17:
 274:..\..\..\arduinoLCD\test\Pain Drain\libraries\lvgl\src\extra\widgets\imgbtn/lv_imgbtn.c **** 
 952              		.loc 1 274 0
 953 017a 09A9     		add	r1, sp, #36
 954 017c 2000     		movs	r0, r4
 955              	.LVL140:
 956 017e FFF7FEFF 		bl	lv_img_decoder_get_info
 957              	.LVL141:
 276:..\..\..\arduinoLCD\test\Pain Drain\libraries\lvgl\src\extra\widgets\imgbtn/lv_imgbtn.c ****             draw_ctx->clip_area = &clip_area_center;
 958              		.loc 1 276 0
 959 0182 4B46     		mov	r3, r9
 960 0184 9B68     		ldr	r3, [r3, #8]
 961 0186 9846     		mov	r8, r3
 962              	.LVL142:
 277:..\..\..\arduinoLCD\test\Pain Drain\libraries\lvgl\src\extra\widgets\imgbtn/lv_imgbtn.c **** 
 963              		.loc 1 277 0
 964 0188 05AB     		add	r3, sp, #20
 965              	.LVL143:
 966 018a 4A46     		mov	r2, r9
 967 018c 9360     		str	r3, [r2, #8]
 279:..\..\..\arduinoLCD\test\Pain Drain\libraries\lvgl\src\extra\widgets\imgbtn/lv_imgbtn.c ****             coords_part.y1 = coords.y1;
 968              		.loc 1 279 0
 969 018e 07AB     		add	r3, sp, #28
 970 0190 1D80     		strh	r5, [r3]
 280:..\..\..\arduinoLCD\test\Pain Drain\libraries\lvgl\src\extra\widgets\imgbtn/lv_imgbtn.c ****             coords_part.x2 = coords_part.x1 + header.w - 1;
 971              		.loc 1 280 0
 972 0192 5246     		mov	r2, r10
 973 0194 5A80     		strh	r2, [r3, #2]
 281:..\..\..\arduinoLCD\test\Pain Drain\libraries\lvgl\src\extra\widgets\imgbtn/lv_imgbtn.c ****             coords_part.y2 = coords_part.y1 + header.h - 1;
 974              		.loc 1 281 0
 975 0196 099A     		ldr	r2, [sp, #36]
 976 0198 D202     		lsls	r2, r2, #11
 977 019a 520D     		lsrs	r2, r2, #21
 978 019c D719     		adds	r7, r2, r7
 979 019e 013F     		subs	r7, r7, #1
 980 01a0 9F80     		strh	r7, [r3, #4]
 282:..\..\..\arduinoLCD\test\Pain Drain\libraries\lvgl\src\extra\widgets\imgbtn/lv_imgbtn.c **** 
 981              		.loc 1 282 0
 982 01a2 1622     		movs	r2, #22
 983 01a4 04A9     		add	r1, sp, #16
 984 01a6 8C46     		mov	ip, r1
 985 01a8 6244     		add	r2, r2, ip
 986 01aa 1288     		ldrh	r2, [r2]
 987 01ac 5209     		lsrs	r2, r2, #5
ARM GAS  C:\Users\haske\AppData\Local\Temp\ccc4gGVR.s 			page 30


 988 01ae 9619     		adds	r6, r2, r6
 989 01b0 013E     		subs	r6, r6, #1
 990 01b2 DE80     		strh	r6, [r3, #6]
 991              	.LVL144:
 992 01b4 4F46     		mov	r7, r9
 284:..\..\..\arduinoLCD\test\Pain Drain\libraries\lvgl\src\extra\widgets\imgbtn/lv_imgbtn.c ****                 lv_draw_img(draw_ctx, &img_dsc, &coords_part, src);
 993              		.loc 1 284 0
 994 01b6 10E0     		b	.L53
 995              	.LVL145:
 996              	.L54:
 285:..\..\..\arduinoLCD\test\Pain Drain\libraries\lvgl\src\extra\widgets\imgbtn/lv_imgbtn.c ****                 coords_part.x1 = coords_part.x2 + 1;
 997              		.loc 1 285 0 discriminator 3
 998 01b8 07AE     		add	r6, sp, #28
 999 01ba 2300     		movs	r3, r4
 1000 01bc 3200     		movs	r2, r6
 1001 01be 0AA9     		add	r1, sp, #40
 1002 01c0 3800     		movs	r0, r7
 1003 01c2 FFF7FEFF 		bl	lv_draw_img
 1004              	.LVL146:
 286:..\..\..\arduinoLCD\test\Pain Drain\libraries\lvgl\src\extra\widgets\imgbtn/lv_imgbtn.c ****                 coords_part.x2 += header.w;
 1005              		.loc 1 286 0 discriminator 3
 1006 01c6 B288     		ldrh	r2, [r6, #4]
 1007 01c8 531C     		adds	r3, r2, #1
 1008 01ca 3380     		strh	r3, [r6]
 287:..\..\..\arduinoLCD\test\Pain Drain\libraries\lvgl\src\extra\widgets\imgbtn/lv_imgbtn.c ****             }
 1009              		.loc 1 287 0 discriminator 3
 1010 01cc 099B     		ldr	r3, [sp, #36]
 1011 01ce DB02     		lsls	r3, r3, #11
 1012 01d0 5B0D     		lsrs	r3, r3, #21
 1013 01d2 D218     		adds	r2, r2, r3
 1014 01d4 B280     		strh	r2, [r6, #4]
 284:..\..\..\arduinoLCD\test\Pain Drain\libraries\lvgl\src\extra\widgets\imgbtn/lv_imgbtn.c ****                 lv_draw_img(draw_ctx, &img_dsc, &coords_part, src);
 1015              		.loc 1 284 0 discriminator 3
 1016 01d6 5B19     		adds	r3, r3, r5
 1017 01d8 1DB2     		sxth	r5, r3
 1018              	.LVL147:
 1019              	.L53:
 284:..\..\..\arduinoLCD\test\Pain Drain\libraries\lvgl\src\extra\widgets\imgbtn/lv_imgbtn.c ****                 lv_draw_img(draw_ctx, &img_dsc, &coords_part, src);
 1020              		.loc 1 284 0 is_stmt 0 discriminator 1
 1021 01da 05AB     		add	r3, sp, #20
 1022 01dc 0422     		movs	r2, #4
 1023 01de 9A5E     		ldrsh	r2, [r3, r2]
 1024 01e0 099B     		ldr	r3, [sp, #36]
 1025 01e2 DB02     		lsls	r3, r3, #11
 1026 01e4 5B0D     		lsrs	r3, r3, #21
 1027 01e6 9B18     		adds	r3, r3, r2
 1028 01e8 013B     		subs	r3, r3, #1
 1029 01ea 1BB2     		sxth	r3, r3
 1030 01ec 9D42     		cmp	r5, r3
 1031 01ee E3DB     		blt	.L54
 289:..\..\..\arduinoLCD\test\Pain Drain\libraries\lvgl\src\extra\widgets\imgbtn/lv_imgbtn.c ****         }
 1032              		.loc 1 289 0 is_stmt 1
 1033 01f0 4246     		mov	r2, r8
 1034 01f2 BA60     		str	r2, [r7, #8]
 1035              	.LVL148:
 1036              	.L48:
 1037              	.LBE17:
ARM GAS  C:\Users\haske\AppData\Local\Temp\ccc4gGVR.s 			page 31


 1038              	.LBE16:
 292:..\..\..\arduinoLCD\test\Pain Drain\libraries\lvgl\src\extra\widgets\imgbtn/lv_imgbtn.c **** 
 1039              		.loc 1 292 0
 1040 01f4 11B0     		add	sp, sp, #68
 1041              		@ sp needed
 1042              	.LVL149:
 1043              	.LVL150:
 1044 01f6 3CBC     		pop	{r2, r3, r4, r5}
 1045 01f8 9046     		mov	r8, r2
 1046 01fa 9946     		mov	r9, r3
 1047 01fc A246     		mov	r10, r4
 1048 01fe AB46     		mov	fp, r5
 1049 0200 F0BD     		pop	{r4, r5, r6, r7, pc}
 1050              		.cfi_endproc
 1051              	.LFE210:
 1052              		.size	draw_main, .-draw_main
 1053 0202 C046     		.section	.text.lv_imgbtn_event,"ax",%progbits
 1054              		.align	2
 1055              		.code	16
 1056              		.thumb_func
 1057              		.type	lv_imgbtn_event, %function
 1058              	lv_imgbtn_event:
 1059              	.LFB209:
 178:..\..\..\arduinoLCD\test\Pain Drain\libraries\lvgl\src\extra\widgets\imgbtn/lv_imgbtn.c ****     LV_UNUSED(class_p);
 1060              		.loc 1 178 0
 1061              		.cfi_startproc
 1062              		@ args = 0, pretend = 0, frame = 8
 1063              		@ frame_needed = 0, uses_anonymous_args = 0
 1064              	.LVL151:
 1065 0000 70B5     		push	{r4, r5, r6, lr}
 1066              		.cfi_def_cfa_offset 16
 1067              		.cfi_offset 4, -16
 1068              		.cfi_offset 5, -12
 1069              		.cfi_offset 6, -8
 1070              		.cfi_offset 14, -4
 1071 0002 82B0     		sub	sp, sp, #8
 1072              		.cfi_def_cfa_offset 24
 1073 0004 0C00     		movs	r4, r1
 181:..\..\..\arduinoLCD\test\Pain Drain\libraries\lvgl\src\extra\widgets\imgbtn/lv_imgbtn.c ****     if(res != LV_RES_OK) return;
 1074              		.loc 1 181 0
 1075 0006 2C48     		ldr	r0, .L64
 1076              	.LVL152:
 1077 0008 FFF7FEFF 		bl	lv_obj_event_base
 1078              	.LVL153:
 182:..\..\..\arduinoLCD\test\Pain Drain\libraries\lvgl\src\extra\widgets\imgbtn/lv_imgbtn.c **** 
 1079              		.loc 1 182 0
 1080 000c 0128     		cmp	r0, #1
 1081 000e 51D1     		bne	.L57
 184:..\..\..\arduinoLCD\test\Pain Drain\libraries\lvgl\src\extra\widgets\imgbtn/lv_imgbtn.c ****     lv_obj_t * obj = lv_event_get_target(e);
 1082              		.loc 1 184 0
 1083 0010 2000     		movs	r0, r4
 1084              	.LVL154:
 1085 0012 FFF7FEFF 		bl	lv_event_get_code
 1086              	.LVL155:
 1087 0016 0500     		movs	r5, r0
 1088              	.LVL156:
 185:..\..\..\arduinoLCD\test\Pain Drain\libraries\lvgl\src\extra\widgets\imgbtn/lv_imgbtn.c ****     if(code == LV_EVENT_PRESSED || code == LV_EVENT_RELEASED || code == LV_EVENT_PRESS_LOST) {
ARM GAS  C:\Users\haske\AppData\Local\Temp\ccc4gGVR.s 			page 32


 1089              		.loc 1 185 0
 1090 0018 2000     		movs	r0, r4
 1091              	.LVL157:
 1092 001a FFF7FEFF 		bl	lv_event_get_target
 1093              	.LVL158:
 1094 001e 0600     		movs	r6, r0
 1095              	.LVL159:
 186:..\..\..\arduinoLCD\test\Pain Drain\libraries\lvgl\src\extra\widgets\imgbtn/lv_imgbtn.c ****         refr_img(obj);
 1096              		.loc 1 186 0
 1097 0020 012D     		cmp	r5, #1
 1098 0022 03D0     		beq	.L59
 186:..\..\..\arduinoLCD\test\Pain Drain\libraries\lvgl\src\extra\widgets\imgbtn/lv_imgbtn.c ****         refr_img(obj);
 1099              		.loc 1 186 0 is_stmt 0 discriminator 1
 1100 0024 082D     		cmp	r5, #8
 1101 0026 01D0     		beq	.L59
 186:..\..\..\arduinoLCD\test\Pain Drain\libraries\lvgl\src\extra\widgets\imgbtn/lv_imgbtn.c ****         refr_img(obj);
 1102              		.loc 1 186 0 discriminator 2
 1103 0028 032D     		cmp	r5, #3
 1104 002a 03D1     		bne	.L60
 1105              	.L59:
 187:..\..\..\arduinoLCD\test\Pain Drain\libraries\lvgl\src\extra\widgets\imgbtn/lv_imgbtn.c ****     }
 1106              		.loc 1 187 0 is_stmt 1
 1107 002c 3000     		movs	r0, r6
 1108              	.LVL160:
 1109 002e FFF7FEFF 		bl	refr_img
 1110              	.LVL161:
 1111 0032 3FE0     		b	.L57
 1112              	.LVL162:
 1113              	.L60:
 189:..\..\..\arduinoLCD\test\Pain Drain\libraries\lvgl\src\extra\widgets\imgbtn/lv_imgbtn.c ****         draw_main(e);
 1114              		.loc 1 189 0
 1115 0034 152D     		cmp	r5, #21
 1116 0036 03D1     		bne	.L61
 190:..\..\..\arduinoLCD\test\Pain Drain\libraries\lvgl\src\extra\widgets\imgbtn/lv_imgbtn.c ****     }
 1117              		.loc 1 190 0
 1118 0038 2000     		movs	r0, r4
 1119              	.LVL163:
 1120 003a FFF7FEFF 		bl	draw_main
 1121              	.LVL164:
 1122 003e 39E0     		b	.L57
 1123              	.LVL165:
 1124              	.L61:
 192:..\..\..\arduinoLCD\test\Pain Drain\libraries\lvgl\src\extra\widgets\imgbtn/lv_imgbtn.c ****         lv_cover_check_info_t * info = lv_event_get_param(e);
 1125              		.loc 1 192 0
 1126 0040 122D     		cmp	r5, #18
 1127 0042 08D1     		bne	.L62
 1128              	.LBB18:
 193:..\..\..\arduinoLCD\test\Pain Drain\libraries\lvgl\src\extra\widgets\imgbtn/lv_imgbtn.c ****         if(info->res != LV_COVER_RES_MASKED) info->res = LV_COVER_RES_NOT_COVER;
 1129              		.loc 1 193 0
 1130 0044 2000     		movs	r0, r4
 1131              	.LVL166:
 1132 0046 FFF7FEFF 		bl	lv_event_get_param
 1133              	.LVL167:
 194:..\..\..\arduinoLCD\test\Pain Drain\libraries\lvgl\src\extra\widgets\imgbtn/lv_imgbtn.c ****     }
 1134              		.loc 1 194 0
 1135 004a 0378     		ldrb	r3, [r0]
 1136 004c 022B     		cmp	r3, #2
ARM GAS  C:\Users\haske\AppData\Local\Temp\ccc4gGVR.s 			page 33


 1137 004e 31D0     		beq	.L57
 194:..\..\..\arduinoLCD\test\Pain Drain\libraries\lvgl\src\extra\widgets\imgbtn/lv_imgbtn.c ****     }
 1138              		.loc 1 194 0 is_stmt 0 discriminator 1
 1139 0050 0123     		movs	r3, #1
 1140 0052 0370     		strb	r3, [r0]
 1141 0054 2EE0     		b	.L57
 1142              	.LVL168:
 1143              	.L62:
 1144              	.LBE18:
 196:..\..\..\arduinoLCD\test\Pain Drain\libraries\lvgl\src\extra\widgets\imgbtn/lv_imgbtn.c ****         lv_point_t * p = lv_event_get_self_size_info(e);
 1145              		.loc 1 196 0 is_stmt 1
 1146 0056 2C2D     		cmp	r5, #44
 1147 0058 2CD1     		bne	.L57
 1148              	.LBB19:
 197:..\..\..\arduinoLCD\test\Pain Drain\libraries\lvgl\src\extra\widgets\imgbtn/lv_imgbtn.c ****         lv_imgbtn_t * imgbtn = (lv_imgbtn_t *)obj;
 1149              		.loc 1 197 0
 1150 005a 2000     		movs	r0, r4
 1151              	.LVL169:
 1152 005c FFF7FEFF 		bl	lv_event_get_self_size_info
 1153              	.LVL170:
 1154 0060 0400     		movs	r4, r0
 1155              	.LVL171:
 199:..\..\..\arduinoLCD\test\Pain Drain\libraries\lvgl\src\extra\widgets\imgbtn/lv_imgbtn.c ****         if(imgbtn->img_src_left[state] == NULL &&
 1156              		.loc 1 199 0
 1157 0062 3000     		movs	r0, r6
 1158              	.LVL172:
 1159 0064 FFF7FEFF 		bl	get_state
 1160              	.LVL173:
 1161 0068 0100     		movs	r1, r0
 1162 006a 3000     		movs	r0, r6
 1163 006c FFF7FEFF 		bl	suggest_state
 1164              	.LVL174:
 200:..\..\..\arduinoLCD\test\Pain Drain\libraries\lvgl\src\extra\widgets\imgbtn/lv_imgbtn.c ****            imgbtn->img_src_mid[state] != NULL &&
 1165              		.loc 1 200 0
 1166 0070 0300     		movs	r3, r0
 1167 0072 0E33     		adds	r3, r3, #14
 1168 0074 9B00     		lsls	r3, r3, #2
 1169 0076 F318     		adds	r3, r6, r3
 1170 0078 5B68     		ldr	r3, [r3, #4]
 1171 007a 002B     		cmp	r3, #0
 1172 007c 1AD1     		bne	.L57
 201:..\..\..\arduinoLCD\test\Pain Drain\libraries\lvgl\src\extra\widgets\imgbtn/lv_imgbtn.c ****            imgbtn->img_src_right[state] == NULL) {
 1173              		.loc 1 201 0 discriminator 1
 1174 007e 0300     		movs	r3, r0
 1175 0080 0833     		adds	r3, r3, #8
 1176 0082 9B00     		lsls	r3, r3, #2
 1177 0084 F318     		adds	r3, r6, r3
 1178 0086 5A68     		ldr	r2, [r3, #4]
 200:..\..\..\arduinoLCD\test\Pain Drain\libraries\lvgl\src\extra\widgets\imgbtn/lv_imgbtn.c ****            imgbtn->img_src_mid[state] != NULL &&
 1179              		.loc 1 200 0 discriminator 1
 1180 0088 002A     		cmp	r2, #0
 1181 008a 13D0     		beq	.L57
 202:..\..\..\arduinoLCD\test\Pain Drain\libraries\lvgl\src\extra\widgets\imgbtn/lv_imgbtn.c ****             lv_img_header_t header;
 1182              		.loc 1 202 0
 1183 008c 0300     		movs	r3, r0
 1184 008e 1433     		adds	r3, r3, #20
 1185 0090 9B00     		lsls	r3, r3, #2
ARM GAS  C:\Users\haske\AppData\Local\Temp\ccc4gGVR.s 			page 34


 1186 0092 F618     		adds	r6, r6, r3
 1187              	.LVL175:
 1188 0094 7368     		ldr	r3, [r6, #4]
 201:..\..\..\arduinoLCD\test\Pain Drain\libraries\lvgl\src\extra\widgets\imgbtn/lv_imgbtn.c ****            imgbtn->img_src_right[state] == NULL) {
 1189              		.loc 1 201 0
 1190 0096 002B     		cmp	r3, #0
 1191 0098 0CD1     		bne	.L57
 1192              	.LBB20:
 204:..\..\..\arduinoLCD\test\Pain Drain\libraries\lvgl\src\extra\widgets\imgbtn/lv_imgbtn.c ****             p->x = LV_MAX(p->x, header.w);
 1193              		.loc 1 204 0 discriminator 3
 1194 009a 01A9     		add	r1, sp, #4
 1195 009c 1000     		movs	r0, r2
 1196              	.LVL176:
 1197 009e FFF7FEFF 		bl	lv_img_decoder_get_info
 1198              	.LVL177:
 205:..\..\..\arduinoLCD\test\Pain Drain\libraries\lvgl\src\extra\widgets\imgbtn/lv_imgbtn.c ****         }
 1199              		.loc 1 205 0 discriminator 3
 1200 00a2 019B     		ldr	r3, [sp, #4]
 1201 00a4 DB02     		lsls	r3, r3, #11
 1202 00a6 0021     		movs	r1, #0
 1203 00a8 625E     		ldrsh	r2, [r4, r1]
 1204 00aa 5B0D     		lsrs	r3, r3, #21
 1205 00ac 9342     		cmp	r3, r2
 1206 00ae 00DA     		bge	.L63
 1207 00b0 1300     		movs	r3, r2
 1208              	.L63:
 1209 00b2 2380     		strh	r3, [r4]
 1210              	.LVL178:
 1211              	.L57:
 1212              	.LBE20:
 1213              	.LBE19:
 208:..\..\..\arduinoLCD\test\Pain Drain\libraries\lvgl\src\extra\widgets\imgbtn/lv_imgbtn.c **** 
 1214              		.loc 1 208 0
 1215 00b4 02B0     		add	sp, sp, #8
 1216              		@ sp needed
 1217 00b6 70BD     		pop	{r4, r5, r6, pc}
 1218              	.L65:
 1219              		.align	2
 1220              	.L64:
 1221 00b8 18000000 		.word	.LANCHOR0
 1222              		.cfi_endproc
 1223              	.LFE209:
 1224              		.size	lv_imgbtn_event, .-lv_imgbtn_event
 1225              		.global	lv_imgbtn_class
 1226              		.section	.rodata
 1227              		.align	2
 1228              		.set	.LANCHOR0,. + 0
 1229              		.type	lv_imgbtn_class, %object
 1230              		.size	lv_imgbtn_class, 28
 1231              	lv_imgbtn_class:
 1232 0018 00000000 		.word	lv_obj_class
 1233 001c 00000000 		.word	lv_imgbtn_constructor
 1234 0020 00000000 		.space	8
 1234      00000000 
 1235 0028 00000000 		.word	lv_imgbtn_event
 1236 002c 00000000 		.space	4
 1237 0030 00       		.byte	0
ARM GAS  C:\Users\haske\AppData\Local\Temp\ccc4gGVR.s 			page 35


 1238 0031 07       		.byte	7
 1239 0032 00       		.byte	0
 1240 0033 00       		.space	1
 1241              		.text
 1242              	.Letext0:
 1243              		.file 4 "c:\\program files (x86)\\cypress\\psoc creator\\4.4\\psoc creator\\import\\gnu\\arm\\5.4.
 1244              		.file 5 "c:\\program files (x86)\\cypress\\psoc creator\\4.4\\psoc creator\\import\\gnu\\arm\\5.4.
 1245              		.file 6 "c:\\projects\\paindrain\\arduinolcd\\test\\pain drain\\libraries\\lvgl\\src/misc/lv_types
 1246              		.file 7 "c:\\program files (x86)\\cypress\\psoc creator\\4.4\\psoc creator\\import\\gnu\\arm\\5.4.
 1247              		.file 8 "c:\\projects\\paindrain\\arduinolcd\\test\\pain drain\\libraries\\lvgl\\src\\font\\lv_fon
 1248              		.file 9 "c:\\projects\\paindrain\\arduinolcd\\test\\pain drain\\libraries\\lvgl\\src\\misc\\lv_col
 1249              		.file 10 "c:\\projects\\paindrain\\arduinolcd\\test\\pain drain\\libraries\\lvgl\\src\\misc\\lv_tx
 1250              		.file 11 "c:\\projects\\paindrain\\arduinolcd\\test\\pain drain\\libraries\\lvgl\\src\\misc\\lv_bi
 1251              		.file 12 "c:\\projects\\paindrain\\arduinolcd\\test\\pain drain\\libraries\\lvgl\\src\\misc\\lv_st
 1252              		.file 13 "c:\\projects\\paindrain\\arduinolcd\\test\\pain drain\\libraries\\lvgl\\src\\draw\\lv_im
 1253              		.file 14 "c:\\projects\\paindrain\\arduinolcd\\test\\pain drain\\libraries\\lvgl\\src/core/lv_obj.
 1254              		.file 15 "c:\\projects\\paindrain\\arduinolcd\\test\\pain drain\\libraries\\lvgl\\src\\draw\\lv_dr
 1255              		.file 16 "c:\\projects\\paindrain\\arduinolcd\\test\\pain drain\\libraries\\lvgl\\src\\draw\\lv_dr
 1256              		.file 17 "c:\\projects\\paindrain\\arduinolcd\\test\\pain drain\\libraries\\lvgl\\src\\draw\\lv_dr
 1257              		.file 18 "c:\\projects\\paindrain\\arduinolcd\\test\\pain drain\\libraries\\lvgl\\src\\draw\\lv_dr
 1258              		.file 19 "c:\\projects\\paindrain\\arduinolcd\\test\\pain drain\\libraries\\lvgl\\src\\draw\\lv_dr
 1259              		.file 20 "c:\\projects\\paindrain\\arduinolcd\\test\\pain drain\\libraries\\lvgl\\src\\draw\\lv_dr
 1260              		.file 21 "c:\\projects\\paindrain\\arduinolcd\\test\\pain drain\\libraries\\lvgl\\src\\draw\\lv_dr
 1261              		.file 22 "c:\\projects\\paindrain\\arduinolcd\\test\\pain drain\\libraries\\lvgl\\src\\misc\\lv_ll
 1262              		.file 23 "c:\\projects\\paindrain\\arduinolcd\\test\\pain drain\\libraries\\lvgl\\src/core/lv_grou
 1263              		.file 24 "c:\\projects\\paindrain\\arduinolcd\\test\\pain drain\\libraries\\lvgl\\src/core/lv_obj_
 1264              		.file 25 "c:\\projects\\paindrain\\arduinolcd\\test\\pain drain\\libraries\\lvgl\\src/core/lv_obj_
 1265              		.file 26 "c:\\projects\\paindrain\\arduinolcd\\test\\pain drain\\libraries\\lvgl\\src/core/lv_obj_
 1266              		.file 27 "c:\\projects\\paindrain\\arduinolcd\\test\\pain drain\\libraries\\lvgl\\src/core/lv_obj_
 1267              		.file 28 "c:\\projects\\paindrain\\arduinolcd\\test\\pain drain\\libraries\\lvgl\\src/core/lv_even
 1268              		.file 29 "c:\\projects\\paindrain\\arduinolcd\\test\\pain drain\\libraries\\lvgl\\src/widgets/lv_b
 1269              		.file 30 "..\\..\\..\\arduinoLCD\\test\\Pain Drain\\libraries\\lvgl\\src\\extra\\widgets\\imgbtn\\
 1270              		.file 31 "c:\\projects\\paindrain\\arduinolcd\\test\\pain drain\\libraries\\lvgl\\src/extra/layout
 1271              		.file 32 "c:\\projects\\paindrain\\arduinolcd\\test\\pain drain\\libraries\\lvgl\\src/extra/layout
 1272              		.file 33 "c:\\projects\\paindrain\\arduinolcd\\test\\pain drain\\libraries\\lvgl\\src/misc/lv_mem.
 1273              		.file 34 "c:\\projects\\paindrain\\arduinolcd\\test\\pain drain\\libraries\\lvgl\\src\\draw\\lv_im
 1274              		.file 35 "c:\\projects\\paindrain\\arduinolcd\\test\\pain drain\\libraries\\lvgl\\src\\core\\lv_ob