ARM GAS  C:\Users\haske\AppData\Local\Temp\cc8Td3a1.s 			page 1


   1              		.syntax unified
   2              		.cpu cortex-m0plus
   3              		.fpu softvfp
   4              		.eabi_attribute 20, 1
   5              		.eabi_attribute 21, 1
   6              		.eabi_attribute 23, 3
   7              		.eabi_attribute 24, 1
   8              		.eabi_attribute 25, 1
   9              		.eabi_attribute 26, 1
  10              		.eabi_attribute 30, 1
  11              		.eabi_attribute 34, 0
  12              		.eabi_attribute 18, 4
  13              		.thumb
  14              		.syntax unified
  15              		.file	"lv_img_cache.c"
  16              		.text
  17              	.Ltext0:
  18              		.cfi_sections	.debug_frame
  19              		.section	.text._lv_img_cache_open,"ax",%progbits
  20              		.align	2
  21              		.global	_lv_img_cache_open
  22              		.code	16
  23              		.thumb_func
  24              		.type	_lv_img_cache_open, %function
  25              	_lv_img_cache_open:
  26              	.LFB56:
  27              		.file 1 "..\\..\\..\\arduinoLCD\\test\\Pain Drain\\libraries\\lvgl\\src\\draw\\lv_img_cache.c"
   1:..\..\..\arduinoLCD\test\Pain Drain\libraries\lvgl\src\draw/lv_img_cache.c **** /**
   2:..\..\..\arduinoLCD\test\Pain Drain\libraries\lvgl\src\draw/lv_img_cache.c ****  * @file lv_img_cache.c
   3:..\..\..\arduinoLCD\test\Pain Drain\libraries\lvgl\src\draw/lv_img_cache.c ****  *
   4:..\..\..\arduinoLCD\test\Pain Drain\libraries\lvgl\src\draw/lv_img_cache.c ****  */
   5:..\..\..\arduinoLCD\test\Pain Drain\libraries\lvgl\src\draw/lv_img_cache.c **** 
   6:..\..\..\arduinoLCD\test\Pain Drain\libraries\lvgl\src\draw/lv_img_cache.c **** /*********************
   7:..\..\..\arduinoLCD\test\Pain Drain\libraries\lvgl\src\draw/lv_img_cache.c ****  *      INCLUDES
   8:..\..\..\arduinoLCD\test\Pain Drain\libraries\lvgl\src\draw/lv_img_cache.c ****  *********************/
   9:..\..\..\arduinoLCD\test\Pain Drain\libraries\lvgl\src\draw/lv_img_cache.c **** #include "../misc/lv_assert.h"
  10:..\..\..\arduinoLCD\test\Pain Drain\libraries\lvgl\src\draw/lv_img_cache.c **** #include "lv_img_cache.h"
  11:..\..\..\arduinoLCD\test\Pain Drain\libraries\lvgl\src\draw/lv_img_cache.c **** #include "lv_img_decoder.h"
  12:..\..\..\arduinoLCD\test\Pain Drain\libraries\lvgl\src\draw/lv_img_cache.c **** #include "lv_draw_img.h"
  13:..\..\..\arduinoLCD\test\Pain Drain\libraries\lvgl\src\draw/lv_img_cache.c **** #include "../hal/lv_hal_tick.h"
  14:..\..\..\arduinoLCD\test\Pain Drain\libraries\lvgl\src\draw/lv_img_cache.c **** #include "../misc/lv_gc.h"
  15:..\..\..\arduinoLCD\test\Pain Drain\libraries\lvgl\src\draw/lv_img_cache.c **** 
  16:..\..\..\arduinoLCD\test\Pain Drain\libraries\lvgl\src\draw/lv_img_cache.c **** /*********************
  17:..\..\..\arduinoLCD\test\Pain Drain\libraries\lvgl\src\draw/lv_img_cache.c ****  *      DEFINES
  18:..\..\..\arduinoLCD\test\Pain Drain\libraries\lvgl\src\draw/lv_img_cache.c ****  *********************/
  19:..\..\..\arduinoLCD\test\Pain Drain\libraries\lvgl\src\draw/lv_img_cache.c **** /*Decrement life with this value on every open*/
  20:..\..\..\arduinoLCD\test\Pain Drain\libraries\lvgl\src\draw/lv_img_cache.c **** #define LV_IMG_CACHE_AGING 1
  21:..\..\..\arduinoLCD\test\Pain Drain\libraries\lvgl\src\draw/lv_img_cache.c **** 
  22:..\..\..\arduinoLCD\test\Pain Drain\libraries\lvgl\src\draw/lv_img_cache.c **** /*Boost life by this factor (multiply time_to_open with this value)*/
  23:..\..\..\arduinoLCD\test\Pain Drain\libraries\lvgl\src\draw/lv_img_cache.c **** #define LV_IMG_CACHE_LIFE_GAIN 1
  24:..\..\..\arduinoLCD\test\Pain Drain\libraries\lvgl\src\draw/lv_img_cache.c **** 
  25:..\..\..\arduinoLCD\test\Pain Drain\libraries\lvgl\src\draw/lv_img_cache.c **** /*Don't let life to be greater than this limit because it would require a lot of time to
  26:..\..\..\arduinoLCD\test\Pain Drain\libraries\lvgl\src\draw/lv_img_cache.c ****  * "die" from very high values*/
  27:..\..\..\arduinoLCD\test\Pain Drain\libraries\lvgl\src\draw/lv_img_cache.c **** #define LV_IMG_CACHE_LIFE_LIMIT 1000
  28:..\..\..\arduinoLCD\test\Pain Drain\libraries\lvgl\src\draw/lv_img_cache.c **** 
  29:..\..\..\arduinoLCD\test\Pain Drain\libraries\lvgl\src\draw/lv_img_cache.c **** /**********************
  30:..\..\..\arduinoLCD\test\Pain Drain\libraries\lvgl\src\draw/lv_img_cache.c ****  *      TYPEDEFS
ARM GAS  C:\Users\haske\AppData\Local\Temp\cc8Td3a1.s 			page 2


  31:..\..\..\arduinoLCD\test\Pain Drain\libraries\lvgl\src\draw/lv_img_cache.c ****  **********************/
  32:..\..\..\arduinoLCD\test\Pain Drain\libraries\lvgl\src\draw/lv_img_cache.c **** 
  33:..\..\..\arduinoLCD\test\Pain Drain\libraries\lvgl\src\draw/lv_img_cache.c **** /**********************
  34:..\..\..\arduinoLCD\test\Pain Drain\libraries\lvgl\src\draw/lv_img_cache.c ****  *  STATIC PROTOTYPES
  35:..\..\..\arduinoLCD\test\Pain Drain\libraries\lvgl\src\draw/lv_img_cache.c ****  **********************/
  36:..\..\..\arduinoLCD\test\Pain Drain\libraries\lvgl\src\draw/lv_img_cache.c **** #if LV_IMG_CACHE_DEF_SIZE
  37:..\..\..\arduinoLCD\test\Pain Drain\libraries\lvgl\src\draw/lv_img_cache.c ****     static bool lv_img_cache_match(const void * src1, const void * src2);
  38:..\..\..\arduinoLCD\test\Pain Drain\libraries\lvgl\src\draw/lv_img_cache.c **** #endif
  39:..\..\..\arduinoLCD\test\Pain Drain\libraries\lvgl\src\draw/lv_img_cache.c **** 
  40:..\..\..\arduinoLCD\test\Pain Drain\libraries\lvgl\src\draw/lv_img_cache.c **** /**********************
  41:..\..\..\arduinoLCD\test\Pain Drain\libraries\lvgl\src\draw/lv_img_cache.c ****  *  STATIC VARIABLES
  42:..\..\..\arduinoLCD\test\Pain Drain\libraries\lvgl\src\draw/lv_img_cache.c ****  **********************/
  43:..\..\..\arduinoLCD\test\Pain Drain\libraries\lvgl\src\draw/lv_img_cache.c **** #if LV_IMG_CACHE_DEF_SIZE
  44:..\..\..\arduinoLCD\test\Pain Drain\libraries\lvgl\src\draw/lv_img_cache.c ****     static uint16_t entry_cnt;
  45:..\..\..\arduinoLCD\test\Pain Drain\libraries\lvgl\src\draw/lv_img_cache.c **** #endif
  46:..\..\..\arduinoLCD\test\Pain Drain\libraries\lvgl\src\draw/lv_img_cache.c **** 
  47:..\..\..\arduinoLCD\test\Pain Drain\libraries\lvgl\src\draw/lv_img_cache.c **** /**********************
  48:..\..\..\arduinoLCD\test\Pain Drain\libraries\lvgl\src\draw/lv_img_cache.c ****  *      MACROS
  49:..\..\..\arduinoLCD\test\Pain Drain\libraries\lvgl\src\draw/lv_img_cache.c ****  **********************/
  50:..\..\..\arduinoLCD\test\Pain Drain\libraries\lvgl\src\draw/lv_img_cache.c **** 
  51:..\..\..\arduinoLCD\test\Pain Drain\libraries\lvgl\src\draw/lv_img_cache.c **** /**********************
  52:..\..\..\arduinoLCD\test\Pain Drain\libraries\lvgl\src\draw/lv_img_cache.c ****  *   GLOBAL FUNCTIONS
  53:..\..\..\arduinoLCD\test\Pain Drain\libraries\lvgl\src\draw/lv_img_cache.c ****  **********************/
  54:..\..\..\arduinoLCD\test\Pain Drain\libraries\lvgl\src\draw/lv_img_cache.c **** 
  55:..\..\..\arduinoLCD\test\Pain Drain\libraries\lvgl\src\draw/lv_img_cache.c **** /**
  56:..\..\..\arduinoLCD\test\Pain Drain\libraries\lvgl\src\draw/lv_img_cache.c ****  * Open an image using the image decoder interface and cache it.
  57:..\..\..\arduinoLCD\test\Pain Drain\libraries\lvgl\src\draw/lv_img_cache.c ****  * The image will be left open meaning if the image decoder open callback allocated memory then it 
  58:..\..\..\arduinoLCD\test\Pain Drain\libraries\lvgl\src\draw/lv_img_cache.c ****  * The image is closed if a new image is opened and the new image takes its place in the cache.
  59:..\..\..\arduinoLCD\test\Pain Drain\libraries\lvgl\src\draw/lv_img_cache.c ****  * @param src source of the image. Path to file or pointer to an `lv_img_dsc_t` variable
  60:..\..\..\arduinoLCD\test\Pain Drain\libraries\lvgl\src\draw/lv_img_cache.c ****  * @param color color The color of the image with `LV_IMG_CF_ALPHA_...`
  61:..\..\..\arduinoLCD\test\Pain Drain\libraries\lvgl\src\draw/lv_img_cache.c ****  * @return pointer to the cache entry or NULL if can open the image
  62:..\..\..\arduinoLCD\test\Pain Drain\libraries\lvgl\src\draw/lv_img_cache.c ****  */
  63:..\..\..\arduinoLCD\test\Pain Drain\libraries\lvgl\src\draw/lv_img_cache.c **** _lv_img_cache_entry_t * _lv_img_cache_open(const void * src, lv_color_t color, int32_t frame_id)
  64:..\..\..\arduinoLCD\test\Pain Drain\libraries\lvgl\src\draw/lv_img_cache.c **** {
  28              		.loc 1 64 0
  29              		.cfi_startproc
  30              		@ args = 0, pretend = 0, frame = 0
  31              		@ frame_needed = 0, uses_anonymous_args = 0
  32              	.LVL0:
  33 0000 F8B5     		push	{r3, r4, r5, r6, r7, lr}
  34              		.cfi_def_cfa_offset 24
  35              		.cfi_offset 3, -24
  36              		.cfi_offset 4, -20
  37              		.cfi_offset 5, -16
  38              		.cfi_offset 6, -12
  39              		.cfi_offset 7, -8
  40              		.cfi_offset 14, -4
  41 0002 0400     		movs	r4, r0
  42 0004 0E1C     		adds	r6, r1, #0
  43 0006 1700     		movs	r7, r2
  44              	.LVL1:
  65:..\..\..\arduinoLCD\test\Pain Drain\libraries\lvgl\src\draw/lv_img_cache.c ****     /*Is the image cached?*/
  66:..\..\..\arduinoLCD\test\Pain Drain\libraries\lvgl\src\draw/lv_img_cache.c ****     _lv_img_cache_entry_t * cached_src = NULL;
  67:..\..\..\arduinoLCD\test\Pain Drain\libraries\lvgl\src\draw/lv_img_cache.c **** 
  68:..\..\..\arduinoLCD\test\Pain Drain\libraries\lvgl\src\draw/lv_img_cache.c **** #if LV_IMG_CACHE_DEF_SIZE
  69:..\..\..\arduinoLCD\test\Pain Drain\libraries\lvgl\src\draw/lv_img_cache.c ****     if(entry_cnt == 0) {
  70:..\..\..\arduinoLCD\test\Pain Drain\libraries\lvgl\src\draw/lv_img_cache.c ****         LV_LOG_WARN("lv_img_cache_open: the cache size is 0");
ARM GAS  C:\Users\haske\AppData\Local\Temp\cc8Td3a1.s 			page 3


  71:..\..\..\arduinoLCD\test\Pain Drain\libraries\lvgl\src\draw/lv_img_cache.c ****         return NULL;
  72:..\..\..\arduinoLCD\test\Pain Drain\libraries\lvgl\src\draw/lv_img_cache.c ****     }
  73:..\..\..\arduinoLCD\test\Pain Drain\libraries\lvgl\src\draw/lv_img_cache.c **** 
  74:..\..\..\arduinoLCD\test\Pain Drain\libraries\lvgl\src\draw/lv_img_cache.c ****     _lv_img_cache_entry_t * cache = LV_GC_ROOT(_lv_img_cache_array);
  75:..\..\..\arduinoLCD\test\Pain Drain\libraries\lvgl\src\draw/lv_img_cache.c **** 
  76:..\..\..\arduinoLCD\test\Pain Drain\libraries\lvgl\src\draw/lv_img_cache.c ****     /*Decrement all lifes. Make the entries older*/
  77:..\..\..\arduinoLCD\test\Pain Drain\libraries\lvgl\src\draw/lv_img_cache.c ****     uint16_t i;
  78:..\..\..\arduinoLCD\test\Pain Drain\libraries\lvgl\src\draw/lv_img_cache.c ****     for(i = 0; i < entry_cnt; i++) {
  79:..\..\..\arduinoLCD\test\Pain Drain\libraries\lvgl\src\draw/lv_img_cache.c ****         if(cache[i].life > INT32_MIN + LV_IMG_CACHE_AGING) {
  80:..\..\..\arduinoLCD\test\Pain Drain\libraries\lvgl\src\draw/lv_img_cache.c ****             cache[i].life -= LV_IMG_CACHE_AGING;
  81:..\..\..\arduinoLCD\test\Pain Drain\libraries\lvgl\src\draw/lv_img_cache.c ****         }
  82:..\..\..\arduinoLCD\test\Pain Drain\libraries\lvgl\src\draw/lv_img_cache.c ****     }
  83:..\..\..\arduinoLCD\test\Pain Drain\libraries\lvgl\src\draw/lv_img_cache.c **** 
  84:..\..\..\arduinoLCD\test\Pain Drain\libraries\lvgl\src\draw/lv_img_cache.c ****     for(i = 0; i < entry_cnt; i++) {
  85:..\..\..\arduinoLCD\test\Pain Drain\libraries\lvgl\src\draw/lv_img_cache.c ****         if(color.full == cache[i].dec_dsc.color.full &&
  86:..\..\..\arduinoLCD\test\Pain Drain\libraries\lvgl\src\draw/lv_img_cache.c ****            frame_id == cache[i].dec_dsc.frame_id &&
  87:..\..\..\arduinoLCD\test\Pain Drain\libraries\lvgl\src\draw/lv_img_cache.c ****            lv_img_cache_match(src, cache[i].dec_dsc.src)) {
  88:..\..\..\arduinoLCD\test\Pain Drain\libraries\lvgl\src\draw/lv_img_cache.c ****             /*If opened increment its life.
  89:..\..\..\arduinoLCD\test\Pain Drain\libraries\lvgl\src\draw/lv_img_cache.c ****              *Image difficult to open should live longer to keep avoid frequent their recaching.
  90:..\..\..\arduinoLCD\test\Pain Drain\libraries\lvgl\src\draw/lv_img_cache.c ****              *Therefore increase `life` with `time_to_open`*/
  91:..\..\..\arduinoLCD\test\Pain Drain\libraries\lvgl\src\draw/lv_img_cache.c ****             cached_src = &cache[i];
  92:..\..\..\arduinoLCD\test\Pain Drain\libraries\lvgl\src\draw/lv_img_cache.c ****             cached_src->life += cached_src->dec_dsc.time_to_open * LV_IMG_CACHE_LIFE_GAIN;
  93:..\..\..\arduinoLCD\test\Pain Drain\libraries\lvgl\src\draw/lv_img_cache.c ****             if(cached_src->life > LV_IMG_CACHE_LIFE_LIMIT) cached_src->life = LV_IMG_CACHE_LIFE_LIM
  94:..\..\..\arduinoLCD\test\Pain Drain\libraries\lvgl\src\draw/lv_img_cache.c ****             LV_LOG_TRACE("image source found in the cache");
  95:..\..\..\arduinoLCD\test\Pain Drain\libraries\lvgl\src\draw/lv_img_cache.c ****             break;
  96:..\..\..\arduinoLCD\test\Pain Drain\libraries\lvgl\src\draw/lv_img_cache.c ****         }
  97:..\..\..\arduinoLCD\test\Pain Drain\libraries\lvgl\src\draw/lv_img_cache.c ****     }
  98:..\..\..\arduinoLCD\test\Pain Drain\libraries\lvgl\src\draw/lv_img_cache.c **** 
  99:..\..\..\arduinoLCD\test\Pain Drain\libraries\lvgl\src\draw/lv_img_cache.c ****     /*The image is not cached then cache it now*/
 100:..\..\..\arduinoLCD\test\Pain Drain\libraries\lvgl\src\draw/lv_img_cache.c ****     if(cached_src) return cached_src;
 101:..\..\..\arduinoLCD\test\Pain Drain\libraries\lvgl\src\draw/lv_img_cache.c **** 
 102:..\..\..\arduinoLCD\test\Pain Drain\libraries\lvgl\src\draw/lv_img_cache.c ****     /*Find an entry to reuse. Select the entry with the least life*/
 103:..\..\..\arduinoLCD\test\Pain Drain\libraries\lvgl\src\draw/lv_img_cache.c ****     cached_src = &cache[0];
 104:..\..\..\arduinoLCD\test\Pain Drain\libraries\lvgl\src\draw/lv_img_cache.c ****     for(i = 1; i < entry_cnt; i++) {
 105:..\..\..\arduinoLCD\test\Pain Drain\libraries\lvgl\src\draw/lv_img_cache.c ****         if(cache[i].life < cached_src->life) {
 106:..\..\..\arduinoLCD\test\Pain Drain\libraries\lvgl\src\draw/lv_img_cache.c ****             cached_src = &cache[i];
 107:..\..\..\arduinoLCD\test\Pain Drain\libraries\lvgl\src\draw/lv_img_cache.c ****         }
 108:..\..\..\arduinoLCD\test\Pain Drain\libraries\lvgl\src\draw/lv_img_cache.c ****     }
 109:..\..\..\arduinoLCD\test\Pain Drain\libraries\lvgl\src\draw/lv_img_cache.c **** 
 110:..\..\..\arduinoLCD\test\Pain Drain\libraries\lvgl\src\draw/lv_img_cache.c ****     /*Close the decoder to reuse if it was opened (has a valid source)*/
 111:..\..\..\arduinoLCD\test\Pain Drain\libraries\lvgl\src\draw/lv_img_cache.c ****     if(cached_src->dec_dsc.src) {
 112:..\..\..\arduinoLCD\test\Pain Drain\libraries\lvgl\src\draw/lv_img_cache.c ****         lv_img_decoder_close(&cached_src->dec_dsc);
 113:..\..\..\arduinoLCD\test\Pain Drain\libraries\lvgl\src\draw/lv_img_cache.c ****         LV_LOG_INFO("image draw: cache miss, close and reuse an entry");
 114:..\..\..\arduinoLCD\test\Pain Drain\libraries\lvgl\src\draw/lv_img_cache.c ****     }
 115:..\..\..\arduinoLCD\test\Pain Drain\libraries\lvgl\src\draw/lv_img_cache.c ****     else {
 116:..\..\..\arduinoLCD\test\Pain Drain\libraries\lvgl\src\draw/lv_img_cache.c ****         LV_LOG_INFO("image draw: cache miss, cached to an empty entry");
 117:..\..\..\arduinoLCD\test\Pain Drain\libraries\lvgl\src\draw/lv_img_cache.c ****     }
 118:..\..\..\arduinoLCD\test\Pain Drain\libraries\lvgl\src\draw/lv_img_cache.c **** #else
 119:..\..\..\arduinoLCD\test\Pain Drain\libraries\lvgl\src\draw/lv_img_cache.c ****     cached_src = &LV_GC_ROOT(_lv_img_cache_single);
 120:..\..\..\arduinoLCD\test\Pain Drain\libraries\lvgl\src\draw/lv_img_cache.c **** #endif
 121:..\..\..\arduinoLCD\test\Pain Drain\libraries\lvgl\src\draw/lv_img_cache.c ****     /*Open the image and measure the time to open*/
 122:..\..\..\arduinoLCD\test\Pain Drain\libraries\lvgl\src\draw/lv_img_cache.c ****     uint32_t t_start  = lv_tick_get();
  45              		.loc 1 122 0
  46 0008 FFF7FEFF 		bl	lv_tick_get
  47              	.LVL2:
  48 000c 0500     		movs	r5, r0
  49              	.LVL3:
ARM GAS  C:\Users\haske\AppData\Local\Temp\cc8Td3a1.s 			page 4


 123:..\..\..\arduinoLCD\test\Pain Drain\libraries\lvgl\src\draw/lv_img_cache.c ****     lv_res_t open_res = lv_img_decoder_open(&cached_src->dec_dsc, src, color, frame_id);
  50              		.loc 1 123 0
  51 000e 3B00     		movs	r3, r7
  52              	.LVL4:
  53 0010 321C     		adds	r2, r6, #0
  54 0012 2100     		movs	r1, r4
  55 0014 1148     		ldr	r0, .L6
  56              	.LVL5:
  57 0016 FFF7FEFF 		bl	lv_img_decoder_open
  58              	.LVL6:
 124:..\..\..\arduinoLCD\test\Pain Drain\libraries\lvgl\src\draw/lv_img_cache.c ****     if(open_res == LV_RES_INV) {
  59              		.loc 1 124 0
  60 001a 0028     		cmp	r0, #0
  61 001c 09D1     		bne	.L2
 125:..\..\..\arduinoLCD\test\Pain Drain\libraries\lvgl\src\draw/lv_img_cache.c ****         LV_LOG_WARN("Image draw cannot open the image resource");
 126:..\..\..\arduinoLCD\test\Pain Drain\libraries\lvgl\src\draw/lv_img_cache.c ****         lv_memset_00(cached_src, sizeof(_lv_img_cache_entry_t));
  62              		.loc 1 126 0
  63 001e 0F4C     		ldr	r4, .L6
  64              	.LVL7:
  65 0020 2C21     		movs	r1, #44
  66 0022 2000     		movs	r0, r4
  67              	.LVL8:
  68 0024 FFF7FEFF 		bl	lv_memset_00
  69              	.LVL9:
 127:..\..\..\arduinoLCD\test\Pain Drain\libraries\lvgl\src\draw/lv_img_cache.c ****         cached_src->life = INT32_MIN; /*Make the empty entry very "weak" to force its us*/
  70              		.loc 1 127 0
  71 0028 8023     		movs	r3, #128
  72 002a 1B06     		lsls	r3, r3, #24
  73 002c A362     		str	r3, [r4, #40]
 128:..\..\..\arduinoLCD\test\Pain Drain\libraries\lvgl\src\draw/lv_img_cache.c ****         return NULL;
  74              		.loc 1 128 0
  75 002e 0020     		movs	r0, #0
  76 0030 13E0     		b	.L3
  77              	.LVL10:
  78              	.L2:
 129:..\..\..\arduinoLCD\test\Pain Drain\libraries\lvgl\src\draw/lv_img_cache.c ****     }
 130:..\..\..\arduinoLCD\test\Pain Drain\libraries\lvgl\src\draw/lv_img_cache.c **** 
 131:..\..\..\arduinoLCD\test\Pain Drain\libraries\lvgl\src\draw/lv_img_cache.c ****     cached_src->life = 0;
  79              		.loc 1 131 0
  80 0032 0A4B     		ldr	r3, .L6
  81 0034 0022     		movs	r2, #0
  82 0036 9A62     		str	r2, [r3, #40]
 132:..\..\..\arduinoLCD\test\Pain Drain\libraries\lvgl\src\draw/lv_img_cache.c **** 
 133:..\..\..\arduinoLCD\test\Pain Drain\libraries\lvgl\src\draw/lv_img_cache.c ****     /*If `time_to_open` was not set in the open function set it here*/
 134:..\..\..\arduinoLCD\test\Pain Drain\libraries\lvgl\src\draw/lv_img_cache.c ****     if(cached_src->dec_dsc.time_to_open == 0) {
  83              		.loc 1 134 0
  84 0038 DB69     		ldr	r3, [r3, #28]
  85 003a 002B     		cmp	r3, #0
  86 003c 04D1     		bne	.L4
 135:..\..\..\arduinoLCD\test\Pain Drain\libraries\lvgl\src\draw/lv_img_cache.c ****         cached_src->dec_dsc.time_to_open = lv_tick_elaps(t_start);
  87              		.loc 1 135 0
  88 003e 2800     		movs	r0, r5
  89              	.LVL11:
  90 0040 FFF7FEFF 		bl	lv_tick_elaps
  91              	.LVL12:
  92 0044 054B     		ldr	r3, .L6
  93 0046 D861     		str	r0, [r3, #28]
ARM GAS  C:\Users\haske\AppData\Local\Temp\cc8Td3a1.s 			page 5


  94              	.L4:
 136:..\..\..\arduinoLCD\test\Pain Drain\libraries\lvgl\src\draw/lv_img_cache.c ****     }
 137:..\..\..\arduinoLCD\test\Pain Drain\libraries\lvgl\src\draw/lv_img_cache.c **** 
 138:..\..\..\arduinoLCD\test\Pain Drain\libraries\lvgl\src\draw/lv_img_cache.c ****     if(cached_src->dec_dsc.time_to_open == 0) cached_src->dec_dsc.time_to_open = 1;
  95              		.loc 1 138 0
  96 0048 044B     		ldr	r3, .L6
  97 004a DB69     		ldr	r3, [r3, #28]
  98 004c 002B     		cmp	r3, #0
  99 004e 03D1     		bne	.L5
 100              		.loc 1 138 0 is_stmt 0 discriminator 1
 101 0050 0248     		ldr	r0, .L6
 102 0052 0133     		adds	r3, r3, #1
 103 0054 C361     		str	r3, [r0, #28]
 104 0056 00E0     		b	.L3
 105              	.L5:
 139:..\..\..\arduinoLCD\test\Pain Drain\libraries\lvgl\src\draw/lv_img_cache.c **** 
 140:..\..\..\arduinoLCD\test\Pain Drain\libraries\lvgl\src\draw/lv_img_cache.c ****     return cached_src;
 106              		.loc 1 140 0 is_stmt 1
 107 0058 0048     		ldr	r0, .L6
 108              	.LVL13:
 109              	.L3:
 141:..\..\..\arduinoLCD\test\Pain Drain\libraries\lvgl\src\draw/lv_img_cache.c **** }
 110              		.loc 1 141 0
 111              		@ sp needed
 112              	.LVL14:
 113              	.LVL15:
 114              	.LVL16:
 115 005a F8BD     		pop	{r3, r4, r5, r6, r7, pc}
 116              	.L7:
 117              		.align	2
 118              	.L6:
 119 005c 00000000 		.word	_lv_img_cache_single
 120              		.cfi_endproc
 121              	.LFE56:
 122              		.size	_lv_img_cache_open, .-_lv_img_cache_open
 123              		.section	.text.lv_img_cache_set_size,"ax",%progbits
 124              		.align	2
 125              		.global	lv_img_cache_set_size
 126              		.code	16
 127              		.thumb_func
 128              		.type	lv_img_cache_set_size, %function
 129              	lv_img_cache_set_size:
 130              	.LFB57:
 142:..\..\..\arduinoLCD\test\Pain Drain\libraries\lvgl\src\draw/lv_img_cache.c **** 
 143:..\..\..\arduinoLCD\test\Pain Drain\libraries\lvgl\src\draw/lv_img_cache.c **** /**
 144:..\..\..\arduinoLCD\test\Pain Drain\libraries\lvgl\src\draw/lv_img_cache.c ****  * Set the number of images to be cached.
 145:..\..\..\arduinoLCD\test\Pain Drain\libraries\lvgl\src\draw/lv_img_cache.c ****  * More cached images mean more opened image at same time which might mean more memory usage.
 146:..\..\..\arduinoLCD\test\Pain Drain\libraries\lvgl\src\draw/lv_img_cache.c ****  * E.g. if 20 PNG or JPG images are open in the RAM they consume memory while opened in the cache.
 147:..\..\..\arduinoLCD\test\Pain Drain\libraries\lvgl\src\draw/lv_img_cache.c ****  * @param new_entry_cnt number of image to cache
 148:..\..\..\arduinoLCD\test\Pain Drain\libraries\lvgl\src\draw/lv_img_cache.c ****  */
 149:..\..\..\arduinoLCD\test\Pain Drain\libraries\lvgl\src\draw/lv_img_cache.c **** void lv_img_cache_set_size(uint16_t new_entry_cnt)
 150:..\..\..\arduinoLCD\test\Pain Drain\libraries\lvgl\src\draw/lv_img_cache.c **** {
 131              		.loc 1 150 0
 132              		.cfi_startproc
 133              		@ args = 0, pretend = 0, frame = 0
 134              		@ frame_needed = 0, uses_anonymous_args = 0
 135              		@ link register save eliminated.
ARM GAS  C:\Users\haske\AppData\Local\Temp\cc8Td3a1.s 			page 6


 136              	.LVL17:
 151:..\..\..\arduinoLCD\test\Pain Drain\libraries\lvgl\src\draw/lv_img_cache.c **** #if LV_IMG_CACHE_DEF_SIZE == 0
 152:..\..\..\arduinoLCD\test\Pain Drain\libraries\lvgl\src\draw/lv_img_cache.c ****     LV_UNUSED(new_entry_cnt);
 153:..\..\..\arduinoLCD\test\Pain Drain\libraries\lvgl\src\draw/lv_img_cache.c ****     LV_LOG_WARN("Can't change cache size because it's disabled by LV_IMG_CACHE_DEF_SIZE = 0");
 154:..\..\..\arduinoLCD\test\Pain Drain\libraries\lvgl\src\draw/lv_img_cache.c **** #else
 155:..\..\..\arduinoLCD\test\Pain Drain\libraries\lvgl\src\draw/lv_img_cache.c ****     if(LV_GC_ROOT(_lv_img_cache_array) != NULL) {
 156:..\..\..\arduinoLCD\test\Pain Drain\libraries\lvgl\src\draw/lv_img_cache.c ****         /*Clean the cache before free it*/
 157:..\..\..\arduinoLCD\test\Pain Drain\libraries\lvgl\src\draw/lv_img_cache.c ****         lv_img_cache_invalidate_src(NULL);
 158:..\..\..\arduinoLCD\test\Pain Drain\libraries\lvgl\src\draw/lv_img_cache.c ****         lv_mem_free(LV_GC_ROOT(_lv_img_cache_array));
 159:..\..\..\arduinoLCD\test\Pain Drain\libraries\lvgl\src\draw/lv_img_cache.c ****     }
 160:..\..\..\arduinoLCD\test\Pain Drain\libraries\lvgl\src\draw/lv_img_cache.c **** 
 161:..\..\..\arduinoLCD\test\Pain Drain\libraries\lvgl\src\draw/lv_img_cache.c ****     /*Reallocate the cache*/
 162:..\..\..\arduinoLCD\test\Pain Drain\libraries\lvgl\src\draw/lv_img_cache.c ****     LV_GC_ROOT(_lv_img_cache_array) = lv_mem_alloc(sizeof(_lv_img_cache_entry_t) * new_entry_cnt);
 163:..\..\..\arduinoLCD\test\Pain Drain\libraries\lvgl\src\draw/lv_img_cache.c ****     LV_ASSERT_MALLOC(LV_GC_ROOT(_lv_img_cache_array));
 164:..\..\..\arduinoLCD\test\Pain Drain\libraries\lvgl\src\draw/lv_img_cache.c ****     if(LV_GC_ROOT(_lv_img_cache_array) == NULL) {
 165:..\..\..\arduinoLCD\test\Pain Drain\libraries\lvgl\src\draw/lv_img_cache.c ****         entry_cnt = 0;
 166:..\..\..\arduinoLCD\test\Pain Drain\libraries\lvgl\src\draw/lv_img_cache.c ****         return;
 167:..\..\..\arduinoLCD\test\Pain Drain\libraries\lvgl\src\draw/lv_img_cache.c ****     }
 168:..\..\..\arduinoLCD\test\Pain Drain\libraries\lvgl\src\draw/lv_img_cache.c ****     entry_cnt = new_entry_cnt;
 169:..\..\..\arduinoLCD\test\Pain Drain\libraries\lvgl\src\draw/lv_img_cache.c **** 
 170:..\..\..\arduinoLCD\test\Pain Drain\libraries\lvgl\src\draw/lv_img_cache.c ****     /*Clean the cache*/
 171:..\..\..\arduinoLCD\test\Pain Drain\libraries\lvgl\src\draw/lv_img_cache.c ****     lv_memset_00(LV_GC_ROOT(_lv_img_cache_array), entry_cnt * sizeof(_lv_img_cache_entry_t));
 172:..\..\..\arduinoLCD\test\Pain Drain\libraries\lvgl\src\draw/lv_img_cache.c **** #endif
 173:..\..\..\arduinoLCD\test\Pain Drain\libraries\lvgl\src\draw/lv_img_cache.c **** }
 137              		.loc 1 173 0
 138              		@ sp needed
 139 0000 7047     		bx	lr
 140              		.cfi_endproc
 141              	.LFE57:
 142              		.size	lv_img_cache_set_size, .-lv_img_cache_set_size
 143 0002 C046     		.section	.text.lv_img_cache_invalidate_src,"ax",%progbits
 144              		.align	2
 145              		.global	lv_img_cache_invalidate_src
 146              		.code	16
 147              		.thumb_func
 148              		.type	lv_img_cache_invalidate_src, %function
 149              	lv_img_cache_invalidate_src:
 150              	.LFB58:
 174:..\..\..\arduinoLCD\test\Pain Drain\libraries\lvgl\src\draw/lv_img_cache.c **** 
 175:..\..\..\arduinoLCD\test\Pain Drain\libraries\lvgl\src\draw/lv_img_cache.c **** /**
 176:..\..\..\arduinoLCD\test\Pain Drain\libraries\lvgl\src\draw/lv_img_cache.c ****  * Invalidate an image source in the cache.
 177:..\..\..\arduinoLCD\test\Pain Drain\libraries\lvgl\src\draw/lv_img_cache.c ****  * Useful if the image source is updated therefore it needs to be cached again.
 178:..\..\..\arduinoLCD\test\Pain Drain\libraries\lvgl\src\draw/lv_img_cache.c ****  * @param src an image source path to a file or pointer to an `lv_img_dsc_t` variable.
 179:..\..\..\arduinoLCD\test\Pain Drain\libraries\lvgl\src\draw/lv_img_cache.c ****  */
 180:..\..\..\arduinoLCD\test\Pain Drain\libraries\lvgl\src\draw/lv_img_cache.c **** void lv_img_cache_invalidate_src(const void * src)
 181:..\..\..\arduinoLCD\test\Pain Drain\libraries\lvgl\src\draw/lv_img_cache.c **** {
 151              		.loc 1 181 0
 152              		.cfi_startproc
 153              		@ args = 0, pretend = 0, frame = 0
 154              		@ frame_needed = 0, uses_anonymous_args = 0
 155              		@ link register save eliminated.
 156              	.LVL18:
 182:..\..\..\arduinoLCD\test\Pain Drain\libraries\lvgl\src\draw/lv_img_cache.c ****     LV_UNUSED(src);
 183:..\..\..\arduinoLCD\test\Pain Drain\libraries\lvgl\src\draw/lv_img_cache.c **** #if LV_IMG_CACHE_DEF_SIZE
 184:..\..\..\arduinoLCD\test\Pain Drain\libraries\lvgl\src\draw/lv_img_cache.c ****     _lv_img_cache_entry_t * cache = LV_GC_ROOT(_lv_img_cache_array);
 185:..\..\..\arduinoLCD\test\Pain Drain\libraries\lvgl\src\draw/lv_img_cache.c **** 
 186:..\..\..\arduinoLCD\test\Pain Drain\libraries\lvgl\src\draw/lv_img_cache.c ****     uint16_t i;
ARM GAS  C:\Users\haske\AppData\Local\Temp\cc8Td3a1.s 			page 7


 187:..\..\..\arduinoLCD\test\Pain Drain\libraries\lvgl\src\draw/lv_img_cache.c ****     for(i = 0; i < entry_cnt; i++) {
 188:..\..\..\arduinoLCD\test\Pain Drain\libraries\lvgl\src\draw/lv_img_cache.c ****         if(src == NULL || lv_img_cache_match(src, cache[i].dec_dsc.src)) {
 189:..\..\..\arduinoLCD\test\Pain Drain\libraries\lvgl\src\draw/lv_img_cache.c ****             if(cache[i].dec_dsc.src != NULL) {
 190:..\..\..\arduinoLCD\test\Pain Drain\libraries\lvgl\src\draw/lv_img_cache.c ****                 lv_img_decoder_close(&cache[i].dec_dsc);
 191:..\..\..\arduinoLCD\test\Pain Drain\libraries\lvgl\src\draw/lv_img_cache.c ****             }
 192:..\..\..\arduinoLCD\test\Pain Drain\libraries\lvgl\src\draw/lv_img_cache.c **** 
 193:..\..\..\arduinoLCD\test\Pain Drain\libraries\lvgl\src\draw/lv_img_cache.c ****             lv_memset_00(&cache[i], sizeof(_lv_img_cache_entry_t));
 194:..\..\..\arduinoLCD\test\Pain Drain\libraries\lvgl\src\draw/lv_img_cache.c ****         }
 195:..\..\..\arduinoLCD\test\Pain Drain\libraries\lvgl\src\draw/lv_img_cache.c ****     }
 196:..\..\..\arduinoLCD\test\Pain Drain\libraries\lvgl\src\draw/lv_img_cache.c **** #endif
 197:..\..\..\arduinoLCD\test\Pain Drain\libraries\lvgl\src\draw/lv_img_cache.c **** }
 157              		.loc 1 197 0
 158              		@ sp needed
 159 0000 7047     		bx	lr
 160              		.cfi_endproc
 161              	.LFE58:
 162              		.size	lv_img_cache_invalidate_src, .-lv_img_cache_invalidate_src
 163 0002 C046     		.text
 164              	.Letext0:
 165              		.file 2 "c:\\program files (x86)\\cypress\\psoc creator\\4.4\\psoc creator\\import\\gnu\\arm\\5.4.
 166              		.file 3 "c:\\program files (x86)\\cypress\\psoc creator\\4.4\\psoc creator\\import\\gnu\\arm\\5.4.
 167              		.file 4 "..\\..\\..\\arduinoLCD\\test\\Pain Drain\\libraries\\lvgl\\src\\draw\\../misc/lv_types.h"
 168              		.file 5 "..\\..\\..\\arduinoLCD\\test\\Pain Drain\\libraries\\lvgl\\src\\draw\\../misc/lv_color.h"
 169              		.file 6 "..\\..\\..\\arduinoLCD\\test\\Pain Drain\\libraries\\lvgl\\src\\draw\\../misc/lv_area.h"
 170              		.file 7 "..\\..\\..\\arduinoLCD\\test\\Pain Drain\\libraries\\lvgl\\src\\draw\\lv_img_buf.h"
 171              		.file 8 "..\\..\\..\\arduinoLCD\\test\\Pain Drain\\libraries\\lvgl\\src\\draw\\lv_img_decoder.h"
 172              		.file 9 "..\\..\\..\\arduinoLCD\\test\\Pain Drain\\libraries\\lvgl\\src\\draw\\lv_img_cache.h"
 173              		.file 10 "c:\\projects\\paindrain\\arduinolcd\\test\\pain drain\\libraries\\lvgl\\src\\font\\lv_fo
 174              		.file 11 "..\\..\\..\\arduinoLCD\\test\\Pain Drain\\libraries\\lvgl\\src\\draw\\../misc/lv_gc.h"
 175              		.file 12 "..\\..\\..\\arduinoLCD\\test\\Pain Drain\\libraries\\lvgl\\src\\draw\\../hal/lv_hal_tick
 176              		.file 13 "..\\..\\..\\arduinoLCD\\test\\Pain Drain\\libraries\\lvgl\\src\\draw\\../misc/lv_mem.h"