ARM GAS  C:\Users\haske\AppData\Local\Temp\ccl1At1U.s 			page 1


   1              		.syntax unified
   2              		.cpu cortex-m0plus
   3              		.fpu softvfp
   4              		.eabi_attribute 20, 1
   5              		.eabi_attribute 21, 1
   6              		.eabi_attribute 23, 3
   7              		.eabi_attribute 24, 1
   8              		.eabi_attribute 25, 1
   9              		.eabi_attribute 26, 1
  10              		.eabi_attribute 30, 1
  11              		.eabi_attribute 34, 0
  12              		.eabi_attribute 18, 4
  13              		.thumb
  14              		.syntax unified
  15              		.file	"lv_indev.c"
  16              		.text
  17              	.Ltext0:
  18              		.cfi_sections	.debug_frame
  19              		.section	.text.indev_proc_reset_query_handler,"ax",%progbits
  20              		.align	2
  21              		.code	16
  22              		.thumb_func
  23              		.type	indev_proc_reset_query_handler, %function
  24              	indev_proc_reset_query_handler:
  25              	.LFB190:
  26              		.file 1 "..\\..\\..\\arduinoLCD\\test\\Pain Drain\\libraries\\lvgl\\src\\core\\lv_indev.c"
   1:..\..\..\arduinoLCD\test\Pain Drain\libraries\lvgl\src\core/lv_indev.c **** /**
   2:..\..\..\arduinoLCD\test\Pain Drain\libraries\lvgl\src\core/lv_indev.c ****  * @file lv_indev.c
   3:..\..\..\arduinoLCD\test\Pain Drain\libraries\lvgl\src\core/lv_indev.c ****  *
   4:..\..\..\arduinoLCD\test\Pain Drain\libraries\lvgl\src\core/lv_indev.c ****  */
   5:..\..\..\arduinoLCD\test\Pain Drain\libraries\lvgl\src\core/lv_indev.c **** 
   6:..\..\..\arduinoLCD\test\Pain Drain\libraries\lvgl\src\core/lv_indev.c **** /*********************
   7:..\..\..\arduinoLCD\test\Pain Drain\libraries\lvgl\src\core/lv_indev.c ****  *      INCLUDES
   8:..\..\..\arduinoLCD\test\Pain Drain\libraries\lvgl\src\core/lv_indev.c ****  ********************/
   9:..\..\..\arduinoLCD\test\Pain Drain\libraries\lvgl\src\core/lv_indev.c **** #include "lv_indev.h"
  10:..\..\..\arduinoLCD\test\Pain Drain\libraries\lvgl\src\core/lv_indev.c **** #include "lv_disp.h"
  11:..\..\..\arduinoLCD\test\Pain Drain\libraries\lvgl\src\core/lv_indev.c **** #include "lv_obj.h"
  12:..\..\..\arduinoLCD\test\Pain Drain\libraries\lvgl\src\core/lv_indev.c **** #include "lv_indev_scroll.h"
  13:..\..\..\arduinoLCD\test\Pain Drain\libraries\lvgl\src\core/lv_indev.c **** #include "lv_group.h"
  14:..\..\..\arduinoLCD\test\Pain Drain\libraries\lvgl\src\core/lv_indev.c **** #include "lv_refr.h"
  15:..\..\..\arduinoLCD\test\Pain Drain\libraries\lvgl\src\core/lv_indev.c **** 
  16:..\..\..\arduinoLCD\test\Pain Drain\libraries\lvgl\src\core/lv_indev.c **** #include "../hal/lv_hal_tick.h"
  17:..\..\..\arduinoLCD\test\Pain Drain\libraries\lvgl\src\core/lv_indev.c **** #include "../misc/lv_timer.h"
  18:..\..\..\arduinoLCD\test\Pain Drain\libraries\lvgl\src\core/lv_indev.c **** #include "../misc/lv_math.h"
  19:..\..\..\arduinoLCD\test\Pain Drain\libraries\lvgl\src\core/lv_indev.c **** 
  20:..\..\..\arduinoLCD\test\Pain Drain\libraries\lvgl\src\core/lv_indev.c **** /*********************
  21:..\..\..\arduinoLCD\test\Pain Drain\libraries\lvgl\src\core/lv_indev.c ****  *      DEFINES
  22:..\..\..\arduinoLCD\test\Pain Drain\libraries\lvgl\src\core/lv_indev.c ****  *********************/
  23:..\..\..\arduinoLCD\test\Pain Drain\libraries\lvgl\src\core/lv_indev.c **** #if LV_INDEV_DEF_SCROLL_THROW <= 0
  24:..\..\..\arduinoLCD\test\Pain Drain\libraries\lvgl\src\core/lv_indev.c ****     #warning "LV_INDEV_DRAG_THROW must be greater than 0"
  25:..\..\..\arduinoLCD\test\Pain Drain\libraries\lvgl\src\core/lv_indev.c **** #endif
  26:..\..\..\arduinoLCD\test\Pain Drain\libraries\lvgl\src\core/lv_indev.c **** 
  27:..\..\..\arduinoLCD\test\Pain Drain\libraries\lvgl\src\core/lv_indev.c **** /**********************
  28:..\..\..\arduinoLCD\test\Pain Drain\libraries\lvgl\src\core/lv_indev.c ****  *      TYPEDEFS
  29:..\..\..\arduinoLCD\test\Pain Drain\libraries\lvgl\src\core/lv_indev.c ****  **********************/
  30:..\..\..\arduinoLCD\test\Pain Drain\libraries\lvgl\src\core/lv_indev.c **** 
  31:..\..\..\arduinoLCD\test\Pain Drain\libraries\lvgl\src\core/lv_indev.c **** /**********************
ARM GAS  C:\Users\haske\AppData\Local\Temp\ccl1At1U.s 			page 2


  32:..\..\..\arduinoLCD\test\Pain Drain\libraries\lvgl\src\core/lv_indev.c ****  *  STATIC PROTOTYPES
  33:..\..\..\arduinoLCD\test\Pain Drain\libraries\lvgl\src\core/lv_indev.c ****  **********************/
  34:..\..\..\arduinoLCD\test\Pain Drain\libraries\lvgl\src\core/lv_indev.c **** static void indev_pointer_proc(lv_indev_t * i, lv_indev_data_t * data);
  35:..\..\..\arduinoLCD\test\Pain Drain\libraries\lvgl\src\core/lv_indev.c **** static void indev_keypad_proc(lv_indev_t * i, lv_indev_data_t * data);
  36:..\..\..\arduinoLCD\test\Pain Drain\libraries\lvgl\src\core/lv_indev.c **** static void indev_encoder_proc(lv_indev_t * i, lv_indev_data_t * data);
  37:..\..\..\arduinoLCD\test\Pain Drain\libraries\lvgl\src\core/lv_indev.c **** static void indev_button_proc(lv_indev_t * i, lv_indev_data_t * data);
  38:..\..\..\arduinoLCD\test\Pain Drain\libraries\lvgl\src\core/lv_indev.c **** static void indev_proc_press(_lv_indev_proc_t * proc);
  39:..\..\..\arduinoLCD\test\Pain Drain\libraries\lvgl\src\core/lv_indev.c **** static void indev_proc_release(_lv_indev_proc_t * proc);
  40:..\..\..\arduinoLCD\test\Pain Drain\libraries\lvgl\src\core/lv_indev.c **** static void indev_proc_reset_query_handler(lv_indev_t * indev);
  41:..\..\..\arduinoLCD\test\Pain Drain\libraries\lvgl\src\core/lv_indev.c **** static void indev_click_focus(_lv_indev_proc_t * proc);
  42:..\..\..\arduinoLCD\test\Pain Drain\libraries\lvgl\src\core/lv_indev.c **** static void indev_gesture(_lv_indev_proc_t * proc);
  43:..\..\..\arduinoLCD\test\Pain Drain\libraries\lvgl\src\core/lv_indev.c **** static bool indev_reset_check(_lv_indev_proc_t * proc);
  44:..\..\..\arduinoLCD\test\Pain Drain\libraries\lvgl\src\core/lv_indev.c **** 
  45:..\..\..\arduinoLCD\test\Pain Drain\libraries\lvgl\src\core/lv_indev.c **** /**********************
  46:..\..\..\arduinoLCD\test\Pain Drain\libraries\lvgl\src\core/lv_indev.c ****  *  STATIC VARIABLES
  47:..\..\..\arduinoLCD\test\Pain Drain\libraries\lvgl\src\core/lv_indev.c ****  **********************/
  48:..\..\..\arduinoLCD\test\Pain Drain\libraries\lvgl\src\core/lv_indev.c **** static lv_indev_t * indev_act;
  49:..\..\..\arduinoLCD\test\Pain Drain\libraries\lvgl\src\core/lv_indev.c **** static lv_obj_t * indev_obj_act = NULL;
  50:..\..\..\arduinoLCD\test\Pain Drain\libraries\lvgl\src\core/lv_indev.c **** 
  51:..\..\..\arduinoLCD\test\Pain Drain\libraries\lvgl\src\core/lv_indev.c **** /**********************
  52:..\..\..\arduinoLCD\test\Pain Drain\libraries\lvgl\src\core/lv_indev.c ****  *      MACROS
  53:..\..\..\arduinoLCD\test\Pain Drain\libraries\lvgl\src\core/lv_indev.c ****  **********************/
  54:..\..\..\arduinoLCD\test\Pain Drain\libraries\lvgl\src\core/lv_indev.c **** #if LV_LOG_TRACE_INDEV
  55:..\..\..\arduinoLCD\test\Pain Drain\libraries\lvgl\src\core/lv_indev.c ****     #define INDEV_TRACE(...) LV_LOG_TRACE(__VA_ARGS__)
  56:..\..\..\arduinoLCD\test\Pain Drain\libraries\lvgl\src\core/lv_indev.c **** #else
  57:..\..\..\arduinoLCD\test\Pain Drain\libraries\lvgl\src\core/lv_indev.c ****     #define INDEV_TRACE(...)
  58:..\..\..\arduinoLCD\test\Pain Drain\libraries\lvgl\src\core/lv_indev.c **** #endif
  59:..\..\..\arduinoLCD\test\Pain Drain\libraries\lvgl\src\core/lv_indev.c **** 
  60:..\..\..\arduinoLCD\test\Pain Drain\libraries\lvgl\src\core/lv_indev.c **** /**********************
  61:..\..\..\arduinoLCD\test\Pain Drain\libraries\lvgl\src\core/lv_indev.c ****  *   GLOBAL FUNCTIONS
  62:..\..\..\arduinoLCD\test\Pain Drain\libraries\lvgl\src\core/lv_indev.c ****  **********************/
  63:..\..\..\arduinoLCD\test\Pain Drain\libraries\lvgl\src\core/lv_indev.c **** 
  64:..\..\..\arduinoLCD\test\Pain Drain\libraries\lvgl\src\core/lv_indev.c **** void lv_indev_read_timer_cb(lv_timer_t * timer)
  65:..\..\..\arduinoLCD\test\Pain Drain\libraries\lvgl\src\core/lv_indev.c **** {
  66:..\..\..\arduinoLCD\test\Pain Drain\libraries\lvgl\src\core/lv_indev.c ****     INDEV_TRACE("begin");
  67:..\..\..\arduinoLCD\test\Pain Drain\libraries\lvgl\src\core/lv_indev.c **** 
  68:..\..\..\arduinoLCD\test\Pain Drain\libraries\lvgl\src\core/lv_indev.c ****     lv_indev_data_t data;
  69:..\..\..\arduinoLCD\test\Pain Drain\libraries\lvgl\src\core/lv_indev.c **** 
  70:..\..\..\arduinoLCD\test\Pain Drain\libraries\lvgl\src\core/lv_indev.c ****     indev_act = timer->user_data;
  71:..\..\..\arduinoLCD\test\Pain Drain\libraries\lvgl\src\core/lv_indev.c **** 
  72:..\..\..\arduinoLCD\test\Pain Drain\libraries\lvgl\src\core/lv_indev.c ****     /*Read and process all indevs*/
  73:..\..\..\arduinoLCD\test\Pain Drain\libraries\lvgl\src\core/lv_indev.c ****     if(indev_act->driver->disp == NULL) return; /*Not assigned to any displays*/
  74:..\..\..\arduinoLCD\test\Pain Drain\libraries\lvgl\src\core/lv_indev.c **** 
  75:..\..\..\arduinoLCD\test\Pain Drain\libraries\lvgl\src\core/lv_indev.c ****     /*Handle reset query before processing the point*/
  76:..\..\..\arduinoLCD\test\Pain Drain\libraries\lvgl\src\core/lv_indev.c ****     indev_proc_reset_query_handler(indev_act);
  77:..\..\..\arduinoLCD\test\Pain Drain\libraries\lvgl\src\core/lv_indev.c **** 
  78:..\..\..\arduinoLCD\test\Pain Drain\libraries\lvgl\src\core/lv_indev.c ****     if(indev_act->proc.disabled ||
  79:..\..\..\arduinoLCD\test\Pain Drain\libraries\lvgl\src\core/lv_indev.c ****        indev_act->driver->disp->prev_scr != NULL) return; /*Input disabled or screen animation acti
  80:..\..\..\arduinoLCD\test\Pain Drain\libraries\lvgl\src\core/lv_indev.c ****     bool continue_reading;
  81:..\..\..\arduinoLCD\test\Pain Drain\libraries\lvgl\src\core/lv_indev.c ****     do {
  82:..\..\..\arduinoLCD\test\Pain Drain\libraries\lvgl\src\core/lv_indev.c ****         /*Read the data*/
  83:..\..\..\arduinoLCD\test\Pain Drain\libraries\lvgl\src\core/lv_indev.c ****         _lv_indev_read(indev_act, &data);
  84:..\..\..\arduinoLCD\test\Pain Drain\libraries\lvgl\src\core/lv_indev.c ****         continue_reading = data.continue_reading;
  85:..\..\..\arduinoLCD\test\Pain Drain\libraries\lvgl\src\core/lv_indev.c **** 
  86:..\..\..\arduinoLCD\test\Pain Drain\libraries\lvgl\src\core/lv_indev.c ****         /*The active object might be deleted even in the read function*/
  87:..\..\..\arduinoLCD\test\Pain Drain\libraries\lvgl\src\core/lv_indev.c ****         indev_proc_reset_query_handler(indev_act);
  88:..\..\..\arduinoLCD\test\Pain Drain\libraries\lvgl\src\core/lv_indev.c ****         indev_obj_act = NULL;
ARM GAS  C:\Users\haske\AppData\Local\Temp\ccl1At1U.s 			page 3


  89:..\..\..\arduinoLCD\test\Pain Drain\libraries\lvgl\src\core/lv_indev.c **** 
  90:..\..\..\arduinoLCD\test\Pain Drain\libraries\lvgl\src\core/lv_indev.c ****         indev_act->proc.state = data.state;
  91:..\..\..\arduinoLCD\test\Pain Drain\libraries\lvgl\src\core/lv_indev.c **** 
  92:..\..\..\arduinoLCD\test\Pain Drain\libraries\lvgl\src\core/lv_indev.c ****         /*Save the last activity time*/
  93:..\..\..\arduinoLCD\test\Pain Drain\libraries\lvgl\src\core/lv_indev.c ****         if(indev_act->proc.state == LV_INDEV_STATE_PRESSED) {
  94:..\..\..\arduinoLCD\test\Pain Drain\libraries\lvgl\src\core/lv_indev.c ****             indev_act->driver->disp->last_activity_time = lv_tick_get();
  95:..\..\..\arduinoLCD\test\Pain Drain\libraries\lvgl\src\core/lv_indev.c ****         }
  96:..\..\..\arduinoLCD\test\Pain Drain\libraries\lvgl\src\core/lv_indev.c ****         else if(indev_act->driver->type == LV_INDEV_TYPE_ENCODER && data.enc_diff) {
  97:..\..\..\arduinoLCD\test\Pain Drain\libraries\lvgl\src\core/lv_indev.c ****             indev_act->driver->disp->last_activity_time = lv_tick_get();
  98:..\..\..\arduinoLCD\test\Pain Drain\libraries\lvgl\src\core/lv_indev.c ****         }
  99:..\..\..\arduinoLCD\test\Pain Drain\libraries\lvgl\src\core/lv_indev.c **** 
 100:..\..\..\arduinoLCD\test\Pain Drain\libraries\lvgl\src\core/lv_indev.c ****         if(indev_act->driver->type == LV_INDEV_TYPE_POINTER) {
 101:..\..\..\arduinoLCD\test\Pain Drain\libraries\lvgl\src\core/lv_indev.c ****             indev_pointer_proc(indev_act, &data);
 102:..\..\..\arduinoLCD\test\Pain Drain\libraries\lvgl\src\core/lv_indev.c ****         }
 103:..\..\..\arduinoLCD\test\Pain Drain\libraries\lvgl\src\core/lv_indev.c ****         else if(indev_act->driver->type == LV_INDEV_TYPE_KEYPAD) {
 104:..\..\..\arduinoLCD\test\Pain Drain\libraries\lvgl\src\core/lv_indev.c ****             indev_keypad_proc(indev_act, &data);
 105:..\..\..\arduinoLCD\test\Pain Drain\libraries\lvgl\src\core/lv_indev.c ****         }
 106:..\..\..\arduinoLCD\test\Pain Drain\libraries\lvgl\src\core/lv_indev.c ****         else if(indev_act->driver->type == LV_INDEV_TYPE_ENCODER) {
 107:..\..\..\arduinoLCD\test\Pain Drain\libraries\lvgl\src\core/lv_indev.c ****             indev_encoder_proc(indev_act, &data);
 108:..\..\..\arduinoLCD\test\Pain Drain\libraries\lvgl\src\core/lv_indev.c ****         }
 109:..\..\..\arduinoLCD\test\Pain Drain\libraries\lvgl\src\core/lv_indev.c ****         else if(indev_act->driver->type == LV_INDEV_TYPE_BUTTON) {
 110:..\..\..\arduinoLCD\test\Pain Drain\libraries\lvgl\src\core/lv_indev.c ****             indev_button_proc(indev_act, &data);
 111:..\..\..\arduinoLCD\test\Pain Drain\libraries\lvgl\src\core/lv_indev.c ****         }
 112:..\..\..\arduinoLCD\test\Pain Drain\libraries\lvgl\src\core/lv_indev.c ****         /*Handle reset query if it happened in during processing*/
 113:..\..\..\arduinoLCD\test\Pain Drain\libraries\lvgl\src\core/lv_indev.c ****         indev_proc_reset_query_handler(indev_act);
 114:..\..\..\arduinoLCD\test\Pain Drain\libraries\lvgl\src\core/lv_indev.c ****     } while(continue_reading);
 115:..\..\..\arduinoLCD\test\Pain Drain\libraries\lvgl\src\core/lv_indev.c **** 
 116:..\..\..\arduinoLCD\test\Pain Drain\libraries\lvgl\src\core/lv_indev.c ****     /*End of indev processing, so no act indev*/
 117:..\..\..\arduinoLCD\test\Pain Drain\libraries\lvgl\src\core/lv_indev.c ****     indev_act     = NULL;
 118:..\..\..\arduinoLCD\test\Pain Drain\libraries\lvgl\src\core/lv_indev.c ****     indev_obj_act = NULL;
 119:..\..\..\arduinoLCD\test\Pain Drain\libraries\lvgl\src\core/lv_indev.c **** 
 120:..\..\..\arduinoLCD\test\Pain Drain\libraries\lvgl\src\core/lv_indev.c ****     INDEV_TRACE("finished");
 121:..\..\..\arduinoLCD\test\Pain Drain\libraries\lvgl\src\core/lv_indev.c **** }
 122:..\..\..\arduinoLCD\test\Pain Drain\libraries\lvgl\src\core/lv_indev.c **** 
 123:..\..\..\arduinoLCD\test\Pain Drain\libraries\lvgl\src\core/lv_indev.c **** void lv_indev_enable(lv_indev_t * indev, bool en)
 124:..\..\..\arduinoLCD\test\Pain Drain\libraries\lvgl\src\core/lv_indev.c **** {
 125:..\..\..\arduinoLCD\test\Pain Drain\libraries\lvgl\src\core/lv_indev.c ****     uint8_t enable = en ? 0 : 1;
 126:..\..\..\arduinoLCD\test\Pain Drain\libraries\lvgl\src\core/lv_indev.c **** 
 127:..\..\..\arduinoLCD\test\Pain Drain\libraries\lvgl\src\core/lv_indev.c ****     if(indev) {
 128:..\..\..\arduinoLCD\test\Pain Drain\libraries\lvgl\src\core/lv_indev.c ****         indev->proc.disabled = enable;
 129:..\..\..\arduinoLCD\test\Pain Drain\libraries\lvgl\src\core/lv_indev.c ****     }
 130:..\..\..\arduinoLCD\test\Pain Drain\libraries\lvgl\src\core/lv_indev.c ****     else {
 131:..\..\..\arduinoLCD\test\Pain Drain\libraries\lvgl\src\core/lv_indev.c ****         lv_indev_t * i = lv_indev_get_next(NULL);
 132:..\..\..\arduinoLCD\test\Pain Drain\libraries\lvgl\src\core/lv_indev.c ****         while(i) {
 133:..\..\..\arduinoLCD\test\Pain Drain\libraries\lvgl\src\core/lv_indev.c ****             i->proc.disabled = enable;
 134:..\..\..\arduinoLCD\test\Pain Drain\libraries\lvgl\src\core/lv_indev.c ****             i = lv_indev_get_next(i);
 135:..\..\..\arduinoLCD\test\Pain Drain\libraries\lvgl\src\core/lv_indev.c ****         }
 136:..\..\..\arduinoLCD\test\Pain Drain\libraries\lvgl\src\core/lv_indev.c ****     }
 137:..\..\..\arduinoLCD\test\Pain Drain\libraries\lvgl\src\core/lv_indev.c **** }
 138:..\..\..\arduinoLCD\test\Pain Drain\libraries\lvgl\src\core/lv_indev.c **** 
 139:..\..\..\arduinoLCD\test\Pain Drain\libraries\lvgl\src\core/lv_indev.c **** lv_indev_t * lv_indev_get_act(void)
 140:..\..\..\arduinoLCD\test\Pain Drain\libraries\lvgl\src\core/lv_indev.c **** {
 141:..\..\..\arduinoLCD\test\Pain Drain\libraries\lvgl\src\core/lv_indev.c ****     return indev_act;
 142:..\..\..\arduinoLCD\test\Pain Drain\libraries\lvgl\src\core/lv_indev.c **** }
 143:..\..\..\arduinoLCD\test\Pain Drain\libraries\lvgl\src\core/lv_indev.c **** 
 144:..\..\..\arduinoLCD\test\Pain Drain\libraries\lvgl\src\core/lv_indev.c **** lv_indev_type_t lv_indev_get_type(const lv_indev_t * indev)
 145:..\..\..\arduinoLCD\test\Pain Drain\libraries\lvgl\src\core/lv_indev.c **** {
ARM GAS  C:\Users\haske\AppData\Local\Temp\ccl1At1U.s 			page 4


 146:..\..\..\arduinoLCD\test\Pain Drain\libraries\lvgl\src\core/lv_indev.c ****     if(indev == NULL) return LV_INDEV_TYPE_NONE;
 147:..\..\..\arduinoLCD\test\Pain Drain\libraries\lvgl\src\core/lv_indev.c **** 
 148:..\..\..\arduinoLCD\test\Pain Drain\libraries\lvgl\src\core/lv_indev.c ****     return indev->driver->type;
 149:..\..\..\arduinoLCD\test\Pain Drain\libraries\lvgl\src\core/lv_indev.c **** }
 150:..\..\..\arduinoLCD\test\Pain Drain\libraries\lvgl\src\core/lv_indev.c **** 
 151:..\..\..\arduinoLCD\test\Pain Drain\libraries\lvgl\src\core/lv_indev.c **** void lv_indev_reset(lv_indev_t * indev, lv_obj_t * obj)
 152:..\..\..\arduinoLCD\test\Pain Drain\libraries\lvgl\src\core/lv_indev.c **** {
 153:..\..\..\arduinoLCD\test\Pain Drain\libraries\lvgl\src\core/lv_indev.c ****     if(indev) {
 154:..\..\..\arduinoLCD\test\Pain Drain\libraries\lvgl\src\core/lv_indev.c ****         indev->proc.reset_query = 1;
 155:..\..\..\arduinoLCD\test\Pain Drain\libraries\lvgl\src\core/lv_indev.c ****         if(indev_act == indev) indev_obj_act = NULL;
 156:..\..\..\arduinoLCD\test\Pain Drain\libraries\lvgl\src\core/lv_indev.c ****         if(indev->driver->type == LV_INDEV_TYPE_POINTER || indev->driver->type == LV_INDEV_TYPE_KEY
 157:..\..\..\arduinoLCD\test\Pain Drain\libraries\lvgl\src\core/lv_indev.c ****             if(obj == NULL || indev->proc.types.pointer.last_pressed == obj) {
 158:..\..\..\arduinoLCD\test\Pain Drain\libraries\lvgl\src\core/lv_indev.c ****                 indev->proc.types.pointer.last_pressed = NULL;
 159:..\..\..\arduinoLCD\test\Pain Drain\libraries\lvgl\src\core/lv_indev.c ****             }
 160:..\..\..\arduinoLCD\test\Pain Drain\libraries\lvgl\src\core/lv_indev.c ****             if(obj == NULL || indev->proc.types.pointer.act_obj == obj) {
 161:..\..\..\arduinoLCD\test\Pain Drain\libraries\lvgl\src\core/lv_indev.c ****                 indev->proc.types.pointer.act_obj = NULL;
 162:..\..\..\arduinoLCD\test\Pain Drain\libraries\lvgl\src\core/lv_indev.c ****             }
 163:..\..\..\arduinoLCD\test\Pain Drain\libraries\lvgl\src\core/lv_indev.c ****             if(obj == NULL || indev->proc.types.pointer.last_obj == obj) {
 164:..\..\..\arduinoLCD\test\Pain Drain\libraries\lvgl\src\core/lv_indev.c ****                 indev->proc.types.pointer.last_obj = NULL;
 165:..\..\..\arduinoLCD\test\Pain Drain\libraries\lvgl\src\core/lv_indev.c ****             }
 166:..\..\..\arduinoLCD\test\Pain Drain\libraries\lvgl\src\core/lv_indev.c ****         }
 167:..\..\..\arduinoLCD\test\Pain Drain\libraries\lvgl\src\core/lv_indev.c ****     }
 168:..\..\..\arduinoLCD\test\Pain Drain\libraries\lvgl\src\core/lv_indev.c ****     else {
 169:..\..\..\arduinoLCD\test\Pain Drain\libraries\lvgl\src\core/lv_indev.c ****         lv_indev_t * i = lv_indev_get_next(NULL);
 170:..\..\..\arduinoLCD\test\Pain Drain\libraries\lvgl\src\core/lv_indev.c ****         while(i) {
 171:..\..\..\arduinoLCD\test\Pain Drain\libraries\lvgl\src\core/lv_indev.c ****             i->proc.reset_query = 1;
 172:..\..\..\arduinoLCD\test\Pain Drain\libraries\lvgl\src\core/lv_indev.c ****             if(i->driver->type == LV_INDEV_TYPE_POINTER || i->driver->type == LV_INDEV_TYPE_KEYPAD)
 173:..\..\..\arduinoLCD\test\Pain Drain\libraries\lvgl\src\core/lv_indev.c ****                 if(obj == NULL || i->proc.types.pointer.last_pressed == obj) {
 174:..\..\..\arduinoLCD\test\Pain Drain\libraries\lvgl\src\core/lv_indev.c ****                     i->proc.types.pointer.last_pressed = NULL;
 175:..\..\..\arduinoLCD\test\Pain Drain\libraries\lvgl\src\core/lv_indev.c ****                 }
 176:..\..\..\arduinoLCD\test\Pain Drain\libraries\lvgl\src\core/lv_indev.c ****                 if(obj == NULL || i->proc.types.pointer.act_obj == obj) {
 177:..\..\..\arduinoLCD\test\Pain Drain\libraries\lvgl\src\core/lv_indev.c ****                     i->proc.types.pointer.act_obj = NULL;
 178:..\..\..\arduinoLCD\test\Pain Drain\libraries\lvgl\src\core/lv_indev.c ****                 }
 179:..\..\..\arduinoLCD\test\Pain Drain\libraries\lvgl\src\core/lv_indev.c ****                 if(obj == NULL || i->proc.types.pointer.last_obj == obj) {
 180:..\..\..\arduinoLCD\test\Pain Drain\libraries\lvgl\src\core/lv_indev.c ****                     i->proc.types.pointer.last_obj = NULL;
 181:..\..\..\arduinoLCD\test\Pain Drain\libraries\lvgl\src\core/lv_indev.c ****                 }
 182:..\..\..\arduinoLCD\test\Pain Drain\libraries\lvgl\src\core/lv_indev.c ****             }
 183:..\..\..\arduinoLCD\test\Pain Drain\libraries\lvgl\src\core/lv_indev.c ****             i = lv_indev_get_next(i);
 184:..\..\..\arduinoLCD\test\Pain Drain\libraries\lvgl\src\core/lv_indev.c ****         }
 185:..\..\..\arduinoLCD\test\Pain Drain\libraries\lvgl\src\core/lv_indev.c ****         indev_obj_act = NULL;
 186:..\..\..\arduinoLCD\test\Pain Drain\libraries\lvgl\src\core/lv_indev.c ****     }
 187:..\..\..\arduinoLCD\test\Pain Drain\libraries\lvgl\src\core/lv_indev.c **** }
 188:..\..\..\arduinoLCD\test\Pain Drain\libraries\lvgl\src\core/lv_indev.c **** 
 189:..\..\..\arduinoLCD\test\Pain Drain\libraries\lvgl\src\core/lv_indev.c **** void lv_indev_reset_long_press(lv_indev_t * indev)
 190:..\..\..\arduinoLCD\test\Pain Drain\libraries\lvgl\src\core/lv_indev.c **** {
 191:..\..\..\arduinoLCD\test\Pain Drain\libraries\lvgl\src\core/lv_indev.c ****     indev->proc.long_pr_sent         = 0;
 192:..\..\..\arduinoLCD\test\Pain Drain\libraries\lvgl\src\core/lv_indev.c ****     indev->proc.longpr_rep_timestamp = lv_tick_get();
 193:..\..\..\arduinoLCD\test\Pain Drain\libraries\lvgl\src\core/lv_indev.c ****     indev->proc.pr_timestamp         = lv_tick_get();
 194:..\..\..\arduinoLCD\test\Pain Drain\libraries\lvgl\src\core/lv_indev.c **** }
 195:..\..\..\arduinoLCD\test\Pain Drain\libraries\lvgl\src\core/lv_indev.c **** 
 196:..\..\..\arduinoLCD\test\Pain Drain\libraries\lvgl\src\core/lv_indev.c **** void lv_indev_set_cursor(lv_indev_t * indev, lv_obj_t * cur_obj)
 197:..\..\..\arduinoLCD\test\Pain Drain\libraries\lvgl\src\core/lv_indev.c **** {
 198:..\..\..\arduinoLCD\test\Pain Drain\libraries\lvgl\src\core/lv_indev.c ****     if(indev->driver->type != LV_INDEV_TYPE_POINTER) return;
 199:..\..\..\arduinoLCD\test\Pain Drain\libraries\lvgl\src\core/lv_indev.c **** 
 200:..\..\..\arduinoLCD\test\Pain Drain\libraries\lvgl\src\core/lv_indev.c ****     indev->cursor = cur_obj;
 201:..\..\..\arduinoLCD\test\Pain Drain\libraries\lvgl\src\core/lv_indev.c ****     lv_obj_set_parent(indev->cursor, lv_disp_get_layer_sys(indev->driver->disp));
 202:..\..\..\arduinoLCD\test\Pain Drain\libraries\lvgl\src\core/lv_indev.c ****     lv_obj_set_pos(indev->cursor, indev->proc.types.pointer.act_point.x, indev->proc.types.pointer.
ARM GAS  C:\Users\haske\AppData\Local\Temp\ccl1At1U.s 			page 5


 203:..\..\..\arduinoLCD\test\Pain Drain\libraries\lvgl\src\core/lv_indev.c ****     lv_obj_clear_flag(indev->cursor, LV_OBJ_FLAG_CLICKABLE);
 204:..\..\..\arduinoLCD\test\Pain Drain\libraries\lvgl\src\core/lv_indev.c ****     lv_obj_add_flag(indev->cursor, LV_OBJ_FLAG_IGNORE_LAYOUT | LV_OBJ_FLAG_FLOATING);
 205:..\..\..\arduinoLCD\test\Pain Drain\libraries\lvgl\src\core/lv_indev.c **** }
 206:..\..\..\arduinoLCD\test\Pain Drain\libraries\lvgl\src\core/lv_indev.c **** 
 207:..\..\..\arduinoLCD\test\Pain Drain\libraries\lvgl\src\core/lv_indev.c **** void lv_indev_set_group(lv_indev_t * indev, lv_group_t * group)
 208:..\..\..\arduinoLCD\test\Pain Drain\libraries\lvgl\src\core/lv_indev.c **** {
 209:..\..\..\arduinoLCD\test\Pain Drain\libraries\lvgl\src\core/lv_indev.c ****     if(indev->driver->type == LV_INDEV_TYPE_KEYPAD || indev->driver->type == LV_INDEV_TYPE_ENCODER)
 210:..\..\..\arduinoLCD\test\Pain Drain\libraries\lvgl\src\core/lv_indev.c ****         indev->group = group;
 211:..\..\..\arduinoLCD\test\Pain Drain\libraries\lvgl\src\core/lv_indev.c ****     }
 212:..\..\..\arduinoLCD\test\Pain Drain\libraries\lvgl\src\core/lv_indev.c **** }
 213:..\..\..\arduinoLCD\test\Pain Drain\libraries\lvgl\src\core/lv_indev.c **** 
 214:..\..\..\arduinoLCD\test\Pain Drain\libraries\lvgl\src\core/lv_indev.c **** void lv_indev_set_button_points(lv_indev_t * indev, const lv_point_t points[])
 215:..\..\..\arduinoLCD\test\Pain Drain\libraries\lvgl\src\core/lv_indev.c **** {
 216:..\..\..\arduinoLCD\test\Pain Drain\libraries\lvgl\src\core/lv_indev.c ****     if(indev->driver->type == LV_INDEV_TYPE_BUTTON) {
 217:..\..\..\arduinoLCD\test\Pain Drain\libraries\lvgl\src\core/lv_indev.c ****         indev->btn_points = points;
 218:..\..\..\arduinoLCD\test\Pain Drain\libraries\lvgl\src\core/lv_indev.c ****     }
 219:..\..\..\arduinoLCD\test\Pain Drain\libraries\lvgl\src\core/lv_indev.c **** }
 220:..\..\..\arduinoLCD\test\Pain Drain\libraries\lvgl\src\core/lv_indev.c **** 
 221:..\..\..\arduinoLCD\test\Pain Drain\libraries\lvgl\src\core/lv_indev.c **** void lv_indev_get_point(const lv_indev_t * indev, lv_point_t * point)
 222:..\..\..\arduinoLCD\test\Pain Drain\libraries\lvgl\src\core/lv_indev.c **** {
 223:..\..\..\arduinoLCD\test\Pain Drain\libraries\lvgl\src\core/lv_indev.c ****     if(indev == NULL) {
 224:..\..\..\arduinoLCD\test\Pain Drain\libraries\lvgl\src\core/lv_indev.c ****         point->x = 0;
 225:..\..\..\arduinoLCD\test\Pain Drain\libraries\lvgl\src\core/lv_indev.c ****         point->y = 0;
 226:..\..\..\arduinoLCD\test\Pain Drain\libraries\lvgl\src\core/lv_indev.c ****         return;
 227:..\..\..\arduinoLCD\test\Pain Drain\libraries\lvgl\src\core/lv_indev.c ****     }
 228:..\..\..\arduinoLCD\test\Pain Drain\libraries\lvgl\src\core/lv_indev.c ****     if(indev->driver->type != LV_INDEV_TYPE_POINTER && indev->driver->type != LV_INDEV_TYPE_BUTTON)
 229:..\..\..\arduinoLCD\test\Pain Drain\libraries\lvgl\src\core/lv_indev.c ****         point->x = -1;
 230:..\..\..\arduinoLCD\test\Pain Drain\libraries\lvgl\src\core/lv_indev.c ****         point->y = -1;
 231:..\..\..\arduinoLCD\test\Pain Drain\libraries\lvgl\src\core/lv_indev.c ****     }
 232:..\..\..\arduinoLCD\test\Pain Drain\libraries\lvgl\src\core/lv_indev.c ****     else {
 233:..\..\..\arduinoLCD\test\Pain Drain\libraries\lvgl\src\core/lv_indev.c ****         point->x = indev->proc.types.pointer.act_point.x;
 234:..\..\..\arduinoLCD\test\Pain Drain\libraries\lvgl\src\core/lv_indev.c ****         point->y = indev->proc.types.pointer.act_point.y;
 235:..\..\..\arduinoLCD\test\Pain Drain\libraries\lvgl\src\core/lv_indev.c ****     }
 236:..\..\..\arduinoLCD\test\Pain Drain\libraries\lvgl\src\core/lv_indev.c **** }
 237:..\..\..\arduinoLCD\test\Pain Drain\libraries\lvgl\src\core/lv_indev.c **** 
 238:..\..\..\arduinoLCD\test\Pain Drain\libraries\lvgl\src\core/lv_indev.c **** lv_dir_t lv_indev_get_gesture_dir(const lv_indev_t * indev)
 239:..\..\..\arduinoLCD\test\Pain Drain\libraries\lvgl\src\core/lv_indev.c **** {
 240:..\..\..\arduinoLCD\test\Pain Drain\libraries\lvgl\src\core/lv_indev.c ****     return indev->proc.types.pointer.gesture_dir;
 241:..\..\..\arduinoLCD\test\Pain Drain\libraries\lvgl\src\core/lv_indev.c **** }
 242:..\..\..\arduinoLCD\test\Pain Drain\libraries\lvgl\src\core/lv_indev.c **** 
 243:..\..\..\arduinoLCD\test\Pain Drain\libraries\lvgl\src\core/lv_indev.c **** uint32_t lv_indev_get_key(const lv_indev_t * indev)
 244:..\..\..\arduinoLCD\test\Pain Drain\libraries\lvgl\src\core/lv_indev.c **** {
 245:..\..\..\arduinoLCD\test\Pain Drain\libraries\lvgl\src\core/lv_indev.c ****     if(indev->driver->type != LV_INDEV_TYPE_KEYPAD)
 246:..\..\..\arduinoLCD\test\Pain Drain\libraries\lvgl\src\core/lv_indev.c ****         return 0;
 247:..\..\..\arduinoLCD\test\Pain Drain\libraries\lvgl\src\core/lv_indev.c ****     else
 248:..\..\..\arduinoLCD\test\Pain Drain\libraries\lvgl\src\core/lv_indev.c ****         return indev->proc.types.keypad.last_key;
 249:..\..\..\arduinoLCD\test\Pain Drain\libraries\lvgl\src\core/lv_indev.c **** }
 250:..\..\..\arduinoLCD\test\Pain Drain\libraries\lvgl\src\core/lv_indev.c **** 
 251:..\..\..\arduinoLCD\test\Pain Drain\libraries\lvgl\src\core/lv_indev.c **** lv_dir_t lv_indev_get_scroll_dir(const lv_indev_t * indev)
 252:..\..\..\arduinoLCD\test\Pain Drain\libraries\lvgl\src\core/lv_indev.c **** {
 253:..\..\..\arduinoLCD\test\Pain Drain\libraries\lvgl\src\core/lv_indev.c ****     if(indev == NULL) return false;
 254:..\..\..\arduinoLCD\test\Pain Drain\libraries\lvgl\src\core/lv_indev.c ****     if(indev->driver->type != LV_INDEV_TYPE_POINTER && indev->driver->type != LV_INDEV_TYPE_BUTTON)
 255:..\..\..\arduinoLCD\test\Pain Drain\libraries\lvgl\src\core/lv_indev.c ****     return indev->proc.types.pointer.scroll_dir;
 256:..\..\..\arduinoLCD\test\Pain Drain\libraries\lvgl\src\core/lv_indev.c **** }
 257:..\..\..\arduinoLCD\test\Pain Drain\libraries\lvgl\src\core/lv_indev.c **** 
 258:..\..\..\arduinoLCD\test\Pain Drain\libraries\lvgl\src\core/lv_indev.c **** lv_obj_t * lv_indev_get_scroll_obj(const lv_indev_t * indev)
 259:..\..\..\arduinoLCD\test\Pain Drain\libraries\lvgl\src\core/lv_indev.c **** {
ARM GAS  C:\Users\haske\AppData\Local\Temp\ccl1At1U.s 			page 6


 260:..\..\..\arduinoLCD\test\Pain Drain\libraries\lvgl\src\core/lv_indev.c ****     if(indev == NULL) return NULL;
 261:..\..\..\arduinoLCD\test\Pain Drain\libraries\lvgl\src\core/lv_indev.c ****     if(indev->driver->type != LV_INDEV_TYPE_POINTER && indev->driver->type != LV_INDEV_TYPE_BUTTON)
 262:..\..\..\arduinoLCD\test\Pain Drain\libraries\lvgl\src\core/lv_indev.c ****     return indev->proc.types.pointer.scroll_obj;
 263:..\..\..\arduinoLCD\test\Pain Drain\libraries\lvgl\src\core/lv_indev.c **** }
 264:..\..\..\arduinoLCD\test\Pain Drain\libraries\lvgl\src\core/lv_indev.c **** 
 265:..\..\..\arduinoLCD\test\Pain Drain\libraries\lvgl\src\core/lv_indev.c **** void lv_indev_get_vect(const lv_indev_t * indev, lv_point_t * point)
 266:..\..\..\arduinoLCD\test\Pain Drain\libraries\lvgl\src\core/lv_indev.c **** {
 267:..\..\..\arduinoLCD\test\Pain Drain\libraries\lvgl\src\core/lv_indev.c ****     point->x = 0;
 268:..\..\..\arduinoLCD\test\Pain Drain\libraries\lvgl\src\core/lv_indev.c ****     point->y = 0;
 269:..\..\..\arduinoLCD\test\Pain Drain\libraries\lvgl\src\core/lv_indev.c **** 
 270:..\..\..\arduinoLCD\test\Pain Drain\libraries\lvgl\src\core/lv_indev.c ****     if(indev == NULL) return;
 271:..\..\..\arduinoLCD\test\Pain Drain\libraries\lvgl\src\core/lv_indev.c **** 
 272:..\..\..\arduinoLCD\test\Pain Drain\libraries\lvgl\src\core/lv_indev.c ****     if(indev->driver->type == LV_INDEV_TYPE_POINTER || indev->driver->type == LV_INDEV_TYPE_BUTTON)
 273:..\..\..\arduinoLCD\test\Pain Drain\libraries\lvgl\src\core/lv_indev.c ****         point->x = indev->proc.types.pointer.vect.x;
 274:..\..\..\arduinoLCD\test\Pain Drain\libraries\lvgl\src\core/lv_indev.c ****         point->y = indev->proc.types.pointer.vect.y;
 275:..\..\..\arduinoLCD\test\Pain Drain\libraries\lvgl\src\core/lv_indev.c ****     }
 276:..\..\..\arduinoLCD\test\Pain Drain\libraries\lvgl\src\core/lv_indev.c **** }
 277:..\..\..\arduinoLCD\test\Pain Drain\libraries\lvgl\src\core/lv_indev.c **** 
 278:..\..\..\arduinoLCD\test\Pain Drain\libraries\lvgl\src\core/lv_indev.c **** void lv_indev_wait_release(lv_indev_t * indev)
 279:..\..\..\arduinoLCD\test\Pain Drain\libraries\lvgl\src\core/lv_indev.c **** {
 280:..\..\..\arduinoLCD\test\Pain Drain\libraries\lvgl\src\core/lv_indev.c ****     if(indev == NULL)return;
 281:..\..\..\arduinoLCD\test\Pain Drain\libraries\lvgl\src\core/lv_indev.c ****     indev->proc.wait_until_release = 1;
 282:..\..\..\arduinoLCD\test\Pain Drain\libraries\lvgl\src\core/lv_indev.c **** }
 283:..\..\..\arduinoLCD\test\Pain Drain\libraries\lvgl\src\core/lv_indev.c **** 
 284:..\..\..\arduinoLCD\test\Pain Drain\libraries\lvgl\src\core/lv_indev.c **** lv_obj_t * lv_indev_get_obj_act(void)
 285:..\..\..\arduinoLCD\test\Pain Drain\libraries\lvgl\src\core/lv_indev.c **** {
 286:..\..\..\arduinoLCD\test\Pain Drain\libraries\lvgl\src\core/lv_indev.c ****     return indev_obj_act;
 287:..\..\..\arduinoLCD\test\Pain Drain\libraries\lvgl\src\core/lv_indev.c **** }
 288:..\..\..\arduinoLCD\test\Pain Drain\libraries\lvgl\src\core/lv_indev.c **** 
 289:..\..\..\arduinoLCD\test\Pain Drain\libraries\lvgl\src\core/lv_indev.c **** lv_timer_t * lv_indev_get_read_timer(lv_disp_t * indev)
 290:..\..\..\arduinoLCD\test\Pain Drain\libraries\lvgl\src\core/lv_indev.c **** {
 291:..\..\..\arduinoLCD\test\Pain Drain\libraries\lvgl\src\core/lv_indev.c ****     if(!indev) {
 292:..\..\..\arduinoLCD\test\Pain Drain\libraries\lvgl\src\core/lv_indev.c ****         LV_LOG_WARN("lv_indev_get_read_timer: indev was NULL");
 293:..\..\..\arduinoLCD\test\Pain Drain\libraries\lvgl\src\core/lv_indev.c ****         return NULL;
 294:..\..\..\arduinoLCD\test\Pain Drain\libraries\lvgl\src\core/lv_indev.c ****     }
 295:..\..\..\arduinoLCD\test\Pain Drain\libraries\lvgl\src\core/lv_indev.c **** 
 296:..\..\..\arduinoLCD\test\Pain Drain\libraries\lvgl\src\core/lv_indev.c ****     return indev->refr_timer;
 297:..\..\..\arduinoLCD\test\Pain Drain\libraries\lvgl\src\core/lv_indev.c **** }
 298:..\..\..\arduinoLCD\test\Pain Drain\libraries\lvgl\src\core/lv_indev.c **** 
 299:..\..\..\arduinoLCD\test\Pain Drain\libraries\lvgl\src\core/lv_indev.c **** 
 300:..\..\..\arduinoLCD\test\Pain Drain\libraries\lvgl\src\core/lv_indev.c **** lv_obj_t * lv_indev_search_obj(lv_obj_t * obj, lv_point_t * point)
 301:..\..\..\arduinoLCD\test\Pain Drain\libraries\lvgl\src\core/lv_indev.c **** {
 302:..\..\..\arduinoLCD\test\Pain Drain\libraries\lvgl\src\core/lv_indev.c ****     lv_obj_t * found_p = NULL;
 303:..\..\..\arduinoLCD\test\Pain Drain\libraries\lvgl\src\core/lv_indev.c **** 
 304:..\..\..\arduinoLCD\test\Pain Drain\libraries\lvgl\src\core/lv_indev.c ****     /*If this obj is hidden the children are hidden too so return immediately*/
 305:..\..\..\arduinoLCD\test\Pain Drain\libraries\lvgl\src\core/lv_indev.c ****     if(lv_obj_has_flag(obj, LV_OBJ_FLAG_HIDDEN)) return NULL;
 306:..\..\..\arduinoLCD\test\Pain Drain\libraries\lvgl\src\core/lv_indev.c **** 
 307:..\..\..\arduinoLCD\test\Pain Drain\libraries\lvgl\src\core/lv_indev.c ****     lv_point_t p_trans = *point;
 308:..\..\..\arduinoLCD\test\Pain Drain\libraries\lvgl\src\core/lv_indev.c ****     lv_obj_transform_point(obj, &p_trans, false, true);
 309:..\..\..\arduinoLCD\test\Pain Drain\libraries\lvgl\src\core/lv_indev.c **** 
 310:..\..\..\arduinoLCD\test\Pain Drain\libraries\lvgl\src\core/lv_indev.c ****     bool hit_test_ok = lv_obj_hit_test(obj, &p_trans);
 311:..\..\..\arduinoLCD\test\Pain Drain\libraries\lvgl\src\core/lv_indev.c **** 
 312:..\..\..\arduinoLCD\test\Pain Drain\libraries\lvgl\src\core/lv_indev.c ****     /*If the point is on this object or has overflow visible check its children too*/
 313:..\..\..\arduinoLCD\test\Pain Drain\libraries\lvgl\src\core/lv_indev.c ****     if(_lv_area_is_point_on(&obj->coords, &p_trans, 0) || lv_obj_has_flag(obj, LV_OBJ_FLAG_OVERFLOW
 314:..\..\..\arduinoLCD\test\Pain Drain\libraries\lvgl\src\core/lv_indev.c ****         int32_t i;
 315:..\..\..\arduinoLCD\test\Pain Drain\libraries\lvgl\src\core/lv_indev.c ****         uint32_t child_cnt = lv_obj_get_child_cnt(obj);
 316:..\..\..\arduinoLCD\test\Pain Drain\libraries\lvgl\src\core/lv_indev.c **** 
ARM GAS  C:\Users\haske\AppData\Local\Temp\ccl1At1U.s 			page 7


 317:..\..\..\arduinoLCD\test\Pain Drain\libraries\lvgl\src\core/lv_indev.c ****         /*If a child matches use it*/
 318:..\..\..\arduinoLCD\test\Pain Drain\libraries\lvgl\src\core/lv_indev.c ****         for(i = child_cnt - 1; i >= 0; i--) {
 319:..\..\..\arduinoLCD\test\Pain Drain\libraries\lvgl\src\core/lv_indev.c ****             lv_obj_t * child = obj->spec_attr->children[i];
 320:..\..\..\arduinoLCD\test\Pain Drain\libraries\lvgl\src\core/lv_indev.c ****             found_p = lv_indev_search_obj(child, &p_trans);
 321:..\..\..\arduinoLCD\test\Pain Drain\libraries\lvgl\src\core/lv_indev.c ****             if(found_p) return found_p;
 322:..\..\..\arduinoLCD\test\Pain Drain\libraries\lvgl\src\core/lv_indev.c ****         }
 323:..\..\..\arduinoLCD\test\Pain Drain\libraries\lvgl\src\core/lv_indev.c ****     }
 324:..\..\..\arduinoLCD\test\Pain Drain\libraries\lvgl\src\core/lv_indev.c **** 
 325:..\..\..\arduinoLCD\test\Pain Drain\libraries\lvgl\src\core/lv_indev.c ****     /*If not return earlier for a clicked child and this obj's hittest was ok use it
 326:..\..\..\arduinoLCD\test\Pain Drain\libraries\lvgl\src\core/lv_indev.c ****      *else return NULL*/
 327:..\..\..\arduinoLCD\test\Pain Drain\libraries\lvgl\src\core/lv_indev.c ****     if(hit_test_ok) return obj;
 328:..\..\..\arduinoLCD\test\Pain Drain\libraries\lvgl\src\core/lv_indev.c ****     else return NULL;
 329:..\..\..\arduinoLCD\test\Pain Drain\libraries\lvgl\src\core/lv_indev.c **** }
 330:..\..\..\arduinoLCD\test\Pain Drain\libraries\lvgl\src\core/lv_indev.c **** 
 331:..\..\..\arduinoLCD\test\Pain Drain\libraries\lvgl\src\core/lv_indev.c **** /**********************
 332:..\..\..\arduinoLCD\test\Pain Drain\libraries\lvgl\src\core/lv_indev.c ****  *   STATIC FUNCTIONS
 333:..\..\..\arduinoLCD\test\Pain Drain\libraries\lvgl\src\core/lv_indev.c ****  **********************/
 334:..\..\..\arduinoLCD\test\Pain Drain\libraries\lvgl\src\core/lv_indev.c **** 
 335:..\..\..\arduinoLCD\test\Pain Drain\libraries\lvgl\src\core/lv_indev.c **** /**
 336:..\..\..\arduinoLCD\test\Pain Drain\libraries\lvgl\src\core/lv_indev.c ****  * Process a new point from LV_INDEV_TYPE_POINTER input device
 337:..\..\..\arduinoLCD\test\Pain Drain\libraries\lvgl\src\core/lv_indev.c ****  * @param i pointer to an input device
 338:..\..\..\arduinoLCD\test\Pain Drain\libraries\lvgl\src\core/lv_indev.c ****  * @param data pointer to the data read from the input device
 339:..\..\..\arduinoLCD\test\Pain Drain\libraries\lvgl\src\core/lv_indev.c ****  */
 340:..\..\..\arduinoLCD\test\Pain Drain\libraries\lvgl\src\core/lv_indev.c **** static void indev_pointer_proc(lv_indev_t * i, lv_indev_data_t * data)
 341:..\..\..\arduinoLCD\test\Pain Drain\libraries\lvgl\src\core/lv_indev.c **** {
 342:..\..\..\arduinoLCD\test\Pain Drain\libraries\lvgl\src\core/lv_indev.c ****     lv_disp_t * disp = i->driver->disp;
 343:..\..\..\arduinoLCD\test\Pain Drain\libraries\lvgl\src\core/lv_indev.c ****     /*Save the raw points so they can be used again in _lv_indev_read*/
 344:..\..\..\arduinoLCD\test\Pain Drain\libraries\lvgl\src\core/lv_indev.c ****     i->proc.types.pointer.last_raw_point.x = data->point.x;
 345:..\..\..\arduinoLCD\test\Pain Drain\libraries\lvgl\src\core/lv_indev.c ****     i->proc.types.pointer.last_raw_point.y = data->point.y;
 346:..\..\..\arduinoLCD\test\Pain Drain\libraries\lvgl\src\core/lv_indev.c **** 
 347:..\..\..\arduinoLCD\test\Pain Drain\libraries\lvgl\src\core/lv_indev.c ****     if(disp->driver->rotated == LV_DISP_ROT_180 || disp->driver->rotated == LV_DISP_ROT_270) {
 348:..\..\..\arduinoLCD\test\Pain Drain\libraries\lvgl\src\core/lv_indev.c ****         data->point.x = disp->driver->hor_res - data->point.x - 1;
 349:..\..\..\arduinoLCD\test\Pain Drain\libraries\lvgl\src\core/lv_indev.c ****         data->point.y = disp->driver->ver_res - data->point.y - 1;
 350:..\..\..\arduinoLCD\test\Pain Drain\libraries\lvgl\src\core/lv_indev.c ****     }
 351:..\..\..\arduinoLCD\test\Pain Drain\libraries\lvgl\src\core/lv_indev.c ****     if(disp->driver->rotated == LV_DISP_ROT_90 || disp->driver->rotated == LV_DISP_ROT_270) {
 352:..\..\..\arduinoLCD\test\Pain Drain\libraries\lvgl\src\core/lv_indev.c ****         lv_coord_t tmp = data->point.y;
 353:..\..\..\arduinoLCD\test\Pain Drain\libraries\lvgl\src\core/lv_indev.c ****         data->point.y = data->point.x;
 354:..\..\..\arduinoLCD\test\Pain Drain\libraries\lvgl\src\core/lv_indev.c ****         data->point.x = disp->driver->ver_res - tmp - 1;
 355:..\..\..\arduinoLCD\test\Pain Drain\libraries\lvgl\src\core/lv_indev.c ****     }
 356:..\..\..\arduinoLCD\test\Pain Drain\libraries\lvgl\src\core/lv_indev.c **** 
 357:..\..\..\arduinoLCD\test\Pain Drain\libraries\lvgl\src\core/lv_indev.c ****     /*Simple sanity check*/
 358:..\..\..\arduinoLCD\test\Pain Drain\libraries\lvgl\src\core/lv_indev.c ****     if(data->point.x < 0) {
 359:..\..\..\arduinoLCD\test\Pain Drain\libraries\lvgl\src\core/lv_indev.c ****         LV_LOG_WARN("X is %d which is smaller than zero", data->point.x);
 360:..\..\..\arduinoLCD\test\Pain Drain\libraries\lvgl\src\core/lv_indev.c ****     }
 361:..\..\..\arduinoLCD\test\Pain Drain\libraries\lvgl\src\core/lv_indev.c ****     if(data->point.x >= lv_disp_get_hor_res(i->driver->disp)) {
 362:..\..\..\arduinoLCD\test\Pain Drain\libraries\lvgl\src\core/lv_indev.c ****         LV_LOG_WARN("X is %d which is greater than hor. res", data->point.x);
 363:..\..\..\arduinoLCD\test\Pain Drain\libraries\lvgl\src\core/lv_indev.c ****     }
 364:..\..\..\arduinoLCD\test\Pain Drain\libraries\lvgl\src\core/lv_indev.c ****     if(data->point.y < 0) {
 365:..\..\..\arduinoLCD\test\Pain Drain\libraries\lvgl\src\core/lv_indev.c ****         LV_LOG_WARN("Y is %d which is smaller than zero", data->point.y);
 366:..\..\..\arduinoLCD\test\Pain Drain\libraries\lvgl\src\core/lv_indev.c ****     }
 367:..\..\..\arduinoLCD\test\Pain Drain\libraries\lvgl\src\core/lv_indev.c ****     if(data->point.y >= lv_disp_get_ver_res(i->driver->disp)) {
 368:..\..\..\arduinoLCD\test\Pain Drain\libraries\lvgl\src\core/lv_indev.c ****         LV_LOG_WARN("Y is %d which is greater than ver. res", data->point.y);
 369:..\..\..\arduinoLCD\test\Pain Drain\libraries\lvgl\src\core/lv_indev.c ****     }
 370:..\..\..\arduinoLCD\test\Pain Drain\libraries\lvgl\src\core/lv_indev.c **** 
 371:..\..\..\arduinoLCD\test\Pain Drain\libraries\lvgl\src\core/lv_indev.c ****     /*Move the cursor if set and moved*/
 372:..\..\..\arduinoLCD\test\Pain Drain\libraries\lvgl\src\core/lv_indev.c ****     if(i->cursor != NULL &&
 373:..\..\..\arduinoLCD\test\Pain Drain\libraries\lvgl\src\core/lv_indev.c ****        (i->proc.types.pointer.last_point.x != data->point.x || i->proc.types.pointer.last_point.y !
ARM GAS  C:\Users\haske\AppData\Local\Temp\ccl1At1U.s 			page 8


 374:..\..\..\arduinoLCD\test\Pain Drain\libraries\lvgl\src\core/lv_indev.c ****         lv_obj_set_pos(i->cursor, data->point.x, data->point.y);
 375:..\..\..\arduinoLCD\test\Pain Drain\libraries\lvgl\src\core/lv_indev.c ****     }
 376:..\..\..\arduinoLCD\test\Pain Drain\libraries\lvgl\src\core/lv_indev.c **** 
 377:..\..\..\arduinoLCD\test\Pain Drain\libraries\lvgl\src\core/lv_indev.c ****     i->proc.types.pointer.act_point.x = data->point.x;
 378:..\..\..\arduinoLCD\test\Pain Drain\libraries\lvgl\src\core/lv_indev.c ****     i->proc.types.pointer.act_point.y = data->point.y;
 379:..\..\..\arduinoLCD\test\Pain Drain\libraries\lvgl\src\core/lv_indev.c **** 
 380:..\..\..\arduinoLCD\test\Pain Drain\libraries\lvgl\src\core/lv_indev.c ****     if(i->proc.state == LV_INDEV_STATE_PRESSED) {
 381:..\..\..\arduinoLCD\test\Pain Drain\libraries\lvgl\src\core/lv_indev.c ****         indev_proc_press(&i->proc);
 382:..\..\..\arduinoLCD\test\Pain Drain\libraries\lvgl\src\core/lv_indev.c ****     }
 383:..\..\..\arduinoLCD\test\Pain Drain\libraries\lvgl\src\core/lv_indev.c ****     else {
 384:..\..\..\arduinoLCD\test\Pain Drain\libraries\lvgl\src\core/lv_indev.c ****         indev_proc_release(&i->proc);
 385:..\..\..\arduinoLCD\test\Pain Drain\libraries\lvgl\src\core/lv_indev.c ****     }
 386:..\..\..\arduinoLCD\test\Pain Drain\libraries\lvgl\src\core/lv_indev.c **** 
 387:..\..\..\arduinoLCD\test\Pain Drain\libraries\lvgl\src\core/lv_indev.c ****     i->proc.types.pointer.last_point.x = i->proc.types.pointer.act_point.x;
 388:..\..\..\arduinoLCD\test\Pain Drain\libraries\lvgl\src\core/lv_indev.c ****     i->proc.types.pointer.last_point.y = i->proc.types.pointer.act_point.y;
 389:..\..\..\arduinoLCD\test\Pain Drain\libraries\lvgl\src\core/lv_indev.c **** }
 390:..\..\..\arduinoLCD\test\Pain Drain\libraries\lvgl\src\core/lv_indev.c **** 
 391:..\..\..\arduinoLCD\test\Pain Drain\libraries\lvgl\src\core/lv_indev.c **** /**
 392:..\..\..\arduinoLCD\test\Pain Drain\libraries\lvgl\src\core/lv_indev.c ****  * Process a new point from LV_INDEV_TYPE_KEYPAD input device
 393:..\..\..\arduinoLCD\test\Pain Drain\libraries\lvgl\src\core/lv_indev.c ****  * @param i pointer to an input device
 394:..\..\..\arduinoLCD\test\Pain Drain\libraries\lvgl\src\core/lv_indev.c ****  * @param data pointer to the data read from the input device
 395:..\..\..\arduinoLCD\test\Pain Drain\libraries\lvgl\src\core/lv_indev.c ****  */
 396:..\..\..\arduinoLCD\test\Pain Drain\libraries\lvgl\src\core/lv_indev.c **** static void indev_keypad_proc(lv_indev_t * i, lv_indev_data_t * data)
 397:..\..\..\arduinoLCD\test\Pain Drain\libraries\lvgl\src\core/lv_indev.c **** {
 398:..\..\..\arduinoLCD\test\Pain Drain\libraries\lvgl\src\core/lv_indev.c ****     if(data->state == LV_INDEV_STATE_PRESSED && i->proc.wait_until_release) return;
 399:..\..\..\arduinoLCD\test\Pain Drain\libraries\lvgl\src\core/lv_indev.c **** 
 400:..\..\..\arduinoLCD\test\Pain Drain\libraries\lvgl\src\core/lv_indev.c ****     if(i->proc.wait_until_release) {
 401:..\..\..\arduinoLCD\test\Pain Drain\libraries\lvgl\src\core/lv_indev.c ****         i->proc.wait_until_release      = 0;
 402:..\..\..\arduinoLCD\test\Pain Drain\libraries\lvgl\src\core/lv_indev.c ****         i->proc.pr_timestamp            = 0;
 403:..\..\..\arduinoLCD\test\Pain Drain\libraries\lvgl\src\core/lv_indev.c ****         i->proc.long_pr_sent            = 0;
 404:..\..\..\arduinoLCD\test\Pain Drain\libraries\lvgl\src\core/lv_indev.c ****         i->proc.types.keypad.last_state = LV_INDEV_STATE_RELEASED; /*To skip the processing of rele
 405:..\..\..\arduinoLCD\test\Pain Drain\libraries\lvgl\src\core/lv_indev.c ****     }
 406:..\..\..\arduinoLCD\test\Pain Drain\libraries\lvgl\src\core/lv_indev.c **** 
 407:..\..\..\arduinoLCD\test\Pain Drain\libraries\lvgl\src\core/lv_indev.c ****     lv_group_t * g = i->group;
 408:..\..\..\arduinoLCD\test\Pain Drain\libraries\lvgl\src\core/lv_indev.c ****     if(g == NULL) return;
 409:..\..\..\arduinoLCD\test\Pain Drain\libraries\lvgl\src\core/lv_indev.c **** 
 410:..\..\..\arduinoLCD\test\Pain Drain\libraries\lvgl\src\core/lv_indev.c ****     indev_obj_act = lv_group_get_focused(g);
 411:..\..\..\arduinoLCD\test\Pain Drain\libraries\lvgl\src\core/lv_indev.c ****     if(indev_obj_act == NULL) return;
 412:..\..\..\arduinoLCD\test\Pain Drain\libraries\lvgl\src\core/lv_indev.c **** 
 413:..\..\..\arduinoLCD\test\Pain Drain\libraries\lvgl\src\core/lv_indev.c ****     bool dis = lv_obj_has_state(indev_obj_act, LV_STATE_DISABLED);
 414:..\..\..\arduinoLCD\test\Pain Drain\libraries\lvgl\src\core/lv_indev.c **** 
 415:..\..\..\arduinoLCD\test\Pain Drain\libraries\lvgl\src\core/lv_indev.c ****     /*Save the last key to compare it with the current latter on RELEASE*/
 416:..\..\..\arduinoLCD\test\Pain Drain\libraries\lvgl\src\core/lv_indev.c ****     uint32_t prev_key = i->proc.types.keypad.last_key;
 417:..\..\..\arduinoLCD\test\Pain Drain\libraries\lvgl\src\core/lv_indev.c **** 
 418:..\..\..\arduinoLCD\test\Pain Drain\libraries\lvgl\src\core/lv_indev.c ****     /*Save the last key.
 419:..\..\..\arduinoLCD\test\Pain Drain\libraries\lvgl\src\core/lv_indev.c ****      *It must be done here else `lv_indev_get_key` will return the last key in events*/
 420:..\..\..\arduinoLCD\test\Pain Drain\libraries\lvgl\src\core/lv_indev.c ****     i->proc.types.keypad.last_key = data->key;
 421:..\..\..\arduinoLCD\test\Pain Drain\libraries\lvgl\src\core/lv_indev.c **** 
 422:..\..\..\arduinoLCD\test\Pain Drain\libraries\lvgl\src\core/lv_indev.c ****     /*Save the previous state so we can detect state changes below and also set the last state now
 423:..\..\..\arduinoLCD\test\Pain Drain\libraries\lvgl\src\core/lv_indev.c ****      *so if any event handler on the way returns `LV_RES_INV` the last state is remembered
 424:..\..\..\arduinoLCD\test\Pain Drain\libraries\lvgl\src\core/lv_indev.c ****      *for the next time*/
 425:..\..\..\arduinoLCD\test\Pain Drain\libraries\lvgl\src\core/lv_indev.c ****     uint32_t prev_state             = i->proc.types.keypad.last_state;
 426:..\..\..\arduinoLCD\test\Pain Drain\libraries\lvgl\src\core/lv_indev.c ****     i->proc.types.keypad.last_state = data->state;
 427:..\..\..\arduinoLCD\test\Pain Drain\libraries\lvgl\src\core/lv_indev.c **** 
 428:..\..\..\arduinoLCD\test\Pain Drain\libraries\lvgl\src\core/lv_indev.c ****     /*Key press happened*/
 429:..\..\..\arduinoLCD\test\Pain Drain\libraries\lvgl\src\core/lv_indev.c ****     if(data->state == LV_INDEV_STATE_PRESSED && prev_state == LV_INDEV_STATE_RELEASED) {
 430:..\..\..\arduinoLCD\test\Pain Drain\libraries\lvgl\src\core/lv_indev.c ****         LV_LOG_INFO("%" LV_PRIu32 " key is pressed", data->key);
ARM GAS  C:\Users\haske\AppData\Local\Temp\ccl1At1U.s 			page 9


 431:..\..\..\arduinoLCD\test\Pain Drain\libraries\lvgl\src\core/lv_indev.c ****         i->proc.pr_timestamp = lv_tick_get();
 432:..\..\..\arduinoLCD\test\Pain Drain\libraries\lvgl\src\core/lv_indev.c **** 
 433:..\..\..\arduinoLCD\test\Pain Drain\libraries\lvgl\src\core/lv_indev.c ****         /*Move the focus on NEXT*/
 434:..\..\..\arduinoLCD\test\Pain Drain\libraries\lvgl\src\core/lv_indev.c ****         if(data->key == LV_KEY_NEXT) {
 435:..\..\..\arduinoLCD\test\Pain Drain\libraries\lvgl\src\core/lv_indev.c ****             lv_group_set_editing(g, false); /*Editing is not used by KEYPAD is be sure it is disabl
 436:..\..\..\arduinoLCD\test\Pain Drain\libraries\lvgl\src\core/lv_indev.c ****             lv_group_focus_next(g);
 437:..\..\..\arduinoLCD\test\Pain Drain\libraries\lvgl\src\core/lv_indev.c ****             if(indev_reset_check(&i->proc)) return;
 438:..\..\..\arduinoLCD\test\Pain Drain\libraries\lvgl\src\core/lv_indev.c ****         }
 439:..\..\..\arduinoLCD\test\Pain Drain\libraries\lvgl\src\core/lv_indev.c ****         /*Move the focus on PREV*/
 440:..\..\..\arduinoLCD\test\Pain Drain\libraries\lvgl\src\core/lv_indev.c ****         else if(data->key == LV_KEY_PREV) {
 441:..\..\..\arduinoLCD\test\Pain Drain\libraries\lvgl\src\core/lv_indev.c ****             lv_group_set_editing(g, false); /*Editing is not used by KEYPAD is be sure it is disabl
 442:..\..\..\arduinoLCD\test\Pain Drain\libraries\lvgl\src\core/lv_indev.c ****             lv_group_focus_prev(g);
 443:..\..\..\arduinoLCD\test\Pain Drain\libraries\lvgl\src\core/lv_indev.c ****             if(indev_reset_check(&i->proc)) return;
 444:..\..\..\arduinoLCD\test\Pain Drain\libraries\lvgl\src\core/lv_indev.c ****         }
 445:..\..\..\arduinoLCD\test\Pain Drain\libraries\lvgl\src\core/lv_indev.c ****         else if(!dis) {
 446:..\..\..\arduinoLCD\test\Pain Drain\libraries\lvgl\src\core/lv_indev.c ****             /*Simulate a press on the object if ENTER was pressed*/
 447:..\..\..\arduinoLCD\test\Pain Drain\libraries\lvgl\src\core/lv_indev.c ****             if(data->key == LV_KEY_ENTER) {
 448:..\..\..\arduinoLCD\test\Pain Drain\libraries\lvgl\src\core/lv_indev.c ****                 /*Send the ENTER as a normal KEY*/
 449:..\..\..\arduinoLCD\test\Pain Drain\libraries\lvgl\src\core/lv_indev.c ****                 lv_group_send_data(g, LV_KEY_ENTER);
 450:..\..\..\arduinoLCD\test\Pain Drain\libraries\lvgl\src\core/lv_indev.c ****                 if(indev_reset_check(&i->proc)) return;
 451:..\..\..\arduinoLCD\test\Pain Drain\libraries\lvgl\src\core/lv_indev.c **** 
 452:..\..\..\arduinoLCD\test\Pain Drain\libraries\lvgl\src\core/lv_indev.c ****                 if(!dis) lv_event_send(indev_obj_act, LV_EVENT_PRESSED, indev_act);
 453:..\..\..\arduinoLCD\test\Pain Drain\libraries\lvgl\src\core/lv_indev.c ****                 if(indev_reset_check(&i->proc)) return;
 454:..\..\..\arduinoLCD\test\Pain Drain\libraries\lvgl\src\core/lv_indev.c ****             }
 455:..\..\..\arduinoLCD\test\Pain Drain\libraries\lvgl\src\core/lv_indev.c ****             else if(data->key == LV_KEY_ESC) {
 456:..\..\..\arduinoLCD\test\Pain Drain\libraries\lvgl\src\core/lv_indev.c ****                 /*Send the ESC as a normal KEY*/
 457:..\..\..\arduinoLCD\test\Pain Drain\libraries\lvgl\src\core/lv_indev.c ****                 lv_group_send_data(g, LV_KEY_ESC);
 458:..\..\..\arduinoLCD\test\Pain Drain\libraries\lvgl\src\core/lv_indev.c ****                 if(indev_reset_check(&i->proc)) return;
 459:..\..\..\arduinoLCD\test\Pain Drain\libraries\lvgl\src\core/lv_indev.c **** 
 460:..\..\..\arduinoLCD\test\Pain Drain\libraries\lvgl\src\core/lv_indev.c ****                 lv_event_send(indev_obj_act, LV_EVENT_CANCEL, indev_act);
 461:..\..\..\arduinoLCD\test\Pain Drain\libraries\lvgl\src\core/lv_indev.c ****                 if(indev_reset_check(&i->proc)) return;
 462:..\..\..\arduinoLCD\test\Pain Drain\libraries\lvgl\src\core/lv_indev.c ****             }
 463:..\..\..\arduinoLCD\test\Pain Drain\libraries\lvgl\src\core/lv_indev.c ****             /*Just send other keys to the object (e.g. 'A' or `LV_GROUP_KEY_RIGHT`)*/
 464:..\..\..\arduinoLCD\test\Pain Drain\libraries\lvgl\src\core/lv_indev.c ****             else {
 465:..\..\..\arduinoLCD\test\Pain Drain\libraries\lvgl\src\core/lv_indev.c ****                 lv_group_send_data(g, data->key);
 466:..\..\..\arduinoLCD\test\Pain Drain\libraries\lvgl\src\core/lv_indev.c ****                 if(indev_reset_check(&i->proc)) return;
 467:..\..\..\arduinoLCD\test\Pain Drain\libraries\lvgl\src\core/lv_indev.c ****             }
 468:..\..\..\arduinoLCD\test\Pain Drain\libraries\lvgl\src\core/lv_indev.c ****         }
 469:..\..\..\arduinoLCD\test\Pain Drain\libraries\lvgl\src\core/lv_indev.c ****     }
 470:..\..\..\arduinoLCD\test\Pain Drain\libraries\lvgl\src\core/lv_indev.c ****     /*Pressing*/
 471:..\..\..\arduinoLCD\test\Pain Drain\libraries\lvgl\src\core/lv_indev.c ****     else if(!dis && data->state == LV_INDEV_STATE_PRESSED && prev_state == LV_INDEV_STATE_PRESSED) 
 472:..\..\..\arduinoLCD\test\Pain Drain\libraries\lvgl\src\core/lv_indev.c **** 
 473:..\..\..\arduinoLCD\test\Pain Drain\libraries\lvgl\src\core/lv_indev.c ****         if(data->key == LV_KEY_ENTER) {
 474:..\..\..\arduinoLCD\test\Pain Drain\libraries\lvgl\src\core/lv_indev.c ****             lv_event_send(indev_obj_act, LV_EVENT_PRESSING, indev_act);
 475:..\..\..\arduinoLCD\test\Pain Drain\libraries\lvgl\src\core/lv_indev.c ****             if(indev_reset_check(&i->proc)) return;
 476:..\..\..\arduinoLCD\test\Pain Drain\libraries\lvgl\src\core/lv_indev.c ****         }
 477:..\..\..\arduinoLCD\test\Pain Drain\libraries\lvgl\src\core/lv_indev.c **** 
 478:..\..\..\arduinoLCD\test\Pain Drain\libraries\lvgl\src\core/lv_indev.c ****         /*Long press time has elapsed?*/
 479:..\..\..\arduinoLCD\test\Pain Drain\libraries\lvgl\src\core/lv_indev.c ****         if(i->proc.long_pr_sent == 0 && lv_tick_elaps(i->proc.pr_timestamp) > i->driver->long_press
 480:..\..\..\arduinoLCD\test\Pain Drain\libraries\lvgl\src\core/lv_indev.c ****             i->proc.long_pr_sent = 1;
 481:..\..\..\arduinoLCD\test\Pain Drain\libraries\lvgl\src\core/lv_indev.c ****             if(data->key == LV_KEY_ENTER) {
 482:..\..\..\arduinoLCD\test\Pain Drain\libraries\lvgl\src\core/lv_indev.c ****                 i->proc.longpr_rep_timestamp = lv_tick_get();
 483:..\..\..\arduinoLCD\test\Pain Drain\libraries\lvgl\src\core/lv_indev.c ****                 lv_event_send(indev_obj_act, LV_EVENT_LONG_PRESSED, indev_act);
 484:..\..\..\arduinoLCD\test\Pain Drain\libraries\lvgl\src\core/lv_indev.c ****                 if(indev_reset_check(&i->proc)) return;
 485:..\..\..\arduinoLCD\test\Pain Drain\libraries\lvgl\src\core/lv_indev.c ****             }
 486:..\..\..\arduinoLCD\test\Pain Drain\libraries\lvgl\src\core/lv_indev.c ****         }
 487:..\..\..\arduinoLCD\test\Pain Drain\libraries\lvgl\src\core/lv_indev.c ****         /*Long press repeated time has elapsed?*/
ARM GAS  C:\Users\haske\AppData\Local\Temp\ccl1At1U.s 			page 10


 488:..\..\..\arduinoLCD\test\Pain Drain\libraries\lvgl\src\core/lv_indev.c ****         else if(i->proc.long_pr_sent != 0 &&
 489:..\..\..\arduinoLCD\test\Pain Drain\libraries\lvgl\src\core/lv_indev.c ****                 lv_tick_elaps(i->proc.longpr_rep_timestamp) > i->driver->long_press_repeat_time) {
 490:..\..\..\arduinoLCD\test\Pain Drain\libraries\lvgl\src\core/lv_indev.c **** 
 491:..\..\..\arduinoLCD\test\Pain Drain\libraries\lvgl\src\core/lv_indev.c ****             i->proc.longpr_rep_timestamp = lv_tick_get();
 492:..\..\..\arduinoLCD\test\Pain Drain\libraries\lvgl\src\core/lv_indev.c **** 
 493:..\..\..\arduinoLCD\test\Pain Drain\libraries\lvgl\src\core/lv_indev.c ****             /*Send LONG_PRESS_REP on ENTER*/
 494:..\..\..\arduinoLCD\test\Pain Drain\libraries\lvgl\src\core/lv_indev.c ****             if(data->key == LV_KEY_ENTER) {
 495:..\..\..\arduinoLCD\test\Pain Drain\libraries\lvgl\src\core/lv_indev.c ****                 lv_event_send(indev_obj_act, LV_EVENT_LONG_PRESSED_REPEAT, indev_act);
 496:..\..\..\arduinoLCD\test\Pain Drain\libraries\lvgl\src\core/lv_indev.c ****                 if(indev_reset_check(&i->proc)) return;
 497:..\..\..\arduinoLCD\test\Pain Drain\libraries\lvgl\src\core/lv_indev.c ****             }
 498:..\..\..\arduinoLCD\test\Pain Drain\libraries\lvgl\src\core/lv_indev.c ****             /*Move the focus on NEXT again*/
 499:..\..\..\arduinoLCD\test\Pain Drain\libraries\lvgl\src\core/lv_indev.c ****             else if(data->key == LV_KEY_NEXT) {
 500:..\..\..\arduinoLCD\test\Pain Drain\libraries\lvgl\src\core/lv_indev.c ****                 lv_group_set_editing(g, false); /*Editing is not used by KEYPAD is be sure it is di
 501:..\..\..\arduinoLCD\test\Pain Drain\libraries\lvgl\src\core/lv_indev.c ****                 lv_group_focus_next(g);
 502:..\..\..\arduinoLCD\test\Pain Drain\libraries\lvgl\src\core/lv_indev.c ****                 if(indev_reset_check(&i->proc)) return;
 503:..\..\..\arduinoLCD\test\Pain Drain\libraries\lvgl\src\core/lv_indev.c ****             }
 504:..\..\..\arduinoLCD\test\Pain Drain\libraries\lvgl\src\core/lv_indev.c ****             /*Move the focus on PREV again*/
 505:..\..\..\arduinoLCD\test\Pain Drain\libraries\lvgl\src\core/lv_indev.c ****             else if(data->key == LV_KEY_PREV) {
 506:..\..\..\arduinoLCD\test\Pain Drain\libraries\lvgl\src\core/lv_indev.c ****                 lv_group_set_editing(g, false); /*Editing is not used by KEYPAD is be sure it is di
 507:..\..\..\arduinoLCD\test\Pain Drain\libraries\lvgl\src\core/lv_indev.c ****                 lv_group_focus_prev(g);
 508:..\..\..\arduinoLCD\test\Pain Drain\libraries\lvgl\src\core/lv_indev.c ****                 if(indev_reset_check(&i->proc)) return;
 509:..\..\..\arduinoLCD\test\Pain Drain\libraries\lvgl\src\core/lv_indev.c ****             }
 510:..\..\..\arduinoLCD\test\Pain Drain\libraries\lvgl\src\core/lv_indev.c ****             /*Just send other keys again to the object (e.g. 'A' or `LV_GROUP_KEY_RIGHT)*/
 511:..\..\..\arduinoLCD\test\Pain Drain\libraries\lvgl\src\core/lv_indev.c ****             else {
 512:..\..\..\arduinoLCD\test\Pain Drain\libraries\lvgl\src\core/lv_indev.c ****                 lv_group_send_data(g, data->key);
 513:..\..\..\arduinoLCD\test\Pain Drain\libraries\lvgl\src\core/lv_indev.c ****                 if(indev_reset_check(&i->proc)) return;
 514:..\..\..\arduinoLCD\test\Pain Drain\libraries\lvgl\src\core/lv_indev.c ****             }
 515:..\..\..\arduinoLCD\test\Pain Drain\libraries\lvgl\src\core/lv_indev.c ****         }
 516:..\..\..\arduinoLCD\test\Pain Drain\libraries\lvgl\src\core/lv_indev.c ****     }
 517:..\..\..\arduinoLCD\test\Pain Drain\libraries\lvgl\src\core/lv_indev.c ****     /*Release happened*/
 518:..\..\..\arduinoLCD\test\Pain Drain\libraries\lvgl\src\core/lv_indev.c ****     else if(!dis && data->state == LV_INDEV_STATE_RELEASED && prev_state == LV_INDEV_STATE_PRESSED)
 519:..\..\..\arduinoLCD\test\Pain Drain\libraries\lvgl\src\core/lv_indev.c ****         LV_LOG_INFO("%" LV_PRIu32 " key is released", data->key);
 520:..\..\..\arduinoLCD\test\Pain Drain\libraries\lvgl\src\core/lv_indev.c ****         /*The user might clear the key when it was released. Always release the pressed key*/
 521:..\..\..\arduinoLCD\test\Pain Drain\libraries\lvgl\src\core/lv_indev.c ****         data->key = prev_key;
 522:..\..\..\arduinoLCD\test\Pain Drain\libraries\lvgl\src\core/lv_indev.c ****         if(data->key == LV_KEY_ENTER) {
 523:..\..\..\arduinoLCD\test\Pain Drain\libraries\lvgl\src\core/lv_indev.c **** 
 524:..\..\..\arduinoLCD\test\Pain Drain\libraries\lvgl\src\core/lv_indev.c ****             lv_event_send(indev_obj_act, LV_EVENT_RELEASED, indev_act);
 525:..\..\..\arduinoLCD\test\Pain Drain\libraries\lvgl\src\core/lv_indev.c ****             if(indev_reset_check(&i->proc)) return;
 526:..\..\..\arduinoLCD\test\Pain Drain\libraries\lvgl\src\core/lv_indev.c **** 
 527:..\..\..\arduinoLCD\test\Pain Drain\libraries\lvgl\src\core/lv_indev.c ****             if(i->proc.long_pr_sent == 0) {
 528:..\..\..\arduinoLCD\test\Pain Drain\libraries\lvgl\src\core/lv_indev.c ****                 lv_event_send(indev_obj_act, LV_EVENT_SHORT_CLICKED, indev_act);
 529:..\..\..\arduinoLCD\test\Pain Drain\libraries\lvgl\src\core/lv_indev.c ****                 if(indev_reset_check(&i->proc)) return;
 530:..\..\..\arduinoLCD\test\Pain Drain\libraries\lvgl\src\core/lv_indev.c ****             }
 531:..\..\..\arduinoLCD\test\Pain Drain\libraries\lvgl\src\core/lv_indev.c **** 
 532:..\..\..\arduinoLCD\test\Pain Drain\libraries\lvgl\src\core/lv_indev.c ****             lv_event_send(indev_obj_act, LV_EVENT_CLICKED, indev_act);
 533:..\..\..\arduinoLCD\test\Pain Drain\libraries\lvgl\src\core/lv_indev.c ****             if(indev_reset_check(&i->proc)) return;
 534:..\..\..\arduinoLCD\test\Pain Drain\libraries\lvgl\src\core/lv_indev.c **** 
 535:..\..\..\arduinoLCD\test\Pain Drain\libraries\lvgl\src\core/lv_indev.c ****         }
 536:..\..\..\arduinoLCD\test\Pain Drain\libraries\lvgl\src\core/lv_indev.c ****         i->proc.pr_timestamp = 0;
 537:..\..\..\arduinoLCD\test\Pain Drain\libraries\lvgl\src\core/lv_indev.c ****         i->proc.long_pr_sent = 0;
 538:..\..\..\arduinoLCD\test\Pain Drain\libraries\lvgl\src\core/lv_indev.c ****     }
 539:..\..\..\arduinoLCD\test\Pain Drain\libraries\lvgl\src\core/lv_indev.c ****     indev_obj_act = NULL;
 540:..\..\..\arduinoLCD\test\Pain Drain\libraries\lvgl\src\core/lv_indev.c **** }
 541:..\..\..\arduinoLCD\test\Pain Drain\libraries\lvgl\src\core/lv_indev.c **** 
 542:..\..\..\arduinoLCD\test\Pain Drain\libraries\lvgl\src\core/lv_indev.c **** /**
 543:..\..\..\arduinoLCD\test\Pain Drain\libraries\lvgl\src\core/lv_indev.c ****  * Process a new point from LV_INDEV_TYPE_ENCODER input device
 544:..\..\..\arduinoLCD\test\Pain Drain\libraries\lvgl\src\core/lv_indev.c ****  * @param i pointer to an input device
ARM GAS  C:\Users\haske\AppData\Local\Temp\ccl1At1U.s 			page 11


 545:..\..\..\arduinoLCD\test\Pain Drain\libraries\lvgl\src\core/lv_indev.c ****  * @param data pointer to the data read from the input device
 546:..\..\..\arduinoLCD\test\Pain Drain\libraries\lvgl\src\core/lv_indev.c ****  */
 547:..\..\..\arduinoLCD\test\Pain Drain\libraries\lvgl\src\core/lv_indev.c **** static void indev_encoder_proc(lv_indev_t * i, lv_indev_data_t * data)
 548:..\..\..\arduinoLCD\test\Pain Drain\libraries\lvgl\src\core/lv_indev.c **** {
 549:..\..\..\arduinoLCD\test\Pain Drain\libraries\lvgl\src\core/lv_indev.c ****     if(data->state == LV_INDEV_STATE_PRESSED && i->proc.wait_until_release) return;
 550:..\..\..\arduinoLCD\test\Pain Drain\libraries\lvgl\src\core/lv_indev.c **** 
 551:..\..\..\arduinoLCD\test\Pain Drain\libraries\lvgl\src\core/lv_indev.c ****     if(i->proc.wait_until_release) {
 552:..\..\..\arduinoLCD\test\Pain Drain\libraries\lvgl\src\core/lv_indev.c ****         i->proc.wait_until_release      = 0;
 553:..\..\..\arduinoLCD\test\Pain Drain\libraries\lvgl\src\core/lv_indev.c ****         i->proc.pr_timestamp            = 0;
 554:..\..\..\arduinoLCD\test\Pain Drain\libraries\lvgl\src\core/lv_indev.c ****         i->proc.long_pr_sent            = 0;
 555:..\..\..\arduinoLCD\test\Pain Drain\libraries\lvgl\src\core/lv_indev.c ****         i->proc.types.keypad.last_state = LV_INDEV_STATE_RELEASED; /*To skip the processing of rele
 556:..\..\..\arduinoLCD\test\Pain Drain\libraries\lvgl\src\core/lv_indev.c ****     }
 557:..\..\..\arduinoLCD\test\Pain Drain\libraries\lvgl\src\core/lv_indev.c **** 
 558:..\..\..\arduinoLCD\test\Pain Drain\libraries\lvgl\src\core/lv_indev.c ****     /*Save the last keys before anything else.
 559:..\..\..\arduinoLCD\test\Pain Drain\libraries\lvgl\src\core/lv_indev.c ****      *They need to be already saved if the function returns for any reason*/
 560:..\..\..\arduinoLCD\test\Pain Drain\libraries\lvgl\src\core/lv_indev.c ****     lv_indev_state_t last_state     = i->proc.types.keypad.last_state;
 561:..\..\..\arduinoLCD\test\Pain Drain\libraries\lvgl\src\core/lv_indev.c ****     i->proc.types.keypad.last_state = data->state;
 562:..\..\..\arduinoLCD\test\Pain Drain\libraries\lvgl\src\core/lv_indev.c ****     i->proc.types.keypad.last_key   = data->key;
 563:..\..\..\arduinoLCD\test\Pain Drain\libraries\lvgl\src\core/lv_indev.c **** 
 564:..\..\..\arduinoLCD\test\Pain Drain\libraries\lvgl\src\core/lv_indev.c ****     lv_group_t * g = i->group;
 565:..\..\..\arduinoLCD\test\Pain Drain\libraries\lvgl\src\core/lv_indev.c ****     if(g == NULL) return;
 566:..\..\..\arduinoLCD\test\Pain Drain\libraries\lvgl\src\core/lv_indev.c **** 
 567:..\..\..\arduinoLCD\test\Pain Drain\libraries\lvgl\src\core/lv_indev.c ****     indev_obj_act = lv_group_get_focused(g);
 568:..\..\..\arduinoLCD\test\Pain Drain\libraries\lvgl\src\core/lv_indev.c ****     if(indev_obj_act == NULL) return;
 569:..\..\..\arduinoLCD\test\Pain Drain\libraries\lvgl\src\core/lv_indev.c **** 
 570:..\..\..\arduinoLCD\test\Pain Drain\libraries\lvgl\src\core/lv_indev.c ****     /*Process the steps they are valid only with released button*/
 571:..\..\..\arduinoLCD\test\Pain Drain\libraries\lvgl\src\core/lv_indev.c ****     if(data->state != LV_INDEV_STATE_RELEASED) {
 572:..\..\..\arduinoLCD\test\Pain Drain\libraries\lvgl\src\core/lv_indev.c ****         data->enc_diff = 0;
 573:..\..\..\arduinoLCD\test\Pain Drain\libraries\lvgl\src\core/lv_indev.c ****     }
 574:..\..\..\arduinoLCD\test\Pain Drain\libraries\lvgl\src\core/lv_indev.c **** 
 575:..\..\..\arduinoLCD\test\Pain Drain\libraries\lvgl\src\core/lv_indev.c ****     /*Refresh the focused object. It might change due to lv_group_focus_prev/next*/
 576:..\..\..\arduinoLCD\test\Pain Drain\libraries\lvgl\src\core/lv_indev.c ****     indev_obj_act = lv_group_get_focused(g);
 577:..\..\..\arduinoLCD\test\Pain Drain\libraries\lvgl\src\core/lv_indev.c ****     if(indev_obj_act == NULL) return;
 578:..\..\..\arduinoLCD\test\Pain Drain\libraries\lvgl\src\core/lv_indev.c **** 
 579:..\..\..\arduinoLCD\test\Pain Drain\libraries\lvgl\src\core/lv_indev.c ****     /*Button press happened*/
 580:..\..\..\arduinoLCD\test\Pain Drain\libraries\lvgl\src\core/lv_indev.c ****     if(data->state == LV_INDEV_STATE_PRESSED && last_state == LV_INDEV_STATE_RELEASED) {
 581:..\..\..\arduinoLCD\test\Pain Drain\libraries\lvgl\src\core/lv_indev.c ****         LV_LOG_INFO("pressed");
 582:..\..\..\arduinoLCD\test\Pain Drain\libraries\lvgl\src\core/lv_indev.c **** 
 583:..\..\..\arduinoLCD\test\Pain Drain\libraries\lvgl\src\core/lv_indev.c ****         i->proc.pr_timestamp = lv_tick_get();
 584:..\..\..\arduinoLCD\test\Pain Drain\libraries\lvgl\src\core/lv_indev.c **** 
 585:..\..\..\arduinoLCD\test\Pain Drain\libraries\lvgl\src\core/lv_indev.c ****         if(data->key == LV_KEY_ENTER) {
 586:..\..\..\arduinoLCD\test\Pain Drain\libraries\lvgl\src\core/lv_indev.c ****             bool editable_or_scrollable = lv_obj_is_editable(indev_obj_act) ||
 587:..\..\..\arduinoLCD\test\Pain Drain\libraries\lvgl\src\core/lv_indev.c ****                                           lv_obj_has_flag(indev_obj_act, LV_OBJ_FLAG_SCROLLABLE);
 588:..\..\..\arduinoLCD\test\Pain Drain\libraries\lvgl\src\core/lv_indev.c ****             if(lv_group_get_editing(g) == true || editable_or_scrollable == false) {
 589:..\..\..\arduinoLCD\test\Pain Drain\libraries\lvgl\src\core/lv_indev.c ****                 lv_event_send(indev_obj_act, LV_EVENT_PRESSED, indev_act);
 590:..\..\..\arduinoLCD\test\Pain Drain\libraries\lvgl\src\core/lv_indev.c ****                 if(indev_reset_check(&i->proc)) return;
 591:..\..\..\arduinoLCD\test\Pain Drain\libraries\lvgl\src\core/lv_indev.c ****             }
 592:..\..\..\arduinoLCD\test\Pain Drain\libraries\lvgl\src\core/lv_indev.c ****         }
 593:..\..\..\arduinoLCD\test\Pain Drain\libraries\lvgl\src\core/lv_indev.c ****         else if(data->key == LV_KEY_LEFT) {
 594:..\..\..\arduinoLCD\test\Pain Drain\libraries\lvgl\src\core/lv_indev.c ****             /*emulate encoder left*/
 595:..\..\..\arduinoLCD\test\Pain Drain\libraries\lvgl\src\core/lv_indev.c ****             data->enc_diff--;
 596:..\..\..\arduinoLCD\test\Pain Drain\libraries\lvgl\src\core/lv_indev.c ****         }
 597:..\..\..\arduinoLCD\test\Pain Drain\libraries\lvgl\src\core/lv_indev.c ****         else if(data->key == LV_KEY_RIGHT) {
 598:..\..\..\arduinoLCD\test\Pain Drain\libraries\lvgl\src\core/lv_indev.c ****             /*emulate encoder right*/
 599:..\..\..\arduinoLCD\test\Pain Drain\libraries\lvgl\src\core/lv_indev.c ****             data->enc_diff++;
 600:..\..\..\arduinoLCD\test\Pain Drain\libraries\lvgl\src\core/lv_indev.c ****         }
 601:..\..\..\arduinoLCD\test\Pain Drain\libraries\lvgl\src\core/lv_indev.c ****         else if(data->key == LV_KEY_ESC) {
ARM GAS  C:\Users\haske\AppData\Local\Temp\ccl1At1U.s 			page 12


 602:..\..\..\arduinoLCD\test\Pain Drain\libraries\lvgl\src\core/lv_indev.c ****             /*Send the ESC as a normal KEY*/
 603:..\..\..\arduinoLCD\test\Pain Drain\libraries\lvgl\src\core/lv_indev.c ****             lv_group_send_data(g, LV_KEY_ESC);
 604:..\..\..\arduinoLCD\test\Pain Drain\libraries\lvgl\src\core/lv_indev.c ****             if(indev_reset_check(&i->proc)) return;
 605:..\..\..\arduinoLCD\test\Pain Drain\libraries\lvgl\src\core/lv_indev.c **** 
 606:..\..\..\arduinoLCD\test\Pain Drain\libraries\lvgl\src\core/lv_indev.c ****             lv_event_send(indev_obj_act, LV_EVENT_CANCEL, indev_act);
 607:..\..\..\arduinoLCD\test\Pain Drain\libraries\lvgl\src\core/lv_indev.c ****             if(indev_reset_check(&i->proc)) return;
 608:..\..\..\arduinoLCD\test\Pain Drain\libraries\lvgl\src\core/lv_indev.c ****         }
 609:..\..\..\arduinoLCD\test\Pain Drain\libraries\lvgl\src\core/lv_indev.c ****         /*Just send other keys to the object (e.g. 'A' or `LV_GROUP_KEY_RIGHT`)*/
 610:..\..\..\arduinoLCD\test\Pain Drain\libraries\lvgl\src\core/lv_indev.c ****         else {
 611:..\..\..\arduinoLCD\test\Pain Drain\libraries\lvgl\src\core/lv_indev.c ****             lv_group_send_data(g, data->key);
 612:..\..\..\arduinoLCD\test\Pain Drain\libraries\lvgl\src\core/lv_indev.c ****             if(indev_reset_check(&i->proc)) return;
 613:..\..\..\arduinoLCD\test\Pain Drain\libraries\lvgl\src\core/lv_indev.c ****         }
 614:..\..\..\arduinoLCD\test\Pain Drain\libraries\lvgl\src\core/lv_indev.c ****     }
 615:..\..\..\arduinoLCD\test\Pain Drain\libraries\lvgl\src\core/lv_indev.c ****     /*Pressing*/
 616:..\..\..\arduinoLCD\test\Pain Drain\libraries\lvgl\src\core/lv_indev.c ****     else if(data->state == LV_INDEV_STATE_PRESSED && last_state == LV_INDEV_STATE_PRESSED) {
 617:..\..\..\arduinoLCD\test\Pain Drain\libraries\lvgl\src\core/lv_indev.c ****         /*Long press*/
 618:..\..\..\arduinoLCD\test\Pain Drain\libraries\lvgl\src\core/lv_indev.c ****         if(i->proc.long_pr_sent == 0 && lv_tick_elaps(i->proc.pr_timestamp) > i->driver->long_press
 619:..\..\..\arduinoLCD\test\Pain Drain\libraries\lvgl\src\core/lv_indev.c **** 
 620:..\..\..\arduinoLCD\test\Pain Drain\libraries\lvgl\src\core/lv_indev.c ****             i->proc.long_pr_sent = 1;
 621:..\..\..\arduinoLCD\test\Pain Drain\libraries\lvgl\src\core/lv_indev.c ****             i->proc.longpr_rep_timestamp = lv_tick_get();
 622:..\..\..\arduinoLCD\test\Pain Drain\libraries\lvgl\src\core/lv_indev.c **** 
 623:..\..\..\arduinoLCD\test\Pain Drain\libraries\lvgl\src\core/lv_indev.c ****             if(data->key == LV_KEY_ENTER) {
 624:..\..\..\arduinoLCD\test\Pain Drain\libraries\lvgl\src\core/lv_indev.c ****                 bool editable_or_scrollable = lv_obj_is_editable(indev_obj_act) ||
 625:..\..\..\arduinoLCD\test\Pain Drain\libraries\lvgl\src\core/lv_indev.c ****                                               lv_obj_has_flag(indev_obj_act, LV_OBJ_FLAG_SCROLLABLE
 626:..\..\..\arduinoLCD\test\Pain Drain\libraries\lvgl\src\core/lv_indev.c **** 
 627:..\..\..\arduinoLCD\test\Pain Drain\libraries\lvgl\src\core/lv_indev.c ****                 /*On enter long press toggle edit mode.*/
 628:..\..\..\arduinoLCD\test\Pain Drain\libraries\lvgl\src\core/lv_indev.c ****                 if(editable_or_scrollable) {
 629:..\..\..\arduinoLCD\test\Pain Drain\libraries\lvgl\src\core/lv_indev.c ****                     /*Don't leave edit mode if there is only one object (nowhere to navigate)*/
 630:..\..\..\arduinoLCD\test\Pain Drain\libraries\lvgl\src\core/lv_indev.c ****                     if(lv_group_get_obj_count(g) > 1) {
 631:..\..\..\arduinoLCD\test\Pain Drain\libraries\lvgl\src\core/lv_indev.c ****                         LV_LOG_INFO("toggling edit mode");
 632:..\..\..\arduinoLCD\test\Pain Drain\libraries\lvgl\src\core/lv_indev.c ****                         lv_group_set_editing(g, lv_group_get_editing(g) ? false : true); /*Toggle e
 633:..\..\..\arduinoLCD\test\Pain Drain\libraries\lvgl\src\core/lv_indev.c ****                         lv_obj_clear_state(indev_obj_act, LV_STATE_PRESSED);    /*Remove the presse
 634:..\..\..\arduinoLCD\test\Pain Drain\libraries\lvgl\src\core/lv_indev.c ****                     }
 635:..\..\..\arduinoLCD\test\Pain Drain\libraries\lvgl\src\core/lv_indev.c ****                 }
 636:..\..\..\arduinoLCD\test\Pain Drain\libraries\lvgl\src\core/lv_indev.c ****                 /*If not editable then just send a long press Call the ancestor's event handler*/
 637:..\..\..\arduinoLCD\test\Pain Drain\libraries\lvgl\src\core/lv_indev.c ****                 else {
 638:..\..\..\arduinoLCD\test\Pain Drain\libraries\lvgl\src\core/lv_indev.c ****                     lv_event_send(indev_obj_act, LV_EVENT_LONG_PRESSED, indev_act);
 639:..\..\..\arduinoLCD\test\Pain Drain\libraries\lvgl\src\core/lv_indev.c ****                     if(indev_reset_check(&i->proc)) return;
 640:..\..\..\arduinoLCD\test\Pain Drain\libraries\lvgl\src\core/lv_indev.c ****                 }
 641:..\..\..\arduinoLCD\test\Pain Drain\libraries\lvgl\src\core/lv_indev.c ****             }
 642:..\..\..\arduinoLCD\test\Pain Drain\libraries\lvgl\src\core/lv_indev.c **** 
 643:..\..\..\arduinoLCD\test\Pain Drain\libraries\lvgl\src\core/lv_indev.c ****             i->proc.long_pr_sent = 1;
 644:..\..\..\arduinoLCD\test\Pain Drain\libraries\lvgl\src\core/lv_indev.c ****         }
 645:..\..\..\arduinoLCD\test\Pain Drain\libraries\lvgl\src\core/lv_indev.c ****         /*Long press repeated time has elapsed?*/
 646:..\..\..\arduinoLCD\test\Pain Drain\libraries\lvgl\src\core/lv_indev.c ****         else if(i->proc.long_pr_sent != 0 && lv_tick_elaps(i->proc.longpr_rep_timestamp) > i->drive
 647:..\..\..\arduinoLCD\test\Pain Drain\libraries\lvgl\src\core/lv_indev.c **** 
 648:..\..\..\arduinoLCD\test\Pain Drain\libraries\lvgl\src\core/lv_indev.c ****             i->proc.longpr_rep_timestamp = lv_tick_get();
 649:..\..\..\arduinoLCD\test\Pain Drain\libraries\lvgl\src\core/lv_indev.c **** 
 650:..\..\..\arduinoLCD\test\Pain Drain\libraries\lvgl\src\core/lv_indev.c ****             if(data->key == LV_KEY_ENTER) {
 651:..\..\..\arduinoLCD\test\Pain Drain\libraries\lvgl\src\core/lv_indev.c ****                 lv_event_send(indev_obj_act, LV_EVENT_LONG_PRESSED_REPEAT, indev_act);
 652:..\..\..\arduinoLCD\test\Pain Drain\libraries\lvgl\src\core/lv_indev.c ****                 if(indev_reset_check(&i->proc)) return;
 653:..\..\..\arduinoLCD\test\Pain Drain\libraries\lvgl\src\core/lv_indev.c ****             }
 654:..\..\..\arduinoLCD\test\Pain Drain\libraries\lvgl\src\core/lv_indev.c ****             else if(data->key == LV_KEY_LEFT) {
 655:..\..\..\arduinoLCD\test\Pain Drain\libraries\lvgl\src\core/lv_indev.c ****                 /*emulate encoder left*/
 656:..\..\..\arduinoLCD\test\Pain Drain\libraries\lvgl\src\core/lv_indev.c ****                 data->enc_diff--;
 657:..\..\..\arduinoLCD\test\Pain Drain\libraries\lvgl\src\core/lv_indev.c ****             }
 658:..\..\..\arduinoLCD\test\Pain Drain\libraries\lvgl\src\core/lv_indev.c ****             else if(data->key == LV_KEY_RIGHT) {
ARM GAS  C:\Users\haske\AppData\Local\Temp\ccl1At1U.s 			page 13


 659:..\..\..\arduinoLCD\test\Pain Drain\libraries\lvgl\src\core/lv_indev.c ****                 /*emulate encoder right*/
 660:..\..\..\arduinoLCD\test\Pain Drain\libraries\lvgl\src\core/lv_indev.c ****                 data->enc_diff++;
 661:..\..\..\arduinoLCD\test\Pain Drain\libraries\lvgl\src\core/lv_indev.c ****             }
 662:..\..\..\arduinoLCD\test\Pain Drain\libraries\lvgl\src\core/lv_indev.c ****             else {
 663:..\..\..\arduinoLCD\test\Pain Drain\libraries\lvgl\src\core/lv_indev.c ****                 lv_group_send_data(g, data->key);
 664:..\..\..\arduinoLCD\test\Pain Drain\libraries\lvgl\src\core/lv_indev.c ****                 if(indev_reset_check(&i->proc)) return;
 665:..\..\..\arduinoLCD\test\Pain Drain\libraries\lvgl\src\core/lv_indev.c ****             }
 666:..\..\..\arduinoLCD\test\Pain Drain\libraries\lvgl\src\core/lv_indev.c **** 
 667:..\..\..\arduinoLCD\test\Pain Drain\libraries\lvgl\src\core/lv_indev.c ****         }
 668:..\..\..\arduinoLCD\test\Pain Drain\libraries\lvgl\src\core/lv_indev.c **** 
 669:..\..\..\arduinoLCD\test\Pain Drain\libraries\lvgl\src\core/lv_indev.c ****     }
 670:..\..\..\arduinoLCD\test\Pain Drain\libraries\lvgl\src\core/lv_indev.c ****     /*Release happened*/
 671:..\..\..\arduinoLCD\test\Pain Drain\libraries\lvgl\src\core/lv_indev.c ****     else if(data->state == LV_INDEV_STATE_RELEASED && last_state == LV_INDEV_STATE_PRESSED) {
 672:..\..\..\arduinoLCD\test\Pain Drain\libraries\lvgl\src\core/lv_indev.c ****         LV_LOG_INFO("released");
 673:..\..\..\arduinoLCD\test\Pain Drain\libraries\lvgl\src\core/lv_indev.c **** 
 674:..\..\..\arduinoLCD\test\Pain Drain\libraries\lvgl\src\core/lv_indev.c ****         if(data->key == LV_KEY_ENTER) {
 675:..\..\..\arduinoLCD\test\Pain Drain\libraries\lvgl\src\core/lv_indev.c ****             bool editable_or_scrollable = lv_obj_is_editable(indev_obj_act) ||
 676:..\..\..\arduinoLCD\test\Pain Drain\libraries\lvgl\src\core/lv_indev.c ****                                           lv_obj_has_flag(indev_obj_act, LV_OBJ_FLAG_SCROLLABLE);
 677:..\..\..\arduinoLCD\test\Pain Drain\libraries\lvgl\src\core/lv_indev.c **** 
 678:..\..\..\arduinoLCD\test\Pain Drain\libraries\lvgl\src\core/lv_indev.c ****             /*The button was released on a non-editable object. Just send enter*/
 679:..\..\..\arduinoLCD\test\Pain Drain\libraries\lvgl\src\core/lv_indev.c ****             if(editable_or_scrollable == false) {
 680:..\..\..\arduinoLCD\test\Pain Drain\libraries\lvgl\src\core/lv_indev.c ****                 lv_event_send(indev_obj_act, LV_EVENT_RELEASED, indev_act);
 681:..\..\..\arduinoLCD\test\Pain Drain\libraries\lvgl\src\core/lv_indev.c ****                 if(indev_reset_check(&i->proc)) return;
 682:..\..\..\arduinoLCD\test\Pain Drain\libraries\lvgl\src\core/lv_indev.c **** 
 683:..\..\..\arduinoLCD\test\Pain Drain\libraries\lvgl\src\core/lv_indev.c ****                 if(i->proc.long_pr_sent == 0) lv_event_send(indev_obj_act, LV_EVENT_SHORT_CLICKED, 
 684:..\..\..\arduinoLCD\test\Pain Drain\libraries\lvgl\src\core/lv_indev.c ****                 if(indev_reset_check(&i->proc)) return;
 685:..\..\..\arduinoLCD\test\Pain Drain\libraries\lvgl\src\core/lv_indev.c **** 
 686:..\..\..\arduinoLCD\test\Pain Drain\libraries\lvgl\src\core/lv_indev.c ****                 lv_event_send(indev_obj_act, LV_EVENT_CLICKED, indev_act);
 687:..\..\..\arduinoLCD\test\Pain Drain\libraries\lvgl\src\core/lv_indev.c ****                 if(indev_reset_check(&i->proc)) return;
 688:..\..\..\arduinoLCD\test\Pain Drain\libraries\lvgl\src\core/lv_indev.c **** 
 689:..\..\..\arduinoLCD\test\Pain Drain\libraries\lvgl\src\core/lv_indev.c ****             }
 690:..\..\..\arduinoLCD\test\Pain Drain\libraries\lvgl\src\core/lv_indev.c ****             /*An object is being edited and the button is released.*/
 691:..\..\..\arduinoLCD\test\Pain Drain\libraries\lvgl\src\core/lv_indev.c ****             else if(lv_group_get_editing(g)) {
 692:..\..\..\arduinoLCD\test\Pain Drain\libraries\lvgl\src\core/lv_indev.c ****                 /*Ignore long pressed enter release because it comes from mode switch*/
 693:..\..\..\arduinoLCD\test\Pain Drain\libraries\lvgl\src\core/lv_indev.c ****                 if(!i->proc.long_pr_sent || lv_group_get_obj_count(g) <= 1) {
 694:..\..\..\arduinoLCD\test\Pain Drain\libraries\lvgl\src\core/lv_indev.c ****                     lv_event_send(indev_obj_act, LV_EVENT_RELEASED, indev_act);
 695:..\..\..\arduinoLCD\test\Pain Drain\libraries\lvgl\src\core/lv_indev.c ****                     if(indev_reset_check(&i->proc)) return;
 696:..\..\..\arduinoLCD\test\Pain Drain\libraries\lvgl\src\core/lv_indev.c **** 
 697:..\..\..\arduinoLCD\test\Pain Drain\libraries\lvgl\src\core/lv_indev.c ****                     lv_event_send(indev_obj_act, LV_EVENT_SHORT_CLICKED, indev_act);
 698:..\..\..\arduinoLCD\test\Pain Drain\libraries\lvgl\src\core/lv_indev.c ****                     if(indev_reset_check(&i->proc)) return;
 699:..\..\..\arduinoLCD\test\Pain Drain\libraries\lvgl\src\core/lv_indev.c **** 
 700:..\..\..\arduinoLCD\test\Pain Drain\libraries\lvgl\src\core/lv_indev.c ****                     lv_event_send(indev_obj_act, LV_EVENT_CLICKED, indev_act);
 701:..\..\..\arduinoLCD\test\Pain Drain\libraries\lvgl\src\core/lv_indev.c ****                     if(indev_reset_check(&i->proc)) return;
 702:..\..\..\arduinoLCD\test\Pain Drain\libraries\lvgl\src\core/lv_indev.c **** 
 703:..\..\..\arduinoLCD\test\Pain Drain\libraries\lvgl\src\core/lv_indev.c ****                     lv_group_send_data(g, LV_KEY_ENTER);
 704:..\..\..\arduinoLCD\test\Pain Drain\libraries\lvgl\src\core/lv_indev.c ****                     if(indev_reset_check(&i->proc)) return;
 705:..\..\..\arduinoLCD\test\Pain Drain\libraries\lvgl\src\core/lv_indev.c ****                 }
 706:..\..\..\arduinoLCD\test\Pain Drain\libraries\lvgl\src\core/lv_indev.c ****                 else {
 707:..\..\..\arduinoLCD\test\Pain Drain\libraries\lvgl\src\core/lv_indev.c ****                     lv_obj_clear_state(indev_obj_act, LV_STATE_PRESSED);    /*Remove the pressed st
 708:..\..\..\arduinoLCD\test\Pain Drain\libraries\lvgl\src\core/lv_indev.c ****                 }
 709:..\..\..\arduinoLCD\test\Pain Drain\libraries\lvgl\src\core/lv_indev.c ****             }
 710:..\..\..\arduinoLCD\test\Pain Drain\libraries\lvgl\src\core/lv_indev.c ****             /*If the focused object is editable and now in navigate mode then on enter switch edit
 711:..\..\..\arduinoLCD\test\Pain Drain\libraries\lvgl\src\core/lv_indev.c ****                mode*/
 712:..\..\..\arduinoLCD\test\Pain Drain\libraries\lvgl\src\core/lv_indev.c ****             else if(!i->proc.long_pr_sent) {
 713:..\..\..\arduinoLCD\test\Pain Drain\libraries\lvgl\src\core/lv_indev.c ****                 LV_LOG_INFO("entering edit mode");
 714:..\..\..\arduinoLCD\test\Pain Drain\libraries\lvgl\src\core/lv_indev.c ****                 lv_group_set_editing(g, true); /*Set edit mode*/
 715:..\..\..\arduinoLCD\test\Pain Drain\libraries\lvgl\src\core/lv_indev.c ****             }
ARM GAS  C:\Users\haske\AppData\Local\Temp\ccl1At1U.s 			page 14


 716:..\..\..\arduinoLCD\test\Pain Drain\libraries\lvgl\src\core/lv_indev.c ****         }
 717:..\..\..\arduinoLCD\test\Pain Drain\libraries\lvgl\src\core/lv_indev.c **** 
 718:..\..\..\arduinoLCD\test\Pain Drain\libraries\lvgl\src\core/lv_indev.c ****         i->proc.pr_timestamp = 0;
 719:..\..\..\arduinoLCD\test\Pain Drain\libraries\lvgl\src\core/lv_indev.c ****         i->proc.long_pr_sent = 0;
 720:..\..\..\arduinoLCD\test\Pain Drain\libraries\lvgl\src\core/lv_indev.c ****     }
 721:..\..\..\arduinoLCD\test\Pain Drain\libraries\lvgl\src\core/lv_indev.c ****     indev_obj_act = NULL;
 722:..\..\..\arduinoLCD\test\Pain Drain\libraries\lvgl\src\core/lv_indev.c **** 
 723:..\..\..\arduinoLCD\test\Pain Drain\libraries\lvgl\src\core/lv_indev.c ****     /*if encoder steps or simulated steps via left/right keys*/
 724:..\..\..\arduinoLCD\test\Pain Drain\libraries\lvgl\src\core/lv_indev.c ****     if(data->enc_diff != 0) {
 725:..\..\..\arduinoLCD\test\Pain Drain\libraries\lvgl\src\core/lv_indev.c ****         /*In edit mode send LEFT/RIGHT keys*/
 726:..\..\..\arduinoLCD\test\Pain Drain\libraries\lvgl\src\core/lv_indev.c ****         if(lv_group_get_editing(g)) {
 727:..\..\..\arduinoLCD\test\Pain Drain\libraries\lvgl\src\core/lv_indev.c ****             LV_LOG_INFO("rotated by %+d (edit)", data->enc_diff);
 728:..\..\..\arduinoLCD\test\Pain Drain\libraries\lvgl\src\core/lv_indev.c ****             int32_t s;
 729:..\..\..\arduinoLCD\test\Pain Drain\libraries\lvgl\src\core/lv_indev.c ****             if(data->enc_diff < 0) {
 730:..\..\..\arduinoLCD\test\Pain Drain\libraries\lvgl\src\core/lv_indev.c ****                 for(s = 0; s < -data->enc_diff; s++) {
 731:..\..\..\arduinoLCD\test\Pain Drain\libraries\lvgl\src\core/lv_indev.c ****                     lv_group_send_data(g, LV_KEY_LEFT);
 732:..\..\..\arduinoLCD\test\Pain Drain\libraries\lvgl\src\core/lv_indev.c ****                     if(indev_reset_check(&i->proc)) return;
 733:..\..\..\arduinoLCD\test\Pain Drain\libraries\lvgl\src\core/lv_indev.c ****                 }
 734:..\..\..\arduinoLCD\test\Pain Drain\libraries\lvgl\src\core/lv_indev.c ****             }
 735:..\..\..\arduinoLCD\test\Pain Drain\libraries\lvgl\src\core/lv_indev.c ****             else if(data->enc_diff > 0) {
 736:..\..\..\arduinoLCD\test\Pain Drain\libraries\lvgl\src\core/lv_indev.c ****                 for(s = 0; s < data->enc_diff; s++) {
 737:..\..\..\arduinoLCD\test\Pain Drain\libraries\lvgl\src\core/lv_indev.c ****                     lv_group_send_data(g, LV_KEY_RIGHT);
 738:..\..\..\arduinoLCD\test\Pain Drain\libraries\lvgl\src\core/lv_indev.c ****                     if(indev_reset_check(&i->proc)) return;
 739:..\..\..\arduinoLCD\test\Pain Drain\libraries\lvgl\src\core/lv_indev.c ****                 }
 740:..\..\..\arduinoLCD\test\Pain Drain\libraries\lvgl\src\core/lv_indev.c ****             }
 741:..\..\..\arduinoLCD\test\Pain Drain\libraries\lvgl\src\core/lv_indev.c ****         }
 742:..\..\..\arduinoLCD\test\Pain Drain\libraries\lvgl\src\core/lv_indev.c ****         /*In navigate mode focus on the next/prev objects*/
 743:..\..\..\arduinoLCD\test\Pain Drain\libraries\lvgl\src\core/lv_indev.c ****         else {
 744:..\..\..\arduinoLCD\test\Pain Drain\libraries\lvgl\src\core/lv_indev.c ****             LV_LOG_INFO("rotated by %+d (nav)", data->enc_diff);
 745:..\..\..\arduinoLCD\test\Pain Drain\libraries\lvgl\src\core/lv_indev.c ****             int32_t s;
 746:..\..\..\arduinoLCD\test\Pain Drain\libraries\lvgl\src\core/lv_indev.c ****             if(data->enc_diff < 0) {
 747:..\..\..\arduinoLCD\test\Pain Drain\libraries\lvgl\src\core/lv_indev.c ****                 for(s = 0; s < -data->enc_diff; s++) {
 748:..\..\..\arduinoLCD\test\Pain Drain\libraries\lvgl\src\core/lv_indev.c ****                     lv_group_focus_prev(g);
 749:..\..\..\arduinoLCD\test\Pain Drain\libraries\lvgl\src\core/lv_indev.c ****                     if(indev_reset_check(&i->proc)) return;
 750:..\..\..\arduinoLCD\test\Pain Drain\libraries\lvgl\src\core/lv_indev.c ****                 }
 751:..\..\..\arduinoLCD\test\Pain Drain\libraries\lvgl\src\core/lv_indev.c ****             }
 752:..\..\..\arduinoLCD\test\Pain Drain\libraries\lvgl\src\core/lv_indev.c ****             else if(data->enc_diff > 0) {
 753:..\..\..\arduinoLCD\test\Pain Drain\libraries\lvgl\src\core/lv_indev.c ****                 for(s = 0; s < data->enc_diff; s++) {
 754:..\..\..\arduinoLCD\test\Pain Drain\libraries\lvgl\src\core/lv_indev.c ****                     lv_group_focus_next(g);
 755:..\..\..\arduinoLCD\test\Pain Drain\libraries\lvgl\src\core/lv_indev.c ****                     if(indev_reset_check(&i->proc)) return;
 756:..\..\..\arduinoLCD\test\Pain Drain\libraries\lvgl\src\core/lv_indev.c ****                 }
 757:..\..\..\arduinoLCD\test\Pain Drain\libraries\lvgl\src\core/lv_indev.c ****             }
 758:..\..\..\arduinoLCD\test\Pain Drain\libraries\lvgl\src\core/lv_indev.c ****         }
 759:..\..\..\arduinoLCD\test\Pain Drain\libraries\lvgl\src\core/lv_indev.c ****     }
 760:..\..\..\arduinoLCD\test\Pain Drain\libraries\lvgl\src\core/lv_indev.c **** }
 761:..\..\..\arduinoLCD\test\Pain Drain\libraries\lvgl\src\core/lv_indev.c **** 
 762:..\..\..\arduinoLCD\test\Pain Drain\libraries\lvgl\src\core/lv_indev.c **** /**
 763:..\..\..\arduinoLCD\test\Pain Drain\libraries\lvgl\src\core/lv_indev.c ****  * Process new points from an input device. indev->state.pressed has to be set
 764:..\..\..\arduinoLCD\test\Pain Drain\libraries\lvgl\src\core/lv_indev.c ****  * @param indev pointer to an input device state
 765:..\..\..\arduinoLCD\test\Pain Drain\libraries\lvgl\src\core/lv_indev.c ****  * @param x x coordinate of the next point
 766:..\..\..\arduinoLCD\test\Pain Drain\libraries\lvgl\src\core/lv_indev.c ****  * @param y y coordinate of the next point
 767:..\..\..\arduinoLCD\test\Pain Drain\libraries\lvgl\src\core/lv_indev.c ****  */
 768:..\..\..\arduinoLCD\test\Pain Drain\libraries\lvgl\src\core/lv_indev.c **** static void indev_button_proc(lv_indev_t * i, lv_indev_data_t * data)
 769:..\..\..\arduinoLCD\test\Pain Drain\libraries\lvgl\src\core/lv_indev.c **** {
 770:..\..\..\arduinoLCD\test\Pain Drain\libraries\lvgl\src\core/lv_indev.c ****     /*Die gracefully if i->btn_points is NULL*/
 771:..\..\..\arduinoLCD\test\Pain Drain\libraries\lvgl\src\core/lv_indev.c ****     if(i->btn_points == NULL) {
 772:..\..\..\arduinoLCD\test\Pain Drain\libraries\lvgl\src\core/lv_indev.c ****         LV_LOG_WARN("btn_points is NULL");
ARM GAS  C:\Users\haske\AppData\Local\Temp\ccl1At1U.s 			page 15


 773:..\..\..\arduinoLCD\test\Pain Drain\libraries\lvgl\src\core/lv_indev.c ****         return;
 774:..\..\..\arduinoLCD\test\Pain Drain\libraries\lvgl\src\core/lv_indev.c ****     }
 775:..\..\..\arduinoLCD\test\Pain Drain\libraries\lvgl\src\core/lv_indev.c **** 
 776:..\..\..\arduinoLCD\test\Pain Drain\libraries\lvgl\src\core/lv_indev.c ****     lv_coord_t x = i->btn_points[data->btn_id].x;
 777:..\..\..\arduinoLCD\test\Pain Drain\libraries\lvgl\src\core/lv_indev.c ****     lv_coord_t y = i->btn_points[data->btn_id].y;
 778:..\..\..\arduinoLCD\test\Pain Drain\libraries\lvgl\src\core/lv_indev.c **** 
 779:..\..\..\arduinoLCD\test\Pain Drain\libraries\lvgl\src\core/lv_indev.c ****     static lv_indev_state_t prev_state = LV_INDEV_STATE_RELEASED;
 780:..\..\..\arduinoLCD\test\Pain Drain\libraries\lvgl\src\core/lv_indev.c ****     if(prev_state != data->state) {
 781:..\..\..\arduinoLCD\test\Pain Drain\libraries\lvgl\src\core/lv_indev.c ****         if(data->state == LV_INDEV_STATE_PRESSED) {
 782:..\..\..\arduinoLCD\test\Pain Drain\libraries\lvgl\src\core/lv_indev.c ****             LV_LOG_INFO("button %" LV_PRIu32 " is pressed (x:%d y:%d)", data->btn_id, x, y);
 783:..\..\..\arduinoLCD\test\Pain Drain\libraries\lvgl\src\core/lv_indev.c ****         }
 784:..\..\..\arduinoLCD\test\Pain Drain\libraries\lvgl\src\core/lv_indev.c ****         else {
 785:..\..\..\arduinoLCD\test\Pain Drain\libraries\lvgl\src\core/lv_indev.c ****             LV_LOG_INFO("button %" LV_PRIu32 " is released (x:%d y:%d)", data->btn_id, x, y);
 786:..\..\..\arduinoLCD\test\Pain Drain\libraries\lvgl\src\core/lv_indev.c ****         }
 787:..\..\..\arduinoLCD\test\Pain Drain\libraries\lvgl\src\core/lv_indev.c ****     }
 788:..\..\..\arduinoLCD\test\Pain Drain\libraries\lvgl\src\core/lv_indev.c **** 
 789:..\..\..\arduinoLCD\test\Pain Drain\libraries\lvgl\src\core/lv_indev.c ****     /*If a new point comes always make a release*/
 790:..\..\..\arduinoLCD\test\Pain Drain\libraries\lvgl\src\core/lv_indev.c ****     if(data->state == LV_INDEV_STATE_PRESSED) {
 791:..\..\..\arduinoLCD\test\Pain Drain\libraries\lvgl\src\core/lv_indev.c ****         if(i->proc.types.pointer.last_point.x != x ||
 792:..\..\..\arduinoLCD\test\Pain Drain\libraries\lvgl\src\core/lv_indev.c ****            i->proc.types.pointer.last_point.y != y) {
 793:..\..\..\arduinoLCD\test\Pain Drain\libraries\lvgl\src\core/lv_indev.c ****             indev_proc_release(&i->proc);
 794:..\..\..\arduinoLCD\test\Pain Drain\libraries\lvgl\src\core/lv_indev.c ****         }
 795:..\..\..\arduinoLCD\test\Pain Drain\libraries\lvgl\src\core/lv_indev.c ****     }
 796:..\..\..\arduinoLCD\test\Pain Drain\libraries\lvgl\src\core/lv_indev.c **** 
 797:..\..\..\arduinoLCD\test\Pain Drain\libraries\lvgl\src\core/lv_indev.c ****     if(indev_reset_check(&i->proc)) return;
 798:..\..\..\arduinoLCD\test\Pain Drain\libraries\lvgl\src\core/lv_indev.c **** 
 799:..\..\..\arduinoLCD\test\Pain Drain\libraries\lvgl\src\core/lv_indev.c ****     /*Save the new points*/
 800:..\..\..\arduinoLCD\test\Pain Drain\libraries\lvgl\src\core/lv_indev.c ****     i->proc.types.pointer.act_point.x = x;
 801:..\..\..\arduinoLCD\test\Pain Drain\libraries\lvgl\src\core/lv_indev.c ****     i->proc.types.pointer.act_point.y = y;
 802:..\..\..\arduinoLCD\test\Pain Drain\libraries\lvgl\src\core/lv_indev.c **** 
 803:..\..\..\arduinoLCD\test\Pain Drain\libraries\lvgl\src\core/lv_indev.c ****     if(data->state == LV_INDEV_STATE_PRESSED) indev_proc_press(&i->proc);
 804:..\..\..\arduinoLCD\test\Pain Drain\libraries\lvgl\src\core/lv_indev.c ****     else indev_proc_release(&i->proc);
 805:..\..\..\arduinoLCD\test\Pain Drain\libraries\lvgl\src\core/lv_indev.c **** 
 806:..\..\..\arduinoLCD\test\Pain Drain\libraries\lvgl\src\core/lv_indev.c ****     if(indev_reset_check(&i->proc)) return;
 807:..\..\..\arduinoLCD\test\Pain Drain\libraries\lvgl\src\core/lv_indev.c **** 
 808:..\..\..\arduinoLCD\test\Pain Drain\libraries\lvgl\src\core/lv_indev.c ****     i->proc.types.pointer.last_point.x = i->proc.types.pointer.act_point.x;
 809:..\..\..\arduinoLCD\test\Pain Drain\libraries\lvgl\src\core/lv_indev.c ****     i->proc.types.pointer.last_point.y = i->proc.types.pointer.act_point.y;
 810:..\..\..\arduinoLCD\test\Pain Drain\libraries\lvgl\src\core/lv_indev.c **** }
 811:..\..\..\arduinoLCD\test\Pain Drain\libraries\lvgl\src\core/lv_indev.c **** 
 812:..\..\..\arduinoLCD\test\Pain Drain\libraries\lvgl\src\core/lv_indev.c **** /**
 813:..\..\..\arduinoLCD\test\Pain Drain\libraries\lvgl\src\core/lv_indev.c ****  * Process the pressed state of LV_INDEV_TYPE_POINTER input devices
 814:..\..\..\arduinoLCD\test\Pain Drain\libraries\lvgl\src\core/lv_indev.c ****  * @param indev pointer to an input device 'proc'
 815:..\..\..\arduinoLCD\test\Pain Drain\libraries\lvgl\src\core/lv_indev.c ****  * @return LV_RES_OK: no indev reset required; LV_RES_INV: indev reset is required
 816:..\..\..\arduinoLCD\test\Pain Drain\libraries\lvgl\src\core/lv_indev.c ****  */
 817:..\..\..\arduinoLCD\test\Pain Drain\libraries\lvgl\src\core/lv_indev.c **** static void indev_proc_press(_lv_indev_proc_t * proc)
 818:..\..\..\arduinoLCD\test\Pain Drain\libraries\lvgl\src\core/lv_indev.c **** {
 819:..\..\..\arduinoLCD\test\Pain Drain\libraries\lvgl\src\core/lv_indev.c ****     LV_LOG_INFO("pressed at x:%d y:%d", proc->types.pointer.act_point.x, proc->types.pointer.act_po
 820:..\..\..\arduinoLCD\test\Pain Drain\libraries\lvgl\src\core/lv_indev.c ****     indev_obj_act = proc->types.pointer.act_obj;
 821:..\..\..\arduinoLCD\test\Pain Drain\libraries\lvgl\src\core/lv_indev.c **** 
 822:..\..\..\arduinoLCD\test\Pain Drain\libraries\lvgl\src\core/lv_indev.c ****     if(proc->wait_until_release != 0) return;
 823:..\..\..\arduinoLCD\test\Pain Drain\libraries\lvgl\src\core/lv_indev.c **** 
 824:..\..\..\arduinoLCD\test\Pain Drain\libraries\lvgl\src\core/lv_indev.c ****     lv_disp_t * disp = indev_act->driver->disp;
 825:..\..\..\arduinoLCD\test\Pain Drain\libraries\lvgl\src\core/lv_indev.c ****     bool new_obj_searched = false;
 826:..\..\..\arduinoLCD\test\Pain Drain\libraries\lvgl\src\core/lv_indev.c **** 
 827:..\..\..\arduinoLCD\test\Pain Drain\libraries\lvgl\src\core/lv_indev.c ****     /*If there is no last object then search*/
 828:..\..\..\arduinoLCD\test\Pain Drain\libraries\lvgl\src\core/lv_indev.c ****     if(indev_obj_act == NULL) {
 829:..\..\..\arduinoLCD\test\Pain Drain\libraries\lvgl\src\core/lv_indev.c ****         indev_obj_act = lv_indev_search_obj(lv_disp_get_layer_sys(disp), &proc->types.pointer.act_p
ARM GAS  C:\Users\haske\AppData\Local\Temp\ccl1At1U.s 			page 16


 830:..\..\..\arduinoLCD\test\Pain Drain\libraries\lvgl\src\core/lv_indev.c ****         if(indev_obj_act == NULL) indev_obj_act = lv_indev_search_obj(lv_disp_get_layer_top(disp),
 831:..\..\..\arduinoLCD\test\Pain Drain\libraries\lvgl\src\core/lv_indev.c ****                                                                           &proc->types.pointer.act_
 832:..\..\..\arduinoLCD\test\Pain Drain\libraries\lvgl\src\core/lv_indev.c ****         if(indev_obj_act == NULL) indev_obj_act = lv_indev_search_obj(lv_disp_get_scr_act(disp),
 833:..\..\..\arduinoLCD\test\Pain Drain\libraries\lvgl\src\core/lv_indev.c ****                                                                           &proc->types.pointer.act_
 834:..\..\..\arduinoLCD\test\Pain Drain\libraries\lvgl\src\core/lv_indev.c ****         new_obj_searched = true;
 835:..\..\..\arduinoLCD\test\Pain Drain\libraries\lvgl\src\core/lv_indev.c ****     }
 836:..\..\..\arduinoLCD\test\Pain Drain\libraries\lvgl\src\core/lv_indev.c ****     /*If there is last object but it is not scrolled and not protected also search*/
 837:..\..\..\arduinoLCD\test\Pain Drain\libraries\lvgl\src\core/lv_indev.c ****     else if(proc->types.pointer.scroll_obj == NULL &&
 838:..\..\..\arduinoLCD\test\Pain Drain\libraries\lvgl\src\core/lv_indev.c ****             lv_obj_has_flag(indev_obj_act, LV_OBJ_FLAG_PRESS_LOCK) == false) {
 839:..\..\..\arduinoLCD\test\Pain Drain\libraries\lvgl\src\core/lv_indev.c ****         indev_obj_act = lv_indev_search_obj(lv_disp_get_layer_sys(disp), &proc->types.pointer.act_p
 840:..\..\..\arduinoLCD\test\Pain Drain\libraries\lvgl\src\core/lv_indev.c ****         if(indev_obj_act == NULL) indev_obj_act = lv_indev_search_obj(lv_disp_get_layer_top(disp),
 841:..\..\..\arduinoLCD\test\Pain Drain\libraries\lvgl\src\core/lv_indev.c ****                                                                           &proc->types.pointer.act_
 842:..\..\..\arduinoLCD\test\Pain Drain\libraries\lvgl\src\core/lv_indev.c ****         if(indev_obj_act == NULL) indev_obj_act = lv_indev_search_obj(lv_disp_get_scr_act(disp),
 843:..\..\..\arduinoLCD\test\Pain Drain\libraries\lvgl\src\core/lv_indev.c ****                                                                           &proc->types.pointer.act_
 844:..\..\..\arduinoLCD\test\Pain Drain\libraries\lvgl\src\core/lv_indev.c ****         new_obj_searched = true;
 845:..\..\..\arduinoLCD\test\Pain Drain\libraries\lvgl\src\core/lv_indev.c ****     }
 846:..\..\..\arduinoLCD\test\Pain Drain\libraries\lvgl\src\core/lv_indev.c **** 
 847:..\..\..\arduinoLCD\test\Pain Drain\libraries\lvgl\src\core/lv_indev.c ****     /*The last object might have scroll throw. Stop it manually*/
 848:..\..\..\arduinoLCD\test\Pain Drain\libraries\lvgl\src\core/lv_indev.c ****     if(new_obj_searched && proc->types.pointer.last_obj) {
 849:..\..\..\arduinoLCD\test\Pain Drain\libraries\lvgl\src\core/lv_indev.c ****         proc->types.pointer.scroll_throw_vect.x = 0;
 850:..\..\..\arduinoLCD\test\Pain Drain\libraries\lvgl\src\core/lv_indev.c ****         proc->types.pointer.scroll_throw_vect.y = 0;
 851:..\..\..\arduinoLCD\test\Pain Drain\libraries\lvgl\src\core/lv_indev.c ****         _lv_indev_scroll_throw_handler(proc);
 852:..\..\..\arduinoLCD\test\Pain Drain\libraries\lvgl\src\core/lv_indev.c ****         if(indev_reset_check(proc)) return;
 853:..\..\..\arduinoLCD\test\Pain Drain\libraries\lvgl\src\core/lv_indev.c ****     }
 854:..\..\..\arduinoLCD\test\Pain Drain\libraries\lvgl\src\core/lv_indev.c **** 
 855:..\..\..\arduinoLCD\test\Pain Drain\libraries\lvgl\src\core/lv_indev.c ****     /*If a new object was found reset some variables and send a pressed event handler*/
 856:..\..\..\arduinoLCD\test\Pain Drain\libraries\lvgl\src\core/lv_indev.c ****     if(indev_obj_act != proc->types.pointer.act_obj) {
 857:..\..\..\arduinoLCD\test\Pain Drain\libraries\lvgl\src\core/lv_indev.c ****         proc->types.pointer.last_point.x = proc->types.pointer.act_point.x;
 858:..\..\..\arduinoLCD\test\Pain Drain\libraries\lvgl\src\core/lv_indev.c ****         proc->types.pointer.last_point.y = proc->types.pointer.act_point.y;
 859:..\..\..\arduinoLCD\test\Pain Drain\libraries\lvgl\src\core/lv_indev.c **** 
 860:..\..\..\arduinoLCD\test\Pain Drain\libraries\lvgl\src\core/lv_indev.c ****         /*If a new object found the previous was lost, so send a Call the ancestor's event handler*
 861:..\..\..\arduinoLCD\test\Pain Drain\libraries\lvgl\src\core/lv_indev.c ****         if(proc->types.pointer.act_obj != NULL) {
 862:..\..\..\arduinoLCD\test\Pain Drain\libraries\lvgl\src\core/lv_indev.c ****             /*Save the obj because in special cases `act_obj` can change in the Call the ancestor's
 863:..\..\..\arduinoLCD\test\Pain Drain\libraries\lvgl\src\core/lv_indev.c ****             lv_obj_t * last_obj = proc->types.pointer.act_obj;
 864:..\..\..\arduinoLCD\test\Pain Drain\libraries\lvgl\src\core/lv_indev.c **** 
 865:..\..\..\arduinoLCD\test\Pain Drain\libraries\lvgl\src\core/lv_indev.c ****             lv_event_send(last_obj, LV_EVENT_PRESS_LOST, indev_act);
 866:..\..\..\arduinoLCD\test\Pain Drain\libraries\lvgl\src\core/lv_indev.c ****             if(indev_reset_check(proc)) return;
 867:..\..\..\arduinoLCD\test\Pain Drain\libraries\lvgl\src\core/lv_indev.c ****         }
 868:..\..\..\arduinoLCD\test\Pain Drain\libraries\lvgl\src\core/lv_indev.c **** 
 869:..\..\..\arduinoLCD\test\Pain Drain\libraries\lvgl\src\core/lv_indev.c ****         proc->types.pointer.act_obj  = indev_obj_act; /*Save the pressed object*/
 870:..\..\..\arduinoLCD\test\Pain Drain\libraries\lvgl\src\core/lv_indev.c ****         proc->types.pointer.last_obj = indev_obj_act;
 871:..\..\..\arduinoLCD\test\Pain Drain\libraries\lvgl\src\core/lv_indev.c **** 
 872:..\..\..\arduinoLCD\test\Pain Drain\libraries\lvgl\src\core/lv_indev.c ****         if(indev_obj_act != NULL) {
 873:..\..\..\arduinoLCD\test\Pain Drain\libraries\lvgl\src\core/lv_indev.c ****             /*Save the time when the obj pressed to count long press time.*/
 874:..\..\..\arduinoLCD\test\Pain Drain\libraries\lvgl\src\core/lv_indev.c ****             proc->pr_timestamp                 = lv_tick_get();
 875:..\..\..\arduinoLCD\test\Pain Drain\libraries\lvgl\src\core/lv_indev.c ****             proc->long_pr_sent                 = 0;
 876:..\..\..\arduinoLCD\test\Pain Drain\libraries\lvgl\src\core/lv_indev.c ****             proc->types.pointer.scroll_sum.x     = 0;
 877:..\..\..\arduinoLCD\test\Pain Drain\libraries\lvgl\src\core/lv_indev.c ****             proc->types.pointer.scroll_sum.y     = 0;
 878:..\..\..\arduinoLCD\test\Pain Drain\libraries\lvgl\src\core/lv_indev.c ****             proc->types.pointer.scroll_dir = LV_DIR_NONE;
 879:..\..\..\arduinoLCD\test\Pain Drain\libraries\lvgl\src\core/lv_indev.c ****             proc->types.pointer.gesture_dir = LV_DIR_NONE;
 880:..\..\..\arduinoLCD\test\Pain Drain\libraries\lvgl\src\core/lv_indev.c ****             proc->types.pointer.gesture_sent   = 0;
 881:..\..\..\arduinoLCD\test\Pain Drain\libraries\lvgl\src\core/lv_indev.c ****             proc->types.pointer.gesture_sum.x  = 0;
 882:..\..\..\arduinoLCD\test\Pain Drain\libraries\lvgl\src\core/lv_indev.c ****             proc->types.pointer.gesture_sum.y  = 0;
 883:..\..\..\arduinoLCD\test\Pain Drain\libraries\lvgl\src\core/lv_indev.c ****             proc->types.pointer.vect.x         = 0;
 884:..\..\..\arduinoLCD\test\Pain Drain\libraries\lvgl\src\core/lv_indev.c ****             proc->types.pointer.vect.y         = 0;
 885:..\..\..\arduinoLCD\test\Pain Drain\libraries\lvgl\src\core/lv_indev.c **** 
 886:..\..\..\arduinoLCD\test\Pain Drain\libraries\lvgl\src\core/lv_indev.c ****             /*Call the ancestor's event handler about the press*/
ARM GAS  C:\Users\haske\AppData\Local\Temp\ccl1At1U.s 			page 17


 887:..\..\..\arduinoLCD\test\Pain Drain\libraries\lvgl\src\core/lv_indev.c ****             lv_event_send(indev_obj_act, LV_EVENT_PRESSED, indev_act);
 888:..\..\..\arduinoLCD\test\Pain Drain\libraries\lvgl\src\core/lv_indev.c ****             if(indev_reset_check(proc)) return;
 889:..\..\..\arduinoLCD\test\Pain Drain\libraries\lvgl\src\core/lv_indev.c **** 
 890:..\..\..\arduinoLCD\test\Pain Drain\libraries\lvgl\src\core/lv_indev.c ****             if(indev_act->proc.wait_until_release) return;
 891:..\..\..\arduinoLCD\test\Pain Drain\libraries\lvgl\src\core/lv_indev.c **** 
 892:..\..\..\arduinoLCD\test\Pain Drain\libraries\lvgl\src\core/lv_indev.c ****             /*Handle focus*/
 893:..\..\..\arduinoLCD\test\Pain Drain\libraries\lvgl\src\core/lv_indev.c ****             indev_click_focus(&indev_act->proc);
 894:..\..\..\arduinoLCD\test\Pain Drain\libraries\lvgl\src\core/lv_indev.c ****             if(indev_reset_check(proc)) return;
 895:..\..\..\arduinoLCD\test\Pain Drain\libraries\lvgl\src\core/lv_indev.c **** 
 896:..\..\..\arduinoLCD\test\Pain Drain\libraries\lvgl\src\core/lv_indev.c ****         }
 897:..\..\..\arduinoLCD\test\Pain Drain\libraries\lvgl\src\core/lv_indev.c ****     }
 898:..\..\..\arduinoLCD\test\Pain Drain\libraries\lvgl\src\core/lv_indev.c **** 
 899:..\..\..\arduinoLCD\test\Pain Drain\libraries\lvgl\src\core/lv_indev.c ****     /*Calculate the vector and apply a low pass filter: new value = 0.5 * old_value + 0.5 * new_val
 900:..\..\..\arduinoLCD\test\Pain Drain\libraries\lvgl\src\core/lv_indev.c ****     proc->types.pointer.vect.x = proc->types.pointer.act_point.x - proc->types.pointer.last_point.x
 901:..\..\..\arduinoLCD\test\Pain Drain\libraries\lvgl\src\core/lv_indev.c ****     proc->types.pointer.vect.y = proc->types.pointer.act_point.y - proc->types.pointer.last_point.y
 902:..\..\..\arduinoLCD\test\Pain Drain\libraries\lvgl\src\core/lv_indev.c **** 
 903:..\..\..\arduinoLCD\test\Pain Drain\libraries\lvgl\src\core/lv_indev.c ****     proc->types.pointer.scroll_throw_vect.x = (proc->types.pointer.scroll_throw_vect.x + proc->type
 904:..\..\..\arduinoLCD\test\Pain Drain\libraries\lvgl\src\core/lv_indev.c ****     proc->types.pointer.scroll_throw_vect.y = (proc->types.pointer.scroll_throw_vect.y + proc->type
 905:..\..\..\arduinoLCD\test\Pain Drain\libraries\lvgl\src\core/lv_indev.c **** 
 906:..\..\..\arduinoLCD\test\Pain Drain\libraries\lvgl\src\core/lv_indev.c ****     proc->types.pointer.scroll_throw_vect_ori = proc->types.pointer.scroll_throw_vect;
 907:..\..\..\arduinoLCD\test\Pain Drain\libraries\lvgl\src\core/lv_indev.c **** 
 908:..\..\..\arduinoLCD\test\Pain Drain\libraries\lvgl\src\core/lv_indev.c ****     if(indev_obj_act) {
 909:..\..\..\arduinoLCD\test\Pain Drain\libraries\lvgl\src\core/lv_indev.c ****         lv_event_send(indev_obj_act, LV_EVENT_PRESSING, indev_act);
 910:..\..\..\arduinoLCD\test\Pain Drain\libraries\lvgl\src\core/lv_indev.c ****         if(indev_reset_check(proc)) return;
 911:..\..\..\arduinoLCD\test\Pain Drain\libraries\lvgl\src\core/lv_indev.c **** 
 912:..\..\..\arduinoLCD\test\Pain Drain\libraries\lvgl\src\core/lv_indev.c ****         if(indev_act->proc.wait_until_release) return;
 913:..\..\..\arduinoLCD\test\Pain Drain\libraries\lvgl\src\core/lv_indev.c **** 
 914:..\..\..\arduinoLCD\test\Pain Drain\libraries\lvgl\src\core/lv_indev.c ****         _lv_indev_scroll_handler(proc);
 915:..\..\..\arduinoLCD\test\Pain Drain\libraries\lvgl\src\core/lv_indev.c ****         if(indev_reset_check(proc)) return;
 916:..\..\..\arduinoLCD\test\Pain Drain\libraries\lvgl\src\core/lv_indev.c ****         indev_gesture(proc);
 917:..\..\..\arduinoLCD\test\Pain Drain\libraries\lvgl\src\core/lv_indev.c ****         if(indev_reset_check(proc)) return;
 918:..\..\..\arduinoLCD\test\Pain Drain\libraries\lvgl\src\core/lv_indev.c **** 
 919:..\..\..\arduinoLCD\test\Pain Drain\libraries\lvgl\src\core/lv_indev.c ****         /*If there is no scrolling then check for long press time*/
 920:..\..\..\arduinoLCD\test\Pain Drain\libraries\lvgl\src\core/lv_indev.c ****         if(proc->types.pointer.scroll_obj == NULL && proc->long_pr_sent == 0) {
 921:..\..\..\arduinoLCD\test\Pain Drain\libraries\lvgl\src\core/lv_indev.c ****             /*Call the ancestor's event handler about the long press if enough time elapsed*/
 922:..\..\..\arduinoLCD\test\Pain Drain\libraries\lvgl\src\core/lv_indev.c ****             if(lv_tick_elaps(proc->pr_timestamp) > indev_act->driver->long_press_time) {
 923:..\..\..\arduinoLCD\test\Pain Drain\libraries\lvgl\src\core/lv_indev.c ****                 lv_event_send(indev_obj_act, LV_EVENT_LONG_PRESSED, indev_act);
 924:..\..\..\arduinoLCD\test\Pain Drain\libraries\lvgl\src\core/lv_indev.c ****                 if(indev_reset_check(proc)) return;
 925:..\..\..\arduinoLCD\test\Pain Drain\libraries\lvgl\src\core/lv_indev.c **** 
 926:..\..\..\arduinoLCD\test\Pain Drain\libraries\lvgl\src\core/lv_indev.c ****                 /*Mark the Call the ancestor's event handler sending to do not send it again*/
 927:..\..\..\arduinoLCD\test\Pain Drain\libraries\lvgl\src\core/lv_indev.c ****                 proc->long_pr_sent = 1;
 928:..\..\..\arduinoLCD\test\Pain Drain\libraries\lvgl\src\core/lv_indev.c **** 
 929:..\..\..\arduinoLCD\test\Pain Drain\libraries\lvgl\src\core/lv_indev.c ****                 /*Save the long press time stamp for the long press repeat handler*/
 930:..\..\..\arduinoLCD\test\Pain Drain\libraries\lvgl\src\core/lv_indev.c ****                 proc->longpr_rep_timestamp = lv_tick_get();
 931:..\..\..\arduinoLCD\test\Pain Drain\libraries\lvgl\src\core/lv_indev.c ****             }
 932:..\..\..\arduinoLCD\test\Pain Drain\libraries\lvgl\src\core/lv_indev.c ****         }
 933:..\..\..\arduinoLCD\test\Pain Drain\libraries\lvgl\src\core/lv_indev.c **** 
 934:..\..\..\arduinoLCD\test\Pain Drain\libraries\lvgl\src\core/lv_indev.c ****         /*Send long press repeated Call the ancestor's event handler*/
 935:..\..\..\arduinoLCD\test\Pain Drain\libraries\lvgl\src\core/lv_indev.c ****         if(proc->types.pointer.scroll_obj == NULL && proc->long_pr_sent == 1) {
 936:..\..\..\arduinoLCD\test\Pain Drain\libraries\lvgl\src\core/lv_indev.c ****             /*Call the ancestor's event handler about the long press repeat if enough time elapsed*
 937:..\..\..\arduinoLCD\test\Pain Drain\libraries\lvgl\src\core/lv_indev.c ****             if(lv_tick_elaps(proc->longpr_rep_timestamp) > indev_act->driver->long_press_repeat_tim
 938:..\..\..\arduinoLCD\test\Pain Drain\libraries\lvgl\src\core/lv_indev.c ****                 lv_event_send(indev_obj_act, LV_EVENT_LONG_PRESSED_REPEAT, indev_act);
 939:..\..\..\arduinoLCD\test\Pain Drain\libraries\lvgl\src\core/lv_indev.c ****                 if(indev_reset_check(proc)) return;
 940:..\..\..\arduinoLCD\test\Pain Drain\libraries\lvgl\src\core/lv_indev.c ****                 proc->longpr_rep_timestamp = lv_tick_get();
 941:..\..\..\arduinoLCD\test\Pain Drain\libraries\lvgl\src\core/lv_indev.c ****             }
 942:..\..\..\arduinoLCD\test\Pain Drain\libraries\lvgl\src\core/lv_indev.c ****         }
 943:..\..\..\arduinoLCD\test\Pain Drain\libraries\lvgl\src\core/lv_indev.c ****     }
ARM GAS  C:\Users\haske\AppData\Local\Temp\ccl1At1U.s 			page 18


 944:..\..\..\arduinoLCD\test\Pain Drain\libraries\lvgl\src\core/lv_indev.c **** }
 945:..\..\..\arduinoLCD\test\Pain Drain\libraries\lvgl\src\core/lv_indev.c **** 
 946:..\..\..\arduinoLCD\test\Pain Drain\libraries\lvgl\src\core/lv_indev.c **** /**
 947:..\..\..\arduinoLCD\test\Pain Drain\libraries\lvgl\src\core/lv_indev.c ****  * Process the released state of LV_INDEV_TYPE_POINTER input devices
 948:..\..\..\arduinoLCD\test\Pain Drain\libraries\lvgl\src\core/lv_indev.c ****  * @param proc pointer to an input device 'proc'
 949:..\..\..\arduinoLCD\test\Pain Drain\libraries\lvgl\src\core/lv_indev.c ****  */
 950:..\..\..\arduinoLCD\test\Pain Drain\libraries\lvgl\src\core/lv_indev.c **** static void indev_proc_release(_lv_indev_proc_t * proc)
 951:..\..\..\arduinoLCD\test\Pain Drain\libraries\lvgl\src\core/lv_indev.c **** {
 952:..\..\..\arduinoLCD\test\Pain Drain\libraries\lvgl\src\core/lv_indev.c ****     if(proc->wait_until_release != 0) {
 953:..\..\..\arduinoLCD\test\Pain Drain\libraries\lvgl\src\core/lv_indev.c ****         lv_event_send(proc->types.pointer.act_obj, LV_EVENT_PRESS_LOST, indev_act);
 954:..\..\..\arduinoLCD\test\Pain Drain\libraries\lvgl\src\core/lv_indev.c ****         if(indev_reset_check(proc)) return;
 955:..\..\..\arduinoLCD\test\Pain Drain\libraries\lvgl\src\core/lv_indev.c **** 
 956:..\..\..\arduinoLCD\test\Pain Drain\libraries\lvgl\src\core/lv_indev.c ****         proc->types.pointer.act_obj  = NULL;
 957:..\..\..\arduinoLCD\test\Pain Drain\libraries\lvgl\src\core/lv_indev.c ****         proc->types.pointer.last_obj = NULL;
 958:..\..\..\arduinoLCD\test\Pain Drain\libraries\lvgl\src\core/lv_indev.c ****         proc->pr_timestamp           = 0;
 959:..\..\..\arduinoLCD\test\Pain Drain\libraries\lvgl\src\core/lv_indev.c ****         proc->longpr_rep_timestamp   = 0;
 960:..\..\..\arduinoLCD\test\Pain Drain\libraries\lvgl\src\core/lv_indev.c ****         proc->wait_until_release     = 0;
 961:..\..\..\arduinoLCD\test\Pain Drain\libraries\lvgl\src\core/lv_indev.c ****     }
 962:..\..\..\arduinoLCD\test\Pain Drain\libraries\lvgl\src\core/lv_indev.c ****     indev_obj_act = proc->types.pointer.act_obj;
 963:..\..\..\arduinoLCD\test\Pain Drain\libraries\lvgl\src\core/lv_indev.c ****     lv_obj_t * scroll_obj = proc->types.pointer.scroll_obj;
 964:..\..\..\arduinoLCD\test\Pain Drain\libraries\lvgl\src\core/lv_indev.c **** 
 965:..\..\..\arduinoLCD\test\Pain Drain\libraries\lvgl\src\core/lv_indev.c ****     /*Forget the act obj and send a released Call the ancestor's event handler*/
 966:..\..\..\arduinoLCD\test\Pain Drain\libraries\lvgl\src\core/lv_indev.c ****     if(indev_obj_act) {
 967:..\..\..\arduinoLCD\test\Pain Drain\libraries\lvgl\src\core/lv_indev.c ****         LV_LOG_INFO("released");
 968:..\..\..\arduinoLCD\test\Pain Drain\libraries\lvgl\src\core/lv_indev.c **** 
 969:..\..\..\arduinoLCD\test\Pain Drain\libraries\lvgl\src\core/lv_indev.c ****         /*Send RELEASE Call the ancestor's event handler and event*/
 970:..\..\..\arduinoLCD\test\Pain Drain\libraries\lvgl\src\core/lv_indev.c ****         lv_event_send(indev_obj_act, LV_EVENT_RELEASED, indev_act);
 971:..\..\..\arduinoLCD\test\Pain Drain\libraries\lvgl\src\core/lv_indev.c ****         if(indev_reset_check(proc)) return;
 972:..\..\..\arduinoLCD\test\Pain Drain\libraries\lvgl\src\core/lv_indev.c **** 
 973:..\..\..\arduinoLCD\test\Pain Drain\libraries\lvgl\src\core/lv_indev.c ****         /*Send CLICK if no scrolling*/
 974:..\..\..\arduinoLCD\test\Pain Drain\libraries\lvgl\src\core/lv_indev.c ****         if(scroll_obj == NULL) {
 975:..\..\..\arduinoLCD\test\Pain Drain\libraries\lvgl\src\core/lv_indev.c ****             if(proc->long_pr_sent == 0) {
 976:..\..\..\arduinoLCD\test\Pain Drain\libraries\lvgl\src\core/lv_indev.c ****                 lv_event_send(indev_obj_act, LV_EVENT_SHORT_CLICKED, indev_act);
 977:..\..\..\arduinoLCD\test\Pain Drain\libraries\lvgl\src\core/lv_indev.c ****                 if(indev_reset_check(proc)) return;
 978:..\..\..\arduinoLCD\test\Pain Drain\libraries\lvgl\src\core/lv_indev.c ****             }
 979:..\..\..\arduinoLCD\test\Pain Drain\libraries\lvgl\src\core/lv_indev.c **** 
 980:..\..\..\arduinoLCD\test\Pain Drain\libraries\lvgl\src\core/lv_indev.c ****             lv_event_send(indev_obj_act, LV_EVENT_CLICKED, indev_act);
 981:..\..\..\arduinoLCD\test\Pain Drain\libraries\lvgl\src\core/lv_indev.c ****             if(indev_reset_check(proc)) return;
 982:..\..\..\arduinoLCD\test\Pain Drain\libraries\lvgl\src\core/lv_indev.c ****         }
 983:..\..\..\arduinoLCD\test\Pain Drain\libraries\lvgl\src\core/lv_indev.c **** 
 984:..\..\..\arduinoLCD\test\Pain Drain\libraries\lvgl\src\core/lv_indev.c ****         proc->types.pointer.act_obj = NULL;
 985:..\..\..\arduinoLCD\test\Pain Drain\libraries\lvgl\src\core/lv_indev.c ****         proc->pr_timestamp          = 0;
 986:..\..\..\arduinoLCD\test\Pain Drain\libraries\lvgl\src\core/lv_indev.c ****         proc->longpr_rep_timestamp  = 0;
 987:..\..\..\arduinoLCD\test\Pain Drain\libraries\lvgl\src\core/lv_indev.c **** 
 988:..\..\..\arduinoLCD\test\Pain Drain\libraries\lvgl\src\core/lv_indev.c **** 
 989:..\..\..\arduinoLCD\test\Pain Drain\libraries\lvgl\src\core/lv_indev.c ****         /*Get the transformed vector with this object*/
 990:..\..\..\arduinoLCD\test\Pain Drain\libraries\lvgl\src\core/lv_indev.c ****         if(scroll_obj) {
 991:..\..\..\arduinoLCD\test\Pain Drain\libraries\lvgl\src\core/lv_indev.c ****             int16_t angle = 0;
 992:..\..\..\arduinoLCD\test\Pain Drain\libraries\lvgl\src\core/lv_indev.c ****             int16_t zoom = 256;
 993:..\..\..\arduinoLCD\test\Pain Drain\libraries\lvgl\src\core/lv_indev.c ****             lv_point_t pivot = { 0, 0 };
 994:..\..\..\arduinoLCD\test\Pain Drain\libraries\lvgl\src\core/lv_indev.c ****             lv_obj_t * parent = scroll_obj;
 995:..\..\..\arduinoLCD\test\Pain Drain\libraries\lvgl\src\core/lv_indev.c ****             while(parent) {
 996:..\..\..\arduinoLCD\test\Pain Drain\libraries\lvgl\src\core/lv_indev.c ****                 angle += lv_obj_get_style_transform_angle(parent, 0);
 997:..\..\..\arduinoLCD\test\Pain Drain\libraries\lvgl\src\core/lv_indev.c ****                 zoom *= (lv_obj_get_style_transform_zoom(parent, 0) / 256);
 998:..\..\..\arduinoLCD\test\Pain Drain\libraries\lvgl\src\core/lv_indev.c ****                 parent = lv_obj_get_parent(parent);
 999:..\..\..\arduinoLCD\test\Pain Drain\libraries\lvgl\src\core/lv_indev.c ****             }
1000:..\..\..\arduinoLCD\test\Pain Drain\libraries\lvgl\src\core/lv_indev.c **** 
ARM GAS  C:\Users\haske\AppData\Local\Temp\ccl1At1U.s 			page 19


1001:..\..\..\arduinoLCD\test\Pain Drain\libraries\lvgl\src\core/lv_indev.c ****             if(angle != 0 || zoom != LV_IMG_ZOOM_NONE) {
1002:..\..\..\arduinoLCD\test\Pain Drain\libraries\lvgl\src\core/lv_indev.c ****                 angle = -angle;
1003:..\..\..\arduinoLCD\test\Pain Drain\libraries\lvgl\src\core/lv_indev.c ****                 zoom = (256 * 256) / zoom;
1004:..\..\..\arduinoLCD\test\Pain Drain\libraries\lvgl\src\core/lv_indev.c ****                 lv_point_transform(&proc->types.pointer.scroll_throw_vect, angle, zoom, &pivot);
1005:..\..\..\arduinoLCD\test\Pain Drain\libraries\lvgl\src\core/lv_indev.c ****                 lv_point_transform(&proc->types.pointer.scroll_throw_vect_ori, angle, zoom, &pivot)
1006:..\..\..\arduinoLCD\test\Pain Drain\libraries\lvgl\src\core/lv_indev.c ****             }
1007:..\..\..\arduinoLCD\test\Pain Drain\libraries\lvgl\src\core/lv_indev.c ****         }
1008:..\..\..\arduinoLCD\test\Pain Drain\libraries\lvgl\src\core/lv_indev.c **** 
1009:..\..\..\arduinoLCD\test\Pain Drain\libraries\lvgl\src\core/lv_indev.c ****     }
1010:..\..\..\arduinoLCD\test\Pain Drain\libraries\lvgl\src\core/lv_indev.c **** 
1011:..\..\..\arduinoLCD\test\Pain Drain\libraries\lvgl\src\core/lv_indev.c ****     /*The reset can be set in the Call the ancestor's event handler function.
1012:..\..\..\arduinoLCD\test\Pain Drain\libraries\lvgl\src\core/lv_indev.c ****      * In case of reset query ignore the remaining parts.*/
1013:..\..\..\arduinoLCD\test\Pain Drain\libraries\lvgl\src\core/lv_indev.c ****     if(scroll_obj) {
1014:..\..\..\arduinoLCD\test\Pain Drain\libraries\lvgl\src\core/lv_indev.c ****         _lv_indev_scroll_throw_handler(proc);
1015:..\..\..\arduinoLCD\test\Pain Drain\libraries\lvgl\src\core/lv_indev.c ****         if(indev_reset_check(proc)) return;
1016:..\..\..\arduinoLCD\test\Pain Drain\libraries\lvgl\src\core/lv_indev.c ****     }
1017:..\..\..\arduinoLCD\test\Pain Drain\libraries\lvgl\src\core/lv_indev.c **** }
1018:..\..\..\arduinoLCD\test\Pain Drain\libraries\lvgl\src\core/lv_indev.c **** 
1019:..\..\..\arduinoLCD\test\Pain Drain\libraries\lvgl\src\core/lv_indev.c **** /**
1020:..\..\..\arduinoLCD\test\Pain Drain\libraries\lvgl\src\core/lv_indev.c ****  * Process a new point from LV_INDEV_TYPE_BUTTON input device
1021:..\..\..\arduinoLCD\test\Pain Drain\libraries\lvgl\src\core/lv_indev.c ****  * @param i pointer to an input device
1022:..\..\..\arduinoLCD\test\Pain Drain\libraries\lvgl\src\core/lv_indev.c ****  * @param data pointer to the data read from the input device
1023:..\..\..\arduinoLCD\test\Pain Drain\libraries\lvgl\src\core/lv_indev.c ****  * Reset input device if a reset query has been sent to it
1024:..\..\..\arduinoLCD\test\Pain Drain\libraries\lvgl\src\core/lv_indev.c ****  * @param indev pointer to an input device
1025:..\..\..\arduinoLCD\test\Pain Drain\libraries\lvgl\src\core/lv_indev.c ****  */
1026:..\..\..\arduinoLCD\test\Pain Drain\libraries\lvgl\src\core/lv_indev.c **** static void indev_proc_reset_query_handler(lv_indev_t * indev)
1027:..\..\..\arduinoLCD\test\Pain Drain\libraries\lvgl\src\core/lv_indev.c **** {
  27              		.loc 1 1027 0
  28              		.cfi_startproc
  29              		@ args = 0, pretend = 0, frame = 0
  30              		@ frame_needed = 0, uses_anonymous_args = 0
  31              	.LVL0:
  32 0000 30B5     		push	{r4, r5, lr}
  33              		.cfi_def_cfa_offset 12
  34              		.cfi_offset 4, -12
  35              		.cfi_offset 5, -8
  36              		.cfi_offset 14, -4
1028:..\..\..\arduinoLCD\test\Pain Drain\libraries\lvgl\src\core/lv_indev.c ****     if(indev->proc.reset_query) {
  37              		.loc 1 1028 0
  38 0002 4379     		ldrb	r3, [r0, #5]
  39 0004 9B07     		lsls	r3, r3, #30
  40 0006 1AD5     		bpl	.L1
1029:..\..\..\arduinoLCD\test\Pain Drain\libraries\lvgl\src\core/lv_indev.c ****         indev->proc.types.pointer.act_obj           = NULL;
  41              		.loc 1 1029 0
  42 0008 0023     		movs	r3, #0
  43 000a 8362     		str	r3, [r0, #40]
1030:..\..\..\arduinoLCD\test\Pain Drain\libraries\lvgl\src\core/lv_indev.c ****         indev->proc.types.pointer.last_obj          = NULL;
  44              		.loc 1 1030 0
  45 000c C362     		str	r3, [r0, #44]
1031:..\..\..\arduinoLCD\test\Pain Drain\libraries\lvgl\src\core/lv_indev.c ****         indev->proc.types.pointer.scroll_obj          = NULL;
  46              		.loc 1 1031 0
  47 000e 0363     		str	r3, [r0, #48]
1032:..\..\..\arduinoLCD\test\Pain Drain\libraries\lvgl\src\core/lv_indev.c ****         indev->proc.long_pr_sent                    = 0;
  48              		.loc 1 1032 0
  49 0010 4279     		ldrb	r2, [r0, #5]
1033:..\..\..\arduinoLCD\test\Pain Drain\libraries\lvgl\src\core/lv_indev.c ****         indev->proc.pr_timestamp                    = 0;
  50              		.loc 1 1033 0
ARM GAS  C:\Users\haske\AppData\Local\Temp\ccl1At1U.s 			page 20


  51 0012 8364     		str	r3, [r0, #72]
1034:..\..\..\arduinoLCD\test\Pain Drain\libraries\lvgl\src\core/lv_indev.c ****         indev->proc.longpr_rep_timestamp            = 0;
  52              		.loc 1 1034 0
  53 0014 C364     		str	r3, [r0, #76]
1035:..\..\..\arduinoLCD\test\Pain Drain\libraries\lvgl\src\core/lv_indev.c ****         indev->proc.types.pointer.scroll_sum.x        = 0;
  54              		.loc 1 1035 0
  55 0016 8383     		strh	r3, [r0, #28]
1036:..\..\..\arduinoLCD\test\Pain Drain\libraries\lvgl\src\core/lv_indev.c ****         indev->proc.types.pointer.scroll_sum.y        = 0;
  56              		.loc 1 1036 0
  57 0018 C383     		strh	r3, [r0, #30]
1037:..\..\..\arduinoLCD\test\Pain Drain\libraries\lvgl\src\core/lv_indev.c ****         indev->proc.types.pointer.scroll_dir = LV_DIR_NONE;
  58              		.loc 1 1037 0
  59 001a 4424     		movs	r4, #68
  60 001c 015D     		ldrb	r1, [r0, r4]
  61 001e 0F25     		movs	r5, #15
  62 0020 A943     		bics	r1, r5
  63 0022 0155     		strb	r1, [r0, r4]
1038:..\..\..\arduinoLCD\test\Pain Drain\libraries\lvgl\src\core/lv_indev.c ****         indev->proc.types.pointer.scroll_throw_vect.x = 0;
  64              		.loc 1 1038 0
  65 0024 0384     		strh	r3, [r0, #32]
1039:..\..\..\arduinoLCD\test\Pain Drain\libraries\lvgl\src\core/lv_indev.c ****         indev->proc.types.pointer.scroll_throw_vect.y = 0;
  66              		.loc 1 1039 0
  67 0026 4384     		strh	r3, [r0, #34]
1040:..\..\..\arduinoLCD\test\Pain Drain\libraries\lvgl\src\core/lv_indev.c ****         indev->proc.types.pointer.gesture_sum.x     = 0;
  68              		.loc 1 1040 0
  69 0028 4021     		movs	r1, #64
  70 002a 4352     		strh	r3, [r0, r1]
1041:..\..\..\arduinoLCD\test\Pain Drain\libraries\lvgl\src\core/lv_indev.c ****         indev->proc.types.pointer.gesture_sum.y     = 0;
  71              		.loc 1 1041 0
  72 002c 0231     		adds	r1, r1, #2
  73 002e 4352     		strh	r3, [r0, r1]
1042:..\..\..\arduinoLCD\test\Pain Drain\libraries\lvgl\src\core/lv_indev.c ****         indev->proc.reset_query                     = 0;
  74              		.loc 1 1042 0
  75 0030 4139     		subs	r1, r1, #65
  76 0032 8A43     		bics	r2, r1
  77 0034 0131     		adds	r1, r1, #1
  78 0036 8A43     		bics	r2, r1
  79 0038 4271     		strb	r2, [r0, #5]
1043:..\..\..\arduinoLCD\test\Pain Drain\libraries\lvgl\src\core/lv_indev.c ****         indev_obj_act                               = NULL;
  80              		.loc 1 1043 0
  81 003a 014A     		ldr	r2, .L3
  82 003c 1360     		str	r3, [r2]
  83              	.L1:
1044:..\..\..\arduinoLCD\test\Pain Drain\libraries\lvgl\src\core/lv_indev.c ****     }
1045:..\..\..\arduinoLCD\test\Pain Drain\libraries\lvgl\src\core/lv_indev.c **** }
  84              		.loc 1 1045 0
  85              		@ sp needed
  86 003e 30BD     		pop	{r4, r5, pc}
  87              	.L4:
  88              		.align	2
  89              	.L3:
  90 0040 00000000 		.word	.LANCHOR0
  91              		.cfi_endproc
  92              	.LFE190:
  93              		.size	indev_proc_reset_query_handler, .-indev_proc_reset_query_handler
  94              		.section	.text.indev_reset_check,"ax",%progbits
  95              		.align	2
ARM GAS  C:\Users\haske\AppData\Local\Temp\ccl1At1U.s 			page 21


  96              		.code	16
  97              		.thumb_func
  98              		.type	indev_reset_check, %function
  99              	indev_reset_check:
 100              	.LFB193:
1046:..\..\..\arduinoLCD\test\Pain Drain\libraries\lvgl\src\core/lv_indev.c **** 
1047:..\..\..\arduinoLCD\test\Pain Drain\libraries\lvgl\src\core/lv_indev.c **** /**
1048:..\..\..\arduinoLCD\test\Pain Drain\libraries\lvgl\src\core/lv_indev.c ****  * Handle focus/defocus on click for POINTER input devices
1049:..\..\..\arduinoLCD\test\Pain Drain\libraries\lvgl\src\core/lv_indev.c ****  * @param proc pointer to the state of the indev
1050:..\..\..\arduinoLCD\test\Pain Drain\libraries\lvgl\src\core/lv_indev.c ****  */
1051:..\..\..\arduinoLCD\test\Pain Drain\libraries\lvgl\src\core/lv_indev.c **** static void indev_click_focus(_lv_indev_proc_t * proc)
1052:..\..\..\arduinoLCD\test\Pain Drain\libraries\lvgl\src\core/lv_indev.c **** {
1053:..\..\..\arduinoLCD\test\Pain Drain\libraries\lvgl\src\core/lv_indev.c ****     /*Handle click focus*/
1054:..\..\..\arduinoLCD\test\Pain Drain\libraries\lvgl\src\core/lv_indev.c ****     if(lv_obj_has_flag(indev_obj_act, LV_OBJ_FLAG_CLICK_FOCUSABLE) == false ||
1055:..\..\..\arduinoLCD\test\Pain Drain\libraries\lvgl\src\core/lv_indev.c ****        proc->types.pointer.last_pressed == indev_obj_act) {
1056:..\..\..\arduinoLCD\test\Pain Drain\libraries\lvgl\src\core/lv_indev.c ****         return;
1057:..\..\..\arduinoLCD\test\Pain Drain\libraries\lvgl\src\core/lv_indev.c ****     }
1058:..\..\..\arduinoLCD\test\Pain Drain\libraries\lvgl\src\core/lv_indev.c **** 
1059:..\..\..\arduinoLCD\test\Pain Drain\libraries\lvgl\src\core/lv_indev.c ****     lv_group_t * g_act = lv_obj_get_group(indev_obj_act);
1060:..\..\..\arduinoLCD\test\Pain Drain\libraries\lvgl\src\core/lv_indev.c ****     lv_group_t * g_prev = proc->types.pointer.last_pressed ? lv_obj_get_group(proc->types.pointer.l
1061:..\..\..\arduinoLCD\test\Pain Drain\libraries\lvgl\src\core/lv_indev.c **** 
1062:..\..\..\arduinoLCD\test\Pain Drain\libraries\lvgl\src\core/lv_indev.c ****     /*If both the last and act. obj. are in the same group (or have no group)*/
1063:..\..\..\arduinoLCD\test\Pain Drain\libraries\lvgl\src\core/lv_indev.c ****     if(g_act == g_prev) {
1064:..\..\..\arduinoLCD\test\Pain Drain\libraries\lvgl\src\core/lv_indev.c ****         /*The objects are in a group*/
1065:..\..\..\arduinoLCD\test\Pain Drain\libraries\lvgl\src\core/lv_indev.c ****         if(g_act) {
1066:..\..\..\arduinoLCD\test\Pain Drain\libraries\lvgl\src\core/lv_indev.c ****             lv_group_focus_obj(indev_obj_act);
1067:..\..\..\arduinoLCD\test\Pain Drain\libraries\lvgl\src\core/lv_indev.c ****             if(indev_reset_check(proc)) return;
1068:..\..\..\arduinoLCD\test\Pain Drain\libraries\lvgl\src\core/lv_indev.c ****         }
1069:..\..\..\arduinoLCD\test\Pain Drain\libraries\lvgl\src\core/lv_indev.c ****         /*The object are not in group*/
1070:..\..\..\arduinoLCD\test\Pain Drain\libraries\lvgl\src\core/lv_indev.c ****         else {
1071:..\..\..\arduinoLCD\test\Pain Drain\libraries\lvgl\src\core/lv_indev.c ****             if(proc->types.pointer.last_pressed) {
1072:..\..\..\arduinoLCD\test\Pain Drain\libraries\lvgl\src\core/lv_indev.c ****                 lv_event_send(proc->types.pointer.last_pressed, LV_EVENT_DEFOCUSED, indev_act);
1073:..\..\..\arduinoLCD\test\Pain Drain\libraries\lvgl\src\core/lv_indev.c ****                 if(indev_reset_check(proc)) return;
1074:..\..\..\arduinoLCD\test\Pain Drain\libraries\lvgl\src\core/lv_indev.c ****             }
1075:..\..\..\arduinoLCD\test\Pain Drain\libraries\lvgl\src\core/lv_indev.c **** 
1076:..\..\..\arduinoLCD\test\Pain Drain\libraries\lvgl\src\core/lv_indev.c ****             lv_event_send(indev_obj_act, LV_EVENT_FOCUSED, indev_act);
1077:..\..\..\arduinoLCD\test\Pain Drain\libraries\lvgl\src\core/lv_indev.c ****             if(indev_reset_check(proc)) return;
1078:..\..\..\arduinoLCD\test\Pain Drain\libraries\lvgl\src\core/lv_indev.c ****         }
1079:..\..\..\arduinoLCD\test\Pain Drain\libraries\lvgl\src\core/lv_indev.c ****     }
1080:..\..\..\arduinoLCD\test\Pain Drain\libraries\lvgl\src\core/lv_indev.c ****     /*The object are not in the same group (in different groups or one has no group)*/
1081:..\..\..\arduinoLCD\test\Pain Drain\libraries\lvgl\src\core/lv_indev.c ****     else {
1082:..\..\..\arduinoLCD\test\Pain Drain\libraries\lvgl\src\core/lv_indev.c ****         /*If the prev. obj. is not in a group then defocus it.*/
1083:..\..\..\arduinoLCD\test\Pain Drain\libraries\lvgl\src\core/lv_indev.c ****         if(g_prev == NULL && proc->types.pointer.last_pressed) {
1084:..\..\..\arduinoLCD\test\Pain Drain\libraries\lvgl\src\core/lv_indev.c ****             lv_event_send(proc->types.pointer.last_pressed, LV_EVENT_DEFOCUSED, indev_act);
1085:..\..\..\arduinoLCD\test\Pain Drain\libraries\lvgl\src\core/lv_indev.c ****             if(indev_reset_check(proc)) return;
1086:..\..\..\arduinoLCD\test\Pain Drain\libraries\lvgl\src\core/lv_indev.c ****         }
1087:..\..\..\arduinoLCD\test\Pain Drain\libraries\lvgl\src\core/lv_indev.c ****         /*Focus on a non-group object*/
1088:..\..\..\arduinoLCD\test\Pain Drain\libraries\lvgl\src\core/lv_indev.c ****         else {
1089:..\..\..\arduinoLCD\test\Pain Drain\libraries\lvgl\src\core/lv_indev.c ****             if(proc->types.pointer.last_pressed) {
1090:..\..\..\arduinoLCD\test\Pain Drain\libraries\lvgl\src\core/lv_indev.c ****                 /*If the prev. object also wasn't in a group defocus it*/
1091:..\..\..\arduinoLCD\test\Pain Drain\libraries\lvgl\src\core/lv_indev.c ****                 if(g_prev == NULL) {
1092:..\..\..\arduinoLCD\test\Pain Drain\libraries\lvgl\src\core/lv_indev.c ****                     lv_event_send(proc->types.pointer.last_pressed, LV_EVENT_DEFOCUSED, indev_act);
1093:..\..\..\arduinoLCD\test\Pain Drain\libraries\lvgl\src\core/lv_indev.c ****                     if(indev_reset_check(proc)) return;
1094:..\..\..\arduinoLCD\test\Pain Drain\libraries\lvgl\src\core/lv_indev.c ****                 }
1095:..\..\..\arduinoLCD\test\Pain Drain\libraries\lvgl\src\core/lv_indev.c ****                 /*If the prev. object also was in a group at least "LEAVE" it instead of defocus*/
1096:..\..\..\arduinoLCD\test\Pain Drain\libraries\lvgl\src\core/lv_indev.c ****                 else {
1097:..\..\..\arduinoLCD\test\Pain Drain\libraries\lvgl\src\core/lv_indev.c ****                     lv_event_send(proc->types.pointer.last_pressed, LV_EVENT_LEAVE, indev_act);
ARM GAS  C:\Users\haske\AppData\Local\Temp\ccl1At1U.s 			page 22


1098:..\..\..\arduinoLCD\test\Pain Drain\libraries\lvgl\src\core/lv_indev.c ****                     if(indev_reset_check(proc)) return;
1099:..\..\..\arduinoLCD\test\Pain Drain\libraries\lvgl\src\core/lv_indev.c ****                 }
1100:..\..\..\arduinoLCD\test\Pain Drain\libraries\lvgl\src\core/lv_indev.c ****             }
1101:..\..\..\arduinoLCD\test\Pain Drain\libraries\lvgl\src\core/lv_indev.c ****         }
1102:..\..\..\arduinoLCD\test\Pain Drain\libraries\lvgl\src\core/lv_indev.c **** 
1103:..\..\..\arduinoLCD\test\Pain Drain\libraries\lvgl\src\core/lv_indev.c ****         /*Focus to the act. in its group*/
1104:..\..\..\arduinoLCD\test\Pain Drain\libraries\lvgl\src\core/lv_indev.c ****         if(g_act) {
1105:..\..\..\arduinoLCD\test\Pain Drain\libraries\lvgl\src\core/lv_indev.c ****             lv_group_focus_obj(indev_obj_act);
1106:..\..\..\arduinoLCD\test\Pain Drain\libraries\lvgl\src\core/lv_indev.c ****             if(indev_reset_check(proc)) return;
1107:..\..\..\arduinoLCD\test\Pain Drain\libraries\lvgl\src\core/lv_indev.c ****         }
1108:..\..\..\arduinoLCD\test\Pain Drain\libraries\lvgl\src\core/lv_indev.c ****         else {
1109:..\..\..\arduinoLCD\test\Pain Drain\libraries\lvgl\src\core/lv_indev.c ****             lv_event_send(indev_obj_act, LV_EVENT_FOCUSED, indev_act);
1110:..\..\..\arduinoLCD\test\Pain Drain\libraries\lvgl\src\core/lv_indev.c ****             if(indev_reset_check(proc)) return;
1111:..\..\..\arduinoLCD\test\Pain Drain\libraries\lvgl\src\core/lv_indev.c ****         }
1112:..\..\..\arduinoLCD\test\Pain Drain\libraries\lvgl\src\core/lv_indev.c ****     }
1113:..\..\..\arduinoLCD\test\Pain Drain\libraries\lvgl\src\core/lv_indev.c ****     proc->types.pointer.last_pressed = indev_obj_act;
1114:..\..\..\arduinoLCD\test\Pain Drain\libraries\lvgl\src\core/lv_indev.c **** }
1115:..\..\..\arduinoLCD\test\Pain Drain\libraries\lvgl\src\core/lv_indev.c **** 
1116:..\..\..\arduinoLCD\test\Pain Drain\libraries\lvgl\src\core/lv_indev.c **** /**
1117:..\..\..\arduinoLCD\test\Pain Drain\libraries\lvgl\src\core/lv_indev.c **** * Handle the gesture of indev_proc_p->types.pointer.act_obj
1118:..\..\..\arduinoLCD\test\Pain Drain\libraries\lvgl\src\core/lv_indev.c **** * @param indev pointer to an input device state
1119:..\..\..\arduinoLCD\test\Pain Drain\libraries\lvgl\src\core/lv_indev.c **** */
1120:..\..\..\arduinoLCD\test\Pain Drain\libraries\lvgl\src\core/lv_indev.c **** void indev_gesture(_lv_indev_proc_t * proc)
1121:..\..\..\arduinoLCD\test\Pain Drain\libraries\lvgl\src\core/lv_indev.c **** {
1122:..\..\..\arduinoLCD\test\Pain Drain\libraries\lvgl\src\core/lv_indev.c **** 
1123:..\..\..\arduinoLCD\test\Pain Drain\libraries\lvgl\src\core/lv_indev.c ****     if(proc->types.pointer.scroll_obj) return;
1124:..\..\..\arduinoLCD\test\Pain Drain\libraries\lvgl\src\core/lv_indev.c ****     if(proc->types.pointer.gesture_sent) return;
1125:..\..\..\arduinoLCD\test\Pain Drain\libraries\lvgl\src\core/lv_indev.c **** 
1126:..\..\..\arduinoLCD\test\Pain Drain\libraries\lvgl\src\core/lv_indev.c ****     lv_obj_t * gesture_obj = proc->types.pointer.act_obj;
1127:..\..\..\arduinoLCD\test\Pain Drain\libraries\lvgl\src\core/lv_indev.c **** 
1128:..\..\..\arduinoLCD\test\Pain Drain\libraries\lvgl\src\core/lv_indev.c ****     /*If gesture parent is active check recursively the gesture attribute*/
1129:..\..\..\arduinoLCD\test\Pain Drain\libraries\lvgl\src\core/lv_indev.c ****     while(gesture_obj && lv_obj_has_flag(gesture_obj, LV_OBJ_FLAG_GESTURE_BUBBLE)) {
1130:..\..\..\arduinoLCD\test\Pain Drain\libraries\lvgl\src\core/lv_indev.c ****         gesture_obj = lv_obj_get_parent(gesture_obj);
1131:..\..\..\arduinoLCD\test\Pain Drain\libraries\lvgl\src\core/lv_indev.c ****     }
1132:..\..\..\arduinoLCD\test\Pain Drain\libraries\lvgl\src\core/lv_indev.c **** 
1133:..\..\..\arduinoLCD\test\Pain Drain\libraries\lvgl\src\core/lv_indev.c ****     if(gesture_obj == NULL) return;
1134:..\..\..\arduinoLCD\test\Pain Drain\libraries\lvgl\src\core/lv_indev.c **** 
1135:..\..\..\arduinoLCD\test\Pain Drain\libraries\lvgl\src\core/lv_indev.c ****     if((LV_ABS(proc->types.pointer.vect.x) < indev_act->driver->gesture_min_velocity) &&
1136:..\..\..\arduinoLCD\test\Pain Drain\libraries\lvgl\src\core/lv_indev.c ****        (LV_ABS(proc->types.pointer.vect.y) < indev_act->driver->gesture_min_velocity)) {
1137:..\..\..\arduinoLCD\test\Pain Drain\libraries\lvgl\src\core/lv_indev.c ****         proc->types.pointer.gesture_sum.x = 0;
1138:..\..\..\arduinoLCD\test\Pain Drain\libraries\lvgl\src\core/lv_indev.c ****         proc->types.pointer.gesture_sum.y = 0;
1139:..\..\..\arduinoLCD\test\Pain Drain\libraries\lvgl\src\core/lv_indev.c ****     }
1140:..\..\..\arduinoLCD\test\Pain Drain\libraries\lvgl\src\core/lv_indev.c **** 
1141:..\..\..\arduinoLCD\test\Pain Drain\libraries\lvgl\src\core/lv_indev.c ****     /*Count the movement by gesture*/
1142:..\..\..\arduinoLCD\test\Pain Drain\libraries\lvgl\src\core/lv_indev.c ****     proc->types.pointer.gesture_sum.x += proc->types.pointer.vect.x;
1143:..\..\..\arduinoLCD\test\Pain Drain\libraries\lvgl\src\core/lv_indev.c ****     proc->types.pointer.gesture_sum.y += proc->types.pointer.vect.y;
1144:..\..\..\arduinoLCD\test\Pain Drain\libraries\lvgl\src\core/lv_indev.c **** 
1145:..\..\..\arduinoLCD\test\Pain Drain\libraries\lvgl\src\core/lv_indev.c ****     if((LV_ABS(proc->types.pointer.gesture_sum.x) > indev_act->driver->gesture_limit) ||
1146:..\..\..\arduinoLCD\test\Pain Drain\libraries\lvgl\src\core/lv_indev.c ****        (LV_ABS(proc->types.pointer.gesture_sum.y) > indev_act->driver->gesture_limit)) {
1147:..\..\..\arduinoLCD\test\Pain Drain\libraries\lvgl\src\core/lv_indev.c **** 
1148:..\..\..\arduinoLCD\test\Pain Drain\libraries\lvgl\src\core/lv_indev.c ****         proc->types.pointer.gesture_sent = 1;
1149:..\..\..\arduinoLCD\test\Pain Drain\libraries\lvgl\src\core/lv_indev.c **** 
1150:..\..\..\arduinoLCD\test\Pain Drain\libraries\lvgl\src\core/lv_indev.c ****         if(LV_ABS(proc->types.pointer.gesture_sum.x) > LV_ABS(proc->types.pointer.gesture_sum.y)) {
1151:..\..\..\arduinoLCD\test\Pain Drain\libraries\lvgl\src\core/lv_indev.c ****             if(proc->types.pointer.gesture_sum.x > 0)
1152:..\..\..\arduinoLCD\test\Pain Drain\libraries\lvgl\src\core/lv_indev.c ****                 proc->types.pointer.gesture_dir = LV_DIR_RIGHT;
1153:..\..\..\arduinoLCD\test\Pain Drain\libraries\lvgl\src\core/lv_indev.c ****             else
1154:..\..\..\arduinoLCD\test\Pain Drain\libraries\lvgl\src\core/lv_indev.c ****                 proc->types.pointer.gesture_dir = LV_DIR_LEFT;
ARM GAS  C:\Users\haske\AppData\Local\Temp\ccl1At1U.s 			page 23


1155:..\..\..\arduinoLCD\test\Pain Drain\libraries\lvgl\src\core/lv_indev.c ****         }
1156:..\..\..\arduinoLCD\test\Pain Drain\libraries\lvgl\src\core/lv_indev.c ****         else {
1157:..\..\..\arduinoLCD\test\Pain Drain\libraries\lvgl\src\core/lv_indev.c ****             if(proc->types.pointer.gesture_sum.y > 0)
1158:..\..\..\arduinoLCD\test\Pain Drain\libraries\lvgl\src\core/lv_indev.c ****                 proc->types.pointer.gesture_dir = LV_DIR_BOTTOM;
1159:..\..\..\arduinoLCD\test\Pain Drain\libraries\lvgl\src\core/lv_indev.c ****             else
1160:..\..\..\arduinoLCD\test\Pain Drain\libraries\lvgl\src\core/lv_indev.c ****                 proc->types.pointer.gesture_dir = LV_DIR_TOP;
1161:..\..\..\arduinoLCD\test\Pain Drain\libraries\lvgl\src\core/lv_indev.c ****         }
1162:..\..\..\arduinoLCD\test\Pain Drain\libraries\lvgl\src\core/lv_indev.c **** 
1163:..\..\..\arduinoLCD\test\Pain Drain\libraries\lvgl\src\core/lv_indev.c ****         lv_event_send(gesture_obj, LV_EVENT_GESTURE, indev_act);
1164:..\..\..\arduinoLCD\test\Pain Drain\libraries\lvgl\src\core/lv_indev.c ****         if(indev_reset_check(proc)) return;
1165:..\..\..\arduinoLCD\test\Pain Drain\libraries\lvgl\src\core/lv_indev.c ****     }
1166:..\..\..\arduinoLCD\test\Pain Drain\libraries\lvgl\src\core/lv_indev.c **** }
1167:..\..\..\arduinoLCD\test\Pain Drain\libraries\lvgl\src\core/lv_indev.c **** 
1168:..\..\..\arduinoLCD\test\Pain Drain\libraries\lvgl\src\core/lv_indev.c **** /**
1169:..\..\..\arduinoLCD\test\Pain Drain\libraries\lvgl\src\core/lv_indev.c ****  * Checks if the reset_query flag has been set. If so, perform necessary global indev cleanup actio
1170:..\..\..\arduinoLCD\test\Pain Drain\libraries\lvgl\src\core/lv_indev.c ****  * @param proc pointer to an input device 'proc'
1171:..\..\..\arduinoLCD\test\Pain Drain\libraries\lvgl\src\core/lv_indev.c ****  * @return true if indev query should be immediately truncated.
1172:..\..\..\arduinoLCD\test\Pain Drain\libraries\lvgl\src\core/lv_indev.c ****  */
1173:..\..\..\arduinoLCD\test\Pain Drain\libraries\lvgl\src\core/lv_indev.c **** static bool indev_reset_check(_lv_indev_proc_t * proc)
1174:..\..\..\arduinoLCD\test\Pain Drain\libraries\lvgl\src\core/lv_indev.c **** {
 101              		.loc 1 1174 0
 102              		.cfi_startproc
 103              		@ args = 0, pretend = 0, frame = 0
 104              		@ frame_needed = 0, uses_anonymous_args = 0
 105              		@ link register save eliminated.
 106              	.LVL1:
1175:..\..\..\arduinoLCD\test\Pain Drain\libraries\lvgl\src\core/lv_indev.c ****     if(proc->reset_query) {
 107              		.loc 1 1175 0
 108 0000 4378     		ldrb	r3, [r0, #1]
 109 0002 0220     		movs	r0, #2
 110              	.LVL2:
 111 0004 1840     		ands	r0, r3
 112 0006 02D0     		beq	.L6
1176:..\..\..\arduinoLCD\test\Pain Drain\libraries\lvgl\src\core/lv_indev.c ****         indev_obj_act = NULL;
 113              		.loc 1 1176 0
 114 0008 0022     		movs	r2, #0
 115 000a 034B     		ldr	r3, .L7
 116 000c 1A60     		str	r2, [r3]
 117              	.L6:
1177:..\..\..\arduinoLCD\test\Pain Drain\libraries\lvgl\src\core/lv_indev.c ****     }
1178:..\..\..\arduinoLCD\test\Pain Drain\libraries\lvgl\src\core/lv_indev.c **** 
1179:..\..\..\arduinoLCD\test\Pain Drain\libraries\lvgl\src\core/lv_indev.c ****     return proc->reset_query ? true : false;
 118              		.loc 1 1179 0
 119 000e 431E     		subs	r3, r0, #1
 120 0010 9841     		sbcs	r0, r0, r3
 121 0012 C0B2     		uxtb	r0, r0
1180:..\..\..\arduinoLCD\test\Pain Drain\libraries\lvgl\src\core/lv_indev.c **** }
 122              		.loc 1 1180 0
 123              		@ sp needed
 124 0014 7047     		bx	lr
 125              	.L8:
 126 0016 C046     		.align	2
 127              	.L7:
 128 0018 00000000 		.word	.LANCHOR0
 129              		.cfi_endproc
 130              	.LFE193:
 131              		.size	indev_reset_check, .-indev_reset_check
ARM GAS  C:\Users\haske\AppData\Local\Temp\ccl1At1U.s 			page 24


 132              		.section	.text.indev_click_focus,"ax",%progbits
 133              		.align	2
 134              		.code	16
 135              		.thumb_func
 136              		.type	indev_click_focus, %function
 137              	indev_click_focus:
 138              	.LFB191:
1052:..\..\..\arduinoLCD\test\Pain Drain\libraries\lvgl\src\core/lv_indev.c ****     /*Handle click focus*/
 139              		.loc 1 1052 0
 140              		.cfi_startproc
 141              		@ args = 0, pretend = 0, frame = 0
 142              		@ frame_needed = 0, uses_anonymous_args = 0
 143              	.LVL3:
 144 0000 70B5     		push	{r4, r5, r6, lr}
 145              		.cfi_def_cfa_offset 16
 146              		.cfi_offset 4, -16
 147              		.cfi_offset 5, -12
 148              		.cfi_offset 6, -8
 149              		.cfi_offset 14, -4
 150 0002 0400     		movs	r4, r0
1054:..\..\..\arduinoLCD\test\Pain Drain\libraries\lvgl\src\core/lv_indev.c ****        proc->types.pointer.last_pressed == indev_obj_act) {
 151              		.loc 1 1054 0
 152 0004 414B     		ldr	r3, .L21
 153 0006 1868     		ldr	r0, [r3]
 154              	.LVL4:
 155 0008 0421     		movs	r1, #4
 156 000a FFF7FEFF 		bl	lv_obj_has_flag
 157              	.LVL5:
 158 000e 0028     		cmp	r0, #0
 159 0010 7AD0     		beq	.L9
1055:..\..\..\arduinoLCD\test\Pain Drain\libraries\lvgl\src\core/lv_indev.c ****         return;
 160              		.loc 1 1055 0 discriminator 1
 161 0012 3E4B     		ldr	r3, .L21
 162 0014 1868     		ldr	r0, [r3]
1054:..\..\..\arduinoLCD\test\Pain Drain\libraries\lvgl\src\core/lv_indev.c ****        proc->types.pointer.last_pressed == indev_obj_act) {
 163              		.loc 1 1054 0 discriminator 1
 164 0016 236B     		ldr	r3, [r4, #48]
 165 0018 8342     		cmp	r3, r0
 166 001a 75D0     		beq	.L9
1059:..\..\..\arduinoLCD\test\Pain Drain\libraries\lvgl\src\core/lv_indev.c ****     lv_group_t * g_prev = proc->types.pointer.last_pressed ? lv_obj_get_group(proc->types.pointer.l
 167              		.loc 1 1059 0
 168 001c FFF7FEFF 		bl	lv_obj_get_group
 169              	.LVL6:
 170 0020 0500     		movs	r5, r0
 171              	.LVL7:
1060:..\..\..\arduinoLCD\test\Pain Drain\libraries\lvgl\src\core/lv_indev.c **** 
 172              		.loc 1 1060 0
 173 0022 206B     		ldr	r0, [r4, #48]
 174              	.LVL8:
 175 0024 0028     		cmp	r0, #0
 176 0026 03D0     		beq	.L20
1060:..\..\..\arduinoLCD\test\Pain Drain\libraries\lvgl\src\core/lv_indev.c **** 
 177              		.loc 1 1060 0 is_stmt 0 discriminator 1
 178 0028 FFF7FEFF 		bl	lv_obj_get_group
 179              	.LVL9:
 180 002c 0300     		movs	r3, r0
 181 002e 00E0     		b	.L11
ARM GAS  C:\Users\haske\AppData\Local\Temp\ccl1At1U.s 			page 25


 182              	.L20:
1060:..\..\..\arduinoLCD\test\Pain Drain\libraries\lvgl\src\core/lv_indev.c **** 
 183              		.loc 1 1060 0
 184 0030 0023     		movs	r3, #0
 185              	.L11:
 186              	.LVL10:
1063:..\..\..\arduinoLCD\test\Pain Drain\libraries\lvgl\src\core/lv_indev.c ****         /*The objects are in a group*/
 187              		.loc 1 1063 0 is_stmt 1 discriminator 4
 188 0032 AB42     		cmp	r3, r5
 189 0034 24D1     		bne	.L12
1065:..\..\..\arduinoLCD\test\Pain Drain\libraries\lvgl\src\core/lv_indev.c ****             lv_group_focus_obj(indev_obj_act);
 190              		.loc 1 1065 0
 191 0036 002D     		cmp	r5, #0
 192 0038 09D0     		beq	.L13
1066:..\..\..\arduinoLCD\test\Pain Drain\libraries\lvgl\src\core/lv_indev.c ****             if(indev_reset_check(proc)) return;
 193              		.loc 1 1066 0
 194 003a 344B     		ldr	r3, .L21
 195              	.LVL11:
 196 003c 1868     		ldr	r0, [r3]
 197 003e FFF7FEFF 		bl	lv_group_focus_obj
 198              	.LVL12:
1067:..\..\..\arduinoLCD\test\Pain Drain\libraries\lvgl\src\core/lv_indev.c ****         }
 199              		.loc 1 1067 0
 200 0042 2000     		movs	r0, r4
 201 0044 FFF7FEFF 		bl	indev_reset_check
 202              	.LVL13:
 203 0048 0028     		cmp	r0, #0
 204 004a 5AD0     		beq	.L14
 205 004c 5CE0     		b	.L9
 206              	.LVL14:
 207              	.L13:
1071:..\..\..\arduinoLCD\test\Pain Drain\libraries\lvgl\src\core/lv_indev.c ****                 lv_event_send(proc->types.pointer.last_pressed, LV_EVENT_DEFOCUSED, indev_act);
 208              		.loc 1 1071 0
 209 004e 206B     		ldr	r0, [r4, #48]
 210 0050 0028     		cmp	r0, #0
 211 0052 09D0     		beq	.L15
1072:..\..\..\arduinoLCD\test\Pain Drain\libraries\lvgl\src\core/lv_indev.c ****                 if(indev_reset_check(proc)) return;
 212              		.loc 1 1072 0
 213 0054 2D4B     		ldr	r3, .L21
 214              	.LVL15:
 215 0056 5A68     		ldr	r2, [r3, #4]
 216 0058 0F21     		movs	r1, #15
 217 005a FFF7FEFF 		bl	lv_event_send
 218              	.LVL16:
1073:..\..\..\arduinoLCD\test\Pain Drain\libraries\lvgl\src\core/lv_indev.c ****             }
 219              		.loc 1 1073 0
 220 005e 2000     		movs	r0, r4
 221 0060 FFF7FEFF 		bl	indev_reset_check
 222              	.LVL17:
 223 0064 0028     		cmp	r0, #0
 224 0066 4FD1     		bne	.L9
 225              	.L15:
1076:..\..\..\arduinoLCD\test\Pain Drain\libraries\lvgl\src\core/lv_indev.c ****             if(indev_reset_check(proc)) return;
 226              		.loc 1 1076 0
 227 0068 284B     		ldr	r3, .L21
 228 006a 5A68     		ldr	r2, [r3, #4]
 229 006c 1868     		ldr	r0, [r3]
ARM GAS  C:\Users\haske\AppData\Local\Temp\ccl1At1U.s 			page 26


 230 006e 0E21     		movs	r1, #14
 231 0070 FFF7FEFF 		bl	lv_event_send
 232              	.LVL18:
1077:..\..\..\arduinoLCD\test\Pain Drain\libraries\lvgl\src\core/lv_indev.c ****         }
 233              		.loc 1 1077 0
 234 0074 2000     		movs	r0, r4
 235 0076 FFF7FEFF 		bl	indev_reset_check
 236              	.LVL19:
 237 007a 0028     		cmp	r0, #0
 238 007c 41D0     		beq	.L14
 239 007e 43E0     		b	.L9
 240              	.LVL20:
 241              	.L12:
1083:..\..\..\arduinoLCD\test\Pain Drain\libraries\lvgl\src\core/lv_indev.c ****             lv_event_send(proc->types.pointer.last_pressed, LV_EVENT_DEFOCUSED, indev_act);
 242              		.loc 1 1083 0
 243 0080 002B     		cmp	r3, #0
 244 0082 0DD1     		bne	.L16
1083:..\..\..\arduinoLCD\test\Pain Drain\libraries\lvgl\src\core/lv_indev.c ****             lv_event_send(proc->types.pointer.last_pressed, LV_EVENT_DEFOCUSED, indev_act);
 245              		.loc 1 1083 0 is_stmt 0 discriminator 1
 246 0084 206B     		ldr	r0, [r4, #48]
 247 0086 0028     		cmp	r0, #0
 248 0088 0AD0     		beq	.L16
1084:..\..\..\arduinoLCD\test\Pain Drain\libraries\lvgl\src\core/lv_indev.c ****             if(indev_reset_check(proc)) return;
 249              		.loc 1 1084 0 is_stmt 1
 250 008a 204B     		ldr	r3, .L21
 251              	.LVL21:
 252 008c 5A68     		ldr	r2, [r3, #4]
 253 008e 0F21     		movs	r1, #15
 254 0090 FFF7FEFF 		bl	lv_event_send
 255              	.LVL22:
1085:..\..\..\arduinoLCD\test\Pain Drain\libraries\lvgl\src\core/lv_indev.c ****         }
 256              		.loc 1 1085 0
 257 0094 2000     		movs	r0, r4
 258 0096 FFF7FEFF 		bl	indev_reset_check
 259              	.LVL23:
 260 009a 0028     		cmp	r0, #0
 261 009c 1AD0     		beq	.L17
 262 009e 33E0     		b	.L9
 263              	.LVL24:
 264              	.L16:
1089:..\..\..\arduinoLCD\test\Pain Drain\libraries\lvgl\src\core/lv_indev.c ****                 /*If the prev. object also wasn't in a group defocus it*/
 265              		.loc 1 1089 0
 266 00a0 206B     		ldr	r0, [r4, #48]
 267 00a2 0028     		cmp	r0, #0
 268 00a4 16D0     		beq	.L17
1091:..\..\..\arduinoLCD\test\Pain Drain\libraries\lvgl\src\core/lv_indev.c ****                     lv_event_send(proc->types.pointer.last_pressed, LV_EVENT_DEFOCUSED, indev_act);
 269              		.loc 1 1091 0
 270 00a6 002B     		cmp	r3, #0
 271 00a8 0AD1     		bne	.L18
1092:..\..\..\arduinoLCD\test\Pain Drain\libraries\lvgl\src\core/lv_indev.c ****                     if(indev_reset_check(proc)) return;
 272              		.loc 1 1092 0
 273 00aa 184B     		ldr	r3, .L21
 274              	.LVL25:
 275 00ac 5A68     		ldr	r2, [r3, #4]
 276 00ae 0F21     		movs	r1, #15
 277 00b0 FFF7FEFF 		bl	lv_event_send
 278              	.LVL26:
ARM GAS  C:\Users\haske\AppData\Local\Temp\ccl1At1U.s 			page 27


1093:..\..\..\arduinoLCD\test\Pain Drain\libraries\lvgl\src\core/lv_indev.c ****                 }
 279              		.loc 1 1093 0
 280 00b4 2000     		movs	r0, r4
 281 00b6 FFF7FEFF 		bl	indev_reset_check
 282              	.LVL27:
 283 00ba 0028     		cmp	r0, #0
 284 00bc 0AD0     		beq	.L17
 285 00be 23E0     		b	.L9
 286              	.LVL28:
 287              	.L18:
1097:..\..\..\arduinoLCD\test\Pain Drain\libraries\lvgl\src\core/lv_indev.c ****                     if(indev_reset_check(proc)) return;
 288              		.loc 1 1097 0
 289 00c0 124B     		ldr	r3, .L21
 290              	.LVL29:
 291 00c2 5A68     		ldr	r2, [r3, #4]
 292 00c4 1021     		movs	r1, #16
 293 00c6 FFF7FEFF 		bl	lv_event_send
 294              	.LVL30:
1098:..\..\..\arduinoLCD\test\Pain Drain\libraries\lvgl\src\core/lv_indev.c ****                 }
 295              		.loc 1 1098 0
 296 00ca 2000     		movs	r0, r4
 297 00cc FFF7FEFF 		bl	indev_reset_check
 298              	.LVL31:
 299 00d0 0028     		cmp	r0, #0
 300 00d2 19D1     		bne	.L9
 301              	.L17:
1104:..\..\..\arduinoLCD\test\Pain Drain\libraries\lvgl\src\core/lv_indev.c ****             lv_group_focus_obj(indev_obj_act);
 302              		.loc 1 1104 0
 303 00d4 002D     		cmp	r5, #0
 304 00d6 09D0     		beq	.L19
1105:..\..\..\arduinoLCD\test\Pain Drain\libraries\lvgl\src\core/lv_indev.c ****             if(indev_reset_check(proc)) return;
 305              		.loc 1 1105 0
 306 00d8 0C4B     		ldr	r3, .L21
 307 00da 1868     		ldr	r0, [r3]
 308 00dc FFF7FEFF 		bl	lv_group_focus_obj
 309              	.LVL32:
1106:..\..\..\arduinoLCD\test\Pain Drain\libraries\lvgl\src\core/lv_indev.c ****         }
 310              		.loc 1 1106 0
 311 00e0 2000     		movs	r0, r4
 312 00e2 FFF7FEFF 		bl	indev_reset_check
 313              	.LVL33:
 314 00e6 0028     		cmp	r0, #0
 315 00e8 0BD0     		beq	.L14
 316 00ea 0DE0     		b	.L9
 317              	.L19:
1109:..\..\..\arduinoLCD\test\Pain Drain\libraries\lvgl\src\core/lv_indev.c ****             if(indev_reset_check(proc)) return;
 318              		.loc 1 1109 0
 319 00ec 074B     		ldr	r3, .L21
 320 00ee 5A68     		ldr	r2, [r3, #4]
 321 00f0 1868     		ldr	r0, [r3]
 322 00f2 0E21     		movs	r1, #14
 323 00f4 FFF7FEFF 		bl	lv_event_send
 324              	.LVL34:
1110:..\..\..\arduinoLCD\test\Pain Drain\libraries\lvgl\src\core/lv_indev.c ****         }
 325              		.loc 1 1110 0
 326 00f8 2000     		movs	r0, r4
 327 00fa FFF7FEFF 		bl	indev_reset_check
ARM GAS  C:\Users\haske\AppData\Local\Temp\ccl1At1U.s 			page 28


 328              	.LVL35:
 329 00fe 0028     		cmp	r0, #0
 330 0100 02D1     		bne	.L9
 331              	.L14:
1113:..\..\..\arduinoLCD\test\Pain Drain\libraries\lvgl\src\core/lv_indev.c **** }
 332              		.loc 1 1113 0
 333 0102 024B     		ldr	r3, .L21
 334 0104 1B68     		ldr	r3, [r3]
 335 0106 2363     		str	r3, [r4, #48]
 336              	.LVL36:
 337              	.L9:
1114:..\..\..\arduinoLCD\test\Pain Drain\libraries\lvgl\src\core/lv_indev.c **** 
 338              		.loc 1 1114 0
 339              		@ sp needed
 340              	.LVL37:
 341 0108 70BD     		pop	{r4, r5, r6, pc}
 342              	.L22:
 343 010a C046     		.align	2
 344              	.L21:
 345 010c 00000000 		.word	.LANCHOR0
 346              		.cfi_endproc
 347              	.LFE191:
 348              		.size	indev_click_focus, .-indev_click_focus
 349              		.section	.text.indev_gesture,"ax",%progbits
 350              		.align	2
 351              		.code	16
 352              		.thumb_func
 353              		.type	indev_gesture, %function
 354              	indev_gesture:
 355              	.LFB192:
1121:..\..\..\arduinoLCD\test\Pain Drain\libraries\lvgl\src\core/lv_indev.c **** 
 356              		.loc 1 1121 0
 357              		.cfi_startproc
 358              		@ args = 0, pretend = 0, frame = 0
 359              		@ frame_needed = 0, uses_anonymous_args = 0
 360              	.LVL38:
 361 0000 F0B5     		push	{r4, r5, r6, r7, lr}
 362              		.cfi_def_cfa_offset 20
 363              		.cfi_offset 4, -20
 364              		.cfi_offset 5, -16
 365              		.cfi_offset 6, -12
 366              		.cfi_offset 7, -8
 367              		.cfi_offset 14, -4
 368 0002 4746     		mov	r7, r8
 369 0004 80B4     		push	{r7}
 370              		.cfi_def_cfa_offset 24
 371              		.cfi_offset 8, -24
 372 0006 0500     		movs	r5, r0
1123:..\..\..\arduinoLCD\test\Pain Drain\libraries\lvgl\src\core/lv_indev.c ****     if(proc->types.pointer.gesture_sent) return;
 373              		.loc 1 1123 0
 374 0008 C36A     		ldr	r3, [r0, #44]
 375 000a 002B     		cmp	r3, #0
 376 000c 77D1     		bne	.L23
1124:..\..\..\arduinoLCD\test\Pain Drain\libraries\lvgl\src\core/lv_indev.c **** 
 377              		.loc 1 1124 0
 378 000e 4133     		adds	r3, r3, #65
 379 0010 C35C     		ldrb	r3, [r0, r3]
ARM GAS  C:\Users\haske\AppData\Local\Temp\ccl1At1U.s 			page 29


 380 0012 DB07     		lsls	r3, r3, #31
 381 0014 73D4     		bmi	.L23
1126:..\..\..\arduinoLCD\test\Pain Drain\libraries\lvgl\src\core/lv_indev.c **** 
 382              		.loc 1 1126 0
 383 0016 446A     		ldr	r4, [r0, #36]
 384              	.LVL39:
1129:..\..\..\arduinoLCD\test\Pain Drain\libraries\lvgl\src\core/lv_indev.c ****         gesture_obj = lv_obj_get_parent(gesture_obj);
 385              		.loc 1 1129 0
 386 0018 03E0     		b	.L25
 387              	.LVL40:
 388              	.L27:
1130:..\..\..\arduinoLCD\test\Pain Drain\libraries\lvgl\src\core/lv_indev.c ****     }
 389              		.loc 1 1130 0
 390 001a 2000     		movs	r0, r4
 391 001c FFF7FEFF 		bl	lv_obj_get_parent
 392              	.LVL41:
 393 0020 0400     		movs	r4, r0
 394              	.LVL42:
 395              	.L25:
1129:..\..\..\arduinoLCD\test\Pain Drain\libraries\lvgl\src\core/lv_indev.c ****         gesture_obj = lv_obj_get_parent(gesture_obj);
 396              		.loc 1 1129 0
 397 0022 002C     		cmp	r4, #0
 398 0024 06D0     		beq	.L26
1129:..\..\..\arduinoLCD\test\Pain Drain\libraries\lvgl\src\core/lv_indev.c ****         gesture_obj = lv_obj_get_parent(gesture_obj);
 399              		.loc 1 1129 0 is_stmt 0 discriminator 1
 400 0026 8021     		movs	r1, #128
 401 0028 0902     		lsls	r1, r1, #8
 402 002a 2000     		movs	r0, r4
 403 002c FFF7FEFF 		bl	lv_obj_has_flag
 404              	.LVL43:
 405 0030 0028     		cmp	r0, #0
 406 0032 F2D1     		bne	.L27
 407              	.L26:
1133:..\..\..\arduinoLCD\test\Pain Drain\libraries\lvgl\src\core/lv_indev.c **** 
 408              		.loc 1 1133 0 is_stmt 1
 409 0034 002C     		cmp	r4, #0
 410 0036 62D0     		beq	.L23
1135:..\..\..\arduinoLCD\test\Pain Drain\libraries\lvgl\src\core/lv_indev.c ****        (LV_ABS(proc->types.pointer.vect.y) < indev_act->driver->gesture_min_velocity)) {
 411              		.loc 1 1135 0
 412 0038 1422     		movs	r2, #20
 413 003a AB5E     		ldrsh	r3, [r5, r2]
 414 003c DA17     		asrs	r2, r3, #31
 415 003e 9818     		adds	r0, r3, r2
 416 0040 5040     		eors	r0, r2
 417 0042 304A     		ldr	r2, .L34
 418 0044 5268     		ldr	r2, [r2, #4]
 419 0046 1168     		ldr	r1, [r2]
 420 0048 897E     		ldrb	r1, [r1, #26]
 421 004a 8842     		cmp	r0, r1
 422 004c 09DA     		bge	.L28
1136:..\..\..\arduinoLCD\test\Pain Drain\libraries\lvgl\src\core/lv_indev.c ****         proc->types.pointer.gesture_sum.x = 0;
 423              		.loc 1 1136 0 discriminator 1
 424 004e 1626     		movs	r6, #22
 425 0050 A85F     		ldrsh	r0, [r5, r6]
 426 0052 C617     		asrs	r6, r0, #31
 427 0054 8019     		adds	r0, r0, r6
 428 0056 7040     		eors	r0, r6
ARM GAS  C:\Users\haske\AppData\Local\Temp\ccl1At1U.s 			page 30


1135:..\..\..\arduinoLCD\test\Pain Drain\libraries\lvgl\src\core/lv_indev.c ****        (LV_ABS(proc->types.pointer.vect.y) < indev_act->driver->gesture_min_velocity)) {
 429              		.loc 1 1135 0 discriminator 1
 430 0058 8142     		cmp	r1, r0
 431 005a 02DD     		ble	.L28
1137:..\..\..\arduinoLCD\test\Pain Drain\libraries\lvgl\src\core/lv_indev.c ****         proc->types.pointer.gesture_sum.y = 0;
 432              		.loc 1 1137 0
 433 005c 0021     		movs	r1, #0
 434 005e A987     		strh	r1, [r5, #60]
1138:..\..\..\arduinoLCD\test\Pain Drain\libraries\lvgl\src\core/lv_indev.c ****     }
 435              		.loc 1 1138 0
 436 0060 E987     		strh	r1, [r5, #62]
 437              	.L28:
1142:..\..\..\arduinoLCD\test\Pain Drain\libraries\lvgl\src\core/lv_indev.c ****     proc->types.pointer.gesture_sum.y += proc->types.pointer.vect.y;
 438              		.loc 1 1142 0
 439 0062 A98F     		ldrh	r1, [r5, #60]
 440 0064 CB18     		adds	r3, r1, r3
 441 0066 1BB2     		sxth	r3, r3
 442 0068 AB87     		strh	r3, [r5, #60]
1143:..\..\..\arduinoLCD\test\Pain Drain\libraries\lvgl\src\core/lv_indev.c **** 
 443              		.loc 1 1143 0
 444 006a 1620     		movs	r0, #22
 445 006c 295E     		ldrsh	r1, [r5, r0]
 446 006e E88F     		ldrh	r0, [r5, #62]
 447 0070 4118     		adds	r1, r0, r1
 448 0072 09B2     		sxth	r1, r1
 449 0074 E987     		strh	r1, [r5, #62]
1145:..\..\..\arduinoLCD\test\Pain Drain\libraries\lvgl\src\core/lv_indev.c ****        (LV_ABS(proc->types.pointer.gesture_sum.y) > indev_act->driver->gesture_limit)) {
 450              		.loc 1 1145 0
 451 0076 D817     		asrs	r0, r3, #31
 452 0078 1E18     		adds	r6, r3, r0
 453 007a 4640     		eors	r6, r0
 454 007c B046     		mov	r8, r6
 455 007e 1068     		ldr	r0, [r2]
 456 0080 C07E     		ldrb	r0, [r0, #27]
 457 0082 8642     		cmp	r6, r0
 458 0084 04DC     		bgt	.L29
1146:..\..\..\arduinoLCD\test\Pain Drain\libraries\lvgl\src\core/lv_indev.c **** 
 459              		.loc 1 1146 0 discriminator 1
 460 0086 CE17     		asrs	r6, r1, #31
 461 0088 8F19     		adds	r7, r1, r6
 462 008a 7740     		eors	r7, r6
1145:..\..\..\arduinoLCD\test\Pain Drain\libraries\lvgl\src\core/lv_indev.c ****        (LV_ABS(proc->types.pointer.gesture_sum.y) > indev_act->driver->gesture_limit)) {
 463              		.loc 1 1145 0 discriminator 1
 464 008c B842     		cmp	r0, r7
 465 008e 36DA     		bge	.L23
 466              	.L29:
1148:..\..\..\arduinoLCD\test\Pain Drain\libraries\lvgl\src\core/lv_indev.c **** 
 467              		.loc 1 1148 0
 468 0090 2F00     		movs	r7, r5
 469 0092 4037     		adds	r7, r7, #64
 470 0094 7878     		ldrb	r0, [r7, #1]
 471 0096 8446     		mov	ip, r0
 472 0098 0120     		movs	r0, #1
 473 009a 6646     		mov	r6, ip
 474 009c 3043     		orrs	r0, r6
 475 009e 7870     		strb	r0, [r7, #1]
1150:..\..\..\arduinoLCD\test\Pain Drain\libraries\lvgl\src\core/lv_indev.c ****             if(proc->types.pointer.gesture_sum.x > 0)
ARM GAS  C:\Users\haske\AppData\Local\Temp\ccl1At1U.s 			page 31


 476              		.loc 1 1150 0
 477 00a0 CE17     		asrs	r6, r1, #31
 478 00a2 8819     		adds	r0, r1, r6
 479 00a4 7040     		eors	r0, r6
 480 00a6 8045     		cmp	r8, r0
 481 00a8 11DD     		ble	.L30
1151:..\..\..\arduinoLCD\test\Pain Drain\libraries\lvgl\src\core/lv_indev.c ****                 proc->types.pointer.gesture_dir = LV_DIR_RIGHT;
 482              		.loc 1 1151 0
 483 00aa 002B     		cmp	r3, #0
 484 00ac 07DD     		ble	.L31
1152:..\..\..\arduinoLCD\test\Pain Drain\libraries\lvgl\src\core/lv_indev.c ****             else
 485              		.loc 1 1152 0
 486 00ae 4020     		movs	r0, #64
 487 00b0 2B5C     		ldrb	r3, [r5, r0]
 488 00b2 0F21     		movs	r1, #15
 489 00b4 0B40     		ands	r3, r1
 490 00b6 2021     		movs	r1, #32
 491 00b8 0B43     		orrs	r3, r1
 492 00ba 2B54     		strb	r3, [r5, r0]
 493 00bc 18E0     		b	.L32
 494              	.L31:
1154:..\..\..\arduinoLCD\test\Pain Drain\libraries\lvgl\src\core/lv_indev.c ****         }
 495              		.loc 1 1154 0
 496 00be 4020     		movs	r0, #64
 497 00c0 2B5C     		ldrb	r3, [r5, r0]
 498 00c2 0F21     		movs	r1, #15
 499 00c4 0B40     		ands	r3, r1
 500 00c6 1021     		movs	r1, #16
 501 00c8 0B43     		orrs	r3, r1
 502 00ca 2B54     		strb	r3, [r5, r0]
 503 00cc 10E0     		b	.L32
 504              	.L30:
1157:..\..\..\arduinoLCD\test\Pain Drain\libraries\lvgl\src\core/lv_indev.c ****                 proc->types.pointer.gesture_dir = LV_DIR_BOTTOM;
 505              		.loc 1 1157 0
 506 00ce 0029     		cmp	r1, #0
 507 00d0 07DD     		ble	.L33
1158:..\..\..\arduinoLCD\test\Pain Drain\libraries\lvgl\src\core/lv_indev.c ****             else
 508              		.loc 1 1158 0
 509 00d2 4021     		movs	r1, #64
 510 00d4 6B5C     		ldrb	r3, [r5, r1]
 511 00d6 0F20     		movs	r0, #15
 512 00d8 0340     		ands	r3, r0
 513 00da 8F38     		subs	r0, r0, #143
 514 00dc 0343     		orrs	r3, r0
 515 00de 6B54     		strb	r3, [r5, r1]
 516 00e0 06E0     		b	.L32
 517              	.L33:
1160:..\..\..\arduinoLCD\test\Pain Drain\libraries\lvgl\src\core/lv_indev.c ****         }
 518              		.loc 1 1160 0
 519 00e2 4020     		movs	r0, #64
 520 00e4 2B5C     		ldrb	r3, [r5, r0]
 521 00e6 0F21     		movs	r1, #15
 522 00e8 0B40     		ands	r3, r1
 523 00ea 4021     		movs	r1, #64
 524 00ec 0B43     		orrs	r3, r1
 525 00ee 2B54     		strb	r3, [r5, r0]
 526              	.L32:
ARM GAS  C:\Users\haske\AppData\Local\Temp\ccl1At1U.s 			page 32


1163:..\..\..\arduinoLCD\test\Pain Drain\libraries\lvgl\src\core/lv_indev.c ****         if(indev_reset_check(proc)) return;
 527              		.loc 1 1163 0
 528 00f0 0C21     		movs	r1, #12
 529 00f2 2000     		movs	r0, r4
 530 00f4 FFF7FEFF 		bl	lv_event_send
 531              	.LVL44:
1164:..\..\..\arduinoLCD\test\Pain Drain\libraries\lvgl\src\core/lv_indev.c ****     }
 532              		.loc 1 1164 0
 533 00f8 2800     		movs	r0, r5
 534 00fa FFF7FEFF 		bl	indev_reset_check
 535              	.LVL45:
 536              	.L23:
1166:..\..\..\arduinoLCD\test\Pain Drain\libraries\lvgl\src\core/lv_indev.c **** 
 537              		.loc 1 1166 0
 538              		@ sp needed
 539              	.LVL46:
 540 00fe 04BC     		pop	{r2}
 541 0100 9046     		mov	r8, r2
 542 0102 F0BD     		pop	{r4, r5, r6, r7, pc}
 543              	.L35:
 544              		.align	2
 545              	.L34:
 546 0104 00000000 		.word	.LANCHOR0
 547              		.cfi_endproc
 548              	.LFE192:
 549              		.size	indev_gesture, .-indev_gesture
 550              		.global	__aeabi_idiv
 551              		.section	.text.indev_proc_release,"ax",%progbits
 552              		.align	2
 553              		.code	16
 554              		.thumb_func
 555              		.type	indev_proc_release, %function
 556              	indev_proc_release:
 557              	.LFB189:
 951:..\..\..\arduinoLCD\test\Pain Drain\libraries\lvgl\src\core/lv_indev.c ****     if(proc->wait_until_release != 0) {
 558              		.loc 1 951 0
 559              		.cfi_startproc
 560              		@ args = 0, pretend = 0, frame = 8
 561              		@ frame_needed = 0, uses_anonymous_args = 0
 562              	.LVL47:
 563 0000 F0B5     		push	{r4, r5, r6, r7, lr}
 564              		.cfi_def_cfa_offset 20
 565              		.cfi_offset 4, -20
 566              		.cfi_offset 5, -16
 567              		.cfi_offset 6, -12
 568              		.cfi_offset 7, -8
 569              		.cfi_offset 14, -4
 570 0002 4746     		mov	r7, r8
 571 0004 80B4     		push	{r7}
 572              		.cfi_def_cfa_offset 24
 573              		.cfi_offset 8, -24
 574 0006 82B0     		sub	sp, sp, #8
 575              		.cfi_def_cfa_offset 32
 576 0008 0500     		movs	r5, r0
 952:..\..\..\arduinoLCD\test\Pain Drain\libraries\lvgl\src\core/lv_indev.c ****         lv_event_send(proc->types.pointer.act_obj, LV_EVENT_PRESS_LOST, indev_act);
 577              		.loc 1 952 0
 578 000a 4378     		ldrb	r3, [r0, #1]
ARM GAS  C:\Users\haske\AppData\Local\Temp\ccl1At1U.s 			page 33


 579 000c 1B07     		lsls	r3, r3, #28
 580 000e 14D5     		bpl	.L37
 953:..\..\..\arduinoLCD\test\Pain Drain\libraries\lvgl\src\core/lv_indev.c ****         if(indev_reset_check(proc)) return;
 581              		.loc 1 953 0
 582 0010 4A4B     		ldr	r3, .L46
 583 0012 5A68     		ldr	r2, [r3, #4]
 584 0014 0321     		movs	r1, #3
 585 0016 406A     		ldr	r0, [r0, #36]
 586              	.LVL48:
 587 0018 FFF7FEFF 		bl	lv_event_send
 588              	.LVL49:
 954:..\..\..\arduinoLCD\test\Pain Drain\libraries\lvgl\src\core/lv_indev.c **** 
 589              		.loc 1 954 0
 590 001c 2800     		movs	r0, r5
 591 001e FFF7FEFF 		bl	indev_reset_check
 592              	.LVL50:
 593 0022 0028     		cmp	r0, #0
 594 0024 00D0     		beq	.LCB530
 595 0026 84E0     		b	.L36	@long jump
 596              	.LCB530:
 956:..\..\..\arduinoLCD\test\Pain Drain\libraries\lvgl\src\core/lv_indev.c ****         proc->types.pointer.last_obj = NULL;
 597              		.loc 1 956 0
 598 0028 0023     		movs	r3, #0
 599 002a 6B62     		str	r3, [r5, #36]
 957:..\..\..\arduinoLCD\test\Pain Drain\libraries\lvgl\src\core/lv_indev.c ****         proc->pr_timestamp           = 0;
 600              		.loc 1 957 0
 601 002c AB62     		str	r3, [r5, #40]
 958:..\..\..\arduinoLCD\test\Pain Drain\libraries\lvgl\src\core/lv_indev.c ****         proc->longpr_rep_timestamp   = 0;
 602              		.loc 1 958 0
 603 002e 6B64     		str	r3, [r5, #68]
 959:..\..\..\arduinoLCD\test\Pain Drain\libraries\lvgl\src\core/lv_indev.c ****         proc->wait_until_release     = 0;
 604              		.loc 1 959 0
 605 0030 AB64     		str	r3, [r5, #72]
 960:..\..\..\arduinoLCD\test\Pain Drain\libraries\lvgl\src\core/lv_indev.c ****     }
 606              		.loc 1 960 0
 607 0032 6B78     		ldrb	r3, [r5, #1]
 608 0034 0822     		movs	r2, #8
 609 0036 9343     		bics	r3, r2
 610 0038 6B70     		strb	r3, [r5, #1]
 611              	.L37:
 962:..\..\..\arduinoLCD\test\Pain Drain\libraries\lvgl\src\core/lv_indev.c ****     lv_obj_t * scroll_obj = proc->types.pointer.scroll_obj;
 612              		.loc 1 962 0
 613 003a 686A     		ldr	r0, [r5, #36]
 614 003c 3F4B     		ldr	r3, .L46
 615 003e 1860     		str	r0, [r3]
 963:..\..\..\arduinoLCD\test\Pain Drain\libraries\lvgl\src\core/lv_indev.c **** 
 616              		.loc 1 963 0
 617 0040 EB6A     		ldr	r3, [r5, #44]
 618 0042 9846     		mov	r8, r3
 619              	.LVL51:
 966:..\..\..\arduinoLCD\test\Pain Drain\libraries\lvgl\src\core/lv_indev.c ****         LV_LOG_INFO("released");
 620              		.loc 1 966 0
 621 0044 0028     		cmp	r0, #0
 622 0046 6BD0     		beq	.L39
 970:..\..\..\arduinoLCD\test\Pain Drain\libraries\lvgl\src\core/lv_indev.c ****         if(indev_reset_check(proc)) return;
 623              		.loc 1 970 0
 624 0048 3C4B     		ldr	r3, .L46
ARM GAS  C:\Users\haske\AppData\Local\Temp\ccl1At1U.s 			page 34


 625              	.LVL52:
 626 004a 5A68     		ldr	r2, [r3, #4]
 627 004c 0821     		movs	r1, #8
 628 004e FFF7FEFF 		bl	lv_event_send
 629              	.LVL53:
 971:..\..\..\arduinoLCD\test\Pain Drain\libraries\lvgl\src\core/lv_indev.c **** 
 630              		.loc 1 971 0
 631 0052 2800     		movs	r0, r5
 632 0054 FFF7FEFF 		bl	indev_reset_check
 633              	.LVL54:
 634 0058 0028     		cmp	r0, #0
 635 005a 6AD1     		bne	.L36
 974:..\..\..\arduinoLCD\test\Pain Drain\libraries\lvgl\src\core/lv_indev.c ****             if(proc->long_pr_sent == 0) {
 636              		.loc 1 974 0
 637 005c 4346     		mov	r3, r8
 638 005e 002B     		cmp	r3, #0
 639 0060 18D1     		bne	.L40
 975:..\..\..\arduinoLCD\test\Pain Drain\libraries\lvgl\src\core/lv_indev.c ****                 lv_event_send(indev_obj_act, LV_EVENT_SHORT_CLICKED, indev_act);
 640              		.loc 1 975 0
 641 0062 6B78     		ldrb	r3, [r5, #1]
 642 0064 DB07     		lsls	r3, r3, #31
 643 0066 0AD4     		bmi	.L41
 976:..\..\..\arduinoLCD\test\Pain Drain\libraries\lvgl\src\core/lv_indev.c ****                 if(indev_reset_check(proc)) return;
 644              		.loc 1 976 0
 645 0068 344B     		ldr	r3, .L46
 646 006a 5A68     		ldr	r2, [r3, #4]
 647 006c 1868     		ldr	r0, [r3]
 648 006e 0421     		movs	r1, #4
 649 0070 FFF7FEFF 		bl	lv_event_send
 650              	.LVL55:
 977:..\..\..\arduinoLCD\test\Pain Drain\libraries\lvgl\src\core/lv_indev.c ****             }
 651              		.loc 1 977 0
 652 0074 2800     		movs	r0, r5
 653 0076 FFF7FEFF 		bl	indev_reset_check
 654              	.LVL56:
 655 007a 0028     		cmp	r0, #0
 656 007c 59D1     		bne	.L36
 657              	.L41:
 980:..\..\..\arduinoLCD\test\Pain Drain\libraries\lvgl\src\core/lv_indev.c ****             if(indev_reset_check(proc)) return;
 658              		.loc 1 980 0
 659 007e 2F4B     		ldr	r3, .L46
 660 0080 5A68     		ldr	r2, [r3, #4]
 661 0082 1868     		ldr	r0, [r3]
 662 0084 0721     		movs	r1, #7
 663 0086 FFF7FEFF 		bl	lv_event_send
 664              	.LVL57:
 981:..\..\..\arduinoLCD\test\Pain Drain\libraries\lvgl\src\core/lv_indev.c ****         }
 665              		.loc 1 981 0
 666 008a 2800     		movs	r0, r5
 667 008c FFF7FEFF 		bl	indev_reset_check
 668              	.LVL58:
 669 0090 0028     		cmp	r0, #0
 670 0092 4ED1     		bne	.L36
 671              	.L40:
 984:..\..\..\arduinoLCD\test\Pain Drain\libraries\lvgl\src\core/lv_indev.c ****         proc->pr_timestamp          = 0;
 672              		.loc 1 984 0
 673 0094 0023     		movs	r3, #0
ARM GAS  C:\Users\haske\AppData\Local\Temp\ccl1At1U.s 			page 35


 674 0096 6B62     		str	r3, [r5, #36]
 985:..\..\..\arduinoLCD\test\Pain Drain\libraries\lvgl\src\core/lv_indev.c ****         proc->longpr_rep_timestamp  = 0;
 675              		.loc 1 985 0
 676 0098 6B64     		str	r3, [r5, #68]
 986:..\..\..\arduinoLCD\test\Pain Drain\libraries\lvgl\src\core/lv_indev.c **** 
 677              		.loc 1 986 0
 678 009a AB64     		str	r3, [r5, #72]
 990:..\..\..\arduinoLCD\test\Pain Drain\libraries\lvgl\src\core/lv_indev.c ****             int16_t angle = 0;
 679              		.loc 1 990 0
 680 009c 4346     		mov	r3, r8
 681 009e 002B     		cmp	r3, #0
 682 00a0 3ED0     		beq	.L39
 683              	.LVL59:
 684              	.LBB7:
 993:..\..\..\arduinoLCD\test\Pain Drain\libraries\lvgl\src\core/lv_indev.c ****             lv_obj_t * parent = scroll_obj;
 685              		.loc 1 993 0
 686 00a2 01AB     		add	r3, sp, #4
 687              	.LVL60:
 688 00a4 0022     		movs	r2, #0
 689 00a6 1A80     		strh	r2, [r3]
 690 00a8 5A80     		strh	r2, [r3, #2]
 691              	.LVL61:
 994:..\..\..\arduinoLCD\test\Pain Drain\libraries\lvgl\src\core/lv_indev.c ****             while(parent) {
 692              		.loc 1 994 0
 693 00aa 4446     		mov	r4, r8
 992:..\..\..\arduinoLCD\test\Pain Drain\libraries\lvgl\src\core/lv_indev.c ****             lv_point_t pivot = { 0, 0 };
 694              		.loc 1 992 0
 695 00ac 8027     		movs	r7, #128
 696 00ae 7F00     		lsls	r7, r7, #1
 991:..\..\..\arduinoLCD\test\Pain Drain\libraries\lvgl\src\core/lv_indev.c ****             int16_t zoom = 256;
 697              		.loc 1 991 0
 698 00b0 0026     		movs	r6, #0
 995:..\..\..\arduinoLCD\test\Pain Drain\libraries\lvgl\src\core/lv_indev.c ****                 angle += lv_obj_get_style_transform_angle(parent, 0);
 699              		.loc 1 995 0
 700 00b2 17E0     		b	.L42
 701              	.LVL62:
 702              	.L43:
 703              	.LBB8:
 704              	.LBB9:
 705              		.file 2 "..\\..\\..\\arduinoLCD\\test\\Pain Drain\\libraries\\lvgl\\src\\core\\lv_obj_style_gen.h"
   1:..\..\..\arduinoLCD\test\Pain Drain\libraries\lvgl\src\core/lv_obj_style_gen.h **** static inline lv_coord_t lv_obj_get_style_width(const struct _lv_obj_t * obj, uint32_t part)
   2:..\..\..\arduinoLCD\test\Pain Drain\libraries\lvgl\src\core/lv_obj_style_gen.h **** {
   3:..\..\..\arduinoLCD\test\Pain Drain\libraries\lvgl\src\core/lv_obj_style_gen.h ****     lv_style_value_t v = lv_obj_get_style_prop(obj, part, LV_STYLE_WIDTH);
   4:..\..\..\arduinoLCD\test\Pain Drain\libraries\lvgl\src\core/lv_obj_style_gen.h ****     return (lv_coord_t)v.num;
   5:..\..\..\arduinoLCD\test\Pain Drain\libraries\lvgl\src\core/lv_obj_style_gen.h **** }
   6:..\..\..\arduinoLCD\test\Pain Drain\libraries\lvgl\src\core/lv_obj_style_gen.h **** 
   7:..\..\..\arduinoLCD\test\Pain Drain\libraries\lvgl\src\core/lv_obj_style_gen.h **** static inline lv_coord_t lv_obj_get_style_min_width(const struct _lv_obj_t * obj, uint32_t part)
   8:..\..\..\arduinoLCD\test\Pain Drain\libraries\lvgl\src\core/lv_obj_style_gen.h **** {
   9:..\..\..\arduinoLCD\test\Pain Drain\libraries\lvgl\src\core/lv_obj_style_gen.h ****     lv_style_value_t v = lv_obj_get_style_prop(obj, part, LV_STYLE_MIN_WIDTH);
  10:..\..\..\arduinoLCD\test\Pain Drain\libraries\lvgl\src\core/lv_obj_style_gen.h ****     return (lv_coord_t)v.num;
  11:..\..\..\arduinoLCD\test\Pain Drain\libraries\lvgl\src\core/lv_obj_style_gen.h **** }
  12:..\..\..\arduinoLCD\test\Pain Drain\libraries\lvgl\src\core/lv_obj_style_gen.h **** 
  13:..\..\..\arduinoLCD\test\Pain Drain\libraries\lvgl\src\core/lv_obj_style_gen.h **** static inline lv_coord_t lv_obj_get_style_max_width(const struct _lv_obj_t * obj, uint32_t part)
  14:..\..\..\arduinoLCD\test\Pain Drain\libraries\lvgl\src\core/lv_obj_style_gen.h **** {
  15:..\..\..\arduinoLCD\test\Pain Drain\libraries\lvgl\src\core/lv_obj_style_gen.h ****     lv_style_value_t v = lv_obj_get_style_prop(obj, part, LV_STYLE_MAX_WIDTH);
  16:..\..\..\arduinoLCD\test\Pain Drain\libraries\lvgl\src\core/lv_obj_style_gen.h ****     return (lv_coord_t)v.num;
  17:..\..\..\arduinoLCD\test\Pain Drain\libraries\lvgl\src\core/lv_obj_style_gen.h **** }
ARM GAS  C:\Users\haske\AppData\Local\Temp\ccl1At1U.s 			page 36


  18:..\..\..\arduinoLCD\test\Pain Drain\libraries\lvgl\src\core/lv_obj_style_gen.h **** 
  19:..\..\..\arduinoLCD\test\Pain Drain\libraries\lvgl\src\core/lv_obj_style_gen.h **** static inline lv_coord_t lv_obj_get_style_height(const struct _lv_obj_t * obj, uint32_t part)
  20:..\..\..\arduinoLCD\test\Pain Drain\libraries\lvgl\src\core/lv_obj_style_gen.h **** {
  21:..\..\..\arduinoLCD\test\Pain Drain\libraries\lvgl\src\core/lv_obj_style_gen.h ****     lv_style_value_t v = lv_obj_get_style_prop(obj, part, LV_STYLE_HEIGHT);
  22:..\..\..\arduinoLCD\test\Pain Drain\libraries\lvgl\src\core/lv_obj_style_gen.h ****     return (lv_coord_t)v.num;
  23:..\..\..\arduinoLCD\test\Pain Drain\libraries\lvgl\src\core/lv_obj_style_gen.h **** }
  24:..\..\..\arduinoLCD\test\Pain Drain\libraries\lvgl\src\core/lv_obj_style_gen.h **** 
  25:..\..\..\arduinoLCD\test\Pain Drain\libraries\lvgl\src\core/lv_obj_style_gen.h **** static inline lv_coord_t lv_obj_get_style_min_height(const struct _lv_obj_t * obj, uint32_t part)
  26:..\..\..\arduinoLCD\test\Pain Drain\libraries\lvgl\src\core/lv_obj_style_gen.h **** {
  27:..\..\..\arduinoLCD\test\Pain Drain\libraries\lvgl\src\core/lv_obj_style_gen.h ****     lv_style_value_t v = lv_obj_get_style_prop(obj, part, LV_STYLE_MIN_HEIGHT);
  28:..\..\..\arduinoLCD\test\Pain Drain\libraries\lvgl\src\core/lv_obj_style_gen.h ****     return (lv_coord_t)v.num;
  29:..\..\..\arduinoLCD\test\Pain Drain\libraries\lvgl\src\core/lv_obj_style_gen.h **** }
  30:..\..\..\arduinoLCD\test\Pain Drain\libraries\lvgl\src\core/lv_obj_style_gen.h **** 
  31:..\..\..\arduinoLCD\test\Pain Drain\libraries\lvgl\src\core/lv_obj_style_gen.h **** static inline lv_coord_t lv_obj_get_style_max_height(const struct _lv_obj_t * obj, uint32_t part)
  32:..\..\..\arduinoLCD\test\Pain Drain\libraries\lvgl\src\core/lv_obj_style_gen.h **** {
  33:..\..\..\arduinoLCD\test\Pain Drain\libraries\lvgl\src\core/lv_obj_style_gen.h ****     lv_style_value_t v = lv_obj_get_style_prop(obj, part, LV_STYLE_MAX_HEIGHT);
  34:..\..\..\arduinoLCD\test\Pain Drain\libraries\lvgl\src\core/lv_obj_style_gen.h ****     return (lv_coord_t)v.num;
  35:..\..\..\arduinoLCD\test\Pain Drain\libraries\lvgl\src\core/lv_obj_style_gen.h **** }
  36:..\..\..\arduinoLCD\test\Pain Drain\libraries\lvgl\src\core/lv_obj_style_gen.h **** 
  37:..\..\..\arduinoLCD\test\Pain Drain\libraries\lvgl\src\core/lv_obj_style_gen.h **** static inline lv_coord_t lv_obj_get_style_x(const struct _lv_obj_t * obj, uint32_t part)
  38:..\..\..\arduinoLCD\test\Pain Drain\libraries\lvgl\src\core/lv_obj_style_gen.h **** {
  39:..\..\..\arduinoLCD\test\Pain Drain\libraries\lvgl\src\core/lv_obj_style_gen.h ****     lv_style_value_t v = lv_obj_get_style_prop(obj, part, LV_STYLE_X);
  40:..\..\..\arduinoLCD\test\Pain Drain\libraries\lvgl\src\core/lv_obj_style_gen.h ****     return (lv_coord_t)v.num;
  41:..\..\..\arduinoLCD\test\Pain Drain\libraries\lvgl\src\core/lv_obj_style_gen.h **** }
  42:..\..\..\arduinoLCD\test\Pain Drain\libraries\lvgl\src\core/lv_obj_style_gen.h **** 
  43:..\..\..\arduinoLCD\test\Pain Drain\libraries\lvgl\src\core/lv_obj_style_gen.h **** static inline lv_coord_t lv_obj_get_style_y(const struct _lv_obj_t * obj, uint32_t part)
  44:..\..\..\arduinoLCD\test\Pain Drain\libraries\lvgl\src\core/lv_obj_style_gen.h **** {
  45:..\..\..\arduinoLCD\test\Pain Drain\libraries\lvgl\src\core/lv_obj_style_gen.h ****     lv_style_value_t v = lv_obj_get_style_prop(obj, part, LV_STYLE_Y);
  46:..\..\..\arduinoLCD\test\Pain Drain\libraries\lvgl\src\core/lv_obj_style_gen.h ****     return (lv_coord_t)v.num;
  47:..\..\..\arduinoLCD\test\Pain Drain\libraries\lvgl\src\core/lv_obj_style_gen.h **** }
  48:..\..\..\arduinoLCD\test\Pain Drain\libraries\lvgl\src\core/lv_obj_style_gen.h **** 
  49:..\..\..\arduinoLCD\test\Pain Drain\libraries\lvgl\src\core/lv_obj_style_gen.h **** static inline lv_align_t lv_obj_get_style_align(const struct _lv_obj_t * obj, uint32_t part)
  50:..\..\..\arduinoLCD\test\Pain Drain\libraries\lvgl\src\core/lv_obj_style_gen.h **** {
  51:..\..\..\arduinoLCD\test\Pain Drain\libraries\lvgl\src\core/lv_obj_style_gen.h ****     lv_style_value_t v = lv_obj_get_style_prop(obj, part, LV_STYLE_ALIGN);
  52:..\..\..\arduinoLCD\test\Pain Drain\libraries\lvgl\src\core/lv_obj_style_gen.h ****     return (lv_align_t)v.num;
  53:..\..\..\arduinoLCD\test\Pain Drain\libraries\lvgl\src\core/lv_obj_style_gen.h **** }
  54:..\..\..\arduinoLCD\test\Pain Drain\libraries\lvgl\src\core/lv_obj_style_gen.h **** 
  55:..\..\..\arduinoLCD\test\Pain Drain\libraries\lvgl\src\core/lv_obj_style_gen.h **** static inline lv_coord_t lv_obj_get_style_transform_width(const struct _lv_obj_t * obj, uint32_t pa
  56:..\..\..\arduinoLCD\test\Pain Drain\libraries\lvgl\src\core/lv_obj_style_gen.h **** {
  57:..\..\..\arduinoLCD\test\Pain Drain\libraries\lvgl\src\core/lv_obj_style_gen.h ****     lv_style_value_t v = lv_obj_get_style_prop(obj, part, LV_STYLE_TRANSFORM_WIDTH);
  58:..\..\..\arduinoLCD\test\Pain Drain\libraries\lvgl\src\core/lv_obj_style_gen.h ****     return (lv_coord_t)v.num;
  59:..\..\..\arduinoLCD\test\Pain Drain\libraries\lvgl\src\core/lv_obj_style_gen.h **** }
  60:..\..\..\arduinoLCD\test\Pain Drain\libraries\lvgl\src\core/lv_obj_style_gen.h **** 
  61:..\..\..\arduinoLCD\test\Pain Drain\libraries\lvgl\src\core/lv_obj_style_gen.h **** static inline lv_coord_t lv_obj_get_style_transform_height(const struct _lv_obj_t * obj, uint32_t p
  62:..\..\..\arduinoLCD\test\Pain Drain\libraries\lvgl\src\core/lv_obj_style_gen.h **** {
  63:..\..\..\arduinoLCD\test\Pain Drain\libraries\lvgl\src\core/lv_obj_style_gen.h ****     lv_style_value_t v = lv_obj_get_style_prop(obj, part, LV_STYLE_TRANSFORM_HEIGHT);
  64:..\..\..\arduinoLCD\test\Pain Drain\libraries\lvgl\src\core/lv_obj_style_gen.h ****     return (lv_coord_t)v.num;
  65:..\..\..\arduinoLCD\test\Pain Drain\libraries\lvgl\src\core/lv_obj_style_gen.h **** }
  66:..\..\..\arduinoLCD\test\Pain Drain\libraries\lvgl\src\core/lv_obj_style_gen.h **** 
  67:..\..\..\arduinoLCD\test\Pain Drain\libraries\lvgl\src\core/lv_obj_style_gen.h **** static inline lv_coord_t lv_obj_get_style_translate_x(const struct _lv_obj_t * obj, uint32_t part)
  68:..\..\..\arduinoLCD\test\Pain Drain\libraries\lvgl\src\core/lv_obj_style_gen.h **** {
  69:..\..\..\arduinoLCD\test\Pain Drain\libraries\lvgl\src\core/lv_obj_style_gen.h ****     lv_style_value_t v = lv_obj_get_style_prop(obj, part, LV_STYLE_TRANSLATE_X);
  70:..\..\..\arduinoLCD\test\Pain Drain\libraries\lvgl\src\core/lv_obj_style_gen.h ****     return (lv_coord_t)v.num;
  71:..\..\..\arduinoLCD\test\Pain Drain\libraries\lvgl\src\core/lv_obj_style_gen.h **** }
  72:..\..\..\arduinoLCD\test\Pain Drain\libraries\lvgl\src\core/lv_obj_style_gen.h **** 
  73:..\..\..\arduinoLCD\test\Pain Drain\libraries\lvgl\src\core/lv_obj_style_gen.h **** static inline lv_coord_t lv_obj_get_style_translate_y(const struct _lv_obj_t * obj, uint32_t part)
  74:..\..\..\arduinoLCD\test\Pain Drain\libraries\lvgl\src\core/lv_obj_style_gen.h **** {
ARM GAS  C:\Users\haske\AppData\Local\Temp\ccl1At1U.s 			page 37


  75:..\..\..\arduinoLCD\test\Pain Drain\libraries\lvgl\src\core/lv_obj_style_gen.h ****     lv_style_value_t v = lv_obj_get_style_prop(obj, part, LV_STYLE_TRANSLATE_Y);
  76:..\..\..\arduinoLCD\test\Pain Drain\libraries\lvgl\src\core/lv_obj_style_gen.h ****     return (lv_coord_t)v.num;
  77:..\..\..\arduinoLCD\test\Pain Drain\libraries\lvgl\src\core/lv_obj_style_gen.h **** }
  78:..\..\..\arduinoLCD\test\Pain Drain\libraries\lvgl\src\core/lv_obj_style_gen.h **** 
  79:..\..\..\arduinoLCD\test\Pain Drain\libraries\lvgl\src\core/lv_obj_style_gen.h **** static inline lv_coord_t lv_obj_get_style_transform_zoom(const struct _lv_obj_t * obj, uint32_t par
  80:..\..\..\arduinoLCD\test\Pain Drain\libraries\lvgl\src\core/lv_obj_style_gen.h **** {
  81:..\..\..\arduinoLCD\test\Pain Drain\libraries\lvgl\src\core/lv_obj_style_gen.h ****     lv_style_value_t v = lv_obj_get_style_prop(obj, part, LV_STYLE_TRANSFORM_ZOOM);
  82:..\..\..\arduinoLCD\test\Pain Drain\libraries\lvgl\src\core/lv_obj_style_gen.h ****     return (lv_coord_t)v.num;
  83:..\..\..\arduinoLCD\test\Pain Drain\libraries\lvgl\src\core/lv_obj_style_gen.h **** }
  84:..\..\..\arduinoLCD\test\Pain Drain\libraries\lvgl\src\core/lv_obj_style_gen.h **** 
  85:..\..\..\arduinoLCD\test\Pain Drain\libraries\lvgl\src\core/lv_obj_style_gen.h **** static inline lv_coord_t lv_obj_get_style_transform_angle(const struct _lv_obj_t * obj, uint32_t pa
  86:..\..\..\arduinoLCD\test\Pain Drain\libraries\lvgl\src\core/lv_obj_style_gen.h **** {
  87:..\..\..\arduinoLCD\test\Pain Drain\libraries\lvgl\src\core/lv_obj_style_gen.h ****     lv_style_value_t v = lv_obj_get_style_prop(obj, part, LV_STYLE_TRANSFORM_ANGLE);
 706              		.loc 2 87 0
 707 00b4 6D22     		movs	r2, #109
 708 00b6 0021     		movs	r1, #0
 709 00b8 2000     		movs	r0, r4
 710 00ba FFF7FEFF 		bl	lv_obj_get_style_prop
 711              	.LVL63:
 712              	.LBE9:
 713              	.LBE8:
 996:..\..\..\arduinoLCD\test\Pain Drain\libraries\lvgl\src\core/lv_indev.c ****                 zoom *= (lv_obj_get_style_transform_zoom(parent, 0) / 256);
 714              		.loc 1 996 0
 715 00be 8619     		adds	r6, r0, r6
 716              	.LVL64:
 717 00c0 36B2     		sxth	r6, r6
 718              	.LVL65:
 719              	.LBB10:
 720              	.LBB11:
  81:..\..\..\arduinoLCD\test\Pain Drain\libraries\lvgl\src\core/lv_obj_style_gen.h ****     return (lv_coord_t)v.num;
 721              		.loc 2 81 0
 722 00c2 6C22     		movs	r2, #108
 723 00c4 0021     		movs	r1, #0
 724 00c6 2000     		movs	r0, r4
 725              	.LVL66:
 726 00c8 FFF7FEFF 		bl	lv_obj_get_style_prop
 727              	.LVL67:
  82:..\..\..\arduinoLCD\test\Pain Drain\libraries\lvgl\src\core/lv_obj_style_gen.h **** }
 728              		.loc 2 82 0
 729 00cc 03B2     		sxth	r3, r0
 730              	.LVL68:
 731              	.LBE11:
 732              	.LBE10:
 997:..\..\..\arduinoLCD\test\Pain Drain\libraries\lvgl\src\core/lv_indev.c ****                 parent = lv_obj_get_parent(parent);
 733              		.loc 1 997 0
 734 00ce DA17     		asrs	r2, r3, #31
 735 00d0 FF20     		movs	r0, #255
 736 00d2 1040     		ands	r0, r2
 737 00d4 C318     		adds	r3, r0, r3
 738 00d6 1B12     		asrs	r3, r3, #8
 739 00d8 7B43     		muls	r3, r7
 740 00da 1FB2     		sxth	r7, r3
 741              	.LVL69:
 998:..\..\..\arduinoLCD\test\Pain Drain\libraries\lvgl\src\core/lv_indev.c ****             }
 742              		.loc 1 998 0
 743 00dc 2000     		movs	r0, r4
 744 00de FFF7FEFF 		bl	lv_obj_get_parent
ARM GAS  C:\Users\haske\AppData\Local\Temp\ccl1At1U.s 			page 38


 745              	.LVL70:
 746 00e2 0400     		movs	r4, r0
 747              	.LVL71:
 748              	.L42:
 995:..\..\..\arduinoLCD\test\Pain Drain\libraries\lvgl\src\core/lv_indev.c ****                 angle += lv_obj_get_style_transform_angle(parent, 0);
 749              		.loc 1 995 0
 750 00e4 002C     		cmp	r4, #0
 751 00e6 E5D1     		bne	.L43
1001:..\..\..\arduinoLCD\test\Pain Drain\libraries\lvgl\src\core/lv_indev.c ****                 angle = -angle;
 752              		.loc 1 1001 0
 753 00e8 002E     		cmp	r6, #0
 754 00ea 03D1     		bne	.L44
1001:..\..\..\arduinoLCD\test\Pain Drain\libraries\lvgl\src\core/lv_indev.c ****                 angle = -angle;
 755              		.loc 1 1001 0 is_stmt 0 discriminator 1
 756 00ec 8023     		movs	r3, #128
 757 00ee 5B00     		lsls	r3, r3, #1
 758 00f0 9F42     		cmp	r7, r3
 759 00f2 15D0     		beq	.L39
 760              	.L44:
1002:..\..\..\arduinoLCD\test\Pain Drain\libraries\lvgl\src\core/lv_indev.c ****                 zoom = (256 * 256) / zoom;
 761              		.loc 1 1002 0 is_stmt 1
 762 00f4 7642     		rsbs	r6, r6, #0
 763              	.LVL72:
 764 00f6 36B2     		sxth	r6, r6
 765              	.LVL73:
1003:..\..\..\arduinoLCD\test\Pain Drain\libraries\lvgl\src\core/lv_indev.c ****                 lv_point_transform(&proc->types.pointer.scroll_throw_vect, angle, zoom, &pivot);
 766              		.loc 1 1003 0
 767 00f8 3900     		movs	r1, r7
 768 00fa 8020     		movs	r0, #128
 769 00fc 4002     		lsls	r0, r0, #9
 770 00fe FFF7FEFF 		bl	__aeabi_idiv
 771              	.LVL74:
 772 0102 04B2     		sxth	r4, r0
 773              	.LVL75:
1004:..\..\..\arduinoLCD\test\Pain Drain\libraries\lvgl\src\core/lv_indev.c ****                 lv_point_transform(&proc->types.pointer.scroll_throw_vect_ori, angle, zoom, &pivot)
 774              		.loc 1 1004 0
 775 0104 2800     		movs	r0, r5
 776 0106 1C30     		adds	r0, r0, #28
 777 0108 01AB     		add	r3, sp, #4
 778 010a 2200     		movs	r2, r4
 779 010c 3100     		movs	r1, r6
 780 010e FFF7FEFF 		bl	lv_point_transform
 781              	.LVL76:
1005:..\..\..\arduinoLCD\test\Pain Drain\libraries\lvgl\src\core/lv_indev.c ****             }
 782              		.loc 1 1005 0
 783 0112 2800     		movs	r0, r5
 784 0114 2030     		adds	r0, r0, #32
 785 0116 01AB     		add	r3, sp, #4
 786 0118 2200     		movs	r2, r4
 787 011a 3100     		movs	r1, r6
 788 011c FFF7FEFF 		bl	lv_point_transform
 789              	.LVL77:
 790              	.L39:
 791              	.LBE7:
1013:..\..\..\arduinoLCD\test\Pain Drain\libraries\lvgl\src\core/lv_indev.c ****         _lv_indev_scroll_throw_handler(proc);
 792              		.loc 1 1013 0
 793 0120 4346     		mov	r3, r8
ARM GAS  C:\Users\haske\AppData\Local\Temp\ccl1At1U.s 			page 39


 794 0122 002B     		cmp	r3, #0
 795 0124 05D0     		beq	.L36
 796              	.LVL78:
1014:..\..\..\arduinoLCD\test\Pain Drain\libraries\lvgl\src\core/lv_indev.c ****         if(indev_reset_check(proc)) return;
 797              		.loc 1 1014 0
 798 0126 2800     		movs	r0, r5
 799 0128 FFF7FEFF 		bl	_lv_indev_scroll_throw_handler
 800              	.LVL79:
1015:..\..\..\arduinoLCD\test\Pain Drain\libraries\lvgl\src\core/lv_indev.c ****     }
 801              		.loc 1 1015 0
 802 012c 2800     		movs	r0, r5
 803 012e FFF7FEFF 		bl	indev_reset_check
 804              	.LVL80:
 805              	.L36:
1017:..\..\..\arduinoLCD\test\Pain Drain\libraries\lvgl\src\core/lv_indev.c **** 
 806              		.loc 1 1017 0
 807 0132 02B0     		add	sp, sp, #8
 808              		@ sp needed
 809              	.LVL81:
 810 0134 04BC     		pop	{r2}
 811 0136 9046     		mov	r8, r2
 812 0138 F0BD     		pop	{r4, r5, r6, r7, pc}
 813              	.L47:
 814 013a C046     		.align	2
 815              	.L46:
 816 013c 00000000 		.word	.LANCHOR0
 817              		.cfi_endproc
 818              	.LFE189:
 819              		.size	indev_proc_release, .-indev_proc_release
 820              		.section	.text.indev_keypad_proc,"ax",%progbits
 821              		.align	2
 822              		.code	16
 823              		.thumb_func
 824              		.type	indev_keypad_proc, %function
 825              	indev_keypad_proc:
 826              	.LFB185:
 397:..\..\..\arduinoLCD\test\Pain Drain\libraries\lvgl\src\core/lv_indev.c ****     if(data->state == LV_INDEV_STATE_PRESSED && i->proc.wait_until_release) return;
 827              		.loc 1 397 0
 828              		.cfi_startproc
 829              		@ args = 0, pretend = 0, frame = 0
 830              		@ frame_needed = 0, uses_anonymous_args = 0
 831              	.LVL82:
 832 0000 F8B5     		push	{r3, r4, r5, r6, r7, lr}
 833              		.cfi_def_cfa_offset 24
 834              		.cfi_offset 3, -24
 835              		.cfi_offset 4, -20
 836              		.cfi_offset 5, -16
 837              		.cfi_offset 6, -12
 838              		.cfi_offset 7, -8
 839              		.cfi_offset 14, -4
 840 0002 0400     		movs	r4, r0
 841 0004 0D00     		movs	r5, r1
 398:..\..\..\arduinoLCD\test\Pain Drain\libraries\lvgl\src\core/lv_indev.c **** 
 842              		.loc 1 398 0
 843 0006 8B7B     		ldrb	r3, [r1, #14]
 844 0008 012B     		cmp	r3, #1
 845 000a 03D1     		bne	.L49
ARM GAS  C:\Users\haske\AppData\Local\Temp\ccl1At1U.s 			page 40


 398:..\..\..\arduinoLCD\test\Pain Drain\libraries\lvgl\src\core/lv_indev.c **** 
 846              		.loc 1 398 0 is_stmt 0 discriminator 1
 847 000c 4379     		ldrb	r3, [r0, #5]
 848 000e 1B07     		lsls	r3, r3, #28
 849 0010 00D5     		bpl	.LCB788
 850 0012 3BE1     		b	.L48	@long jump
 851              	.LCB788:
 852              	.L49:
 400:..\..\..\arduinoLCD\test\Pain Drain\libraries\lvgl\src\core/lv_indev.c ****         i->proc.wait_until_release      = 0;
 853              		.loc 1 400 0 is_stmt 1
 854 0014 6379     		ldrb	r3, [r4, #5]
 855 0016 1B07     		lsls	r3, r3, #28
 856 0018 08D5     		bpl	.L51
 401:..\..\..\arduinoLCD\test\Pain Drain\libraries\lvgl\src\core/lv_indev.c ****         i->proc.pr_timestamp            = 0;
 857              		.loc 1 401 0
 858 001a 6379     		ldrb	r3, [r4, #5]
 402:..\..\..\arduinoLCD\test\Pain Drain\libraries\lvgl\src\core/lv_indev.c ****         i->proc.long_pr_sent            = 0;
 859              		.loc 1 402 0
 860 001c 0022     		movs	r2, #0
 861 001e A264     		str	r2, [r4, #72]
 403:..\..\..\arduinoLCD\test\Pain Drain\libraries\lvgl\src\core/lv_indev.c ****         i->proc.types.keypad.last_state = LV_INDEV_STATE_RELEASED; /*To skip the processing of rele
 862              		.loc 1 403 0
 863 0020 0821     		movs	r1, #8
 864              	.LVL83:
 865 0022 8B43     		bics	r3, r1
 866 0024 0739     		subs	r1, r1, #7
 867 0026 8B43     		bics	r3, r1
 868 0028 6371     		strb	r3, [r4, #5]
 404:..\..\..\arduinoLCD\test\Pain Drain\libraries\lvgl\src\core/lv_indev.c ****     }
 869              		.loc 1 404 0
 870 002a 2272     		strb	r2, [r4, #8]
 871              	.L51:
 407:..\..\..\arduinoLCD\test\Pain Drain\libraries\lvgl\src\core/lv_indev.c ****     if(g == NULL) return;
 872              		.loc 1 407 0
 873 002c 676D     		ldr	r7, [r4, #84]
 874              	.LVL84:
 408:..\..\..\arduinoLCD\test\Pain Drain\libraries\lvgl\src\core/lv_indev.c **** 
 875              		.loc 1 408 0
 876 002e 002F     		cmp	r7, #0
 877 0030 00D1     		bne	.LCB813
 878 0032 2BE1     		b	.L48	@long jump
 879              	.LCB813:
 410:..\..\..\arduinoLCD\test\Pain Drain\libraries\lvgl\src\core/lv_indev.c ****     if(indev_obj_act == NULL) return;
 880              		.loc 1 410 0
 881 0034 3800     		movs	r0, r7
 882              	.LVL85:
 883 0036 FFF7FEFF 		bl	lv_group_get_focused
 884              	.LVL86:
 885 003a 954B     		ldr	r3, .L67
 886 003c 1860     		str	r0, [r3]
 411:..\..\..\arduinoLCD\test\Pain Drain\libraries\lvgl\src\core/lv_indev.c **** 
 887              		.loc 1 411 0
 888 003e 0028     		cmp	r0, #0
 889 0040 00D1     		bne	.LCB821
 890 0042 23E1     		b	.L48	@long jump
 891              	.LCB821:
 413:..\..\..\arduinoLCD\test\Pain Drain\libraries\lvgl\src\core/lv_indev.c **** 
ARM GAS  C:\Users\haske\AppData\Local\Temp\ccl1At1U.s 			page 41


 892              		.loc 1 413 0
 893 0044 8021     		movs	r1, #128
 894 0046 FFF7FEFF 		bl	lv_obj_has_state
 895              	.LVL87:
 896 004a 0600     		movs	r6, r0
 897              	.LVL88:
 416:..\..\..\arduinoLCD\test\Pain Drain\libraries\lvgl\src\core/lv_indev.c **** 
 898              		.loc 1 416 0
 899 004c E168     		ldr	r1, [r4, #12]
 900              	.LVL89:
 420:..\..\..\arduinoLCD\test\Pain Drain\libraries\lvgl\src\core/lv_indev.c **** 
 901              		.loc 1 420 0
 902 004e 6B68     		ldr	r3, [r5, #4]
 903 0050 E360     		str	r3, [r4, #12]
 425:..\..\..\arduinoLCD\test\Pain Drain\libraries\lvgl\src\core/lv_indev.c ****     i->proc.types.keypad.last_state = data->state;
 904              		.loc 1 425 0
 905 0052 227A     		ldrb	r2, [r4, #8]
 906              	.LVL90:
 426:..\..\..\arduinoLCD\test\Pain Drain\libraries\lvgl\src\core/lv_indev.c **** 
 907              		.loc 1 426 0
 908 0054 AB7B     		ldrb	r3, [r5, #14]
 909 0056 2372     		strb	r3, [r4, #8]
 429:..\..\..\arduinoLCD\test\Pain Drain\libraries\lvgl\src\core/lv_indev.c ****         LV_LOG_INFO("%" LV_PRIu32 " key is pressed", data->key);
 910              		.loc 1 429 0
 911 0058 AB7B     		ldrb	r3, [r5, #14]
 912 005a 012B     		cmp	r3, #1
 913 005c 66D1     		bne	.L52
 429:..\..\..\arduinoLCD\test\Pain Drain\libraries\lvgl\src\core/lv_indev.c ****         LV_LOG_INFO("%" LV_PRIu32 " key is pressed", data->key);
 914              		.loc 1 429 0 is_stmt 0 discriminator 1
 915 005e 002A     		cmp	r2, #0
 916 0060 64D1     		bne	.L52
 431:..\..\..\arduinoLCD\test\Pain Drain\libraries\lvgl\src\core/lv_indev.c **** 
 917              		.loc 1 431 0 is_stmt 1
 918 0062 FFF7FEFF 		bl	lv_tick_get
 919              	.LVL91:
 920 0066 A064     		str	r0, [r4, #72]
 434:..\..\..\arduinoLCD\test\Pain Drain\libraries\lvgl\src\core/lv_indev.c ****             lv_group_set_editing(g, false); /*Editing is not used by KEYPAD is be sure it is disabl
 921              		.loc 1 434 0
 922 0068 6968     		ldr	r1, [r5, #4]
 923 006a 0929     		cmp	r1, #9
 924 006c 0DD1     		bne	.L53
 435:..\..\..\arduinoLCD\test\Pain Drain\libraries\lvgl\src\core/lv_indev.c ****             lv_group_focus_next(g);
 925              		.loc 1 435 0
 926 006e 0021     		movs	r1, #0
 927 0070 3800     		movs	r0, r7
 928 0072 FFF7FEFF 		bl	lv_group_set_editing
 929              	.LVL92:
 436:..\..\..\arduinoLCD\test\Pain Drain\libraries\lvgl\src\core/lv_indev.c ****             if(indev_reset_check(&i->proc)) return;
 930              		.loc 1 436 0
 931 0076 3800     		movs	r0, r7
 932 0078 FFF7FEFF 		bl	lv_group_focus_next
 933              	.LVL93:
 437:..\..\..\arduinoLCD\test\Pain Drain\libraries\lvgl\src\core/lv_indev.c ****         }
 934              		.loc 1 437 0
 935 007c 201D     		adds	r0, r4, #4
 936 007e FFF7FEFF 		bl	indev_reset_check
 937              	.LVL94:
ARM GAS  C:\Users\haske\AppData\Local\Temp\ccl1At1U.s 			page 42


 938 0082 0028     		cmp	r0, #0
 939 0084 00D1     		bne	.LCB861
 940 0086 FEE0     		b	.L54	@long jump
 941              	.LCB861:
 942 0088 00E1     		b	.L48
 943              	.L53:
 440:..\..\..\arduinoLCD\test\Pain Drain\libraries\lvgl\src\core/lv_indev.c ****             lv_group_set_editing(g, false); /*Editing is not used by KEYPAD is be sure it is disabl
 944              		.loc 1 440 0
 945 008a 0B29     		cmp	r1, #11
 946 008c 0DD1     		bne	.L55
 441:..\..\..\arduinoLCD\test\Pain Drain\libraries\lvgl\src\core/lv_indev.c ****             lv_group_focus_prev(g);
 947              		.loc 1 441 0
 948 008e 0021     		movs	r1, #0
 949 0090 3800     		movs	r0, r7
 950 0092 FFF7FEFF 		bl	lv_group_set_editing
 951              	.LVL95:
 442:..\..\..\arduinoLCD\test\Pain Drain\libraries\lvgl\src\core/lv_indev.c ****             if(indev_reset_check(&i->proc)) return;
 952              		.loc 1 442 0
 953 0096 3800     		movs	r0, r7
 954 0098 FFF7FEFF 		bl	lv_group_focus_prev
 955              	.LVL96:
 443:..\..\..\arduinoLCD\test\Pain Drain\libraries\lvgl\src\core/lv_indev.c ****         }
 956              		.loc 1 443 0
 957 009c 201D     		adds	r0, r4, #4
 958 009e FFF7FEFF 		bl	indev_reset_check
 959              	.LVL97:
 960 00a2 0028     		cmp	r0, #0
 961 00a4 00D1     		bne	.LCB879
 962 00a6 EEE0     		b	.L54	@long jump
 963              	.LCB879:
 964 00a8 F0E0     		b	.L48
 965              	.L55:
 445:..\..\..\arduinoLCD\test\Pain Drain\libraries\lvgl\src\core/lv_indev.c ****             /*Simulate a press on the object if ENTER was pressed*/
 966              		.loc 1 445 0
 967 00aa 002E     		cmp	r6, #0
 968 00ac 00D0     		beq	.LCB887
 969 00ae EAE0     		b	.L54	@long jump
 970              	.LCB887:
 447:..\..\..\arduinoLCD\test\Pain Drain\libraries\lvgl\src\core/lv_indev.c ****                 /*Send the ENTER as a normal KEY*/
 971              		.loc 1 447 0
 972 00b0 0A29     		cmp	r1, #10
 973 00b2 18D1     		bne	.L56
 449:..\..\..\arduinoLCD\test\Pain Drain\libraries\lvgl\src\core/lv_indev.c ****                 if(indev_reset_check(&i->proc)) return;
 974              		.loc 1 449 0
 975 00b4 3800     		movs	r0, r7
 976 00b6 FFF7FEFF 		bl	lv_group_send_data
 977              	.LVL98:
 450:..\..\..\arduinoLCD\test\Pain Drain\libraries\lvgl\src\core/lv_indev.c **** 
 978              		.loc 1 450 0
 979 00ba 0434     		adds	r4, r4, #4
 980              	.LVL99:
 981 00bc 2000     		movs	r0, r4
 982 00be FFF7FEFF 		bl	indev_reset_check
 983              	.LVL100:
 984 00c2 0028     		cmp	r0, #0
 985 00c4 00D0     		beq	.LCB899
 986 00c6 E1E0     		b	.L48	@long jump
ARM GAS  C:\Users\haske\AppData\Local\Temp\ccl1At1U.s 			page 43


 987              	.LCB899:
 452:..\..\..\arduinoLCD\test\Pain Drain\libraries\lvgl\src\core/lv_indev.c ****                 if(indev_reset_check(&i->proc)) return;
 988              		.loc 1 452 0
 989 00c8 002E     		cmp	r6, #0
 990 00ca 05D1     		bne	.L57
 452:..\..\..\arduinoLCD\test\Pain Drain\libraries\lvgl\src\core/lv_indev.c ****                 if(indev_reset_check(&i->proc)) return;
 991              		.loc 1 452 0 is_stmt 0 discriminator 1
 992 00cc 704B     		ldr	r3, .L67
 993 00ce 5A68     		ldr	r2, [r3, #4]
 994 00d0 0121     		movs	r1, #1
 995 00d2 1868     		ldr	r0, [r3]
 996 00d4 FFF7FEFF 		bl	lv_event_send
 997              	.LVL101:
 998              	.L57:
 453:..\..\..\arduinoLCD\test\Pain Drain\libraries\lvgl\src\core/lv_indev.c ****             }
 999              		.loc 1 453 0 is_stmt 1
 1000 00d8 2000     		movs	r0, r4
 1001 00da FFF7FEFF 		bl	indev_reset_check
 1002              	.LVL102:
 1003 00de 0028     		cmp	r0, #0
 1004 00e0 00D1     		bne	.LCB914
 1005 00e2 D0E0     		b	.L54	@long jump
 1006              	.LCB914:
 1007 00e4 D2E0     		b	.L48
 1008              	.LVL103:
 1009              	.L56:
 455:..\..\..\arduinoLCD\test\Pain Drain\libraries\lvgl\src\core/lv_indev.c ****                 /*Send the ESC as a normal KEY*/
 1010              		.loc 1 455 0
 1011 00e6 1B29     		cmp	r1, #27
 1012 00e8 16D1     		bne	.L58
 457:..\..\..\arduinoLCD\test\Pain Drain\libraries\lvgl\src\core/lv_indev.c ****                 if(indev_reset_check(&i->proc)) return;
 1013              		.loc 1 457 0
 1014 00ea 3800     		movs	r0, r7
 1015 00ec FFF7FEFF 		bl	lv_group_send_data
 1016              	.LVL104:
 458:..\..\..\arduinoLCD\test\Pain Drain\libraries\lvgl\src\core/lv_indev.c **** 
 1017              		.loc 1 458 0
 1018 00f0 0434     		adds	r4, r4, #4
 1019              	.LVL105:
 1020 00f2 2000     		movs	r0, r4
 1021 00f4 FFF7FEFF 		bl	indev_reset_check
 1022              	.LVL106:
 1023 00f8 0028     		cmp	r0, #0
 1024 00fa 00D0     		beq	.LCB932
 1025 00fc C6E0     		b	.L48	@long jump
 1026              	.LCB932:
 460:..\..\..\arduinoLCD\test\Pain Drain\libraries\lvgl\src\core/lv_indev.c ****                 if(indev_reset_check(&i->proc)) return;
 1027              		.loc 1 460 0
 1028 00fe 644B     		ldr	r3, .L67
 1029 0100 5A68     		ldr	r2, [r3, #4]
 1030 0102 1868     		ldr	r0, [r3]
 1031 0104 2021     		movs	r1, #32
 1032 0106 FFF7FEFF 		bl	lv_event_send
 1033              	.LVL107:
 461:..\..\..\arduinoLCD\test\Pain Drain\libraries\lvgl\src\core/lv_indev.c ****             }
 1034              		.loc 1 461 0
 1035 010a 2000     		movs	r0, r4
ARM GAS  C:\Users\haske\AppData\Local\Temp\ccl1At1U.s 			page 44


 1036 010c FFF7FEFF 		bl	indev_reset_check
 1037              	.LVL108:
 1038 0110 0028     		cmp	r0, #0
 1039 0112 00D1     		bne	.LCB943
 1040 0114 B7E0     		b	.L54	@long jump
 1041              	.LCB943:
 1042 0116 B9E0     		b	.L48
 1043              	.LVL109:
 1044              	.L58:
 465:..\..\..\arduinoLCD\test\Pain Drain\libraries\lvgl\src\core/lv_indev.c ****                 if(indev_reset_check(&i->proc)) return;
 1045              		.loc 1 465 0
 1046 0118 3800     		movs	r0, r7
 1047 011a FFF7FEFF 		bl	lv_group_send_data
 1048              	.LVL110:
 466:..\..\..\arduinoLCD\test\Pain Drain\libraries\lvgl\src\core/lv_indev.c ****             }
 1049              		.loc 1 466 0
 1050 011e 201D     		adds	r0, r4, #4
 1051 0120 FFF7FEFF 		bl	indev_reset_check
 1052              	.LVL111:
 1053 0124 0028     		cmp	r0, #0
 1054 0126 00D1     		bne	.LCB957
 1055 0128 ADE0     		b	.L54	@long jump
 1056              	.LCB957:
 1057 012a AFE0     		b	.L48
 1058              	.LVL112:
 1059              	.L52:
 471:..\..\..\arduinoLCD\test\Pain Drain\libraries\lvgl\src\core/lv_indev.c **** 
 1060              		.loc 1 471 0
 1061 012c 002E     		cmp	r6, #0
 1062 012e 76D1     		bne	.L59
 471:..\..\..\arduinoLCD\test\Pain Drain\libraries\lvgl\src\core/lv_indev.c **** 
 1063              		.loc 1 471 0 is_stmt 0 discriminator 1
 1064 0130 012B     		cmp	r3, #1
 1065 0132 74D1     		bne	.L59
 471:..\..\..\arduinoLCD\test\Pain Drain\libraries\lvgl\src\core/lv_indev.c **** 
 1066              		.loc 1 471 0 discriminator 2
 1067 0134 012A     		cmp	r2, #1
 1068 0136 72D1     		bne	.L59
 473:..\..\..\arduinoLCD\test\Pain Drain\libraries\lvgl\src\core/lv_indev.c ****             lv_event_send(indev_obj_act, LV_EVENT_PRESSING, indev_act);
 1069              		.loc 1 473 0 is_stmt 1
 1070 0138 6B68     		ldr	r3, [r5, #4]
 1071 013a 0A2B     		cmp	r3, #10
 1072 013c 0BD1     		bne	.L60
 474:..\..\..\arduinoLCD\test\Pain Drain\libraries\lvgl\src\core/lv_indev.c ****             if(indev_reset_check(&i->proc)) return;
 1073              		.loc 1 474 0
 1074 013e 544B     		ldr	r3, .L67
 1075 0140 5A68     		ldr	r2, [r3, #4]
 1076              	.LVL113:
 1077 0142 1868     		ldr	r0, [r3]
 1078              	.LVL114:
 1079 0144 0221     		movs	r1, #2
 1080              	.LVL115:
 1081 0146 FFF7FEFF 		bl	lv_event_send
 1082              	.LVL116:
 475:..\..\..\arduinoLCD\test\Pain Drain\libraries\lvgl\src\core/lv_indev.c ****         }
 1083              		.loc 1 475 0
 1084 014a 201D     		adds	r0, r4, #4
ARM GAS  C:\Users\haske\AppData\Local\Temp\ccl1At1U.s 			page 45


 1085 014c FFF7FEFF 		bl	indev_reset_check
 1086              	.LVL117:
 1087 0150 0028     		cmp	r0, #0
 1088 0152 00D0     		beq	.LCB990
 1089 0154 9AE0     		b	.L48	@long jump
 1090              	.LCB990:
 1091              	.L60:
 479:..\..\..\arduinoLCD\test\Pain Drain\libraries\lvgl\src\core/lv_indev.c ****             i->proc.long_pr_sent = 1;
 1092              		.loc 1 479 0
 1093 0156 6379     		ldrb	r3, [r4, #5]
 1094 0158 DB07     		lsls	r3, r3, #31
 1095 015a 1DD4     		bmi	.L61
 479:..\..\..\arduinoLCD\test\Pain Drain\libraries\lvgl\src\core/lv_indev.c ****             i->proc.long_pr_sent = 1;
 1096              		.loc 1 479 0 is_stmt 0 discriminator 1
 1097 015c A06C     		ldr	r0, [r4, #72]
 1098 015e FFF7FEFF 		bl	lv_tick_elaps
 1099              	.LVL118:
 1100 0162 2368     		ldr	r3, [r4]
 1101 0164 9B8B     		ldrh	r3, [r3, #28]
 1102 0166 9842     		cmp	r0, r3
 1103 0168 16D9     		bls	.L61
 480:..\..\..\arduinoLCD\test\Pain Drain\libraries\lvgl\src\core/lv_indev.c ****             if(data->key == LV_KEY_ENTER) {
 1104              		.loc 1 480 0 is_stmt 1
 1105 016a 6279     		ldrb	r2, [r4, #5]
 1106 016c 0123     		movs	r3, #1
 1107 016e 1343     		orrs	r3, r2
 1108 0170 6371     		strb	r3, [r4, #5]
 481:..\..\..\arduinoLCD\test\Pain Drain\libraries\lvgl\src\core/lv_indev.c ****                 i->proc.longpr_rep_timestamp = lv_tick_get();
 1109              		.loc 1 481 0
 1110 0172 6B68     		ldr	r3, [r5, #4]
 1111 0174 0A2B     		cmp	r3, #10
 1112 0176 00D0     		beq	.LCB1014
 1113 0178 85E0     		b	.L54	@long jump
 1114              	.LCB1014:
 482:..\..\..\arduinoLCD\test\Pain Drain\libraries\lvgl\src\core/lv_indev.c ****                 lv_event_send(indev_obj_act, LV_EVENT_LONG_PRESSED, indev_act);
 1115              		.loc 1 482 0
 1116 017a FFF7FEFF 		bl	lv_tick_get
 1117              	.LVL119:
 1118 017e E064     		str	r0, [r4, #76]
 483:..\..\..\arduinoLCD\test\Pain Drain\libraries\lvgl\src\core/lv_indev.c ****                 if(indev_reset_check(&i->proc)) return;
 1119              		.loc 1 483 0
 1120 0180 434B     		ldr	r3, .L67
 1121 0182 5A68     		ldr	r2, [r3, #4]
 1122 0184 0521     		movs	r1, #5
 1123 0186 1868     		ldr	r0, [r3]
 1124 0188 FFF7FEFF 		bl	lv_event_send
 1125              	.LVL120:
 484:..\..\..\arduinoLCD\test\Pain Drain\libraries\lvgl\src\core/lv_indev.c ****             }
 1126              		.loc 1 484 0
 1127 018c 201D     		adds	r0, r4, #4
 1128 018e FFF7FEFF 		bl	indev_reset_check
 1129              	.LVL121:
 1130 0192 0028     		cmp	r0, #0
 1131 0194 77D0     		beq	.L54
 1132 0196 79E0     		b	.L48
 1133              	.L61:
 488:..\..\..\arduinoLCD\test\Pain Drain\libraries\lvgl\src\core/lv_indev.c ****                 lv_tick_elaps(i->proc.longpr_rep_timestamp) > i->driver->long_press_repeat_time) {
ARM GAS  C:\Users\haske\AppData\Local\Temp\ccl1At1U.s 			page 46


 1134              		.loc 1 488 0
 1135 0198 6379     		ldrb	r3, [r4, #5]
 1136 019a DB07     		lsls	r3, r3, #31
 1137 019c 73D5     		bpl	.L54
 489:..\..\..\arduinoLCD\test\Pain Drain\libraries\lvgl\src\core/lv_indev.c **** 
 1138              		.loc 1 489 0 discriminator 1
 1139 019e E06C     		ldr	r0, [r4, #76]
 1140 01a0 FFF7FEFF 		bl	lv_tick_elaps
 1141              	.LVL122:
 1142 01a4 2368     		ldr	r3, [r4]
 1143 01a6 DB8B     		ldrh	r3, [r3, #30]
 488:..\..\..\arduinoLCD\test\Pain Drain\libraries\lvgl\src\core/lv_indev.c ****                 lv_tick_elaps(i->proc.longpr_rep_timestamp) > i->driver->long_press_repeat_time) {
 1144              		.loc 1 488 0 discriminator 1
 1145 01a8 9842     		cmp	r0, r3
 1146 01aa 6CD9     		bls	.L54
 491:..\..\..\arduinoLCD\test\Pain Drain\libraries\lvgl\src\core/lv_indev.c **** 
 1147              		.loc 1 491 0
 1148 01ac FFF7FEFF 		bl	lv_tick_get
 1149              	.LVL123:
 1150 01b0 E064     		str	r0, [r4, #76]
 494:..\..\..\arduinoLCD\test\Pain Drain\libraries\lvgl\src\core/lv_indev.c ****                 lv_event_send(indev_obj_act, LV_EVENT_LONG_PRESSED_REPEAT, indev_act);
 1151              		.loc 1 494 0
 1152 01b2 6968     		ldr	r1, [r5, #4]
 1153 01b4 0A29     		cmp	r1, #10
 1154 01b6 0BD1     		bne	.L62
 495:..\..\..\arduinoLCD\test\Pain Drain\libraries\lvgl\src\core/lv_indev.c ****                 if(indev_reset_check(&i->proc)) return;
 1155              		.loc 1 495 0
 1156 01b8 354B     		ldr	r3, .L67
 1157 01ba 5A68     		ldr	r2, [r3, #4]
 1158 01bc 0439     		subs	r1, r1, #4
 1159 01be 1868     		ldr	r0, [r3]
 1160 01c0 FFF7FEFF 		bl	lv_event_send
 1161              	.LVL124:
 496:..\..\..\arduinoLCD\test\Pain Drain\libraries\lvgl\src\core/lv_indev.c ****             }
 1162              		.loc 1 496 0
 1163 01c4 201D     		adds	r0, r4, #4
 1164 01c6 FFF7FEFF 		bl	indev_reset_check
 1165              	.LVL125:
 1166 01ca 0028     		cmp	r0, #0
 1167 01cc 5BD0     		beq	.L54
 1168 01ce 5DE0     		b	.L48
 1169              	.L62:
 499:..\..\..\arduinoLCD\test\Pain Drain\libraries\lvgl\src\core/lv_indev.c ****                 lv_group_set_editing(g, false); /*Editing is not used by KEYPAD is be sure it is di
 1170              		.loc 1 499 0
 1171 01d0 0929     		cmp	r1, #9
 1172 01d2 0CD1     		bne	.L63
 500:..\..\..\arduinoLCD\test\Pain Drain\libraries\lvgl\src\core/lv_indev.c ****                 lv_group_focus_next(g);
 1173              		.loc 1 500 0
 1174 01d4 0021     		movs	r1, #0
 1175 01d6 3800     		movs	r0, r7
 1176 01d8 FFF7FEFF 		bl	lv_group_set_editing
 1177              	.LVL126:
 501:..\..\..\arduinoLCD\test\Pain Drain\libraries\lvgl\src\core/lv_indev.c ****                 if(indev_reset_check(&i->proc)) return;
 1178              		.loc 1 501 0
 1179 01dc 3800     		movs	r0, r7
 1180 01de FFF7FEFF 		bl	lv_group_focus_next
 1181              	.LVL127:
ARM GAS  C:\Users\haske\AppData\Local\Temp\ccl1At1U.s 			page 47


 502:..\..\..\arduinoLCD\test\Pain Drain\libraries\lvgl\src\core/lv_indev.c ****             }
 1182              		.loc 1 502 0
 1183 01e2 201D     		adds	r0, r4, #4
 1184 01e4 FFF7FEFF 		bl	indev_reset_check
 1185              	.LVL128:
 1186 01e8 0028     		cmp	r0, #0
 1187 01ea 4CD0     		beq	.L54
 1188 01ec 4EE0     		b	.L48
 1189              	.L63:
 505:..\..\..\arduinoLCD\test\Pain Drain\libraries\lvgl\src\core/lv_indev.c ****                 lv_group_set_editing(g, false); /*Editing is not used by KEYPAD is be sure it is di
 1190              		.loc 1 505 0
 1191 01ee 0B29     		cmp	r1, #11
 1192 01f0 0CD1     		bne	.L64
 506:..\..\..\arduinoLCD\test\Pain Drain\libraries\lvgl\src\core/lv_indev.c ****                 lv_group_focus_prev(g);
 1193              		.loc 1 506 0
 1194 01f2 0021     		movs	r1, #0
 1195 01f4 3800     		movs	r0, r7
 1196 01f6 FFF7FEFF 		bl	lv_group_set_editing
 1197              	.LVL129:
 507:..\..\..\arduinoLCD\test\Pain Drain\libraries\lvgl\src\core/lv_indev.c ****                 if(indev_reset_check(&i->proc)) return;
 1198              		.loc 1 507 0
 1199 01fa 3800     		movs	r0, r7
 1200 01fc FFF7FEFF 		bl	lv_group_focus_prev
 1201              	.LVL130:
 508:..\..\..\arduinoLCD\test\Pain Drain\libraries\lvgl\src\core/lv_indev.c ****             }
 1202              		.loc 1 508 0
 1203 0200 201D     		adds	r0, r4, #4
 1204 0202 FFF7FEFF 		bl	indev_reset_check
 1205              	.LVL131:
 1206 0206 0028     		cmp	r0, #0
 1207 0208 3DD0     		beq	.L54
 1208 020a 3FE0     		b	.L48
 1209              	.L64:
 512:..\..\..\arduinoLCD\test\Pain Drain\libraries\lvgl\src\core/lv_indev.c ****                 if(indev_reset_check(&i->proc)) return;
 1210              		.loc 1 512 0
 1211 020c 3800     		movs	r0, r7
 1212 020e FFF7FEFF 		bl	lv_group_send_data
 1213              	.LVL132:
 513:..\..\..\arduinoLCD\test\Pain Drain\libraries\lvgl\src\core/lv_indev.c ****             }
 1214              		.loc 1 513 0
 1215 0212 201D     		adds	r0, r4, #4
 1216 0214 FFF7FEFF 		bl	indev_reset_check
 1217              	.LVL133:
 1218 0218 0028     		cmp	r0, #0
 1219 021a 34D0     		beq	.L54
 1220 021c 36E0     		b	.L48
 1221              	.LVL134:
 1222              	.L59:
 518:..\..\..\arduinoLCD\test\Pain Drain\libraries\lvgl\src\core/lv_indev.c ****         LV_LOG_INFO("%" LV_PRIu32 " key is released", data->key);
 1223              		.loc 1 518 0
 1224 021e 002E     		cmp	r6, #0
 1225 0220 31D1     		bne	.L54
 518:..\..\..\arduinoLCD\test\Pain Drain\libraries\lvgl\src\core/lv_indev.c ****         LV_LOG_INFO("%" LV_PRIu32 " key is released", data->key);
 1226              		.loc 1 518 0 is_stmt 0 discriminator 1
 1227 0222 002B     		cmp	r3, #0
 1228 0224 2FD1     		bne	.L54
 518:..\..\..\arduinoLCD\test\Pain Drain\libraries\lvgl\src\core/lv_indev.c ****         LV_LOG_INFO("%" LV_PRIu32 " key is released", data->key);
ARM GAS  C:\Users\haske\AppData\Local\Temp\ccl1At1U.s 			page 48


 1229              		.loc 1 518 0 discriminator 2
 1230 0226 012A     		cmp	r2, #1
 1231 0228 2DD1     		bne	.L54
 521:..\..\..\arduinoLCD\test\Pain Drain\libraries\lvgl\src\core/lv_indev.c ****         if(data->key == LV_KEY_ENTER) {
 1232              		.loc 1 521 0 is_stmt 1
 1233 022a 6960     		str	r1, [r5, #4]
 522:..\..\..\arduinoLCD\test\Pain Drain\libraries\lvgl\src\core/lv_indev.c **** 
 1234              		.loc 1 522 0
 1235 022c 0A29     		cmp	r1, #10
 1236 022e 24D1     		bne	.L65
 524:..\..\..\arduinoLCD\test\Pain Drain\libraries\lvgl\src\core/lv_indev.c ****             if(indev_reset_check(&i->proc)) return;
 1237              		.loc 1 524 0
 1238 0230 174B     		ldr	r3, .L67
 1239 0232 5A68     		ldr	r2, [r3, #4]
 1240              	.LVL135:
 1241 0234 1868     		ldr	r0, [r3]
 1242              	.LVL136:
 1243 0236 0239     		subs	r1, r1, #2
 1244              	.LVL137:
 1245 0238 FFF7FEFF 		bl	lv_event_send
 1246              	.LVL138:
 525:..\..\..\arduinoLCD\test\Pain Drain\libraries\lvgl\src\core/lv_indev.c **** 
 1247              		.loc 1 525 0
 1248 023c 251D     		adds	r5, r4, #4
 1249              	.LVL139:
 1250 023e 2800     		movs	r0, r5
 1251 0240 FFF7FEFF 		bl	indev_reset_check
 1252              	.LVL140:
 1253 0244 0028     		cmp	r0, #0
 1254 0246 21D1     		bne	.L48
 527:..\..\..\arduinoLCD\test\Pain Drain\libraries\lvgl\src\core/lv_indev.c ****                 lv_event_send(indev_obj_act, LV_EVENT_SHORT_CLICKED, indev_act);
 1255              		.loc 1 527 0
 1256 0248 6379     		ldrb	r3, [r4, #5]
 1257 024a DB07     		lsls	r3, r3, #31
 1258 024c 0AD4     		bmi	.L66
 528:..\..\..\arduinoLCD\test\Pain Drain\libraries\lvgl\src\core/lv_indev.c ****                 if(indev_reset_check(&i->proc)) return;
 1259              		.loc 1 528 0
 1260 024e 104B     		ldr	r3, .L67
 1261 0250 5A68     		ldr	r2, [r3, #4]
 1262 0252 1868     		ldr	r0, [r3]
 1263 0254 0421     		movs	r1, #4
 1264 0256 FFF7FEFF 		bl	lv_event_send
 1265              	.LVL141:
 529:..\..\..\arduinoLCD\test\Pain Drain\libraries\lvgl\src\core/lv_indev.c ****             }
 1266              		.loc 1 529 0
 1267 025a 2800     		movs	r0, r5
 1268 025c FFF7FEFF 		bl	indev_reset_check
 1269              	.LVL142:
 1270 0260 0028     		cmp	r0, #0
 1271 0262 13D1     		bne	.L48
 1272              	.L66:
 532:..\..\..\arduinoLCD\test\Pain Drain\libraries\lvgl\src\core/lv_indev.c ****             if(indev_reset_check(&i->proc)) return;
 1273              		.loc 1 532 0
 1274 0264 0A4B     		ldr	r3, .L67
 1275 0266 5A68     		ldr	r2, [r3, #4]
 1276 0268 1868     		ldr	r0, [r3]
 1277 026a 0721     		movs	r1, #7
ARM GAS  C:\Users\haske\AppData\Local\Temp\ccl1At1U.s 			page 49


 1278 026c FFF7FEFF 		bl	lv_event_send
 1279              	.LVL143:
 533:..\..\..\arduinoLCD\test\Pain Drain\libraries\lvgl\src\core/lv_indev.c **** 
 1280              		.loc 1 533 0
 1281 0270 2800     		movs	r0, r5
 1282 0272 FFF7FEFF 		bl	indev_reset_check
 1283              	.LVL144:
 1284 0276 0028     		cmp	r0, #0
 1285 0278 08D1     		bne	.L48
 1286              	.L65:
 536:..\..\..\arduinoLCD\test\Pain Drain\libraries\lvgl\src\core/lv_indev.c ****         i->proc.long_pr_sent = 0;
 1287              		.loc 1 536 0
 1288 027a 0023     		movs	r3, #0
 1289 027c A364     		str	r3, [r4, #72]
 537:..\..\..\arduinoLCD\test\Pain Drain\libraries\lvgl\src\core/lv_indev.c ****     }
 1290              		.loc 1 537 0
 1291 027e 6379     		ldrb	r3, [r4, #5]
 1292 0280 0122     		movs	r2, #1
 1293 0282 9343     		bics	r3, r2
 1294 0284 6371     		strb	r3, [r4, #5]
 1295              	.LVL145:
 1296              	.L54:
 539:..\..\..\arduinoLCD\test\Pain Drain\libraries\lvgl\src\core/lv_indev.c **** }
 1297              		.loc 1 539 0
 1298 0286 0022     		movs	r2, #0
 1299 0288 014B     		ldr	r3, .L67
 1300 028a 1A60     		str	r2, [r3]
 1301              	.LVL146:
 1302              	.L48:
 540:..\..\..\arduinoLCD\test\Pain Drain\libraries\lvgl\src\core/lv_indev.c **** 
 1303              		.loc 1 540 0
 1304              		@ sp needed
 1305 028c F8BD     		pop	{r3, r4, r5, r6, r7, pc}
 1306              	.L68:
 1307 028e C046     		.align	2
 1308              	.L67:
 1309 0290 00000000 		.word	.LANCHOR0
 1310              		.cfi_endproc
 1311              	.LFE185:
 1312              		.size	indev_keypad_proc, .-indev_keypad_proc
 1313              		.section	.text.indev_encoder_proc,"ax",%progbits
 1314              		.align	2
 1315              		.code	16
 1316              		.thumb_func
 1317              		.type	indev_encoder_proc, %function
 1318              	indev_encoder_proc:
 1319              	.LFB186:
 548:..\..\..\arduinoLCD\test\Pain Drain\libraries\lvgl\src\core/lv_indev.c ****     if(data->state == LV_INDEV_STATE_PRESSED && i->proc.wait_until_release) return;
 1320              		.loc 1 548 0
 1321              		.cfi_startproc
 1322              		@ args = 0, pretend = 0, frame = 0
 1323              		@ frame_needed = 0, uses_anonymous_args = 0
 1324              	.LVL147:
 1325 0000 F8B5     		push	{r3, r4, r5, r6, r7, lr}
 1326              		.cfi_def_cfa_offset 24
 1327              		.cfi_offset 3, -24
 1328              		.cfi_offset 4, -20
ARM GAS  C:\Users\haske\AppData\Local\Temp\ccl1At1U.s 			page 50


 1329              		.cfi_offset 5, -16
 1330              		.cfi_offset 6, -12
 1331              		.cfi_offset 7, -8
 1332              		.cfi_offset 14, -4
 1333 0002 0400     		movs	r4, r0
 1334 0004 0D00     		movs	r5, r1
 549:..\..\..\arduinoLCD\test\Pain Drain\libraries\lvgl\src\core/lv_indev.c **** 
 1335              		.loc 1 549 0
 1336 0006 8B7B     		ldrb	r3, [r1, #14]
 1337 0008 012B     		cmp	r3, #1
 1338 000a 03D1     		bne	.L70
 549:..\..\..\arduinoLCD\test\Pain Drain\libraries\lvgl\src\core/lv_indev.c **** 
 1339              		.loc 1 549 0 is_stmt 0 discriminator 1
 1340 000c 4379     		ldrb	r3, [r0, #5]
 1341 000e 1B07     		lsls	r3, r3, #28
 1342 0010 00D5     		bpl	.LCB1247
 1343 0012 0BE2     		b	.L69	@long jump
 1344              	.LCB1247:
 1345              	.L70:
 551:..\..\..\arduinoLCD\test\Pain Drain\libraries\lvgl\src\core/lv_indev.c ****         i->proc.wait_until_release      = 0;
 1346              		.loc 1 551 0 is_stmt 1
 1347 0014 6379     		ldrb	r3, [r4, #5]
 1348 0016 1B07     		lsls	r3, r3, #28
 1349 0018 08D5     		bpl	.L72
 552:..\..\..\arduinoLCD\test\Pain Drain\libraries\lvgl\src\core/lv_indev.c ****         i->proc.pr_timestamp            = 0;
 1350              		.loc 1 552 0
 1351 001a 6379     		ldrb	r3, [r4, #5]
 553:..\..\..\arduinoLCD\test\Pain Drain\libraries\lvgl\src\core/lv_indev.c ****         i->proc.long_pr_sent            = 0;
 1352              		.loc 1 553 0
 1353 001c 0022     		movs	r2, #0
 1354 001e A264     		str	r2, [r4, #72]
 554:..\..\..\arduinoLCD\test\Pain Drain\libraries\lvgl\src\core/lv_indev.c ****         i->proc.types.keypad.last_state = LV_INDEV_STATE_RELEASED; /*To skip the processing of rele
 1355              		.loc 1 554 0
 1356 0020 0821     		movs	r1, #8
 1357              	.LVL148:
 1358 0022 8B43     		bics	r3, r1
 1359 0024 0739     		subs	r1, r1, #7
 1360 0026 8B43     		bics	r3, r1
 1361 0028 6371     		strb	r3, [r4, #5]
 555:..\..\..\arduinoLCD\test\Pain Drain\libraries\lvgl\src\core/lv_indev.c ****     }
 1362              		.loc 1 555 0
 1363 002a 2272     		strb	r2, [r4, #8]
 1364              	.L72:
 560:..\..\..\arduinoLCD\test\Pain Drain\libraries\lvgl\src\core/lv_indev.c ****     i->proc.types.keypad.last_state = data->state;
 1365              		.loc 1 560 0
 1366 002c 277A     		ldrb	r7, [r4, #8]
 1367              	.LVL149:
 561:..\..\..\arduinoLCD\test\Pain Drain\libraries\lvgl\src\core/lv_indev.c ****     i->proc.types.keypad.last_key   = data->key;
 1368              		.loc 1 561 0
 1369 002e AB7B     		ldrb	r3, [r5, #14]
 1370 0030 2372     		strb	r3, [r4, #8]
 562:..\..\..\arduinoLCD\test\Pain Drain\libraries\lvgl\src\core/lv_indev.c **** 
 1371              		.loc 1 562 0
 1372 0032 6B68     		ldr	r3, [r5, #4]
 1373 0034 E360     		str	r3, [r4, #12]
 564:..\..\..\arduinoLCD\test\Pain Drain\libraries\lvgl\src\core/lv_indev.c ****     if(g == NULL) return;
 1374              		.loc 1 564 0
ARM GAS  C:\Users\haske\AppData\Local\Temp\ccl1At1U.s 			page 51


 1375 0036 666D     		ldr	r6, [r4, #84]
 1376              	.LVL150:
 565:..\..\..\arduinoLCD\test\Pain Drain\libraries\lvgl\src\core/lv_indev.c **** 
 1377              		.loc 1 565 0
 1378 0038 002E     		cmp	r6, #0
 1379 003a 00D1     		bne	.LCB1279
 1380 003c F6E1     		b	.L69	@long jump
 1381              	.LCB1279:
 567:..\..\..\arduinoLCD\test\Pain Drain\libraries\lvgl\src\core/lv_indev.c ****     if(indev_obj_act == NULL) return;
 1382              		.loc 1 567 0
 1383 003e 3000     		movs	r0, r6
 1384              	.LVL151:
 1385 0040 FFF7FEFF 		bl	lv_group_get_focused
 1386              	.LVL152:
 1387 0044 C24B     		ldr	r3, .L122
 1388 0046 1860     		str	r0, [r3]
 568:..\..\..\arduinoLCD\test\Pain Drain\libraries\lvgl\src\core/lv_indev.c **** 
 1389              		.loc 1 568 0
 1390 0048 0028     		cmp	r0, #0
 1391 004a 00D1     		bne	.LCB1287
 1392 004c EEE1     		b	.L69	@long jump
 1393              	.LCB1287:
 571:..\..\..\arduinoLCD\test\Pain Drain\libraries\lvgl\src\core/lv_indev.c ****         data->enc_diff = 0;
 1394              		.loc 1 571 0
 1395 004e AB7B     		ldrb	r3, [r5, #14]
 1396 0050 002B     		cmp	r3, #0
 1397 0052 01D0     		beq	.L73
 572:..\..\..\arduinoLCD\test\Pain Drain\libraries\lvgl\src\core/lv_indev.c ****     }
 1398              		.loc 1 572 0
 1399 0054 0023     		movs	r3, #0
 1400 0056 AB81     		strh	r3, [r5, #12]
 1401              	.L73:
 576:..\..\..\arduinoLCD\test\Pain Drain\libraries\lvgl\src\core/lv_indev.c ****     if(indev_obj_act == NULL) return;
 1402              		.loc 1 576 0
 1403 0058 3000     		movs	r0, r6
 1404 005a FFF7FEFF 		bl	lv_group_get_focused
 1405              	.LVL153:
 1406 005e BC4B     		ldr	r3, .L122
 1407 0060 1860     		str	r0, [r3]
 577:..\..\..\arduinoLCD\test\Pain Drain\libraries\lvgl\src\core/lv_indev.c **** 
 1408              		.loc 1 577 0
 1409 0062 0028     		cmp	r0, #0
 1410 0064 00D1     		bne	.LCB1301
 1411 0066 E1E1     		b	.L69	@long jump
 1412              	.LCB1301:
 580:..\..\..\arduinoLCD\test\Pain Drain\libraries\lvgl\src\core/lv_indev.c ****         LV_LOG_INFO("pressed");
 1413              		.loc 1 580 0
 1414 0068 AB7B     		ldrb	r3, [r5, #14]
 1415 006a 012B     		cmp	r3, #1
 1416 006c 5ED1     		bne	.L74
 580:..\..\..\arduinoLCD\test\Pain Drain\libraries\lvgl\src\core/lv_indev.c ****         LV_LOG_INFO("pressed");
 1417              		.loc 1 580 0 is_stmt 0 discriminator 1
 1418 006e 002F     		cmp	r7, #0
 1419 0070 5CD1     		bne	.L74
 583:..\..\..\arduinoLCD\test\Pain Drain\libraries\lvgl\src\core/lv_indev.c **** 
 1420              		.loc 1 583 0 is_stmt 1
 1421 0072 FFF7FEFF 		bl	lv_tick_get
ARM GAS  C:\Users\haske\AppData\Local\Temp\ccl1At1U.s 			page 52


 1422              	.LVL154:
 1423 0076 A064     		str	r0, [r4, #72]
 585:..\..\..\arduinoLCD\test\Pain Drain\libraries\lvgl\src\core/lv_indev.c ****             bool editable_or_scrollable = lv_obj_is_editable(indev_obj_act) ||
 1424              		.loc 1 585 0
 1425 0078 6968     		ldr	r1, [r5, #4]
 1426 007a 0A29     		cmp	r1, #10
 1427 007c 25D1     		bne	.L75
 1428              	.LBB12:
 586:..\..\..\arduinoLCD\test\Pain Drain\libraries\lvgl\src\core/lv_indev.c ****                                           lv_obj_has_flag(indev_obj_act, LV_OBJ_FLAG_SCROLLABLE);
 1429              		.loc 1 586 0
 1430 007e B44B     		ldr	r3, .L122
 1431 0080 1868     		ldr	r0, [r3]
 1432 0082 FFF7FEFF 		bl	lv_obj_is_editable
 1433              	.LVL155:
 1434 0086 0028     		cmp	r0, #0
 1435 0088 07D1     		bne	.L109
 587:..\..\..\arduinoLCD\test\Pain Drain\libraries\lvgl\src\core/lv_indev.c ****             if(lv_group_get_editing(g) == true || editable_or_scrollable == false) {
 1436              		.loc 1 587 0 discriminator 2
 1437 008a B14B     		ldr	r3, .L122
 1438 008c 1868     		ldr	r0, [r3]
 1439 008e 1021     		movs	r1, #16
 1440 0090 FFF7FEFF 		bl	lv_obj_has_flag
 1441              	.LVL156:
 586:..\..\..\arduinoLCD\test\Pain Drain\libraries\lvgl\src\core/lv_indev.c ****                                           lv_obj_has_flag(indev_obj_act, LV_OBJ_FLAG_SCROLLABLE);
 1442              		.loc 1 586 0 discriminator 2
 1443 0094 0028     		cmp	r0, #0
 1444 0096 02D1     		bne	.L110
 1445 0098 02E0     		b	.L76
 1446              	.L109:
 586:..\..\..\arduinoLCD\test\Pain Drain\libraries\lvgl\src\core/lv_indev.c ****                                           lv_obj_has_flag(indev_obj_act, LV_OBJ_FLAG_SCROLLABLE);
 1447              		.loc 1 586 0 is_stmt 0
 1448 009a 0127     		movs	r7, #1
 1449              	.LVL157:
 1450 009c 00E0     		b	.L76
 1451              	.LVL158:
 1452              	.L110:
 1453 009e 0127     		movs	r7, #1
 1454              	.LVL159:
 1455              	.L76:
 588:..\..\..\arduinoLCD\test\Pain Drain\libraries\lvgl\src\core/lv_indev.c ****                 lv_event_send(indev_obj_act, LV_EVENT_PRESSED, indev_act);
 1456              		.loc 1 588 0 is_stmt 1 discriminator 6
 1457 00a0 3000     		movs	r0, r6
 1458 00a2 FFF7FEFF 		bl	lv_group_get_editing
 1459              	.LVL160:
 1460 00a6 0028     		cmp	r0, #0
 1461 00a8 02D1     		bne	.L77
 588:..\..\..\arduinoLCD\test\Pain Drain\libraries\lvgl\src\core/lv_indev.c ****                 lv_event_send(indev_obj_act, LV_EVENT_PRESSED, indev_act);
 1462              		.loc 1 588 0 is_stmt 0 discriminator 1
 1463 00aa 002F     		cmp	r7, #0
 1464 00ac 00D0     		beq	.LCB1351
 1465 00ae 5EE1     		b	.L78	@long jump
 1466              	.LCB1351:
 1467              	.L77:
 589:..\..\..\arduinoLCD\test\Pain Drain\libraries\lvgl\src\core/lv_indev.c ****                 if(indev_reset_check(&i->proc)) return;
 1468              		.loc 1 589 0 is_stmt 1
 1469 00b0 A74B     		ldr	r3, .L122
 1470 00b2 5A68     		ldr	r2, [r3, #4]
ARM GAS  C:\Users\haske\AppData\Local\Temp\ccl1At1U.s 			page 53


 1471 00b4 1868     		ldr	r0, [r3]
 1472 00b6 0121     		movs	r1, #1
 1473 00b8 FFF7FEFF 		bl	lv_event_send
 1474              	.LVL161:
 590:..\..\..\arduinoLCD\test\Pain Drain\libraries\lvgl\src\core/lv_indev.c ****             }
 1475              		.loc 1 590 0
 1476 00bc 201D     		adds	r0, r4, #4
 1477 00be FFF7FEFF 		bl	indev_reset_check
 1478              	.LVL162:
 1479 00c2 0028     		cmp	r0, #0
 1480 00c4 00D1     		bne	.LCB1363
 1481 00c6 52E1     		b	.L78	@long jump
 1482              	.LCB1363:
 1483 00c8 B0E1     		b	.L69
 1484              	.LVL163:
 1485              	.L75:
 1486              	.LBE12:
 593:..\..\..\arduinoLCD\test\Pain Drain\libraries\lvgl\src\core/lv_indev.c ****             /*emulate encoder left*/
 1487              		.loc 1 593 0
 1488 00ca 1429     		cmp	r1, #20
 1489 00cc 04D1     		bne	.L79
 595:..\..\..\arduinoLCD\test\Pain Drain\libraries\lvgl\src\core/lv_indev.c ****         }
 1490              		.loc 1 595 0
 1491 00ce 0C22     		movs	r2, #12
 1492 00d0 AB5E     		ldrsh	r3, [r5, r2]
 1493 00d2 013B     		subs	r3, r3, #1
 1494 00d4 AB81     		strh	r3, [r5, #12]
 1495 00d6 4AE1     		b	.L78
 1496              	.L79:
 597:..\..\..\arduinoLCD\test\Pain Drain\libraries\lvgl\src\core/lv_indev.c ****             /*emulate encoder right*/
 1497              		.loc 1 597 0
 1498 00d8 1329     		cmp	r1, #19
 1499 00da 04D1     		bne	.L80
 599:..\..\..\arduinoLCD\test\Pain Drain\libraries\lvgl\src\core/lv_indev.c ****         }
 1500              		.loc 1 599 0
 1501 00dc 0C22     		movs	r2, #12
 1502 00de AB5E     		ldrsh	r3, [r5, r2]
 1503 00e0 0133     		adds	r3, r3, #1
 1504 00e2 AB81     		strh	r3, [r5, #12]
 1505 00e4 43E1     		b	.L78
 1506              	.L80:
 601:..\..\..\arduinoLCD\test\Pain Drain\libraries\lvgl\src\core/lv_indev.c ****             /*Send the ESC as a normal KEY*/
 1507              		.loc 1 601 0
 1508 00e6 1B29     		cmp	r1, #27
 1509 00e8 16D1     		bne	.L81
 603:..\..\..\arduinoLCD\test\Pain Drain\libraries\lvgl\src\core/lv_indev.c ****             if(indev_reset_check(&i->proc)) return;
 1510              		.loc 1 603 0
 1511 00ea 3000     		movs	r0, r6
 1512 00ec FFF7FEFF 		bl	lv_group_send_data
 1513              	.LVL164:
 604:..\..\..\arduinoLCD\test\Pain Drain\libraries\lvgl\src\core/lv_indev.c **** 
 1514              		.loc 1 604 0
 1515 00f0 271D     		adds	r7, r4, #4
 1516              	.LVL165:
 1517 00f2 3800     		movs	r0, r7
 1518 00f4 FFF7FEFF 		bl	indev_reset_check
 1519              	.LVL166:
ARM GAS  C:\Users\haske\AppData\Local\Temp\ccl1At1U.s 			page 54


 1520 00f8 0028     		cmp	r0, #0
 1521 00fa 00D0     		beq	.LCB1404
 1522 00fc 96E1     		b	.L69	@long jump
 1523              	.LCB1404:
 606:..\..\..\arduinoLCD\test\Pain Drain\libraries\lvgl\src\core/lv_indev.c ****             if(indev_reset_check(&i->proc)) return;
 1524              		.loc 1 606 0
 1525 00fe 944B     		ldr	r3, .L122
 1526 0100 5A68     		ldr	r2, [r3, #4]
 1527 0102 1868     		ldr	r0, [r3]
 1528 0104 2021     		movs	r1, #32
 1529 0106 FFF7FEFF 		bl	lv_event_send
 1530              	.LVL167:
 607:..\..\..\arduinoLCD\test\Pain Drain\libraries\lvgl\src\core/lv_indev.c ****         }
 1531              		.loc 1 607 0
 1532 010a 3800     		movs	r0, r7
 1533 010c FFF7FEFF 		bl	indev_reset_check
 1534              	.LVL168:
 1535 0110 0028     		cmp	r0, #0
 1536 0112 00D1     		bne	.LCB1415
 1537 0114 2BE1     		b	.L78	@long jump
 1538              	.LCB1415:
 1539 0116 89E1     		b	.L69
 1540              	.LVL169:
 1541              	.L81:
 611:..\..\..\arduinoLCD\test\Pain Drain\libraries\lvgl\src\core/lv_indev.c ****             if(indev_reset_check(&i->proc)) return;
 1542              		.loc 1 611 0
 1543 0118 3000     		movs	r0, r6
 1544 011a FFF7FEFF 		bl	lv_group_send_data
 1545              	.LVL170:
 612:..\..\..\arduinoLCD\test\Pain Drain\libraries\lvgl\src\core/lv_indev.c ****         }
 1546              		.loc 1 612 0
 1547 011e 201D     		adds	r0, r4, #4
 1548 0120 FFF7FEFF 		bl	indev_reset_check
 1549              	.LVL171:
 1550 0124 0028     		cmp	r0, #0
 1551 0126 00D1     		bne	.LCB1430
 1552 0128 21E1     		b	.L78	@long jump
 1553              	.LCB1430:
 1554 012a 7FE1     		b	.L69
 1555              	.L74:
 616:..\..\..\arduinoLCD\test\Pain Drain\libraries\lvgl\src\core/lv_indev.c ****         /*Long press*/
 1556              		.loc 1 616 0
 1557 012c 012B     		cmp	r3, #1
 1558 012e 00D0     		beq	.LCB1438
 1559 0130 88E0     		b	.L82	@long jump
 1560              	.LCB1438:
 616:..\..\..\arduinoLCD\test\Pain Drain\libraries\lvgl\src\core/lv_indev.c ****         /*Long press*/
 1561              		.loc 1 616 0 is_stmt 0 discriminator 1
 1562 0132 012F     		cmp	r7, #1
 1563 0134 00D0     		beq	.LCB1440
 1564 0136 85E0     		b	.L82	@long jump
 1565              	.LCB1440:
 618:..\..\..\arduinoLCD\test\Pain Drain\libraries\lvgl\src\core/lv_indev.c **** 
 1566              		.loc 1 618 0 is_stmt 1
 1567 0138 6379     		ldrb	r3, [r4, #5]
 1568 013a DB07     		lsls	r3, r3, #31
 1569 013c 4BD4     		bmi	.L83
ARM GAS  C:\Users\haske\AppData\Local\Temp\ccl1At1U.s 			page 55


 618:..\..\..\arduinoLCD\test\Pain Drain\libraries\lvgl\src\core/lv_indev.c **** 
 1570              		.loc 1 618 0 is_stmt 0 discriminator 1
 1571 013e A06C     		ldr	r0, [r4, #72]
 1572 0140 FFF7FEFF 		bl	lv_tick_elaps
 1573              	.LVL172:
 1574 0144 2368     		ldr	r3, [r4]
 1575 0146 9B8B     		ldrh	r3, [r3, #28]
 1576 0148 9842     		cmp	r0, r3
 1577 014a 44D9     		bls	.L83
 620:..\..\..\arduinoLCD\test\Pain Drain\libraries\lvgl\src\core/lv_indev.c ****             i->proc.longpr_rep_timestamp = lv_tick_get();
 1578              		.loc 1 620 0 is_stmt 1
 1579 014c 6279     		ldrb	r2, [r4, #5]
 1580 014e 0123     		movs	r3, #1
 1581 0150 1343     		orrs	r3, r2
 1582 0152 6371     		strb	r3, [r4, #5]
 621:..\..\..\arduinoLCD\test\Pain Drain\libraries\lvgl\src\core/lv_indev.c **** 
 1583              		.loc 1 621 0
 1584 0154 FFF7FEFF 		bl	lv_tick_get
 1585              	.LVL173:
 1586 0158 E064     		str	r0, [r4, #76]
 623:..\..\..\arduinoLCD\test\Pain Drain\libraries\lvgl\src\core/lv_indev.c ****                 bool editable_or_scrollable = lv_obj_is_editable(indev_obj_act) ||
 1587              		.loc 1 623 0
 1588 015a 6B68     		ldr	r3, [r5, #4]
 1589 015c 0A2B     		cmp	r3, #10
 1590 015e 35D1     		bne	.L84
 1591              	.LBB13:
 624:..\..\..\arduinoLCD\test\Pain Drain\libraries\lvgl\src\core/lv_indev.c ****                                               lv_obj_has_flag(indev_obj_act, LV_OBJ_FLAG_SCROLLABLE
 1592              		.loc 1 624 0
 1593 0160 7B4B     		ldr	r3, .L122
 1594 0162 1868     		ldr	r0, [r3]
 1595 0164 FFF7FEFF 		bl	lv_obj_is_editable
 1596              	.LVL174:
 1597 0168 0028     		cmp	r0, #0
 1598 016a 08D1     		bne	.L111
 625:..\..\..\arduinoLCD\test\Pain Drain\libraries\lvgl\src\core/lv_indev.c **** 
 1599              		.loc 1 625 0 discriminator 2
 1600 016c 1021     		movs	r1, #16
 1601 016e 784B     		ldr	r3, .L122
 1602 0170 1868     		ldr	r0, [r3]
 1603 0172 FFF7FEFF 		bl	lv_obj_has_flag
 1604              	.LVL175:
 624:..\..\..\arduinoLCD\test\Pain Drain\libraries\lvgl\src\core/lv_indev.c ****                                               lv_obj_has_flag(indev_obj_act, LV_OBJ_FLAG_SCROLLABLE
 1605              		.loc 1 624 0 discriminator 2
 1606 0176 0028     		cmp	r0, #0
 1607 0178 03D1     		bne	.L112
 624:..\..\..\arduinoLCD\test\Pain Drain\libraries\lvgl\src\core/lv_indev.c ****                                               lv_obj_has_flag(indev_obj_act, LV_OBJ_FLAG_SCROLLABLE
 1608              		.loc 1 624 0 is_stmt 0
 1609 017a 0023     		movs	r3, #0
 1610 017c 02E0     		b	.L85
 1611              	.L111:
 1612 017e 0123     		movs	r3, #1
 1613 0180 00E0     		b	.L85
 1614              	.L112:
 1615 0182 0123     		movs	r3, #1
 1616              	.L85:
 1617              	.LVL176:
 628:..\..\..\arduinoLCD\test\Pain Drain\libraries\lvgl\src\core/lv_indev.c ****                     /*Don't leave edit mode if there is only one object (nowhere to navigate)*/
ARM GAS  C:\Users\haske\AppData\Local\Temp\ccl1At1U.s 			page 56


 1618              		.loc 1 628 0 is_stmt 1 discriminator 6
 1619 0184 002B     		cmp	r3, #0
 1620 0186 15D0     		beq	.L86
 630:..\..\..\arduinoLCD\test\Pain Drain\libraries\lvgl\src\core/lv_indev.c ****                         LV_LOG_INFO("toggling edit mode");
 1621              		.loc 1 630 0
 1622 0188 3000     		movs	r0, r6
 1623 018a FFF7FEFF 		bl	lv_group_get_obj_count
 1624              	.LVL177:
 1625 018e 0128     		cmp	r0, #1
 1626 0190 1CD9     		bls	.L84
 632:..\..\..\arduinoLCD\test\Pain Drain\libraries\lvgl\src\core/lv_indev.c ****                         lv_obj_clear_state(indev_obj_act, LV_STATE_PRESSED);    /*Remove the presse
 1627              		.loc 1 632 0
 1628 0192 3000     		movs	r0, r6
 1629 0194 FFF7FEFF 		bl	lv_group_get_editing
 1630              	.LVL178:
 1631 0198 0028     		cmp	r0, #0
 1632 019a 01D0     		beq	.L113
 1633 019c 0021     		movs	r1, #0
 1634 019e 00E0     		b	.L87
 1635              	.L113:
 1636 01a0 0121     		movs	r1, #1
 1637              	.L87:
 632:..\..\..\arduinoLCD\test\Pain Drain\libraries\lvgl\src\core/lv_indev.c ****                         lv_obj_clear_state(indev_obj_act, LV_STATE_PRESSED);    /*Remove the presse
 1638              		.loc 1 632 0 is_stmt 0 discriminator 4
 1639 01a2 3000     		movs	r0, r6
 1640 01a4 FFF7FEFF 		bl	lv_group_set_editing
 1641              	.LVL179:
 633:..\..\..\arduinoLCD\test\Pain Drain\libraries\lvgl\src\core/lv_indev.c ****                     }
 1642              		.loc 1 633 0 is_stmt 1 discriminator 4
 1643 01a8 2021     		movs	r1, #32
 1644 01aa 694B     		ldr	r3, .L122
 1645 01ac 1868     		ldr	r0, [r3]
 1646 01ae FFF7FEFF 		bl	lv_obj_clear_state
 1647              	.LVL180:
 1648 01b2 0BE0     		b	.L84
 1649              	.LVL181:
 1650              	.L86:
 638:..\..\..\arduinoLCD\test\Pain Drain\libraries\lvgl\src\core/lv_indev.c ****                     if(indev_reset_check(&i->proc)) return;
 1651              		.loc 1 638 0
 1652 01b4 664B     		ldr	r3, .L122
 1653              	.LVL182:
 1654 01b6 5A68     		ldr	r2, [r3, #4]
 1655 01b8 0521     		movs	r1, #5
 1656 01ba 1868     		ldr	r0, [r3]
 1657 01bc FFF7FEFF 		bl	lv_event_send
 1658              	.LVL183:
 639:..\..\..\arduinoLCD\test\Pain Drain\libraries\lvgl\src\core/lv_indev.c ****                 }
 1659              		.loc 1 639 0
 1660 01c0 201D     		adds	r0, r4, #4
 1661 01c2 FFF7FEFF 		bl	indev_reset_check
 1662              	.LVL184:
 1663 01c6 0028     		cmp	r0, #0
 1664 01c8 00D0     		beq	.LCB1544
 1665 01ca 2FE1     		b	.L69	@long jump
 1666              	.LCB1544:
 1667              	.L84:
 1668              	.LBE13:
ARM GAS  C:\Users\haske\AppData\Local\Temp\ccl1At1U.s 			page 57


 643:..\..\..\arduinoLCD\test\Pain Drain\libraries\lvgl\src\core/lv_indev.c ****         }
 1669              		.loc 1 643 0
 1670 01cc 6279     		ldrb	r2, [r4, #5]
 1671 01ce 0123     		movs	r3, #1
 1672 01d0 1343     		orrs	r3, r2
 1673 01d2 6371     		strb	r3, [r4, #5]
 1674 01d4 CBE0     		b	.L78
 1675              	.L83:
 646:..\..\..\arduinoLCD\test\Pain Drain\libraries\lvgl\src\core/lv_indev.c **** 
 1676              		.loc 1 646 0
 1677 01d6 6379     		ldrb	r3, [r4, #5]
 1678 01d8 DB07     		lsls	r3, r3, #31
 1679 01da 00D4     		bmi	.LCB1564
 1680 01dc C7E0     		b	.L78	@long jump
 1681              	.LCB1564:
 646:..\..\..\arduinoLCD\test\Pain Drain\libraries\lvgl\src\core/lv_indev.c **** 
 1682              		.loc 1 646 0 is_stmt 0 discriminator 1
 1683 01de E06C     		ldr	r0, [r4, #76]
 1684 01e0 FFF7FEFF 		bl	lv_tick_elaps
 1685              	.LVL185:
 1686 01e4 2368     		ldr	r3, [r4]
 1687 01e6 DB8B     		ldrh	r3, [r3, #30]
 1688 01e8 9842     		cmp	r0, r3
 1689 01ea 00D8     		bhi	.LCB1573
 1690 01ec BFE0     		b	.L78	@long jump
 1691              	.LCB1573:
 648:..\..\..\arduinoLCD\test\Pain Drain\libraries\lvgl\src\core/lv_indev.c **** 
 1692              		.loc 1 648 0 is_stmt 1
 1693 01ee FFF7FEFF 		bl	lv_tick_get
 1694              	.LVL186:
 1695 01f2 E064     		str	r0, [r4, #76]
 650:..\..\..\arduinoLCD\test\Pain Drain\libraries\lvgl\src\core/lv_indev.c ****                 lv_event_send(indev_obj_act, LV_EVENT_LONG_PRESSED_REPEAT, indev_act);
 1696              		.loc 1 650 0
 1697 01f4 6968     		ldr	r1, [r5, #4]
 1698 01f6 0A29     		cmp	r1, #10
 1699 01f8 0CD1     		bne	.L88
 651:..\..\..\arduinoLCD\test\Pain Drain\libraries\lvgl\src\core/lv_indev.c ****                 if(indev_reset_check(&i->proc)) return;
 1700              		.loc 1 651 0
 1701 01fa 554B     		ldr	r3, .L122
 1702 01fc 5A68     		ldr	r2, [r3, #4]
 1703 01fe 0439     		subs	r1, r1, #4
 1704 0200 1868     		ldr	r0, [r3]
 1705 0202 FFF7FEFF 		bl	lv_event_send
 1706              	.LVL187:
 652:..\..\..\arduinoLCD\test\Pain Drain\libraries\lvgl\src\core/lv_indev.c ****             }
 1707              		.loc 1 652 0
 1708 0206 201D     		adds	r0, r4, #4
 1709 0208 FFF7FEFF 		bl	indev_reset_check
 1710              	.LVL188:
 1711 020c 0028     		cmp	r0, #0
 1712 020e 00D1     		bne	.LCB1590
 1713 0210 ADE0     		b	.L78	@long jump
 1714              	.LCB1590:
 1715 0212 0BE1     		b	.L69
 1716              	.L88:
 654:..\..\..\arduinoLCD\test\Pain Drain\libraries\lvgl\src\core/lv_indev.c ****                 /*emulate encoder left*/
 1717              		.loc 1 654 0
ARM GAS  C:\Users\haske\AppData\Local\Temp\ccl1At1U.s 			page 58


 1718 0214 1429     		cmp	r1, #20
 1719 0216 04D1     		bne	.L89
 656:..\..\..\arduinoLCD\test\Pain Drain\libraries\lvgl\src\core/lv_indev.c ****             }
 1720              		.loc 1 656 0
 1721 0218 0C22     		movs	r2, #12
 1722 021a AB5E     		ldrsh	r3, [r5, r2]
 1723 021c 013B     		subs	r3, r3, #1
 1724 021e AB81     		strh	r3, [r5, #12]
 1725 0220 A5E0     		b	.L78
 1726              	.L89:
 658:..\..\..\arduinoLCD\test\Pain Drain\libraries\lvgl\src\core/lv_indev.c ****                 /*emulate encoder right*/
 1727              		.loc 1 658 0
 1728 0222 1329     		cmp	r1, #19
 1729 0224 04D1     		bne	.L90
 660:..\..\..\arduinoLCD\test\Pain Drain\libraries\lvgl\src\core/lv_indev.c ****             }
 1730              		.loc 1 660 0
 1731 0226 0C22     		movs	r2, #12
 1732 0228 AB5E     		ldrsh	r3, [r5, r2]
 1733 022a 0133     		adds	r3, r3, #1
 1734 022c AB81     		strh	r3, [r5, #12]
 1735 022e 9EE0     		b	.L78
 1736              	.L90:
 663:..\..\..\arduinoLCD\test\Pain Drain\libraries\lvgl\src\core/lv_indev.c ****                 if(indev_reset_check(&i->proc)) return;
 1737              		.loc 1 663 0
 1738 0230 3000     		movs	r0, r6
 1739 0232 FFF7FEFF 		bl	lv_group_send_data
 1740              	.LVL189:
 664:..\..\..\arduinoLCD\test\Pain Drain\libraries\lvgl\src\core/lv_indev.c ****             }
 1741              		.loc 1 664 0
 1742 0236 201D     		adds	r0, r4, #4
 1743 0238 FFF7FEFF 		bl	indev_reset_check
 1744              	.LVL190:
 1745 023c 0028     		cmp	r0, #0
 1746 023e 00D1     		bne	.LCB1622
 1747 0240 95E0     		b	.L78	@long jump
 1748              	.LCB1622:
 1749 0242 F3E0     		b	.L69
 1750              	.L82:
 671:..\..\..\arduinoLCD\test\Pain Drain\libraries\lvgl\src\core/lv_indev.c ****         LV_LOG_INFO("released");
 1751              		.loc 1 671 0
 1752 0244 002B     		cmp	r3, #0
 1753 0246 00D0     		beq	.LCB1631
 1754 0248 91E0     		b	.L78	@long jump
 1755              	.LCB1631:
 671:..\..\..\arduinoLCD\test\Pain Drain\libraries\lvgl\src\core/lv_indev.c ****         LV_LOG_INFO("released");
 1756              		.loc 1 671 0 is_stmt 0 discriminator 1
 1757 024a 012F     		cmp	r7, #1
 1758 024c 00D0     		beq	.LCB1633
 1759 024e 8EE0     		b	.L78	@long jump
 1760              	.LCB1633:
 674:..\..\..\arduinoLCD\test\Pain Drain\libraries\lvgl\src\core/lv_indev.c ****             bool editable_or_scrollable = lv_obj_is_editable(indev_obj_act) ||
 1761              		.loc 1 674 0 is_stmt 1
 1762 0250 6B68     		ldr	r3, [r5, #4]
 1763 0252 0A2B     		cmp	r3, #10
 1764 0254 00D0     		beq	.LCB1637
 1765 0256 84E0     		b	.L91	@long jump
 1766              	.LCB1637:
ARM GAS  C:\Users\haske\AppData\Local\Temp\ccl1At1U.s 			page 59


 1767              	.LBB14:
 675:..\..\..\arduinoLCD\test\Pain Drain\libraries\lvgl\src\core/lv_indev.c ****                                           lv_obj_has_flag(indev_obj_act, LV_OBJ_FLAG_SCROLLABLE);
 1768              		.loc 1 675 0
 1769 0258 FFF7FEFF 		bl	lv_obj_is_editable
 1770              	.LVL191:
 1771 025c 0028     		cmp	r0, #0
 1772 025e 08D1     		bne	.L114
 676:..\..\..\arduinoLCD\test\Pain Drain\libraries\lvgl\src\core/lv_indev.c **** 
 1773              		.loc 1 676 0 discriminator 2
 1774 0260 3B4B     		ldr	r3, .L122
 1775 0262 1868     		ldr	r0, [r3]
 1776 0264 1021     		movs	r1, #16
 1777 0266 FFF7FEFF 		bl	lv_obj_has_flag
 1778              	.LVL192:
 675:..\..\..\arduinoLCD\test\Pain Drain\libraries\lvgl\src\core/lv_indev.c ****                                           lv_obj_has_flag(indev_obj_act, LV_OBJ_FLAG_SCROLLABLE);
 1779              		.loc 1 675 0 discriminator 2
 1780 026a 0028     		cmp	r0, #0
 1781 026c 03D1     		bne	.L115
 675:..\..\..\arduinoLCD\test\Pain Drain\libraries\lvgl\src\core/lv_indev.c ****                                           lv_obj_has_flag(indev_obj_act, LV_OBJ_FLAG_SCROLLABLE);
 1782              		.loc 1 675 0 is_stmt 0
 1783 026e 0023     		movs	r3, #0
 1784 0270 02E0     		b	.L92
 1785              	.L114:
 1786 0272 0123     		movs	r3, #1
 1787 0274 00E0     		b	.L92
 1788              	.L115:
 1789 0276 0123     		movs	r3, #1
 1790              	.L92:
 1791              	.LVL193:
 679:..\..\..\arduinoLCD\test\Pain Drain\libraries\lvgl\src\core/lv_indev.c ****                 lv_event_send(indev_obj_act, LV_EVENT_RELEASED, indev_act);
 1792              		.loc 1 679 0 is_stmt 1 discriminator 6
 1793 0278 002B     		cmp	r3, #0
 1794 027a 27D1     		bne	.L93
 680:..\..\..\arduinoLCD\test\Pain Drain\libraries\lvgl\src\core/lv_indev.c ****                 if(indev_reset_check(&i->proc)) return;
 1795              		.loc 1 680 0
 1796 027c 344B     		ldr	r3, .L122
 1797              	.LVL194:
 1798 027e 5A68     		ldr	r2, [r3, #4]
 1799 0280 1868     		ldr	r0, [r3]
 1800 0282 0821     		movs	r1, #8
 1801 0284 FFF7FEFF 		bl	lv_event_send
 1802              	.LVL195:
 681:..\..\..\arduinoLCD\test\Pain Drain\libraries\lvgl\src\core/lv_indev.c **** 
 1803              		.loc 1 681 0
 1804 0288 271D     		adds	r7, r4, #4
 1805              	.LVL196:
 1806 028a 3800     		movs	r0, r7
 1807 028c FFF7FEFF 		bl	indev_reset_check
 1808              	.LVL197:
 1809 0290 0028     		cmp	r0, #0
 1810 0292 00D0     		beq	.LCB1682
 1811 0294 CAE0     		b	.L69	@long jump
 1812              	.LCB1682:
 683:..\..\..\arduinoLCD\test\Pain Drain\libraries\lvgl\src\core/lv_indev.c ****                 if(indev_reset_check(&i->proc)) return;
 1813              		.loc 1 683 0
 1814 0296 6379     		ldrb	r3, [r4, #5]
 1815 0298 DB07     		lsls	r3, r3, #31
ARM GAS  C:\Users\haske\AppData\Local\Temp\ccl1At1U.s 			page 60


 1816 029a 05D4     		bmi	.L94
 683:..\..\..\arduinoLCD\test\Pain Drain\libraries\lvgl\src\core/lv_indev.c ****                 if(indev_reset_check(&i->proc)) return;
 1817              		.loc 1 683 0 is_stmt 0 discriminator 1
 1818 029c 2C4B     		ldr	r3, .L122
 1819 029e 5A68     		ldr	r2, [r3, #4]
 1820 02a0 0421     		movs	r1, #4
 1821 02a2 1868     		ldr	r0, [r3]
 1822 02a4 FFF7FEFF 		bl	lv_event_send
 1823              	.LVL198:
 1824              	.L94:
 684:..\..\..\arduinoLCD\test\Pain Drain\libraries\lvgl\src\core/lv_indev.c **** 
 1825              		.loc 1 684 0 is_stmt 1
 1826 02a8 3800     		movs	r0, r7
 1827 02aa FFF7FEFF 		bl	indev_reset_check
 1828              	.LVL199:
 1829 02ae 0028     		cmp	r0, #0
 1830 02b0 00D0     		beq	.LCB1701
 1831 02b2 BBE0     		b	.L69	@long jump
 1832              	.LCB1701:
 686:..\..\..\arduinoLCD\test\Pain Drain\libraries\lvgl\src\core/lv_indev.c ****                 if(indev_reset_check(&i->proc)) return;
 1833              		.loc 1 686 0
 1834 02b4 264B     		ldr	r3, .L122
 1835 02b6 5A68     		ldr	r2, [r3, #4]
 1836 02b8 1868     		ldr	r0, [r3]
 1837 02ba 0721     		movs	r1, #7
 1838 02bc FFF7FEFF 		bl	lv_event_send
 1839              	.LVL200:
 687:..\..\..\arduinoLCD\test\Pain Drain\libraries\lvgl\src\core/lv_indev.c **** 
 1840              		.loc 1 687 0
 1841 02c0 3800     		movs	r0, r7
 1842 02c2 FFF7FEFF 		bl	indev_reset_check
 1843              	.LVL201:
 1844 02c6 0028     		cmp	r0, #0
 1845 02c8 4BD0     		beq	.L91
 1846 02ca AFE0     		b	.L69
 1847              	.LVL202:
 1848              	.L93:
 691:..\..\..\arduinoLCD\test\Pain Drain\libraries\lvgl\src\core/lv_indev.c ****                 /*Ignore long pressed enter release because it comes from mode switch*/
 1849              		.loc 1 691 0
 1850 02cc 3000     		movs	r0, r6
 1851 02ce FFF7FEFF 		bl	lv_group_get_editing
 1852              	.LVL203:
 1853 02d2 0028     		cmp	r0, #0
 1854 02d4 3ED0     		beq	.L95
 693:..\..\..\arduinoLCD\test\Pain Drain\libraries\lvgl\src\core/lv_indev.c ****                     lv_event_send(indev_obj_act, LV_EVENT_RELEASED, indev_act);
 1855              		.loc 1 693 0
 1856 02d6 6379     		ldrb	r3, [r4, #5]
 1857 02d8 DB07     		lsls	r3, r3, #31
 1858 02da 04D5     		bpl	.L96
 693:..\..\..\arduinoLCD\test\Pain Drain\libraries\lvgl\src\core/lv_indev.c ****                     lv_event_send(indev_obj_act, LV_EVENT_RELEASED, indev_act);
 1859              		.loc 1 693 0 is_stmt 0 discriminator 1
 1860 02dc 3000     		movs	r0, r6
 1861 02de FFF7FEFF 		bl	lv_group_get_obj_count
 1862              	.LVL204:
 1863 02e2 0128     		cmp	r0, #1
 1864 02e4 2ED8     		bhi	.L97
 1865              	.L96:
ARM GAS  C:\Users\haske\AppData\Local\Temp\ccl1At1U.s 			page 61


 694:..\..\..\arduinoLCD\test\Pain Drain\libraries\lvgl\src\core/lv_indev.c ****                     if(indev_reset_check(&i->proc)) return;
 1866              		.loc 1 694 0 is_stmt 1
 1867 02e6 1A4B     		ldr	r3, .L122
 1868 02e8 5A68     		ldr	r2, [r3, #4]
 1869 02ea 1868     		ldr	r0, [r3]
 1870 02ec 0821     		movs	r1, #8
 1871 02ee FFF7FEFF 		bl	lv_event_send
 1872              	.LVL205:
 695:..\..\..\arduinoLCD\test\Pain Drain\libraries\lvgl\src\core/lv_indev.c **** 
 1873              		.loc 1 695 0
 1874 02f2 271D     		adds	r7, r4, #4
 1875              	.LVL206:
 1876 02f4 3800     		movs	r0, r7
 1877 02f6 FFF7FEFF 		bl	indev_reset_check
 1878              	.LVL207:
 1879 02fa 0028     		cmp	r0, #0
 1880 02fc 00D0     		beq	.LCB1750
 1881 02fe 95E0     		b	.L69	@long jump
 1882              	.LCB1750:
 697:..\..\..\arduinoLCD\test\Pain Drain\libraries\lvgl\src\core/lv_indev.c ****                     if(indev_reset_check(&i->proc)) return;
 1883              		.loc 1 697 0
 1884 0300 134B     		ldr	r3, .L122
 1885 0302 5A68     		ldr	r2, [r3, #4]
 1886 0304 0421     		movs	r1, #4
 1887 0306 1868     		ldr	r0, [r3]
 1888 0308 FFF7FEFF 		bl	lv_event_send
 1889              	.LVL208:
 698:..\..\..\arduinoLCD\test\Pain Drain\libraries\lvgl\src\core/lv_indev.c **** 
 1890              		.loc 1 698 0
 1891 030c 3800     		movs	r0, r7
 1892 030e FFF7FEFF 		bl	indev_reset_check
 1893              	.LVL209:
 1894 0312 0028     		cmp	r0, #0
 1895 0314 00D0     		beq	.LCB1761
 1896 0316 89E0     		b	.L69	@long jump
 1897              	.LCB1761:
 700:..\..\..\arduinoLCD\test\Pain Drain\libraries\lvgl\src\core/lv_indev.c ****                     if(indev_reset_check(&i->proc)) return;
 1898              		.loc 1 700 0
 1899 0318 0D4B     		ldr	r3, .L122
 1900 031a 5A68     		ldr	r2, [r3, #4]
 1901 031c 0721     		movs	r1, #7
 1902 031e 1868     		ldr	r0, [r3]
 1903 0320 FFF7FEFF 		bl	lv_event_send
 1904              	.LVL210:
 701:..\..\..\arduinoLCD\test\Pain Drain\libraries\lvgl\src\core/lv_indev.c **** 
 1905              		.loc 1 701 0
 1906 0324 3800     		movs	r0, r7
 1907 0326 FFF7FEFF 		bl	indev_reset_check
 1908              	.LVL211:
 1909 032a 0028     		cmp	r0, #0
 1910 032c 00D0     		beq	.LCB1772
 1911 032e 7DE0     		b	.L69	@long jump
 1912              	.LCB1772:
 703:..\..\..\arduinoLCD\test\Pain Drain\libraries\lvgl\src\core/lv_indev.c ****                     if(indev_reset_check(&i->proc)) return;
 1913              		.loc 1 703 0
 1914 0330 0A21     		movs	r1, #10
 1915 0332 3000     		movs	r0, r6
ARM GAS  C:\Users\haske\AppData\Local\Temp\ccl1At1U.s 			page 62


 1916 0334 FFF7FEFF 		bl	lv_group_send_data
 1917              	.LVL212:
 704:..\..\..\arduinoLCD\test\Pain Drain\libraries\lvgl\src\core/lv_indev.c ****                 }
 1918              		.loc 1 704 0
 1919 0338 3800     		movs	r0, r7
 1920 033a FFF7FEFF 		bl	indev_reset_check
 1921              	.LVL213:
 1922 033e 0028     		cmp	r0, #0
 1923 0340 0FD0     		beq	.L91
 1924 0342 73E0     		b	.L69
 1925              	.LVL214:
 1926              	.L97:
 707:..\..\..\arduinoLCD\test\Pain Drain\libraries\lvgl\src\core/lv_indev.c ****                 }
 1927              		.loc 1 707 0
 1928 0344 2021     		movs	r1, #32
 1929 0346 024B     		ldr	r3, .L122
 1930 0348 1868     		ldr	r0, [r3]
 1931 034a FFF7FEFF 		bl	lv_obj_clear_state
 1932              	.LVL215:
 1933 034e 08E0     		b	.L91
 1934              	.L123:
 1935              		.align	2
 1936              	.L122:
 1937 0350 00000000 		.word	.LANCHOR0
 1938              	.L95:
 712:..\..\..\arduinoLCD\test\Pain Drain\libraries\lvgl\src\core/lv_indev.c ****                 LV_LOG_INFO("entering edit mode");
 1939              		.loc 1 712 0
 1940 0354 6379     		ldrb	r3, [r4, #5]
 1941 0356 DB07     		lsls	r3, r3, #31
 1942 0358 03D4     		bmi	.L91
 714:..\..\..\arduinoLCD\test\Pain Drain\libraries\lvgl\src\core/lv_indev.c ****             }
 1943              		.loc 1 714 0
 1944 035a 0121     		movs	r1, #1
 1945 035c 3000     		movs	r0, r6
 1946 035e FFF7FEFF 		bl	lv_group_set_editing
 1947              	.LVL216:
 1948              	.L91:
 1949              	.LBE14:
 718:..\..\..\arduinoLCD\test\Pain Drain\libraries\lvgl\src\core/lv_indev.c ****         i->proc.long_pr_sent = 0;
 1950              		.loc 1 718 0
 1951 0362 0023     		movs	r3, #0
 1952 0364 A364     		str	r3, [r4, #72]
 719:..\..\..\arduinoLCD\test\Pain Drain\libraries\lvgl\src\core/lv_indev.c ****     }
 1953              		.loc 1 719 0
 1954 0366 6379     		ldrb	r3, [r4, #5]
 1955 0368 0122     		movs	r2, #1
 1956 036a 9343     		bics	r3, r2
 1957 036c 6371     		strb	r3, [r4, #5]
 1958              	.L78:
 721:..\..\..\arduinoLCD\test\Pain Drain\libraries\lvgl\src\core/lv_indev.c **** 
 1959              		.loc 1 721 0
 1960 036e 0022     		movs	r2, #0
 1961 0370 2F4B     		ldr	r3, .L124
 1962 0372 1A60     		str	r2, [r3]
 724:..\..\..\arduinoLCD\test\Pain Drain\libraries\lvgl\src\core/lv_indev.c ****         /*In edit mode send LEFT/RIGHT keys*/
 1963              		.loc 1 724 0
 1964 0374 0C22     		movs	r2, #12
ARM GAS  C:\Users\haske\AppData\Local\Temp\ccl1At1U.s 			page 63


 1965 0376 AB5E     		ldrsh	r3, [r5, r2]
 1966 0378 002B     		cmp	r3, #0
 1967 037a 57D0     		beq	.L69
 726:..\..\..\arduinoLCD\test\Pain Drain\libraries\lvgl\src\core/lv_indev.c ****             LV_LOG_INFO("rotated by %+d (edit)", data->enc_diff);
 1968              		.loc 1 726 0
 1969 037c 3000     		movs	r0, r6
 1970 037e FFF7FEFF 		bl	lv_group_get_editing
 1971              	.LVL217:
 1972 0382 0028     		cmp	r0, #0
 1973 0384 2AD0     		beq	.L98
 1974              	.LBB15:
 729:..\..\..\arduinoLCD\test\Pain Drain\libraries\lvgl\src\core/lv_indev.c ****                 for(s = 0; s < -data->enc_diff; s++) {
 1975              		.loc 1 729 0
 1976 0386 0C22     		movs	r2, #12
 1977 0388 AB5E     		ldrsh	r3, [r5, r2]
 1978 038a 002B     		cmp	r3, #0
 1979 038c 12DA     		bge	.L120
 1980 038e 0AE0     		b	.L116
 1981              	.LVL218:
 1982              	.L101:
 731:..\..\..\arduinoLCD\test\Pain Drain\libraries\lvgl\src\core/lv_indev.c ****                     if(indev_reset_check(&i->proc)) return;
 1983              		.loc 1 731 0
 1984 0390 1421     		movs	r1, #20
 1985 0392 3000     		movs	r0, r6
 1986 0394 FFF7FEFF 		bl	lv_group_send_data
 1987              	.LVL219:
 732:..\..\..\arduinoLCD\test\Pain Drain\libraries\lvgl\src\core/lv_indev.c ****                 }
 1988              		.loc 1 732 0
 1989 0398 201D     		adds	r0, r4, #4
 1990 039a FFF7FEFF 		bl	indev_reset_check
 1991              	.LVL220:
 1992 039e 0028     		cmp	r0, #0
 1993 03a0 44D1     		bne	.L69
 730:..\..\..\arduinoLCD\test\Pain Drain\libraries\lvgl\src\core/lv_indev.c ****                     lv_group_send_data(g, LV_KEY_LEFT);
 1994              		.loc 1 730 0 discriminator 2
 1995 03a2 0137     		adds	r7, r7, #1
 1996              	.LVL221:
 1997 03a4 00E0     		b	.L99
 1998              	.LVL222:
 1999              	.L116:
 2000 03a6 0027     		movs	r7, #0
 2001              	.L99:
 2002              	.LVL223:
 730:..\..\..\arduinoLCD\test\Pain Drain\libraries\lvgl\src\core/lv_indev.c ****                     lv_group_send_data(g, LV_KEY_LEFT);
 2003              		.loc 1 730 0 is_stmt 0 discriminator 1
 2004 03a8 0C22     		movs	r2, #12
 2005 03aa AB5E     		ldrsh	r3, [r5, r2]
 2006 03ac 5B42     		rsbs	r3, r3, #0
 2007 03ae 9F42     		cmp	r7, r3
 2008 03b0 EEDB     		blt	.L101
 2009 03b2 3BE0     		b	.L69
 2010              	.LVL224:
 2011              	.L120:
 735:..\..\..\arduinoLCD\test\Pain Drain\libraries\lvgl\src\core/lv_indev.c ****                 for(s = 0; s < data->enc_diff; s++) {
 2012              		.loc 1 735 0 is_stmt 1
 2013 03b4 002B     		cmp	r3, #0
 2014 03b6 0BDC     		bgt	.L117
ARM GAS  C:\Users\haske\AppData\Local\Temp\ccl1At1U.s 			page 64


 2015 03b8 38E0     		b	.L69
 2016              	.LVL225:
 2017              	.L103:
 737:..\..\..\arduinoLCD\test\Pain Drain\libraries\lvgl\src\core/lv_indev.c ****                     if(indev_reset_check(&i->proc)) return;
 2018              		.loc 1 737 0
 2019 03ba 1321     		movs	r1, #19
 2020 03bc 3000     		movs	r0, r6
 2021 03be FFF7FEFF 		bl	lv_group_send_data
 2022              	.LVL226:
 738:..\..\..\arduinoLCD\test\Pain Drain\libraries\lvgl\src\core/lv_indev.c ****                 }
 2023              		.loc 1 738 0
 2024 03c2 201D     		adds	r0, r4, #4
 2025 03c4 FFF7FEFF 		bl	indev_reset_check
 2026              	.LVL227:
 2027 03c8 0028     		cmp	r0, #0
 2028 03ca 2FD1     		bne	.L69
 736:..\..\..\arduinoLCD\test\Pain Drain\libraries\lvgl\src\core/lv_indev.c ****                     lv_group_send_data(g, LV_KEY_RIGHT);
 2029              		.loc 1 736 0 discriminator 2
 2030 03cc 0137     		adds	r7, r7, #1
 2031              	.LVL228:
 2032 03ce 00E0     		b	.L102
 2033              	.LVL229:
 2034              	.L117:
 2035 03d0 0027     		movs	r7, #0
 2036              	.L102:
 2037              	.LVL230:
 736:..\..\..\arduinoLCD\test\Pain Drain\libraries\lvgl\src\core/lv_indev.c ****                     lv_group_send_data(g, LV_KEY_RIGHT);
 2038              		.loc 1 736 0 is_stmt 0 discriminator 1
 2039 03d2 0C22     		movs	r2, #12
 2040 03d4 AB5E     		ldrsh	r3, [r5, r2]
 2041 03d6 9F42     		cmp	r7, r3
 2042 03d8 EFDB     		blt	.L103
 2043 03da 27E0     		b	.L69
 2044              	.LVL231:
 2045              	.L98:
 2046              	.LBE15:
 2047              	.LBB16:
 746:..\..\..\arduinoLCD\test\Pain Drain\libraries\lvgl\src\core/lv_indev.c ****                 for(s = 0; s < -data->enc_diff; s++) {
 2048              		.loc 1 746 0 is_stmt 1
 2049 03dc 0C22     		movs	r2, #12
 2050 03de AB5E     		ldrsh	r3, [r5, r2]
 2051 03e0 002B     		cmp	r3, #0
 2052 03e2 11DA     		bge	.L121
 2053 03e4 09E0     		b	.L118
 2054              	.LVL232:
 2055              	.L106:
 748:..\..\..\arduinoLCD\test\Pain Drain\libraries\lvgl\src\core/lv_indev.c ****                     if(indev_reset_check(&i->proc)) return;
 2056              		.loc 1 748 0
 2057 03e6 3000     		movs	r0, r6
 2058 03e8 FFF7FEFF 		bl	lv_group_focus_prev
 2059              	.LVL233:
 749:..\..\..\arduinoLCD\test\Pain Drain\libraries\lvgl\src\core/lv_indev.c ****                 }
 2060              		.loc 1 749 0
 2061 03ec 201D     		adds	r0, r4, #4
 2062 03ee FFF7FEFF 		bl	indev_reset_check
 2063              	.LVL234:
 2064 03f2 0028     		cmp	r0, #0
ARM GAS  C:\Users\haske\AppData\Local\Temp\ccl1At1U.s 			page 65


 2065 03f4 1AD1     		bne	.L69
 747:..\..\..\arduinoLCD\test\Pain Drain\libraries\lvgl\src\core/lv_indev.c ****                     lv_group_focus_prev(g);
 2066              		.loc 1 747 0 discriminator 2
 2067 03f6 0137     		adds	r7, r7, #1
 2068              	.LVL235:
 2069 03f8 00E0     		b	.L104
 2070              	.LVL236:
 2071              	.L118:
 2072 03fa 0027     		movs	r7, #0
 2073              	.L104:
 2074              	.LVL237:
 747:..\..\..\arduinoLCD\test\Pain Drain\libraries\lvgl\src\core/lv_indev.c ****                     lv_group_focus_prev(g);
 2075              		.loc 1 747 0 is_stmt 0 discriminator 1
 2076 03fc 0C22     		movs	r2, #12
 2077 03fe AB5E     		ldrsh	r3, [r5, r2]
 2078 0400 5B42     		rsbs	r3, r3, #0
 2079 0402 9F42     		cmp	r7, r3
 2080 0404 EFDB     		blt	.L106
 2081 0406 11E0     		b	.L69
 2082              	.LVL238:
 2083              	.L121:
 752:..\..\..\arduinoLCD\test\Pain Drain\libraries\lvgl\src\core/lv_indev.c ****                 for(s = 0; s < data->enc_diff; s++) {
 2084              		.loc 1 752 0 is_stmt 1
 2085 0408 002B     		cmp	r3, #0
 2086 040a 0ADC     		bgt	.L119
 2087 040c 0EE0     		b	.L69
 2088              	.LVL239:
 2089              	.L108:
 754:..\..\..\arduinoLCD\test\Pain Drain\libraries\lvgl\src\core/lv_indev.c ****                     if(indev_reset_check(&i->proc)) return;
 2090              		.loc 1 754 0
 2091 040e 3000     		movs	r0, r6
 2092 0410 FFF7FEFF 		bl	lv_group_focus_next
 2093              	.LVL240:
 755:..\..\..\arduinoLCD\test\Pain Drain\libraries\lvgl\src\core/lv_indev.c ****                 }
 2094              		.loc 1 755 0
 2095 0414 201D     		adds	r0, r4, #4
 2096 0416 FFF7FEFF 		bl	indev_reset_check
 2097              	.LVL241:
 2098 041a 0028     		cmp	r0, #0
 2099 041c 06D1     		bne	.L69
 753:..\..\..\arduinoLCD\test\Pain Drain\libraries\lvgl\src\core/lv_indev.c ****                     lv_group_focus_next(g);
 2100              		.loc 1 753 0 discriminator 2
 2101 041e 0137     		adds	r7, r7, #1
 2102              	.LVL242:
 2103 0420 00E0     		b	.L107
 2104              	.LVL243:
 2105              	.L119:
 2106 0422 0027     		movs	r7, #0
 2107              	.L107:
 2108              	.LVL244:
 753:..\..\..\arduinoLCD\test\Pain Drain\libraries\lvgl\src\core/lv_indev.c ****                     lv_group_focus_next(g);
 2109              		.loc 1 753 0 is_stmt 0 discriminator 1
 2110 0424 0C22     		movs	r2, #12
 2111 0426 AB5E     		ldrsh	r3, [r5, r2]
 2112 0428 9F42     		cmp	r7, r3
 2113 042a F0DB     		blt	.L108
 2114              	.LVL245:
ARM GAS  C:\Users\haske\AppData\Local\Temp\ccl1At1U.s 			page 66


 2115              	.L69:
 2116              	.LBE16:
 760:..\..\..\arduinoLCD\test\Pain Drain\libraries\lvgl\src\core/lv_indev.c **** 
 2117              		.loc 1 760 0 is_stmt 1
 2118              		@ sp needed
 2119              	.LVL246:
 2120              	.LVL247:
 2121 042c F8BD     		pop	{r3, r4, r5, r6, r7, pc}
 2122              	.L125:
 2123 042e C046     		.align	2
 2124              	.L124:
 2125 0430 00000000 		.word	.LANCHOR0
 2126              		.cfi_endproc
 2127              	.LFE186:
 2128              		.size	indev_encoder_proc, .-indev_encoder_proc
 2129              		.section	.text.lv_indev_enable,"ax",%progbits
 2130              		.align	2
 2131              		.global	lv_indev_enable
 2132              		.code	16
 2133              		.thumb_func
 2134              		.type	lv_indev_enable, %function
 2135              	lv_indev_enable:
 2136              	.LFB166:
 124:..\..\..\arduinoLCD\test\Pain Drain\libraries\lvgl\src\core/lv_indev.c ****     uint8_t enable = en ? 0 : 1;
 2137              		.loc 1 124 0
 2138              		.cfi_startproc
 2139              		@ args = 0, pretend = 0, frame = 0
 2140              		@ frame_needed = 0, uses_anonymous_args = 0
 2141              	.LVL248:
 2142 0000 10B5     		push	{r4, lr}
 2143              		.cfi_def_cfa_offset 8
 2144              		.cfi_offset 4, -8
 2145              		.cfi_offset 14, -4
 125:..\..\..\arduinoLCD\test\Pain Drain\libraries\lvgl\src\core/lv_indev.c **** 
 2146              		.loc 1 125 0
 2147 0002 0029     		cmp	r1, #0
 2148 0004 01D0     		beq	.L132
 2149 0006 0024     		movs	r4, #0
 2150 0008 00E0     		b	.L127
 2151              	.L132:
 2152 000a 0124     		movs	r4, #1
 2153              	.L127:
 2154              	.LVL249:
 127:..\..\..\arduinoLCD\test\Pain Drain\libraries\lvgl\src\core/lv_indev.c ****         indev->proc.disabled = enable;
 2155              		.loc 1 127 0 discriminator 4
 2156 000c 0028     		cmp	r0, #0
 2157 000e 06D0     		beq	.L128
 128:..\..\..\arduinoLCD\test\Pain Drain\libraries\lvgl\src\core/lv_indev.c ****     }
 2158              		.loc 1 128 0
 2159 0010 A400     		lsls	r4, r4, #2
 2160              	.LVL250:
 2161 0012 4379     		ldrb	r3, [r0, #5]
 2162 0014 0422     		movs	r2, #4
 2163 0016 9343     		bics	r3, r2
 2164 0018 1C43     		orrs	r4, r3
 2165 001a 4471     		strb	r4, [r0, #5]
 2166 001c 0DE0     		b	.L126
ARM GAS  C:\Users\haske\AppData\Local\Temp\ccl1At1U.s 			page 67


 2167              	.LVL251:
 2168              	.L128:
 2169              	.LBB17:
 131:..\..\..\arduinoLCD\test\Pain Drain\libraries\lvgl\src\core/lv_indev.c ****         while(i) {
 2170              		.loc 1 131 0
 2171 001e 0020     		movs	r0, #0
 2172              	.LVL252:
 2173 0020 FFF7FEFF 		bl	lv_indev_get_next
 2174              	.LVL253:
 132:..\..\..\arduinoLCD\test\Pain Drain\libraries\lvgl\src\core/lv_indev.c ****             i->proc.disabled = enable;
 2175              		.loc 1 132 0
 2176 0024 07E0     		b	.L130
 2177              	.L131:
 133:..\..\..\arduinoLCD\test\Pain Drain\libraries\lvgl\src\core/lv_indev.c ****             i = lv_indev_get_next(i);
 2178              		.loc 1 133 0
 2179 0026 A300     		lsls	r3, r4, #2
 2180 0028 4279     		ldrb	r2, [r0, #5]
 2181 002a 0421     		movs	r1, #4
 2182 002c 8A43     		bics	r2, r1
 2183 002e 1343     		orrs	r3, r2
 2184 0030 4371     		strb	r3, [r0, #5]
 134:..\..\..\arduinoLCD\test\Pain Drain\libraries\lvgl\src\core/lv_indev.c ****         }
 2185              		.loc 1 134 0
 2186 0032 FFF7FEFF 		bl	lv_indev_get_next
 2187              	.LVL254:
 2188              	.L130:
 132:..\..\..\arduinoLCD\test\Pain Drain\libraries\lvgl\src\core/lv_indev.c ****             i->proc.disabled = enable;
 2189              		.loc 1 132 0
 2190 0036 0028     		cmp	r0, #0
 2191 0038 F5D1     		bne	.L131
 2192              	.LVL255:
 2193              	.L126:
 2194              	.LBE17:
 137:..\..\..\arduinoLCD\test\Pain Drain\libraries\lvgl\src\core/lv_indev.c **** 
 2195              		.loc 1 137 0
 2196              		@ sp needed
 2197 003a 10BD     		pop	{r4, pc}
 2198              		.cfi_endproc
 2199              	.LFE166:
 2200              		.size	lv_indev_enable, .-lv_indev_enable
 2201              		.section	.text.lv_indev_get_act,"ax",%progbits
 2202              		.align	2
 2203              		.global	lv_indev_get_act
 2204              		.code	16
 2205              		.thumb_func
 2206              		.type	lv_indev_get_act, %function
 2207              	lv_indev_get_act:
 2208              	.LFB167:
 140:..\..\..\arduinoLCD\test\Pain Drain\libraries\lvgl\src\core/lv_indev.c ****     return indev_act;
 2209              		.loc 1 140 0
 2210              		.cfi_startproc
 2211              		@ args = 0, pretend = 0, frame = 0
 2212              		@ frame_needed = 0, uses_anonymous_args = 0
 2213              		@ link register save eliminated.
 141:..\..\..\arduinoLCD\test\Pain Drain\libraries\lvgl\src\core/lv_indev.c **** }
 2214              		.loc 1 141 0
 2215 0000 014B     		ldr	r3, .L134
ARM GAS  C:\Users\haske\AppData\Local\Temp\ccl1At1U.s 			page 68


 2216 0002 5868     		ldr	r0, [r3, #4]
 142:..\..\..\arduinoLCD\test\Pain Drain\libraries\lvgl\src\core/lv_indev.c **** 
 2217              		.loc 1 142 0
 2218              		@ sp needed
 2219 0004 7047     		bx	lr
 2220              	.L135:
 2221 0006 C046     		.align	2
 2222              	.L134:
 2223 0008 00000000 		.word	.LANCHOR0
 2224              		.cfi_endproc
 2225              	.LFE167:
 2226              		.size	lv_indev_get_act, .-lv_indev_get_act
 2227              		.section	.text.lv_indev_get_type,"ax",%progbits
 2228              		.align	2
 2229              		.global	lv_indev_get_type
 2230              		.code	16
 2231              		.thumb_func
 2232              		.type	lv_indev_get_type, %function
 2233              	lv_indev_get_type:
 2234              	.LFB168:
 145:..\..\..\arduinoLCD\test\Pain Drain\libraries\lvgl\src\core/lv_indev.c ****     if(indev == NULL) return LV_INDEV_TYPE_NONE;
 2235              		.loc 1 145 0
 2236              		.cfi_startproc
 2237              		@ args = 0, pretend = 0, frame = 0
 2238              		@ frame_needed = 0, uses_anonymous_args = 0
 2239              		@ link register save eliminated.
 2240              	.LVL256:
 146:..\..\..\arduinoLCD\test\Pain Drain\libraries\lvgl\src\core/lv_indev.c **** 
 2241              		.loc 1 146 0
 2242 0000 0028     		cmp	r0, #0
 2243 0002 02D0     		beq	.L138
 148:..\..\..\arduinoLCD\test\Pain Drain\libraries\lvgl\src\core/lv_indev.c **** }
 2244              		.loc 1 148 0
 2245 0004 0368     		ldr	r3, [r0]
 2246 0006 1878     		ldrb	r0, [r3]
 2247              	.LVL257:
 2248 0008 00E0     		b	.L137
 2249              	.LVL258:
 2250              	.L138:
 146:..\..\..\arduinoLCD\test\Pain Drain\libraries\lvgl\src\core/lv_indev.c **** 
 2251              		.loc 1 146 0
 2252 000a 0020     		movs	r0, #0
 2253              	.LVL259:
 2254              	.L137:
 149:..\..\..\arduinoLCD\test\Pain Drain\libraries\lvgl\src\core/lv_indev.c **** 
 2255              		.loc 1 149 0
 2256              		@ sp needed
 2257 000c 7047     		bx	lr
 2258              		.cfi_endproc
 2259              	.LFE168:
 2260              		.size	lv_indev_get_type, .-lv_indev_get_type
 2261 000e C046     		.section	.text.lv_indev_reset,"ax",%progbits
 2262              		.align	2
 2263              		.global	lv_indev_reset
 2264              		.code	16
 2265              		.thumb_func
 2266              		.type	lv_indev_reset, %function
ARM GAS  C:\Users\haske\AppData\Local\Temp\ccl1At1U.s 			page 69


 2267              	lv_indev_reset:
 2268              	.LFB169:
 152:..\..\..\arduinoLCD\test\Pain Drain\libraries\lvgl\src\core/lv_indev.c ****     if(indev) {
 2269              		.loc 1 152 0
 2270              		.cfi_startproc
 2271              		@ args = 0, pretend = 0, frame = 0
 2272              		@ frame_needed = 0, uses_anonymous_args = 0
 2273              	.LVL260:
 2274 0000 10B5     		push	{r4, lr}
 2275              		.cfi_def_cfa_offset 8
 2276              		.cfi_offset 4, -8
 2277              		.cfi_offset 14, -4
 2278 0002 0C00     		movs	r4, r1
 153:..\..\..\arduinoLCD\test\Pain Drain\libraries\lvgl\src\core/lv_indev.c ****         indev->proc.reset_query = 1;
 2279              		.loc 1 153 0
 2280 0004 0028     		cmp	r0, #0
 2281 0006 26D0     		beq	.L140
 154:..\..\..\arduinoLCD\test\Pain Drain\libraries\lvgl\src\core/lv_indev.c ****         if(indev_act == indev) indev_obj_act = NULL;
 2282              		.loc 1 154 0
 2283 0008 4279     		ldrb	r2, [r0, #5]
 2284 000a 0223     		movs	r3, #2
 2285 000c 1343     		orrs	r3, r2
 2286 000e 4371     		strb	r3, [r0, #5]
 155:..\..\..\arduinoLCD\test\Pain Drain\libraries\lvgl\src\core/lv_indev.c ****         if(indev->driver->type == LV_INDEV_TYPE_POINTER || indev->driver->type == LV_INDEV_TYPE_KEY
 2287              		.loc 1 155 0
 2288 0010 264B     		ldr	r3, .L156
 2289 0012 5B68     		ldr	r3, [r3, #4]
 2290 0014 9842     		cmp	r0, r3
 2291 0016 02D1     		bne	.L141
 155:..\..\..\arduinoLCD\test\Pain Drain\libraries\lvgl\src\core/lv_indev.c ****         if(indev->driver->type == LV_INDEV_TYPE_POINTER || indev->driver->type == LV_INDEV_TYPE_KEY
 2292              		.loc 1 155 0 is_stmt 0 discriminator 1
 2293 0018 0022     		movs	r2, #0
 2294 001a 244B     		ldr	r3, .L156
 2295 001c 1A60     		str	r2, [r3]
 2296              	.L141:
 156:..\..\..\arduinoLCD\test\Pain Drain\libraries\lvgl\src\core/lv_indev.c ****             if(obj == NULL || indev->proc.types.pointer.last_pressed == obj) {
 2297              		.loc 1 156 0 is_stmt 1
 2298 001e 0368     		ldr	r3, [r0]
 2299 0020 1B78     		ldrb	r3, [r3]
 2300 0022 013B     		subs	r3, r3, #1
 2301 0024 DBB2     		uxtb	r3, r3
 2302 0026 012B     		cmp	r3, #1
 2303 0028 3FD8     		bhi	.L139
 157:..\..\..\arduinoLCD\test\Pain Drain\libraries\lvgl\src\core/lv_indev.c ****                 indev->proc.types.pointer.last_pressed = NULL;
 2304              		.loc 1 157 0
 2305 002a 002C     		cmp	r4, #0
 2306 002c 02D0     		beq	.L143
 157:..\..\..\arduinoLCD\test\Pain Drain\libraries\lvgl\src\core/lv_indev.c ****                 indev->proc.types.pointer.last_pressed = NULL;
 2307              		.loc 1 157 0 is_stmt 0 discriminator 1
 2308 002e 436B     		ldr	r3, [r0, #52]
 2309 0030 9C42     		cmp	r4, r3
 2310 0032 01D1     		bne	.L144
 2311              	.L143:
 158:..\..\..\arduinoLCD\test\Pain Drain\libraries\lvgl\src\core/lv_indev.c ****             }
 2312              		.loc 1 158 0 is_stmt 1
 2313 0034 0023     		movs	r3, #0
 2314 0036 4363     		str	r3, [r0, #52]
ARM GAS  C:\Users\haske\AppData\Local\Temp\ccl1At1U.s 			page 70


 2315              	.L144:
 160:..\..\..\arduinoLCD\test\Pain Drain\libraries\lvgl\src\core/lv_indev.c ****                 indev->proc.types.pointer.act_obj = NULL;
 2316              		.loc 1 160 0
 2317 0038 002C     		cmp	r4, #0
 2318 003a 02D0     		beq	.L145
 160:..\..\..\arduinoLCD\test\Pain Drain\libraries\lvgl\src\core/lv_indev.c ****                 indev->proc.types.pointer.act_obj = NULL;
 2319              		.loc 1 160 0 is_stmt 0 discriminator 1
 2320 003c 836A     		ldr	r3, [r0, #40]
 2321 003e 9C42     		cmp	r4, r3
 2322 0040 01D1     		bne	.L146
 2323              	.L145:
 161:..\..\..\arduinoLCD\test\Pain Drain\libraries\lvgl\src\core/lv_indev.c ****             }
 2324              		.loc 1 161 0 is_stmt 1
 2325 0042 0023     		movs	r3, #0
 2326 0044 8362     		str	r3, [r0, #40]
 2327              	.L146:
 163:..\..\..\arduinoLCD\test\Pain Drain\libraries\lvgl\src\core/lv_indev.c ****                 indev->proc.types.pointer.last_obj = NULL;
 2328              		.loc 1 163 0
 2329 0046 002C     		cmp	r4, #0
 2330 0048 02D0     		beq	.L147
 163:..\..\..\arduinoLCD\test\Pain Drain\libraries\lvgl\src\core/lv_indev.c ****                 indev->proc.types.pointer.last_obj = NULL;
 2331              		.loc 1 163 0 is_stmt 0 discriminator 1
 2332 004a C36A     		ldr	r3, [r0, #44]
 2333 004c 9C42     		cmp	r4, r3
 2334 004e 2CD1     		bne	.L139
 2335              	.L147:
 164:..\..\..\arduinoLCD\test\Pain Drain\libraries\lvgl\src\core/lv_indev.c ****             }
 2336              		.loc 1 164 0 is_stmt 1
 2337 0050 0023     		movs	r3, #0
 2338 0052 C362     		str	r3, [r0, #44]
 2339 0054 29E0     		b	.L139
 2340              	.L140:
 2341              	.LBB18:
 169:..\..\..\arduinoLCD\test\Pain Drain\libraries\lvgl\src\core/lv_indev.c ****         while(i) {
 2342              		.loc 1 169 0
 2343 0056 0020     		movs	r0, #0
 2344              	.LVL261:
 2345 0058 FFF7FEFF 		bl	lv_indev_get_next
 2346              	.LVL262:
 170:..\..\..\arduinoLCD\test\Pain Drain\libraries\lvgl\src\core/lv_indev.c ****             i->proc.reset_query = 1;
 2347              		.loc 1 170 0
 2348 005c 20E0     		b	.L148
 2349              	.L155:
 171:..\..\..\arduinoLCD\test\Pain Drain\libraries\lvgl\src\core/lv_indev.c ****             if(i->driver->type == LV_INDEV_TYPE_POINTER || i->driver->type == LV_INDEV_TYPE_KEYPAD)
 2350              		.loc 1 171 0
 2351 005e 4279     		ldrb	r2, [r0, #5]
 2352 0060 0223     		movs	r3, #2
 2353 0062 1343     		orrs	r3, r2
 2354 0064 4371     		strb	r3, [r0, #5]
 172:..\..\..\arduinoLCD\test\Pain Drain\libraries\lvgl\src\core/lv_indev.c ****                 if(obj == NULL || i->proc.types.pointer.last_pressed == obj) {
 2355              		.loc 1 172 0
 2356 0066 0368     		ldr	r3, [r0]
 2357 0068 1B78     		ldrb	r3, [r3]
 2358 006a 013B     		subs	r3, r3, #1
 2359 006c DBB2     		uxtb	r3, r3
 2360 006e 012B     		cmp	r3, #1
 2361 0070 14D8     		bhi	.L149
ARM GAS  C:\Users\haske\AppData\Local\Temp\ccl1At1U.s 			page 71


 173:..\..\..\arduinoLCD\test\Pain Drain\libraries\lvgl\src\core/lv_indev.c ****                     i->proc.types.pointer.last_pressed = NULL;
 2362              		.loc 1 173 0
 2363 0072 002C     		cmp	r4, #0
 2364 0074 02D0     		beq	.L150
 173:..\..\..\arduinoLCD\test\Pain Drain\libraries\lvgl\src\core/lv_indev.c ****                     i->proc.types.pointer.last_pressed = NULL;
 2365              		.loc 1 173 0 is_stmt 0 discriminator 1
 2366 0076 436B     		ldr	r3, [r0, #52]
 2367 0078 9C42     		cmp	r4, r3
 2368 007a 01D1     		bne	.L151
 2369              	.L150:
 174:..\..\..\arduinoLCD\test\Pain Drain\libraries\lvgl\src\core/lv_indev.c ****                 }
 2370              		.loc 1 174 0 is_stmt 1
 2371 007c 0023     		movs	r3, #0
 2372 007e 4363     		str	r3, [r0, #52]
 2373              	.L151:
 176:..\..\..\arduinoLCD\test\Pain Drain\libraries\lvgl\src\core/lv_indev.c ****                     i->proc.types.pointer.act_obj = NULL;
 2374              		.loc 1 176 0
 2375 0080 002C     		cmp	r4, #0
 2376 0082 02D0     		beq	.L152
 176:..\..\..\arduinoLCD\test\Pain Drain\libraries\lvgl\src\core/lv_indev.c ****                     i->proc.types.pointer.act_obj = NULL;
 2377              		.loc 1 176 0 is_stmt 0 discriminator 1
 2378 0084 836A     		ldr	r3, [r0, #40]
 2379 0086 9C42     		cmp	r4, r3
 2380 0088 01D1     		bne	.L153
 2381              	.L152:
 177:..\..\..\arduinoLCD\test\Pain Drain\libraries\lvgl\src\core/lv_indev.c ****                 }
 2382              		.loc 1 177 0 is_stmt 1
 2383 008a 0023     		movs	r3, #0
 2384 008c 8362     		str	r3, [r0, #40]
 2385              	.L153:
 179:..\..\..\arduinoLCD\test\Pain Drain\libraries\lvgl\src\core/lv_indev.c ****                     i->proc.types.pointer.last_obj = NULL;
 2386              		.loc 1 179 0
 2387 008e 002C     		cmp	r4, #0
 2388 0090 02D0     		beq	.L154
 179:..\..\..\arduinoLCD\test\Pain Drain\libraries\lvgl\src\core/lv_indev.c ****                     i->proc.types.pointer.last_obj = NULL;
 2389              		.loc 1 179 0 is_stmt 0 discriminator 1
 2390 0092 C36A     		ldr	r3, [r0, #44]
 2391 0094 9C42     		cmp	r4, r3
 2392 0096 01D1     		bne	.L149
 2393              	.L154:
 180:..\..\..\arduinoLCD\test\Pain Drain\libraries\lvgl\src\core/lv_indev.c ****                 }
 2394              		.loc 1 180 0 is_stmt 1
 2395 0098 0023     		movs	r3, #0
 2396 009a C362     		str	r3, [r0, #44]
 2397              	.L149:
 183:..\..\..\arduinoLCD\test\Pain Drain\libraries\lvgl\src\core/lv_indev.c ****         }
 2398              		.loc 1 183 0
 2399 009c FFF7FEFF 		bl	lv_indev_get_next
 2400              	.LVL263:
 2401              	.L148:
 170:..\..\..\arduinoLCD\test\Pain Drain\libraries\lvgl\src\core/lv_indev.c ****             i->proc.reset_query = 1;
 2402              		.loc 1 170 0
 2403 00a0 0028     		cmp	r0, #0
 2404 00a2 DCD1     		bne	.L155
 185:..\..\..\arduinoLCD\test\Pain Drain\libraries\lvgl\src\core/lv_indev.c ****     }
 2405              		.loc 1 185 0
 2406 00a4 0022     		movs	r2, #0
ARM GAS  C:\Users\haske\AppData\Local\Temp\ccl1At1U.s 			page 72


 2407 00a6 014B     		ldr	r3, .L156
 2408 00a8 1A60     		str	r2, [r3]
 2409              	.LVL264:
 2410              	.L139:
 2411              	.LBE18:
 187:..\..\..\arduinoLCD\test\Pain Drain\libraries\lvgl\src\core/lv_indev.c **** 
 2412              		.loc 1 187 0
 2413              		@ sp needed
 2414              	.LVL265:
 2415 00aa 10BD     		pop	{r4, pc}
 2416              	.L157:
 2417              		.align	2
 2418              	.L156:
 2419 00ac 00000000 		.word	.LANCHOR0
 2420              		.cfi_endproc
 2421              	.LFE169:
 2422              		.size	lv_indev_reset, .-lv_indev_reset
 2423              		.section	.text.lv_indev_reset_long_press,"ax",%progbits
 2424              		.align	2
 2425              		.global	lv_indev_reset_long_press
 2426              		.code	16
 2427              		.thumb_func
 2428              		.type	lv_indev_reset_long_press, %function
 2429              	lv_indev_reset_long_press:
 2430              	.LFB170:
 190:..\..\..\arduinoLCD\test\Pain Drain\libraries\lvgl\src\core/lv_indev.c ****     indev->proc.long_pr_sent         = 0;
 2431              		.loc 1 190 0
 2432              		.cfi_startproc
 2433              		@ args = 0, pretend = 0, frame = 0
 2434              		@ frame_needed = 0, uses_anonymous_args = 0
 2435              	.LVL266:
 2436 0000 10B5     		push	{r4, lr}
 2437              		.cfi_def_cfa_offset 8
 2438              		.cfi_offset 4, -8
 2439              		.cfi_offset 14, -4
 2440 0002 0400     		movs	r4, r0
 191:..\..\..\arduinoLCD\test\Pain Drain\libraries\lvgl\src\core/lv_indev.c ****     indev->proc.longpr_rep_timestamp = lv_tick_get();
 2441              		.loc 1 191 0
 2442 0004 4379     		ldrb	r3, [r0, #5]
 2443 0006 0122     		movs	r2, #1
 2444 0008 9343     		bics	r3, r2
 2445 000a 4371     		strb	r3, [r0, #5]
 192:..\..\..\arduinoLCD\test\Pain Drain\libraries\lvgl\src\core/lv_indev.c ****     indev->proc.pr_timestamp         = lv_tick_get();
 2446              		.loc 1 192 0
 2447 000c FFF7FEFF 		bl	lv_tick_get
 2448              	.LVL267:
 2449 0010 E064     		str	r0, [r4, #76]
 193:..\..\..\arduinoLCD\test\Pain Drain\libraries\lvgl\src\core/lv_indev.c **** }
 2450              		.loc 1 193 0
 2451 0012 FFF7FEFF 		bl	lv_tick_get
 2452              	.LVL268:
 2453 0016 A064     		str	r0, [r4, #72]
 194:..\..\..\arduinoLCD\test\Pain Drain\libraries\lvgl\src\core/lv_indev.c **** 
 2454              		.loc 1 194 0
 2455              		@ sp needed
 2456              	.LVL269:
 2457 0018 10BD     		pop	{r4, pc}
ARM GAS  C:\Users\haske\AppData\Local\Temp\ccl1At1U.s 			page 73


 2458              		.cfi_endproc
 2459              	.LFE170:
 2460              		.size	lv_indev_reset_long_press, .-lv_indev_reset_long_press
 2461 001a C046     		.section	.text.lv_indev_set_cursor,"ax",%progbits
 2462              		.align	2
 2463              		.global	lv_indev_set_cursor
 2464              		.code	16
 2465              		.thumb_func
 2466              		.type	lv_indev_set_cursor, %function
 2467              	lv_indev_set_cursor:
 2468              	.LFB171:
 197:..\..\..\arduinoLCD\test\Pain Drain\libraries\lvgl\src\core/lv_indev.c ****     if(indev->driver->type != LV_INDEV_TYPE_POINTER) return;
 2469              		.loc 1 197 0
 2470              		.cfi_startproc
 2471              		@ args = 0, pretend = 0, frame = 0
 2472              		@ frame_needed = 0, uses_anonymous_args = 0
 2473              	.LVL270:
 2474 0000 70B5     		push	{r4, r5, r6, lr}
 2475              		.cfi_def_cfa_offset 16
 2476              		.cfi_offset 4, -16
 2477              		.cfi_offset 5, -12
 2478              		.cfi_offset 6, -8
 2479              		.cfi_offset 14, -4
 2480 0002 0400     		movs	r4, r0
 2481 0004 0D00     		movs	r5, r1
 198:..\..\..\arduinoLCD\test\Pain Drain\libraries\lvgl\src\core/lv_indev.c **** 
 2482              		.loc 1 198 0
 2483 0006 0368     		ldr	r3, [r0]
 2484 0008 1A78     		ldrb	r2, [r3]
 2485 000a 012A     		cmp	r2, #1
 2486 000c 17D1     		bne	.L159
 200:..\..\..\arduinoLCD\test\Pain Drain\libraries\lvgl\src\core/lv_indev.c ****     lv_obj_set_parent(indev->cursor, lv_disp_get_layer_sys(indev->driver->disp));
 2487              		.loc 1 200 0
 2488 000e 2165     		str	r1, [r4, #80]
 201:..\..\..\arduinoLCD\test\Pain Drain\libraries\lvgl\src\core/lv_indev.c ****     lv_obj_set_pos(indev->cursor, indev->proc.types.pointer.act_point.x, indev->proc.types.pointer.
 2489              		.loc 1 201 0
 2490 0010 1869     		ldr	r0, [r3, #16]
 2491              	.LVL271:
 2492 0012 FFF7FEFF 		bl	lv_disp_get_layer_sys
 2493              	.LVL272:
 2494 0016 0100     		movs	r1, r0
 2495 0018 2800     		movs	r0, r5
 2496 001a FFF7FEFF 		bl	lv_obj_set_parent
 2497              	.LVL273:
 202:..\..\..\arduinoLCD\test\Pain Drain\libraries\lvgl\src\core/lv_indev.c ****     lv_obj_clear_flag(indev->cursor, LV_OBJ_FLAG_CLICKABLE);
 2498              		.loc 1 202 0
 2499 001e 0A23     		movs	r3, #10
 2500 0020 E25E     		ldrsh	r2, [r4, r3]
 2501 0022 0823     		movs	r3, #8
 2502 0024 E15E     		ldrsh	r1, [r4, r3]
 2503 0026 206D     		ldr	r0, [r4, #80]
 2504 0028 FFF7FEFF 		bl	lv_obj_set_pos
 2505              	.LVL274:
 203:..\..\..\arduinoLCD\test\Pain Drain\libraries\lvgl\src\core/lv_indev.c ****     lv_obj_add_flag(indev->cursor, LV_OBJ_FLAG_IGNORE_LAYOUT | LV_OBJ_FLAG_FLOATING);
 2506              		.loc 1 203 0
 2507 002c 0221     		movs	r1, #2
 2508 002e 206D     		ldr	r0, [r4, #80]
ARM GAS  C:\Users\haske\AppData\Local\Temp\ccl1At1U.s 			page 74


 2509 0030 FFF7FEFF 		bl	lv_obj_clear_flag
 2510              	.LVL275:
 204:..\..\..\arduinoLCD\test\Pain Drain\libraries\lvgl\src\core/lv_indev.c **** }
 2511              		.loc 1 204 0
 2512 0034 206D     		ldr	r0, [r4, #80]
 2513 0036 C021     		movs	r1, #192
 2514 0038 C902     		lsls	r1, r1, #11
 2515 003a FFF7FEFF 		bl	lv_obj_add_flag
 2516              	.LVL276:
 2517              	.L159:
 205:..\..\..\arduinoLCD\test\Pain Drain\libraries\lvgl\src\core/lv_indev.c **** 
 2518              		.loc 1 205 0
 2519              		@ sp needed
 2520              	.LVL277:
 2521              	.LVL278:
 2522 003e 70BD     		pop	{r4, r5, r6, pc}
 2523              		.cfi_endproc
 2524              	.LFE171:
 2525              		.size	lv_indev_set_cursor, .-lv_indev_set_cursor
 2526              		.section	.text.lv_indev_set_group,"ax",%progbits
 2527              		.align	2
 2528              		.global	lv_indev_set_group
 2529              		.code	16
 2530              		.thumb_func
 2531              		.type	lv_indev_set_group, %function
 2532              	lv_indev_set_group:
 2533              	.LFB172:
 208:..\..\..\arduinoLCD\test\Pain Drain\libraries\lvgl\src\core/lv_indev.c ****     if(indev->driver->type == LV_INDEV_TYPE_KEYPAD || indev->driver->type == LV_INDEV_TYPE_ENCODER)
 2534              		.loc 1 208 0
 2535              		.cfi_startproc
 2536              		@ args = 0, pretend = 0, frame = 0
 2537              		@ frame_needed = 0, uses_anonymous_args = 0
 2538              		@ link register save eliminated.
 2539              	.LVL279:
 209:..\..\..\arduinoLCD\test\Pain Drain\libraries\lvgl\src\core/lv_indev.c ****         indev->group = group;
 2540              		.loc 1 209 0
 2541 0000 0368     		ldr	r3, [r0]
 2542 0002 1B78     		ldrb	r3, [r3]
 2543 0004 022B     		cmp	r3, #2
 2544 0006 01D0     		beq	.L162
 209:..\..\..\arduinoLCD\test\Pain Drain\libraries\lvgl\src\core/lv_indev.c ****         indev->group = group;
 2545              		.loc 1 209 0 is_stmt 0 discriminator 1
 2546 0008 042B     		cmp	r3, #4
 2547 000a 00D1     		bne	.L161
 2548              	.L162:
 210:..\..\..\arduinoLCD\test\Pain Drain\libraries\lvgl\src\core/lv_indev.c ****     }
 2549              		.loc 1 210 0 is_stmt 1
 2550 000c 4165     		str	r1, [r0, #84]
 2551              	.L161:
 212:..\..\..\arduinoLCD\test\Pain Drain\libraries\lvgl\src\core/lv_indev.c **** 
 2552              		.loc 1 212 0
 2553              		@ sp needed
 2554 000e 7047     		bx	lr
 2555              		.cfi_endproc
 2556              	.LFE172:
 2557              		.size	lv_indev_set_group, .-lv_indev_set_group
 2558              		.section	.text.lv_indev_set_button_points,"ax",%progbits
ARM GAS  C:\Users\haske\AppData\Local\Temp\ccl1At1U.s 			page 75


 2559              		.align	2
 2560              		.global	lv_indev_set_button_points
 2561              		.code	16
 2562              		.thumb_func
 2563              		.type	lv_indev_set_button_points, %function
 2564              	lv_indev_set_button_points:
 2565              	.LFB173:
 215:..\..\..\arduinoLCD\test\Pain Drain\libraries\lvgl\src\core/lv_indev.c ****     if(indev->driver->type == LV_INDEV_TYPE_BUTTON) {
 2566              		.loc 1 215 0
 2567              		.cfi_startproc
 2568              		@ args = 0, pretend = 0, frame = 0
 2569              		@ frame_needed = 0, uses_anonymous_args = 0
 2570              		@ link register save eliminated.
 2571              	.LVL280:
 216:..\..\..\arduinoLCD\test\Pain Drain\libraries\lvgl\src\core/lv_indev.c ****         indev->btn_points = points;
 2572              		.loc 1 216 0
 2573 0000 0368     		ldr	r3, [r0]
 2574 0002 1B78     		ldrb	r3, [r3]
 2575 0004 032B     		cmp	r3, #3
 2576 0006 00D1     		bne	.L164
 217:..\..\..\arduinoLCD\test\Pain Drain\libraries\lvgl\src\core/lv_indev.c ****     }
 2577              		.loc 1 217 0
 2578 0008 8165     		str	r1, [r0, #88]
 2579              	.L164:
 219:..\..\..\arduinoLCD\test\Pain Drain\libraries\lvgl\src\core/lv_indev.c **** 
 2580              		.loc 1 219 0
 2581              		@ sp needed
 2582 000a 7047     		bx	lr
 2583              		.cfi_endproc
 2584              	.LFE173:
 2585              		.size	lv_indev_set_button_points, .-lv_indev_set_button_points
 2586              		.section	.text.lv_indev_get_point,"ax",%progbits
 2587              		.align	2
 2588              		.global	lv_indev_get_point
 2589              		.code	16
 2590              		.thumb_func
 2591              		.type	lv_indev_get_point, %function
 2592              	lv_indev_get_point:
 2593              	.LFB174:
 222:..\..\..\arduinoLCD\test\Pain Drain\libraries\lvgl\src\core/lv_indev.c ****     if(indev == NULL) {
 2594              		.loc 1 222 0
 2595              		.cfi_startproc
 2596              		@ args = 0, pretend = 0, frame = 0
 2597              		@ frame_needed = 0, uses_anonymous_args = 0
 2598              		@ link register save eliminated.
 2599              	.LVL281:
 223:..\..\..\arduinoLCD\test\Pain Drain\libraries\lvgl\src\core/lv_indev.c ****         point->x = 0;
 2600              		.loc 1 223 0
 2601 0000 0028     		cmp	r0, #0
 2602 0002 03D1     		bne	.L167
 224:..\..\..\arduinoLCD\test\Pain Drain\libraries\lvgl\src\core/lv_indev.c ****         point->y = 0;
 2603              		.loc 1 224 0
 2604 0004 0023     		movs	r3, #0
 2605 0006 0B80     		strh	r3, [r1]
 225:..\..\..\arduinoLCD\test\Pain Drain\libraries\lvgl\src\core/lv_indev.c ****         return;
 2606              		.loc 1 225 0
 2607 0008 4B80     		strh	r3, [r1, #2]
ARM GAS  C:\Users\haske\AppData\Local\Temp\ccl1At1U.s 			page 76


 226:..\..\..\arduinoLCD\test\Pain Drain\libraries\lvgl\src\core/lv_indev.c ****     }
 2608              		.loc 1 226 0
 2609 000a 10E0     		b	.L166
 2610              	.L167:
 228:..\..\..\arduinoLCD\test\Pain Drain\libraries\lvgl\src\core/lv_indev.c ****         point->x = -1;
 2611              		.loc 1 228 0
 2612 000c 0368     		ldr	r3, [r0]
 2613 000e 1B78     		ldrb	r3, [r3]
 2614 0010 012B     		cmp	r3, #1
 2615 0012 06D0     		beq	.L169
 228:..\..\..\arduinoLCD\test\Pain Drain\libraries\lvgl\src\core/lv_indev.c ****         point->x = -1;
 2616              		.loc 1 228 0 is_stmt 0 discriminator 1
 2617 0014 032B     		cmp	r3, #3
 2618 0016 04D0     		beq	.L169
 229:..\..\..\arduinoLCD\test\Pain Drain\libraries\lvgl\src\core/lv_indev.c ****         point->y = -1;
 2619              		.loc 1 229 0 is_stmt 1
 2620 0018 0123     		movs	r3, #1
 2621 001a 5B42     		rsbs	r3, r3, #0
 2622 001c 0B80     		strh	r3, [r1]
 230:..\..\..\arduinoLCD\test\Pain Drain\libraries\lvgl\src\core/lv_indev.c ****     }
 2623              		.loc 1 230 0
 2624 001e 4B80     		strh	r3, [r1, #2]
 2625 0020 05E0     		b	.L166
 2626              	.L169:
 233:..\..\..\arduinoLCD\test\Pain Drain\libraries\lvgl\src\core/lv_indev.c ****         point->y = indev->proc.types.pointer.act_point.y;
 2627              		.loc 1 233 0
 2628 0022 0822     		movs	r2, #8
 2629 0024 835E     		ldrsh	r3, [r0, r2]
 2630 0026 0B80     		strh	r3, [r1]
 234:..\..\..\arduinoLCD\test\Pain Drain\libraries\lvgl\src\core/lv_indev.c ****     }
 2631              		.loc 1 234 0
 2632 0028 0A22     		movs	r2, #10
 2633 002a 835E     		ldrsh	r3, [r0, r2]
 2634 002c 4B80     		strh	r3, [r1, #2]
 2635              	.L166:
 236:..\..\..\arduinoLCD\test\Pain Drain\libraries\lvgl\src\core/lv_indev.c **** 
 2636              		.loc 1 236 0
 2637              		@ sp needed
 2638 002e 7047     		bx	lr
 2639              		.cfi_endproc
 2640              	.LFE174:
 2641              		.size	lv_indev_get_point, .-lv_indev_get_point
 2642              		.section	.text.lv_indev_get_gesture_dir,"ax",%progbits
 2643              		.align	2
 2644              		.global	lv_indev_get_gesture_dir
 2645              		.code	16
 2646              		.thumb_func
 2647              		.type	lv_indev_get_gesture_dir, %function
 2648              	lv_indev_get_gesture_dir:
 2649              	.LFB175:
 239:..\..\..\arduinoLCD\test\Pain Drain\libraries\lvgl\src\core/lv_indev.c ****     return indev->proc.types.pointer.gesture_dir;
 2650              		.loc 1 239 0
 2651              		.cfi_startproc
 2652              		@ args = 0, pretend = 0, frame = 0
 2653              		@ frame_needed = 0, uses_anonymous_args = 0
 2654              		@ link register save eliminated.
 2655              	.LVL282:
ARM GAS  C:\Users\haske\AppData\Local\Temp\ccl1At1U.s 			page 77


 240:..\..\..\arduinoLCD\test\Pain Drain\libraries\lvgl\src\core/lv_indev.c **** }
 2656              		.loc 1 240 0
 2657 0000 4423     		movs	r3, #68
 2658 0002 C05C     		ldrb	r0, [r0, r3]
 2659              	.LVL283:
 2660 0004 0009     		lsrs	r0, r0, #4
 241:..\..\..\arduinoLCD\test\Pain Drain\libraries\lvgl\src\core/lv_indev.c **** 
 2661              		.loc 1 241 0
 2662              		@ sp needed
 2663 0006 7047     		bx	lr
 2664              		.cfi_endproc
 2665              	.LFE175:
 2666              		.size	lv_indev_get_gesture_dir, .-lv_indev_get_gesture_dir
 2667              		.section	.text.lv_indev_get_key,"ax",%progbits
 2668              		.align	2
 2669              		.global	lv_indev_get_key
 2670              		.code	16
 2671              		.thumb_func
 2672              		.type	lv_indev_get_key, %function
 2673              	lv_indev_get_key:
 2674              	.LFB176:
 244:..\..\..\arduinoLCD\test\Pain Drain\libraries\lvgl\src\core/lv_indev.c ****     if(indev->driver->type != LV_INDEV_TYPE_KEYPAD)
 2675              		.loc 1 244 0
 2676              		.cfi_startproc
 2677              		@ args = 0, pretend = 0, frame = 0
 2678              		@ frame_needed = 0, uses_anonymous_args = 0
 2679              		@ link register save eliminated.
 2680              	.LVL284:
 245:..\..\..\arduinoLCD\test\Pain Drain\libraries\lvgl\src\core/lv_indev.c ****         return 0;
 2681              		.loc 1 245 0
 2682 0000 0368     		ldr	r3, [r0]
 2683 0002 1B78     		ldrb	r3, [r3]
 2684 0004 022B     		cmp	r3, #2
 2685 0006 01D1     		bne	.L173
 248:..\..\..\arduinoLCD\test\Pain Drain\libraries\lvgl\src\core/lv_indev.c **** }
 2686              		.loc 1 248 0
 2687 0008 C068     		ldr	r0, [r0, #12]
 2688              	.LVL285:
 2689 000a 00E0     		b	.L172
 2690              	.LVL286:
 2691              	.L173:
 246:..\..\..\arduinoLCD\test\Pain Drain\libraries\lvgl\src\core/lv_indev.c ****     else
 2692              		.loc 1 246 0
 2693 000c 0020     		movs	r0, #0
 2694              	.LVL287:
 2695              	.L172:
 249:..\..\..\arduinoLCD\test\Pain Drain\libraries\lvgl\src\core/lv_indev.c **** 
 2696              		.loc 1 249 0
 2697              		@ sp needed
 2698 000e 7047     		bx	lr
 2699              		.cfi_endproc
 2700              	.LFE176:
 2701              		.size	lv_indev_get_key, .-lv_indev_get_key
 2702              		.section	.text.lv_indev_get_scroll_dir,"ax",%progbits
 2703              		.align	2
 2704              		.global	lv_indev_get_scroll_dir
 2705              		.code	16
ARM GAS  C:\Users\haske\AppData\Local\Temp\ccl1At1U.s 			page 78


 2706              		.thumb_func
 2707              		.type	lv_indev_get_scroll_dir, %function
 2708              	lv_indev_get_scroll_dir:
 2709              	.LFB177:
 252:..\..\..\arduinoLCD\test\Pain Drain\libraries\lvgl\src\core/lv_indev.c ****     if(indev == NULL) return false;
 2710              		.loc 1 252 0
 2711              		.cfi_startproc
 2712              		@ args = 0, pretend = 0, frame = 0
 2713              		@ frame_needed = 0, uses_anonymous_args = 0
 2714              		@ link register save eliminated.
 2715              	.LVL288:
 253:..\..\..\arduinoLCD\test\Pain Drain\libraries\lvgl\src\core/lv_indev.c ****     if(indev->driver->type != LV_INDEV_TYPE_POINTER && indev->driver->type != LV_INDEV_TYPE_BUTTON)
 2716              		.loc 1 253 0
 2717 0000 0028     		cmp	r0, #0
 2718 0002 0AD0     		beq	.L177
 254:..\..\..\arduinoLCD\test\Pain Drain\libraries\lvgl\src\core/lv_indev.c ****     return indev->proc.types.pointer.scroll_dir;
 2719              		.loc 1 254 0
 2720 0004 0368     		ldr	r3, [r0]
 2721 0006 1B78     		ldrb	r3, [r3]
 2722 0008 012B     		cmp	r3, #1
 2723 000a 01D0     		beq	.L176
 254:..\..\..\arduinoLCD\test\Pain Drain\libraries\lvgl\src\core/lv_indev.c ****     return indev->proc.types.pointer.scroll_dir;
 2724              		.loc 1 254 0 is_stmt 0 discriminator 1
 2725 000c 032B     		cmp	r3, #3
 2726 000e 06D1     		bne	.L178
 2727              	.L176:
 255:..\..\..\arduinoLCD\test\Pain Drain\libraries\lvgl\src\core/lv_indev.c **** }
 2728              		.loc 1 255 0 is_stmt 1
 2729 0010 4423     		movs	r3, #68
 2730 0012 C05C     		ldrb	r0, [r0, r3]
 2731              	.LVL289:
 2732 0014 0007     		lsls	r0, r0, #28
 2733 0016 000F     		lsrs	r0, r0, #28
 2734 0018 02E0     		b	.L175
 2735              	.LVL290:
 2736              	.L177:
 253:..\..\..\arduinoLCD\test\Pain Drain\libraries\lvgl\src\core/lv_indev.c ****     if(indev->driver->type != LV_INDEV_TYPE_POINTER && indev->driver->type != LV_INDEV_TYPE_BUTTON)
 2737              		.loc 1 253 0
 2738 001a 0020     		movs	r0, #0
 2739              	.LVL291:
 2740 001c 00E0     		b	.L175
 2741              	.LVL292:
 2742              	.L178:
 254:..\..\..\arduinoLCD\test\Pain Drain\libraries\lvgl\src\core/lv_indev.c ****     return indev->proc.types.pointer.scroll_dir;
 2743              		.loc 1 254 0
 2744 001e 0020     		movs	r0, #0
 2745              	.LVL293:
 2746              	.L175:
 256:..\..\..\arduinoLCD\test\Pain Drain\libraries\lvgl\src\core/lv_indev.c **** 
 2747              		.loc 1 256 0
 2748              		@ sp needed
 2749 0020 7047     		bx	lr
 2750              		.cfi_endproc
 2751              	.LFE177:
 2752              		.size	lv_indev_get_scroll_dir, .-lv_indev_get_scroll_dir
 2753 0022 C046     		.section	.text.lv_indev_get_scroll_obj,"ax",%progbits
 2754              		.align	2
ARM GAS  C:\Users\haske\AppData\Local\Temp\ccl1At1U.s 			page 79


 2755              		.global	lv_indev_get_scroll_obj
 2756              		.code	16
 2757              		.thumb_func
 2758              		.type	lv_indev_get_scroll_obj, %function
 2759              	lv_indev_get_scroll_obj:
 2760              	.LFB178:
 259:..\..\..\arduinoLCD\test\Pain Drain\libraries\lvgl\src\core/lv_indev.c ****     if(indev == NULL) return NULL;
 2761              		.loc 1 259 0
 2762              		.cfi_startproc
 2763              		@ args = 0, pretend = 0, frame = 0
 2764              		@ frame_needed = 0, uses_anonymous_args = 0
 2765              		@ link register save eliminated.
 2766              	.LVL294:
 260:..\..\..\arduinoLCD\test\Pain Drain\libraries\lvgl\src\core/lv_indev.c ****     if(indev->driver->type != LV_INDEV_TYPE_POINTER && indev->driver->type != LV_INDEV_TYPE_BUTTON)
 2767              		.loc 1 260 0
 2768 0000 0028     		cmp	r0, #0
 2769 0002 07D0     		beq	.L182
 261:..\..\..\arduinoLCD\test\Pain Drain\libraries\lvgl\src\core/lv_indev.c ****     return indev->proc.types.pointer.scroll_obj;
 2770              		.loc 1 261 0
 2771 0004 0368     		ldr	r3, [r0]
 2772 0006 1B78     		ldrb	r3, [r3]
 2773 0008 012B     		cmp	r3, #1
 2774 000a 01D0     		beq	.L181
 261:..\..\..\arduinoLCD\test\Pain Drain\libraries\lvgl\src\core/lv_indev.c ****     return indev->proc.types.pointer.scroll_obj;
 2775              		.loc 1 261 0 is_stmt 0 discriminator 1
 2776 000c 032B     		cmp	r3, #3
 2777 000e 03D1     		bne	.L183
 2778              	.L181:
 262:..\..\..\arduinoLCD\test\Pain Drain\libraries\lvgl\src\core/lv_indev.c **** }
 2779              		.loc 1 262 0 is_stmt 1
 2780 0010 006B     		ldr	r0, [r0, #48]
 2781              	.LVL295:
 2782 0012 02E0     		b	.L180
 2783              	.LVL296:
 2784              	.L182:
 260:..\..\..\arduinoLCD\test\Pain Drain\libraries\lvgl\src\core/lv_indev.c ****     if(indev->driver->type != LV_INDEV_TYPE_POINTER && indev->driver->type != LV_INDEV_TYPE_BUTTON)
 2785              		.loc 1 260 0
 2786 0014 0020     		movs	r0, #0
 2787              	.LVL297:
 2788 0016 00E0     		b	.L180
 2789              	.LVL298:
 2790              	.L183:
 261:..\..\..\arduinoLCD\test\Pain Drain\libraries\lvgl\src\core/lv_indev.c ****     return indev->proc.types.pointer.scroll_obj;
 2791              		.loc 1 261 0
 2792 0018 0020     		movs	r0, #0
 2793              	.LVL299:
 2794              	.L180:
 263:..\..\..\arduinoLCD\test\Pain Drain\libraries\lvgl\src\core/lv_indev.c **** 
 2795              		.loc 1 263 0
 2796              		@ sp needed
 2797 001a 7047     		bx	lr
 2798              		.cfi_endproc
 2799              	.LFE178:
 2800              		.size	lv_indev_get_scroll_obj, .-lv_indev_get_scroll_obj
 2801              		.section	.text.lv_indev_get_vect,"ax",%progbits
 2802              		.align	2
 2803              		.global	lv_indev_get_vect
ARM GAS  C:\Users\haske\AppData\Local\Temp\ccl1At1U.s 			page 80


 2804              		.code	16
 2805              		.thumb_func
 2806              		.type	lv_indev_get_vect, %function
 2807              	lv_indev_get_vect:
 2808              	.LFB179:
 266:..\..\..\arduinoLCD\test\Pain Drain\libraries\lvgl\src\core/lv_indev.c ****     point->x = 0;
 2809              		.loc 1 266 0
 2810              		.cfi_startproc
 2811              		@ args = 0, pretend = 0, frame = 0
 2812              		@ frame_needed = 0, uses_anonymous_args = 0
 2813              		@ link register save eliminated.
 2814              	.LVL300:
 267:..\..\..\arduinoLCD\test\Pain Drain\libraries\lvgl\src\core/lv_indev.c ****     point->y = 0;
 2815              		.loc 1 267 0
 2816 0000 0023     		movs	r3, #0
 2817 0002 0B80     		strh	r3, [r1]
 268:..\..\..\arduinoLCD\test\Pain Drain\libraries\lvgl\src\core/lv_indev.c **** 
 2818              		.loc 1 268 0
 2819 0004 4B80     		strh	r3, [r1, #2]
 270:..\..\..\arduinoLCD\test\Pain Drain\libraries\lvgl\src\core/lv_indev.c **** 
 2820              		.loc 1 270 0
 2821 0006 0028     		cmp	r0, #0
 2822 0008 0BD0     		beq	.L184
 272:..\..\..\arduinoLCD\test\Pain Drain\libraries\lvgl\src\core/lv_indev.c ****         point->x = indev->proc.types.pointer.vect.x;
 2823              		.loc 1 272 0
 2824 000a 0368     		ldr	r3, [r0]
 2825 000c 1B78     		ldrb	r3, [r3]
 2826 000e 012B     		cmp	r3, #1
 2827 0010 01D0     		beq	.L186
 272:..\..\..\arduinoLCD\test\Pain Drain\libraries\lvgl\src\core/lv_indev.c ****         point->x = indev->proc.types.pointer.vect.x;
 2828              		.loc 1 272 0 is_stmt 0 discriminator 1
 2829 0012 032B     		cmp	r3, #3
 2830 0014 05D1     		bne	.L184
 2831              	.L186:
 273:..\..\..\arduinoLCD\test\Pain Drain\libraries\lvgl\src\core/lv_indev.c ****         point->y = indev->proc.types.pointer.vect.y;
 2832              		.loc 1 273 0 is_stmt 1
 2833 0016 1822     		movs	r2, #24
 2834 0018 835E     		ldrsh	r3, [r0, r2]
 2835 001a 0B80     		strh	r3, [r1]
 274:..\..\..\arduinoLCD\test\Pain Drain\libraries\lvgl\src\core/lv_indev.c ****     }
 2836              		.loc 1 274 0
 2837 001c 1A22     		movs	r2, #26
 2838 001e 835E     		ldrsh	r3, [r0, r2]
 2839 0020 4B80     		strh	r3, [r1, #2]
 2840              	.L184:
 276:..\..\..\arduinoLCD\test\Pain Drain\libraries\lvgl\src\core/lv_indev.c **** 
 2841              		.loc 1 276 0
 2842              		@ sp needed
 2843 0022 7047     		bx	lr
 2844              		.cfi_endproc
 2845              	.LFE179:
 2846              		.size	lv_indev_get_vect, .-lv_indev_get_vect
 2847              		.section	.text.lv_indev_wait_release,"ax",%progbits
 2848              		.align	2
 2849              		.global	lv_indev_wait_release
 2850              		.code	16
 2851              		.thumb_func
ARM GAS  C:\Users\haske\AppData\Local\Temp\ccl1At1U.s 			page 81


 2852              		.type	lv_indev_wait_release, %function
 2853              	lv_indev_wait_release:
 2854              	.LFB180:
 279:..\..\..\arduinoLCD\test\Pain Drain\libraries\lvgl\src\core/lv_indev.c ****     if(indev == NULL)return;
 2855              		.loc 1 279 0
 2856              		.cfi_startproc
 2857              		@ args = 0, pretend = 0, frame = 0
 2858              		@ frame_needed = 0, uses_anonymous_args = 0
 2859              		@ link register save eliminated.
 2860              	.LVL301:
 280:..\..\..\arduinoLCD\test\Pain Drain\libraries\lvgl\src\core/lv_indev.c ****     indev->proc.wait_until_release = 1;
 2861              		.loc 1 280 0
 2862 0000 0028     		cmp	r0, #0
 2863 0002 03D0     		beq	.L187
 281:..\..\..\arduinoLCD\test\Pain Drain\libraries\lvgl\src\core/lv_indev.c **** }
 2864              		.loc 1 281 0
 2865 0004 4279     		ldrb	r2, [r0, #5]
 2866 0006 0823     		movs	r3, #8
 2867 0008 1343     		orrs	r3, r2
 2868 000a 4371     		strb	r3, [r0, #5]
 2869              	.L187:
 282:..\..\..\arduinoLCD\test\Pain Drain\libraries\lvgl\src\core/lv_indev.c **** 
 2870              		.loc 1 282 0
 2871              		@ sp needed
 2872 000c 7047     		bx	lr
 2873              		.cfi_endproc
 2874              	.LFE180:
 2875              		.size	lv_indev_wait_release, .-lv_indev_wait_release
 2876 000e C046     		.section	.text.lv_indev_get_obj_act,"ax",%progbits
 2877              		.align	2
 2878              		.global	lv_indev_get_obj_act
 2879              		.code	16
 2880              		.thumb_func
 2881              		.type	lv_indev_get_obj_act, %function
 2882              	lv_indev_get_obj_act:
 2883              	.LFB181:
 285:..\..\..\arduinoLCD\test\Pain Drain\libraries\lvgl\src\core/lv_indev.c ****     return indev_obj_act;
 2884              		.loc 1 285 0
 2885              		.cfi_startproc
 2886              		@ args = 0, pretend = 0, frame = 0
 2887              		@ frame_needed = 0, uses_anonymous_args = 0
 2888              		@ link register save eliminated.
 286:..\..\..\arduinoLCD\test\Pain Drain\libraries\lvgl\src\core/lv_indev.c **** }
 2889              		.loc 1 286 0
 2890 0000 014B     		ldr	r3, .L190
 2891 0002 1868     		ldr	r0, [r3]
 287:..\..\..\arduinoLCD\test\Pain Drain\libraries\lvgl\src\core/lv_indev.c **** 
 2892              		.loc 1 287 0
 2893              		@ sp needed
 2894 0004 7047     		bx	lr
 2895              	.L191:
 2896 0006 C046     		.align	2
 2897              	.L190:
 2898 0008 00000000 		.word	.LANCHOR0
 2899              		.cfi_endproc
 2900              	.LFE181:
 2901              		.size	lv_indev_get_obj_act, .-lv_indev_get_obj_act
ARM GAS  C:\Users\haske\AppData\Local\Temp\ccl1At1U.s 			page 82


 2902              		.section	.text.lv_indev_get_read_timer,"ax",%progbits
 2903              		.align	2
 2904              		.global	lv_indev_get_read_timer
 2905              		.code	16
 2906              		.thumb_func
 2907              		.type	lv_indev_get_read_timer, %function
 2908              	lv_indev_get_read_timer:
 2909              	.LFB182:
 290:..\..\..\arduinoLCD\test\Pain Drain\libraries\lvgl\src\core/lv_indev.c ****     if(!indev) {
 2910              		.loc 1 290 0
 2911              		.cfi_startproc
 2912              		@ args = 0, pretend = 0, frame = 0
 2913              		@ frame_needed = 0, uses_anonymous_args = 0
 2914              		@ link register save eliminated.
 2915              	.LVL302:
 291:..\..\..\arduinoLCD\test\Pain Drain\libraries\lvgl\src\core/lv_indev.c ****         LV_LOG_WARN("lv_indev_get_read_timer: indev was NULL");
 2916              		.loc 1 291 0
 2917 0000 0028     		cmp	r0, #0
 2918 0002 01D0     		beq	.L194
 296:..\..\..\arduinoLCD\test\Pain Drain\libraries\lvgl\src\core/lv_indev.c **** }
 2919              		.loc 1 296 0
 2920 0004 4068     		ldr	r0, [r0, #4]
 2921              	.LVL303:
 2922 0006 00E0     		b	.L193
 2923              	.LVL304:
 2924              	.L194:
 293:..\..\..\arduinoLCD\test\Pain Drain\libraries\lvgl\src\core/lv_indev.c ****     }
 2925              		.loc 1 293 0
 2926 0008 0020     		movs	r0, #0
 2927              	.LVL305:
 2928              	.L193:
 297:..\..\..\arduinoLCD\test\Pain Drain\libraries\lvgl\src\core/lv_indev.c **** 
 2929              		.loc 1 297 0
 2930              		@ sp needed
 2931 000a 7047     		bx	lr
 2932              		.cfi_endproc
 2933              	.LFE182:
 2934              		.size	lv_indev_get_read_timer, .-lv_indev_get_read_timer
 2935              		.section	.text.lv_indev_search_obj,"ax",%progbits
 2936              		.align	2
 2937              		.global	lv_indev_search_obj
 2938              		.code	16
 2939              		.thumb_func
 2940              		.type	lv_indev_search_obj, %function
 2941              	lv_indev_search_obj:
 2942              	.LFB183:
 301:..\..\..\arduinoLCD\test\Pain Drain\libraries\lvgl\src\core/lv_indev.c ****     lv_obj_t * found_p = NULL;
 2943              		.loc 1 301 0
 2944              		.cfi_startproc
 2945              		@ args = 0, pretend = 0, frame = 8
 2946              		@ frame_needed = 0, uses_anonymous_args = 0
 2947              	.LVL306:
 2948 0000 70B5     		push	{r4, r5, r6, lr}
 2949              		.cfi_def_cfa_offset 16
 2950              		.cfi_offset 4, -16
 2951              		.cfi_offset 5, -12
 2952              		.cfi_offset 6, -8
ARM GAS  C:\Users\haske\AppData\Local\Temp\ccl1At1U.s 			page 83


 2953              		.cfi_offset 14, -4
 2954 0002 82B0     		sub	sp, sp, #8
 2955              		.cfi_def_cfa_offset 24
 2956 0004 0500     		movs	r5, r0
 2957 0006 0C00     		movs	r4, r1
 2958              	.LVL307:
 305:..\..\..\arduinoLCD\test\Pain Drain\libraries\lvgl\src\core/lv_indev.c **** 
 2959              		.loc 1 305 0
 2960 0008 0121     		movs	r1, #1
 2961              	.LVL308:
 2962 000a FFF7FEFF 		bl	lv_obj_has_flag
 2963              	.LVL309:
 2964 000e 0028     		cmp	r0, #0
 2965 0010 33D1     		bne	.L201
 307:..\..\..\arduinoLCD\test\Pain Drain\libraries\lvgl\src\core/lv_indev.c ****     lv_obj_transform_point(obj, &p_trans, false, true);
 2966              		.loc 1 307 0
 2967 0012 0422     		movs	r2, #4
 2968 0014 2100     		movs	r1, r4
 2969 0016 01A8     		add	r0, sp, #4
 2970 0018 FFF7FEFF 		bl	memcpy
 2971              	.LVL310:
 308:..\..\..\arduinoLCD\test\Pain Drain\libraries\lvgl\src\core/lv_indev.c **** 
 2972              		.loc 1 308 0
 2973 001c 0123     		movs	r3, #1
 2974 001e 0022     		movs	r2, #0
 2975 0020 01A9     		add	r1, sp, #4
 2976 0022 2800     		movs	r0, r5
 2977 0024 FFF7FEFF 		bl	lv_obj_transform_point
 2978              	.LVL311:
 310:..\..\..\arduinoLCD\test\Pain Drain\libraries\lvgl\src\core/lv_indev.c **** 
 2979              		.loc 1 310 0
 2980 0028 01A9     		add	r1, sp, #4
 2981 002a 2800     		movs	r0, r5
 2982 002c FFF7FEFF 		bl	lv_obj_hit_test
 2983              	.LVL312:
 2984 0030 0600     		movs	r6, r0
 2985              	.LVL313:
 313:..\..\..\arduinoLCD\test\Pain Drain\libraries\lvgl\src\core/lv_indev.c ****         int32_t i;
 2986              		.loc 1 313 0
 2987 0032 2800     		movs	r0, r5
 2988              	.LVL314:
 2989 0034 1430     		adds	r0, r0, #20
 2990 0036 0022     		movs	r2, #0
 2991 0038 01A9     		add	r1, sp, #4
 2992 003a FFF7FEFF 		bl	_lv_area_is_point_on
 2993              	.LVL315:
 2994 003e 0028     		cmp	r0, #0
 2995 0040 06D1     		bne	.L197
 313:..\..\..\arduinoLCD\test\Pain Drain\libraries\lvgl\src\core/lv_indev.c ****         int32_t i;
 2996              		.loc 1 313 0 is_stmt 0 discriminator 1
 2997 0042 8021     		movs	r1, #128
 2998 0044 0903     		lsls	r1, r1, #12
 2999 0046 2800     		movs	r0, r5
 3000 0048 FFF7FEFF 		bl	lv_obj_has_flag
 3001              	.LVL316:
 3002 004c 0028     		cmp	r0, #0
 3003 004e 10D0     		beq	.L198
ARM GAS  C:\Users\haske\AppData\Local\Temp\ccl1At1U.s 			page 84


 3004              	.L197:
 3005              	.LBB19:
 315:..\..\..\arduinoLCD\test\Pain Drain\libraries\lvgl\src\core/lv_indev.c **** 
 3006              		.loc 1 315 0 is_stmt 1
 3007 0050 2800     		movs	r0, r5
 3008 0052 FFF7FEFF 		bl	lv_obj_get_child_cnt
 3009              	.LVL317:
 318:..\..\..\arduinoLCD\test\Pain Drain\libraries\lvgl\src\core/lv_indev.c ****             lv_obj_t * child = obj->spec_attr->children[i];
 3010              		.loc 1 318 0
 3011 0056 441E     		subs	r4, r0, #1
 3012              	.LVL318:
 3013 0058 09E0     		b	.L199
 3014              	.LVL319:
 3015              	.L200:
 3016              	.LBB20:
 319:..\..\..\arduinoLCD\test\Pain Drain\libraries\lvgl\src\core/lv_indev.c ****             found_p = lv_indev_search_obj(child, &p_trans);
 3017              		.loc 1 319 0
 3018 005a AB68     		ldr	r3, [r5, #8]
 3019 005c 1A68     		ldr	r2, [r3]
 3020 005e A300     		lsls	r3, r4, #2
 3021 0060 D058     		ldr	r0, [r2, r3]
 3022              	.LVL320:
 320:..\..\..\arduinoLCD\test\Pain Drain\libraries\lvgl\src\core/lv_indev.c ****             if(found_p) return found_p;
 3023              		.loc 1 320 0
 3024 0062 01A9     		add	r1, sp, #4
 3025 0064 FFF7FEFF 		bl	lv_indev_search_obj
 3026              	.LVL321:
 321:..\..\..\arduinoLCD\test\Pain Drain\libraries\lvgl\src\core/lv_indev.c ****         }
 3027              		.loc 1 321 0
 3028 0068 0028     		cmp	r0, #0
 3029 006a 09D1     		bne	.L196
 3030              	.LBE20:
 318:..\..\..\arduinoLCD\test\Pain Drain\libraries\lvgl\src\core/lv_indev.c ****             lv_obj_t * child = obj->spec_attr->children[i];
 3031              		.loc 1 318 0 discriminator 2
 3032 006c 013C     		subs	r4, r4, #1
 3033              	.LVL322:
 3034              	.L199:
 318:..\..\..\arduinoLCD\test\Pain Drain\libraries\lvgl\src\core/lv_indev.c ****             lv_obj_t * child = obj->spec_attr->children[i];
 3035              		.loc 1 318 0 is_stmt 0 discriminator 1
 3036 006e 002C     		cmp	r4, #0
 3037 0070 F3DA     		bge	.L200
 3038              	.LVL323:
 3039              	.L198:
 3040              	.LBE19:
 327:..\..\..\arduinoLCD\test\Pain Drain\libraries\lvgl\src\core/lv_indev.c ****     else return NULL;
 3041              		.loc 1 327 0 is_stmt 1
 3042 0072 002E     		cmp	r6, #0
 3043 0074 03D1     		bne	.L203
 328:..\..\..\arduinoLCD\test\Pain Drain\libraries\lvgl\src\core/lv_indev.c **** }
 3044              		.loc 1 328 0
 3045 0076 0020     		movs	r0, #0
 3046 0078 02E0     		b	.L196
 3047              	.LVL324:
 3048              	.L201:
 305:..\..\..\arduinoLCD\test\Pain Drain\libraries\lvgl\src\core/lv_indev.c **** 
 3049              		.loc 1 305 0
 3050 007a 0020     		movs	r0, #0
ARM GAS  C:\Users\haske\AppData\Local\Temp\ccl1At1U.s 			page 85


 3051 007c 00E0     		b	.L196
 3052              	.LVL325:
 3053              	.L203:
 327:..\..\..\arduinoLCD\test\Pain Drain\libraries\lvgl\src\core/lv_indev.c ****     else return NULL;
 3054              		.loc 1 327 0
 3055 007e 2800     		movs	r0, r5
 3056              	.LVL326:
 3057              	.L196:
 329:..\..\..\arduinoLCD\test\Pain Drain\libraries\lvgl\src\core/lv_indev.c **** 
 3058              		.loc 1 329 0
 3059 0080 02B0     		add	sp, sp, #8
 3060              		@ sp needed
 3061              	.LVL327:
 3062 0082 70BD     		pop	{r4, r5, r6, pc}
 3063              		.cfi_endproc
 3064              	.LFE183:
 3065              		.size	lv_indev_search_obj, .-lv_indev_search_obj
 3066              		.section	.text.indev_proc_press,"ax",%progbits
 3067              		.align	2
 3068              		.code	16
 3069              		.thumb_func
 3070              		.type	indev_proc_press, %function
 3071              	indev_proc_press:
 3072              	.LFB188:
 818:..\..\..\arduinoLCD\test\Pain Drain\libraries\lvgl\src\core/lv_indev.c ****     LV_LOG_INFO("pressed at x:%d y:%d", proc->types.pointer.act_point.x, proc->types.pointer.act_po
 3073              		.loc 1 818 0
 3074              		.cfi_startproc
 3075              		@ args = 0, pretend = 0, frame = 0
 3076              		@ frame_needed = 0, uses_anonymous_args = 0
 3077              	.LVL328:
 3078 0000 70B5     		push	{r4, r5, r6, lr}
 3079              		.cfi_def_cfa_offset 16
 3080              		.cfi_offset 4, -16
 3081              		.cfi_offset 5, -12
 3082              		.cfi_offset 6, -8
 3083              		.cfi_offset 14, -4
 3084 0002 0400     		movs	r4, r0
 820:..\..\..\arduinoLCD\test\Pain Drain\libraries\lvgl\src\core/lv_indev.c **** 
 3085              		.loc 1 820 0
 3086 0004 406A     		ldr	r0, [r0, #36]
 3087              	.LVL329:
 3088 0006 9E4B     		ldr	r3, .L218
 3089 0008 1860     		str	r0, [r3]
 822:..\..\..\arduinoLCD\test\Pain Drain\libraries\lvgl\src\core/lv_indev.c **** 
 3090              		.loc 1 822 0
 3091 000a 6378     		ldrb	r3, [r4, #1]
 3092 000c 1B07     		lsls	r3, r3, #28
 3093 000e 00D5     		bpl	.LCB2883
 3094 0010 35E1     		b	.L204	@long jump
 3095              	.LCB2883:
 824:..\..\..\arduinoLCD\test\Pain Drain\libraries\lvgl\src\core/lv_indev.c ****     bool new_obj_searched = false;
 3096              		.loc 1 824 0
 3097 0012 9B4B     		ldr	r3, .L218
 3098 0014 5B68     		ldr	r3, [r3, #4]
 3099 0016 1B68     		ldr	r3, [r3]
 3100 0018 1D69     		ldr	r5, [r3, #16]
 3101              	.LVL330:
ARM GAS  C:\Users\haske\AppData\Local\Temp\ccl1At1U.s 			page 86


 828:..\..\..\arduinoLCD\test\Pain Drain\libraries\lvgl\src\core/lv_indev.c ****         indev_obj_act = lv_indev_search_obj(lv_disp_get_layer_sys(disp), &proc->types.pointer.act_p
 3102              		.loc 1 828 0
 3103 001a 0028     		cmp	r0, #0
 3104 001c 20D1     		bne	.L206
 829:..\..\..\arduinoLCD\test\Pain Drain\libraries\lvgl\src\core/lv_indev.c ****         if(indev_obj_act == NULL) indev_obj_act = lv_indev_search_obj(lv_disp_get_layer_top(disp),
 3105              		.loc 1 829 0
 3106 001e 2800     		movs	r0, r5
 3107 0020 FFF7FEFF 		bl	lv_disp_get_layer_sys
 3108              	.LVL331:
 3109 0024 261D     		adds	r6, r4, #4
 3110 0026 3100     		movs	r1, r6
 3111 0028 FFF7FEFF 		bl	lv_indev_search_obj
 3112              	.LVL332:
 3113 002c 944B     		ldr	r3, .L218
 3114 002e 1860     		str	r0, [r3]
 830:..\..\..\arduinoLCD\test\Pain Drain\libraries\lvgl\src\core/lv_indev.c ****                                                                           &proc->types.pointer.act_
 3115              		.loc 1 830 0
 3116 0030 0028     		cmp	r0, #0
 3117 0032 07D1     		bne	.L207
 830:..\..\..\arduinoLCD\test\Pain Drain\libraries\lvgl\src\core/lv_indev.c ****                                                                           &proc->types.pointer.act_
 3118              		.loc 1 830 0 is_stmt 0 discriminator 1
 3119 0034 2800     		movs	r0, r5
 3120 0036 FFF7FEFF 		bl	lv_disp_get_layer_top
 3121              	.LVL333:
 3122 003a 3100     		movs	r1, r6
 3123 003c FFF7FEFF 		bl	lv_indev_search_obj
 3124              	.LVL334:
 3125 0040 8F4B     		ldr	r3, .L218
 3126 0042 1860     		str	r0, [r3]
 3127              	.L207:
 832:..\..\..\arduinoLCD\test\Pain Drain\libraries\lvgl\src\core/lv_indev.c ****                                                                           &proc->types.pointer.act_
 3128              		.loc 1 832 0 is_stmt 1
 3129 0044 8E4B     		ldr	r3, .L218
 3130 0046 1B68     		ldr	r3, [r3]
 3131 0048 002B     		cmp	r3, #0
 3132 004a 33D1     		bne	.L214
 832:..\..\..\arduinoLCD\test\Pain Drain\libraries\lvgl\src\core/lv_indev.c ****                                                                           &proc->types.pointer.act_
 3133              		.loc 1 832 0 is_stmt 0 discriminator 1
 3134 004c 2800     		movs	r0, r5
 3135 004e FFF7FEFF 		bl	lv_disp_get_scr_act
 3136              	.LVL335:
 3137 0052 3100     		movs	r1, r6
 3138 0054 FFF7FEFF 		bl	lv_indev_search_obj
 3139              	.LVL336:
 3140 0058 894B     		ldr	r3, .L218
 3141 005a 1860     		str	r0, [r3]
 834:..\..\..\arduinoLCD\test\Pain Drain\libraries\lvgl\src\core/lv_indev.c ****     }
 3142              		.loc 1 834 0 is_stmt 1 discriminator 1
 3143 005c 0123     		movs	r3, #1
 3144 005e 30E0     		b	.L208
 3145              	.L206:
 837:..\..\..\arduinoLCD\test\Pain Drain\libraries\lvgl\src\core/lv_indev.c ****             lv_obj_has_flag(indev_obj_act, LV_OBJ_FLAG_PRESS_LOCK) == false) {
 3146              		.loc 1 837 0
 3147 0060 E36A     		ldr	r3, [r4, #44]
 3148 0062 002B     		cmp	r3, #0
 3149 0064 28D1     		bne	.L215
 838:..\..\..\arduinoLCD\test\Pain Drain\libraries\lvgl\src\core/lv_indev.c ****         indev_obj_act = lv_indev_search_obj(lv_disp_get_layer_sys(disp), &proc->types.pointer.act_p
ARM GAS  C:\Users\haske\AppData\Local\Temp\ccl1At1U.s 			page 87


 3150              		.loc 1 838 0 discriminator 1
 3151 0066 8021     		movs	r1, #128
 3152 0068 8901     		lsls	r1, r1, #6
 3153 006a FFF7FEFF 		bl	lv_obj_has_flag
 3154              	.LVL337:
 837:..\..\..\arduinoLCD\test\Pain Drain\libraries\lvgl\src\core/lv_indev.c ****             lv_obj_has_flag(indev_obj_act, LV_OBJ_FLAG_PRESS_LOCK) == false) {
 3155              		.loc 1 837 0 discriminator 1
 3156 006e 0028     		cmp	r0, #0
 3157 0070 24D1     		bne	.L216
 839:..\..\..\arduinoLCD\test\Pain Drain\libraries\lvgl\src\core/lv_indev.c ****         if(indev_obj_act == NULL) indev_obj_act = lv_indev_search_obj(lv_disp_get_layer_top(disp),
 3158              		.loc 1 839 0
 3159 0072 2800     		movs	r0, r5
 3160 0074 FFF7FEFF 		bl	lv_disp_get_layer_sys
 3161              	.LVL338:
 3162 0078 261D     		adds	r6, r4, #4
 3163 007a 3100     		movs	r1, r6
 3164 007c FFF7FEFF 		bl	lv_indev_search_obj
 3165              	.LVL339:
 3166 0080 7F4B     		ldr	r3, .L218
 3167 0082 1860     		str	r0, [r3]
 840:..\..\..\arduinoLCD\test\Pain Drain\libraries\lvgl\src\core/lv_indev.c ****                                                                           &proc->types.pointer.act_
 3168              		.loc 1 840 0
 3169 0084 0028     		cmp	r0, #0
 3170 0086 07D1     		bne	.L209
 840:..\..\..\arduinoLCD\test\Pain Drain\libraries\lvgl\src\core/lv_indev.c ****                                                                           &proc->types.pointer.act_
 3171              		.loc 1 840 0 is_stmt 0 discriminator 1
 3172 0088 2800     		movs	r0, r5
 3173 008a FFF7FEFF 		bl	lv_disp_get_layer_top
 3174              	.LVL340:
 3175 008e 3100     		movs	r1, r6
 3176 0090 FFF7FEFF 		bl	lv_indev_search_obj
 3177              	.LVL341:
 3178 0094 7A4B     		ldr	r3, .L218
 3179 0096 1860     		str	r0, [r3]
 3180              	.L209:
 842:..\..\..\arduinoLCD\test\Pain Drain\libraries\lvgl\src\core/lv_indev.c ****                                                                           &proc->types.pointer.act_
 3181              		.loc 1 842 0 is_stmt 1
 3182 0098 794B     		ldr	r3, .L218
 3183 009a 1B68     		ldr	r3, [r3]
 3184 009c 002B     		cmp	r3, #0
 3185 009e 0FD1     		bne	.L217
 842:..\..\..\arduinoLCD\test\Pain Drain\libraries\lvgl\src\core/lv_indev.c ****                                                                           &proc->types.pointer.act_
 3186              		.loc 1 842 0 is_stmt 0 discriminator 1
 3187 00a0 2800     		movs	r0, r5
 3188 00a2 FFF7FEFF 		bl	lv_disp_get_scr_act
 3189              	.LVL342:
 3190 00a6 3100     		movs	r1, r6
 3191 00a8 FFF7FEFF 		bl	lv_indev_search_obj
 3192              	.LVL343:
 3193 00ac 744B     		ldr	r3, .L218
 3194 00ae 1860     		str	r0, [r3]
 844:..\..\..\arduinoLCD\test\Pain Drain\libraries\lvgl\src\core/lv_indev.c ****     }
 3195              		.loc 1 844 0 is_stmt 1 discriminator 1
 3196 00b0 0123     		movs	r3, #1
 3197 00b2 06E0     		b	.L208
 3198              	.L214:
 834:..\..\..\arduinoLCD\test\Pain Drain\libraries\lvgl\src\core/lv_indev.c ****     }
ARM GAS  C:\Users\haske\AppData\Local\Temp\ccl1At1U.s 			page 88


 3199              		.loc 1 834 0
 3200 00b4 0123     		movs	r3, #1
 3201 00b6 04E0     		b	.L208
 3202              	.L215:
 825:..\..\..\arduinoLCD\test\Pain Drain\libraries\lvgl\src\core/lv_indev.c **** 
 3203              		.loc 1 825 0
 3204 00b8 0023     		movs	r3, #0
 3205 00ba 02E0     		b	.L208
 3206              	.L216:
 3207 00bc 0023     		movs	r3, #0
 3208 00be 00E0     		b	.L208
 3209              	.L217:
 844:..\..\..\arduinoLCD\test\Pain Drain\libraries\lvgl\src\core/lv_indev.c ****     }
 3210              		.loc 1 844 0
 3211 00c0 0123     		movs	r3, #1
 3212              	.L208:
 3213              	.LVL344:
 848:..\..\..\arduinoLCD\test\Pain Drain\libraries\lvgl\src\core/lv_indev.c ****         proc->types.pointer.scroll_throw_vect.x = 0;
 3214              		.loc 1 848 0
 3215 00c2 002B     		cmp	r3, #0
 3216 00c4 0ED0     		beq	.L210
 848:..\..\..\arduinoLCD\test\Pain Drain\libraries\lvgl\src\core/lv_indev.c ****         proc->types.pointer.scroll_throw_vect.x = 0;
 3217              		.loc 1 848 0 is_stmt 0 discriminator 1
 3218 00c6 A36A     		ldr	r3, [r4, #40]
 3219              	.LVL345:
 3220 00c8 002B     		cmp	r3, #0
 3221 00ca 0BD0     		beq	.L210
 849:..\..\..\arduinoLCD\test\Pain Drain\libraries\lvgl\src\core/lv_indev.c ****         proc->types.pointer.scroll_throw_vect.y = 0;
 3222              		.loc 1 849 0 is_stmt 1
 3223 00cc 0023     		movs	r3, #0
 3224 00ce A383     		strh	r3, [r4, #28]
 850:..\..\..\arduinoLCD\test\Pain Drain\libraries\lvgl\src\core/lv_indev.c ****         _lv_indev_scroll_throw_handler(proc);
 3225              		.loc 1 850 0
 3226 00d0 E383     		strh	r3, [r4, #30]
 851:..\..\..\arduinoLCD\test\Pain Drain\libraries\lvgl\src\core/lv_indev.c ****         if(indev_reset_check(proc)) return;
 3227              		.loc 1 851 0
 3228 00d2 2000     		movs	r0, r4
 3229 00d4 FFF7FEFF 		bl	_lv_indev_scroll_throw_handler
 3230              	.LVL346:
 852:..\..\..\arduinoLCD\test\Pain Drain\libraries\lvgl\src\core/lv_indev.c ****     }
 3231              		.loc 1 852 0
 3232 00d8 2000     		movs	r0, r4
 3233 00da FFF7FEFF 		bl	indev_reset_check
 3234              	.LVL347:
 3235 00de 0028     		cmp	r0, #0
 3236 00e0 00D0     		beq	.LCB3023
 3237 00e2 CCE0     		b	.L204	@long jump
 3238              	.LCB3023:
 3239              	.L210:
 856:..\..\..\arduinoLCD\test\Pain Drain\libraries\lvgl\src\core/lv_indev.c ****         proc->types.pointer.last_point.x = proc->types.pointer.act_point.x;
 3240              		.loc 1 856 0
 3241 00e4 606A     		ldr	r0, [r4, #36]
 3242 00e6 664B     		ldr	r3, .L218
 3243 00e8 1B68     		ldr	r3, [r3]
 3244 00ea 9842     		cmp	r0, r3
 3245 00ec 4BD0     		beq	.L211
 857:..\..\..\arduinoLCD\test\Pain Drain\libraries\lvgl\src\core/lv_indev.c ****         proc->types.pointer.last_point.y = proc->types.pointer.act_point.y;
ARM GAS  C:\Users\haske\AppData\Local\Temp\ccl1At1U.s 			page 89


 3246              		.loc 1 857 0
 3247 00ee 0422     		movs	r2, #4
 3248 00f0 A35E     		ldrsh	r3, [r4, r2]
 3249 00f2 A381     		strh	r3, [r4, #12]
 858:..\..\..\arduinoLCD\test\Pain Drain\libraries\lvgl\src\core/lv_indev.c **** 
 3250              		.loc 1 858 0
 3251 00f4 0622     		movs	r2, #6
 3252 00f6 A35E     		ldrsh	r3, [r4, r2]
 3253 00f8 E381     		strh	r3, [r4, #14]
 861:..\..\..\arduinoLCD\test\Pain Drain\libraries\lvgl\src\core/lv_indev.c ****             /*Save the obj because in special cases `act_obj` can change in the Call the ancestor's
 3254              		.loc 1 861 0
 3255 00fa 0028     		cmp	r0, #0
 3256 00fc 0AD0     		beq	.L212
 3257              	.LVL348:
 3258              	.LBB21:
 865:..\..\..\arduinoLCD\test\Pain Drain\libraries\lvgl\src\core/lv_indev.c ****             if(indev_reset_check(proc)) return;
 3259              		.loc 1 865 0
 3260 00fe 604B     		ldr	r3, .L218
 3261 0100 5A68     		ldr	r2, [r3, #4]
 3262 0102 0321     		movs	r1, #3
 3263 0104 FFF7FEFF 		bl	lv_event_send
 3264              	.LVL349:
 866:..\..\..\arduinoLCD\test\Pain Drain\libraries\lvgl\src\core/lv_indev.c ****         }
 3265              		.loc 1 866 0
 3266 0108 2000     		movs	r0, r4
 3267 010a FFF7FEFF 		bl	indev_reset_check
 3268              	.LVL350:
 3269 010e 0028     		cmp	r0, #0
 3270 0110 00D0     		beq	.LCB3049
 3271 0112 B4E0     		b	.L204	@long jump
 3272              	.LCB3049:
 3273              	.L212:
 3274              	.LBE21:
 869:..\..\..\arduinoLCD\test\Pain Drain\libraries\lvgl\src\core/lv_indev.c ****         proc->types.pointer.last_obj = indev_obj_act;
 3275              		.loc 1 869 0
 3276 0114 5A4B     		ldr	r3, .L218
 3277 0116 1B68     		ldr	r3, [r3]
 3278 0118 6362     		str	r3, [r4, #36]
 870:..\..\..\arduinoLCD\test\Pain Drain\libraries\lvgl\src\core/lv_indev.c **** 
 3279              		.loc 1 870 0
 3280 011a A362     		str	r3, [r4, #40]
 872:..\..\..\arduinoLCD\test\Pain Drain\libraries\lvgl\src\core/lv_indev.c ****             /*Save the time when the obj pressed to count long press time.*/
 3281              		.loc 1 872 0
 3282 011c 002B     		cmp	r3, #0
 3283 011e 32D0     		beq	.L211
 874:..\..\..\arduinoLCD\test\Pain Drain\libraries\lvgl\src\core/lv_indev.c ****             proc->long_pr_sent                 = 0;
 3284              		.loc 1 874 0
 3285 0120 FFF7FEFF 		bl	lv_tick_get
 3286              	.LVL351:
 3287 0124 6064     		str	r0, [r4, #68]
 875:..\..\..\arduinoLCD\test\Pain Drain\libraries\lvgl\src\core/lv_indev.c ****             proc->types.pointer.scroll_sum.x     = 0;
 3288              		.loc 1 875 0
 3289 0126 6378     		ldrb	r3, [r4, #1]
 3290 0128 0120     		movs	r0, #1
 3291 012a 8343     		bics	r3, r0
 3292 012c 6370     		strb	r3, [r4, #1]
 876:..\..\..\arduinoLCD\test\Pain Drain\libraries\lvgl\src\core/lv_indev.c ****             proc->types.pointer.scroll_sum.y     = 0;
ARM GAS  C:\Users\haske\AppData\Local\Temp\ccl1At1U.s 			page 90


 3293              		.loc 1 876 0
 3294 012e 0023     		movs	r3, #0
 3295 0130 2383     		strh	r3, [r4, #24]
 877:..\..\..\arduinoLCD\test\Pain Drain\libraries\lvgl\src\core/lv_indev.c ****             proc->types.pointer.scroll_dir = LV_DIR_NONE;
 3296              		.loc 1 877 0
 3297 0132 6383     		strh	r3, [r4, #26]
 878:..\..\..\arduinoLCD\test\Pain Drain\libraries\lvgl\src\core/lv_indev.c ****             proc->types.pointer.gesture_dir = LV_DIR_NONE;
 3298              		.loc 1 878 0
 3299 0134 4021     		movs	r1, #64
 3300 0136 625C     		ldrb	r2, [r4, r1]
 879:..\..\..\arduinoLCD\test\Pain Drain\libraries\lvgl\src\core/lv_indev.c ****             proc->types.pointer.gesture_sent   = 0;
 3301              		.loc 1 879 0
 3302 0138 0F25     		movs	r5, #15
 3303              	.LVL352:
 3304 013a AA43     		bics	r2, r5
 3305 013c 2A40     		ands	r2, r5
 3306 013e 6254     		strb	r2, [r4, r1]
 880:..\..\..\arduinoLCD\test\Pain Drain\libraries\lvgl\src\core/lv_indev.c ****             proc->types.pointer.gesture_sum.x  = 0;
 3307              		.loc 1 880 0
 3308 0140 2100     		movs	r1, r4
 3309 0142 4031     		adds	r1, r1, #64
 3310 0144 4A78     		ldrb	r2, [r1, #1]
 3311 0146 8243     		bics	r2, r0
 3312 0148 4A70     		strb	r2, [r1, #1]
 881:..\..\..\arduinoLCD\test\Pain Drain\libraries\lvgl\src\core/lv_indev.c ****             proc->types.pointer.gesture_sum.y  = 0;
 3313              		.loc 1 881 0
 3314 014a A387     		strh	r3, [r4, #60]
 882:..\..\..\arduinoLCD\test\Pain Drain\libraries\lvgl\src\core/lv_indev.c ****             proc->types.pointer.vect.x         = 0;
 3315              		.loc 1 882 0
 3316 014c E387     		strh	r3, [r4, #62]
 883:..\..\..\arduinoLCD\test\Pain Drain\libraries\lvgl\src\core/lv_indev.c ****             proc->types.pointer.vect.y         = 0;
 3317              		.loc 1 883 0
 3318 014e A382     		strh	r3, [r4, #20]
 884:..\..\..\arduinoLCD\test\Pain Drain\libraries\lvgl\src\core/lv_indev.c **** 
 3319              		.loc 1 884 0
 3320 0150 E382     		strh	r3, [r4, #22]
 887:..\..\..\arduinoLCD\test\Pain Drain\libraries\lvgl\src\core/lv_indev.c ****             if(indev_reset_check(proc)) return;
 3321              		.loc 1 887 0
 3322 0152 4B4B     		ldr	r3, .L218
 3323 0154 5A68     		ldr	r2, [r3, #4]
 3324 0156 1868     		ldr	r0, [r3]
 3325 0158 0121     		movs	r1, #1
 3326 015a FFF7FEFF 		bl	lv_event_send
 3327              	.LVL353:
 888:..\..\..\arduinoLCD\test\Pain Drain\libraries\lvgl\src\core/lv_indev.c **** 
 3328              		.loc 1 888 0
 3329 015e 2000     		movs	r0, r4
 3330 0160 FFF7FEFF 		bl	indev_reset_check
 3331              	.LVL354:
 3332 0164 0028     		cmp	r0, #0
 3333 0166 00D0     		beq	.LCB3097
 3334 0168 89E0     		b	.L204	@long jump
 3335              	.LCB3097:
 890:..\..\..\arduinoLCD\test\Pain Drain\libraries\lvgl\src\core/lv_indev.c **** 
 3336              		.loc 1 890 0
 3337 016a 454B     		ldr	r3, .L218
 3338 016c 5868     		ldr	r0, [r3, #4]
ARM GAS  C:\Users\haske\AppData\Local\Temp\ccl1At1U.s 			page 91


 3339 016e 4379     		ldrb	r3, [r0, #5]
 3340 0170 1B07     		lsls	r3, r3, #28
 3341 0172 00D5     		bpl	.LCB3105
 3342 0174 83E0     		b	.L204	@long jump
 3343              	.LCB3105:
 893:..\..\..\arduinoLCD\test\Pain Drain\libraries\lvgl\src\core/lv_indev.c ****             if(indev_reset_check(proc)) return;
 3344              		.loc 1 893 0
 3345 0176 0430     		adds	r0, r0, #4
 3346 0178 FFF7FEFF 		bl	indev_click_focus
 3347              	.LVL355:
 894:..\..\..\arduinoLCD\test\Pain Drain\libraries\lvgl\src\core/lv_indev.c **** 
 3348              		.loc 1 894 0
 3349 017c 2000     		movs	r0, r4
 3350 017e FFF7FEFF 		bl	indev_reset_check
 3351              	.LVL356:
 3352 0182 0028     		cmp	r0, #0
 3353 0184 7BD1     		bne	.L204
 3354              	.L211:
 900:..\..\..\arduinoLCD\test\Pain Drain\libraries\lvgl\src\core/lv_indev.c ****     proc->types.pointer.vect.y = proc->types.pointer.act_point.y - proc->types.pointer.last_point.y
 3355              		.loc 1 900 0
 3356 0186 0422     		movs	r2, #4
 3357 0188 A35E     		ldrsh	r3, [r4, r2]
 3358 018a 0C21     		movs	r1, #12
 3359 018c 625E     		ldrsh	r2, [r4, r1]
 3360 018e 9A1A     		subs	r2, r3, r2
 3361 0190 12B2     		sxth	r2, r2
 3362 0192 A282     		strh	r2, [r4, #20]
 901:..\..\..\arduinoLCD\test\Pain Drain\libraries\lvgl\src\core/lv_indev.c **** 
 3363              		.loc 1 901 0
 3364 0194 0621     		movs	r1, #6
 3365 0196 635E     		ldrsh	r3, [r4, r1]
 3366 0198 0E20     		movs	r0, #14
 3367 019a 215E     		ldrsh	r1, [r4, r0]
 3368 019c 5B1A     		subs	r3, r3, r1
 3369 019e 1BB2     		sxth	r3, r3
 3370 01a0 E382     		strh	r3, [r4, #22]
 903:..\..\..\arduinoLCD\test\Pain Drain\libraries\lvgl\src\core/lv_indev.c ****     proc->types.pointer.scroll_throw_vect.y = (proc->types.pointer.scroll_throw_vect.y + proc->type
 3371              		.loc 1 903 0
 3372 01a2 1C20     		movs	r0, #28
 3373 01a4 215E     		ldrsh	r1, [r4, r0]
 3374 01a6 8A18     		adds	r2, r1, r2
 3375 01a8 D10F     		lsrs	r1, r2, #31
 3376 01aa 8A18     		adds	r2, r1, r2
 3377 01ac 5210     		asrs	r2, r2, #1
 3378 01ae A283     		strh	r2, [r4, #28]
 904:..\..\..\arduinoLCD\test\Pain Drain\libraries\lvgl\src\core/lv_indev.c **** 
 3379              		.loc 1 904 0
 3380 01b0 1E21     		movs	r1, #30
 3381 01b2 625E     		ldrsh	r2, [r4, r1]
 3382 01b4 D318     		adds	r3, r2, r3
 3383 01b6 DA0F     		lsrs	r2, r3, #31
 3384 01b8 D318     		adds	r3, r2, r3
 3385 01ba 5B10     		asrs	r3, r3, #1
 3386 01bc E383     		strh	r3, [r4, #30]
 906:..\..\..\arduinoLCD\test\Pain Drain\libraries\lvgl\src\core/lv_indev.c **** 
 3387              		.loc 1 906 0
 3388 01be E369     		ldr	r3, [r4, #28]
ARM GAS  C:\Users\haske\AppData\Local\Temp\ccl1At1U.s 			page 92


 3389 01c0 2362     		str	r3, [r4, #32]
 908:..\..\..\arduinoLCD\test\Pain Drain\libraries\lvgl\src\core/lv_indev.c ****         lv_event_send(indev_obj_act, LV_EVENT_PRESSING, indev_act);
 3390              		.loc 1 908 0
 3391 01c2 2F4B     		ldr	r3, .L218
 3392 01c4 1868     		ldr	r0, [r3]
 3393 01c6 0028     		cmp	r0, #0
 3394 01c8 59D0     		beq	.L204
 909:..\..\..\arduinoLCD\test\Pain Drain\libraries\lvgl\src\core/lv_indev.c ****         if(indev_reset_check(proc)) return;
 3395              		.loc 1 909 0
 3396 01ca 5A68     		ldr	r2, [r3, #4]
 3397 01cc 0221     		movs	r1, #2
 3398 01ce FFF7FEFF 		bl	lv_event_send
 3399              	.LVL357:
 910:..\..\..\arduinoLCD\test\Pain Drain\libraries\lvgl\src\core/lv_indev.c **** 
 3400              		.loc 1 910 0
 3401 01d2 2000     		movs	r0, r4
 3402 01d4 FFF7FEFF 		bl	indev_reset_check
 3403              	.LVL358:
 3404 01d8 0028     		cmp	r0, #0
 3405 01da 50D1     		bne	.L204
 912:..\..\..\arduinoLCD\test\Pain Drain\libraries\lvgl\src\core/lv_indev.c **** 
 3406              		.loc 1 912 0
 3407 01dc 284B     		ldr	r3, .L218
 3408 01de 5B68     		ldr	r3, [r3, #4]
 3409 01e0 5B79     		ldrb	r3, [r3, #5]
 3410 01e2 1B07     		lsls	r3, r3, #28
 3411 01e4 4BD4     		bmi	.L204
 914:..\..\..\arduinoLCD\test\Pain Drain\libraries\lvgl\src\core/lv_indev.c ****         if(indev_reset_check(proc)) return;
 3412              		.loc 1 914 0
 3413 01e6 2000     		movs	r0, r4
 3414 01e8 FFF7FEFF 		bl	_lv_indev_scroll_handler
 3415              	.LVL359:
 915:..\..\..\arduinoLCD\test\Pain Drain\libraries\lvgl\src\core/lv_indev.c ****         indev_gesture(proc);
 3416              		.loc 1 915 0
 3417 01ec 2000     		movs	r0, r4
 3418 01ee FFF7FEFF 		bl	indev_reset_check
 3419              	.LVL360:
 3420 01f2 0028     		cmp	r0, #0
 3421 01f4 43D1     		bne	.L204
 916:..\..\..\arduinoLCD\test\Pain Drain\libraries\lvgl\src\core/lv_indev.c ****         if(indev_reset_check(proc)) return;
 3422              		.loc 1 916 0
 3423 01f6 2000     		movs	r0, r4
 3424 01f8 FFF7FEFF 		bl	indev_gesture
 3425              	.LVL361:
 917:..\..\..\arduinoLCD\test\Pain Drain\libraries\lvgl\src\core/lv_indev.c **** 
 3426              		.loc 1 917 0
 3427 01fc 2000     		movs	r0, r4
 3428 01fe FFF7FEFF 		bl	indev_reset_check
 3429              	.LVL362:
 3430 0202 0028     		cmp	r0, #0
 3431 0204 3BD1     		bne	.L204
 920:..\..\..\arduinoLCD\test\Pain Drain\libraries\lvgl\src\core/lv_indev.c ****             /*Call the ancestor's event handler about the long press if enough time elapsed*/
 3432              		.loc 1 920 0
 3433 0206 E36A     		ldr	r3, [r4, #44]
 3434 0208 002B     		cmp	r3, #0
 3435 020a 1CD1     		bne	.L213
 920:..\..\..\arduinoLCD\test\Pain Drain\libraries\lvgl\src\core/lv_indev.c ****             /*Call the ancestor's event handler about the long press if enough time elapsed*/
ARM GAS  C:\Users\haske\AppData\Local\Temp\ccl1At1U.s 			page 93


 3436              		.loc 1 920 0 is_stmt 0 discriminator 1
 3437 020c 6378     		ldrb	r3, [r4, #1]
 3438 020e DB07     		lsls	r3, r3, #31
 3439 0210 19D4     		bmi	.L213
 922:..\..\..\arduinoLCD\test\Pain Drain\libraries\lvgl\src\core/lv_indev.c ****                 lv_event_send(indev_obj_act, LV_EVENT_LONG_PRESSED, indev_act);
 3440              		.loc 1 922 0 is_stmt 1
 3441 0212 606C     		ldr	r0, [r4, #68]
 3442 0214 FFF7FEFF 		bl	lv_tick_elaps
 3443              	.LVL363:
 3444 0218 194B     		ldr	r3, .L218
 3445 021a 5A68     		ldr	r2, [r3, #4]
 3446 021c 1368     		ldr	r3, [r2]
 3447 021e 9B8B     		ldrh	r3, [r3, #28]
 3448 0220 9842     		cmp	r0, r3
 3449 0222 10D9     		bls	.L213
 923:..\..\..\arduinoLCD\test\Pain Drain\libraries\lvgl\src\core/lv_indev.c ****                 if(indev_reset_check(proc)) return;
 3450              		.loc 1 923 0
 3451 0224 0521     		movs	r1, #5
 3452 0226 164B     		ldr	r3, .L218
 3453 0228 1868     		ldr	r0, [r3]
 3454 022a FFF7FEFF 		bl	lv_event_send
 3455              	.LVL364:
 924:..\..\..\arduinoLCD\test\Pain Drain\libraries\lvgl\src\core/lv_indev.c **** 
 3456              		.loc 1 924 0
 3457 022e 2000     		movs	r0, r4
 3458 0230 FFF7FEFF 		bl	indev_reset_check
 3459              	.LVL365:
 3460 0234 0028     		cmp	r0, #0
 3461 0236 22D1     		bne	.L204
 927:..\..\..\arduinoLCD\test\Pain Drain\libraries\lvgl\src\core/lv_indev.c **** 
 3462              		.loc 1 927 0
 3463 0238 6378     		ldrb	r3, [r4, #1]
 3464 023a 0122     		movs	r2, #1
 3465 023c 1343     		orrs	r3, r2
 3466 023e 6370     		strb	r3, [r4, #1]
 930:..\..\..\arduinoLCD\test\Pain Drain\libraries\lvgl\src\core/lv_indev.c ****             }
 3467              		.loc 1 930 0
 3468 0240 FFF7FEFF 		bl	lv_tick_get
 3469              	.LVL366:
 3470 0244 A064     		str	r0, [r4, #72]
 3471              	.L213:
 935:..\..\..\arduinoLCD\test\Pain Drain\libraries\lvgl\src\core/lv_indev.c ****             /*Call the ancestor's event handler about the long press repeat if enough time elapsed*
 3472              		.loc 1 935 0
 3473 0246 E36A     		ldr	r3, [r4, #44]
 3474 0248 002B     		cmp	r3, #0
 3475 024a 18D1     		bne	.L204
 935:..\..\..\arduinoLCD\test\Pain Drain\libraries\lvgl\src\core/lv_indev.c ****             /*Call the ancestor's event handler about the long press repeat if enough time elapsed*
 3476              		.loc 1 935 0 is_stmt 0 discriminator 1
 3477 024c 6378     		ldrb	r3, [r4, #1]
 3478 024e DB07     		lsls	r3, r3, #31
 3479 0250 15D5     		bpl	.L204
 937:..\..\..\arduinoLCD\test\Pain Drain\libraries\lvgl\src\core/lv_indev.c ****                 lv_event_send(indev_obj_act, LV_EVENT_LONG_PRESSED_REPEAT, indev_act);
 3480              		.loc 1 937 0 is_stmt 1
 3481 0252 A06C     		ldr	r0, [r4, #72]
 3482 0254 FFF7FEFF 		bl	lv_tick_elaps
 3483              	.LVL367:
 3484 0258 094B     		ldr	r3, .L218
ARM GAS  C:\Users\haske\AppData\Local\Temp\ccl1At1U.s 			page 94


 3485 025a 5A68     		ldr	r2, [r3, #4]
 3486 025c 1368     		ldr	r3, [r2]
 3487 025e DB8B     		ldrh	r3, [r3, #30]
 3488 0260 9842     		cmp	r0, r3
 3489 0262 0CD9     		bls	.L204
 938:..\..\..\arduinoLCD\test\Pain Drain\libraries\lvgl\src\core/lv_indev.c ****                 if(indev_reset_check(proc)) return;
 3490              		.loc 1 938 0
 3491 0264 0621     		movs	r1, #6
 3492 0266 064B     		ldr	r3, .L218
 3493 0268 1868     		ldr	r0, [r3]
 3494 026a FFF7FEFF 		bl	lv_event_send
 3495              	.LVL368:
 939:..\..\..\arduinoLCD\test\Pain Drain\libraries\lvgl\src\core/lv_indev.c ****                 proc->longpr_rep_timestamp = lv_tick_get();
 3496              		.loc 1 939 0
 3497 026e 2000     		movs	r0, r4
 3498 0270 FFF7FEFF 		bl	indev_reset_check
 3499              	.LVL369:
 3500 0274 0028     		cmp	r0, #0
 3501 0276 02D1     		bne	.L204
 940:..\..\..\arduinoLCD\test\Pain Drain\libraries\lvgl\src\core/lv_indev.c ****             }
 3502              		.loc 1 940 0
 3503 0278 FFF7FEFF 		bl	lv_tick_get
 3504              	.LVL370:
 3505 027c A064     		str	r0, [r4, #72]
 3506              	.L204:
 944:..\..\..\arduinoLCD\test\Pain Drain\libraries\lvgl\src\core/lv_indev.c **** 
 3507              		.loc 1 944 0
 3508              		@ sp needed
 3509              	.LVL371:
 3510 027e 70BD     		pop	{r4, r5, r6, pc}
 3511              	.L219:
 3512              		.align	2
 3513              	.L218:
 3514 0280 00000000 		.word	.LANCHOR0
 3515              		.cfi_endproc
 3516              	.LFE188:
 3517              		.size	indev_proc_press, .-indev_proc_press
 3518              		.section	.text.indev_pointer_proc,"ax",%progbits
 3519              		.align	2
 3520              		.code	16
 3521              		.thumb_func
 3522              		.type	indev_pointer_proc, %function
 3523              	indev_pointer_proc:
 3524              	.LFB184:
 341:..\..\..\arduinoLCD\test\Pain Drain\libraries\lvgl\src\core/lv_indev.c ****     lv_disp_t * disp = i->driver->disp;
 3525              		.loc 1 341 0
 3526              		.cfi_startproc
 3527              		@ args = 0, pretend = 0, frame = 0
 3528              		@ frame_needed = 0, uses_anonymous_args = 0
 3529              	.LVL372:
 3530 0000 70B5     		push	{r4, r5, r6, lr}
 3531              		.cfi_def_cfa_offset 16
 3532              		.cfi_offset 4, -16
 3533              		.cfi_offset 5, -12
 3534              		.cfi_offset 6, -8
 3535              		.cfi_offset 14, -4
 3536 0002 0400     		movs	r4, r0
ARM GAS  C:\Users\haske\AppData\Local\Temp\ccl1At1U.s 			page 95


 3537 0004 0D00     		movs	r5, r1
 342:..\..\..\arduinoLCD\test\Pain Drain\libraries\lvgl\src\core/lv_indev.c ****     /*Save the raw points so they can be used again in _lv_indev_read*/
 3538              		.loc 1 342 0
 3539 0006 0368     		ldr	r3, [r0]
 3540 0008 1A69     		ldr	r2, [r3, #16]
 3541              	.LVL373:
 344:..\..\..\arduinoLCD\test\Pain Drain\libraries\lvgl\src\core/lv_indev.c ****     i->proc.types.pointer.last_raw_point.y = data->point.y;
 3542              		.loc 1 344 0
 3543 000a 0021     		movs	r1, #0
 3544 000c 6B5E     		ldrsh	r3, [r5, r1]
 3545              	.LVL374:
 3546 000e 8382     		strh	r3, [r0, #20]
 345:..\..\..\arduinoLCD\test\Pain Drain\libraries\lvgl\src\core/lv_indev.c **** 
 3547              		.loc 1 345 0
 3548 0010 0221     		movs	r1, #2
 3549 0012 6B5E     		ldrsh	r3, [r5, r1]
 3550 0014 C382     		strh	r3, [r0, #22]
 347:..\..\..\arduinoLCD\test\Pain Drain\libraries\lvgl\src\core/lv_indev.c ****         data->point.x = disp->driver->hor_res - data->point.x - 1;
 3551              		.loc 1 347 0
 3552 0016 1168     		ldr	r1, [r2]
 3553 0018 0B7C     		ldrb	r3, [r1, #16]
 3554 001a 3020     		movs	r0, #48
 3555              	.LVL375:
 3556 001c 0340     		ands	r3, r0
 3557 001e 202B     		cmp	r3, #32
 3558 0020 01D0     		beq	.L221
 347:..\..\..\arduinoLCD\test\Pain Drain\libraries\lvgl\src\core/lv_indev.c ****         data->point.x = disp->driver->hor_res - data->point.x - 1;
 3559              		.loc 1 347 0 is_stmt 0 discriminator 1
 3560 0022 302B     		cmp	r3, #48
 3561 0024 0ED1     		bne	.L222
 3562              	.L221:
 348:..\..\..\arduinoLCD\test\Pain Drain\libraries\lvgl\src\core/lv_indev.c ****         data->point.y = disp->driver->ver_res - data->point.y - 1;
 3563              		.loc 1 348 0 is_stmt 1
 3564 0026 0023     		movs	r3, #0
 3565 0028 CB5E     		ldrsh	r3, [r1, r3]
 3566 002a 0020     		movs	r0, #0
 3567 002c 295E     		ldrsh	r1, [r5, r0]
 3568 002e 5B1A     		subs	r3, r3, r1
 3569 0030 013B     		subs	r3, r3, #1
 3570 0032 2B80     		strh	r3, [r5]
 349:..\..\..\arduinoLCD\test\Pain Drain\libraries\lvgl\src\core/lv_indev.c ****     }
 3571              		.loc 1 349 0
 3572 0034 1368     		ldr	r3, [r2]
 3573 0036 0221     		movs	r1, #2
 3574 0038 5B5E     		ldrsh	r3, [r3, r1]
 3575 003a 0220     		movs	r0, #2
 3576 003c 295E     		ldrsh	r1, [r5, r0]
 3577 003e 5B1A     		subs	r3, r3, r1
 3578 0040 013B     		subs	r3, r3, #1
 3579 0042 6B80     		strh	r3, [r5, #2]
 3580              	.L222:
 351:..\..\..\arduinoLCD\test\Pain Drain\libraries\lvgl\src\core/lv_indev.c ****         lv_coord_t tmp = data->point.y;
 3581              		.loc 1 351 0
 3582 0044 1368     		ldr	r3, [r2]
 3583 0046 1B7C     		ldrb	r3, [r3, #16]
 3584 0048 3021     		movs	r1, #48
 3585 004a 0B40     		ands	r3, r1
ARM GAS  C:\Users\haske\AppData\Local\Temp\ccl1At1U.s 			page 96


 3586 004c 102B     		cmp	r3, #16
 3587 004e 01D0     		beq	.L223
 351:..\..\..\arduinoLCD\test\Pain Drain\libraries\lvgl\src\core/lv_indev.c ****         lv_coord_t tmp = data->point.y;
 3588              		.loc 1 351 0 is_stmt 0 discriminator 1
 3589 0050 302B     		cmp	r3, #48
 3590 0052 0AD1     		bne	.L224
 3591              	.L223:
 3592              	.LBB22:
 352:..\..\..\arduinoLCD\test\Pain Drain\libraries\lvgl\src\core/lv_indev.c ****         data->point.y = data->point.x;
 3593              		.loc 1 352 0 is_stmt 1
 3594 0054 0223     		movs	r3, #2
 3595 0056 E95E     		ldrsh	r1, [r5, r3]
 3596              	.LVL376:
 353:..\..\..\arduinoLCD\test\Pain Drain\libraries\lvgl\src\core/lv_indev.c ****         data->point.x = disp->driver->ver_res - tmp - 1;
 3597              		.loc 1 353 0
 3598 0058 0020     		movs	r0, #0
 3599 005a 2B5E     		ldrsh	r3, [r5, r0]
 3600 005c 6B80     		strh	r3, [r5, #2]
 354:..\..\..\arduinoLCD\test\Pain Drain\libraries\lvgl\src\core/lv_indev.c ****     }
 3601              		.loc 1 354 0
 3602 005e 1368     		ldr	r3, [r2]
 3603 0060 0222     		movs	r2, #2
 3604 0062 9B5E     		ldrsh	r3, [r3, r2]
 3605              	.LVL377:
 3606 0064 5B1A     		subs	r3, r3, r1
 3607 0066 013B     		subs	r3, r3, #1
 3608 0068 2B80     		strh	r3, [r5]
 3609              	.LVL378:
 3610              	.L224:
 3611              	.LBE22:
 361:..\..\..\arduinoLCD\test\Pain Drain\libraries\lvgl\src\core/lv_indev.c ****         LV_LOG_WARN("X is %d which is greater than hor. res", data->point.x);
 3612              		.loc 1 361 0
 3613 006a 2368     		ldr	r3, [r4]
 3614 006c 1869     		ldr	r0, [r3, #16]
 3615 006e FFF7FEFF 		bl	lv_disp_get_hor_res
 3616              	.LVL379:
 367:..\..\..\arduinoLCD\test\Pain Drain\libraries\lvgl\src\core/lv_indev.c ****         LV_LOG_WARN("Y is %d which is greater than ver. res", data->point.y);
 3617              		.loc 1 367 0
 3618 0072 2368     		ldr	r3, [r4]
 3619 0074 1869     		ldr	r0, [r3, #16]
 3620 0076 FFF7FEFF 		bl	lv_disp_get_ver_res
 3621              	.LVL380:
 372:..\..\..\arduinoLCD\test\Pain Drain\libraries\lvgl\src\core/lv_indev.c ****        (i->proc.types.pointer.last_point.x != data->point.x || i->proc.types.pointer.last_point.y !
 3622              		.loc 1 372 0
 3623 007a 206D     		ldr	r0, [r4, #80]
 3624 007c 0028     		cmp	r0, #0
 3625 007e 09D0     		beq	.L225
 372:..\..\..\arduinoLCD\test\Pain Drain\libraries\lvgl\src\core/lv_indev.c ****        (i->proc.types.pointer.last_point.x != data->point.x || i->proc.types.pointer.last_point.y !
 3626              		.loc 1 372 0 is_stmt 0 discriminator 1
 3627 0080 2369     		ldr	r3, [r4, #16]
 3628 0082 2A68     		ldr	r2, [r5]
 3629 0084 9342     		cmp	r3, r2
 3630 0086 05D0     		beq	.L225
 374:..\..\..\arduinoLCD\test\Pain Drain\libraries\lvgl\src\core/lv_indev.c ****     }
 3631              		.loc 1 374 0 is_stmt 1
 3632 0088 0223     		movs	r3, #2
 3633 008a EA5E     		ldrsh	r2, [r5, r3]
ARM GAS  C:\Users\haske\AppData\Local\Temp\ccl1At1U.s 			page 97


 3634 008c 0023     		movs	r3, #0
 3635 008e E95E     		ldrsh	r1, [r5, r3]
 3636 0090 FFF7FEFF 		bl	lv_obj_set_pos
 3637              	.LVL381:
 3638              	.L225:
 377:..\..\..\arduinoLCD\test\Pain Drain\libraries\lvgl\src\core/lv_indev.c ****     i->proc.types.pointer.act_point.y = data->point.y;
 3639              		.loc 1 377 0
 3640 0094 0022     		movs	r2, #0
 3641 0096 AB5E     		ldrsh	r3, [r5, r2]
 3642 0098 2381     		strh	r3, [r4, #8]
 378:..\..\..\arduinoLCD\test\Pain Drain\libraries\lvgl\src\core/lv_indev.c **** 
 3643              		.loc 1 378 0
 3644 009a 0222     		movs	r2, #2
 3645 009c AB5E     		ldrsh	r3, [r5, r2]
 3646 009e 6381     		strh	r3, [r4, #10]
 380:..\..\..\arduinoLCD\test\Pain Drain\libraries\lvgl\src\core/lv_indev.c ****         indev_proc_press(&i->proc);
 3647              		.loc 1 380 0
 3648 00a0 2379     		ldrb	r3, [r4, #4]
 3649 00a2 012B     		cmp	r3, #1
 3650 00a4 03D1     		bne	.L226
 381:..\..\..\arduinoLCD\test\Pain Drain\libraries\lvgl\src\core/lv_indev.c ****     }
 3651              		.loc 1 381 0
 3652 00a6 201D     		adds	r0, r4, #4
 3653 00a8 FFF7FEFF 		bl	indev_proc_press
 3654              	.LVL382:
 3655 00ac 02E0     		b	.L227
 3656              	.L226:
 384:..\..\..\arduinoLCD\test\Pain Drain\libraries\lvgl\src\core/lv_indev.c ****     }
 3657              		.loc 1 384 0
 3658 00ae 201D     		adds	r0, r4, #4
 3659 00b0 FFF7FEFF 		bl	indev_proc_release
 3660              	.LVL383:
 3661              	.L227:
 387:..\..\..\arduinoLCD\test\Pain Drain\libraries\lvgl\src\core/lv_indev.c ****     i->proc.types.pointer.last_point.y = i->proc.types.pointer.act_point.y;
 3662              		.loc 1 387 0
 3663 00b4 0822     		movs	r2, #8
 3664 00b6 A35E     		ldrsh	r3, [r4, r2]
 3665 00b8 2382     		strh	r3, [r4, #16]
 388:..\..\..\arduinoLCD\test\Pain Drain\libraries\lvgl\src\core/lv_indev.c **** }
 3666              		.loc 1 388 0
 3667 00ba 0A22     		movs	r2, #10
 3668 00bc A35E     		ldrsh	r3, [r4, r2]
 3669 00be 6382     		strh	r3, [r4, #18]
 389:..\..\..\arduinoLCD\test\Pain Drain\libraries\lvgl\src\core/lv_indev.c **** 
 3670              		.loc 1 389 0
 3671              		@ sp needed
 3672              	.LVL384:
 3673              	.LVL385:
 3674 00c0 70BD     		pop	{r4, r5, r6, pc}
 3675              		.cfi_endproc
 3676              	.LFE184:
 3677              		.size	indev_pointer_proc, .-indev_pointer_proc
 3678 00c2 C046     		.section	.text.indev_button_proc,"ax",%progbits
 3679              		.align	2
 3680              		.code	16
 3681              		.thumb_func
 3682              		.type	indev_button_proc, %function
ARM GAS  C:\Users\haske\AppData\Local\Temp\ccl1At1U.s 			page 98


 3683              	indev_button_proc:
 3684              	.LFB187:
 769:..\..\..\arduinoLCD\test\Pain Drain\libraries\lvgl\src\core/lv_indev.c ****     /*Die gracefully if i->btn_points is NULL*/
 3685              		.loc 1 769 0
 3686              		.cfi_startproc
 3687              		@ args = 0, pretend = 0, frame = 0
 3688              		@ frame_needed = 0, uses_anonymous_args = 0
 3689              	.LVL386:
 3690 0000 F0B5     		push	{r4, r5, r6, r7, lr}
 3691              		.cfi_def_cfa_offset 20
 3692              		.cfi_offset 4, -20
 3693              		.cfi_offset 5, -16
 3694              		.cfi_offset 6, -12
 3695              		.cfi_offset 7, -8
 3696              		.cfi_offset 14, -4
 3697 0002 4746     		mov	r7, r8
 3698 0004 80B4     		push	{r7}
 3699              		.cfi_def_cfa_offset 24
 3700              		.cfi_offset 8, -24
 3701 0006 0400     		movs	r4, r0
 3702 0008 0D00     		movs	r5, r1
 771:..\..\..\arduinoLCD\test\Pain Drain\libraries\lvgl\src\core/lv_indev.c ****         LV_LOG_WARN("btn_points is NULL");
 3703              		.loc 1 771 0
 3704 000a 826D     		ldr	r2, [r0, #88]
 3705 000c 002A     		cmp	r2, #0
 3706 000e 33D0     		beq	.L228
 776:..\..\..\arduinoLCD\test\Pain Drain\libraries\lvgl\src\core/lv_indev.c ****     lv_coord_t y = i->btn_points[data->btn_id].y;
 3707              		.loc 1 776 0
 3708 0010 8B68     		ldr	r3, [r1, #8]
 3709 0012 9B00     		lsls	r3, r3, #2
 3710 0014 D318     		adds	r3, r2, r3
 3711 0016 0022     		movs	r2, #0
 3712 0018 9F5E     		ldrsh	r7, [r3, r2]
 3713              	.LVL387:
 777:..\..\..\arduinoLCD\test\Pain Drain\libraries\lvgl\src\core/lv_indev.c **** 
 3714              		.loc 1 777 0
 3715 001a 0222     		movs	r2, #2
 3716 001c 9B5E     		ldrsh	r3, [r3, r2]
 3717 001e 9846     		mov	r8, r3
 3718              	.LVL388:
 780:..\..\..\arduinoLCD\test\Pain Drain\libraries\lvgl\src\core/lv_indev.c ****         if(data->state == LV_INDEV_STATE_PRESSED) {
 3719              		.loc 1 780 0
 3720 0020 8B7B     		ldrb	r3, [r1, #14]
 790:..\..\..\arduinoLCD\test\Pain Drain\libraries\lvgl\src\core/lv_indev.c ****         if(i->proc.types.pointer.last_point.x != x ||
 3721              		.loc 1 790 0
 3722 0022 012B     		cmp	r3, #1
 3723 0024 0AD1     		bne	.L230
 791:..\..\..\arduinoLCD\test\Pain Drain\libraries\lvgl\src\core/lv_indev.c ****            i->proc.types.pointer.last_point.y != y) {
 3724              		.loc 1 791 0
 3725 0026 1022     		movs	r2, #16
 3726 0028 835E     		ldrsh	r3, [r0, r2]
 3727 002a 9F42     		cmp	r7, r3
 3728 002c 03D1     		bne	.L231
 792:..\..\..\arduinoLCD\test\Pain Drain\libraries\lvgl\src\core/lv_indev.c ****             indev_proc_release(&i->proc);
 3729              		.loc 1 792 0 discriminator 1
 3730 002e 1222     		movs	r2, #18
 3731 0030 835E     		ldrsh	r3, [r0, r2]
ARM GAS  C:\Users\haske\AppData\Local\Temp\ccl1At1U.s 			page 99


 791:..\..\..\arduinoLCD\test\Pain Drain\libraries\lvgl\src\core/lv_indev.c ****            i->proc.types.pointer.last_point.y != y) {
 3732              		.loc 1 791 0 discriminator 1
 3733 0032 9845     		cmp	r8, r3
 3734 0034 02D0     		beq	.L230
 3735              	.L231:
 793:..\..\..\arduinoLCD\test\Pain Drain\libraries\lvgl\src\core/lv_indev.c ****         }
 3736              		.loc 1 793 0
 3737 0036 201D     		adds	r0, r4, #4
 3738              	.LVL389:
 3739 0038 FFF7FEFF 		bl	indev_proc_release
 3740              	.LVL390:
 3741              	.L230:
 797:..\..\..\arduinoLCD\test\Pain Drain\libraries\lvgl\src\core/lv_indev.c **** 
 3742              		.loc 1 797 0
 3743 003c 261D     		adds	r6, r4, #4
 3744 003e 3000     		movs	r0, r6
 3745 0040 FFF7FEFF 		bl	indev_reset_check
 3746              	.LVL391:
 3747 0044 0028     		cmp	r0, #0
 3748 0046 17D1     		bne	.L228
 800:..\..\..\arduinoLCD\test\Pain Drain\libraries\lvgl\src\core/lv_indev.c ****     i->proc.types.pointer.act_point.y = y;
 3749              		.loc 1 800 0
 3750 0048 2781     		strh	r7, [r4, #8]
 801:..\..\..\arduinoLCD\test\Pain Drain\libraries\lvgl\src\core/lv_indev.c **** 
 3751              		.loc 1 801 0
 3752 004a 4346     		mov	r3, r8
 3753 004c 6381     		strh	r3, [r4, #10]
 803:..\..\..\arduinoLCD\test\Pain Drain\libraries\lvgl\src\core/lv_indev.c ****     else indev_proc_release(&i->proc);
 3754              		.loc 1 803 0
 3755 004e AB7B     		ldrb	r3, [r5, #14]
 3756 0050 012B     		cmp	r3, #1
 3757 0052 03D1     		bne	.L232
 803:..\..\..\arduinoLCD\test\Pain Drain\libraries\lvgl\src\core/lv_indev.c ****     else indev_proc_release(&i->proc);
 3758              		.loc 1 803 0 is_stmt 0 discriminator 1
 3759 0054 3000     		movs	r0, r6
 3760 0056 FFF7FEFF 		bl	indev_proc_press
 3761              	.LVL392:
 3762 005a 02E0     		b	.L233
 3763              	.L232:
 804:..\..\..\arduinoLCD\test\Pain Drain\libraries\lvgl\src\core/lv_indev.c **** 
 3764              		.loc 1 804 0 is_stmt 1
 3765 005c 3000     		movs	r0, r6
 3766 005e FFF7FEFF 		bl	indev_proc_release
 3767              	.LVL393:
 3768              	.L233:
 806:..\..\..\arduinoLCD\test\Pain Drain\libraries\lvgl\src\core/lv_indev.c **** 
 3769              		.loc 1 806 0
 3770 0062 3000     		movs	r0, r6
 3771 0064 FFF7FEFF 		bl	indev_reset_check
 3772              	.LVL394:
 3773 0068 0028     		cmp	r0, #0
 3774 006a 05D1     		bne	.L228
 808:..\..\..\arduinoLCD\test\Pain Drain\libraries\lvgl\src\core/lv_indev.c ****     i->proc.types.pointer.last_point.y = i->proc.types.pointer.act_point.y;
 3775              		.loc 1 808 0
 3776 006c 0822     		movs	r2, #8
 3777 006e A35E     		ldrsh	r3, [r4, r2]
 3778 0070 2382     		strh	r3, [r4, #16]
ARM GAS  C:\Users\haske\AppData\Local\Temp\ccl1At1U.s 			page 100


 809:..\..\..\arduinoLCD\test\Pain Drain\libraries\lvgl\src\core/lv_indev.c **** }
 3779              		.loc 1 809 0
 3780 0072 0A22     		movs	r2, #10
 3781 0074 A35E     		ldrsh	r3, [r4, r2]
 3782 0076 6382     		strh	r3, [r4, #18]
 3783              	.LVL395:
 3784              	.L228:
 810:..\..\..\arduinoLCD\test\Pain Drain\libraries\lvgl\src\core/lv_indev.c **** 
 3785              		.loc 1 810 0
 3786              		@ sp needed
 3787              	.LVL396:
 3788              	.LVL397:
 3789 0078 04BC     		pop	{r2}
 3790 007a 9046     		mov	r8, r2
 3791 007c F0BD     		pop	{r4, r5, r6, r7, pc}
 3792              		.cfi_endproc
 3793              	.LFE187:
 3794              		.size	indev_button_proc, .-indev_button_proc
 3795 007e C046     		.section	.text.lv_indev_read_timer_cb,"ax",%progbits
 3796              		.align	2
 3797              		.global	lv_indev_read_timer_cb
 3798              		.code	16
 3799              		.thumb_func
 3800              		.type	lv_indev_read_timer_cb, %function
 3801              	lv_indev_read_timer_cb:
 3802              	.LFB165:
  65:..\..\..\arduinoLCD\test\Pain Drain\libraries\lvgl\src\core/lv_indev.c ****     INDEV_TRACE("begin");
 3803              		.loc 1 65 0
 3804              		.cfi_startproc
 3805              		@ args = 0, pretend = 0, frame = 16
 3806              		@ frame_needed = 0, uses_anonymous_args = 0
 3807              	.LVL398:
 3808 0000 30B5     		push	{r4, r5, lr}
 3809              		.cfi_def_cfa_offset 12
 3810              		.cfi_offset 4, -12
 3811              		.cfi_offset 5, -8
 3812              		.cfi_offset 14, -4
 3813 0002 85B0     		sub	sp, sp, #20
 3814              		.cfi_def_cfa_offset 32
  70:..\..\..\arduinoLCD\test\Pain Drain\libraries\lvgl\src\core/lv_indev.c **** 
 3815              		.loc 1 70 0
 3816 0004 C068     		ldr	r0, [r0, #12]
 3817              	.LVL399:
 3818 0006 314B     		ldr	r3, .L244
 3819 0008 5860     		str	r0, [r3, #4]
  73:..\..\..\arduinoLCD\test\Pain Drain\libraries\lvgl\src\core/lv_indev.c **** 
 3820              		.loc 1 73 0
 3821 000a 0368     		ldr	r3, [r0]
 3822 000c 1B69     		ldr	r3, [r3, #16]
 3823 000e 002B     		cmp	r3, #0
 3824 0010 59D0     		beq	.L234
  76:..\..\..\arduinoLCD\test\Pain Drain\libraries\lvgl\src\core/lv_indev.c **** 
 3825              		.loc 1 76 0
 3826 0012 FFF7FEFF 		bl	indev_proc_reset_query_handler
 3827              	.LVL400:
  78:..\..\..\arduinoLCD\test\Pain Drain\libraries\lvgl\src\core/lv_indev.c ****        indev_act->driver->disp->prev_scr != NULL) return; /*Input disabled or screen animation acti
 3828              		.loc 1 78 0
ARM GAS  C:\Users\haske\AppData\Local\Temp\ccl1At1U.s 			page 101


 3829 0016 2D4B     		ldr	r3, .L244
 3830 0018 5B68     		ldr	r3, [r3, #4]
 3831 001a 5A79     		ldrb	r2, [r3, #5]
 3832 001c 5207     		lsls	r2, r2, #29
 3833 001e 52D4     		bmi	.L234
  79:..\..\..\arduinoLCD\test\Pain Drain\libraries\lvgl\src\core/lv_indev.c ****     bool continue_reading;
 3834              		.loc 1 79 0 discriminator 1
 3835 0020 1B68     		ldr	r3, [r3]
 3836 0022 1B69     		ldr	r3, [r3, #16]
 3837 0024 5B69     		ldr	r3, [r3, #20]
  78:..\..\..\arduinoLCD\test\Pain Drain\libraries\lvgl\src\core/lv_indev.c ****        indev_act->driver->disp->prev_scr != NULL) return; /*Input disabled or screen animation acti
 3838              		.loc 1 78 0 discriminator 1
 3839 0026 002B     		cmp	r3, #0
 3840 0028 4DD1     		bne	.L234
 3841              	.L242:
  83:..\..\..\arduinoLCD\test\Pain Drain\libraries\lvgl\src\core/lv_indev.c ****         continue_reading = data.continue_reading;
 3842              		.loc 1 83 0
 3843 002a 284C     		ldr	r4, .L244
 3844 002c 6946     		mov	r1, sp
 3845 002e 6068     		ldr	r0, [r4, #4]
 3846 0030 FFF7FEFF 		bl	_lv_indev_read
 3847              	.LVL401:
  84:..\..\..\arduinoLCD\test\Pain Drain\libraries\lvgl\src\core/lv_indev.c **** 
 3848              		.loc 1 84 0
 3849 0034 6B46     		mov	r3, sp
 3850 0036 DD7B     		ldrb	r5, [r3, #15]
 3851              	.LVL402:
  87:..\..\..\arduinoLCD\test\Pain Drain\libraries\lvgl\src\core/lv_indev.c ****         indev_obj_act = NULL;
 3852              		.loc 1 87 0
 3853 0038 6068     		ldr	r0, [r4, #4]
 3854 003a FFF7FEFF 		bl	indev_proc_reset_query_handler
 3855              	.LVL403:
  88:..\..\..\arduinoLCD\test\Pain Drain\libraries\lvgl\src\core/lv_indev.c **** 
 3856              		.loc 1 88 0
 3857 003e 0023     		movs	r3, #0
 3858 0040 2360     		str	r3, [r4]
  90:..\..\..\arduinoLCD\test\Pain Drain\libraries\lvgl\src\core/lv_indev.c **** 
 3859              		.loc 1 90 0
 3860 0042 6368     		ldr	r3, [r4, #4]
 3861 0044 6A46     		mov	r2, sp
 3862 0046 927B     		ldrb	r2, [r2, #14]
 3863 0048 1A71     		strb	r2, [r3, #4]
  93:..\..\..\arduinoLCD\test\Pain Drain\libraries\lvgl\src\core/lv_indev.c ****             indev_act->driver->disp->last_activity_time = lv_tick_get();
 3864              		.loc 1 93 0
 3865 004a 012A     		cmp	r2, #1
 3866 004c 07D1     		bne	.L236
  94:..\..\..\arduinoLCD\test\Pain Drain\libraries\lvgl\src\core/lv_indev.c ****         }
 3867              		.loc 1 94 0
 3868 004e 1B68     		ldr	r3, [r3]
 3869 0050 1C69     		ldr	r4, [r3, #16]
 3870 0052 FFF7FEFF 		bl	lv_tick_get
 3871              	.LVL404:
 3872 0056 AC23     		movs	r3, #172
 3873 0058 5B00     		lsls	r3, r3, #1
 3874 005a E050     		str	r0, [r4, r3]
 3875 005c 0EE0     		b	.L237
 3876              	.L236:
ARM GAS  C:\Users\haske\AppData\Local\Temp\ccl1At1U.s 			page 102


  96:..\..\..\arduinoLCD\test\Pain Drain\libraries\lvgl\src\core/lv_indev.c ****             indev_act->driver->disp->last_activity_time = lv_tick_get();
 3877              		.loc 1 96 0
 3878 005e 1B68     		ldr	r3, [r3]
 3879 0060 1A78     		ldrb	r2, [r3]
 3880 0062 042A     		cmp	r2, #4
 3881 0064 0AD1     		bne	.L237
  96:..\..\..\arduinoLCD\test\Pain Drain\libraries\lvgl\src\core/lv_indev.c ****             indev_act->driver->disp->last_activity_time = lv_tick_get();
 3882              		.loc 1 96 0 is_stmt 0 discriminator 1
 3883 0066 6A46     		mov	r2, sp
 3884 0068 0C21     		movs	r1, #12
 3885 006a 525E     		ldrsh	r2, [r2, r1]
 3886 006c 002A     		cmp	r2, #0
 3887 006e 05D0     		beq	.L237
  97:..\..\..\arduinoLCD\test\Pain Drain\libraries\lvgl\src\core/lv_indev.c ****         }
 3888              		.loc 1 97 0 is_stmt 1
 3889 0070 1C69     		ldr	r4, [r3, #16]
 3890 0072 FFF7FEFF 		bl	lv_tick_get
 3891              	.LVL405:
 3892 0076 AC23     		movs	r3, #172
 3893 0078 5B00     		lsls	r3, r3, #1
 3894 007a E050     		str	r0, [r4, r3]
 3895              	.L237:
 100:..\..\..\arduinoLCD\test\Pain Drain\libraries\lvgl\src\core/lv_indev.c ****             indev_pointer_proc(indev_act, &data);
 3896              		.loc 1 100 0
 3897 007c 134B     		ldr	r3, .L244
 3898 007e 5868     		ldr	r0, [r3, #4]
 3899 0080 0368     		ldr	r3, [r0]
 3900 0082 1B78     		ldrb	r3, [r3]
 3901 0084 012B     		cmp	r3, #1
 3902 0086 03D1     		bne	.L238
 101:..\..\..\arduinoLCD\test\Pain Drain\libraries\lvgl\src\core/lv_indev.c ****         }
 3903              		.loc 1 101 0
 3904 0088 6946     		mov	r1, sp
 3905 008a FFF7FEFF 		bl	indev_pointer_proc
 3906              	.LVL406:
 3907 008e 10E0     		b	.L239
 3908              	.L238:
 103:..\..\..\arduinoLCD\test\Pain Drain\libraries\lvgl\src\core/lv_indev.c ****             indev_keypad_proc(indev_act, &data);
 3909              		.loc 1 103 0
 3910 0090 022B     		cmp	r3, #2
 3911 0092 03D1     		bne	.L240
 104:..\..\..\arduinoLCD\test\Pain Drain\libraries\lvgl\src\core/lv_indev.c ****         }
 3912              		.loc 1 104 0
 3913 0094 6946     		mov	r1, sp
 3914 0096 FFF7FEFF 		bl	indev_keypad_proc
 3915              	.LVL407:
 3916 009a 0AE0     		b	.L239
 3917              	.L240:
 106:..\..\..\arduinoLCD\test\Pain Drain\libraries\lvgl\src\core/lv_indev.c ****             indev_encoder_proc(indev_act, &data);
 3918              		.loc 1 106 0
 3919 009c 042B     		cmp	r3, #4
 3920 009e 03D1     		bne	.L241
 107:..\..\..\arduinoLCD\test\Pain Drain\libraries\lvgl\src\core/lv_indev.c ****         }
 3921              		.loc 1 107 0
 3922 00a0 6946     		mov	r1, sp
 3923 00a2 FFF7FEFF 		bl	indev_encoder_proc
 3924              	.LVL408:
ARM GAS  C:\Users\haske\AppData\Local\Temp\ccl1At1U.s 			page 103


 3925 00a6 04E0     		b	.L239
 3926              	.L241:
 109:..\..\..\arduinoLCD\test\Pain Drain\libraries\lvgl\src\core/lv_indev.c ****             indev_button_proc(indev_act, &data);
 3927              		.loc 1 109 0
 3928 00a8 032B     		cmp	r3, #3
 3929 00aa 02D1     		bne	.L239
 110:..\..\..\arduinoLCD\test\Pain Drain\libraries\lvgl\src\core/lv_indev.c ****         }
 3930              		.loc 1 110 0
 3931 00ac 6946     		mov	r1, sp
 3932 00ae FFF7FEFF 		bl	indev_button_proc
 3933              	.LVL409:
 3934              	.L239:
 113:..\..\..\arduinoLCD\test\Pain Drain\libraries\lvgl\src\core/lv_indev.c ****     } while(continue_reading);
 3935              		.loc 1 113 0
 3936 00b2 064B     		ldr	r3, .L244
 3937 00b4 5868     		ldr	r0, [r3, #4]
 3938 00b6 FFF7FEFF 		bl	indev_proc_reset_query_handler
 3939              	.LVL410:
 114:..\..\..\arduinoLCD\test\Pain Drain\libraries\lvgl\src\core/lv_indev.c **** 
 3940              		.loc 1 114 0
 3941 00ba 002D     		cmp	r5, #0
 3942 00bc B5D1     		bne	.L242
 117:..\..\..\arduinoLCD\test\Pain Drain\libraries\lvgl\src\core/lv_indev.c ****     indev_obj_act = NULL;
 3943              		.loc 1 117 0
 3944 00be 034B     		ldr	r3, .L244
 3945 00c0 0022     		movs	r2, #0
 3946 00c2 5A60     		str	r2, [r3, #4]
 118:..\..\..\arduinoLCD\test\Pain Drain\libraries\lvgl\src\core/lv_indev.c **** 
 3947              		.loc 1 118 0
 3948 00c4 1A60     		str	r2, [r3]
 3949              	.LVL411:
 3950              	.L234:
 121:..\..\..\arduinoLCD\test\Pain Drain\libraries\lvgl\src\core/lv_indev.c **** 
 3951              		.loc 1 121 0
 3952 00c6 05B0     		add	sp, sp, #20
 3953              		@ sp needed
 3954 00c8 30BD     		pop	{r4, r5, pc}
 3955              	.L245:
 3956 00ca C046     		.align	2
 3957              	.L244:
 3958 00cc 00000000 		.word	.LANCHOR0
 3959              		.cfi_endproc
 3960              	.LFE165:
 3961              		.size	lv_indev_read_timer_cb, .-lv_indev_read_timer_cb
 3962              		.bss
 3963              		.align	2
 3964              		.set	.LANCHOR0,. + 0
 3965              		.type	indev_obj_act, %object
 3966              		.size	indev_obj_act, 4
 3967              	indev_obj_act:
 3968 0000 00000000 		.space	4
 3969              		.type	indev_act, %object
 3970              		.size	indev_act, 4
 3971              	indev_act:
 3972 0004 00000000 		.space	4
 3973              		.text
 3974              	.Letext0:
ARM GAS  C:\Users\haske\AppData\Local\Temp\ccl1At1U.s 			page 104


 3975              		.file 3 "c:\\program files (x86)\\cypress\\psoc creator\\4.4\\psoc creator\\import\\gnu\\arm\\5.4.
 3976              		.file 4 "c:\\program files (x86)\\cypress\\psoc creator\\4.4\\psoc creator\\import\\gnu\\arm\\5.4.
 3977              		.file 5 "c:\\program files (x86)\\cypress\\psoc creator\\4.4\\psoc creator\\import\\gnu\\arm\\5.4.
 3978              		.file 6 "c:\\projects\\paindrain\\arduinolcd\\test\\pain drain\\libraries\\lvgl\\src\\misc\\lv_are
 3979              		.file 7 "c:\\projects\\paindrain\\arduinolcd\\test\\pain drain\\libraries\\lvgl\\src\\font\\lv_fon
 3980              		.file 8 "..\\..\\..\\arduinoLCD\\test\\Pain Drain\\libraries\\lvgl\\src\\core\\../misc/lv_types.h"
 3981              		.file 9 "..\\..\\..\\arduinoLCD\\test\\Pain Drain\\libraries\\lvgl\\src\\core\\../misc/lv_color.h"
 3982              		.file 10 "..\\..\\..\\arduinoLCD\\test\\Pain Drain\\libraries\\lvgl\\src\\core\\../misc/lv_txt.h"
 3983              		.file 11 "..\\..\\..\\arduinoLCD\\test\\Pain Drain\\libraries\\lvgl\\src\\core\\../misc/lv_bidi.h"
 3984              		.file 12 "..\\..\\..\\arduinoLCD\\test\\Pain Drain\\libraries\\lvgl\\src\\core\\../misc/lv_style.h
 3985              		.file 13 "c:\\projects\\paindrain\\arduinolcd\\test\\pain drain\\libraries\\lvgl\\src\\draw\\lv_im
 3986              		.file 14 "..\\..\\..\\arduinoLCD\\test\\Pain Drain\\libraries\\lvgl\\src\\core\\lv_obj.h"
 3987              		.file 15 "c:\\projects\\paindrain\\arduinolcd\\test\\pain drain\\libraries\\lvgl\\src\\draw\\lv_dr
 3988              		.file 16 "c:\\projects\\paindrain\\arduinolcd\\test\\pain drain\\libraries\\lvgl\\src\\draw\\lv_dr
 3989              		.file 17 "c:\\projects\\paindrain\\arduinolcd\\test\\pain drain\\libraries\\lvgl\\src\\draw\\lv_dr
 3990              		.file 18 "c:\\projects\\paindrain\\arduinolcd\\test\\pain drain\\libraries\\lvgl\\src\\draw\\lv_dr
 3991              		.file 19 "c:\\projects\\paindrain\\arduinolcd\\test\\pain drain\\libraries\\lvgl\\src\\draw\\lv_dr
 3992              		.file 20 "c:\\projects\\paindrain\\arduinolcd\\test\\pain drain\\libraries\\lvgl\\src\\draw\\lv_dr
 3993              		.file 21 "c:\\projects\\paindrain\\arduinolcd\\test\\pain drain\\libraries\\lvgl\\src\\draw\\lv_dr
 3994              		.file 22 "c:\\projects\\paindrain\\arduinolcd\\test\\pain drain\\libraries\\lvgl\\src\\misc\\lv_ll
 3995              		.file 23 "c:\\projects\\paindrain\\arduinolcd\\test\\pain drain\\libraries\\lvgl\\src\\misc\\lv_ti
 3996              		.file 24 "..\\..\\..\\arduinoLCD\\test\\Pain Drain\\libraries\\lvgl\\src\\core\\../hal/lv_hal_disp
 3997              		.file 25 "..\\..\\..\\arduinoLCD\\test\\Pain Drain\\libraries\\lvgl\\src\\core\\lv_theme.h"
 3998              		.file 26 "..\\..\\..\\arduinoLCD\\test\\Pain Drain\\libraries\\lvgl\\src\\core\\../hal/lv_hal_inde
 3999              		.file 27 "..\\..\\..\\arduinoLCD\\test\\Pain Drain\\libraries\\lvgl\\src\\core\\lv_group.h"
 4000              		.file 28 "..\\..\\..\\arduinoLCD\\test\\Pain Drain\\libraries\\lvgl\\src\\core\\lv_obj_scroll.h"
 4001              		.file 29 "..\\..\\..\\arduinoLCD\\test\\Pain Drain\\libraries\\lvgl\\src\\core\\lv_obj_style.h"
 4002              		.file 30 "..\\..\\..\\arduinoLCD\\test\\Pain Drain\\libraries\\lvgl\\src\\core\\lv_obj_class.h"
 4003              		.file 31 "..\\..\\..\\arduinoLCD\\test\\Pain Drain\\libraries\\lvgl\\src\\core\\lv_event.h"
 4004              		.file 32 "..\\..\\..\\arduinoLCD\\test\\Pain Drain\\libraries\\lvgl\\src\\core\\lv_obj_tree.h"
 4005              		.file 33 "..\\..\\..\\arduinoLCD\\test\\Pain Drain\\libraries\\lvgl\\src\\core\\lv_indev_scroll.h"
 4006              		.file 34 "c:\\projects\\paindrain\\arduinolcd\\test\\pain drain\\libraries\\lvgl\\src\\hal\\lv_hal
 4007              		.file 35 "..\\..\\..\\arduinoLCD\\test\\Pain Drain\\libraries\\lvgl\\src\\core\\lv_disp.h"
 4008              		.file 36 "c:\\projects\\paindrain\\arduinolcd\\test\\pain drain\\libraries\\lvgl\\src\\core\\lv_ob
 4009              		.section	.debug_info,"",%progbits
 4010              	.Ldebug_info0:
 4011 0000 1F3A0000 		.4byte	0x3a1f
 4012 0004 0400     		.2byte	0x4
 4013 0006 00000000 		.4byte	.Ldebug_abbrev0
 4014 000a 04       		.byte	0x4
 4015 000b 01       		.uleb128 0x1
 4016 000c 3D0A0000 		.4byte	.LASF675
 4017 0010 0C       		.byte	0xc
 4018 0011 F2130000 		.4byte	.LASF676
 4019 0015 E8220000 		.4byte	.LASF677
 4020 0019 00000000 		.4byte	.Ldebug_ranges0+0
 4021 001d 00000000 		.4byte	0
 4022 0021 00000000 		.4byte	.Ldebug_line0
 4023 0025 02       		.uleb128 0x2
 4024 0026 941C0000 		.4byte	.LASF0
 4025 002a 03       		.byte	0x3
 4026 002b 1B       		.byte	0x1b
 4027 002c 30000000 		.4byte	0x30
 4028 0030 03       		.uleb128 0x3
 4029 0031 01       		.byte	0x1
 4030 0032 06       		.byte	0x6
 4031 0033 80070000 		.4byte	.LASF2
ARM GAS  C:\Users\haske\AppData\Local\Temp\ccl1At1U.s 			page 105


 4032 0037 02       		.uleb128 0x2
 4033 0038 2C040000 		.4byte	.LASF1
 4034 003c 03       		.byte	0x3
 4035 003d 1D       		.byte	0x1d
 4036 003e 42000000 		.4byte	0x42
 4037 0042 03       		.uleb128 0x3
 4038 0043 01       		.byte	0x1
 4039 0044 08       		.byte	0x8
 4040 0045 A3080000 		.4byte	.LASF3
 4041 0049 02       		.uleb128 0x2
 4042 004a 3F1F0000 		.4byte	.LASF4
 4043 004e 03       		.byte	0x3
 4044 004f 29       		.byte	0x29
 4045 0050 54000000 		.4byte	0x54
 4046 0054 03       		.uleb128 0x3
 4047 0055 02       		.byte	0x2
 4048 0056 05       		.byte	0x5
 4049 0057 45210000 		.4byte	.LASF5
 4050 005b 02       		.uleb128 0x2
 4051 005c 240C0000 		.4byte	.LASF6
 4052 0060 03       		.byte	0x3
 4053 0061 2B       		.byte	0x2b
 4054 0062 66000000 		.4byte	0x66
 4055 0066 03       		.uleb128 0x3
 4056 0067 02       		.byte	0x2
 4057 0068 07       		.byte	0x7
 4058 0069 A3250000 		.4byte	.LASF7
 4059 006d 02       		.uleb128 0x2
 4060 006e 9A260000 		.4byte	.LASF8
 4061 0072 03       		.byte	0x3
 4062 0073 3F       		.byte	0x3f
 4063 0074 78000000 		.4byte	0x78
 4064 0078 03       		.uleb128 0x3
 4065 0079 04       		.byte	0x4
 4066 007a 05       		.byte	0x5
 4067 007b 5E050000 		.4byte	.LASF9
 4068 007f 02       		.uleb128 0x2
 4069 0080 3D150000 		.4byte	.LASF10
 4070 0084 03       		.byte	0x3
 4071 0085 41       		.byte	0x41
 4072 0086 8A000000 		.4byte	0x8a
 4073 008a 03       		.uleb128 0x3
 4074 008b 04       		.byte	0x4
 4075 008c 07       		.byte	0x7
 4076 008d A7110000 		.4byte	.LASF11
 4077 0091 03       		.uleb128 0x3
 4078 0092 08       		.byte	0x8
 4079 0093 05       		.byte	0x5
 4080 0094 7D150000 		.4byte	.LASF12
 4081 0098 03       		.uleb128 0x3
 4082 0099 08       		.byte	0x8
 4083 009a 07       		.byte	0x7
 4084 009b FB1C0000 		.4byte	.LASF13
 4085 009f 04       		.uleb128 0x4
 4086 00a0 04       		.byte	0x4
 4087 00a1 05       		.byte	0x5
 4088 00a2 696E7400 		.ascii	"int\000"
ARM GAS  C:\Users\haske\AppData\Local\Temp\ccl1At1U.s 			page 106


 4089 00a6 03       		.uleb128 0x3
 4090 00a7 04       		.byte	0x4
 4091 00a8 07       		.byte	0x7
 4092 00a9 CC170000 		.4byte	.LASF14
 4093 00ad 02       		.uleb128 0x2
 4094 00ae 09000000 		.4byte	.LASF15
 4095 00b2 04       		.byte	0x4
 4096 00b3 14       		.byte	0x14
 4097 00b4 25000000 		.4byte	0x25
 4098 00b8 02       		.uleb128 0x2
 4099 00b9 8C070000 		.4byte	.LASF16
 4100 00bd 04       		.byte	0x4
 4101 00be 18       		.byte	0x18
 4102 00bf 37000000 		.4byte	0x37
 4103 00c3 02       		.uleb128 0x2
 4104 00c4 02220000 		.4byte	.LASF17
 4105 00c8 04       		.byte	0x4
 4106 00c9 20       		.byte	0x20
 4107 00ca 49000000 		.4byte	0x49
 4108 00ce 02       		.uleb128 0x2
 4109 00cf 9A1D0000 		.4byte	.LASF18
 4110 00d3 04       		.byte	0x4
 4111 00d4 24       		.byte	0x24
 4112 00d5 5B000000 		.4byte	0x5b
 4113 00d9 02       		.uleb128 0x2
 4114 00da 33010000 		.4byte	.LASF19
 4115 00de 04       		.byte	0x4
 4116 00df 2C       		.byte	0x2c
 4117 00e0 6D000000 		.4byte	0x6d
 4118 00e4 02       		.uleb128 0x2
 4119 00e5 D2240000 		.4byte	.LASF20
 4120 00e9 04       		.byte	0x4
 4121 00ea 30       		.byte	0x30
 4122 00eb 7F000000 		.4byte	0x7f
 4123 00ef 02       		.uleb128 0x2
 4124 00f0 5A000000 		.4byte	.LASF21
 4125 00f4 05       		.byte	0x5
 4126 00f5 D8       		.byte	0xd8
 4127 00f6 A6000000 		.4byte	0xa6
 4128 00fa 03       		.uleb128 0x3
 4129 00fb 08       		.byte	0x8
 4130 00fc 04       		.byte	0x4
 4131 00fd 0C1B0000 		.4byte	.LASF22
 4132 0101 02       		.uleb128 0x2
 4133 0102 C3250000 		.4byte	.LASF23
 4134 0106 06       		.byte	0x6
 4135 0107 1B       		.byte	0x1b
 4136 0108 C3000000 		.4byte	0xc3
 4137 010c 05       		.uleb128 0x5
 4138 010d 04       		.byte	0x4
 4139 010e 06       		.byte	0x6
 4140 010f 25       		.byte	0x25
 4141 0110 29010000 		.4byte	0x129
 4142 0114 06       		.uleb128 0x6
 4143 0115 7800     		.ascii	"x\000"
 4144 0117 06       		.byte	0x6
 4145 0118 26       		.byte	0x26
ARM GAS  C:\Users\haske\AppData\Local\Temp\ccl1At1U.s 			page 107


 4146 0119 01010000 		.4byte	0x101
 4147 011d 00       		.byte	0
 4148 011e 06       		.uleb128 0x6
 4149 011f 7900     		.ascii	"y\000"
 4150 0121 06       		.byte	0x6
 4151 0122 27       		.byte	0x27
 4152 0123 01010000 		.4byte	0x101
 4153 0127 02       		.byte	0x2
 4154 0128 00       		.byte	0
 4155 0129 02       		.uleb128 0x2
 4156 012a 99010000 		.4byte	.LASF24
 4157 012e 06       		.byte	0x6
 4158 012f 28       		.byte	0x28
 4159 0130 0C010000 		.4byte	0x10c
 4160 0134 05       		.uleb128 0x5
 4161 0135 08       		.byte	0x8
 4162 0136 06       		.byte	0x6
 4163 0137 2B       		.byte	0x2b
 4164 0138 69010000 		.4byte	0x169
 4165 013c 06       		.uleb128 0x6
 4166 013d 783100   		.ascii	"x1\000"
 4167 0140 06       		.byte	0x6
 4168 0141 2C       		.byte	0x2c
 4169 0142 01010000 		.4byte	0x101
 4170 0146 00       		.byte	0
 4171 0147 06       		.uleb128 0x6
 4172 0148 793100   		.ascii	"y1\000"
 4173 014b 06       		.byte	0x6
 4174 014c 2D       		.byte	0x2d
 4175 014d 01010000 		.4byte	0x101
 4176 0151 02       		.byte	0x2
 4177 0152 06       		.uleb128 0x6
 4178 0153 783200   		.ascii	"x2\000"
 4179 0156 06       		.byte	0x6
 4180 0157 2E       		.byte	0x2e
 4181 0158 01010000 		.4byte	0x101
 4182 015c 04       		.byte	0x4
 4183 015d 06       		.uleb128 0x6
 4184 015e 793200   		.ascii	"y2\000"
 4185 0161 06       		.byte	0x6
 4186 0162 2F       		.byte	0x2f
 4187 0163 01010000 		.4byte	0x101
 4188 0167 06       		.byte	0x6
 4189 0168 00       		.byte	0
 4190 0169 02       		.uleb128 0x2
 4191 016a D10E0000 		.4byte	.LASF25
 4192 016e 06       		.byte	0x6
 4193 016f 30       		.byte	0x30
 4194 0170 34010000 		.4byte	0x134
 4195 0174 07       		.uleb128 0x7
 4196 0175 01       		.byte	0x1
 4197 0176 42000000 		.4byte	0x42
 4198 017a 06       		.byte	0x6
 4199 017b 4E       		.byte	0x4e
 4200 017c B1010000 		.4byte	0x1b1
 4201 0180 08       		.uleb128 0x8
 4202 0181 540B0000 		.4byte	.LASF26
ARM GAS  C:\Users\haske\AppData\Local\Temp\ccl1At1U.s 			page 108


 4203 0185 00       		.byte	0
 4204 0186 08       		.uleb128 0x8
 4205 0187 2A280000 		.4byte	.LASF27
 4206 018b 01       		.byte	0x1
 4207 018c 08       		.uleb128 0x8
 4208 018d 991B0000 		.4byte	.LASF28
 4209 0191 02       		.byte	0x2
 4210 0192 08       		.uleb128 0x8
 4211 0193 C2090000 		.4byte	.LASF29
 4212 0197 04       		.byte	0x4
 4213 0198 08       		.uleb128 0x8
 4214 0199 21230000 		.4byte	.LASF30
 4215 019d 08       		.byte	0x8
 4216 019e 08       		.uleb128 0x8
 4217 019f 0A220000 		.4byte	.LASF31
 4218 01a3 03       		.byte	0x3
 4219 01a4 08       		.uleb128 0x8
 4220 01a5 CE0D0000 		.4byte	.LASF32
 4221 01a9 0C       		.byte	0xc
 4222 01aa 08       		.uleb128 0x8
 4223 01ab AA0D0000 		.4byte	.LASF33
 4224 01af 0F       		.byte	0xf
 4225 01b0 00       		.byte	0
 4226 01b1 02       		.uleb128 0x2
 4227 01b2 0C0D0000 		.4byte	.LASF34
 4228 01b6 06       		.byte	0x6
 4229 01b7 59       		.byte	0x59
 4230 01b8 B8000000 		.4byte	0xb8
 4231 01bc 05       		.uleb128 0x5
 4232 01bd 10       		.byte	0x10
 4233 01be 07       		.byte	0x7
 4234 01bf 29       		.byte	0x29
 4235 01c0 2B020000 		.4byte	0x22b
 4236 01c4 09       		.uleb128 0x9
 4237 01c5 E0120000 		.4byte	.LASF35
 4238 01c9 07       		.byte	0x7
 4239 01ca 2B       		.byte	0x2b
 4240 01cb B3020000 		.4byte	0x2b3
 4241 01cf 00       		.byte	0
 4242 01d0 09       		.uleb128 0x9
 4243 01d1 61000000 		.4byte	.LASF36
 4244 01d5 07       		.byte	0x7
 4245 01d6 2C       		.byte	0x2c
 4246 01d7 CE000000 		.4byte	0xce
 4247 01db 04       		.byte	0x4
 4248 01dc 09       		.uleb128 0x9
 4249 01dd 3F210000 		.4byte	.LASF37
 4250 01e1 07       		.byte	0x7
 4251 01e2 2D       		.byte	0x2d
 4252 01e3 CE000000 		.4byte	0xce
 4253 01e7 06       		.byte	0x6
 4254 01e8 09       		.uleb128 0x9
 4255 01e9 ED200000 		.4byte	.LASF38
 4256 01ed 07       		.byte	0x7
 4257 01ee 2E       		.byte	0x2e
 4258 01ef CE000000 		.4byte	0xce
 4259 01f3 08       		.byte	0x8
ARM GAS  C:\Users\haske\AppData\Local\Temp\ccl1At1U.s 			page 109


 4260 01f4 09       		.uleb128 0x9
 4261 01f5 97090000 		.4byte	.LASF39
 4262 01f9 07       		.byte	0x7
 4263 01fa 2F       		.byte	0x2f
 4264 01fb C3000000 		.4byte	0xc3
 4265 01ff 0A       		.byte	0xa
 4266 0200 09       		.uleb128 0x9
 4267 0201 9D090000 		.4byte	.LASF40
 4268 0205 07       		.byte	0x7
 4269 0206 30       		.byte	0x30
 4270 0207 C3000000 		.4byte	0xc3
 4271 020b 0C       		.byte	0xc
 4272 020c 0A       		.uleb128 0xa
 4273 020d 62707000 		.ascii	"bpp\000"
 4274 0211 07       		.byte	0x7
 4275 0212 31       		.byte	0x31
 4276 0213 B8000000 		.4byte	0xb8
 4277 0217 01       		.byte	0x1
 4278 0218 04       		.byte	0x4
 4279 0219 04       		.byte	0x4
 4280 021a 0E       		.byte	0xe
 4281 021b 0B       		.uleb128 0xb
 4282 021c 48280000 		.4byte	.LASF41
 4283 0220 07       		.byte	0x7
 4284 0221 32       		.byte	0x32
 4285 0222 B8000000 		.4byte	0xb8
 4286 0226 01       		.byte	0x1
 4287 0227 01       		.byte	0x1
 4288 0228 03       		.byte	0x3
 4289 0229 0E       		.byte	0xe
 4290 022a 00       		.byte	0
 4291 022b 0C       		.uleb128 0xc
 4292 022c 2A150000 		.4byte	.LASF180
 4293 0230 1C       		.byte	0x1c
 4294 0231 07       		.byte	0x7
 4295 0232 40       		.byte	0x40
 4296 0233 B3020000 		.4byte	0x2b3
 4297 0237 09       		.uleb128 0x9
 4298 0238 8C260000 		.4byte	.LASF42
 4299 023c 07       		.byte	0x7
 4300 023d 42       		.byte	0x42
 4301 023e F4020000 		.4byte	0x2f4
 4302 0242 00       		.byte	0
 4303 0243 09       		.uleb128 0x9
 4304 0244 11080000 		.4byte	.LASF43
 4305 0248 07       		.byte	0x7
 4306 0249 45       		.byte	0x45
 4307 024a 19030000 		.4byte	0x319
 4308 024e 04       		.byte	0x4
 4309 024f 09       		.uleb128 0x9
 4310 0250 B4010000 		.4byte	.LASF44
 4311 0254 07       		.byte	0x7
 4312 0255 48       		.byte	0x48
 4313 0256 01010000 		.4byte	0x101
 4314 025a 08       		.byte	0x8
 4315 025b 09       		.uleb128 0x9
 4316 025c 4F210000 		.4byte	.LASF45
ARM GAS  C:\Users\haske\AppData\Local\Temp\ccl1At1U.s 			page 110


 4317 0260 07       		.byte	0x7
 4318 0261 49       		.byte	0x49
 4319 0262 01010000 		.4byte	0x101
 4320 0266 0A       		.byte	0xa
 4321 0267 0B       		.uleb128 0xb
 4322 0268 731B0000 		.4byte	.LASF46
 4323 026c 07       		.byte	0x7
 4324 026d 4A       		.byte	0x4a
 4325 026e B8000000 		.4byte	0xb8
 4326 0272 01       		.byte	0x1
 4327 0273 02       		.byte	0x2
 4328 0274 06       		.byte	0x6
 4329 0275 0C       		.byte	0xc
 4330 0276 09       		.uleb128 0x9
 4331 0277 600B0000 		.4byte	.LASF47
 4332 027b 07       		.byte	0x7
 4333 027c 4C       		.byte	0x4c
 4334 027d AD000000 		.4byte	0xad
 4335 0281 0D       		.byte	0xd
 4336 0282 09       		.uleb128 0x9
 4337 0283 CB160000 		.4byte	.LASF48
 4338 0287 07       		.byte	0x7
 4339 0288 4D       		.byte	0x4d
 4340 0289 AD000000 		.4byte	0xad
 4341 028d 0E       		.byte	0xe
 4342 028e 06       		.uleb128 0x6
 4343 028f 64736300 		.ascii	"dsc\000"
 4344 0293 07       		.byte	0x7
 4345 0294 4F       		.byte	0x4f
 4346 0295 1F030000 		.4byte	0x31f
 4347 0299 10       		.byte	0x10
 4348 029a 09       		.uleb128 0x9
 4349 029b 4E0E0000 		.4byte	.LASF49
 4350 029f 07       		.byte	0x7
 4351 02a0 50       		.byte	0x50
 4352 02a1 B3020000 		.4byte	0x2b3
 4353 02a5 14       		.byte	0x14
 4354 02a6 09       		.uleb128 0x9
 4355 02a7 13260000 		.4byte	.LASF50
 4356 02ab 07       		.byte	0x7
 4357 02ac 52       		.byte	0x52
 4358 02ad 26030000 		.4byte	0x326
 4359 02b1 18       		.byte	0x18
 4360 02b2 00       		.byte	0
 4361 02b3 0D       		.uleb128 0xd
 4362 02b4 04       		.byte	0x4
 4363 02b5 B9020000 		.4byte	0x2b9
 4364 02b9 0E       		.uleb128 0xe
 4365 02ba 2B020000 		.4byte	0x22b
 4366 02be 02       		.uleb128 0x2
 4367 02bf 44190000 		.4byte	.LASF51
 4368 02c3 07       		.byte	0x7
 4369 02c4 33       		.byte	0x33
 4370 02c5 BC010000 		.4byte	0x1bc
 4371 02c9 0F       		.uleb128 0xf
 4372 02ca E7020000 		.4byte	0x2e7
 4373 02ce E7020000 		.4byte	0x2e7
ARM GAS  C:\Users\haske\AppData\Local\Temp\ccl1At1U.s 			page 111


 4374 02d2 10       		.uleb128 0x10
 4375 02d3 B3020000 		.4byte	0x2b3
 4376 02d7 10       		.uleb128 0x10
 4377 02d8 EE020000 		.4byte	0x2ee
 4378 02dc 10       		.uleb128 0x10
 4379 02dd E4000000 		.4byte	0xe4
 4380 02e1 10       		.uleb128 0x10
 4381 02e2 E4000000 		.4byte	0xe4
 4382 02e6 00       		.byte	0
 4383 02e7 03       		.uleb128 0x3
 4384 02e8 01       		.byte	0x1
 4385 02e9 02       		.byte	0x2
 4386 02ea E4090000 		.4byte	.LASF52
 4387 02ee 0D       		.uleb128 0xd
 4388 02ef 04       		.byte	0x4
 4389 02f0 BE020000 		.4byte	0x2be
 4390 02f4 0D       		.uleb128 0xd
 4391 02f5 04       		.byte	0x4
 4392 02f6 C9020000 		.4byte	0x2c9
 4393 02fa 0F       		.uleb128 0xf
 4394 02fb 0E030000 		.4byte	0x30e
 4395 02ff 0E030000 		.4byte	0x30e
 4396 0303 10       		.uleb128 0x10
 4397 0304 B3020000 		.4byte	0x2b3
 4398 0308 10       		.uleb128 0x10
 4399 0309 E4000000 		.4byte	0xe4
 4400 030d 00       		.byte	0
 4401 030e 0D       		.uleb128 0xd
 4402 030f 04       		.byte	0x4
 4403 0310 14030000 		.4byte	0x314
 4404 0314 0E       		.uleb128 0xe
 4405 0315 B8000000 		.4byte	0xb8
 4406 0319 0D       		.uleb128 0xd
 4407 031a 04       		.byte	0x4
 4408 031b FA020000 		.4byte	0x2fa
 4409 031f 0D       		.uleb128 0xd
 4410 0320 04       		.byte	0x4
 4411 0321 25030000 		.4byte	0x325
 4412 0325 11       		.uleb128 0x11
 4413 0326 12       		.uleb128 0x12
 4414 0327 04       		.byte	0x4
 4415 0328 02       		.uleb128 0x2
 4416 0329 52250000 		.4byte	.LASF53
 4417 032d 07       		.byte	0x7
 4418 032e 54       		.byte	0x54
 4419 032f 2B020000 		.4byte	0x22b
 4420 0333 02       		.uleb128 0x2
 4421 0334 C71A0000 		.4byte	.LASF54
 4422 0338 08       		.byte	0x8
 4423 0339 2F       		.byte	0x2f
 4424 033a B8000000 		.4byte	0xb8
 4425 033e 03       		.uleb128 0x3
 4426 033f 04       		.byte	0x4
 4427 0340 07       		.byte	0x7
 4428 0341 7D000000 		.4byte	.LASF55
 4429 0345 03       		.uleb128 0x3
 4430 0346 01       		.byte	0x1
ARM GAS  C:\Users\haske\AppData\Local\Temp\ccl1At1U.s 			page 112


 4431 0347 08       		.byte	0x8
 4432 0348 360B0000 		.4byte	.LASF56
 4433 034c 05       		.uleb128 0x5
 4434 034d 02       		.byte	0x2
 4435 034e 09       		.byte	0x9
 4436 034f D1       		.byte	0xd1
 4437 0350 82030000 		.4byte	0x382
 4438 0354 0B       		.uleb128 0xb
 4439 0355 2C080000 		.4byte	.LASF57
 4440 0359 09       		.byte	0x9
 4441 035a D3       		.byte	0xd3
 4442 035b CE000000 		.4byte	0xce
 4443 035f 02       		.byte	0x2
 4444 0360 05       		.byte	0x5
 4445 0361 0B       		.byte	0xb
 4446 0362 00       		.byte	0
 4447 0363 0B       		.uleb128 0xb
 4448 0364 4C250000 		.4byte	.LASF58
 4449 0368 09       		.byte	0x9
 4450 0369 D4       		.byte	0xd4
 4451 036a CE000000 		.4byte	0xce
 4452 036e 02       		.byte	0x2
 4453 036f 06       		.byte	0x6
 4454 0370 05       		.byte	0x5
 4455 0371 00       		.byte	0
 4456 0372 0A       		.uleb128 0xa
 4457 0373 72656400 		.ascii	"red\000"
 4458 0377 09       		.byte	0x9
 4459 0378 D5       		.byte	0xd5
 4460 0379 CE000000 		.4byte	0xce
 4461 037d 02       		.byte	0x2
 4462 037e 05       		.byte	0x5
 4463 037f 00       		.byte	0
 4464 0380 00       		.byte	0
 4465 0381 00       		.byte	0
 4466 0382 13       		.uleb128 0x13
 4467 0383 02       		.byte	0x2
 4468 0384 09       		.byte	0x9
 4469 0385 D0       		.byte	0xd0
 4470 0386 A0030000 		.4byte	0x3a0
 4471 038a 14       		.uleb128 0x14
 4472 038b 636800   		.ascii	"ch\000"
 4473 038e 09       		.byte	0x9
 4474 038f DC       		.byte	0xdc
 4475 0390 4C030000 		.4byte	0x34c
 4476 0394 15       		.uleb128 0x15
 4477 0395 B51F0000 		.4byte	.LASF59
 4478 0399 09       		.byte	0x9
 4479 039a DD       		.byte	0xdd
 4480 039b CE000000 		.4byte	0xce
 4481 039f 00       		.byte	0
 4482 03a0 02       		.uleb128 0x2
 4483 03a1 32210000 		.4byte	.LASF60
 4484 03a5 09       		.byte	0x9
 4485 03a6 DE       		.byte	0xde
 4486 03a7 82030000 		.4byte	0x382
 4487 03ab 02       		.uleb128 0x2
ARM GAS  C:\Users\haske\AppData\Local\Temp\ccl1At1U.s 			page 113


 4488 03ac C71D0000 		.4byte	.LASF61
 4489 03b0 09       		.byte	0x9
 4490 03b1 EB       		.byte	0xeb
 4491 03b2 A0030000 		.4byte	0x3a0
 4492 03b6 02       		.uleb128 0x2
 4493 03b7 11010000 		.4byte	.LASF62
 4494 03bb 09       		.byte	0x9
 4495 03bc F5       		.byte	0xf5
 4496 03bd B8000000 		.4byte	0xb8
 4497 03c1 02       		.uleb128 0x2
 4498 03c2 601E0000 		.4byte	.LASF63
 4499 03c6 0A       		.byte	0xa
 4500 03c7 30       		.byte	0x30
 4501 03c8 B8000000 		.4byte	0xb8
 4502 03cc 02       		.uleb128 0x2
 4503 03cd A0160000 		.4byte	.LASF64
 4504 03d1 0A       		.byte	0xa
 4505 03d2 42       		.byte	0x42
 4506 03d3 B8000000 		.4byte	0xb8
 4507 03d7 02       		.uleb128 0x2
 4508 03d8 A3090000 		.4byte	.LASF65
 4509 03dc 0B       		.byte	0xb
 4510 03dd 2A       		.byte	0x2a
 4511 03de B8000000 		.4byte	0xb8
 4512 03e2 02       		.uleb128 0x2
 4513 03e3 C0010000 		.4byte	.LASF66
 4514 03e7 0C       		.byte	0xc
 4515 03e8 5E       		.byte	0x5e
 4516 03e9 B8000000 		.4byte	0xb8
 4517 03ed 02       		.uleb128 0x2
 4518 03ee 61150000 		.4byte	.LASF67
 4519 03f2 0C       		.byte	0xc
 4520 03f3 6A       		.byte	0x6a
 4521 03f4 B8000000 		.4byte	0xb8
 4522 03f8 02       		.uleb128 0x2
 4523 03f9 49200000 		.4byte	.LASF68
 4524 03fd 0C       		.byte	0xc
 4525 03fe 79       		.byte	0x79
 4526 03ff B8000000 		.4byte	0xb8
 4527 0403 02       		.uleb128 0x2
 4528 0404 BE260000 		.4byte	.LASF69
 4529 0408 0C       		.byte	0xc
 4530 0409 84       		.byte	0x84
 4531 040a B8000000 		.4byte	0xb8
 4532 040e 02       		.uleb128 0x2
 4533 040f 1E1B0000 		.4byte	.LASF70
 4534 0413 0C       		.byte	0xc
 4535 0414 90       		.byte	0x90
 4536 0415 B8000000 		.4byte	0xb8
 4537 0419 05       		.uleb128 0x5
 4538 041a 04       		.byte	0x4
 4539 041b 0C       		.byte	0xc
 4540 041c 95       		.byte	0x95
 4541 041d 3A040000 		.4byte	0x43a
 4542 0421 09       		.uleb128 0x9
 4543 0422 CE1F0000 		.4byte	.LASF71
 4544 0426 0C       		.byte	0xc
ARM GAS  C:\Users\haske\AppData\Local\Temp\ccl1At1U.s 			page 114


 4545 0427 96       		.byte	0x96
 4546 0428 AB030000 		.4byte	0x3ab
 4547 042c 00       		.byte	0
 4548 042d 09       		.uleb128 0x9
 4549 042e 5A200000 		.4byte	.LASF72
 4550 0432 0C       		.byte	0xc
 4551 0433 97       		.byte	0x97
 4552 0434 B8000000 		.4byte	0xb8
 4553 0438 02       		.byte	0x2
 4554 0439 00       		.byte	0
 4555 043a 02       		.uleb128 0x2
 4556 043b 26240000 		.4byte	.LASF73
 4557 043f 0C       		.byte	0xc
 4558 0440 98       		.byte	0x98
 4559 0441 19040000 		.4byte	0x419
 4560 0445 05       		.uleb128 0x5
 4561 0446 0A       		.byte	0xa
 4562 0447 0C       		.byte	0xc
 4563 0448 9B       		.byte	0x9b
 4564 0449 84040000 		.4byte	0x484
 4565 044d 09       		.uleb128 0x9
 4566 044e E71F0000 		.4byte	.LASF74
 4567 0452 0C       		.byte	0xc
 4568 0453 9C       		.byte	0x9c
 4569 0454 84040000 		.4byte	0x484
 4570 0458 00       		.byte	0
 4571 0459 09       		.uleb128 0x9
 4572 045a 0B0C0000 		.4byte	.LASF75
 4573 045e 0C       		.byte	0xc
 4574 045f 9D       		.byte	0x9d
 4575 0460 B8000000 		.4byte	0xb8
 4576 0464 08       		.byte	0x8
 4577 0465 0A       		.uleb128 0xa
 4578 0466 64697200 		.ascii	"dir\000"
 4579 046a 0C       		.byte	0xc
 4580 046b 9E       		.byte	0x9e
 4581 046c 03040000 		.4byte	0x403
 4582 0470 01       		.byte	0x1
 4583 0471 03       		.byte	0x3
 4584 0472 05       		.byte	0x5
 4585 0473 09       		.byte	0x9
 4586 0474 0B       		.uleb128 0xb
 4587 0475 9C250000 		.4byte	.LASF76
 4588 0479 0C       		.byte	0xc
 4589 047a A0       		.byte	0xa0
 4590 047b 0E040000 		.4byte	0x40e
 4591 047f 01       		.byte	0x1
 4592 0480 03       		.byte	0x3
 4593 0481 02       		.byte	0x2
 4594 0482 09       		.byte	0x9
 4595 0483 00       		.byte	0
 4596 0484 16       		.uleb128 0x16
 4597 0485 3A040000 		.4byte	0x43a
 4598 0489 94040000 		.4byte	0x494
 4599 048d 17       		.uleb128 0x17
 4600 048e 3E030000 		.4byte	0x33e
 4601 0492 01       		.byte	0x1
ARM GAS  C:\Users\haske\AppData\Local\Temp\ccl1At1U.s 			page 115


 4602 0493 00       		.byte	0
 4603 0494 02       		.uleb128 0x2
 4604 0495 02280000 		.4byte	.LASF77
 4605 0499 0C       		.byte	0xc
 4606 049a A2       		.byte	0xa2
 4607 049b 45040000 		.4byte	0x445
 4608 049f 13       		.uleb128 0x13
 4609 04a0 04       		.byte	0x4
 4610 04a1 0C       		.byte	0xc
 4611 04a2 A7       		.byte	0xa7
 4612 04a3 C9040000 		.4byte	0x4c9
 4613 04a7 14       		.uleb128 0x14
 4614 04a8 6E756D00 		.ascii	"num\000"
 4615 04ac 0C       		.byte	0xc
 4616 04ad A8       		.byte	0xa8
 4617 04ae D9000000 		.4byte	0xd9
 4618 04b2 14       		.uleb128 0x14
 4619 04b3 70747200 		.ascii	"ptr\000"
 4620 04b7 0C       		.byte	0xc
 4621 04b8 A9       		.byte	0xa9
 4622 04b9 1F030000 		.4byte	0x31f
 4623 04bd 15       		.uleb128 0x15
 4624 04be CE1F0000 		.4byte	.LASF71
 4625 04c2 0C       		.byte	0xc
 4626 04c3 AA       		.byte	0xaa
 4627 04c4 AB030000 		.4byte	0x3ab
 4628 04c8 00       		.byte	0
 4629 04c9 02       		.uleb128 0x2
 4630 04ca FB170000 		.4byte	.LASF78
 4631 04ce 0C       		.byte	0xc
 4632 04cf AB       		.byte	0xab
 4633 04d0 9F040000 		.4byte	0x49f
 4634 04d4 07       		.uleb128 0x7
 4635 04d5 02       		.byte	0x2
 4636 04d6 66000000 		.4byte	0x66
 4637 04da 0C       		.byte	0xc
 4638 04db B2       		.byte	0xb2
 4639 04dc F9060000 		.4byte	0x6f9
 4640 04e0 08       		.uleb128 0x8
 4641 04e1 8B0F0000 		.4byte	.LASF79
 4642 04e5 00       		.byte	0
 4643 04e6 08       		.uleb128 0x8
 4644 04e7 1B1E0000 		.4byte	.LASF80
 4645 04eb 01       		.byte	0x1
 4646 04ec 08       		.uleb128 0x8
 4647 04ed 371E0000 		.4byte	.LASF81
 4648 04f1 02       		.byte	0x2
 4649 04f2 08       		.uleb128 0x8
 4650 04f3 71040000 		.4byte	.LASF82
 4651 04f7 03       		.byte	0x3
 4652 04f8 08       		.uleb128 0x8
 4653 04f9 47020000 		.4byte	.LASF83
 4654 04fd 04       		.byte	0x4
 4655 04fe 08       		.uleb128 0x8
 4656 04ff 75230000 		.4byte	.LASF84
 4657 0503 05       		.byte	0x5
 4658 0504 08       		.uleb128 0x8
ARM GAS  C:\Users\haske\AppData\Local\Temp\ccl1At1U.s 			page 116


 4659 0505 88200000 		.4byte	.LASF85
 4660 0509 06       		.byte	0x6
 4661 050a 08       		.uleb128 0x8
 4662 050b 9F140000 		.4byte	.LASF86
 4663 050f 07       		.byte	0x7
 4664 0510 08       		.uleb128 0x8
 4665 0511 39240000 		.4byte	.LASF87
 4666 0515 08       		.byte	0x8
 4667 0516 08       		.uleb128 0x8
 4668 0517 94080000 		.4byte	.LASF88
 4669 051b 09       		.byte	0x9
 4670 051c 08       		.uleb128 0x8
 4671 051d 34190000 		.4byte	.LASF89
 4672 0521 0A       		.byte	0xa
 4673 0522 08       		.uleb128 0x8
 4674 0523 4A040000 		.4byte	.LASF90
 4675 0527 0B       		.byte	0xb
 4676 0528 08       		.uleb128 0x8
 4677 0529 7D220000 		.4byte	.LASF91
 4678 052d 10       		.byte	0x10
 4679 052e 08       		.uleb128 0x8
 4680 052f 7C100000 		.4byte	.LASF92
 4681 0533 11       		.byte	0x11
 4682 0534 08       		.uleb128 0x8
 4683 0535 D2130000 		.4byte	.LASF93
 4684 0539 12       		.byte	0x12
 4685 053a 08       		.uleb128 0x8
 4686 053b 2B050000 		.4byte	.LASF94
 4687 053f 13       		.byte	0x13
 4688 0540 08       		.uleb128 0x8
 4689 0541 71130000 		.4byte	.LASF95
 4690 0545 14       		.byte	0x14
 4691 0546 08       		.uleb128 0x8
 4692 0547 93030000 		.4byte	.LASF96
 4693 054b 15       		.byte	0x15
 4694 054c 08       		.uleb128 0x8
 4695 054d CC0B0000 		.4byte	.LASF97
 4696 0551 16       		.byte	0x16
 4697 0552 08       		.uleb128 0x8
 4698 0553 0B1A0000 		.4byte	.LASF98
 4699 0557 17       		.byte	0x17
 4700 0558 08       		.uleb128 0x8
 4701 0559 A70C0000 		.4byte	.LASF99
 4702 055d 20       		.byte	0x20
 4703 055e 08       		.uleb128 0x8
 4704 055f E6100000 		.4byte	.LASF100
 4705 0563 21       		.byte	0x21
 4706 0564 08       		.uleb128 0x8
 4707 0565 CD200000 		.4byte	.LASF101
 4708 0569 22       		.byte	0x22
 4709 056a 08       		.uleb128 0x8
 4710 056b FC070000 		.4byte	.LASF102
 4711 056f 23       		.byte	0x23
 4712 0570 08       		.uleb128 0x8
 4713 0571 AC020000 		.4byte	.LASF103
 4714 0575 24       		.byte	0x24
 4715 0576 08       		.uleb128 0x8
ARM GAS  C:\Users\haske\AppData\Local\Temp\ccl1At1U.s 			page 117


 4716 0577 1C1D0000 		.4byte	.LASF104
 4717 057b 25       		.byte	0x25
 4718 057c 08       		.uleb128 0x8
 4719 057d AE1C0000 		.4byte	.LASF105
 4720 0581 26       		.byte	0x26
 4721 0582 08       		.uleb128 0x8
 4722 0583 08040000 		.4byte	.LASF106
 4723 0587 27       		.byte	0x27
 4724 0588 08       		.uleb128 0x8
 4725 0589 C61E0000 		.4byte	.LASF107
 4726 058d 28       		.byte	0x28
 4727 058e 08       		.uleb128 0x8
 4728 058f AD220000 		.4byte	.LASF108
 4729 0593 29       		.byte	0x29
 4730 0594 08       		.uleb128 0x8
 4731 0595 9E040000 		.4byte	.LASF109
 4732 0599 2A       		.byte	0x2a
 4733 059a 08       		.uleb128 0x8
 4734 059b A8050000 		.4byte	.LASF110
 4735 059f 2B       		.byte	0x2b
 4736 05a0 08       		.uleb128 0x8
 4737 05a1 87060000 		.4byte	.LASF111
 4738 05a5 2C       		.byte	0x2c
 4739 05a6 08       		.uleb128 0x8
 4740 05a7 281C0000 		.4byte	.LASF112
 4741 05ab 30       		.byte	0x30
 4742 05ac 08       		.uleb128 0x8
 4743 05ad B9060000 		.4byte	.LASF113
 4744 05b1 31       		.byte	0x31
 4745 05b2 08       		.uleb128 0x8
 4746 05b3 45030000 		.4byte	.LASF114
 4747 05b7 32       		.byte	0x32
 4748 05b8 08       		.uleb128 0x8
 4749 05b9 321D0000 		.4byte	.LASF115
 4750 05bd 33       		.byte	0x33
 4751 05be 08       		.uleb128 0x8
 4752 05bf E8230000 		.4byte	.LASF116
 4753 05c3 34       		.byte	0x34
 4754 05c4 08       		.uleb128 0x8
 4755 05c5 E60E0000 		.4byte	.LASF117
 4756 05c9 35       		.byte	0x35
 4757 05ca 08       		.uleb128 0x8
 4758 05cb FC250000 		.4byte	.LASF118
 4759 05cf 36       		.byte	0x36
 4760 05d0 08       		.uleb128 0x8
 4761 05d1 F60B0000 		.4byte	.LASF119
 4762 05d5 37       		.byte	0x37
 4763 05d6 08       		.uleb128 0x8
 4764 05d7 57280000 		.4byte	.LASF120
 4765 05db 38       		.byte	0x38
 4766 05dc 08       		.uleb128 0x8
 4767 05dd B7190000 		.4byte	.LASF121
 4768 05e1 40       		.byte	0x40
 4769 05e2 08       		.uleb128 0x8
 4770 05e3 851E0000 		.4byte	.LASF122
 4771 05e7 41       		.byte	0x41
 4772 05e8 08       		.uleb128 0x8
ARM GAS  C:\Users\haske\AppData\Local\Temp\ccl1At1U.s 			page 118


 4773 05e9 9B1E0000 		.4byte	.LASF123
 4774 05ed 42       		.byte	0x42
 4775 05ee 08       		.uleb128 0x8
 4776 05ef 41260000 		.4byte	.LASF124
 4777 05f3 43       		.byte	0x43
 4778 05f4 08       		.uleb128 0x8
 4779 05f5 36070000 		.4byte	.LASF125
 4780 05f9 44       		.byte	0x44
 4781 05fa 08       		.uleb128 0x8
 4782 05fb CD040000 		.4byte	.LASF126
 4783 05ff 45       		.byte	0x45
 4784 0600 08       		.uleb128 0x8
 4785 0601 61110000 		.4byte	.LASF127
 4786 0605 46       		.byte	0x46
 4787 0606 08       		.uleb128 0x8
 4788 0607 66090000 		.4byte	.LASF128
 4789 060b 47       		.byte	0x47
 4790 060c 08       		.uleb128 0x8
 4791 060d B90C0000 		.4byte	.LASF129
 4792 0611 48       		.byte	0x48
 4793 0612 08       		.uleb128 0x8
 4794 0613 C1220000 		.4byte	.LASF130
 4795 0617 49       		.byte	0x49
 4796 0618 08       		.uleb128 0x8
 4797 0619 B50D0000 		.4byte	.LASF131
 4798 061d 4A       		.byte	0x4a
 4799 061e 08       		.uleb128 0x8
 4800 061f D2000000 		.4byte	.LASF132
 4801 0623 4B       		.byte	0x4b
 4802 0624 08       		.uleb128 0x8
 4803 0625 44240000 		.4byte	.LASF133
 4804 0629 4C       		.byte	0x4c
 4805 062a 08       		.uleb128 0x8
 4806 062b 4A130000 		.4byte	.LASF134
 4807 062f 4D       		.byte	0x4d
 4808 0630 08       		.uleb128 0x8
 4809 0631 F6100000 		.4byte	.LASF135
 4810 0635 4E       		.byte	0x4e
 4811 0636 08       		.uleb128 0x8
 4812 0637 84090000 		.4byte	.LASF136
 4813 063b 50       		.byte	0x50
 4814 063c 08       		.uleb128 0x8
 4815 063d 0F170000 		.4byte	.LASF137
 4816 0641 51       		.byte	0x51
 4817 0642 08       		.uleb128 0x8
 4818 0643 E0210000 		.4byte	.LASF138
 4819 0647 52       		.byte	0x52
 4820 0648 08       		.uleb128 0x8
 4821 0649 1A010000 		.4byte	.LASF139
 4822 064d 53       		.byte	0x53
 4823 064e 08       		.uleb128 0x8
 4824 064f F71E0000 		.4byte	.LASF140
 4825 0653 54       		.byte	0x54
 4826 0654 08       		.uleb128 0x8
 4827 0655 87170000 		.4byte	.LASF141
 4828 0659 55       		.byte	0x55
 4829 065a 08       		.uleb128 0x8
ARM GAS  C:\Users\haske\AppData\Local\Temp\ccl1At1U.s 			page 119


 4830 065b 26120000 		.4byte	.LASF142
 4831 065f 56       		.byte	0x56
 4832 0660 08       		.uleb128 0x8
 4833 0661 561F0000 		.4byte	.LASF143
 4834 0665 57       		.byte	0x57
 4835 0666 08       		.uleb128 0x8
 4836 0667 8C280000 		.4byte	.LASF144
 4837 066b 58       		.byte	0x58
 4838 066c 08       		.uleb128 0x8
 4839 066d 9D0F0000 		.4byte	.LASF145
 4840 0671 59       		.byte	0x59
 4841 0672 08       		.uleb128 0x8
 4842 0673 DF160000 		.4byte	.LASF146
 4843 0677 5A       		.byte	0x5a
 4844 0678 08       		.uleb128 0x8
 4845 0679 EE140000 		.4byte	.LASF147
 4846 067d 5B       		.byte	0x5b
 4847 067e 08       		.uleb128 0x8
 4848 067f 1C000000 		.4byte	.LASF148
 4849 0683 60       		.byte	0x60
 4850 0684 08       		.uleb128 0x8
 4851 0685 86160000 		.4byte	.LASF149
 4852 0689 61       		.byte	0x61
 4853 068a 08       		.uleb128 0x8
 4854 068b DB1A0000 		.4byte	.LASF150
 4855 068f 62       		.byte	0x62
 4856 0690 08       		.uleb128 0x8
 4857 0691 91140000 		.4byte	.LASF151
 4858 0695 63       		.byte	0x63
 4859 0696 08       		.uleb128 0x8
 4860 0697 50100000 		.4byte	.LASF152
 4861 069b 64       		.byte	0x64
 4862 069c 08       		.uleb128 0x8
 4863 069d BD0E0000 		.4byte	.LASF153
 4864 06a1 65       		.byte	0x65
 4865 06a2 08       		.uleb128 0x8
 4866 06a3 67050000 		.4byte	.LASF154
 4867 06a7 66       		.byte	0x66
 4868 06a8 08       		.uleb128 0x8
 4869 06a9 F80C0000 		.4byte	.LASF155
 4870 06ad 67       		.byte	0x67
 4871 06ae 08       		.uleb128 0x8
 4872 06af E60D0000 		.4byte	.LASF156
 4873 06b3 68       		.byte	0x68
 4874 06b4 08       		.uleb128 0x8
 4875 06b5 FA040000 		.4byte	.LASF157
 4876 06b9 69       		.byte	0x69
 4877 06ba 08       		.uleb128 0x8
 4878 06bb 130A0000 		.4byte	.LASF158
 4879 06bf 6A       		.byte	0x6a
 4880 06c0 08       		.uleb128 0x8
 4881 06c1 280A0000 		.4byte	.LASF159
 4882 06c5 6B       		.byte	0x6b
 4883 06c6 08       		.uleb128 0x8
 4884 06c7 72110000 		.4byte	.LASF160
 4885 06cb 6C       		.byte	0x6c
 4886 06cc 08       		.uleb128 0x8
ARM GAS  C:\Users\haske\AppData\Local\Temp\ccl1At1U.s 			page 120


 4887 06cd 35160000 		.4byte	.LASF161
 4888 06d1 6D       		.byte	0x6d
 4889 06d2 08       		.uleb128 0x8
 4890 06d3 0D090000 		.4byte	.LASF162
 4891 06d7 6E       		.byte	0x6e
 4892 06d8 08       		.uleb128 0x8
 4893 06d9 28090000 		.4byte	.LASF163
 4894 06dd 6F       		.byte	0x6f
 4895 06de 08       		.uleb128 0x8
 4896 06df E2020000 		.4byte	.LASF164
 4897 06e3 6F       		.byte	0x6f
 4898 06e4 08       		.uleb128 0x8
 4899 06e5 49220000 		.4byte	.LASF165
 4900 06e9 70       		.byte	0x70
 4901 06ea 18       		.uleb128 0x18
 4902 06eb A31F0000 		.4byte	.LASF166
 4903 06ef FFFF     		.2byte	0xffff
 4904 06f1 18       		.uleb128 0x18
 4905 06f2 3A180000 		.4byte	.LASF167
 4906 06f6 FFFF     		.2byte	0xffff
 4907 06f8 00       		.byte	0
 4908 06f9 19       		.uleb128 0x19
 4909 06fa 120E0000 		.4byte	.LASF168
 4910 06fe 0C       		.byte	0xc
 4911 06ff 1C01     		.2byte	0x11c
 4912 0701 D4040000 		.4byte	0x4d4
 4913 0705 1A       		.uleb128 0x1a
 4914 0706 08       		.byte	0x8
 4915 0707 0C       		.byte	0xc
 4916 0708 3601     		.2byte	0x136
 4917 070a 29070000 		.4byte	0x729
 4918 070e 1B       		.uleb128 0x1b
 4919 070f 2C0D0000 		.4byte	.LASF169
 4920 0713 0C       		.byte	0xc
 4921 0714 3701     		.2byte	0x137
 4922 0716 F9060000 		.4byte	0x6f9
 4923 071a 00       		.byte	0
 4924 071b 1B       		.uleb128 0x1b
 4925 071c DF0A0000 		.4byte	.LASF170
 4926 0720 0C       		.byte	0xc
 4927 0721 3801     		.2byte	0x138
 4928 0723 C9040000 		.4byte	0x4c9
 4929 0727 04       		.byte	0x4
 4930 0728 00       		.byte	0
 4931 0729 19       		.uleb128 0x19
 4932 072a C50F0000 		.4byte	.LASF171
 4933 072e 0C       		.byte	0xc
 4934 072f 3901     		.2byte	0x139
 4935 0731 05070000 		.4byte	0x705
 4936 0735 1C       		.uleb128 0x1c
 4937 0736 04       		.byte	0x4
 4938 0737 0C       		.byte	0xc
 4939 0738 4601     		.2byte	0x146
 4940 073a 63070000 		.4byte	0x763
 4941 073e 1D       		.uleb128 0x1d
 4942 073f 0C1F0000 		.4byte	.LASF172
 4943 0743 0C       		.byte	0xc
ARM GAS  C:\Users\haske\AppData\Local\Temp\ccl1At1U.s 			page 121


 4944 0744 4701     		.2byte	0x147
 4945 0746 C9040000 		.4byte	0x4c9
 4946 074a 1D       		.uleb128 0x1d
 4947 074b 570E0000 		.4byte	.LASF173
 4948 074f 0C       		.byte	0xc
 4949 0750 4801     		.2byte	0x148
 4950 0752 63070000 		.4byte	0x763
 4951 0756 1D       		.uleb128 0x1d
 4952 0757 310D0000 		.4byte	.LASF174
 4953 075b 0C       		.byte	0xc
 4954 075c 4901     		.2byte	0x149
 4955 075e 69070000 		.4byte	0x769
 4956 0762 00       		.byte	0
 4957 0763 0D       		.uleb128 0xd
 4958 0764 04       		.byte	0x4
 4959 0765 B8000000 		.4byte	0xb8
 4960 0769 0D       		.uleb128 0xd
 4961 076a 04       		.byte	0x4
 4962 076b 6F070000 		.4byte	0x76f
 4963 076f 0E       		.uleb128 0xe
 4964 0770 29070000 		.4byte	0x729
 4965 0774 1A       		.uleb128 0x1a
 4966 0775 08       		.byte	0x8
 4967 0776 0C       		.byte	0xc
 4968 0777 3E01     		.2byte	0x13e
 4969 0779 B2070000 		.4byte	0x7b2
 4970 077d 1E       		.uleb128 0x1e
 4971 077e 765F7000 		.ascii	"v_p\000"
 4972 0782 0C       		.byte	0xc
 4973 0783 4A01     		.2byte	0x14a
 4974 0785 35070000 		.4byte	0x735
 4975 0789 00       		.byte	0
 4976 078a 1B       		.uleb128 0x1b
 4977 078b 2F230000 		.4byte	.LASF175
 4978 078f 0C       		.byte	0xc
 4979 0790 4C01     		.2byte	0x14c
 4980 0792 CE000000 		.4byte	0xce
 4981 0796 04       		.byte	0x4
 4982 0797 1B       		.uleb128 0x1b
 4983 0798 6A010000 		.4byte	.LASF176
 4984 079c 0C       		.byte	0xc
 4985 079d 4D01     		.2byte	0x14d
 4986 079f B8000000 		.4byte	0xb8
 4987 07a3 06       		.byte	0x6
 4988 07a4 1B       		.uleb128 0x1b
 4989 07a5 00000000 		.4byte	.LASF177
 4990 07a9 0C       		.byte	0xc
 4991 07aa 4E01     		.2byte	0x14e
 4992 07ac B8000000 		.4byte	0xb8
 4993 07b0 07       		.byte	0x7
 4994 07b1 00       		.byte	0
 4995 07b2 19       		.uleb128 0x19
 4996 07b3 08110000 		.4byte	.LASF178
 4997 07b7 0C       		.byte	0xc
 4998 07b8 4F01     		.2byte	0x14f
 4999 07ba 74070000 		.4byte	0x774
 5000 07be 02       		.uleb128 0x2
ARM GAS  C:\Users\haske\AppData\Local\Temp\ccl1At1U.s 			page 122


 5001 07bf FE110000 		.4byte	.LASF179
 5002 07c3 0D       		.byte	0xd
 5003 07c4 69       		.byte	0x69
 5004 07c5 B8000000 		.4byte	0xb8
 5005 07c9 0D       		.uleb128 0xd
 5006 07ca 04       		.byte	0x4
 5007 07cb CF070000 		.4byte	0x7cf
 5008 07cf 0C       		.uleb128 0xc
 5009 07d0 5F200000 		.4byte	.LASF181
 5010 07d4 24       		.byte	0x24
 5011 07d5 0E       		.byte	0xe
 5012 07d6 AE       		.byte	0xae
 5013 07d7 96080000 		.4byte	0x896
 5014 07db 09       		.uleb128 0x9
 5015 07dc AB170000 		.4byte	.LASF182
 5016 07e0 0E       		.byte	0xe
 5017 07e1 AF       		.byte	0xaf
 5018 07e2 F81F0000 		.4byte	0x1ff8
 5019 07e6 00       		.byte	0
 5020 07e7 09       		.uleb128 0x9
 5021 07e8 FD0F0000 		.4byte	.LASF183
 5022 07ec 0E       		.byte	0xe
 5023 07ed B0       		.byte	0xb0
 5024 07ee C9070000 		.4byte	0x7c9
 5025 07f2 04       		.byte	0x4
 5026 07f3 09       		.uleb128 0x9
 5027 07f4 E7010000 		.4byte	.LASF184
 5028 07f8 0E       		.byte	0xe
 5029 07f9 B1       		.byte	0xb1
 5030 07fa 03200000 		.4byte	0x2003
 5031 07fe 08       		.byte	0x8
 5032 07ff 09       		.uleb128 0x9
 5033 0800 3F110000 		.4byte	.LASF185
 5034 0804 0E       		.byte	0xe
 5035 0805 B2       		.byte	0xb2
 5036 0806 09200000 		.4byte	0x2009
 5037 080a 0C       		.byte	0xc
 5038 080b 09       		.uleb128 0x9
 5039 080c 13260000 		.4byte	.LASF50
 5040 0810 0E       		.byte	0xe
 5041 0811 B4       		.byte	0xb4
 5042 0812 26030000 		.4byte	0x326
 5043 0816 10       		.byte	0x10
 5044 0817 09       		.uleb128 0x9
 5045 0818 23220000 		.4byte	.LASF186
 5046 081c 0E       		.byte	0xe
 5047 081d B6       		.byte	0xb6
 5048 081e 69010000 		.4byte	0x169
 5049 0822 14       		.byte	0x14
 5050 0823 09       		.uleb128 0x9
 5051 0824 E50A0000 		.4byte	.LASF187
 5052 0828 0E       		.byte	0xe
 5053 0829 B7       		.byte	0xb7
 5054 082a 8A1B0000 		.4byte	0x1b8a
 5055 082e 1C       		.byte	0x1c
 5056 082f 09       		.uleb128 0x9
 5057 0830 41020000 		.4byte	.LASF188
ARM GAS  C:\Users\haske\AppData\Local\Temp\ccl1At1U.s 			page 123


 5058 0834 0E       		.byte	0xe
 5059 0835 B8       		.byte	0xb8
 5060 0836 971A0000 		.4byte	0x1a97
 5061 083a 20       		.byte	0x20
 5062 083b 0B       		.uleb128 0xb
 5063 083c 56070000 		.4byte	.LASF189
 5064 0840 0E       		.byte	0xe
 5065 0841 B9       		.byte	0xb9
 5066 0842 CE000000 		.4byte	0xce
 5067 0846 02       		.byte	0x2
 5068 0847 01       		.byte	0x1
 5069 0848 0F       		.byte	0xf
 5070 0849 22       		.byte	0x22
 5071 084a 0B       		.uleb128 0xb
 5072 084b 62040000 		.4byte	.LASF190
 5073 084f 0E       		.byte	0xe
 5074 0850 BA       		.byte	0xba
 5075 0851 CE000000 		.4byte	0xce
 5076 0855 02       		.byte	0x2
 5077 0856 01       		.byte	0x1
 5078 0857 0E       		.byte	0xe
 5079 0858 22       		.byte	0x22
 5080 0859 0B       		.uleb128 0xb
 5081 085a 45170000 		.4byte	.LASF191
 5082 085e 0E       		.byte	0xe
 5083 085f BB       		.byte	0xbb
 5084 0860 CE000000 		.4byte	0xce
 5085 0864 02       		.byte	0x2
 5086 0865 01       		.byte	0x1
 5087 0866 0D       		.byte	0xd
 5088 0867 22       		.byte	0x22
 5089 0868 0B       		.uleb128 0xb
 5090 0869 4C070000 		.4byte	.LASF192
 5091 086d 0E       		.byte	0xe
 5092 086e BC       		.byte	0xbc
 5093 086f CE000000 		.4byte	0xce
 5094 0873 02       		.byte	0x2
 5095 0874 06       		.byte	0x6
 5096 0875 07       		.byte	0x7
 5097 0876 22       		.byte	0x22
 5098 0877 0B       		.uleb128 0xb
 5099 0878 CD090000 		.4byte	.LASF193
 5100 087c 0E       		.byte	0xe
 5101 087d BD       		.byte	0xbd
 5102 087e CE000000 		.4byte	0xce
 5103 0882 02       		.byte	0x2
 5104 0883 01       		.byte	0x1
 5105 0884 06       		.byte	0x6
 5106 0885 22       		.byte	0x22
 5107 0886 0B       		.uleb128 0xb
 5108 0887 36040000 		.4byte	.LASF194
 5109 088b 0E       		.byte	0xe
 5110 088c BE       		.byte	0xbe
 5111 088d CE000000 		.4byte	0xce
 5112 0891 02       		.byte	0x2
 5113 0892 01       		.byte	0x1
 5114 0893 05       		.byte	0x5
ARM GAS  C:\Users\haske\AppData\Local\Temp\ccl1At1U.s 			page 124


 5115 0894 22       		.byte	0x22
 5116 0895 00       		.byte	0
 5117 0896 0D       		.uleb128 0xd
 5118 0897 04       		.byte	0x4
 5119 0898 AB030000 		.4byte	0x3ab
 5120 089c 05       		.uleb128 0x5
 5121 089d 38       		.byte	0x38
 5122 089e 0F       		.byte	0xf
 5123 089f 20       		.byte	0x20
 5124 08a0 E3090000 		.4byte	0x9e3
 5125 08a4 09       		.uleb128 0x9
 5126 08a5 A4010000 		.4byte	.LASF195
 5127 08a9 0F       		.byte	0xf
 5128 08aa 21       		.byte	0x21
 5129 08ab 01010000 		.4byte	0x101
 5130 08af 00       		.byte	0
 5131 08b0 09       		.uleb128 0x9
 5132 08b1 3F040000 		.4byte	.LASF196
 5133 08b5 0F       		.byte	0xf
 5134 08b6 22       		.byte	0x22
 5135 08b7 E2030000 		.4byte	0x3e2
 5136 08bb 02       		.byte	0x2
 5137 08bc 09       		.uleb128 0x9
 5138 08bd D5050000 		.4byte	.LASF197
 5139 08c1 0F       		.byte	0xf
 5140 08c2 25       		.byte	0x25
 5141 08c3 B6030000 		.4byte	0x3b6
 5142 08c7 03       		.byte	0x3
 5143 08c8 09       		.uleb128 0x9
 5144 08c9 AB010000 		.4byte	.LASF198
 5145 08cd 0F       		.byte	0xf
 5146 08ce 26       		.byte	0x26
 5147 08cf AB030000 		.4byte	0x3ab
 5148 08d3 04       		.byte	0x4
 5149 08d4 09       		.uleb128 0x9
 5150 08d5 D0230000 		.4byte	.LASF199
 5151 08d9 0F       		.byte	0xf
 5152 08da 27       		.byte	0x27
 5153 08db 94040000 		.4byte	0x494
 5154 08df 06       		.byte	0x6
 5155 08e0 09       		.uleb128 0x9
 5156 08e1 3A030000 		.4byte	.LASF200
 5157 08e5 0F       		.byte	0xf
 5158 08e6 2A       		.byte	0x2a
 5159 08e7 1F030000 		.4byte	0x31f
 5160 08eb 10       		.byte	0x10
 5161 08ec 09       		.uleb128 0x9
 5162 08ed C4270000 		.4byte	.LASF201
 5163 08f1 0F       		.byte	0xf
 5164 08f2 2B       		.byte	0x2b
 5165 08f3 1F030000 		.4byte	0x31f
 5166 08f7 14       		.byte	0x14
 5167 08f8 09       		.uleb128 0x9
 5168 08f9 23210000 		.4byte	.LASF202
 5169 08fd 0F       		.byte	0xf
 5170 08fe 2C       		.byte	0x2c
 5171 08ff AB030000 		.4byte	0x3ab
ARM GAS  C:\Users\haske\AppData\Local\Temp\ccl1At1U.s 			page 125


 5172 0903 18       		.byte	0x18
 5173 0904 09       		.uleb128 0x9
 5174 0905 4A080000 		.4byte	.LASF203
 5175 0909 0F       		.byte	0xf
 5176 090a 2D       		.byte	0x2d
 5177 090b B6030000 		.4byte	0x3b6
 5178 090f 1A       		.byte	0x1a
 5179 0910 09       		.uleb128 0x9
 5180 0911 A61B0000 		.4byte	.LASF204
 5181 0915 0F       		.byte	0xf
 5182 0916 2E       		.byte	0x2e
 5183 0917 B6030000 		.4byte	0x3b6
 5184 091b 1B       		.byte	0x1b
 5185 091c 09       		.uleb128 0x9
 5186 091d EF070000 		.4byte	.LASF205
 5187 0921 0F       		.byte	0xf
 5188 0922 2F       		.byte	0x2f
 5189 0923 B8000000 		.4byte	0xb8
 5190 0927 1C       		.byte	0x1c
 5191 0928 09       		.uleb128 0x9
 5192 0929 D70C0000 		.4byte	.LASF206
 5193 092d 0F       		.byte	0xf
 5194 092e 32       		.byte	0x32
 5195 092f AB030000 		.4byte	0x3ab
 5196 0933 1E       		.byte	0x1e
 5197 0934 09       		.uleb128 0x9
 5198 0935 2A1E0000 		.4byte	.LASF207
 5199 0939 0F       		.byte	0xf
 5200 093a 33       		.byte	0x33
 5201 093b 01010000 		.4byte	0x101
 5202 093f 20       		.byte	0x20
 5203 0940 09       		.uleb128 0x9
 5204 0941 6A230000 		.4byte	.LASF208
 5205 0945 0F       		.byte	0xf
 5206 0946 34       		.byte	0x34
 5207 0947 B6030000 		.4byte	0x3b6
 5208 094b 22       		.byte	0x22
 5209 094c 0B       		.uleb128 0xb
 5210 094d 8B0D0000 		.4byte	.LASF209
 5211 0951 0F       		.byte	0xf
 5212 0952 35       		.byte	0x35
 5213 0953 B8000000 		.4byte	0xb8
 5214 0957 01       		.byte	0x1
 5215 0958 01       		.byte	0x1
 5216 0959 07       		.byte	0x7
 5217 095a 23       		.byte	0x23
 5218 095b 0B       		.uleb128 0xb
 5219 095c 20040000 		.4byte	.LASF210
 5220 0960 0F       		.byte	0xf
 5221 0961 36       		.byte	0x36
 5222 0962 F8030000 		.4byte	0x3f8
 5223 0966 01       		.byte	0x1
 5224 0967 05       		.byte	0x5
 5225 0968 02       		.byte	0x2
 5226 0969 23       		.byte	0x23
 5227 096a 09       		.uleb128 0x9
 5228 096b 28070000 		.4byte	.LASF211
ARM GAS  C:\Users\haske\AppData\Local\Temp\ccl1At1U.s 			page 126


 5229 096f 0F       		.byte	0xf
 5230 0970 39       		.byte	0x39
 5231 0971 AB030000 		.4byte	0x3ab
 5232 0975 24       		.byte	0x24
 5233 0976 09       		.uleb128 0x9
 5234 0977 A9190000 		.4byte	.LASF212
 5235 097b 0F       		.byte	0xf
 5236 097c 3A       		.byte	0x3a
 5237 097d 01010000 		.4byte	0x101
 5238 0981 26       		.byte	0x26
 5239 0982 09       		.uleb128 0x9
 5240 0983 8D0C0000 		.4byte	.LASF213
 5241 0987 0F       		.byte	0xf
 5242 0988 3B       		.byte	0x3b
 5243 0989 01010000 		.4byte	0x101
 5244 098d 28       		.byte	0x28
 5245 098e 09       		.uleb128 0x9
 5246 098f A5180000 		.4byte	.LASF214
 5247 0993 0F       		.byte	0xf
 5248 0994 3C       		.byte	0x3c
 5249 0995 B6030000 		.4byte	0x3b6
 5250 0999 2A       		.byte	0x2a
 5251 099a 09       		.uleb128 0x9
 5252 099b 8B150000 		.4byte	.LASF215
 5253 099f 0F       		.byte	0xf
 5254 09a0 3F       		.byte	0x3f
 5255 09a1 AB030000 		.4byte	0x3ab
 5256 09a5 2C       		.byte	0x2c
 5257 09a6 09       		.uleb128 0x9
 5258 09a7 36250000 		.4byte	.LASF216
 5259 09ab 0F       		.byte	0xf
 5260 09ac 40       		.byte	0x40
 5261 09ad 01010000 		.4byte	0x101
 5262 09b1 2E       		.byte	0x2e
 5263 09b2 09       		.uleb128 0x9
 5264 09b3 D90D0000 		.4byte	.LASF217
 5265 09b7 0F       		.byte	0xf
 5266 09b8 41       		.byte	0x41
 5267 09b9 01010000 		.4byte	0x101
 5268 09bd 30       		.byte	0x30
 5269 09be 09       		.uleb128 0x9
 5270 09bf D7270000 		.4byte	.LASF218
 5271 09c3 0F       		.byte	0xf
 5272 09c4 42       		.byte	0x42
 5273 09c5 01010000 		.4byte	0x101
 5274 09c9 32       		.byte	0x32
 5275 09ca 09       		.uleb128 0x9
 5276 09cb 42100000 		.4byte	.LASF219
 5277 09cf 0F       		.byte	0xf
 5278 09d0 43       		.byte	0x43
 5279 09d1 01010000 		.4byte	0x101
 5280 09d5 34       		.byte	0x34
 5281 09d6 09       		.uleb128 0x9
 5282 09d7 D5210000 		.4byte	.LASF220
 5283 09db 0F       		.byte	0xf
 5284 09dc 44       		.byte	0x44
 5285 09dd B6030000 		.4byte	0x3b6
ARM GAS  C:\Users\haske\AppData\Local\Temp\ccl1At1U.s 			page 127


 5286 09e1 36       		.byte	0x36
 5287 09e2 00       		.byte	0
 5288 09e3 02       		.uleb128 0x2
 5289 09e4 6B1D0000 		.4byte	.LASF221
 5290 09e8 0F       		.byte	0xf
 5291 09e9 45       		.byte	0x45
 5292 09ea 9C080000 		.4byte	0x89c
 5293 09ee 05       		.uleb128 0x5
 5294 09ef 20       		.byte	0x20
 5295 09f0 10       		.byte	0x10
 5296 09f1 1E       		.byte	0x1e
 5297 09f2 BD0A0000 		.4byte	0xabd
 5298 09f6 09       		.uleb128 0x9
 5299 09f7 69200000 		.4byte	.LASF222
 5300 09fb 10       		.byte	0x10
 5301 09fc 1F       		.byte	0x1f
 5302 09fd BD0A0000 		.4byte	0xabd
 5303 0a01 00       		.byte	0
 5304 0a02 09       		.uleb128 0x9
 5305 0a03 B5240000 		.4byte	.LASF223
 5306 0a07 10       		.byte	0x10
 5307 0a08 20       		.byte	0x20
 5308 0a09 E4000000 		.4byte	0xe4
 5309 0a0d 04       		.byte	0x4
 5310 0a0e 09       		.uleb128 0x9
 5311 0a0f 32180000 		.4byte	.LASF224
 5312 0a13 10       		.byte	0x10
 5313 0a14 21       		.byte	0x21
 5314 0a15 E4000000 		.4byte	0xe4
 5315 0a19 08       		.byte	0x8
 5316 0a1a 09       		.uleb128 0x9
 5317 0a1b CE1F0000 		.4byte	.LASF71
 5318 0a1f 10       		.byte	0x10
 5319 0a20 22       		.byte	0x22
 5320 0a21 AB030000 		.4byte	0x3ab
 5321 0a25 0C       		.byte	0xc
 5322 0a26 09       		.uleb128 0x9
 5323 0a27 8A270000 		.4byte	.LASF225
 5324 0a2b 10       		.byte	0x10
 5325 0a2c 23       		.byte	0x23
 5326 0a2d AB030000 		.4byte	0x3ab
 5327 0a31 0E       		.byte	0xe
 5328 0a32 09       		.uleb128 0x9
 5329 0a33 31060000 		.4byte	.LASF226
 5330 0a37 10       		.byte	0x10
 5331 0a38 24       		.byte	0x24
 5332 0a39 AB030000 		.4byte	0x3ab
 5333 0a3d 10       		.byte	0x10
 5334 0a3e 09       		.uleb128 0x9
 5335 0a3f F61F0000 		.4byte	.LASF227
 5336 0a43 10       		.byte	0x10
 5337 0a44 25       		.byte	0x25
 5338 0a45 01010000 		.4byte	0x101
 5339 0a49 12       		.byte	0x12
 5340 0a4a 09       		.uleb128 0x9
 5341 0a4b 6E200000 		.4byte	.LASF228
 5342 0a4f 10       		.byte	0x10
ARM GAS  C:\Users\haske\AppData\Local\Temp\ccl1At1U.s 			page 128


 5343 0a50 26       		.byte	0x26
 5344 0a51 01010000 		.4byte	0x101
 5345 0a55 14       		.byte	0x14
 5346 0a56 09       		.uleb128 0x9
 5347 0a57 97090000 		.4byte	.LASF39
 5348 0a5b 10       		.byte	0x10
 5349 0a5c 27       		.byte	0x27
 5350 0a5d 01010000 		.4byte	0x101
 5351 0a61 16       		.byte	0x16
 5352 0a62 09       		.uleb128 0x9
 5353 0a63 9D090000 		.4byte	.LASF40
 5354 0a67 10       		.byte	0x10
 5355 0a68 28       		.byte	0x28
 5356 0a69 01010000 		.4byte	0x101
 5357 0a6d 18       		.byte	0x18
 5358 0a6e 06       		.uleb128 0x6
 5359 0a6f 6F706100 		.ascii	"opa\000"
 5360 0a73 10       		.byte	0x10
 5361 0a74 29       		.byte	0x29
 5362 0a75 B6030000 		.4byte	0x3b6
 5363 0a79 1A       		.byte	0x1a
 5364 0a7a 09       		.uleb128 0x9
 5365 0a7b D0010000 		.4byte	.LASF229
 5366 0a7f 10       		.byte	0x10
 5367 0a80 2A       		.byte	0x2a
 5368 0a81 D7030000 		.4byte	0x3d7
 5369 0a85 1B       		.byte	0x1b
 5370 0a86 09       		.uleb128 0x9
 5371 0a87 09170000 		.4byte	.LASF230
 5372 0a8b 10       		.byte	0x10
 5373 0a8c 2B       		.byte	0x2b
 5374 0a8d CC030000 		.4byte	0x3cc
 5375 0a91 1C       		.byte	0x1c
 5376 0a92 09       		.uleb128 0x9
 5377 0a93 59180000 		.4byte	.LASF231
 5378 0a97 10       		.byte	0x10
 5379 0a98 2C       		.byte	0x2c
 5380 0a99 C1030000 		.4byte	0x3c1
 5381 0a9d 1D       		.byte	0x1d
 5382 0a9e 0B       		.uleb128 0xb
 5383 0a9f 391F0000 		.4byte	.LASF232
 5384 0aa3 10       		.byte	0x10
 5385 0aa4 2D       		.byte	0x2d
 5386 0aa5 ED030000 		.4byte	0x3ed
 5387 0aa9 01       		.byte	0x1
 5388 0aaa 03       		.byte	0x3
 5389 0aab 05       		.byte	0x5
 5390 0aac 1E       		.byte	0x1e
 5391 0aad 0B       		.uleb128 0xb
 5392 0aae 3F040000 		.4byte	.LASF196
 5393 0ab2 10       		.byte	0x10
 5394 0ab3 2E       		.byte	0x2e
 5395 0ab4 E2030000 		.4byte	0x3e2
 5396 0ab8 01       		.byte	0x1
 5397 0ab9 03       		.byte	0x3
 5398 0aba 02       		.byte	0x2
 5399 0abb 1E       		.byte	0x1e
ARM GAS  C:\Users\haske\AppData\Local\Temp\ccl1At1U.s 			page 129


 5400 0abc 00       		.byte	0
 5401 0abd 0D       		.uleb128 0xd
 5402 0abe 04       		.byte	0x4
 5403 0abf C30A0000 		.4byte	0xac3
 5404 0ac3 0E       		.uleb128 0xe
 5405 0ac4 28030000 		.4byte	0x328
 5406 0ac8 02       		.uleb128 0x2
 5407 0ac9 FA050000 		.4byte	.LASF233
 5408 0acd 10       		.byte	0x10
 5409 0ace 2F       		.byte	0x2f
 5410 0acf EE090000 		.4byte	0x9ee
 5411 0ad3 05       		.uleb128 0x5
 5412 0ad4 18       		.byte	0x18
 5413 0ad5 11       		.byte	0x11
 5414 0ad6 20       		.byte	0x20
 5415 0ad7 4E0B0000 		.4byte	0xb4e
 5416 0adb 09       		.uleb128 0x9
 5417 0adc CC130000 		.4byte	.LASF234
 5418 0ae0 11       		.byte	0x11
 5419 0ae1 22       		.byte	0x22
 5420 0ae2 C3000000 		.4byte	0xc3
 5421 0ae6 00       		.byte	0
 5422 0ae7 09       		.uleb128 0x9
 5423 0ae8 74020000 		.4byte	.LASF235
 5424 0aec 11       		.byte	0x11
 5425 0aed 23       		.byte	0x23
 5426 0aee CE000000 		.4byte	0xce
 5427 0af2 02       		.byte	0x2
 5428 0af3 09       		.uleb128 0x9
 5429 0af4 F11E0000 		.4byte	.LASF236
 5430 0af8 11       		.byte	0x11
 5431 0af9 24       		.byte	0x24
 5432 0afa 29010000 		.4byte	0x129
 5433 0afe 04       		.byte	0x4
 5434 0aff 09       		.uleb128 0x9
 5435 0b00 A5130000 		.4byte	.LASF237
 5436 0b04 11       		.byte	0x11
 5437 0b05 26       		.byte	0x26
 5438 0b06 AB030000 		.4byte	0x3ab
 5439 0b0a 08       		.byte	0x8
 5440 0b0b 09       		.uleb128 0x9
 5441 0b0c 12190000 		.4byte	.LASF238
 5442 0b10 11       		.byte	0x11
 5443 0b11 27       		.byte	0x27
 5444 0b12 B6030000 		.4byte	0x3b6
 5445 0b16 0A       		.byte	0xa
 5446 0b17 06       		.uleb128 0x6
 5447 0b18 6F706100 		.ascii	"opa\000"
 5448 0b1c 11       		.byte	0x11
 5449 0b1d 29       		.byte	0x29
 5450 0b1e B6030000 		.4byte	0x3b6
 5451 0b22 0B       		.byte	0xb
 5452 0b23 0B       		.uleb128 0xb
 5453 0b24 3F040000 		.4byte	.LASF196
 5454 0b28 11       		.byte	0x11
 5455 0b29 2A       		.byte	0x2a
 5456 0b2a E2030000 		.4byte	0x3e2
ARM GAS  C:\Users\haske\AppData\Local\Temp\ccl1At1U.s 			page 130


 5457 0b2e 01       		.byte	0x1
 5458 0b2f 04       		.byte	0x4
 5459 0b30 04       		.byte	0x4
 5460 0b31 0C       		.byte	0xc
 5461 0b32 09       		.uleb128 0x9
 5462 0b33 09190000 		.4byte	.LASF239
 5463 0b37 11       		.byte	0x11
 5464 0b38 2C       		.byte	0x2c
 5465 0b39 D9000000 		.4byte	0xd9
 5466 0b3d 10       		.byte	0x10
 5467 0b3e 0B       		.uleb128 0xb
 5468 0b3f 281A0000 		.4byte	.LASF240
 5469 0b43 11       		.byte	0x11
 5470 0b44 2D       		.byte	0x2d
 5471 0b45 B8000000 		.4byte	0xb8
 5472 0b49 01       		.byte	0x1
 5473 0b4a 01       		.byte	0x1
 5474 0b4b 07       		.byte	0x7
 5475 0b4c 14       		.byte	0x14
 5476 0b4d 00       		.byte	0
 5477 0b4e 02       		.uleb128 0x2
 5478 0b4f 3B0B0000 		.4byte	.LASF241
 5479 0b53 11       		.byte	0x11
 5480 0b54 2E       		.byte	0x2e
 5481 0b55 D30A0000 		.4byte	0xad3
 5482 0b59 05       		.uleb128 0x5
 5483 0b5a 0A       		.byte	0xa
 5484 0b5b 12       		.byte	0x12
 5485 0b5c 1C       		.byte	0x1c
 5486 0b5d DA0B0000 		.4byte	0xbda
 5487 0b61 09       		.uleb128 0x9
 5488 0b62 CE1F0000 		.4byte	.LASF71
 5489 0b66 12       		.byte	0x12
 5490 0b67 1D       		.byte	0x1d
 5491 0b68 AB030000 		.4byte	0x3ab
 5492 0b6c 00       		.byte	0
 5493 0b6d 09       		.uleb128 0x9
 5494 0b6e C1150000 		.4byte	.LASF242
 5495 0b72 12       		.byte	0x12
 5496 0b73 1E       		.byte	0x1e
 5497 0b74 01010000 		.4byte	0x101
 5498 0b78 02       		.byte	0x2
 5499 0b79 09       		.uleb128 0x9
 5500 0b7a 83120000 		.4byte	.LASF243
 5501 0b7e 12       		.byte	0x12
 5502 0b7f 1F       		.byte	0x1f
 5503 0b80 01010000 		.4byte	0x101
 5504 0b84 04       		.byte	0x4
 5505 0b85 09       		.uleb128 0x9
 5506 0b86 930B0000 		.4byte	.LASF244
 5507 0b8a 12       		.byte	0x12
 5508 0b8b 20       		.byte	0x20
 5509 0b8c 01010000 		.4byte	0x101
 5510 0b90 06       		.byte	0x6
 5511 0b91 06       		.uleb128 0x6
 5512 0b92 6F706100 		.ascii	"opa\000"
 5513 0b96 12       		.byte	0x12
ARM GAS  C:\Users\haske\AppData\Local\Temp\ccl1At1U.s 			page 131


 5514 0b97 21       		.byte	0x21
 5515 0b98 B6030000 		.4byte	0x3b6
 5516 0b9c 08       		.byte	0x8
 5517 0b9d 0B       		.uleb128 0xb
 5518 0b9e 3F040000 		.4byte	.LASF196
 5519 0ba2 12       		.byte	0x12
 5520 0ba3 22       		.byte	0x22
 5521 0ba4 E2030000 		.4byte	0x3e2
 5522 0ba8 01       		.byte	0x1
 5523 0ba9 02       		.byte	0x2
 5524 0baa 06       		.byte	0x6
 5525 0bab 09       		.byte	0x9
 5526 0bac 0B       		.uleb128 0xb
 5527 0bad 3B0E0000 		.4byte	.LASF245
 5528 0bb1 12       		.byte	0x12
 5529 0bb2 23       		.byte	0x23
 5530 0bb3 B8000000 		.4byte	0xb8
 5531 0bb7 01       		.byte	0x1
 5532 0bb8 01       		.byte	0x1
 5533 0bb9 05       		.byte	0x5
 5534 0bba 09       		.byte	0x9
 5535 0bbb 0B       		.uleb128 0xb
 5536 0bbc 11100000 		.4byte	.LASF246
 5537 0bc0 12       		.byte	0x12
 5538 0bc1 24       		.byte	0x24
 5539 0bc2 B8000000 		.4byte	0xb8
 5540 0bc6 01       		.byte	0x1
 5541 0bc7 01       		.byte	0x1
 5542 0bc8 04       		.byte	0x4
 5543 0bc9 09       		.byte	0x9
 5544 0bca 0B       		.uleb128 0xb
 5545 0bcb 2B010000 		.4byte	.LASF247
 5546 0bcf 12       		.byte	0x12
 5547 0bd0 25       		.byte	0x25
 5548 0bd1 B8000000 		.4byte	0xb8
 5549 0bd5 01       		.byte	0x1
 5550 0bd6 01       		.byte	0x1
 5551 0bd7 03       		.byte	0x3
 5552 0bd8 09       		.byte	0x9
 5553 0bd9 00       		.byte	0
 5554 0bda 02       		.uleb128 0x2
 5555 0bdb FA080000 		.4byte	.LASF248
 5556 0bdf 12       		.byte	0x12
 5557 0be0 26       		.byte	0x26
 5558 0be1 590B0000 		.4byte	0xb59
 5559 0be5 05       		.uleb128 0x5
 5560 0be6 10       		.byte	0x10
 5561 0be7 13       		.byte	0x13
 5562 0be8 1C       		.byte	0x1c
 5563 0be9 540C0000 		.4byte	0xc54
 5564 0bed 09       		.uleb128 0x9
 5565 0bee CE1F0000 		.4byte	.LASF71
 5566 0bf2 13       		.byte	0x13
 5567 0bf3 1D       		.byte	0x1d
 5568 0bf4 AB030000 		.4byte	0x3ab
 5569 0bf8 00       		.byte	0
 5570 0bf9 09       		.uleb128 0x9
ARM GAS  C:\Users\haske\AppData\Local\Temp\ccl1At1U.s 			page 132


 5571 0bfa C1150000 		.4byte	.LASF242
 5572 0bfe 13       		.byte	0x13
 5573 0bff 1E       		.byte	0x1e
 5574 0c00 01010000 		.4byte	0x101
 5575 0c04 02       		.byte	0x2
 5576 0c05 09       		.uleb128 0x9
 5577 0c06 38120000 		.4byte	.LASF249
 5578 0c0a 13       		.byte	0x13
 5579 0c0b 1F       		.byte	0x1f
 5580 0c0c CE000000 		.4byte	0xce
 5581 0c10 04       		.byte	0x4
 5582 0c11 09       		.uleb128 0x9
 5583 0c12 22080000 		.4byte	.LASF250
 5584 0c16 13       		.byte	0x13
 5585 0c17 20       		.byte	0x20
 5586 0c18 CE000000 		.4byte	0xce
 5587 0c1c 06       		.byte	0x6
 5588 0c1d 09       		.uleb128 0x9
 5589 0c1e 1B100000 		.4byte	.LASF251
 5590 0c22 13       		.byte	0x13
 5591 0c23 21       		.byte	0x21
 5592 0c24 1F030000 		.4byte	0x31f
 5593 0c28 08       		.byte	0x8
 5594 0c29 06       		.uleb128 0x6
 5595 0c2a 6F706100 		.ascii	"opa\000"
 5596 0c2e 13       		.byte	0x13
 5597 0c2f 22       		.byte	0x22
 5598 0c30 B6030000 		.4byte	0x3b6
 5599 0c34 0C       		.byte	0xc
 5600 0c35 0B       		.uleb128 0xb
 5601 0c36 3F040000 		.4byte	.LASF196
 5602 0c3a 13       		.byte	0x13
 5603 0c3b 23       		.byte	0x23
 5604 0c3c E2030000 		.4byte	0x3e2
 5605 0c40 01       		.byte	0x1
 5606 0c41 02       		.byte	0x2
 5607 0c42 06       		.byte	0x6
 5608 0c43 0D       		.byte	0xd
 5609 0c44 0B       		.uleb128 0xb
 5610 0c45 DA020000 		.4byte	.LASF252
 5611 0c49 13       		.byte	0x13
 5612 0c4a 24       		.byte	0x24
 5613 0c4b B8000000 		.4byte	0xb8
 5614 0c4f 01       		.byte	0x1
 5615 0c50 01       		.byte	0x1
 5616 0c51 05       		.byte	0x5
 5617 0c52 0D       		.byte	0xd
 5618 0c53 00       		.byte	0
 5619 0c54 02       		.uleb128 0x2
 5620 0c55 AF200000 		.4byte	.LASF253
 5621 0c59 13       		.byte	0x13
 5622 0c5a 25       		.byte	0x25
 5623 0c5b E50B0000 		.4byte	0xbe5
 5624 0c5f 0D       		.uleb128 0xd
 5625 0c60 04       		.byte	0x4
 5626 0c61 B6030000 		.4byte	0x3b6
 5627 0c65 0D       		.uleb128 0xd
ARM GAS  C:\Users\haske\AppData\Local\Temp\ccl1At1U.s 			page 133


 5628 0c66 04       		.byte	0x4
 5629 0c67 29010000 		.4byte	0x129
 5630 0c6b 07       		.uleb128 0x7
 5631 0c6c 01       		.byte	0x1
 5632 0c6d 42000000 		.4byte	0x42
 5633 0c71 14       		.byte	0x14
 5634 0c72 1C       		.byte	0x1c
 5635 0c73 8A0C0000 		.4byte	0xc8a
 5636 0c77 08       		.uleb128 0x8
 5637 0c78 6E160000 		.4byte	.LASF254
 5638 0c7c 00       		.byte	0
 5639 0c7d 08       		.uleb128 0x8
 5640 0c7e 0D020000 		.4byte	.LASF255
 5641 0c82 01       		.byte	0x1
 5642 0c83 08       		.uleb128 0x8
 5643 0c84 C41B0000 		.4byte	.LASF256
 5644 0c88 02       		.byte	0x2
 5645 0c89 00       		.byte	0
 5646 0c8a 02       		.uleb128 0x2
 5647 0c8b EB0A0000 		.4byte	.LASF257
 5648 0c8f 14       		.byte	0x14
 5649 0c90 20       		.byte	0x20
 5650 0c91 6B0C0000 		.4byte	0xc6b
 5651 0c95 05       		.uleb128 0x5
 5652 0c96 10       		.byte	0x10
 5653 0c97 15       		.byte	0x15
 5654 0c98 33       		.byte	0x33
 5655 0c99 CE0C0000 		.4byte	0xcce
 5656 0c9d 09       		.uleb128 0x9
 5657 0c9e F1170000 		.4byte	.LASF258
 5658 0ca2 15       		.byte	0x15
 5659 0ca3 34       		.byte	0x34
 5660 0ca4 CE0C0000 		.4byte	0xcce
 5661 0ca8 00       		.byte	0
 5662 0ca9 09       		.uleb128 0x9
 5663 0caa 96130000 		.4byte	.LASF259
 5664 0cae 15       		.byte	0x15
 5665 0caf 35       		.byte	0x35
 5666 0cb0 D90C0000 		.4byte	0xcd9
 5667 0cb4 04       		.byte	0x4
 5668 0cb5 06       		.uleb128 0x6
 5669 0cb6 62756600 		.ascii	"buf\000"
 5670 0cba 15       		.byte	0x15
 5671 0cbb 36       		.byte	0x36
 5672 0cbc 26030000 		.4byte	0x326
 5673 0cc0 08       		.byte	0x8
 5674 0cc1 09       		.uleb128 0x9
 5675 0cc2 15220000 		.4byte	.LASF260
 5676 0cc6 15       		.byte	0x15
 5677 0cc7 37       		.byte	0x37
 5678 0cc8 E7020000 		.4byte	0x2e7
 5679 0ccc 0C       		.byte	0xc
 5680 0ccd 00       		.byte	0
 5681 0cce 0D       		.uleb128 0xd
 5682 0ccf 04       		.byte	0x4
 5683 0cd0 D40C0000 		.4byte	0xcd4
 5684 0cd4 0E       		.uleb128 0xe
ARM GAS  C:\Users\haske\AppData\Local\Temp\ccl1At1U.s 			page 134


 5685 0cd5 69010000 		.4byte	0x169
 5686 0cd9 0D       		.uleb128 0xd
 5687 0cda 04       		.byte	0x4
 5688 0cdb 69010000 		.4byte	0x169
 5689 0cdf 0C       		.uleb128 0xc
 5690 0ce0 90180000 		.4byte	.LASF261
 5691 0ce4 28       		.byte	0x28
 5692 0ce5 15       		.byte	0x15
 5693 0ce6 2D       		.byte	0x2d
 5694 0ce7 340D0000 		.4byte	0xd34
 5695 0ceb 09       		.uleb128 0x9
 5696 0cec 4F180000 		.4byte	.LASF262
 5697 0cf0 15       		.byte	0x15
 5698 0cf1 2E       		.byte	0x2e
 5699 0cf2 69010000 		.4byte	0x169
 5700 0cf6 00       		.byte	0
 5701 0cf7 09       		.uleb128 0x9
 5702 0cf8 7B090000 		.4byte	.LASF263
 5703 0cfc 15       		.byte	0x15
 5704 0cfd 2F       		.byte	0x2f
 5705 0cfe 69010000 		.4byte	0x169
 5706 0d02 08       		.byte	0x8
 5707 0d03 09       		.uleb128 0x9
 5708 0d04 C5180000 		.4byte	.LASF264
 5709 0d08 15       		.byte	0x15
 5710 0d09 30       		.byte	0x30
 5711 0d0a 01010000 		.4byte	0x101
 5712 0d0e 10       		.byte	0x10
 5713 0d0f 09       		.uleb128 0x9
 5714 0d10 D51C0000 		.4byte	.LASF265
 5715 0d14 15       		.byte	0x15
 5716 0d15 31       		.byte	0x31
 5717 0d16 01010000 		.4byte	0x101
 5718 0d1a 12       		.byte	0x12
 5719 0d1b 06       		.uleb128 0x6
 5720 0d1c 62756600 		.ascii	"buf\000"
 5721 0d20 15       		.byte	0x15
 5722 0d21 32       		.byte	0x32
 5723 0d22 26030000 		.4byte	0x326
 5724 0d26 14       		.byte	0x14
 5725 0d27 09       		.uleb128 0x9
 5726 0d28 0A0A0000 		.4byte	.LASF266
 5727 0d2c 15       		.byte	0x15
 5728 0d2d 38       		.byte	0x38
 5729 0d2e 950C0000 		.4byte	0xc95
 5730 0d32 18       		.byte	0x18
 5731 0d33 00       		.byte	0
 5732 0d34 02       		.uleb128 0x2
 5733 0d35 BA1F0000 		.4byte	.LASF267
 5734 0d39 15       		.byte	0x15
 5735 0d3a 39       		.byte	0x39
 5736 0d3b DF0C0000 		.4byte	0xcdf
 5737 0d3f 0C       		.uleb128 0xc
 5738 0d40 FF020000 		.4byte	.LASF268
 5739 0d44 54       		.byte	0x54
 5740 0d45 15       		.byte	0x15
 5741 0d46 3B       		.byte	0x3b
ARM GAS  C:\Users\haske\AppData\Local\Temp\ccl1At1U.s 			page 135


 5742 0d47 480E0000 		.4byte	0xe48
 5743 0d4b 06       		.uleb128 0x6
 5744 0d4c 62756600 		.ascii	"buf\000"
 5745 0d50 15       		.byte	0x15
 5746 0d51 3F       		.byte	0x3f
 5747 0d52 26030000 		.4byte	0x326
 5748 0d56 00       		.byte	0
 5749 0d57 09       		.uleb128 0x9
 5750 0d58 96130000 		.4byte	.LASF259
 5751 0d5c 15       		.byte	0x15
 5752 0d5d 44       		.byte	0x44
 5753 0d5e D90C0000 		.4byte	0xcd9
 5754 0d62 04       		.byte	0x4
 5755 0d63 09       		.uleb128 0x9
 5756 0d64 F1170000 		.4byte	.LASF258
 5757 0d68 15       		.byte	0x15
 5758 0d69 49       		.byte	0x49
 5759 0d6a CE0C0000 		.4byte	0xcce
 5760 0d6e 08       		.byte	0x8
 5761 0d6f 09       		.uleb128 0x9
 5762 0d70 C2020000 		.4byte	.LASF269
 5763 0d74 15       		.byte	0x15
 5764 0d75 4B       		.byte	0x4b
 5765 0d76 590E0000 		.4byte	0xe59
 5766 0d7a 0C       		.byte	0xc
 5767 0d7b 09       		.uleb128 0x9
 5768 0d7c 82020000 		.4byte	.LASF270
 5769 0d80 15       		.byte	0x15
 5770 0d81 4D       		.byte	0x4d
 5771 0d82 7F0E0000 		.4byte	0xe7f
 5772 0d86 10       		.byte	0x10
 5773 0d87 09       		.uleb128 0x9
 5774 0d88 41130000 		.4byte	.LASF271
 5775 0d8c 15       		.byte	0x15
 5776 0d8d 4F       		.byte	0x4f
 5777 0d8e BF0E0000 		.4byte	0xebf
 5778 0d92 14       		.byte	0x14
 5779 0d93 09       		.uleb128 0x9
 5780 0d94 72140000 		.4byte	.LASF272
 5781 0d98 15       		.byte	0x15
 5782 0d99 52       		.byte	0x52
 5783 0d9a EF0E0000 		.4byte	0xeef
 5784 0d9e 18       		.byte	0x18
 5785 0d9f 09       		.uleb128 0x9
 5786 0da0 1D240000 		.4byte	.LASF273
 5787 0da4 15       		.byte	0x15
 5788 0da5 55       		.byte	0x55
 5789 0da6 130F0000 		.4byte	0xf13
 5790 0daa 1C       		.byte	0x1c
 5791 0dab 09       		.uleb128 0x9
 5792 0dac E01D0000 		.4byte	.LASF274
 5793 0db0 15       		.byte	0x15
 5794 0db1 58       		.byte	0x58
 5795 0db2 3E0F0000 		.4byte	0xf3e
 5796 0db6 20       		.byte	0x20
 5797 0db7 09       		.uleb128 0x9
 5798 0db8 94070000 		.4byte	.LASF275
ARM GAS  C:\Users\haske\AppData\Local\Temp\ccl1At1U.s 			page 136


 5799 0dbc 15       		.byte	0x15
 5800 0dbd 5C       		.byte	0x5c
 5801 0dbe 690F0000 		.4byte	0xf69
 5802 0dc2 24       		.byte	0x24
 5803 0dc3 09       		.uleb128 0x9
 5804 0dc4 5A240000 		.4byte	.LASF276
 5805 0dc8 15       		.byte	0x15
 5806 0dc9 60       		.byte	0x60
 5807 0dca 890F0000 		.4byte	0xf89
 5808 0dce 28       		.byte	0x28
 5809 0dcf 09       		.uleb128 0x9
 5810 0dd0 9C0B0000 		.4byte	.LASF277
 5811 0dd4 15       		.byte	0x15
 5812 0dd5 71       		.byte	0x71
 5813 0dd6 C70F0000 		.4byte	0xfc7
 5814 0dda 2C       		.byte	0x2c
 5815 0ddb 09       		.uleb128 0x9
 5816 0ddc 01010000 		.4byte	.LASF278
 5817 0de0 15       		.byte	0x15
 5818 0de1 78       		.byte	0x78
 5819 0de2 7F0E0000 		.4byte	0xe7f
 5820 0de6 30       		.byte	0x30
 5821 0de7 09       		.uleb128 0x9
 5822 0de8 891B0000 		.4byte	.LASF279
 5823 0dec 15       		.byte	0x15
 5824 0ded 7D       		.byte	0x7d
 5825 0dee 590E0000 		.4byte	0xe59
 5826 0df2 34       		.byte	0x34
 5827 0df3 09       		.uleb128 0x9
 5828 0df4 0F070000 		.4byte	.LASF280
 5829 0df8 15       		.byte	0x15
 5830 0df9 8D       		.byte	0x8d
 5831 0dfa F60F0000 		.4byte	0xff6
 5832 0dfe 38       		.byte	0x38
 5833 0dff 09       		.uleb128 0x9
 5834 0e00 DB0E0000 		.4byte	.LASF281
 5835 0e04 15       		.byte	0x15
 5836 0e05 99       		.byte	0x99
 5837 0e06 1B100000 		.4byte	0x101b
 5838 0e0a 3C       		.byte	0x3c
 5839 0e0b 09       		.uleb128 0x9
 5840 0e0c 491F0000 		.4byte	.LASF282
 5841 0e10 15       		.byte	0x15
 5842 0e11 A3       		.byte	0xa3
 5843 0e12 36100000 		.4byte	0x1036
 5844 0e16 40       		.byte	0x40
 5845 0e17 09       		.uleb128 0x9
 5846 0e18 19200000 		.4byte	.LASF283
 5847 0e1c 15       		.byte	0x15
 5848 0e1d AC       		.byte	0xac
 5849 0e1e 51100000 		.4byte	0x1051
 5850 0e22 44       		.byte	0x44
 5851 0e23 09       		.uleb128 0x9
 5852 0e24 64120000 		.4byte	.LASF284
 5853 0e28 15       		.byte	0x15
 5854 0e29 B5       		.byte	0xb5
 5855 0e2a 6D100000 		.4byte	0x106d
ARM GAS  C:\Users\haske\AppData\Local\Temp\ccl1At1U.s 			page 137


 5856 0e2e 48       		.byte	0x48
 5857 0e2f 09       		.uleb128 0x9
 5858 0e30 730B0000 		.4byte	.LASF285
 5859 0e34 15       		.byte	0x15
 5860 0e35 BA       		.byte	0xba
 5861 0e36 EF000000 		.4byte	0xef
 5862 0e3a 4C       		.byte	0x4c
 5863 0e3b 09       		.uleb128 0x9
 5864 0e3c 13260000 		.4byte	.LASF50
 5865 0e40 15       		.byte	0x15
 5866 0e41 BD       		.byte	0xbd
 5867 0e42 26030000 		.4byte	0x326
 5868 0e46 50       		.byte	0x50
 5869 0e47 00       		.byte	0
 5870 0e48 1F       		.uleb128 0x1f
 5871 0e49 530E0000 		.4byte	0xe53
 5872 0e4d 10       		.uleb128 0x10
 5873 0e4e 530E0000 		.4byte	0xe53
 5874 0e52 00       		.byte	0
 5875 0e53 0D       		.uleb128 0xd
 5876 0e54 04       		.byte	0x4
 5877 0e55 3F0D0000 		.4byte	0xd3f
 5878 0e59 0D       		.uleb128 0xd
 5879 0e5a 04       		.byte	0x4
 5880 0e5b 480E0000 		.4byte	0xe48
 5881 0e5f 1F       		.uleb128 0x1f
 5882 0e60 740E0000 		.4byte	0xe74
 5883 0e64 10       		.uleb128 0x10
 5884 0e65 530E0000 		.4byte	0xe53
 5885 0e69 10       		.uleb128 0x10
 5886 0e6a 740E0000 		.4byte	0xe74
 5887 0e6e 10       		.uleb128 0x10
 5888 0e6f CE0C0000 		.4byte	0xcce
 5889 0e73 00       		.byte	0
 5890 0e74 0D       		.uleb128 0xd
 5891 0e75 04       		.byte	0x4
 5892 0e76 7A0E0000 		.4byte	0xe7a
 5893 0e7a 0E       		.uleb128 0xe
 5894 0e7b E3090000 		.4byte	0x9e3
 5895 0e7f 0D       		.uleb128 0xd
 5896 0e80 04       		.byte	0x4
 5897 0e81 5F0E0000 		.4byte	0xe5f
 5898 0e85 1F       		.uleb128 0x1f
 5899 0e86 A90E0000 		.4byte	0xea9
 5900 0e8a 10       		.uleb128 0x10
 5901 0e8b 530E0000 		.4byte	0xe53
 5902 0e8f 10       		.uleb128 0x10
 5903 0e90 A90E0000 		.4byte	0xea9
 5904 0e94 10       		.uleb128 0x10
 5905 0e95 B40E0000 		.4byte	0xeb4
 5906 0e99 10       		.uleb128 0x10
 5907 0e9a CE000000 		.4byte	0xce
 5908 0e9e 10       		.uleb128 0x10
 5909 0e9f CE000000 		.4byte	0xce
 5910 0ea3 10       		.uleb128 0x10
 5911 0ea4 CE000000 		.4byte	0xce
 5912 0ea8 00       		.byte	0
ARM GAS  C:\Users\haske\AppData\Local\Temp\ccl1At1U.s 			page 138


 5913 0ea9 0D       		.uleb128 0xd
 5914 0eaa 04       		.byte	0x4
 5915 0eab AF0E0000 		.4byte	0xeaf
 5916 0eaf 0E       		.uleb128 0xe
 5917 0eb0 540C0000 		.4byte	0xc54
 5918 0eb4 0D       		.uleb128 0xd
 5919 0eb5 04       		.byte	0x4
 5920 0eb6 BA0E0000 		.4byte	0xeba
 5921 0eba 0E       		.uleb128 0xe
 5922 0ebb 29010000 		.4byte	0x129
 5923 0ebf 0D       		.uleb128 0xd
 5924 0ec0 04       		.byte	0x4
 5925 0ec1 850E0000 		.4byte	0xe85
 5926 0ec5 1F       		.uleb128 0x1f
 5927 0ec6 E40E0000 		.4byte	0xee4
 5928 0eca 10       		.uleb128 0x10
 5929 0ecb 530E0000 		.4byte	0xe53
 5930 0ecf 10       		.uleb128 0x10
 5931 0ed0 E40E0000 		.4byte	0xee4
 5932 0ed4 10       		.uleb128 0x10
 5933 0ed5 CE0C0000 		.4byte	0xcce
 5934 0ed9 10       		.uleb128 0x10
 5935 0eda 0E030000 		.4byte	0x30e
 5936 0ede 10       		.uleb128 0x10
 5937 0edf BE070000 		.4byte	0x7be
 5938 0ee3 00       		.byte	0
 5939 0ee4 0D       		.uleb128 0xd
 5940 0ee5 04       		.byte	0x4
 5941 0ee6 EA0E0000 		.4byte	0xeea
 5942 0eea 0E       		.uleb128 0xe
 5943 0eeb 4E0B0000 		.4byte	0xb4e
 5944 0eef 0D       		.uleb128 0xd
 5945 0ef0 04       		.byte	0x4
 5946 0ef1 C50E0000 		.4byte	0xec5
 5947 0ef5 0F       		.uleb128 0xf
 5948 0ef6 33030000 		.4byte	0x333
 5949 0efa 130F0000 		.4byte	0xf13
 5950 0efe 10       		.uleb128 0x10
 5951 0eff 530E0000 		.4byte	0xe53
 5952 0f03 10       		.uleb128 0x10
 5953 0f04 E40E0000 		.4byte	0xee4
 5954 0f08 10       		.uleb128 0x10
 5955 0f09 CE0C0000 		.4byte	0xcce
 5956 0f0d 10       		.uleb128 0x10
 5957 0f0e 1F030000 		.4byte	0x31f
 5958 0f12 00       		.byte	0
 5959 0f13 0D       		.uleb128 0xd
 5960 0f14 04       		.byte	0x4
 5961 0f15 F50E0000 		.4byte	0xef5
 5962 0f19 1F       		.uleb128 0x1f
 5963 0f1a 330F0000 		.4byte	0xf33
 5964 0f1e 10       		.uleb128 0x10
 5965 0f1f 530E0000 		.4byte	0xe53
 5966 0f23 10       		.uleb128 0x10
 5967 0f24 330F0000 		.4byte	0xf33
 5968 0f28 10       		.uleb128 0x10
 5969 0f29 B40E0000 		.4byte	0xeb4
ARM GAS  C:\Users\haske\AppData\Local\Temp\ccl1At1U.s 			page 139


 5970 0f2d 10       		.uleb128 0x10
 5971 0f2e E4000000 		.4byte	0xe4
 5972 0f32 00       		.byte	0
 5973 0f33 0D       		.uleb128 0xd
 5974 0f34 04       		.byte	0x4
 5975 0f35 390F0000 		.4byte	0xf39
 5976 0f39 0E       		.uleb128 0xe
 5977 0f3a C80A0000 		.4byte	0xac8
 5978 0f3e 0D       		.uleb128 0xd
 5979 0f3f 04       		.byte	0x4
 5980 0f40 190F0000 		.4byte	0xf19
 5981 0f44 1F       		.uleb128 0x1f
 5982 0f45 5E0F0000 		.4byte	0xf5e
 5983 0f49 10       		.uleb128 0x10
 5984 0f4a 530E0000 		.4byte	0xe53
 5985 0f4e 10       		.uleb128 0x10
 5986 0f4f 5E0F0000 		.4byte	0xf5e
 5987 0f53 10       		.uleb128 0x10
 5988 0f54 B40E0000 		.4byte	0xeb4
 5989 0f58 10       		.uleb128 0x10
 5990 0f59 B40E0000 		.4byte	0xeb4
 5991 0f5d 00       		.byte	0
 5992 0f5e 0D       		.uleb128 0xd
 5993 0f5f 04       		.byte	0x4
 5994 0f60 640F0000 		.4byte	0xf64
 5995 0f64 0E       		.uleb128 0xe
 5996 0f65 DA0B0000 		.4byte	0xbda
 5997 0f69 0D       		.uleb128 0xd
 5998 0f6a 04       		.byte	0x4
 5999 0f6b 440F0000 		.4byte	0xf44
 6000 0f6f 1F       		.uleb128 0x1f
 6001 0f70 890F0000 		.4byte	0xf89
 6002 0f74 10       		.uleb128 0x10
 6003 0f75 530E0000 		.4byte	0xe53
 6004 0f79 10       		.uleb128 0x10
 6005 0f7a 740E0000 		.4byte	0xe74
 6006 0f7e 10       		.uleb128 0x10
 6007 0f7f B40E0000 		.4byte	0xeb4
 6008 0f83 10       		.uleb128 0x10
 6009 0f84 CE000000 		.4byte	0xce
 6010 0f88 00       		.byte	0
 6011 0f89 0D       		.uleb128 0xd
 6012 0f8a 04       		.byte	0x4
 6013 0f8b 6F0F0000 		.4byte	0xf6f
 6014 0f8f 1F       		.uleb128 0x1f
 6015 0f90 C70F0000 		.4byte	0xfc7
 6016 0f94 10       		.uleb128 0x10
 6017 0f95 530E0000 		.4byte	0xe53
 6018 0f99 10       		.uleb128 0x10
 6019 0f9a CE0C0000 		.4byte	0xcce
 6020 0f9e 10       		.uleb128 0x10
 6021 0f9f 1F030000 		.4byte	0x31f
 6022 0fa3 10       		.uleb128 0x10
 6023 0fa4 01010000 		.4byte	0x101
 6024 0fa8 10       		.uleb128 0x10
 6025 0fa9 01010000 		.4byte	0x101
 6026 0fad 10       		.uleb128 0x10
ARM GAS  C:\Users\haske\AppData\Local\Temp\ccl1At1U.s 			page 140


 6027 0fae 01010000 		.4byte	0x101
 6028 0fb2 10       		.uleb128 0x10
 6029 0fb3 E40E0000 		.4byte	0xee4
 6030 0fb7 10       		.uleb128 0x10
 6031 0fb8 BE070000 		.4byte	0x7be
 6032 0fbc 10       		.uleb128 0x10
 6033 0fbd 96080000 		.4byte	0x896
 6034 0fc1 10       		.uleb128 0x10
 6035 0fc2 5F0C0000 		.4byte	0xc5f
 6036 0fc6 00       		.byte	0
 6037 0fc7 0D       		.uleb128 0xd
 6038 0fc8 04       		.byte	0x4
 6039 0fc9 8F0F0000 		.4byte	0xf8f
 6040 0fcd 1F       		.uleb128 0x1f
 6041 0fce F60F0000 		.4byte	0xff6
 6042 0fd2 10       		.uleb128 0x10
 6043 0fd3 530E0000 		.4byte	0xe53
 6044 0fd7 10       		.uleb128 0x10
 6045 0fd8 26030000 		.4byte	0x326
 6046 0fdc 10       		.uleb128 0x10
 6047 0fdd 01010000 		.4byte	0x101
 6048 0fe1 10       		.uleb128 0x10
 6049 0fe2 CE0C0000 		.4byte	0xcce
 6050 0fe6 10       		.uleb128 0x10
 6051 0fe7 26030000 		.4byte	0x326
 6052 0feb 10       		.uleb128 0x10
 6053 0fec 01010000 		.4byte	0x101
 6054 0ff0 10       		.uleb128 0x10
 6055 0ff1 CE0C0000 		.4byte	0xcce
 6056 0ff5 00       		.byte	0
 6057 0ff6 0D       		.uleb128 0xd
 6058 0ff7 04       		.byte	0x4
 6059 0ff8 CD0F0000 		.4byte	0xfcd
 6060 0ffc 0F       		.uleb128 0xf
 6061 0ffd 15100000 		.4byte	0x1015
 6062 1001 15100000 		.4byte	0x1015
 6063 1005 10       		.uleb128 0x10
 6064 1006 530E0000 		.4byte	0xe53
 6065 100a 10       		.uleb128 0x10
 6066 100b 15100000 		.4byte	0x1015
 6067 100f 10       		.uleb128 0x10
 6068 1010 8A0C0000 		.4byte	0xc8a
 6069 1014 00       		.byte	0
 6070 1015 0D       		.uleb128 0xd
 6071 1016 04       		.byte	0x4
 6072 1017 DF0C0000 		.4byte	0xcdf
 6073 101b 0D       		.uleb128 0xd
 6074 101c 04       		.byte	0x4
 6075 101d FC0F0000 		.4byte	0xffc
 6076 1021 1F       		.uleb128 0x1f
 6077 1022 36100000 		.4byte	0x1036
 6078 1026 10       		.uleb128 0x10
 6079 1027 530E0000 		.4byte	0xe53
 6080 102b 10       		.uleb128 0x10
 6081 102c 15100000 		.4byte	0x1015
 6082 1030 10       		.uleb128 0x10
 6083 1031 8A0C0000 		.4byte	0xc8a
ARM GAS  C:\Users\haske\AppData\Local\Temp\ccl1At1U.s 			page 141


 6084 1035 00       		.byte	0
 6085 1036 0D       		.uleb128 0xd
 6086 1037 04       		.byte	0x4
 6087 1038 21100000 		.4byte	0x1021
 6088 103c 1F       		.uleb128 0x1f
 6089 103d 51100000 		.4byte	0x1051
 6090 1041 10       		.uleb128 0x10
 6091 1042 530E0000 		.4byte	0xe53
 6092 1046 10       		.uleb128 0x10
 6093 1047 15100000 		.4byte	0x1015
 6094 104b 10       		.uleb128 0x10
 6095 104c E40E0000 		.4byte	0xee4
 6096 1050 00       		.byte	0
 6097 1051 0D       		.uleb128 0xd
 6098 1052 04       		.byte	0x4
 6099 1053 3C100000 		.4byte	0x103c
 6100 1057 1F       		.uleb128 0x1f
 6101 1058 67100000 		.4byte	0x1067
 6102 105c 10       		.uleb128 0x10
 6103 105d 530E0000 		.4byte	0xe53
 6104 1061 10       		.uleb128 0x10
 6105 1062 67100000 		.4byte	0x1067
 6106 1066 00       		.byte	0
 6107 1067 0D       		.uleb128 0xd
 6108 1068 04       		.byte	0x4
 6109 1069 340D0000 		.4byte	0xd34
 6110 106d 0D       		.uleb128 0xd
 6111 106e 04       		.byte	0x4
 6112 106f 57100000 		.4byte	0x1057
 6113 1073 02       		.uleb128 0x2
 6114 1074 990C0000 		.4byte	.LASF286
 6115 1078 15       		.byte	0x15
 6116 1079 C0       		.byte	0xc0
 6117 107a 3F0D0000 		.4byte	0xd3f
 6118 107e 02       		.uleb128 0x2
 6119 107f 3A000000 		.4byte	.LASF287
 6120 1083 16       		.byte	0x16
 6121 1084 1D       		.byte	0x1d
 6122 1085 B8000000 		.4byte	0xb8
 6123 1089 05       		.uleb128 0x5
 6124 108a 0C       		.byte	0xc
 6125 108b 16       		.byte	0x16
 6126 108c 20       		.byte	0x20
 6127 108d B6100000 		.4byte	0x10b6
 6128 1091 09       		.uleb128 0x9
 6129 1092 10280000 		.4byte	.LASF288
 6130 1096 16       		.byte	0x16
 6131 1097 21       		.byte	0x21
 6132 1098 E4000000 		.4byte	0xe4
 6133 109c 00       		.byte	0
 6134 109d 09       		.uleb128 0x9
 6135 109e B4060000 		.4byte	.LASF289
 6136 10a2 16       		.byte	0x16
 6137 10a3 22       		.byte	0x22
 6138 10a4 B6100000 		.4byte	0x10b6
 6139 10a8 04       		.byte	0x4
 6140 10a9 09       		.uleb128 0x9
ARM GAS  C:\Users\haske\AppData\Local\Temp\ccl1At1U.s 			page 142


 6141 10aa E9000000 		.4byte	.LASF290
 6142 10ae 16       		.byte	0x16
 6143 10af 23       		.byte	0x23
 6144 10b0 B6100000 		.4byte	0x10b6
 6145 10b4 08       		.byte	0x8
 6146 10b5 00       		.byte	0
 6147 10b6 0D       		.uleb128 0xd
 6148 10b7 04       		.byte	0x4
 6149 10b8 7E100000 		.4byte	0x107e
 6150 10bc 02       		.uleb128 0x2
 6151 10bd 5F210000 		.4byte	.LASF291
 6152 10c1 16       		.byte	0x16
 6153 10c2 24       		.byte	0x24
 6154 10c3 89100000 		.4byte	0x1089
 6155 10c7 02       		.uleb128 0x2
 6156 10c8 83140000 		.4byte	.LASF292
 6157 10cc 17       		.byte	0x17
 6158 10cd 27       		.byte	0x27
 6159 10ce D2100000 		.4byte	0x10d2
 6160 10d2 0D       		.uleb128 0xd
 6161 10d3 04       		.byte	0x4
 6162 10d4 D8100000 		.4byte	0x10d8
 6163 10d8 1F       		.uleb128 0x1f
 6164 10d9 E3100000 		.4byte	0x10e3
 6165 10dd 10       		.uleb128 0x10
 6166 10de E3100000 		.4byte	0x10e3
 6167 10e2 00       		.byte	0
 6168 10e3 0D       		.uleb128 0xd
 6169 10e4 04       		.byte	0x4
 6170 10e5 E9100000 		.4byte	0x10e9
 6171 10e9 0C       		.uleb128 0xc
 6172 10ea A0020000 		.4byte	.LASF293
 6173 10ee 18       		.byte	0x18
 6174 10ef 17       		.byte	0x17
 6175 10f0 2C       		.byte	0x2c
 6176 10f1 41110000 		.4byte	0x1141
 6177 10f5 09       		.uleb128 0x9
 6178 10f6 271F0000 		.4byte	.LASF294
 6179 10fa 17       		.byte	0x17
 6180 10fb 2D       		.byte	0x2d
 6181 10fc E4000000 		.4byte	0xe4
 6182 1100 00       		.byte	0
 6183 1101 09       		.uleb128 0x9
 6184 1102 B91D0000 		.4byte	.LASF295
 6185 1106 17       		.byte	0x17
 6186 1107 2E       		.byte	0x2e
 6187 1108 E4000000 		.4byte	0xe4
 6188 110c 04       		.byte	0x4
 6189 110d 09       		.uleb128 0x9
 6190 110e F11B0000 		.4byte	.LASF296
 6191 1112 17       		.byte	0x17
 6192 1113 2F       		.byte	0x2f
 6193 1114 C7100000 		.4byte	0x10c7
 6194 1118 08       		.byte	0x8
 6195 1119 09       		.uleb128 0x9
 6196 111a 13260000 		.4byte	.LASF50
 6197 111e 17       		.byte	0x17
ARM GAS  C:\Users\haske\AppData\Local\Temp\ccl1At1U.s 			page 143


 6198 111f 30       		.byte	0x30
 6199 1120 26030000 		.4byte	0x326
 6200 1124 0C       		.byte	0xc
 6201 1125 09       		.uleb128 0x9
 6202 1126 67020000 		.4byte	.LASF297
 6203 112a 17       		.byte	0x17
 6204 112b 31       		.byte	0x31
 6205 112c D9000000 		.4byte	0xd9
 6206 1130 10       		.byte	0x10
 6207 1131 0B       		.uleb128 0xb
 6208 1132 EA170000 		.4byte	.LASF298
 6209 1136 17       		.byte	0x17
 6210 1137 32       		.byte	0x32
 6211 1138 E4000000 		.4byte	0xe4
 6212 113c 04       		.byte	0x4
 6213 113d 01       		.byte	0x1
 6214 113e 1F       		.byte	0x1f
 6215 113f 14       		.byte	0x14
 6216 1140 00       		.byte	0
 6217 1141 02       		.uleb128 0x2
 6218 1142 FF0D0000 		.4byte	.LASF299
 6219 1146 17       		.byte	0x17
 6220 1147 33       		.byte	0x33
 6221 1148 E9100000 		.4byte	0x10e9
 6222 114c 0C       		.uleb128 0xc
 6223 114d 82130000 		.4byte	.LASF300
 6224 1151 1C       		.byte	0x1c
 6225 1152 18       		.byte	0x18
 6226 1153 32       		.byte	0x32
 6227 1154 BF110000 		.4byte	0x11bf
 6228 1158 09       		.uleb128 0x9
 6229 1159 1F160000 		.4byte	.LASF301
 6230 115d 18       		.byte	0x18
 6231 115e 33       		.byte	0x33
 6232 115f 26030000 		.4byte	0x326
 6233 1163 00       		.byte	0
 6234 1164 09       		.uleb128 0x9
 6235 1165 24160000 		.4byte	.LASF302
 6236 1169 18       		.byte	0x18
 6237 116a 34       		.byte	0x34
 6238 116b 26030000 		.4byte	0x326
 6239 116f 04       		.byte	0x4
 6240 1170 09       		.uleb128 0x9
 6241 1171 FD1A0000 		.4byte	.LASF303
 6242 1175 18       		.byte	0x18
 6243 1176 37       		.byte	0x37
 6244 1177 26030000 		.4byte	0x326
 6245 117b 08       		.byte	0x8
 6246 117c 09       		.uleb128 0x9
 6247 117d D01C0000 		.4byte	.LASF304
 6248 1181 18       		.byte	0x18
 6249 1182 38       		.byte	0x38
 6250 1183 E4000000 		.4byte	0xe4
 6251 1187 0C       		.byte	0xc
 6252 1188 09       		.uleb128 0x9
 6253 1189 A10D0000 		.4byte	.LASF305
 6254 118d 18       		.byte	0x18
ARM GAS  C:\Users\haske\AppData\Local\Temp\ccl1At1U.s 			page 144


 6255 118e 3A       		.byte	0x3a
 6256 118f BF110000 		.4byte	0x11bf
 6257 1193 10       		.byte	0x10
 6258 1194 09       		.uleb128 0x9
 6259 1195 D6090000 		.4byte	.LASF306
 6260 1199 18       		.byte	0x18
 6261 119a 3C       		.byte	0x3c
 6262 119b BF110000 		.4byte	0x11bf
 6263 119f 14       		.byte	0x14
 6264 11a0 0B       		.uleb128 0xb
 6265 11a1 F9060000 		.4byte	.LASF307
 6266 11a5 18       		.byte	0x18
 6267 11a6 3D       		.byte	0x3d
 6268 11a7 C4110000 		.4byte	0x11c4
 6269 11ab 04       		.byte	0x4
 6270 11ac 01       		.byte	0x1
 6271 11ad 1F       		.byte	0x1f
 6272 11ae 18       		.byte	0x18
 6273 11af 0B       		.uleb128 0xb
 6274 11b0 8E120000 		.4byte	.LASF308
 6275 11b4 18       		.byte	0x18
 6276 11b5 3E       		.byte	0x3e
 6277 11b6 C4110000 		.4byte	0x11c4
 6278 11ba 04       		.byte	0x4
 6279 11bb 01       		.byte	0x1
 6280 11bc 1E       		.byte	0x1e
 6281 11bd 18       		.byte	0x18
 6282 11be 00       		.byte	0
 6283 11bf 20       		.uleb128 0x20
 6284 11c0 9F000000 		.4byte	0x9f
 6285 11c4 20       		.uleb128 0x20
 6286 11c5 E4000000 		.4byte	0xe4
 6287 11c9 02       		.uleb128 0x2
 6288 11ca 47000000 		.4byte	.LASF309
 6289 11ce 18       		.byte	0x18
 6290 11cf 3F       		.byte	0x3f
 6291 11d0 4C110000 		.4byte	0x114c
 6292 11d4 07       		.uleb128 0x7
 6293 11d5 01       		.byte	0x1
 6294 11d6 42000000 		.4byte	0x42
 6295 11da 18       		.byte	0x18
 6296 11db 41       		.byte	0x41
 6297 11dc F9110000 		.4byte	0x11f9
 6298 11e0 08       		.uleb128 0x8
 6299 11e1 B4070000 		.4byte	.LASF310
 6300 11e5 00       		.byte	0
 6301 11e6 08       		.uleb128 0x8
 6302 11e7 EB080000 		.4byte	.LASF311
 6303 11eb 01       		.byte	0x1
 6304 11ec 08       		.uleb128 0x8
 6305 11ed EE110000 		.4byte	.LASF312
 6306 11f1 02       		.byte	0x2
 6307 11f2 08       		.uleb128 0x8
 6308 11f3 80180000 		.4byte	.LASF313
 6309 11f7 03       		.byte	0x3
 6310 11f8 00       		.byte	0
 6311 11f9 0C       		.uleb128 0xc
ARM GAS  C:\Users\haske\AppData\Local\Temp\ccl1At1U.s 			page 145


 6312 11fa EA260000 		.4byte	.LASF314
 6313 11fe 50       		.byte	0x50
 6314 11ff 18       		.byte	0x18
 6315 1200 4D       		.byte	0x4d
 6316 1201 77130000 		.4byte	0x1377
 6317 1205 09       		.uleb128 0x9
 6318 1206 9E070000 		.4byte	.LASF315
 6319 120a 18       		.byte	0x18
 6320 120b 4F       		.byte	0x4f
 6321 120c 01010000 		.4byte	0x101
 6322 1210 00       		.byte	0
 6323 1211 09       		.uleb128 0x9
 6324 1212 5A040000 		.4byte	.LASF316
 6325 1216 18       		.byte	0x18
 6326 1217 50       		.byte	0x50
 6327 1218 01010000 		.4byte	0x101
 6328 121c 02       		.byte	0x2
 6329 121d 09       		.uleb128 0x9
 6330 121e BF1C0000 		.4byte	.LASF317
 6331 1222 18       		.byte	0x18
 6332 1223 53       		.byte	0x53
 6333 1224 01010000 		.4byte	0x101
 6334 1228 04       		.byte	0x4
 6335 1229 09       		.uleb128 0x9
 6336 122a F9090000 		.4byte	.LASF318
 6337 122e 18       		.byte	0x18
 6338 122f 55       		.byte	0x55
 6339 1230 01010000 		.4byte	0x101
 6340 1234 06       		.byte	0x6
 6341 1235 09       		.uleb128 0x9
 6342 1236 BC120000 		.4byte	.LASF319
 6343 123a 18       		.byte	0x18
 6344 123b 57       		.byte	0x57
 6345 123c 01010000 		.4byte	0x101
 6346 1240 08       		.byte	0x8
 6347 1241 09       		.uleb128 0x9
 6348 1242 C5120000 		.4byte	.LASF320
 6349 1246 18       		.byte	0x18
 6350 1247 58       		.byte	0x58
 6351 1248 01010000 		.4byte	0x101
 6352 124c 0A       		.byte	0xa
 6353 124d 09       		.uleb128 0x9
 6354 124e 1E1F0000 		.4byte	.LASF321
 6355 1252 18       		.byte	0x18
 6356 1253 5C       		.byte	0x5c
 6357 1254 77130000 		.4byte	0x1377
 6358 1258 0C       		.byte	0xc
 6359 1259 0B       		.uleb128 0xb
 6360 125a AB0B0000 		.4byte	.LASF322
 6361 125e 18       		.byte	0x18
 6362 125f 5E       		.byte	0x5e
 6363 1260 E4000000 		.4byte	0xe4
 6364 1264 04       		.byte	0x4
 6365 1265 01       		.byte	0x1
 6366 1266 1F       		.byte	0x1f
 6367 1267 10       		.byte	0x10
 6368 1268 0B       		.uleb128 0xb
ARM GAS  C:\Users\haske\AppData\Local\Temp\ccl1At1U.s 			page 146


 6369 1269 04100000 		.4byte	.LASF323
 6370 126d 18       		.byte	0x18
 6371 126e 5F       		.byte	0x5f
 6372 126f E4000000 		.4byte	0xe4
 6373 1273 04       		.byte	0x4
 6374 1274 01       		.byte	0x1
 6375 1275 1E       		.byte	0x1e
 6376 1276 10       		.byte	0x10
 6377 1277 0B       		.uleb128 0xb
 6378 1278 A80E0000 		.4byte	.LASF324
 6379 127c 18       		.byte	0x18
 6380 127d 60       		.byte	0x60
 6381 127e E4000000 		.4byte	0xe4
 6382 1282 04       		.byte	0x4
 6383 1283 01       		.byte	0x1
 6384 1284 1D       		.byte	0x1d
 6385 1285 10       		.byte	0x10
 6386 1286 0B       		.uleb128 0xb
 6387 1287 170C0000 		.4byte	.LASF325
 6388 128b 18       		.byte	0x18
 6389 128c 61       		.byte	0x61
 6390 128d E4000000 		.4byte	0xe4
 6391 1291 04       		.byte	0x4
 6392 1292 01       		.byte	0x1
 6393 1293 1C       		.byte	0x1c
 6394 1294 10       		.byte	0x10
 6395 1295 0B       		.uleb128 0xb
 6396 1296 7B050000 		.4byte	.LASF326
 6397 129a 18       		.byte	0x18
 6398 129b 62       		.byte	0x62
 6399 129c E4000000 		.4byte	0xe4
 6400 12a0 04       		.byte	0x4
 6401 12a1 02       		.byte	0x2
 6402 12a2 1A       		.byte	0x1a
 6403 12a3 10       		.byte	0x10
 6404 12a4 0B       		.uleb128 0xb
 6405 12a5 15220000 		.4byte	.LASF260
 6406 12a9 18       		.byte	0x18
 6407 12aa 63       		.byte	0x63
 6408 12ab E4000000 		.4byte	0xe4
 6409 12af 04       		.byte	0x4
 6410 12b0 01       		.byte	0x1
 6411 12b1 19       		.byte	0x19
 6412 12b2 10       		.byte	0x10
 6413 12b3 0A       		.uleb128 0xa
 6414 12b4 64706900 		.ascii	"dpi\000"
 6415 12b8 18       		.byte	0x18
 6416 12b9 66       		.byte	0x66
 6417 12ba E4000000 		.4byte	0xe4
 6418 12be 04       		.byte	0x4
 6419 12bf 0A       		.byte	0xa
 6420 12c0 0F       		.byte	0xf
 6421 12c1 10       		.byte	0x10
 6422 12c2 09       		.uleb128 0x9
 6423 12c3 F3250000 		.4byte	.LASF327
 6424 12c7 18       		.byte	0x18
 6425 12c8 6A       		.byte	0x6a
ARM GAS  C:\Users\haske\AppData\Local\Temp\ccl1At1U.s 			page 147


 6426 12c9 98130000 		.4byte	0x1398
 6427 12cd 14       		.byte	0x14
 6428 12ce 09       		.uleb128 0x9
 6429 12cf 2E1F0000 		.4byte	.LASF328
 6430 12d3 18       		.byte	0x18
 6431 12d4 6E       		.byte	0x6e
 6432 12d5 AE130000 		.4byte	0x13ae
 6433 12d9 18       		.byte	0x18
 6434 12da 09       		.uleb128 0x9
 6435 12db 35230000 		.4byte	.LASF329
 6436 12df 18       		.byte	0x18
 6437 12e0 73       		.byte	0x73
 6438 12e1 DD130000 		.4byte	0x13dd
 6439 12e5 1C       		.byte	0x1c
 6440 12e6 09       		.uleb128 0x9
 6441 12e7 DD100000 		.4byte	.LASF330
 6442 12eb 18       		.byte	0x18
 6443 12ec 76       		.byte	0x76
 6444 12ed F8130000 		.4byte	0x13f8
 6445 12f1 20       		.byte	0x20
 6446 12f2 09       		.uleb128 0x9
 6447 12f3 3A170000 		.4byte	.LASF331
 6448 12f7 18       		.byte	0x18
 6449 12f8 7B       		.byte	0x7b
 6450 12f9 13140000 		.4byte	0x1413
 6451 12fd 24       		.byte	0x24
 6452 12fe 09       		.uleb128 0x9
 6453 12ff 35150000 		.4byte	.LASF332
 6454 1303 18       		.byte	0x18
 6455 1304 80       		.byte	0x80
 6456 1305 24140000 		.4byte	0x1424
 6457 1309 28       		.byte	0x28
 6458 130a 09       		.uleb128 0x9
 6459 130b 62270000 		.4byte	.LASF333
 6460 130f 18       		.byte	0x18
 6461 1310 83       		.byte	0x83
 6462 1311 24140000 		.4byte	0x1424
 6463 1315 2C       		.byte	0x2c
 6464 1316 09       		.uleb128 0x9
 6465 1317 4E1C0000 		.4byte	.LASF334
 6466 131b 18       		.byte	0x18
 6467 131c 86       		.byte	0x86
 6468 131d 24140000 		.4byte	0x1424
 6469 1321 30       		.byte	0x30
 6470 1322 09       		.uleb128 0x9
 6471 1323 3E1C0000 		.4byte	.LASF335
 6472 1327 18       		.byte	0x18
 6473 1328 89       		.byte	0x89
 6474 1329 24140000 		.4byte	0x1424
 6475 132d 34       		.byte	0x34
 6476 132e 09       		.uleb128 0x9
 6477 132f 29000000 		.4byte	.LASF336
 6478 1333 18       		.byte	0x18
 6479 1334 8D       		.byte	0x8d
 6480 1335 AB030000 		.4byte	0x3ab
 6481 1339 38       		.byte	0x38
 6482 133a 09       		.uleb128 0x9
ARM GAS  C:\Users\haske\AppData\Local\Temp\ccl1At1U.s 			page 148


 6483 133b FD230000 		.4byte	.LASF337
 6484 133f 18       		.byte	0x18
 6485 1340 8F       		.byte	0x8f
 6486 1341 2A140000 		.4byte	0x142a
 6487 1345 3C       		.byte	0x3c
 6488 1346 09       		.uleb128 0x9
 6489 1347 E4130000 		.4byte	.LASF338
 6490 134b 18       		.byte	0x18
 6491 134c 90       		.byte	0x90
 6492 134d 40140000 		.4byte	0x1440
 6493 1351 40       		.byte	0x40
 6494 1352 09       		.uleb128 0x9
 6495 1353 98050000 		.4byte	.LASF339
 6496 1357 18       		.byte	0x18
 6497 1358 91       		.byte	0x91
 6498 1359 40140000 		.4byte	0x1440
 6499 135d 44       		.byte	0x44
 6500 135e 09       		.uleb128 0x9
 6501 135f D9010000 		.4byte	.LASF340
 6502 1363 18       		.byte	0x18
 6503 1364 92       		.byte	0x92
 6504 1365 EF000000 		.4byte	0xef
 6505 1369 48       		.byte	0x48
 6506 136a 09       		.uleb128 0x9
 6507 136b 13260000 		.4byte	.LASF50
 6508 136f 18       		.byte	0x18
 6509 1370 95       		.byte	0x95
 6510 1371 26030000 		.4byte	0x326
 6511 1375 4C       		.byte	0x4c
 6512 1376 00       		.byte	0
 6513 1377 0D       		.uleb128 0xd
 6514 1378 04       		.byte	0x4
 6515 1379 C9110000 		.4byte	0x11c9
 6516 137d 1F       		.uleb128 0x1f
 6517 137e 92130000 		.4byte	0x1392
 6518 1382 10       		.uleb128 0x10
 6519 1383 92130000 		.4byte	0x1392
 6520 1387 10       		.uleb128 0x10
 6521 1388 CE0C0000 		.4byte	0xcce
 6522 138c 10       		.uleb128 0x10
 6523 138d 96080000 		.4byte	0x896
 6524 1391 00       		.byte	0
 6525 1392 0D       		.uleb128 0xd
 6526 1393 04       		.byte	0x4
 6527 1394 F9110000 		.4byte	0x11f9
 6528 1398 0D       		.uleb128 0xd
 6529 1399 04       		.byte	0x4
 6530 139a 7D130000 		.4byte	0x137d
 6531 139e 1F       		.uleb128 0x1f
 6532 139f AE130000 		.4byte	0x13ae
 6533 13a3 10       		.uleb128 0x10
 6534 13a4 92130000 		.4byte	0x1392
 6535 13a8 10       		.uleb128 0x10
 6536 13a9 D90C0000 		.4byte	0xcd9
 6537 13ad 00       		.byte	0
 6538 13ae 0D       		.uleb128 0xd
 6539 13af 04       		.byte	0x4
ARM GAS  C:\Users\haske\AppData\Local\Temp\ccl1At1U.s 			page 149


 6540 13b0 9E130000 		.4byte	0x139e
 6541 13b4 1F       		.uleb128 0x1f
 6542 13b5 DD130000 		.4byte	0x13dd
 6543 13b9 10       		.uleb128 0x10
 6544 13ba 92130000 		.4byte	0x1392
 6545 13be 10       		.uleb128 0x10
 6546 13bf 63070000 		.4byte	0x763
 6547 13c3 10       		.uleb128 0x10
 6548 13c4 01010000 		.4byte	0x101
 6549 13c8 10       		.uleb128 0x10
 6550 13c9 01010000 		.4byte	0x101
 6551 13cd 10       		.uleb128 0x10
 6552 13ce 01010000 		.4byte	0x101
 6553 13d2 10       		.uleb128 0x10
 6554 13d3 AB030000 		.4byte	0x3ab
 6555 13d7 10       		.uleb128 0x10
 6556 13d8 B6030000 		.4byte	0x3b6
 6557 13dc 00       		.byte	0
 6558 13dd 0D       		.uleb128 0xd
 6559 13de 04       		.byte	0x4
 6560 13df B4130000 		.4byte	0x13b4
 6561 13e3 1F       		.uleb128 0x1f
 6562 13e4 F8130000 		.4byte	0x13f8
 6563 13e8 10       		.uleb128 0x10
 6564 13e9 92130000 		.4byte	0x1392
 6565 13ed 10       		.uleb128 0x10
 6566 13ee 63070000 		.4byte	0x763
 6567 13f2 10       		.uleb128 0x10
 6568 13f3 E4000000 		.4byte	0xe4
 6569 13f7 00       		.byte	0
 6570 13f8 0D       		.uleb128 0xd
 6571 13f9 04       		.byte	0x4
 6572 13fa E3130000 		.4byte	0x13e3
 6573 13fe 1F       		.uleb128 0x1f
 6574 13ff 13140000 		.4byte	0x1413
 6575 1403 10       		.uleb128 0x10
 6576 1404 92130000 		.4byte	0x1392
 6577 1408 10       		.uleb128 0x10
 6578 1409 E4000000 		.4byte	0xe4
 6579 140d 10       		.uleb128 0x10
 6580 140e E4000000 		.4byte	0xe4
 6581 1412 00       		.byte	0
 6582 1413 0D       		.uleb128 0xd
 6583 1414 04       		.byte	0x4
 6584 1415 FE130000 		.4byte	0x13fe
 6585 1419 1F       		.uleb128 0x1f
 6586 141a 24140000 		.4byte	0x1424
 6587 141e 10       		.uleb128 0x10
 6588 141f 92130000 		.4byte	0x1392
 6589 1423 00       		.byte	0
 6590 1424 0D       		.uleb128 0xd
 6591 1425 04       		.byte	0x4
 6592 1426 19140000 		.4byte	0x1419
 6593 142a 0D       		.uleb128 0xd
 6594 142b 04       		.byte	0x4
 6595 142c 73100000 		.4byte	0x1073
 6596 1430 1F       		.uleb128 0x1f
ARM GAS  C:\Users\haske\AppData\Local\Temp\ccl1At1U.s 			page 150


 6597 1431 40140000 		.4byte	0x1440
 6598 1435 10       		.uleb128 0x10
 6599 1436 92130000 		.4byte	0x1392
 6600 143a 10       		.uleb128 0x10
 6601 143b 2A140000 		.4byte	0x142a
 6602 143f 00       		.byte	0
 6603 1440 0D       		.uleb128 0xd
 6604 1441 04       		.byte	0x4
 6605 1442 30140000 		.4byte	0x1430
 6606 1446 21       		.uleb128 0x21
 6607 1447 5E180000 		.4byte	.LASF341
 6608 144b 5C01     		.2byte	0x15c
 6609 144d 18       		.byte	0x18
 6610 144e 9E       		.byte	0x9e
 6611 144f 5D150000 		.4byte	0x155d
 6612 1453 09       		.uleb128 0x9
 6613 1454 9C200000 		.4byte	.LASF342
 6614 1458 18       		.byte	0x18
 6615 1459 A0       		.byte	0xa0
 6616 145a 92130000 		.4byte	0x1392
 6617 145e 00       		.byte	0
 6618 145f 09       		.uleb128 0x9
 6619 1460 DC050000 		.4byte	.LASF343
 6620 1464 18       		.byte	0x18
 6621 1465 A3       		.byte	0xa3
 6622 1466 5D150000 		.4byte	0x155d
 6623 146a 04       		.byte	0x4
 6624 146b 09       		.uleb128 0x9
 6625 146c B6120000 		.4byte	.LASF344
 6626 1470 18       		.byte	0x18
 6627 1471 A6       		.byte	0xa6
 6628 1472 E8150000 		.4byte	0x15e8
 6629 1476 08       		.byte	0x8
 6630 1477 09       		.uleb128 0x9
 6631 1478 96040000 		.4byte	.LASF345
 6632 147c 18       		.byte	0x18
 6633 147d A9       		.byte	0xa9
 6634 147e EE150000 		.4byte	0x15ee
 6635 1482 0C       		.byte	0xc
 6636 1483 09       		.uleb128 0x9
 6637 1484 EE000000 		.4byte	.LASF346
 6638 1488 18       		.byte	0x18
 6639 1489 AA       		.byte	0xaa
 6640 148a C9070000 		.4byte	0x7c9
 6641 148e 10       		.byte	0x10
 6642 148f 09       		.uleb128 0x9
 6643 1490 E4200000 		.4byte	.LASF347
 6644 1494 18       		.byte	0x18
 6645 1495 AB       		.byte	0xab
 6646 1496 C9070000 		.4byte	0x7c9
 6647 149a 14       		.byte	0x14
 6648 149b 09       		.uleb128 0x9
 6649 149c A8060000 		.4byte	.LASF348
 6650 14a0 18       		.byte	0x18
 6651 14a1 AC       		.byte	0xac
 6652 14a2 C9070000 		.4byte	0x7c9
 6653 14a6 18       		.byte	0x18
ARM GAS  C:\Users\haske\AppData\Local\Temp\ccl1At1U.s 			page 151


 6654 14a7 09       		.uleb128 0x9
 6655 14a8 B1080000 		.4byte	.LASF349
 6656 14ac 18       		.byte	0x18
 6657 14ad AD       		.byte	0xad
 6658 14ae C9070000 		.4byte	0x7c9
 6659 14b2 1C       		.byte	0x1c
 6660 14b3 09       		.uleb128 0x9
 6661 14b4 121D0000 		.4byte	.LASF350
 6662 14b8 18       		.byte	0x18
 6663 14b9 AE       		.byte	0xae
 6664 14ba C9070000 		.4byte	0x7c9
 6665 14be 20       		.byte	0x20
 6666 14bf 09       		.uleb128 0x9
 6667 14c0 F6000000 		.4byte	.LASF351
 6668 14c4 18       		.byte	0x18
 6669 14c5 AF       		.byte	0xaf
 6670 14c6 E4000000 		.4byte	0xe4
 6671 14ca 24       		.byte	0x24
 6672 14cb 0B       		.uleb128 0xb
 6673 14cc 51120000 		.4byte	.LASF352
 6674 14d0 18       		.byte	0x18
 6675 14d1 B0       		.byte	0xb0
 6676 14d2 B8000000 		.4byte	0xb8
 6677 14d6 01       		.byte	0x1
 6678 14d7 01       		.byte	0x1
 6679 14d8 07       		.byte	0x7
 6680 14d9 28       		.byte	0x28
 6681 14da 0B       		.uleb128 0xb
 6682 14db 8E220000 		.4byte	.LASF353
 6683 14df 18       		.byte	0x18
 6684 14e0 B2       		.byte	0xb2
 6685 14e1 B8000000 		.4byte	0xb8
 6686 14e5 01       		.byte	0x1
 6687 14e6 01       		.byte	0x1
 6688 14e7 06       		.byte	0x6
 6689 14e8 28       		.byte	0x28
 6690 14e9 0B       		.uleb128 0xb
 6691 14ea 1E190000 		.4byte	.LASF354
 6692 14ee 18       		.byte	0x18
 6693 14ef B4       		.byte	0xb4
 6694 14f0 B8000000 		.4byte	0xb8
 6695 14f4 01       		.byte	0x1
 6696 14f5 01       		.byte	0x1
 6697 14f6 05       		.byte	0x5
 6698 14f7 28       		.byte	0x28
 6699 14f8 09       		.uleb128 0x9
 6700 14f9 D5050000 		.4byte	.LASF197
 6701 14fd 18       		.byte	0x18
 6702 14fe B6       		.byte	0xb6
 6703 14ff B6030000 		.4byte	0x3b6
 6704 1503 29       		.byte	0x29
 6705 1504 09       		.uleb128 0x9
 6706 1505 AB010000 		.4byte	.LASF198
 6707 1509 18       		.byte	0x18
 6708 150a B7       		.byte	0xb7
 6709 150b AB030000 		.4byte	0x3ab
 6710 150f 2A       		.byte	0x2a
ARM GAS  C:\Users\haske\AppData\Local\Temp\ccl1At1U.s 			page 152


 6711 1510 09       		.uleb128 0x9
 6712 1511 A6220000 		.4byte	.LASF355
 6713 1515 18       		.byte	0x18
 6714 1516 B8       		.byte	0xb8
 6715 1517 1F030000 		.4byte	0x31f
 6716 151b 2C       		.byte	0x2c
 6717 151c 09       		.uleb128 0x9
 6718 151d BB180000 		.4byte	.LASF356
 6719 1521 18       		.byte	0x18
 6720 1522 BB       		.byte	0xbb
 6721 1523 F4150000 		.4byte	0x15f4
 6722 1527 30       		.byte	0x30
 6723 1528 22       		.uleb128 0x22
 6724 1529 77060000 		.4byte	.LASF357
 6725 152d 18       		.byte	0x18
 6726 152e BC       		.byte	0xbc
 6727 152f 04160000 		.4byte	0x1604
 6728 1533 3001     		.2byte	0x130
 6729 1535 22       		.uleb128 0x22
 6730 1536 59210000 		.4byte	.LASF358
 6731 153a 18       		.byte	0x18
 6732 153b BD       		.byte	0xbd
 6733 153c CE000000 		.4byte	0xce
 6734 1540 5001     		.2byte	0x150
 6735 1542 22       		.uleb128 0x22
 6736 1543 F20F0000 		.4byte	.LASF359
 6737 1547 18       		.byte	0x18
 6738 1548 BE       		.byte	0xbe
 6739 1549 D9000000 		.4byte	0xd9
 6740 154d 5401     		.2byte	0x154
 6741 154f 22       		.uleb128 0x22
 6742 1550 4B050000 		.4byte	.LASF360
 6743 1554 18       		.byte	0x18
 6744 1555 C1       		.byte	0xc1
 6745 1556 E4000000 		.4byte	0xe4
 6746 155a 5801     		.2byte	0x158
 6747 155c 00       		.byte	0
 6748 155d 0D       		.uleb128 0xd
 6749 155e 04       		.byte	0x4
 6750 155f 41110000 		.4byte	0x1141
 6751 1563 0C       		.uleb128 0xc
 6752 1564 A3200000 		.4byte	.LASF361
 6753 1568 24       		.byte	0x24
 6754 1569 19       		.byte	0x19
 6755 156a 1F       		.byte	0x1f
 6756 156b E8150000 		.4byte	0x15e8
 6757 156f 09       		.uleb128 0x9
 6758 1570 F8240000 		.4byte	.LASF362
 6759 1574 19       		.byte	0x19
 6760 1575 20       		.byte	0x20
 6761 1576 1A200000 		.4byte	0x201a
 6762 157a 00       		.byte	0
 6763 157b 09       		.uleb128 0x9
 6764 157c FD0F0000 		.4byte	.LASF183
 6765 1580 19       		.byte	0x19
 6766 1581 21       		.byte	0x21
 6767 1582 E8150000 		.4byte	0x15e8
ARM GAS  C:\Users\haske\AppData\Local\Temp\ccl1At1U.s 			page 153


 6768 1586 04       		.byte	0x4
 6769 1587 09       		.uleb128 0x9
 6770 1588 13260000 		.4byte	.LASF50
 6771 158c 19       		.byte	0x19
 6772 158d 22       		.byte	0x22
 6773 158e 26030000 		.4byte	0x326
 6774 1592 08       		.byte	0x8
 6775 1593 09       		.uleb128 0x9
 6776 1594 E5170000 		.4byte	.LASF363
 6777 1598 19       		.byte	0x19
 6778 1599 23       		.byte	0x23
 6779 159a AA170000 		.4byte	0x17aa
 6780 159e 0C       		.byte	0xc
 6781 159f 09       		.uleb128 0x9
 6782 15a0 8B010000 		.4byte	.LASF364
 6783 15a4 19       		.byte	0x19
 6784 15a5 24       		.byte	0x24
 6785 15a6 AB030000 		.4byte	0x3ab
 6786 15aa 10       		.byte	0x10
 6787 15ab 09       		.uleb128 0x9
 6788 15ac 57020000 		.4byte	.LASF365
 6789 15b0 19       		.byte	0x19
 6790 15b1 25       		.byte	0x25
 6791 15b2 AB030000 		.4byte	0x3ab
 6792 15b6 12       		.byte	0x12
 6793 15b7 09       		.uleb128 0x9
 6794 15b8 FD0E0000 		.4byte	.LASF366
 6795 15bc 19       		.byte	0x19
 6796 15bd 26       		.byte	0x26
 6797 15be BD0A0000 		.4byte	0xabd
 6798 15c2 14       		.byte	0x14
 6799 15c3 09       		.uleb128 0x9
 6800 15c4 58260000 		.4byte	.LASF367
 6801 15c8 19       		.byte	0x19
 6802 15c9 27       		.byte	0x27
 6803 15ca BD0A0000 		.4byte	0xabd
 6804 15ce 18       		.byte	0x18
 6805 15cf 09       		.uleb128 0x9
 6806 15d0 D01A0000 		.4byte	.LASF368
 6807 15d4 19       		.byte	0x19
 6808 15d5 28       		.byte	0x28
 6809 15d6 BD0A0000 		.4byte	0xabd
 6810 15da 1C       		.byte	0x1c
 6811 15db 09       		.uleb128 0x9
 6812 15dc E50A0000 		.4byte	.LASF187
 6813 15e0 19       		.byte	0x19
 6814 15e1 29       		.byte	0x29
 6815 15e2 E4000000 		.4byte	0xe4
 6816 15e6 20       		.byte	0x20
 6817 15e7 00       		.byte	0
 6818 15e8 0D       		.uleb128 0xd
 6819 15e9 04       		.byte	0x4
 6820 15ea 63150000 		.4byte	0x1563
 6821 15ee 0D       		.uleb128 0xd
 6822 15ef 04       		.byte	0x4
 6823 15f0 C9070000 		.4byte	0x7c9
 6824 15f4 16       		.uleb128 0x16
ARM GAS  C:\Users\haske\AppData\Local\Temp\ccl1At1U.s 			page 154


 6825 15f5 69010000 		.4byte	0x169
 6826 15f9 04160000 		.4byte	0x1604
 6827 15fd 17       		.uleb128 0x17
 6828 15fe 3E030000 		.4byte	0x33e
 6829 1602 1F       		.byte	0x1f
 6830 1603 00       		.byte	0
 6831 1604 16       		.uleb128 0x16
 6832 1605 B8000000 		.4byte	0xb8
 6833 1609 14160000 		.4byte	0x1614
 6834 160d 17       		.uleb128 0x17
 6835 160e 3E030000 		.4byte	0x33e
 6836 1612 1F       		.byte	0x1f
 6837 1613 00       		.byte	0
 6838 1614 02       		.uleb128 0x2
 6839 1615 93000000 		.4byte	.LASF369
 6840 1619 18       		.byte	0x18
 6841 161a C2       		.byte	0xc2
 6842 161b 46140000 		.4byte	0x1446
 6843 161f 07       		.uleb128 0x7
 6844 1620 01       		.byte	0x1
 6845 1621 42000000 		.4byte	0x42
 6846 1625 1A       		.byte	0x1a
 6847 1626 3E       		.byte	0x3e
 6848 1627 4A160000 		.4byte	0x164a
 6849 162b 08       		.uleb128 0x8
 6850 162c CE250000 		.4byte	.LASF370
 6851 1630 00       		.byte	0
 6852 1631 08       		.uleb128 0x8
 6853 1632 4B1B0000 		.4byte	.LASF371
 6854 1636 01       		.byte	0x1
 6855 1637 08       		.uleb128 0x8
 6856 1638 B11E0000 		.4byte	.LASF372
 6857 163c 02       		.byte	0x2
 6858 163d 08       		.uleb128 0x8
 6859 163e 02150000 		.4byte	.LASF373
 6860 1642 03       		.byte	0x3
 6861 1643 08       		.uleb128 0x8
 6862 1644 67000000 		.4byte	.LASF374
 6863 1648 04       		.byte	0x4
 6864 1649 00       		.byte	0
 6865 164a 02       		.uleb128 0x2
 6866 164b C9140000 		.4byte	.LASF375
 6867 164f 1A       		.byte	0x1a
 6868 1650 44       		.byte	0x44
 6869 1651 1F160000 		.4byte	0x161f
 6870 1655 07       		.uleb128 0x7
 6871 1656 01       		.byte	0x1
 6872 1657 42000000 		.4byte	0x42
 6873 165b 1A       		.byte	0x1a
 6874 165c 47       		.byte	0x47
 6875 165d 6E160000 		.4byte	0x166e
 6876 1661 08       		.uleb128 0x8
 6877 1662 4E090000 		.4byte	.LASF376
 6878 1666 00       		.byte	0
 6879 1667 08       		.uleb128 0x8
 6880 1668 5B140000 		.4byte	.LASF377
 6881 166c 01       		.byte	0x1
ARM GAS  C:\Users\haske\AppData\Local\Temp\ccl1At1U.s 			page 155


 6882 166d 00       		.byte	0
 6883 166e 02       		.uleb128 0x2
 6884 166f 830E0000 		.4byte	.LASF378
 6885 1673 1A       		.byte	0x1a
 6886 1674 4A       		.byte	0x4a
 6887 1675 55160000 		.4byte	0x1655
 6888 1679 05       		.uleb128 0x5
 6889 167a 10       		.byte	0x10
 6890 167b 1A       		.byte	0x1a
 6891 167c 4D       		.byte	0x4d
 6892 167d CA160000 		.4byte	0x16ca
 6893 1681 09       		.uleb128 0x9
 6894 1682 EB030000 		.4byte	.LASF379
 6895 1686 1A       		.byte	0x1a
 6896 1687 4E       		.byte	0x4e
 6897 1688 29010000 		.4byte	0x129
 6898 168c 00       		.byte	0
 6899 168d 06       		.uleb128 0x6
 6900 168e 6B657900 		.ascii	"key\000"
 6901 1692 1A       		.byte	0x1a
 6902 1693 4F       		.byte	0x4f
 6903 1694 E4000000 		.4byte	0xe4
 6904 1698 04       		.byte	0x4
 6905 1699 09       		.uleb128 0x9
 6906 169a 4D0B0000 		.4byte	.LASF380
 6907 169e 1A       		.byte	0x1a
 6908 169f 50       		.byte	0x50
 6909 16a0 E4000000 		.4byte	0xe4
 6910 16a4 08       		.byte	0x8
 6911 16a5 09       		.uleb128 0x9
 6912 16a6 17180000 		.4byte	.LASF381
 6913 16aa 1A       		.byte	0x1a
 6914 16ab 51       		.byte	0x51
 6915 16ac C3000000 		.4byte	0xc3
 6916 16b0 0C       		.byte	0xc
 6917 16b1 09       		.uleb128 0x9
 6918 16b2 41020000 		.4byte	.LASF188
 6919 16b6 1A       		.byte	0x1a
 6920 16b7 53       		.byte	0x53
 6921 16b8 6E160000 		.4byte	0x166e
 6922 16bc 0E       		.byte	0xe
 6923 16bd 09       		.uleb128 0x9
 6924 16be 46110000 		.4byte	.LASF382
 6925 16c2 1A       		.byte	0x1a
 6926 16c3 54       		.byte	0x54
 6927 16c4 E7020000 		.4byte	0x2e7
 6928 16c8 0F       		.byte	0xf
 6929 16c9 00       		.byte	0
 6930 16ca 02       		.uleb128 0x2
 6931 16cb D8230000 		.4byte	.LASF383
 6932 16cf 1A       		.byte	0x1a
 6933 16d0 55       		.byte	0x55
 6934 16d1 79160000 		.4byte	0x1679
 6935 16d5 0C       		.uleb128 0xc
 6936 16d6 A7030000 		.4byte	.LASF384
 6937 16da 20       		.byte	0x20
 6938 16db 1A       		.byte	0x1a
ARM GAS  C:\Users\haske\AppData\Local\Temp\ccl1At1U.s 			page 156


 6939 16dc 58       		.byte	0x58
 6940 16dd 72170000 		.4byte	0x1772
 6941 16e1 09       		.uleb128 0x9
 6942 16e2 0E030000 		.4byte	.LASF385
 6943 16e6 1A       		.byte	0x1a
 6944 16e7 5B       		.byte	0x5b
 6945 16e8 4A160000 		.4byte	0x164a
 6946 16ec 00       		.byte	0
 6947 16ed 09       		.uleb128 0x9
 6948 16ee DA060000 		.4byte	.LASF386
 6949 16f2 1A       		.byte	0x1a
 6950 16f3 5E       		.byte	0x5e
 6951 16f4 8E170000 		.4byte	0x178e
 6952 16f8 04       		.byte	0x4
 6953 16f9 09       		.uleb128 0x9
 6954 16fa E51B0000 		.4byte	.LASF387
 6955 16fe 1A       		.byte	0x1a
 6956 16ff 62       		.byte	0x62
 6957 1700 A4170000 		.4byte	0x17a4
 6958 1704 08       		.byte	0x8
 6959 1705 09       		.uleb128 0x9
 6960 1706 13260000 		.4byte	.LASF50
 6961 170a 1A       		.byte	0x1a
 6962 170b 65       		.byte	0x65
 6963 170c 26030000 		.4byte	0x326
 6964 1710 0C       		.byte	0xc
 6965 1711 09       		.uleb128 0x9
 6966 1712 E5170000 		.4byte	.LASF363
 6967 1716 1A       		.byte	0x1a
 6968 1717 69       		.byte	0x69
 6969 1718 AA170000 		.4byte	0x17aa
 6970 171c 10       		.byte	0x10
 6971 171d 09       		.uleb128 0x9
 6972 171e AB1A0000 		.4byte	.LASF388
 6973 1722 1A       		.byte	0x1a
 6974 1723 6C       		.byte	0x6c
 6975 1724 5D150000 		.4byte	0x155d
 6976 1728 14       		.byte	0x14
 6977 1729 09       		.uleb128 0x9
 6978 172a 7B200000 		.4byte	.LASF389
 6979 172e 1A       		.byte	0x1a
 6980 172f 6F       		.byte	0x6f
 6981 1730 B8000000 		.4byte	0xb8
 6982 1734 18       		.byte	0x18
 6983 1735 09       		.uleb128 0x9
 6984 1736 FA1B0000 		.4byte	.LASF390
 6985 173a 1A       		.byte	0x1a
 6986 173b 72       		.byte	0x72
 6987 173c B8000000 		.4byte	0xb8
 6988 1740 19       		.byte	0x19
 6989 1741 09       		.uleb128 0x9
 6990 1742 87250000 		.4byte	.LASF391
 6991 1746 1A       		.byte	0x1a
 6992 1747 75       		.byte	0x75
 6993 1748 B8000000 		.4byte	0xb8
 6994 174c 1A       		.byte	0x1a
 6995 174d 09       		.uleb128 0x9
ARM GAS  C:\Users\haske\AppData\Local\Temp\ccl1At1U.s 			page 157


 6996 174e 7C270000 		.4byte	.LASF392
 6997 1752 1A       		.byte	0x1a
 6998 1753 78       		.byte	0x78
 6999 1754 B8000000 		.4byte	0xb8
 7000 1758 1B       		.byte	0x1b
 7001 1759 09       		.uleb128 0x9
 7002 175a EB1C0000 		.4byte	.LASF393
 7003 175e 1A       		.byte	0x1a
 7004 175f 7B       		.byte	0x7b
 7005 1760 CE000000 		.4byte	0xce
 7006 1764 1C       		.byte	0x1c
 7007 1765 09       		.uleb128 0x9
 7008 1766 3F230000 		.4byte	.LASF394
 7009 176a 1A       		.byte	0x1a
 7010 176b 7E       		.byte	0x7e
 7011 176c CE000000 		.4byte	0xce
 7012 1770 1E       		.byte	0x1e
 7013 1771 00       		.byte	0
 7014 1772 1F       		.uleb128 0x1f
 7015 1773 82170000 		.4byte	0x1782
 7016 1777 10       		.uleb128 0x10
 7017 1778 82170000 		.4byte	0x1782
 7018 177c 10       		.uleb128 0x10
 7019 177d 88170000 		.4byte	0x1788
 7020 1781 00       		.byte	0
 7021 1782 0D       		.uleb128 0xd
 7022 1783 04       		.byte	0x4
 7023 1784 D5160000 		.4byte	0x16d5
 7024 1788 0D       		.uleb128 0xd
 7025 1789 04       		.byte	0x4
 7026 178a CA160000 		.4byte	0x16ca
 7027 178e 0D       		.uleb128 0xd
 7028 178f 04       		.byte	0x4
 7029 1790 72170000 		.4byte	0x1772
 7030 1794 1F       		.uleb128 0x1f
 7031 1795 A4170000 		.4byte	0x17a4
 7032 1799 10       		.uleb128 0x10
 7033 179a 82170000 		.4byte	0x1782
 7034 179e 10       		.uleb128 0x10
 7035 179f B8000000 		.4byte	0xb8
 7036 17a3 00       		.byte	0
 7037 17a4 0D       		.uleb128 0xd
 7038 17a5 04       		.byte	0x4
 7039 17a6 94170000 		.4byte	0x1794
 7040 17aa 0D       		.uleb128 0xd
 7041 17ab 04       		.byte	0x4
 7042 17ac 46140000 		.4byte	0x1446
 7043 17b0 05       		.uleb128 0x5
 7044 17b1 40       		.byte	0x40
 7045 17b2 1A       		.byte	0x1a
 7046 17b3 8D       		.byte	0x8d
 7047 17b4 8E180000 		.4byte	0x188e
 7048 17b8 09       		.uleb128 0x9
 7049 17b9 7D210000 		.4byte	.LASF395
 7050 17bd 1A       		.byte	0x1a
 7051 17be 8F       		.byte	0x8f
 7052 17bf 29010000 		.4byte	0x129
ARM GAS  C:\Users\haske\AppData\Local\Temp\ccl1At1U.s 			page 158


 7053 17c3 00       		.byte	0
 7054 17c4 09       		.uleb128 0x9
 7055 17c5 D9170000 		.4byte	.LASF396
 7056 17c9 1A       		.byte	0x1a
 7057 17ca 90       		.byte	0x90
 7058 17cb 29010000 		.4byte	0x129
 7059 17cf 04       		.byte	0x4
 7060 17d0 09       		.uleb128 0x9
 7061 17d1 4E160000 		.4byte	.LASF397
 7062 17d5 1A       		.byte	0x1a
 7063 17d6 91       		.byte	0x91
 7064 17d7 29010000 		.4byte	0x129
 7065 17db 08       		.byte	0x8
 7066 17dc 09       		.uleb128 0x9
 7067 17dd CC260000 		.4byte	.LASF398
 7068 17e1 1A       		.byte	0x1a
 7069 17e2 92       		.byte	0x92
 7070 17e3 29010000 		.4byte	0x129
 7071 17e7 0C       		.byte	0xc
 7072 17e8 09       		.uleb128 0x9
 7073 17e9 7D280000 		.4byte	.LASF399
 7074 17ed 1A       		.byte	0x1a
 7075 17ee 93       		.byte	0x93
 7076 17ef 29010000 		.4byte	0x129
 7077 17f3 10       		.byte	0x10
 7078 17f4 09       		.uleb128 0x9
 7079 17f5 0C180000 		.4byte	.LASF400
 7080 17f9 1A       		.byte	0x1a
 7081 17fa 94       		.byte	0x94
 7082 17fb 29010000 		.4byte	0x129
 7083 17ff 14       		.byte	0x14
 7084 1800 09       		.uleb128 0x9
 7085 1801 821C0000 		.4byte	.LASF401
 7086 1805 1A       		.byte	0x1a
 7087 1806 95       		.byte	0x95
 7088 1807 29010000 		.4byte	0x129
 7089 180b 18       		.byte	0x18
 7090 180c 09       		.uleb128 0x9
 7091 180d 6F1E0000 		.4byte	.LASF402
 7092 1811 1A       		.byte	0x1a
 7093 1812 96       		.byte	0x96
 7094 1813 29010000 		.4byte	0x129
 7095 1817 1C       		.byte	0x1c
 7096 1818 09       		.uleb128 0x9
 7097 1819 66160000 		.4byte	.LASF403
 7098 181d 1A       		.byte	0x1a
 7099 181e 97       		.byte	0x97
 7100 181f C9070000 		.4byte	0x7c9
 7101 1823 20       		.byte	0x20
 7102 1824 09       		.uleb128 0x9
 7103 1825 AA140000 		.4byte	.LASF404
 7104 1829 1A       		.byte	0x1a
 7105 182a 98       		.byte	0x98
 7106 182b C9070000 		.4byte	0x7c9
 7107 182f 24       		.byte	0x24
 7108 1830 09       		.uleb128 0x9
 7109 1831 EF040000 		.4byte	.LASF405
ARM GAS  C:\Users\haske\AppData\Local\Temp\ccl1At1U.s 			page 159


 7110 1835 1A       		.byte	0x1a
 7111 1836 99       		.byte	0x99
 7112 1837 C9070000 		.4byte	0x7c9
 7113 183b 28       		.byte	0x28
 7114 183c 09       		.uleb128 0x9
 7115 183d 1B070000 		.4byte	.LASF406
 7116 1841 1A       		.byte	0x1a
 7117 1842 9A       		.byte	0x9a
 7118 1843 C9070000 		.4byte	0x7c9
 7119 1847 2C       		.byte	0x2c
 7120 1848 09       		.uleb128 0x9
 7121 1849 2F0C0000 		.4byte	.LASF407
 7122 184d 1A       		.byte	0x1a
 7123 184e 9B       		.byte	0x9b
 7124 184f 69010000 		.4byte	0x169
 7125 1853 30       		.byte	0x30
 7126 1854 09       		.uleb128 0x9
 7127 1855 03070000 		.4byte	.LASF408
 7128 1859 1A       		.byte	0x1a
 7129 185a 9D       		.byte	0x9d
 7130 185b 29010000 		.4byte	0x129
 7131 185f 38       		.byte	0x38
 7132 1860 0B       		.uleb128 0xb
 7133 1861 83050000 		.4byte	.LASF409
 7134 1865 1A       		.byte	0x1a
 7135 1866 9F       		.byte	0x9f
 7136 1867 B1010000 		.4byte	0x1b1
 7137 186b 01       		.byte	0x1
 7138 186c 04       		.byte	0x4
 7139 186d 04       		.byte	0x4
 7140 186e 3C       		.byte	0x3c
 7141 186f 0B       		.uleb128 0xb
 7142 1870 0D200000 		.4byte	.LASF410
 7143 1874 1A       		.byte	0x1a
 7144 1875 A0       		.byte	0xa0
 7145 1876 B1010000 		.4byte	0x1b1
 7146 187a 01       		.byte	0x1
 7147 187b 04       		.byte	0x4
 7148 187c 00       		.byte	0
 7149 187d 3C       		.byte	0x3c
 7150 187e 0B       		.uleb128 0xb
 7151 187f 25200000 		.4byte	.LASF411
 7152 1883 1A       		.byte	0x1a
 7153 1884 A1       		.byte	0xa1
 7154 1885 B8000000 		.4byte	0xb8
 7155 1889 01       		.byte	0x1
 7156 188a 01       		.byte	0x1
 7157 188b 07       		.byte	0x7
 7158 188c 3D       		.byte	0x3d
 7159 188d 00       		.byte	0
 7160 188e 05       		.uleb128 0x5
 7161 188f 08       		.byte	0x8
 7162 1890 1A       		.byte	0x1a
 7163 1891 A3       		.byte	0xa3
 7164 1892 AF180000 		.4byte	0x18af
 7165 1896 09       		.uleb128 0x9
 7166 1897 401B0000 		.4byte	.LASF412
ARM GAS  C:\Users\haske\AppData\Local\Temp\ccl1At1U.s 			page 160


 7167 189b 1A       		.byte	0x1a
 7168 189c A5       		.byte	0xa5
 7169 189d 6E160000 		.4byte	0x166e
 7170 18a1 00       		.byte	0
 7171 18a2 09       		.uleb128 0x9
 7172 18a3 ED1F0000 		.4byte	.LASF413
 7173 18a7 1A       		.byte	0x1a
 7174 18a8 A6       		.byte	0xa6
 7175 18a9 E4000000 		.4byte	0xe4
 7176 18ad 04       		.byte	0x4
 7177 18ae 00       		.byte	0
 7178 18af 13       		.uleb128 0x13
 7179 18b0 40       		.byte	0x40
 7180 18b1 1A       		.byte	0x1a
 7181 18b2 8C       		.byte	0x8c
 7182 18b3 CE180000 		.4byte	0x18ce
 7183 18b7 15       		.uleb128 0x15
 7184 18b8 90100000 		.4byte	.LASF414
 7185 18bc 1A       		.byte	0x1a
 7186 18bd A2       		.byte	0xa2
 7187 18be B0170000 		.4byte	0x17b0
 7188 18c2 15       		.uleb128 0x15
 7189 18c3 CE210000 		.4byte	.LASF415
 7190 18c7 1A       		.byte	0x1a
 7191 18c8 A7       		.byte	0xa7
 7192 18c9 8E180000 		.4byte	0x188e
 7193 18cd 00       		.byte	0
 7194 18ce 0C       		.uleb128 0xc
 7195 18cf 9D1C0000 		.4byte	.LASF416
 7196 18d3 4C       		.byte	0x4c
 7197 18d4 1A       		.byte	0x1a
 7198 18d5 84       		.byte	0x84
 7199 18d6 47190000 		.4byte	0x1947
 7200 18da 09       		.uleb128 0x9
 7201 18db 41020000 		.4byte	.LASF188
 7202 18df 1A       		.byte	0x1a
 7203 18e0 85       		.byte	0x85
 7204 18e1 6E160000 		.4byte	0x166e
 7205 18e5 00       		.byte	0
 7206 18e6 0B       		.uleb128 0xb
 7207 18e7 F9260000 		.4byte	.LASF417
 7208 18eb 1A       		.byte	0x1a
 7209 18ec 87       		.byte	0x87
 7210 18ed B8000000 		.4byte	0xb8
 7211 18f1 01       		.byte	0x1
 7212 18f2 01       		.byte	0x1
 7213 18f3 07       		.byte	0x7
 7214 18f4 01       		.byte	0x1
 7215 18f5 0B       		.uleb128 0xb
 7216 18f6 FF1D0000 		.4byte	.LASF418
 7217 18fa 1A       		.byte	0x1a
 7218 18fb 88       		.byte	0x88
 7219 18fc B8000000 		.4byte	0xb8
 7220 1900 01       		.byte	0x1
 7221 1901 01       		.byte	0x1
 7222 1902 06       		.byte	0x6
 7223 1903 01       		.byte	0x1
ARM GAS  C:\Users\haske\AppData\Local\Temp\ccl1At1U.s 			page 161


 7224 1904 0B       		.uleb128 0xb
 7225 1905 43250000 		.4byte	.LASF419
 7226 1909 1A       		.byte	0x1a
 7227 190a 89       		.byte	0x89
 7228 190b B8000000 		.4byte	0xb8
 7229 190f 01       		.byte	0x1
 7230 1910 01       		.byte	0x1
 7231 1911 05       		.byte	0x5
 7232 1912 01       		.byte	0x1
 7233 1913 0B       		.uleb128 0xb
 7234 1914 69100000 		.4byte	.LASF420
 7235 1918 1A       		.byte	0x1a
 7236 1919 8A       		.byte	0x8a
 7237 191a B8000000 		.4byte	0xb8
 7238 191e 01       		.byte	0x1
 7239 191f 01       		.byte	0x1
 7240 1920 04       		.byte	0x4
 7241 1921 01       		.byte	0x1
 7242 1922 09       		.uleb128 0x9
 7243 1923 BB080000 		.4byte	.LASF421
 7244 1927 1A       		.byte	0x1a
 7245 1928 A8       		.byte	0xa8
 7246 1929 AF180000 		.4byte	0x18af
 7247 192d 04       		.byte	0x4
 7248 192e 09       		.uleb128 0x9
 7249 192f 611B0000 		.4byte	.LASF422
 7250 1933 1A       		.byte	0x1a
 7251 1934 AA       		.byte	0xaa
 7252 1935 E4000000 		.4byte	0xe4
 7253 1939 44       		.byte	0x44
 7254 193a 09       		.uleb128 0x9
 7255 193b D8180000 		.4byte	.LASF423
 7256 193f 1A       		.byte	0x1a
 7257 1940 AB       		.byte	0xab
 7258 1941 E4000000 		.4byte	0xe4
 7259 1945 48       		.byte	0x48
 7260 1946 00       		.byte	0
 7261 1947 02       		.uleb128 0x2
 7262 1948 9D1C0000 		.4byte	.LASF416
 7263 194c 1A       		.byte	0x1a
 7264 194d AC       		.byte	0xac
 7265 194e CE180000 		.4byte	0x18ce
 7266 1952 0C       		.uleb128 0xc
 7267 1953 01200000 		.4byte	.LASF424
 7268 1957 5C       		.byte	0x5c
 7269 1958 1A       		.byte	0x1a
 7270 1959 B0       		.byte	0xb0
 7271 195a 9B190000 		.4byte	0x199b
 7272 195e 09       		.uleb128 0x9
 7273 195f 9C200000 		.4byte	.LASF342
 7274 1963 1A       		.byte	0x1a
 7275 1964 B1       		.byte	0xb1
 7276 1965 82170000 		.4byte	0x1782
 7277 1969 00       		.byte	0
 7278 196a 09       		.uleb128 0x9
 7279 196b D20C0000 		.4byte	.LASF425
 7280 196f 1A       		.byte	0x1a
ARM GAS  C:\Users\haske\AppData\Local\Temp\ccl1At1U.s 			page 162


 7281 1970 B2       		.byte	0xb2
 7282 1971 47190000 		.4byte	0x1947
 7283 1975 04       		.byte	0x4
 7284 1976 09       		.uleb128 0x9
 7285 1977 17280000 		.4byte	.LASF426
 7286 197b 1A       		.byte	0x1a
 7287 197c B3       		.byte	0xb3
 7288 197d C9070000 		.4byte	0x7c9
 7289 1981 50       		.byte	0x50
 7290 1982 09       		.uleb128 0x9
 7291 1983 39140000 		.4byte	.LASF427
 7292 1987 1A       		.byte	0x1a
 7293 1988 B4       		.byte	0xb4
 7294 1989 201A0000 		.4byte	0x1a20
 7295 198d 54       		.byte	0x54
 7296 198e 09       		.uleb128 0x9
 7297 198f 37100000 		.4byte	.LASF428
 7298 1993 1A       		.byte	0x1a
 7299 1994 B5       		.byte	0xb5
 7300 1995 B40E0000 		.4byte	0xeb4
 7301 1999 58       		.byte	0x58
 7302 199a 00       		.byte	0
 7303 199b 0C       		.uleb128 0xc
 7304 199c 1E280000 		.4byte	.LASF429
 7305 19a0 20       		.byte	0x20
 7306 19a1 1B       		.byte	0x1b
 7307 19a2 3B       		.byte	0x3b
 7308 19a3 201A0000 		.4byte	0x1a20
 7309 19a7 09       		.uleb128 0x9
 7310 19a8 3A130000 		.4byte	.LASF430
 7311 19ac 1B       		.byte	0x1b
 7312 19ad 3C       		.byte	0x3c
 7313 19ae BC100000 		.4byte	0x10bc
 7314 19b2 00       		.byte	0
 7315 19b3 09       		.uleb128 0x9
 7316 19b4 82280000 		.4byte	.LASF431
 7317 19b8 1B       		.byte	0x1b
 7318 19b9 3D       		.byte	0x3d
 7319 19ba EE150000 		.4byte	0x15ee
 7320 19be 0C       		.byte	0xc
 7321 19bf 09       		.uleb128 0x9
 7322 19c0 A21A0000 		.4byte	.LASF432
 7323 19c4 1B       		.byte	0x1b
 7324 19c5 3F       		.byte	0x3f
 7325 19c6 DD1E0000 		.4byte	0x1edd
 7326 19ca 10       		.byte	0x10
 7327 19cb 09       		.uleb128 0x9
 7328 19cc 6F060000 		.4byte	.LASF433
 7329 19d0 1B       		.byte	0x1b
 7330 19d1 40       		.byte	0x40
 7331 19d2 F91E0000 		.4byte	0x1ef9
 7332 19d6 14       		.byte	0x14
 7333 19d7 09       		.uleb128 0x9
 7334 19d8 13260000 		.4byte	.LASF50
 7335 19dc 1B       		.byte	0x1b
 7336 19dd 45       		.byte	0x45
 7337 19de 26030000 		.4byte	0x326
ARM GAS  C:\Users\haske\AppData\Local\Temp\ccl1At1U.s 			page 163


 7338 19e2 18       		.byte	0x18
 7339 19e3 0B       		.uleb128 0xb
 7340 19e4 84010000 		.4byte	.LASF434
 7341 19e8 1B       		.byte	0x1b
 7342 19e9 48       		.byte	0x48
 7343 19ea B8000000 		.4byte	0xb8
 7344 19ee 01       		.byte	0x1
 7345 19ef 01       		.byte	0x1
 7346 19f0 07       		.byte	0x7
 7347 19f1 1C       		.byte	0x1c
 7348 19f2 0B       		.uleb128 0xb
 7349 19f3 7F170000 		.4byte	.LASF435
 7350 19f7 1B       		.byte	0x1b
 7351 19f8 49       		.byte	0x49
 7352 19f9 B8000000 		.4byte	0xb8
 7353 19fd 01       		.byte	0x1
 7354 19fe 01       		.byte	0x1
 7355 19ff 06       		.byte	0x6
 7356 1a00 1C       		.byte	0x1c
 7357 1a01 0B       		.uleb128 0xb
 7358 1a02 DB260000 		.4byte	.LASF436
 7359 1a06 1B       		.byte	0x1b
 7360 1a07 4A       		.byte	0x4a
 7361 1a08 B8000000 		.4byte	0xb8
 7362 1a0c 01       		.byte	0x1
 7363 1a0d 01       		.byte	0x1
 7364 1a0e 05       		.byte	0x5
 7365 1a0f 1C       		.byte	0x1c
 7366 1a10 0B       		.uleb128 0xb
 7367 1a11 C21D0000 		.4byte	.LASF437
 7368 1a15 1B       		.byte	0x1b
 7369 1a16 4C       		.byte	0x4c
 7370 1a17 B8000000 		.4byte	0xb8
 7371 1a1b 01       		.byte	0x1
 7372 1a1c 01       		.byte	0x1
 7373 1a1d 04       		.byte	0x4
 7374 1a1e 1C       		.byte	0x1c
 7375 1a1f 00       		.byte	0
 7376 1a20 0D       		.uleb128 0xd
 7377 1a21 04       		.byte	0x4
 7378 1a22 9B190000 		.4byte	0x199b
 7379 1a26 02       		.uleb128 0x2
 7380 1a27 2C100000 		.4byte	.LASF438
 7381 1a2b 1A       		.byte	0x1a
 7382 1a2c B7       		.byte	0xb7
 7383 1a2d 52190000 		.4byte	0x1952
 7384 1a31 07       		.uleb128 0x7
 7385 1a32 02       		.byte	0x2
 7386 1a33 66000000 		.4byte	0x66
 7387 1a37 0E       		.byte	0xe
 7388 1a38 29       		.byte	0x29
 7389 1a39 971A0000 		.4byte	0x1a97
 7390 1a3d 08       		.uleb128 0x8
 7391 1a3e F3200000 		.4byte	.LASF439
 7392 1a42 00       		.byte	0
 7393 1a43 08       		.uleb128 0x8
 7394 1a44 38220000 		.4byte	.LASF440
ARM GAS  C:\Users\haske\AppData\Local\Temp\ccl1At1U.s 			page 164


 7395 1a48 01       		.byte	0x1
 7396 1a49 08       		.uleb128 0x8
 7397 1a4a 17270000 		.4byte	.LASF441
 7398 1a4e 02       		.byte	0x2
 7399 1a4f 08       		.uleb128 0x8
 7400 1a50 E7050000 		.4byte	.LASF442
 7401 1a54 04       		.byte	0x4
 7402 1a55 08       		.uleb128 0x8
 7403 1a56 7B0D0000 		.4byte	.LASF443
 7404 1a5a 08       		.byte	0x8
 7405 1a5b 08       		.uleb128 0x8
 7406 1a5c C4050000 		.4byte	.LASF444
 7407 1a60 10       		.byte	0x10
 7408 1a61 08       		.uleb128 0x8
 7409 1a62 B61A0000 		.4byte	.LASF445
 7410 1a66 20       		.byte	0x20
 7411 1a67 08       		.uleb128 0x8
 7412 1a68 3B0C0000 		.4byte	.LASF446
 7413 1a6c 40       		.byte	0x40
 7414 1a6d 08       		.uleb128 0x8
 7415 1a6e 410F0000 		.4byte	.LASF447
 7416 1a72 80       		.byte	0x80
 7417 1a73 18       		.uleb128 0x18
 7418 1a74 90230000 		.4byte	.LASF448
 7419 1a78 0010     		.2byte	0x1000
 7420 1a7a 18       		.uleb128 0x18
 7421 1a7b A0230000 		.4byte	.LASF449
 7422 1a7f 0020     		.2byte	0x2000
 7423 1a81 18       		.uleb128 0x18
 7424 1a82 B0230000 		.4byte	.LASF450
 7425 1a86 0040     		.2byte	0x4000
 7426 1a88 18       		.uleb128 0x18
 7427 1a89 C0230000 		.4byte	.LASF451
 7428 1a8d 0080     		.2byte	0x8000
 7429 1a8f 18       		.uleb128 0x18
 7430 1a90 CD060000 		.4byte	.LASF452
 7431 1a94 FFFF     		.2byte	0xffff
 7432 1a96 00       		.byte	0
 7433 1a97 02       		.uleb128 0x2
 7434 1a98 0E060000 		.4byte	.LASF453
 7435 1a9c 0E       		.byte	0xe
 7436 1a9d 3C       		.byte	0x3c
 7437 1a9e CE000000 		.4byte	0xce
 7438 1aa2 07       		.uleb128 0x7
 7439 1aa3 04       		.byte	0x4
 7440 1aa4 A6000000 		.4byte	0xa6
 7441 1aa8 0E       		.byte	0xe
 7442 1aa9 59       		.byte	0x59
 7443 1aaa 8A1B0000 		.4byte	0x1b8a
 7444 1aae 08       		.uleb128 0x8
 7445 1aaf 5E130000 		.4byte	.LASF454
 7446 1ab3 01       		.byte	0x1
 7447 1ab4 08       		.uleb128 0x8
 7448 1ab5 24170000 		.4byte	.LASF455
 7449 1ab9 02       		.byte	0x2
 7450 1aba 08       		.uleb128 0x8
 7451 1abb 7E1D0000 		.4byte	.LASF456
ARM GAS  C:\Users\haske\AppData\Local\Temp\ccl1At1U.s 			page 165


 7452 1abf 04       		.byte	0x4
 7453 1ac0 08       		.uleb128 0x8
 7454 1ac1 EE120000 		.4byte	.LASF457
 7455 1ac5 08       		.byte	0x8
 7456 1ac6 08       		.uleb128 0x8
 7457 1ac7 14050000 		.4byte	.LASF458
 7458 1acb 10       		.byte	0x10
 7459 1acc 08       		.uleb128 0x8
 7460 1acd B0160000 		.4byte	.LASF459
 7461 1ad1 20       		.byte	0x20
 7462 1ad2 08       		.uleb128 0x8
 7463 1ad3 0A120000 		.4byte	.LASF460
 7464 1ad7 40       		.byte	0x40
 7465 1ad8 08       		.uleb128 0x8
 7466 1ad9 AD270000 		.4byte	.LASF461
 7467 1add 80       		.byte	0x80
 7468 1ade 18       		.uleb128 0x18
 7469 1adf DB240000 		.4byte	.LASF462
 7470 1ae3 0001     		.2byte	0x100
 7471 1ae5 18       		.uleb128 0x18
 7472 1ae6 C0100000 		.4byte	.LASF463
 7473 1aea 0002     		.2byte	0x200
 7474 1aec 18       		.uleb128 0x18
 7475 1aed 31080000 		.4byte	.LASF464
 7476 1af1 0003     		.2byte	0x300
 7477 1af3 18       		.uleb128 0x18
 7478 1af4 ED180000 		.4byte	.LASF465
 7479 1af8 0004     		.2byte	0x400
 7480 1afa 18       		.uleb128 0x18
 7481 1afb 3E060000 		.4byte	.LASF466
 7482 1aff 0008     		.2byte	0x800
 7483 1b01 18       		.uleb128 0x18
 7484 1b02 B3140000 		.4byte	.LASF467
 7485 1b06 0010     		.2byte	0x1000
 7486 1b08 18       		.uleb128 0x18
 7487 1b09 87210000 		.4byte	.LASF468
 7488 1b0d 0020     		.2byte	0x2000
 7489 1b0f 18       		.uleb128 0x18
 7490 1b10 220E0000 		.4byte	.LASF469
 7491 1b14 0040     		.2byte	0x4000
 7492 1b16 18       		.uleb128 0x18
 7493 1b17 F1150000 		.4byte	.LASF470
 7494 1b1b 0080     		.2byte	0x8000
 7495 1b1d 23       		.uleb128 0x23
 7496 1b1e 19060000 		.4byte	.LASF471
 7497 1b22 00000100 		.4byte	0x10000
 7498 1b26 23       		.uleb128 0x23
 7499 1b27 DF190000 		.4byte	.LASF472
 7500 1b2b 00000200 		.4byte	0x20000
 7501 1b2f 23       		.uleb128 0x23
 7502 1b30 98100000 		.4byte	.LASF473
 7503 1b34 00000400 		.4byte	0x40000
 7504 1b38 23       		.uleb128 0x23
 7505 1b39 13110000 		.4byte	.LASF474
 7506 1b3d 00000800 		.4byte	0x80000
 7507 1b41 23       		.uleb128 0x23
 7508 1b42 C5070000 		.4byte	.LASF475
ARM GAS  C:\Users\haske\AppData\Local\Temp\ccl1At1U.s 			page 166


 7509 1b46 00008000 		.4byte	0x800000
 7510 1b4a 23       		.uleb128 0x23
 7511 1b4b DA070000 		.4byte	.LASF476
 7512 1b4f 00000001 		.4byte	0x1000000
 7513 1b53 23       		.uleb128 0x23
 7514 1b54 6A080000 		.4byte	.LASF477
 7515 1b58 00000002 		.4byte	0x2000000
 7516 1b5c 23       		.uleb128 0x23
 7517 1b5d 7F080000 		.4byte	.LASF478
 7518 1b61 00000004 		.4byte	0x4000000
 7519 1b65 23       		.uleb128 0x23
 7520 1b66 1B0F0000 		.4byte	.LASF479
 7521 1b6a 00000008 		.4byte	0x8000000
 7522 1b6e 23       		.uleb128 0x23
 7523 1b6f 2E0F0000 		.4byte	.LASF480
 7524 1b73 00000010 		.4byte	0x10000000
 7525 1b77 23       		.uleb128 0x23
 7526 1b78 74250000 		.4byte	.LASF481
 7527 1b7c 00000020 		.4byte	0x20000000
 7528 1b80 23       		.uleb128 0x23
 7529 1b81 530F0000 		.4byte	.LASF482
 7530 1b85 00000040 		.4byte	0x40000000
 7531 1b89 00       		.byte	0
 7532 1b8a 02       		.uleb128 0x2
 7533 1b8b 12250000 		.4byte	.LASF483
 7534 1b8f 0E       		.byte	0xe
 7535 1b90 7D       		.byte	0x7d
 7536 1b91 E4000000 		.4byte	0xe4
 7537 1b95 02       		.uleb128 0x2
 7538 1b96 3B010000 		.4byte	.LASF484
 7539 1b9a 1C       		.byte	0x1c
 7540 1b9b 26       		.byte	0x26
 7541 1b9c B8000000 		.4byte	0xb8
 7542 1ba0 02       		.uleb128 0x2
 7543 1ba1 2F1B0000 		.4byte	.LASF485
 7544 1ba5 1C       		.byte	0x1c
 7545 1ba6 30       		.byte	0x30
 7546 1ba7 B8000000 		.4byte	0xb8
 7547 1bab 05       		.uleb128 0x5
 7548 1bac 08       		.byte	0x8
 7549 1bad 1D       		.byte	0x1d
 7550 1bae 27       		.byte	0x27
 7551 1baf ED1B0000 		.4byte	0x1bed
 7552 1bb3 09       		.uleb128 0x9
 7553 1bb4 181B0000 		.4byte	.LASF486
 7554 1bb8 1D       		.byte	0x1d
 7555 1bb9 28       		.byte	0x28
 7556 1bba ED1B0000 		.4byte	0x1bed
 7557 1bbe 00       		.byte	0
 7558 1bbf 0B       		.uleb128 0xb
 7559 1bc0 A4260000 		.4byte	.LASF487
 7560 1bc4 1D       		.byte	0x1d
 7561 1bc5 29       		.byte	0x29
 7562 1bc6 E4000000 		.4byte	0xe4
 7563 1bca 04       		.byte	0x4
 7564 1bcb 18       		.byte	0x18
 7565 1bcc 08       		.byte	0x8
ARM GAS  C:\Users\haske\AppData\Local\Temp\ccl1At1U.s 			page 167


 7566 1bcd 04       		.byte	0x4
 7567 1bce 0B       		.uleb128 0xb
 7568 1bcf 79020000 		.4byte	.LASF488
 7569 1bd3 1D       		.byte	0x1d
 7570 1bd4 2A       		.byte	0x2a
 7571 1bd5 E4000000 		.4byte	0xe4
 7572 1bd9 04       		.byte	0x4
 7573 1bda 01       		.byte	0x1
 7574 1bdb 07       		.byte	0x7
 7575 1bdc 04       		.byte	0x4
 7576 1bdd 0B       		.uleb128 0xb
 7577 1bde 23100000 		.4byte	.LASF489
 7578 1be2 1D       		.byte	0x1d
 7579 1be3 2B       		.byte	0x2b
 7580 1be4 E4000000 		.4byte	0xe4
 7581 1be8 04       		.byte	0x4
 7582 1be9 01       		.byte	0x1
 7583 1bea 06       		.byte	0x6
 7584 1beb 04       		.byte	0x4
 7585 1bec 00       		.byte	0
 7586 1bed 0D       		.uleb128 0xd
 7587 1bee 04       		.byte	0x4
 7588 1bef B2070000 		.4byte	0x7b2
 7589 1bf3 02       		.uleb128 0x2
 7590 1bf4 6B0D0000 		.4byte	.LASF490
 7591 1bf8 1D       		.byte	0x1d
 7592 1bf9 2C       		.byte	0x2c
 7593 1bfa AB1B0000 		.4byte	0x1bab
 7594 1bfe 0C       		.uleb128 0xc
 7595 1bff 5B1D0000 		.4byte	.LASF491
 7596 1c03 1C       		.byte	0x1c
 7597 1c04 1E       		.byte	0x1e
 7598 1c05 31       		.byte	0x31
 7599 1c06 8C1C0000 		.4byte	0x1c8c
 7600 1c0a 09       		.uleb128 0x9
 7601 1c0b 321A0000 		.4byte	.LASF492
 7602 1c0f 1E       		.byte	0x1e
 7603 1c10 32       		.byte	0x32
 7604 1c11 8C1C0000 		.4byte	0x1c8c
 7605 1c15 00       		.byte	0
 7606 1c16 09       		.uleb128 0x9
 7607 1c17 CB020000 		.4byte	.LASF493
 7608 1c1b 1E       		.byte	0x1e
 7609 1c1c 33       		.byte	0x33
 7610 1c1d 2F1D0000 		.4byte	0x1d2f
 7611 1c21 04       		.byte	0x4
 7612 1c22 09       		.uleb128 0x9
 7613 1c23 3B200000 		.4byte	.LASF494
 7614 1c27 1E       		.byte	0x1e
 7615 1c28 34       		.byte	0x34
 7616 1c29 2F1D0000 		.4byte	0x1d2f
 7617 1c2d 08       		.byte	0x8
 7618 1c2e 09       		.uleb128 0x9
 7619 1c2f 13260000 		.4byte	.LASF50
 7620 1c33 1E       		.byte	0x1e
 7621 1c34 36       		.byte	0x36
 7622 1c35 26030000 		.4byte	0x326
ARM GAS  C:\Users\haske\AppData\Local\Temp\ccl1At1U.s 			page 168


 7623 1c39 0C       		.byte	0xc
 7624 1c3a 09       		.uleb128 0x9
 7625 1c3b 48150000 		.4byte	.LASF495
 7626 1c3f 1E       		.byte	0x1e
 7627 1c40 38       		.byte	0x38
 7628 1c41 451D0000 		.4byte	0x1d45
 7629 1c45 10       		.byte	0x10
 7630 1c46 09       		.uleb128 0x9
 7631 1c47 790E0000 		.4byte	.LASF496
 7632 1c4b 1E       		.byte	0x1e
 7633 1c4c 3A       		.byte	0x3a
 7634 1c4d 01010000 		.4byte	0x101
 7635 1c51 14       		.byte	0x14
 7636 1c52 09       		.uleb128 0x9
 7637 1c53 28270000 		.4byte	.LASF497
 7638 1c57 1E       		.byte	0x1e
 7639 1c58 3B       		.byte	0x3b
 7640 1c59 01010000 		.4byte	0x101
 7641 1c5d 16       		.byte	0x16
 7642 1c5e 0B       		.uleb128 0xb
 7643 1c5f AD120000 		.4byte	.LASF498
 7644 1c63 1E       		.byte	0x1e
 7645 1c64 3C       		.byte	0x3c
 7646 1c65 E4000000 		.4byte	0xe4
 7647 1c69 04       		.byte	0x4
 7648 1c6a 02       		.byte	0x2
 7649 1c6b 1E       		.byte	0x1e
 7650 1c6c 18       		.byte	0x18
 7651 1c6d 0B       		.uleb128 0xb
 7652 1c6e 8E050000 		.4byte	.LASF499
 7653 1c72 1E       		.byte	0x1e
 7654 1c73 3D       		.byte	0x3d
 7655 1c74 E4000000 		.4byte	0xe4
 7656 1c78 04       		.byte	0x4
 7657 1c79 02       		.byte	0x2
 7658 1c7a 1C       		.byte	0x1c
 7659 1c7b 18       		.byte	0x18
 7660 1c7c 0B       		.uleb128 0xb
 7661 1c7d BE130000 		.4byte	.LASF500
 7662 1c81 1E       		.byte	0x1e
 7663 1c82 3E       		.byte	0x3e
 7664 1c83 E4000000 		.4byte	0xe4
 7665 1c87 04       		.byte	0x4
 7666 1c88 10       		.byte	0x10
 7667 1c89 0C       		.byte	0xc
 7668 1c8a 18       		.byte	0x18
 7669 1c8b 00       		.byte	0
 7670 1c8c 0D       		.uleb128 0xd
 7671 1c8d 04       		.byte	0x4
 7672 1c8e 921C0000 		.4byte	0x1c92
 7673 1c92 0E       		.uleb128 0xe
 7674 1c93 FE1B0000 		.4byte	0x1bfe
 7675 1c97 0D       		.uleb128 0xd
 7676 1c98 04       		.byte	0x4
 7677 1c99 9D1C0000 		.4byte	0x1c9d
 7678 1c9d 0C       		.uleb128 0xc
 7679 1c9e 71150000 		.4byte	.LASF501
ARM GAS  C:\Users\haske\AppData\Local\Temp\ccl1At1U.s 			page 169


 7680 1ca2 1C       		.byte	0x1c
 7681 1ca3 1F       		.byte	0x1f
 7682 1ca4 5E       		.byte	0x5e
 7683 1ca5 1F1D0000 		.4byte	0x1d1f
 7684 1ca9 09       		.uleb128 0x9
 7685 1caa 4A120000 		.4byte	.LASF502
 7686 1cae 1F       		.byte	0x1f
 7687 1caf 5F       		.byte	0x5f
 7688 1cb0 C9070000 		.4byte	0x7c9
 7689 1cb4 00       		.byte	0
 7690 1cb5 09       		.uleb128 0x9
 7691 1cb6 F3210000 		.4byte	.LASF503
 7692 1cba 1F       		.byte	0x1f
 7693 1cbb 60       		.byte	0x60
 7694 1cbc C9070000 		.4byte	0x7c9
 7695 1cc0 04       		.byte	0x4
 7696 1cc1 09       		.uleb128 0x9
 7697 1cc2 6E1B0000 		.4byte	.LASF504
 7698 1cc6 1F       		.byte	0x1f
 7699 1cc7 61       		.byte	0x61
 7700 1cc8 7D1E0000 		.4byte	0x1e7d
 7701 1ccc 08       		.byte	0x8
 7702 1ccd 09       		.uleb128 0x9
 7703 1cce 13260000 		.4byte	.LASF50
 7704 1cd2 1F       		.byte	0x1f
 7705 1cd3 62       		.byte	0x62
 7706 1cd4 26030000 		.4byte	0x326
 7707 1cd8 0C       		.byte	0xc
 7708 1cd9 09       		.uleb128 0x9
 7709 1cda 44120000 		.4byte	.LASF505
 7710 1cde 1F       		.byte	0x1f
 7711 1cdf 63       		.byte	0x63
 7712 1ce0 26030000 		.4byte	0x326
 7713 1ce4 10       		.byte	0x10
 7714 1ce5 09       		.uleb128 0x9
 7715 1ce6 FD270000 		.4byte	.LASF506
 7716 1cea 1F       		.byte	0x1f
 7717 1ceb 64       		.byte	0x64
 7718 1cec 971C0000 		.4byte	0x1c97
 7719 1cf0 14       		.byte	0x14
 7720 1cf1 0B       		.uleb128 0xb
 7721 1cf2 A8150000 		.4byte	.LASF507
 7722 1cf6 1F       		.byte	0x1f
 7723 1cf7 65       		.byte	0x65
 7724 1cf8 B8000000 		.4byte	0xb8
 7725 1cfc 01       		.byte	0x1
 7726 1cfd 01       		.byte	0x1
 7727 1cfe 07       		.byte	0x7
 7728 1cff 18       		.byte	0x18
 7729 1d00 0B       		.uleb128 0xb
 7730 1d01 CF0A0000 		.4byte	.LASF508
 7731 1d05 1F       		.byte	0x1f
 7732 1d06 66       		.byte	0x66
 7733 1d07 B8000000 		.4byte	0xb8
 7734 1d0b 01       		.byte	0x1
 7735 1d0c 01       		.byte	0x1
 7736 1d0d 06       		.byte	0x6
ARM GAS  C:\Users\haske\AppData\Local\Temp\ccl1At1U.s 			page 170


 7737 1d0e 18       		.byte	0x18
 7738 1d0f 0B       		.uleb128 0xb
 7739 1d10 9B190000 		.4byte	.LASF509
 7740 1d14 1F       		.byte	0x1f
 7741 1d15 67       		.byte	0x67
 7742 1d16 B8000000 		.4byte	0xb8
 7743 1d1a 01       		.byte	0x1
 7744 1d1b 01       		.byte	0x1
 7745 1d1c 05       		.byte	0x5
 7746 1d1d 18       		.byte	0x18
 7747 1d1e 00       		.byte	0
 7748 1d1f 1F       		.uleb128 0x1f
 7749 1d20 2F1D0000 		.4byte	0x1d2f
 7750 1d24 10       		.uleb128 0x10
 7751 1d25 8C1C0000 		.4byte	0x1c8c
 7752 1d29 10       		.uleb128 0x10
 7753 1d2a C9070000 		.4byte	0x7c9
 7754 1d2e 00       		.byte	0
 7755 1d2f 0D       		.uleb128 0xd
 7756 1d30 04       		.byte	0x4
 7757 1d31 1F1D0000 		.4byte	0x1d1f
 7758 1d35 1F       		.uleb128 0x1f
 7759 1d36 451D0000 		.4byte	0x1d45
 7760 1d3a 10       		.uleb128 0x10
 7761 1d3b 8C1C0000 		.4byte	0x1c8c
 7762 1d3f 10       		.uleb128 0x10
 7763 1d40 971C0000 		.4byte	0x1c97
 7764 1d44 00       		.byte	0
 7765 1d45 0D       		.uleb128 0xd
 7766 1d46 04       		.byte	0x4
 7767 1d47 351D0000 		.4byte	0x1d35
 7768 1d4b 02       		.uleb128 0x2
 7769 1d4c B60F0000 		.4byte	.LASF510
 7770 1d50 1E       		.byte	0x1e
 7771 1d51 3F       		.byte	0x3f
 7772 1d52 FE1B0000 		.4byte	0x1bfe
 7773 1d56 07       		.uleb128 0x7
 7774 1d57 01       		.byte	0x1
 7775 1d58 42000000 		.4byte	0x42
 7776 1d5c 1F       		.byte	0x1f
 7777 1d5d 20       		.byte	0x20
 7778 1d5e 7D1E0000 		.4byte	0x1e7d
 7779 1d62 08       		.uleb128 0x8
 7780 1d63 3E050000 		.4byte	.LASF511
 7781 1d67 00       		.byte	0
 7782 1d68 08       		.uleb128 0x8
 7783 1d69 071C0000 		.4byte	.LASF512
 7784 1d6d 01       		.byte	0x1
 7785 1d6e 08       		.uleb128 0x8
 7786 1d6f CD190000 		.4byte	.LASF513
 7787 1d73 02       		.byte	0x2
 7788 1d74 08       		.uleb128 0x8
 7789 1d75 1D260000 		.4byte	.LASF514
 7790 1d79 03       		.byte	0x3
 7791 1d7a 08       		.uleb128 0x8
 7792 1d7b 5C1A0000 		.4byte	.LASF515
 7793 1d7f 04       		.byte	0x4
ARM GAS  C:\Users\haske\AppData\Local\Temp\ccl1At1U.s 			page 171


 7794 1d80 08       		.uleb128 0x8
 7795 1d81 24030000 		.4byte	.LASF516
 7796 1d85 05       		.byte	0x5
 7797 1d86 08       		.uleb128 0x8
 7798 1d87 851A0000 		.4byte	.LASF517
 7799 1d8b 06       		.byte	0x6
 7800 1d8c 08       		.uleb128 0x8
 7801 1d8d 7A0F0000 		.4byte	.LASF518
 7802 1d91 07       		.byte	0x7
 7803 1d92 08       		.uleb128 0x8
 7804 1d93 36280000 		.4byte	.LASF519
 7805 1d97 08       		.byte	0x8
 7806 1d98 08       		.uleb128 0x8
 7807 1d99 F3160000 		.4byte	.LASF520
 7808 1d9d 09       		.byte	0x9
 7809 1d9e 08       		.uleb128 0x8
 7810 1d9f 56230000 		.4byte	.LASF521
 7811 1da3 0A       		.byte	0xa
 7812 1da4 08       		.uleb128 0x8
 7813 1da5 C7150000 		.4byte	.LASF522
 7814 1da9 0B       		.byte	0xb
 7815 1daa 08       		.uleb128 0x8
 7816 1dab 13030000 		.4byte	.LASF523
 7817 1daf 0C       		.byte	0xc
 7818 1db0 08       		.uleb128 0x8
 7819 1db1 B6250000 		.4byte	.LASF524
 7820 1db5 0D       		.byte	0xd
 7821 1db6 08       		.uleb128 0x8
 7822 1db7 AD260000 		.4byte	.LASF525
 7823 1dbb 0E       		.byte	0xe
 7824 1dbc 08       		.uleb128 0x8
 7825 1dbd D5220000 		.4byte	.LASF526
 7826 1dc1 0F       		.byte	0xf
 7827 1dc2 08       		.uleb128 0x8
 7828 1dc3 8A110000 		.4byte	.LASF527
 7829 1dc7 10       		.byte	0x10
 7830 1dc8 08       		.uleb128 0x8
 7831 1dc9 610C0000 		.4byte	.LASF528
 7832 1dcd 11       		.byte	0x11
 7833 1dce 08       		.uleb128 0x8
 7834 1dcf B70B0000 		.4byte	.LASF529
 7835 1dd3 12       		.byte	0x12
 7836 1dd4 08       		.uleb128 0x8
 7837 1dd5 3F140000 		.4byte	.LASF530
 7838 1dd9 13       		.byte	0x13
 7839 1dda 08       		.uleb128 0x8
 7840 1ddb 9D000000 		.4byte	.LASF531
 7841 1ddf 14       		.byte	0x14
 7842 1de0 08       		.uleb128 0x8
 7843 1de1 D8080000 		.4byte	.LASF532
 7844 1de5 15       		.byte	0x15
 7845 1de6 08       		.uleb128 0x8
 7846 1de7 DB0F0000 		.4byte	.LASF533
 7847 1deb 16       		.byte	0x16
 7848 1dec 08       		.uleb128 0x8
 7849 1ded B3170000 		.4byte	.LASF534
 7850 1df1 17       		.byte	0x17
ARM GAS  C:\Users\haske\AppData\Local\Temp\ccl1At1U.s 			page 172


 7851 1df2 08       		.uleb128 0x8
 7852 1df3 BF240000 		.4byte	.LASF535
 7853 1df7 18       		.byte	0x18
 7854 1df8 08       		.uleb128 0x8
 7855 1df9 9E210000 		.4byte	.LASF536
 7856 1dfd 19       		.byte	0x19
 7857 1dfe 08       		.uleb128 0x8
 7858 1dff B5210000 		.4byte	.LASF537
 7859 1e03 1A       		.byte	0x1a
 7860 1e04 08       		.uleb128 0x8
 7861 1e05 E2060000 		.4byte	.LASF538
 7862 1e09 1B       		.byte	0x1b
 7863 1e0a 08       		.uleb128 0x8
 7864 1e0b 69180000 		.4byte	.LASF539
 7865 1e0f 1C       		.byte	0x1c
 7866 1e10 08       		.uleb128 0x8
 7867 1e11 74010000 		.4byte	.LASF540
 7868 1e15 1D       		.byte	0x1d
 7869 1e16 08       		.uleb128 0x8
 7870 1e17 AD130000 		.4byte	.LASF541
 7871 1e1b 1E       		.byte	0x1e
 7872 1e1c 08       		.uleb128 0x8
 7873 1e1d 8D240000 		.4byte	.LASF542
 7874 1e21 1F       		.byte	0x1f
 7875 1e22 08       		.uleb128 0x8
 7876 1e23 181C0000 		.4byte	.LASF543
 7877 1e27 20       		.byte	0x20
 7878 1e28 08       		.uleb128 0x8
 7879 1e29 9B170000 		.4byte	.LASF544
 7880 1e2d 21       		.byte	0x21
 7881 1e2e 08       		.uleb128 0x8
 7882 1e2f 2A020000 		.4byte	.LASF545
 7883 1e33 22       		.byte	0x22
 7884 1e34 08       		.uleb128 0x8
 7885 1e35 75030000 		.4byte	.LASF546
 7886 1e39 23       		.byte	0x23
 7887 1e3a 08       		.uleb128 0x8
 7888 1e3b B6040000 		.4byte	.LASF547
 7889 1e3f 24       		.byte	0x24
 7890 1e40 08       		.uleb128 0x8
 7891 1e41 45270000 		.4byte	.LASF548
 7892 1e45 25       		.byte	0x25
 7893 1e46 08       		.uleb128 0x8
 7894 1e47 80190000 		.4byte	.LASF549
 7895 1e4b 26       		.byte	0x26
 7896 1e4c 08       		.uleb128 0x8
 7897 1e4d 150D0000 		.4byte	.LASF550
 7898 1e51 27       		.byte	0x27
 7899 1e52 08       		.uleb128 0x8
 7900 1e53 7E1F0000 		.4byte	.LASF551
 7901 1e57 28       		.byte	0x28
 7902 1e58 08       		.uleb128 0x8
 7903 1e59 20250000 		.4byte	.LASF552
 7904 1e5d 29       		.byte	0x29
 7905 1e5e 08       		.uleb128 0x8
 7906 1e5f 67240000 		.4byte	.LASF553
 7907 1e63 2A       		.byte	0x2a
ARM GAS  C:\Users\haske\AppData\Local\Temp\ccl1At1U.s 			page 173


 7908 1e64 08       		.uleb128 0x8
 7909 1e65 5C250000 		.4byte	.LASF554
 7910 1e69 2B       		.byte	0x2b
 7911 1e6a 08       		.uleb128 0x8
 7912 1e6b C1080000 		.4byte	.LASF555
 7913 1e6f 2C       		.byte	0x2c
 7914 1e70 08       		.uleb128 0x8
 7915 1e71 97220000 		.4byte	.LASF556
 7916 1e75 2D       		.byte	0x2d
 7917 1e76 08       		.uleb128 0x8
 7918 1e77 DA110000 		.4byte	.LASF557
 7919 1e7b 80       		.byte	0x80
 7920 1e7c 00       		.byte	0
 7921 1e7d 02       		.uleb128 0x2
 7922 1e7e 51150000 		.4byte	.LASF558
 7923 1e82 1F       		.byte	0x1f
 7924 1e83 5C       		.byte	0x5c
 7925 1e84 561D0000 		.4byte	0x1d56
 7926 1e88 07       		.uleb128 0x7
 7927 1e89 01       		.byte	0x1
 7928 1e8a 42000000 		.4byte	0x42
 7929 1e8e 1B       		.byte	0x1b
 7930 1e8f 1D       		.byte	0x1d
 7931 1e90 DD1E0000 		.4byte	0x1edd
 7932 1e94 08       		.uleb128 0x8
 7933 1e95 72270000 		.4byte	.LASF559
 7934 1e99 11       		.byte	0x11
 7935 1e9a 08       		.uleb128 0x8
 7936 1e9b DA1E0000 		.4byte	.LASF560
 7937 1e9f 12       		.byte	0x12
 7938 1ea0 08       		.uleb128 0x8
 7939 1ea1 86000000 		.4byte	.LASF561
 7940 1ea5 13       		.byte	0x13
 7941 1ea6 08       		.uleb128 0x8
 7942 1ea7 74070000 		.4byte	.LASF562
 7943 1eab 14       		.byte	0x14
 7944 1eac 08       		.uleb128 0x8
 7945 1ead E61E0000 		.4byte	.LASF563
 7946 1eb1 1B       		.byte	0x1b
 7947 1eb2 08       		.uleb128 0x8
 7948 1eb3 9D060000 		.4byte	.LASF564
 7949 1eb7 7F       		.byte	0x7f
 7950 1eb8 08       		.uleb128 0x8
 7951 1eb9 B1090000 		.4byte	.LASF565
 7952 1ebd 08       		.byte	0x8
 7953 1ebe 08       		.uleb128 0x8
 7954 1ebf 59160000 		.4byte	.LASF566
 7955 1ec3 0A       		.byte	0xa
 7956 1ec4 08       		.uleb128 0x8
 7957 1ec5 C1200000 		.4byte	.LASF567
 7958 1ec9 09       		.byte	0x9
 7959 1eca 08       		.uleb128 0x8
 7960 1ecb 17210000 		.4byte	.LASF568
 7961 1ecf 0B       		.byte	0xb
 7962 1ed0 08       		.uleb128 0x8
 7963 1ed1 10000000 		.4byte	.LASF569
 7964 1ed5 02       		.byte	0x2
ARM GAS  C:\Users\haske\AppData\Local\Temp\ccl1At1U.s 			page 174


 7965 1ed6 08       		.uleb128 0x8
 7966 1ed7 B91B0000 		.4byte	.LASF570
 7967 1edb 03       		.byte	0x3
 7968 1edc 00       		.byte	0
 7969 1edd 02       		.uleb128 0x2
 7970 1ede 471D0000 		.4byte	.LASF571
 7971 1ee2 1B       		.byte	0x1b
 7972 1ee3 34       		.byte	0x34
 7973 1ee4 E81E0000 		.4byte	0x1ee8
 7974 1ee8 0D       		.uleb128 0xd
 7975 1ee9 04       		.byte	0x4
 7976 1eea EE1E0000 		.4byte	0x1eee
 7977 1eee 1F       		.uleb128 0x1f
 7978 1eef F91E0000 		.4byte	0x1ef9
 7979 1ef3 10       		.uleb128 0x10
 7980 1ef4 201A0000 		.4byte	0x1a20
 7981 1ef8 00       		.byte	0
 7982 1ef9 02       		.uleb128 0x2
 7983 1efa 080F0000 		.4byte	.LASF572
 7984 1efe 1B       		.byte	0x1b
 7985 1eff 35       		.byte	0x35
 7986 1f00 041F0000 		.4byte	0x1f04
 7987 1f04 0D       		.uleb128 0xd
 7988 1f05 04       		.byte	0x4
 7989 1f06 0A1F0000 		.4byte	0x1f0a
 7990 1f0a 1F       		.uleb128 0x1f
 7991 1f0b 1A1F0000 		.4byte	0x1f1a
 7992 1f0f 10       		.uleb128 0x10
 7993 1f10 201A0000 		.4byte	0x1a20
 7994 1f14 10       		.uleb128 0x10
 7995 1f15 E7020000 		.4byte	0x2e7
 7996 1f19 00       		.byte	0
 7997 1f1a 02       		.uleb128 0x2
 7998 1f1b 43090000 		.4byte	.LASF573
 7999 1f1f 1B       		.byte	0x1b
 8000 1f20 4E       		.byte	0x4e
 8001 1f21 9B190000 		.4byte	0x199b
 8002 1f25 05       		.uleb128 0x5
 8003 1f26 1C       		.byte	0x1c
 8004 1f27 0E       		.byte	0xe
 8005 1f28 9B       		.byte	0x9b
 8006 1f29 DC1F0000 		.4byte	0x1fdc
 8007 1f2d 09       		.uleb128 0x9
 8008 1f2e E2030000 		.4byte	.LASF574
 8009 1f32 0E       		.byte	0xe
 8010 1f33 9C       		.byte	0x9c
 8011 1f34 EE150000 		.4byte	0x15ee
 8012 1f38 00       		.byte	0
 8013 1f39 09       		.uleb128 0x9
 8014 1f3a 57110000 		.4byte	.LASF575
 8015 1f3e 0E       		.byte	0xe
 8016 1f3f 9D       		.byte	0x9d
 8017 1f40 E4000000 		.4byte	0xe4
 8018 1f44 04       		.byte	0x4
 8019 1f45 09       		.uleb128 0x9
 8020 1f46 0A0E0000 		.4byte	.LASF576
 8021 1f4a 0E       		.byte	0xe
ARM GAS  C:\Users\haske\AppData\Local\Temp\ccl1At1U.s 			page 175


 8022 1f4b 9E       		.byte	0x9e
 8023 1f4c DC1F0000 		.4byte	0x1fdc
 8024 1f50 08       		.byte	0x8
 8025 1f51 09       		.uleb128 0x9
 8026 1f52 970D0000 		.4byte	.LASF577
 8027 1f56 0E       		.byte	0xe
 8028 1f57 A0       		.byte	0xa0
 8029 1f58 E71F0000 		.4byte	0x1fe7
 8030 1f5c 0C       		.byte	0xc
 8031 1f5d 09       		.uleb128 0x9
 8032 1f5e 470E0000 		.4byte	.LASF578
 8033 1f62 0E       		.byte	0xe
 8034 1f63 A1       		.byte	0xa1
 8035 1f64 29010000 		.4byte	0x129
 8036 1f68 10       		.byte	0x10
 8037 1f69 09       		.uleb128 0x9
 8038 1f6a 2A220000 		.4byte	.LASF579
 8039 1f6e 0E       		.byte	0xe
 8040 1f6f A3       		.byte	0xa3
 8041 1f70 01010000 		.4byte	0x101
 8042 1f74 14       		.byte	0x14
 8043 1f75 09       		.uleb128 0x9
 8044 1f76 71170000 		.4byte	.LASF580
 8045 1f7a 0E       		.byte	0xe
 8046 1f7b A4       		.byte	0xa4
 8047 1f7c 01010000 		.4byte	0x101
 8048 1f80 16       		.byte	0x16
 8049 1f81 0B       		.uleb128 0xb
 8050 1f82 EA090000 		.4byte	.LASF581
 8051 1f86 0E       		.byte	0xe
 8052 1f87 A6       		.byte	0xa6
 8053 1f88 951B0000 		.4byte	0x1b95
 8054 1f8c 01       		.byte	0x1
 8055 1f8d 02       		.byte	0x2
 8056 1f8e 06       		.byte	0x6
 8057 1f8f 18       		.byte	0x18
 8058 1f90 0B       		.uleb128 0xb
 8059 1f91 F1010000 		.4byte	.LASF582
 8060 1f95 0E       		.byte	0xe
 8061 1f96 A7       		.byte	0xa7
 8062 1f97 A01B0000 		.4byte	0x1ba0
 8063 1f9b 01       		.byte	0x1
 8064 1f9c 02       		.byte	0x2
 8065 1f9d 04       		.byte	0x4
 8066 1f9e 18       		.byte	0x18
 8067 1f9f 0B       		.uleb128 0xb
 8068 1fa0 FF010000 		.4byte	.LASF583
 8069 1fa4 0E       		.byte	0xe
 8070 1fa5 A8       		.byte	0xa8
 8071 1fa6 A01B0000 		.4byte	0x1ba0
 8072 1faa 01       		.byte	0x1
 8073 1fab 02       		.byte	0x2
 8074 1fac 02       		.byte	0x2
 8075 1fad 18       		.byte	0x18
 8076 1fae 0B       		.uleb128 0xb
 8077 1faf 83050000 		.4byte	.LASF409
 8078 1fb3 0E       		.byte	0xe
ARM GAS  C:\Users\haske\AppData\Local\Temp\ccl1At1U.s 			page 176


 8079 1fb4 A9       		.byte	0xa9
 8080 1fb5 B1010000 		.4byte	0x1b1
 8081 1fb9 01       		.byte	0x1
 8082 1fba 04       		.byte	0x4
 8083 1fbb 04       		.byte	0x4
 8084 1fbc 19       		.byte	0x19
 8085 1fbd 0B       		.uleb128 0xb
 8086 1fbe B0280000 		.4byte	.LASF584
 8087 1fc2 0E       		.byte	0xe
 8088 1fc3 AA       		.byte	0xaa
 8089 1fc4 B8000000 		.4byte	0xb8
 8090 1fc8 01       		.byte	0x1
 8091 1fc9 06       		.byte	0x6
 8092 1fca 02       		.byte	0x2
 8093 1fcb 1A       		.byte	0x1a
 8094 1fcc 0B       		.uleb128 0xb
 8095 1fcd B20E0000 		.4byte	.LASF585
 8096 1fd1 0E       		.byte	0xe
 8097 1fd2 AB       		.byte	0xab
 8098 1fd3 B8000000 		.4byte	0xb8
 8099 1fd7 01       		.byte	0x1
 8100 1fd8 02       		.byte	0x2
 8101 1fd9 00       		.byte	0
 8102 1fda 1A       		.byte	0x1a
 8103 1fdb 00       		.byte	0
 8104 1fdc 0D       		.uleb128 0xd
 8105 1fdd 04       		.byte	0x4
 8106 1fde 1A1F0000 		.4byte	0x1f1a
 8107 1fe2 24       		.uleb128 0x24
 8108 1fe3 31260000 		.4byte	.LASF678
 8109 1fe7 0D       		.uleb128 0xd
 8110 1fe8 04       		.byte	0x4
 8111 1fe9 E21F0000 		.4byte	0x1fe2
 8112 1fed 02       		.uleb128 0x2
 8113 1fee 790C0000 		.4byte	.LASF586
 8114 1ff2 0E       		.byte	0xe
 8115 1ff3 AC       		.byte	0xac
 8116 1ff4 251F0000 		.4byte	0x1f25
 8117 1ff8 0D       		.uleb128 0xd
 8118 1ff9 04       		.byte	0x4
 8119 1ffa FE1F0000 		.4byte	0x1ffe
 8120 1ffe 0E       		.uleb128 0xe
 8121 1fff 4B1D0000 		.4byte	0x1d4b
 8122 2003 0D       		.uleb128 0xd
 8123 2004 04       		.byte	0x4
 8124 2005 ED1F0000 		.4byte	0x1fed
 8125 2009 0D       		.uleb128 0xd
 8126 200a 04       		.byte	0x4
 8127 200b F31B0000 		.4byte	0x1bf3
 8128 200f 02       		.uleb128 0x2
 8129 2010 A7280000 		.4byte	.LASF587
 8130 2014 0E       		.byte	0xe
 8131 2015 BF       		.byte	0xbf
 8132 2016 CF070000 		.4byte	0x7cf
 8133 201a 02       		.uleb128 0x2
 8134 201b 940E0000 		.4byte	.LASF588
 8135 201f 19       		.byte	0x19
ARM GAS  C:\Users\haske\AppData\Local\Temp\ccl1At1U.s 			page 177


 8136 2020 1D       		.byte	0x1d
 8137 2021 25200000 		.4byte	0x2025
 8138 2025 0D       		.uleb128 0xd
 8139 2026 04       		.byte	0x4
 8140 2027 2B200000 		.4byte	0x202b
 8141 202b 1F       		.uleb128 0x1f
 8142 202c 3B200000 		.4byte	0x203b
 8143 2030 10       		.uleb128 0x10
 8144 2031 E8150000 		.4byte	0x15e8
 8145 2035 10       		.uleb128 0x10
 8146 2036 3B200000 		.4byte	0x203b
 8147 203a 00       		.byte	0
 8148 203b 0D       		.uleb128 0xd
 8149 203c 04       		.byte	0x4
 8150 203d 0F200000 		.4byte	0x200f
 8151 2041 25       		.uleb128 0x25
 8152 2042 010B0000 		.4byte	.LASF590
 8153 2046 02       		.byte	0x2
 8154 2047 4F       		.byte	0x4f
 8155 2048 01010000 		.4byte	0x101
 8156 204c 03       		.byte	0x3
 8157 204d 71200000 		.4byte	0x2071
 8158 2051 26       		.uleb128 0x26
 8159 2052 6F626A00 		.ascii	"obj\000"
 8160 2056 02       		.byte	0x2
 8161 2057 4F       		.byte	0x4f
 8162 2058 71200000 		.4byte	0x2071
 8163 205c 27       		.uleb128 0x27
 8164 205d F8270000 		.4byte	.LASF589
 8165 2061 02       		.byte	0x2
 8166 2062 4F       		.byte	0x4f
 8167 2063 E4000000 		.4byte	0xe4
 8168 2067 28       		.uleb128 0x28
 8169 2068 7600     		.ascii	"v\000"
 8170 206a 02       		.byte	0x2
 8171 206b 51       		.byte	0x51
 8172 206c C9040000 		.4byte	0x4c9
 8173 2070 00       		.byte	0
 8174 2071 0D       		.uleb128 0xd
 8175 2072 04       		.byte	0x4
 8176 2073 77200000 		.4byte	0x2077
 8177 2077 0E       		.uleb128 0xe
 8178 2078 CF070000 		.4byte	0x7cf
 8179 207c 25       		.uleb128 0x25
 8180 207d B9110000 		.4byte	.LASF591
 8181 2081 02       		.byte	0x2
 8182 2082 55       		.byte	0x55
 8183 2083 01010000 		.4byte	0x101
 8184 2087 03       		.byte	0x3
 8185 2088 AC200000 		.4byte	0x20ac
 8186 208c 26       		.uleb128 0x26
 8187 208d 6F626A00 		.ascii	"obj\000"
 8188 2091 02       		.byte	0x2
 8189 2092 55       		.byte	0x55
 8190 2093 71200000 		.4byte	0x2071
 8191 2097 27       		.uleb128 0x27
 8192 2098 F8270000 		.4byte	.LASF589
ARM GAS  C:\Users\haske\AppData\Local\Temp\ccl1At1U.s 			page 178


 8193 209c 02       		.byte	0x2
 8194 209d 55       		.byte	0x55
 8195 209e E4000000 		.4byte	0xe4
 8196 20a2 28       		.uleb128 0x28
 8197 20a3 7600     		.ascii	"v\000"
 8198 20a5 02       		.byte	0x2
 8199 20a6 57       		.byte	0x57
 8200 20a7 C9040000 		.4byte	0x4c9
 8201 20ab 00       		.byte	0
 8202 20ac 29       		.uleb128 0x29
 8203 20ad 1B130000 		.4byte	.LASF593
 8204 20b1 01       		.byte	0x1
 8205 20b2 0204     		.2byte	0x402
 8206 20b4 00000000 		.4byte	.LFB190
 8207 20b8 44000000 		.4byte	.LFE190-.LFB190
 8208 20bc 01       		.uleb128 0x1
 8209 20bd 9C       		.byte	0x9c
 8210 20be D1200000 		.4byte	0x20d1
 8211 20c2 2A       		.uleb128 0x2a
 8212 20c3 63100000 		.4byte	.LASF592
 8213 20c7 01       		.byte	0x1
 8214 20c8 0204     		.2byte	0x402
 8215 20ca D1200000 		.4byte	0x20d1
 8216 20ce 01       		.uleb128 0x1
 8217 20cf 50       		.byte	0x50
 8218 20d0 00       		.byte	0
 8219 20d1 0D       		.uleb128 0xd
 8220 20d2 04       		.byte	0x4
 8221 20d3 261A0000 		.4byte	0x1a26
 8222 20d7 2B       		.uleb128 0x2b
 8223 20d8 50170000 		.4byte	.LASF679
 8224 20dc 01       		.byte	0x1
 8225 20dd 9504     		.2byte	0x495
 8226 20df E7020000 		.4byte	0x2e7
 8227 20e3 00000000 		.4byte	.LFB193
 8228 20e7 1C000000 		.4byte	.LFE193-.LFB193
 8229 20eb 01       		.uleb128 0x1
 8230 20ec 9C       		.byte	0x9c
 8231 20ed 02210000 		.4byte	0x2102
 8232 20f1 2C       		.uleb128 0x2c
 8233 20f2 D20C0000 		.4byte	.LASF425
 8234 20f6 01       		.byte	0x1
 8235 20f7 9504     		.2byte	0x495
 8236 20f9 02210000 		.4byte	0x2102
 8237 20fd 00000000 		.4byte	.LLST0
 8238 2101 00       		.byte	0
 8239 2102 0D       		.uleb128 0xd
 8240 2103 04       		.byte	0x4
 8241 2104 47190000 		.4byte	0x1947
 8242 2108 29       		.uleb128 0x29
 8243 2109 E1250000 		.4byte	.LASF594
 8244 210d 01       		.byte	0x1
 8245 210e 1B04     		.2byte	0x41b
 8246 2110 00000000 		.4byte	.LFB191
 8247 2114 10010000 		.4byte	.LFE191-.LFB191
 8248 2118 01       		.uleb128 0x1
 8249 2119 9C       		.byte	0x9c
ARM GAS  C:\Users\haske\AppData\Local\Temp\ccl1At1U.s 			page 179


 8250 211a 94220000 		.4byte	0x2294
 8251 211e 2C       		.uleb128 0x2c
 8252 211f D20C0000 		.4byte	.LASF425
 8253 2123 01       		.byte	0x1
 8254 2124 1B04     		.2byte	0x41b
 8255 2126 02210000 		.4byte	0x2102
 8256 212a 21000000 		.4byte	.LLST1
 8257 212e 2D       		.uleb128 0x2d
 8258 212f 9F130000 		.4byte	.LASF595
 8259 2133 01       		.byte	0x1
 8260 2134 2304     		.2byte	0x423
 8261 2136 DC1F0000 		.4byte	0x1fdc
 8262 213a 4D000000 		.4byte	.LLST2
 8263 213e 2D       		.uleb128 0x2d
 8264 213f 051B0000 		.4byte	.LASF596
 8265 2143 01       		.byte	0x1
 8266 2144 2404     		.2byte	0x424
 8267 2146 DC1F0000 		.4byte	0x1fdc
 8268 214a 6B000000 		.4byte	.LLST3
 8269 214e 2E       		.uleb128 0x2e
 8270 214f 0E000000 		.4byte	.LVL5
 8271 2153 84380000 		.4byte	0x3884
 8272 2157 61210000 		.4byte	0x2161
 8273 215b 2F       		.uleb128 0x2f
 8274 215c 01       		.uleb128 0x1
 8275 215d 51       		.byte	0x51
 8276 215e 01       		.uleb128 0x1
 8277 215f 34       		.byte	0x34
 8278 2160 00       		.byte	0
 8279 2161 30       		.uleb128 0x30
 8280 2162 20000000 		.4byte	.LVL6
 8281 2166 90380000 		.4byte	0x3890
 8282 216a 30       		.uleb128 0x30
 8283 216b 2C000000 		.4byte	.LVL9
 8284 216f 90380000 		.4byte	0x3890
 8285 2173 30       		.uleb128 0x30
 8286 2174 42000000 		.4byte	.LVL12
 8287 2178 9C380000 		.4byte	0x389c
 8288 217c 2E       		.uleb128 0x2e
 8289 217d 48000000 		.4byte	.LVL13
 8290 2181 D7200000 		.4byte	0x20d7
 8291 2185 90210000 		.4byte	0x2190
 8292 2189 2F       		.uleb128 0x2f
 8293 218a 01       		.uleb128 0x1
 8294 218b 50       		.byte	0x50
 8295 218c 02       		.uleb128 0x2
 8296 218d 74       		.byte	0x74
 8297 218e 00       		.sleb128 0
 8298 218f 00       		.byte	0
 8299 2190 2E       		.uleb128 0x2e
 8300 2191 5E000000 		.4byte	.LVL16
 8301 2195 A7380000 		.4byte	0x38a7
 8302 2199 A3210000 		.4byte	0x21a3
 8303 219d 2F       		.uleb128 0x2f
 8304 219e 01       		.uleb128 0x1
 8305 219f 51       		.byte	0x51
 8306 21a0 01       		.uleb128 0x1
ARM GAS  C:\Users\haske\AppData\Local\Temp\ccl1At1U.s 			page 180


 8307 21a1 3F       		.byte	0x3f
 8308 21a2 00       		.byte	0
 8309 21a3 2E       		.uleb128 0x2e
 8310 21a4 64000000 		.4byte	.LVL17
 8311 21a8 D7200000 		.4byte	0x20d7
 8312 21ac B7210000 		.4byte	0x21b7
 8313 21b0 2F       		.uleb128 0x2f
 8314 21b1 01       		.uleb128 0x1
 8315 21b2 50       		.byte	0x50
 8316 21b3 02       		.uleb128 0x2
 8317 21b4 74       		.byte	0x74
 8318 21b5 00       		.sleb128 0
 8319 21b6 00       		.byte	0
 8320 21b7 2E       		.uleb128 0x2e
 8321 21b8 74000000 		.4byte	.LVL18
 8322 21bc A7380000 		.4byte	0x38a7
 8323 21c0 CA210000 		.4byte	0x21ca
 8324 21c4 2F       		.uleb128 0x2f
 8325 21c5 01       		.uleb128 0x1
 8326 21c6 51       		.byte	0x51
 8327 21c7 01       		.uleb128 0x1
 8328 21c8 3E       		.byte	0x3e
 8329 21c9 00       		.byte	0
 8330 21ca 2E       		.uleb128 0x2e
 8331 21cb 7A000000 		.4byte	.LVL19
 8332 21cf D7200000 		.4byte	0x20d7
 8333 21d3 DE210000 		.4byte	0x21de
 8334 21d7 2F       		.uleb128 0x2f
 8335 21d8 01       		.uleb128 0x1
 8336 21d9 50       		.byte	0x50
 8337 21da 02       		.uleb128 0x2
 8338 21db 74       		.byte	0x74
 8339 21dc 00       		.sleb128 0
 8340 21dd 00       		.byte	0
 8341 21de 2E       		.uleb128 0x2e
 8342 21df 94000000 		.4byte	.LVL22
 8343 21e3 A7380000 		.4byte	0x38a7
 8344 21e7 F1210000 		.4byte	0x21f1
 8345 21eb 2F       		.uleb128 0x2f
 8346 21ec 01       		.uleb128 0x1
 8347 21ed 51       		.byte	0x51
 8348 21ee 01       		.uleb128 0x1
 8349 21ef 3F       		.byte	0x3f
 8350 21f0 00       		.byte	0
 8351 21f1 2E       		.uleb128 0x2e
 8352 21f2 9A000000 		.4byte	.LVL23
 8353 21f6 D7200000 		.4byte	0x20d7
 8354 21fa 05220000 		.4byte	0x2205
 8355 21fe 2F       		.uleb128 0x2f
 8356 21ff 01       		.uleb128 0x1
 8357 2200 50       		.byte	0x50
 8358 2201 02       		.uleb128 0x2
 8359 2202 74       		.byte	0x74
 8360 2203 00       		.sleb128 0
 8361 2204 00       		.byte	0
 8362 2205 2E       		.uleb128 0x2e
 8363 2206 B4000000 		.4byte	.LVL26
ARM GAS  C:\Users\haske\AppData\Local\Temp\ccl1At1U.s 			page 181


 8364 220a A7380000 		.4byte	0x38a7
 8365 220e 18220000 		.4byte	0x2218
 8366 2212 2F       		.uleb128 0x2f
 8367 2213 01       		.uleb128 0x1
 8368 2214 51       		.byte	0x51
 8369 2215 01       		.uleb128 0x1
 8370 2216 3F       		.byte	0x3f
 8371 2217 00       		.byte	0
 8372 2218 2E       		.uleb128 0x2e
 8373 2219 BA000000 		.4byte	.LVL27
 8374 221d D7200000 		.4byte	0x20d7
 8375 2221 2C220000 		.4byte	0x222c
 8376 2225 2F       		.uleb128 0x2f
 8377 2226 01       		.uleb128 0x1
 8378 2227 50       		.byte	0x50
 8379 2228 02       		.uleb128 0x2
 8380 2229 74       		.byte	0x74
 8381 222a 00       		.sleb128 0
 8382 222b 00       		.byte	0
 8383 222c 2E       		.uleb128 0x2e
 8384 222d CA000000 		.4byte	.LVL30
 8385 2231 A7380000 		.4byte	0x38a7
 8386 2235 3F220000 		.4byte	0x223f
 8387 2239 2F       		.uleb128 0x2f
 8388 223a 01       		.uleb128 0x1
 8389 223b 51       		.byte	0x51
 8390 223c 01       		.uleb128 0x1
 8391 223d 40       		.byte	0x40
 8392 223e 00       		.byte	0
 8393 223f 2E       		.uleb128 0x2e
 8394 2240 D0000000 		.4byte	.LVL31
 8395 2244 D7200000 		.4byte	0x20d7
 8396 2248 53220000 		.4byte	0x2253
 8397 224c 2F       		.uleb128 0x2f
 8398 224d 01       		.uleb128 0x1
 8399 224e 50       		.byte	0x50
 8400 224f 02       		.uleb128 0x2
 8401 2250 74       		.byte	0x74
 8402 2251 00       		.sleb128 0
 8403 2252 00       		.byte	0
 8404 2253 30       		.uleb128 0x30
 8405 2254 E0000000 		.4byte	.LVL32
 8406 2258 9C380000 		.4byte	0x389c
 8407 225c 2E       		.uleb128 0x2e
 8408 225d E6000000 		.4byte	.LVL33
 8409 2261 D7200000 		.4byte	0x20d7
 8410 2265 70220000 		.4byte	0x2270
 8411 2269 2F       		.uleb128 0x2f
 8412 226a 01       		.uleb128 0x1
 8413 226b 50       		.byte	0x50
 8414 226c 02       		.uleb128 0x2
 8415 226d 74       		.byte	0x74
 8416 226e 00       		.sleb128 0
 8417 226f 00       		.byte	0
 8418 2270 2E       		.uleb128 0x2e
 8419 2271 F8000000 		.4byte	.LVL34
 8420 2275 A7380000 		.4byte	0x38a7
ARM GAS  C:\Users\haske\AppData\Local\Temp\ccl1At1U.s 			page 182


 8421 2279 83220000 		.4byte	0x2283
 8422 227d 2F       		.uleb128 0x2f
 8423 227e 01       		.uleb128 0x1
 8424 227f 51       		.byte	0x51
 8425 2280 01       		.uleb128 0x1
 8426 2281 3E       		.byte	0x3e
 8427 2282 00       		.byte	0
 8428 2283 31       		.uleb128 0x31
 8429 2284 FE000000 		.4byte	.LVL35
 8430 2288 D7200000 		.4byte	0x20d7
 8431 228c 2F       		.uleb128 0x2f
 8432 228d 01       		.uleb128 0x1
 8433 228e 50       		.byte	0x50
 8434 228f 02       		.uleb128 0x2
 8435 2290 74       		.byte	0x74
 8436 2291 00       		.sleb128 0
 8437 2292 00       		.byte	0
 8438 2293 00       		.byte	0
 8439 2294 29       		.uleb128 0x29
 8440 2295 D21D0000 		.4byte	.LASF597
 8441 2299 01       		.byte	0x1
 8442 229a 6004     		.2byte	0x460
 8443 229c 00000000 		.4byte	.LFB192
 8444 22a0 08010000 		.4byte	.LFE192-.LFB192
 8445 22a4 01       		.uleb128 0x1
 8446 22a5 9C       		.byte	0x9c
 8447 22a6 23230000 		.4byte	0x2323
 8448 22aa 2C       		.uleb128 0x2c
 8449 22ab D20C0000 		.4byte	.LASF425
 8450 22af 01       		.byte	0x1
 8451 22b0 6004     		.2byte	0x460
 8452 22b2 02210000 		.4byte	0x2102
 8453 22b6 AA000000 		.4byte	.LLST4
 8454 22ba 2D       		.uleb128 0x2d
 8455 22bb 971F0000 		.4byte	.LASF598
 8456 22bf 01       		.byte	0x1
 8457 22c0 6604     		.2byte	0x466
 8458 22c2 3B200000 		.4byte	0x203b
 8459 22c6 D6000000 		.4byte	.LLST5
 8460 22ca 2E       		.uleb128 0x2e
 8461 22cb 20000000 		.4byte	.LVL41
 8462 22cf B2380000 		.4byte	0x38b2
 8463 22d3 DE220000 		.4byte	0x22de
 8464 22d7 2F       		.uleb128 0x2f
 8465 22d8 01       		.uleb128 0x1
 8466 22d9 50       		.byte	0x50
 8467 22da 02       		.uleb128 0x2
 8468 22db 74       		.byte	0x74
 8469 22dc 00       		.sleb128 0
 8470 22dd 00       		.byte	0
 8471 22de 2E       		.uleb128 0x2e
 8472 22df 30000000 		.4byte	.LVL43
 8473 22e3 84380000 		.4byte	0x3884
 8474 22e7 F9220000 		.4byte	0x22f9
 8475 22eb 2F       		.uleb128 0x2f
 8476 22ec 01       		.uleb128 0x1
 8477 22ed 50       		.byte	0x50
ARM GAS  C:\Users\haske\AppData\Local\Temp\ccl1At1U.s 			page 183


 8478 22ee 02       		.uleb128 0x2
 8479 22ef 74       		.byte	0x74
 8480 22f0 00       		.sleb128 0
 8481 22f1 2F       		.uleb128 0x2f
 8482 22f2 01       		.uleb128 0x1
 8483 22f3 51       		.byte	0x51
 8484 22f4 03       		.uleb128 0x3
 8485 22f5 0A       		.byte	0xa
 8486 22f6 0080     		.2byte	0x8000
 8487 22f8 00       		.byte	0
 8488 22f9 2E       		.uleb128 0x2e
 8489 22fa F8000000 		.4byte	.LVL44
 8490 22fe A7380000 		.4byte	0x38a7
 8491 2302 12230000 		.4byte	0x2312
 8492 2306 2F       		.uleb128 0x2f
 8493 2307 01       		.uleb128 0x1
 8494 2308 50       		.byte	0x50
 8495 2309 02       		.uleb128 0x2
 8496 230a 74       		.byte	0x74
 8497 230b 00       		.sleb128 0
 8498 230c 2F       		.uleb128 0x2f
 8499 230d 01       		.uleb128 0x1
 8500 230e 51       		.byte	0x51
 8501 230f 01       		.uleb128 0x1
 8502 2310 3C       		.byte	0x3c
 8503 2311 00       		.byte	0
 8504 2312 31       		.uleb128 0x31
 8505 2313 FE000000 		.4byte	.LVL45
 8506 2317 D7200000 		.4byte	0x20d7
 8507 231b 2F       		.uleb128 0x2f
 8508 231c 01       		.uleb128 0x1
 8509 231d 50       		.byte	0x50
 8510 231e 02       		.uleb128 0x2
 8511 231f 75       		.byte	0x75
 8512 2320 00       		.sleb128 0
 8513 2321 00       		.byte	0
 8514 2322 00       		.byte	0
 8515 2323 32       		.uleb128 0x32
 8516 2324 EC1D0000 		.4byte	.LASF599
 8517 2328 01       		.byte	0x1
 8518 2329 B603     		.2byte	0x3b6
 8519 232b 00000000 		.4byte	.LFB189
 8520 232f 40010000 		.4byte	.LFE189-.LFB189
 8521 2333 01       		.uleb128 0x1
 8522 2334 9C       		.byte	0x9c
 8523 2335 69250000 		.4byte	0x2569
 8524 2339 2C       		.uleb128 0x2c
 8525 233a D20C0000 		.4byte	.LASF425
 8526 233e 01       		.byte	0x1
 8527 233f B603     		.2byte	0x3b6
 8528 2341 02210000 		.4byte	0x2102
 8529 2345 E9000000 		.4byte	.LLST6
 8530 2349 2D       		.uleb128 0x2d
 8531 234a EF040000 		.4byte	.LASF405
 8532 234e 01       		.byte	0x1
 8533 234f C303     		.2byte	0x3c3
 8534 2351 3B200000 		.4byte	0x203b
ARM GAS  C:\Users\haske\AppData\Local\Temp\ccl1At1U.s 			page 184


 8535 2355 15010000 		.4byte	.LLST7
 8536 2359 33       		.uleb128 0x33
 8537 235a A2000000 		.4byte	.LBB7
 8538 235e 7E000000 		.4byte	.LBE7-.LBB7
 8539 2362 A8240000 		.4byte	0x24a8
 8540 2366 2D       		.uleb128 0x2d
 8541 2367 CC130000 		.4byte	.LASF234
 8542 236b 01       		.byte	0x1
 8543 236c DF03     		.2byte	0x3df
 8544 236e C3000000 		.4byte	0xc3
 8545 2372 5F010000 		.4byte	.LLST8
 8546 2376 2D       		.uleb128 0x2d
 8547 2377 74020000 		.4byte	.LASF235
 8548 237b 01       		.byte	0x1
 8549 237c E003     		.2byte	0x3e0
 8550 237e C3000000 		.4byte	0xc3
 8551 2382 94010000 		.4byte	.LLST9
 8552 2386 34       		.uleb128 0x34
 8553 2387 F11E0000 		.4byte	.LASF236
 8554 238b 01       		.byte	0x1
 8555 238c E103     		.2byte	0x3e1
 8556 238e 29010000 		.4byte	0x129
 8557 2392 02       		.uleb128 0x2
 8558 2393 91       		.byte	0x91
 8559 2394 64       		.sleb128 -28
 8560 2395 2D       		.uleb128 0x2d
 8561 2396 FD0F0000 		.4byte	.LASF183
 8562 239a 01       		.byte	0x1
 8563 239b E203     		.2byte	0x3e2
 8564 239d 3B200000 		.4byte	0x203b
 8565 23a1 C0010000 		.4byte	.LLST10
 8566 23a5 35       		.uleb128 0x35
 8567 23a6 7C200000 		.4byte	0x207c
 8568 23aa B4000000 		.4byte	.LBB8
 8569 23ae 0A000000 		.4byte	.LBE8-.LBB8
 8570 23b2 01       		.byte	0x1
 8571 23b3 E403     		.2byte	0x3e4
 8572 23b5 FA230000 		.4byte	0x23fa
 8573 23b9 36       		.uleb128 0x36
 8574 23ba 97200000 		.4byte	0x2097
 8575 23be DE010000 		.4byte	.LLST11
 8576 23c2 36       		.uleb128 0x36
 8577 23c3 8C200000 		.4byte	0x208c
 8578 23c7 F2010000 		.4byte	.LLST12
 8579 23cb 37       		.uleb128 0x37
 8580 23cc B4000000 		.4byte	.LBB9
 8581 23d0 0A000000 		.4byte	.LBE9-.LBB9
 8582 23d4 38       		.uleb128 0x38
 8583 23d5 A2200000 		.4byte	0x20a2
 8584 23d9 05020000 		.4byte	.LLST13
 8585 23dd 31       		.uleb128 0x31
 8586 23de BE000000 		.4byte	.LVL63
 8587 23e2 BD380000 		.4byte	0x38bd
 8588 23e6 2F       		.uleb128 0x2f
 8589 23e7 01       		.uleb128 0x1
 8590 23e8 50       		.byte	0x50
 8591 23e9 02       		.uleb128 0x2
ARM GAS  C:\Users\haske\AppData\Local\Temp\ccl1At1U.s 			page 185


 8592 23ea 74       		.byte	0x74
 8593 23eb 00       		.sleb128 0
 8594 23ec 2F       		.uleb128 0x2f
 8595 23ed 01       		.uleb128 0x1
 8596 23ee 51       		.byte	0x51
 8597 23ef 01       		.uleb128 0x1
 8598 23f0 30       		.byte	0x30
 8599 23f1 2F       		.uleb128 0x2f
 8600 23f2 01       		.uleb128 0x1
 8601 23f3 52       		.byte	0x52
 8602 23f4 02       		.uleb128 0x2
 8603 23f5 08       		.byte	0x8
 8604 23f6 6D       		.byte	0x6d
 8605 23f7 00       		.byte	0
 8606 23f8 00       		.byte	0
 8607 23f9 00       		.byte	0
 8608 23fa 35       		.uleb128 0x35
 8609 23fb 41200000 		.4byte	0x2041
 8610 23ff C2000000 		.4byte	.LBB10
 8611 2403 0C000000 		.4byte	.LBE10-.LBB10
 8612 2407 01       		.byte	0x1
 8613 2408 E503     		.2byte	0x3e5
 8614 240a 4B240000 		.4byte	0x244b
 8615 240e 36       		.uleb128 0x36
 8616 240f 5C200000 		.4byte	0x205c
 8617 2413 18020000 		.4byte	.LLST14
 8618 2417 36       		.uleb128 0x36
 8619 2418 51200000 		.4byte	0x2051
 8620 241c 2C020000 		.4byte	.LLST15
 8621 2420 37       		.uleb128 0x37
 8622 2421 C2000000 		.4byte	.LBB11
 8623 2425 0C000000 		.4byte	.LBE11-.LBB11
 8624 2429 39       		.uleb128 0x39
 8625 242a 67200000 		.4byte	0x2067
 8626 242e 31       		.uleb128 0x31
 8627 242f CC000000 		.4byte	.LVL67
 8628 2433 BD380000 		.4byte	0x38bd
 8629 2437 2F       		.uleb128 0x2f
 8630 2438 01       		.uleb128 0x1
 8631 2439 50       		.byte	0x50
 8632 243a 02       		.uleb128 0x2
 8633 243b 74       		.byte	0x74
 8634 243c 00       		.sleb128 0
 8635 243d 2F       		.uleb128 0x2f
 8636 243e 01       		.uleb128 0x1
 8637 243f 51       		.byte	0x51
 8638 2440 01       		.uleb128 0x1
 8639 2441 30       		.byte	0x30
 8640 2442 2F       		.uleb128 0x2f
 8641 2443 01       		.uleb128 0x1
 8642 2444 52       		.byte	0x52
 8643 2445 02       		.uleb128 0x2
 8644 2446 08       		.byte	0x8
 8645 2447 6C       		.byte	0x6c
 8646 2448 00       		.byte	0
 8647 2449 00       		.byte	0
 8648 244a 00       		.byte	0
ARM GAS  C:\Users\haske\AppData\Local\Temp\ccl1At1U.s 			page 186


 8649 244b 2E       		.uleb128 0x2e
 8650 244c E2000000 		.4byte	.LVL70
 8651 2450 B2380000 		.4byte	0x38b2
 8652 2454 5F240000 		.4byte	0x245f
 8653 2458 2F       		.uleb128 0x2f
 8654 2459 01       		.uleb128 0x1
 8655 245a 50       		.byte	0x50
 8656 245b 02       		.uleb128 0x2
 8657 245c 74       		.byte	0x74
 8658 245d 00       		.sleb128 0
 8659 245e 00       		.byte	0
 8660 245f 2E       		.uleb128 0x2e
 8661 2460 12010000 		.4byte	.LVL76
 8662 2464 C8380000 		.4byte	0x38c8
 8663 2468 85240000 		.4byte	0x2485
 8664 246c 2F       		.uleb128 0x2f
 8665 246d 01       		.uleb128 0x1
 8666 246e 50       		.byte	0x50
 8667 246f 02       		.uleb128 0x2
 8668 2470 75       		.byte	0x75
 8669 2471 1C       		.sleb128 28
 8670 2472 2F       		.uleb128 0x2f
 8671 2473 01       		.uleb128 0x1
 8672 2474 51       		.byte	0x51
 8673 2475 02       		.uleb128 0x2
 8674 2476 76       		.byte	0x76
 8675 2477 00       		.sleb128 0
 8676 2478 2F       		.uleb128 0x2f
 8677 2479 01       		.uleb128 0x1
 8678 247a 52       		.byte	0x52
 8679 247b 02       		.uleb128 0x2
 8680 247c 74       		.byte	0x74
 8681 247d 00       		.sleb128 0
 8682 247e 2F       		.uleb128 0x2f
 8683 247f 01       		.uleb128 0x1
 8684 2480 53       		.byte	0x53
 8685 2481 02       		.uleb128 0x2
 8686 2482 91       		.byte	0x91
 8687 2483 64       		.sleb128 -28
 8688 2484 00       		.byte	0
 8689 2485 31       		.uleb128 0x31
 8690 2486 20010000 		.4byte	.LVL77
 8691 248a C8380000 		.4byte	0x38c8
 8692 248e 2F       		.uleb128 0x2f
 8693 248f 01       		.uleb128 0x1
 8694 2490 50       		.byte	0x50
 8695 2491 02       		.uleb128 0x2
 8696 2492 75       		.byte	0x75
 8697 2493 20       		.sleb128 32
 8698 2494 2F       		.uleb128 0x2f
 8699 2495 01       		.uleb128 0x1
 8700 2496 51       		.byte	0x51
 8701 2497 02       		.uleb128 0x2
 8702 2498 76       		.byte	0x76
 8703 2499 00       		.sleb128 0
 8704 249a 2F       		.uleb128 0x2f
 8705 249b 01       		.uleb128 0x1
ARM GAS  C:\Users\haske\AppData\Local\Temp\ccl1At1U.s 			page 187


 8706 249c 52       		.byte	0x52
 8707 249d 02       		.uleb128 0x2
 8708 249e 74       		.byte	0x74
 8709 249f 00       		.sleb128 0
 8710 24a0 2F       		.uleb128 0x2f
 8711 24a1 01       		.uleb128 0x1
 8712 24a2 53       		.byte	0x53
 8713 24a3 02       		.uleb128 0x2
 8714 24a4 91       		.byte	0x91
 8715 24a5 64       		.sleb128 -28
 8716 24a6 00       		.byte	0
 8717 24a7 00       		.byte	0
 8718 24a8 2E       		.uleb128 0x2e
 8719 24a9 1C000000 		.4byte	.LVL49
 8720 24ad A7380000 		.4byte	0x38a7
 8721 24b1 BB240000 		.4byte	0x24bb
 8722 24b5 2F       		.uleb128 0x2f
 8723 24b6 01       		.uleb128 0x1
 8724 24b7 51       		.byte	0x51
 8725 24b8 01       		.uleb128 0x1
 8726 24b9 33       		.byte	0x33
 8727 24ba 00       		.byte	0
 8728 24bb 2E       		.uleb128 0x2e
 8729 24bc 22000000 		.4byte	.LVL50
 8730 24c0 D7200000 		.4byte	0x20d7
 8731 24c4 CF240000 		.4byte	0x24cf
 8732 24c8 2F       		.uleb128 0x2f
 8733 24c9 01       		.uleb128 0x1
 8734 24ca 50       		.byte	0x50
 8735 24cb 02       		.uleb128 0x2
 8736 24cc 75       		.byte	0x75
 8737 24cd 00       		.sleb128 0
 8738 24ce 00       		.byte	0
 8739 24cf 2E       		.uleb128 0x2e
 8740 24d0 52000000 		.4byte	.LVL53
 8741 24d4 A7380000 		.4byte	0x38a7
 8742 24d8 E2240000 		.4byte	0x24e2
 8743 24dc 2F       		.uleb128 0x2f
 8744 24dd 01       		.uleb128 0x1
 8745 24de 51       		.byte	0x51
 8746 24df 01       		.uleb128 0x1
 8747 24e0 38       		.byte	0x38
 8748 24e1 00       		.byte	0
 8749 24e2 2E       		.uleb128 0x2e
 8750 24e3 58000000 		.4byte	.LVL54
 8751 24e7 D7200000 		.4byte	0x20d7
 8752 24eb F6240000 		.4byte	0x24f6
 8753 24ef 2F       		.uleb128 0x2f
 8754 24f0 01       		.uleb128 0x1
 8755 24f1 50       		.byte	0x50
 8756 24f2 02       		.uleb128 0x2
 8757 24f3 75       		.byte	0x75
 8758 24f4 00       		.sleb128 0
 8759 24f5 00       		.byte	0
 8760 24f6 2E       		.uleb128 0x2e
 8761 24f7 74000000 		.4byte	.LVL55
 8762 24fb A7380000 		.4byte	0x38a7
ARM GAS  C:\Users\haske\AppData\Local\Temp\ccl1At1U.s 			page 188


 8763 24ff 09250000 		.4byte	0x2509
 8764 2503 2F       		.uleb128 0x2f
 8765 2504 01       		.uleb128 0x1
 8766 2505 51       		.byte	0x51
 8767 2506 01       		.uleb128 0x1
 8768 2507 34       		.byte	0x34
 8769 2508 00       		.byte	0
 8770 2509 2E       		.uleb128 0x2e
 8771 250a 7A000000 		.4byte	.LVL56
 8772 250e D7200000 		.4byte	0x20d7
 8773 2512 1D250000 		.4byte	0x251d
 8774 2516 2F       		.uleb128 0x2f
 8775 2517 01       		.uleb128 0x1
 8776 2518 50       		.byte	0x50
 8777 2519 02       		.uleb128 0x2
 8778 251a 75       		.byte	0x75
 8779 251b 00       		.sleb128 0
 8780 251c 00       		.byte	0
 8781 251d 2E       		.uleb128 0x2e
 8782 251e 8A000000 		.4byte	.LVL57
 8783 2522 A7380000 		.4byte	0x38a7
 8784 2526 30250000 		.4byte	0x2530
 8785 252a 2F       		.uleb128 0x2f
 8786 252b 01       		.uleb128 0x1
 8787 252c 51       		.byte	0x51
 8788 252d 01       		.uleb128 0x1
 8789 252e 37       		.byte	0x37
 8790 252f 00       		.byte	0
 8791 2530 2E       		.uleb128 0x2e
 8792 2531 90000000 		.4byte	.LVL58
 8793 2535 D7200000 		.4byte	0x20d7
 8794 2539 44250000 		.4byte	0x2544
 8795 253d 2F       		.uleb128 0x2f
 8796 253e 01       		.uleb128 0x1
 8797 253f 50       		.byte	0x50
 8798 2540 02       		.uleb128 0x2
 8799 2541 75       		.byte	0x75
 8800 2542 00       		.sleb128 0
 8801 2543 00       		.byte	0
 8802 2544 2E       		.uleb128 0x2e
 8803 2545 2C010000 		.4byte	.LVL79
 8804 2549 D3380000 		.4byte	0x38d3
 8805 254d 58250000 		.4byte	0x2558
 8806 2551 2F       		.uleb128 0x2f
 8807 2552 01       		.uleb128 0x1
 8808 2553 50       		.byte	0x50
 8809 2554 02       		.uleb128 0x2
 8810 2555 75       		.byte	0x75
 8811 2556 00       		.sleb128 0
 8812 2557 00       		.byte	0
 8813 2558 31       		.uleb128 0x31
 8814 2559 32010000 		.4byte	.LVL80
 8815 255d D7200000 		.4byte	0x20d7
 8816 2561 2F       		.uleb128 0x2f
 8817 2562 01       		.uleb128 0x1
 8818 2563 50       		.byte	0x50
 8819 2564 02       		.uleb128 0x2
ARM GAS  C:\Users\haske\AppData\Local\Temp\ccl1At1U.s 			page 189


 8820 2565 75       		.byte	0x75
 8821 2566 00       		.sleb128 0
 8822 2567 00       		.byte	0
 8823 2568 00       		.byte	0
 8824 2569 29       		.uleb128 0x29
 8825 256a CE120000 		.4byte	.LASF600
 8826 256e 01       		.byte	0x1
 8827 256f 8C01     		.2byte	0x18c
 8828 2571 00000000 		.4byte	.LFB185
 8829 2575 94020000 		.4byte	.LFE185-.LFB185
 8830 2579 01       		.uleb128 0x1
 8831 257a 9C       		.byte	0x9c
 8832 257b F6280000 		.4byte	0x28f6
 8833 257f 3A       		.uleb128 0x3a
 8834 2580 6900     		.ascii	"i\000"
 8835 2582 01       		.byte	0x1
 8836 2583 8C01     		.2byte	0x18c
 8837 2585 D1200000 		.4byte	0x20d1
 8838 2589 3F020000 		.4byte	.LLST16
 8839 258d 2C       		.uleb128 0x2c
 8840 258e A8270000 		.4byte	.LASF601
 8841 2592 01       		.byte	0x1
 8842 2593 8C01     		.2byte	0x18c
 8843 2595 88170000 		.4byte	0x1788
 8844 2599 9B020000 		.4byte	.LLST17
 8845 259d 3B       		.uleb128 0x3b
 8846 259e 6700     		.ascii	"g\000"
 8847 25a0 01       		.byte	0x1
 8848 25a1 9701     		.2byte	0x197
 8849 25a3 DC1F0000 		.4byte	0x1fdc
 8850 25a7 C7020000 		.4byte	.LLST18
 8851 25ab 3B       		.uleb128 0x3b
 8852 25ac 64697300 		.ascii	"dis\000"
 8853 25b0 01       		.byte	0x1
 8854 25b1 9D01     		.2byte	0x19d
 8855 25b3 E7020000 		.4byte	0x2e7
 8856 25b7 DA020000 		.4byte	.LLST19
 8857 25bb 2D       		.uleb128 0x2d
 8858 25bc 32200000 		.4byte	.LASF602
 8859 25c0 01       		.byte	0x1
 8860 25c1 A001     		.2byte	0x1a0
 8861 25c3 E4000000 		.4byte	0xe4
 8862 25c7 24030000 		.4byte	.LLST20
 8863 25cb 2D       		.uleb128 0x2d
 8864 25cc 131F0000 		.4byte	.LASF603
 8865 25d0 01       		.byte	0x1
 8866 25d1 A901     		.2byte	0x1a9
 8867 25d3 E4000000 		.4byte	0xe4
 8868 25d7 59030000 		.4byte	.LLST21
 8869 25db 2E       		.uleb128 0x2e
 8870 25dc 3A000000 		.4byte	.LVL86
 8871 25e0 DE380000 		.4byte	0x38de
 8872 25e4 EF250000 		.4byte	0x25ef
 8873 25e8 2F       		.uleb128 0x2f
 8874 25e9 01       		.uleb128 0x1
 8875 25ea 50       		.byte	0x50
 8876 25eb 02       		.uleb128 0x2
ARM GAS  C:\Users\haske\AppData\Local\Temp\ccl1At1U.s 			page 190


 8877 25ec 77       		.byte	0x77
 8878 25ed 00       		.sleb128 0
 8879 25ee 00       		.byte	0
 8880 25ef 2E       		.uleb128 0x2e
 8881 25f0 4A000000 		.4byte	.LVL87
 8882 25f4 E9380000 		.4byte	0x38e9
 8883 25f8 03260000 		.4byte	0x2603
 8884 25fc 2F       		.uleb128 0x2f
 8885 25fd 01       		.uleb128 0x1
 8886 25fe 51       		.byte	0x51
 8887 25ff 02       		.uleb128 0x2
 8888 2600 08       		.byte	0x8
 8889 2601 80       		.byte	0x80
 8890 2602 00       		.byte	0
 8891 2603 30       		.uleb128 0x30
 8892 2604 66000000 		.4byte	.LVL91
 8893 2608 F5380000 		.4byte	0x38f5
 8894 260c 2E       		.uleb128 0x2e
 8895 260d 76000000 		.4byte	.LVL92
 8896 2611 00390000 		.4byte	0x3900
 8897 2615 25260000 		.4byte	0x2625
 8898 2619 2F       		.uleb128 0x2f
 8899 261a 01       		.uleb128 0x1
 8900 261b 50       		.byte	0x50
 8901 261c 02       		.uleb128 0x2
 8902 261d 77       		.byte	0x77
 8903 261e 00       		.sleb128 0
 8904 261f 2F       		.uleb128 0x2f
 8905 2620 01       		.uleb128 0x1
 8906 2621 51       		.byte	0x51
 8907 2622 01       		.uleb128 0x1
 8908 2623 30       		.byte	0x30
 8909 2624 00       		.byte	0
 8910 2625 2E       		.uleb128 0x2e
 8911 2626 7C000000 		.4byte	.LVL93
 8912 262a 0B390000 		.4byte	0x390b
 8913 262e 39260000 		.4byte	0x2639
 8914 2632 2F       		.uleb128 0x2f
 8915 2633 01       		.uleb128 0x1
 8916 2634 50       		.byte	0x50
 8917 2635 02       		.uleb128 0x2
 8918 2636 77       		.byte	0x77
 8919 2637 00       		.sleb128 0
 8920 2638 00       		.byte	0
 8921 2639 2E       		.uleb128 0x2e
 8922 263a 82000000 		.4byte	.LVL94
 8923 263e D7200000 		.4byte	0x20d7
 8924 2642 4D260000 		.4byte	0x264d
 8925 2646 2F       		.uleb128 0x2f
 8926 2647 01       		.uleb128 0x1
 8927 2648 50       		.byte	0x50
 8928 2649 02       		.uleb128 0x2
 8929 264a 74       		.byte	0x74
 8930 264b 04       		.sleb128 4
 8931 264c 00       		.byte	0
 8932 264d 2E       		.uleb128 0x2e
 8933 264e 96000000 		.4byte	.LVL95
ARM GAS  C:\Users\haske\AppData\Local\Temp\ccl1At1U.s 			page 191


 8934 2652 00390000 		.4byte	0x3900
 8935 2656 66260000 		.4byte	0x2666
 8936 265a 2F       		.uleb128 0x2f
 8937 265b 01       		.uleb128 0x1
 8938 265c 50       		.byte	0x50
 8939 265d 02       		.uleb128 0x2
 8940 265e 77       		.byte	0x77
 8941 265f 00       		.sleb128 0
 8942 2660 2F       		.uleb128 0x2f
 8943 2661 01       		.uleb128 0x1
 8944 2662 51       		.byte	0x51
 8945 2663 01       		.uleb128 0x1
 8946 2664 30       		.byte	0x30
 8947 2665 00       		.byte	0
 8948 2666 2E       		.uleb128 0x2e
 8949 2667 9C000000 		.4byte	.LVL96
 8950 266b 16390000 		.4byte	0x3916
 8951 266f 7A260000 		.4byte	0x267a
 8952 2673 2F       		.uleb128 0x2f
 8953 2674 01       		.uleb128 0x1
 8954 2675 50       		.byte	0x50
 8955 2676 02       		.uleb128 0x2
 8956 2677 77       		.byte	0x77
 8957 2678 00       		.sleb128 0
 8958 2679 00       		.byte	0
 8959 267a 2E       		.uleb128 0x2e
 8960 267b A2000000 		.4byte	.LVL97
 8961 267f D7200000 		.4byte	0x20d7
 8962 2683 8E260000 		.4byte	0x268e
 8963 2687 2F       		.uleb128 0x2f
 8964 2688 01       		.uleb128 0x1
 8965 2689 50       		.byte	0x50
 8966 268a 02       		.uleb128 0x2
 8967 268b 74       		.byte	0x74
 8968 268c 04       		.sleb128 4
 8969 268d 00       		.byte	0
 8970 268e 2E       		.uleb128 0x2e
 8971 268f BA000000 		.4byte	.LVL98
 8972 2693 21390000 		.4byte	0x3921
 8973 2697 A2260000 		.4byte	0x26a2
 8974 269b 2F       		.uleb128 0x2f
 8975 269c 01       		.uleb128 0x1
 8976 269d 50       		.byte	0x50
 8977 269e 02       		.uleb128 0x2
 8978 269f 77       		.byte	0x77
 8979 26a0 00       		.sleb128 0
 8980 26a1 00       		.byte	0
 8981 26a2 2E       		.uleb128 0x2e
 8982 26a3 C2000000 		.4byte	.LVL100
 8983 26a7 D7200000 		.4byte	0x20d7
 8984 26ab B6260000 		.4byte	0x26b6
 8985 26af 2F       		.uleb128 0x2f
 8986 26b0 01       		.uleb128 0x1
 8987 26b1 50       		.byte	0x50
 8988 26b2 02       		.uleb128 0x2
 8989 26b3 74       		.byte	0x74
 8990 26b4 00       		.sleb128 0
ARM GAS  C:\Users\haske\AppData\Local\Temp\ccl1At1U.s 			page 192


 8991 26b5 00       		.byte	0
 8992 26b6 2E       		.uleb128 0x2e
 8993 26b7 D8000000 		.4byte	.LVL101
 8994 26bb A7380000 		.4byte	0x38a7
 8995 26bf C9260000 		.4byte	0x26c9
 8996 26c3 2F       		.uleb128 0x2f
 8997 26c4 01       		.uleb128 0x1
 8998 26c5 51       		.byte	0x51
 8999 26c6 01       		.uleb128 0x1
 9000 26c7 31       		.byte	0x31
 9001 26c8 00       		.byte	0
 9002 26c9 2E       		.uleb128 0x2e
 9003 26ca DE000000 		.4byte	.LVL102
 9004 26ce D7200000 		.4byte	0x20d7
 9005 26d2 DD260000 		.4byte	0x26dd
 9006 26d6 2F       		.uleb128 0x2f
 9007 26d7 01       		.uleb128 0x1
 9008 26d8 50       		.byte	0x50
 9009 26d9 02       		.uleb128 0x2
 9010 26da 74       		.byte	0x74
 9011 26db 00       		.sleb128 0
 9012 26dc 00       		.byte	0
 9013 26dd 2E       		.uleb128 0x2e
 9014 26de F0000000 		.4byte	.LVL104
 9015 26e2 21390000 		.4byte	0x3921
 9016 26e6 F1260000 		.4byte	0x26f1
 9017 26ea 2F       		.uleb128 0x2f
 9018 26eb 01       		.uleb128 0x1
 9019 26ec 50       		.byte	0x50
 9020 26ed 02       		.uleb128 0x2
 9021 26ee 77       		.byte	0x77
 9022 26ef 00       		.sleb128 0
 9023 26f0 00       		.byte	0
 9024 26f1 2E       		.uleb128 0x2e
 9025 26f2 F8000000 		.4byte	.LVL106
 9026 26f6 D7200000 		.4byte	0x20d7
 9027 26fa 05270000 		.4byte	0x2705
 9028 26fe 2F       		.uleb128 0x2f
 9029 26ff 01       		.uleb128 0x1
 9030 2700 50       		.byte	0x50
 9031 2701 02       		.uleb128 0x2
 9032 2702 74       		.byte	0x74
 9033 2703 00       		.sleb128 0
 9034 2704 00       		.byte	0
 9035 2705 2E       		.uleb128 0x2e
 9036 2706 0A010000 		.4byte	.LVL107
 9037 270a A7380000 		.4byte	0x38a7
 9038 270e 19270000 		.4byte	0x2719
 9039 2712 2F       		.uleb128 0x2f
 9040 2713 01       		.uleb128 0x1
 9041 2714 51       		.byte	0x51
 9042 2715 02       		.uleb128 0x2
 9043 2716 08       		.byte	0x8
 9044 2717 20       		.byte	0x20
 9045 2718 00       		.byte	0
 9046 2719 2E       		.uleb128 0x2e
 9047 271a 10010000 		.4byte	.LVL108
ARM GAS  C:\Users\haske\AppData\Local\Temp\ccl1At1U.s 			page 193


 9048 271e D7200000 		.4byte	0x20d7
 9049 2722 2D270000 		.4byte	0x272d
 9050 2726 2F       		.uleb128 0x2f
 9051 2727 01       		.uleb128 0x1
 9052 2728 50       		.byte	0x50
 9053 2729 02       		.uleb128 0x2
 9054 272a 74       		.byte	0x74
 9055 272b 00       		.sleb128 0
 9056 272c 00       		.byte	0
 9057 272d 2E       		.uleb128 0x2e
 9058 272e 1E010000 		.4byte	.LVL110
 9059 2732 21390000 		.4byte	0x3921
 9060 2736 41270000 		.4byte	0x2741
 9061 273a 2F       		.uleb128 0x2f
 9062 273b 01       		.uleb128 0x1
 9063 273c 50       		.byte	0x50
 9064 273d 02       		.uleb128 0x2
 9065 273e 77       		.byte	0x77
 9066 273f 00       		.sleb128 0
 9067 2740 00       		.byte	0
 9068 2741 2E       		.uleb128 0x2e
 9069 2742 24010000 		.4byte	.LVL111
 9070 2746 D7200000 		.4byte	0x20d7
 9071 274a 55270000 		.4byte	0x2755
 9072 274e 2F       		.uleb128 0x2f
 9073 274f 01       		.uleb128 0x1
 9074 2750 50       		.byte	0x50
 9075 2751 02       		.uleb128 0x2
 9076 2752 74       		.byte	0x74
 9077 2753 04       		.sleb128 4
 9078 2754 00       		.byte	0
 9079 2755 2E       		.uleb128 0x2e
 9080 2756 4A010000 		.4byte	.LVL116
 9081 275a A7380000 		.4byte	0x38a7
 9082 275e 68270000 		.4byte	0x2768
 9083 2762 2F       		.uleb128 0x2f
 9084 2763 01       		.uleb128 0x1
 9085 2764 51       		.byte	0x51
 9086 2765 01       		.uleb128 0x1
 9087 2766 32       		.byte	0x32
 9088 2767 00       		.byte	0
 9089 2768 2E       		.uleb128 0x2e
 9090 2769 50010000 		.4byte	.LVL117
 9091 276d D7200000 		.4byte	0x20d7
 9092 2771 7C270000 		.4byte	0x277c
 9093 2775 2F       		.uleb128 0x2f
 9094 2776 01       		.uleb128 0x1
 9095 2777 50       		.byte	0x50
 9096 2778 02       		.uleb128 0x2
 9097 2779 74       		.byte	0x74
 9098 277a 04       		.sleb128 4
 9099 277b 00       		.byte	0
 9100 277c 30       		.uleb128 0x30
 9101 277d 62010000 		.4byte	.LVL118
 9102 2781 2C390000 		.4byte	0x392c
 9103 2785 30       		.uleb128 0x30
 9104 2786 7E010000 		.4byte	.LVL119
ARM GAS  C:\Users\haske\AppData\Local\Temp\ccl1At1U.s 			page 194


 9105 278a F5380000 		.4byte	0x38f5
 9106 278e 2E       		.uleb128 0x2e
 9107 278f 8C010000 		.4byte	.LVL120
 9108 2793 A7380000 		.4byte	0x38a7
 9109 2797 A1270000 		.4byte	0x27a1
 9110 279b 2F       		.uleb128 0x2f
 9111 279c 01       		.uleb128 0x1
 9112 279d 51       		.byte	0x51
 9113 279e 01       		.uleb128 0x1
 9114 279f 35       		.byte	0x35
 9115 27a0 00       		.byte	0
 9116 27a1 2E       		.uleb128 0x2e
 9117 27a2 92010000 		.4byte	.LVL121
 9118 27a6 D7200000 		.4byte	0x20d7
 9119 27aa B5270000 		.4byte	0x27b5
 9120 27ae 2F       		.uleb128 0x2f
 9121 27af 01       		.uleb128 0x1
 9122 27b0 50       		.byte	0x50
 9123 27b1 02       		.uleb128 0x2
 9124 27b2 74       		.byte	0x74
 9125 27b3 04       		.sleb128 4
 9126 27b4 00       		.byte	0
 9127 27b5 30       		.uleb128 0x30
 9128 27b6 A4010000 		.4byte	.LVL122
 9129 27ba 2C390000 		.4byte	0x392c
 9130 27be 30       		.uleb128 0x30
 9131 27bf B0010000 		.4byte	.LVL123
 9132 27c3 F5380000 		.4byte	0x38f5
 9133 27c7 30       		.uleb128 0x30
 9134 27c8 C4010000 		.4byte	.LVL124
 9135 27cc A7380000 		.4byte	0x38a7
 9136 27d0 2E       		.uleb128 0x2e
 9137 27d1 CA010000 		.4byte	.LVL125
 9138 27d5 D7200000 		.4byte	0x20d7
 9139 27d9 E4270000 		.4byte	0x27e4
 9140 27dd 2F       		.uleb128 0x2f
 9141 27de 01       		.uleb128 0x1
 9142 27df 50       		.byte	0x50
 9143 27e0 02       		.uleb128 0x2
 9144 27e1 74       		.byte	0x74
 9145 27e2 04       		.sleb128 4
 9146 27e3 00       		.byte	0
 9147 27e4 2E       		.uleb128 0x2e
 9148 27e5 DC010000 		.4byte	.LVL126
 9149 27e9 00390000 		.4byte	0x3900
 9150 27ed FD270000 		.4byte	0x27fd
 9151 27f1 2F       		.uleb128 0x2f
 9152 27f2 01       		.uleb128 0x1
 9153 27f3 50       		.byte	0x50
 9154 27f4 02       		.uleb128 0x2
 9155 27f5 77       		.byte	0x77
 9156 27f6 00       		.sleb128 0
 9157 27f7 2F       		.uleb128 0x2f
 9158 27f8 01       		.uleb128 0x1
 9159 27f9 51       		.byte	0x51
 9160 27fa 01       		.uleb128 0x1
 9161 27fb 30       		.byte	0x30
ARM GAS  C:\Users\haske\AppData\Local\Temp\ccl1At1U.s 			page 195


 9162 27fc 00       		.byte	0
 9163 27fd 2E       		.uleb128 0x2e
 9164 27fe E2010000 		.4byte	.LVL127
 9165 2802 0B390000 		.4byte	0x390b
 9166 2806 11280000 		.4byte	0x2811
 9167 280a 2F       		.uleb128 0x2f
 9168 280b 01       		.uleb128 0x1
 9169 280c 50       		.byte	0x50
 9170 280d 02       		.uleb128 0x2
 9171 280e 77       		.byte	0x77
 9172 280f 00       		.sleb128 0
 9173 2810 00       		.byte	0
 9174 2811 2E       		.uleb128 0x2e
 9175 2812 E8010000 		.4byte	.LVL128
 9176 2816 D7200000 		.4byte	0x20d7
 9177 281a 25280000 		.4byte	0x2825
 9178 281e 2F       		.uleb128 0x2f
 9179 281f 01       		.uleb128 0x1
 9180 2820 50       		.byte	0x50
 9181 2821 02       		.uleb128 0x2
 9182 2822 74       		.byte	0x74
 9183 2823 04       		.sleb128 4
 9184 2824 00       		.byte	0
 9185 2825 2E       		.uleb128 0x2e
 9186 2826 FA010000 		.4byte	.LVL129
 9187 282a 00390000 		.4byte	0x3900
 9188 282e 3E280000 		.4byte	0x283e
 9189 2832 2F       		.uleb128 0x2f
 9190 2833 01       		.uleb128 0x1
 9191 2834 50       		.byte	0x50
 9192 2835 02       		.uleb128 0x2
 9193 2836 77       		.byte	0x77
 9194 2837 00       		.sleb128 0
 9195 2838 2F       		.uleb128 0x2f
 9196 2839 01       		.uleb128 0x1
 9197 283a 51       		.byte	0x51
 9198 283b 01       		.uleb128 0x1
 9199 283c 30       		.byte	0x30
 9200 283d 00       		.byte	0
 9201 283e 2E       		.uleb128 0x2e
 9202 283f 00020000 		.4byte	.LVL130
 9203 2843 16390000 		.4byte	0x3916
 9204 2847 52280000 		.4byte	0x2852
 9205 284b 2F       		.uleb128 0x2f
 9206 284c 01       		.uleb128 0x1
 9207 284d 50       		.byte	0x50
 9208 284e 02       		.uleb128 0x2
 9209 284f 77       		.byte	0x77
 9210 2850 00       		.sleb128 0
 9211 2851 00       		.byte	0
 9212 2852 2E       		.uleb128 0x2e
 9213 2853 06020000 		.4byte	.LVL131
 9214 2857 D7200000 		.4byte	0x20d7
 9215 285b 66280000 		.4byte	0x2866
 9216 285f 2F       		.uleb128 0x2f
 9217 2860 01       		.uleb128 0x1
 9218 2861 50       		.byte	0x50
ARM GAS  C:\Users\haske\AppData\Local\Temp\ccl1At1U.s 			page 196


 9219 2862 02       		.uleb128 0x2
 9220 2863 74       		.byte	0x74
 9221 2864 04       		.sleb128 4
 9222 2865 00       		.byte	0
 9223 2866 2E       		.uleb128 0x2e
 9224 2867 12020000 		.4byte	.LVL132
 9225 286b 21390000 		.4byte	0x3921
 9226 286f 7A280000 		.4byte	0x287a
 9227 2873 2F       		.uleb128 0x2f
 9228 2874 01       		.uleb128 0x1
 9229 2875 50       		.byte	0x50
 9230 2876 02       		.uleb128 0x2
 9231 2877 77       		.byte	0x77
 9232 2878 00       		.sleb128 0
 9233 2879 00       		.byte	0
 9234 287a 2E       		.uleb128 0x2e
 9235 287b 18020000 		.4byte	.LVL133
 9236 287f D7200000 		.4byte	0x20d7
 9237 2883 8E280000 		.4byte	0x288e
 9238 2887 2F       		.uleb128 0x2f
 9239 2888 01       		.uleb128 0x1
 9240 2889 50       		.byte	0x50
 9241 288a 02       		.uleb128 0x2
 9242 288b 74       		.byte	0x74
 9243 288c 04       		.sleb128 4
 9244 288d 00       		.byte	0
 9245 288e 30       		.uleb128 0x30
 9246 288f 3C020000 		.4byte	.LVL138
 9247 2893 A7380000 		.4byte	0x38a7
 9248 2897 2E       		.uleb128 0x2e
 9249 2898 44020000 		.4byte	.LVL140
 9250 289c D7200000 		.4byte	0x20d7
 9251 28a0 AB280000 		.4byte	0x28ab
 9252 28a4 2F       		.uleb128 0x2f
 9253 28a5 01       		.uleb128 0x1
 9254 28a6 50       		.byte	0x50
 9255 28a7 02       		.uleb128 0x2
 9256 28a8 75       		.byte	0x75
 9257 28a9 00       		.sleb128 0
 9258 28aa 00       		.byte	0
 9259 28ab 2E       		.uleb128 0x2e
 9260 28ac 5A020000 		.4byte	.LVL141
 9261 28b0 A7380000 		.4byte	0x38a7
 9262 28b4 BE280000 		.4byte	0x28be
 9263 28b8 2F       		.uleb128 0x2f
 9264 28b9 01       		.uleb128 0x1
 9265 28ba 51       		.byte	0x51
 9266 28bb 01       		.uleb128 0x1
 9267 28bc 34       		.byte	0x34
 9268 28bd 00       		.byte	0
 9269 28be 2E       		.uleb128 0x2e
 9270 28bf 60020000 		.4byte	.LVL142
 9271 28c3 D7200000 		.4byte	0x20d7
 9272 28c7 D2280000 		.4byte	0x28d2
 9273 28cb 2F       		.uleb128 0x2f
 9274 28cc 01       		.uleb128 0x1
 9275 28cd 50       		.byte	0x50
ARM GAS  C:\Users\haske\AppData\Local\Temp\ccl1At1U.s 			page 197


 9276 28ce 02       		.uleb128 0x2
 9277 28cf 75       		.byte	0x75
 9278 28d0 00       		.sleb128 0
 9279 28d1 00       		.byte	0
 9280 28d2 2E       		.uleb128 0x2e
 9281 28d3 70020000 		.4byte	.LVL143
 9282 28d7 A7380000 		.4byte	0x38a7
 9283 28db E5280000 		.4byte	0x28e5
 9284 28df 2F       		.uleb128 0x2f
 9285 28e0 01       		.uleb128 0x1
 9286 28e1 51       		.byte	0x51
 9287 28e2 01       		.uleb128 0x1
 9288 28e3 37       		.byte	0x37
 9289 28e4 00       		.byte	0
 9290 28e5 31       		.uleb128 0x31
 9291 28e6 76020000 		.4byte	.LVL144
 9292 28ea D7200000 		.4byte	0x20d7
 9293 28ee 2F       		.uleb128 0x2f
 9294 28ef 01       		.uleb128 0x1
 9295 28f0 50       		.byte	0x50
 9296 28f1 02       		.uleb128 0x2
 9297 28f2 75       		.byte	0x75
 9298 28f3 00       		.sleb128 0
 9299 28f4 00       		.byte	0
 9300 28f5 00       		.byte	0
 9301 28f6 29       		.uleb128 0x29
 9302 28f7 61070000 		.4byte	.LASF604
 9303 28fb 01       		.byte	0x1
 9304 28fc 2302     		.2byte	0x223
 9305 28fe 00000000 		.4byte	.LFB186
 9306 2902 34040000 		.4byte	.LFE186-.LFB186
 9307 2906 01       		.uleb128 0x1
 9308 2907 9C       		.byte	0x9c
 9309 2908 052E0000 		.4byte	0x2e05
 9310 290c 3A       		.uleb128 0x3a
 9311 290d 6900     		.ascii	"i\000"
 9312 290f 01       		.byte	0x1
 9313 2910 2302     		.2byte	0x223
 9314 2912 D1200000 		.4byte	0x20d1
 9315 2916 82030000 		.4byte	.LLST22
 9316 291a 2C       		.uleb128 0x2c
 9317 291b A8270000 		.4byte	.LASF601
 9318 291f 01       		.byte	0x1
 9319 2920 2302     		.2byte	0x223
 9320 2922 88170000 		.4byte	0x1788
 9321 2926 AE030000 		.4byte	.LLST23
 9322 292a 2D       		.uleb128 0x2d
 9323 292b 401B0000 		.4byte	.LASF412
 9324 292f 01       		.byte	0x1
 9325 2930 3002     		.2byte	0x230
 9326 2932 6E160000 		.4byte	0x166e
 9327 2936 DA030000 		.4byte	.LLST24
 9328 293a 3B       		.uleb128 0x3b
 9329 293b 6700     		.ascii	"g\000"
 9330 293d 01       		.byte	0x1
 9331 293e 3402     		.2byte	0x234
 9332 2940 DC1F0000 		.4byte	0x1fdc
ARM GAS  C:\Users\haske\AppData\Local\Temp\ccl1At1U.s 			page 198


 9333 2944 24040000 		.4byte	.LLST25
 9334 2948 33       		.uleb128 0x33
 9335 2949 7E000000 		.4byte	.LBB12
 9336 294d 4C000000 		.4byte	.LBE12-.LBB12
 9337 2951 B9290000 		.4byte	0x29b9
 9338 2955 2D       		.uleb128 0x2d
 9339 2956 F1030000 		.4byte	.LASF605
 9340 295a 01       		.byte	0x1
 9341 295b 4A02     		.2byte	0x24a
 9342 295d E7020000 		.4byte	0x2e7
 9343 2961 37040000 		.4byte	.LLST26
 9344 2965 30       		.uleb128 0x30
 9345 2966 86000000 		.4byte	.LVL155
 9346 296a 37390000 		.4byte	0x3937
 9347 296e 2E       		.uleb128 0x2e
 9348 296f 94000000 		.4byte	.LVL156
 9349 2973 84380000 		.4byte	0x3884
 9350 2977 81290000 		.4byte	0x2981
 9351 297b 2F       		.uleb128 0x2f
 9352 297c 01       		.uleb128 0x1
 9353 297d 51       		.byte	0x51
 9354 297e 01       		.uleb128 0x1
 9355 297f 40       		.byte	0x40
 9356 2980 00       		.byte	0
 9357 2981 2E       		.uleb128 0x2e
 9358 2982 A6000000 		.4byte	.LVL160
 9359 2986 42390000 		.4byte	0x3942
 9360 298a 95290000 		.4byte	0x2995
 9361 298e 2F       		.uleb128 0x2f
 9362 298f 01       		.uleb128 0x1
 9363 2990 50       		.byte	0x50
 9364 2991 02       		.uleb128 0x2
 9365 2992 76       		.byte	0x76
 9366 2993 00       		.sleb128 0
 9367 2994 00       		.byte	0
 9368 2995 2E       		.uleb128 0x2e
 9369 2996 BC000000 		.4byte	.LVL161
 9370 299a A7380000 		.4byte	0x38a7
 9371 299e A8290000 		.4byte	0x29a8
 9372 29a2 2F       		.uleb128 0x2f
 9373 29a3 01       		.uleb128 0x1
 9374 29a4 51       		.byte	0x51
 9375 29a5 01       		.uleb128 0x1
 9376 29a6 31       		.byte	0x31
 9377 29a7 00       		.byte	0
 9378 29a8 31       		.uleb128 0x31
 9379 29a9 C2000000 		.4byte	.LVL162
 9380 29ad D7200000 		.4byte	0x20d7
 9381 29b1 2F       		.uleb128 0x2f
 9382 29b2 01       		.uleb128 0x1
 9383 29b3 50       		.byte	0x50
 9384 29b4 02       		.uleb128 0x2
 9385 29b5 74       		.byte	0x74
 9386 29b6 04       		.sleb128 4
 9387 29b7 00       		.byte	0
 9388 29b8 00       		.byte	0
 9389 29b9 33       		.uleb128 0x33
ARM GAS  C:\Users\haske\AppData\Local\Temp\ccl1At1U.s 			page 199


 9390 29ba 60010000 		.4byte	.LBB13
 9391 29be 6C000000 		.4byte	.LBE13-.LBB13
 9392 29c2 662A0000 		.4byte	0x2a66
 9393 29c6 2D       		.uleb128 0x2d
 9394 29c7 F1030000 		.4byte	.LASF605
 9395 29cb 01       		.byte	0x1
 9396 29cc 7002     		.2byte	0x270
 9397 29ce E7020000 		.4byte	0x2e7
 9398 29d2 4A040000 		.4byte	.LLST27
 9399 29d6 30       		.uleb128 0x30
 9400 29d7 68010000 		.4byte	.LVL174
 9401 29db 37390000 		.4byte	0x3937
 9402 29df 2E       		.uleb128 0x2e
 9403 29e0 76010000 		.4byte	.LVL175
 9404 29e4 84380000 		.4byte	0x3884
 9405 29e8 F2290000 		.4byte	0x29f2
 9406 29ec 2F       		.uleb128 0x2f
 9407 29ed 01       		.uleb128 0x1
 9408 29ee 51       		.byte	0x51
 9409 29ef 01       		.uleb128 0x1
 9410 29f0 40       		.byte	0x40
 9411 29f1 00       		.byte	0
 9412 29f2 2E       		.uleb128 0x2e
 9413 29f3 8E010000 		.4byte	.LVL177
 9414 29f7 4D390000 		.4byte	0x394d
 9415 29fb 062A0000 		.4byte	0x2a06
 9416 29ff 2F       		.uleb128 0x2f
 9417 2a00 01       		.uleb128 0x1
 9418 2a01 50       		.byte	0x50
 9419 2a02 02       		.uleb128 0x2
 9420 2a03 76       		.byte	0x76
 9421 2a04 00       		.sleb128 0
 9422 2a05 00       		.byte	0
 9423 2a06 2E       		.uleb128 0x2e
 9424 2a07 98010000 		.4byte	.LVL178
 9425 2a0b 42390000 		.4byte	0x3942
 9426 2a0f 1A2A0000 		.4byte	0x2a1a
 9427 2a13 2F       		.uleb128 0x2f
 9428 2a14 01       		.uleb128 0x1
 9429 2a15 50       		.byte	0x50
 9430 2a16 02       		.uleb128 0x2
 9431 2a17 76       		.byte	0x76
 9432 2a18 00       		.sleb128 0
 9433 2a19 00       		.byte	0
 9434 2a1a 2E       		.uleb128 0x2e
 9435 2a1b A8010000 		.4byte	.LVL179
 9436 2a1f 00390000 		.4byte	0x3900
 9437 2a23 2E2A0000 		.4byte	0x2a2e
 9438 2a27 2F       		.uleb128 0x2f
 9439 2a28 01       		.uleb128 0x1
 9440 2a29 50       		.byte	0x50
 9441 2a2a 02       		.uleb128 0x2
 9442 2a2b 76       		.byte	0x76
 9443 2a2c 00       		.sleb128 0
 9444 2a2d 00       		.byte	0
 9445 2a2e 2E       		.uleb128 0x2e
 9446 2a2f B2010000 		.4byte	.LVL180
ARM GAS  C:\Users\haske\AppData\Local\Temp\ccl1At1U.s 			page 200


 9447 2a33 59390000 		.4byte	0x3959
 9448 2a37 422A0000 		.4byte	0x2a42
 9449 2a3b 2F       		.uleb128 0x2f
 9450 2a3c 01       		.uleb128 0x1
 9451 2a3d 51       		.byte	0x51
 9452 2a3e 02       		.uleb128 0x2
 9453 2a3f 08       		.byte	0x8
 9454 2a40 20       		.byte	0x20
 9455 2a41 00       		.byte	0
 9456 2a42 2E       		.uleb128 0x2e
 9457 2a43 C0010000 		.4byte	.LVL183
 9458 2a47 A7380000 		.4byte	0x38a7
 9459 2a4b 552A0000 		.4byte	0x2a55
 9460 2a4f 2F       		.uleb128 0x2f
 9461 2a50 01       		.uleb128 0x1
 9462 2a51 51       		.byte	0x51
 9463 2a52 01       		.uleb128 0x1
 9464 2a53 35       		.byte	0x35
 9465 2a54 00       		.byte	0
 9466 2a55 31       		.uleb128 0x31
 9467 2a56 C6010000 		.4byte	.LVL184
 9468 2a5a D7200000 		.4byte	0x20d7
 9469 2a5e 2F       		.uleb128 0x2f
 9470 2a5f 01       		.uleb128 0x1
 9471 2a60 50       		.byte	0x50
 9472 2a61 02       		.uleb128 0x2
 9473 2a62 74       		.byte	0x74
 9474 2a63 04       		.sleb128 4
 9475 2a64 00       		.byte	0
 9476 2a65 00       		.byte	0
 9477 2a66 33       		.uleb128 0x33
 9478 2a67 58020000 		.4byte	.LBB14
 9479 2a6b 0A010000 		.4byte	.LBE14-.LBB14
 9480 2a6f 082C0000 		.4byte	0x2c08
 9481 2a73 2D       		.uleb128 0x2d
 9482 2a74 F1030000 		.4byte	.LASF605
 9483 2a78 01       		.byte	0x1
 9484 2a79 A302     		.2byte	0x2a3
 9485 2a7b E7020000 		.4byte	0x2e7
 9486 2a7f 68040000 		.4byte	.LLST28
 9487 2a83 30       		.uleb128 0x30
 9488 2a84 5C020000 		.4byte	.LVL191
 9489 2a88 37390000 		.4byte	0x3937
 9490 2a8c 2E       		.uleb128 0x2e
 9491 2a8d 6A020000 		.4byte	.LVL192
 9492 2a91 84380000 		.4byte	0x3884
 9493 2a95 9F2A0000 		.4byte	0x2a9f
 9494 2a99 2F       		.uleb128 0x2f
 9495 2a9a 01       		.uleb128 0x1
 9496 2a9b 51       		.byte	0x51
 9497 2a9c 01       		.uleb128 0x1
 9498 2a9d 40       		.byte	0x40
 9499 2a9e 00       		.byte	0
 9500 2a9f 2E       		.uleb128 0x2e
 9501 2aa0 88020000 		.4byte	.LVL195
 9502 2aa4 A7380000 		.4byte	0x38a7
 9503 2aa8 B22A0000 		.4byte	0x2ab2
ARM GAS  C:\Users\haske\AppData\Local\Temp\ccl1At1U.s 			page 201


 9504 2aac 2F       		.uleb128 0x2f
 9505 2aad 01       		.uleb128 0x1
 9506 2aae 51       		.byte	0x51
 9507 2aaf 01       		.uleb128 0x1
 9508 2ab0 38       		.byte	0x38
 9509 2ab1 00       		.byte	0
 9510 2ab2 2E       		.uleb128 0x2e
 9511 2ab3 90020000 		.4byte	.LVL197
 9512 2ab7 D7200000 		.4byte	0x20d7
 9513 2abb C62A0000 		.4byte	0x2ac6
 9514 2abf 2F       		.uleb128 0x2f
 9515 2ac0 01       		.uleb128 0x1
 9516 2ac1 50       		.byte	0x50
 9517 2ac2 02       		.uleb128 0x2
 9518 2ac3 77       		.byte	0x77
 9519 2ac4 00       		.sleb128 0
 9520 2ac5 00       		.byte	0
 9521 2ac6 2E       		.uleb128 0x2e
 9522 2ac7 A8020000 		.4byte	.LVL198
 9523 2acb A7380000 		.4byte	0x38a7
 9524 2acf D92A0000 		.4byte	0x2ad9
 9525 2ad3 2F       		.uleb128 0x2f
 9526 2ad4 01       		.uleb128 0x1
 9527 2ad5 51       		.byte	0x51
 9528 2ad6 01       		.uleb128 0x1
 9529 2ad7 34       		.byte	0x34
 9530 2ad8 00       		.byte	0
 9531 2ad9 2E       		.uleb128 0x2e
 9532 2ada AE020000 		.4byte	.LVL199
 9533 2ade D7200000 		.4byte	0x20d7
 9534 2ae2 ED2A0000 		.4byte	0x2aed
 9535 2ae6 2F       		.uleb128 0x2f
 9536 2ae7 01       		.uleb128 0x1
 9537 2ae8 50       		.byte	0x50
 9538 2ae9 02       		.uleb128 0x2
 9539 2aea 77       		.byte	0x77
 9540 2aeb 00       		.sleb128 0
 9541 2aec 00       		.byte	0
 9542 2aed 2E       		.uleb128 0x2e
 9543 2aee C0020000 		.4byte	.LVL200
 9544 2af2 A7380000 		.4byte	0x38a7
 9545 2af6 002B0000 		.4byte	0x2b00
 9546 2afa 2F       		.uleb128 0x2f
 9547 2afb 01       		.uleb128 0x1
 9548 2afc 51       		.byte	0x51
 9549 2afd 01       		.uleb128 0x1
 9550 2afe 37       		.byte	0x37
 9551 2aff 00       		.byte	0
 9552 2b00 2E       		.uleb128 0x2e
 9553 2b01 C6020000 		.4byte	.LVL201
 9554 2b05 D7200000 		.4byte	0x20d7
 9555 2b09 142B0000 		.4byte	0x2b14
 9556 2b0d 2F       		.uleb128 0x2f
 9557 2b0e 01       		.uleb128 0x1
 9558 2b0f 50       		.byte	0x50
 9559 2b10 02       		.uleb128 0x2
 9560 2b11 77       		.byte	0x77
ARM GAS  C:\Users\haske\AppData\Local\Temp\ccl1At1U.s 			page 202


 9561 2b12 00       		.sleb128 0
 9562 2b13 00       		.byte	0
 9563 2b14 2E       		.uleb128 0x2e
 9564 2b15 D2020000 		.4byte	.LVL203
 9565 2b19 42390000 		.4byte	0x3942
 9566 2b1d 282B0000 		.4byte	0x2b28
 9567 2b21 2F       		.uleb128 0x2f
 9568 2b22 01       		.uleb128 0x1
 9569 2b23 50       		.byte	0x50
 9570 2b24 02       		.uleb128 0x2
 9571 2b25 76       		.byte	0x76
 9572 2b26 00       		.sleb128 0
 9573 2b27 00       		.byte	0
 9574 2b28 2E       		.uleb128 0x2e
 9575 2b29 E2020000 		.4byte	.LVL204
 9576 2b2d 4D390000 		.4byte	0x394d
 9577 2b31 3C2B0000 		.4byte	0x2b3c
 9578 2b35 2F       		.uleb128 0x2f
 9579 2b36 01       		.uleb128 0x1
 9580 2b37 50       		.byte	0x50
 9581 2b38 02       		.uleb128 0x2
 9582 2b39 76       		.byte	0x76
 9583 2b3a 00       		.sleb128 0
 9584 2b3b 00       		.byte	0
 9585 2b3c 2E       		.uleb128 0x2e
 9586 2b3d F2020000 		.4byte	.LVL205
 9587 2b41 A7380000 		.4byte	0x38a7
 9588 2b45 4F2B0000 		.4byte	0x2b4f
 9589 2b49 2F       		.uleb128 0x2f
 9590 2b4a 01       		.uleb128 0x1
 9591 2b4b 51       		.byte	0x51
 9592 2b4c 01       		.uleb128 0x1
 9593 2b4d 38       		.byte	0x38
 9594 2b4e 00       		.byte	0
 9595 2b4f 2E       		.uleb128 0x2e
 9596 2b50 FA020000 		.4byte	.LVL207
 9597 2b54 D7200000 		.4byte	0x20d7
 9598 2b58 632B0000 		.4byte	0x2b63
 9599 2b5c 2F       		.uleb128 0x2f
 9600 2b5d 01       		.uleb128 0x1
 9601 2b5e 50       		.byte	0x50
 9602 2b5f 02       		.uleb128 0x2
 9603 2b60 77       		.byte	0x77
 9604 2b61 00       		.sleb128 0
 9605 2b62 00       		.byte	0
 9606 2b63 2E       		.uleb128 0x2e
 9607 2b64 0C030000 		.4byte	.LVL208
 9608 2b68 A7380000 		.4byte	0x38a7
 9609 2b6c 762B0000 		.4byte	0x2b76
 9610 2b70 2F       		.uleb128 0x2f
 9611 2b71 01       		.uleb128 0x1
 9612 2b72 51       		.byte	0x51
 9613 2b73 01       		.uleb128 0x1
 9614 2b74 34       		.byte	0x34
 9615 2b75 00       		.byte	0
 9616 2b76 2E       		.uleb128 0x2e
 9617 2b77 12030000 		.4byte	.LVL209
ARM GAS  C:\Users\haske\AppData\Local\Temp\ccl1At1U.s 			page 203


 9618 2b7b D7200000 		.4byte	0x20d7
 9619 2b7f 8A2B0000 		.4byte	0x2b8a
 9620 2b83 2F       		.uleb128 0x2f
 9621 2b84 01       		.uleb128 0x1
 9622 2b85 50       		.byte	0x50
 9623 2b86 02       		.uleb128 0x2
 9624 2b87 77       		.byte	0x77
 9625 2b88 00       		.sleb128 0
 9626 2b89 00       		.byte	0
 9627 2b8a 2E       		.uleb128 0x2e
 9628 2b8b 24030000 		.4byte	.LVL210
 9629 2b8f A7380000 		.4byte	0x38a7
 9630 2b93 9D2B0000 		.4byte	0x2b9d
 9631 2b97 2F       		.uleb128 0x2f
 9632 2b98 01       		.uleb128 0x1
 9633 2b99 51       		.byte	0x51
 9634 2b9a 01       		.uleb128 0x1
 9635 2b9b 37       		.byte	0x37
 9636 2b9c 00       		.byte	0
 9637 2b9d 2E       		.uleb128 0x2e
 9638 2b9e 2A030000 		.4byte	.LVL211
 9639 2ba2 D7200000 		.4byte	0x20d7
 9640 2ba6 B12B0000 		.4byte	0x2bb1
 9641 2baa 2F       		.uleb128 0x2f
 9642 2bab 01       		.uleb128 0x1
 9643 2bac 50       		.byte	0x50
 9644 2bad 02       		.uleb128 0x2
 9645 2bae 77       		.byte	0x77
 9646 2baf 00       		.sleb128 0
 9647 2bb0 00       		.byte	0
 9648 2bb1 2E       		.uleb128 0x2e
 9649 2bb2 38030000 		.4byte	.LVL212
 9650 2bb6 21390000 		.4byte	0x3921
 9651 2bba CA2B0000 		.4byte	0x2bca
 9652 2bbe 2F       		.uleb128 0x2f
 9653 2bbf 01       		.uleb128 0x1
 9654 2bc0 50       		.byte	0x50
 9655 2bc1 02       		.uleb128 0x2
 9656 2bc2 76       		.byte	0x76
 9657 2bc3 00       		.sleb128 0
 9658 2bc4 2F       		.uleb128 0x2f
 9659 2bc5 01       		.uleb128 0x1
 9660 2bc6 51       		.byte	0x51
 9661 2bc7 01       		.uleb128 0x1
 9662 2bc8 3A       		.byte	0x3a
 9663 2bc9 00       		.byte	0
 9664 2bca 2E       		.uleb128 0x2e
 9665 2bcb 3E030000 		.4byte	.LVL213
 9666 2bcf D7200000 		.4byte	0x20d7
 9667 2bd3 DE2B0000 		.4byte	0x2bde
 9668 2bd7 2F       		.uleb128 0x2f
 9669 2bd8 01       		.uleb128 0x1
 9670 2bd9 50       		.byte	0x50
 9671 2bda 02       		.uleb128 0x2
 9672 2bdb 77       		.byte	0x77
 9673 2bdc 00       		.sleb128 0
 9674 2bdd 00       		.byte	0
ARM GAS  C:\Users\haske\AppData\Local\Temp\ccl1At1U.s 			page 204


 9675 2bde 2E       		.uleb128 0x2e
 9676 2bdf 4E030000 		.4byte	.LVL215
 9677 2be3 59390000 		.4byte	0x3959
 9678 2be7 F22B0000 		.4byte	0x2bf2
 9679 2beb 2F       		.uleb128 0x2f
 9680 2bec 01       		.uleb128 0x1
 9681 2bed 51       		.byte	0x51
 9682 2bee 02       		.uleb128 0x2
 9683 2bef 08       		.byte	0x8
 9684 2bf0 20       		.byte	0x20
 9685 2bf1 00       		.byte	0
 9686 2bf2 31       		.uleb128 0x31
 9687 2bf3 62030000 		.4byte	.LVL216
 9688 2bf7 00390000 		.4byte	0x3900
 9689 2bfb 2F       		.uleb128 0x2f
 9690 2bfc 01       		.uleb128 0x1
 9691 2bfd 50       		.byte	0x50
 9692 2bfe 02       		.uleb128 0x2
 9693 2bff 76       		.byte	0x76
 9694 2c00 00       		.sleb128 0
 9695 2c01 2F       		.uleb128 0x2f
 9696 2c02 01       		.uleb128 0x1
 9697 2c03 51       		.byte	0x51
 9698 2c04 01       		.uleb128 0x1
 9699 2c05 31       		.byte	0x31
 9700 2c06 00       		.byte	0
 9701 2c07 00       		.byte	0
 9702 2c08 33       		.uleb128 0x33
 9703 2c09 86030000 		.4byte	.LBB15
 9704 2c0d 56000000 		.4byte	.LBE15-.LBB15
 9705 2c11 7A2C0000 		.4byte	0x2c7a
 9706 2c15 3B       		.uleb128 0x3b
 9707 2c16 7300     		.ascii	"s\000"
 9708 2c18 01       		.byte	0x1
 9709 2c19 D802     		.2byte	0x2d8
 9710 2c1b D9000000 		.4byte	0xd9
 9711 2c1f 86040000 		.4byte	.LLST29
 9712 2c23 2E       		.uleb128 0x2e
 9713 2c24 98030000 		.4byte	.LVL219
 9714 2c28 21390000 		.4byte	0x3921
 9715 2c2c 3C2C0000 		.4byte	0x2c3c
 9716 2c30 2F       		.uleb128 0x2f
 9717 2c31 01       		.uleb128 0x1
 9718 2c32 50       		.byte	0x50
 9719 2c33 02       		.uleb128 0x2
 9720 2c34 76       		.byte	0x76
 9721 2c35 00       		.sleb128 0
 9722 2c36 2F       		.uleb128 0x2f
 9723 2c37 01       		.uleb128 0x1
 9724 2c38 51       		.byte	0x51
 9725 2c39 01       		.uleb128 0x1
 9726 2c3a 44       		.byte	0x44
 9727 2c3b 00       		.byte	0
 9728 2c3c 2E       		.uleb128 0x2e
 9729 2c3d 9E030000 		.4byte	.LVL220
 9730 2c41 D7200000 		.4byte	0x20d7
 9731 2c45 502C0000 		.4byte	0x2c50
ARM GAS  C:\Users\haske\AppData\Local\Temp\ccl1At1U.s 			page 205


 9732 2c49 2F       		.uleb128 0x2f
 9733 2c4a 01       		.uleb128 0x1
 9734 2c4b 50       		.byte	0x50
 9735 2c4c 02       		.uleb128 0x2
 9736 2c4d 74       		.byte	0x74
 9737 2c4e 04       		.sleb128 4
 9738 2c4f 00       		.byte	0
 9739 2c50 2E       		.uleb128 0x2e
 9740 2c51 C2030000 		.4byte	.LVL226
 9741 2c55 21390000 		.4byte	0x3921
 9742 2c59 692C0000 		.4byte	0x2c69
 9743 2c5d 2F       		.uleb128 0x2f
 9744 2c5e 01       		.uleb128 0x1
 9745 2c5f 50       		.byte	0x50
 9746 2c60 02       		.uleb128 0x2
 9747 2c61 76       		.byte	0x76
 9748 2c62 00       		.sleb128 0
 9749 2c63 2F       		.uleb128 0x2f
 9750 2c64 01       		.uleb128 0x1
 9751 2c65 51       		.byte	0x51
 9752 2c66 01       		.uleb128 0x1
 9753 2c67 43       		.byte	0x43
 9754 2c68 00       		.byte	0
 9755 2c69 31       		.uleb128 0x31
 9756 2c6a C8030000 		.4byte	.LVL227
 9757 2c6e D7200000 		.4byte	0x20d7
 9758 2c72 2F       		.uleb128 0x2f
 9759 2c73 01       		.uleb128 0x1
 9760 2c74 50       		.byte	0x50
 9761 2c75 02       		.uleb128 0x2
 9762 2c76 74       		.byte	0x74
 9763 2c77 04       		.sleb128 4
 9764 2c78 00       		.byte	0
 9765 2c79 00       		.byte	0
 9766 2c7a 33       		.uleb128 0x33
 9767 2c7b DC030000 		.4byte	.LBB16
 9768 2c7f 50000000 		.4byte	.LBE16-.LBB16
 9769 2c83 E22C0000 		.4byte	0x2ce2
 9770 2c87 3B       		.uleb128 0x3b
 9771 2c88 7300     		.ascii	"s\000"
 9772 2c8a 01       		.byte	0x1
 9773 2c8b E902     		.2byte	0x2e9
 9774 2c8d D9000000 		.4byte	0xd9
 9775 2c91 BA040000 		.4byte	.LLST30
 9776 2c95 2E       		.uleb128 0x2e
 9777 2c96 EC030000 		.4byte	.LVL233
 9778 2c9a 16390000 		.4byte	0x3916
 9779 2c9e A92C0000 		.4byte	0x2ca9
 9780 2ca2 2F       		.uleb128 0x2f
 9781 2ca3 01       		.uleb128 0x1
 9782 2ca4 50       		.byte	0x50
 9783 2ca5 02       		.uleb128 0x2
 9784 2ca6 76       		.byte	0x76
 9785 2ca7 00       		.sleb128 0
 9786 2ca8 00       		.byte	0
 9787 2ca9 2E       		.uleb128 0x2e
 9788 2caa F2030000 		.4byte	.LVL234
ARM GAS  C:\Users\haske\AppData\Local\Temp\ccl1At1U.s 			page 206


 9789 2cae D7200000 		.4byte	0x20d7
 9790 2cb2 BD2C0000 		.4byte	0x2cbd
 9791 2cb6 2F       		.uleb128 0x2f
 9792 2cb7 01       		.uleb128 0x1
 9793 2cb8 50       		.byte	0x50
 9794 2cb9 02       		.uleb128 0x2
 9795 2cba 74       		.byte	0x74
 9796 2cbb 04       		.sleb128 4
 9797 2cbc 00       		.byte	0
 9798 2cbd 2E       		.uleb128 0x2e
 9799 2cbe 14040000 		.4byte	.LVL240
 9800 2cc2 0B390000 		.4byte	0x390b
 9801 2cc6 D12C0000 		.4byte	0x2cd1
 9802 2cca 2F       		.uleb128 0x2f
 9803 2ccb 01       		.uleb128 0x1
 9804 2ccc 50       		.byte	0x50
 9805 2ccd 02       		.uleb128 0x2
 9806 2cce 76       		.byte	0x76
 9807 2ccf 00       		.sleb128 0
 9808 2cd0 00       		.byte	0
 9809 2cd1 31       		.uleb128 0x31
 9810 2cd2 1A040000 		.4byte	.LVL241
 9811 2cd6 D7200000 		.4byte	0x20d7
 9812 2cda 2F       		.uleb128 0x2f
 9813 2cdb 01       		.uleb128 0x1
 9814 2cdc 50       		.byte	0x50
 9815 2cdd 02       		.uleb128 0x2
 9816 2cde 74       		.byte	0x74
 9817 2cdf 04       		.sleb128 4
 9818 2ce0 00       		.byte	0
 9819 2ce1 00       		.byte	0
 9820 2ce2 2E       		.uleb128 0x2e
 9821 2ce3 44000000 		.4byte	.LVL152
 9822 2ce7 DE380000 		.4byte	0x38de
 9823 2ceb F62C0000 		.4byte	0x2cf6
 9824 2cef 2F       		.uleb128 0x2f
 9825 2cf0 01       		.uleb128 0x1
 9826 2cf1 50       		.byte	0x50
 9827 2cf2 02       		.uleb128 0x2
 9828 2cf3 76       		.byte	0x76
 9829 2cf4 00       		.sleb128 0
 9830 2cf5 00       		.byte	0
 9831 2cf6 2E       		.uleb128 0x2e
 9832 2cf7 5E000000 		.4byte	.LVL153
 9833 2cfb DE380000 		.4byte	0x38de
 9834 2cff 0A2D0000 		.4byte	0x2d0a
 9835 2d03 2F       		.uleb128 0x2f
 9836 2d04 01       		.uleb128 0x1
 9837 2d05 50       		.byte	0x50
 9838 2d06 02       		.uleb128 0x2
 9839 2d07 76       		.byte	0x76
 9840 2d08 00       		.sleb128 0
 9841 2d09 00       		.byte	0
 9842 2d0a 30       		.uleb128 0x30
 9843 2d0b 76000000 		.4byte	.LVL154
 9844 2d0f F5380000 		.4byte	0x38f5
 9845 2d13 2E       		.uleb128 0x2e
ARM GAS  C:\Users\haske\AppData\Local\Temp\ccl1At1U.s 			page 207


 9846 2d14 F0000000 		.4byte	.LVL164
 9847 2d18 21390000 		.4byte	0x3921
 9848 2d1c 272D0000 		.4byte	0x2d27
 9849 2d20 2F       		.uleb128 0x2f
 9850 2d21 01       		.uleb128 0x1
 9851 2d22 50       		.byte	0x50
 9852 2d23 02       		.uleb128 0x2
 9853 2d24 76       		.byte	0x76
 9854 2d25 00       		.sleb128 0
 9855 2d26 00       		.byte	0
 9856 2d27 2E       		.uleb128 0x2e
 9857 2d28 F8000000 		.4byte	.LVL166
 9858 2d2c D7200000 		.4byte	0x20d7
 9859 2d30 3B2D0000 		.4byte	0x2d3b
 9860 2d34 2F       		.uleb128 0x2f
 9861 2d35 01       		.uleb128 0x1
 9862 2d36 50       		.byte	0x50
 9863 2d37 02       		.uleb128 0x2
 9864 2d38 77       		.byte	0x77
 9865 2d39 00       		.sleb128 0
 9866 2d3a 00       		.byte	0
 9867 2d3b 2E       		.uleb128 0x2e
 9868 2d3c 0A010000 		.4byte	.LVL167
 9869 2d40 A7380000 		.4byte	0x38a7
 9870 2d44 4F2D0000 		.4byte	0x2d4f
 9871 2d48 2F       		.uleb128 0x2f
 9872 2d49 01       		.uleb128 0x1
 9873 2d4a 51       		.byte	0x51
 9874 2d4b 02       		.uleb128 0x2
 9875 2d4c 08       		.byte	0x8
 9876 2d4d 20       		.byte	0x20
 9877 2d4e 00       		.byte	0
 9878 2d4f 2E       		.uleb128 0x2e
 9879 2d50 10010000 		.4byte	.LVL168
 9880 2d54 D7200000 		.4byte	0x20d7
 9881 2d58 632D0000 		.4byte	0x2d63
 9882 2d5c 2F       		.uleb128 0x2f
 9883 2d5d 01       		.uleb128 0x1
 9884 2d5e 50       		.byte	0x50
 9885 2d5f 02       		.uleb128 0x2
 9886 2d60 77       		.byte	0x77
 9887 2d61 00       		.sleb128 0
 9888 2d62 00       		.byte	0
 9889 2d63 2E       		.uleb128 0x2e
 9890 2d64 1E010000 		.4byte	.LVL170
 9891 2d68 21390000 		.4byte	0x3921
 9892 2d6c 772D0000 		.4byte	0x2d77
 9893 2d70 2F       		.uleb128 0x2f
 9894 2d71 01       		.uleb128 0x1
 9895 2d72 50       		.byte	0x50
 9896 2d73 02       		.uleb128 0x2
 9897 2d74 76       		.byte	0x76
 9898 2d75 00       		.sleb128 0
 9899 2d76 00       		.byte	0
 9900 2d77 2E       		.uleb128 0x2e
 9901 2d78 24010000 		.4byte	.LVL171
 9902 2d7c D7200000 		.4byte	0x20d7
ARM GAS  C:\Users\haske\AppData\Local\Temp\ccl1At1U.s 			page 208


 9903 2d80 8B2D0000 		.4byte	0x2d8b
 9904 2d84 2F       		.uleb128 0x2f
 9905 2d85 01       		.uleb128 0x1
 9906 2d86 50       		.byte	0x50
 9907 2d87 02       		.uleb128 0x2
 9908 2d88 74       		.byte	0x74
 9909 2d89 04       		.sleb128 4
 9910 2d8a 00       		.byte	0
 9911 2d8b 30       		.uleb128 0x30
 9912 2d8c 44010000 		.4byte	.LVL172
 9913 2d90 2C390000 		.4byte	0x392c
 9914 2d94 30       		.uleb128 0x30
 9915 2d95 58010000 		.4byte	.LVL173
 9916 2d99 F5380000 		.4byte	0x38f5
 9917 2d9d 30       		.uleb128 0x30
 9918 2d9e E4010000 		.4byte	.LVL185
 9919 2da2 2C390000 		.4byte	0x392c
 9920 2da6 30       		.uleb128 0x30
 9921 2da7 F2010000 		.4byte	.LVL186
 9922 2dab F5380000 		.4byte	0x38f5
 9923 2daf 30       		.uleb128 0x30
 9924 2db0 06020000 		.4byte	.LVL187
 9925 2db4 A7380000 		.4byte	0x38a7
 9926 2db8 2E       		.uleb128 0x2e
 9927 2db9 0C020000 		.4byte	.LVL188
 9928 2dbd D7200000 		.4byte	0x20d7
 9929 2dc1 CC2D0000 		.4byte	0x2dcc
 9930 2dc5 2F       		.uleb128 0x2f
 9931 2dc6 01       		.uleb128 0x1
 9932 2dc7 50       		.byte	0x50
 9933 2dc8 02       		.uleb128 0x2
 9934 2dc9 74       		.byte	0x74
 9935 2dca 04       		.sleb128 4
 9936 2dcb 00       		.byte	0
 9937 2dcc 2E       		.uleb128 0x2e
 9938 2dcd 36020000 		.4byte	.LVL189
 9939 2dd1 21390000 		.4byte	0x3921
 9940 2dd5 E02D0000 		.4byte	0x2de0
 9941 2dd9 2F       		.uleb128 0x2f
 9942 2dda 01       		.uleb128 0x1
 9943 2ddb 50       		.byte	0x50
 9944 2ddc 02       		.uleb128 0x2
 9945 2ddd 76       		.byte	0x76
 9946 2dde 00       		.sleb128 0
 9947 2ddf 00       		.byte	0
 9948 2de0 2E       		.uleb128 0x2e
 9949 2de1 3C020000 		.4byte	.LVL190
 9950 2de5 D7200000 		.4byte	0x20d7
 9951 2de9 F42D0000 		.4byte	0x2df4
 9952 2ded 2F       		.uleb128 0x2f
 9953 2dee 01       		.uleb128 0x1
 9954 2def 50       		.byte	0x50
 9955 2df0 02       		.uleb128 0x2
 9956 2df1 74       		.byte	0x74
 9957 2df2 04       		.sleb128 4
 9958 2df3 00       		.byte	0
 9959 2df4 31       		.uleb128 0x31
ARM GAS  C:\Users\haske\AppData\Local\Temp\ccl1At1U.s 			page 209


 9960 2df5 82030000 		.4byte	.LVL217
 9961 2df9 42390000 		.4byte	0x3942
 9962 2dfd 2F       		.uleb128 0x2f
 9963 2dfe 01       		.uleb128 0x1
 9964 2dff 50       		.byte	0x50
 9965 2e00 02       		.uleb128 0x2
 9966 2e01 76       		.byte	0x76
 9967 2e02 00       		.sleb128 0
 9968 2e03 00       		.byte	0
 9969 2e04 00       		.byte	0
 9970 2e05 3C       		.uleb128 0x3c
 9971 2e06 64260000 		.4byte	.LASF607
 9972 2e0a 01       		.byte	0x1
 9973 2e0b 7B       		.byte	0x7b
 9974 2e0c 00000000 		.4byte	.LFB166
 9975 2e10 3C000000 		.4byte	.LFE166-.LFB166
 9976 2e14 01       		.uleb128 0x1
 9977 2e15 9C       		.byte	0x9c
 9978 2e16 7A2E0000 		.4byte	0x2e7a
 9979 2e1a 3D       		.uleb128 0x3d
 9980 2e1b 63100000 		.4byte	.LASF592
 9981 2e1f 01       		.byte	0x1
 9982 2e20 7B       		.byte	0x7b
 9983 2e21 D1200000 		.4byte	0x20d1
 9984 2e25 EE040000 		.4byte	.LLST31
 9985 2e29 3E       		.uleb128 0x3e
 9986 2e2a 656E00   		.ascii	"en\000"
 9987 2e2d 01       		.byte	0x1
 9988 2e2e 7B       		.byte	0x7b
 9989 2e2f E7020000 		.4byte	0x2e7
 9990 2e33 0F050000 		.4byte	.LLST32
 9991 2e37 3F       		.uleb128 0x3f
 9992 2e38 EA150000 		.4byte	.LASF606
 9993 2e3c 01       		.byte	0x1
 9994 2e3d 7D       		.byte	0x7d
 9995 2e3e B8000000 		.4byte	0xb8
 9996 2e42 30050000 		.4byte	.LLST33
 9997 2e46 37       		.uleb128 0x37
 9998 2e47 1E000000 		.4byte	.LBB17
 9999 2e4b 1C000000 		.4byte	.LBE17-.LBB17
 10000 2e4f 40       		.uleb128 0x40
 10001 2e50 6900     		.ascii	"i\000"
 10002 2e52 01       		.byte	0x1
 10003 2e53 83       		.byte	0x83
 10004 2e54 D1200000 		.4byte	0x20d1
 10005 2e58 4E050000 		.4byte	.LLST34
 10006 2e5c 2E       		.uleb128 0x2e
 10007 2e5d 24000000 		.4byte	.LVL253
 10008 2e61 65390000 		.4byte	0x3965
 10009 2e65 6F2E0000 		.4byte	0x2e6f
 10010 2e69 2F       		.uleb128 0x2f
 10011 2e6a 01       		.uleb128 0x1
 10012 2e6b 50       		.byte	0x50
 10013 2e6c 01       		.uleb128 0x1
 10014 2e6d 30       		.byte	0x30
 10015 2e6e 00       		.byte	0
 10016 2e6f 30       		.uleb128 0x30
ARM GAS  C:\Users\haske\AppData\Local\Temp\ccl1At1U.s 			page 210


 10017 2e70 36000000 		.4byte	.LVL254
 10018 2e74 65390000 		.4byte	0x3965
 10019 2e78 00       		.byte	0
 10020 2e79 00       		.byte	0
 10021 2e7a 41       		.uleb128 0x41
 10022 2e7b 680E0000 		.4byte	.LASF623
 10023 2e7f 01       		.byte	0x1
 10024 2e80 8B       		.byte	0x8b
 10025 2e81 D1200000 		.4byte	0x20d1
 10026 2e85 00000000 		.4byte	.LFB167
 10027 2e89 0C000000 		.4byte	.LFE167-.LFB167
 10028 2e8d 01       		.uleb128 0x1
 10029 2e8e 9C       		.byte	0x9c
 10030 2e8f 42       		.uleb128 0x42
 10031 2e90 33270000 		.4byte	.LASF616
 10032 2e94 01       		.byte	0x1
 10033 2e95 90       		.byte	0x90
 10034 2e96 4A160000 		.4byte	0x164a
 10035 2e9a 00000000 		.4byte	.LFB168
 10036 2e9e 0E000000 		.4byte	.LFE168-.LFB168
 10037 2ea2 01       		.uleb128 0x1
 10038 2ea3 9C       		.byte	0x9c
 10039 2ea4 B82E0000 		.4byte	0x2eb8
 10040 2ea8 3D       		.uleb128 0x3d
 10041 2ea9 63100000 		.4byte	.LASF592
 10042 2ead 01       		.byte	0x1
 10043 2eae 90       		.byte	0x90
 10044 2eaf B82E0000 		.4byte	0x2eb8
 10045 2eb3 6C050000 		.4byte	.LLST35
 10046 2eb7 00       		.byte	0
 10047 2eb8 0D       		.uleb128 0xd
 10048 2eb9 04       		.byte	0x4
 10049 2eba BE2E0000 		.4byte	0x2ebe
 10050 2ebe 0E       		.uleb128 0xe
 10051 2ebf 261A0000 		.4byte	0x1a26
 10052 2ec3 3C       		.uleb128 0x3c
 10053 2ec4 62170000 		.4byte	.LASF608
 10054 2ec8 01       		.byte	0x1
 10055 2ec9 97       		.byte	0x97
 10056 2eca 00000000 		.4byte	.LFB169
 10057 2ece B0000000 		.4byte	.LFE169-.LFB169
 10058 2ed2 01       		.uleb128 0x1
 10059 2ed3 9C       		.byte	0x9c
 10060 2ed4 2A2F0000 		.4byte	0x2f2a
 10061 2ed8 3D       		.uleb128 0x3d
 10062 2ed9 63100000 		.4byte	.LASF592
 10063 2edd 01       		.byte	0x1
 10064 2ede 97       		.byte	0x97
 10065 2edf D1200000 		.4byte	0x20d1
 10066 2ee3 A6050000 		.4byte	.LLST36
 10067 2ee7 3E       		.uleb128 0x3e
 10068 2ee8 6F626A00 		.ascii	"obj\000"
 10069 2eec 01       		.byte	0x1
 10070 2eed 97       		.byte	0x97
 10071 2eee 3B200000 		.4byte	0x203b
 10072 2ef2 C7050000 		.4byte	.LLST37
 10073 2ef6 37       		.uleb128 0x37
ARM GAS  C:\Users\haske\AppData\Local\Temp\ccl1At1U.s 			page 211


 10074 2ef7 56000000 		.4byte	.LBB18
 10075 2efb 54000000 		.4byte	.LBE18-.LBB18
 10076 2eff 40       		.uleb128 0x40
 10077 2f00 6900     		.ascii	"i\000"
 10078 2f02 01       		.byte	0x1
 10079 2f03 A9       		.byte	0xa9
 10080 2f04 D1200000 		.4byte	0x20d1
 10081 2f08 F3050000 		.4byte	.LLST38
 10082 2f0c 2E       		.uleb128 0x2e
 10083 2f0d 5C000000 		.4byte	.LVL262
 10084 2f11 65390000 		.4byte	0x3965
 10085 2f15 1F2F0000 		.4byte	0x2f1f
 10086 2f19 2F       		.uleb128 0x2f
 10087 2f1a 01       		.uleb128 0x1
 10088 2f1b 50       		.byte	0x50
 10089 2f1c 01       		.uleb128 0x1
 10090 2f1d 30       		.byte	0x30
 10091 2f1e 00       		.byte	0
 10092 2f1f 30       		.uleb128 0x30
 10093 2f20 A0000000 		.4byte	.LVL263
 10094 2f24 65390000 		.4byte	0x3965
 10095 2f28 00       		.byte	0
 10096 2f29 00       		.byte	0
 10097 2f2a 3C       		.uleb128 0x3c
 10098 2f2b 5B030000 		.4byte	.LASF609
 10099 2f2f 01       		.byte	0x1
 10100 2f30 BD       		.byte	0xbd
 10101 2f31 00000000 		.4byte	.LFB170
 10102 2f35 1A000000 		.4byte	.LFE170-.LFB170
 10103 2f39 01       		.uleb128 0x1
 10104 2f3a 9C       		.byte	0x9c
 10105 2f3b 612F0000 		.4byte	0x2f61
 10106 2f3f 3D       		.uleb128 0x3d
 10107 2f40 63100000 		.4byte	.LASF592
 10108 2f44 01       		.byte	0x1
 10109 2f45 BD       		.byte	0xbd
 10110 2f46 D1200000 		.4byte	0x20d1
 10111 2f4a 11060000 		.4byte	.LLST39
 10112 2f4e 30       		.uleb128 0x30
 10113 2f4f 10000000 		.4byte	.LVL267
 10114 2f53 F5380000 		.4byte	0x38f5
 10115 2f57 30       		.uleb128 0x30
 10116 2f58 16000000 		.4byte	.LVL268
 10117 2f5c F5380000 		.4byte	0x38f5
 10118 2f60 00       		.byte	0
 10119 2f61 3C       		.uleb128 0x3c
 10120 2f62 660F0000 		.4byte	.LASF610
 10121 2f66 01       		.byte	0x1
 10122 2f67 C4       		.byte	0xc4
 10123 2f68 00000000 		.4byte	.LFB171
 10124 2f6c 40000000 		.4byte	.LFE171-.LFB171
 10125 2f70 01       		.uleb128 0x1
 10126 2f71 9C       		.byte	0x9c
 10127 2f72 DF2F0000 		.4byte	0x2fdf
 10128 2f76 3D       		.uleb128 0x3d
 10129 2f77 63100000 		.4byte	.LASF592
 10130 2f7b 01       		.byte	0x1
ARM GAS  C:\Users\haske\AppData\Local\Temp\ccl1At1U.s 			page 212


 10131 2f7c C4       		.byte	0xc4
 10132 2f7d D1200000 		.4byte	0x20d1
 10133 2f81 3D060000 		.4byte	.LLST40
 10134 2f85 3D       		.uleb128 0x3d
 10135 2f86 201A0000 		.4byte	.LASF611
 10136 2f8a 01       		.byte	0x1
 10137 2f8b C4       		.byte	0xc4
 10138 2f8c 3B200000 		.4byte	0x203b
 10139 2f90 69060000 		.4byte	.LLST41
 10140 2f94 30       		.uleb128 0x30
 10141 2f95 16000000 		.4byte	.LVL272
 10142 2f99 70390000 		.4byte	0x3970
 10143 2f9d 2E       		.uleb128 0x2e
 10144 2f9e 1E000000 		.4byte	.LVL273
 10145 2fa2 7B390000 		.4byte	0x397b
 10146 2fa6 B12F0000 		.4byte	0x2fb1
 10147 2faa 2F       		.uleb128 0x2f
 10148 2fab 01       		.uleb128 0x1
 10149 2fac 50       		.byte	0x50
 10150 2fad 02       		.uleb128 0x2
 10151 2fae 75       		.byte	0x75
 10152 2faf 00       		.sleb128 0
 10153 2fb0 00       		.byte	0
 10154 2fb1 30       		.uleb128 0x30
 10155 2fb2 2C000000 		.4byte	.LVL274
 10156 2fb6 86390000 		.4byte	0x3986
 10157 2fba 2E       		.uleb128 0x2e
 10158 2fbb 34000000 		.4byte	.LVL275
 10159 2fbf 91390000 		.4byte	0x3991
 10160 2fc3 CD2F0000 		.4byte	0x2fcd
 10161 2fc7 2F       		.uleb128 0x2f
 10162 2fc8 01       		.uleb128 0x1
 10163 2fc9 51       		.byte	0x51
 10164 2fca 01       		.uleb128 0x1
 10165 2fcb 32       		.byte	0x32
 10166 2fcc 00       		.byte	0
 10167 2fcd 31       		.uleb128 0x31
 10168 2fce 3E000000 		.4byte	.LVL276
 10169 2fd2 9C390000 		.4byte	0x399c
 10170 2fd6 2F       		.uleb128 0x2f
 10171 2fd7 01       		.uleb128 0x1
 10172 2fd8 51       		.byte	0x51
 10173 2fd9 03       		.uleb128 0x3
 10174 2fda 48       		.byte	0x48
 10175 2fdb 3E       		.byte	0x3e
 10176 2fdc 24       		.byte	0x24
 10177 2fdd 00       		.byte	0
 10178 2fde 00       		.byte	0
 10179 2fdf 3C       		.uleb128 0x3c
 10180 2fe0 0C160000 		.4byte	.LASF612
 10181 2fe4 01       		.byte	0x1
 10182 2fe5 CF       		.byte	0xcf
 10183 2fe6 00000000 		.4byte	.LFB172
 10184 2fea 10000000 		.4byte	.LFE172-.LFB172
 10185 2fee 01       		.uleb128 0x1
 10186 2fef 9C       		.byte	0x9c
 10187 2ff0 0F300000 		.4byte	0x300f
ARM GAS  C:\Users\haske\AppData\Local\Temp\ccl1At1U.s 			page 213


 10188 2ff4 43       		.uleb128 0x43
 10189 2ff5 63100000 		.4byte	.LASF592
 10190 2ff9 01       		.byte	0x1
 10191 2ffa CF       		.byte	0xcf
 10192 2ffb D1200000 		.4byte	0x20d1
 10193 2fff 01       		.uleb128 0x1
 10194 3000 50       		.byte	0x50
 10195 3001 43       		.uleb128 0x43
 10196 3002 39140000 		.4byte	.LASF427
 10197 3006 01       		.byte	0x1
 10198 3007 CF       		.byte	0xcf
 10199 3008 DC1F0000 		.4byte	0x1fdc
 10200 300c 01       		.uleb128 0x1
 10201 300d 51       		.byte	0x51
 10202 300e 00       		.byte	0
 10203 300f 3C       		.uleb128 0x3c
 10204 3010 4F010000 		.4byte	.LASF613
 10205 3014 01       		.byte	0x1
 10206 3015 D6       		.byte	0xd6
 10207 3016 00000000 		.4byte	.LFB173
 10208 301a 0C000000 		.4byte	.LFE173-.LFB173
 10209 301e 01       		.uleb128 0x1
 10210 301f 9C       		.byte	0x9c
 10211 3020 3F300000 		.4byte	0x303f
 10212 3024 43       		.uleb128 0x43
 10213 3025 63100000 		.4byte	.LASF592
 10214 3029 01       		.byte	0x1
 10215 302a D6       		.byte	0xd6
 10216 302b D1200000 		.4byte	0x20d1
 10217 302f 01       		.uleb128 0x1
 10218 3030 50       		.byte	0x50
 10219 3031 43       		.uleb128 0x43
 10220 3032 8C030000 		.4byte	.LASF614
 10221 3036 01       		.byte	0x1
 10222 3037 D6       		.byte	0xd6
 10223 3038 B40E0000 		.4byte	0xeb4
 10224 303c 01       		.uleb128 0x1
 10225 303d 51       		.byte	0x51
 10226 303e 00       		.byte	0
 10227 303f 3C       		.uleb128 0x3c
 10228 3040 B7030000 		.4byte	.LASF615
 10229 3044 01       		.byte	0x1
 10230 3045 DD       		.byte	0xdd
 10231 3046 00000000 		.4byte	.LFB174
 10232 304a 30000000 		.4byte	.LFE174-.LFB174
 10233 304e 01       		.uleb128 0x1
 10234 304f 9C       		.byte	0x9c
 10235 3050 6F300000 		.4byte	0x306f
 10236 3054 43       		.uleb128 0x43
 10237 3055 63100000 		.4byte	.LASF592
 10238 3059 01       		.byte	0x1
 10239 305a DD       		.byte	0xdd
 10240 305b B82E0000 		.4byte	0x2eb8
 10241 305f 01       		.uleb128 0x1
 10242 3060 50       		.byte	0x50
 10243 3061 43       		.uleb128 0x43
 10244 3062 EB030000 		.4byte	.LASF379
ARM GAS  C:\Users\haske\AppData\Local\Temp\ccl1At1U.s 			page 214


 10245 3066 01       		.byte	0x1
 10246 3067 DD       		.byte	0xdd
 10247 3068 650C0000 		.4byte	0xc65
 10248 306c 01       		.uleb128 0x1
 10249 306d 51       		.byte	0x51
 10250 306e 00       		.byte	0
 10251 306f 42       		.uleb128 0x42
 10252 3070 9C240000 		.4byte	.LASF617
 10253 3074 01       		.byte	0x1
 10254 3075 EE       		.byte	0xee
 10255 3076 B1010000 		.4byte	0x1b1
 10256 307a 00000000 		.4byte	.LFB175
 10257 307e 08000000 		.4byte	.LFE175-.LFB175
 10258 3082 01       		.uleb128 0x1
 10259 3083 9C       		.byte	0x9c
 10260 3084 98300000 		.4byte	0x3098
 10261 3088 3D       		.uleb128 0x3d
 10262 3089 63100000 		.4byte	.LASF592
 10263 308d 01       		.byte	0x1
 10264 308e EE       		.byte	0xee
 10265 308f B82E0000 		.4byte	0x2eb8
 10266 3093 95060000 		.4byte	.LLST42
 10267 3097 00       		.byte	0
 10268 3098 42       		.uleb128 0x42
 10269 3099 72120000 		.4byte	.LASF618
 10270 309d 01       		.byte	0x1
 10271 309e F3       		.byte	0xf3
 10272 309f E4000000 		.4byte	0xe4
 10273 30a3 00000000 		.4byte	.LFB176
 10274 30a7 10000000 		.4byte	.LFE176-.LFB176
 10275 30ab 01       		.uleb128 0x1
 10276 30ac 9C       		.byte	0x9c
 10277 30ad C1300000 		.4byte	0x30c1
 10278 30b1 3D       		.uleb128 0x3d
 10279 30b2 63100000 		.4byte	.LASF592
 10280 30b6 01       		.byte	0x1
 10281 30b7 F3       		.byte	0xf3
 10282 30b8 B82E0000 		.4byte	0x2eb8
 10283 30bc B6060000 		.4byte	.LLST43
 10284 30c0 00       		.byte	0
 10285 30c1 42       		.uleb128 0x42
 10286 30c2 CA030000 		.4byte	.LASF619
 10287 30c6 01       		.byte	0x1
 10288 30c7 FB       		.byte	0xfb
 10289 30c8 B1010000 		.4byte	0x1b1
 10290 30cc 00000000 		.4byte	.LFB177
 10291 30d0 22000000 		.4byte	.LFE177-.LFB177
 10292 30d4 01       		.uleb128 0x1
 10293 30d5 9C       		.byte	0x9c
 10294 30d6 EA300000 		.4byte	0x30ea
 10295 30da 3D       		.uleb128 0x3d
 10296 30db 63100000 		.4byte	.LASF592
 10297 30df 01       		.byte	0x1
 10298 30e0 FB       		.byte	0xfb
 10299 30e1 B82E0000 		.4byte	0x2eb8
 10300 30e5 F0060000 		.4byte	.LLST44
 10301 30e9 00       		.byte	0
ARM GAS  C:\Users\haske\AppData\Local\Temp\ccl1At1U.s 			page 215


 10302 30ea 44       		.uleb128 0x44
 10303 30eb DE0B0000 		.4byte	.LASF620
 10304 30ef 01       		.byte	0x1
 10305 30f0 0201     		.2byte	0x102
 10306 30f2 3B200000 		.4byte	0x203b
 10307 30f6 00000000 		.4byte	.LFB178
 10308 30fa 1C000000 		.4byte	.LFE178-.LFB178
 10309 30fe 01       		.uleb128 0x1
 10310 30ff 9C       		.byte	0x9c
 10311 3100 15310000 		.4byte	0x3115
 10312 3104 2C       		.uleb128 0x2c
 10313 3105 63100000 		.4byte	.LASF592
 10314 3109 01       		.byte	0x1
 10315 310a 0201     		.2byte	0x102
 10316 310c B82E0000 		.4byte	0x2eb8
 10317 3110 43070000 		.4byte	.LLST45
 10318 3114 00       		.byte	0
 10319 3115 45       		.uleb128 0x45
 10320 3116 701C0000 		.4byte	.LASF621
 10321 311a 01       		.byte	0x1
 10322 311b 0901     		.2byte	0x109
 10323 311d 00000000 		.4byte	.LFB179
 10324 3121 24000000 		.4byte	.LFE179-.LFB179
 10325 3125 01       		.uleb128 0x1
 10326 3126 9C       		.byte	0x9c
 10327 3127 48310000 		.4byte	0x3148
 10328 312b 2A       		.uleb128 0x2a
 10329 312c 63100000 		.4byte	.LASF592
 10330 3130 01       		.byte	0x1
 10331 3131 0901     		.2byte	0x109
 10332 3133 B82E0000 		.4byte	0x2eb8
 10333 3137 01       		.uleb128 0x1
 10334 3138 50       		.byte	0x50
 10335 3139 2A       		.uleb128 0x2a
 10336 313a EB030000 		.4byte	.LASF379
 10337 313e 01       		.byte	0x1
 10338 313f 0901     		.2byte	0x109
 10339 3141 650C0000 		.4byte	0xc65
 10340 3145 01       		.uleb128 0x1
 10341 3146 51       		.byte	0x51
 10342 3147 00       		.byte	0
 10343 3148 45       		.uleb128 0x45
 10344 3149 58190000 		.4byte	.LASF622
 10345 314d 01       		.byte	0x1
 10346 314e 1601     		.2byte	0x116
 10347 3150 00000000 		.4byte	.LFB180
 10348 3154 0E000000 		.4byte	.LFE180-.LFB180
 10349 3158 01       		.uleb128 0x1
 10350 3159 9C       		.byte	0x9c
 10351 315a 6D310000 		.4byte	0x316d
 10352 315e 2A       		.uleb128 0x2a
 10353 315f 63100000 		.4byte	.LASF592
 10354 3163 01       		.byte	0x1
 10355 3164 1601     		.2byte	0x116
 10356 3166 D1200000 		.4byte	0x20d1
 10357 316a 01       		.uleb128 0x1
 10358 316b 50       		.byte	0x50
ARM GAS  C:\Users\haske\AppData\Local\Temp\ccl1At1U.s 			page 216


 10359 316c 00       		.byte	0
 10360 316d 46       		.uleb128 0x46
 10361 316e 98120000 		.4byte	.LASF624
 10362 3172 01       		.byte	0x1
 10363 3173 1C01     		.2byte	0x11c
 10364 3175 3B200000 		.4byte	0x203b
 10365 3179 00000000 		.4byte	.LFB181
 10366 317d 0C000000 		.4byte	.LFE181-.LFB181
 10367 3181 01       		.uleb128 0x1
 10368 3182 9C       		.byte	0x9c
 10369 3183 44       		.uleb128 0x44
 10370 3184 74260000 		.4byte	.LASF625
 10371 3188 01       		.byte	0x1
 10372 3189 2101     		.2byte	0x121
 10373 318b 5D150000 		.4byte	0x155d
 10374 318f 00000000 		.4byte	.LFB182
 10375 3193 0C000000 		.4byte	.LFE182-.LFB182
 10376 3197 01       		.uleb128 0x1
 10377 3198 9C       		.byte	0x9c
 10378 3199 AE310000 		.4byte	0x31ae
 10379 319d 2C       		.uleb128 0x2c
 10380 319e 63100000 		.4byte	.LASF592
 10381 31a2 01       		.byte	0x1
 10382 31a3 2101     		.2byte	0x121
 10383 31a5 AE310000 		.4byte	0x31ae
 10384 31a9 96070000 		.4byte	.LLST46
 10385 31ad 00       		.byte	0
 10386 31ae 0D       		.uleb128 0xd
 10387 31af 04       		.byte	0x4
 10388 31b0 14160000 		.4byte	0x1614
 10389 31b4 44       		.uleb128 0x44
 10390 31b5 8C020000 		.4byte	.LASF626
 10391 31b9 01       		.byte	0x1
 10392 31ba 2C01     		.2byte	0x12c
 10393 31bc 3B200000 		.4byte	0x203b
 10394 31c0 00000000 		.4byte	.LFB183
 10395 31c4 84000000 		.4byte	.LFE183-.LFB183
 10396 31c8 01       		.uleb128 0x1
 10397 31c9 9C       		.byte	0x9c
 10398 31ca 34330000 		.4byte	0x3334
 10399 31ce 3A       		.uleb128 0x3a
 10400 31cf 6F626A00 		.ascii	"obj\000"
 10401 31d3 01       		.byte	0x1
 10402 31d4 2C01     		.2byte	0x12c
 10403 31d6 3B200000 		.4byte	0x203b
 10404 31da D0070000 		.4byte	.LLST47
 10405 31de 2C       		.uleb128 0x2c
 10406 31df EB030000 		.4byte	.LASF379
 10407 31e3 01       		.byte	0x1
 10408 31e4 2C01     		.2byte	0x12c
 10409 31e6 650C0000 		.4byte	0xc65
 10410 31ea FC070000 		.4byte	.LLST48
 10411 31ee 2D       		.uleb128 0x2d
 10412 31ef 09010000 		.4byte	.LASF627
 10413 31f3 01       		.byte	0x1
 10414 31f4 2E01     		.2byte	0x12e
 10415 31f6 3B200000 		.4byte	0x203b
ARM GAS  C:\Users\haske\AppData\Local\Temp\ccl1At1U.s 			page 217


 10416 31fa 41080000 		.4byte	.LLST49
 10417 31fe 34       		.uleb128 0x34
 10418 31ff F51A0000 		.4byte	.LASF628
 10419 3203 01       		.byte	0x1
 10420 3204 3301     		.2byte	0x133
 10421 3206 29010000 		.4byte	0x129
 10422 320a 02       		.uleb128 0x2
 10423 320b 91       		.byte	0x91
 10424 320c 6C       		.sleb128 -20
 10425 320d 2D       		.uleb128 0x2d
 10426 320e 29160000 		.4byte	.LASF629
 10427 3212 01       		.byte	0x1
 10428 3213 3601     		.2byte	0x136
 10429 3215 E7020000 		.4byte	0x2e7
 10430 3219 6C080000 		.4byte	.LLST50
 10431 321d 33       		.uleb128 0x33
 10432 321e 50000000 		.4byte	.LBB19
 10433 3222 22000000 		.4byte	.LBE19-.LBB19
 10434 3226 87320000 		.4byte	0x3287
 10435 322a 3B       		.uleb128 0x3b
 10436 322b 6900     		.ascii	"i\000"
 10437 322d 01       		.byte	0x1
 10438 322e 3A01     		.2byte	0x13a
 10439 3230 D9000000 		.4byte	0xd9
 10440 3234 95080000 		.4byte	.LLST51
 10441 3238 2D       		.uleb128 0x2d
 10442 3239 57110000 		.4byte	.LASF575
 10443 323d 01       		.byte	0x1
 10444 323e 3B01     		.2byte	0x13b
 10445 3240 E4000000 		.4byte	0xe4
 10446 3244 A8080000 		.4byte	.LLST52
 10447 3248 33       		.uleb128 0x33
 10448 3249 5A000000 		.4byte	.LBB20
 10449 324d 12000000 		.4byte	.LBE20-.LBB20
 10450 3251 76320000 		.4byte	0x3276
 10451 3255 2D       		.uleb128 0x2d
 10452 3256 B6000000 		.4byte	.LASF630
 10453 325a 01       		.byte	0x1
 10454 325b 3F01     		.2byte	0x13f
 10455 325d 3B200000 		.4byte	0x203b
 10456 3261 BB080000 		.4byte	.LLST53
 10457 3265 31       		.uleb128 0x31
 10458 3266 68000000 		.4byte	.LVL321
 10459 326a B4310000 		.4byte	0x31b4
 10460 326e 2F       		.uleb128 0x2f
 10461 326f 01       		.uleb128 0x1
 10462 3270 51       		.byte	0x51
 10463 3271 02       		.uleb128 0x2
 10464 3272 91       		.byte	0x91
 10465 3273 6C       		.sleb128 -20
 10466 3274 00       		.byte	0
 10467 3275 00       		.byte	0
 10468 3276 31       		.uleb128 0x31
 10469 3277 56000000 		.4byte	.LVL317
 10470 327b A7390000 		.4byte	0x39a7
 10471 327f 2F       		.uleb128 0x2f
 10472 3280 01       		.uleb128 0x1
ARM GAS  C:\Users\haske\AppData\Local\Temp\ccl1At1U.s 			page 218


 10473 3281 50       		.byte	0x50
 10474 3282 02       		.uleb128 0x2
 10475 3283 75       		.byte	0x75
 10476 3284 00       		.sleb128 0
 10477 3285 00       		.byte	0
 10478 3286 00       		.byte	0
 10479 3287 2E       		.uleb128 0x2e
 10480 3288 0E000000 		.4byte	.LVL309
 10481 328c 84380000 		.4byte	0x3884
 10482 3290 A0320000 		.4byte	0x32a0
 10483 3294 2F       		.uleb128 0x2f
 10484 3295 01       		.uleb128 0x1
 10485 3296 50       		.byte	0x50
 10486 3297 02       		.uleb128 0x2
 10487 3298 75       		.byte	0x75
 10488 3299 00       		.sleb128 0
 10489 329a 2F       		.uleb128 0x2f
 10490 329b 01       		.uleb128 0x1
 10491 329c 51       		.byte	0x51
 10492 329d 01       		.uleb128 0x1
 10493 329e 31       		.byte	0x31
 10494 329f 00       		.byte	0
 10495 32a0 2E       		.uleb128 0x2e
 10496 32a1 1C000000 		.4byte	.LVL310
 10497 32a5 B2390000 		.4byte	0x39b2
 10498 32a9 BF320000 		.4byte	0x32bf
 10499 32ad 2F       		.uleb128 0x2f
 10500 32ae 01       		.uleb128 0x1
 10501 32af 50       		.byte	0x50
 10502 32b0 02       		.uleb128 0x2
 10503 32b1 91       		.byte	0x91
 10504 32b2 6C       		.sleb128 -20
 10505 32b3 2F       		.uleb128 0x2f
 10506 32b4 01       		.uleb128 0x1
 10507 32b5 51       		.byte	0x51
 10508 32b6 02       		.uleb128 0x2
 10509 32b7 74       		.byte	0x74
 10510 32b8 00       		.sleb128 0
 10511 32b9 2F       		.uleb128 0x2f
 10512 32ba 01       		.uleb128 0x1
 10513 32bb 52       		.byte	0x52
 10514 32bc 01       		.uleb128 0x1
 10515 32bd 34       		.byte	0x34
 10516 32be 00       		.byte	0
 10517 32bf 2E       		.uleb128 0x2e
 10518 32c0 28000000 		.4byte	.LVL311
 10519 32c4 BB390000 		.4byte	0x39bb
 10520 32c8 E3320000 		.4byte	0x32e3
 10521 32cc 2F       		.uleb128 0x2f
 10522 32cd 01       		.uleb128 0x1
 10523 32ce 50       		.byte	0x50
 10524 32cf 02       		.uleb128 0x2
 10525 32d0 75       		.byte	0x75
 10526 32d1 00       		.sleb128 0
 10527 32d2 2F       		.uleb128 0x2f
 10528 32d3 01       		.uleb128 0x1
 10529 32d4 51       		.byte	0x51
ARM GAS  C:\Users\haske\AppData\Local\Temp\ccl1At1U.s 			page 219


 10530 32d5 02       		.uleb128 0x2
 10531 32d6 91       		.byte	0x91
 10532 32d7 6C       		.sleb128 -20
 10533 32d8 2F       		.uleb128 0x2f
 10534 32d9 01       		.uleb128 0x1
 10535 32da 52       		.byte	0x52
 10536 32db 01       		.uleb128 0x1
 10537 32dc 30       		.byte	0x30
 10538 32dd 2F       		.uleb128 0x2f
 10539 32de 01       		.uleb128 0x1
 10540 32df 53       		.byte	0x53
 10541 32e0 01       		.uleb128 0x1
 10542 32e1 31       		.byte	0x31
 10543 32e2 00       		.byte	0
 10544 32e3 2E       		.uleb128 0x2e
 10545 32e4 30000000 		.4byte	.LVL312
 10546 32e8 C7390000 		.4byte	0x39c7
 10547 32ec FD320000 		.4byte	0x32fd
 10548 32f0 2F       		.uleb128 0x2f
 10549 32f1 01       		.uleb128 0x1
 10550 32f2 50       		.byte	0x50
 10551 32f3 02       		.uleb128 0x2
 10552 32f4 75       		.byte	0x75
 10553 32f5 00       		.sleb128 0
 10554 32f6 2F       		.uleb128 0x2f
 10555 32f7 01       		.uleb128 0x1
 10556 32f8 51       		.byte	0x51
 10557 32f9 02       		.uleb128 0x2
 10558 32fa 91       		.byte	0x91
 10559 32fb 6C       		.sleb128 -20
 10560 32fc 00       		.byte	0
 10561 32fd 2E       		.uleb128 0x2e
 10562 32fe 3E000000 		.4byte	.LVL315
 10563 3302 D3390000 		.4byte	0x39d3
 10564 3306 1C330000 		.4byte	0x331c
 10565 330a 2F       		.uleb128 0x2f
 10566 330b 01       		.uleb128 0x1
 10567 330c 50       		.byte	0x50
 10568 330d 02       		.uleb128 0x2
 10569 330e 75       		.byte	0x75
 10570 330f 14       		.sleb128 20
 10571 3310 2F       		.uleb128 0x2f
 10572 3311 01       		.uleb128 0x1
 10573 3312 51       		.byte	0x51
 10574 3313 02       		.uleb128 0x2
 10575 3314 91       		.byte	0x91
 10576 3315 6C       		.sleb128 -20
 10577 3316 2F       		.uleb128 0x2f
 10578 3317 01       		.uleb128 0x1
 10579 3318 52       		.byte	0x52
 10580 3319 01       		.uleb128 0x1
 10581 331a 30       		.byte	0x30
 10582 331b 00       		.byte	0
 10583 331c 31       		.uleb128 0x31
 10584 331d 4C000000 		.4byte	.LVL316
 10585 3321 84380000 		.4byte	0x3884
 10586 3325 2F       		.uleb128 0x2f
ARM GAS  C:\Users\haske\AppData\Local\Temp\ccl1At1U.s 			page 220


 10587 3326 01       		.uleb128 0x1
 10588 3327 50       		.byte	0x50
 10589 3328 02       		.uleb128 0x2
 10590 3329 75       		.byte	0x75
 10591 332a 00       		.sleb128 0
 10592 332b 2F       		.uleb128 0x2f
 10593 332c 01       		.uleb128 0x1
 10594 332d 51       		.byte	0x51
 10595 332e 03       		.uleb128 0x3
 10596 332f 40       		.byte	0x40
 10597 3330 3F       		.byte	0x3f
 10598 3331 24       		.byte	0x24
 10599 3332 00       		.byte	0
 10600 3333 00       		.byte	0
 10601 3334 29       		.uleb128 0x29
 10602 3335 B0150000 		.4byte	.LASF631
 10603 3339 01       		.byte	0x1
 10604 333a 3103     		.2byte	0x331
 10605 333c 00000000 		.4byte	.LFB188
 10606 3340 84020000 		.4byte	.LFE188-.LFB188
 10607 3344 01       		.uleb128 0x1
 10608 3345 9C       		.byte	0x9c
 10609 3346 1F360000 		.4byte	0x361f
 10610 334a 2C       		.uleb128 0x2c
 10611 334b D20C0000 		.4byte	.LASF425
 10612 334f 01       		.byte	0x1
 10613 3350 3103     		.2byte	0x331
 10614 3352 02210000 		.4byte	0x2102
 10615 3356 CE080000 		.4byte	.LLST54
 10616 335a 2D       		.uleb128 0x2d
 10617 335b E5170000 		.4byte	.LASF363
 10618 335f 01       		.byte	0x1
 10619 3360 3803     		.2byte	0x338
 10620 3362 AE310000 		.4byte	0x31ae
 10621 3366 FA080000 		.4byte	.LLST55
 10622 336a 2D       		.uleb128 0x2d
 10623 336b 01250000 		.4byte	.LASF632
 10624 336f 01       		.byte	0x1
 10625 3370 3903     		.2byte	0x339
 10626 3372 E7020000 		.4byte	0x2e7
 10627 3376 0D090000 		.4byte	.LLST56
 10628 337a 33       		.uleb128 0x33
 10629 337b FE000000 		.4byte	.LBB21
 10630 337f 16000000 		.4byte	.LBE21-.LBB21
 10631 3383 BB330000 		.4byte	0x33bb
 10632 3387 2D       		.uleb128 0x2d
 10633 3388 AA140000 		.4byte	.LASF404
 10634 338c 01       		.byte	0x1
 10635 338d 5F03     		.2byte	0x35f
 10636 338f 3B200000 		.4byte	0x203b
 10637 3393 2C090000 		.4byte	.LLST57
 10638 3397 2E       		.uleb128 0x2e
 10639 3398 08010000 		.4byte	.LVL349
 10640 339c A7380000 		.4byte	0x38a7
 10641 33a0 AA330000 		.4byte	0x33aa
 10642 33a4 2F       		.uleb128 0x2f
 10643 33a5 01       		.uleb128 0x1
ARM GAS  C:\Users\haske\AppData\Local\Temp\ccl1At1U.s 			page 221


 10644 33a6 51       		.byte	0x51
 10645 33a7 01       		.uleb128 0x1
 10646 33a8 33       		.byte	0x33
 10647 33a9 00       		.byte	0
 10648 33aa 31       		.uleb128 0x31
 10649 33ab 0E010000 		.4byte	.LVL350
 10650 33af D7200000 		.4byte	0x20d7
 10651 33b3 2F       		.uleb128 0x2f
 10652 33b4 01       		.uleb128 0x1
 10653 33b5 50       		.byte	0x50
 10654 33b6 02       		.uleb128 0x2
 10655 33b7 74       		.byte	0x74
 10656 33b8 00       		.sleb128 0
 10657 33b9 00       		.byte	0
 10658 33ba 00       		.byte	0
 10659 33bb 2E       		.uleb128 0x2e
 10660 33bc 24000000 		.4byte	.LVL331
 10661 33c0 70390000 		.4byte	0x3970
 10662 33c4 CF330000 		.4byte	0x33cf
 10663 33c8 2F       		.uleb128 0x2f
 10664 33c9 01       		.uleb128 0x1
 10665 33ca 50       		.byte	0x50
 10666 33cb 02       		.uleb128 0x2
 10667 33cc 75       		.byte	0x75
 10668 33cd 00       		.sleb128 0
 10669 33ce 00       		.byte	0
 10670 33cf 2E       		.uleb128 0x2e
 10671 33d0 2C000000 		.4byte	.LVL332
 10672 33d4 B4310000 		.4byte	0x31b4
 10673 33d8 E3330000 		.4byte	0x33e3
 10674 33dc 2F       		.uleb128 0x2f
 10675 33dd 01       		.uleb128 0x1
 10676 33de 51       		.byte	0x51
 10677 33df 02       		.uleb128 0x2
 10678 33e0 76       		.byte	0x76
 10679 33e1 00       		.sleb128 0
 10680 33e2 00       		.byte	0
 10681 33e3 2E       		.uleb128 0x2e
 10682 33e4 3A000000 		.4byte	.LVL333
 10683 33e8 DE390000 		.4byte	0x39de
 10684 33ec F7330000 		.4byte	0x33f7
 10685 33f0 2F       		.uleb128 0x2f
 10686 33f1 01       		.uleb128 0x1
 10687 33f2 50       		.byte	0x50
 10688 33f3 02       		.uleb128 0x2
 10689 33f4 75       		.byte	0x75
 10690 33f5 00       		.sleb128 0
 10691 33f6 00       		.byte	0
 10692 33f7 2E       		.uleb128 0x2e
 10693 33f8 40000000 		.4byte	.LVL334
 10694 33fc B4310000 		.4byte	0x31b4
 10695 3400 0B340000 		.4byte	0x340b
 10696 3404 2F       		.uleb128 0x2f
 10697 3405 01       		.uleb128 0x1
 10698 3406 51       		.byte	0x51
 10699 3407 02       		.uleb128 0x2
 10700 3408 76       		.byte	0x76
ARM GAS  C:\Users\haske\AppData\Local\Temp\ccl1At1U.s 			page 222


 10701 3409 00       		.sleb128 0
 10702 340a 00       		.byte	0
 10703 340b 2E       		.uleb128 0x2e
 10704 340c 52000000 		.4byte	.LVL335
 10705 3410 E9390000 		.4byte	0x39e9
 10706 3414 1F340000 		.4byte	0x341f
 10707 3418 2F       		.uleb128 0x2f
 10708 3419 01       		.uleb128 0x1
 10709 341a 50       		.byte	0x50
 10710 341b 02       		.uleb128 0x2
 10711 341c 75       		.byte	0x75
 10712 341d 00       		.sleb128 0
 10713 341e 00       		.byte	0
 10714 341f 2E       		.uleb128 0x2e
 10715 3420 58000000 		.4byte	.LVL336
 10716 3424 B4310000 		.4byte	0x31b4
 10717 3428 33340000 		.4byte	0x3433
 10718 342c 2F       		.uleb128 0x2f
 10719 342d 01       		.uleb128 0x1
 10720 342e 51       		.byte	0x51
 10721 342f 02       		.uleb128 0x2
 10722 3430 76       		.byte	0x76
 10723 3431 00       		.sleb128 0
 10724 3432 00       		.byte	0
 10725 3433 2E       		.uleb128 0x2e
 10726 3434 6E000000 		.4byte	.LVL337
 10727 3438 84380000 		.4byte	0x3884
 10728 343c 48340000 		.4byte	0x3448
 10729 3440 2F       		.uleb128 0x2f
 10730 3441 01       		.uleb128 0x1
 10731 3442 51       		.byte	0x51
 10732 3443 03       		.uleb128 0x3
 10733 3444 0A       		.byte	0xa
 10734 3445 0020     		.2byte	0x2000
 10735 3447 00       		.byte	0
 10736 3448 2E       		.uleb128 0x2e
 10737 3449 78000000 		.4byte	.LVL338
 10738 344d 70390000 		.4byte	0x3970
 10739 3451 5C340000 		.4byte	0x345c
 10740 3455 2F       		.uleb128 0x2f
 10741 3456 01       		.uleb128 0x1
 10742 3457 50       		.byte	0x50
 10743 3458 02       		.uleb128 0x2
 10744 3459 75       		.byte	0x75
 10745 345a 00       		.sleb128 0
 10746 345b 00       		.byte	0
 10747 345c 2E       		.uleb128 0x2e
 10748 345d 80000000 		.4byte	.LVL339
 10749 3461 B4310000 		.4byte	0x31b4
 10750 3465 70340000 		.4byte	0x3470
 10751 3469 2F       		.uleb128 0x2f
 10752 346a 01       		.uleb128 0x1
 10753 346b 51       		.byte	0x51
 10754 346c 02       		.uleb128 0x2
 10755 346d 76       		.byte	0x76
 10756 346e 00       		.sleb128 0
 10757 346f 00       		.byte	0
ARM GAS  C:\Users\haske\AppData\Local\Temp\ccl1At1U.s 			page 223


 10758 3470 2E       		.uleb128 0x2e
 10759 3471 8E000000 		.4byte	.LVL340
 10760 3475 DE390000 		.4byte	0x39de
 10761 3479 84340000 		.4byte	0x3484
 10762 347d 2F       		.uleb128 0x2f
 10763 347e 01       		.uleb128 0x1
 10764 347f 50       		.byte	0x50
 10765 3480 02       		.uleb128 0x2
 10766 3481 75       		.byte	0x75
 10767 3482 00       		.sleb128 0
 10768 3483 00       		.byte	0
 10769 3484 2E       		.uleb128 0x2e
 10770 3485 94000000 		.4byte	.LVL341
 10771 3489 B4310000 		.4byte	0x31b4
 10772 348d 98340000 		.4byte	0x3498
 10773 3491 2F       		.uleb128 0x2f
 10774 3492 01       		.uleb128 0x1
 10775 3493 51       		.byte	0x51
 10776 3494 02       		.uleb128 0x2
 10777 3495 76       		.byte	0x76
 10778 3496 00       		.sleb128 0
 10779 3497 00       		.byte	0
 10780 3498 2E       		.uleb128 0x2e
 10781 3499 A6000000 		.4byte	.LVL342
 10782 349d E9390000 		.4byte	0x39e9
 10783 34a1 AC340000 		.4byte	0x34ac
 10784 34a5 2F       		.uleb128 0x2f
 10785 34a6 01       		.uleb128 0x1
 10786 34a7 50       		.byte	0x50
 10787 34a8 02       		.uleb128 0x2
 10788 34a9 75       		.byte	0x75
 10789 34aa 00       		.sleb128 0
 10790 34ab 00       		.byte	0
 10791 34ac 2E       		.uleb128 0x2e
 10792 34ad AC000000 		.4byte	.LVL343
 10793 34b1 B4310000 		.4byte	0x31b4
 10794 34b5 C0340000 		.4byte	0x34c0
 10795 34b9 2F       		.uleb128 0x2f
 10796 34ba 01       		.uleb128 0x1
 10797 34bb 51       		.byte	0x51
 10798 34bc 02       		.uleb128 0x2
 10799 34bd 76       		.byte	0x76
 10800 34be 00       		.sleb128 0
 10801 34bf 00       		.byte	0
 10802 34c0 2E       		.uleb128 0x2e
 10803 34c1 D8000000 		.4byte	.LVL346
 10804 34c5 D3380000 		.4byte	0x38d3
 10805 34c9 D4340000 		.4byte	0x34d4
 10806 34cd 2F       		.uleb128 0x2f
 10807 34ce 01       		.uleb128 0x1
 10808 34cf 50       		.byte	0x50
 10809 34d0 02       		.uleb128 0x2
 10810 34d1 74       		.byte	0x74
 10811 34d2 00       		.sleb128 0
 10812 34d3 00       		.byte	0
 10813 34d4 2E       		.uleb128 0x2e
 10814 34d5 DE000000 		.4byte	.LVL347
ARM GAS  C:\Users\haske\AppData\Local\Temp\ccl1At1U.s 			page 224


 10815 34d9 D7200000 		.4byte	0x20d7
 10816 34dd E8340000 		.4byte	0x34e8
 10817 34e1 2F       		.uleb128 0x2f
 10818 34e2 01       		.uleb128 0x1
 10819 34e3 50       		.byte	0x50
 10820 34e4 02       		.uleb128 0x2
 10821 34e5 74       		.byte	0x74
 10822 34e6 00       		.sleb128 0
 10823 34e7 00       		.byte	0
 10824 34e8 30       		.uleb128 0x30
 10825 34e9 24010000 		.4byte	.LVL351
 10826 34ed F5380000 		.4byte	0x38f5
 10827 34f1 2E       		.uleb128 0x2e
 10828 34f2 5E010000 		.4byte	.LVL353
 10829 34f6 A7380000 		.4byte	0x38a7
 10830 34fa 04350000 		.4byte	0x3504
 10831 34fe 2F       		.uleb128 0x2f
 10832 34ff 01       		.uleb128 0x1
 10833 3500 51       		.byte	0x51
 10834 3501 01       		.uleb128 0x1
 10835 3502 31       		.byte	0x31
 10836 3503 00       		.byte	0
 10837 3504 2E       		.uleb128 0x2e
 10838 3505 64010000 		.4byte	.LVL354
 10839 3509 D7200000 		.4byte	0x20d7
 10840 350d 18350000 		.4byte	0x3518
 10841 3511 2F       		.uleb128 0x2f
 10842 3512 01       		.uleb128 0x1
 10843 3513 50       		.byte	0x50
 10844 3514 02       		.uleb128 0x2
 10845 3515 74       		.byte	0x74
 10846 3516 00       		.sleb128 0
 10847 3517 00       		.byte	0
 10848 3518 30       		.uleb128 0x30
 10849 3519 7C010000 		.4byte	.LVL355
 10850 351d 08210000 		.4byte	0x2108
 10851 3521 2E       		.uleb128 0x2e
 10852 3522 82010000 		.4byte	.LVL356
 10853 3526 D7200000 		.4byte	0x20d7
 10854 352a 35350000 		.4byte	0x3535
 10855 352e 2F       		.uleb128 0x2f
 10856 352f 01       		.uleb128 0x1
 10857 3530 50       		.byte	0x50
 10858 3531 02       		.uleb128 0x2
 10859 3532 74       		.byte	0x74
 10860 3533 00       		.sleb128 0
 10861 3534 00       		.byte	0
 10862 3535 2E       		.uleb128 0x2e
 10863 3536 D2010000 		.4byte	.LVL357
 10864 353a A7380000 		.4byte	0x38a7
 10865 353e 48350000 		.4byte	0x3548
 10866 3542 2F       		.uleb128 0x2f
 10867 3543 01       		.uleb128 0x1
 10868 3544 51       		.byte	0x51
 10869 3545 01       		.uleb128 0x1
 10870 3546 32       		.byte	0x32
 10871 3547 00       		.byte	0
ARM GAS  C:\Users\haske\AppData\Local\Temp\ccl1At1U.s 			page 225


 10872 3548 2E       		.uleb128 0x2e
 10873 3549 D8010000 		.4byte	.LVL358
 10874 354d D7200000 		.4byte	0x20d7
 10875 3551 5C350000 		.4byte	0x355c
 10876 3555 2F       		.uleb128 0x2f
 10877 3556 01       		.uleb128 0x1
 10878 3557 50       		.byte	0x50
 10879 3558 02       		.uleb128 0x2
 10880 3559 74       		.byte	0x74
 10881 355a 00       		.sleb128 0
 10882 355b 00       		.byte	0
 10883 355c 2E       		.uleb128 0x2e
 10884 355d EC010000 		.4byte	.LVL359
 10885 3561 F4390000 		.4byte	0x39f4
 10886 3565 70350000 		.4byte	0x3570
 10887 3569 2F       		.uleb128 0x2f
 10888 356a 01       		.uleb128 0x1
 10889 356b 50       		.byte	0x50
 10890 356c 02       		.uleb128 0x2
 10891 356d 74       		.byte	0x74
 10892 356e 00       		.sleb128 0
 10893 356f 00       		.byte	0
 10894 3570 2E       		.uleb128 0x2e
 10895 3571 F2010000 		.4byte	.LVL360
 10896 3575 D7200000 		.4byte	0x20d7
 10897 3579 84350000 		.4byte	0x3584
 10898 357d 2F       		.uleb128 0x2f
 10899 357e 01       		.uleb128 0x1
 10900 357f 50       		.byte	0x50
 10901 3580 02       		.uleb128 0x2
 10902 3581 74       		.byte	0x74
 10903 3582 00       		.sleb128 0
 10904 3583 00       		.byte	0
 10905 3584 2E       		.uleb128 0x2e
 10906 3585 FC010000 		.4byte	.LVL361
 10907 3589 94220000 		.4byte	0x2294
 10908 358d 98350000 		.4byte	0x3598
 10909 3591 2F       		.uleb128 0x2f
 10910 3592 01       		.uleb128 0x1
 10911 3593 50       		.byte	0x50
 10912 3594 02       		.uleb128 0x2
 10913 3595 74       		.byte	0x74
 10914 3596 00       		.sleb128 0
 10915 3597 00       		.byte	0
 10916 3598 2E       		.uleb128 0x2e
 10917 3599 02020000 		.4byte	.LVL362
 10918 359d D7200000 		.4byte	0x20d7
 10919 35a1 AC350000 		.4byte	0x35ac
 10920 35a5 2F       		.uleb128 0x2f
 10921 35a6 01       		.uleb128 0x1
 10922 35a7 50       		.byte	0x50
 10923 35a8 02       		.uleb128 0x2
 10924 35a9 74       		.byte	0x74
 10925 35aa 00       		.sleb128 0
 10926 35ab 00       		.byte	0
 10927 35ac 30       		.uleb128 0x30
 10928 35ad 18020000 		.4byte	.LVL363
ARM GAS  C:\Users\haske\AppData\Local\Temp\ccl1At1U.s 			page 226


 10929 35b1 2C390000 		.4byte	0x392c
 10930 35b5 2E       		.uleb128 0x2e
 10931 35b6 2E020000 		.4byte	.LVL364
 10932 35ba A7380000 		.4byte	0x38a7
 10933 35be C8350000 		.4byte	0x35c8
 10934 35c2 2F       		.uleb128 0x2f
 10935 35c3 01       		.uleb128 0x1
 10936 35c4 51       		.byte	0x51
 10937 35c5 01       		.uleb128 0x1
 10938 35c6 35       		.byte	0x35
 10939 35c7 00       		.byte	0
 10940 35c8 2E       		.uleb128 0x2e
 10941 35c9 34020000 		.4byte	.LVL365
 10942 35cd D7200000 		.4byte	0x20d7
 10943 35d1 DC350000 		.4byte	0x35dc
 10944 35d5 2F       		.uleb128 0x2f
 10945 35d6 01       		.uleb128 0x1
 10946 35d7 50       		.byte	0x50
 10947 35d8 02       		.uleb128 0x2
 10948 35d9 74       		.byte	0x74
 10949 35da 00       		.sleb128 0
 10950 35db 00       		.byte	0
 10951 35dc 30       		.uleb128 0x30
 10952 35dd 44020000 		.4byte	.LVL366
 10953 35e1 F5380000 		.4byte	0x38f5
 10954 35e5 30       		.uleb128 0x30
 10955 35e6 58020000 		.4byte	.LVL367
 10956 35ea 2C390000 		.4byte	0x392c
 10957 35ee 2E       		.uleb128 0x2e
 10958 35ef 6E020000 		.4byte	.LVL368
 10959 35f3 A7380000 		.4byte	0x38a7
 10960 35f7 01360000 		.4byte	0x3601
 10961 35fb 2F       		.uleb128 0x2f
 10962 35fc 01       		.uleb128 0x1
 10963 35fd 51       		.byte	0x51
 10964 35fe 01       		.uleb128 0x1
 10965 35ff 36       		.byte	0x36
 10966 3600 00       		.byte	0
 10967 3601 2E       		.uleb128 0x2e
 10968 3602 74020000 		.4byte	.LVL369
 10969 3606 D7200000 		.4byte	0x20d7
 10970 360a 15360000 		.4byte	0x3615
 10971 360e 2F       		.uleb128 0x2f
 10972 360f 01       		.uleb128 0x1
 10973 3610 50       		.byte	0x50
 10974 3611 02       		.uleb128 0x2
 10975 3612 74       		.byte	0x74
 10976 3613 00       		.sleb128 0
 10977 3614 00       		.byte	0
 10978 3615 30       		.uleb128 0x30
 10979 3616 7C020000 		.4byte	.LVL370
 10980 361a F5380000 		.4byte	0x38f5
 10981 361e 00       		.byte	0
 10982 361f 29       		.uleb128 0x29
 10983 3620 17150000 		.4byte	.LASF633
 10984 3624 01       		.byte	0x1
 10985 3625 5401     		.2byte	0x154
ARM GAS  C:\Users\haske\AppData\Local\Temp\ccl1At1U.s 			page 227


 10986 3627 00000000 		.4byte	.LFB184
 10987 362b C2000000 		.4byte	.LFE184-.LFB184
 10988 362f 01       		.uleb128 0x1
 10989 3630 9C       		.byte	0x9c
 10990 3631 C1360000 		.4byte	0x36c1
 10991 3635 3A       		.uleb128 0x3a
 10992 3636 6900     		.ascii	"i\000"
 10993 3638 01       		.byte	0x1
 10994 3639 5401     		.2byte	0x154
 10995 363b D1200000 		.4byte	0x20d1
 10996 363f 3F090000 		.4byte	.LLST58
 10997 3643 2C       		.uleb128 0x2c
 10998 3644 A8270000 		.4byte	.LASF601
 10999 3648 01       		.byte	0x1
 11000 3649 5401     		.2byte	0x154
 11001 364b 88170000 		.4byte	0x1788
 11002 364f 6B090000 		.4byte	.LLST59
 11003 3653 2D       		.uleb128 0x2d
 11004 3654 E5170000 		.4byte	.LASF363
 11005 3658 01       		.byte	0x1
 11006 3659 5601     		.2byte	0x156
 11007 365b AE310000 		.4byte	0x31ae
 11008 365f 97090000 		.4byte	.LLST60
 11009 3663 33       		.uleb128 0x33
 11010 3664 54000000 		.4byte	.LBB22
 11011 3668 16000000 		.4byte	.LBE22-.LBB22
 11012 366c 81360000 		.4byte	0x3681
 11013 3670 3B       		.uleb128 0x3b
 11014 3671 746D7000 		.ascii	"tmp\000"
 11015 3675 01       		.byte	0x1
 11016 3676 6001     		.2byte	0x160
 11017 3678 01010000 		.4byte	0x101
 11018 367c AA090000 		.4byte	.LLST61
 11019 3680 00       		.byte	0
 11020 3681 30       		.uleb128 0x30
 11021 3682 72000000 		.4byte	.LVL379
 11022 3686 FF390000 		.4byte	0x39ff
 11023 368a 30       		.uleb128 0x30
 11024 368b 7A000000 		.4byte	.LVL380
 11025 368f 0B3A0000 		.4byte	0x3a0b
 11026 3693 30       		.uleb128 0x30
 11027 3694 94000000 		.4byte	.LVL381
 11028 3698 86390000 		.4byte	0x3986
 11029 369c 2E       		.uleb128 0x2e
 11030 369d AC000000 		.4byte	.LVL382
 11031 36a1 34330000 		.4byte	0x3334
 11032 36a5 B0360000 		.4byte	0x36b0
 11033 36a9 2F       		.uleb128 0x2f
 11034 36aa 01       		.uleb128 0x1
 11035 36ab 50       		.byte	0x50
 11036 36ac 02       		.uleb128 0x2
 11037 36ad 74       		.byte	0x74
 11038 36ae 04       		.sleb128 4
 11039 36af 00       		.byte	0
 11040 36b0 31       		.uleb128 0x31
 11041 36b1 B4000000 		.4byte	.LVL383
 11042 36b5 23230000 		.4byte	0x2323
ARM GAS  C:\Users\haske\AppData\Local\Temp\ccl1At1U.s 			page 228


 11043 36b9 2F       		.uleb128 0x2f
 11044 36ba 01       		.uleb128 0x1
 11045 36bb 50       		.byte	0x50
 11046 36bc 02       		.uleb128 0x2
 11047 36bd 74       		.byte	0x74
 11048 36be 04       		.sleb128 4
 11049 36bf 00       		.byte	0
 11050 36c0 00       		.byte	0
 11051 36c1 29       		.uleb128 0x29
 11052 36c2 6E190000 		.4byte	.LASF634
 11053 36c6 01       		.byte	0x1
 11054 36c7 0003     		.2byte	0x300
 11055 36c9 00000000 		.4byte	.LFB187
 11056 36cd 7E000000 		.4byte	.LFE187-.LFB187
 11057 36d1 01       		.uleb128 0x1
 11058 36d2 9C       		.byte	0x9c
 11059 36d3 7F370000 		.4byte	0x377f
 11060 36d7 3A       		.uleb128 0x3a
 11061 36d8 6900     		.ascii	"i\000"
 11062 36da 01       		.byte	0x1
 11063 36db 0003     		.2byte	0x300
 11064 36dd D1200000 		.4byte	0x20d1
 11065 36e1 BD090000 		.4byte	.LLST62
 11066 36e5 2C       		.uleb128 0x2c
 11067 36e6 A8270000 		.4byte	.LASF601
 11068 36ea 01       		.byte	0x1
 11069 36eb 0003     		.2byte	0x300
 11070 36ed 88170000 		.4byte	0x1788
 11071 36f1 E9090000 		.4byte	.LLST63
 11072 36f5 3B       		.uleb128 0x3b
 11073 36f6 7800     		.ascii	"x\000"
 11074 36f8 01       		.byte	0x1
 11075 36f9 0803     		.2byte	0x308
 11076 36fb 01010000 		.4byte	0x101
 11077 36ff 150A0000 		.4byte	.LLST64
 11078 3703 3B       		.uleb128 0x3b
 11079 3704 7900     		.ascii	"y\000"
 11080 3706 01       		.byte	0x1
 11081 3707 0903     		.2byte	0x309
 11082 3709 01010000 		.4byte	0x101
 11083 370d 280A0000 		.4byte	.LLST65
 11084 3711 47       		.uleb128 0x47
 11085 3712 131F0000 		.4byte	.LASF603
 11086 3716 01       		.byte	0x1
 11087 3717 0B03     		.2byte	0x30b
 11088 3719 7F370000 		.4byte	0x377f
 11089 371d 00       		.byte	0
 11090 371e 2E       		.uleb128 0x2e
 11091 371f 3C000000 		.4byte	.LVL390
 11092 3723 23230000 		.4byte	0x2323
 11093 3727 32370000 		.4byte	0x3732
 11094 372b 2F       		.uleb128 0x2f
 11095 372c 01       		.uleb128 0x1
 11096 372d 50       		.byte	0x50
 11097 372e 02       		.uleb128 0x2
 11098 372f 74       		.byte	0x74
 11099 3730 04       		.sleb128 4
ARM GAS  C:\Users\haske\AppData\Local\Temp\ccl1At1U.s 			page 229


 11100 3731 00       		.byte	0
 11101 3732 2E       		.uleb128 0x2e
 11102 3733 44000000 		.4byte	.LVL391
 11103 3737 D7200000 		.4byte	0x20d7
 11104 373b 46370000 		.4byte	0x3746
 11105 373f 2F       		.uleb128 0x2f
 11106 3740 01       		.uleb128 0x1
 11107 3741 50       		.byte	0x50
 11108 3742 02       		.uleb128 0x2
 11109 3743 76       		.byte	0x76
 11110 3744 00       		.sleb128 0
 11111 3745 00       		.byte	0
 11112 3746 2E       		.uleb128 0x2e
 11113 3747 5A000000 		.4byte	.LVL392
 11114 374b 34330000 		.4byte	0x3334
 11115 374f 5A370000 		.4byte	0x375a
 11116 3753 2F       		.uleb128 0x2f
 11117 3754 01       		.uleb128 0x1
 11118 3755 50       		.byte	0x50
 11119 3756 02       		.uleb128 0x2
 11120 3757 76       		.byte	0x76
 11121 3758 00       		.sleb128 0
 11122 3759 00       		.byte	0
 11123 375a 2E       		.uleb128 0x2e
 11124 375b 62000000 		.4byte	.LVL393
 11125 375f 23230000 		.4byte	0x2323
 11126 3763 6E370000 		.4byte	0x376e
 11127 3767 2F       		.uleb128 0x2f
 11128 3768 01       		.uleb128 0x1
 11129 3769 50       		.byte	0x50
 11130 376a 02       		.uleb128 0x2
 11131 376b 76       		.byte	0x76
 11132 376c 00       		.sleb128 0
 11133 376d 00       		.byte	0
 11134 376e 31       		.uleb128 0x31
 11135 376f 68000000 		.4byte	.LVL394
 11136 3773 D7200000 		.4byte	0x20d7
 11137 3777 2F       		.uleb128 0x2f
 11138 3778 01       		.uleb128 0x1
 11139 3779 50       		.byte	0x50
 11140 377a 02       		.uleb128 0x2
 11141 377b 76       		.byte	0x76
 11142 377c 00       		.sleb128 0
 11143 377d 00       		.byte	0
 11144 377e 00       		.byte	0
 11145 377f 0E       		.uleb128 0xe
 11146 3780 6E160000 		.4byte	0x166e
 11147 3784 3C       		.uleb128 0x3c
 11148 3785 06240000 		.4byte	.LASF635
 11149 3789 01       		.byte	0x1
 11150 378a 40       		.byte	0x40
 11151 378b 00000000 		.4byte	.LFB165
 11152 378f D0000000 		.4byte	.LFE165-.LFB165
 11153 3793 01       		.uleb128 0x1
 11154 3794 9C       		.byte	0x9c
 11155 3795 57380000 		.4byte	0x3857
 11156 3799 3D       		.uleb128 0x3d
ARM GAS  C:\Users\haske\AppData\Local\Temp\ccl1At1U.s 			page 230


 11157 379a 730C0000 		.4byte	.LASF636
 11158 379e 01       		.byte	0x1
 11159 379f 40       		.byte	0x40
 11160 37a0 5D150000 		.4byte	0x155d
 11161 37a4 3B0A0000 		.4byte	.LLST66
 11162 37a8 48       		.uleb128 0x48
 11163 37a9 A8270000 		.4byte	.LASF601
 11164 37ad 01       		.byte	0x1
 11165 37ae 44       		.byte	0x44
 11166 37af CA160000 		.4byte	0x16ca
 11167 37b3 02       		.uleb128 0x2
 11168 37b4 91       		.byte	0x91
 11169 37b5 60       		.sleb128 -32
 11170 37b6 3F       		.uleb128 0x3f
 11171 37b7 46110000 		.4byte	.LASF382
 11172 37bb 01       		.byte	0x1
 11173 37bc 50       		.byte	0x50
 11174 37bd E7020000 		.4byte	0x2e7
 11175 37c1 5C0A0000 		.4byte	.LLST67
 11176 37c5 30       		.uleb128 0x30
 11177 37c6 16000000 		.4byte	.LVL400
 11178 37ca AC200000 		.4byte	0x20ac
 11179 37ce 2E       		.uleb128 0x2e
 11180 37cf 34000000 		.4byte	.LVL401
 11181 37d3 173A0000 		.4byte	0x3a17
 11182 37d7 E2370000 		.4byte	0x37e2
 11183 37db 2F       		.uleb128 0x2f
 11184 37dc 01       		.uleb128 0x1
 11185 37dd 51       		.byte	0x51
 11186 37de 02       		.uleb128 0x2
 11187 37df 7D       		.byte	0x7d
 11188 37e0 00       		.sleb128 0
 11189 37e1 00       		.byte	0
 11190 37e2 30       		.uleb128 0x30
 11191 37e3 3E000000 		.4byte	.LVL403
 11192 37e7 AC200000 		.4byte	0x20ac
 11193 37eb 30       		.uleb128 0x30
 11194 37ec 56000000 		.4byte	.LVL404
 11195 37f0 F5380000 		.4byte	0x38f5
 11196 37f4 30       		.uleb128 0x30
 11197 37f5 76000000 		.4byte	.LVL405
 11198 37f9 F5380000 		.4byte	0x38f5
 11199 37fd 2E       		.uleb128 0x2e
 11200 37fe 8E000000 		.4byte	.LVL406
 11201 3802 1F360000 		.4byte	0x361f
 11202 3806 11380000 		.4byte	0x3811
 11203 380a 2F       		.uleb128 0x2f
 11204 380b 01       		.uleb128 0x1
 11205 380c 51       		.byte	0x51
 11206 380d 02       		.uleb128 0x2
 11207 380e 7D       		.byte	0x7d
 11208 380f 00       		.sleb128 0
 11209 3810 00       		.byte	0
 11210 3811 2E       		.uleb128 0x2e
 11211 3812 9A000000 		.4byte	.LVL407
 11212 3816 69250000 		.4byte	0x2569
 11213 381a 25380000 		.4byte	0x3825
ARM GAS  C:\Users\haske\AppData\Local\Temp\ccl1At1U.s 			page 231


 11214 381e 2F       		.uleb128 0x2f
 11215 381f 01       		.uleb128 0x1
 11216 3820 51       		.byte	0x51
 11217 3821 02       		.uleb128 0x2
 11218 3822 7D       		.byte	0x7d
 11219 3823 00       		.sleb128 0
 11220 3824 00       		.byte	0
 11221 3825 2E       		.uleb128 0x2e
 11222 3826 A6000000 		.4byte	.LVL408
 11223 382a F6280000 		.4byte	0x28f6
 11224 382e 39380000 		.4byte	0x3839
 11225 3832 2F       		.uleb128 0x2f
 11226 3833 01       		.uleb128 0x1
 11227 3834 51       		.byte	0x51
 11228 3835 02       		.uleb128 0x2
 11229 3836 7D       		.byte	0x7d
 11230 3837 00       		.sleb128 0
 11231 3838 00       		.byte	0
 11232 3839 2E       		.uleb128 0x2e
 11233 383a B2000000 		.4byte	.LVL409
 11234 383e C1360000 		.4byte	0x36c1
 11235 3842 4D380000 		.4byte	0x384d
 11236 3846 2F       		.uleb128 0x2f
 11237 3847 01       		.uleb128 0x1
 11238 3848 51       		.byte	0x51
 11239 3849 02       		.uleb128 0x2
 11240 384a 7D       		.byte	0x7d
 11241 384b 00       		.sleb128 0
 11242 384c 00       		.byte	0
 11243 384d 30       		.uleb128 0x30
 11244 384e BA000000 		.4byte	.LVL410
 11245 3852 AC200000 		.4byte	0x20ac
 11246 3856 00       		.byte	0
 11247 3857 48       		.uleb128 0x48
 11248 3858 B1180000 		.4byte	.LASF637
 11249 385c 01       		.byte	0x1
 11250 385d 30       		.byte	0x30
 11251 385e D1200000 		.4byte	0x20d1
 11252 3862 05       		.uleb128 0x5
 11253 3863 03       		.byte	0x3
 11254 3864 04000000 		.4byte	indev_act
 11255 3868 48       		.uleb128 0x48
 11256 3869 A6070000 		.4byte	.LASF638
 11257 386d 01       		.byte	0x1
 11258 386e 31       		.byte	0x31
 11259 386f 3B200000 		.4byte	0x203b
 11260 3873 05       		.uleb128 0x5
 11261 3874 03       		.byte	0x3
 11262 3875 00000000 		.4byte	indev_obj_act
 11263 3879 49       		.uleb128 0x49
 11264 387a 67210000 		.4byte	.LASF680
 11265 387e 07       		.byte	0x7
 11266 387f 94       		.byte	0x94
 11267 3880 C30A0000 		.4byte	0xac3
 11268 3884 4A       		.uleb128 0x4a
 11269 3885 791B0000 		.4byte	.LASF639
 11270 3889 791B0000 		.4byte	.LASF639
ARM GAS  C:\Users\haske\AppData\Local\Temp\ccl1At1U.s 			page 232


 11271 388d 0E       		.byte	0xe
 11272 388e 1C01     		.2byte	0x11c
 11273 3890 4A       		.uleb128 0x4a
 11274 3891 6C280000 		.4byte	.LASF640
 11275 3895 6C280000 		.4byte	.LASF640
 11276 3899 0E       		.byte	0xe
 11277 389a 3A01     		.2byte	0x13a
 11278 389c 4B       		.uleb128 0x4b
 11279 389d D41F0000 		.4byte	.LASF641
 11280 38a1 D41F0000 		.4byte	.LASF641
 11281 38a5 1B       		.byte	0x1b
 11282 38a6 96       		.byte	0x96
 11283 38a7 4B       		.uleb128 0x4b
 11284 38a8 E1040000 		.4byte	.LASF642
 11285 38ac E1040000 		.4byte	.LASF642
 11286 38b0 1F       		.byte	0x1f
 11287 38b1 92       		.byte	0x92
 11288 38b2 4B       		.uleb128 0x4b
 11289 38b3 F9190000 		.4byte	.LASF643
 11290 38b7 F9190000 		.4byte	.LASF643
 11291 38bb 20       		.byte	0x20
 11292 38bc 7D       		.byte	0x7d
 11293 38bd 4B       		.uleb128 0x4b
 11294 38be A31D0000 		.4byte	.LASF644
 11295 38c2 A31D0000 		.4byte	.LASF644
 11296 38c6 1D       		.byte	0x1d
 11297 38c7 83       		.byte	0x83
 11298 38c8 4B       		.uleb128 0x4b
 11299 38c9 5C060000 		.4byte	.LASF645
 11300 38cd 5C060000 		.4byte	.LASF645
 11301 38d1 06       		.byte	0x6
 11302 38d2 EF       		.byte	0xef
 11303 38d3 4B       		.uleb128 0x4b
 11304 38d4 3D1A0000 		.4byte	.LASF646
 11305 38d8 3D1A0000 		.4byte	.LASF646
 11306 38dc 21       		.byte	0x21
 11307 38dd 28       		.byte	0x28
 11308 38de 4B       		.uleb128 0x4b
 11309 38df 55080000 		.4byte	.LASF647
 11310 38e3 55080000 		.4byte	.LASF647
 11311 38e7 1B       		.byte	0x1b
 11312 38e8 DD       		.byte	0xdd
 11313 38e9 4A       		.uleb128 0x4a
 11314 38ea 06270000 		.4byte	.LASF648
 11315 38ee 06270000 		.4byte	.LASF648
 11316 38f2 0E       		.byte	0xe
 11317 38f3 3301     		.2byte	0x133
 11318 38f5 4B       		.uleb128 0x4b
 11319 38f6 870B0000 		.4byte	.LASF649
 11320 38fa 870B0000 		.4byte	.LASF649
 11321 38fe 22       		.byte	0x22
 11322 38ff 34       		.byte	0x34
 11323 3900 4B       		.uleb128 0x4b
 11324 3901 560D0000 		.4byte	.LASF650
 11325 3905 560D0000 		.4byte	.LASF650
 11326 3909 1B       		.byte	0x1b
 11327 390a CF       		.byte	0xcf
ARM GAS  C:\Users\haske\AppData\Local\Temp\ccl1At1U.s 			page 233


 11328 390b 4B       		.uleb128 0x4b
 11329 390c 94270000 		.4byte	.LASF651
 11330 3910 94270000 		.4byte	.LASF651
 11331 3914 1B       		.byte	0x1b
 11332 3915 9C       		.byte	0x9c
 11333 3916 4B       		.uleb128 0x4b
 11334 3917 E4270000 		.4byte	.LASF652
 11335 391b E4270000 		.4byte	.LASF652
 11336 391f 1B       		.byte	0x1b
 11337 3920 A2       		.byte	0xa2
 11338 3921 4B       		.uleb128 0x4b
 11339 3922 04210000 		.4byte	.LASF653
 11340 3926 04210000 		.4byte	.LASF653
 11341 392a 1B       		.byte	0x1b
 11342 392b B1       		.byte	0xb1
 11343 392c 4B       		.uleb128 0x4b
 11344 392d 99110000 		.4byte	.LASF654
 11345 3931 99110000 		.4byte	.LASF654
 11346 3935 22       		.byte	0x22
 11347 3936 3B       		.byte	0x3b
 11348 3937 4B       		.uleb128 0x4b
 11349 3938 D7150000 		.4byte	.LASF655
 11350 393c D7150000 		.4byte	.LASF655
 11351 3940 1E       		.byte	0x1e
 11352 3941 51       		.byte	0x51
 11353 3942 4B       		.uleb128 0x4b
 11354 3943 210B0000 		.4byte	.LASF656
 11355 3947 210B0000 		.4byte	.LASF656
 11356 394b 1B       		.byte	0x1b
 11357 394c F2       		.byte	0xf2
 11358 394d 4A       		.uleb128 0x4a
 11359 394e 66220000 		.4byte	.LASF657
 11360 3952 66220000 		.4byte	.LASF657
 11361 3956 1B       		.byte	0x1b
 11362 3957 0001     		.2byte	0x100
 11363 3959 4A       		.uleb128 0x4a
 11364 395a AD100000 		.4byte	.LASF658
 11365 395e AD100000 		.4byte	.LASF658
 11366 3962 0E       		.byte	0xe
 11367 3963 0401     		.2byte	0x104
 11368 3965 4B       		.uleb128 0x4b
 11369 3966 731A0000 		.4byte	.LASF659
 11370 396a 731A0000 		.4byte	.LASF659
 11371 396e 1A       		.byte	0x1a
 11372 396f DF       		.byte	0xdf
 11373 3970 4B       		.uleb128 0x4b
 11374 3971 BC000000 		.4byte	.LASF660
 11375 3975 BC000000 		.4byte	.LASF660
 11376 3979 23       		.byte	0x23
 11377 397a 56       		.byte	0x56
 11378 397b 4B       		.uleb128 0x4b
 11379 397c 84040000 		.4byte	.LASF661
 11380 3980 84040000 		.4byte	.LASF661
 11381 3984 20       		.byte	0x20
 11382 3985 56       		.byte	0x56
 11383 3986 4B       		.uleb128 0x4b
 11384 3987 30110000 		.4byte	.LASF662
ARM GAS  C:\Users\haske\AppData\Local\Temp\ccl1At1U.s 			page 234


 11385 398b 30110000 		.4byte	.LASF662
 11386 398f 24       		.byte	0x24
 11387 3990 2F       		.byte	0x2f
 11388 3991 4B       		.uleb128 0x4b
 11389 3992 20180000 		.4byte	.LASF663
 11390 3996 20180000 		.4byte	.LASF663
 11391 399a 0E       		.byte	0xe
 11392 399b F3       		.byte	0xf3
 11393 399c 4B       		.uleb128 0x4b
 11394 399d 98150000 		.4byte	.LASF664
 11395 39a1 98150000 		.4byte	.LASF664
 11396 39a5 0E       		.byte	0xe
 11397 39a6 EC       		.byte	0xec
 11398 39a7 4B       		.uleb128 0x4b
 11399 39a8 691F0000 		.4byte	.LASF665
 11400 39ac 691F0000 		.4byte	.LASF665
 11401 39b0 20       		.byte	0x20
 11402 39b1 91       		.byte	0x91
 11403 39b2 4C       		.uleb128 0x4c
 11404 39b3 89230000 		.4byte	.LASF681
 11405 39b7 89230000 		.4byte	.LASF681
 11406 39bb 4A       		.uleb128 0x4a
 11407 39bc 04130000 		.4byte	.LASF666
 11408 39c0 04130000 		.4byte	.LASF666
 11409 39c4 24       		.byte	0x24
 11410 39c5 6601     		.2byte	0x166
 11411 39c7 4A       		.uleb128 0x4a
 11412 39c8 0B1E0000 		.4byte	.LASF667
 11413 39cc 0B1E0000 		.4byte	.LASF667
 11414 39d0 24       		.byte	0x24
 11415 39d1 A301     		.2byte	0x1a3
 11416 39d3 4B       		.uleb128 0x4b
 11417 39d4 D9140000 		.4byte	.LASF668
 11418 39d8 D9140000 		.4byte	.LASF668
 11419 39dc 06       		.byte	0x6
 11420 39dd C3       		.byte	0xc3
 11421 39de 4B       		.uleb128 0x4b
 11422 39df 4A1E0000 		.4byte	.LASF669
 11423 39e3 4A1E0000 		.4byte	.LASF669
 11424 39e7 23       		.byte	0x23
 11425 39e8 4E       		.byte	0x4e
 11426 39e9 4B       		.uleb128 0x4b
 11427 39ea 5C1C0000 		.4byte	.LASF670
 11428 39ee 5C1C0000 		.4byte	.LASF670
 11429 39f2 23       		.byte	0x23
 11430 39f3 39       		.byte	0x39
 11431 39f4 4B       		.uleb128 0x4b
 11432 39f5 3D0D0000 		.4byte	.LASF671
 11433 39f9 3D0D0000 		.4byte	.LASF671
 11434 39fd 21       		.byte	0x21
 11435 39fe 22       		.byte	0x22
 11436 39ff 4A       		.uleb128 0x4a
 11437 3a00 E40C0000 		.4byte	.LASF672
 11438 3a04 E40C0000 		.4byte	.LASF672
 11439 3a08 18       		.byte	0x18
 11440 3a09 0701     		.2byte	0x107
 11441 3a0b 4A       		.uleb128 0x4a
ARM GAS  C:\Users\haske\AppData\Local\Temp\ccl1At1U.s 			page 235


 11442 3a0c 4D0C0000 		.4byte	.LASF673
 11443 3a10 4D0C0000 		.4byte	.LASF673
 11444 3a14 18       		.byte	0x18
 11445 3a15 0E01     		.2byte	0x10e
 11446 3a17 4B       		.uleb128 0x4b
 11447 3a18 7E240000 		.4byte	.LASF674
 11448 3a1c 7E240000 		.4byte	.LASF674
 11449 3a20 1A       		.byte	0x1a
 11450 3a21 E6       		.byte	0xe6
 11451 3a22 00       		.byte	0
 11452              		.section	.debug_abbrev,"",%progbits
 11453              	.Ldebug_abbrev0:
 11454 0000 01       		.uleb128 0x1
 11455 0001 11       		.uleb128 0x11
 11456 0002 01       		.byte	0x1
 11457 0003 25       		.uleb128 0x25
 11458 0004 0E       		.uleb128 0xe
 11459 0005 13       		.uleb128 0x13
 11460 0006 0B       		.uleb128 0xb
 11461 0007 03       		.uleb128 0x3
 11462 0008 0E       		.uleb128 0xe
 11463 0009 1B       		.uleb128 0x1b
 11464 000a 0E       		.uleb128 0xe
 11465 000b 55       		.uleb128 0x55
 11466 000c 17       		.uleb128 0x17
 11467 000d 11       		.uleb128 0x11
 11468 000e 01       		.uleb128 0x1
 11469 000f 10       		.uleb128 0x10
 11470 0010 17       		.uleb128 0x17
 11471 0011 00       		.byte	0
 11472 0012 00       		.byte	0
 11473 0013 02       		.uleb128 0x2
 11474 0014 16       		.uleb128 0x16
 11475 0015 00       		.byte	0
 11476 0016 03       		.uleb128 0x3
 11477 0017 0E       		.uleb128 0xe
 11478 0018 3A       		.uleb128 0x3a
 11479 0019 0B       		.uleb128 0xb
 11480 001a 3B       		.uleb128 0x3b
 11481 001b 0B       		.uleb128 0xb
 11482 001c 49       		.uleb128 0x49
 11483 001d 13       		.uleb128 0x13
 11484 001e 00       		.byte	0
 11485 001f 00       		.byte	0
 11486 0020 03       		.uleb128 0x3
 11487 0021 24       		.uleb128 0x24
 11488 0022 00       		.byte	0
 11489 0023 0B       		.uleb128 0xb
 11490 0024 0B       		.uleb128 0xb
 11491 0025 3E       		.uleb128 0x3e
 11492 0026 0B       		.uleb128 0xb
 11493 0027 03       		.uleb128 0x3
 11494 0028 0E       		.uleb128 0xe
 11495 0029 00       		.byte	0
 11496 002a 00       		.byte	0
 11497 002b 04       		.uleb128 0x4
 11498 002c 24       		.uleb128 0x24
ARM GAS  C:\Users\haske\AppData\Local\Temp\ccl1At1U.s 			page 236


 11499 002d 00       		.byte	0
 11500 002e 0B       		.uleb128 0xb
 11501 002f 0B       		.uleb128 0xb
 11502 0030 3E       		.uleb128 0x3e
 11503 0031 0B       		.uleb128 0xb
 11504 0032 03       		.uleb128 0x3
 11505 0033 08       		.uleb128 0x8
 11506 0034 00       		.byte	0
 11507 0035 00       		.byte	0
 11508 0036 05       		.uleb128 0x5
 11509 0037 13       		.uleb128 0x13
 11510 0038 01       		.byte	0x1
 11511 0039 0B       		.uleb128 0xb
 11512 003a 0B       		.uleb128 0xb
 11513 003b 3A       		.uleb128 0x3a
 11514 003c 0B       		.uleb128 0xb
 11515 003d 3B       		.uleb128 0x3b
 11516 003e 0B       		.uleb128 0xb
 11517 003f 01       		.uleb128 0x1
 11518 0040 13       		.uleb128 0x13
 11519 0041 00       		.byte	0
 11520 0042 00       		.byte	0
 11521 0043 06       		.uleb128 0x6
 11522 0044 0D       		.uleb128 0xd
 11523 0045 00       		.byte	0
 11524 0046 03       		.uleb128 0x3
 11525 0047 08       		.uleb128 0x8
 11526 0048 3A       		.uleb128 0x3a
 11527 0049 0B       		.uleb128 0xb
 11528 004a 3B       		.uleb128 0x3b
 11529 004b 0B       		.uleb128 0xb
 11530 004c 49       		.uleb128 0x49
 11531 004d 13       		.uleb128 0x13
 11532 004e 38       		.uleb128 0x38
 11533 004f 0B       		.uleb128 0xb
 11534 0050 00       		.byte	0
 11535 0051 00       		.byte	0
 11536 0052 07       		.uleb128 0x7
 11537 0053 04       		.uleb128 0x4
 11538 0054 01       		.byte	0x1
 11539 0055 0B       		.uleb128 0xb
 11540 0056 0B       		.uleb128 0xb
 11541 0057 49       		.uleb128 0x49
 11542 0058 13       		.uleb128 0x13
 11543 0059 3A       		.uleb128 0x3a
 11544 005a 0B       		.uleb128 0xb
 11545 005b 3B       		.uleb128 0x3b
 11546 005c 0B       		.uleb128 0xb
 11547 005d 01       		.uleb128 0x1
 11548 005e 13       		.uleb128 0x13
 11549 005f 00       		.byte	0
 11550 0060 00       		.byte	0
 11551 0061 08       		.uleb128 0x8
 11552 0062 28       		.uleb128 0x28
 11553 0063 00       		.byte	0
 11554 0064 03       		.uleb128 0x3
 11555 0065 0E       		.uleb128 0xe
ARM GAS  C:\Users\haske\AppData\Local\Temp\ccl1At1U.s 			page 237


 11556 0066 1C       		.uleb128 0x1c
 11557 0067 0B       		.uleb128 0xb
 11558 0068 00       		.byte	0
 11559 0069 00       		.byte	0
 11560 006a 09       		.uleb128 0x9
 11561 006b 0D       		.uleb128 0xd
 11562 006c 00       		.byte	0
 11563 006d 03       		.uleb128 0x3
 11564 006e 0E       		.uleb128 0xe
 11565 006f 3A       		.uleb128 0x3a
 11566 0070 0B       		.uleb128 0xb
 11567 0071 3B       		.uleb128 0x3b
 11568 0072 0B       		.uleb128 0xb
 11569 0073 49       		.uleb128 0x49
 11570 0074 13       		.uleb128 0x13
 11571 0075 38       		.uleb128 0x38
 11572 0076 0B       		.uleb128 0xb
 11573 0077 00       		.byte	0
 11574 0078 00       		.byte	0
 11575 0079 0A       		.uleb128 0xa
 11576 007a 0D       		.uleb128 0xd
 11577 007b 00       		.byte	0
 11578 007c 03       		.uleb128 0x3
 11579 007d 08       		.uleb128 0x8
 11580 007e 3A       		.uleb128 0x3a
 11581 007f 0B       		.uleb128 0xb
 11582 0080 3B       		.uleb128 0x3b
 11583 0081 0B       		.uleb128 0xb
 11584 0082 49       		.uleb128 0x49
 11585 0083 13       		.uleb128 0x13
 11586 0084 0B       		.uleb128 0xb
 11587 0085 0B       		.uleb128 0xb
 11588 0086 0D       		.uleb128 0xd
 11589 0087 0B       		.uleb128 0xb
 11590 0088 0C       		.uleb128 0xc
 11591 0089 0B       		.uleb128 0xb
 11592 008a 38       		.uleb128 0x38
 11593 008b 0B       		.uleb128 0xb
 11594 008c 00       		.byte	0
 11595 008d 00       		.byte	0
 11596 008e 0B       		.uleb128 0xb
 11597 008f 0D       		.uleb128 0xd
 11598 0090 00       		.byte	0
 11599 0091 03       		.uleb128 0x3
 11600 0092 0E       		.uleb128 0xe
 11601 0093 3A       		.uleb128 0x3a
 11602 0094 0B       		.uleb128 0xb
 11603 0095 3B       		.uleb128 0x3b
 11604 0096 0B       		.uleb128 0xb
 11605 0097 49       		.uleb128 0x49
 11606 0098 13       		.uleb128 0x13
 11607 0099 0B       		.uleb128 0xb
 11608 009a 0B       		.uleb128 0xb
 11609 009b 0D       		.uleb128 0xd
 11610 009c 0B       		.uleb128 0xb
 11611 009d 0C       		.uleb128 0xc
 11612 009e 0B       		.uleb128 0xb
ARM GAS  C:\Users\haske\AppData\Local\Temp\ccl1At1U.s 			page 238


 11613 009f 38       		.uleb128 0x38
 11614 00a0 0B       		.uleb128 0xb
 11615 00a1 00       		.byte	0
 11616 00a2 00       		.byte	0
 11617 00a3 0C       		.uleb128 0xc
 11618 00a4 13       		.uleb128 0x13
 11619 00a5 01       		.byte	0x1
 11620 00a6 03       		.uleb128 0x3
 11621 00a7 0E       		.uleb128 0xe
 11622 00a8 0B       		.uleb128 0xb
 11623 00a9 0B       		.uleb128 0xb
 11624 00aa 3A       		.uleb128 0x3a
 11625 00ab 0B       		.uleb128 0xb
 11626 00ac 3B       		.uleb128 0x3b
 11627 00ad 0B       		.uleb128 0xb
 11628 00ae 01       		.uleb128 0x1
 11629 00af 13       		.uleb128 0x13
 11630 00b0 00       		.byte	0
 11631 00b1 00       		.byte	0
 11632 00b2 0D       		.uleb128 0xd
 11633 00b3 0F       		.uleb128 0xf
 11634 00b4 00       		.byte	0
 11635 00b5 0B       		.uleb128 0xb
 11636 00b6 0B       		.uleb128 0xb
 11637 00b7 49       		.uleb128 0x49
 11638 00b8 13       		.uleb128 0x13
 11639 00b9 00       		.byte	0
 11640 00ba 00       		.byte	0
 11641 00bb 0E       		.uleb128 0xe
 11642 00bc 26       		.uleb128 0x26
 11643 00bd 00       		.byte	0
 11644 00be 49       		.uleb128 0x49
 11645 00bf 13       		.uleb128 0x13
 11646 00c0 00       		.byte	0
 11647 00c1 00       		.byte	0
 11648 00c2 0F       		.uleb128 0xf
 11649 00c3 15       		.uleb128 0x15
 11650 00c4 01       		.byte	0x1
 11651 00c5 27       		.uleb128 0x27
 11652 00c6 19       		.uleb128 0x19
 11653 00c7 49       		.uleb128 0x49
 11654 00c8 13       		.uleb128 0x13
 11655 00c9 01       		.uleb128 0x1
 11656 00ca 13       		.uleb128 0x13
 11657 00cb 00       		.byte	0
 11658 00cc 00       		.byte	0
 11659 00cd 10       		.uleb128 0x10
 11660 00ce 05       		.uleb128 0x5
 11661 00cf 00       		.byte	0
 11662 00d0 49       		.uleb128 0x49
 11663 00d1 13       		.uleb128 0x13
 11664 00d2 00       		.byte	0
 11665 00d3 00       		.byte	0
 11666 00d4 11       		.uleb128 0x11
 11667 00d5 26       		.uleb128 0x26
 11668 00d6 00       		.byte	0
 11669 00d7 00       		.byte	0
ARM GAS  C:\Users\haske\AppData\Local\Temp\ccl1At1U.s 			page 239


 11670 00d8 00       		.byte	0
 11671 00d9 12       		.uleb128 0x12
 11672 00da 0F       		.uleb128 0xf
 11673 00db 00       		.byte	0
 11674 00dc 0B       		.uleb128 0xb
 11675 00dd 0B       		.uleb128 0xb
 11676 00de 00       		.byte	0
 11677 00df 00       		.byte	0
 11678 00e0 13       		.uleb128 0x13
 11679 00e1 17       		.uleb128 0x17
 11680 00e2 01       		.byte	0x1
 11681 00e3 0B       		.uleb128 0xb
 11682 00e4 0B       		.uleb128 0xb
 11683 00e5 3A       		.uleb128 0x3a
 11684 00e6 0B       		.uleb128 0xb
 11685 00e7 3B       		.uleb128 0x3b
 11686 00e8 0B       		.uleb128 0xb
 11687 00e9 01       		.uleb128 0x1
 11688 00ea 13       		.uleb128 0x13
 11689 00eb 00       		.byte	0
 11690 00ec 00       		.byte	0
 11691 00ed 14       		.uleb128 0x14
 11692 00ee 0D       		.uleb128 0xd
 11693 00ef 00       		.byte	0
 11694 00f0 03       		.uleb128 0x3
 11695 00f1 08       		.uleb128 0x8
 11696 00f2 3A       		.uleb128 0x3a
 11697 00f3 0B       		.uleb128 0xb
 11698 00f4 3B       		.uleb128 0x3b
 11699 00f5 0B       		.uleb128 0xb
 11700 00f6 49       		.uleb128 0x49
 11701 00f7 13       		.uleb128 0x13
 11702 00f8 00       		.byte	0
 11703 00f9 00       		.byte	0
 11704 00fa 15       		.uleb128 0x15
 11705 00fb 0D       		.uleb128 0xd
 11706 00fc 00       		.byte	0
 11707 00fd 03       		.uleb128 0x3
 11708 00fe 0E       		.uleb128 0xe
 11709 00ff 3A       		.uleb128 0x3a
 11710 0100 0B       		.uleb128 0xb
 11711 0101 3B       		.uleb128 0x3b
 11712 0102 0B       		.uleb128 0xb
 11713 0103 49       		.uleb128 0x49
 11714 0104 13       		.uleb128 0x13
 11715 0105 00       		.byte	0
 11716 0106 00       		.byte	0
 11717 0107 16       		.uleb128 0x16
 11718 0108 01       		.uleb128 0x1
 11719 0109 01       		.byte	0x1
 11720 010a 49       		.uleb128 0x49
 11721 010b 13       		.uleb128 0x13
 11722 010c 01       		.uleb128 0x1
 11723 010d 13       		.uleb128 0x13
 11724 010e 00       		.byte	0
 11725 010f 00       		.byte	0
 11726 0110 17       		.uleb128 0x17
ARM GAS  C:\Users\haske\AppData\Local\Temp\ccl1At1U.s 			page 240


 11727 0111 21       		.uleb128 0x21
 11728 0112 00       		.byte	0
 11729 0113 49       		.uleb128 0x49
 11730 0114 13       		.uleb128 0x13
 11731 0115 2F       		.uleb128 0x2f
 11732 0116 0B       		.uleb128 0xb
 11733 0117 00       		.byte	0
 11734 0118 00       		.byte	0
 11735 0119 18       		.uleb128 0x18
 11736 011a 28       		.uleb128 0x28
 11737 011b 00       		.byte	0
 11738 011c 03       		.uleb128 0x3
 11739 011d 0E       		.uleb128 0xe
 11740 011e 1C       		.uleb128 0x1c
 11741 011f 05       		.uleb128 0x5
 11742 0120 00       		.byte	0
 11743 0121 00       		.byte	0
 11744 0122 19       		.uleb128 0x19
 11745 0123 16       		.uleb128 0x16
 11746 0124 00       		.byte	0
 11747 0125 03       		.uleb128 0x3
 11748 0126 0E       		.uleb128 0xe
 11749 0127 3A       		.uleb128 0x3a
 11750 0128 0B       		.uleb128 0xb
 11751 0129 3B       		.uleb128 0x3b
 11752 012a 05       		.uleb128 0x5
 11753 012b 49       		.uleb128 0x49
 11754 012c 13       		.uleb128 0x13
 11755 012d 00       		.byte	0
 11756 012e 00       		.byte	0
 11757 012f 1A       		.uleb128 0x1a
 11758 0130 13       		.uleb128 0x13
 11759 0131 01       		.byte	0x1
 11760 0132 0B       		.uleb128 0xb
 11761 0133 0B       		.uleb128 0xb
 11762 0134 3A       		.uleb128 0x3a
 11763 0135 0B       		.uleb128 0xb
 11764 0136 3B       		.uleb128 0x3b
 11765 0137 05       		.uleb128 0x5
 11766 0138 01       		.uleb128 0x1
 11767 0139 13       		.uleb128 0x13
 11768 013a 00       		.byte	0
 11769 013b 00       		.byte	0
 11770 013c 1B       		.uleb128 0x1b
 11771 013d 0D       		.uleb128 0xd
 11772 013e 00       		.byte	0
 11773 013f 03       		.uleb128 0x3
 11774 0140 0E       		.uleb128 0xe
 11775 0141 3A       		.uleb128 0x3a
 11776 0142 0B       		.uleb128 0xb
 11777 0143 3B       		.uleb128 0x3b
 11778 0144 05       		.uleb128 0x5
 11779 0145 49       		.uleb128 0x49
 11780 0146 13       		.uleb128 0x13
 11781 0147 38       		.uleb128 0x38
 11782 0148 0B       		.uleb128 0xb
 11783 0149 00       		.byte	0
ARM GAS  C:\Users\haske\AppData\Local\Temp\ccl1At1U.s 			page 241


 11784 014a 00       		.byte	0
 11785 014b 1C       		.uleb128 0x1c
 11786 014c 17       		.uleb128 0x17
 11787 014d 01       		.byte	0x1
 11788 014e 0B       		.uleb128 0xb
 11789 014f 0B       		.uleb128 0xb
 11790 0150 3A       		.uleb128 0x3a
 11791 0151 0B       		.uleb128 0xb
 11792 0152 3B       		.uleb128 0x3b
 11793 0153 05       		.uleb128 0x5
 11794 0154 01       		.uleb128 0x1
 11795 0155 13       		.uleb128 0x13
 11796 0156 00       		.byte	0
 11797 0157 00       		.byte	0
 11798 0158 1D       		.uleb128 0x1d
 11799 0159 0D       		.uleb128 0xd
 11800 015a 00       		.byte	0
 11801 015b 03       		.uleb128 0x3
 11802 015c 0E       		.uleb128 0xe
 11803 015d 3A       		.uleb128 0x3a
 11804 015e 0B       		.uleb128 0xb
 11805 015f 3B       		.uleb128 0x3b
 11806 0160 05       		.uleb128 0x5
 11807 0161 49       		.uleb128 0x49
 11808 0162 13       		.uleb128 0x13
 11809 0163 00       		.byte	0
 11810 0164 00       		.byte	0
 11811 0165 1E       		.uleb128 0x1e
 11812 0166 0D       		.uleb128 0xd
 11813 0167 00       		.byte	0
 11814 0168 03       		.uleb128 0x3
 11815 0169 08       		.uleb128 0x8
 11816 016a 3A       		.uleb128 0x3a
 11817 016b 0B       		.uleb128 0xb
 11818 016c 3B       		.uleb128 0x3b
 11819 016d 05       		.uleb128 0x5
 11820 016e 49       		.uleb128 0x49
 11821 016f 13       		.uleb128 0x13
 11822 0170 38       		.uleb128 0x38
 11823 0171 0B       		.uleb128 0xb
 11824 0172 00       		.byte	0
 11825 0173 00       		.byte	0
 11826 0174 1F       		.uleb128 0x1f
 11827 0175 15       		.uleb128 0x15
 11828 0176 01       		.byte	0x1
 11829 0177 27       		.uleb128 0x27
 11830 0178 19       		.uleb128 0x19
 11831 0179 01       		.uleb128 0x1
 11832 017a 13       		.uleb128 0x13
 11833 017b 00       		.byte	0
 11834 017c 00       		.byte	0
 11835 017d 20       		.uleb128 0x20
 11836 017e 35       		.uleb128 0x35
 11837 017f 00       		.byte	0
 11838 0180 49       		.uleb128 0x49
 11839 0181 13       		.uleb128 0x13
 11840 0182 00       		.byte	0
ARM GAS  C:\Users\haske\AppData\Local\Temp\ccl1At1U.s 			page 242


 11841 0183 00       		.byte	0
 11842 0184 21       		.uleb128 0x21
 11843 0185 13       		.uleb128 0x13
 11844 0186 01       		.byte	0x1
 11845 0187 03       		.uleb128 0x3
 11846 0188 0E       		.uleb128 0xe
 11847 0189 0B       		.uleb128 0xb
 11848 018a 05       		.uleb128 0x5
 11849 018b 3A       		.uleb128 0x3a
 11850 018c 0B       		.uleb128 0xb
 11851 018d 3B       		.uleb128 0x3b
 11852 018e 0B       		.uleb128 0xb
 11853 018f 01       		.uleb128 0x1
 11854 0190 13       		.uleb128 0x13
 11855 0191 00       		.byte	0
 11856 0192 00       		.byte	0
 11857 0193 22       		.uleb128 0x22
 11858 0194 0D       		.uleb128 0xd
 11859 0195 00       		.byte	0
 11860 0196 03       		.uleb128 0x3
 11861 0197 0E       		.uleb128 0xe
 11862 0198 3A       		.uleb128 0x3a
 11863 0199 0B       		.uleb128 0xb
 11864 019a 3B       		.uleb128 0x3b
 11865 019b 0B       		.uleb128 0xb
 11866 019c 49       		.uleb128 0x49
 11867 019d 13       		.uleb128 0x13
 11868 019e 38       		.uleb128 0x38
 11869 019f 05       		.uleb128 0x5
 11870 01a0 00       		.byte	0
 11871 01a1 00       		.byte	0
 11872 01a2 23       		.uleb128 0x23
 11873 01a3 28       		.uleb128 0x28
 11874 01a4 00       		.byte	0
 11875 01a5 03       		.uleb128 0x3
 11876 01a6 0E       		.uleb128 0xe
 11877 01a7 1C       		.uleb128 0x1c
 11878 01a8 06       		.uleb128 0x6
 11879 01a9 00       		.byte	0
 11880 01aa 00       		.byte	0
 11881 01ab 24       		.uleb128 0x24
 11882 01ac 13       		.uleb128 0x13
 11883 01ad 00       		.byte	0
 11884 01ae 03       		.uleb128 0x3
 11885 01af 0E       		.uleb128 0xe
 11886 01b0 3C       		.uleb128 0x3c
 11887 01b1 19       		.uleb128 0x19
 11888 01b2 00       		.byte	0
 11889 01b3 00       		.byte	0
 11890 01b4 25       		.uleb128 0x25
 11891 01b5 2E       		.uleb128 0x2e
 11892 01b6 01       		.byte	0x1
 11893 01b7 03       		.uleb128 0x3
 11894 01b8 0E       		.uleb128 0xe
 11895 01b9 3A       		.uleb128 0x3a
 11896 01ba 0B       		.uleb128 0xb
 11897 01bb 3B       		.uleb128 0x3b
ARM GAS  C:\Users\haske\AppData\Local\Temp\ccl1At1U.s 			page 243


 11898 01bc 0B       		.uleb128 0xb
 11899 01bd 27       		.uleb128 0x27
 11900 01be 19       		.uleb128 0x19
 11901 01bf 49       		.uleb128 0x49
 11902 01c0 13       		.uleb128 0x13
 11903 01c1 20       		.uleb128 0x20
 11904 01c2 0B       		.uleb128 0xb
 11905 01c3 01       		.uleb128 0x1
 11906 01c4 13       		.uleb128 0x13
 11907 01c5 00       		.byte	0
 11908 01c6 00       		.byte	0
 11909 01c7 26       		.uleb128 0x26
 11910 01c8 05       		.uleb128 0x5
 11911 01c9 00       		.byte	0
 11912 01ca 03       		.uleb128 0x3
 11913 01cb 08       		.uleb128 0x8
 11914 01cc 3A       		.uleb128 0x3a
 11915 01cd 0B       		.uleb128 0xb
 11916 01ce 3B       		.uleb128 0x3b
 11917 01cf 0B       		.uleb128 0xb
 11918 01d0 49       		.uleb128 0x49
 11919 01d1 13       		.uleb128 0x13
 11920 01d2 00       		.byte	0
 11921 01d3 00       		.byte	0
 11922 01d4 27       		.uleb128 0x27
 11923 01d5 05       		.uleb128 0x5
 11924 01d6 00       		.byte	0
 11925 01d7 03       		.uleb128 0x3
 11926 01d8 0E       		.uleb128 0xe
 11927 01d9 3A       		.uleb128 0x3a
 11928 01da 0B       		.uleb128 0xb
 11929 01db 3B       		.uleb128 0x3b
 11930 01dc 0B       		.uleb128 0xb
 11931 01dd 49       		.uleb128 0x49
 11932 01de 13       		.uleb128 0x13
 11933 01df 00       		.byte	0
 11934 01e0 00       		.byte	0
 11935 01e1 28       		.uleb128 0x28
 11936 01e2 34       		.uleb128 0x34
 11937 01e3 00       		.byte	0
 11938 01e4 03       		.uleb128 0x3
 11939 01e5 08       		.uleb128 0x8
 11940 01e6 3A       		.uleb128 0x3a
 11941 01e7 0B       		.uleb128 0xb
 11942 01e8 3B       		.uleb128 0x3b
 11943 01e9 0B       		.uleb128 0xb
 11944 01ea 49       		.uleb128 0x49
 11945 01eb 13       		.uleb128 0x13
 11946 01ec 00       		.byte	0
 11947 01ed 00       		.byte	0
 11948 01ee 29       		.uleb128 0x29
 11949 01ef 2E       		.uleb128 0x2e
 11950 01f0 01       		.byte	0x1
 11951 01f1 03       		.uleb128 0x3
 11952 01f2 0E       		.uleb128 0xe
 11953 01f3 3A       		.uleb128 0x3a
 11954 01f4 0B       		.uleb128 0xb
ARM GAS  C:\Users\haske\AppData\Local\Temp\ccl1At1U.s 			page 244


 11955 01f5 3B       		.uleb128 0x3b
 11956 01f6 05       		.uleb128 0x5
 11957 01f7 27       		.uleb128 0x27
 11958 01f8 19       		.uleb128 0x19
 11959 01f9 11       		.uleb128 0x11
 11960 01fa 01       		.uleb128 0x1
 11961 01fb 12       		.uleb128 0x12
 11962 01fc 06       		.uleb128 0x6
 11963 01fd 40       		.uleb128 0x40
 11964 01fe 18       		.uleb128 0x18
 11965 01ff 9742     		.uleb128 0x2117
 11966 0201 19       		.uleb128 0x19
 11967 0202 01       		.uleb128 0x1
 11968 0203 13       		.uleb128 0x13
 11969 0204 00       		.byte	0
 11970 0205 00       		.byte	0
 11971 0206 2A       		.uleb128 0x2a
 11972 0207 05       		.uleb128 0x5
 11973 0208 00       		.byte	0
 11974 0209 03       		.uleb128 0x3
 11975 020a 0E       		.uleb128 0xe
 11976 020b 3A       		.uleb128 0x3a
 11977 020c 0B       		.uleb128 0xb
 11978 020d 3B       		.uleb128 0x3b
 11979 020e 05       		.uleb128 0x5
 11980 020f 49       		.uleb128 0x49
 11981 0210 13       		.uleb128 0x13
 11982 0211 02       		.uleb128 0x2
 11983 0212 18       		.uleb128 0x18
 11984 0213 00       		.byte	0
 11985 0214 00       		.byte	0
 11986 0215 2B       		.uleb128 0x2b
 11987 0216 2E       		.uleb128 0x2e
 11988 0217 01       		.byte	0x1
 11989 0218 03       		.uleb128 0x3
 11990 0219 0E       		.uleb128 0xe
 11991 021a 3A       		.uleb128 0x3a
 11992 021b 0B       		.uleb128 0xb
 11993 021c 3B       		.uleb128 0x3b
 11994 021d 05       		.uleb128 0x5
 11995 021e 27       		.uleb128 0x27
 11996 021f 19       		.uleb128 0x19
 11997 0220 49       		.uleb128 0x49
 11998 0221 13       		.uleb128 0x13
 11999 0222 11       		.uleb128 0x11
 12000 0223 01       		.uleb128 0x1
 12001 0224 12       		.uleb128 0x12
 12002 0225 06       		.uleb128 0x6
 12003 0226 40       		.uleb128 0x40
 12004 0227 18       		.uleb128 0x18
 12005 0228 9742     		.uleb128 0x2117
 12006 022a 19       		.uleb128 0x19
 12007 022b 01       		.uleb128 0x1
 12008 022c 13       		.uleb128 0x13
 12009 022d 00       		.byte	0
 12010 022e 00       		.byte	0
 12011 022f 2C       		.uleb128 0x2c
ARM GAS  C:\Users\haske\AppData\Local\Temp\ccl1At1U.s 			page 245


 12012 0230 05       		.uleb128 0x5
 12013 0231 00       		.byte	0
 12014 0232 03       		.uleb128 0x3
 12015 0233 0E       		.uleb128 0xe
 12016 0234 3A       		.uleb128 0x3a
 12017 0235 0B       		.uleb128 0xb
 12018 0236 3B       		.uleb128 0x3b
 12019 0237 05       		.uleb128 0x5
 12020 0238 49       		.uleb128 0x49
 12021 0239 13       		.uleb128 0x13
 12022 023a 02       		.uleb128 0x2
 12023 023b 17       		.uleb128 0x17
 12024 023c 00       		.byte	0
 12025 023d 00       		.byte	0
 12026 023e 2D       		.uleb128 0x2d
 12027 023f 34       		.uleb128 0x34
 12028 0240 00       		.byte	0
 12029 0241 03       		.uleb128 0x3
 12030 0242 0E       		.uleb128 0xe
 12031 0243 3A       		.uleb128 0x3a
 12032 0244 0B       		.uleb128 0xb
 12033 0245 3B       		.uleb128 0x3b
 12034 0246 05       		.uleb128 0x5
 12035 0247 49       		.uleb128 0x49
 12036 0248 13       		.uleb128 0x13
 12037 0249 02       		.uleb128 0x2
 12038 024a 17       		.uleb128 0x17
 12039 024b 00       		.byte	0
 12040 024c 00       		.byte	0
 12041 024d 2E       		.uleb128 0x2e
 12042 024e 898201   		.uleb128 0x4109
 12043 0251 01       		.byte	0x1
 12044 0252 11       		.uleb128 0x11
 12045 0253 01       		.uleb128 0x1
 12046 0254 31       		.uleb128 0x31
 12047 0255 13       		.uleb128 0x13
 12048 0256 01       		.uleb128 0x1
 12049 0257 13       		.uleb128 0x13
 12050 0258 00       		.byte	0
 12051 0259 00       		.byte	0
 12052 025a 2F       		.uleb128 0x2f
 12053 025b 8A8201   		.uleb128 0x410a
 12054 025e 00       		.byte	0
 12055 025f 02       		.uleb128 0x2
 12056 0260 18       		.uleb128 0x18
 12057 0261 9142     		.uleb128 0x2111
 12058 0263 18       		.uleb128 0x18
 12059 0264 00       		.byte	0
 12060 0265 00       		.byte	0
 12061 0266 30       		.uleb128 0x30
 12062 0267 898201   		.uleb128 0x4109
 12063 026a 00       		.byte	0
 12064 026b 11       		.uleb128 0x11
 12065 026c 01       		.uleb128 0x1
 12066 026d 31       		.uleb128 0x31
 12067 026e 13       		.uleb128 0x13
 12068 026f 00       		.byte	0
ARM GAS  C:\Users\haske\AppData\Local\Temp\ccl1At1U.s 			page 246


 12069 0270 00       		.byte	0
 12070 0271 31       		.uleb128 0x31
 12071 0272 898201   		.uleb128 0x4109
 12072 0275 01       		.byte	0x1
 12073 0276 11       		.uleb128 0x11
 12074 0277 01       		.uleb128 0x1
 12075 0278 31       		.uleb128 0x31
 12076 0279 13       		.uleb128 0x13
 12077 027a 00       		.byte	0
 12078 027b 00       		.byte	0
 12079 027c 32       		.uleb128 0x32
 12080 027d 2E       		.uleb128 0x2e
 12081 027e 01       		.byte	0x1
 12082 027f 03       		.uleb128 0x3
 12083 0280 0E       		.uleb128 0xe
 12084 0281 3A       		.uleb128 0x3a
 12085 0282 0B       		.uleb128 0xb
 12086 0283 3B       		.uleb128 0x3b
 12087 0284 05       		.uleb128 0x5
 12088 0285 27       		.uleb128 0x27
 12089 0286 19       		.uleb128 0x19
 12090 0287 11       		.uleb128 0x11
 12091 0288 01       		.uleb128 0x1
 12092 0289 12       		.uleb128 0x12
 12093 028a 06       		.uleb128 0x6
 12094 028b 40       		.uleb128 0x40
 12095 028c 18       		.uleb128 0x18
 12096 028d 9642     		.uleb128 0x2116
 12097 028f 19       		.uleb128 0x19
 12098 0290 01       		.uleb128 0x1
 12099 0291 13       		.uleb128 0x13
 12100 0292 00       		.byte	0
 12101 0293 00       		.byte	0
 12102 0294 33       		.uleb128 0x33
 12103 0295 0B       		.uleb128 0xb
 12104 0296 01       		.byte	0x1
 12105 0297 11       		.uleb128 0x11
 12106 0298 01       		.uleb128 0x1
 12107 0299 12       		.uleb128 0x12
 12108 029a 06       		.uleb128 0x6
 12109 029b 01       		.uleb128 0x1
 12110 029c 13       		.uleb128 0x13
 12111 029d 00       		.byte	0
 12112 029e 00       		.byte	0
 12113 029f 34       		.uleb128 0x34
 12114 02a0 34       		.uleb128 0x34
 12115 02a1 00       		.byte	0
 12116 02a2 03       		.uleb128 0x3
 12117 02a3 0E       		.uleb128 0xe
 12118 02a4 3A       		.uleb128 0x3a
 12119 02a5 0B       		.uleb128 0xb
 12120 02a6 3B       		.uleb128 0x3b
 12121 02a7 05       		.uleb128 0x5
 12122 02a8 49       		.uleb128 0x49
 12123 02a9 13       		.uleb128 0x13
 12124 02aa 02       		.uleb128 0x2
 12125 02ab 18       		.uleb128 0x18
ARM GAS  C:\Users\haske\AppData\Local\Temp\ccl1At1U.s 			page 247


 12126 02ac 00       		.byte	0
 12127 02ad 00       		.byte	0
 12128 02ae 35       		.uleb128 0x35
 12129 02af 1D       		.uleb128 0x1d
 12130 02b0 01       		.byte	0x1
 12131 02b1 31       		.uleb128 0x31
 12132 02b2 13       		.uleb128 0x13
 12133 02b3 11       		.uleb128 0x11
 12134 02b4 01       		.uleb128 0x1
 12135 02b5 12       		.uleb128 0x12
 12136 02b6 06       		.uleb128 0x6
 12137 02b7 58       		.uleb128 0x58
 12138 02b8 0B       		.uleb128 0xb
 12139 02b9 59       		.uleb128 0x59
 12140 02ba 05       		.uleb128 0x5
 12141 02bb 01       		.uleb128 0x1
 12142 02bc 13       		.uleb128 0x13
 12143 02bd 00       		.byte	0
 12144 02be 00       		.byte	0
 12145 02bf 36       		.uleb128 0x36
 12146 02c0 05       		.uleb128 0x5
 12147 02c1 00       		.byte	0
 12148 02c2 31       		.uleb128 0x31
 12149 02c3 13       		.uleb128 0x13
 12150 02c4 02       		.uleb128 0x2
 12151 02c5 17       		.uleb128 0x17
 12152 02c6 00       		.byte	0
 12153 02c7 00       		.byte	0
 12154 02c8 37       		.uleb128 0x37
 12155 02c9 0B       		.uleb128 0xb
 12156 02ca 01       		.byte	0x1
 12157 02cb 11       		.uleb128 0x11
 12158 02cc 01       		.uleb128 0x1
 12159 02cd 12       		.uleb128 0x12
 12160 02ce 06       		.uleb128 0x6
 12161 02cf 00       		.byte	0
 12162 02d0 00       		.byte	0
 12163 02d1 38       		.uleb128 0x38
 12164 02d2 34       		.uleb128 0x34
 12165 02d3 00       		.byte	0
 12166 02d4 31       		.uleb128 0x31
 12167 02d5 13       		.uleb128 0x13
 12168 02d6 02       		.uleb128 0x2
 12169 02d7 17       		.uleb128 0x17
 12170 02d8 00       		.byte	0
 12171 02d9 00       		.byte	0
 12172 02da 39       		.uleb128 0x39
 12173 02db 34       		.uleb128 0x34
 12174 02dc 00       		.byte	0
 12175 02dd 31       		.uleb128 0x31
 12176 02de 13       		.uleb128 0x13
 12177 02df 00       		.byte	0
 12178 02e0 00       		.byte	0
 12179 02e1 3A       		.uleb128 0x3a
 12180 02e2 05       		.uleb128 0x5
 12181 02e3 00       		.byte	0
 12182 02e4 03       		.uleb128 0x3
ARM GAS  C:\Users\haske\AppData\Local\Temp\ccl1At1U.s 			page 248


 12183 02e5 08       		.uleb128 0x8
 12184 02e6 3A       		.uleb128 0x3a
 12185 02e7 0B       		.uleb128 0xb
 12186 02e8 3B       		.uleb128 0x3b
 12187 02e9 05       		.uleb128 0x5
 12188 02ea 49       		.uleb128 0x49
 12189 02eb 13       		.uleb128 0x13
 12190 02ec 02       		.uleb128 0x2
 12191 02ed 17       		.uleb128 0x17
 12192 02ee 00       		.byte	0
 12193 02ef 00       		.byte	0
 12194 02f0 3B       		.uleb128 0x3b
 12195 02f1 34       		.uleb128 0x34
 12196 02f2 00       		.byte	0
 12197 02f3 03       		.uleb128 0x3
 12198 02f4 08       		.uleb128 0x8
 12199 02f5 3A       		.uleb128 0x3a
 12200 02f6 0B       		.uleb128 0xb
 12201 02f7 3B       		.uleb128 0x3b
 12202 02f8 05       		.uleb128 0x5
 12203 02f9 49       		.uleb128 0x49
 12204 02fa 13       		.uleb128 0x13
 12205 02fb 02       		.uleb128 0x2
 12206 02fc 17       		.uleb128 0x17
 12207 02fd 00       		.byte	0
 12208 02fe 00       		.byte	0
 12209 02ff 3C       		.uleb128 0x3c
 12210 0300 2E       		.uleb128 0x2e
 12211 0301 01       		.byte	0x1
 12212 0302 3F       		.uleb128 0x3f
 12213 0303 19       		.uleb128 0x19
 12214 0304 03       		.uleb128 0x3
 12215 0305 0E       		.uleb128 0xe
 12216 0306 3A       		.uleb128 0x3a
 12217 0307 0B       		.uleb128 0xb
 12218 0308 3B       		.uleb128 0x3b
 12219 0309 0B       		.uleb128 0xb
 12220 030a 27       		.uleb128 0x27
 12221 030b 19       		.uleb128 0x19
 12222 030c 11       		.uleb128 0x11
 12223 030d 01       		.uleb128 0x1
 12224 030e 12       		.uleb128 0x12
 12225 030f 06       		.uleb128 0x6
 12226 0310 40       		.uleb128 0x40
 12227 0311 18       		.uleb128 0x18
 12228 0312 9742     		.uleb128 0x2117
 12229 0314 19       		.uleb128 0x19
 12230 0315 01       		.uleb128 0x1
 12231 0316 13       		.uleb128 0x13
 12232 0317 00       		.byte	0
 12233 0318 00       		.byte	0
 12234 0319 3D       		.uleb128 0x3d
 12235 031a 05       		.uleb128 0x5
 12236 031b 00       		.byte	0
 12237 031c 03       		.uleb128 0x3
 12238 031d 0E       		.uleb128 0xe
 12239 031e 3A       		.uleb128 0x3a
ARM GAS  C:\Users\haske\AppData\Local\Temp\ccl1At1U.s 			page 249


 12240 031f 0B       		.uleb128 0xb
 12241 0320 3B       		.uleb128 0x3b
 12242 0321 0B       		.uleb128 0xb
 12243 0322 49       		.uleb128 0x49
 12244 0323 13       		.uleb128 0x13
 12245 0324 02       		.uleb128 0x2
 12246 0325 17       		.uleb128 0x17
 12247 0326 00       		.byte	0
 12248 0327 00       		.byte	0
 12249 0328 3E       		.uleb128 0x3e
 12250 0329 05       		.uleb128 0x5
 12251 032a 00       		.byte	0
 12252 032b 03       		.uleb128 0x3
 12253 032c 08       		.uleb128 0x8
 12254 032d 3A       		.uleb128 0x3a
 12255 032e 0B       		.uleb128 0xb
 12256 032f 3B       		.uleb128 0x3b
 12257 0330 0B       		.uleb128 0xb
 12258 0331 49       		.uleb128 0x49
 12259 0332 13       		.uleb128 0x13
 12260 0333 02       		.uleb128 0x2
 12261 0334 17       		.uleb128 0x17
 12262 0335 00       		.byte	0
 12263 0336 00       		.byte	0
 12264 0337 3F       		.uleb128 0x3f
 12265 0338 34       		.uleb128 0x34
 12266 0339 00       		.byte	0
 12267 033a 03       		.uleb128 0x3
 12268 033b 0E       		.uleb128 0xe
 12269 033c 3A       		.uleb128 0x3a
 12270 033d 0B       		.uleb128 0xb
 12271 033e 3B       		.uleb128 0x3b
 12272 033f 0B       		.uleb128 0xb
 12273 0340 49       		.uleb128 0x49
 12274 0341 13       		.uleb128 0x13
 12275 0342 02       		.uleb128 0x2
 12276 0343 17       		.uleb128 0x17
 12277 0344 00       		.byte	0
 12278 0345 00       		.byte	0
 12279 0346 40       		.uleb128 0x40
 12280 0347 34       		.uleb128 0x34
 12281 0348 00       		.byte	0
 12282 0349 03       		.uleb128 0x3
 12283 034a 08       		.uleb128 0x8
 12284 034b 3A       		.uleb128 0x3a
 12285 034c 0B       		.uleb128 0xb
 12286 034d 3B       		.uleb128 0x3b
 12287 034e 0B       		.uleb128 0xb
 12288 034f 49       		.uleb128 0x49
 12289 0350 13       		.uleb128 0x13
 12290 0351 02       		.uleb128 0x2
 12291 0352 17       		.uleb128 0x17
 12292 0353 00       		.byte	0
 12293 0354 00       		.byte	0
 12294 0355 41       		.uleb128 0x41
 12295 0356 2E       		.uleb128 0x2e
 12296 0357 00       		.byte	0
ARM GAS  C:\Users\haske\AppData\Local\Temp\ccl1At1U.s 			page 250


 12297 0358 3F       		.uleb128 0x3f
 12298 0359 19       		.uleb128 0x19
 12299 035a 03       		.uleb128 0x3
 12300 035b 0E       		.uleb128 0xe
 12301 035c 3A       		.uleb128 0x3a
 12302 035d 0B       		.uleb128 0xb
 12303 035e 3B       		.uleb128 0x3b
 12304 035f 0B       		.uleb128 0xb
 12305 0360 27       		.uleb128 0x27
 12306 0361 19       		.uleb128 0x19
 12307 0362 49       		.uleb128 0x49
 12308 0363 13       		.uleb128 0x13
 12309 0364 11       		.uleb128 0x11
 12310 0365 01       		.uleb128 0x1
 12311 0366 12       		.uleb128 0x12
 12312 0367 06       		.uleb128 0x6
 12313 0368 40       		.uleb128 0x40
 12314 0369 18       		.uleb128 0x18
 12315 036a 9742     		.uleb128 0x2117
 12316 036c 19       		.uleb128 0x19
 12317 036d 00       		.byte	0
 12318 036e 00       		.byte	0
 12319 036f 42       		.uleb128 0x42
 12320 0370 2E       		.uleb128 0x2e
 12321 0371 01       		.byte	0x1
 12322 0372 3F       		.uleb128 0x3f
 12323 0373 19       		.uleb128 0x19
 12324 0374 03       		.uleb128 0x3
 12325 0375 0E       		.uleb128 0xe
 12326 0376 3A       		.uleb128 0x3a
 12327 0377 0B       		.uleb128 0xb
 12328 0378 3B       		.uleb128 0x3b
 12329 0379 0B       		.uleb128 0xb
 12330 037a 27       		.uleb128 0x27
 12331 037b 19       		.uleb128 0x19
 12332 037c 49       		.uleb128 0x49
 12333 037d 13       		.uleb128 0x13
 12334 037e 11       		.uleb128 0x11
 12335 037f 01       		.uleb128 0x1
 12336 0380 12       		.uleb128 0x12
 12337 0381 06       		.uleb128 0x6
 12338 0382 40       		.uleb128 0x40
 12339 0383 18       		.uleb128 0x18
 12340 0384 9742     		.uleb128 0x2117
 12341 0386 19       		.uleb128 0x19
 12342 0387 01       		.uleb128 0x1
 12343 0388 13       		.uleb128 0x13
 12344 0389 00       		.byte	0
 12345 038a 00       		.byte	0
 12346 038b 43       		.uleb128 0x43
 12347 038c 05       		.uleb128 0x5
 12348 038d 00       		.byte	0
 12349 038e 03       		.uleb128 0x3
 12350 038f 0E       		.uleb128 0xe
 12351 0390 3A       		.uleb128 0x3a
 12352 0391 0B       		.uleb128 0xb
 12353 0392 3B       		.uleb128 0x3b
ARM GAS  C:\Users\haske\AppData\Local\Temp\ccl1At1U.s 			page 251


 12354 0393 0B       		.uleb128 0xb
 12355 0394 49       		.uleb128 0x49
 12356 0395 13       		.uleb128 0x13
 12357 0396 02       		.uleb128 0x2
 12358 0397 18       		.uleb128 0x18
 12359 0398 00       		.byte	0
 12360 0399 00       		.byte	0
 12361 039a 44       		.uleb128 0x44
 12362 039b 2E       		.uleb128 0x2e
 12363 039c 01       		.byte	0x1
 12364 039d 3F       		.uleb128 0x3f
 12365 039e 19       		.uleb128 0x19
 12366 039f 03       		.uleb128 0x3
 12367 03a0 0E       		.uleb128 0xe
 12368 03a1 3A       		.uleb128 0x3a
 12369 03a2 0B       		.uleb128 0xb
 12370 03a3 3B       		.uleb128 0x3b
 12371 03a4 05       		.uleb128 0x5
 12372 03a5 27       		.uleb128 0x27
 12373 03a6 19       		.uleb128 0x19
 12374 03a7 49       		.uleb128 0x49
 12375 03a8 13       		.uleb128 0x13
 12376 03a9 11       		.uleb128 0x11
 12377 03aa 01       		.uleb128 0x1
 12378 03ab 12       		.uleb128 0x12
 12379 03ac 06       		.uleb128 0x6
 12380 03ad 40       		.uleb128 0x40
 12381 03ae 18       		.uleb128 0x18
 12382 03af 9742     		.uleb128 0x2117
 12383 03b1 19       		.uleb128 0x19
 12384 03b2 01       		.uleb128 0x1
 12385 03b3 13       		.uleb128 0x13
 12386 03b4 00       		.byte	0
 12387 03b5 00       		.byte	0
 12388 03b6 45       		.uleb128 0x45
 12389 03b7 2E       		.uleb128 0x2e
 12390 03b8 01       		.byte	0x1
 12391 03b9 3F       		.uleb128 0x3f
 12392 03ba 19       		.uleb128 0x19
 12393 03bb 03       		.uleb128 0x3
 12394 03bc 0E       		.uleb128 0xe
 12395 03bd 3A       		.uleb128 0x3a
 12396 03be 0B       		.uleb128 0xb
 12397 03bf 3B       		.uleb128 0x3b
 12398 03c0 05       		.uleb128 0x5
 12399 03c1 27       		.uleb128 0x27
 12400 03c2 19       		.uleb128 0x19
 12401 03c3 11       		.uleb128 0x11
 12402 03c4 01       		.uleb128 0x1
 12403 03c5 12       		.uleb128 0x12
 12404 03c6 06       		.uleb128 0x6
 12405 03c7 40       		.uleb128 0x40
 12406 03c8 18       		.uleb128 0x18
 12407 03c9 9742     		.uleb128 0x2117
 12408 03cb 19       		.uleb128 0x19
 12409 03cc 01       		.uleb128 0x1
 12410 03cd 13       		.uleb128 0x13
ARM GAS  C:\Users\haske\AppData\Local\Temp\ccl1At1U.s 			page 252


 12411 03ce 00       		.byte	0
 12412 03cf 00       		.byte	0
 12413 03d0 46       		.uleb128 0x46
 12414 03d1 2E       		.uleb128 0x2e
 12415 03d2 00       		.byte	0
 12416 03d3 3F       		.uleb128 0x3f
 12417 03d4 19       		.uleb128 0x19
 12418 03d5 03       		.uleb128 0x3
 12419 03d6 0E       		.uleb128 0xe
 12420 03d7 3A       		.uleb128 0x3a
 12421 03d8 0B       		.uleb128 0xb
 12422 03d9 3B       		.uleb128 0x3b
 12423 03da 05       		.uleb128 0x5
 12424 03db 27       		.uleb128 0x27
 12425 03dc 19       		.uleb128 0x19
 12426 03dd 49       		.uleb128 0x49
 12427 03de 13       		.uleb128 0x13
 12428 03df 11       		.uleb128 0x11
 12429 03e0 01       		.uleb128 0x1
 12430 03e1 12       		.uleb128 0x12
 12431 03e2 06       		.uleb128 0x6
 12432 03e3 40       		.uleb128 0x40
 12433 03e4 18       		.uleb128 0x18
 12434 03e5 9742     		.uleb128 0x2117
 12435 03e7 19       		.uleb128 0x19
 12436 03e8 00       		.byte	0
 12437 03e9 00       		.byte	0
 12438 03ea 47       		.uleb128 0x47
 12439 03eb 34       		.uleb128 0x34
 12440 03ec 00       		.byte	0
 12441 03ed 03       		.uleb128 0x3
 12442 03ee 0E       		.uleb128 0xe
 12443 03ef 3A       		.uleb128 0x3a
 12444 03f0 0B       		.uleb128 0xb
 12445 03f1 3B       		.uleb128 0x3b
 12446 03f2 05       		.uleb128 0x5
 12447 03f3 49       		.uleb128 0x49
 12448 03f4 13       		.uleb128 0x13
 12449 03f5 1C       		.uleb128 0x1c
 12450 03f6 0B       		.uleb128 0xb
 12451 03f7 00       		.byte	0
 12452 03f8 00       		.byte	0
 12453 03f9 48       		.uleb128 0x48
 12454 03fa 34       		.uleb128 0x34
 12455 03fb 00       		.byte	0
 12456 03fc 03       		.uleb128 0x3
 12457 03fd 0E       		.uleb128 0xe
 12458 03fe 3A       		.uleb128 0x3a
 12459 03ff 0B       		.uleb128 0xb
 12460 0400 3B       		.uleb128 0x3b
 12461 0401 0B       		.uleb128 0xb
 12462 0402 49       		.uleb128 0x49
 12463 0403 13       		.uleb128 0x13
 12464 0404 02       		.uleb128 0x2
 12465 0405 18       		.uleb128 0x18
 12466 0406 00       		.byte	0
 12467 0407 00       		.byte	0
ARM GAS  C:\Users\haske\AppData\Local\Temp\ccl1At1U.s 			page 253


 12468 0408 49       		.uleb128 0x49
 12469 0409 34       		.uleb128 0x34
 12470 040a 00       		.byte	0
 12471 040b 03       		.uleb128 0x3
 12472 040c 0E       		.uleb128 0xe
 12473 040d 3A       		.uleb128 0x3a
 12474 040e 0B       		.uleb128 0xb
 12475 040f 3B       		.uleb128 0x3b
 12476 0410 0B       		.uleb128 0xb
 12477 0411 49       		.uleb128 0x49
 12478 0412 13       		.uleb128 0x13
 12479 0413 3F       		.uleb128 0x3f
 12480 0414 19       		.uleb128 0x19
 12481 0415 3C       		.uleb128 0x3c
 12482 0416 19       		.uleb128 0x19
 12483 0417 00       		.byte	0
 12484 0418 00       		.byte	0
 12485 0419 4A       		.uleb128 0x4a
 12486 041a 2E       		.uleb128 0x2e
 12487 041b 00       		.byte	0
 12488 041c 3F       		.uleb128 0x3f
 12489 041d 19       		.uleb128 0x19
 12490 041e 3C       		.uleb128 0x3c
 12491 041f 19       		.uleb128 0x19
 12492 0420 6E       		.uleb128 0x6e
 12493 0421 0E       		.uleb128 0xe
 12494 0422 03       		.uleb128 0x3
 12495 0423 0E       		.uleb128 0xe
 12496 0424 3A       		.uleb128 0x3a
 12497 0425 0B       		.uleb128 0xb
 12498 0426 3B       		.uleb128 0x3b
 12499 0427 05       		.uleb128 0x5
 12500 0428 00       		.byte	0
 12501 0429 00       		.byte	0
 12502 042a 4B       		.uleb128 0x4b
 12503 042b 2E       		.uleb128 0x2e
 12504 042c 00       		.byte	0
 12505 042d 3F       		.uleb128 0x3f
 12506 042e 19       		.uleb128 0x19
 12507 042f 3C       		.uleb128 0x3c
 12508 0430 19       		.uleb128 0x19
 12509 0431 6E       		.uleb128 0x6e
 12510 0432 0E       		.uleb128 0xe
 12511 0433 03       		.uleb128 0x3
 12512 0434 0E       		.uleb128 0xe
 12513 0435 3A       		.uleb128 0x3a
 12514 0436 0B       		.uleb128 0xb
 12515 0437 3B       		.uleb128 0x3b
 12516 0438 0B       		.uleb128 0xb
 12517 0439 00       		.byte	0
 12518 043a 00       		.byte	0
 12519 043b 4C       		.uleb128 0x4c
 12520 043c 2E       		.uleb128 0x2e
 12521 043d 00       		.byte	0
 12522 043e 3F       		.uleb128 0x3f
 12523 043f 19       		.uleb128 0x19
 12524 0440 3C       		.uleb128 0x3c
ARM GAS  C:\Users\haske\AppData\Local\Temp\ccl1At1U.s 			page 254


 12525 0441 19       		.uleb128 0x19
 12526 0442 6E       		.uleb128 0x6e
 12527 0443 0E       		.uleb128 0xe
 12528 0444 03       		.uleb128 0x3
 12529 0445 0E       		.uleb128 0xe
 12530 0446 00       		.byte	0
 12531 0447 00       		.byte	0
 12532 0448 00       		.byte	0
 12533              		.section	.debug_loc,"",%progbits
 12534              	.Ldebug_loc0:
 12535              	.LLST0:
 12536 0000 00000000 		.4byte	.LVL1
 12537 0004 04000000 		.4byte	.LVL2
 12538 0008 0100     		.2byte	0x1
 12539 000a 50       		.byte	0x50
 12540 000b 04000000 		.4byte	.LVL2
 12541 000f 1C000000 		.4byte	.LFE193
 12542 0013 0400     		.2byte	0x4
 12543 0015 F3       		.byte	0xf3
 12544 0016 01       		.uleb128 0x1
 12545 0017 50       		.byte	0x50
 12546 0018 9F       		.byte	0x9f
 12547 0019 00000000 		.4byte	0
 12548 001d 00000000 		.4byte	0
 12549              	.LLST1:
 12550 0021 00000000 		.4byte	.LVL3
 12551 0025 08000000 		.4byte	.LVL4
 12552 0029 0100     		.2byte	0x1
 12553 002b 50       		.byte	0x50
 12554 002c 08000000 		.4byte	.LVL4
 12555 0030 08010000 		.4byte	.LVL37
 12556 0034 0100     		.2byte	0x1
 12557 0036 54       		.byte	0x54
 12558 0037 08010000 		.4byte	.LVL37
 12559 003b 10010000 		.4byte	.LFE191
 12560 003f 0400     		.2byte	0x4
 12561 0041 F3       		.byte	0xf3
 12562 0042 01       		.uleb128 0x1
 12563 0043 50       		.byte	0x50
 12564 0044 9F       		.byte	0x9f
 12565 0045 00000000 		.4byte	0
 12566 0049 00000000 		.4byte	0
 12567              	.LLST2:
 12568 004d 22000000 		.4byte	.LVL7
 12569 0051 24000000 		.4byte	.LVL8
 12570 0055 0100     		.2byte	0x1
 12571 0057 50       		.byte	0x50
 12572 0058 24000000 		.4byte	.LVL8
 12573 005c 08010000 		.4byte	.LVL36
 12574 0060 0100     		.2byte	0x1
 12575 0062 55       		.byte	0x55
 12576 0063 00000000 		.4byte	0
 12577 0067 00000000 		.4byte	0
 12578              	.LLST3:
 12579 006b 32000000 		.4byte	.LVL10
 12580 006f 3C000000 		.4byte	.LVL11
 12581 0073 0100     		.2byte	0x1
ARM GAS  C:\Users\haske\AppData\Local\Temp\ccl1At1U.s 			page 255


 12582 0075 53       		.byte	0x53
 12583 0076 4E000000 		.4byte	.LVL14
 12584 007a 56000000 		.4byte	.LVL15
 12585 007e 0100     		.2byte	0x1
 12586 0080 53       		.byte	0x53
 12587 0081 80000000 		.4byte	.LVL20
 12588 0085 8C000000 		.4byte	.LVL21
 12589 0089 0100     		.2byte	0x1
 12590 008b 53       		.byte	0x53
 12591 008c A0000000 		.4byte	.LVL24
 12592 0090 AC000000 		.4byte	.LVL25
 12593 0094 0100     		.2byte	0x1
 12594 0096 53       		.byte	0x53
 12595 0097 C0000000 		.4byte	.LVL28
 12596 009b C2000000 		.4byte	.LVL29
 12597 009f 0100     		.2byte	0x1
 12598 00a1 53       		.byte	0x53
 12599 00a2 00000000 		.4byte	0
 12600 00a6 00000000 		.4byte	0
 12601              	.LLST4:
 12602 00aa 00000000 		.4byte	.LVL38
 12603 00ae 1A000000 		.4byte	.LVL40
 12604 00b2 0100     		.2byte	0x1
 12605 00b4 50       		.byte	0x50
 12606 00b5 1A000000 		.4byte	.LVL40
 12607 00b9 FE000000 		.4byte	.LVL46
 12608 00bd 0100     		.2byte	0x1
 12609 00bf 55       		.byte	0x55
 12610 00c0 FE000000 		.4byte	.LVL46
 12611 00c4 08010000 		.4byte	.LFE192
 12612 00c8 0400     		.2byte	0x4
 12613 00ca F3       		.byte	0xf3
 12614 00cb 01       		.uleb128 0x1
 12615 00cc 50       		.byte	0x50
 12616 00cd 9F       		.byte	0x9f
 12617 00ce 00000000 		.4byte	0
 12618 00d2 00000000 		.4byte	0
 12619              	.LLST5:
 12620 00d6 18000000 		.4byte	.LVL39
 12621 00da FE000000 		.4byte	.LVL45
 12622 00de 0100     		.2byte	0x1
 12623 00e0 54       		.byte	0x54
 12624 00e1 00000000 		.4byte	0
 12625 00e5 00000000 		.4byte	0
 12626              	.LLST6:
 12627 00e9 00000000 		.4byte	.LVL47
 12628 00ed 18000000 		.4byte	.LVL48
 12629 00f1 0100     		.2byte	0x1
 12630 00f3 50       		.byte	0x50
 12631 00f4 18000000 		.4byte	.LVL48
 12632 00f8 34010000 		.4byte	.LVL81
 12633 00fc 0100     		.2byte	0x1
 12634 00fe 55       		.byte	0x55
 12635 00ff 34010000 		.4byte	.LVL81
 12636 0103 40010000 		.4byte	.LFE189
 12637 0107 0400     		.2byte	0x4
 12638 0109 F3       		.byte	0xf3
ARM GAS  C:\Users\haske\AppData\Local\Temp\ccl1At1U.s 			page 256


 12639 010a 01       		.uleb128 0x1
 12640 010b 50       		.byte	0x50
 12641 010c 9F       		.byte	0x9f
 12642 010d 00000000 		.4byte	0
 12643 0111 00000000 		.4byte	0
 12644              	.LLST7:
 12645 0115 44000000 		.4byte	.LVL51
 12646 0119 4A000000 		.4byte	.LVL52
 12647 011d 0100     		.2byte	0x1
 12648 011f 53       		.byte	0x53
 12649 0120 4A000000 		.4byte	.LVL52
 12650 0124 A2000000 		.4byte	.LVL59
 12651 0128 0100     		.2byte	0x1
 12652 012a 58       		.byte	0x58
 12653 012b A2000000 		.4byte	.LVL59
 12654 012f A4000000 		.4byte	.LVL60
 12655 0133 0100     		.2byte	0x1
 12656 0135 53       		.byte	0x53
 12657 0136 A4000000 		.4byte	.LVL60
 12658 013a 26010000 		.4byte	.LVL78
 12659 013e 0100     		.2byte	0x1
 12660 0140 58       		.byte	0x58
 12661 0141 26010000 		.4byte	.LVL78
 12662 0145 2B010000 		.4byte	.LVL79-1
 12663 0149 0100     		.2byte	0x1
 12664 014b 53       		.byte	0x53
 12665 014c 2B010000 		.4byte	.LVL79-1
 12666 0150 32010000 		.4byte	.LVL80
 12667 0154 0100     		.2byte	0x1
 12668 0156 58       		.byte	0x58
 12669 0157 00000000 		.4byte	0
 12670 015b 00000000 		.4byte	0
 12671              	.LLST8:
 12672 015f A2000000 		.4byte	.LVL59
 12673 0163 B4000000 		.4byte	.LVL62
 12674 0167 0200     		.2byte	0x2
 12675 0169 30       		.byte	0x30
 12676 016a 9F       		.byte	0x9f
 12677 016b B4000000 		.4byte	.LVL62
 12678 016f C0000000 		.4byte	.LVL64
 12679 0173 0100     		.2byte	0x1
 12680 0175 56       		.byte	0x56
 12681 0176 C2000000 		.4byte	.LVL65
 12682 017a F6000000 		.4byte	.LVL72
 12683 017e 0100     		.2byte	0x1
 12684 0180 56       		.byte	0x56
 12685 0181 F8000000 		.4byte	.LVL73
 12686 0185 20010000 		.4byte	.LVL77
 12687 0189 0100     		.2byte	0x1
 12688 018b 56       		.byte	0x56
 12689 018c 00000000 		.4byte	0
 12690 0190 00000000 		.4byte	0
 12691              	.LLST9:
 12692 0194 A2000000 		.4byte	.LVL59
 12693 0198 B4000000 		.4byte	.LVL62
 12694 019c 0400     		.2byte	0x4
 12695 019e 0A       		.byte	0xa
ARM GAS  C:\Users\haske\AppData\Local\Temp\ccl1At1U.s 			page 257


 12696 019f 0001     		.2byte	0x100
 12697 01a1 9F       		.byte	0x9f
 12698 01a2 B4000000 		.4byte	.LVL62
 12699 01a6 04010000 		.4byte	.LVL75
 12700 01aa 0100     		.2byte	0x1
 12701 01ac 57       		.byte	0x57
 12702 01ad 04010000 		.4byte	.LVL75
 12703 01b1 20010000 		.4byte	.LVL77
 12704 01b5 0100     		.2byte	0x1
 12705 01b7 54       		.byte	0x54
 12706 01b8 00000000 		.4byte	0
 12707 01bc 00000000 		.4byte	0
 12708              	.LLST10:
 12709 01c0 AA000000 		.4byte	.LVL61
 12710 01c4 B4000000 		.4byte	.LVL62
 12711 01c8 0100     		.2byte	0x1
 12712 01ca 58       		.byte	0x58
 12713 01cb B4000000 		.4byte	.LVL62
 12714 01cf 04010000 		.4byte	.LVL75
 12715 01d3 0100     		.2byte	0x1
 12716 01d5 54       		.byte	0x54
 12717 01d6 00000000 		.4byte	0
 12718 01da 00000000 		.4byte	0
 12719              	.LLST11:
 12720 01de B4000000 		.4byte	.LVL62
 12721 01e2 BE000000 		.4byte	.LVL63
 12722 01e6 0200     		.2byte	0x2
 12723 01e8 30       		.byte	0x30
 12724 01e9 9F       		.byte	0x9f
 12725 01ea 00000000 		.4byte	0
 12726 01ee 00000000 		.4byte	0
 12727              	.LLST12:
 12728 01f2 B4000000 		.4byte	.LVL62
 12729 01f6 BE000000 		.4byte	.LVL63
 12730 01fa 0100     		.2byte	0x1
 12731 01fc 54       		.byte	0x54
 12732 01fd 00000000 		.4byte	0
 12733 0201 00000000 		.4byte	0
 12734              	.LLST13:
 12735 0205 BE000000 		.4byte	.LVL63
 12736 0209 C8000000 		.4byte	.LVL66
 12737 020d 0100     		.2byte	0x1
 12738 020f 50       		.byte	0x50
 12739 0210 00000000 		.4byte	0
 12740 0214 00000000 		.4byte	0
 12741              	.LLST14:
 12742 0218 C2000000 		.4byte	.LVL65
 12743 021c CE000000 		.4byte	.LVL68
 12744 0220 0200     		.2byte	0x2
 12745 0222 30       		.byte	0x30
 12746 0223 9F       		.byte	0x9f
 12747 0224 00000000 		.4byte	0
 12748 0228 00000000 		.4byte	0
 12749              	.LLST15:
 12750 022c C2000000 		.4byte	.LVL65
 12751 0230 CE000000 		.4byte	.LVL68
 12752 0234 0100     		.2byte	0x1
ARM GAS  C:\Users\haske\AppData\Local\Temp\ccl1At1U.s 			page 258


 12753 0236 54       		.byte	0x54
 12754 0237 00000000 		.4byte	0
 12755 023b 00000000 		.4byte	0
 12756              	.LLST16:
 12757 023f 00000000 		.4byte	.LVL82
 12758 0243 36000000 		.4byte	.LVL85
 12759 0247 0100     		.2byte	0x1
 12760 0249 50       		.byte	0x50
 12761 024a 36000000 		.4byte	.LVL85
 12762 024e BC000000 		.4byte	.LVL99
 12763 0252 0100     		.2byte	0x1
 12764 0254 54       		.byte	0x54
 12765 0255 BC000000 		.4byte	.LVL99
 12766 0259 E6000000 		.4byte	.LVL103
 12767 025d 0300     		.2byte	0x3
 12768 025f 74       		.byte	0x74
 12769 0260 7C       		.sleb128 -4
 12770 0261 9F       		.byte	0x9f
 12771 0262 E6000000 		.4byte	.LVL103
 12772 0266 F2000000 		.4byte	.LVL105
 12773 026a 0100     		.2byte	0x1
 12774 026c 54       		.byte	0x54
 12775 026d F2000000 		.4byte	.LVL105
 12776 0271 18010000 		.4byte	.LVL109
 12777 0275 0300     		.2byte	0x3
 12778 0277 74       		.byte	0x74
 12779 0278 7C       		.sleb128 -4
 12780 0279 9F       		.byte	0x9f
 12781 027a 18010000 		.4byte	.LVL109
 12782 027e 86020000 		.4byte	.LVL145
 12783 0282 0100     		.2byte	0x1
 12784 0284 54       		.byte	0x54
 12785 0285 86020000 		.4byte	.LVL145
 12786 0289 94020000 		.4byte	.LFE185
 12787 028d 0400     		.2byte	0x4
 12788 028f F3       		.byte	0xf3
 12789 0290 01       		.uleb128 0x1
 12790 0291 50       		.byte	0x50
 12791 0292 9F       		.byte	0x9f
 12792 0293 00000000 		.4byte	0
 12793 0297 00000000 		.4byte	0
 12794              	.LLST17:
 12795 029b 00000000 		.4byte	.LVL82
 12796 029f 22000000 		.4byte	.LVL83
 12797 02a3 0100     		.2byte	0x1
 12798 02a5 51       		.byte	0x51
 12799 02a6 22000000 		.4byte	.LVL83
 12800 02aa 3E020000 		.4byte	.LVL139
 12801 02ae 0100     		.2byte	0x1
 12802 02b0 55       		.byte	0x55
 12803 02b1 3E020000 		.4byte	.LVL139
 12804 02b5 94020000 		.4byte	.LFE185
 12805 02b9 0400     		.2byte	0x4
 12806 02bb F3       		.byte	0xf3
 12807 02bc 01       		.uleb128 0x1
 12808 02bd 51       		.byte	0x51
 12809 02be 9F       		.byte	0x9f
ARM GAS  C:\Users\haske\AppData\Local\Temp\ccl1At1U.s 			page 259


 12810 02bf 00000000 		.4byte	0
 12811 02c3 00000000 		.4byte	0
 12812              	.LLST18:
 12813 02c7 2E000000 		.4byte	.LVL84
 12814 02cb 8C020000 		.4byte	.LVL146
 12815 02cf 0100     		.2byte	0x1
 12816 02d1 57       		.byte	0x57
 12817 02d2 00000000 		.4byte	0
 12818 02d6 00000000 		.4byte	0
 12819              	.LLST19:
 12820 02da 4C000000 		.4byte	.LVL88
 12821 02de 65000000 		.4byte	.LVL91-1
 12822 02e2 0100     		.2byte	0x1
 12823 02e4 50       		.byte	0x50
 12824 02e5 65000000 		.4byte	.LVL91-1
 12825 02e9 2C010000 		.4byte	.LVL112
 12826 02ed 0100     		.2byte	0x1
 12827 02ef 56       		.byte	0x56
 12828 02f0 2C010000 		.4byte	.LVL112
 12829 02f4 44010000 		.4byte	.LVL114
 12830 02f8 0100     		.2byte	0x1
 12831 02fa 50       		.byte	0x50
 12832 02fb 44010000 		.4byte	.LVL114
 12833 02ff 1E020000 		.4byte	.LVL134
 12834 0303 0100     		.2byte	0x1
 12835 0305 56       		.byte	0x56
 12836 0306 1E020000 		.4byte	.LVL134
 12837 030a 36020000 		.4byte	.LVL136
 12838 030e 0100     		.2byte	0x1
 12839 0310 50       		.byte	0x50
 12840 0311 36020000 		.4byte	.LVL136
 12841 0315 8C020000 		.4byte	.LVL146
 12842 0319 0100     		.2byte	0x1
 12843 031b 56       		.byte	0x56
 12844 031c 00000000 		.4byte	0
 12845 0320 00000000 		.4byte	0
 12846              	.LLST20:
 12847 0324 4E000000 		.4byte	.LVL89
 12848 0328 65000000 		.4byte	.LVL91-1
 12849 032c 0100     		.2byte	0x1
 12850 032e 51       		.byte	0x51
 12851 032f 2C010000 		.4byte	.LVL112
 12852 0333 46010000 		.4byte	.LVL115
 12853 0337 0100     		.2byte	0x1
 12854 0339 51       		.byte	0x51
 12855 033a 1E020000 		.4byte	.LVL134
 12856 033e 38020000 		.4byte	.LVL137
 12857 0342 0100     		.2byte	0x1
 12858 0344 51       		.byte	0x51
 12859 0345 38020000 		.4byte	.LVL137
 12860 0349 3B020000 		.4byte	.LVL138-1
 12861 034d 0200     		.2byte	0x2
 12862 034f 75       		.byte	0x75
 12863 0350 04       		.sleb128 4
 12864 0351 00000000 		.4byte	0
 12865 0355 00000000 		.4byte	0
 12866              	.LLST21:
ARM GAS  C:\Users\haske\AppData\Local\Temp\ccl1At1U.s 			page 260


 12867 0359 54000000 		.4byte	.LVL90
 12868 035d 65000000 		.4byte	.LVL91-1
 12869 0361 0100     		.2byte	0x1
 12870 0363 52       		.byte	0x52
 12871 0364 2C010000 		.4byte	.LVL112
 12872 0368 42010000 		.4byte	.LVL113
 12873 036c 0100     		.2byte	0x1
 12874 036e 52       		.byte	0x52
 12875 036f 1E020000 		.4byte	.LVL134
 12876 0373 34020000 		.4byte	.LVL135
 12877 0377 0100     		.2byte	0x1
 12878 0379 52       		.byte	0x52
 12879 037a 00000000 		.4byte	0
 12880 037e 00000000 		.4byte	0
 12881              	.LLST22:
 12882 0382 00000000 		.4byte	.LVL147
 12883 0386 40000000 		.4byte	.LVL151
 12884 038a 0100     		.2byte	0x1
 12885 038c 50       		.byte	0x50
 12886 038d 40000000 		.4byte	.LVL151
 12887 0391 2C040000 		.4byte	.LVL246
 12888 0395 0100     		.2byte	0x1
 12889 0397 54       		.byte	0x54
 12890 0398 2C040000 		.4byte	.LVL246
 12891 039c 34040000 		.4byte	.LFE186
 12892 03a0 0400     		.2byte	0x4
 12893 03a2 F3       		.byte	0xf3
 12894 03a3 01       		.uleb128 0x1
 12895 03a4 50       		.byte	0x50
 12896 03a5 9F       		.byte	0x9f
 12897 03a6 00000000 		.4byte	0
 12898 03aa 00000000 		.4byte	0
 12899              	.LLST23:
 12900 03ae 00000000 		.4byte	.LVL147
 12901 03b2 22000000 		.4byte	.LVL148
 12902 03b6 0100     		.2byte	0x1
 12903 03b8 51       		.byte	0x51
 12904 03b9 22000000 		.4byte	.LVL148
 12905 03bd 2C040000 		.4byte	.LVL247
 12906 03c1 0100     		.2byte	0x1
 12907 03c3 55       		.byte	0x55
 12908 03c4 2C040000 		.4byte	.LVL247
 12909 03c8 34040000 		.4byte	.LFE186
 12910 03cc 0400     		.2byte	0x4
 12911 03ce F3       		.byte	0xf3
 12912 03cf 01       		.uleb128 0x1
 12913 03d0 51       		.byte	0x51
 12914 03d1 9F       		.byte	0x9f
 12915 03d2 00000000 		.4byte	0
 12916 03d6 00000000 		.4byte	0
 12917              	.LLST24:
 12918 03da 2E000000 		.4byte	.LVL149
 12919 03de 9C000000 		.4byte	.LVL157
 12920 03e2 0100     		.2byte	0x1
 12921 03e4 57       		.byte	0x57
 12922 03e5 9E000000 		.4byte	.LVL158
 12923 03e9 A0000000 		.4byte	.LVL159
ARM GAS  C:\Users\haske\AppData\Local\Temp\ccl1At1U.s 			page 261


 12924 03ed 0100     		.2byte	0x1
 12925 03ef 57       		.byte	0x57
 12926 03f0 CA000000 		.4byte	.LVL163
 12927 03f4 F2000000 		.4byte	.LVL165
 12928 03f8 0100     		.2byte	0x1
 12929 03fa 57       		.byte	0x57
 12930 03fb 18010000 		.4byte	.LVL169
 12931 03ff 8A020000 		.4byte	.LVL196
 12932 0403 0100     		.2byte	0x1
 12933 0405 57       		.byte	0x57
 12934 0406 CC020000 		.4byte	.LVL202
 12935 040a F4020000 		.4byte	.LVL206
 12936 040e 0100     		.2byte	0x1
 12937 0410 57       		.byte	0x57
 12938 0411 44030000 		.4byte	.LVL214
 12939 0415 62030000 		.4byte	.LVL216
 12940 0419 0100     		.2byte	0x1
 12941 041b 57       		.byte	0x57
 12942 041c 00000000 		.4byte	0
 12943 0420 00000000 		.4byte	0
 12944              	.LLST25:
 12945 0424 38000000 		.4byte	.LVL150
 12946 0428 2C040000 		.4byte	.LVL245
 12947 042c 0100     		.2byte	0x1
 12948 042e 56       		.byte	0x56
 12949 042f 00000000 		.4byte	0
 12950 0433 00000000 		.4byte	0
 12951              	.LLST26:
 12952 0437 A0000000 		.4byte	.LVL159
 12953 043b CA000000 		.4byte	.LVL163
 12954 043f 0100     		.2byte	0x1
 12955 0441 57       		.byte	0x57
 12956 0442 00000000 		.4byte	0
 12957 0446 00000000 		.4byte	0
 12958              	.LLST27:
 12959 044a 84010000 		.4byte	.LVL176
 12960 044e 8D010000 		.4byte	.LVL177-1
 12961 0452 0100     		.2byte	0x1
 12962 0454 53       		.byte	0x53
 12963 0455 B4010000 		.4byte	.LVL181
 12964 0459 B6010000 		.4byte	.LVL182
 12965 045d 0100     		.2byte	0x1
 12966 045f 53       		.byte	0x53
 12967 0460 00000000 		.4byte	0
 12968 0464 00000000 		.4byte	0
 12969              	.LLST28:
 12970 0468 78020000 		.4byte	.LVL193
 12971 046c 7E020000 		.4byte	.LVL194
 12972 0470 0100     		.2byte	0x1
 12973 0472 53       		.byte	0x53
 12974 0473 CC020000 		.4byte	.LVL202
 12975 0477 D1020000 		.4byte	.LVL203-1
 12976 047b 0100     		.2byte	0x1
 12977 047d 53       		.byte	0x53
 12978 047e 00000000 		.4byte	0
 12979 0482 00000000 		.4byte	0
 12980              	.LLST29:
ARM GAS  C:\Users\haske\AppData\Local\Temp\ccl1At1U.s 			page 262


 12981 0486 90030000 		.4byte	.LVL218
 12982 048a A6030000 		.4byte	.LVL222
 12983 048e 0100     		.2byte	0x1
 12984 0490 57       		.byte	0x57
 12985 0491 A8030000 		.4byte	.LVL223
 12986 0495 B4030000 		.4byte	.LVL224
 12987 0499 0100     		.2byte	0x1
 12988 049b 57       		.byte	0x57
 12989 049c BA030000 		.4byte	.LVL225
 12990 04a0 D0030000 		.4byte	.LVL229
 12991 04a4 0100     		.2byte	0x1
 12992 04a6 57       		.byte	0x57
 12993 04a7 D2030000 		.4byte	.LVL230
 12994 04ab DC030000 		.4byte	.LVL231
 12995 04af 0100     		.2byte	0x1
 12996 04b1 57       		.byte	0x57
 12997 04b2 00000000 		.4byte	0
 12998 04b6 00000000 		.4byte	0
 12999              	.LLST30:
 13000 04ba E6030000 		.4byte	.LVL232
 13001 04be FA030000 		.4byte	.LVL236
 13002 04c2 0100     		.2byte	0x1
 13003 04c4 57       		.byte	0x57
 13004 04c5 FC030000 		.4byte	.LVL237
 13005 04c9 08040000 		.4byte	.LVL238
 13006 04cd 0100     		.2byte	0x1
 13007 04cf 57       		.byte	0x57
 13008 04d0 0E040000 		.4byte	.LVL239
 13009 04d4 22040000 		.4byte	.LVL243
 13010 04d8 0100     		.2byte	0x1
 13011 04da 57       		.byte	0x57
 13012 04db 24040000 		.4byte	.LVL244
 13013 04df 2C040000 		.4byte	.LVL245
 13014 04e3 0100     		.2byte	0x1
 13015 04e5 57       		.byte	0x57
 13016 04e6 00000000 		.4byte	0
 13017 04ea 00000000 		.4byte	0
 13018              	.LLST31:
 13019 04ee 00000000 		.4byte	.LVL248
 13020 04f2 20000000 		.4byte	.LVL252
 13021 04f6 0100     		.2byte	0x1
 13022 04f8 50       		.byte	0x50
 13023 04f9 20000000 		.4byte	.LVL252
 13024 04fd 3C000000 		.4byte	.LFE166
 13025 0501 0400     		.2byte	0x4
 13026 0503 F3       		.byte	0xf3
 13027 0504 01       		.uleb128 0x1
 13028 0505 50       		.byte	0x50
 13029 0506 9F       		.byte	0x9f
 13030 0507 00000000 		.4byte	0
 13031 050b 00000000 		.4byte	0
 13032              	.LLST32:
 13033 050f 00000000 		.4byte	.LVL248
 13034 0513 23000000 		.4byte	.LVL253-1
 13035 0517 0100     		.2byte	0x1
 13036 0519 51       		.byte	0x51
 13037 051a 23000000 		.4byte	.LVL253-1
ARM GAS  C:\Users\haske\AppData\Local\Temp\ccl1At1U.s 			page 263


 13038 051e 3C000000 		.4byte	.LFE166
 13039 0522 0400     		.2byte	0x4
 13040 0524 F3       		.byte	0xf3
 13041 0525 01       		.uleb128 0x1
 13042 0526 51       		.byte	0x51
 13043 0527 9F       		.byte	0x9f
 13044 0528 00000000 		.4byte	0
 13045 052c 00000000 		.4byte	0
 13046              	.LLST33:
 13047 0530 0C000000 		.4byte	.LVL249
 13048 0534 12000000 		.4byte	.LVL250
 13049 0538 0100     		.2byte	0x1
 13050 053a 54       		.byte	0x54
 13051 053b 1E000000 		.4byte	.LVL251
 13052 053f 3A000000 		.4byte	.LVL255
 13053 0543 0100     		.2byte	0x1
 13054 0545 54       		.byte	0x54
 13055 0546 00000000 		.4byte	0
 13056 054a 00000000 		.4byte	0
 13057              	.LLST34:
 13058 054e 24000000 		.4byte	.LVL253
 13059 0552 35000000 		.4byte	.LVL254-1
 13060 0556 0100     		.2byte	0x1
 13061 0558 50       		.byte	0x50
 13062 0559 36000000 		.4byte	.LVL254
 13063 055d 3A000000 		.4byte	.LVL255
 13064 0561 0100     		.2byte	0x1
 13065 0563 50       		.byte	0x50
 13066 0564 00000000 		.4byte	0
 13067 0568 00000000 		.4byte	0
 13068              	.LLST35:
 13069 056c 00000000 		.4byte	.LVL256
 13070 0570 08000000 		.4byte	.LVL257
 13071 0574 0100     		.2byte	0x1
 13072 0576 50       		.byte	0x50
 13073 0577 08000000 		.4byte	.LVL257
 13074 057b 0A000000 		.4byte	.LVL258
 13075 057f 0400     		.2byte	0x4
 13076 0581 F3       		.byte	0xf3
 13077 0582 01       		.uleb128 0x1
 13078 0583 50       		.byte	0x50
 13079 0584 9F       		.byte	0x9f
 13080 0585 0A000000 		.4byte	.LVL258
 13081 0589 0C000000 		.4byte	.LVL259
 13082 058d 0100     		.2byte	0x1
 13083 058f 50       		.byte	0x50
 13084 0590 0C000000 		.4byte	.LVL259
 13085 0594 0E000000 		.4byte	.LFE168
 13086 0598 0400     		.2byte	0x4
 13087 059a F3       		.byte	0xf3
 13088 059b 01       		.uleb128 0x1
 13089 059c 50       		.byte	0x50
 13090 059d 9F       		.byte	0x9f
 13091 059e 00000000 		.4byte	0
 13092 05a2 00000000 		.4byte	0
 13093              	.LLST36:
 13094 05a6 00000000 		.4byte	.LVL260
ARM GAS  C:\Users\haske\AppData\Local\Temp\ccl1At1U.s 			page 264


 13095 05aa 58000000 		.4byte	.LVL261
 13096 05ae 0100     		.2byte	0x1
 13097 05b0 50       		.byte	0x50
 13098 05b1 58000000 		.4byte	.LVL261
 13099 05b5 B0000000 		.4byte	.LFE169
 13100 05b9 0400     		.2byte	0x4
 13101 05bb F3       		.byte	0xf3
 13102 05bc 01       		.uleb128 0x1
 13103 05bd 50       		.byte	0x50
 13104 05be 9F       		.byte	0x9f
 13105 05bf 00000000 		.4byte	0
 13106 05c3 00000000 		.4byte	0
 13107              	.LLST37:
 13108 05c7 00000000 		.4byte	.LVL260
 13109 05cb 5B000000 		.4byte	.LVL262-1
 13110 05cf 0100     		.2byte	0x1
 13111 05d1 51       		.byte	0x51
 13112 05d2 5B000000 		.4byte	.LVL262-1
 13113 05d6 AA000000 		.4byte	.LVL265
 13114 05da 0100     		.2byte	0x1
 13115 05dc 54       		.byte	0x54
 13116 05dd AA000000 		.4byte	.LVL265
 13117 05e1 B0000000 		.4byte	.LFE169
 13118 05e5 0400     		.2byte	0x4
 13119 05e7 F3       		.byte	0xf3
 13120 05e8 01       		.uleb128 0x1
 13121 05e9 51       		.byte	0x51
 13122 05ea 9F       		.byte	0x9f
 13123 05eb 00000000 		.4byte	0
 13124 05ef 00000000 		.4byte	0
 13125              	.LLST38:
 13126 05f3 5C000000 		.4byte	.LVL262
 13127 05f7 9F000000 		.4byte	.LVL263-1
 13128 05fb 0100     		.2byte	0x1
 13129 05fd 50       		.byte	0x50
 13130 05fe A0000000 		.4byte	.LVL263
 13131 0602 AA000000 		.4byte	.LVL264
 13132 0606 0100     		.2byte	0x1
 13133 0608 50       		.byte	0x50
 13134 0609 00000000 		.4byte	0
 13135 060d 00000000 		.4byte	0
 13136              	.LLST39:
 13137 0611 00000000 		.4byte	.LVL266
 13138 0615 0F000000 		.4byte	.LVL267-1
 13139 0619 0100     		.2byte	0x1
 13140 061b 50       		.byte	0x50
 13141 061c 0F000000 		.4byte	.LVL267-1
 13142 0620 18000000 		.4byte	.LVL269
 13143 0624 0100     		.2byte	0x1
 13144 0626 54       		.byte	0x54
 13145 0627 18000000 		.4byte	.LVL269
 13146 062b 1A000000 		.4byte	.LFE170
 13147 062f 0400     		.2byte	0x4
 13148 0631 F3       		.byte	0xf3
 13149 0632 01       		.uleb128 0x1
 13150 0633 50       		.byte	0x50
 13151 0634 9F       		.byte	0x9f
ARM GAS  C:\Users\haske\AppData\Local\Temp\ccl1At1U.s 			page 265


 13152 0635 00000000 		.4byte	0
 13153 0639 00000000 		.4byte	0
 13154              	.LLST40:
 13155 063d 00000000 		.4byte	.LVL270
 13156 0641 12000000 		.4byte	.LVL271
 13157 0645 0100     		.2byte	0x1
 13158 0647 50       		.byte	0x50
 13159 0648 12000000 		.4byte	.LVL271
 13160 064c 3E000000 		.4byte	.LVL277
 13161 0650 0100     		.2byte	0x1
 13162 0652 54       		.byte	0x54
 13163 0653 3E000000 		.4byte	.LVL277
 13164 0657 40000000 		.4byte	.LFE171
 13165 065b 0400     		.2byte	0x4
 13166 065d F3       		.byte	0xf3
 13167 065e 01       		.uleb128 0x1
 13168 065f 50       		.byte	0x50
 13169 0660 9F       		.byte	0x9f
 13170 0661 00000000 		.4byte	0
 13171 0665 00000000 		.4byte	0
 13172              	.LLST41:
 13173 0669 00000000 		.4byte	.LVL270
 13174 066d 15000000 		.4byte	.LVL272-1
 13175 0671 0100     		.2byte	0x1
 13176 0673 51       		.byte	0x51
 13177 0674 15000000 		.4byte	.LVL272-1
 13178 0678 3E000000 		.4byte	.LVL278
 13179 067c 0100     		.2byte	0x1
 13180 067e 55       		.byte	0x55
 13181 067f 3E000000 		.4byte	.LVL278
 13182 0683 40000000 		.4byte	.LFE171
 13183 0687 0400     		.2byte	0x4
 13184 0689 F3       		.byte	0xf3
 13185 068a 01       		.uleb128 0x1
 13186 068b 51       		.byte	0x51
 13187 068c 9F       		.byte	0x9f
 13188 068d 00000000 		.4byte	0
 13189 0691 00000000 		.4byte	0
 13190              	.LLST42:
 13191 0695 00000000 		.4byte	.LVL282
 13192 0699 04000000 		.4byte	.LVL283
 13193 069d 0100     		.2byte	0x1
 13194 069f 50       		.byte	0x50
 13195 06a0 04000000 		.4byte	.LVL283
 13196 06a4 08000000 		.4byte	.LFE175
 13197 06a8 0400     		.2byte	0x4
 13198 06aa F3       		.byte	0xf3
 13199 06ab 01       		.uleb128 0x1
 13200 06ac 50       		.byte	0x50
 13201 06ad 9F       		.byte	0x9f
 13202 06ae 00000000 		.4byte	0
 13203 06b2 00000000 		.4byte	0
 13204              	.LLST43:
 13205 06b6 00000000 		.4byte	.LVL284
 13206 06ba 0A000000 		.4byte	.LVL285
 13207 06be 0100     		.2byte	0x1
 13208 06c0 50       		.byte	0x50
ARM GAS  C:\Users\haske\AppData\Local\Temp\ccl1At1U.s 			page 266


 13209 06c1 0A000000 		.4byte	.LVL285
 13210 06c5 0C000000 		.4byte	.LVL286
 13211 06c9 0400     		.2byte	0x4
 13212 06cb F3       		.byte	0xf3
 13213 06cc 01       		.uleb128 0x1
 13214 06cd 50       		.byte	0x50
 13215 06ce 9F       		.byte	0x9f
 13216 06cf 0C000000 		.4byte	.LVL286
 13217 06d3 0E000000 		.4byte	.LVL287
 13218 06d7 0100     		.2byte	0x1
 13219 06d9 50       		.byte	0x50
 13220 06da 0E000000 		.4byte	.LVL287
 13221 06de 10000000 		.4byte	.LFE176
 13222 06e2 0400     		.2byte	0x4
 13223 06e4 F3       		.byte	0xf3
 13224 06e5 01       		.uleb128 0x1
 13225 06e6 50       		.byte	0x50
 13226 06e7 9F       		.byte	0x9f
 13227 06e8 00000000 		.4byte	0
 13228 06ec 00000000 		.4byte	0
 13229              	.LLST44:
 13230 06f0 00000000 		.4byte	.LVL288
 13231 06f4 14000000 		.4byte	.LVL289
 13232 06f8 0100     		.2byte	0x1
 13233 06fa 50       		.byte	0x50
 13234 06fb 14000000 		.4byte	.LVL289
 13235 06ff 1A000000 		.4byte	.LVL290
 13236 0703 0400     		.2byte	0x4
 13237 0705 F3       		.byte	0xf3
 13238 0706 01       		.uleb128 0x1
 13239 0707 50       		.byte	0x50
 13240 0708 9F       		.byte	0x9f
 13241 0709 1A000000 		.4byte	.LVL290
 13242 070d 1C000000 		.4byte	.LVL291
 13243 0711 0100     		.2byte	0x1
 13244 0713 50       		.byte	0x50
 13245 0714 1C000000 		.4byte	.LVL291
 13246 0718 1E000000 		.4byte	.LVL292
 13247 071c 0400     		.2byte	0x4
 13248 071e F3       		.byte	0xf3
 13249 071f 01       		.uleb128 0x1
 13250 0720 50       		.byte	0x50
 13251 0721 9F       		.byte	0x9f
 13252 0722 1E000000 		.4byte	.LVL292
 13253 0726 20000000 		.4byte	.LVL293
 13254 072a 0100     		.2byte	0x1
 13255 072c 50       		.byte	0x50
 13256 072d 20000000 		.4byte	.LVL293
 13257 0731 22000000 		.4byte	.LFE177
 13258 0735 0400     		.2byte	0x4
 13259 0737 F3       		.byte	0xf3
 13260 0738 01       		.uleb128 0x1
 13261 0739 50       		.byte	0x50
 13262 073a 9F       		.byte	0x9f
 13263 073b 00000000 		.4byte	0
 13264 073f 00000000 		.4byte	0
 13265              	.LLST45:
ARM GAS  C:\Users\haske\AppData\Local\Temp\ccl1At1U.s 			page 267


 13266 0743 00000000 		.4byte	.LVL294
 13267 0747 12000000 		.4byte	.LVL295
 13268 074b 0100     		.2byte	0x1
 13269 074d 50       		.byte	0x50
 13270 074e 12000000 		.4byte	.LVL295
 13271 0752 14000000 		.4byte	.LVL296
 13272 0756 0400     		.2byte	0x4
 13273 0758 F3       		.byte	0xf3
 13274 0759 01       		.uleb128 0x1
 13275 075a 50       		.byte	0x50
 13276 075b 9F       		.byte	0x9f
 13277 075c 14000000 		.4byte	.LVL296
 13278 0760 16000000 		.4byte	.LVL297
 13279 0764 0100     		.2byte	0x1
 13280 0766 50       		.byte	0x50
 13281 0767 16000000 		.4byte	.LVL297
 13282 076b 18000000 		.4byte	.LVL298
 13283 076f 0400     		.2byte	0x4
 13284 0771 F3       		.byte	0xf3
 13285 0772 01       		.uleb128 0x1
 13286 0773 50       		.byte	0x50
 13287 0774 9F       		.byte	0x9f
 13288 0775 18000000 		.4byte	.LVL298
 13289 0779 1A000000 		.4byte	.LVL299
 13290 077d 0100     		.2byte	0x1
 13291 077f 50       		.byte	0x50
 13292 0780 1A000000 		.4byte	.LVL299
 13293 0784 1C000000 		.4byte	.LFE178
 13294 0788 0400     		.2byte	0x4
 13295 078a F3       		.byte	0xf3
 13296 078b 01       		.uleb128 0x1
 13297 078c 50       		.byte	0x50
 13298 078d 9F       		.byte	0x9f
 13299 078e 00000000 		.4byte	0
 13300 0792 00000000 		.4byte	0
 13301              	.LLST46:
 13302 0796 00000000 		.4byte	.LVL302
 13303 079a 06000000 		.4byte	.LVL303
 13304 079e 0100     		.2byte	0x1
 13305 07a0 50       		.byte	0x50
 13306 07a1 06000000 		.4byte	.LVL303
 13307 07a5 08000000 		.4byte	.LVL304
 13308 07a9 0400     		.2byte	0x4
 13309 07ab F3       		.byte	0xf3
 13310 07ac 01       		.uleb128 0x1
 13311 07ad 50       		.byte	0x50
 13312 07ae 9F       		.byte	0x9f
 13313 07af 08000000 		.4byte	.LVL304
 13314 07b3 0A000000 		.4byte	.LVL305
 13315 07b7 0100     		.2byte	0x1
 13316 07b9 50       		.byte	0x50
 13317 07ba 0A000000 		.4byte	.LVL305
 13318 07be 0C000000 		.4byte	.LFE182
 13319 07c2 0400     		.2byte	0x4
 13320 07c4 F3       		.byte	0xf3
 13321 07c5 01       		.uleb128 0x1
 13322 07c6 50       		.byte	0x50
ARM GAS  C:\Users\haske\AppData\Local\Temp\ccl1At1U.s 			page 268


 13323 07c7 9F       		.byte	0x9f
 13324 07c8 00000000 		.4byte	0
 13325 07cc 00000000 		.4byte	0
 13326              	.LLST47:
 13327 07d0 00000000 		.4byte	.LVL306
 13328 07d4 0D000000 		.4byte	.LVL309-1
 13329 07d8 0100     		.2byte	0x1
 13330 07da 50       		.byte	0x50
 13331 07db 0D000000 		.4byte	.LVL309-1
 13332 07df 82000000 		.4byte	.LVL327
 13333 07e3 0100     		.2byte	0x1
 13334 07e5 55       		.byte	0x55
 13335 07e6 82000000 		.4byte	.LVL327
 13336 07ea 84000000 		.4byte	.LFE183
 13337 07ee 0400     		.2byte	0x4
 13338 07f0 F3       		.byte	0xf3
 13339 07f1 01       		.uleb128 0x1
 13340 07f2 50       		.byte	0x50
 13341 07f3 9F       		.byte	0x9f
 13342 07f4 00000000 		.4byte	0
 13343 07f8 00000000 		.4byte	0
 13344              	.LLST48:
 13345 07fc 00000000 		.4byte	.LVL306
 13346 0800 0A000000 		.4byte	.LVL308
 13347 0804 0100     		.2byte	0x1
 13348 0806 51       		.byte	0x51
 13349 0807 0A000000 		.4byte	.LVL308
 13350 080b 58000000 		.4byte	.LVL318
 13351 080f 0100     		.2byte	0x1
 13352 0811 54       		.byte	0x54
 13353 0812 58000000 		.4byte	.LVL318
 13354 0816 7A000000 		.4byte	.LVL324
 13355 081a 0400     		.2byte	0x4
 13356 081c F3       		.byte	0xf3
 13357 081d 01       		.uleb128 0x1
 13358 081e 51       		.byte	0x51
 13359 081f 9F       		.byte	0x9f
 13360 0820 7A000000 		.4byte	.LVL324
 13361 0824 7E000000 		.4byte	.LVL325
 13362 0828 0100     		.2byte	0x1
 13363 082a 54       		.byte	0x54
 13364 082b 7E000000 		.4byte	.LVL325
 13365 082f 84000000 		.4byte	.LFE183
 13366 0833 0400     		.2byte	0x4
 13367 0835 F3       		.byte	0xf3
 13368 0836 01       		.uleb128 0x1
 13369 0837 51       		.byte	0x51
 13370 0838 9F       		.byte	0x9f
 13371 0839 00000000 		.4byte	0
 13372 083d 00000000 		.4byte	0
 13373              	.LLST49:
 13374 0841 08000000 		.4byte	.LVL307
 13375 0845 5A000000 		.4byte	.LVL319
 13376 0849 0200     		.2byte	0x2
 13377 084b 30       		.byte	0x30
 13378 084c 9F       		.byte	0x9f
 13379 084d 68000000 		.4byte	.LVL321
ARM GAS  C:\Users\haske\AppData\Local\Temp\ccl1At1U.s 			page 269


 13380 0851 6E000000 		.4byte	.LVL322
 13381 0855 0100     		.2byte	0x1
 13382 0857 50       		.byte	0x50
 13383 0858 7A000000 		.4byte	.LVL324
 13384 085c 7E000000 		.4byte	.LVL325
 13385 0860 0200     		.2byte	0x2
 13386 0862 30       		.byte	0x30
 13387 0863 9F       		.byte	0x9f
 13388 0864 00000000 		.4byte	0
 13389 0868 00000000 		.4byte	0
 13390              	.LLST50:
 13391 086c 32000000 		.4byte	.LVL313
 13392 0870 34000000 		.4byte	.LVL314
 13393 0874 0100     		.2byte	0x1
 13394 0876 50       		.byte	0x50
 13395 0877 34000000 		.4byte	.LVL314
 13396 087b 7A000000 		.4byte	.LVL324
 13397 087f 0100     		.2byte	0x1
 13398 0881 56       		.byte	0x56
 13399 0882 7E000000 		.4byte	.LVL325
 13400 0886 80000000 		.4byte	.LVL326
 13401 088a 0100     		.2byte	0x1
 13402 088c 56       		.byte	0x56
 13403 088d 00000000 		.4byte	0
 13404 0891 00000000 		.4byte	0
 13405              	.LLST51:
 13406 0895 58000000 		.4byte	.LVL318
 13407 0899 72000000 		.4byte	.LVL323
 13408 089d 0100     		.2byte	0x1
 13409 089f 54       		.byte	0x54
 13410 08a0 00000000 		.4byte	0
 13411 08a4 00000000 		.4byte	0
 13412              	.LLST52:
 13413 08a8 56000000 		.4byte	.LVL317
 13414 08ac 5A000000 		.4byte	.LVL319
 13415 08b0 0100     		.2byte	0x1
 13416 08b2 50       		.byte	0x50
 13417 08b3 00000000 		.4byte	0
 13418 08b7 00000000 		.4byte	0
 13419              	.LLST53:
 13420 08bb 62000000 		.4byte	.LVL320
 13421 08bf 67000000 		.4byte	.LVL321-1
 13422 08c3 0100     		.2byte	0x1
 13423 08c5 50       		.byte	0x50
 13424 08c6 00000000 		.4byte	0
 13425 08ca 00000000 		.4byte	0
 13426              	.LLST54:
 13427 08ce 00000000 		.4byte	.LVL328
 13428 08d2 06000000 		.4byte	.LVL329
 13429 08d6 0100     		.2byte	0x1
 13430 08d8 50       		.byte	0x50
 13431 08d9 06000000 		.4byte	.LVL329
 13432 08dd 7E020000 		.4byte	.LVL371
 13433 08e1 0100     		.2byte	0x1
 13434 08e3 54       		.byte	0x54
 13435 08e4 7E020000 		.4byte	.LVL371
 13436 08e8 84020000 		.4byte	.LFE188
ARM GAS  C:\Users\haske\AppData\Local\Temp\ccl1At1U.s 			page 270


 13437 08ec 0400     		.2byte	0x4
 13438 08ee F3       		.byte	0xf3
 13439 08ef 01       		.uleb128 0x1
 13440 08f0 50       		.byte	0x50
 13441 08f1 9F       		.byte	0x9f
 13442 08f2 00000000 		.4byte	0
 13443 08f6 00000000 		.4byte	0
 13444              	.LLST55:
 13445 08fa 1A000000 		.4byte	.LVL330
 13446 08fe 3A010000 		.4byte	.LVL352
 13447 0902 0100     		.2byte	0x1
 13448 0904 55       		.byte	0x55
 13449 0905 00000000 		.4byte	0
 13450 0909 00000000 		.4byte	0
 13451              	.LLST56:
 13452 090d 1A000000 		.4byte	.LVL330
 13453 0911 C2000000 		.4byte	.LVL344
 13454 0915 0200     		.2byte	0x2
 13455 0917 30       		.byte	0x30
 13456 0918 9F       		.byte	0x9f
 13457 0919 C2000000 		.4byte	.LVL344
 13458 091d C8000000 		.4byte	.LVL345
 13459 0921 0100     		.2byte	0x1
 13460 0923 53       		.byte	0x53
 13461 0924 00000000 		.4byte	0
 13462 0928 00000000 		.4byte	0
 13463              	.LLST57:
 13464 092c FE000000 		.4byte	.LVL348
 13465 0930 07010000 		.4byte	.LVL349-1
 13466 0934 0100     		.2byte	0x1
 13467 0936 50       		.byte	0x50
 13468 0937 00000000 		.4byte	0
 13469 093b 00000000 		.4byte	0
 13470              	.LLST58:
 13471 093f 00000000 		.4byte	.LVL372
 13472 0943 1C000000 		.4byte	.LVL375
 13473 0947 0100     		.2byte	0x1
 13474 0949 50       		.byte	0x50
 13475 094a 1C000000 		.4byte	.LVL375
 13476 094e C0000000 		.4byte	.LVL384
 13477 0952 0100     		.2byte	0x1
 13478 0954 54       		.byte	0x54
 13479 0955 C0000000 		.4byte	.LVL384
 13480 0959 C2000000 		.4byte	.LFE184
 13481 095d 0400     		.2byte	0x4
 13482 095f F3       		.byte	0xf3
 13483 0960 01       		.uleb128 0x1
 13484 0961 50       		.byte	0x50
 13485 0962 9F       		.byte	0x9f
 13486 0963 00000000 		.4byte	0
 13487 0967 00000000 		.4byte	0
 13488              	.LLST59:
 13489 096b 00000000 		.4byte	.LVL372
 13490 096f 0E000000 		.4byte	.LVL374
 13491 0973 0100     		.2byte	0x1
 13492 0975 51       		.byte	0x51
 13493 0976 0E000000 		.4byte	.LVL374
ARM GAS  C:\Users\haske\AppData\Local\Temp\ccl1At1U.s 			page 271


 13494 097a C0000000 		.4byte	.LVL385
 13495 097e 0100     		.2byte	0x1
 13496 0980 55       		.byte	0x55
 13497 0981 C0000000 		.4byte	.LVL385
 13498 0985 C2000000 		.4byte	.LFE184
 13499 0989 0400     		.2byte	0x4
 13500 098b F3       		.byte	0xf3
 13501 098c 01       		.uleb128 0x1
 13502 098d 51       		.byte	0x51
 13503 098e 9F       		.byte	0x9f
 13504 098f 00000000 		.4byte	0
 13505 0993 00000000 		.4byte	0
 13506              	.LLST60:
 13507 0997 0A000000 		.4byte	.LVL373
 13508 099b 64000000 		.4byte	.LVL377
 13509 099f 0100     		.2byte	0x1
 13510 09a1 52       		.byte	0x52
 13511 09a2 00000000 		.4byte	0
 13512 09a6 00000000 		.4byte	0
 13513              	.LLST61:
 13514 09aa 58000000 		.4byte	.LVL376
 13515 09ae 6A000000 		.4byte	.LVL378
 13516 09b2 0100     		.2byte	0x1
 13517 09b4 51       		.byte	0x51
 13518 09b5 00000000 		.4byte	0
 13519 09b9 00000000 		.4byte	0
 13520              	.LLST62:
 13521 09bd 00000000 		.4byte	.LVL386
 13522 09c1 38000000 		.4byte	.LVL389
 13523 09c5 0100     		.2byte	0x1
 13524 09c7 50       		.byte	0x50
 13525 09c8 38000000 		.4byte	.LVL389
 13526 09cc 78000000 		.4byte	.LVL396
 13527 09d0 0100     		.2byte	0x1
 13528 09d2 54       		.byte	0x54
 13529 09d3 78000000 		.4byte	.LVL396
 13530 09d7 7E000000 		.4byte	.LFE187
 13531 09db 0400     		.2byte	0x4
 13532 09dd F3       		.byte	0xf3
 13533 09de 01       		.uleb128 0x1
 13534 09df 50       		.byte	0x50
 13535 09e0 9F       		.byte	0x9f
 13536 09e1 00000000 		.4byte	0
 13537 09e5 00000000 		.4byte	0
 13538              	.LLST63:
 13539 09e9 00000000 		.4byte	.LVL386
 13540 09ed 3B000000 		.4byte	.LVL390-1
 13541 09f1 0100     		.2byte	0x1
 13542 09f3 51       		.byte	0x51
 13543 09f4 3B000000 		.4byte	.LVL390-1
 13544 09f8 78000000 		.4byte	.LVL397
 13545 09fc 0100     		.2byte	0x1
 13546 09fe 55       		.byte	0x55
 13547 09ff 78000000 		.4byte	.LVL397
 13548 0a03 7E000000 		.4byte	.LFE187
 13549 0a07 0400     		.2byte	0x4
 13550 0a09 F3       		.byte	0xf3
ARM GAS  C:\Users\haske\AppData\Local\Temp\ccl1At1U.s 			page 272


 13551 0a0a 01       		.uleb128 0x1
 13552 0a0b 51       		.byte	0x51
 13553 0a0c 9F       		.byte	0x9f
 13554 0a0d 00000000 		.4byte	0
 13555 0a11 00000000 		.4byte	0
 13556              	.LLST64:
 13557 0a15 1A000000 		.4byte	.LVL387
 13558 0a19 78000000 		.4byte	.LVL395
 13559 0a1d 0100     		.2byte	0x1
 13560 0a1f 57       		.byte	0x57
 13561 0a20 00000000 		.4byte	0
 13562 0a24 00000000 		.4byte	0
 13563              	.LLST65:
 13564 0a28 20000000 		.4byte	.LVL388
 13565 0a2c 78000000 		.4byte	.LVL395
 13566 0a30 0100     		.2byte	0x1
 13567 0a32 58       		.byte	0x58
 13568 0a33 00000000 		.4byte	0
 13569 0a37 00000000 		.4byte	0
 13570              	.LLST66:
 13571 0a3b 00000000 		.4byte	.LVL398
 13572 0a3f 06000000 		.4byte	.LVL399
 13573 0a43 0100     		.2byte	0x1
 13574 0a45 50       		.byte	0x50
 13575 0a46 06000000 		.4byte	.LVL399
 13576 0a4a D0000000 		.4byte	.LFE165
 13577 0a4e 0400     		.2byte	0x4
 13578 0a50 F3       		.byte	0xf3
 13579 0a51 01       		.uleb128 0x1
 13580 0a52 50       		.byte	0x50
 13581 0a53 9F       		.byte	0x9f
 13582 0a54 00000000 		.4byte	0
 13583 0a58 00000000 		.4byte	0
 13584              	.LLST67:
 13585 0a5c 38000000 		.4byte	.LVL402
 13586 0a60 C6000000 		.4byte	.LVL411
 13587 0a64 0100     		.2byte	0x1
 13588 0a66 55       		.byte	0x55
 13589 0a67 00000000 		.4byte	0
 13590 0a6b 00000000 		.4byte	0
 13591              		.section	.debug_aranges,"",%progbits
 13592 0000 FC000000 		.4byte	0xfc
 13593 0004 0200     		.2byte	0x2
 13594 0006 00000000 		.4byte	.Ldebug_info0
 13595 000a 04       		.byte	0x4
 13596 000b 00       		.byte	0
 13597 000c 0000     		.2byte	0
 13598 000e 0000     		.2byte	0
 13599 0010 00000000 		.4byte	.LFB190
 13600 0014 44000000 		.4byte	.LFE190-.LFB190
 13601 0018 00000000 		.4byte	.LFB193
 13602 001c 1C000000 		.4byte	.LFE193-.LFB193
 13603 0020 00000000 		.4byte	.LFB191
 13604 0024 10010000 		.4byte	.LFE191-.LFB191
 13605 0028 00000000 		.4byte	.LFB192
 13606 002c 08010000 		.4byte	.LFE192-.LFB192
 13607 0030 00000000 		.4byte	.LFB189
ARM GAS  C:\Users\haske\AppData\Local\Temp\ccl1At1U.s 			page 273


 13608 0034 40010000 		.4byte	.LFE189-.LFB189
 13609 0038 00000000 		.4byte	.LFB185
 13610 003c 94020000 		.4byte	.LFE185-.LFB185
 13611 0040 00000000 		.4byte	.LFB186
 13612 0044 34040000 		.4byte	.LFE186-.LFB186
 13613 0048 00000000 		.4byte	.LFB166
 13614 004c 3C000000 		.4byte	.LFE166-.LFB166
 13615 0050 00000000 		.4byte	.LFB167
 13616 0054 0C000000 		.4byte	.LFE167-.LFB167
 13617 0058 00000000 		.4byte	.LFB168
 13618 005c 0E000000 		.4byte	.LFE168-.LFB168
 13619 0060 00000000 		.4byte	.LFB169
 13620 0064 B0000000 		.4byte	.LFE169-.LFB169
 13621 0068 00000000 		.4byte	.LFB170
 13622 006c 1A000000 		.4byte	.LFE170-.LFB170
 13623 0070 00000000 		.4byte	.LFB171
 13624 0074 40000000 		.4byte	.LFE171-.LFB171
 13625 0078 00000000 		.4byte	.LFB172
 13626 007c 10000000 		.4byte	.LFE172-.LFB172
 13627 0080 00000000 		.4byte	.LFB173
 13628 0084 0C000000 		.4byte	.LFE173-.LFB173
 13629 0088 00000000 		.4byte	.LFB174
 13630 008c 30000000 		.4byte	.LFE174-.LFB174
 13631 0090 00000000 		.4byte	.LFB175
 13632 0094 08000000 		.4byte	.LFE175-.LFB175
 13633 0098 00000000 		.4byte	.LFB176
 13634 009c 10000000 		.4byte	.LFE176-.LFB176
 13635 00a0 00000000 		.4byte	.LFB177
 13636 00a4 22000000 		.4byte	.LFE177-.LFB177
 13637 00a8 00000000 		.4byte	.LFB178
 13638 00ac 1C000000 		.4byte	.LFE178-.LFB178
 13639 00b0 00000000 		.4byte	.LFB179
 13640 00b4 24000000 		.4byte	.LFE179-.LFB179
 13641 00b8 00000000 		.4byte	.LFB180
 13642 00bc 0E000000 		.4byte	.LFE180-.LFB180
 13643 00c0 00000000 		.4byte	.LFB181
 13644 00c4 0C000000 		.4byte	.LFE181-.LFB181
 13645 00c8 00000000 		.4byte	.LFB182
 13646 00cc 0C000000 		.4byte	.LFE182-.LFB182
 13647 00d0 00000000 		.4byte	.LFB183
 13648 00d4 84000000 		.4byte	.LFE183-.LFB183
 13649 00d8 00000000 		.4byte	.LFB188
 13650 00dc 84020000 		.4byte	.LFE188-.LFB188
 13651 00e0 00000000 		.4byte	.LFB184
 13652 00e4 C2000000 		.4byte	.LFE184-.LFB184
 13653 00e8 00000000 		.4byte	.LFB187
 13654 00ec 7E000000 		.4byte	.LFE187-.LFB187
 13655 00f0 00000000 		.4byte	.LFB165
 13656 00f4 D0000000 		.4byte	.LFE165-.LFB165
 13657 00f8 00000000 		.4byte	0
 13658 00fc 00000000 		.4byte	0
 13659              		.section	.debug_ranges,"",%progbits
 13660              	.Ldebug_ranges0:
 13661 0000 00000000 		.4byte	.LFB190
 13662 0004 44000000 		.4byte	.LFE190
 13663 0008 00000000 		.4byte	.LFB193
 13664 000c 1C000000 		.4byte	.LFE193
ARM GAS  C:\Users\haske\AppData\Local\Temp\ccl1At1U.s 			page 274


 13665 0010 00000000 		.4byte	.LFB191
 13666 0014 10010000 		.4byte	.LFE191
 13667 0018 00000000 		.4byte	.LFB192
 13668 001c 08010000 		.4byte	.LFE192
 13669 0020 00000000 		.4byte	.LFB189
 13670 0024 40010000 		.4byte	.LFE189
 13671 0028 00000000 		.4byte	.LFB185
 13672 002c 94020000 		.4byte	.LFE185
 13673 0030 00000000 		.4byte	.LFB186
 13674 0034 34040000 		.4byte	.LFE186
 13675 0038 00000000 		.4byte	.LFB166
 13676 003c 3C000000 		.4byte	.LFE166
 13677 0040 00000000 		.4byte	.LFB167
 13678 0044 0C000000 		.4byte	.LFE167
 13679 0048 00000000 		.4byte	.LFB168
 13680 004c 0E000000 		.4byte	.LFE168
 13681 0050 00000000 		.4byte	.LFB169
 13682 0054 B0000000 		.4byte	.LFE169
 13683 0058 00000000 		.4byte	.LFB170
 13684 005c 1A000000 		.4byte	.LFE170
 13685 0060 00000000 		.4byte	.LFB171
 13686 0064 40000000 		.4byte	.LFE171
 13687 0068 00000000 		.4byte	.LFB172
 13688 006c 10000000 		.4byte	.LFE172
 13689 0070 00000000 		.4byte	.LFB173
 13690 0074 0C000000 		.4byte	.LFE173
 13691 0078 00000000 		.4byte	.LFB174
 13692 007c 30000000 		.4byte	.LFE174
 13693 0080 00000000 		.4byte	.LFB175
 13694 0084 08000000 		.4byte	.LFE175
 13695 0088 00000000 		.4byte	.LFB176
 13696 008c 10000000 		.4byte	.LFE176
 13697 0090 00000000 		.4byte	.LFB177
 13698 0094 22000000 		.4byte	.LFE177
 13699 0098 00000000 		.4byte	.LFB178
 13700 009c 1C000000 		.4byte	.LFE178
 13701 00a0 00000000 		.4byte	.LFB179
 13702 00a4 24000000 		.4byte	.LFE179
 13703 00a8 00000000 		.4byte	.LFB180
 13704 00ac 0E000000 		.4byte	.LFE180
 13705 00b0 00000000 		.4byte	.LFB181
 13706 00b4 0C000000 		.4byte	.LFE181
 13707 00b8 00000000 		.4byte	.LFB182
 13708 00bc 0C000000 		.4byte	.LFE182
 13709 00c0 00000000 		.4byte	.LFB183
 13710 00c4 84000000 		.4byte	.LFE183
 13711 00c8 00000000 		.4byte	.LFB188
 13712 00cc 84020000 		.4byte	.LFE188
 13713 00d0 00000000 		.4byte	.LFB184
 13714 00d4 C2000000 		.4byte	.LFE184
 13715 00d8 00000000 		.4byte	.LFB187
 13716 00dc 7E000000 		.4byte	.LFE187
 13717 00e0 00000000 		.4byte	.LFB165
 13718 00e4 D0000000 		.4byte	.LFE165
 13719 00e8 00000000 		.4byte	0
 13720 00ec 00000000 		.4byte	0
 13721              		.section	.debug_line,"",%progbits
ARM GAS  C:\Users\haske\AppData\Local\Temp\ccl1At1U.s 			page 275


 13722              	.Ldebug_line0:
 13723 0000 F50B0000 		.section	.debug_str,"MS",%progbits,1
 13723      0200C805 
 13723      00000201 
 13723      FB0E0D00 
 13723      01010101 
 13724              	.LASF177:
 13725 0000 70726F70 		.ascii	"prop_cnt\000"
 13725      5F636E74 
 13725      00
 13726              	.LASF15:
 13727 0009 696E7438 		.ascii	"int8_t\000"
 13727      5F7400
 13728              	.LASF569:
 13729 0010 4C565F4B 		.ascii	"LV_KEY_HOME\000"
 13729      45595F48 
 13729      4F4D4500 
 13730              	.LASF148:
 13731 001c 4C565F53 		.ascii	"LV_STYLE_OPA\000"
 13731      54594C45 
 13731      5F4F5041 
 13731      00
 13732              	.LASF336:
 13733 0029 636F6C6F 		.ascii	"color_chroma_key\000"
 13733      725F6368 
 13733      726F6D61 
 13733      5F6B6579 
 13733      00
 13734              	.LASF287:
 13735 003a 6C765F6C 		.ascii	"lv_ll_node_t\000"
 13735      6C5F6E6F 
 13735      64655F74 
 13735      00
 13736              	.LASF309:
 13737 0047 6C765F64 		.ascii	"lv_disp_draw_buf_t\000"
 13737      6973705F 
 13737      64726177 
 13737      5F627566 
 13737      5F7400
 13738              	.LASF21:
 13739 005a 73697A65 		.ascii	"size_t\000"
 13739      5F7400
 13740              	.LASF36:
 13741 0061 6164765F 		.ascii	"adv_w\000"
 13741      7700
 13742              	.LASF374:
 13743 0067 4C565F49 		.ascii	"LV_INDEV_TYPE_ENCODER\000"
 13743      4E444556 
 13743      5F545950 
 13743      455F454E 
 13743      434F4445 
 13744              	.LASF55:
 13745 007d 73697A65 		.ascii	"sizetype\000"
 13745      74797065 
 13745      00
 13746              	.LASF561:
 13747 0086 4C565F4B 		.ascii	"LV_KEY_RIGHT\000"
ARM GAS  C:\Users\haske\AppData\Local\Temp\ccl1At1U.s 			page 276


 13747      45595F52 
 13747      49474854 
 13747      00
 13748              	.LASF369:
 13749 0093 6C765F64 		.ascii	"lv_disp_t\000"
 13749      6973705F 
 13749      7400
 13750              	.LASF531:
 13751 009d 4C565F45 		.ascii	"LV_EVENT_DRAW_MAIN_BEGIN\000"
 13751      56454E54 
 13751      5F445241 
 13751      575F4D41 
 13751      494E5F42 
 13752              	.LASF630:
 13753 00b6 6368696C 		.ascii	"child\000"
 13753      6400
 13754              	.LASF660:
 13755 00bc 6C765F64 		.ascii	"lv_disp_get_layer_sys\000"
 13755      6973705F 
 13755      6765745F 
 13755      6C617965 
 13755      725F7379 
 13756              	.LASF132:
 13757 00d2 4C565F53 		.ascii	"LV_STYLE_LINE_DASH_GAP\000"
 13757      54594C45 
 13757      5F4C494E 
 13757      455F4441 
 13757      53485F47 
 13758              	.LASF290:
 13759 00e9 7461696C 		.ascii	"tail\000"
 13759      00
 13760              	.LASF346:
 13761 00ee 6163745F 		.ascii	"act_scr\000"
 13761      73637200 
 13762              	.LASF351:
 13763 00f6 73637265 		.ascii	"screen_cnt\000"
 13763      656E5F63 
 13763      6E7400
 13764              	.LASF278:
 13765 0101 64726177 		.ascii	"draw_bg\000"
 13765      5F626700 
 13766              	.LASF627:
 13767 0109 666F756E 		.ascii	"found_p\000"
 13767      645F7000 
 13768              	.LASF62:
 13769 0111 6C765F6F 		.ascii	"lv_opa_t\000"
 13769      70615F74 
 13769      00
 13770              	.LASF139:
 13771 011a 4C565F53 		.ascii	"LV_STYLE_ARC_OPA\000"
 13771      54594C45 
 13771      5F415243 
 13771      5F4F5041 
 13771      00
 13772              	.LASF247:
 13773 012b 7261775F 		.ascii	"raw_end\000"
 13773      656E6400 
ARM GAS  C:\Users\haske\AppData\Local\Temp\ccl1At1U.s 			page 277


 13774              	.LASF19:
 13775 0133 696E7433 		.ascii	"int32_t\000"
 13775      325F7400 
 13776              	.LASF484:
 13777 013b 6C765F73 		.ascii	"lv_scrollbar_mode_t\000"
 13777      63726F6C 
 13777      6C626172 
 13777      5F6D6F64 
 13777      655F7400 
 13778              	.LASF613:
 13779 014f 6C765F69 		.ascii	"lv_indev_set_button_points\000"
 13779      6E646576 
 13779      5F736574 
 13779      5F627574 
 13779      746F6E5F 
 13780              	.LASF176:
 13781 016a 6861735F 		.ascii	"has_group\000"
 13781      67726F75 
 13781      7000
 13782              	.LASF540:
 13783 0174 4C565F45 		.ascii	"LV_EVENT_INSERT\000"
 13783      56454E54 
 13783      5F494E53 
 13783      45525400 
 13784              	.LASF434:
 13785 0184 66726F7A 		.ascii	"frozen\000"
 13785      656E00
 13786              	.LASF364:
 13787 018b 636F6C6F 		.ascii	"color_primary\000"
 13787      725F7072 
 13787      696D6172 
 13787      7900
 13788              	.LASF24:
 13789 0199 6C765F70 		.ascii	"lv_point_t\000"
 13789      6F696E74 
 13789      5F7400
 13790              	.LASF195:
 13791 01a4 72616469 		.ascii	"radius\000"
 13791      757300
 13792              	.LASF198:
 13793 01ab 62675F63 		.ascii	"bg_color\000"
 13793      6F6C6F72 
 13793      00
 13794              	.LASF44:
 13795 01b4 6C696E65 		.ascii	"line_height\000"
 13795      5F686569 
 13795      67687400 
 13796              	.LASF66:
 13797 01c0 6C765F62 		.ascii	"lv_blend_mode_t\000"
 13797      6C656E64 
 13797      5F6D6F64 
 13797      655F7400 
 13798              	.LASF229:
 13799 01d0 62696469 		.ascii	"bidi_dir\000"
 13799      5F646972 
 13799      00
 13800              	.LASF340:
ARM GAS  C:\Users\haske\AppData\Local\Temp\ccl1At1U.s 			page 278


 13801 01d9 64726177 		.ascii	"draw_ctx_size\000"
 13801      5F637478 
 13801      5F73697A 
 13801      6500
 13802              	.LASF184:
 13803 01e7 73706563 		.ascii	"spec_attr\000"
 13803      5F617474 
 13803      7200
 13804              	.LASF582:
 13805 01f1 7363726F 		.ascii	"scroll_snap_x\000"
 13805      6C6C5F73 
 13805      6E61705F 
 13805      7800
 13806              	.LASF583:
 13807 01ff 7363726F 		.ascii	"scroll_snap_y\000"
 13807      6C6C5F73 
 13807      6E61705F 
 13807      7900
 13808              	.LASF255:
 13809 020d 4C565F44 		.ascii	"LV_DRAW_LAYER_FLAG_HAS_ALPHA\000"
 13809      5241575F 
 13809      4C415945 
 13809      525F464C 
 13809      41475F48 
 13810              	.LASF545:
 13811 022a 4C565F45 		.ascii	"LV_EVENT_CHILD_CHANGED\000"
 13811      56454E54 
 13811      5F434849 
 13811      4C445F43 
 13811      48414E47 
 13812              	.LASF188:
 13813 0241 73746174 		.ascii	"state\000"
 13813      6500
 13814              	.LASF83:
 13815 0247 4C565F53 		.ascii	"LV_STYLE_HEIGHT\000"
 13815      54594C45 
 13815      5F484549 
 13815      47485400 
 13816              	.LASF365:
 13817 0257 636F6C6F 		.ascii	"color_secondary\000"
 13817      725F7365 
 13817      636F6E64 
 13817      61727900 
 13818              	.LASF297:
 13819 0267 72657065 		.ascii	"repeat_count\000"
 13819      61745F63 
 13819      6F756E74 
 13819      00
 13820              	.LASF235:
 13821 0274 7A6F6F6D 		.ascii	"zoom\000"
 13821      00
 13822              	.LASF488:
 13823 0279 69735F6C 		.ascii	"is_local\000"
 13823      6F63616C 
 13823      00
 13824              	.LASF270:
 13825 0282 64726177 		.ascii	"draw_rect\000"
ARM GAS  C:\Users\haske\AppData\Local\Temp\ccl1At1U.s 			page 279


 13825      5F726563 
 13825      7400
 13826              	.LASF626:
 13827 028c 6C765F69 		.ascii	"lv_indev_search_obj\000"
 13827      6E646576 
 13827      5F736561 
 13827      7263685F 
 13827      6F626A00 
 13828              	.LASF293:
 13829 02a0 5F6C765F 		.ascii	"_lv_timer_t\000"
 13829      74696D65 
 13829      725F7400 
 13830              	.LASF103:
 13831 02ac 4C565F53 		.ascii	"LV_STYLE_BG_MAIN_STOP\000"
 13831      54594C45 
 13831      5F42475F 
 13831      4D41494E 
 13831      5F53544F 
 13832              	.LASF269:
 13833 02c2 696E6974 		.ascii	"init_buf\000"
 13833      5F627566 
 13833      00
 13834              	.LASF493:
 13835 02cb 636F6E73 		.ascii	"constructor_cb\000"
 13835      74727563 
 13835      746F725F 
 13835      636200
 13836              	.LASF252:
 13837 02da 726F756E 		.ascii	"rounded\000"
 13837      64656400 
 13838              	.LASF164:
 13839 02e2 5F4C565F 		.ascii	"_LV_STYLE_LAST_BUILT_IN_PROP\000"
 13839      5354594C 
 13839      455F4C41 
 13839      53545F42 
 13839      55494C54 
 13840              	.LASF268:
 13841 02ff 5F6C765F 		.ascii	"_lv_draw_ctx_t\000"
 13841      64726177 
 13841      5F637478 
 13841      5F7400
 13842              	.LASF385:
 13843 030e 74797065 		.ascii	"type\000"
 13843      00
 13844              	.LASF523:
 13845 0313 4C565F45 		.ascii	"LV_EVENT_GESTURE\000"
 13845      56454E54 
 13845      5F474553 
 13845      54555245 
 13845      00
 13846              	.LASF516:
 13847 0324 4C565F45 		.ascii	"LV_EVENT_LONG_PRESSED\000"
 13847      56454E54 
 13847      5F4C4F4E 
 13847      475F5052 
 13847      45535345 
 13848              	.LASF200:
ARM GAS  C:\Users\haske\AppData\Local\Temp\ccl1At1U.s 			page 280


 13849 033a 62675F69 		.ascii	"bg_img_src\000"
 13849      6D675F73 
 13849      726300
 13850              	.LASF114:
 13851 0345 4C565F53 		.ascii	"LV_STYLE_BORDER_WIDTH\000"
 13851      54594C45 
 13851      5F424F52 
 13851      4445525F 
 13851      57494454 
 13852              	.LASF609:
 13853 035b 6C765F69 		.ascii	"lv_indev_reset_long_press\000"
 13853      6E646576 
 13853      5F726573 
 13853      65745F6C 
 13853      6F6E675F 
 13854              	.LASF546:
 13855 0375 4C565F45 		.ascii	"LV_EVENT_CHILD_CREATED\000"
 13855      56454E54 
 13855      5F434849 
 13855      4C445F43 
 13855      52454154 
 13856              	.LASF614:
 13857 038c 706F696E 		.ascii	"points\000"
 13857      747300
 13858              	.LASF96:
 13859 0393 4C565F53 		.ascii	"LV_STYLE_PAD_COLUMN\000"
 13859      54594C45 
 13859      5F504144 
 13859      5F434F4C 
 13859      554D4E00 
 13860              	.LASF384:
 13861 03a7 5F6C765F 		.ascii	"_lv_indev_drv_t\000"
 13861      696E6465 
 13861      765F6472 
 13861      765F7400 
 13862              	.LASF615:
 13863 03b7 6C765F69 		.ascii	"lv_indev_get_point\000"
 13863      6E646576 
 13863      5F676574 
 13863      5F706F69 
 13863      6E7400
 13864              	.LASF619:
 13865 03ca 6C765F69 		.ascii	"lv_indev_get_scroll_dir\000"
 13865      6E646576 
 13865      5F676574 
 13865      5F736372 
 13865      6F6C6C5F 
 13866              	.LASF574:
 13867 03e2 6368696C 		.ascii	"children\000"
 13867      6472656E 
 13867      00
 13868              	.LASF379:
 13869 03eb 706F696E 		.ascii	"point\000"
 13869      7400
 13870              	.LASF605:
 13871 03f1 65646974 		.ascii	"editable_or_scrollable\000"
 13871      61626C65 
ARM GAS  C:\Users\haske\AppData\Local\Temp\ccl1At1U.s 			page 281


 13871      5F6F725F 
 13871      7363726F 
 13871      6C6C6162 
 13872              	.LASF106:
 13873 0408 4C565F53 		.ascii	"LV_STYLE_BG_DITHER_MODE\000"
 13873      54594C45 
 13873      5F42475F 
 13873      44495448 
 13873      45525F4D 
 13874              	.LASF210:
 13875 0420 626F7264 		.ascii	"border_side\000"
 13875      65725F73 
 13875      69646500 
 13876              	.LASF1:
 13877 042c 5F5F7569 		.ascii	"__uint8_t\000"
 13877      6E74385F 
 13877      7400
 13878              	.LASF194:
 13879 0436 775F6C61 		.ascii	"w_layout\000"
 13879      796F7574 
 13879      00
 13880              	.LASF196:
 13881 043f 626C656E 		.ascii	"blend_mode\000"
 13881      645F6D6F 
 13881      646500
 13882              	.LASF90:
 13883 044a 4C565F53 		.ascii	"LV_STYLE_RADIUS\000"
 13883      54594C45 
 13883      5F524144 
 13883      49555300 
 13884              	.LASF316:
 13885 045a 7665725F 		.ascii	"ver_res\000"
 13885      72657300 
 13886              	.LASF190:
 13887 0462 7363725F 		.ascii	"scr_layout_inv\000"
 13887      6C61796F 
 13887      75745F69 
 13887      6E7600
 13888              	.LASF82:
 13889 0471 4C565F53 		.ascii	"LV_STYLE_MAX_WIDTH\000"
 13889      54594C45 
 13889      5F4D4158 
 13889      5F574944 
 13889      544800
 13890              	.LASF661:
 13891 0484 6C765F6F 		.ascii	"lv_obj_set_parent\000"
 13891      626A5F73 
 13891      65745F70 
 13891      6172656E 
 13891      7400
 13892              	.LASF345:
 13893 0496 73637265 		.ascii	"screens\000"
 13893      656E7300 
 13894              	.LASF109:
 13895 049e 4C565F53 		.ascii	"LV_STYLE_BG_IMG_RECOLOR\000"
 13895      54594C45 
 13895      5F42475F 
ARM GAS  C:\Users\haske\AppData\Local\Temp\ccl1At1U.s 			page 282


 13895      494D475F 
 13895      5245434F 
 13896              	.LASF547:
 13897 04b6 4C565F45 		.ascii	"LV_EVENT_CHILD_DELETED\000"
 13897      56454E54 
 13897      5F434849 
 13897      4C445F44 
 13897      454C4554 
 13898              	.LASF126:
 13899 04cd 4C565F53 		.ascii	"LV_STYLE_SHADOW_OPA\000"
 13899      54594C45 
 13899      5F534841 
 13899      444F575F 
 13899      4F504100 
 13900              	.LASF642:
 13901 04e1 6C765F65 		.ascii	"lv_event_send\000"
 13901      76656E74 
 13901      5F73656E 
 13901      6400
 13902              	.LASF405:
 13903 04ef 7363726F 		.ascii	"scroll_obj\000"
 13903      6C6C5F6F 
 13903      626A00
 13904              	.LASF157:
 13905 04fa 4C565F53 		.ascii	"LV_STYLE_TRANSFORM_HEIGHT\000"
 13905      54594C45 
 13905      5F545241 
 13905      4E53464F 
 13905      524D5F48 
 13906              	.LASF458:
 13907 0514 4C565F4F 		.ascii	"LV_OBJ_FLAG_SCROLLABLE\000"
 13907      424A5F46 
 13907      4C41475F 
 13907      5343524F 
 13907      4C4C4142 
 13908              	.LASF94:
 13909 052b 4C565F53 		.ascii	"LV_STYLE_PAD_RIGHT\000"
 13909      54594C45 
 13909      5F504144 
 13909      5F524947 
 13909      485400
 13910              	.LASF511:
 13911 053e 4C565F45 		.ascii	"LV_EVENT_ALL\000"
 13911      56454E54 
 13911      5F414C4C 
 13911      00
 13912              	.LASF360:
 13913 054b 6C617374 		.ascii	"last_activity_time\000"
 13913      5F616374 
 13913      69766974 
 13913      795F7469 
 13913      6D6500
 13914              	.LASF9:
 13915 055e 6C6F6E67 		.ascii	"long int\000"
 13915      20696E74 
 13915      00
 13916              	.LASF154:
ARM GAS  C:\Users\haske\AppData\Local\Temp\ccl1At1U.s 			page 283


 13917 0567 4C565F53 		.ascii	"LV_STYLE_TRANSITION\000"
 13917      54594C45 
 13917      5F545241 
 13917      4E534954 
 13917      494F4E00 
 13918              	.LASF326:
 13919 057b 726F7461 		.ascii	"rotated\000"
 13919      74656400 
 13920              	.LASF409:
 13921 0583 7363726F 		.ascii	"scroll_dir\000"
 13921      6C6C5F64 
 13921      697200
 13922              	.LASF499:
 13923 058e 67726F75 		.ascii	"group_def\000"
 13923      705F6465 
 13923      6600
 13924              	.LASF339:
 13925 0598 64726177 		.ascii	"draw_ctx_deinit\000"
 13925      5F637478 
 13925      5F646569 
 13925      6E697400 
 13926              	.LASF110:
 13927 05a8 4C565F53 		.ascii	"LV_STYLE_BG_IMG_RECOLOR_OPA\000"
 13927      54594C45 
 13927      5F42475F 
 13927      494D475F 
 13927      5245434F 
 13928              	.LASF444:
 13929 05c4 4C565F53 		.ascii	"LV_STATE_HOVERED\000"
 13929      54415445 
 13929      5F484F56 
 13929      45524544 
 13929      00
 13930              	.LASF197:
 13931 05d5 62675F6F 		.ascii	"bg_opa\000"
 13931      706100
 13932              	.LASF343:
 13933 05dc 72656672 		.ascii	"refr_timer\000"
 13933      5F74696D 
 13933      657200
 13934              	.LASF442:
 13935 05e7 4C565F53 		.ascii	"LV_STATE_FOCUS_KEY\000"
 13935      54415445 
 13935      5F464F43 
 13935      55535F4B 
 13935      455900
 13936              	.LASF233:
 13937 05fa 6C765F64 		.ascii	"lv_draw_label_dsc_t\000"
 13937      7261775F 
 13937      6C616265 
 13937      6C5F6473 
 13937      635F7400 
 13938              	.LASF453:
 13939 060e 6C765F73 		.ascii	"lv_state_t\000"
 13939      74617465 
 13939      5F7400
 13940              	.LASF471:
ARM GAS  C:\Users\haske\AppData\Local\Temp\ccl1At1U.s 			page 284


 13941 0619 4C565F4F 		.ascii	"LV_OBJ_FLAG_ADV_HITTEST\000"
 13941      424A5F46 
 13941      4C41475F 
 13941      4144565F 
 13941      48495454 
 13942              	.LASF226:
 13943 0631 73656C5F 		.ascii	"sel_bg_color\000"
 13943      62675F63 
 13943      6F6C6F72 
 13943      00
 13944              	.LASF466:
 13945 063e 4C565F4F 		.ascii	"LV_OBJ_FLAG_SCROLL_WITH_ARROW\000"
 13945      424A5F46 
 13945      4C41475F 
 13945      5343524F 
 13945      4C4C5F57 
 13946              	.LASF645:
 13947 065c 6C765F70 		.ascii	"lv_point_transform\000"
 13947      6F696E74 
 13947      5F747261 
 13947      6E73666F 
 13947      726D00
 13948              	.LASF433:
 13949 066f 65646765 		.ascii	"edge_cb\000"
 13949      5F636200 
 13950              	.LASF357:
 13951 0677 696E765F 		.ascii	"inv_area_joined\000"
 13951      61726561 
 13951      5F6A6F69 
 13951      6E656400 
 13952              	.LASF111:
 13953 0687 4C565F53 		.ascii	"LV_STYLE_BG_IMG_TILED\000"
 13953      54594C45 
 13953      5F42475F 
 13953      494D475F 
 13953      54494C45 
 13954              	.LASF564:
 13955 069d 4C565F4B 		.ascii	"LV_KEY_DEL\000"
 13955      45595F44 
 13955      454C00
 13956              	.LASF348:
 13957 06a8 7363725F 		.ascii	"scr_to_load\000"
 13957      746F5F6C 
 13957      6F616400 
 13958              	.LASF289:
 13959 06b4 68656164 		.ascii	"head\000"
 13959      00
 13960              	.LASF113:
 13961 06b9 4C565F53 		.ascii	"LV_STYLE_BORDER_OPA\000"
 13961      54594C45 
 13961      5F424F52 
 13961      4445525F 
 13961      4F504100 
 13962              	.LASF452:
 13963 06cd 4C565F53 		.ascii	"LV_STATE_ANY\000"
 13963      54415445 
 13963      5F414E59 
ARM GAS  C:\Users\haske\AppData\Local\Temp\ccl1At1U.s 			page 285


 13963      00
 13964              	.LASF386:
 13965 06da 72656164 		.ascii	"read_cb\000"
 13965      5F636200 
 13966              	.LASF538:
 13967 06e2 4C565F45 		.ascii	"LV_EVENT_DRAW_PART_END\000"
 13967      56454E54 
 13967      5F445241 
 13967      575F5041 
 13967      52545F45 
 13968              	.LASF307:
 13969 06f9 6C617374 		.ascii	"last_area\000"
 13969      5F617265 
 13969      6100
 13970              	.LASF408:
 13971 0703 67657374 		.ascii	"gesture_sum\000"
 13971      7572655F 
 13971      73756D00 
 13972              	.LASF280:
 13973 070f 62756666 		.ascii	"buffer_copy\000"
 13973      65725F63 
 13973      6F707900 
 13974              	.LASF406:
 13975 071b 6C617374 		.ascii	"last_pressed\000"
 13975      5F707265 
 13975      73736564 
 13975      00
 13976              	.LASF211:
 13977 0728 6F75746C 		.ascii	"outline_color\000"
 13977      696E655F 
 13977      636F6C6F 
 13977      7200
 13978              	.LASF125:
 13979 0736 4C565F53 		.ascii	"LV_STYLE_SHADOW_COLOR\000"
 13979      54594C45 
 13979      5F534841 
 13979      444F575F 
 13979      434F4C4F 
 13980              	.LASF192:
 13981 074c 7374796C 		.ascii	"style_cnt\000"
 13981      655F636E 
 13981      7400
 13982              	.LASF189:
 13983 0756 6C61796F 		.ascii	"layout_inv\000"
 13983      75745F69 
 13983      6E7600
 13984              	.LASF604:
 13985 0761 696E6465 		.ascii	"indev_encoder_proc\000"
 13985      765F656E 
 13985      636F6465 
 13985      725F7072 
 13985      6F6300
 13986              	.LASF562:
 13987 0774 4C565F4B 		.ascii	"LV_KEY_LEFT\000"
 13987      45595F4C 
 13987      45465400 
 13988              	.LASF2:
ARM GAS  C:\Users\haske\AppData\Local\Temp\ccl1At1U.s 			page 286


 13989 0780 7369676E 		.ascii	"signed char\000"
 13989      65642063 
 13989      68617200 
 13990              	.LASF16:
 13991 078c 75696E74 		.ascii	"uint8_t\000"
 13991      385F7400 
 13992              	.LASF275:
 13993 0794 64726177 		.ascii	"draw_line\000"
 13993      5F6C696E 
 13993      6500
 13994              	.LASF315:
 13995 079e 686F725F 		.ascii	"hor_res\000"
 13995      72657300 
 13996              	.LASF638:
 13997 07a6 696E6465 		.ascii	"indev_obj_act\000"
 13997      765F6F62 
 13997      6A5F6163 
 13997      7400
 13998              	.LASF310:
 13999 07b4 4C565F44 		.ascii	"LV_DISP_ROT_NONE\000"
 13999      4953505F 
 13999      524F545F 
 13999      4E4F4E45 
 13999      00
 14000              	.LASF475:
 14001 07c5 4C565F4F 		.ascii	"LV_OBJ_FLAG_LAYOUT_1\000"
 14001      424A5F46 
 14001      4C41475F 
 14001      4C41594F 
 14001      55545F31 
 14002              	.LASF476:
 14003 07da 4C565F4F 		.ascii	"LV_OBJ_FLAG_LAYOUT_2\000"
 14003      424A5F46 
 14003      4C41475F 
 14003      4C41594F 
 14003      55545F32 
 14004              	.LASF205:
 14005 07ef 62675F69 		.ascii	"bg_img_tiled\000"
 14005      6D675F74 
 14005      696C6564 
 14005      00
 14006              	.LASF102:
 14007 07fc 4C565F53 		.ascii	"LV_STYLE_BG_GRAD_DIR\000"
 14007      54594C45 
 14007      5F42475F 
 14007      47524144 
 14007      5F444952 
 14008              	.LASF43:
 14009 0811 6765745F 		.ascii	"get_glyph_bitmap\000"
 14009      676C7970 
 14009      685F6269 
 14009      746D6170 
 14009      00
 14010              	.LASF250:
 14011 0822 656E645F 		.ascii	"end_angle\000"
 14011      616E676C 
 14011      6500
ARM GAS  C:\Users\haske\AppData\Local\Temp\ccl1At1U.s 			page 287


 14012              	.LASF57:
 14013 082c 626C7565 		.ascii	"blue\000"
 14013      00
 14014              	.LASF464:
 14015 0831 4C565F4F 		.ascii	"LV_OBJ_FLAG_SCROLL_CHAIN\000"
 14015      424A5F46 
 14015      4C41475F 
 14015      5343524F 
 14015      4C4C5F43 
 14016              	.LASF203:
 14017 084a 62675F69 		.ascii	"bg_img_opa\000"
 14017      6D675F6F 
 14017      706100
 14018              	.LASF647:
 14019 0855 6C765F67 		.ascii	"lv_group_get_focused\000"
 14019      726F7570 
 14019      5F676574 
 14019      5F666F63 
 14019      75736564 
 14020              	.LASF477:
 14021 086a 4C565F4F 		.ascii	"LV_OBJ_FLAG_WIDGET_1\000"
 14021      424A5F46 
 14021      4C41475F 
 14021      57494447 
 14021      45545F31 
 14022              	.LASF478:
 14023 087f 4C565F4F 		.ascii	"LV_OBJ_FLAG_WIDGET_2\000"
 14023      424A5F46 
 14023      4C41475F 
 14023      57494447 
 14023      45545F32 
 14024              	.LASF88:
 14025 0894 4C565F53 		.ascii	"LV_STYLE_ALIGN\000"
 14025      54594C45 
 14025      5F414C49 
 14025      474E00
 14026              	.LASF3:
 14027 08a3 756E7369 		.ascii	"unsigned char\000"
 14027      676E6564 
 14027      20636861 
 14027      7200
 14028              	.LASF349:
 14029 08b1 746F705F 		.ascii	"top_layer\000"
 14029      6C617965 
 14029      7200
 14030              	.LASF421:
 14031 08bb 74797065 		.ascii	"types\000"
 14031      7300
 14032              	.LASF555:
 14033 08c1 4C565F45 		.ascii	"LV_EVENT_GET_SELF_SIZE\000"
 14033      56454E54 
 14033      5F474554 
 14033      5F53454C 
 14033      465F5349 
 14034              	.LASF532:
 14035 08d8 4C565F45 		.ascii	"LV_EVENT_DRAW_MAIN\000"
 14035      56454E54 
ARM GAS  C:\Users\haske\AppData\Local\Temp\ccl1At1U.s 			page 288


 14035      5F445241 
 14035      575F4D41 
 14035      494E00
 14036              	.LASF311:
 14037 08eb 4C565F44 		.ascii	"LV_DISP_ROT_90\000"
 14037      4953505F 
 14037      524F545F 
 14037      393000
 14038              	.LASF248:
 14039 08fa 6C765F64 		.ascii	"lv_draw_line_dsc_t\000"
 14039      7261775F 
 14039      6C696E65 
 14039      5F647363 
 14039      5F7400
 14040              	.LASF162:
 14041 090d 4C565F53 		.ascii	"LV_STYLE_TRANSFORM_PIVOT_X\000"
 14041      54594C45 
 14041      5F545241 
 14041      4E53464F 
 14041      524D5F50 
 14042              	.LASF163:
 14043 0928 4C565F53 		.ascii	"LV_STYLE_TRANSFORM_PIVOT_Y\000"
 14043      54594C45 
 14043      5F545241 
 14043      4E53464F 
 14043      524D5F50 
 14044              	.LASF573:
 14045 0943 6C765F67 		.ascii	"lv_group_t\000"
 14045      726F7570 
 14045      5F7400
 14046              	.LASF376:
 14047 094e 4C565F49 		.ascii	"LV_INDEV_STATE_RELEASED\000"
 14047      4E444556 
 14047      5F535441 
 14047      54455F52 
 14047      454C4541 
 14048              	.LASF128:
 14049 0966 4C565F53 		.ascii	"LV_STYLE_IMG_RECOLOR\000"
 14049      54594C45 
 14049      5F494D47 
 14049      5F524543 
 14049      4F4C4F52 
 14050              	.LASF263:
 14051 097b 61726561 		.ascii	"area_act\000"
 14051      5F616374 
 14051      00
 14052              	.LASF136:
 14053 0984 4C565F53 		.ascii	"LV_STYLE_ARC_WIDTH\000"
 14053      54594C45 
 14053      5F415243 
 14053      5F574944 
 14053      544800
 14054              	.LASF39:
 14055 0997 6F66735F 		.ascii	"ofs_x\000"
 14055      7800
 14056              	.LASF40:
 14057 099d 6F66735F 		.ascii	"ofs_y\000"
ARM GAS  C:\Users\haske\AppData\Local\Temp\ccl1At1U.s 			page 289


 14057      7900
 14058              	.LASF65:
 14059 09a3 6C765F62 		.ascii	"lv_base_dir_t\000"
 14059      6173655F 
 14059      6469725F 
 14059      7400
 14060              	.LASF565:
 14061 09b1 4C565F4B 		.ascii	"LV_KEY_BACKSPACE\000"
 14061      45595F42 
 14061      41434B53 
 14061      50414345 
 14061      00
 14062              	.LASF29:
 14063 09c2 4C565F44 		.ascii	"LV_DIR_TOP\000"
 14063      49525F54 
 14063      4F5000
 14064              	.LASF193:
 14065 09cd 685F6C61 		.ascii	"h_layout\000"
 14065      796F7574 
 14065      00
 14066              	.LASF306:
 14067 09d6 666C7573 		.ascii	"flushing_last\000"
 14067      68696E67 
 14067      5F6C6173 
 14067      7400
 14068              	.LASF52:
 14069 09e4 5F426F6F 		.ascii	"_Bool\000"
 14069      6C00
 14070              	.LASF581:
 14071 09ea 7363726F 		.ascii	"scrollbar_mode\000"
 14071      6C6C6261 
 14071      725F6D6F 
 14071      646500
 14072              	.LASF318:
 14073 09f9 70687973 		.ascii	"physical_ver_res\000"
 14073      6963616C 
 14073      5F766572 
 14073      5F726573 
 14073      00
 14074              	.LASF266:
 14075 0a0a 6F726967 		.ascii	"original\000"
 14075      696E616C 
 14075      00
 14076              	.LASF158:
 14077 0a13 4C565F53 		.ascii	"LV_STYLE_TRANSLATE_X\000"
 14077      54594C45 
 14077      5F545241 
 14077      4E534C41 
 14077      54455F58 
 14078              	.LASF159:
 14079 0a28 4C565F53 		.ascii	"LV_STYLE_TRANSLATE_Y\000"
 14079      54594C45 
 14079      5F545241 
 14079      4E534C41 
 14079      54455F59 
 14080              	.LASF675:
 14081 0a3d 474E5520 		.ascii	"GNU C11 5.4.1 20160609 (release) [ARM/embedded-5-br"
ARM GAS  C:\Users\haske\AppData\Local\Temp\ccl1At1U.s 			page 290


 14081      43313120 
 14081      352E342E 
 14081      31203230 
 14081      31363036 
 14082 0a70 616E6368 		.ascii	"anch revision 237715] -mcpu=cortex-m0plus -mthumb -"
 14082      20726576 
 14082      6973696F 
 14082      6E203233 
 14082      37373135 
 14083 0aa3 67202D4F 		.ascii	"g -Og -ffunction-sections -ffat-lto-objects\000"
 14083      67202D66 
 14083      66756E63 
 14083      74696F6E 
 14083      2D736563 
 14084              	.LASF508:
 14085 0acf 73746F70 		.ascii	"stop_processing\000"
 14085      5F70726F 
 14085      63657373 
 14085      696E6700 
 14086              	.LASF170:
 14087 0adf 76616C75 		.ascii	"value\000"
 14087      6500
 14088              	.LASF187:
 14089 0ae5 666C6167 		.ascii	"flags\000"
 14089      7300
 14090              	.LASF257:
 14091 0aeb 6C765F64 		.ascii	"lv_draw_layer_flags_t\000"
 14091      7261775F 
 14091      6C617965 
 14091      725F666C 
 14091      6167735F 
 14092              	.LASF590:
 14093 0b01 6C765F6F 		.ascii	"lv_obj_get_style_transform_zoom\000"
 14093      626A5F67 
 14093      65745F73 
 14093      74796C65 
 14093      5F747261 
 14094              	.LASF656:
 14095 0b21 6C765F67 		.ascii	"lv_group_get_editing\000"
 14095      726F7570 
 14095      5F676574 
 14095      5F656469 
 14095      74696E67 
 14096              	.LASF56:
 14097 0b36 63686172 		.ascii	"char\000"
 14097      00
 14098              	.LASF241:
 14099 0b3b 6C765F64 		.ascii	"lv_draw_img_dsc_t\000"
 14099      7261775F 
 14099      696D675F 
 14099      6473635F 
 14099      7400
 14100              	.LASF380:
 14101 0b4d 62746E5F 		.ascii	"btn_id\000"
 14101      696400
 14102              	.LASF26:
 14103 0b54 4C565F44 		.ascii	"LV_DIR_NONE\000"
ARM GAS  C:\Users\haske\AppData\Local\Temp\ccl1At1U.s 			page 291


 14103      49525F4E 
 14103      4F4E4500 
 14104              	.LASF47:
 14105 0b60 756E6465 		.ascii	"underline_position\000"
 14105      726C696E 
 14105      655F706F 
 14105      73697469 
 14105      6F6E00
 14106              	.LASF285:
 14107 0b73 6C617965 		.ascii	"layer_instance_size\000"
 14107      725F696E 
 14107      7374616E 
 14107      63655F73 
 14107      697A6500 
 14108              	.LASF649:
 14109 0b87 6C765F74 		.ascii	"lv_tick_get\000"
 14109      69636B5F 
 14109      67657400 
 14110              	.LASF244:
 14111 0b93 64617368 		.ascii	"dash_gap\000"
 14111      5F676170 
 14111      00
 14112              	.LASF277:
 14113 0b9c 64726177 		.ascii	"draw_transform\000"
 14113      5F747261 
 14113      6E73666F 
 14113      726D00
 14114              	.LASF322:
 14115 0bab 64697265 		.ascii	"direct_mode\000"
 14115      63745F6D 
 14115      6F646500 
 14116              	.LASF529:
 14117 0bb7 4C565F45 		.ascii	"LV_EVENT_COVER_CHECK\000"
 14117      56454E54 
 14117      5F434F56 
 14117      45525F43 
 14117      4845434B 
 14118              	.LASF97:
 14119 0bcc 4C565F53 		.ascii	"LV_STYLE_BASE_DIR\000"
 14119      54594C45 
 14119      5F424153 
 14119      455F4449 
 14119      5200
 14120              	.LASF620:
 14121 0bde 6C765F69 		.ascii	"lv_indev_get_scroll_obj\000"
 14121      6E646576 
 14121      5F676574 
 14121      5F736372 
 14121      6F6C6C5F 
 14122              	.LASF119:
 14123 0bf6 4C565F53 		.ascii	"LV_STYLE_OUTLINE_OPA\000"
 14123      54594C45 
 14123      5F4F5554 
 14123      4C494E45 
 14123      5F4F5041 
 14124              	.LASF75:
 14125 0c0b 73746F70 		.ascii	"stops_count\000"
ARM GAS  C:\Users\haske\AppData\Local\Temp\ccl1At1U.s 			page 292


 14125      735F636F 
 14125      756E7400 
 14126              	.LASF325:
 14127 0c17 616E7469 		.ascii	"antialiasing\000"
 14127      616C6961 
 14127      73696E67 
 14127      00
 14128              	.LASF6:
 14129 0c24 5F5F7569 		.ascii	"__uint16_t\000"
 14129      6E743136 
 14129      5F7400
 14130              	.LASF407:
 14131 0c2f 7363726F 		.ascii	"scroll_area\000"
 14131      6C6C5F61 
 14131      72656100 
 14132              	.LASF446:
 14133 0c3b 4C565F53 		.ascii	"LV_STATE_SCROLLED\000"
 14133      54415445 
 14133      5F534352 
 14133      4F4C4C45 
 14133      4400
 14134              	.LASF673:
 14135 0c4d 6C765F64 		.ascii	"lv_disp_get_ver_res\000"
 14135      6973705F 
 14135      6765745F 
 14135      7665725F 
 14135      72657300 
 14136              	.LASF528:
 14137 0c61 4C565F45 		.ascii	"LV_EVENT_HIT_TEST\000"
 14137      56454E54 
 14137      5F484954 
 14137      5F544553 
 14137      5400
 14138              	.LASF636:
 14139 0c73 74696D65 		.ascii	"timer\000"
 14139      7200
 14140              	.LASF586:
 14141 0c79 5F6C765F 		.ascii	"_lv_obj_spec_attr_t\000"
 14141      6F626A5F 
 14141      73706563 
 14141      5F617474 
 14141      725F7400 
 14142              	.LASF213:
 14143 0c8d 6F75746C 		.ascii	"outline_pad\000"
 14143      696E655F 
 14143      70616400 
 14144              	.LASF286:
 14145 0c99 6C765F64 		.ascii	"lv_draw_ctx_t\000"
 14145      7261775F 
 14145      6374785F 
 14145      7400
 14146              	.LASF99:
 14147 0ca7 4C565F53 		.ascii	"LV_STYLE_BG_COLOR\000"
 14147      54594C45 
 14147      5F42475F 
 14147      434F4C4F 
 14147      5200
ARM GAS  C:\Users\haske\AppData\Local\Temp\ccl1At1U.s 			page 293


 14148              	.LASF129:
 14149 0cb9 4C565F53 		.ascii	"LV_STYLE_IMG_RECOLOR_OPA\000"
 14149      54594C45 
 14149      5F494D47 
 14149      5F524543 
 14149      4F4C4F52 
 14150              	.LASF425:
 14151 0cd2 70726F63 		.ascii	"proc\000"
 14151      00
 14152              	.LASF206:
 14153 0cd7 626F7264 		.ascii	"border_color\000"
 14153      65725F63 
 14153      6F6C6F72 
 14153      00
 14154              	.LASF672:
 14155 0ce4 6C765F64 		.ascii	"lv_disp_get_hor_res\000"
 14155      6973705F 
 14155      6765745F 
 14155      686F725F 
 14155      72657300 
 14156              	.LASF155:
 14157 0cf8 4C565F53 		.ascii	"LV_STYLE_BLEND_MODE\000"
 14157      54594C45 
 14157      5F424C45 
 14157      4E445F4D 
 14157      4F444500 
 14158              	.LASF34:
 14159 0d0c 6C765F64 		.ascii	"lv_dir_t\000"
 14159      69725F74 
 14159      00
 14160              	.LASF550:
 14161 0d15 4C565F45 		.ascii	"LV_EVENT_SCREEN_LOADED\000"
 14161      56454E54 
 14161      5F534352 
 14161      45454E5F 
 14161      4C4F4144 
 14162              	.LASF169:
 14163 0d2c 70726F70 		.ascii	"prop\000"
 14163      00
 14164              	.LASF174:
 14165 0d31 636F6E73 		.ascii	"const_props\000"
 14165      745F7072 
 14165      6F707300 
 14166              	.LASF671:
 14167 0d3d 5F6C765F 		.ascii	"_lv_indev_scroll_handler\000"
 14167      696E6465 
 14167      765F7363 
 14167      726F6C6C 
 14167      5F68616E 
 14168              	.LASF650:
 14169 0d56 6C765F67 		.ascii	"lv_group_set_editing\000"
 14169      726F7570 
 14169      5F736574 
 14169      5F656469 
 14169      74696E67 
 14170              	.LASF490:
 14171 0d6b 5F6C765F 		.ascii	"_lv_obj_style_t\000"
ARM GAS  C:\Users\haske\AppData\Local\Temp\ccl1At1U.s 			page 294


 14171      6F626A5F 
 14171      7374796C 
 14171      655F7400 
 14172              	.LASF443:
 14173 0d7b 4C565F53 		.ascii	"LV_STATE_EDITED\000"
 14173      54415445 
 14173      5F454449 
 14173      54454400 
 14174              	.LASF209:
 14175 0d8b 626F7264 		.ascii	"border_post\000"
 14175      65725F70 
 14175      6F737400 
 14176              	.LASF577:
 14177 0d97 6576656E 		.ascii	"event_dsc\000"
 14177      745F6473 
 14177      6300
 14178              	.LASF305:
 14179 0da1 666C7573 		.ascii	"flushing\000"
 14179      68696E67 
 14179      00
 14180              	.LASF33:
 14181 0daa 4C565F44 		.ascii	"LV_DIR_ALL\000"
 14181      49525F41 
 14181      4C4C00
 14182              	.LASF131:
 14183 0db5 4C565F53 		.ascii	"LV_STYLE_LINE_DASH_WIDTH\000"
 14183      54594C45 
 14183      5F4C494E 
 14183      455F4441 
 14183      53485F57 
 14184              	.LASF32:
 14185 0dce 4C565F44 		.ascii	"LV_DIR_VER\000"
 14185      49525F56 
 14185      455200
 14186              	.LASF217:
 14187 0dd9 73686164 		.ascii	"shadow_ofs_x\000"
 14187      6F775F6F 
 14187      66735F78 
 14187      00
 14188              	.LASF156:
 14189 0de6 4C565F53 		.ascii	"LV_STYLE_TRANSFORM_WIDTH\000"
 14189      54594C45 
 14189      5F545241 
 14189      4E53464F 
 14189      524D5F57 
 14190              	.LASF299:
 14191 0dff 6C765F74 		.ascii	"lv_timer_t\000"
 14191      696D6572 
 14191      5F7400
 14192              	.LASF576:
 14193 0e0a 67726F75 		.ascii	"group_p\000"
 14193      705F7000 
 14194              	.LASF168:
 14195 0e12 6C765F73 		.ascii	"lv_style_prop_t\000"
 14195      74796C65 
 14195      5F70726F 
 14195      705F7400 
ARM GAS  C:\Users\haske\AppData\Local\Temp\ccl1At1U.s 			page 295


 14196              	.LASF469:
 14197 0e22 4C565F4F 		.ascii	"LV_OBJ_FLAG_EVENT_BUBBLE\000"
 14197      424A5F46 
 14197      4C41475F 
 14197      4556454E 
 14197      545F4255 
 14198              	.LASF245:
 14199 0e3b 726F756E 		.ascii	"round_start\000"
 14199      645F7374 
 14199      61727400 
 14200              	.LASF578:
 14201 0e47 7363726F 		.ascii	"scroll\000"
 14201      6C6C00
 14202              	.LASF49:
 14203 0e4e 66616C6C 		.ascii	"fallback\000"
 14203      6261636B 
 14203      00
 14204              	.LASF173:
 14205 0e57 76616C75 		.ascii	"values_and_props\000"
 14205      65735F61 
 14205      6E645F70 
 14205      726F7073 
 14205      00
 14206              	.LASF623:
 14207 0e68 6C765F69 		.ascii	"lv_indev_get_act\000"
 14207      6E646576 
 14207      5F676574 
 14207      5F616374 
 14207      00
 14208              	.LASF496:
 14209 0e79 77696474 		.ascii	"width_def\000"
 14209      685F6465 
 14209      6600
 14210              	.LASF378:
 14211 0e83 6C765F69 		.ascii	"lv_indev_state_t\000"
 14211      6E646576 
 14211      5F737461 
 14211      74655F74 
 14211      00
 14212              	.LASF588:
 14213 0e94 6C765F74 		.ascii	"lv_theme_apply_cb_t\000"
 14213      68656D65 
 14213      5F617070 
 14213      6C795F63 
 14213      625F7400 
 14214              	.LASF324:
 14215 0ea8 73775F72 		.ascii	"sw_rotate\000"
 14215      6F746174 
 14215      6500
 14216              	.LASF585:
 14217 0eb2 6C617965 		.ascii	"layer_type\000"
 14217      725F7479 
 14217      706500
 14218              	.LASF153:
 14219 0ebd 4C565F53 		.ascii	"LV_STYLE_ANIM_SPEED\000"
 14219      54594C45 
 14219      5F414E49 
ARM GAS  C:\Users\haske\AppData\Local\Temp\ccl1At1U.s 			page 296


 14219      4D5F5350 
 14219      45454400 
 14220              	.LASF25:
 14221 0ed1 6C765F61 		.ascii	"lv_area_t\000"
 14221      7265615F 
 14221      7400
 14222              	.LASF281:
 14223 0edb 6C617965 		.ascii	"layer_init\000"
 14223      725F696E 
 14223      697400
 14224              	.LASF117:
 14225 0ee6 4C565F53 		.ascii	"LV_STYLE_OUTLINE_WIDTH\000"
 14225      54594C45 
 14225      5F4F5554 
 14225      4C494E45 
 14225      5F574944 
 14226              	.LASF366:
 14227 0efd 666F6E74 		.ascii	"font_small\000"
 14227      5F736D61 
 14227      6C6C00
 14228              	.LASF572:
 14229 0f08 6C765F67 		.ascii	"lv_group_edge_cb_t\000"
 14229      726F7570 
 14229      5F656467 
 14229      655F6362 
 14229      5F7400
 14230              	.LASF479:
 14231 0f1b 4C565F4F 		.ascii	"LV_OBJ_FLAG_USER_1\000"
 14231      424A5F46 
 14231      4C41475F 
 14231      55534552 
 14231      5F3100
 14232              	.LASF480:
 14233 0f2e 4C565F4F 		.ascii	"LV_OBJ_FLAG_USER_2\000"
 14233      424A5F46 
 14233      4C41475F 
 14233      55534552 
 14233      5F3200
 14234              	.LASF447:
 14235 0f41 4C565F53 		.ascii	"LV_STATE_DISABLED\000"
 14235      54415445 
 14235      5F444953 
 14235      41424C45 
 14235      4400
 14236              	.LASF482:
 14237 0f53 4C565F4F 		.ascii	"LV_OBJ_FLAG_USER_4\000"
 14237      424A5F46 
 14237      4C41475F 
 14237      55534552 
 14237      5F3400
 14238              	.LASF610:
 14239 0f66 6C765F69 		.ascii	"lv_indev_set_cursor\000"
 14239      6E646576 
 14239      5F736574 
 14239      5F637572 
 14239      736F7200 
 14240              	.LASF518:
ARM GAS  C:\Users\haske\AppData\Local\Temp\ccl1At1U.s 			page 297


 14241 0f7a 4C565F45 		.ascii	"LV_EVENT_CLICKED\000"
 14241      56454E54 
 14241      5F434C49 
 14241      434B4544 
 14241      00
 14242              	.LASF79:
 14243 0f8b 4C565F53 		.ascii	"LV_STYLE_PROP_INV\000"
 14243      54594C45 
 14243      5F50524F 
 14243      505F494E 
 14243      5600
 14244              	.LASF145:
 14245 0f9d 4C565F53 		.ascii	"LV_STYLE_TEXT_LINE_SPACE\000"
 14245      54594C45 
 14245      5F544558 
 14245      545F4C49 
 14245      4E455F53 
 14246              	.LASF510:
 14247 0fb6 6C765F6F 		.ascii	"lv_obj_class_t\000"
 14247      626A5F63 
 14247      6C617373 
 14247      5F7400
 14248              	.LASF171:
 14249 0fc5 6C765F73 		.ascii	"lv_style_const_prop_t\000"
 14249      74796C65 
 14249      5F636F6E 
 14249      73745F70 
 14249      726F705F 
 14250              	.LASF533:
 14251 0fdb 4C565F45 		.ascii	"LV_EVENT_DRAW_MAIN_END\000"
 14251      56454E54 
 14251      5F445241 
 14251      575F4D41 
 14251      494E5F45 
 14252              	.LASF359:
 14253 0ff2 696E765F 		.ascii	"inv_en_cnt\000"
 14253      656E5F63 
 14253      6E7400
 14254              	.LASF183:
 14255 0ffd 70617265 		.ascii	"parent\000"
 14255      6E7400
 14256              	.LASF323:
 14257 1004 66756C6C 		.ascii	"full_refresh\000"
 14257      5F726566 
 14257      72657368 
 14257      00
 14258              	.LASF246:
 14259 1011 726F756E 		.ascii	"round_end\000"
 14259      645F656E 
 14259      6400
 14260              	.LASF251:
 14261 101b 696D675F 		.ascii	"img_src\000"
 14261      73726300 
 14262              	.LASF489:
 14263 1023 69735F74 		.ascii	"is_trans\000"
 14263      72616E73 
 14263      00
ARM GAS  C:\Users\haske\AppData\Local\Temp\ccl1At1U.s 			page 298


 14264              	.LASF438:
 14265 102c 6C765F69 		.ascii	"lv_indev_t\000"
 14265      6E646576 
 14265      5F7400
 14266              	.LASF428:
 14267 1037 62746E5F 		.ascii	"btn_points\000"
 14267      706F696E 
 14267      747300
 14268              	.LASF219:
 14269 1042 73686164 		.ascii	"shadow_spread\000"
 14269      6F775F73 
 14269      70726561 
 14269      6400
 14270              	.LASF152:
 14271 1050 4C565F53 		.ascii	"LV_STYLE_ANIM_TIME\000"
 14271      54594C45 
 14271      5F414E49 
 14271      4D5F5449 
 14271      4D4500
 14272              	.LASF592:
 14273 1063 696E6465 		.ascii	"indev\000"
 14273      7600
 14274              	.LASF420:
 14275 1069 77616974 		.ascii	"wait_until_release\000"
 14275      5F756E74 
 14275      696C5F72 
 14275      656C6561 
 14275      736500
 14276              	.LASF92:
 14277 107c 4C565F53 		.ascii	"LV_STYLE_PAD_BOTTOM\000"
 14277      54594C45 
 14277      5F504144 
 14277      5F424F54 
 14277      544F4D00 
 14278              	.LASF414:
 14279 1090 706F696E 		.ascii	"pointer\000"
 14279      74657200 
 14280              	.LASF473:
 14281 1098 4C565F4F 		.ascii	"LV_OBJ_FLAG_FLOATING\000"
 14281      424A5F46 
 14281      4C41475F 
 14281      464C4F41 
 14281      54494E47 
 14282              	.LASF658:
 14283 10ad 6C765F6F 		.ascii	"lv_obj_clear_state\000"
 14283      626A5F63 
 14283      6C656172 
 14283      5F737461 
 14283      746500
 14284              	.LASF463:
 14285 10c0 4C565F4F 		.ascii	"LV_OBJ_FLAG_SCROLL_CHAIN_VER\000"
 14285      424A5F46 
 14285      4C41475F 
 14285      5343524F 
 14285      4C4C5F43 
 14286              	.LASF330:
 14287 10dd 636C6561 		.ascii	"clear_cb\000"
ARM GAS  C:\Users\haske\AppData\Local\Temp\ccl1At1U.s 			page 299


 14287      725F6362 
 14287      00
 14288              	.LASF100:
 14289 10e6 4C565F53 		.ascii	"LV_STYLE_BG_OPA\000"
 14289      54594C45 
 14289      5F42475F 
 14289      4F504100 
 14290              	.LASF135:
 14291 10f6 4C565F53 		.ascii	"LV_STYLE_LINE_OPA\000"
 14291      54594C45 
 14291      5F4C494E 
 14291      455F4F50 
 14291      4100
 14292              	.LASF178:
 14293 1108 6C765F73 		.ascii	"lv_style_t\000"
 14293      74796C65 
 14293      5F7400
 14294              	.LASF474:
 14295 1113 4C565F4F 		.ascii	"LV_OBJ_FLAG_OVERFLOW_VISIBLE\000"
 14295      424A5F46 
 14295      4C41475F 
 14295      4F564552 
 14295      464C4F57 
 14296              	.LASF662:
 14297 1130 6C765F6F 		.ascii	"lv_obj_set_pos\000"
 14297      626A5F73 
 14297      65745F70 
 14297      6F7300
 14298              	.LASF185:
 14299 113f 7374796C 		.ascii	"styles\000"
 14299      657300
 14300              	.LASF382:
 14301 1146 636F6E74 		.ascii	"continue_reading\000"
 14301      696E7565 
 14301      5F726561 
 14301      64696E67 
 14301      00
 14302              	.LASF575:
 14303 1157 6368696C 		.ascii	"child_cnt\000"
 14303      645F636E 
 14303      7400
 14304              	.LASF127:
 14305 1161 4C565F53 		.ascii	"LV_STYLE_IMG_OPA\000"
 14305      54594C45 
 14305      5F494D47 
 14305      5F4F5041 
 14305      00
 14306              	.LASF160:
 14307 1172 4C565F53 		.ascii	"LV_STYLE_TRANSFORM_ZOOM\000"
 14307      54594C45 
 14307      5F545241 
 14307      4E53464F 
 14307      524D5F5A 
 14308              	.LASF527:
 14309 118a 4C565F45 		.ascii	"LV_EVENT_LEAVE\000"
 14309      56454E54 
 14309      5F4C4541 
ARM GAS  C:\Users\haske\AppData\Local\Temp\ccl1At1U.s 			page 300


 14309      564500
 14310              	.LASF654:
 14311 1199 6C765F74 		.ascii	"lv_tick_elaps\000"
 14311      69636B5F 
 14311      656C6170 
 14311      7300
 14312              	.LASF11:
 14313 11a7 6C6F6E67 		.ascii	"long unsigned int\000"
 14313      20756E73 
 14313      69676E65 
 14313      6420696E 
 14313      7400
 14314              	.LASF591:
 14315 11b9 6C765F6F 		.ascii	"lv_obj_get_style_transform_angle\000"
 14315      626A5F67 
 14315      65745F73 
 14315      74796C65 
 14315      5F747261 
 14316              	.LASF557:
 14317 11da 4C565F45 		.ascii	"LV_EVENT_PREPROCESS\000"
 14317      56454E54 
 14317      5F505245 
 14317      50524F43 
 14317      45535300 
 14318              	.LASF312:
 14319 11ee 4C565F44 		.ascii	"LV_DISP_ROT_180\000"
 14319      4953505F 
 14319      524F545F 
 14319      31383000 
 14320              	.LASF179:
 14321 11fe 6C765F69 		.ascii	"lv_img_cf_t\000"
 14321      6D675F63 
 14321      665F7400 
 14322              	.LASF460:
 14323 120a 4C565F4F 		.ascii	"LV_OBJ_FLAG_SCROLL_MOMENTUM\000"
 14323      424A5F46 
 14323      4C41475F 
 14323      5343524F 
 14323      4C4C5F4D 
 14324              	.LASF142:
 14325 1226 4C565F53 		.ascii	"LV_STYLE_TEXT_OPA\000"
 14325      54594C45 
 14325      5F544558 
 14325      545F4F50 
 14325      4100
 14326              	.LASF249:
 14327 1238 73746172 		.ascii	"start_angle\000"
 14327      745F616E 
 14327      676C6500 
 14328              	.LASF505:
 14329 1244 70617261 		.ascii	"param\000"
 14329      6D00
 14330              	.LASF502:
 14331 124a 74617267 		.ascii	"target\000"
 14331      657400
 14332              	.LASF352:
 14333 1251 64726177 		.ascii	"draw_prev_over_act\000"
ARM GAS  C:\Users\haske\AppData\Local\Temp\ccl1At1U.s 			page 301


 14333      5F707265 
 14333      765F6F76 
 14333      65725F61 
 14333      637400
 14334              	.LASF284:
 14335 1264 6C617965 		.ascii	"layer_destroy\000"
 14335      725F6465 
 14335      7374726F 
 14335      7900
 14336              	.LASF618:
 14337 1272 6C765F69 		.ascii	"lv_indev_get_key\000"
 14337      6E646576 
 14337      5F676574 
 14337      5F6B6579 
 14337      00
 14338              	.LASF243:
 14339 1283 64617368 		.ascii	"dash_width\000"
 14339      5F776964 
 14339      746800
 14340              	.LASF308:
 14341 128e 6C617374 		.ascii	"last_part\000"
 14341      5F706172 
 14341      7400
 14342              	.LASF624:
 14343 1298 6C765F69 		.ascii	"lv_indev_get_obj_act\000"
 14343      6E646576 
 14343      5F676574 
 14343      5F6F626A 
 14343      5F616374 
 14344              	.LASF498:
 14345 12ad 65646974 		.ascii	"editable\000"
 14345      61626C65 
 14345      00
 14346              	.LASF344:
 14347 12b6 7468656D 		.ascii	"theme\000"
 14347      6500
 14348              	.LASF319:
 14349 12bc 6F666673 		.ascii	"offset_x\000"
 14349      65745F78 
 14349      00
 14350              	.LASF320:
 14351 12c5 6F666673 		.ascii	"offset_y\000"
 14351      65745F79 
 14351      00
 14352              	.LASF600:
 14353 12ce 696E6465 		.ascii	"indev_keypad_proc\000"
 14353      765F6B65 
 14353      79706164 
 14353      5F70726F 
 14353      6300
 14354              	.LASF35:
 14355 12e0 7265736F 		.ascii	"resolved_font\000"
 14355      6C766564 
 14355      5F666F6E 
 14355      7400
 14356              	.LASF457:
 14357 12ee 4C565F4F 		.ascii	"LV_OBJ_FLAG_CHECKABLE\000"
ARM GAS  C:\Users\haske\AppData\Local\Temp\ccl1At1U.s 			page 302


 14357      424A5F46 
 14357      4C41475F 
 14357      43484543 
 14357      4B41424C 
 14358              	.LASF666:
 14359 1304 6C765F6F 		.ascii	"lv_obj_transform_point\000"
 14359      626A5F74 
 14359      72616E73 
 14359      666F726D 
 14359      5F706F69 
 14360              	.LASF593:
 14361 131b 696E6465 		.ascii	"indev_proc_reset_query_handler\000"
 14361      765F7072 
 14361      6F635F72 
 14361      65736574 
 14361      5F717565 
 14362              	.LASF430:
 14363 133a 6F626A5F 		.ascii	"obj_ll\000"
 14363      6C6C00
 14364              	.LASF271:
 14365 1341 64726177 		.ascii	"draw_arc\000"
 14365      5F617263 
 14365      00
 14366              	.LASF134:
 14367 134a 4C565F53 		.ascii	"LV_STYLE_LINE_COLOR\000"
 14367      54594C45 
 14367      5F4C494E 
 14367      455F434F 
 14367      4C4F5200 
 14368              	.LASF454:
 14369 135e 4C565F4F 		.ascii	"LV_OBJ_FLAG_HIDDEN\000"
 14369      424A5F46 
 14369      4C41475F 
 14369      48494444 
 14369      454E00
 14370              	.LASF95:
 14371 1371 4C565F53 		.ascii	"LV_STYLE_PAD_ROW\000"
 14371      54594C45 
 14371      5F504144 
 14371      5F524F57 
 14371      00
 14372              	.LASF300:
 14373 1382 5F6C765F 		.ascii	"_lv_disp_draw_buf_t\000"
 14373      64697370 
 14373      5F647261 
 14373      775F6275 
 14373      665F7400 
 14374              	.LASF259:
 14375 1396 6275665F 		.ascii	"buf_area\000"
 14375      61726561 
 14375      00
 14376              	.LASF595:
 14377 139f 675F6163 		.ascii	"g_act\000"
 14377      7400
 14378              	.LASF237:
 14379 13a5 7265636F 		.ascii	"recolor\000"
 14379      6C6F7200 
ARM GAS  C:\Users\haske\AppData\Local\Temp\ccl1At1U.s 			page 303


 14380              	.LASF541:
 14381 13ad 4C565F45 		.ascii	"LV_EVENT_REFRESH\000"
 14381      56454E54 
 14381      5F524546 
 14381      52455348 
 14381      00
 14382              	.LASF500:
 14383 13be 696E7374 		.ascii	"instance_size\000"
 14383      616E6365 
 14383      5F73697A 
 14383      6500
 14384              	.LASF234:
 14385 13cc 616E676C 		.ascii	"angle\000"
 14385      6500
 14386              	.LASF93:
 14387 13d2 4C565F53 		.ascii	"LV_STYLE_PAD_LEFT\000"
 14387      54594C45 
 14387      5F504144 
 14387      5F4C4546 
 14387      5400
 14388              	.LASF338:
 14389 13e4 64726177 		.ascii	"draw_ctx_init\000"
 14389      5F637478 
 14389      5F696E69 
 14389      7400
 14390              	.LASF676:
 14391 13f2 2E2E5C2E 		.ascii	"..\\..\\..\\arduinoLCD\\test\\Pain Drain\\libraries"
 14391      2E5C2E2E 
 14391      5C617264 
 14391      75696E6F 
 14391      4C43445C 
 14392 141f 5C6C7667 		.ascii	"\\lvgl\\src\\core\\lv_indev.c\000"
 14392      6C5C7372 
 14392      635C636F 
 14392      72655C6C 
 14392      765F696E 
 14393              	.LASF427:
 14394 1439 67726F75 		.ascii	"group\000"
 14394      7000
 14395              	.LASF530:
 14396 143f 4C565F45 		.ascii	"LV_EVENT_REFR_EXT_DRAW_SIZE\000"
 14396      56454E54 
 14396      5F524546 
 14396      525F4558 
 14396      545F4452 
 14397              	.LASF377:
 14398 145b 4C565F49 		.ascii	"LV_INDEV_STATE_PRESSED\000"
 14398      4E444556 
 14398      5F535441 
 14398      54455F50 
 14398      52455353 
 14399              	.LASF272:
 14400 1472 64726177 		.ascii	"draw_img_decoded\000"
 14400      5F696D67 
 14400      5F646563 
 14400      6F646564 
 14400      00
ARM GAS  C:\Users\haske\AppData\Local\Temp\ccl1At1U.s 			page 304


 14401              	.LASF292:
 14402 1483 6C765F74 		.ascii	"lv_timer_cb_t\000"
 14402      696D6572 
 14402      5F63625F 
 14402      7400
 14403              	.LASF151:
 14404 1491 4C565F53 		.ascii	"LV_STYLE_ANIM\000"
 14404      54594C45 
 14404      5F414E49 
 14404      4D00
 14405              	.LASF86:
 14406 149f 4C565F53 		.ascii	"LV_STYLE_X\000"
 14406      54594C45 
 14406      5F5800
 14407              	.LASF404:
 14408 14aa 6C617374 		.ascii	"last_obj\000"
 14408      5F6F626A 
 14408      00
 14409              	.LASF467:
 14410 14b3 4C565F4F 		.ascii	"LV_OBJ_FLAG_SNAPPABLE\000"
 14410      424A5F46 
 14410      4C41475F 
 14410      534E4150 
 14410      5041424C 
 14411              	.LASF375:
 14412 14c9 6C765F69 		.ascii	"lv_indev_type_t\000"
 14412      6E646576 
 14412      5F747970 
 14412      655F7400 
 14413              	.LASF668:
 14414 14d9 5F6C765F 		.ascii	"_lv_area_is_point_on\000"
 14414      61726561 
 14414      5F69735F 
 14414      706F696E 
 14414      745F6F6E 
 14415              	.LASF147:
 14416 14ee 4C565F53 		.ascii	"LV_STYLE_TEXT_ALIGN\000"
 14416      54594C45 
 14416      5F544558 
 14416      545F414C 
 14416      49474E00 
 14417              	.LASF373:
 14418 1502 4C565F49 		.ascii	"LV_INDEV_TYPE_BUTTON\000"
 14418      4E444556 
 14418      5F545950 
 14418      455F4255 
 14418      54544F4E 
 14419              	.LASF633:
 14420 1517 696E6465 		.ascii	"indev_pointer_proc\000"
 14420      765F706F 
 14420      696E7465 
 14420      725F7072 
 14420      6F6300
 14421              	.LASF180:
 14422 152a 5F6C765F 		.ascii	"_lv_font_t\000"
 14422      666F6E74 
 14422      5F7400
ARM GAS  C:\Users\haske\AppData\Local\Temp\ccl1At1U.s 			page 305


 14423              	.LASF332:
 14424 1535 77616974 		.ascii	"wait_cb\000"
 14424      5F636200 
 14425              	.LASF10:
 14426 153d 5F5F7569 		.ascii	"__uint32_t\000"
 14426      6E743332 
 14426      5F7400
 14427              	.LASF495:
 14428 1548 6576656E 		.ascii	"event_cb\000"
 14428      745F6362 
 14428      00
 14429              	.LASF558:
 14430 1551 6C765F65 		.ascii	"lv_event_code_t\000"
 14430      76656E74 
 14430      5F636F64 
 14430      655F7400 
 14431              	.LASF67:
 14432 1561 6C765F74 		.ascii	"lv_text_decor_t\000"
 14432      6578745F 
 14432      6465636F 
 14432      725F7400 
 14433              	.LASF501:
 14434 1571 5F6C765F 		.ascii	"_lv_event_t\000"
 14434      6576656E 
 14434      745F7400 
 14435              	.LASF12:
 14436 157d 6C6F6E67 		.ascii	"long long int\000"
 14436      206C6F6E 
 14436      6720696E 
 14436      7400
 14437              	.LASF215:
 14438 158b 73686164 		.ascii	"shadow_color\000"
 14438      6F775F63 
 14438      6F6C6F72 
 14438      00
 14439              	.LASF664:
 14440 1598 6C765F6F 		.ascii	"lv_obj_add_flag\000"
 14440      626A5F61 
 14440      64645F66 
 14440      6C616700 
 14441              	.LASF507:
 14442 15a8 64656C65 		.ascii	"deleted\000"
 14442      74656400 
 14443              	.LASF631:
 14444 15b0 696E6465 		.ascii	"indev_proc_press\000"
 14444      765F7072 
 14444      6F635F70 
 14444      72657373 
 14444      00
 14445              	.LASF242:
 14446 15c1 77696474 		.ascii	"width\000"
 14446      6800
 14447              	.LASF522:
 14448 15c7 4C565F45 		.ascii	"LV_EVENT_SCROLL\000"
 14448      56454E54 
 14448      5F534352 
 14448      4F4C4C00 
ARM GAS  C:\Users\haske\AppData\Local\Temp\ccl1At1U.s 			page 306


 14449              	.LASF655:
 14450 15d7 6C765F6F 		.ascii	"lv_obj_is_editable\000"
 14450      626A5F69 
 14450      735F6564 
 14450      69746162 
 14450      6C6500
 14451              	.LASF606:
 14452 15ea 656E6162 		.ascii	"enable\000"
 14452      6C6500
 14453              	.LASF470:
 14454 15f1 4C565F4F 		.ascii	"LV_OBJ_FLAG_GESTURE_BUBBLE\000"
 14454      424A5F46 
 14454      4C41475F 
 14454      47455354 
 14454      5552455F 
 14455              	.LASF612:
 14456 160c 6C765F69 		.ascii	"lv_indev_set_group\000"
 14456      6E646576 
 14456      5F736574 
 14456      5F67726F 
 14456      757000
 14457              	.LASF301:
 14458 161f 62756631 		.ascii	"buf1\000"
 14458      00
 14459              	.LASF302:
 14460 1624 62756632 		.ascii	"buf2\000"
 14460      00
 14461              	.LASF629:
 14462 1629 6869745F 		.ascii	"hit_test_ok\000"
 14462      74657374 
 14462      5F6F6B00 
 14463              	.LASF161:
 14464 1635 4C565F53 		.ascii	"LV_STYLE_TRANSFORM_ANGLE\000"
 14464      54594C45 
 14464      5F545241 
 14464      4E53464F 
 14464      524D5F41 
 14465              	.LASF397:
 14466 164e 6C617374 		.ascii	"last_point\000"
 14466      5F706F69 
 14466      6E7400
 14467              	.LASF566:
 14468 1659 4C565F4B 		.ascii	"LV_KEY_ENTER\000"
 14468      45595F45 
 14468      4E544552 
 14468      00
 14469              	.LASF403:
 14470 1666 6163745F 		.ascii	"act_obj\000"
 14470      6F626A00 
 14471              	.LASF254:
 14472 166e 4C565F44 		.ascii	"LV_DRAW_LAYER_FLAG_NONE\000"
 14472      5241575F 
 14472      4C415945 
 14472      525F464C 
 14472      41475F4E 
 14473              	.LASF149:
 14474 1686 4C565F53 		.ascii	"LV_STYLE_COLOR_FILTER_DSC\000"
ARM GAS  C:\Users\haske\AppData\Local\Temp\ccl1At1U.s 			page 307


 14474      54594C45 
 14474      5F434F4C 
 14474      4F525F46 
 14474      494C5445 
 14475              	.LASF64:
 14476 16a0 6C765F74 		.ascii	"lv_text_align_t\000"
 14476      6578745F 
 14476      616C6967 
 14476      6E5F7400 
 14477              	.LASF459:
 14478 16b0 4C565F4F 		.ascii	"LV_OBJ_FLAG_SCROLL_ELASTIC\000"
 14478      424A5F46 
 14478      4C41475F 
 14478      5343524F 
 14478      4C4C5F45 
 14479              	.LASF48:
 14480 16cb 756E6465 		.ascii	"underline_thickness\000"
 14480      726C696E 
 14480      655F7468 
 14480      69636B6E 
 14480      65737300 
 14481              	.LASF146:
 14482 16df 4C565F53 		.ascii	"LV_STYLE_TEXT_DECOR\000"
 14482      54594C45 
 14482      5F544558 
 14482      545F4445 
 14482      434F5200 
 14483              	.LASF520:
 14484 16f3 4C565F45 		.ascii	"LV_EVENT_SCROLL_BEGIN\000"
 14484      56454E54 
 14484      5F534352 
 14484      4F4C4C5F 
 14484      42454749 
 14485              	.LASF230:
 14486 1709 616C6967 		.ascii	"align\000"
 14486      6E00
 14487              	.LASF137:
 14488 170f 4C565F53 		.ascii	"LV_STYLE_ARC_ROUNDED\000"
 14488      54594C45 
 14488      5F415243 
 14488      5F524F55 
 14488      4E444544 
 14489              	.LASF455:
 14490 1724 4C565F4F 		.ascii	"LV_OBJ_FLAG_CLICKABLE\000"
 14490      424A5F46 
 14490      4C41475F 
 14490      434C4943 
 14490      4B41424C 
 14491              	.LASF331:
 14492 173a 6D6F6E69 		.ascii	"monitor_cb\000"
 14492      746F725F 
 14492      636200
 14493              	.LASF191:
 14494 1745 736B6970 		.ascii	"skip_trans\000"
 14494      5F747261 
 14494      6E7300
 14495              	.LASF679:
ARM GAS  C:\Users\haske\AppData\Local\Temp\ccl1At1U.s 			page 308


 14496 1750 696E6465 		.ascii	"indev_reset_check\000"
 14496      765F7265 
 14496      7365745F 
 14496      63686563 
 14496      6B00
 14497              	.LASF608:
 14498 1762 6C765F69 		.ascii	"lv_indev_reset\000"
 14498      6E646576 
 14498      5F726573 
 14498      657400
 14499              	.LASF580:
 14500 1771 6578745F 		.ascii	"ext_draw_size\000"
 14500      64726177 
 14500      5F73697A 
 14500      6500
 14501              	.LASF435:
 14502 177f 65646974 		.ascii	"editing\000"
 14502      696E6700 
 14503              	.LASF141:
 14504 1787 4C565F53 		.ascii	"LV_STYLE_TEXT_COLOR\000"
 14504      54594C45 
 14504      5F544558 
 14504      545F434F 
 14504      4C4F5200 
 14505              	.LASF544:
 14506 179b 4C565F45 		.ascii	"LV_EVENT_DELETE\000"
 14506      56454E54 
 14506      5F44454C 
 14506      45544500 
 14507              	.LASF182:
 14508 17ab 636C6173 		.ascii	"class_p\000"
 14508      735F7000 
 14509              	.LASF534:
 14510 17b3 4C565F45 		.ascii	"LV_EVENT_DRAW_POST_BEGIN\000"
 14510      56454E54 
 14510      5F445241 
 14510      575F504F 
 14510      53545F42 
 14511              	.LASF14:
 14512 17cc 756E7369 		.ascii	"unsigned int\000"
 14512      676E6564 
 14512      20696E74 
 14512      00
 14513              	.LASF396:
 14514 17d9 696E6465 		.ascii	"indev_point\000"
 14514      765F706F 
 14514      696E7400 
 14515              	.LASF363:
 14516 17e5 64697370 		.ascii	"disp\000"
 14516      00
 14517              	.LASF298:
 14518 17ea 70617573 		.ascii	"paused\000"
 14518      656400
 14519              	.LASF258:
 14520 17f1 636C6970 		.ascii	"clip_area\000"
 14520      5F617265 
 14520      6100
ARM GAS  C:\Users\haske\AppData\Local\Temp\ccl1At1U.s 			page 309


 14521              	.LASF78:
 14522 17fb 6C765F73 		.ascii	"lv_style_value_t\000"
 14522      74796C65 
 14522      5F76616C 
 14522      75655F74 
 14522      00
 14523              	.LASF400:
 14524 180c 7363726F 		.ascii	"scroll_sum\000"
 14524      6C6C5F73 
 14524      756D00
 14525              	.LASF381:
 14526 1817 656E635F 		.ascii	"enc_diff\000"
 14526      64696666 
 14526      00
 14527              	.LASF663:
 14528 1820 6C765F6F 		.ascii	"lv_obj_clear_flag\000"
 14528      626A5F63 
 14528      6C656172 
 14528      5F666C61 
 14528      6700
 14529              	.LASF224:
 14530 1832 73656C5F 		.ascii	"sel_end\000"
 14530      656E6400 
 14531              	.LASF167:
 14532 183a 5F4C565F 		.ascii	"_LV_STYLE_PROP_CONST\000"
 14532      5354594C 
 14532      455F5052 
 14532      4F505F43 
 14532      4F4E5354 
 14533              	.LASF262:
 14534 184f 61726561 		.ascii	"area_full\000"
 14534      5F66756C 
 14534      6C00
 14535              	.LASF231:
 14536 1859 666C6167 		.ascii	"flag\000"
 14536      00
 14537              	.LASF341:
 14538 185e 5F6C765F 		.ascii	"_lv_disp_t\000"
 14538      64697370 
 14538      5F7400
 14539              	.LASF539:
 14540 1869 4C565F45 		.ascii	"LV_EVENT_VALUE_CHANGED\000"
 14540      56454E54 
 14540      5F56414C 
 14540      55455F43 
 14540      48414E47 
 14541              	.LASF313:
 14542 1880 4C565F44 		.ascii	"LV_DISP_ROT_270\000"
 14542      4953505F 
 14542      524F545F 
 14542      32373000 
 14543              	.LASF261:
 14544 1890 5F6C765F 		.ascii	"_lv_draw_layer_ctx_t\000"
 14544      64726177 
 14544      5F6C6179 
 14544      65725F63 
 14544      74785F74 
ARM GAS  C:\Users\haske\AppData\Local\Temp\ccl1At1U.s 			page 310


 14545              	.LASF214:
 14546 18a5 6F75746C 		.ascii	"outline_opa\000"
 14546      696E655F 
 14546      6F706100 
 14547              	.LASF637:
 14548 18b1 696E6465 		.ascii	"indev_act\000"
 14548      765F6163 
 14548      7400
 14549              	.LASF356:
 14550 18bb 696E765F 		.ascii	"inv_areas\000"
 14550      61726561 
 14550      7300
 14551              	.LASF264:
 14552 18c5 6D61785F 		.ascii	"max_row_with_alpha\000"
 14552      726F775F 
 14552      77697468 
 14552      5F616C70 
 14552      686100
 14553              	.LASF423:
 14554 18d8 6C6F6E67 		.ascii	"longpr_rep_timestamp\000"
 14554      70725F72 
 14554      65705F74 
 14554      696D6573 
 14554      74616D70 
 14555              	.LASF465:
 14556 18ed 4C565F4F 		.ascii	"LV_OBJ_FLAG_SCROLL_ON_FOCUS\000"
 14556      424A5F46 
 14556      4C41475F 
 14556      5343524F 
 14556      4C4C5F4F 
 14557              	.LASF239:
 14558 1909 6672616D 		.ascii	"frame_id\000"
 14558      655F6964 
 14558      00
 14559              	.LASF238:
 14560 1912 7265636F 		.ascii	"recolor_opa\000"
 14560      6C6F725F 
 14560      6F706100 
 14561              	.LASF354:
 14562 191e 72656E64 		.ascii	"rendering_in_progress\000"
 14562      6572696E 
 14562      675F696E 
 14562      5F70726F 
 14562      67726573 
 14563              	.LASF89:
 14564 1934 4C565F53 		.ascii	"LV_STYLE_LAYOUT\000"
 14564      54594C45 
 14564      5F4C4159 
 14564      4F555400 
 14565              	.LASF51:
 14566 1944 6C765F66 		.ascii	"lv_font_glyph_dsc_t\000"
 14566      6F6E745F 
 14566      676C7970 
 14566      685F6473 
 14566      635F7400 
 14567              	.LASF622:
 14568 1958 6C765F69 		.ascii	"lv_indev_wait_release\000"
ARM GAS  C:\Users\haske\AppData\Local\Temp\ccl1At1U.s 			page 311


 14568      6E646576 
 14568      5F776169 
 14568      745F7265 
 14568      6C656173 
 14569              	.LASF634:
 14570 196e 696E6465 		.ascii	"indev_button_proc\000"
 14570      765F6275 
 14570      74746F6E 
 14570      5F70726F 
 14570      6300
 14571              	.LASF549:
 14572 1980 4C565F45 		.ascii	"LV_EVENT_SCREEN_LOAD_START\000"
 14572      56454E54 
 14572      5F534352 
 14572      45454E5F 
 14572      4C4F4144 
 14573              	.LASF509:
 14574 199b 73746F70 		.ascii	"stop_bubbling\000"
 14574      5F627562 
 14574      626C696E 
 14574      6700
 14575              	.LASF212:
 14576 19a9 6F75746C 		.ascii	"outline_width\000"
 14576      696E655F 
 14576      77696474 
 14576      6800
 14577              	.LASF121:
 14578 19b7 4C565F53 		.ascii	"LV_STYLE_SHADOW_WIDTH\000"
 14578      54594C45 
 14578      5F534841 
 14578      444F575F 
 14578      57494454 
 14579              	.LASF513:
 14580 19cd 4C565F45 		.ascii	"LV_EVENT_PRESSING\000"
 14580      56454E54 
 14580      5F505245 
 14580      5353494E 
 14580      4700
 14581              	.LASF472:
 14582 19df 4C565F4F 		.ascii	"LV_OBJ_FLAG_IGNORE_LAYOUT\000"
 14582      424A5F46 
 14582      4C41475F 
 14582      49474E4F 
 14582      52455F4C 
 14583              	.LASF643:
 14584 19f9 6C765F6F 		.ascii	"lv_obj_get_parent\000"
 14584      626A5F67 
 14584      65745F70 
 14584      6172656E 
 14584      7400
 14585              	.LASF98:
 14586 1a0b 4C565F53 		.ascii	"LV_STYLE_CLIP_CORNER\000"
 14586      54594C45 
 14586      5F434C49 
 14586      505F434F 
 14586      524E4552 
 14587              	.LASF611:
ARM GAS  C:\Users\haske\AppData\Local\Temp\ccl1At1U.s 			page 312


 14588 1a20 6375725F 		.ascii	"cur_obj\000"
 14588      6F626A00 
 14589              	.LASF240:
 14590 1a28 616E7469 		.ascii	"antialias\000"
 14590      616C6961 
 14590      7300
 14591              	.LASF492:
 14592 1a32 62617365 		.ascii	"base_class\000"
 14592      5F636C61 
 14592      737300
 14593              	.LASF646:
 14594 1a3d 5F6C765F 		.ascii	"_lv_indev_scroll_throw_handler\000"
 14594      696E6465 
 14594      765F7363 
 14594      726F6C6C 
 14594      5F746872 
 14595              	.LASF515:
 14596 1a5c 4C565F45 		.ascii	"LV_EVENT_SHORT_CLICKED\000"
 14596      56454E54 
 14596      5F53484F 
 14596      52545F43 
 14596      4C49434B 
 14597              	.LASF659:
 14598 1a73 6C765F69 		.ascii	"lv_indev_get_next\000"
 14598      6E646576 
 14598      5F676574 
 14598      5F6E6578 
 14598      7400
 14599              	.LASF517:
 14600 1a85 4C565F45 		.ascii	"LV_EVENT_LONG_PRESSED_REPEAT\000"
 14600      56454E54 
 14600      5F4C4F4E 
 14600      475F5052 
 14600      45535345 
 14601              	.LASF432:
 14602 1aa2 666F6375 		.ascii	"focus_cb\000"
 14602      735F6362 
 14602      00
 14603              	.LASF388:
 14604 1aab 72656164 		.ascii	"read_timer\000"
 14604      5F74696D 
 14604      657200
 14605              	.LASF445:
 14606 1ab6 4C565F53 		.ascii	"LV_STATE_PRESSED\000"
 14606      54415445 
 14606      5F505245 
 14606      53534544 
 14606      00
 14607              	.LASF54:
 14608 1ac7 6C765F72 		.ascii	"lv_res_t\000"
 14608      65735F74 
 14608      00
 14609              	.LASF368:
 14610 1ad0 666F6E74 		.ascii	"font_large\000"
 14610      5F6C6172 
 14610      676500
 14611              	.LASF150:
ARM GAS  C:\Users\haske\AppData\Local\Temp\ccl1At1U.s 			page 313


 14612 1adb 4C565F53 		.ascii	"LV_STYLE_COLOR_FILTER_OPA\000"
 14612      54594C45 
 14612      5F434F4C 
 14612      4F525F46 
 14612      494C5445 
 14613              	.LASF628:
 14614 1af5 705F7472 		.ascii	"p_trans\000"
 14614      616E7300 
 14615              	.LASF303:
 14616 1afd 6275665F 		.ascii	"buf_act\000"
 14616      61637400 
 14617              	.LASF596:
 14618 1b05 675F7072 		.ascii	"g_prev\000"
 14618      657600
 14619              	.LASF22:
 14620 1b0c 6C6F6E67 		.ascii	"long double\000"
 14620      20646F75 
 14620      626C6500 
 14621              	.LASF486:
 14622 1b18 7374796C 		.ascii	"style\000"
 14622      6500
 14623              	.LASF70:
 14624 1b1e 6C765F64 		.ascii	"lv_dither_mode_t\000"
 14624      69746865 
 14624      725F6D6F 
 14624      64655F74 
 14624      00
 14625              	.LASF485:
 14626 1b2f 6C765F73 		.ascii	"lv_scroll_snap_t\000"
 14626      63726F6C 
 14626      6C5F736E 
 14626      61705F74 
 14626      00
 14627              	.LASF412:
 14628 1b40 6C617374 		.ascii	"last_state\000"
 14628      5F737461 
 14628      746500
 14629              	.LASF371:
 14630 1b4b 4C565F49 		.ascii	"LV_INDEV_TYPE_POINTER\000"
 14630      4E444556 
 14630      5F545950 
 14630      455F504F 
 14630      494E5445 
 14631              	.LASF422:
 14632 1b61 70725F74 		.ascii	"pr_timestamp\000"
 14632      696D6573 
 14632      74616D70 
 14632      00
 14633              	.LASF504:
 14634 1b6e 636F6465 		.ascii	"code\000"
 14634      00
 14635              	.LASF46:
 14636 1b73 73756270 		.ascii	"subpx\000"
 14636      7800
 14637              	.LASF639:
 14638 1b79 6C765F6F 		.ascii	"lv_obj_has_flag\000"
 14638      626A5F68 
ARM GAS  C:\Users\haske\AppData\Local\Temp\ccl1At1U.s 			page 314


 14638      61735F66 
 14638      6C616700 
 14639              	.LASF279:
 14640 1b89 77616974 		.ascii	"wait_for_finish\000"
 14640      5F666F72 
 14640      5F66696E 
 14640      69736800 
 14641              	.LASF28:
 14642 1b99 4C565F44 		.ascii	"LV_DIR_RIGHT\000"
 14642      49525F52 
 14642      49474854 
 14642      00
 14643              	.LASF204:
 14644 1ba6 62675F69 		.ascii	"bg_img_recolor_opa\000"
 14644      6D675F72 
 14644      65636F6C 
 14644      6F725F6F 
 14644      706100
 14645              	.LASF570:
 14646 1bb9 4C565F4B 		.ascii	"LV_KEY_END\000"
 14646      45595F45 
 14646      4E4400
 14647              	.LASF256:
 14648 1bc4 4C565F44 		.ascii	"LV_DRAW_LAYER_FLAG_CAN_SUBDIVIDE\000"
 14648      5241575F 
 14648      4C415945 
 14648      525F464C 
 14648      41475F43 
 14649              	.LASF387:
 14650 1be5 66656564 		.ascii	"feedback_cb\000"
 14650      6261636B 
 14650      5F636200 
 14651              	.LASF296:
 14652 1bf1 74696D65 		.ascii	"timer_cb\000"
 14652      725F6362 
 14652      00
 14653              	.LASF390:
 14654 1bfa 7363726F 		.ascii	"scroll_throw\000"
 14654      6C6C5F74 
 14654      68726F77 
 14654      00
 14655              	.LASF512:
 14656 1c07 4C565F45 		.ascii	"LV_EVENT_PRESSED\000"
 14656      56454E54 
 14656      5F505245 
 14656      53534544 
 14656      00
 14657              	.LASF543:
 14658 1c18 4C565F45 		.ascii	"LV_EVENT_CANCEL\000"
 14658      56454E54 
 14658      5F43414E 
 14658      43454C00 
 14659              	.LASF112:
 14660 1c28 4C565F53 		.ascii	"LV_STYLE_BORDER_COLOR\000"
 14660      54594C45 
 14660      5F424F52 
 14660      4445525F 
ARM GAS  C:\Users\haske\AppData\Local\Temp\ccl1At1U.s 			page 315


 14660      434F4C4F 
 14661              	.LASF335:
 14662 1c3e 72656E64 		.ascii	"render_start_cb\000"
 14662      65725F73 
 14662      74617274 
 14662      5F636200 
 14663              	.LASF334:
 14664 1c4e 6472765F 		.ascii	"drv_update_cb\000"
 14664      75706461 
 14664      74655F63 
 14664      6200
 14665              	.LASF670:
 14666 1c5c 6C765F64 		.ascii	"lv_disp_get_scr_act\000"
 14666      6973705F 
 14666      6765745F 
 14666      7363725F 
 14666      61637400 
 14667              	.LASF621:
 14668 1c70 6C765F69 		.ascii	"lv_indev_get_vect\000"
 14668      6E646576 
 14668      5F676574 
 14668      5F766563 
 14668      7400
 14669              	.LASF401:
 14670 1c82 7363726F 		.ascii	"scroll_throw_vect\000"
 14670      6C6C5F74 
 14670      68726F77 
 14670      5F766563 
 14670      7400
 14671              	.LASF0:
 14672 1c94 5F5F696E 		.ascii	"__int8_t\000"
 14672      74385F74 
 14672      00
 14673              	.LASF416:
 14674 1c9d 5F6C765F 		.ascii	"_lv_indev_proc_t\000"
 14674      696E6465 
 14674      765F7072 
 14674      6F635F74 
 14674      00
 14675              	.LASF105:
 14676 1cae 4C565F53 		.ascii	"LV_STYLE_BG_GRAD\000"
 14676      54594C45 
 14676      5F42475F 
 14676      47524144 
 14676      00
 14677              	.LASF317:
 14678 1cbf 70687973 		.ascii	"physical_hor_res\000"
 14678      6963616C 
 14678      5F686F72 
 14678      5F726573 
 14678      00
 14679              	.LASF304:
 14680 1cd0 73697A65 		.ascii	"size\000"
 14680      00
 14681              	.LASF265:
 14682 1cd5 6D61785F 		.ascii	"max_row_with_no_alpha\000"
 14682      726F775F 
ARM GAS  C:\Users\haske\AppData\Local\Temp\ccl1At1U.s 			page 316


 14682      77697468 
 14682      5F6E6F5F 
 14682      616C7068 
 14683              	.LASF393:
 14684 1ceb 6C6F6E67 		.ascii	"long_press_time\000"
 14684      5F707265 
 14684      73735F74 
 14684      696D6500 
 14685              	.LASF13:
 14686 1cfb 6C6F6E67 		.ascii	"long long unsigned int\000"
 14686      206C6F6E 
 14686      6720756E 
 14686      7369676E 
 14686      65642069 
 14687              	.LASF350:
 14688 1d12 7379735F 		.ascii	"sys_layer\000"
 14688      6C617965 
 14688      7200
 14689              	.LASF104:
 14690 1d1c 4C565F53 		.ascii	"LV_STYLE_BG_GRAD_STOP\000"
 14690      54594C45 
 14690      5F42475F 
 14690      47524144 
 14690      5F53544F 
 14691              	.LASF115:
 14692 1d32 4C565F53 		.ascii	"LV_STYLE_BORDER_SIDE\000"
 14692      54594C45 
 14692      5F424F52 
 14692      4445525F 
 14692      53494445 
 14693              	.LASF571:
 14694 1d47 6C765F67 		.ascii	"lv_group_focus_cb_t\000"
 14694      726F7570 
 14694      5F666F63 
 14694      75735F63 
 14694      625F7400 
 14695              	.LASF491:
 14696 1d5b 5F6C765F 		.ascii	"_lv_obj_class_t\000"
 14696      6F626A5F 
 14696      636C6173 
 14696      735F7400 
 14697              	.LASF221:
 14698 1d6b 6C765F64 		.ascii	"lv_draw_rect_dsc_t\000"
 14698      7261775F 
 14698      72656374 
 14698      5F647363 
 14698      5F7400
 14699              	.LASF456:
 14700 1d7e 4C565F4F 		.ascii	"LV_OBJ_FLAG_CLICK_FOCUSABLE\000"
 14700      424A5F46 
 14700      4C41475F 
 14700      434C4943 
 14700      4B5F464F 
 14701              	.LASF18:
 14702 1d9a 75696E74 		.ascii	"uint16_t\000"
 14702      31365F74 
 14702      00
ARM GAS  C:\Users\haske\AppData\Local\Temp\ccl1At1U.s 			page 317


 14703              	.LASF644:
 14704 1da3 6C765F6F 		.ascii	"lv_obj_get_style_prop\000"
 14704      626A5F67 
 14704      65745F73 
 14704      74796C65 
 14704      5F70726F 
 14705              	.LASF295:
 14706 1db9 6C617374 		.ascii	"last_run\000"
 14706      5F72756E 
 14706      00
 14707              	.LASF437:
 14708 1dc2 77726170 		.ascii	"wrap\000"
 14708      00
 14709              	.LASF61:
 14710 1dc7 6C765F63 		.ascii	"lv_color_t\000"
 14710      6F6C6F72 
 14710      5F7400
 14711              	.LASF597:
 14712 1dd2 696E6465 		.ascii	"indev_gesture\000"
 14712      765F6765 
 14712      73747572 
 14712      6500
 14713              	.LASF274:
 14714 1de0 64726177 		.ascii	"draw_letter\000"
 14714      5F6C6574 
 14714      74657200 
 14715              	.LASF599:
 14716 1dec 696E6465 		.ascii	"indev_proc_release\000"
 14716      765F7072 
 14716      6F635F72 
 14716      656C6561 
 14716      736500
 14717              	.LASF418:
 14718 1dff 72657365 		.ascii	"reset_query\000"
 14718      745F7175 
 14718      65727900 
 14719              	.LASF667:
 14720 1e0b 6C765F6F 		.ascii	"lv_obj_hit_test\000"
 14720      626A5F68 
 14720      69745F74 
 14720      65737400 
 14721              	.LASF80:
 14722 1e1b 4C565F53 		.ascii	"LV_STYLE_WIDTH\000"
 14722      54594C45 
 14722      5F574944 
 14722      544800
 14723              	.LASF207:
 14724 1e2a 626F7264 		.ascii	"border_width\000"
 14724      65725F77 
 14724      69647468 
 14724      00
 14725              	.LASF81:
 14726 1e37 4C565F53 		.ascii	"LV_STYLE_MIN_WIDTH\000"
 14726      54594C45 
 14726      5F4D494E 
 14726      5F574944 
 14726      544800
ARM GAS  C:\Users\haske\AppData\Local\Temp\ccl1At1U.s 			page 318


 14727              	.LASF669:
 14728 1e4a 6C765F64 		.ascii	"lv_disp_get_layer_top\000"
 14728      6973705F 
 14728      6765745F 
 14728      6C617965 
 14728      725F746F 
 14729              	.LASF63:
 14730 1e60 6C765F74 		.ascii	"lv_text_flag_t\000"
 14730      6578745F 
 14730      666C6167 
 14730      5F7400
 14731              	.LASF402:
 14732 1e6f 7363726F 		.ascii	"scroll_throw_vect_ori\000"
 14732      6C6C5F74 
 14732      68726F77 
 14732      5F766563 
 14732      745F6F72 
 14733              	.LASF122:
 14734 1e85 4C565F53 		.ascii	"LV_STYLE_SHADOW_OFS_X\000"
 14734      54594C45 
 14734      5F534841 
 14734      444F575F 
 14734      4F46535F 
 14735              	.LASF123:
 14736 1e9b 4C565F53 		.ascii	"LV_STYLE_SHADOW_OFS_Y\000"
 14736      54594C45 
 14736      5F534841 
 14736      444F575F 
 14736      4F46535F 
 14737              	.LASF372:
 14738 1eb1 4C565F49 		.ascii	"LV_INDEV_TYPE_KEYPAD\000"
 14738      4E444556 
 14738      5F545950 
 14738      455F4B45 
 14738      59504144 
 14739              	.LASF107:
 14740 1ec6 4C565F53 		.ascii	"LV_STYLE_BG_IMG_SRC\000"
 14740      54594C45 
 14740      5F42475F 
 14740      494D475F 
 14740      53524300 
 14741              	.LASF560:
 14742 1eda 4C565F4B 		.ascii	"LV_KEY_DOWN\000"
 14742      45595F44 
 14742      4F574E00 
 14743              	.LASF563:
 14744 1ee6 4C565F4B 		.ascii	"LV_KEY_ESC\000"
 14744      45595F45 
 14744      534300
 14745              	.LASF236:
 14746 1ef1 7069766F 		.ascii	"pivot\000"
 14746      7400
 14747              	.LASF140:
 14748 1ef7 4C565F53 		.ascii	"LV_STYLE_ARC_IMG_SRC\000"
 14748      54594C45 
 14748      5F415243 
 14748      5F494D47 
ARM GAS  C:\Users\haske\AppData\Local\Temp\ccl1At1U.s 			page 319


 14748      5F535243 
 14749              	.LASF172:
 14750 1f0c 76616C75 		.ascii	"value1\000"
 14750      653100
 14751              	.LASF603:
 14752 1f13 70726576 		.ascii	"prev_state\000"
 14752      5F737461 
 14752      746500
 14753              	.LASF321:
 14754 1f1e 64726177 		.ascii	"draw_buf\000"
 14754      5F627566 
 14754      00
 14755              	.LASF294:
 14756 1f27 70657269 		.ascii	"period\000"
 14756      6F6400
 14757              	.LASF328:
 14758 1f2e 726F756E 		.ascii	"rounder_cb\000"
 14758      6465725F 
 14758      636200
 14759              	.LASF232:
 14760 1f39 6465636F 		.ascii	"decor\000"
 14760      7200
 14761              	.LASF4:
 14762 1f3f 5F5F696E 		.ascii	"__int16_t\000"
 14762      7431365F 
 14762      7400
 14763              	.LASF282:
 14764 1f49 6C617965 		.ascii	"layer_adjust\000"
 14764      725F6164 
 14764      6A757374 
 14764      00
 14765              	.LASF143:
 14766 1f56 4C565F53 		.ascii	"LV_STYLE_TEXT_FONT\000"
 14766      54594C45 
 14766      5F544558 
 14766      545F464F 
 14766      4E5400
 14767              	.LASF665:
 14768 1f69 6C765F6F 		.ascii	"lv_obj_get_child_cnt\000"
 14768      626A5F67 
 14768      65745F63 
 14768      68696C64 
 14768      5F636E74 
 14769              	.LASF551:
 14770 1f7e 4C565F45 		.ascii	"LV_EVENT_SCREEN_UNLOADED\000"
 14770      56454E54 
 14770      5F534352 
 14770      45454E5F 
 14770      554E4C4F 
 14771              	.LASF598:
 14772 1f97 67657374 		.ascii	"gesture_obj\000"
 14772      7572655F 
 14772      6F626A00 
 14773              	.LASF166:
 14774 1fa3 4C565F53 		.ascii	"LV_STYLE_PROP_ANY\000"
 14774      54594C45 
 14774      5F50524F 
ARM GAS  C:\Users\haske\AppData\Local\Temp\ccl1At1U.s 			page 320


 14774      505F414E 
 14774      5900
 14775              	.LASF59:
 14776 1fb5 66756C6C 		.ascii	"full\000"
 14776      00
 14777              	.LASF267:
 14778 1fba 6C765F64 		.ascii	"lv_draw_layer_ctx_t\000"
 14778      7261775F 
 14778      6C617965 
 14778      725F6374 
 14778      785F7400 
 14779              	.LASF71:
 14780 1fce 636F6C6F 		.ascii	"color\000"
 14780      7200
 14781              	.LASF641:
 14782 1fd4 6C765F67 		.ascii	"lv_group_focus_obj\000"
 14782      726F7570 
 14782      5F666F63 
 14782      75735F6F 
 14782      626A00
 14783              	.LASF74:
 14784 1fe7 73746F70 		.ascii	"stops\000"
 14784      7300
 14785              	.LASF413:
 14786 1fed 6C617374 		.ascii	"last_key\000"
 14786      5F6B6579 
 14786      00
 14787              	.LASF227:
 14788 1ff6 6C696E65 		.ascii	"line_space\000"
 14788      5F737061 
 14788      636500
 14789              	.LASF424:
 14790 2001 5F6C765F 		.ascii	"_lv_indev_t\000"
 14790      696E6465 
 14790      765F7400 
 14791              	.LASF410:
 14792 200d 67657374 		.ascii	"gesture_dir\000"
 14792      7572655F 
 14792      64697200 
 14793              	.LASF283:
 14794 2019 6C617965 		.ascii	"layer_blend\000"
 14794      725F626C 
 14794      656E6400 
 14795              	.LASF411:
 14796 2025 67657374 		.ascii	"gesture_sent\000"
 14796      7572655F 
 14796      73656E74 
 14796      00
 14797              	.LASF602:
 14798 2032 70726576 		.ascii	"prev_key\000"
 14798      5F6B6579 
 14798      00
 14799              	.LASF494:
 14800 203b 64657374 		.ascii	"destructor_cb\000"
 14800      72756374 
 14800      6F725F63 
 14800      6200
ARM GAS  C:\Users\haske\AppData\Local\Temp\ccl1At1U.s 			page 321


 14801              	.LASF68:
 14802 2049 6C765F62 		.ascii	"lv_border_side_t\000"
 14802      6F726465 
 14802      725F7369 
 14802      64655F74 
 14802      00
 14803              	.LASF72:
 14804 205a 66726163 		.ascii	"frac\000"
 14804      00
 14805              	.LASF181:
 14806 205f 5F6C765F 		.ascii	"_lv_obj_t\000"
 14806      6F626A5F 
 14806      7400
 14807              	.LASF222:
 14808 2069 666F6E74 		.ascii	"font\000"
 14808      00
 14809              	.LASF228:
 14810 206e 6C657474 		.ascii	"letter_space\000"
 14810      65725F73 
 14810      70616365 
 14810      00
 14811              	.LASF389:
 14812 207b 7363726F 		.ascii	"scroll_limit\000"
 14812      6C6C5F6C 
 14812      696D6974 
 14812      00
 14813              	.LASF85:
 14814 2088 4C565F53 		.ascii	"LV_STYLE_MAX_HEIGHT\000"
 14814      54594C45 
 14814      5F4D4158 
 14814      5F484549 
 14814      47485400 
 14815              	.LASF342:
 14816 209c 64726976 		.ascii	"driver\000"
 14816      657200
 14817              	.LASF361:
 14818 20a3 5F6C765F 		.ascii	"_lv_theme_t\000"
 14818      7468656D 
 14818      655F7400 
 14819              	.LASF253:
 14820 20af 6C765F64 		.ascii	"lv_draw_arc_dsc_t\000"
 14820      7261775F 
 14820      6172635F 
 14820      6473635F 
 14820      7400
 14821              	.LASF567:
 14822 20c1 4C565F4B 		.ascii	"LV_KEY_NEXT\000"
 14822      45595F4E 
 14822      45585400 
 14823              	.LASF101:
 14824 20cd 4C565F53 		.ascii	"LV_STYLE_BG_GRAD_COLOR\000"
 14824      54594C45 
 14824      5F42475F 
 14824      47524144 
 14824      5F434F4C 
 14825              	.LASF347:
 14826 20e4 70726576 		.ascii	"prev_scr\000"
ARM GAS  C:\Users\haske\AppData\Local\Temp\ccl1At1U.s 			page 322


 14826      5F736372 
 14826      00
 14827              	.LASF38:
 14828 20ed 626F785F 		.ascii	"box_h\000"
 14828      6800
 14829              	.LASF439:
 14830 20f3 4C565F53 		.ascii	"LV_STATE_DEFAULT\000"
 14830      54415445 
 14830      5F444546 
 14830      41554C54 
 14830      00
 14831              	.LASF653:
 14832 2104 6C765F67 		.ascii	"lv_group_send_data\000"
 14832      726F7570 
 14832      5F73656E 
 14832      645F6461 
 14832      746100
 14833              	.LASF568:
 14834 2117 4C565F4B 		.ascii	"LV_KEY_PREV\000"
 14834      45595F50 
 14834      52455600 
 14835              	.LASF202:
 14836 2123 62675F69 		.ascii	"bg_img_recolor\000"
 14836      6D675F72 
 14836      65636F6C 
 14836      6F7200
 14837              	.LASF60:
 14838 2132 6C765F63 		.ascii	"lv_color16_t\000"
 14838      6F6C6F72 
 14838      31365F74 
 14838      00
 14839              	.LASF37:
 14840 213f 626F785F 		.ascii	"box_w\000"
 14840      7700
 14841              	.LASF5:
 14842 2145 73686F72 		.ascii	"short int\000"
 14842      7420696E 
 14842      7400
 14843              	.LASF45:
 14844 214f 62617365 		.ascii	"base_line\000"
 14844      5F6C696E 
 14844      6500
 14845              	.LASF358:
 14846 2159 696E765F 		.ascii	"inv_p\000"
 14846      7000
 14847              	.LASF291:
 14848 215f 6C765F6C 		.ascii	"lv_ll_t\000"
 14848      6C5F7400 
 14849              	.LASF680:
 14850 2167 6C765F66 		.ascii	"lv_font_montserrat_14\000"
 14850      6F6E745F 
 14850      6D6F6E74 
 14850      73657272 
 14850      61745F31 
 14851              	.LASF395:
 14852 217d 6163745F 		.ascii	"act_point\000"
 14852      706F696E 
ARM GAS  C:\Users\haske\AppData\Local\Temp\ccl1At1U.s 			page 323


 14852      7400
 14853              	.LASF468:
 14854 2187 4C565F4F 		.ascii	"LV_OBJ_FLAG_PRESS_LOCK\000"
 14854      424A5F46 
 14854      4C41475F 
 14854      50524553 
 14854      535F4C4F 
 14855              	.LASF536:
 14856 219e 4C565F45 		.ascii	"LV_EVENT_DRAW_POST_END\000"
 14856      56454E54 
 14856      5F445241 
 14856      575F504F 
 14856      53545F45 
 14857              	.LASF537:
 14858 21b5 4C565F45 		.ascii	"LV_EVENT_DRAW_PART_BEGIN\000"
 14858      56454E54 
 14858      5F445241 
 14858      575F5041 
 14858      52545F42 
 14859              	.LASF415:
 14860 21ce 6B657970 		.ascii	"keypad\000"
 14860      616400
 14861              	.LASF220:
 14862 21d5 73686164 		.ascii	"shadow_opa\000"
 14862      6F775F6F 
 14862      706100
 14863              	.LASF138:
 14864 21e0 4C565F53 		.ascii	"LV_STYLE_ARC_COLOR\000"
 14864      54594C45 
 14864      5F415243 
 14864      5F434F4C 
 14864      4F5200
 14865              	.LASF503:
 14866 21f3 63757272 		.ascii	"current_target\000"
 14866      656E745F 
 14866      74617267 
 14866      657400
 14867              	.LASF17:
 14868 2202 696E7431 		.ascii	"int16_t\000"
 14868      365F7400 
 14869              	.LASF31:
 14870 220a 4C565F44 		.ascii	"LV_DIR_HOR\000"
 14870      49525F48 
 14870      4F5200
 14871              	.LASF260:
 14872 2215 73637265 		.ascii	"screen_transp\000"
 14872      656E5F74 
 14872      72616E73 
 14872      7000
 14873              	.LASF186:
 14874 2223 636F6F72 		.ascii	"coords\000"
 14874      647300
 14875              	.LASF579:
 14876 222a 6578745F 		.ascii	"ext_click_pad\000"
 14876      636C6963 
 14876      6B5F7061 
 14876      6400
ARM GAS  C:\Users\haske\AppData\Local\Temp\ccl1At1U.s 			page 324


 14877              	.LASF440:
 14878 2238 4C565F53 		.ascii	"LV_STATE_CHECKED\000"
 14878      54415445 
 14878      5F434845 
 14878      434B4544 
 14878      00
 14879              	.LASF165:
 14880 2249 5F4C565F 		.ascii	"_LV_STYLE_NUM_BUILT_IN_PROPS\000"
 14880      5354594C 
 14880      455F4E55 
 14880      4D5F4255 
 14880      494C545F 
 14881              	.LASF657:
 14882 2266 6C765F67 		.ascii	"lv_group_get_obj_count\000"
 14882      726F7570 
 14882      5F676574 
 14882      5F6F626A 
 14882      5F636F75 
 14883              	.LASF91:
 14884 227d 4C565F53 		.ascii	"LV_STYLE_PAD_TOP\000"
 14884      54594C45 
 14884      5F504144 
 14884      5F544F50 
 14884      00
 14885              	.LASF353:
 14886 228e 64656C5F 		.ascii	"del_prev\000"
 14886      70726576 
 14886      00
 14887              	.LASF556:
 14888 2297 5F4C565F 		.ascii	"_LV_EVENT_LAST\000"
 14888      4556454E 
 14888      545F4C41 
 14888      535400
 14889              	.LASF355:
 14890 22a6 62675F69 		.ascii	"bg_img\000"
 14890      6D6700
 14891              	.LASF108:
 14892 22ad 4C565F53 		.ascii	"LV_STYLE_BG_IMG_OPA\000"
 14892      54594C45 
 14892      5F42475F 
 14892      494D475F 
 14892      4F504100 
 14893              	.LASF130:
 14894 22c1 4C565F53 		.ascii	"LV_STYLE_LINE_WIDTH\000"
 14894      54594C45 
 14894      5F4C494E 
 14894      455F5749 
 14894      44544800 
 14895              	.LASF526:
 14896 22d5 4C565F45 		.ascii	"LV_EVENT_DEFOCUSED\000"
 14896      56454E54 
 14896      5F444546 
 14896      4F435553 
 14896      454400
 14897              	.LASF677:
 14898 22e8 433A5C50 		.ascii	"C:\\Projects\\PainDrain\\firmware\\PainDrain\\PainD"
 14898      726F6A65 
ARM GAS  C:\Users\haske\AppData\Local\Temp\ccl1At1U.s 			page 325


 14898      6374735C 
 14898      5061696E 
 14898      44726169 
 14899 2316 7261696E 		.ascii	"rain.cydsn\000"
 14899      2E637964 
 14899      736E00
 14900              	.LASF30:
 14901 2321 4C565F44 		.ascii	"LV_DIR_BOTTOM\000"
 14901      49525F42 
 14901      4F54544F 
 14901      4D00
 14902              	.LASF175:
 14903 232f 70726F70 		.ascii	"prop1\000"
 14903      3100
 14904              	.LASF329:
 14905 2335 7365745F 		.ascii	"set_px_cb\000"
 14905      70785F63 
 14905      6200
 14906              	.LASF394:
 14907 233f 6C6F6E67 		.ascii	"long_press_repeat_time\000"
 14907      5F707265 
 14907      73735F72 
 14907      65706561 
 14907      745F7469 
 14908              	.LASF521:
 14909 2356 4C565F45 		.ascii	"LV_EVENT_SCROLL_END\000"
 14909      56454E54 
 14909      5F534352 
 14909      4F4C4C5F 
 14909      454E4400 
 14910              	.LASF208:
 14911 236a 626F7264 		.ascii	"border_opa\000"
 14911      65725F6F 
 14911      706100
 14912              	.LASF84:
 14913 2375 4C565F53 		.ascii	"LV_STYLE_MIN_HEIGHT\000"
 14913      54594C45 
 14913      5F4D494E 
 14913      5F484549 
 14913      47485400 
 14914              	.LASF681:
 14915 2389 6D656D63 		.ascii	"memcpy\000"
 14915      707900
 14916              	.LASF448:
 14917 2390 4C565F53 		.ascii	"LV_STATE_USER_1\000"
 14917      54415445 
 14917      5F555345 
 14917      525F3100 
 14918              	.LASF449:
 14919 23a0 4C565F53 		.ascii	"LV_STATE_USER_2\000"
 14919      54415445 
 14919      5F555345 
 14919      525F3200 
 14920              	.LASF450:
 14921 23b0 4C565F53 		.ascii	"LV_STATE_USER_3\000"
 14921      54415445 
 14921      5F555345 
ARM GAS  C:\Users\haske\AppData\Local\Temp\ccl1At1U.s 			page 326


 14921      525F3300 
 14922              	.LASF451:
 14923 23c0 4C565F53 		.ascii	"LV_STATE_USER_4\000"
 14923      54415445 
 14923      5F555345 
 14923      525F3400 
 14924              	.LASF199:
 14925 23d0 62675F67 		.ascii	"bg_grad\000"
 14925      72616400 
 14926              	.LASF383:
 14927 23d8 6C765F69 		.ascii	"lv_indev_data_t\000"
 14927      6E646576 
 14927      5F646174 
 14927      615F7400 
 14928              	.LASF116:
 14929 23e8 4C565F53 		.ascii	"LV_STYLE_BORDER_POST\000"
 14929      54594C45 
 14929      5F424F52 
 14929      4445525F 
 14929      504F5354 
 14930              	.LASF337:
 14931 23fd 64726177 		.ascii	"draw_ctx\000"
 14931      5F637478 
 14931      00
 14932              	.LASF635:
 14933 2406 6C765F69 		.ascii	"lv_indev_read_timer_cb\000"
 14933      6E646576 
 14933      5F726561 
 14933      645F7469 
 14933      6D65725F 
 14934              	.LASF273:
 14935 241d 64726177 		.ascii	"draw_img\000"
 14935      5F696D67 
 14935      00
 14936              	.LASF73:
 14937 2426 6C765F67 		.ascii	"lv_gradient_stop_t\000"
 14937      72616469 
 14937      656E745F 
 14937      73746F70 
 14937      5F7400
 14938              	.LASF87:
 14939 2439 4C565F53 		.ascii	"LV_STYLE_Y\000"
 14939      54594C45 
 14939      5F5900
 14940              	.LASF133:
 14941 2444 4C565F53 		.ascii	"LV_STYLE_LINE_ROUNDED\000"
 14941      54594C45 
 14941      5F4C494E 
 14941      455F524F 
 14941      554E4445 
 14942              	.LASF276:
 14943 245a 64726177 		.ascii	"draw_polygon\000"
 14943      5F706F6C 
 14943      79676F6E 
 14943      00
 14944              	.LASF553:
 14945 2467 4C565F45 		.ascii	"LV_EVENT_STYLE_CHANGED\000"
ARM GAS  C:\Users\haske\AppData\Local\Temp\ccl1At1U.s 			page 327


 14945      56454E54 
 14945      5F535459 
 14945      4C455F43 
 14945      48414E47 
 14946              	.LASF674:
 14947 247e 5F6C765F 		.ascii	"_lv_indev_read\000"
 14947      696E6465 
 14947      765F7265 
 14947      616400
 14948              	.LASF542:
 14949 248d 4C565F45 		.ascii	"LV_EVENT_READY\000"
 14949      56454E54 
 14949      5F524541 
 14949      445900
 14950              	.LASF617:
 14951 249c 6C765F69 		.ascii	"lv_indev_get_gesture_dir\000"
 14951      6E646576 
 14951      5F676574 
 14951      5F676573 
 14951      74757265 
 14952              	.LASF223:
 14953 24b5 73656C5F 		.ascii	"sel_start\000"
 14953      73746172 
 14953      7400
 14954              	.LASF535:
 14955 24bf 4C565F45 		.ascii	"LV_EVENT_DRAW_POST\000"
 14955      56454E54 
 14955      5F445241 
 14955      575F504F 
 14955      535400
 14956              	.LASF20:
 14957 24d2 75696E74 		.ascii	"uint32_t\000"
 14957      33325F74 
 14957      00
 14958              	.LASF462:
 14959 24db 4C565F4F 		.ascii	"LV_OBJ_FLAG_SCROLL_CHAIN_HOR\000"
 14959      424A5F46 
 14959      4C41475F 
 14959      5343524F 
 14959      4C4C5F43 
 14960              	.LASF362:
 14961 24f8 6170706C 		.ascii	"apply_cb\000"
 14961      795F6362 
 14961      00
 14962              	.LASF632:
 14963 2501 6E65775F 		.ascii	"new_obj_searched\000"
 14963      6F626A5F 
 14963      73656172 
 14963      63686564 
 14963      00
 14964              	.LASF483:
 14965 2512 6C765F6F 		.ascii	"lv_obj_flag_t\000"
 14965      626A5F66 
 14965      6C61675F 
 14965      7400
 14966              	.LASF552:
 14967 2520 4C565F45 		.ascii	"LV_EVENT_SIZE_CHANGED\000"
ARM GAS  C:\Users\haske\AppData\Local\Temp\ccl1At1U.s 			page 328


 14967      56454E54 
 14967      5F53495A 
 14967      455F4348 
 14967      414E4745 
 14968              	.LASF216:
 14969 2536 73686164 		.ascii	"shadow_width\000"
 14969      6F775F77 
 14969      69647468 
 14969      00
 14970              	.LASF419:
 14971 2543 64697361 		.ascii	"disabled\000"
 14971      626C6564 
 14971      00
 14972              	.LASF58:
 14973 254c 67726565 		.ascii	"green\000"
 14973      6E00
 14974              	.LASF53:
 14975 2552 6C765F66 		.ascii	"lv_font_t\000"
 14975      6F6E745F 
 14975      7400
 14976              	.LASF554:
 14977 255c 4C565F45 		.ascii	"LV_EVENT_LAYOUT_CHANGED\000"
 14977      56454E54 
 14977      5F4C4159 
 14977      4F55545F 
 14977      4348414E 
 14978              	.LASF481:
 14979 2574 4C565F4F 		.ascii	"LV_OBJ_FLAG_USER_3\000"
 14979      424A5F46 
 14979      4C41475F 
 14979      55534552 
 14979      5F3300
 14980              	.LASF391:
 14981 2587 67657374 		.ascii	"gesture_min_velocity\000"
 14981      7572655F 
 14981      6D696E5F 
 14981      76656C6F 
 14981      63697479 
 14982              	.LASF76:
 14983 259c 64697468 		.ascii	"dither\000"
 14983      657200
 14984              	.LASF7:
 14985 25a3 73686F72 		.ascii	"short unsigned int\000"
 14985      7420756E 
 14985      7369676E 
 14985      65642069 
 14985      6E7400
 14986              	.LASF524:
 14987 25b6 4C565F45 		.ascii	"LV_EVENT_KEY\000"
 14987      56454E54 
 14987      5F4B4559 
 14987      00
 14988              	.LASF23:
 14989 25c3 6C765F63 		.ascii	"lv_coord_t\000"
 14989      6F6F7264 
 14989      5F7400
 14990              	.LASF370:
ARM GAS  C:\Users\haske\AppData\Local\Temp\ccl1At1U.s 			page 329


 14991 25ce 4C565F49 		.ascii	"LV_INDEV_TYPE_NONE\000"
 14991      4E444556 
 14991      5F545950 
 14991      455F4E4F 
 14991      4E4500
 14992              	.LASF594:
 14993 25e1 696E6465 		.ascii	"indev_click_focus\000"
 14993      765F636C 
 14993      69636B5F 
 14993      666F6375 
 14993      7300
 14994              	.LASF327:
 14995 25f3 666C7573 		.ascii	"flush_cb\000"
 14995      685F6362 
 14995      00
 14996              	.LASF118:
 14997 25fc 4C565F53 		.ascii	"LV_STYLE_OUTLINE_COLOR\000"
 14997      54594C45 
 14997      5F4F5554 
 14997      4C494E45 
 14997      5F434F4C 
 14998              	.LASF50:
 14999 2613 75736572 		.ascii	"user_data\000"
 14999      5F646174 
 14999      6100
 15000              	.LASF514:
 15001 261d 4C565F45 		.ascii	"LV_EVENT_PRESS_LOST\000"
 15001      56454E54 
 15001      5F505245 
 15001      53535F4C 
 15001      4F535400 
 15002              	.LASF678:
 15003 2631 5F6C765F 		.ascii	"_lv_event_dsc_t\000"
 15003      6576656E 
 15003      745F6473 
 15003      635F7400 
 15004              	.LASF124:
 15005 2641 4C565F53 		.ascii	"LV_STYLE_SHADOW_SPREAD\000"
 15005      54594C45 
 15005      5F534841 
 15005      444F575F 
 15005      53505245 
 15006              	.LASF367:
 15007 2658 666F6E74 		.ascii	"font_normal\000"
 15007      5F6E6F72 
 15007      6D616C00 
 15008              	.LASF607:
 15009 2664 6C765F69 		.ascii	"lv_indev_enable\000"
 15009      6E646576 
 15009      5F656E61 
 15009      626C6500 
 15010              	.LASF625:
 15011 2674 6C765F69 		.ascii	"lv_indev_get_read_timer\000"
 15011      6E646576 
 15011      5F676574 
 15011      5F726561 
 15011      645F7469 
ARM GAS  C:\Users\haske\AppData\Local\Temp\ccl1At1U.s 			page 330


 15012              	.LASF42:
 15013 268c 6765745F 		.ascii	"get_glyph_dsc\000"
 15013      676C7970 
 15013      685F6473 
 15013      6300
 15014              	.LASF8:
 15015 269a 5F5F696E 		.ascii	"__int32_t\000"
 15015      7433325F 
 15015      7400
 15016              	.LASF487:
 15017 26a4 73656C65 		.ascii	"selector\000"
 15017      63746F72 
 15017      00
 15018              	.LASF525:
 15019 26ad 4C565F45 		.ascii	"LV_EVENT_FOCUSED\000"
 15019      56454E54 
 15019      5F464F43 
 15019      55534544 
 15019      00
 15020              	.LASF69:
 15021 26be 6C765F67 		.ascii	"lv_grad_dir_t\000"
 15021      7261645F 
 15021      6469725F 
 15021      7400
 15022              	.LASF398:
 15023 26cc 6C617374 		.ascii	"last_raw_point\000"
 15023      5F726177 
 15023      5F706F69 
 15023      6E7400
 15024              	.LASF436:
 15025 26db 7265666F 		.ascii	"refocus_policy\000"
 15025      6375735F 
 15025      706F6C69 
 15025      637900
 15026              	.LASF314:
 15027 26ea 5F6C765F 		.ascii	"_lv_disp_drv_t\000"
 15027      64697370 
 15027      5F647276 
 15027      5F7400
 15028              	.LASF417:
 15029 26f9 6C6F6E67 		.ascii	"long_pr_sent\000"
 15029      5F70725F 
 15029      73656E74 
 15029      00
 15030              	.LASF648:
 15031 2706 6C765F6F 		.ascii	"lv_obj_has_state\000"
 15031      626A5F68 
 15031      61735F73 
 15031      74617465 
 15031      00
 15032              	.LASF441:
 15033 2717 4C565F53 		.ascii	"LV_STATE_FOCUSED\000"
 15033      54415445 
 15033      5F464F43 
 15033      55534544 
 15033      00
 15034              	.LASF497:
ARM GAS  C:\Users\haske\AppData\Local\Temp\ccl1At1U.s 			page 331


 15035 2728 68656967 		.ascii	"height_def\000"
 15035      68745F64 
 15035      656600
 15036              	.LASF616:
 15037 2733 6C765F69 		.ascii	"lv_indev_get_type\000"
 15037      6E646576 
 15037      5F676574 
 15037      5F747970 
 15037      6500
 15038              	.LASF548:
 15039 2745 4C565F45 		.ascii	"LV_EVENT_SCREEN_UNLOAD_START\000"
 15039      56454E54 
 15039      5F534352 
 15039      45454E5F 
 15039      554E4C4F 
 15040              	.LASF333:
 15041 2762 636C6561 		.ascii	"clean_dcache_cb\000"
 15041      6E5F6463 
 15041      61636865 
 15041      5F636200 
 15042              	.LASF559:
 15043 2772 4C565F4B 		.ascii	"LV_KEY_UP\000"
 15043      45595F55 
 15043      5000
 15044              	.LASF392:
 15045 277c 67657374 		.ascii	"gesture_limit\000"
 15045      7572655F 
 15045      6C696D69 
 15045      7400
 15046              	.LASF225:
 15047 278a 73656C5F 		.ascii	"sel_color\000"
 15047      636F6C6F 
 15047      7200
 15048              	.LASF651:
 15049 2794 6C765F67 		.ascii	"lv_group_focus_next\000"
 15049      726F7570 
 15049      5F666F63 
 15049      75735F6E 
 15049      65787400 
 15050              	.LASF601:
 15051 27a8 64617461 		.ascii	"data\000"
 15051      00
 15052              	.LASF461:
 15053 27ad 4C565F4F 		.ascii	"LV_OBJ_FLAG_SCROLL_ONE\000"
 15053      424A5F46 
 15053      4C41475F 
 15053      5343524F 
 15053      4C4C5F4F 
 15054              	.LASF201:
 15055 27c4 62675F69 		.ascii	"bg_img_symbol_font\000"
 15055      6D675F73 
 15055      796D626F 
 15055      6C5F666F 
 15055      6E7400
 15056              	.LASF218:
 15057 27d7 73686164 		.ascii	"shadow_ofs_y\000"
 15057      6F775F6F 
ARM GAS  C:\Users\haske\AppData\Local\Temp\ccl1At1U.s 			page 332


 15057      66735F79 
 15057      00
 15058              	.LASF652:
 15059 27e4 6C765F67 		.ascii	"lv_group_focus_prev\000"
 15059      726F7570 
 15059      5F666F63 
 15059      75735F70 
 15059      72657600 
 15060              	.LASF589:
 15061 27f8 70617274 		.ascii	"part\000"
 15061      00
 15062              	.LASF506:
 15063 27fd 70726576 		.ascii	"prev\000"
 15063      00
 15064              	.LASF77:
 15065 2802 6C765F67 		.ascii	"lv_grad_dsc_t\000"
 15065      7261645F 
 15065      6473635F 
 15065      7400
 15066              	.LASF288:
 15067 2810 6E5F7369 		.ascii	"n_size\000"
 15067      7A6500
 15068              	.LASF426:
 15069 2817 63757273 		.ascii	"cursor\000"
 15069      6F7200
 15070              	.LASF429:
 15071 281e 5F6C765F 		.ascii	"_lv_group_t\000"
 15071      67726F75 
 15071      705F7400 
 15072              	.LASF27:
 15073 282a 4C565F44 		.ascii	"LV_DIR_LEFT\000"
 15073      49525F4C 
 15073      45465400 
 15074              	.LASF519:
 15075 2836 4C565F45 		.ascii	"LV_EVENT_RELEASED\000"
 15075      56454E54 
 15075      5F52454C 
 15075      45415345 
 15075      4400
 15076              	.LASF41:
 15077 2848 69735F70 		.ascii	"is_placeholder\000"
 15077      6C616365 
 15077      686F6C64 
 15077      657200
 15078              	.LASF120:
 15079 2857 4C565F53 		.ascii	"LV_STYLE_OUTLINE_PAD\000"
 15079      54594C45 
 15079      5F4F5554 
 15079      4C494E45 
 15079      5F504144 
 15080              	.LASF640:
 15081 286c 6C765F6F 		.ascii	"lv_obj_get_group\000"
 15081      626A5F67 
 15081      65745F67 
 15081      726F7570 
 15081      00
 15082              	.LASF399:
ARM GAS  C:\Users\haske\AppData\Local\Temp\ccl1At1U.s 			page 333


 15083 287d 76656374 		.ascii	"vect\000"
 15083      00
 15084              	.LASF431:
 15085 2882 6F626A5F 		.ascii	"obj_focus\000"
 15085      666F6375 
 15085      7300
 15086              	.LASF144:
 15087 288c 4C565F53 		.ascii	"LV_STYLE_TEXT_LETTER_SPACE\000"
 15087      54594C45 
 15087      5F544558 
 15087      545F4C45 
 15087      54544552 
 15088              	.LASF587:
 15089 28a7 6C765F6F 		.ascii	"lv_obj_t\000"
 15089      626A5F74 
 15089      00
 15090              	.LASF584:
 15091 28b0 6576656E 		.ascii	"event_dsc_cnt\000"
 15091      745F6473 
 15091      635F636E 
 15091      7400
 15092              		.ident	"GCC: (GNU Tools for ARM Embedded Processors) 5.4.1 20160609 (release) [ARM/embedded-5-bran
