ARM GAS  C:\Users\haske\AppData\Local\Temp\ccufPcu5.s 			page 1


   1              		.syntax unified
   2              		.cpu cortex-m0plus
   3              		.fpu softvfp
   4              		.eabi_attribute 20, 1
   5              		.eabi_attribute 21, 1
   6              		.eabi_attribute 23, 3
   7              		.eabi_attribute 24, 1
   8              		.eabi_attribute 25, 1
   9              		.eabi_attribute 26, 1
  10              		.eabi_attribute 30, 1
  11              		.eabi_attribute 34, 0
  12              		.eabi_attribute 18, 4
  13              		.thumb
  14              		.syntax unified
  15              		.file	"lv_img_decoder.c"
  16              		.text
  17              	.Ltext0:
  18              		.cfi_sections	.debug_frame
  19              		.section	.text.lv_img_decoder_built_in_info,"ax",%progbits
  20              		.align	2
  21              		.global	lv_img_decoder_built_in_info
  22              		.code	16
  23              		.thumb_func
  24              		.type	lv_img_decoder_built_in_info, %function
  25              	lv_img_decoder_built_in_info:
  26              	.LFB67:
  27              		.file 1 "..\\..\\..\\arduinoLCD\\test\\Pain Drain\\libraries\\lvgl\\src\\draw\\lv_img_decoder.c"
   1:..\..\..\arduinoLCD\test\Pain Drain\libraries\lvgl\src\draw/lv_img_decoder.c **** /**
   2:..\..\..\arduinoLCD\test\Pain Drain\libraries\lvgl\src\draw/lv_img_decoder.c ****  * @file lv_img_decoder.c
   3:..\..\..\arduinoLCD\test\Pain Drain\libraries\lvgl\src\draw/lv_img_decoder.c ****  *
   4:..\..\..\arduinoLCD\test\Pain Drain\libraries\lvgl\src\draw/lv_img_decoder.c ****  */
   5:..\..\..\arduinoLCD\test\Pain Drain\libraries\lvgl\src\draw/lv_img_decoder.c **** 
   6:..\..\..\arduinoLCD\test\Pain Drain\libraries\lvgl\src\draw/lv_img_decoder.c **** /*********************
   7:..\..\..\arduinoLCD\test\Pain Drain\libraries\lvgl\src\draw/lv_img_decoder.c ****  *      INCLUDES
   8:..\..\..\arduinoLCD\test\Pain Drain\libraries\lvgl\src\draw/lv_img_decoder.c ****  *********************/
   9:..\..\..\arduinoLCD\test\Pain Drain\libraries\lvgl\src\draw/lv_img_decoder.c **** #include "lv_img_decoder.h"
  10:..\..\..\arduinoLCD\test\Pain Drain\libraries\lvgl\src\draw/lv_img_decoder.c **** #include "../misc/lv_assert.h"
  11:..\..\..\arduinoLCD\test\Pain Drain\libraries\lvgl\src\draw/lv_img_decoder.c **** #include "../draw/lv_draw_img.h"
  12:..\..\..\arduinoLCD\test\Pain Drain\libraries\lvgl\src\draw/lv_img_decoder.c **** #include "../misc/lv_ll.h"
  13:..\..\..\arduinoLCD\test\Pain Drain\libraries\lvgl\src\draw/lv_img_decoder.c **** #include "../misc/lv_gc.h"
  14:..\..\..\arduinoLCD\test\Pain Drain\libraries\lvgl\src\draw/lv_img_decoder.c **** 
  15:..\..\..\arduinoLCD\test\Pain Drain\libraries\lvgl\src\draw/lv_img_decoder.c **** /*********************
  16:..\..\..\arduinoLCD\test\Pain Drain\libraries\lvgl\src\draw/lv_img_decoder.c ****  *      DEFINES
  17:..\..\..\arduinoLCD\test\Pain Drain\libraries\lvgl\src\draw/lv_img_decoder.c ****  *********************/
  18:..\..\..\arduinoLCD\test\Pain Drain\libraries\lvgl\src\draw/lv_img_decoder.c **** #define CF_BUILT_IN_FIRST   LV_IMG_CF_TRUE_COLOR
  19:..\..\..\arduinoLCD\test\Pain Drain\libraries\lvgl\src\draw/lv_img_decoder.c **** #define CF_BUILT_IN_LAST    LV_IMG_CF_RGB565A8
  20:..\..\..\arduinoLCD\test\Pain Drain\libraries\lvgl\src\draw/lv_img_decoder.c **** 
  21:..\..\..\arduinoLCD\test\Pain Drain\libraries\lvgl\src\draw/lv_img_decoder.c **** /**********************
  22:..\..\..\arduinoLCD\test\Pain Drain\libraries\lvgl\src\draw/lv_img_decoder.c ****  *      TYPEDEFS
  23:..\..\..\arduinoLCD\test\Pain Drain\libraries\lvgl\src\draw/lv_img_decoder.c ****  **********************/
  24:..\..\..\arduinoLCD\test\Pain Drain\libraries\lvgl\src\draw/lv_img_decoder.c **** 
  25:..\..\..\arduinoLCD\test\Pain Drain\libraries\lvgl\src\draw/lv_img_decoder.c **** typedef struct {
  26:..\..\..\arduinoLCD\test\Pain Drain\libraries\lvgl\src\draw/lv_img_decoder.c ****     lv_fs_file_t f;
  27:..\..\..\arduinoLCD\test\Pain Drain\libraries\lvgl\src\draw/lv_img_decoder.c ****     lv_color_t * palette;
  28:..\..\..\arduinoLCD\test\Pain Drain\libraries\lvgl\src\draw/lv_img_decoder.c ****     lv_opa_t * opa;
  29:..\..\..\arduinoLCD\test\Pain Drain\libraries\lvgl\src\draw/lv_img_decoder.c **** } lv_img_decoder_built_in_data_t;
  30:..\..\..\arduinoLCD\test\Pain Drain\libraries\lvgl\src\draw/lv_img_decoder.c **** 
ARM GAS  C:\Users\haske\AppData\Local\Temp\ccufPcu5.s 			page 2


  31:..\..\..\arduinoLCD\test\Pain Drain\libraries\lvgl\src\draw/lv_img_decoder.c **** /**********************
  32:..\..\..\arduinoLCD\test\Pain Drain\libraries\lvgl\src\draw/lv_img_decoder.c ****  *  STATIC PROTOTYPES
  33:..\..\..\arduinoLCD\test\Pain Drain\libraries\lvgl\src\draw/lv_img_decoder.c ****  **********************/
  34:..\..\..\arduinoLCD\test\Pain Drain\libraries\lvgl\src\draw/lv_img_decoder.c **** static lv_res_t lv_img_decoder_built_in_line_true_color(lv_img_decoder_dsc_t * dsc, lv_coord_t x, l
  35:..\..\..\arduinoLCD\test\Pain Drain\libraries\lvgl\src\draw/lv_img_decoder.c ****                                                         lv_coord_t len, uint8_t * buf);
  36:..\..\..\arduinoLCD\test\Pain Drain\libraries\lvgl\src\draw/lv_img_decoder.c **** static lv_res_t lv_img_decoder_built_in_line_alpha(lv_img_decoder_dsc_t * dsc, lv_coord_t x, lv_coo
  37:..\..\..\arduinoLCD\test\Pain Drain\libraries\lvgl\src\draw/lv_img_decoder.c ****                                                    lv_coord_t len, uint8_t * buf);
  38:..\..\..\arduinoLCD\test\Pain Drain\libraries\lvgl\src\draw/lv_img_decoder.c **** static lv_res_t lv_img_decoder_built_in_line_indexed(lv_img_decoder_dsc_t * dsc, lv_coord_t x, lv_c
  39:..\..\..\arduinoLCD\test\Pain Drain\libraries\lvgl\src\draw/lv_img_decoder.c ****                                                      lv_coord_t len, uint8_t * buf);
  40:..\..\..\arduinoLCD\test\Pain Drain\libraries\lvgl\src\draw/lv_img_decoder.c **** 
  41:..\..\..\arduinoLCD\test\Pain Drain\libraries\lvgl\src\draw/lv_img_decoder.c **** /**********************
  42:..\..\..\arduinoLCD\test\Pain Drain\libraries\lvgl\src\draw/lv_img_decoder.c ****  *  STATIC VARIABLES
  43:..\..\..\arduinoLCD\test\Pain Drain\libraries\lvgl\src\draw/lv_img_decoder.c ****  **********************/
  44:..\..\..\arduinoLCD\test\Pain Drain\libraries\lvgl\src\draw/lv_img_decoder.c **** 
  45:..\..\..\arduinoLCD\test\Pain Drain\libraries\lvgl\src\draw/lv_img_decoder.c **** /**********************
  46:..\..\..\arduinoLCD\test\Pain Drain\libraries\lvgl\src\draw/lv_img_decoder.c ****  *      MACROS
  47:..\..\..\arduinoLCD\test\Pain Drain\libraries\lvgl\src\draw/lv_img_decoder.c ****  **********************/
  48:..\..\..\arduinoLCD\test\Pain Drain\libraries\lvgl\src\draw/lv_img_decoder.c **** 
  49:..\..\..\arduinoLCD\test\Pain Drain\libraries\lvgl\src\draw/lv_img_decoder.c **** /**********************
  50:..\..\..\arduinoLCD\test\Pain Drain\libraries\lvgl\src\draw/lv_img_decoder.c ****  *   GLOBAL FUNCTIONS
  51:..\..\..\arduinoLCD\test\Pain Drain\libraries\lvgl\src\draw/lv_img_decoder.c ****  **********************/
  52:..\..\..\arduinoLCD\test\Pain Drain\libraries\lvgl\src\draw/lv_img_decoder.c **** 
  53:..\..\..\arduinoLCD\test\Pain Drain\libraries\lvgl\src\draw/lv_img_decoder.c **** /**
  54:..\..\..\arduinoLCD\test\Pain Drain\libraries\lvgl\src\draw/lv_img_decoder.c ****  * Initialize the image decoder module
  55:..\..\..\arduinoLCD\test\Pain Drain\libraries\lvgl\src\draw/lv_img_decoder.c ****  */
  56:..\..\..\arduinoLCD\test\Pain Drain\libraries\lvgl\src\draw/lv_img_decoder.c **** void _lv_img_decoder_init(void)
  57:..\..\..\arduinoLCD\test\Pain Drain\libraries\lvgl\src\draw/lv_img_decoder.c **** {
  58:..\..\..\arduinoLCD\test\Pain Drain\libraries\lvgl\src\draw/lv_img_decoder.c ****     _lv_ll_init(&LV_GC_ROOT(_lv_img_decoder_ll), sizeof(lv_img_decoder_t));
  59:..\..\..\arduinoLCD\test\Pain Drain\libraries\lvgl\src\draw/lv_img_decoder.c **** 
  60:..\..\..\arduinoLCD\test\Pain Drain\libraries\lvgl\src\draw/lv_img_decoder.c ****     lv_img_decoder_t * decoder;
  61:..\..\..\arduinoLCD\test\Pain Drain\libraries\lvgl\src\draw/lv_img_decoder.c **** 
  62:..\..\..\arduinoLCD\test\Pain Drain\libraries\lvgl\src\draw/lv_img_decoder.c ****     /*Create a decoder for the built in color format*/
  63:..\..\..\arduinoLCD\test\Pain Drain\libraries\lvgl\src\draw/lv_img_decoder.c ****     decoder = lv_img_decoder_create();
  64:..\..\..\arduinoLCD\test\Pain Drain\libraries\lvgl\src\draw/lv_img_decoder.c ****     LV_ASSERT_MALLOC(decoder);
  65:..\..\..\arduinoLCD\test\Pain Drain\libraries\lvgl\src\draw/lv_img_decoder.c ****     if(decoder == NULL) {
  66:..\..\..\arduinoLCD\test\Pain Drain\libraries\lvgl\src\draw/lv_img_decoder.c ****         LV_LOG_WARN("lv_img_decoder_init: out of memory");
  67:..\..\..\arduinoLCD\test\Pain Drain\libraries\lvgl\src\draw/lv_img_decoder.c ****         return;
  68:..\..\..\arduinoLCD\test\Pain Drain\libraries\lvgl\src\draw/lv_img_decoder.c ****     }
  69:..\..\..\arduinoLCD\test\Pain Drain\libraries\lvgl\src\draw/lv_img_decoder.c **** 
  70:..\..\..\arduinoLCD\test\Pain Drain\libraries\lvgl\src\draw/lv_img_decoder.c ****     lv_img_decoder_set_info_cb(decoder, lv_img_decoder_built_in_info);
  71:..\..\..\arduinoLCD\test\Pain Drain\libraries\lvgl\src\draw/lv_img_decoder.c ****     lv_img_decoder_set_open_cb(decoder, lv_img_decoder_built_in_open);
  72:..\..\..\arduinoLCD\test\Pain Drain\libraries\lvgl\src\draw/lv_img_decoder.c ****     lv_img_decoder_set_read_line_cb(decoder, lv_img_decoder_built_in_read_line);
  73:..\..\..\arduinoLCD\test\Pain Drain\libraries\lvgl\src\draw/lv_img_decoder.c ****     lv_img_decoder_set_close_cb(decoder, lv_img_decoder_built_in_close);
  74:..\..\..\arduinoLCD\test\Pain Drain\libraries\lvgl\src\draw/lv_img_decoder.c **** }
  75:..\..\..\arduinoLCD\test\Pain Drain\libraries\lvgl\src\draw/lv_img_decoder.c **** 
  76:..\..\..\arduinoLCD\test\Pain Drain\libraries\lvgl\src\draw/lv_img_decoder.c **** /**
  77:..\..\..\arduinoLCD\test\Pain Drain\libraries\lvgl\src\draw/lv_img_decoder.c ****  * Get information about an image.
  78:..\..\..\arduinoLCD\test\Pain Drain\libraries\lvgl\src\draw/lv_img_decoder.c ****  * Try the created image decoder one by one. Once one is able to get info that info will be used.
  79:..\..\..\arduinoLCD\test\Pain Drain\libraries\lvgl\src\draw/lv_img_decoder.c ****  * @param src the image source. E.g. file name or variable.
  80:..\..\..\arduinoLCD\test\Pain Drain\libraries\lvgl\src\draw/lv_img_decoder.c ****  * @param header the image info will be stored here
  81:..\..\..\arduinoLCD\test\Pain Drain\libraries\lvgl\src\draw/lv_img_decoder.c ****  * @return LV_RES_OK: success; LV_RES_INV: wasn't able to get info about the image
  82:..\..\..\arduinoLCD\test\Pain Drain\libraries\lvgl\src\draw/lv_img_decoder.c ****  */
  83:..\..\..\arduinoLCD\test\Pain Drain\libraries\lvgl\src\draw/lv_img_decoder.c **** lv_res_t lv_img_decoder_get_info(const void * src, lv_img_header_t * header)
  84:..\..\..\arduinoLCD\test\Pain Drain\libraries\lvgl\src\draw/lv_img_decoder.c **** {
  85:..\..\..\arduinoLCD\test\Pain Drain\libraries\lvgl\src\draw/lv_img_decoder.c ****     lv_memset_00(header, sizeof(lv_img_header_t));
  86:..\..\..\arduinoLCD\test\Pain Drain\libraries\lvgl\src\draw/lv_img_decoder.c **** 
  87:..\..\..\arduinoLCD\test\Pain Drain\libraries\lvgl\src\draw/lv_img_decoder.c ****     if(src == NULL) return LV_RES_INV;
ARM GAS  C:\Users\haske\AppData\Local\Temp\ccufPcu5.s 			page 3


  88:..\..\..\arduinoLCD\test\Pain Drain\libraries\lvgl\src\draw/lv_img_decoder.c **** 
  89:..\..\..\arduinoLCD\test\Pain Drain\libraries\lvgl\src\draw/lv_img_decoder.c ****     lv_img_src_t src_type = lv_img_src_get_type(src);
  90:..\..\..\arduinoLCD\test\Pain Drain\libraries\lvgl\src\draw/lv_img_decoder.c ****     if(src_type == LV_IMG_SRC_VARIABLE) {
  91:..\..\..\arduinoLCD\test\Pain Drain\libraries\lvgl\src\draw/lv_img_decoder.c ****         const lv_img_dsc_t * img_dsc = src;
  92:..\..\..\arduinoLCD\test\Pain Drain\libraries\lvgl\src\draw/lv_img_decoder.c ****         if(img_dsc->data == NULL) return LV_RES_INV;
  93:..\..\..\arduinoLCD\test\Pain Drain\libraries\lvgl\src\draw/lv_img_decoder.c ****     }
  94:..\..\..\arduinoLCD\test\Pain Drain\libraries\lvgl\src\draw/lv_img_decoder.c **** 
  95:..\..\..\arduinoLCD\test\Pain Drain\libraries\lvgl\src\draw/lv_img_decoder.c ****     lv_res_t res = LV_RES_INV;
  96:..\..\..\arduinoLCD\test\Pain Drain\libraries\lvgl\src\draw/lv_img_decoder.c ****     lv_img_decoder_t * d;
  97:..\..\..\arduinoLCD\test\Pain Drain\libraries\lvgl\src\draw/lv_img_decoder.c ****     _LV_LL_READ(&LV_GC_ROOT(_lv_img_decoder_ll), d) {
  98:..\..\..\arduinoLCD\test\Pain Drain\libraries\lvgl\src\draw/lv_img_decoder.c ****         if(d->info_cb) {
  99:..\..\..\arduinoLCD\test\Pain Drain\libraries\lvgl\src\draw/lv_img_decoder.c ****             res = d->info_cb(d, src, header);
 100:..\..\..\arduinoLCD\test\Pain Drain\libraries\lvgl\src\draw/lv_img_decoder.c ****             if(res == LV_RES_OK) break;
 101:..\..\..\arduinoLCD\test\Pain Drain\libraries\lvgl\src\draw/lv_img_decoder.c ****         }
 102:..\..\..\arduinoLCD\test\Pain Drain\libraries\lvgl\src\draw/lv_img_decoder.c ****     }
 103:..\..\..\arduinoLCD\test\Pain Drain\libraries\lvgl\src\draw/lv_img_decoder.c **** 
 104:..\..\..\arduinoLCD\test\Pain Drain\libraries\lvgl\src\draw/lv_img_decoder.c ****     return res;
 105:..\..\..\arduinoLCD\test\Pain Drain\libraries\lvgl\src\draw/lv_img_decoder.c **** }
 106:..\..\..\arduinoLCD\test\Pain Drain\libraries\lvgl\src\draw/lv_img_decoder.c **** 
 107:..\..\..\arduinoLCD\test\Pain Drain\libraries\lvgl\src\draw/lv_img_decoder.c **** lv_res_t lv_img_decoder_open(lv_img_decoder_dsc_t * dsc, const void * src, lv_color_t color, int32_
 108:..\..\..\arduinoLCD\test\Pain Drain\libraries\lvgl\src\draw/lv_img_decoder.c **** {
 109:..\..\..\arduinoLCD\test\Pain Drain\libraries\lvgl\src\draw/lv_img_decoder.c ****     lv_memset_00(dsc, sizeof(lv_img_decoder_dsc_t));
 110:..\..\..\arduinoLCD\test\Pain Drain\libraries\lvgl\src\draw/lv_img_decoder.c **** 
 111:..\..\..\arduinoLCD\test\Pain Drain\libraries\lvgl\src\draw/lv_img_decoder.c ****     if(src == NULL) return LV_RES_INV;
 112:..\..\..\arduinoLCD\test\Pain Drain\libraries\lvgl\src\draw/lv_img_decoder.c ****     lv_img_src_t src_type = lv_img_src_get_type(src);
 113:..\..\..\arduinoLCD\test\Pain Drain\libraries\lvgl\src\draw/lv_img_decoder.c ****     if(src_type == LV_IMG_SRC_VARIABLE) {
 114:..\..\..\arduinoLCD\test\Pain Drain\libraries\lvgl\src\draw/lv_img_decoder.c ****         const lv_img_dsc_t * img_dsc = src;
 115:..\..\..\arduinoLCD\test\Pain Drain\libraries\lvgl\src\draw/lv_img_decoder.c ****         if(img_dsc->data == NULL) return LV_RES_INV;
 116:..\..\..\arduinoLCD\test\Pain Drain\libraries\lvgl\src\draw/lv_img_decoder.c ****     }
 117:..\..\..\arduinoLCD\test\Pain Drain\libraries\lvgl\src\draw/lv_img_decoder.c **** 
 118:..\..\..\arduinoLCD\test\Pain Drain\libraries\lvgl\src\draw/lv_img_decoder.c ****     dsc->color    = color;
 119:..\..\..\arduinoLCD\test\Pain Drain\libraries\lvgl\src\draw/lv_img_decoder.c ****     dsc->src_type = src_type;
 120:..\..\..\arduinoLCD\test\Pain Drain\libraries\lvgl\src\draw/lv_img_decoder.c ****     dsc->frame_id = frame_id;
 121:..\..\..\arduinoLCD\test\Pain Drain\libraries\lvgl\src\draw/lv_img_decoder.c **** 
 122:..\..\..\arduinoLCD\test\Pain Drain\libraries\lvgl\src\draw/lv_img_decoder.c ****     if(dsc->src_type == LV_IMG_SRC_FILE) {
 123:..\..\..\arduinoLCD\test\Pain Drain\libraries\lvgl\src\draw/lv_img_decoder.c ****         size_t fnlen = strlen(src);
 124:..\..\..\arduinoLCD\test\Pain Drain\libraries\lvgl\src\draw/lv_img_decoder.c ****         dsc->src = lv_mem_alloc(fnlen + 1);
 125:..\..\..\arduinoLCD\test\Pain Drain\libraries\lvgl\src\draw/lv_img_decoder.c ****         LV_ASSERT_MALLOC(dsc->src);
 126:..\..\..\arduinoLCD\test\Pain Drain\libraries\lvgl\src\draw/lv_img_decoder.c ****         if(dsc->src == NULL) {
 127:..\..\..\arduinoLCD\test\Pain Drain\libraries\lvgl\src\draw/lv_img_decoder.c ****             LV_LOG_WARN("lv_img_decoder_open: out of memory");
 128:..\..\..\arduinoLCD\test\Pain Drain\libraries\lvgl\src\draw/lv_img_decoder.c ****             return LV_RES_INV;
 129:..\..\..\arduinoLCD\test\Pain Drain\libraries\lvgl\src\draw/lv_img_decoder.c ****         }
 130:..\..\..\arduinoLCD\test\Pain Drain\libraries\lvgl\src\draw/lv_img_decoder.c ****         strcpy((char *)dsc->src, src);
 131:..\..\..\arduinoLCD\test\Pain Drain\libraries\lvgl\src\draw/lv_img_decoder.c ****     }
 132:..\..\..\arduinoLCD\test\Pain Drain\libraries\lvgl\src\draw/lv_img_decoder.c ****     else {
 133:..\..\..\arduinoLCD\test\Pain Drain\libraries\lvgl\src\draw/lv_img_decoder.c ****         dsc->src = src;
 134:..\..\..\arduinoLCD\test\Pain Drain\libraries\lvgl\src\draw/lv_img_decoder.c ****     }
 135:..\..\..\arduinoLCD\test\Pain Drain\libraries\lvgl\src\draw/lv_img_decoder.c **** 
 136:..\..\..\arduinoLCD\test\Pain Drain\libraries\lvgl\src\draw/lv_img_decoder.c ****     lv_res_t res = LV_RES_INV;
 137:..\..\..\arduinoLCD\test\Pain Drain\libraries\lvgl\src\draw/lv_img_decoder.c **** 
 138:..\..\..\arduinoLCD\test\Pain Drain\libraries\lvgl\src\draw/lv_img_decoder.c ****     lv_img_decoder_t * decoder;
 139:..\..\..\arduinoLCD\test\Pain Drain\libraries\lvgl\src\draw/lv_img_decoder.c ****     _LV_LL_READ(&LV_GC_ROOT(_lv_img_decoder_ll), decoder) {
 140:..\..\..\arduinoLCD\test\Pain Drain\libraries\lvgl\src\draw/lv_img_decoder.c ****         /*Info and Open callbacks are required*/
 141:..\..\..\arduinoLCD\test\Pain Drain\libraries\lvgl\src\draw/lv_img_decoder.c ****         if(decoder->info_cb == NULL || decoder->open_cb == NULL) continue;
 142:..\..\..\arduinoLCD\test\Pain Drain\libraries\lvgl\src\draw/lv_img_decoder.c **** 
 143:..\..\..\arduinoLCD\test\Pain Drain\libraries\lvgl\src\draw/lv_img_decoder.c ****         res = decoder->info_cb(decoder, src, &dsc->header);
 144:..\..\..\arduinoLCD\test\Pain Drain\libraries\lvgl\src\draw/lv_img_decoder.c ****         if(res != LV_RES_OK) continue;
ARM GAS  C:\Users\haske\AppData\Local\Temp\ccufPcu5.s 			page 4


 145:..\..\..\arduinoLCD\test\Pain Drain\libraries\lvgl\src\draw/lv_img_decoder.c **** 
 146:..\..\..\arduinoLCD\test\Pain Drain\libraries\lvgl\src\draw/lv_img_decoder.c ****         dsc->decoder = decoder;
 147:..\..\..\arduinoLCD\test\Pain Drain\libraries\lvgl\src\draw/lv_img_decoder.c ****         res = decoder->open_cb(decoder, dsc);
 148:..\..\..\arduinoLCD\test\Pain Drain\libraries\lvgl\src\draw/lv_img_decoder.c **** 
 149:..\..\..\arduinoLCD\test\Pain Drain\libraries\lvgl\src\draw/lv_img_decoder.c ****         /*Opened successfully. It is a good decoder for this image source*/
 150:..\..\..\arduinoLCD\test\Pain Drain\libraries\lvgl\src\draw/lv_img_decoder.c ****         if(res == LV_RES_OK) return res;
 151:..\..\..\arduinoLCD\test\Pain Drain\libraries\lvgl\src\draw/lv_img_decoder.c **** 
 152:..\..\..\arduinoLCD\test\Pain Drain\libraries\lvgl\src\draw/lv_img_decoder.c ****         /*Prepare for the next loop*/
 153:..\..\..\arduinoLCD\test\Pain Drain\libraries\lvgl\src\draw/lv_img_decoder.c ****         lv_memset_00(&dsc->header, sizeof(lv_img_header_t));
 154:..\..\..\arduinoLCD\test\Pain Drain\libraries\lvgl\src\draw/lv_img_decoder.c **** 
 155:..\..\..\arduinoLCD\test\Pain Drain\libraries\lvgl\src\draw/lv_img_decoder.c ****         dsc->error_msg = NULL;
 156:..\..\..\arduinoLCD\test\Pain Drain\libraries\lvgl\src\draw/lv_img_decoder.c ****         dsc->img_data  = NULL;
 157:..\..\..\arduinoLCD\test\Pain Drain\libraries\lvgl\src\draw/lv_img_decoder.c ****         dsc->user_data = NULL;
 158:..\..\..\arduinoLCD\test\Pain Drain\libraries\lvgl\src\draw/lv_img_decoder.c ****         dsc->time_to_open = 0;
 159:..\..\..\arduinoLCD\test\Pain Drain\libraries\lvgl\src\draw/lv_img_decoder.c ****     }
 160:..\..\..\arduinoLCD\test\Pain Drain\libraries\lvgl\src\draw/lv_img_decoder.c **** 
 161:..\..\..\arduinoLCD\test\Pain Drain\libraries\lvgl\src\draw/lv_img_decoder.c ****     if(dsc->src_type == LV_IMG_SRC_FILE)
 162:..\..\..\arduinoLCD\test\Pain Drain\libraries\lvgl\src\draw/lv_img_decoder.c ****         lv_mem_free((void *)dsc->src);
 163:..\..\..\arduinoLCD\test\Pain Drain\libraries\lvgl\src\draw/lv_img_decoder.c **** 
 164:..\..\..\arduinoLCD\test\Pain Drain\libraries\lvgl\src\draw/lv_img_decoder.c ****     return res;
 165:..\..\..\arduinoLCD\test\Pain Drain\libraries\lvgl\src\draw/lv_img_decoder.c **** }
 166:..\..\..\arduinoLCD\test\Pain Drain\libraries\lvgl\src\draw/lv_img_decoder.c **** 
 167:..\..\..\arduinoLCD\test\Pain Drain\libraries\lvgl\src\draw/lv_img_decoder.c **** /**
 168:..\..\..\arduinoLCD\test\Pain Drain\libraries\lvgl\src\draw/lv_img_decoder.c ****  * Read a line from an opened image
 169:..\..\..\arduinoLCD\test\Pain Drain\libraries\lvgl\src\draw/lv_img_decoder.c ****  * @param dsc pointer to `lv_img_decoder_dsc_t` used in `lv_img_decoder_open`
 170:..\..\..\arduinoLCD\test\Pain Drain\libraries\lvgl\src\draw/lv_img_decoder.c ****  * @param x start X coordinate (from left)
 171:..\..\..\arduinoLCD\test\Pain Drain\libraries\lvgl\src\draw/lv_img_decoder.c ****  * @param y start Y coordinate (from top)
 172:..\..\..\arduinoLCD\test\Pain Drain\libraries\lvgl\src\draw/lv_img_decoder.c ****  * @param len number of pixels to read
 173:..\..\..\arduinoLCD\test\Pain Drain\libraries\lvgl\src\draw/lv_img_decoder.c ****  * @param buf store the data here
 174:..\..\..\arduinoLCD\test\Pain Drain\libraries\lvgl\src\draw/lv_img_decoder.c ****  * @return LV_RES_OK: success; LV_RES_INV: an error occurred
 175:..\..\..\arduinoLCD\test\Pain Drain\libraries\lvgl\src\draw/lv_img_decoder.c ****  */
 176:..\..\..\arduinoLCD\test\Pain Drain\libraries\lvgl\src\draw/lv_img_decoder.c **** lv_res_t lv_img_decoder_read_line(lv_img_decoder_dsc_t * dsc, lv_coord_t x, lv_coord_t y, lv_coord_
 177:..\..\..\arduinoLCD\test\Pain Drain\libraries\lvgl\src\draw/lv_img_decoder.c **** {
 178:..\..\..\arduinoLCD\test\Pain Drain\libraries\lvgl\src\draw/lv_img_decoder.c ****     lv_res_t res = LV_RES_INV;
 179:..\..\..\arduinoLCD\test\Pain Drain\libraries\lvgl\src\draw/lv_img_decoder.c ****     if(dsc->decoder->read_line_cb) res = dsc->decoder->read_line_cb(dsc->decoder, dsc, x, y, len, b
 180:..\..\..\arduinoLCD\test\Pain Drain\libraries\lvgl\src\draw/lv_img_decoder.c **** 
 181:..\..\..\arduinoLCD\test\Pain Drain\libraries\lvgl\src\draw/lv_img_decoder.c ****     return res;
 182:..\..\..\arduinoLCD\test\Pain Drain\libraries\lvgl\src\draw/lv_img_decoder.c **** }
 183:..\..\..\arduinoLCD\test\Pain Drain\libraries\lvgl\src\draw/lv_img_decoder.c **** 
 184:..\..\..\arduinoLCD\test\Pain Drain\libraries\lvgl\src\draw/lv_img_decoder.c **** /**
 185:..\..\..\arduinoLCD\test\Pain Drain\libraries\lvgl\src\draw/lv_img_decoder.c ****  * Close a decoding session
 186:..\..\..\arduinoLCD\test\Pain Drain\libraries\lvgl\src\draw/lv_img_decoder.c ****  * @param dsc pointer to `lv_img_decoder_dsc_t` used in `lv_img_decoder_open`
 187:..\..\..\arduinoLCD\test\Pain Drain\libraries\lvgl\src\draw/lv_img_decoder.c ****  */
 188:..\..\..\arduinoLCD\test\Pain Drain\libraries\lvgl\src\draw/lv_img_decoder.c **** void lv_img_decoder_close(lv_img_decoder_dsc_t * dsc)
 189:..\..\..\arduinoLCD\test\Pain Drain\libraries\lvgl\src\draw/lv_img_decoder.c **** {
 190:..\..\..\arduinoLCD\test\Pain Drain\libraries\lvgl\src\draw/lv_img_decoder.c ****     if(dsc->decoder) {
 191:..\..\..\arduinoLCD\test\Pain Drain\libraries\lvgl\src\draw/lv_img_decoder.c ****         if(dsc->decoder->close_cb) dsc->decoder->close_cb(dsc->decoder, dsc);
 192:..\..\..\arduinoLCD\test\Pain Drain\libraries\lvgl\src\draw/lv_img_decoder.c **** 
 193:..\..\..\arduinoLCD\test\Pain Drain\libraries\lvgl\src\draw/lv_img_decoder.c ****         if(dsc->src_type == LV_IMG_SRC_FILE) {
 194:..\..\..\arduinoLCD\test\Pain Drain\libraries\lvgl\src\draw/lv_img_decoder.c ****             lv_mem_free((void *)dsc->src);
 195:..\..\..\arduinoLCD\test\Pain Drain\libraries\lvgl\src\draw/lv_img_decoder.c ****             dsc->src = NULL;
 196:..\..\..\arduinoLCD\test\Pain Drain\libraries\lvgl\src\draw/lv_img_decoder.c ****         }
 197:..\..\..\arduinoLCD\test\Pain Drain\libraries\lvgl\src\draw/lv_img_decoder.c ****     }
 198:..\..\..\arduinoLCD\test\Pain Drain\libraries\lvgl\src\draw/lv_img_decoder.c **** }
 199:..\..\..\arduinoLCD\test\Pain Drain\libraries\lvgl\src\draw/lv_img_decoder.c **** 
 200:..\..\..\arduinoLCD\test\Pain Drain\libraries\lvgl\src\draw/lv_img_decoder.c **** /**
 201:..\..\..\arduinoLCD\test\Pain Drain\libraries\lvgl\src\draw/lv_img_decoder.c ****  * Create a new image decoder
ARM GAS  C:\Users\haske\AppData\Local\Temp\ccufPcu5.s 			page 5


 202:..\..\..\arduinoLCD\test\Pain Drain\libraries\lvgl\src\draw/lv_img_decoder.c ****  * @return pointer to the new image decoder
 203:..\..\..\arduinoLCD\test\Pain Drain\libraries\lvgl\src\draw/lv_img_decoder.c ****  */
 204:..\..\..\arduinoLCD\test\Pain Drain\libraries\lvgl\src\draw/lv_img_decoder.c **** lv_img_decoder_t * lv_img_decoder_create(void)
 205:..\..\..\arduinoLCD\test\Pain Drain\libraries\lvgl\src\draw/lv_img_decoder.c **** {
 206:..\..\..\arduinoLCD\test\Pain Drain\libraries\lvgl\src\draw/lv_img_decoder.c ****     lv_img_decoder_t * decoder;
 207:..\..\..\arduinoLCD\test\Pain Drain\libraries\lvgl\src\draw/lv_img_decoder.c ****     decoder = _lv_ll_ins_head(&LV_GC_ROOT(_lv_img_decoder_ll));
 208:..\..\..\arduinoLCD\test\Pain Drain\libraries\lvgl\src\draw/lv_img_decoder.c ****     LV_ASSERT_MALLOC(decoder);
 209:..\..\..\arduinoLCD\test\Pain Drain\libraries\lvgl\src\draw/lv_img_decoder.c ****     if(decoder == NULL) return NULL;
 210:..\..\..\arduinoLCD\test\Pain Drain\libraries\lvgl\src\draw/lv_img_decoder.c **** 
 211:..\..\..\arduinoLCD\test\Pain Drain\libraries\lvgl\src\draw/lv_img_decoder.c ****     lv_memset_00(decoder, sizeof(lv_img_decoder_t));
 212:..\..\..\arduinoLCD\test\Pain Drain\libraries\lvgl\src\draw/lv_img_decoder.c **** 
 213:..\..\..\arduinoLCD\test\Pain Drain\libraries\lvgl\src\draw/lv_img_decoder.c ****     return decoder;
 214:..\..\..\arduinoLCD\test\Pain Drain\libraries\lvgl\src\draw/lv_img_decoder.c **** }
 215:..\..\..\arduinoLCD\test\Pain Drain\libraries\lvgl\src\draw/lv_img_decoder.c **** 
 216:..\..\..\arduinoLCD\test\Pain Drain\libraries\lvgl\src\draw/lv_img_decoder.c **** /**
 217:..\..\..\arduinoLCD\test\Pain Drain\libraries\lvgl\src\draw/lv_img_decoder.c ****  * Delete an image decoder
 218:..\..\..\arduinoLCD\test\Pain Drain\libraries\lvgl\src\draw/lv_img_decoder.c ****  * @param decoder pointer to an image decoder
 219:..\..\..\arduinoLCD\test\Pain Drain\libraries\lvgl\src\draw/lv_img_decoder.c ****  */
 220:..\..\..\arduinoLCD\test\Pain Drain\libraries\lvgl\src\draw/lv_img_decoder.c **** void lv_img_decoder_delete(lv_img_decoder_t * decoder)
 221:..\..\..\arduinoLCD\test\Pain Drain\libraries\lvgl\src\draw/lv_img_decoder.c **** {
 222:..\..\..\arduinoLCD\test\Pain Drain\libraries\lvgl\src\draw/lv_img_decoder.c ****     _lv_ll_remove(&LV_GC_ROOT(_lv_img_decoder_ll), decoder);
 223:..\..\..\arduinoLCD\test\Pain Drain\libraries\lvgl\src\draw/lv_img_decoder.c ****     lv_mem_free(decoder);
 224:..\..\..\arduinoLCD\test\Pain Drain\libraries\lvgl\src\draw/lv_img_decoder.c **** }
 225:..\..\..\arduinoLCD\test\Pain Drain\libraries\lvgl\src\draw/lv_img_decoder.c **** 
 226:..\..\..\arduinoLCD\test\Pain Drain\libraries\lvgl\src\draw/lv_img_decoder.c **** /**
 227:..\..\..\arduinoLCD\test\Pain Drain\libraries\lvgl\src\draw/lv_img_decoder.c ****  * Set a callback to get information about the image
 228:..\..\..\arduinoLCD\test\Pain Drain\libraries\lvgl\src\draw/lv_img_decoder.c ****  * @param decoder pointer to an image decoder
 229:..\..\..\arduinoLCD\test\Pain Drain\libraries\lvgl\src\draw/lv_img_decoder.c ****  * @param info_cb a function to collect info about an image (fill an `lv_img_header_t` struct)
 230:..\..\..\arduinoLCD\test\Pain Drain\libraries\lvgl\src\draw/lv_img_decoder.c ****  */
 231:..\..\..\arduinoLCD\test\Pain Drain\libraries\lvgl\src\draw/lv_img_decoder.c **** void lv_img_decoder_set_info_cb(lv_img_decoder_t * decoder, lv_img_decoder_info_f_t info_cb)
 232:..\..\..\arduinoLCD\test\Pain Drain\libraries\lvgl\src\draw/lv_img_decoder.c **** {
 233:..\..\..\arduinoLCD\test\Pain Drain\libraries\lvgl\src\draw/lv_img_decoder.c ****     decoder->info_cb = info_cb;
 234:..\..\..\arduinoLCD\test\Pain Drain\libraries\lvgl\src\draw/lv_img_decoder.c **** }
 235:..\..\..\arduinoLCD\test\Pain Drain\libraries\lvgl\src\draw/lv_img_decoder.c **** 
 236:..\..\..\arduinoLCD\test\Pain Drain\libraries\lvgl\src\draw/lv_img_decoder.c **** /**
 237:..\..\..\arduinoLCD\test\Pain Drain\libraries\lvgl\src\draw/lv_img_decoder.c ****  * Set a callback to open an image
 238:..\..\..\arduinoLCD\test\Pain Drain\libraries\lvgl\src\draw/lv_img_decoder.c ****  * @param decoder pointer to an image decoder
 239:..\..\..\arduinoLCD\test\Pain Drain\libraries\lvgl\src\draw/lv_img_decoder.c ****  * @param open_cb a function to open an image
 240:..\..\..\arduinoLCD\test\Pain Drain\libraries\lvgl\src\draw/lv_img_decoder.c ****  */
 241:..\..\..\arduinoLCD\test\Pain Drain\libraries\lvgl\src\draw/lv_img_decoder.c **** void lv_img_decoder_set_open_cb(lv_img_decoder_t * decoder, lv_img_decoder_open_f_t open_cb)
 242:..\..\..\arduinoLCD\test\Pain Drain\libraries\lvgl\src\draw/lv_img_decoder.c **** {
 243:..\..\..\arduinoLCD\test\Pain Drain\libraries\lvgl\src\draw/lv_img_decoder.c ****     decoder->open_cb = open_cb;
 244:..\..\..\arduinoLCD\test\Pain Drain\libraries\lvgl\src\draw/lv_img_decoder.c **** }
 245:..\..\..\arduinoLCD\test\Pain Drain\libraries\lvgl\src\draw/lv_img_decoder.c **** 
 246:..\..\..\arduinoLCD\test\Pain Drain\libraries\lvgl\src\draw/lv_img_decoder.c **** /**
 247:..\..\..\arduinoLCD\test\Pain Drain\libraries\lvgl\src\draw/lv_img_decoder.c ****  * Set a callback to a decoded line of an image
 248:..\..\..\arduinoLCD\test\Pain Drain\libraries\lvgl\src\draw/lv_img_decoder.c ****  * @param decoder pointer to an image decoder
 249:..\..\..\arduinoLCD\test\Pain Drain\libraries\lvgl\src\draw/lv_img_decoder.c ****  * @param read_line_cb a function to read a line of an image
 250:..\..\..\arduinoLCD\test\Pain Drain\libraries\lvgl\src\draw/lv_img_decoder.c ****  */
 251:..\..\..\arduinoLCD\test\Pain Drain\libraries\lvgl\src\draw/lv_img_decoder.c **** void lv_img_decoder_set_read_line_cb(lv_img_decoder_t * decoder, lv_img_decoder_read_line_f_t read_
 252:..\..\..\arduinoLCD\test\Pain Drain\libraries\lvgl\src\draw/lv_img_decoder.c **** {
 253:..\..\..\arduinoLCD\test\Pain Drain\libraries\lvgl\src\draw/lv_img_decoder.c ****     decoder->read_line_cb = read_line_cb;
 254:..\..\..\arduinoLCD\test\Pain Drain\libraries\lvgl\src\draw/lv_img_decoder.c **** }
 255:..\..\..\arduinoLCD\test\Pain Drain\libraries\lvgl\src\draw/lv_img_decoder.c **** 
 256:..\..\..\arduinoLCD\test\Pain Drain\libraries\lvgl\src\draw/lv_img_decoder.c **** /**
 257:..\..\..\arduinoLCD\test\Pain Drain\libraries\lvgl\src\draw/lv_img_decoder.c ****  * Set a callback to close a decoding session. E.g. close files and free other resources.
 258:..\..\..\arduinoLCD\test\Pain Drain\libraries\lvgl\src\draw/lv_img_decoder.c ****  * @param decoder pointer to an image decoder
ARM GAS  C:\Users\haske\AppData\Local\Temp\ccufPcu5.s 			page 6


 259:..\..\..\arduinoLCD\test\Pain Drain\libraries\lvgl\src\draw/lv_img_decoder.c ****  * @param close_cb a function to close a decoding session
 260:..\..\..\arduinoLCD\test\Pain Drain\libraries\lvgl\src\draw/lv_img_decoder.c ****  */
 261:..\..\..\arduinoLCD\test\Pain Drain\libraries\lvgl\src\draw/lv_img_decoder.c **** void lv_img_decoder_set_close_cb(lv_img_decoder_t * decoder, lv_img_decoder_close_f_t close_cb)
 262:..\..\..\arduinoLCD\test\Pain Drain\libraries\lvgl\src\draw/lv_img_decoder.c **** {
 263:..\..\..\arduinoLCD\test\Pain Drain\libraries\lvgl\src\draw/lv_img_decoder.c ****     decoder->close_cb = close_cb;
 264:..\..\..\arduinoLCD\test\Pain Drain\libraries\lvgl\src\draw/lv_img_decoder.c **** }
 265:..\..\..\arduinoLCD\test\Pain Drain\libraries\lvgl\src\draw/lv_img_decoder.c **** 
 266:..\..\..\arduinoLCD\test\Pain Drain\libraries\lvgl\src\draw/lv_img_decoder.c **** /**
 267:..\..\..\arduinoLCD\test\Pain Drain\libraries\lvgl\src\draw/lv_img_decoder.c ****  * Get info about a built-in image
 268:..\..\..\arduinoLCD\test\Pain Drain\libraries\lvgl\src\draw/lv_img_decoder.c ****  * @param decoder the decoder where this function belongs
 269:..\..\..\arduinoLCD\test\Pain Drain\libraries\lvgl\src\draw/lv_img_decoder.c ****  * @param src the image source: pointer to an `lv_img_dsc_t` variable, a file path or a symbol
 270:..\..\..\arduinoLCD\test\Pain Drain\libraries\lvgl\src\draw/lv_img_decoder.c ****  * @param header store the image data here
 271:..\..\..\arduinoLCD\test\Pain Drain\libraries\lvgl\src\draw/lv_img_decoder.c ****  * @return LV_RES_OK: the info is successfully stored in `header`; LV_RES_INV: unknown format or ot
 272:..\..\..\arduinoLCD\test\Pain Drain\libraries\lvgl\src\draw/lv_img_decoder.c ****  */
 273:..\..\..\arduinoLCD\test\Pain Drain\libraries\lvgl\src\draw/lv_img_decoder.c **** lv_res_t lv_img_decoder_built_in_info(lv_img_decoder_t * decoder, const void * src, lv_img_header_t
 274:..\..\..\arduinoLCD\test\Pain Drain\libraries\lvgl\src\draw/lv_img_decoder.c **** {
  28              		.loc 1 274 0
  29              		.cfi_startproc
  30              		@ args = 0, pretend = 0, frame = 16
  31              		@ frame_needed = 0, uses_anonymous_args = 0
  32              	.LVL0:
  33 0000 30B5     		push	{r4, r5, lr}
  34              		.cfi_def_cfa_offset 12
  35              		.cfi_offset 4, -12
  36              		.cfi_offset 5, -8
  37              		.cfi_offset 14, -4
  38 0002 85B0     		sub	sp, sp, #20
  39              		.cfi_def_cfa_offset 32
  40 0004 0C00     		movs	r4, r1
  41 0006 1500     		movs	r5, r2
 275:..\..\..\arduinoLCD\test\Pain Drain\libraries\lvgl\src\draw/lv_img_decoder.c ****     LV_UNUSED(decoder); /*Unused*/
 276:..\..\..\arduinoLCD\test\Pain Drain\libraries\lvgl\src\draw/lv_img_decoder.c **** 
 277:..\..\..\arduinoLCD\test\Pain Drain\libraries\lvgl\src\draw/lv_img_decoder.c ****     lv_img_src_t src_type = lv_img_src_get_type(src);
  42              		.loc 1 277 0
  43 0008 0800     		movs	r0, r1
  44              	.LVL1:
  45 000a FFF7FEFF 		bl	lv_img_src_get_type
  46              	.LVL2:
 278:..\..\..\arduinoLCD\test\Pain Drain\libraries\lvgl\src\draw/lv_img_decoder.c ****     if(src_type == LV_IMG_SRC_VARIABLE) {
  47              		.loc 1 278 0
  48 000e 0028     		cmp	r0, #0
  49 0010 20D1     		bne	.L2
  50              	.LBB12:
 279:..\..\..\arduinoLCD\test\Pain Drain\libraries\lvgl\src\draw/lv_img_decoder.c ****         lv_img_cf_t cf = ((lv_img_dsc_t *)src)->header.cf;
  51              		.loc 1 279 0
  52 0012 2378     		ldrb	r3, [r4]
  53 0014 DB06     		lsls	r3, r3, #27
  54 0016 DB0E     		lsrs	r3, r3, #27
  55              	.LVL3:
 280:..\..\..\arduinoLCD\test\Pain Drain\libraries\lvgl\src\draw/lv_img_decoder.c ****         if(cf < CF_BUILT_IN_FIRST || cf > CF_BUILT_IN_LAST) return LV_RES_INV;
  56              		.loc 1 280 0
  57 0018 043B     		subs	r3, r3, #4
  58 001a DBB2     		uxtb	r3, r3
  59 001c 102B     		cmp	r3, #16
  60 001e 58D8     		bhi	.L9
 281:..\..\..\arduinoLCD\test\Pain Drain\libraries\lvgl\src\draw/lv_img_decoder.c **** 
 282:..\..\..\arduinoLCD\test\Pain Drain\libraries\lvgl\src\draw/lv_img_decoder.c ****         header->w  = ((lv_img_dsc_t *)src)->header.w;
ARM GAS  C:\Users\haske\AppData\Local\Temp\ccufPcu5.s 			page 7


  61              		.loc 1 282 0
  62 0020 2368     		ldr	r3, [r4]
  63 0022 DB02     		lsls	r3, r3, #11
  64 0024 5B0D     		lsrs	r3, r3, #21
  65 0026 9A02     		lsls	r2, r3, #10
  66 0028 2C4B     		ldr	r3, .L11
  67 002a 2968     		ldr	r1, [r5]
  68 002c 0B40     		ands	r3, r1
  69 002e 1343     		orrs	r3, r2
  70 0030 2B60     		str	r3, [r5]
  71              	.LVL4:
 283:..\..\..\arduinoLCD\test\Pain Drain\libraries\lvgl\src\draw/lv_img_decoder.c ****         header->h  = ((lv_img_dsc_t *)src)->header.h;
  72              		.loc 1 283 0
  73 0032 6388     		ldrh	r3, [r4, #2]
  74 0034 5B09     		lsrs	r3, r3, #5
  75 0036 5A01     		lsls	r2, r3, #5
  76 0038 6B88     		ldrh	r3, [r5, #2]
  77 003a 1F21     		movs	r1, #31
  78 003c 0B40     		ands	r3, r1
  79 003e 1343     		orrs	r3, r2
  80 0040 6B80     		strh	r3, [r5, #2]
 284:..\..\..\arduinoLCD\test\Pain Drain\libraries\lvgl\src\draw/lv_img_decoder.c ****         header->cf = ((lv_img_dsc_t *)src)->header.cf;
  81              		.loc 1 284 0
  82 0042 2378     		ldrb	r3, [r4]
  83 0044 DB06     		lsls	r3, r3, #27
  84 0046 DA0E     		lsrs	r2, r3, #27
  85 0048 2B78     		ldrb	r3, [r5]
  86 004a 8B43     		bics	r3, r1
  87 004c 1343     		orrs	r3, r2
  88 004e 2B70     		strb	r3, [r5]
  89              	.LBE12:
 285:..\..\..\arduinoLCD\test\Pain Drain\libraries\lvgl\src\draw/lv_img_decoder.c ****     }
 286:..\..\..\arduinoLCD\test\Pain Drain\libraries\lvgl\src\draw/lv_img_decoder.c ****     else if(src_type == LV_IMG_SRC_FILE) {
 287:..\..\..\arduinoLCD\test\Pain Drain\libraries\lvgl\src\draw/lv_img_decoder.c ****         /*Support only "*.bin" files*/
 288:..\..\..\arduinoLCD\test\Pain Drain\libraries\lvgl\src\draw/lv_img_decoder.c ****         if(strcmp(lv_fs_get_ext(src), "bin")) return LV_RES_INV;
 289:..\..\..\arduinoLCD\test\Pain Drain\libraries\lvgl\src\draw/lv_img_decoder.c **** 
 290:..\..\..\arduinoLCD\test\Pain Drain\libraries\lvgl\src\draw/lv_img_decoder.c ****         lv_fs_file_t f;
 291:..\..\..\arduinoLCD\test\Pain Drain\libraries\lvgl\src\draw/lv_img_decoder.c ****         lv_fs_res_t res = lv_fs_open(&f, src, LV_FS_MODE_RD);
 292:..\..\..\arduinoLCD\test\Pain Drain\libraries\lvgl\src\draw/lv_img_decoder.c ****         if(res == LV_FS_RES_OK) {
 293:..\..\..\arduinoLCD\test\Pain Drain\libraries\lvgl\src\draw/lv_img_decoder.c ****             uint32_t rn;
 294:..\..\..\arduinoLCD\test\Pain Drain\libraries\lvgl\src\draw/lv_img_decoder.c ****             res = lv_fs_read(&f, header, sizeof(lv_img_header_t), &rn);
 295:..\..\..\arduinoLCD\test\Pain Drain\libraries\lvgl\src\draw/lv_img_decoder.c ****             lv_fs_close(&f);
 296:..\..\..\arduinoLCD\test\Pain Drain\libraries\lvgl\src\draw/lv_img_decoder.c ****             if(res != LV_FS_RES_OK || rn != sizeof(lv_img_header_t)) {
 297:..\..\..\arduinoLCD\test\Pain Drain\libraries\lvgl\src\draw/lv_img_decoder.c ****                 LV_LOG_WARN("Image get info get read file header");
 298:..\..\..\arduinoLCD\test\Pain Drain\libraries\lvgl\src\draw/lv_img_decoder.c ****                 return LV_RES_INV;
 299:..\..\..\arduinoLCD\test\Pain Drain\libraries\lvgl\src\draw/lv_img_decoder.c ****             }
 300:..\..\..\arduinoLCD\test\Pain Drain\libraries\lvgl\src\draw/lv_img_decoder.c ****         }
 301:..\..\..\arduinoLCD\test\Pain Drain\libraries\lvgl\src\draw/lv_img_decoder.c **** 
 302:..\..\..\arduinoLCD\test\Pain Drain\libraries\lvgl\src\draw/lv_img_decoder.c ****         if(header->cf < CF_BUILT_IN_FIRST || header->cf > CF_BUILT_IN_LAST) return LV_RES_INV;
 303:..\..\..\arduinoLCD\test\Pain Drain\libraries\lvgl\src\draw/lv_img_decoder.c ****     }
 304:..\..\..\arduinoLCD\test\Pain Drain\libraries\lvgl\src\draw/lv_img_decoder.c ****     else if(src_type == LV_IMG_SRC_SYMBOL) {
 305:..\..\..\arduinoLCD\test\Pain Drain\libraries\lvgl\src\draw/lv_img_decoder.c ****         /*The size depend on the font but it is unknown here. It should be handled outside of the
 306:..\..\..\arduinoLCD\test\Pain Drain\libraries\lvgl\src\draw/lv_img_decoder.c ****          *function*/
 307:..\..\..\arduinoLCD\test\Pain Drain\libraries\lvgl\src\draw/lv_img_decoder.c ****         header->w = 1;
 308:..\..\..\arduinoLCD\test\Pain Drain\libraries\lvgl\src\draw/lv_img_decoder.c ****         header->h = 1;
 309:..\..\..\arduinoLCD\test\Pain Drain\libraries\lvgl\src\draw/lv_img_decoder.c ****         /*Symbols always have transparent parts. Important because of cover check in the draw
 310:..\..\..\arduinoLCD\test\Pain Drain\libraries\lvgl\src\draw/lv_img_decoder.c ****          *function. The actual value doesn't matter because lv_draw_label will draw it*/
ARM GAS  C:\Users\haske\AppData\Local\Temp\ccufPcu5.s 			page 8


 311:..\..\..\arduinoLCD\test\Pain Drain\libraries\lvgl\src\draw/lv_img_decoder.c ****         header->cf = LV_IMG_CF_ALPHA_1BIT;
 312:..\..\..\arduinoLCD\test\Pain Drain\libraries\lvgl\src\draw/lv_img_decoder.c ****     }
 313:..\..\..\arduinoLCD\test\Pain Drain\libraries\lvgl\src\draw/lv_img_decoder.c ****     else {
 314:..\..\..\arduinoLCD\test\Pain Drain\libraries\lvgl\src\draw/lv_img_decoder.c ****         LV_LOG_WARN("Image get info found unknown src type");
 315:..\..\..\arduinoLCD\test\Pain Drain\libraries\lvgl\src\draw/lv_img_decoder.c ****         return LV_RES_INV;
 316:..\..\..\arduinoLCD\test\Pain Drain\libraries\lvgl\src\draw/lv_img_decoder.c ****     }
 317:..\..\..\arduinoLCD\test\Pain Drain\libraries\lvgl\src\draw/lv_img_decoder.c ****     return LV_RES_OK;
  90              		.loc 1 317 0
  91 0050 0130     		adds	r0, r0, #1
  92              	.LVL5:
  93 0052 41E0     		b	.L3
  94              	.LVL6:
  95              	.L2:
 286:..\..\..\arduinoLCD\test\Pain Drain\libraries\lvgl\src\draw/lv_img_decoder.c ****         /*Support only "*.bin" files*/
  96              		.loc 1 286 0
  97 0054 0128     		cmp	r0, #1
  98 0056 29D1     		bne	.L4
  99              	.LBB13:
 288:..\..\..\arduinoLCD\test\Pain Drain\libraries\lvgl\src\draw/lv_img_decoder.c **** 
 100              		.loc 1 288 0
 101 0058 2000     		movs	r0, r4
 102              	.LVL7:
 103 005a FFF7FEFF 		bl	lv_fs_get_ext
 104              	.LVL8:
 105 005e 2049     		ldr	r1, .L11+4
 106 0060 FFF7FEFF 		bl	strcmp
 107              	.LVL9:
 108 0064 0028     		cmp	r0, #0
 109 0066 1FD1     		bne	.L5
 291:..\..\..\arduinoLCD\test\Pain Drain\libraries\lvgl\src\draw/lv_img_decoder.c ****         if(res == LV_FS_RES_OK) {
 110              		.loc 1 291 0
 111 0068 0222     		movs	r2, #2
 112 006a 2100     		movs	r1, r4
 113 006c 01A8     		add	r0, sp, #4
 114 006e FFF7FEFF 		bl	lv_fs_open
 115              	.LVL10:
 292:..\..\..\arduinoLCD\test\Pain Drain\libraries\lvgl\src\draw/lv_img_decoder.c ****             uint32_t rn;
 116              		.loc 1 292 0
 117 0072 0028     		cmp	r0, #0
 118 0074 0ED1     		bne	.L6
 119              	.LBB14:
 294:..\..\..\arduinoLCD\test\Pain Drain\libraries\lvgl\src\draw/lv_img_decoder.c ****             lv_fs_close(&f);
 120              		.loc 1 294 0
 121 0076 6B46     		mov	r3, sp
 122 0078 0422     		movs	r2, #4
 123 007a 2900     		movs	r1, r5
 124 007c 01A8     		add	r0, sp, #4
 125              	.LVL11:
 126 007e FFF7FEFF 		bl	lv_fs_read
 127              	.LVL12:
 128 0082 0400     		movs	r4, r0
 129              	.LVL13:
 295:..\..\..\arduinoLCD\test\Pain Drain\libraries\lvgl\src\draw/lv_img_decoder.c ****             if(res != LV_FS_RES_OK || rn != sizeof(lv_img_header_t)) {
 130              		.loc 1 295 0
 131 0084 01A8     		add	r0, sp, #4
 132 0086 FFF7FEFF 		bl	lv_fs_close
 133              	.LVL14:
ARM GAS  C:\Users\haske\AppData\Local\Temp\ccufPcu5.s 			page 9


 296:..\..\..\arduinoLCD\test\Pain Drain\libraries\lvgl\src\draw/lv_img_decoder.c ****                 LV_LOG_WARN("Image get info get read file header");
 134              		.loc 1 296 0
 135 008a 002C     		cmp	r4, #0
 136 008c 0CD1     		bne	.L5
 296:..\..\..\arduinoLCD\test\Pain Drain\libraries\lvgl\src\draw/lv_img_decoder.c ****                 LV_LOG_WARN("Image get info get read file header");
 137              		.loc 1 296 0 is_stmt 0 discriminator 1
 138 008e 009B     		ldr	r3, [sp]
 139 0090 042B     		cmp	r3, #4
 140 0092 09D1     		bne	.L5
 141              	.LVL15:
 142              	.L6:
 143              	.LBE14:
 302:..\..\..\arduinoLCD\test\Pain Drain\libraries\lvgl\src\draw/lv_img_decoder.c ****     }
 144              		.loc 1 302 0 is_stmt 1
 145 0094 2B78     		ldrb	r3, [r5]
 146 0096 DB06     		lsls	r3, r3, #27
 147 0098 DB0E     		lsrs	r3, r3, #27
 148 009a 1C33     		adds	r3, r3, #28
 149 009c 1F22     		movs	r2, #31
 150 009e 1340     		ands	r3, r2
 151 00a0 102B     		cmp	r3, #16
 152 00a2 01D8     		bhi	.L5
 153              	.LBE13:
 154              		.loc 1 317 0
 155 00a4 0120     		movs	r0, #1
 156 00a6 17E0     		b	.L3
 157              	.L5:
 158              	.LBB15:
 288:..\..\..\arduinoLCD\test\Pain Drain\libraries\lvgl\src\draw/lv_img_decoder.c **** 
 159              		.loc 1 288 0 discriminator 2
 160 00a8 0020     		movs	r0, #0
 161 00aa 15E0     		b	.L3
 162              	.LVL16:
 163              	.L4:
 164              	.LBE15:
 304:..\..\..\arduinoLCD\test\Pain Drain\libraries\lvgl\src\draw/lv_img_decoder.c ****         /*The size depend on the font but it is unknown here. It should be handled outside of the
 165              		.loc 1 304 0
 166 00ac 0228     		cmp	r0, #2
 167 00ae 12D1     		bne	.L10
 307:..\..\..\arduinoLCD\test\Pain Drain\libraries\lvgl\src\draw/lv_img_decoder.c ****         header->h = 1;
 168              		.loc 1 307 0
 169 00b0 0A4B     		ldr	r3, .L11
 170 00b2 2A68     		ldr	r2, [r5]
 171 00b4 1340     		ands	r3, r2
 172 00b6 8022     		movs	r2, #128
 173 00b8 D200     		lsls	r2, r2, #3
 174 00ba 1343     		orrs	r3, r2
 175 00bc 2B60     		str	r3, [r5]
 308:..\..\..\arduinoLCD\test\Pain Drain\libraries\lvgl\src\draw/lv_img_decoder.c ****         /*Symbols always have transparent parts. Important because of cover check in the draw
 176              		.loc 1 308 0
 177 00be 2022     		movs	r2, #32
 178 00c0 6A80     		strh	r2, [r5, #2]
 311:..\..\..\arduinoLCD\test\Pain Drain\libraries\lvgl\src\draw/lv_img_decoder.c ****     }
 179              		.loc 1 311 0
 180 00c2 DBB2     		uxtb	r3, r3
 181 00c4 013A     		subs	r2, r2, #1
 182 00c6 9343     		bics	r3, r2
ARM GAS  C:\Users\haske\AppData\Local\Temp\ccufPcu5.s 			page 10


 183 00c8 0B22     		movs	r2, #11
 184 00ca 1343     		orrs	r3, r2
 185 00cc 2B70     		strb	r3, [r5]
 186              		.loc 1 317 0
 187 00ce 0138     		subs	r0, r0, #1
 188              	.LVL17:
 189 00d0 02E0     		b	.L3
 190              	.LVL18:
 191              	.L9:
 192              	.LBB16:
 280:..\..\..\arduinoLCD\test\Pain Drain\libraries\lvgl\src\draw/lv_img_decoder.c **** 
 193              		.loc 1 280 0
 194 00d2 0020     		movs	r0, #0
 195              	.LVL19:
 196 00d4 00E0     		b	.L3
 197              	.LVL20:
 198              	.L10:
 199              	.LBE16:
 315:..\..\..\arduinoLCD\test\Pain Drain\libraries\lvgl\src\draw/lv_img_decoder.c ****     }
 200              		.loc 1 315 0
 201 00d6 0020     		movs	r0, #0
 202              	.LVL21:
 203              	.L3:
 318:..\..\..\arduinoLCD\test\Pain Drain\libraries\lvgl\src\draw/lv_img_decoder.c **** }
 204              		.loc 1 318 0
 205 00d8 05B0     		add	sp, sp, #20
 206              		@ sp needed
 207              	.LVL22:
 208 00da 30BD     		pop	{r4, r5, pc}
 209              	.L12:
 210              		.align	2
 211              	.L11:
 212 00dc FF03E0FF 		.word	-2096129
 213 00e0 00000000 		.word	.LC2
 214              		.cfi_endproc
 215              	.LFE67:
 216              		.size	lv_img_decoder_built_in_info, .-lv_img_decoder_built_in_info
 217              		.section	.text.lv_img_decoder_built_in_close,"ax",%progbits
 218              		.align	2
 219              		.global	lv_img_decoder_built_in_close
 220              		.code	16
 221              		.thumb_func
 222              		.type	lv_img_decoder_built_in_close, %function
 223              	lv_img_decoder_built_in_close:
 224              	.LFB70:
 319:..\..\..\arduinoLCD\test\Pain Drain\libraries\lvgl\src\draw/lv_img_decoder.c **** 
 320:..\..\..\arduinoLCD\test\Pain Drain\libraries\lvgl\src\draw/lv_img_decoder.c **** /**
 321:..\..\..\arduinoLCD\test\Pain Drain\libraries\lvgl\src\draw/lv_img_decoder.c ****  * Open a built in image
 322:..\..\..\arduinoLCD\test\Pain Drain\libraries\lvgl\src\draw/lv_img_decoder.c ****  * @param decoder the decoder where this function belongs
 323:..\..\..\arduinoLCD\test\Pain Drain\libraries\lvgl\src\draw/lv_img_decoder.c ****  * @param dsc pointer to decoder descriptor. `src`, `color` are already initialized in it.
 324:..\..\..\arduinoLCD\test\Pain Drain\libraries\lvgl\src\draw/lv_img_decoder.c ****  * @return LV_RES_OK: the info is successfully stored in `header`; LV_RES_INV: unknown format or ot
 325:..\..\..\arduinoLCD\test\Pain Drain\libraries\lvgl\src\draw/lv_img_decoder.c ****  */
 326:..\..\..\arduinoLCD\test\Pain Drain\libraries\lvgl\src\draw/lv_img_decoder.c **** lv_res_t lv_img_decoder_built_in_open(lv_img_decoder_t * decoder, lv_img_decoder_dsc_t * dsc)
 327:..\..\..\arduinoLCD\test\Pain Drain\libraries\lvgl\src\draw/lv_img_decoder.c **** {
 328:..\..\..\arduinoLCD\test\Pain Drain\libraries\lvgl\src\draw/lv_img_decoder.c ****     /*Open the file if it's a file*/
 329:..\..\..\arduinoLCD\test\Pain Drain\libraries\lvgl\src\draw/lv_img_decoder.c ****     if(dsc->src_type == LV_IMG_SRC_FILE) {
 330:..\..\..\arduinoLCD\test\Pain Drain\libraries\lvgl\src\draw/lv_img_decoder.c ****         /*Support only "*.bin" files*/
ARM GAS  C:\Users\haske\AppData\Local\Temp\ccufPcu5.s 			page 11


 331:..\..\..\arduinoLCD\test\Pain Drain\libraries\lvgl\src\draw/lv_img_decoder.c ****         if(strcmp(lv_fs_get_ext(dsc->src), "bin")) return LV_RES_INV;
 332:..\..\..\arduinoLCD\test\Pain Drain\libraries\lvgl\src\draw/lv_img_decoder.c **** 
 333:..\..\..\arduinoLCD\test\Pain Drain\libraries\lvgl\src\draw/lv_img_decoder.c ****         lv_fs_file_t f;
 334:..\..\..\arduinoLCD\test\Pain Drain\libraries\lvgl\src\draw/lv_img_decoder.c ****         lv_fs_res_t res = lv_fs_open(&f, dsc->src, LV_FS_MODE_RD);
 335:..\..\..\arduinoLCD\test\Pain Drain\libraries\lvgl\src\draw/lv_img_decoder.c ****         if(res != LV_FS_RES_OK) {
 336:..\..\..\arduinoLCD\test\Pain Drain\libraries\lvgl\src\draw/lv_img_decoder.c ****             LV_LOG_WARN("Built-in image decoder can't open the file");
 337:..\..\..\arduinoLCD\test\Pain Drain\libraries\lvgl\src\draw/lv_img_decoder.c ****             return LV_RES_INV;
 338:..\..\..\arduinoLCD\test\Pain Drain\libraries\lvgl\src\draw/lv_img_decoder.c ****         }
 339:..\..\..\arduinoLCD\test\Pain Drain\libraries\lvgl\src\draw/lv_img_decoder.c **** 
 340:..\..\..\arduinoLCD\test\Pain Drain\libraries\lvgl\src\draw/lv_img_decoder.c ****         /*If the file was open successfully save the file descriptor*/
 341:..\..\..\arduinoLCD\test\Pain Drain\libraries\lvgl\src\draw/lv_img_decoder.c ****         if(dsc->user_data == NULL) {
 342:..\..\..\arduinoLCD\test\Pain Drain\libraries\lvgl\src\draw/lv_img_decoder.c ****             dsc->user_data = lv_mem_alloc(sizeof(lv_img_decoder_built_in_data_t));
 343:..\..\..\arduinoLCD\test\Pain Drain\libraries\lvgl\src\draw/lv_img_decoder.c ****             LV_ASSERT_MALLOC(dsc->user_data);
 344:..\..\..\arduinoLCD\test\Pain Drain\libraries\lvgl\src\draw/lv_img_decoder.c ****             if(dsc->user_data == NULL) {
 345:..\..\..\arduinoLCD\test\Pain Drain\libraries\lvgl\src\draw/lv_img_decoder.c ****                 LV_LOG_ERROR("img_decoder_built_in_open: out of memory");
 346:..\..\..\arduinoLCD\test\Pain Drain\libraries\lvgl\src\draw/lv_img_decoder.c ****                 lv_fs_close(&f);
 347:..\..\..\arduinoLCD\test\Pain Drain\libraries\lvgl\src\draw/lv_img_decoder.c ****                 return LV_RES_INV;
 348:..\..\..\arduinoLCD\test\Pain Drain\libraries\lvgl\src\draw/lv_img_decoder.c ****             }
 349:..\..\..\arduinoLCD\test\Pain Drain\libraries\lvgl\src\draw/lv_img_decoder.c ****             lv_memset_00(dsc->user_data, sizeof(lv_img_decoder_built_in_data_t));
 350:..\..\..\arduinoLCD\test\Pain Drain\libraries\lvgl\src\draw/lv_img_decoder.c ****         }
 351:..\..\..\arduinoLCD\test\Pain Drain\libraries\lvgl\src\draw/lv_img_decoder.c **** 
 352:..\..\..\arduinoLCD\test\Pain Drain\libraries\lvgl\src\draw/lv_img_decoder.c ****         lv_img_decoder_built_in_data_t * user_data = dsc->user_data;
 353:..\..\..\arduinoLCD\test\Pain Drain\libraries\lvgl\src\draw/lv_img_decoder.c ****         lv_memcpy_small(&user_data->f, &f, sizeof(f));
 354:..\..\..\arduinoLCD\test\Pain Drain\libraries\lvgl\src\draw/lv_img_decoder.c ****     }
 355:..\..\..\arduinoLCD\test\Pain Drain\libraries\lvgl\src\draw/lv_img_decoder.c ****     else if(dsc->src_type == LV_IMG_SRC_VARIABLE) {
 356:..\..\..\arduinoLCD\test\Pain Drain\libraries\lvgl\src\draw/lv_img_decoder.c ****         /*The variables should have valid data*/
 357:..\..\..\arduinoLCD\test\Pain Drain\libraries\lvgl\src\draw/lv_img_decoder.c ****         if(((lv_img_dsc_t *)dsc->src)->data == NULL) {
 358:..\..\..\arduinoLCD\test\Pain Drain\libraries\lvgl\src\draw/lv_img_decoder.c ****             return LV_RES_INV;
 359:..\..\..\arduinoLCD\test\Pain Drain\libraries\lvgl\src\draw/lv_img_decoder.c ****         }
 360:..\..\..\arduinoLCD\test\Pain Drain\libraries\lvgl\src\draw/lv_img_decoder.c ****     }
 361:..\..\..\arduinoLCD\test\Pain Drain\libraries\lvgl\src\draw/lv_img_decoder.c **** 
 362:..\..\..\arduinoLCD\test\Pain Drain\libraries\lvgl\src\draw/lv_img_decoder.c ****     lv_img_cf_t cf = dsc->header.cf;
 363:..\..\..\arduinoLCD\test\Pain Drain\libraries\lvgl\src\draw/lv_img_decoder.c ****     /*Process true color formats*/
 364:..\..\..\arduinoLCD\test\Pain Drain\libraries\lvgl\src\draw/lv_img_decoder.c ****     if(cf == LV_IMG_CF_TRUE_COLOR || cf == LV_IMG_CF_TRUE_COLOR_ALPHA ||
 365:..\..\..\arduinoLCD\test\Pain Drain\libraries\lvgl\src\draw/lv_img_decoder.c ****        cf == LV_IMG_CF_TRUE_COLOR_CHROMA_KEYED || cf == LV_IMG_CF_RGB565A8 ||
 366:..\..\..\arduinoLCD\test\Pain Drain\libraries\lvgl\src\draw/lv_img_decoder.c ****        cf == LV_IMG_CF_ALPHA_8BIT) {
 367:..\..\..\arduinoLCD\test\Pain Drain\libraries\lvgl\src\draw/lv_img_decoder.c ****         if(dsc->src_type == LV_IMG_SRC_VARIABLE) {
 368:..\..\..\arduinoLCD\test\Pain Drain\libraries\lvgl\src\draw/lv_img_decoder.c ****             /*In case of uncompressed formats the image stored in the ROM/RAM.
 369:..\..\..\arduinoLCD\test\Pain Drain\libraries\lvgl\src\draw/lv_img_decoder.c ****              *So simply give its pointer*/
 370:..\..\..\arduinoLCD\test\Pain Drain\libraries\lvgl\src\draw/lv_img_decoder.c ****             dsc->img_data = ((lv_img_dsc_t *)dsc->src)->data;
 371:..\..\..\arduinoLCD\test\Pain Drain\libraries\lvgl\src\draw/lv_img_decoder.c ****             return LV_RES_OK;
 372:..\..\..\arduinoLCD\test\Pain Drain\libraries\lvgl\src\draw/lv_img_decoder.c ****         }
 373:..\..\..\arduinoLCD\test\Pain Drain\libraries\lvgl\src\draw/lv_img_decoder.c ****         else {
 374:..\..\..\arduinoLCD\test\Pain Drain\libraries\lvgl\src\draw/lv_img_decoder.c ****             /*If it's a file it need to be read line by line later*/
 375:..\..\..\arduinoLCD\test\Pain Drain\libraries\lvgl\src\draw/lv_img_decoder.c ****             return LV_RES_OK;
 376:..\..\..\arduinoLCD\test\Pain Drain\libraries\lvgl\src\draw/lv_img_decoder.c ****         }
 377:..\..\..\arduinoLCD\test\Pain Drain\libraries\lvgl\src\draw/lv_img_decoder.c ****     }
 378:..\..\..\arduinoLCD\test\Pain Drain\libraries\lvgl\src\draw/lv_img_decoder.c ****     /*Process indexed images. Build a palette*/
 379:..\..\..\arduinoLCD\test\Pain Drain\libraries\lvgl\src\draw/lv_img_decoder.c ****     else if(cf == LV_IMG_CF_INDEXED_1BIT || cf == LV_IMG_CF_INDEXED_2BIT || cf == LV_IMG_CF_INDEXED
 380:..\..\..\arduinoLCD\test\Pain Drain\libraries\lvgl\src\draw/lv_img_decoder.c ****             cf == LV_IMG_CF_INDEXED_8BIT) {
 381:..\..\..\arduinoLCD\test\Pain Drain\libraries\lvgl\src\draw/lv_img_decoder.c ****         uint8_t px_size       = lv_img_cf_get_px_size(cf);
 382:..\..\..\arduinoLCD\test\Pain Drain\libraries\lvgl\src\draw/lv_img_decoder.c ****         uint32_t palette_size = 1 << px_size;
 383:..\..\..\arduinoLCD\test\Pain Drain\libraries\lvgl\src\draw/lv_img_decoder.c **** 
 384:..\..\..\arduinoLCD\test\Pain Drain\libraries\lvgl\src\draw/lv_img_decoder.c ****         /*Allocate the palette*/
 385:..\..\..\arduinoLCD\test\Pain Drain\libraries\lvgl\src\draw/lv_img_decoder.c ****         if(dsc->user_data == NULL) {
 386:..\..\..\arduinoLCD\test\Pain Drain\libraries\lvgl\src\draw/lv_img_decoder.c ****             dsc->user_data = lv_mem_alloc(sizeof(lv_img_decoder_built_in_data_t));
 387:..\..\..\arduinoLCD\test\Pain Drain\libraries\lvgl\src\draw/lv_img_decoder.c ****             LV_ASSERT_MALLOC(dsc->user_data);
ARM GAS  C:\Users\haske\AppData\Local\Temp\ccufPcu5.s 			page 12


 388:..\..\..\arduinoLCD\test\Pain Drain\libraries\lvgl\src\draw/lv_img_decoder.c ****             if(dsc->user_data == NULL) {
 389:..\..\..\arduinoLCD\test\Pain Drain\libraries\lvgl\src\draw/lv_img_decoder.c ****                 LV_LOG_ERROR("img_decoder_built_in_open: out of memory");
 390:..\..\..\arduinoLCD\test\Pain Drain\libraries\lvgl\src\draw/lv_img_decoder.c ****                 return LV_RES_INV;
 391:..\..\..\arduinoLCD\test\Pain Drain\libraries\lvgl\src\draw/lv_img_decoder.c ****             }
 392:..\..\..\arduinoLCD\test\Pain Drain\libraries\lvgl\src\draw/lv_img_decoder.c ****             lv_memset_00(dsc->user_data, sizeof(lv_img_decoder_built_in_data_t));
 393:..\..\..\arduinoLCD\test\Pain Drain\libraries\lvgl\src\draw/lv_img_decoder.c ****         }
 394:..\..\..\arduinoLCD\test\Pain Drain\libraries\lvgl\src\draw/lv_img_decoder.c **** 
 395:..\..\..\arduinoLCD\test\Pain Drain\libraries\lvgl\src\draw/lv_img_decoder.c ****         lv_img_decoder_built_in_data_t * user_data = dsc->user_data;
 396:..\..\..\arduinoLCD\test\Pain Drain\libraries\lvgl\src\draw/lv_img_decoder.c ****         user_data->palette                         = lv_mem_alloc(palette_size * sizeof(lv_color_t)
 397:..\..\..\arduinoLCD\test\Pain Drain\libraries\lvgl\src\draw/lv_img_decoder.c ****         LV_ASSERT_MALLOC(user_data->palette);
 398:..\..\..\arduinoLCD\test\Pain Drain\libraries\lvgl\src\draw/lv_img_decoder.c ****         user_data->opa                             = lv_mem_alloc(palette_size * sizeof(lv_opa_t));
 399:..\..\..\arduinoLCD\test\Pain Drain\libraries\lvgl\src\draw/lv_img_decoder.c ****         LV_ASSERT_MALLOC(user_data->opa);
 400:..\..\..\arduinoLCD\test\Pain Drain\libraries\lvgl\src\draw/lv_img_decoder.c ****         if(user_data->palette == NULL || user_data->opa == NULL) {
 401:..\..\..\arduinoLCD\test\Pain Drain\libraries\lvgl\src\draw/lv_img_decoder.c ****             LV_LOG_ERROR("img_decoder_built_in_open: out of memory");
 402:..\..\..\arduinoLCD\test\Pain Drain\libraries\lvgl\src\draw/lv_img_decoder.c ****             lv_img_decoder_built_in_close(decoder, dsc);
 403:..\..\..\arduinoLCD\test\Pain Drain\libraries\lvgl\src\draw/lv_img_decoder.c ****             return LV_RES_INV;
 404:..\..\..\arduinoLCD\test\Pain Drain\libraries\lvgl\src\draw/lv_img_decoder.c ****         }
 405:..\..\..\arduinoLCD\test\Pain Drain\libraries\lvgl\src\draw/lv_img_decoder.c **** 
 406:..\..\..\arduinoLCD\test\Pain Drain\libraries\lvgl\src\draw/lv_img_decoder.c ****         if(dsc->src_type == LV_IMG_SRC_FILE) {
 407:..\..\..\arduinoLCD\test\Pain Drain\libraries\lvgl\src\draw/lv_img_decoder.c ****             /*Read the palette from file*/
 408:..\..\..\arduinoLCD\test\Pain Drain\libraries\lvgl\src\draw/lv_img_decoder.c ****             lv_fs_seek(&user_data->f, 4, LV_FS_SEEK_SET); /*Skip the header*/
 409:..\..\..\arduinoLCD\test\Pain Drain\libraries\lvgl\src\draw/lv_img_decoder.c ****             lv_color32_t cur_color;
 410:..\..\..\arduinoLCD\test\Pain Drain\libraries\lvgl\src\draw/lv_img_decoder.c ****             uint32_t i;
 411:..\..\..\arduinoLCD\test\Pain Drain\libraries\lvgl\src\draw/lv_img_decoder.c ****             for(i = 0; i < palette_size; i++) {
 412:..\..\..\arduinoLCD\test\Pain Drain\libraries\lvgl\src\draw/lv_img_decoder.c ****                 lv_fs_read(&user_data->f, &cur_color, sizeof(lv_color32_t), NULL);
 413:..\..\..\arduinoLCD\test\Pain Drain\libraries\lvgl\src\draw/lv_img_decoder.c ****                 user_data->palette[i] = lv_color_make(cur_color.ch.red, cur_color.ch.green, cur_col
 414:..\..\..\arduinoLCD\test\Pain Drain\libraries\lvgl\src\draw/lv_img_decoder.c ****                 user_data->opa[i]     = cur_color.ch.alpha;
 415:..\..\..\arduinoLCD\test\Pain Drain\libraries\lvgl\src\draw/lv_img_decoder.c ****             }
 416:..\..\..\arduinoLCD\test\Pain Drain\libraries\lvgl\src\draw/lv_img_decoder.c ****         }
 417:..\..\..\arduinoLCD\test\Pain Drain\libraries\lvgl\src\draw/lv_img_decoder.c ****         else {
 418:..\..\..\arduinoLCD\test\Pain Drain\libraries\lvgl\src\draw/lv_img_decoder.c ****             /*The palette begins in the beginning of the image data. Just point to it.*/
 419:..\..\..\arduinoLCD\test\Pain Drain\libraries\lvgl\src\draw/lv_img_decoder.c ****             lv_color32_t * palette_p = (lv_color32_t *)((lv_img_dsc_t *)dsc->src)->data;
 420:..\..\..\arduinoLCD\test\Pain Drain\libraries\lvgl\src\draw/lv_img_decoder.c **** 
 421:..\..\..\arduinoLCD\test\Pain Drain\libraries\lvgl\src\draw/lv_img_decoder.c ****             uint32_t i;
 422:..\..\..\arduinoLCD\test\Pain Drain\libraries\lvgl\src\draw/lv_img_decoder.c ****             for(i = 0; i < palette_size; i++) {
 423:..\..\..\arduinoLCD\test\Pain Drain\libraries\lvgl\src\draw/lv_img_decoder.c ****                 user_data->palette[i] = lv_color_make(palette_p[i].ch.red, palette_p[i].ch.green, p
 424:..\..\..\arduinoLCD\test\Pain Drain\libraries\lvgl\src\draw/lv_img_decoder.c ****                 user_data->opa[i]     = palette_p[i].ch.alpha;
 425:..\..\..\arduinoLCD\test\Pain Drain\libraries\lvgl\src\draw/lv_img_decoder.c ****             }
 426:..\..\..\arduinoLCD\test\Pain Drain\libraries\lvgl\src\draw/lv_img_decoder.c ****         }
 427:..\..\..\arduinoLCD\test\Pain Drain\libraries\lvgl\src\draw/lv_img_decoder.c **** 
 428:..\..\..\arduinoLCD\test\Pain Drain\libraries\lvgl\src\draw/lv_img_decoder.c ****         return LV_RES_OK;
 429:..\..\..\arduinoLCD\test\Pain Drain\libraries\lvgl\src\draw/lv_img_decoder.c ****     }
 430:..\..\..\arduinoLCD\test\Pain Drain\libraries\lvgl\src\draw/lv_img_decoder.c ****     /*Alpha indexed images.*/
 431:..\..\..\arduinoLCD\test\Pain Drain\libraries\lvgl\src\draw/lv_img_decoder.c ****     else if(cf == LV_IMG_CF_ALPHA_1BIT || cf == LV_IMG_CF_ALPHA_2BIT || cf == LV_IMG_CF_ALPHA_4BIT)
 432:..\..\..\arduinoLCD\test\Pain Drain\libraries\lvgl\src\draw/lv_img_decoder.c ****         return LV_RES_OK; /*Nothing to process*/
 433:..\..\..\arduinoLCD\test\Pain Drain\libraries\lvgl\src\draw/lv_img_decoder.c ****     }
 434:..\..\..\arduinoLCD\test\Pain Drain\libraries\lvgl\src\draw/lv_img_decoder.c ****     /*Unknown format. Can't decode it.*/
 435:..\..\..\arduinoLCD\test\Pain Drain\libraries\lvgl\src\draw/lv_img_decoder.c ****     else {
 436:..\..\..\arduinoLCD\test\Pain Drain\libraries\lvgl\src\draw/lv_img_decoder.c ****         /*Free the potentially allocated memories*/
 437:..\..\..\arduinoLCD\test\Pain Drain\libraries\lvgl\src\draw/lv_img_decoder.c ****         lv_img_decoder_built_in_close(decoder, dsc);
 438:..\..\..\arduinoLCD\test\Pain Drain\libraries\lvgl\src\draw/lv_img_decoder.c **** 
 439:..\..\..\arduinoLCD\test\Pain Drain\libraries\lvgl\src\draw/lv_img_decoder.c ****         LV_LOG_WARN("Image decoder open: unknown color format");
 440:..\..\..\arduinoLCD\test\Pain Drain\libraries\lvgl\src\draw/lv_img_decoder.c ****         return LV_RES_INV;
 441:..\..\..\arduinoLCD\test\Pain Drain\libraries\lvgl\src\draw/lv_img_decoder.c ****     }
 442:..\..\..\arduinoLCD\test\Pain Drain\libraries\lvgl\src\draw/lv_img_decoder.c **** }
 443:..\..\..\arduinoLCD\test\Pain Drain\libraries\lvgl\src\draw/lv_img_decoder.c **** 
 444:..\..\..\arduinoLCD\test\Pain Drain\libraries\lvgl\src\draw/lv_img_decoder.c **** /**
ARM GAS  C:\Users\haske\AppData\Local\Temp\ccufPcu5.s 			page 13


 445:..\..\..\arduinoLCD\test\Pain Drain\libraries\lvgl\src\draw/lv_img_decoder.c ****  * Decode `len` pixels starting from the given `x`, `y` coordinates and store them in `buf`.
 446:..\..\..\arduinoLCD\test\Pain Drain\libraries\lvgl\src\draw/lv_img_decoder.c ****  * Required only if the "open" function can't return with the whole decoded pixel array.
 447:..\..\..\arduinoLCD\test\Pain Drain\libraries\lvgl\src\draw/lv_img_decoder.c ****  * @param decoder pointer to the decoder the function associated with
 448:..\..\..\arduinoLCD\test\Pain Drain\libraries\lvgl\src\draw/lv_img_decoder.c ****  * @param dsc pointer to decoder descriptor
 449:..\..\..\arduinoLCD\test\Pain Drain\libraries\lvgl\src\draw/lv_img_decoder.c ****  * @param x start x coordinate
 450:..\..\..\arduinoLCD\test\Pain Drain\libraries\lvgl\src\draw/lv_img_decoder.c ****  * @param y start y coordinate
 451:..\..\..\arduinoLCD\test\Pain Drain\libraries\lvgl\src\draw/lv_img_decoder.c ****  * @param len number of pixels to decode
 452:..\..\..\arduinoLCD\test\Pain Drain\libraries\lvgl\src\draw/lv_img_decoder.c ****  * @param buf a buffer to store the decoded pixels
 453:..\..\..\arduinoLCD\test\Pain Drain\libraries\lvgl\src\draw/lv_img_decoder.c ****  * @return LV_RES_OK: ok; LV_RES_INV: failed
 454:..\..\..\arduinoLCD\test\Pain Drain\libraries\lvgl\src\draw/lv_img_decoder.c ****  */
 455:..\..\..\arduinoLCD\test\Pain Drain\libraries\lvgl\src\draw/lv_img_decoder.c **** lv_res_t lv_img_decoder_built_in_read_line(lv_img_decoder_t * decoder, lv_img_decoder_dsc_t * dsc, 
 456:..\..\..\arduinoLCD\test\Pain Drain\libraries\lvgl\src\draw/lv_img_decoder.c ****                                            lv_coord_t y, lv_coord_t len, uint8_t * buf)
 457:..\..\..\arduinoLCD\test\Pain Drain\libraries\lvgl\src\draw/lv_img_decoder.c **** {
 458:..\..\..\arduinoLCD\test\Pain Drain\libraries\lvgl\src\draw/lv_img_decoder.c ****     LV_UNUSED(decoder); /*Unused*/
 459:..\..\..\arduinoLCD\test\Pain Drain\libraries\lvgl\src\draw/lv_img_decoder.c **** 
 460:..\..\..\arduinoLCD\test\Pain Drain\libraries\lvgl\src\draw/lv_img_decoder.c ****     lv_res_t res = LV_RES_INV;
 461:..\..\..\arduinoLCD\test\Pain Drain\libraries\lvgl\src\draw/lv_img_decoder.c **** 
 462:..\..\..\arduinoLCD\test\Pain Drain\libraries\lvgl\src\draw/lv_img_decoder.c ****     if(dsc->header.cf == LV_IMG_CF_TRUE_COLOR || dsc->header.cf == LV_IMG_CF_TRUE_COLOR_ALPHA ||
 463:..\..\..\arduinoLCD\test\Pain Drain\libraries\lvgl\src\draw/lv_img_decoder.c ****        dsc->header.cf == LV_IMG_CF_TRUE_COLOR_CHROMA_KEYED) {
 464:..\..\..\arduinoLCD\test\Pain Drain\libraries\lvgl\src\draw/lv_img_decoder.c ****         /*For TRUE_COLOR images read line required only for files.
 465:..\..\..\arduinoLCD\test\Pain Drain\libraries\lvgl\src\draw/lv_img_decoder.c ****          *For variables the image data was returned in `open`*/
 466:..\..\..\arduinoLCD\test\Pain Drain\libraries\lvgl\src\draw/lv_img_decoder.c ****         if(dsc->src_type == LV_IMG_SRC_FILE) {
 467:..\..\..\arduinoLCD\test\Pain Drain\libraries\lvgl\src\draw/lv_img_decoder.c ****             res = lv_img_decoder_built_in_line_true_color(dsc, x, y, len, buf);
 468:..\..\..\arduinoLCD\test\Pain Drain\libraries\lvgl\src\draw/lv_img_decoder.c ****         }
 469:..\..\..\arduinoLCD\test\Pain Drain\libraries\lvgl\src\draw/lv_img_decoder.c ****     }
 470:..\..\..\arduinoLCD\test\Pain Drain\libraries\lvgl\src\draw/lv_img_decoder.c ****     else if(dsc->header.cf == LV_IMG_CF_ALPHA_1BIT || dsc->header.cf == LV_IMG_CF_ALPHA_2BIT ||
 471:..\..\..\arduinoLCD\test\Pain Drain\libraries\lvgl\src\draw/lv_img_decoder.c ****             dsc->header.cf == LV_IMG_CF_ALPHA_4BIT || dsc->header.cf == LV_IMG_CF_ALPHA_8BIT) {
 472:..\..\..\arduinoLCD\test\Pain Drain\libraries\lvgl\src\draw/lv_img_decoder.c ****         res = lv_img_decoder_built_in_line_alpha(dsc, x, y, len, buf);
 473:..\..\..\arduinoLCD\test\Pain Drain\libraries\lvgl\src\draw/lv_img_decoder.c ****     }
 474:..\..\..\arduinoLCD\test\Pain Drain\libraries\lvgl\src\draw/lv_img_decoder.c ****     else if(dsc->header.cf == LV_IMG_CF_INDEXED_1BIT || dsc->header.cf == LV_IMG_CF_INDEXED_2BIT ||
 475:..\..\..\arduinoLCD\test\Pain Drain\libraries\lvgl\src\draw/lv_img_decoder.c ****             dsc->header.cf == LV_IMG_CF_INDEXED_4BIT || dsc->header.cf == LV_IMG_CF_INDEXED_8BIT) {
 476:..\..\..\arduinoLCD\test\Pain Drain\libraries\lvgl\src\draw/lv_img_decoder.c ****         res = lv_img_decoder_built_in_line_indexed(dsc, x, y, len, buf);
 477:..\..\..\arduinoLCD\test\Pain Drain\libraries\lvgl\src\draw/lv_img_decoder.c ****     }
 478:..\..\..\arduinoLCD\test\Pain Drain\libraries\lvgl\src\draw/lv_img_decoder.c ****     else {
 479:..\..\..\arduinoLCD\test\Pain Drain\libraries\lvgl\src\draw/lv_img_decoder.c ****         LV_LOG_WARN("Built-in image decoder read not supports the color format");
 480:..\..\..\arduinoLCD\test\Pain Drain\libraries\lvgl\src\draw/lv_img_decoder.c ****         return LV_RES_INV;
 481:..\..\..\arduinoLCD\test\Pain Drain\libraries\lvgl\src\draw/lv_img_decoder.c ****     }
 482:..\..\..\arduinoLCD\test\Pain Drain\libraries\lvgl\src\draw/lv_img_decoder.c **** 
 483:..\..\..\arduinoLCD\test\Pain Drain\libraries\lvgl\src\draw/lv_img_decoder.c ****     return res;
 484:..\..\..\arduinoLCD\test\Pain Drain\libraries\lvgl\src\draw/lv_img_decoder.c **** }
 485:..\..\..\arduinoLCD\test\Pain Drain\libraries\lvgl\src\draw/lv_img_decoder.c **** 
 486:..\..\..\arduinoLCD\test\Pain Drain\libraries\lvgl\src\draw/lv_img_decoder.c **** /**
 487:..\..\..\arduinoLCD\test\Pain Drain\libraries\lvgl\src\draw/lv_img_decoder.c ****  * Close the pending decoding. Free resources etc.
 488:..\..\..\arduinoLCD\test\Pain Drain\libraries\lvgl\src\draw/lv_img_decoder.c ****  * @param decoder pointer to the decoder the function associated with
 489:..\..\..\arduinoLCD\test\Pain Drain\libraries\lvgl\src\draw/lv_img_decoder.c ****  * @param dsc pointer to decoder descriptor
 490:..\..\..\arduinoLCD\test\Pain Drain\libraries\lvgl\src\draw/lv_img_decoder.c ****  */
 491:..\..\..\arduinoLCD\test\Pain Drain\libraries\lvgl\src\draw/lv_img_decoder.c **** void lv_img_decoder_built_in_close(lv_img_decoder_t * decoder, lv_img_decoder_dsc_t * dsc)
 492:..\..\..\arduinoLCD\test\Pain Drain\libraries\lvgl\src\draw/lv_img_decoder.c **** {
 225              		.loc 1 492 0
 226              		.cfi_startproc
 227              		@ args = 0, pretend = 0, frame = 0
 228              		@ frame_needed = 0, uses_anonymous_args = 0
 229              	.LVL23:
 230 0000 70B5     		push	{r4, r5, r6, lr}
 231              		.cfi_def_cfa_offset 16
 232              		.cfi_offset 4, -16
 233              		.cfi_offset 5, -12
ARM GAS  C:\Users\haske\AppData\Local\Temp\ccufPcu5.s 			page 14


 234              		.cfi_offset 6, -8
 235              		.cfi_offset 14, -4
 236 0002 0D00     		movs	r5, r1
 493:..\..\..\arduinoLCD\test\Pain Drain\libraries\lvgl\src\draw/lv_img_decoder.c ****     LV_UNUSED(decoder); /*Unused*/
 494:..\..\..\arduinoLCD\test\Pain Drain\libraries\lvgl\src\draw/lv_img_decoder.c **** 
 495:..\..\..\arduinoLCD\test\Pain Drain\libraries\lvgl\src\draw/lv_img_decoder.c ****     lv_img_decoder_built_in_data_t * user_data = dsc->user_data;
 237              		.loc 1 495 0
 238 0004 4C6A     		ldr	r4, [r1, #36]
 239              	.LVL24:
 496:..\..\..\arduinoLCD\test\Pain Drain\libraries\lvgl\src\draw/lv_img_decoder.c ****     if(user_data) {
 240              		.loc 1 496 0
 241 0006 002C     		cmp	r4, #0
 242 0008 14D0     		beq	.L13
 497:..\..\..\arduinoLCD\test\Pain Drain\libraries\lvgl\src\draw/lv_img_decoder.c ****         if(dsc->src_type == LV_IMG_SRC_FILE) {
 243              		.loc 1 497 0
 244 000a 0B7C     		ldrb	r3, [r1, #16]
 245 000c 012B     		cmp	r3, #1
 246 000e 02D1     		bne	.L15
 498:..\..\..\arduinoLCD\test\Pain Drain\libraries\lvgl\src\draw/lv_img_decoder.c ****             lv_fs_close(&user_data->f);
 247              		.loc 1 498 0
 248 0010 2000     		movs	r0, r4
 249              	.LVL25:
 250 0012 FFF7FEFF 		bl	lv_fs_close
 251              	.LVL26:
 252              	.L15:
 499:..\..\..\arduinoLCD\test\Pain Drain\libraries\lvgl\src\draw/lv_img_decoder.c ****         }
 500:..\..\..\arduinoLCD\test\Pain Drain\libraries\lvgl\src\draw/lv_img_decoder.c ****         if(user_data->palette) lv_mem_free(user_data->palette);
 253              		.loc 1 500 0
 254 0016 E068     		ldr	r0, [r4, #12]
 255 0018 0028     		cmp	r0, #0
 256 001a 01D0     		beq	.L16
 257              		.loc 1 500 0 is_stmt 0 discriminator 1
 258 001c FFF7FEFF 		bl	lv_mem_free
 259              	.LVL27:
 260              	.L16:
 501:..\..\..\arduinoLCD\test\Pain Drain\libraries\lvgl\src\draw/lv_img_decoder.c ****         if(user_data->opa) lv_mem_free(user_data->opa);
 261              		.loc 1 501 0 is_stmt 1
 262 0020 2069     		ldr	r0, [r4, #16]
 263 0022 0028     		cmp	r0, #0
 264 0024 01D0     		beq	.L17
 265              		.loc 1 501 0 is_stmt 0 discriminator 1
 266 0026 FFF7FEFF 		bl	lv_mem_free
 267              	.LVL28:
 268              	.L17:
 502:..\..\..\arduinoLCD\test\Pain Drain\libraries\lvgl\src\draw/lv_img_decoder.c **** 
 503:..\..\..\arduinoLCD\test\Pain Drain\libraries\lvgl\src\draw/lv_img_decoder.c ****         lv_mem_free(user_data);
 269              		.loc 1 503 0 is_stmt 1
 270 002a 2000     		movs	r0, r4
 271 002c FFF7FEFF 		bl	lv_mem_free
 272              	.LVL29:
 504:..\..\..\arduinoLCD\test\Pain Drain\libraries\lvgl\src\draw/lv_img_decoder.c ****         dsc->user_data = NULL;
 273              		.loc 1 504 0
 274 0030 0023     		movs	r3, #0
 275 0032 6B62     		str	r3, [r5, #36]
 276              	.L13:
 505:..\..\..\arduinoLCD\test\Pain Drain\libraries\lvgl\src\draw/lv_img_decoder.c ****     }
 506:..\..\..\arduinoLCD\test\Pain Drain\libraries\lvgl\src\draw/lv_img_decoder.c **** }
ARM GAS  C:\Users\haske\AppData\Local\Temp\ccufPcu5.s 			page 15


 277              		.loc 1 506 0
 278              		@ sp needed
 279              	.LVL30:
 280              	.LVL31:
 281 0034 70BD     		pop	{r4, r5, r6, pc}
 282              		.cfi_endproc
 283              	.LFE70:
 284              		.size	lv_img_decoder_built_in_close, .-lv_img_decoder_built_in_close
 285 0036 C046     		.section	.text.lv_img_decoder_built_in_open,"ax",%progbits
 286              		.align	2
 287              		.global	lv_img_decoder_built_in_open
 288              		.code	16
 289              		.thumb_func
 290              		.type	lv_img_decoder_built_in_open, %function
 291              	lv_img_decoder_built_in_open:
 292              	.LFB68:
 327:..\..\..\arduinoLCD\test\Pain Drain\libraries\lvgl\src\draw/lv_img_decoder.c ****     /*Open the file if it's a file*/
 293              		.loc 1 327 0
 294              		.cfi_startproc
 295              		@ args = 0, pretend = 0, frame = 32
 296              		@ frame_needed = 0, uses_anonymous_args = 0
 297              	.LVL32:
 298 0000 F0B5     		push	{r4, r5, r6, r7, lr}
 299              		.cfi_def_cfa_offset 20
 300              		.cfi_offset 4, -20
 301              		.cfi_offset 5, -16
 302              		.cfi_offset 6, -12
 303              		.cfi_offset 7, -8
 304              		.cfi_offset 14, -4
 305 0002 5746     		mov	r7, r10
 306 0004 4E46     		mov	r6, r9
 307 0006 4546     		mov	r5, r8
 308 0008 E0B4     		push	{r5, r6, r7}
 309              		.cfi_def_cfa_offset 32
 310              		.cfi_offset 8, -32
 311              		.cfi_offset 9, -28
 312              		.cfi_offset 10, -24
 313 000a 88B0     		sub	sp, sp, #32
 314              		.cfi_def_cfa_offset 64
 315 000c 0400     		movs	r4, r0
 316 000e 0F00     		movs	r7, r1
 329:..\..\..\arduinoLCD\test\Pain Drain\libraries\lvgl\src\draw/lv_img_decoder.c ****         /*Support only "*.bin" files*/
 317              		.loc 1 329 0
 318 0010 0D7C     		ldrb	r5, [r1, #16]
 319 0012 012D     		cmp	r5, #1
 320 0014 2FD1     		bne	.L19
 321              	.LBB17:
 331:..\..\..\arduinoLCD\test\Pain Drain\libraries\lvgl\src\draw/lv_img_decoder.c **** 
 322              		.loc 1 331 0
 323 0016 4868     		ldr	r0, [r1, #4]
 324              	.LVL33:
 325 0018 FFF7FEFF 		bl	lv_fs_get_ext
 326              	.LVL34:
 327 001c 7949     		ldr	r1, .L49
 328 001e FFF7FEFF 		bl	strcmp
 329              	.LVL35:
 330 0022 0028     		cmp	r0, #0
ARM GAS  C:\Users\haske\AppData\Local\Temp\ccufPcu5.s 			page 16


 331 0024 25D1     		bne	.L20
 334:..\..\..\arduinoLCD\test\Pain Drain\libraries\lvgl\src\draw/lv_img_decoder.c ****         if(res != LV_FS_RES_OK) {
 332              		.loc 1 334 0
 333 0026 0222     		movs	r2, #2
 334 0028 7968     		ldr	r1, [r7, #4]
 335 002a 05A8     		add	r0, sp, #20
 336 002c FFF7FEFF 		bl	lv_fs_open
 337              	.LVL36:
 335:..\..\..\arduinoLCD\test\Pain Drain\libraries\lvgl\src\draw/lv_img_decoder.c ****             LV_LOG_WARN("Built-in image decoder can't open the file");
 338              		.loc 1 335 0
 339 0030 0028     		cmp	r0, #0
 340 0032 1ED1     		bne	.L20
 341:..\..\..\arduinoLCD\test\Pain Drain\libraries\lvgl\src\draw/lv_img_decoder.c ****             dsc->user_data = lv_mem_alloc(sizeof(lv_img_decoder_built_in_data_t));
 341              		.loc 1 341 0
 342 0034 7B6A     		ldr	r3, [r7, #36]
 343 0036 002B     		cmp	r3, #0
 344 0038 0FD1     		bne	.L21
 342:..\..\..\arduinoLCD\test\Pain Drain\libraries\lvgl\src\draw/lv_img_decoder.c ****             LV_ASSERT_MALLOC(dsc->user_data);
 345              		.loc 1 342 0
 346 003a 1430     		adds	r0, r0, #20
 347              	.LVL37:
 348 003c FFF7FEFF 		bl	lv_mem_alloc
 349              	.LVL38:
 350 0040 7862     		str	r0, [r7, #36]
 343:..\..\..\arduinoLCD\test\Pain Drain\libraries\lvgl\src\draw/lv_img_decoder.c ****             if(dsc->user_data == NULL) {
 351              		.loc 1 343 0
 352 0042 0028     		cmp	r0, #0
 353 0044 00D1     		bne	.L22
 354              	.L23:
 355 0046 FEE7     		b	.L23
 356              	.L22:
 344:..\..\..\arduinoLCD\test\Pain Drain\libraries\lvgl\src\draw/lv_img_decoder.c ****                 LV_LOG_ERROR("img_decoder_built_in_open: out of memory");
 357              		.loc 1 344 0
 358 0048 0028     		cmp	r0, #0
 359 004a 03D1     		bne	.L24
 346:..\..\..\arduinoLCD\test\Pain Drain\libraries\lvgl\src\draw/lv_img_decoder.c ****                 return LV_RES_INV;
 360              		.loc 1 346 0
 361 004c 05A8     		add	r0, sp, #20
 362 004e FFF7FEFF 		bl	lv_fs_close
 363              	.LVL39:
 347:..\..\..\arduinoLCD\test\Pain Drain\libraries\lvgl\src\draw/lv_img_decoder.c ****             }
 364              		.loc 1 347 0
 365 0052 0EE0     		b	.L20
 366              	.L24:
 349:..\..\..\arduinoLCD\test\Pain Drain\libraries\lvgl\src\draw/lv_img_decoder.c ****         }
 367              		.loc 1 349 0
 368 0054 1421     		movs	r1, #20
 369 0056 FFF7FEFF 		bl	lv_memset_00
 370              	.LVL40:
 371              	.L21:
 352:..\..\..\arduinoLCD\test\Pain Drain\libraries\lvgl\src\draw/lv_img_decoder.c ****         lv_memcpy_small(&user_data->f, &f, sizeof(f));
 372              		.loc 1 352 0
 373 005a 796A     		ldr	r1, [r7, #36]
 374              	.LVL41:
 375              	.LBB18:
 376              	.LBB19:
 377              		.file 2 "..\\..\\..\\arduinoLCD\\test\\Pain Drain\\libraries\\lvgl\\src\\draw\\../misc/lv_mem.h"
ARM GAS  C:\Users\haske\AppData\Local\Temp\ccufPcu5.s 			page 17


   1:..\..\..\arduinoLCD\test\Pain Drain\libraries\lvgl\src\draw\../misc/lv_mem.h **** /**
   2:..\..\..\arduinoLCD\test\Pain Drain\libraries\lvgl\src\draw\../misc/lv_mem.h ****  * @file lv_mem.h
   3:..\..\..\arduinoLCD\test\Pain Drain\libraries\lvgl\src\draw\../misc/lv_mem.h ****  *
   4:..\..\..\arduinoLCD\test\Pain Drain\libraries\lvgl\src\draw\../misc/lv_mem.h ****  */
   5:..\..\..\arduinoLCD\test\Pain Drain\libraries\lvgl\src\draw\../misc/lv_mem.h **** 
   6:..\..\..\arduinoLCD\test\Pain Drain\libraries\lvgl\src\draw\../misc/lv_mem.h **** #ifndef LV_MEM_H
   7:..\..\..\arduinoLCD\test\Pain Drain\libraries\lvgl\src\draw\../misc/lv_mem.h **** #define LV_MEM_H
   8:..\..\..\arduinoLCD\test\Pain Drain\libraries\lvgl\src\draw\../misc/lv_mem.h **** 
   9:..\..\..\arduinoLCD\test\Pain Drain\libraries\lvgl\src\draw\../misc/lv_mem.h **** #ifdef __cplusplus
  10:..\..\..\arduinoLCD\test\Pain Drain\libraries\lvgl\src\draw\../misc/lv_mem.h **** extern "C" {
  11:..\..\..\arduinoLCD\test\Pain Drain\libraries\lvgl\src\draw\../misc/lv_mem.h **** #endif
  12:..\..\..\arduinoLCD\test\Pain Drain\libraries\lvgl\src\draw\../misc/lv_mem.h **** 
  13:..\..\..\arduinoLCD\test\Pain Drain\libraries\lvgl\src\draw\../misc/lv_mem.h **** /*********************
  14:..\..\..\arduinoLCD\test\Pain Drain\libraries\lvgl\src\draw\../misc/lv_mem.h ****  *      INCLUDES
  15:..\..\..\arduinoLCD\test\Pain Drain\libraries\lvgl\src\draw\../misc/lv_mem.h ****  *********************/
  16:..\..\..\arduinoLCD\test\Pain Drain\libraries\lvgl\src\draw\../misc/lv_mem.h **** #include "../lv_conf_internal.h"
  17:..\..\..\arduinoLCD\test\Pain Drain\libraries\lvgl\src\draw\../misc/lv_mem.h **** 
  18:..\..\..\arduinoLCD\test\Pain Drain\libraries\lvgl\src\draw\../misc/lv_mem.h **** #include <stdint.h>
  19:..\..\..\arduinoLCD\test\Pain Drain\libraries\lvgl\src\draw\../misc/lv_mem.h **** #include <stddef.h>
  20:..\..\..\arduinoLCD\test\Pain Drain\libraries\lvgl\src\draw\../misc/lv_mem.h **** #include <string.h>
  21:..\..\..\arduinoLCD\test\Pain Drain\libraries\lvgl\src\draw\../misc/lv_mem.h **** 
  22:..\..\..\arduinoLCD\test\Pain Drain\libraries\lvgl\src\draw\../misc/lv_mem.h **** #include "lv_types.h"
  23:..\..\..\arduinoLCD\test\Pain Drain\libraries\lvgl\src\draw\../misc/lv_mem.h **** 
  24:..\..\..\arduinoLCD\test\Pain Drain\libraries\lvgl\src\draw\../misc/lv_mem.h **** /*********************
  25:..\..\..\arduinoLCD\test\Pain Drain\libraries\lvgl\src\draw\../misc/lv_mem.h ****  *      DEFINES
  26:..\..\..\arduinoLCD\test\Pain Drain\libraries\lvgl\src\draw\../misc/lv_mem.h ****  *********************/
  27:..\..\..\arduinoLCD\test\Pain Drain\libraries\lvgl\src\draw\../misc/lv_mem.h **** 
  28:..\..\..\arduinoLCD\test\Pain Drain\libraries\lvgl\src\draw\../misc/lv_mem.h **** /**********************
  29:..\..\..\arduinoLCD\test\Pain Drain\libraries\lvgl\src\draw\../misc/lv_mem.h ****  *      TYPEDEFS
  30:..\..\..\arduinoLCD\test\Pain Drain\libraries\lvgl\src\draw\../misc/lv_mem.h ****  **********************/
  31:..\..\..\arduinoLCD\test\Pain Drain\libraries\lvgl\src\draw\../misc/lv_mem.h **** 
  32:..\..\..\arduinoLCD\test\Pain Drain\libraries\lvgl\src\draw\../misc/lv_mem.h **** /**
  33:..\..\..\arduinoLCD\test\Pain Drain\libraries\lvgl\src\draw\../misc/lv_mem.h ****  * Heap information structure.
  34:..\..\..\arduinoLCD\test\Pain Drain\libraries\lvgl\src\draw\../misc/lv_mem.h ****  */
  35:..\..\..\arduinoLCD\test\Pain Drain\libraries\lvgl\src\draw\../misc/lv_mem.h **** typedef struct {
  36:..\..\..\arduinoLCD\test\Pain Drain\libraries\lvgl\src\draw\../misc/lv_mem.h ****     uint32_t total_size; /**< Total heap size*/
  37:..\..\..\arduinoLCD\test\Pain Drain\libraries\lvgl\src\draw\../misc/lv_mem.h ****     uint32_t free_cnt;
  38:..\..\..\arduinoLCD\test\Pain Drain\libraries\lvgl\src\draw\../misc/lv_mem.h ****     uint32_t free_size; /**< Size of available memory*/
  39:..\..\..\arduinoLCD\test\Pain Drain\libraries\lvgl\src\draw\../misc/lv_mem.h ****     uint32_t free_biggest_size;
  40:..\..\..\arduinoLCD\test\Pain Drain\libraries\lvgl\src\draw\../misc/lv_mem.h ****     uint32_t used_cnt;
  41:..\..\..\arduinoLCD\test\Pain Drain\libraries\lvgl\src\draw\../misc/lv_mem.h ****     uint32_t max_used; /**< Max size of Heap memory used*/
  42:..\..\..\arduinoLCD\test\Pain Drain\libraries\lvgl\src\draw\../misc/lv_mem.h ****     uint8_t used_pct; /**< Percentage used*/
  43:..\..\..\arduinoLCD\test\Pain Drain\libraries\lvgl\src\draw\../misc/lv_mem.h ****     uint8_t frag_pct; /**< Amount of fragmentation*/
  44:..\..\..\arduinoLCD\test\Pain Drain\libraries\lvgl\src\draw\../misc/lv_mem.h **** } lv_mem_monitor_t;
  45:..\..\..\arduinoLCD\test\Pain Drain\libraries\lvgl\src\draw\../misc/lv_mem.h **** 
  46:..\..\..\arduinoLCD\test\Pain Drain\libraries\lvgl\src\draw\../misc/lv_mem.h **** typedef struct {
  47:..\..\..\arduinoLCD\test\Pain Drain\libraries\lvgl\src\draw\../misc/lv_mem.h ****     void * p;
  48:..\..\..\arduinoLCD\test\Pain Drain\libraries\lvgl\src\draw\../misc/lv_mem.h ****     uint16_t size;
  49:..\..\..\arduinoLCD\test\Pain Drain\libraries\lvgl\src\draw\../misc/lv_mem.h ****     uint8_t used : 1;
  50:..\..\..\arduinoLCD\test\Pain Drain\libraries\lvgl\src\draw\../misc/lv_mem.h **** } lv_mem_buf_t;
  51:..\..\..\arduinoLCD\test\Pain Drain\libraries\lvgl\src\draw\../misc/lv_mem.h **** 
  52:..\..\..\arduinoLCD\test\Pain Drain\libraries\lvgl\src\draw\../misc/lv_mem.h **** typedef lv_mem_buf_t lv_mem_buf_arr_t[LV_MEM_BUF_MAX_NUM];
  53:..\..\..\arduinoLCD\test\Pain Drain\libraries\lvgl\src\draw\../misc/lv_mem.h **** 
  54:..\..\..\arduinoLCD\test\Pain Drain\libraries\lvgl\src\draw\../misc/lv_mem.h **** /**********************
  55:..\..\..\arduinoLCD\test\Pain Drain\libraries\lvgl\src\draw\../misc/lv_mem.h ****  * GLOBAL PROTOTYPES
  56:..\..\..\arduinoLCD\test\Pain Drain\libraries\lvgl\src\draw\../misc/lv_mem.h ****  **********************/
  57:..\..\..\arduinoLCD\test\Pain Drain\libraries\lvgl\src\draw\../misc/lv_mem.h **** 
ARM GAS  C:\Users\haske\AppData\Local\Temp\ccufPcu5.s 			page 18


  58:..\..\..\arduinoLCD\test\Pain Drain\libraries\lvgl\src\draw\../misc/lv_mem.h **** /**
  59:..\..\..\arduinoLCD\test\Pain Drain\libraries\lvgl\src\draw\../misc/lv_mem.h ****  * Initialize the dyn_mem module (work memory and other variables)
  60:..\..\..\arduinoLCD\test\Pain Drain\libraries\lvgl\src\draw\../misc/lv_mem.h ****  */
  61:..\..\..\arduinoLCD\test\Pain Drain\libraries\lvgl\src\draw\../misc/lv_mem.h **** void lv_mem_init(void);
  62:..\..\..\arduinoLCD\test\Pain Drain\libraries\lvgl\src\draw\../misc/lv_mem.h **** 
  63:..\..\..\arduinoLCD\test\Pain Drain\libraries\lvgl\src\draw\../misc/lv_mem.h **** /**
  64:..\..\..\arduinoLCD\test\Pain Drain\libraries\lvgl\src\draw\../misc/lv_mem.h ****  * Clean up the memory buffer which frees all the allocated memories.
  65:..\..\..\arduinoLCD\test\Pain Drain\libraries\lvgl\src\draw\../misc/lv_mem.h ****  * @note It work only if `LV_MEM_CUSTOM == 0`
  66:..\..\..\arduinoLCD\test\Pain Drain\libraries\lvgl\src\draw\../misc/lv_mem.h ****  */
  67:..\..\..\arduinoLCD\test\Pain Drain\libraries\lvgl\src\draw\../misc/lv_mem.h **** void lv_mem_deinit(void);
  68:..\..\..\arduinoLCD\test\Pain Drain\libraries\lvgl\src\draw\../misc/lv_mem.h **** 
  69:..\..\..\arduinoLCD\test\Pain Drain\libraries\lvgl\src\draw\../misc/lv_mem.h **** /**
  70:..\..\..\arduinoLCD\test\Pain Drain\libraries\lvgl\src\draw\../misc/lv_mem.h ****  * Allocate a memory dynamically
  71:..\..\..\arduinoLCD\test\Pain Drain\libraries\lvgl\src\draw\../misc/lv_mem.h ****  * @param size size of the memory to allocate in bytes
  72:..\..\..\arduinoLCD\test\Pain Drain\libraries\lvgl\src\draw\../misc/lv_mem.h ****  * @return pointer to the allocated memory
  73:..\..\..\arduinoLCD\test\Pain Drain\libraries\lvgl\src\draw\../misc/lv_mem.h ****  */
  74:..\..\..\arduinoLCD\test\Pain Drain\libraries\lvgl\src\draw\../misc/lv_mem.h **** void * lv_mem_alloc(size_t size);
  75:..\..\..\arduinoLCD\test\Pain Drain\libraries\lvgl\src\draw\../misc/lv_mem.h **** 
  76:..\..\..\arduinoLCD\test\Pain Drain\libraries\lvgl\src\draw\../misc/lv_mem.h **** /**
  77:..\..\..\arduinoLCD\test\Pain Drain\libraries\lvgl\src\draw\../misc/lv_mem.h ****  * Free an allocated data
  78:..\..\..\arduinoLCD\test\Pain Drain\libraries\lvgl\src\draw\../misc/lv_mem.h ****  * @param data pointer to an allocated memory
  79:..\..\..\arduinoLCD\test\Pain Drain\libraries\lvgl\src\draw\../misc/lv_mem.h ****  */
  80:..\..\..\arduinoLCD\test\Pain Drain\libraries\lvgl\src\draw\../misc/lv_mem.h **** void lv_mem_free(void * data);
  81:..\..\..\arduinoLCD\test\Pain Drain\libraries\lvgl\src\draw\../misc/lv_mem.h **** 
  82:..\..\..\arduinoLCD\test\Pain Drain\libraries\lvgl\src\draw\../misc/lv_mem.h **** /**
  83:..\..\..\arduinoLCD\test\Pain Drain\libraries\lvgl\src\draw\../misc/lv_mem.h ****  * Reallocate a memory with a new size. The old content will be kept.
  84:..\..\..\arduinoLCD\test\Pain Drain\libraries\lvgl\src\draw\../misc/lv_mem.h ****  * @param data pointer to an allocated memory.
  85:..\..\..\arduinoLCD\test\Pain Drain\libraries\lvgl\src\draw\../misc/lv_mem.h ****  * Its content will be copied to the new memory block and freed
  86:..\..\..\arduinoLCD\test\Pain Drain\libraries\lvgl\src\draw\../misc/lv_mem.h ****  * @param new_size the desired new size in byte
  87:..\..\..\arduinoLCD\test\Pain Drain\libraries\lvgl\src\draw\../misc/lv_mem.h ****  * @return pointer to the new memory, NULL on failure
  88:..\..\..\arduinoLCD\test\Pain Drain\libraries\lvgl\src\draw\../misc/lv_mem.h ****  */
  89:..\..\..\arduinoLCD\test\Pain Drain\libraries\lvgl\src\draw\../misc/lv_mem.h **** void * lv_mem_realloc(void * data_p, size_t new_size);
  90:..\..\..\arduinoLCD\test\Pain Drain\libraries\lvgl\src\draw\../misc/lv_mem.h **** 
  91:..\..\..\arduinoLCD\test\Pain Drain\libraries\lvgl\src\draw\../misc/lv_mem.h **** /**
  92:..\..\..\arduinoLCD\test\Pain Drain\libraries\lvgl\src\draw\../misc/lv_mem.h ****  *
  93:..\..\..\arduinoLCD\test\Pain Drain\libraries\lvgl\src\draw\../misc/lv_mem.h ****  * @return
  94:..\..\..\arduinoLCD\test\Pain Drain\libraries\lvgl\src\draw\../misc/lv_mem.h ****  */
  95:..\..\..\arduinoLCD\test\Pain Drain\libraries\lvgl\src\draw\../misc/lv_mem.h **** lv_res_t lv_mem_test(void);
  96:..\..\..\arduinoLCD\test\Pain Drain\libraries\lvgl\src\draw\../misc/lv_mem.h **** 
  97:..\..\..\arduinoLCD\test\Pain Drain\libraries\lvgl\src\draw\../misc/lv_mem.h **** /**
  98:..\..\..\arduinoLCD\test\Pain Drain\libraries\lvgl\src\draw\../misc/lv_mem.h ****  * Give information about the work memory of dynamic allocation
  99:..\..\..\arduinoLCD\test\Pain Drain\libraries\lvgl\src\draw\../misc/lv_mem.h ****  * @param mon_p pointer to a lv_mem_monitor_t variable,
 100:..\..\..\arduinoLCD\test\Pain Drain\libraries\lvgl\src\draw\../misc/lv_mem.h ****  *              the result of the analysis will be stored here
 101:..\..\..\arduinoLCD\test\Pain Drain\libraries\lvgl\src\draw\../misc/lv_mem.h ****  */
 102:..\..\..\arduinoLCD\test\Pain Drain\libraries\lvgl\src\draw\../misc/lv_mem.h **** void lv_mem_monitor(lv_mem_monitor_t * mon_p);
 103:..\..\..\arduinoLCD\test\Pain Drain\libraries\lvgl\src\draw\../misc/lv_mem.h **** 
 104:..\..\..\arduinoLCD\test\Pain Drain\libraries\lvgl\src\draw\../misc/lv_mem.h **** 
 105:..\..\..\arduinoLCD\test\Pain Drain\libraries\lvgl\src\draw\../misc/lv_mem.h **** /**
 106:..\..\..\arduinoLCD\test\Pain Drain\libraries\lvgl\src\draw\../misc/lv_mem.h ****  * Get a temporal buffer with the given size.
 107:..\..\..\arduinoLCD\test\Pain Drain\libraries\lvgl\src\draw\../misc/lv_mem.h ****  * @param size the required size
 108:..\..\..\arduinoLCD\test\Pain Drain\libraries\lvgl\src\draw\../misc/lv_mem.h ****  */
 109:..\..\..\arduinoLCD\test\Pain Drain\libraries\lvgl\src\draw\../misc/lv_mem.h **** void * lv_mem_buf_get(uint32_t size);
 110:..\..\..\arduinoLCD\test\Pain Drain\libraries\lvgl\src\draw\../misc/lv_mem.h **** 
 111:..\..\..\arduinoLCD\test\Pain Drain\libraries\lvgl\src\draw\../misc/lv_mem.h **** /**
 112:..\..\..\arduinoLCD\test\Pain Drain\libraries\lvgl\src\draw\../misc/lv_mem.h ****  * Release a memory buffer
 113:..\..\..\arduinoLCD\test\Pain Drain\libraries\lvgl\src\draw\../misc/lv_mem.h ****  * @param p buffer to release
 114:..\..\..\arduinoLCD\test\Pain Drain\libraries\lvgl\src\draw\../misc/lv_mem.h ****  */
ARM GAS  C:\Users\haske\AppData\Local\Temp\ccufPcu5.s 			page 19


 115:..\..\..\arduinoLCD\test\Pain Drain\libraries\lvgl\src\draw\../misc/lv_mem.h **** void lv_mem_buf_release(void * p);
 116:..\..\..\arduinoLCD\test\Pain Drain\libraries\lvgl\src\draw\../misc/lv_mem.h **** 
 117:..\..\..\arduinoLCD\test\Pain Drain\libraries\lvgl\src\draw\../misc/lv_mem.h **** /**
 118:..\..\..\arduinoLCD\test\Pain Drain\libraries\lvgl\src\draw\../misc/lv_mem.h ****  * Free all memory buffers
 119:..\..\..\arduinoLCD\test\Pain Drain\libraries\lvgl\src\draw\../misc/lv_mem.h ****  */
 120:..\..\..\arduinoLCD\test\Pain Drain\libraries\lvgl\src\draw\../misc/lv_mem.h **** void lv_mem_buf_free_all(void);
 121:..\..\..\arduinoLCD\test\Pain Drain\libraries\lvgl\src\draw\../misc/lv_mem.h **** 
 122:..\..\..\arduinoLCD\test\Pain Drain\libraries\lvgl\src\draw\../misc/lv_mem.h **** //! @cond Doxygen_Suppress
 123:..\..\..\arduinoLCD\test\Pain Drain\libraries\lvgl\src\draw\../misc/lv_mem.h **** 
 124:..\..\..\arduinoLCD\test\Pain Drain\libraries\lvgl\src\draw\../misc/lv_mem.h **** #if LV_MEMCPY_MEMSET_STD
 125:..\..\..\arduinoLCD\test\Pain Drain\libraries\lvgl\src\draw\../misc/lv_mem.h **** 
 126:..\..\..\arduinoLCD\test\Pain Drain\libraries\lvgl\src\draw\../misc/lv_mem.h **** /**
 127:..\..\..\arduinoLCD\test\Pain Drain\libraries\lvgl\src\draw\../misc/lv_mem.h ****  * Wrapper for the standard memcpy
 128:..\..\..\arduinoLCD\test\Pain Drain\libraries\lvgl\src\draw\../misc/lv_mem.h ****  * @param dst pointer to the destination buffer
 129:..\..\..\arduinoLCD\test\Pain Drain\libraries\lvgl\src\draw\../misc/lv_mem.h ****  * @param src pointer to the source buffer
 130:..\..\..\arduinoLCD\test\Pain Drain\libraries\lvgl\src\draw\../misc/lv_mem.h ****  * @param len number of byte to copy
 131:..\..\..\arduinoLCD\test\Pain Drain\libraries\lvgl\src\draw\../misc/lv_mem.h ****  */
 132:..\..\..\arduinoLCD\test\Pain Drain\libraries\lvgl\src\draw\../misc/lv_mem.h **** static inline void * lv_memcpy(void * dst, const void * src, size_t len)
 133:..\..\..\arduinoLCD\test\Pain Drain\libraries\lvgl\src\draw\../misc/lv_mem.h **** {
 134:..\..\..\arduinoLCD\test\Pain Drain\libraries\lvgl\src\draw\../misc/lv_mem.h ****     return memcpy(dst, src, len);
 135:..\..\..\arduinoLCD\test\Pain Drain\libraries\lvgl\src\draw\../misc/lv_mem.h **** }
 136:..\..\..\arduinoLCD\test\Pain Drain\libraries\lvgl\src\draw\../misc/lv_mem.h **** 
 137:..\..\..\arduinoLCD\test\Pain Drain\libraries\lvgl\src\draw\../misc/lv_mem.h **** /**
 138:..\..\..\arduinoLCD\test\Pain Drain\libraries\lvgl\src\draw\../misc/lv_mem.h ****  * Wrapper for the standard memcpy
 139:..\..\..\arduinoLCD\test\Pain Drain\libraries\lvgl\src\draw\../misc/lv_mem.h ****  * @param dst pointer to the destination buffer
 140:..\..\..\arduinoLCD\test\Pain Drain\libraries\lvgl\src\draw\../misc/lv_mem.h ****  * @param src pointer to the source buffer
 141:..\..\..\arduinoLCD\test\Pain Drain\libraries\lvgl\src\draw\../misc/lv_mem.h ****  * @param len number of byte to copy
 142:..\..\..\arduinoLCD\test\Pain Drain\libraries\lvgl\src\draw\../misc/lv_mem.h ****  */
 143:..\..\..\arduinoLCD\test\Pain Drain\libraries\lvgl\src\draw\../misc/lv_mem.h **** static inline void * lv_memcpy_small(void * dst, const void * src, size_t len)
 144:..\..\..\arduinoLCD\test\Pain Drain\libraries\lvgl\src\draw\../misc/lv_mem.h **** {
 145:..\..\..\arduinoLCD\test\Pain Drain\libraries\lvgl\src\draw\../misc/lv_mem.h ****     return memcpy(dst, src, len);
 146:..\..\..\arduinoLCD\test\Pain Drain\libraries\lvgl\src\draw\../misc/lv_mem.h **** }
 147:..\..\..\arduinoLCD\test\Pain Drain\libraries\lvgl\src\draw\../misc/lv_mem.h **** 
 148:..\..\..\arduinoLCD\test\Pain Drain\libraries\lvgl\src\draw\../misc/lv_mem.h **** /**
 149:..\..\..\arduinoLCD\test\Pain Drain\libraries\lvgl\src\draw\../misc/lv_mem.h ****  * Wrapper for the standard memset
 150:..\..\..\arduinoLCD\test\Pain Drain\libraries\lvgl\src\draw\../misc/lv_mem.h ****  * @param dst pointer to the destination buffer
 151:..\..\..\arduinoLCD\test\Pain Drain\libraries\lvgl\src\draw\../misc/lv_mem.h ****  * @param v value to set [0..255]
 152:..\..\..\arduinoLCD\test\Pain Drain\libraries\lvgl\src\draw\../misc/lv_mem.h ****  * @param len number of byte to set
 153:..\..\..\arduinoLCD\test\Pain Drain\libraries\lvgl\src\draw\../misc/lv_mem.h ****  */
 154:..\..\..\arduinoLCD\test\Pain Drain\libraries\lvgl\src\draw\../misc/lv_mem.h **** static inline void lv_memset(void * dst, uint8_t v, size_t len)
 155:..\..\..\arduinoLCD\test\Pain Drain\libraries\lvgl\src\draw\../misc/lv_mem.h **** {
 156:..\..\..\arduinoLCD\test\Pain Drain\libraries\lvgl\src\draw\../misc/lv_mem.h ****     memset(dst, v, len);
 157:..\..\..\arduinoLCD\test\Pain Drain\libraries\lvgl\src\draw\../misc/lv_mem.h **** }
 158:..\..\..\arduinoLCD\test\Pain Drain\libraries\lvgl\src\draw\../misc/lv_mem.h **** 
 159:..\..\..\arduinoLCD\test\Pain Drain\libraries\lvgl\src\draw\../misc/lv_mem.h **** /**
 160:..\..\..\arduinoLCD\test\Pain Drain\libraries\lvgl\src\draw\../misc/lv_mem.h ****  * Wrapper for the standard memset with fixed 0x00 value
 161:..\..\..\arduinoLCD\test\Pain Drain\libraries\lvgl\src\draw\../misc/lv_mem.h ****  * @param dst pointer to the destination buffer
 162:..\..\..\arduinoLCD\test\Pain Drain\libraries\lvgl\src\draw\../misc/lv_mem.h ****  * @param len number of byte to set
 163:..\..\..\arduinoLCD\test\Pain Drain\libraries\lvgl\src\draw\../misc/lv_mem.h ****  */
 164:..\..\..\arduinoLCD\test\Pain Drain\libraries\lvgl\src\draw\../misc/lv_mem.h **** static inline void lv_memset_00(void * dst, size_t len)
 165:..\..\..\arduinoLCD\test\Pain Drain\libraries\lvgl\src\draw\../misc/lv_mem.h **** {
 166:..\..\..\arduinoLCD\test\Pain Drain\libraries\lvgl\src\draw\../misc/lv_mem.h ****     memset(dst, 0x00, len);
 167:..\..\..\arduinoLCD\test\Pain Drain\libraries\lvgl\src\draw\../misc/lv_mem.h **** }
 168:..\..\..\arduinoLCD\test\Pain Drain\libraries\lvgl\src\draw\../misc/lv_mem.h **** 
 169:..\..\..\arduinoLCD\test\Pain Drain\libraries\lvgl\src\draw\../misc/lv_mem.h **** /**
 170:..\..\..\arduinoLCD\test\Pain Drain\libraries\lvgl\src\draw\../misc/lv_mem.h ****  * Wrapper for the standard memset with fixed 0xFF value
 171:..\..\..\arduinoLCD\test\Pain Drain\libraries\lvgl\src\draw\../misc/lv_mem.h ****  * @param dst pointer to the destination buffer
ARM GAS  C:\Users\haske\AppData\Local\Temp\ccufPcu5.s 			page 20


 172:..\..\..\arduinoLCD\test\Pain Drain\libraries\lvgl\src\draw\../misc/lv_mem.h ****  * @param len number of byte to set
 173:..\..\..\arduinoLCD\test\Pain Drain\libraries\lvgl\src\draw\../misc/lv_mem.h ****  */
 174:..\..\..\arduinoLCD\test\Pain Drain\libraries\lvgl\src\draw\../misc/lv_mem.h **** static inline void lv_memset_ff(void * dst, size_t len)
 175:..\..\..\arduinoLCD\test\Pain Drain\libraries\lvgl\src\draw\../misc/lv_mem.h **** {
 176:..\..\..\arduinoLCD\test\Pain Drain\libraries\lvgl\src\draw\../misc/lv_mem.h ****     memset(dst, 0xFF, len);
 177:..\..\..\arduinoLCD\test\Pain Drain\libraries\lvgl\src\draw\../misc/lv_mem.h **** }
 178:..\..\..\arduinoLCD\test\Pain Drain\libraries\lvgl\src\draw\../misc/lv_mem.h **** 
 179:..\..\..\arduinoLCD\test\Pain Drain\libraries\lvgl\src\draw\../misc/lv_mem.h **** #else
 180:..\..\..\arduinoLCD\test\Pain Drain\libraries\lvgl\src\draw\../misc/lv_mem.h **** /**
 181:..\..\..\arduinoLCD\test\Pain Drain\libraries\lvgl\src\draw\../misc/lv_mem.h ****  * Same as `memcpy` but optimized for 4 byte operation.
 182:..\..\..\arduinoLCD\test\Pain Drain\libraries\lvgl\src\draw\../misc/lv_mem.h ****  * @param dst pointer to the destination buffer
 183:..\..\..\arduinoLCD\test\Pain Drain\libraries\lvgl\src\draw\../misc/lv_mem.h ****  * @param src pointer to the source buffer
 184:..\..\..\arduinoLCD\test\Pain Drain\libraries\lvgl\src\draw\../misc/lv_mem.h ****  * @param len number of byte to copy
 185:..\..\..\arduinoLCD\test\Pain Drain\libraries\lvgl\src\draw\../misc/lv_mem.h ****  */
 186:..\..\..\arduinoLCD\test\Pain Drain\libraries\lvgl\src\draw\../misc/lv_mem.h **** LV_ATTRIBUTE_FAST_MEM void * lv_memcpy(void * dst, const void * src, size_t len);
 187:..\..\..\arduinoLCD\test\Pain Drain\libraries\lvgl\src\draw\../misc/lv_mem.h **** 
 188:..\..\..\arduinoLCD\test\Pain Drain\libraries\lvgl\src\draw\../misc/lv_mem.h **** /**
 189:..\..\..\arduinoLCD\test\Pain Drain\libraries\lvgl\src\draw\../misc/lv_mem.h ****  * Same as `memcpy` but optimized to copy only a few bytes.
 190:..\..\..\arduinoLCD\test\Pain Drain\libraries\lvgl\src\draw\../misc/lv_mem.h ****  * @param dst pointer to the destination buffer
 191:..\..\..\arduinoLCD\test\Pain Drain\libraries\lvgl\src\draw\../misc/lv_mem.h ****  * @param src pointer to the source buffer
 192:..\..\..\arduinoLCD\test\Pain Drain\libraries\lvgl\src\draw\../misc/lv_mem.h ****  * @param len number of byte to copy
 193:..\..\..\arduinoLCD\test\Pain Drain\libraries\lvgl\src\draw\../misc/lv_mem.h ****  */
 194:..\..\..\arduinoLCD\test\Pain Drain\libraries\lvgl\src\draw\../misc/lv_mem.h **** LV_ATTRIBUTE_FAST_MEM static inline void * lv_memcpy_small(void * dst, const void * src, size_t len
 195:..\..\..\arduinoLCD\test\Pain Drain\libraries\lvgl\src\draw\../misc/lv_mem.h **** {
 196:..\..\..\arduinoLCD\test\Pain Drain\libraries\lvgl\src\draw\../misc/lv_mem.h ****     uint8_t * d8 = (uint8_t *)dst;
 197:..\..\..\arduinoLCD\test\Pain Drain\libraries\lvgl\src\draw\../misc/lv_mem.h ****     const uint8_t * s8 = (const uint8_t *)src;
 378              		.loc 2 197 0
 379 005c 05AA     		add	r2, sp, #20
 380              	.LVL42:
 381              	.LBE19:
 382              	.LBE18:
 353:..\..\..\arduinoLCD\test\Pain Drain\libraries\lvgl\src\draw/lv_img_decoder.c ****     }
 383              		.loc 1 353 0
 384 005e 0C23     		movs	r3, #12
 385 0060 04E0     		b	.L25
 386              	.LVL43:
 387              	.L26:
 388              	.LBB21:
 389              	.LBB20:
 198:..\..\..\arduinoLCD\test\Pain Drain\libraries\lvgl\src\draw\../misc/lv_mem.h **** 
 199:..\..\..\arduinoLCD\test\Pain Drain\libraries\lvgl\src\draw\../misc/lv_mem.h ****     while(len) {
 200:..\..\..\arduinoLCD\test\Pain Drain\libraries\lvgl\src\draw\../misc/lv_mem.h ****         *d8 = *s8;
 390              		.loc 2 200 0
 391 0062 1078     		ldrb	r0, [r2]
 392 0064 0870     		strb	r0, [r1]
 201:..\..\..\arduinoLCD\test\Pain Drain\libraries\lvgl\src\draw\../misc/lv_mem.h ****         d8++;
 393              		.loc 2 201 0
 394 0066 0131     		adds	r1, r1, #1
 395              	.LVL44:
 202:..\..\..\arduinoLCD\test\Pain Drain\libraries\lvgl\src\draw\../misc/lv_mem.h ****         s8++;
 396              		.loc 2 202 0
 397 0068 0132     		adds	r2, r2, #1
 398              	.LVL45:
 203:..\..\..\arduinoLCD\test\Pain Drain\libraries\lvgl\src\draw\../misc/lv_mem.h ****         len--;
 399              		.loc 2 203 0
 400 006a 013B     		subs	r3, r3, #1
 401              	.LVL46:
ARM GAS  C:\Users\haske\AppData\Local\Temp\ccufPcu5.s 			page 21


 402              	.L25:
 199:..\..\..\arduinoLCD\test\Pain Drain\libraries\lvgl\src\draw\../misc/lv_mem.h ****         *d8 = *s8;
 403              		.loc 2 199 0
 404 006c 002B     		cmp	r3, #0
 405 006e F8D1     		bne	.L26
 406 0070 08E0     		b	.L27
 407              	.LVL47:
 408              	.L20:
 409              	.LBE20:
 410              	.LBE21:
 331:..\..\..\arduinoLCD\test\Pain Drain\libraries\lvgl\src\draw/lv_img_decoder.c **** 
 411              		.loc 1 331 0 discriminator 2
 412 0072 0025     		movs	r5, #0
 413 0074 BEE0     		b	.L28
 414              	.LVL48:
 415              	.L19:
 416              	.LBE17:
 355:..\..\..\arduinoLCD\test\Pain Drain\libraries\lvgl\src\draw/lv_img_decoder.c ****         /*The variables should have valid data*/
 417              		.loc 1 355 0
 418 0076 002D     		cmp	r5, #0
 419 0078 04D1     		bne	.L27
 357:..\..\..\arduinoLCD\test\Pain Drain\libraries\lvgl\src\draw/lv_img_decoder.c ****             return LV_RES_INV;
 420              		.loc 1 357 0
 421 007a 4B68     		ldr	r3, [r1, #4]
 422 007c 9B68     		ldr	r3, [r3, #8]
 423 007e 002B     		cmp	r3, #0
 424 0080 00D1     		bne	.LCB430
 425 0082 B7E0     		b	.L28	@long jump
 426              	.LCB430:
 427              	.LVL49:
 428              	.L27:
 362:..\..\..\arduinoLCD\test\Pain Drain\libraries\lvgl\src\draw/lv_img_decoder.c ****     /*Process true color formats*/
 429              		.loc 1 362 0
 430 0084 387D     		ldrb	r0, [r7, #20]
 431 0086 C006     		lsls	r0, r0, #27
 432 0088 C00E     		lsrs	r0, r0, #27
 433              	.LVL50:
 364:..\..\..\arduinoLCD\test\Pain Drain\libraries\lvgl\src\draw/lv_img_decoder.c ****        cf == LV_IMG_CF_TRUE_COLOR_CHROMA_KEYED || cf == LV_IMG_CF_RGB565A8 ||
 434              		.loc 1 364 0
 435 008a 031F     		subs	r3, r0, #4
 436 008c DBB2     		uxtb	r3, r3
 437 008e 022B     		cmp	r3, #2
 438 0090 03D9     		bls	.L29
 365:..\..\..\arduinoLCD\test\Pain Drain\libraries\lvgl\src\draw/lv_img_decoder.c ****        cf == LV_IMG_CF_ALPHA_8BIT) {
 439              		.loc 1 365 0
 440 0092 1428     		cmp	r0, #20
 441 0094 01D0     		beq	.L29
 365:..\..\..\arduinoLCD\test\Pain Drain\libraries\lvgl\src\draw/lv_img_decoder.c ****        cf == LV_IMG_CF_ALPHA_8BIT) {
 442              		.loc 1 365 0 is_stmt 0 discriminator 1
 443 0096 0E28     		cmp	r0, #14
 444 0098 08D1     		bne	.L30
 445              	.L29:
 367:..\..\..\arduinoLCD\test\Pain Drain\libraries\lvgl\src\draw/lv_img_decoder.c ****             /*In case of uncompressed formats the image stored in the ROM/RAM.
 446              		.loc 1 367 0 is_stmt 1
 447 009a 3B7C     		ldrb	r3, [r7, #16]
 448 009c 002B     		cmp	r3, #0
 449 009e 00D0     		beq	.LCB450
ARM GAS  C:\Users\haske\AppData\Local\Temp\ccufPcu5.s 			page 22


 450 00a0 A3E0     		b	.L46	@long jump
 451              	.LCB450:
 370:..\..\..\arduinoLCD\test\Pain Drain\libraries\lvgl\src\draw/lv_img_decoder.c ****             return LV_RES_OK;
 452              		.loc 1 370 0
 453 00a2 7B68     		ldr	r3, [r7, #4]
 454 00a4 9B68     		ldr	r3, [r3, #8]
 455 00a6 BB61     		str	r3, [r7, #24]
 371:..\..\..\arduinoLCD\test\Pain Drain\libraries\lvgl\src\draw/lv_img_decoder.c ****         }
 456              		.loc 1 371 0
 457 00a8 0125     		movs	r5, #1
 458 00aa A3E0     		b	.L28
 459              	.L30:
 379:..\..\..\arduinoLCD\test\Pain Drain\libraries\lvgl\src\draw/lv_img_decoder.c ****             cf == LV_IMG_CF_INDEXED_8BIT) {
 460              		.loc 1 379 0
 461 00ac C31F     		subs	r3, r0, #7
 462 00ae DBB2     		uxtb	r3, r3
 463 00b0 032B     		cmp	r3, #3
 464 00b2 00D9     		bls	.LCB465
 465 00b4 8FE0     		b	.L31	@long jump
 466              	.LCB465:
 467              	.LBB22:
 381:..\..\..\arduinoLCD\test\Pain Drain\libraries\lvgl\src\draw/lv_img_decoder.c ****         uint32_t palette_size = 1 << px_size;
 468              		.loc 1 381 0
 469 00b6 FFF7FEFF 		bl	lv_img_cf_get_px_size
 470              	.LVL51:
 382:..\..\..\arduinoLCD\test\Pain Drain\libraries\lvgl\src\draw/lv_img_decoder.c **** 
 471              		.loc 1 382 0
 472 00ba 0123     		movs	r3, #1
 473 00bc 8340     		lsls	r3, r3, r0
 474 00be 9A46     		mov	r10, r3
 475              	.LVL52:
 385:..\..\..\arduinoLCD\test\Pain Drain\libraries\lvgl\src\draw/lv_img_decoder.c ****             dsc->user_data = lv_mem_alloc(sizeof(lv_img_decoder_built_in_data_t));
 476              		.loc 1 385 0
 477 00c0 7B6A     		ldr	r3, [r7, #36]
 478              	.LVL53:
 479 00c2 002B     		cmp	r3, #0
 480 00c4 0CD1     		bne	.L32
 386:..\..\..\arduinoLCD\test\Pain Drain\libraries\lvgl\src\draw/lv_img_decoder.c ****             LV_ASSERT_MALLOC(dsc->user_data);
 481              		.loc 1 386 0
 482 00c6 1420     		movs	r0, #20
 483              	.LVL54:
 484 00c8 FFF7FEFF 		bl	lv_mem_alloc
 485              	.LVL55:
 486 00cc 7862     		str	r0, [r7, #36]
 387:..\..\..\arduinoLCD\test\Pain Drain\libraries\lvgl\src\draw/lv_img_decoder.c ****             if(dsc->user_data == NULL) {
 487              		.loc 1 387 0
 488 00ce 0028     		cmp	r0, #0
 489 00d0 00D1     		bne	.L33
 490              	.L34:
 491 00d2 FEE7     		b	.L34
 492              	.L33:
 388:..\..\..\arduinoLCD\test\Pain Drain\libraries\lvgl\src\draw/lv_img_decoder.c ****                 LV_LOG_ERROR("img_decoder_built_in_open: out of memory");
 493              		.loc 1 388 0
 494 00d4 0028     		cmp	r0, #0
 495 00d6 00D1     		bne	.LCB493
 496 00d8 89E0     		b	.L47	@long jump
 497              	.LCB493:
ARM GAS  C:\Users\haske\AppData\Local\Temp\ccufPcu5.s 			page 23


 392:..\..\..\arduinoLCD\test\Pain Drain\libraries\lvgl\src\draw/lv_img_decoder.c ****         }
 498              		.loc 1 392 0
 499 00da 1421     		movs	r1, #20
 500 00dc FFF7FEFF 		bl	lv_memset_00
 501              	.LVL56:
 502              	.L32:
 395:..\..\..\arduinoLCD\test\Pain Drain\libraries\lvgl\src\draw/lv_img_decoder.c ****         user_data->palette                         = lv_mem_alloc(palette_size * sizeof(lv_color_t)
 503              		.loc 1 395 0
 504 00e0 7E6A     		ldr	r6, [r7, #36]
 505              	.LVL57:
 396:..\..\..\arduinoLCD\test\Pain Drain\libraries\lvgl\src\draw/lv_img_decoder.c ****         LV_ASSERT_MALLOC(user_data->palette);
 506              		.loc 1 396 0
 507 00e2 5346     		mov	r3, r10
 508 00e4 5800     		lsls	r0, r3, #1
 509 00e6 FFF7FEFF 		bl	lv_mem_alloc
 510              	.LVL58:
 511 00ea F060     		str	r0, [r6, #12]
 397:..\..\..\arduinoLCD\test\Pain Drain\libraries\lvgl\src\draw/lv_img_decoder.c ****         user_data->opa                             = lv_mem_alloc(palette_size * sizeof(lv_opa_t));
 512              		.loc 1 397 0
 513 00ec 0028     		cmp	r0, #0
 514 00ee 00D1     		bne	.L35
 515              	.L36:
 516 00f0 FEE7     		b	.L36
 517              	.L35:
 398:..\..\..\arduinoLCD\test\Pain Drain\libraries\lvgl\src\draw/lv_img_decoder.c ****         LV_ASSERT_MALLOC(user_data->opa);
 518              		.loc 1 398 0
 519 00f2 5046     		mov	r0, r10
 520 00f4 FFF7FEFF 		bl	lv_mem_alloc
 521              	.LVL59:
 522 00f8 3061     		str	r0, [r6, #16]
 399:..\..\..\arduinoLCD\test\Pain Drain\libraries\lvgl\src\draw/lv_img_decoder.c ****         if(user_data->palette == NULL || user_data->opa == NULL) {
 523              		.loc 1 399 0
 524 00fa 0028     		cmp	r0, #0
 525 00fc 00D1     		bne	.L37
 526              	.L38:
 527 00fe FEE7     		b	.L38
 528              	.L37:
 400:..\..\..\arduinoLCD\test\Pain Drain\libraries\lvgl\src\draw/lv_img_decoder.c ****             LV_LOG_ERROR("img_decoder_built_in_open: out of memory");
 529              		.loc 1 400 0
 530 0100 F368     		ldr	r3, [r6, #12]
 531 0102 002B     		cmp	r3, #0
 532 0104 01D0     		beq	.L39
 400:..\..\..\arduinoLCD\test\Pain Drain\libraries\lvgl\src\draw/lv_img_decoder.c ****             LV_LOG_ERROR("img_decoder_built_in_open: out of memory");
 533              		.loc 1 400 0 is_stmt 0 discriminator 1
 534 0106 0028     		cmp	r0, #0
 535 0108 05D1     		bne	.L40
 536              	.L39:
 402:..\..\..\arduinoLCD\test\Pain Drain\libraries\lvgl\src\draw/lv_img_decoder.c ****             return LV_RES_INV;
 537              		.loc 1 402 0 is_stmt 1
 538 010a 3900     		movs	r1, r7
 539 010c 2000     		movs	r0, r4
 540 010e FFF7FEFF 		bl	lv_img_decoder_built_in_close
 541              	.LVL60:
 403:..\..\..\arduinoLCD\test\Pain Drain\libraries\lvgl\src\draw/lv_img_decoder.c ****         }
 542              		.loc 1 403 0
 543 0112 0025     		movs	r5, #0
 544 0114 6EE0     		b	.L28
ARM GAS  C:\Users\haske\AppData\Local\Temp\ccufPcu5.s 			page 24


 545              	.L40:
 406:..\..\..\arduinoLCD\test\Pain Drain\libraries\lvgl\src\draw/lv_img_decoder.c ****             /*Read the palette from file*/
 546              		.loc 1 406 0
 547 0116 3D7C     		ldrb	r5, [r7, #16]
 548 0118 012D     		cmp	r5, #1
 549 011a 32D1     		bne	.L41
 550              	.LBB23:
 408:..\..\..\arduinoLCD\test\Pain Drain\libraries\lvgl\src\draw/lv_img_decoder.c ****             lv_color32_t cur_color;
 551              		.loc 1 408 0
 552 011c 0196     		str	r6, [sp, #4]
 553 011e 0022     		movs	r2, #0
 554 0120 0421     		movs	r1, #4
 555 0122 3000     		movs	r0, r6
 556 0124 FFF7FEFF 		bl	lv_fs_seek
 557              	.LVL61:
 411:..\..\..\arduinoLCD\test\Pain Drain\libraries\lvgl\src\draw/lv_img_decoder.c ****                 lv_fs_read(&user_data->f, &cur_color, sizeof(lv_color32_t), NULL);
 558              		.loc 1 411 0
 559 0128 0027     		movs	r7, #0
 560              	.LVL62:
 561 012a 27E0     		b	.L42
 562              	.LVL63:
 563              	.L43:
 412:..\..\..\arduinoLCD\test\Pain Drain\libraries\lvgl\src\draw/lv_img_decoder.c ****                 user_data->palette[i] = lv_color_make(cur_color.ch.red, cur_color.ch.green, cur_col
 564              		.loc 1 412 0 discriminator 3
 565 012c 05AC     		add	r4, sp, #20
 566 012e 0023     		movs	r3, #0
 567 0130 0422     		movs	r2, #4
 568 0132 2100     		movs	r1, r4
 569 0134 0198     		ldr	r0, [sp, #4]
 570 0136 FFF7FEFF 		bl	lv_fs_read
 571              	.LVL64:
 413:..\..\..\arduinoLCD\test\Pain Drain\libraries\lvgl\src\draw/lv_img_decoder.c ****                 user_data->opa[i]     = cur_color.ch.alpha;
 572              		.loc 1 413 0 discriminator 3
 573 013a 7B00     		lsls	r3, r7, #1
 574 013c 9946     		mov	r9, r3
 575 013e A078     		ldrb	r0, [r4, #2]
 576 0140 6378     		ldrb	r3, [r4, #1]
 577 0142 9846     		mov	r8, r3
 578 0144 2278     		ldrb	r2, [r4]
 579              	.LVL65:
 580              	.LBB24:
 581              	.LBB25:
 582              		.file 3 "..\\..\\..\\arduinoLCD\\test\\Pain Drain\\libraries\\lvgl\\src\\draw\\../misc/lv_color.h"
   1:..\..\..\arduinoLCD\test\Pain Drain\libraries\lvgl\src\draw\../misc/lv_color.h **** /**
   2:..\..\..\arduinoLCD\test\Pain Drain\libraries\lvgl\src\draw\../misc/lv_color.h ****  * @file lv_color.h
   3:..\..\..\arduinoLCD\test\Pain Drain\libraries\lvgl\src\draw\../misc/lv_color.h ****  *
   4:..\..\..\arduinoLCD\test\Pain Drain\libraries\lvgl\src\draw\../misc/lv_color.h ****  */
   5:..\..\..\arduinoLCD\test\Pain Drain\libraries\lvgl\src\draw\../misc/lv_color.h **** 
   6:..\..\..\arduinoLCD\test\Pain Drain\libraries\lvgl\src\draw\../misc/lv_color.h **** #ifndef LV_COLOR_H
   7:..\..\..\arduinoLCD\test\Pain Drain\libraries\lvgl\src\draw\../misc/lv_color.h **** #define LV_COLOR_H
   8:..\..\..\arduinoLCD\test\Pain Drain\libraries\lvgl\src\draw\../misc/lv_color.h **** 
   9:..\..\..\arduinoLCD\test\Pain Drain\libraries\lvgl\src\draw\../misc/lv_color.h **** #ifdef __cplusplus
  10:..\..\..\arduinoLCD\test\Pain Drain\libraries\lvgl\src\draw\../misc/lv_color.h **** extern "C" {
  11:..\..\..\arduinoLCD\test\Pain Drain\libraries\lvgl\src\draw\../misc/lv_color.h **** #endif
  12:..\..\..\arduinoLCD\test\Pain Drain\libraries\lvgl\src\draw\../misc/lv_color.h **** 
  13:..\..\..\arduinoLCD\test\Pain Drain\libraries\lvgl\src\draw\../misc/lv_color.h **** /*********************
  14:..\..\..\arduinoLCD\test\Pain Drain\libraries\lvgl\src\draw\../misc/lv_color.h ****  *      INCLUDES
ARM GAS  C:\Users\haske\AppData\Local\Temp\ccufPcu5.s 			page 25


  15:..\..\..\arduinoLCD\test\Pain Drain\libraries\lvgl\src\draw\../misc/lv_color.h ****  *********************/
  16:..\..\..\arduinoLCD\test\Pain Drain\libraries\lvgl\src\draw\../misc/lv_color.h **** #include "../lv_conf_internal.h"
  17:..\..\..\arduinoLCD\test\Pain Drain\libraries\lvgl\src\draw\../misc/lv_color.h **** #include "lv_assert.h"
  18:..\..\..\arduinoLCD\test\Pain Drain\libraries\lvgl\src\draw\../misc/lv_color.h **** #include "lv_math.h"
  19:..\..\..\arduinoLCD\test\Pain Drain\libraries\lvgl\src\draw\../misc/lv_color.h **** #include "lv_types.h"
  20:..\..\..\arduinoLCD\test\Pain Drain\libraries\lvgl\src\draw\../misc/lv_color.h **** 
  21:..\..\..\arduinoLCD\test\Pain Drain\libraries\lvgl\src\draw\../misc/lv_color.h **** /*Error checking*/
  22:..\..\..\arduinoLCD\test\Pain Drain\libraries\lvgl\src\draw\../misc/lv_color.h **** #if LV_COLOR_DEPTH == 24
  23:..\..\..\arduinoLCD\test\Pain Drain\libraries\lvgl\src\draw\../misc/lv_color.h **** #error "LV_COLOR_DEPTH 24 is deprecated. Use LV_COLOR_DEPTH 32 instead (lv_conf.h)"
  24:..\..\..\arduinoLCD\test\Pain Drain\libraries\lvgl\src\draw\../misc/lv_color.h **** #endif
  25:..\..\..\arduinoLCD\test\Pain Drain\libraries\lvgl\src\draw\../misc/lv_color.h **** 
  26:..\..\..\arduinoLCD\test\Pain Drain\libraries\lvgl\src\draw\../misc/lv_color.h **** #if LV_COLOR_DEPTH != 16 && LV_COLOR_16_SWAP != 0
  27:..\..\..\arduinoLCD\test\Pain Drain\libraries\lvgl\src\draw\../misc/lv_color.h **** #error "LV_COLOR_16_SWAP requires LV_COLOR_DEPTH == 16. Set it in lv_conf.h"
  28:..\..\..\arduinoLCD\test\Pain Drain\libraries\lvgl\src\draw\../misc/lv_color.h **** #endif
  29:..\..\..\arduinoLCD\test\Pain Drain\libraries\lvgl\src\draw\../misc/lv_color.h **** 
  30:..\..\..\arduinoLCD\test\Pain Drain\libraries\lvgl\src\draw\../misc/lv_color.h **** #include <stdint.h>
  31:..\..\..\arduinoLCD\test\Pain Drain\libraries\lvgl\src\draw\../misc/lv_color.h **** 
  32:..\..\..\arduinoLCD\test\Pain Drain\libraries\lvgl\src\draw\../misc/lv_color.h **** /*********************
  33:..\..\..\arduinoLCD\test\Pain Drain\libraries\lvgl\src\draw\../misc/lv_color.h ****  *      DEFINES
  34:..\..\..\arduinoLCD\test\Pain Drain\libraries\lvgl\src\draw\../misc/lv_color.h ****  *********************/
  35:..\..\..\arduinoLCD\test\Pain Drain\libraries\lvgl\src\draw\../misc/lv_color.h **** LV_EXPORT_CONST_INT(LV_COLOR_DEPTH);
  36:..\..\..\arduinoLCD\test\Pain Drain\libraries\lvgl\src\draw\../misc/lv_color.h **** LV_EXPORT_CONST_INT(LV_COLOR_16_SWAP);
  37:..\..\..\arduinoLCD\test\Pain Drain\libraries\lvgl\src\draw\../misc/lv_color.h **** 
  38:..\..\..\arduinoLCD\test\Pain Drain\libraries\lvgl\src\draw\../misc/lv_color.h **** /**
  39:..\..\..\arduinoLCD\test\Pain Drain\libraries\lvgl\src\draw\../misc/lv_color.h ****  * Opacity percentages.
  40:..\..\..\arduinoLCD\test\Pain Drain\libraries\lvgl\src\draw\../misc/lv_color.h ****  */
  41:..\..\..\arduinoLCD\test\Pain Drain\libraries\lvgl\src\draw\../misc/lv_color.h **** enum {
  42:..\..\..\arduinoLCD\test\Pain Drain\libraries\lvgl\src\draw\../misc/lv_color.h ****     LV_OPA_TRANSP = 0,
  43:..\..\..\arduinoLCD\test\Pain Drain\libraries\lvgl\src\draw\../misc/lv_color.h ****     LV_OPA_0      = 0,
  44:..\..\..\arduinoLCD\test\Pain Drain\libraries\lvgl\src\draw\../misc/lv_color.h ****     LV_OPA_10     = 25,
  45:..\..\..\arduinoLCD\test\Pain Drain\libraries\lvgl\src\draw\../misc/lv_color.h ****     LV_OPA_20     = 51,
  46:..\..\..\arduinoLCD\test\Pain Drain\libraries\lvgl\src\draw\../misc/lv_color.h ****     LV_OPA_30     = 76,
  47:..\..\..\arduinoLCD\test\Pain Drain\libraries\lvgl\src\draw\../misc/lv_color.h ****     LV_OPA_40     = 102,
  48:..\..\..\arduinoLCD\test\Pain Drain\libraries\lvgl\src\draw\../misc/lv_color.h ****     LV_OPA_50     = 127,
  49:..\..\..\arduinoLCD\test\Pain Drain\libraries\lvgl\src\draw\../misc/lv_color.h ****     LV_OPA_60     = 153,
  50:..\..\..\arduinoLCD\test\Pain Drain\libraries\lvgl\src\draw\../misc/lv_color.h ****     LV_OPA_70     = 178,
  51:..\..\..\arduinoLCD\test\Pain Drain\libraries\lvgl\src\draw\../misc/lv_color.h ****     LV_OPA_80     = 204,
  52:..\..\..\arduinoLCD\test\Pain Drain\libraries\lvgl\src\draw\../misc/lv_color.h ****     LV_OPA_90     = 229,
  53:..\..\..\arduinoLCD\test\Pain Drain\libraries\lvgl\src\draw\../misc/lv_color.h ****     LV_OPA_100    = 255,
  54:..\..\..\arduinoLCD\test\Pain Drain\libraries\lvgl\src\draw\../misc/lv_color.h ****     LV_OPA_COVER  = 255,
  55:..\..\..\arduinoLCD\test\Pain Drain\libraries\lvgl\src\draw\../misc/lv_color.h **** };
  56:..\..\..\arduinoLCD\test\Pain Drain\libraries\lvgl\src\draw\../misc/lv_color.h **** 
  57:..\..\..\arduinoLCD\test\Pain Drain\libraries\lvgl\src\draw\../misc/lv_color.h **** #define LV_OPA_MIN 2    /*Opacities below this will be transparent*/
  58:..\..\..\arduinoLCD\test\Pain Drain\libraries\lvgl\src\draw\../misc/lv_color.h **** #define LV_OPA_MAX 253  /*Opacities above this will fully cover*/
  59:..\..\..\arduinoLCD\test\Pain Drain\libraries\lvgl\src\draw\../misc/lv_color.h **** 
  60:..\..\..\arduinoLCD\test\Pain Drain\libraries\lvgl\src\draw\../misc/lv_color.h **** #if LV_COLOR_DEPTH == 1
  61:..\..\..\arduinoLCD\test\Pain Drain\libraries\lvgl\src\draw\../misc/lv_color.h **** #define LV_COLOR_SIZE 8
  62:..\..\..\arduinoLCD\test\Pain Drain\libraries\lvgl\src\draw\../misc/lv_color.h **** #elif LV_COLOR_DEPTH == 8
  63:..\..\..\arduinoLCD\test\Pain Drain\libraries\lvgl\src\draw\../misc/lv_color.h **** #define LV_COLOR_SIZE 8
  64:..\..\..\arduinoLCD\test\Pain Drain\libraries\lvgl\src\draw\../misc/lv_color.h **** #elif LV_COLOR_DEPTH == 16
  65:..\..\..\arduinoLCD\test\Pain Drain\libraries\lvgl\src\draw\../misc/lv_color.h **** #define LV_COLOR_SIZE 16
  66:..\..\..\arduinoLCD\test\Pain Drain\libraries\lvgl\src\draw\../misc/lv_color.h **** #elif LV_COLOR_DEPTH == 32
  67:..\..\..\arduinoLCD\test\Pain Drain\libraries\lvgl\src\draw\../misc/lv_color.h **** #define LV_COLOR_SIZE 32
  68:..\..\..\arduinoLCD\test\Pain Drain\libraries\lvgl\src\draw\../misc/lv_color.h **** #else
  69:..\..\..\arduinoLCD\test\Pain Drain\libraries\lvgl\src\draw\../misc/lv_color.h **** #error "Invalid LV_COLOR_DEPTH in lv_conf.h! Set it to 1, 8, 16 or 32!"
  70:..\..\..\arduinoLCD\test\Pain Drain\libraries\lvgl\src\draw\../misc/lv_color.h **** #endif
  71:..\..\..\arduinoLCD\test\Pain Drain\libraries\lvgl\src\draw\../misc/lv_color.h **** 
ARM GAS  C:\Users\haske\AppData\Local\Temp\ccufPcu5.s 			page 26


  72:..\..\..\arduinoLCD\test\Pain Drain\libraries\lvgl\src\draw\../misc/lv_color.h **** #if defined(__cplusplus) && !defined(_LV_COLOR_HAS_MODERN_CPP)
  73:..\..\..\arduinoLCD\test\Pain Drain\libraries\lvgl\src\draw\../misc/lv_color.h **** /**
  74:..\..\..\arduinoLCD\test\Pain Drain\libraries\lvgl\src\draw\../misc/lv_color.h **** * MSVC compiler's definition of the __cplusplus indicating 199711L regardless to C++ standard versi
  75:..\..\..\arduinoLCD\test\Pain Drain\libraries\lvgl\src\draw\../misc/lv_color.h **** * see https://devblogs.microsoft.com/cppblog/msvc-now-correctly-reports-cplusplus
  76:..\..\..\arduinoLCD\test\Pain Drain\libraries\lvgl\src\draw\../misc/lv_color.h **** * so we use _MSC_VER macro instead of __cplusplus
  77:..\..\..\arduinoLCD\test\Pain Drain\libraries\lvgl\src\draw\../misc/lv_color.h **** */
  78:..\..\..\arduinoLCD\test\Pain Drain\libraries\lvgl\src\draw\../misc/lv_color.h **** #ifdef _MSC_VER
  79:..\..\..\arduinoLCD\test\Pain Drain\libraries\lvgl\src\draw\../misc/lv_color.h **** #if _MSC_VER >= 1900 /*Visual Studio 2015*/
  80:..\..\..\arduinoLCD\test\Pain Drain\libraries\lvgl\src\draw\../misc/lv_color.h **** #define _LV_COLOR_HAS_MODERN_CPP 1
  81:..\..\..\arduinoLCD\test\Pain Drain\libraries\lvgl\src\draw\../misc/lv_color.h **** #endif
  82:..\..\..\arduinoLCD\test\Pain Drain\libraries\lvgl\src\draw\../misc/lv_color.h **** #else
  83:..\..\..\arduinoLCD\test\Pain Drain\libraries\lvgl\src\draw\../misc/lv_color.h **** #if __cplusplus >= 201103L
  84:..\..\..\arduinoLCD\test\Pain Drain\libraries\lvgl\src\draw\../misc/lv_color.h **** #define _LV_COLOR_HAS_MODERN_CPP 1
  85:..\..\..\arduinoLCD\test\Pain Drain\libraries\lvgl\src\draw\../misc/lv_color.h **** #endif
  86:..\..\..\arduinoLCD\test\Pain Drain\libraries\lvgl\src\draw\../misc/lv_color.h **** #endif
  87:..\..\..\arduinoLCD\test\Pain Drain\libraries\lvgl\src\draw\../misc/lv_color.h **** #endif /*__cplusplus*/
  88:..\..\..\arduinoLCD\test\Pain Drain\libraries\lvgl\src\draw\../misc/lv_color.h **** 
  89:..\..\..\arduinoLCD\test\Pain Drain\libraries\lvgl\src\draw\../misc/lv_color.h **** #ifndef _LV_COLOR_HAS_MODERN_CPP
  90:..\..\..\arduinoLCD\test\Pain Drain\libraries\lvgl\src\draw\../misc/lv_color.h **** #define _LV_COLOR_HAS_MODERN_CPP 0
  91:..\..\..\arduinoLCD\test\Pain Drain\libraries\lvgl\src\draw\../misc/lv_color.h **** #endif
  92:..\..\..\arduinoLCD\test\Pain Drain\libraries\lvgl\src\draw\../misc/lv_color.h **** 
  93:..\..\..\arduinoLCD\test\Pain Drain\libraries\lvgl\src\draw\../misc/lv_color.h **** #if _LV_COLOR_HAS_MODERN_CPP
  94:..\..\..\arduinoLCD\test\Pain Drain\libraries\lvgl\src\draw\../misc/lv_color.h **** /*Fix msvc compiler error C4576 inside C++ code*/
  95:..\..\..\arduinoLCD\test\Pain Drain\libraries\lvgl\src\draw\../misc/lv_color.h **** #define _LV_COLOR_MAKE_TYPE_HELPER lv_color_t
  96:..\..\..\arduinoLCD\test\Pain Drain\libraries\lvgl\src\draw\../misc/lv_color.h **** #else
  97:..\..\..\arduinoLCD\test\Pain Drain\libraries\lvgl\src\draw\../misc/lv_color.h **** #define _LV_COLOR_MAKE_TYPE_HELPER (lv_color_t)
  98:..\..\..\arduinoLCD\test\Pain Drain\libraries\lvgl\src\draw\../misc/lv_color.h **** #endif
  99:..\..\..\arduinoLCD\test\Pain Drain\libraries\lvgl\src\draw\../misc/lv_color.h **** 
 100:..\..\..\arduinoLCD\test\Pain Drain\libraries\lvgl\src\draw\../misc/lv_color.h **** /*---------------------------------------
 101:..\..\..\arduinoLCD\test\Pain Drain\libraries\lvgl\src\draw\../misc/lv_color.h ****  * Macros for all existing color depths
 102:..\..\..\arduinoLCD\test\Pain Drain\libraries\lvgl\src\draw\../misc/lv_color.h ****  * to set/get values of the color channels
 103:..\..\..\arduinoLCD\test\Pain Drain\libraries\lvgl\src\draw\../misc/lv_color.h ****  *------------------------------------------*/
 104:..\..\..\arduinoLCD\test\Pain Drain\libraries\lvgl\src\draw\../misc/lv_color.h **** # define LV_COLOR_SET_R1(c, v) (c).ch.red = (uint8_t)((v) & 0x1)
 105:..\..\..\arduinoLCD\test\Pain Drain\libraries\lvgl\src\draw\../misc/lv_color.h **** # define LV_COLOR_SET_G1(c, v) (c).ch.green = (uint8_t)((v) & 0x1)
 106:..\..\..\arduinoLCD\test\Pain Drain\libraries\lvgl\src\draw\../misc/lv_color.h **** # define LV_COLOR_SET_B1(c, v) (c).ch.blue = (uint8_t)((v) & 0x1)
 107:..\..\..\arduinoLCD\test\Pain Drain\libraries\lvgl\src\draw\../misc/lv_color.h **** # define LV_COLOR_SET_A1(c, v) do {} while(0)
 108:..\..\..\arduinoLCD\test\Pain Drain\libraries\lvgl\src\draw\../misc/lv_color.h **** 
 109:..\..\..\arduinoLCD\test\Pain Drain\libraries\lvgl\src\draw\../misc/lv_color.h **** # define LV_COLOR_GET_R1(c) (c).ch.red
 110:..\..\..\arduinoLCD\test\Pain Drain\libraries\lvgl\src\draw\../misc/lv_color.h **** # define LV_COLOR_GET_G1(c) (c).ch.green
 111:..\..\..\arduinoLCD\test\Pain Drain\libraries\lvgl\src\draw\../misc/lv_color.h **** # define LV_COLOR_GET_B1(c) (c).ch.blue
 112:..\..\..\arduinoLCD\test\Pain Drain\libraries\lvgl\src\draw\../misc/lv_color.h **** # define LV_COLOR_GET_A1(c) 0xFF
 113:..\..\..\arduinoLCD\test\Pain Drain\libraries\lvgl\src\draw\../misc/lv_color.h **** 
 114:..\..\..\arduinoLCD\test\Pain Drain\libraries\lvgl\src\draw\../misc/lv_color.h **** # define _LV_COLOR_ZERO_INITIALIZER1 {0x00}
 115:..\..\..\arduinoLCD\test\Pain Drain\libraries\lvgl\src\draw\../misc/lv_color.h **** # define LV_COLOR_MAKE1(r8, g8, b8)  {(uint8_t)((b8 >> 7) | (g8 >> 7) | (r8 >> 7))}
 116:..\..\..\arduinoLCD\test\Pain Drain\libraries\lvgl\src\draw\../misc/lv_color.h **** 
 117:..\..\..\arduinoLCD\test\Pain Drain\libraries\lvgl\src\draw\../misc/lv_color.h **** # define LV_COLOR_SET_R8(c, v) (c).ch.red = (uint8_t)((v) & 0x7U)
 118:..\..\..\arduinoLCD\test\Pain Drain\libraries\lvgl\src\draw\../misc/lv_color.h **** # define LV_COLOR_SET_G8(c, v) (c).ch.green = (uint8_t)((v) & 0x7U)
 119:..\..\..\arduinoLCD\test\Pain Drain\libraries\lvgl\src\draw\../misc/lv_color.h **** # define LV_COLOR_SET_B8(c, v) (c).ch.blue = (uint8_t)((v) & 0x3U)
 120:..\..\..\arduinoLCD\test\Pain Drain\libraries\lvgl\src\draw\../misc/lv_color.h **** # define LV_COLOR_SET_A8(c, v) do {} while(0)
 121:..\..\..\arduinoLCD\test\Pain Drain\libraries\lvgl\src\draw\../misc/lv_color.h **** 
 122:..\..\..\arduinoLCD\test\Pain Drain\libraries\lvgl\src\draw\../misc/lv_color.h **** # define LV_COLOR_GET_R8(c) (c).ch.red
 123:..\..\..\arduinoLCD\test\Pain Drain\libraries\lvgl\src\draw\../misc/lv_color.h **** # define LV_COLOR_GET_G8(c) (c).ch.green
 124:..\..\..\arduinoLCD\test\Pain Drain\libraries\lvgl\src\draw\../misc/lv_color.h **** # define LV_COLOR_GET_B8(c) (c).ch.blue
 125:..\..\..\arduinoLCD\test\Pain Drain\libraries\lvgl\src\draw\../misc/lv_color.h **** # define LV_COLOR_GET_A8(c) 0xFF
 126:..\..\..\arduinoLCD\test\Pain Drain\libraries\lvgl\src\draw\../misc/lv_color.h **** 
 127:..\..\..\arduinoLCD\test\Pain Drain\libraries\lvgl\src\draw\../misc/lv_color.h **** # define _LV_COLOR_ZERO_INITIALIZER8 {{0x00, 0x00, 0x00}}
 128:..\..\..\arduinoLCD\test\Pain Drain\libraries\lvgl\src\draw\../misc/lv_color.h **** # define LV_COLOR_MAKE8(r8, g8, b8) {{(uint8_t)((b8 >> 6) & 0x3U), (uint8_t)((g8 >> 5) & 0x7U), (ui
ARM GAS  C:\Users\haske\AppData\Local\Temp\ccufPcu5.s 			page 27


 129:..\..\..\arduinoLCD\test\Pain Drain\libraries\lvgl\src\draw\../misc/lv_color.h **** 
 130:..\..\..\arduinoLCD\test\Pain Drain\libraries\lvgl\src\draw\../misc/lv_color.h **** # define LV_COLOR_SET_R16(c, v) (c).ch.red = (uint8_t)((v) & 0x1FU)
 131:..\..\..\arduinoLCD\test\Pain Drain\libraries\lvgl\src\draw\../misc/lv_color.h **** #if LV_COLOR_16_SWAP == 0
 132:..\..\..\arduinoLCD\test\Pain Drain\libraries\lvgl\src\draw\../misc/lv_color.h **** # define LV_COLOR_SET_G16(c, v) (c).ch.green = (uint8_t)((v) & 0x3FU)
 133:..\..\..\arduinoLCD\test\Pain Drain\libraries\lvgl\src\draw\../misc/lv_color.h **** #else
 134:..\..\..\arduinoLCD\test\Pain Drain\libraries\lvgl\src\draw\../misc/lv_color.h **** # define LV_COLOR_SET_G16(c, v) {(c).ch.green_h = (uint8_t)(((v) >> 3) & 0x7); (c).ch.green_l = (ui
 135:..\..\..\arduinoLCD\test\Pain Drain\libraries\lvgl\src\draw\../misc/lv_color.h **** #endif
 136:..\..\..\arduinoLCD\test\Pain Drain\libraries\lvgl\src\draw\../misc/lv_color.h **** # define LV_COLOR_SET_B16(c, v) (c).ch.blue = (uint8_t)((v) & 0x1FU)
 137:..\..\..\arduinoLCD\test\Pain Drain\libraries\lvgl\src\draw\../misc/lv_color.h **** # define LV_COLOR_SET_A16(c, v) do {} while(0)
 138:..\..\..\arduinoLCD\test\Pain Drain\libraries\lvgl\src\draw\../misc/lv_color.h **** 
 139:..\..\..\arduinoLCD\test\Pain Drain\libraries\lvgl\src\draw\../misc/lv_color.h **** # define LV_COLOR_GET_R16(c) (c).ch.red
 140:..\..\..\arduinoLCD\test\Pain Drain\libraries\lvgl\src\draw\../misc/lv_color.h **** #if LV_COLOR_16_SWAP == 0
 141:..\..\..\arduinoLCD\test\Pain Drain\libraries\lvgl\src\draw\../misc/lv_color.h **** # define LV_COLOR_GET_G16(c) (c).ch.green
 142:..\..\..\arduinoLCD\test\Pain Drain\libraries\lvgl\src\draw\../misc/lv_color.h **** #else
 143:..\..\..\arduinoLCD\test\Pain Drain\libraries\lvgl\src\draw\../misc/lv_color.h **** # define LV_COLOR_GET_G16(c) (((c).ch.green_h << 3) + (c).ch.green_l)
 144:..\..\..\arduinoLCD\test\Pain Drain\libraries\lvgl\src\draw\../misc/lv_color.h **** #endif
 145:..\..\..\arduinoLCD\test\Pain Drain\libraries\lvgl\src\draw\../misc/lv_color.h **** # define LV_COLOR_GET_B16(c) (c).ch.blue
 146:..\..\..\arduinoLCD\test\Pain Drain\libraries\lvgl\src\draw\../misc/lv_color.h **** # define LV_COLOR_GET_A16(c) 0xFF
 147:..\..\..\arduinoLCD\test\Pain Drain\libraries\lvgl\src\draw\../misc/lv_color.h **** 
 148:..\..\..\arduinoLCD\test\Pain Drain\libraries\lvgl\src\draw\../misc/lv_color.h **** #if LV_COLOR_16_SWAP == 0
 149:..\..\..\arduinoLCD\test\Pain Drain\libraries\lvgl\src\draw\../misc/lv_color.h **** # define _LV_COLOR_ZERO_INITIALIZER16  {{0x00, 0x00, 0x00}}
 150:..\..\..\arduinoLCD\test\Pain Drain\libraries\lvgl\src\draw\../misc/lv_color.h **** # define LV_COLOR_MAKE16(r8, g8, b8) {{(uint8_t)((b8 >> 3) & 0x1FU), (uint8_t)((g8 >> 2) & 0x3FU), 
 151:..\..\..\arduinoLCD\test\Pain Drain\libraries\lvgl\src\draw\../misc/lv_color.h **** #else
 152:..\..\..\arduinoLCD\test\Pain Drain\libraries\lvgl\src\draw\../misc/lv_color.h **** # define _LV_COLOR_ZERO_INITIALIZER16 {{0x00, 0x00, 0x00, 0x00}}
 153:..\..\..\arduinoLCD\test\Pain Drain\libraries\lvgl\src\draw\../misc/lv_color.h **** # define LV_COLOR_MAKE16(r8, g8, b8) {{(uint8_t)((g8 >> 5) & 0x7U), (uint8_t)((r8 >> 3) & 0x1FU), (
 154:..\..\..\arduinoLCD\test\Pain Drain\libraries\lvgl\src\draw\../misc/lv_color.h **** #endif
 155:..\..\..\arduinoLCD\test\Pain Drain\libraries\lvgl\src\draw\../misc/lv_color.h **** 
 156:..\..\..\arduinoLCD\test\Pain Drain\libraries\lvgl\src\draw\../misc/lv_color.h **** # define LV_COLOR_SET_R32(c, v) (c).ch.red = (uint8_t)((v) & 0xFF)
 157:..\..\..\arduinoLCD\test\Pain Drain\libraries\lvgl\src\draw\../misc/lv_color.h **** # define LV_COLOR_SET_G32(c, v) (c).ch.green = (uint8_t)((v) & 0xFF)
 158:..\..\..\arduinoLCD\test\Pain Drain\libraries\lvgl\src\draw\../misc/lv_color.h **** # define LV_COLOR_SET_B32(c, v) (c).ch.blue = (uint8_t)((v) & 0xFF)
 159:..\..\..\arduinoLCD\test\Pain Drain\libraries\lvgl\src\draw\../misc/lv_color.h **** # define LV_COLOR_SET_A32(c, v) (c).ch.alpha = (uint8_t)((v) & 0xFF)
 160:..\..\..\arduinoLCD\test\Pain Drain\libraries\lvgl\src\draw\../misc/lv_color.h **** 
 161:..\..\..\arduinoLCD\test\Pain Drain\libraries\lvgl\src\draw\../misc/lv_color.h **** # define LV_COLOR_GET_R32(c) (c).ch.red
 162:..\..\..\arduinoLCD\test\Pain Drain\libraries\lvgl\src\draw\../misc/lv_color.h **** # define LV_COLOR_GET_G32(c) (c).ch.green
 163:..\..\..\arduinoLCD\test\Pain Drain\libraries\lvgl\src\draw\../misc/lv_color.h **** # define LV_COLOR_GET_B32(c) (c).ch.blue
 164:..\..\..\arduinoLCD\test\Pain Drain\libraries\lvgl\src\draw\../misc/lv_color.h **** # define LV_COLOR_GET_A32(c) (c).ch.alpha
 165:..\..\..\arduinoLCD\test\Pain Drain\libraries\lvgl\src\draw\../misc/lv_color.h **** 
 166:..\..\..\arduinoLCD\test\Pain Drain\libraries\lvgl\src\draw\../misc/lv_color.h **** # define _LV_COLOR_ZERO_INITIALIZER32  {{0x00, 0x00, 0x00, 0x00}}
 167:..\..\..\arduinoLCD\test\Pain Drain\libraries\lvgl\src\draw\../misc/lv_color.h **** # define LV_COLOR_MAKE32(r8, g8, b8) {{b8, g8, r8, 0xff}} /*Fix 0xff alpha*/
 168:..\..\..\arduinoLCD\test\Pain Drain\libraries\lvgl\src\draw\../misc/lv_color.h **** 
 169:..\..\..\arduinoLCD\test\Pain Drain\libraries\lvgl\src\draw\../misc/lv_color.h **** /*---------------------------------------
 170:..\..\..\arduinoLCD\test\Pain Drain\libraries\lvgl\src\draw\../misc/lv_color.h ****  * Macros for the current color depth
 171:..\..\..\arduinoLCD\test\Pain Drain\libraries\lvgl\src\draw\../misc/lv_color.h ****  * to set/get values of the color channels
 172:..\..\..\arduinoLCD\test\Pain Drain\libraries\lvgl\src\draw\../misc/lv_color.h ****  *------------------------------------------*/
 173:..\..\..\arduinoLCD\test\Pain Drain\libraries\lvgl\src\draw\../misc/lv_color.h **** #define LV_COLOR_SET_R(c, v) LV_CONCAT(LV_COLOR_SET_R, LV_COLOR_DEPTH)(c, v)
 174:..\..\..\arduinoLCD\test\Pain Drain\libraries\lvgl\src\draw\../misc/lv_color.h **** #define LV_COLOR_SET_G(c, v) LV_CONCAT(LV_COLOR_SET_G, LV_COLOR_DEPTH)(c, v)
 175:..\..\..\arduinoLCD\test\Pain Drain\libraries\lvgl\src\draw\../misc/lv_color.h **** #define LV_COLOR_SET_B(c, v) LV_CONCAT(LV_COLOR_SET_B, LV_COLOR_DEPTH)(c, v)
 176:..\..\..\arduinoLCD\test\Pain Drain\libraries\lvgl\src\draw\../misc/lv_color.h **** #define LV_COLOR_SET_A(c, v) LV_CONCAT(LV_COLOR_SET_A, LV_COLOR_DEPTH)(c, v)
 177:..\..\..\arduinoLCD\test\Pain Drain\libraries\lvgl\src\draw\../misc/lv_color.h **** 
 178:..\..\..\arduinoLCD\test\Pain Drain\libraries\lvgl\src\draw\../misc/lv_color.h **** #define LV_COLOR_GET_R(c) LV_CONCAT(LV_COLOR_GET_R, LV_COLOR_DEPTH)(c)
 179:..\..\..\arduinoLCD\test\Pain Drain\libraries\lvgl\src\draw\../misc/lv_color.h **** #define LV_COLOR_GET_G(c) LV_CONCAT(LV_COLOR_GET_G, LV_COLOR_DEPTH)(c)
 180:..\..\..\arduinoLCD\test\Pain Drain\libraries\lvgl\src\draw\../misc/lv_color.h **** #define LV_COLOR_GET_B(c) LV_CONCAT(LV_COLOR_GET_B, LV_COLOR_DEPTH)(c)
 181:..\..\..\arduinoLCD\test\Pain Drain\libraries\lvgl\src\draw\../misc/lv_color.h **** #define LV_COLOR_GET_A(c) LV_CONCAT(LV_COLOR_GET_A, LV_COLOR_DEPTH)(c)
 182:..\..\..\arduinoLCD\test\Pain Drain\libraries\lvgl\src\draw\../misc/lv_color.h **** 
 183:..\..\..\arduinoLCD\test\Pain Drain\libraries\lvgl\src\draw\../misc/lv_color.h **** #define _LV_COLOR_ZERO_INITIALIZER LV_CONCAT(_LV_COLOR_ZERO_INITIALIZER, LV_COLOR_DEPTH)
 184:..\..\..\arduinoLCD\test\Pain Drain\libraries\lvgl\src\draw\../misc/lv_color.h **** #define LV_COLOR_MAKE(r8, g8, b8) LV_CONCAT(LV_COLOR_MAKE, LV_COLOR_DEPTH)(r8, g8, b8)
 185:..\..\..\arduinoLCD\test\Pain Drain\libraries\lvgl\src\draw\../misc/lv_color.h **** 
ARM GAS  C:\Users\haske\AppData\Local\Temp\ccufPcu5.s 			page 28


 186:..\..\..\arduinoLCD\test\Pain Drain\libraries\lvgl\src\draw\../misc/lv_color.h **** /**********************
 187:..\..\..\arduinoLCD\test\Pain Drain\libraries\lvgl\src\draw\../misc/lv_color.h ****  *      TYPEDEFS
 188:..\..\..\arduinoLCD\test\Pain Drain\libraries\lvgl\src\draw\../misc/lv_color.h ****  **********************/
 189:..\..\..\arduinoLCD\test\Pain Drain\libraries\lvgl\src\draw\../misc/lv_color.h **** 
 190:..\..\..\arduinoLCD\test\Pain Drain\libraries\lvgl\src\draw\../misc/lv_color.h **** typedef union {
 191:..\..\..\arduinoLCD\test\Pain Drain\libraries\lvgl\src\draw\../misc/lv_color.h ****     uint8_t full; /*must be declared first to set all bits of byte via initializer list*/
 192:..\..\..\arduinoLCD\test\Pain Drain\libraries\lvgl\src\draw\../misc/lv_color.h ****     union {
 193:..\..\..\arduinoLCD\test\Pain Drain\libraries\lvgl\src\draw\../misc/lv_color.h ****         uint8_t blue : 1;
 194:..\..\..\arduinoLCD\test\Pain Drain\libraries\lvgl\src\draw\../misc/lv_color.h ****         uint8_t green : 1;
 195:..\..\..\arduinoLCD\test\Pain Drain\libraries\lvgl\src\draw\../misc/lv_color.h ****         uint8_t red : 1;
 196:..\..\..\arduinoLCD\test\Pain Drain\libraries\lvgl\src\draw\../misc/lv_color.h ****     } ch;
 197:..\..\..\arduinoLCD\test\Pain Drain\libraries\lvgl\src\draw\../misc/lv_color.h **** } lv_color1_t;
 198:..\..\..\arduinoLCD\test\Pain Drain\libraries\lvgl\src\draw\../misc/lv_color.h **** 
 199:..\..\..\arduinoLCD\test\Pain Drain\libraries\lvgl\src\draw\../misc/lv_color.h **** typedef union {
 200:..\..\..\arduinoLCD\test\Pain Drain\libraries\lvgl\src\draw\../misc/lv_color.h ****     struct {
 201:..\..\..\arduinoLCD\test\Pain Drain\libraries\lvgl\src\draw\../misc/lv_color.h ****         uint8_t blue : 2;
 202:..\..\..\arduinoLCD\test\Pain Drain\libraries\lvgl\src\draw\../misc/lv_color.h ****         uint8_t green : 3;
 203:..\..\..\arduinoLCD\test\Pain Drain\libraries\lvgl\src\draw\../misc/lv_color.h ****         uint8_t red : 3;
 204:..\..\..\arduinoLCD\test\Pain Drain\libraries\lvgl\src\draw\../misc/lv_color.h ****     } ch;
 205:..\..\..\arduinoLCD\test\Pain Drain\libraries\lvgl\src\draw\../misc/lv_color.h ****     uint8_t full;
 206:..\..\..\arduinoLCD\test\Pain Drain\libraries\lvgl\src\draw\../misc/lv_color.h **** } lv_color8_t;
 207:..\..\..\arduinoLCD\test\Pain Drain\libraries\lvgl\src\draw\../misc/lv_color.h **** 
 208:..\..\..\arduinoLCD\test\Pain Drain\libraries\lvgl\src\draw\../misc/lv_color.h **** typedef union {
 209:..\..\..\arduinoLCD\test\Pain Drain\libraries\lvgl\src\draw\../misc/lv_color.h ****     struct {
 210:..\..\..\arduinoLCD\test\Pain Drain\libraries\lvgl\src\draw\../misc/lv_color.h **** #if LV_COLOR_16_SWAP == 0
 211:..\..\..\arduinoLCD\test\Pain Drain\libraries\lvgl\src\draw\../misc/lv_color.h ****         uint16_t blue : 5;
 212:..\..\..\arduinoLCD\test\Pain Drain\libraries\lvgl\src\draw\../misc/lv_color.h ****         uint16_t green : 6;
 213:..\..\..\arduinoLCD\test\Pain Drain\libraries\lvgl\src\draw\../misc/lv_color.h ****         uint16_t red : 5;
 214:..\..\..\arduinoLCD\test\Pain Drain\libraries\lvgl\src\draw\../misc/lv_color.h **** #else
 215:..\..\..\arduinoLCD\test\Pain Drain\libraries\lvgl\src\draw\../misc/lv_color.h ****         uint16_t green_h : 3;
 216:..\..\..\arduinoLCD\test\Pain Drain\libraries\lvgl\src\draw\../misc/lv_color.h ****         uint16_t red : 5;
 217:..\..\..\arduinoLCD\test\Pain Drain\libraries\lvgl\src\draw\../misc/lv_color.h ****         uint16_t blue : 5;
 218:..\..\..\arduinoLCD\test\Pain Drain\libraries\lvgl\src\draw\../misc/lv_color.h ****         uint16_t green_l : 3;
 219:..\..\..\arduinoLCD\test\Pain Drain\libraries\lvgl\src\draw\../misc/lv_color.h **** #endif
 220:..\..\..\arduinoLCD\test\Pain Drain\libraries\lvgl\src\draw\../misc/lv_color.h ****     } ch;
 221:..\..\..\arduinoLCD\test\Pain Drain\libraries\lvgl\src\draw\../misc/lv_color.h ****     uint16_t full;
 222:..\..\..\arduinoLCD\test\Pain Drain\libraries\lvgl\src\draw\../misc/lv_color.h **** } lv_color16_t;
 223:..\..\..\arduinoLCD\test\Pain Drain\libraries\lvgl\src\draw\../misc/lv_color.h **** 
 224:..\..\..\arduinoLCD\test\Pain Drain\libraries\lvgl\src\draw\../misc/lv_color.h **** typedef union {
 225:..\..\..\arduinoLCD\test\Pain Drain\libraries\lvgl\src\draw\../misc/lv_color.h ****     struct {
 226:..\..\..\arduinoLCD\test\Pain Drain\libraries\lvgl\src\draw\../misc/lv_color.h ****         uint8_t blue;
 227:..\..\..\arduinoLCD\test\Pain Drain\libraries\lvgl\src\draw\../misc/lv_color.h ****         uint8_t green;
 228:..\..\..\arduinoLCD\test\Pain Drain\libraries\lvgl\src\draw\../misc/lv_color.h ****         uint8_t red;
 229:..\..\..\arduinoLCD\test\Pain Drain\libraries\lvgl\src\draw\../misc/lv_color.h ****         uint8_t alpha;
 230:..\..\..\arduinoLCD\test\Pain Drain\libraries\lvgl\src\draw\../misc/lv_color.h ****     } ch;
 231:..\..\..\arduinoLCD\test\Pain Drain\libraries\lvgl\src\draw\../misc/lv_color.h ****     uint32_t full;
 232:..\..\..\arduinoLCD\test\Pain Drain\libraries\lvgl\src\draw\../misc/lv_color.h **** } lv_color32_t;
 233:..\..\..\arduinoLCD\test\Pain Drain\libraries\lvgl\src\draw\../misc/lv_color.h **** 
 234:..\..\..\arduinoLCD\test\Pain Drain\libraries\lvgl\src\draw\../misc/lv_color.h **** typedef LV_CONCAT3(uint, LV_COLOR_SIZE, _t) lv_color_int_t;
 235:..\..\..\arduinoLCD\test\Pain Drain\libraries\lvgl\src\draw\../misc/lv_color.h **** typedef LV_CONCAT3(lv_color, LV_COLOR_DEPTH, _t) lv_color_t;
 236:..\..\..\arduinoLCD\test\Pain Drain\libraries\lvgl\src\draw\../misc/lv_color.h **** 
 237:..\..\..\arduinoLCD\test\Pain Drain\libraries\lvgl\src\draw\../misc/lv_color.h **** typedef struct {
 238:..\..\..\arduinoLCD\test\Pain Drain\libraries\lvgl\src\draw\../misc/lv_color.h ****     uint16_t h;
 239:..\..\..\arduinoLCD\test\Pain Drain\libraries\lvgl\src\draw\../misc/lv_color.h ****     uint8_t s;
 240:..\..\..\arduinoLCD\test\Pain Drain\libraries\lvgl\src\draw\../misc/lv_color.h ****     uint8_t v;
 241:..\..\..\arduinoLCD\test\Pain Drain\libraries\lvgl\src\draw\../misc/lv_color.h **** } lv_color_hsv_t;
 242:..\..\..\arduinoLCD\test\Pain Drain\libraries\lvgl\src\draw\../misc/lv_color.h **** 
ARM GAS  C:\Users\haske\AppData\Local\Temp\ccufPcu5.s 			page 29


 243:..\..\..\arduinoLCD\test\Pain Drain\libraries\lvgl\src\draw\../misc/lv_color.h **** //! @cond Doxygen_Suppress
 244:..\..\..\arduinoLCD\test\Pain Drain\libraries\lvgl\src\draw\../misc/lv_color.h **** /*No idea where the guard is required but else throws warnings in the docs*/
 245:..\..\..\arduinoLCD\test\Pain Drain\libraries\lvgl\src\draw\../misc/lv_color.h **** typedef uint8_t lv_opa_t;
 246:..\..\..\arduinoLCD\test\Pain Drain\libraries\lvgl\src\draw\../misc/lv_color.h **** //! @endcond
 247:..\..\..\arduinoLCD\test\Pain Drain\libraries\lvgl\src\draw\../misc/lv_color.h **** 
 248:..\..\..\arduinoLCD\test\Pain Drain\libraries\lvgl\src\draw\../misc/lv_color.h **** struct _lv_color_filter_dsc_t;
 249:..\..\..\arduinoLCD\test\Pain Drain\libraries\lvgl\src\draw\../misc/lv_color.h **** 
 250:..\..\..\arduinoLCD\test\Pain Drain\libraries\lvgl\src\draw\../misc/lv_color.h **** typedef lv_color_t (*lv_color_filter_cb_t)(const struct _lv_color_filter_dsc_t *, lv_color_t, lv_op
 251:..\..\..\arduinoLCD\test\Pain Drain\libraries\lvgl\src\draw\../misc/lv_color.h **** 
 252:..\..\..\arduinoLCD\test\Pain Drain\libraries\lvgl\src\draw\../misc/lv_color.h **** typedef struct _lv_color_filter_dsc_t {
 253:..\..\..\arduinoLCD\test\Pain Drain\libraries\lvgl\src\draw\../misc/lv_color.h ****     lv_color_filter_cb_t filter_cb;
 254:..\..\..\arduinoLCD\test\Pain Drain\libraries\lvgl\src\draw\../misc/lv_color.h ****     void * user_data;
 255:..\..\..\arduinoLCD\test\Pain Drain\libraries\lvgl\src\draw\../misc/lv_color.h **** } lv_color_filter_dsc_t;
 256:..\..\..\arduinoLCD\test\Pain Drain\libraries\lvgl\src\draw\../misc/lv_color.h **** 
 257:..\..\..\arduinoLCD\test\Pain Drain\libraries\lvgl\src\draw\../misc/lv_color.h **** 
 258:..\..\..\arduinoLCD\test\Pain Drain\libraries\lvgl\src\draw\../misc/lv_color.h **** typedef enum {
 259:..\..\..\arduinoLCD\test\Pain Drain\libraries\lvgl\src\draw\../misc/lv_color.h ****     LV_PALETTE_RED,
 260:..\..\..\arduinoLCD\test\Pain Drain\libraries\lvgl\src\draw\../misc/lv_color.h ****     LV_PALETTE_PINK,
 261:..\..\..\arduinoLCD\test\Pain Drain\libraries\lvgl\src\draw\../misc/lv_color.h ****     LV_PALETTE_PURPLE,
 262:..\..\..\arduinoLCD\test\Pain Drain\libraries\lvgl\src\draw\../misc/lv_color.h ****     LV_PALETTE_DEEP_PURPLE,
 263:..\..\..\arduinoLCD\test\Pain Drain\libraries\lvgl\src\draw\../misc/lv_color.h ****     LV_PALETTE_INDIGO,
 264:..\..\..\arduinoLCD\test\Pain Drain\libraries\lvgl\src\draw\../misc/lv_color.h ****     LV_PALETTE_BLUE,
 265:..\..\..\arduinoLCD\test\Pain Drain\libraries\lvgl\src\draw\../misc/lv_color.h ****     LV_PALETTE_LIGHT_BLUE,
 266:..\..\..\arduinoLCD\test\Pain Drain\libraries\lvgl\src\draw\../misc/lv_color.h ****     LV_PALETTE_CYAN,
 267:..\..\..\arduinoLCD\test\Pain Drain\libraries\lvgl\src\draw\../misc/lv_color.h ****     LV_PALETTE_TEAL,
 268:..\..\..\arduinoLCD\test\Pain Drain\libraries\lvgl\src\draw\../misc/lv_color.h ****     LV_PALETTE_GREEN,
 269:..\..\..\arduinoLCD\test\Pain Drain\libraries\lvgl\src\draw\../misc/lv_color.h ****     LV_PALETTE_LIGHT_GREEN,
 270:..\..\..\arduinoLCD\test\Pain Drain\libraries\lvgl\src\draw\../misc/lv_color.h ****     LV_PALETTE_LIME,
 271:..\..\..\arduinoLCD\test\Pain Drain\libraries\lvgl\src\draw\../misc/lv_color.h ****     LV_PALETTE_YELLOW,
 272:..\..\..\arduinoLCD\test\Pain Drain\libraries\lvgl\src\draw\../misc/lv_color.h ****     LV_PALETTE_AMBER,
 273:..\..\..\arduinoLCD\test\Pain Drain\libraries\lvgl\src\draw\../misc/lv_color.h ****     LV_PALETTE_ORANGE,
 274:..\..\..\arduinoLCD\test\Pain Drain\libraries\lvgl\src\draw\../misc/lv_color.h ****     LV_PALETTE_DEEP_ORANGE,
 275:..\..\..\arduinoLCD\test\Pain Drain\libraries\lvgl\src\draw\../misc/lv_color.h ****     LV_PALETTE_BROWN,
 276:..\..\..\arduinoLCD\test\Pain Drain\libraries\lvgl\src\draw\../misc/lv_color.h ****     LV_PALETTE_BLUE_GREY,
 277:..\..\..\arduinoLCD\test\Pain Drain\libraries\lvgl\src\draw\../misc/lv_color.h ****     LV_PALETTE_GREY,
 278:..\..\..\arduinoLCD\test\Pain Drain\libraries\lvgl\src\draw\../misc/lv_color.h ****     _LV_PALETTE_LAST,
 279:..\..\..\arduinoLCD\test\Pain Drain\libraries\lvgl\src\draw\../misc/lv_color.h ****     LV_PALETTE_NONE = 0xff,
 280:..\..\..\arduinoLCD\test\Pain Drain\libraries\lvgl\src\draw\../misc/lv_color.h **** } lv_palette_t;
 281:..\..\..\arduinoLCD\test\Pain Drain\libraries\lvgl\src\draw\../misc/lv_color.h **** 
 282:..\..\..\arduinoLCD\test\Pain Drain\libraries\lvgl\src\draw\../misc/lv_color.h **** /**********************
 283:..\..\..\arduinoLCD\test\Pain Drain\libraries\lvgl\src\draw\../misc/lv_color.h ****  * GLOBAL PROTOTYPES
 284:..\..\..\arduinoLCD\test\Pain Drain\libraries\lvgl\src\draw\../misc/lv_color.h ****  **********************/
 285:..\..\..\arduinoLCD\test\Pain Drain\libraries\lvgl\src\draw\../misc/lv_color.h **** 
 286:..\..\..\arduinoLCD\test\Pain Drain\libraries\lvgl\src\draw\../misc/lv_color.h **** /*In color conversations:
 287:..\..\..\arduinoLCD\test\Pain Drain\libraries\lvgl\src\draw\../misc/lv_color.h ****  * - When converting to bigger color type the LSB weight of 1 LSB is calculated
 288:..\..\..\arduinoLCD\test\Pain Drain\libraries\lvgl\src\draw\../misc/lv_color.h ****  *   E.g. 16 bit Red has 5 bits
 289:..\..\..\arduinoLCD\test\Pain Drain\libraries\lvgl\src\draw\../misc/lv_color.h ****  *         8 bit Red has 3 bits
 290:..\..\..\arduinoLCD\test\Pain Drain\libraries\lvgl\src\draw\../misc/lv_color.h ****  *        ----------------------
 291:..\..\..\arduinoLCD\test\Pain Drain\libraries\lvgl\src\draw\../misc/lv_color.h ****  *        8 bit red LSB = (2^5 - 1) / (2^3 - 1) = 31 / 7 = 4
 292:..\..\..\arduinoLCD\test\Pain Drain\libraries\lvgl\src\draw\../misc/lv_color.h ****  *
 293:..\..\..\arduinoLCD\test\Pain Drain\libraries\lvgl\src\draw\../misc/lv_color.h ****  * - When calculating to smaller color type simply shift out the LSBs
 294:..\..\..\arduinoLCD\test\Pain Drain\libraries\lvgl\src\draw\../misc/lv_color.h ****  *   E.g.  8 bit Red has 3 bits
 295:..\..\..\arduinoLCD\test\Pain Drain\libraries\lvgl\src\draw\../misc/lv_color.h ****  *        16 bit Red has 5 bits
 296:..\..\..\arduinoLCD\test\Pain Drain\libraries\lvgl\src\draw\../misc/lv_color.h ****  *        ----------------------
 297:..\..\..\arduinoLCD\test\Pain Drain\libraries\lvgl\src\draw\../misc/lv_color.h ****  *         Shift right with 5 - 3 = 2
 298:..\..\..\arduinoLCD\test\Pain Drain\libraries\lvgl\src\draw\../misc/lv_color.h ****  */
 299:..\..\..\arduinoLCD\test\Pain Drain\libraries\lvgl\src\draw\../misc/lv_color.h **** static inline uint8_t lv_color_to1(lv_color_t color)
ARM GAS  C:\Users\haske\AppData\Local\Temp\ccufPcu5.s 			page 30


 300:..\..\..\arduinoLCD\test\Pain Drain\libraries\lvgl\src\draw\../misc/lv_color.h **** {
 301:..\..\..\arduinoLCD\test\Pain Drain\libraries\lvgl\src\draw\../misc/lv_color.h **** #if LV_COLOR_DEPTH == 1
 302:..\..\..\arduinoLCD\test\Pain Drain\libraries\lvgl\src\draw\../misc/lv_color.h ****     return color.full;
 303:..\..\..\arduinoLCD\test\Pain Drain\libraries\lvgl\src\draw\../misc/lv_color.h **** #elif LV_COLOR_DEPTH == 8
 304:..\..\..\arduinoLCD\test\Pain Drain\libraries\lvgl\src\draw\../misc/lv_color.h ****     if((LV_COLOR_GET_R(color) & 0x4) || (LV_COLOR_GET_G(color) & 0x4) || (LV_COLOR_GET_B(color) & 0
 305:..\..\..\arduinoLCD\test\Pain Drain\libraries\lvgl\src\draw\../misc/lv_color.h ****         return 1;
 306:..\..\..\arduinoLCD\test\Pain Drain\libraries\lvgl\src\draw\../misc/lv_color.h ****     }
 307:..\..\..\arduinoLCD\test\Pain Drain\libraries\lvgl\src\draw\../misc/lv_color.h ****     else {
 308:..\..\..\arduinoLCD\test\Pain Drain\libraries\lvgl\src\draw\../misc/lv_color.h ****         return 0;
 309:..\..\..\arduinoLCD\test\Pain Drain\libraries\lvgl\src\draw\../misc/lv_color.h ****     }
 310:..\..\..\arduinoLCD\test\Pain Drain\libraries\lvgl\src\draw\../misc/lv_color.h **** #elif LV_COLOR_DEPTH == 16
 311:..\..\..\arduinoLCD\test\Pain Drain\libraries\lvgl\src\draw\../misc/lv_color.h ****     if((LV_COLOR_GET_R(color) & 0x10) || (LV_COLOR_GET_G(color) & 0x20) || (LV_COLOR_GET_B(color) &
 312:..\..\..\arduinoLCD\test\Pain Drain\libraries\lvgl\src\draw\../misc/lv_color.h ****         return 1;
 313:..\..\..\arduinoLCD\test\Pain Drain\libraries\lvgl\src\draw\../misc/lv_color.h ****     }
 314:..\..\..\arduinoLCD\test\Pain Drain\libraries\lvgl\src\draw\../misc/lv_color.h ****     else {
 315:..\..\..\arduinoLCD\test\Pain Drain\libraries\lvgl\src\draw\../misc/lv_color.h ****         return 0;
 316:..\..\..\arduinoLCD\test\Pain Drain\libraries\lvgl\src\draw\../misc/lv_color.h ****     }
 317:..\..\..\arduinoLCD\test\Pain Drain\libraries\lvgl\src\draw\../misc/lv_color.h **** #elif LV_COLOR_DEPTH == 32
 318:..\..\..\arduinoLCD\test\Pain Drain\libraries\lvgl\src\draw\../misc/lv_color.h ****     if((LV_COLOR_GET_R(color) & 0x80) || (LV_COLOR_GET_G(color) & 0x80) || (LV_COLOR_GET_B(color) &
 319:..\..\..\arduinoLCD\test\Pain Drain\libraries\lvgl\src\draw\../misc/lv_color.h ****         return 1;
 320:..\..\..\arduinoLCD\test\Pain Drain\libraries\lvgl\src\draw\../misc/lv_color.h ****     }
 321:..\..\..\arduinoLCD\test\Pain Drain\libraries\lvgl\src\draw\../misc/lv_color.h ****     else {
 322:..\..\..\arduinoLCD\test\Pain Drain\libraries\lvgl\src\draw\../misc/lv_color.h ****         return 0;
 323:..\..\..\arduinoLCD\test\Pain Drain\libraries\lvgl\src\draw\../misc/lv_color.h ****     }
 324:..\..\..\arduinoLCD\test\Pain Drain\libraries\lvgl\src\draw\../misc/lv_color.h **** #endif
 325:..\..\..\arduinoLCD\test\Pain Drain\libraries\lvgl\src\draw\../misc/lv_color.h **** }
 326:..\..\..\arduinoLCD\test\Pain Drain\libraries\lvgl\src\draw\../misc/lv_color.h **** 
 327:..\..\..\arduinoLCD\test\Pain Drain\libraries\lvgl\src\draw\../misc/lv_color.h **** static inline uint8_t lv_color_to8(lv_color_t color)
 328:..\..\..\arduinoLCD\test\Pain Drain\libraries\lvgl\src\draw\../misc/lv_color.h **** {
 329:..\..\..\arduinoLCD\test\Pain Drain\libraries\lvgl\src\draw\../misc/lv_color.h **** #if LV_COLOR_DEPTH == 1
 330:..\..\..\arduinoLCD\test\Pain Drain\libraries\lvgl\src\draw\../misc/lv_color.h ****     if(color.full == 0)
 331:..\..\..\arduinoLCD\test\Pain Drain\libraries\lvgl\src\draw\../misc/lv_color.h ****         return 0;
 332:..\..\..\arduinoLCD\test\Pain Drain\libraries\lvgl\src\draw\../misc/lv_color.h ****     else
 333:..\..\..\arduinoLCD\test\Pain Drain\libraries\lvgl\src\draw\../misc/lv_color.h ****         return 0xFF;
 334:..\..\..\arduinoLCD\test\Pain Drain\libraries\lvgl\src\draw\../misc/lv_color.h **** #elif LV_COLOR_DEPTH == 8
 335:..\..\..\arduinoLCD\test\Pain Drain\libraries\lvgl\src\draw\../misc/lv_color.h ****     return color.full;
 336:..\..\..\arduinoLCD\test\Pain Drain\libraries\lvgl\src\draw\../misc/lv_color.h **** #elif LV_COLOR_DEPTH == 16
 337:..\..\..\arduinoLCD\test\Pain Drain\libraries\lvgl\src\draw\../misc/lv_color.h ****     lv_color8_t ret;
 338:..\..\..\arduinoLCD\test\Pain Drain\libraries\lvgl\src\draw\../misc/lv_color.h ****     LV_COLOR_SET_R8(ret, LV_COLOR_GET_R(color) >> 2); /*5 - 3  = 2*/
 339:..\..\..\arduinoLCD\test\Pain Drain\libraries\lvgl\src\draw\../misc/lv_color.h ****     LV_COLOR_SET_G8(ret, LV_COLOR_GET_G(color) >> 3); /*6 - 3  = 3*/
 340:..\..\..\arduinoLCD\test\Pain Drain\libraries\lvgl\src\draw\../misc/lv_color.h ****     LV_COLOR_SET_B8(ret, LV_COLOR_GET_B(color) >> 3); /*5 - 2  = 3*/
 341:..\..\..\arduinoLCD\test\Pain Drain\libraries\lvgl\src\draw\../misc/lv_color.h ****     return ret.full;
 342:..\..\..\arduinoLCD\test\Pain Drain\libraries\lvgl\src\draw\../misc/lv_color.h **** #elif LV_COLOR_DEPTH == 32
 343:..\..\..\arduinoLCD\test\Pain Drain\libraries\lvgl\src\draw\../misc/lv_color.h ****     lv_color8_t ret;
 344:..\..\..\arduinoLCD\test\Pain Drain\libraries\lvgl\src\draw\../misc/lv_color.h ****     LV_COLOR_SET_R8(ret, LV_COLOR_GET_R(color) >> 5); /*8 - 3  = 5*/
 345:..\..\..\arduinoLCD\test\Pain Drain\libraries\lvgl\src\draw\../misc/lv_color.h ****     LV_COLOR_SET_G8(ret, LV_COLOR_GET_G(color) >> 5); /*8 - 3  = 5*/
 346:..\..\..\arduinoLCD\test\Pain Drain\libraries\lvgl\src\draw\../misc/lv_color.h ****     LV_COLOR_SET_B8(ret, LV_COLOR_GET_B(color) >> 6); /*8 - 2  = 6*/
 347:..\..\..\arduinoLCD\test\Pain Drain\libraries\lvgl\src\draw\../misc/lv_color.h ****     return ret.full;
 348:..\..\..\arduinoLCD\test\Pain Drain\libraries\lvgl\src\draw\../misc/lv_color.h **** #endif
 349:..\..\..\arduinoLCD\test\Pain Drain\libraries\lvgl\src\draw\../misc/lv_color.h **** }
 350:..\..\..\arduinoLCD\test\Pain Drain\libraries\lvgl\src\draw\../misc/lv_color.h **** 
 351:..\..\..\arduinoLCD\test\Pain Drain\libraries\lvgl\src\draw\../misc/lv_color.h **** static inline uint16_t lv_color_to16(lv_color_t color)
 352:..\..\..\arduinoLCD\test\Pain Drain\libraries\lvgl\src\draw\../misc/lv_color.h **** {
 353:..\..\..\arduinoLCD\test\Pain Drain\libraries\lvgl\src\draw\../misc/lv_color.h **** #if LV_COLOR_DEPTH == 1
 354:..\..\..\arduinoLCD\test\Pain Drain\libraries\lvgl\src\draw\../misc/lv_color.h ****     if(color.full == 0)
 355:..\..\..\arduinoLCD\test\Pain Drain\libraries\lvgl\src\draw\../misc/lv_color.h ****         return 0;
 356:..\..\..\arduinoLCD\test\Pain Drain\libraries\lvgl\src\draw\../misc/lv_color.h ****     else
ARM GAS  C:\Users\haske\AppData\Local\Temp\ccufPcu5.s 			page 31


 357:..\..\..\arduinoLCD\test\Pain Drain\libraries\lvgl\src\draw\../misc/lv_color.h ****         return 0xFFFF;
 358:..\..\..\arduinoLCD\test\Pain Drain\libraries\lvgl\src\draw\../misc/lv_color.h **** #elif LV_COLOR_DEPTH == 8
 359:..\..\..\arduinoLCD\test\Pain Drain\libraries\lvgl\src\draw\../misc/lv_color.h ****     lv_color16_t ret;
 360:..\..\..\arduinoLCD\test\Pain Drain\libraries\lvgl\src\draw\../misc/lv_color.h ****     LV_COLOR_SET_R16(ret, LV_COLOR_GET_R(color) * 4);  /*(2^5 - 1)/(2^3 - 1) = 31/7 = 4*/
 361:..\..\..\arduinoLCD\test\Pain Drain\libraries\lvgl\src\draw\../misc/lv_color.h ****     LV_COLOR_SET_G16(ret, LV_COLOR_GET_G(color) * 9);  /*(2^6 - 1)/(2^3 - 1) = 63/7 = 9*/
 362:..\..\..\arduinoLCD\test\Pain Drain\libraries\lvgl\src\draw\../misc/lv_color.h ****     LV_COLOR_SET_B16(ret, LV_COLOR_GET_B(color) * 10); /*(2^5 - 1)/(2^2 - 1) = 31/3 = 10*/
 363:..\..\..\arduinoLCD\test\Pain Drain\libraries\lvgl\src\draw\../misc/lv_color.h ****     return ret.full;
 364:..\..\..\arduinoLCD\test\Pain Drain\libraries\lvgl\src\draw\../misc/lv_color.h **** #elif LV_COLOR_DEPTH == 16
 365:..\..\..\arduinoLCD\test\Pain Drain\libraries\lvgl\src\draw\../misc/lv_color.h ****     return color.full;
 366:..\..\..\arduinoLCD\test\Pain Drain\libraries\lvgl\src\draw\../misc/lv_color.h **** #elif LV_COLOR_DEPTH == 32
 367:..\..\..\arduinoLCD\test\Pain Drain\libraries\lvgl\src\draw\../misc/lv_color.h ****     lv_color16_t ret;
 368:..\..\..\arduinoLCD\test\Pain Drain\libraries\lvgl\src\draw\../misc/lv_color.h ****     LV_COLOR_SET_R16(ret, LV_COLOR_GET_R(color) >> 3); /*8 - 5  = 3*/
 369:..\..\..\arduinoLCD\test\Pain Drain\libraries\lvgl\src\draw\../misc/lv_color.h ****     LV_COLOR_SET_G16(ret, LV_COLOR_GET_G(color) >> 2); /*8 - 6  = 2*/
 370:..\..\..\arduinoLCD\test\Pain Drain\libraries\lvgl\src\draw\../misc/lv_color.h ****     LV_COLOR_SET_B16(ret, LV_COLOR_GET_B(color) >> 3); /*8 - 5  = 3*/
 371:..\..\..\arduinoLCD\test\Pain Drain\libraries\lvgl\src\draw\../misc/lv_color.h ****     return ret.full;
 372:..\..\..\arduinoLCD\test\Pain Drain\libraries\lvgl\src\draw\../misc/lv_color.h **** #endif
 373:..\..\..\arduinoLCD\test\Pain Drain\libraries\lvgl\src\draw\../misc/lv_color.h **** }
 374:..\..\..\arduinoLCD\test\Pain Drain\libraries\lvgl\src\draw\../misc/lv_color.h **** 
 375:..\..\..\arduinoLCD\test\Pain Drain\libraries\lvgl\src\draw\../misc/lv_color.h **** static inline uint32_t lv_color_to32(lv_color_t color)
 376:..\..\..\arduinoLCD\test\Pain Drain\libraries\lvgl\src\draw\../misc/lv_color.h **** {
 377:..\..\..\arduinoLCD\test\Pain Drain\libraries\lvgl\src\draw\../misc/lv_color.h **** #if LV_COLOR_DEPTH == 1
 378:..\..\..\arduinoLCD\test\Pain Drain\libraries\lvgl\src\draw\../misc/lv_color.h ****     if(color.full == 0)
 379:..\..\..\arduinoLCD\test\Pain Drain\libraries\lvgl\src\draw\../misc/lv_color.h ****         return 0xFF000000;
 380:..\..\..\arduinoLCD\test\Pain Drain\libraries\lvgl\src\draw\../misc/lv_color.h ****     else
 381:..\..\..\arduinoLCD\test\Pain Drain\libraries\lvgl\src\draw\../misc/lv_color.h ****         return 0xFFFFFFFF;
 382:..\..\..\arduinoLCD\test\Pain Drain\libraries\lvgl\src\draw\../misc/lv_color.h **** #elif LV_COLOR_DEPTH == 8
 383:..\..\..\arduinoLCD\test\Pain Drain\libraries\lvgl\src\draw\../misc/lv_color.h ****     lv_color32_t ret;
 384:..\..\..\arduinoLCD\test\Pain Drain\libraries\lvgl\src\draw\../misc/lv_color.h ****     LV_COLOR_SET_R32(ret, LV_COLOR_GET_R(color) * 36); /*(2^8 - 1)/(2^3 - 1) = 255/7 = 36*/
 385:..\..\..\arduinoLCD\test\Pain Drain\libraries\lvgl\src\draw\../misc/lv_color.h ****     LV_COLOR_SET_G32(ret, LV_COLOR_GET_G(color) * 36); /*(2^8 - 1)/(2^3 - 1) = 255/7 = 36*/
 386:..\..\..\arduinoLCD\test\Pain Drain\libraries\lvgl\src\draw\../misc/lv_color.h ****     LV_COLOR_SET_B32(ret, LV_COLOR_GET_B(color) * 85); /*(2^8 - 1)/(2^2 - 1) = 255/3 = 85*/
 387:..\..\..\arduinoLCD\test\Pain Drain\libraries\lvgl\src\draw\../misc/lv_color.h ****     LV_COLOR_SET_A32(ret, 0xFF);
 388:..\..\..\arduinoLCD\test\Pain Drain\libraries\lvgl\src\draw\../misc/lv_color.h ****     return ret.full;
 389:..\..\..\arduinoLCD\test\Pain Drain\libraries\lvgl\src\draw\../misc/lv_color.h **** #elif LV_COLOR_DEPTH == 16
 390:..\..\..\arduinoLCD\test\Pain Drain\libraries\lvgl\src\draw\../misc/lv_color.h ****     /**
 391:..\..\..\arduinoLCD\test\Pain Drain\libraries\lvgl\src\draw\../misc/lv_color.h ****      * The floating point math for conversion is:
 392:..\..\..\arduinoLCD\test\Pain Drain\libraries\lvgl\src\draw\../misc/lv_color.h ****      *  valueto = valuefrom * ( (2^bitsto - 1) / (float)(2^bitsfrom - 1) )
 393:..\..\..\arduinoLCD\test\Pain Drain\libraries\lvgl\src\draw\../misc/lv_color.h ****      * The faster integer math for conversion is:
 394:..\..\..\arduinoLCD\test\Pain Drain\libraries\lvgl\src\draw\../misc/lv_color.h ****      *  valueto = ( valuefrom * multiplier + adder ) >> divisor
 395:..\..\..\arduinoLCD\test\Pain Drain\libraries\lvgl\src\draw\../misc/lv_color.h ****      *   multiplier = FLOOR( ( (2^bitsto - 1) << divisor ) / (float)(2^bitsfrom - 1) )
 396:..\..\..\arduinoLCD\test\Pain Drain\libraries\lvgl\src\draw\../misc/lv_color.h ****      *
 397:..\..\..\arduinoLCD\test\Pain Drain\libraries\lvgl\src\draw\../misc/lv_color.h ****      * Find the first divisor where ( adder >> divisor ) <= 0
 398:..\..\..\arduinoLCD\test\Pain Drain\libraries\lvgl\src\draw\../misc/lv_color.h ****      *
 399:..\..\..\arduinoLCD\test\Pain Drain\libraries\lvgl\src\draw\../misc/lv_color.h ****      * 5-bit to 8-bit: ( 31 * multiplier + adder ) >> divisor = 255
 400:..\..\..\arduinoLCD\test\Pain Drain\libraries\lvgl\src\draw\../misc/lv_color.h ****      * divisor  multiplier  adder  min (0)  max (31)
 401:..\..\..\arduinoLCD\test\Pain Drain\libraries\lvgl\src\draw\../misc/lv_color.h ****      *       0           8      7        7       255
 402:..\..\..\arduinoLCD\test\Pain Drain\libraries\lvgl\src\draw\../misc/lv_color.h ****      *       1          16     14        7       255
 403:..\..\..\arduinoLCD\test\Pain Drain\libraries\lvgl\src\draw\../misc/lv_color.h ****      *       2          32     28        7       255
 404:..\..\..\arduinoLCD\test\Pain Drain\libraries\lvgl\src\draw\../misc/lv_color.h ****      *       3          65     25        3       255
 405:..\..\..\arduinoLCD\test\Pain Drain\libraries\lvgl\src\draw\../misc/lv_color.h ****      *       4         131     19        1       255
 406:..\..\..\arduinoLCD\test\Pain Drain\libraries\lvgl\src\draw\../misc/lv_color.h ****      *       5         263      7        0       255
 407:..\..\..\arduinoLCD\test\Pain Drain\libraries\lvgl\src\draw\../misc/lv_color.h ****      *
 408:..\..\..\arduinoLCD\test\Pain Drain\libraries\lvgl\src\draw\../misc/lv_color.h ****      * 6-bit to 8-bit: 255 = ( 63 * multiplier + adder ) >> divisor
 409:..\..\..\arduinoLCD\test\Pain Drain\libraries\lvgl\src\draw\../misc/lv_color.h ****      * divisor  multiplier  adder  min (0)  max (63)
 410:..\..\..\arduinoLCD\test\Pain Drain\libraries\lvgl\src\draw\../misc/lv_color.h ****      *       0           4      3        3       255
 411:..\..\..\arduinoLCD\test\Pain Drain\libraries\lvgl\src\draw\../misc/lv_color.h ****      *       1           8      6        3       255
 412:..\..\..\arduinoLCD\test\Pain Drain\libraries\lvgl\src\draw\../misc/lv_color.h ****      *       2          16     12        3       255
 413:..\..\..\arduinoLCD\test\Pain Drain\libraries\lvgl\src\draw\../misc/lv_color.h ****      *       3          32     24        3       255
ARM GAS  C:\Users\haske\AppData\Local\Temp\ccufPcu5.s 			page 32


 414:..\..\..\arduinoLCD\test\Pain Drain\libraries\lvgl\src\draw\../misc/lv_color.h ****      *       4          64     48        3       255
 415:..\..\..\arduinoLCD\test\Pain Drain\libraries\lvgl\src\draw\../misc/lv_color.h ****      *       5         129     33        1       255
 416:..\..\..\arduinoLCD\test\Pain Drain\libraries\lvgl\src\draw\../misc/lv_color.h ****      *       6         259      3        0       255
 417:..\..\..\arduinoLCD\test\Pain Drain\libraries\lvgl\src\draw\../misc/lv_color.h ****      */
 418:..\..\..\arduinoLCD\test\Pain Drain\libraries\lvgl\src\draw\../misc/lv_color.h **** 
 419:..\..\..\arduinoLCD\test\Pain Drain\libraries\lvgl\src\draw\../misc/lv_color.h ****     lv_color32_t ret;
 420:..\..\..\arduinoLCD\test\Pain Drain\libraries\lvgl\src\draw\../misc/lv_color.h ****     LV_COLOR_SET_R32(ret, (LV_COLOR_GET_R(color) * 263 + 7) >> 5);
 421:..\..\..\arduinoLCD\test\Pain Drain\libraries\lvgl\src\draw\../misc/lv_color.h ****     LV_COLOR_SET_G32(ret, (LV_COLOR_GET_G(color) * 259 + 3) >> 6);
 422:..\..\..\arduinoLCD\test\Pain Drain\libraries\lvgl\src\draw\../misc/lv_color.h ****     LV_COLOR_SET_B32(ret, (LV_COLOR_GET_B(color) * 263 + 7) >> 5);
 423:..\..\..\arduinoLCD\test\Pain Drain\libraries\lvgl\src\draw\../misc/lv_color.h ****     LV_COLOR_SET_A32(ret, 0xFF);
 424:..\..\..\arduinoLCD\test\Pain Drain\libraries\lvgl\src\draw\../misc/lv_color.h ****     return ret.full;
 425:..\..\..\arduinoLCD\test\Pain Drain\libraries\lvgl\src\draw\../misc/lv_color.h **** #elif LV_COLOR_DEPTH == 32
 426:..\..\..\arduinoLCD\test\Pain Drain\libraries\lvgl\src\draw\../misc/lv_color.h ****     return color.full;
 427:..\..\..\arduinoLCD\test\Pain Drain\libraries\lvgl\src\draw\../misc/lv_color.h **** #endif
 428:..\..\..\arduinoLCD\test\Pain Drain\libraries\lvgl\src\draw\../misc/lv_color.h **** }
 429:..\..\..\arduinoLCD\test\Pain Drain\libraries\lvgl\src\draw\../misc/lv_color.h **** 
 430:..\..\..\arduinoLCD\test\Pain Drain\libraries\lvgl\src\draw\../misc/lv_color.h **** //! @cond Doxygen_Suppress
 431:..\..\..\arduinoLCD\test\Pain Drain\libraries\lvgl\src\draw\../misc/lv_color.h **** 
 432:..\..\..\arduinoLCD\test\Pain Drain\libraries\lvgl\src\draw\../misc/lv_color.h **** /**
 433:..\..\..\arduinoLCD\test\Pain Drain\libraries\lvgl\src\draw\../misc/lv_color.h ****  * Mix two colors with a given ratio.
 434:..\..\..\arduinoLCD\test\Pain Drain\libraries\lvgl\src\draw\../misc/lv_color.h ****  * @param c1 the first color to mix (usually the foreground)
 435:..\..\..\arduinoLCD\test\Pain Drain\libraries\lvgl\src\draw\../misc/lv_color.h ****  * @param c2 the second color to mix (usually the background)
 436:..\..\..\arduinoLCD\test\Pain Drain\libraries\lvgl\src\draw\../misc/lv_color.h ****  * @param mix The ratio of the colors. 0: full `c2`, 255: full `c1`, 127: half `c1` and half`c2`
 437:..\..\..\arduinoLCD\test\Pain Drain\libraries\lvgl\src\draw\../misc/lv_color.h ****  * @return the mixed color
 438:..\..\..\arduinoLCD\test\Pain Drain\libraries\lvgl\src\draw\../misc/lv_color.h ****  */
 439:..\..\..\arduinoLCD\test\Pain Drain\libraries\lvgl\src\draw\../misc/lv_color.h **** LV_ATTRIBUTE_FAST_MEM static inline lv_color_t lv_color_mix(lv_color_t c1, lv_color_t c2, uint8_t m
 440:..\..\..\arduinoLCD\test\Pain Drain\libraries\lvgl\src\draw\../misc/lv_color.h **** {
 441:..\..\..\arduinoLCD\test\Pain Drain\libraries\lvgl\src\draw\../misc/lv_color.h ****     lv_color_t ret;
 442:..\..\..\arduinoLCD\test\Pain Drain\libraries\lvgl\src\draw\../misc/lv_color.h **** 
 443:..\..\..\arduinoLCD\test\Pain Drain\libraries\lvgl\src\draw\../misc/lv_color.h **** #if LV_COLOR_DEPTH == 16 && LV_COLOR_16_SWAP == 0 && LV_COLOR_MIX_ROUND_OFS == 0
 444:..\..\..\arduinoLCD\test\Pain Drain\libraries\lvgl\src\draw\../misc/lv_color.h ****     /*Source: https://stackoverflow.com/a/50012418/1999969*/
 445:..\..\..\arduinoLCD\test\Pain Drain\libraries\lvgl\src\draw\../misc/lv_color.h ****     mix = (uint32_t)((uint32_t)mix + 4) >> 3;
 446:..\..\..\arduinoLCD\test\Pain Drain\libraries\lvgl\src\draw\../misc/lv_color.h ****     uint32_t bg = (uint32_t)((uint32_t)c2.full | ((uint32_t)c2.full << 16)) &
 447:..\..\..\arduinoLCD\test\Pain Drain\libraries\lvgl\src\draw\../misc/lv_color.h ****                   0x7E0F81F; /*0b00000111111000001111100000011111*/
 448:..\..\..\arduinoLCD\test\Pain Drain\libraries\lvgl\src\draw\../misc/lv_color.h ****     uint32_t fg = (uint32_t)((uint32_t)c1.full | ((uint32_t)c1.full << 16)) & 0x7E0F81F;
 449:..\..\..\arduinoLCD\test\Pain Drain\libraries\lvgl\src\draw\../misc/lv_color.h ****     uint32_t result = ((((fg - bg) * mix) >> 5) + bg) & 0x7E0F81F;
 450:..\..\..\arduinoLCD\test\Pain Drain\libraries\lvgl\src\draw\../misc/lv_color.h ****     ret.full = (uint16_t)((result >> 16) | result);
 451:..\..\..\arduinoLCD\test\Pain Drain\libraries\lvgl\src\draw\../misc/lv_color.h **** #elif LV_COLOR_DEPTH != 1
 452:..\..\..\arduinoLCD\test\Pain Drain\libraries\lvgl\src\draw\../misc/lv_color.h ****     /*LV_COLOR_DEPTH == 8, 16 or 32*/
 453:..\..\..\arduinoLCD\test\Pain Drain\libraries\lvgl\src\draw\../misc/lv_color.h ****     LV_COLOR_SET_R(ret, LV_UDIV255((uint16_t)LV_COLOR_GET_R(c1) * mix + LV_COLOR_GET_R(c2) *
 454:..\..\..\arduinoLCD\test\Pain Drain\libraries\lvgl\src\draw\../misc/lv_color.h ****                                    (255 - mix) + LV_COLOR_MIX_ROUND_OFS));
 455:..\..\..\arduinoLCD\test\Pain Drain\libraries\lvgl\src\draw\../misc/lv_color.h ****     LV_COLOR_SET_G(ret, LV_UDIV255((uint16_t)LV_COLOR_GET_G(c1) * mix + LV_COLOR_GET_G(c2) *
 456:..\..\..\arduinoLCD\test\Pain Drain\libraries\lvgl\src\draw\../misc/lv_color.h ****                                    (255 - mix) + LV_COLOR_MIX_ROUND_OFS));
 457:..\..\..\arduinoLCD\test\Pain Drain\libraries\lvgl\src\draw\../misc/lv_color.h ****     LV_COLOR_SET_B(ret, LV_UDIV255((uint16_t)LV_COLOR_GET_B(c1) * mix + LV_COLOR_GET_B(c2) *
 458:..\..\..\arduinoLCD\test\Pain Drain\libraries\lvgl\src\draw\../misc/lv_color.h ****                                    (255 - mix) + LV_COLOR_MIX_ROUND_OFS));
 459:..\..\..\arduinoLCD\test\Pain Drain\libraries\lvgl\src\draw\../misc/lv_color.h ****     LV_COLOR_SET_A(ret, 0xFF);
 460:..\..\..\arduinoLCD\test\Pain Drain\libraries\lvgl\src\draw\../misc/lv_color.h **** #else
 461:..\..\..\arduinoLCD\test\Pain Drain\libraries\lvgl\src\draw\../misc/lv_color.h ****     /*LV_COLOR_DEPTH == 1*/
 462:..\..\..\arduinoLCD\test\Pain Drain\libraries\lvgl\src\draw\../misc/lv_color.h ****     ret.full = mix > LV_OPA_50 ? c1.full : c2.full;
 463:..\..\..\arduinoLCD\test\Pain Drain\libraries\lvgl\src\draw\../misc/lv_color.h **** #endif
 464:..\..\..\arduinoLCD\test\Pain Drain\libraries\lvgl\src\draw\../misc/lv_color.h **** 
 465:..\..\..\arduinoLCD\test\Pain Drain\libraries\lvgl\src\draw\../misc/lv_color.h ****     return ret;
 466:..\..\..\arduinoLCD\test\Pain Drain\libraries\lvgl\src\draw\../misc/lv_color.h **** }
 467:..\..\..\arduinoLCD\test\Pain Drain\libraries\lvgl\src\draw\../misc/lv_color.h **** 
 468:..\..\..\arduinoLCD\test\Pain Drain\libraries\lvgl\src\draw\../misc/lv_color.h **** LV_ATTRIBUTE_FAST_MEM static inline void lv_color_premult(lv_color_t c, uint8_t mix, uint16_t * out
 469:..\..\..\arduinoLCD\test\Pain Drain\libraries\lvgl\src\draw\../misc/lv_color.h **** {
 470:..\..\..\arduinoLCD\test\Pain Drain\libraries\lvgl\src\draw\../misc/lv_color.h **** #if LV_COLOR_DEPTH != 1
ARM GAS  C:\Users\haske\AppData\Local\Temp\ccufPcu5.s 			page 33


 471:..\..\..\arduinoLCD\test\Pain Drain\libraries\lvgl\src\draw\../misc/lv_color.h ****     out[0] = (uint16_t)LV_COLOR_GET_R(c) * mix;
 472:..\..\..\arduinoLCD\test\Pain Drain\libraries\lvgl\src\draw\../misc/lv_color.h ****     out[1] = (uint16_t)LV_COLOR_GET_G(c) * mix;
 473:..\..\..\arduinoLCD\test\Pain Drain\libraries\lvgl\src\draw\../misc/lv_color.h ****     out[2] = (uint16_t)LV_COLOR_GET_B(c) * mix;
 474:..\..\..\arduinoLCD\test\Pain Drain\libraries\lvgl\src\draw\../misc/lv_color.h **** #else
 475:..\..\..\arduinoLCD\test\Pain Drain\libraries\lvgl\src\draw\../misc/lv_color.h ****     (void) mix;
 476:..\..\..\arduinoLCD\test\Pain Drain\libraries\lvgl\src\draw\../misc/lv_color.h ****     /*Pre-multiplication can't be used with 1 bpp*/
 477:..\..\..\arduinoLCD\test\Pain Drain\libraries\lvgl\src\draw\../misc/lv_color.h ****     out[0] = LV_COLOR_GET_R(c);
 478:..\..\..\arduinoLCD\test\Pain Drain\libraries\lvgl\src\draw\../misc/lv_color.h ****     out[1] = LV_COLOR_GET_G(c);
 479:..\..\..\arduinoLCD\test\Pain Drain\libraries\lvgl\src\draw\../misc/lv_color.h ****     out[2] = LV_COLOR_GET_B(c);
 480:..\..\..\arduinoLCD\test\Pain Drain\libraries\lvgl\src\draw\../misc/lv_color.h **** #endif
 481:..\..\..\arduinoLCD\test\Pain Drain\libraries\lvgl\src\draw\../misc/lv_color.h **** 
 482:..\..\..\arduinoLCD\test\Pain Drain\libraries\lvgl\src\draw\../misc/lv_color.h **** }
 483:..\..\..\arduinoLCD\test\Pain Drain\libraries\lvgl\src\draw\../misc/lv_color.h **** 
 484:..\..\..\arduinoLCD\test\Pain Drain\libraries\lvgl\src\draw\../misc/lv_color.h **** /**
 485:..\..\..\arduinoLCD\test\Pain Drain\libraries\lvgl\src\draw\../misc/lv_color.h ****  * Mix two colors with a given ratio. It runs faster then `lv_color_mix` but requires some pre comp
 486:..\..\..\arduinoLCD\test\Pain Drain\libraries\lvgl\src\draw\../misc/lv_color.h ****  * @param premult_c1 The first color. Should be preprocessed with `lv_color_premult(c1)`
 487:..\..\..\arduinoLCD\test\Pain Drain\libraries\lvgl\src\draw\../misc/lv_color.h ****  * @param c2 The second color. As it is no pre computation required on it
 488:..\..\..\arduinoLCD\test\Pain Drain\libraries\lvgl\src\draw\../misc/lv_color.h ****  * @param mix The ratio of the colors. 0: full `c1`, 255: full `c2`, 127: half `c1` and half `c2`.
 489:..\..\..\arduinoLCD\test\Pain Drain\libraries\lvgl\src\draw\../misc/lv_color.h ****  *            Should be modified like mix = `255 - mix`
 490:..\..\..\arduinoLCD\test\Pain Drain\libraries\lvgl\src\draw\../misc/lv_color.h ****  * @return the mixed color
 491:..\..\..\arduinoLCD\test\Pain Drain\libraries\lvgl\src\draw\../misc/lv_color.h ****  * @note 255 won't give clearly `c1`.
 492:..\..\..\arduinoLCD\test\Pain Drain\libraries\lvgl\src\draw\../misc/lv_color.h ****  */
 493:..\..\..\arduinoLCD\test\Pain Drain\libraries\lvgl\src\draw\../misc/lv_color.h **** LV_ATTRIBUTE_FAST_MEM static inline lv_color_t lv_color_mix_premult(uint16_t * premult_c1, lv_color
 494:..\..\..\arduinoLCD\test\Pain Drain\libraries\lvgl\src\draw\../misc/lv_color.h **** {
 495:..\..\..\arduinoLCD\test\Pain Drain\libraries\lvgl\src\draw\../misc/lv_color.h ****     lv_color_t ret;
 496:..\..\..\arduinoLCD\test\Pain Drain\libraries\lvgl\src\draw\../misc/lv_color.h **** #if LV_COLOR_DEPTH != 1
 497:..\..\..\arduinoLCD\test\Pain Drain\libraries\lvgl\src\draw\../misc/lv_color.h ****     /*LV_COLOR_DEPTH == 8 or 32*/
 498:..\..\..\arduinoLCD\test\Pain Drain\libraries\lvgl\src\draw\../misc/lv_color.h ****     LV_COLOR_SET_R(ret, LV_UDIV255(premult_c1[0] + LV_COLOR_GET_R(c2) * mix + LV_COLOR_MIX_ROUND_OF
 499:..\..\..\arduinoLCD\test\Pain Drain\libraries\lvgl\src\draw\../misc/lv_color.h ****     LV_COLOR_SET_G(ret, LV_UDIV255(premult_c1[1] + LV_COLOR_GET_G(c2) * mix + LV_COLOR_MIX_ROUND_OF
 500:..\..\..\arduinoLCD\test\Pain Drain\libraries\lvgl\src\draw\../misc/lv_color.h ****     LV_COLOR_SET_B(ret, LV_UDIV255(premult_c1[2] + LV_COLOR_GET_B(c2) * mix + LV_COLOR_MIX_ROUND_OF
 501:..\..\..\arduinoLCD\test\Pain Drain\libraries\lvgl\src\draw\../misc/lv_color.h ****     LV_COLOR_SET_A(ret, 0xFF);
 502:..\..\..\arduinoLCD\test\Pain Drain\libraries\lvgl\src\draw\../misc/lv_color.h **** #else
 503:..\..\..\arduinoLCD\test\Pain Drain\libraries\lvgl\src\draw\../misc/lv_color.h ****     /*LV_COLOR_DEPTH == 1*/
 504:..\..\..\arduinoLCD\test\Pain Drain\libraries\lvgl\src\draw\../misc/lv_color.h ****     /*Restore color1*/
 505:..\..\..\arduinoLCD\test\Pain Drain\libraries\lvgl\src\draw\../misc/lv_color.h ****     lv_color_t c1;
 506:..\..\..\arduinoLCD\test\Pain Drain\libraries\lvgl\src\draw\../misc/lv_color.h ****     LV_COLOR_SET_R(c1, premult_c1[0]);
 507:..\..\..\arduinoLCD\test\Pain Drain\libraries\lvgl\src\draw\../misc/lv_color.h ****     LV_COLOR_SET_G(c1, premult_c1[1]);
 508:..\..\..\arduinoLCD\test\Pain Drain\libraries\lvgl\src\draw\../misc/lv_color.h ****     LV_COLOR_SET_B(c1, premult_c1[2]);
 509:..\..\..\arduinoLCD\test\Pain Drain\libraries\lvgl\src\draw\../misc/lv_color.h ****     ret.full = mix > LV_OPA_50 ? c2.full : c1.full;
 510:..\..\..\arduinoLCD\test\Pain Drain\libraries\lvgl\src\draw\../misc/lv_color.h **** #endif
 511:..\..\..\arduinoLCD\test\Pain Drain\libraries\lvgl\src\draw\../misc/lv_color.h **** 
 512:..\..\..\arduinoLCD\test\Pain Drain\libraries\lvgl\src\draw\../misc/lv_color.h ****     return ret;
 513:..\..\..\arduinoLCD\test\Pain Drain\libraries\lvgl\src\draw\../misc/lv_color.h **** }
 514:..\..\..\arduinoLCD\test\Pain Drain\libraries\lvgl\src\draw\../misc/lv_color.h **** 
 515:..\..\..\arduinoLCD\test\Pain Drain\libraries\lvgl\src\draw\../misc/lv_color.h **** /**
 516:..\..\..\arduinoLCD\test\Pain Drain\libraries\lvgl\src\draw\../misc/lv_color.h ****  * Mix two colors. Both color can have alpha value.
 517:..\..\..\arduinoLCD\test\Pain Drain\libraries\lvgl\src\draw\../misc/lv_color.h ****  * @param bg_color background color
 518:..\..\..\arduinoLCD\test\Pain Drain\libraries\lvgl\src\draw\../misc/lv_color.h ****  * @param bg_opa alpha of the background color
 519:..\..\..\arduinoLCD\test\Pain Drain\libraries\lvgl\src\draw\../misc/lv_color.h ****  * @param fg_color foreground color
 520:..\..\..\arduinoLCD\test\Pain Drain\libraries\lvgl\src\draw\../misc/lv_color.h ****  * @param fg_opa alpha of the foreground color
 521:..\..\..\arduinoLCD\test\Pain Drain\libraries\lvgl\src\draw\../misc/lv_color.h ****  * @param res_color the result color
 522:..\..\..\arduinoLCD\test\Pain Drain\libraries\lvgl\src\draw\../misc/lv_color.h ****  * @param res_opa the result opacity
 523:..\..\..\arduinoLCD\test\Pain Drain\libraries\lvgl\src\draw\../misc/lv_color.h ****  */
 524:..\..\..\arduinoLCD\test\Pain Drain\libraries\lvgl\src\draw\../misc/lv_color.h **** LV_ATTRIBUTE_FAST_MEM static inline void lv_color_mix_with_alpha(lv_color_t bg_color, lv_opa_t bg_o
 525:..\..\..\arduinoLCD\test\Pain Drain\libraries\lvgl\src\draw\../misc/lv_color.h ****                                                                  lv_color_t fg_color, lv_opa_t fg_o
 526:..\..\..\arduinoLCD\test\Pain Drain\libraries\lvgl\src\draw\../misc/lv_color.h ****                                                                  lv_color_t * res_color, lv_opa_t *
 527:..\..\..\arduinoLCD\test\Pain Drain\libraries\lvgl\src\draw\../misc/lv_color.h **** {
ARM GAS  C:\Users\haske\AppData\Local\Temp\ccufPcu5.s 			page 34


 528:..\..\..\arduinoLCD\test\Pain Drain\libraries\lvgl\src\draw\../misc/lv_color.h ****     /*Pick the foreground if it's fully opaque or the Background is fully transparent*/
 529:..\..\..\arduinoLCD\test\Pain Drain\libraries\lvgl\src\draw\../misc/lv_color.h ****     if(fg_opa >= LV_OPA_MAX || bg_opa <= LV_OPA_MIN) {
 530:..\..\..\arduinoLCD\test\Pain Drain\libraries\lvgl\src\draw\../misc/lv_color.h ****         res_color->full = fg_color.full;
 531:..\..\..\arduinoLCD\test\Pain Drain\libraries\lvgl\src\draw\../misc/lv_color.h ****         *res_opa = fg_opa;
 532:..\..\..\arduinoLCD\test\Pain Drain\libraries\lvgl\src\draw\../misc/lv_color.h ****     }
 533:..\..\..\arduinoLCD\test\Pain Drain\libraries\lvgl\src\draw\../misc/lv_color.h ****     /*Transparent foreground: use the Background*/
 534:..\..\..\arduinoLCD\test\Pain Drain\libraries\lvgl\src\draw\../misc/lv_color.h ****     else if(fg_opa <= LV_OPA_MIN) {
 535:..\..\..\arduinoLCD\test\Pain Drain\libraries\lvgl\src\draw\../misc/lv_color.h ****         res_color->full = bg_color.full;
 536:..\..\..\arduinoLCD\test\Pain Drain\libraries\lvgl\src\draw\../misc/lv_color.h ****         *res_opa = bg_opa;
 537:..\..\..\arduinoLCD\test\Pain Drain\libraries\lvgl\src\draw\../misc/lv_color.h ****     }
 538:..\..\..\arduinoLCD\test\Pain Drain\libraries\lvgl\src\draw\../misc/lv_color.h ****     /*Opaque background: use simple mix*/
 539:..\..\..\arduinoLCD\test\Pain Drain\libraries\lvgl\src\draw\../misc/lv_color.h ****     else if(bg_opa >= LV_OPA_MAX) {
 540:..\..\..\arduinoLCD\test\Pain Drain\libraries\lvgl\src\draw\../misc/lv_color.h ****         *res_color = lv_color_mix(fg_color, bg_color, fg_opa);
 541:..\..\..\arduinoLCD\test\Pain Drain\libraries\lvgl\src\draw\../misc/lv_color.h ****         *res_opa = LV_OPA_COVER;
 542:..\..\..\arduinoLCD\test\Pain Drain\libraries\lvgl\src\draw\../misc/lv_color.h ****     }
 543:..\..\..\arduinoLCD\test\Pain Drain\libraries\lvgl\src\draw\../misc/lv_color.h ****     /*Both colors have alpha. Expensive calculation need to be applied*/
 544:..\..\..\arduinoLCD\test\Pain Drain\libraries\lvgl\src\draw\../misc/lv_color.h ****     else {
 545:..\..\..\arduinoLCD\test\Pain Drain\libraries\lvgl\src\draw\../misc/lv_color.h ****         /*Save the parameters and the result. If they will be asked again don't compute again*/
 546:..\..\..\arduinoLCD\test\Pain Drain\libraries\lvgl\src\draw\../misc/lv_color.h ****         static lv_opa_t fg_opa_save     = 0;
 547:..\..\..\arduinoLCD\test\Pain Drain\libraries\lvgl\src\draw\../misc/lv_color.h ****         static lv_opa_t bg_opa_save     = 0;
 548:..\..\..\arduinoLCD\test\Pain Drain\libraries\lvgl\src\draw\../misc/lv_color.h ****         static lv_color_t fg_color_save = _LV_COLOR_ZERO_INITIALIZER;
 549:..\..\..\arduinoLCD\test\Pain Drain\libraries\lvgl\src\draw\../misc/lv_color.h ****         static lv_color_t bg_color_save = _LV_COLOR_ZERO_INITIALIZER;
 550:..\..\..\arduinoLCD\test\Pain Drain\libraries\lvgl\src\draw\../misc/lv_color.h ****         static lv_color_t res_color_saved = _LV_COLOR_ZERO_INITIALIZER;
 551:..\..\..\arduinoLCD\test\Pain Drain\libraries\lvgl\src\draw\../misc/lv_color.h ****         static lv_opa_t res_opa_saved = 0;
 552:..\..\..\arduinoLCD\test\Pain Drain\libraries\lvgl\src\draw\../misc/lv_color.h **** 
 553:..\..\..\arduinoLCD\test\Pain Drain\libraries\lvgl\src\draw\../misc/lv_color.h ****         if(fg_opa != fg_opa_save || bg_opa != bg_opa_save || fg_color.full != fg_color_save.full ||
 554:..\..\..\arduinoLCD\test\Pain Drain\libraries\lvgl\src\draw\../misc/lv_color.h ****            bg_color.full != bg_color_save.full) {
 555:..\..\..\arduinoLCD\test\Pain Drain\libraries\lvgl\src\draw\../misc/lv_color.h ****             fg_opa_save        = fg_opa;
 556:..\..\..\arduinoLCD\test\Pain Drain\libraries\lvgl\src\draw\../misc/lv_color.h ****             bg_opa_save        = bg_opa;
 557:..\..\..\arduinoLCD\test\Pain Drain\libraries\lvgl\src\draw\../misc/lv_color.h ****             fg_color_save.full = fg_color.full;
 558:..\..\..\arduinoLCD\test\Pain Drain\libraries\lvgl\src\draw\../misc/lv_color.h ****             bg_color_save.full = bg_color.full;
 559:..\..\..\arduinoLCD\test\Pain Drain\libraries\lvgl\src\draw\../misc/lv_color.h ****             /*Info:
 560:..\..\..\arduinoLCD\test\Pain Drain\libraries\lvgl\src\draw\../misc/lv_color.h ****              * https://en.wikipedia.org/wiki/Alpha_compositing#Analytical_derivation_of_the_over_op
 561:..\..\..\arduinoLCD\test\Pain Drain\libraries\lvgl\src\draw\../misc/lv_color.h ****             res_opa_saved = 255 - ((uint16_t)((uint16_t)(255 - fg_opa) * (255 - bg_opa)) >> 8);
 562:..\..\..\arduinoLCD\test\Pain Drain\libraries\lvgl\src\draw\../misc/lv_color.h ****             LV_ASSERT(res_opa_saved != 0);
 563:..\..\..\arduinoLCD\test\Pain Drain\libraries\lvgl\src\draw\../misc/lv_color.h ****             lv_opa_t ratio = (uint16_t)((uint16_t)fg_opa * 255) / res_opa_saved;
 564:..\..\..\arduinoLCD\test\Pain Drain\libraries\lvgl\src\draw\../misc/lv_color.h ****             res_color_saved = lv_color_mix(fg_color, bg_color, ratio);
 565:..\..\..\arduinoLCD\test\Pain Drain\libraries\lvgl\src\draw\../misc/lv_color.h **** 
 566:..\..\..\arduinoLCD\test\Pain Drain\libraries\lvgl\src\draw\../misc/lv_color.h ****         }
 567:..\..\..\arduinoLCD\test\Pain Drain\libraries\lvgl\src\draw\../misc/lv_color.h **** 
 568:..\..\..\arduinoLCD\test\Pain Drain\libraries\lvgl\src\draw\../misc/lv_color.h ****         res_color->full = res_color_saved.full;
 569:..\..\..\arduinoLCD\test\Pain Drain\libraries\lvgl\src\draw\../misc/lv_color.h ****         *res_opa = res_opa_saved;
 570:..\..\..\arduinoLCD\test\Pain Drain\libraries\lvgl\src\draw\../misc/lv_color.h ****     }
 571:..\..\..\arduinoLCD\test\Pain Drain\libraries\lvgl\src\draw\../misc/lv_color.h **** }
 572:..\..\..\arduinoLCD\test\Pain Drain\libraries\lvgl\src\draw\../misc/lv_color.h **** 
 573:..\..\..\arduinoLCD\test\Pain Drain\libraries\lvgl\src\draw\../misc/lv_color.h **** //! @endcond
 574:..\..\..\arduinoLCD\test\Pain Drain\libraries\lvgl\src\draw\../misc/lv_color.h **** 
 575:..\..\..\arduinoLCD\test\Pain Drain\libraries\lvgl\src\draw\../misc/lv_color.h **** /**
 576:..\..\..\arduinoLCD\test\Pain Drain\libraries\lvgl\src\draw\../misc/lv_color.h ****  * Get the brightness of a color
 577:..\..\..\arduinoLCD\test\Pain Drain\libraries\lvgl\src\draw\../misc/lv_color.h ****  * @param color a color
 578:..\..\..\arduinoLCD\test\Pain Drain\libraries\lvgl\src\draw\../misc/lv_color.h ****  * @return the brightness [0..255]
 579:..\..\..\arduinoLCD\test\Pain Drain\libraries\lvgl\src\draw\../misc/lv_color.h ****  */
 580:..\..\..\arduinoLCD\test\Pain Drain\libraries\lvgl\src\draw\../misc/lv_color.h **** static inline uint8_t lv_color_brightness(lv_color_t color)
 581:..\..\..\arduinoLCD\test\Pain Drain\libraries\lvgl\src\draw\../misc/lv_color.h **** {
 582:..\..\..\arduinoLCD\test\Pain Drain\libraries\lvgl\src\draw\../misc/lv_color.h ****     lv_color32_t c32;
 583:..\..\..\arduinoLCD\test\Pain Drain\libraries\lvgl\src\draw\../misc/lv_color.h ****     c32.full        = lv_color_to32(color);
 584:..\..\..\arduinoLCD\test\Pain Drain\libraries\lvgl\src\draw\../misc/lv_color.h ****     uint16_t bright = (uint16_t)(3u * LV_COLOR_GET_R32(c32) + LV_COLOR_GET_B32(c32) + 4u * LV_COLOR
ARM GAS  C:\Users\haske\AppData\Local\Temp\ccufPcu5.s 			page 35


 585:..\..\..\arduinoLCD\test\Pain Drain\libraries\lvgl\src\draw\../misc/lv_color.h ****     return (uint8_t)(bright >> 3);
 586:..\..\..\arduinoLCD\test\Pain Drain\libraries\lvgl\src\draw\../misc/lv_color.h **** }
 587:..\..\..\arduinoLCD\test\Pain Drain\libraries\lvgl\src\draw\../misc/lv_color.h **** 
 588:..\..\..\arduinoLCD\test\Pain Drain\libraries\lvgl\src\draw\../misc/lv_color.h **** static inline lv_color_t lv_color_make(uint8_t r, uint8_t g, uint8_t b)
 589:..\..\..\arduinoLCD\test\Pain Drain\libraries\lvgl\src\draw\../misc/lv_color.h **** {
 590:..\..\..\arduinoLCD\test\Pain Drain\libraries\lvgl\src\draw\../misc/lv_color.h ****     return _LV_COLOR_MAKE_TYPE_HELPER LV_COLOR_MAKE(r, g, b);
 583              		.loc 3 590 0 discriminator 3
 584 0146 C008     		lsrs	r0, r0, #3
 585              	.LVL66:
 586 0148 D208     		lsrs	r2, r2, #3
 587              	.LVL67:
 588 014a 1F21     		movs	r1, #31
 589 014c 8C46     		mov	ip, r1
 590 014e 0299     		ldr	r1, [sp, #8]
 591 0150 6346     		mov	r3, ip
 592 0152 9943     		bics	r1, r3
 593 0154 1143     		orrs	r1, r2
 594 0156 4346     		mov	r3, r8
 595 0158 9B08     		lsrs	r3, r3, #2
 596 015a 5A01     		lsls	r2, r3, #5
 597 015c 2A4B     		ldr	r3, .L49+4
 598 015e 0B40     		ands	r3, r1
 599 0160 1343     		orrs	r3, r2
 600 0162 C202     		lsls	r2, r0, #11
 601 0164 5B05     		lsls	r3, r3, #21
 602 0166 5B0D     		lsrs	r3, r3, #21
 603 0168 1343     		orrs	r3, r2
 604 016a 6A46     		mov	r2, sp
 605 016c 1381     		strh	r3, [r2, #8]
 606              	.LVL68:
 607              	.LBE25:
 608              	.LBE24:
 413:..\..\..\arduinoLCD\test\Pain Drain\libraries\lvgl\src\draw/lv_img_decoder.c ****                 user_data->opa[i]     = cur_color.ch.alpha;
 609              		.loc 1 413 0 discriminator 3
 610 016e F268     		ldr	r2, [r6, #12]
 611 0170 4946     		mov	r1, r9
 612 0172 5352     		strh	r3, [r2, r1]
 414:..\..\..\arduinoLCD\test\Pain Drain\libraries\lvgl\src\draw/lv_img_decoder.c ****             }
 613              		.loc 1 414 0 discriminator 3
 614 0174 E378     		ldrb	r3, [r4, #3]
 615 0176 3269     		ldr	r2, [r6, #16]
 616 0178 D355     		strb	r3, [r2, r7]
 411:..\..\..\arduinoLCD\test\Pain Drain\libraries\lvgl\src\draw/lv_img_decoder.c ****                 lv_fs_read(&user_data->f, &cur_color, sizeof(lv_color32_t), NULL);
 617              		.loc 1 411 0 discriminator 3
 618 017a 0137     		adds	r7, r7, #1
 619              	.LVL69:
 620              	.L42:
 411:..\..\..\arduinoLCD\test\Pain Drain\libraries\lvgl\src\draw/lv_img_decoder.c ****                 lv_fs_read(&user_data->f, &cur_color, sizeof(lv_color32_t), NULL);
 621              		.loc 1 411 0 is_stmt 0 discriminator 1
 622 017c 5745     		cmp	r7, r10
 623 017e D5D3     		bcc	.L43
 624 0180 38E0     		b	.L28
 625              	.LVL70:
 626              	.L41:
 627              	.LBE23:
 628              	.LBB26:
 419:..\..\..\arduinoLCD\test\Pain Drain\libraries\lvgl\src\draw/lv_img_decoder.c **** 
ARM GAS  C:\Users\haske\AppData\Local\Temp\ccufPcu5.s 			page 36


 629              		.loc 1 419 0 is_stmt 1
 630 0182 7B68     		ldr	r3, [r7, #4]
 631 0184 9C68     		ldr	r4, [r3, #8]
 632              	.LVL71:
 422:..\..\..\arduinoLCD\test\Pain Drain\libraries\lvgl\src\draw/lv_img_decoder.c ****                 user_data->palette[i] = lv_color_make(palette_p[i].ch.red, palette_p[i].ch.green, p
 633              		.loc 1 422 0
 634 0186 0021     		movs	r1, #0
 635 0188 21E0     		b	.L44
 636              	.LVL72:
 637              	.L45:
 423:..\..\..\arduinoLCD\test\Pain Drain\libraries\lvgl\src\draw/lv_img_decoder.c ****                 user_data->opa[i]     = palette_p[i].ch.alpha;
 638              		.loc 1 423 0 discriminator 3
 639 018a 4B00     		lsls	r3, r1, #1
 640 018c 9C46     		mov	ip, r3
 641 018e 8800     		lsls	r0, r1, #2
 642 0190 2018     		adds	r0, r4, r0
 643 0192 8778     		ldrb	r7, [r0, #2]
 644 0194 4378     		ldrb	r3, [r0, #1]
 645 0196 9846     		mov	r8, r3
 646 0198 0278     		ldrb	r2, [r0]
 647              	.LVL73:
 648              	.LBB27:
 649              	.LBB28:
 650              		.loc 3 590 0 discriminator 3
 651 019a FF08     		lsrs	r7, r7, #3
 652              	.LVL74:
 653 019c D208     		lsrs	r2, r2, #3
 654              	.LVL75:
 655 019e 1F25     		movs	r5, #31
 656 01a0 019B     		ldr	r3, [sp, #4]
 657 01a2 AB43     		bics	r3, r5
 658 01a4 1D00     		movs	r5, r3
 659 01a6 1543     		orrs	r5, r2
 660 01a8 4346     		mov	r3, r8
 661 01aa 9B08     		lsrs	r3, r3, #2
 662 01ac 5A01     		lsls	r2, r3, #5
 663 01ae 164B     		ldr	r3, .L49+4
 664 01b0 2B40     		ands	r3, r5
 665 01b2 1343     		orrs	r3, r2
 666 01b4 FA02     		lsls	r2, r7, #11
 667 01b6 5B05     		lsls	r3, r3, #21
 668 01b8 5B0D     		lsrs	r3, r3, #21
 669 01ba 1343     		orrs	r3, r2
 670 01bc 6A46     		mov	r2, sp
 671 01be 9380     		strh	r3, [r2, #4]
 672              	.LVL76:
 673              	.LBE28:
 674              	.LBE27:
 423:..\..\..\arduinoLCD\test\Pain Drain\libraries\lvgl\src\draw/lv_img_decoder.c ****                 user_data->opa[i]     = palette_p[i].ch.alpha;
 675              		.loc 1 423 0 discriminator 3
 676 01c0 F268     		ldr	r2, [r6, #12]
 677 01c2 6546     		mov	r5, ip
 678 01c4 5353     		strh	r3, [r2, r5]
 424:..\..\..\arduinoLCD\test\Pain Drain\libraries\lvgl\src\draw/lv_img_decoder.c ****             }
 679              		.loc 1 424 0 discriminator 3
 680 01c6 C378     		ldrb	r3, [r0, #3]
 681 01c8 3269     		ldr	r2, [r6, #16]
ARM GAS  C:\Users\haske\AppData\Local\Temp\ccufPcu5.s 			page 37


 682 01ca 5354     		strb	r3, [r2, r1]
 422:..\..\..\arduinoLCD\test\Pain Drain\libraries\lvgl\src\draw/lv_img_decoder.c ****                 user_data->palette[i] = lv_color_make(palette_p[i].ch.red, palette_p[i].ch.green, p
 683              		.loc 1 422 0 discriminator 3
 684 01cc 0131     		adds	r1, r1, #1
 685              	.LVL77:
 686              	.L44:
 422:..\..\..\arduinoLCD\test\Pain Drain\libraries\lvgl\src\draw/lv_img_decoder.c ****                 user_data->palette[i] = lv_color_make(palette_p[i].ch.red, palette_p[i].ch.green, p
 687              		.loc 1 422 0 is_stmt 0 discriminator 1
 688 01ce 5145     		cmp	r1, r10
 689 01d0 DBD3     		bcc	.L45
 690              	.LBE26:
 428:..\..\..\arduinoLCD\test\Pain Drain\libraries\lvgl\src\draw/lv_img_decoder.c ****     }
 691              		.loc 1 428 0 is_stmt 1
 692 01d2 0125     		movs	r5, #1
 693 01d4 0EE0     		b	.L28
 694              	.LVL78:
 695              	.L31:
 696              	.LBE22:
 431:..\..\..\arduinoLCD\test\Pain Drain\libraries\lvgl\src\draw/lv_img_decoder.c ****         return LV_RES_OK; /*Nothing to process*/
 697              		.loc 1 431 0
 698 01d6 0B38     		subs	r0, r0, #11
 699 01d8 C0B2     		uxtb	r0, r0
 700 01da 0228     		cmp	r0, #2
 701 01dc 09D9     		bls	.L48
 437:..\..\..\arduinoLCD\test\Pain Drain\libraries\lvgl\src\draw/lv_img_decoder.c **** 
 702              		.loc 1 437 0
 703 01de 3900     		movs	r1, r7
 704 01e0 2000     		movs	r0, r4
 705 01e2 FFF7FEFF 		bl	lv_img_decoder_built_in_close
 706              	.LVL79:
 440:..\..\..\arduinoLCD\test\Pain Drain\libraries\lvgl\src\draw/lv_img_decoder.c ****     }
 707              		.loc 1 440 0
 708 01e6 0025     		movs	r5, #0
 709 01e8 04E0     		b	.L28
 710              	.LVL80:
 711              	.L46:
 375:..\..\..\arduinoLCD\test\Pain Drain\libraries\lvgl\src\draw/lv_img_decoder.c ****         }
 712              		.loc 1 375 0
 713 01ea 0125     		movs	r5, #1
 714 01ec 02E0     		b	.L28
 715              	.LVL81:
 716              	.L47:
 717              	.LBB29:
 390:..\..\..\arduinoLCD\test\Pain Drain\libraries\lvgl\src\draw/lv_img_decoder.c ****             }
 718              		.loc 1 390 0
 719 01ee 0025     		movs	r5, #0
 720 01f0 00E0     		b	.L28
 721              	.LVL82:
 722              	.L48:
 723              	.LBE29:
 432:..\..\..\arduinoLCD\test\Pain Drain\libraries\lvgl\src\draw/lv_img_decoder.c ****     }
 724              		.loc 1 432 0
 725 01f2 0125     		movs	r5, #1
 726              	.LVL83:
 727              	.L28:
 442:..\..\..\arduinoLCD\test\Pain Drain\libraries\lvgl\src\draw/lv_img_decoder.c **** 
 728              		.loc 1 442 0
ARM GAS  C:\Users\haske\AppData\Local\Temp\ccufPcu5.s 			page 38


 729 01f4 2800     		movs	r0, r5
 730 01f6 08B0     		add	sp, sp, #32
 731              		@ sp needed
 732 01f8 1CBC     		pop	{r2, r3, r4}
 733 01fa 9046     		mov	r8, r2
 734 01fc 9946     		mov	r9, r3
 735 01fe A246     		mov	r10, r4
 736 0200 F0BD     		pop	{r4, r5, r6, r7, pc}
 737              	.L50:
 738 0202 C046     		.align	2
 739              	.L49:
 740 0204 00000000 		.word	.LC2
 741 0208 1FF8FFFF 		.word	-2017
 742              		.cfi_endproc
 743              	.LFE68:
 744              		.size	lv_img_decoder_built_in_open, .-lv_img_decoder_built_in_open
 745              		.section	.text.lv_img_decoder_built_in_line_true_color,"ax",%progbits
 746              		.align	2
 747              		.code	16
 748              		.thumb_func
 749              		.type	lv_img_decoder_built_in_line_true_color, %function
 750              	lv_img_decoder_built_in_line_true_color:
 751              	.LFB71:
 507:..\..\..\arduinoLCD\test\Pain Drain\libraries\lvgl\src\draw/lv_img_decoder.c **** 
 508:..\..\..\arduinoLCD\test\Pain Drain\libraries\lvgl\src\draw/lv_img_decoder.c **** /**********************
 509:..\..\..\arduinoLCD\test\Pain Drain\libraries\lvgl\src\draw/lv_img_decoder.c ****  *   STATIC FUNCTIONS
 510:..\..\..\arduinoLCD\test\Pain Drain\libraries\lvgl\src\draw/lv_img_decoder.c ****  **********************/
 511:..\..\..\arduinoLCD\test\Pain Drain\libraries\lvgl\src\draw/lv_img_decoder.c **** 
 512:..\..\..\arduinoLCD\test\Pain Drain\libraries\lvgl\src\draw/lv_img_decoder.c **** static lv_res_t lv_img_decoder_built_in_line_true_color(lv_img_decoder_dsc_t * dsc, lv_coord_t x, l
 513:..\..\..\arduinoLCD\test\Pain Drain\libraries\lvgl\src\draw/lv_img_decoder.c ****                                                         lv_coord_t len, uint8_t * buf)
 514:..\..\..\arduinoLCD\test\Pain Drain\libraries\lvgl\src\draw/lv_img_decoder.c **** {
 752              		.loc 1 514 0
 753              		.cfi_startproc
 754              		@ args = 4, pretend = 0, frame = 16
 755              		@ frame_needed = 0, uses_anonymous_args = 0
 756              	.LVL84:
 757 0000 F0B5     		push	{r4, r5, r6, r7, lr}
 758              		.cfi_def_cfa_offset 20
 759              		.cfi_offset 4, -20
 760              		.cfi_offset 5, -16
 761              		.cfi_offset 6, -12
 762              		.cfi_offset 7, -8
 763              		.cfi_offset 14, -4
 764 0002 4746     		mov	r7, r8
 765 0004 80B4     		push	{r7}
 766              		.cfi_def_cfa_offset 24
 767              		.cfi_offset 8, -24
 768 0006 84B0     		sub	sp, sp, #16
 769              		.cfi_def_cfa_offset 40
 770 0008 0500     		movs	r5, r0
 771 000a 0F00     		movs	r7, r1
 772 000c 9046     		mov	r8, r2
 773 000e 0193     		str	r3, [sp, #4]
 515:..\..\..\arduinoLCD\test\Pain Drain\libraries\lvgl\src\draw/lv_img_decoder.c ****     lv_img_decoder_built_in_data_t * user_data = dsc->user_data;
 774              		.loc 1 515 0
 775 0010 446A     		ldr	r4, [r0, #36]
 776              	.LVL85:
ARM GAS  C:\Users\haske\AppData\Local\Temp\ccufPcu5.s 			page 39


 516:..\..\..\arduinoLCD\test\Pain Drain\libraries\lvgl\src\draw/lv_img_decoder.c ****     lv_fs_res_t res;
 517:..\..\..\arduinoLCD\test\Pain Drain\libraries\lvgl\src\draw/lv_img_decoder.c ****     uint8_t px_size = lv_img_cf_get_px_size(dsc->header.cf);
 777              		.loc 1 517 0
 778 0012 007D     		ldrb	r0, [r0, #20]
 779              	.LVL86:
 780 0014 C006     		lsls	r0, r0, #27
 781 0016 C00E     		lsrs	r0, r0, #27
 782 0018 FFF7FEFF 		bl	lv_img_cf_get_px_size
 783              	.LVL87:
 784 001c 0600     		movs	r6, r0
 785              	.LVL88:
 518:..\..\..\arduinoLCD\test\Pain Drain\libraries\lvgl\src\draw/lv_img_decoder.c **** 
 519:..\..\..\arduinoLCD\test\Pain Drain\libraries\lvgl\src\draw/lv_img_decoder.c ****     uint32_t pos = ((y * dsc->header.w + x) * px_size) >> 3;
 786              		.loc 1 519 0
 787 001e 6969     		ldr	r1, [r5, #20]
 788 0020 C902     		lsls	r1, r1, #11
 789 0022 490D     		lsrs	r1, r1, #21
 790 0024 4346     		mov	r3, r8
 791 0026 5943     		muls	r1, r3
 792 0028 7918     		adds	r1, r7, r1
 793 002a 4143     		muls	r1, r0
 794 002c C910     		asrs	r1, r1, #3
 795              	.LVL89:
 520:..\..\..\arduinoLCD\test\Pain Drain\libraries\lvgl\src\draw/lv_img_decoder.c ****     pos += 4; /*Skip the header*/
 796              		.loc 1 520 0
 797 002e 0431     		adds	r1, r1, #4
 798              	.LVL90:
 521:..\..\..\arduinoLCD\test\Pain Drain\libraries\lvgl\src\draw/lv_img_decoder.c ****     res = lv_fs_seek(&user_data->f, pos, LV_FS_SEEK_SET);
 799              		.loc 1 521 0
 800 0030 0022     		movs	r2, #0
 801 0032 2000     		movs	r0, r4
 802              	.LVL91:
 803 0034 FFF7FEFF 		bl	lv_fs_seek
 804              	.LVL92:
 522:..\..\..\arduinoLCD\test\Pain Drain\libraries\lvgl\src\draw/lv_img_decoder.c ****     if(res != LV_FS_RES_OK) {
 805              		.loc 1 522 0
 806 0038 0028     		cmp	r0, #0
 807 003a 11D1     		bne	.L53
 523:..\..\..\arduinoLCD\test\Pain Drain\libraries\lvgl\src\draw/lv_img_decoder.c ****         LV_LOG_WARN("Built-in image decoder seek failed");
 524:..\..\..\arduinoLCD\test\Pain Drain\libraries\lvgl\src\draw/lv_img_decoder.c ****         return LV_RES_INV;
 525:..\..\..\arduinoLCD\test\Pain Drain\libraries\lvgl\src\draw/lv_img_decoder.c ****     }
 526:..\..\..\arduinoLCD\test\Pain Drain\libraries\lvgl\src\draw/lv_img_decoder.c ****     uint32_t btr = len * (px_size >> 3);
 808              		.loc 1 526 0
 809 003c F608     		lsrs	r6, r6, #3
 810 003e F6B2     		uxtb	r6, r6
 811 0040 019D     		ldr	r5, [sp, #4]
 812              	.LVL93:
 813 0042 7543     		muls	r5, r6
 814              	.LVL94:
 527:..\..\..\arduinoLCD\test\Pain Drain\libraries\lvgl\src\draw/lv_img_decoder.c ****     uint32_t br  = 0;
 815              		.loc 1 527 0
 816 0044 0023     		movs	r3, #0
 817 0046 0393     		str	r3, [sp, #12]
 528:..\..\..\arduinoLCD\test\Pain Drain\libraries\lvgl\src\draw/lv_img_decoder.c ****     res = lv_fs_read(&user_data->f, buf, btr, &br);
 818              		.loc 1 528 0
 819 0048 03AB     		add	r3, sp, #12
 820 004a 2A00     		movs	r2, r5
ARM GAS  C:\Users\haske\AppData\Local\Temp\ccufPcu5.s 			page 40


 821 004c 0A99     		ldr	r1, [sp, #40]
 822 004e 2000     		movs	r0, r4
 823              	.LVL95:
 824 0050 FFF7FEFF 		bl	lv_fs_read
 825              	.LVL96:
 529:..\..\..\arduinoLCD\test\Pain Drain\libraries\lvgl\src\draw/lv_img_decoder.c ****     if(res != LV_FS_RES_OK || btr != br) {
 826              		.loc 1 529 0
 827 0054 0028     		cmp	r0, #0
 828 0056 05D1     		bne	.L54
 829              		.loc 1 529 0 is_stmt 0 discriminator 1
 830 0058 039B     		ldr	r3, [sp, #12]
 831 005a 9D42     		cmp	r5, r3
 832 005c 04D0     		beq	.L55
 833 005e 04E0     		b	.L52
 834              	.LVL97:
 835              	.L53:
 524:..\..\..\arduinoLCD\test\Pain Drain\libraries\lvgl\src\draw/lv_img_decoder.c ****     }
 836              		.loc 1 524 0 is_stmt 1
 837 0060 0020     		movs	r0, #0
 838              	.LVL98:
 839 0062 02E0     		b	.L52
 840              	.LVL99:
 841              	.L54:
 530:..\..\..\arduinoLCD\test\Pain Drain\libraries\lvgl\src\draw/lv_img_decoder.c ****         LV_LOG_WARN("Built-in image decoder read failed");
 531:..\..\..\arduinoLCD\test\Pain Drain\libraries\lvgl\src\draw/lv_img_decoder.c ****         return LV_RES_INV;
 842              		.loc 1 531 0
 843 0064 0020     		movs	r0, #0
 844              	.LVL100:
 845 0066 00E0     		b	.L52
 846              	.LVL101:
 847              	.L55:
 532:..\..\..\arduinoLCD\test\Pain Drain\libraries\lvgl\src\draw/lv_img_decoder.c ****     }
 533:..\..\..\arduinoLCD\test\Pain Drain\libraries\lvgl\src\draw/lv_img_decoder.c **** 
 534:..\..\..\arduinoLCD\test\Pain Drain\libraries\lvgl\src\draw/lv_img_decoder.c ****     return LV_RES_OK;
 848              		.loc 1 534 0
 849 0068 0120     		movs	r0, #1
 850              	.LVL102:
 851              	.L52:
 535:..\..\..\arduinoLCD\test\Pain Drain\libraries\lvgl\src\draw/lv_img_decoder.c **** }
 852              		.loc 1 535 0
 853 006a 04B0     		add	sp, sp, #16
 854              		@ sp needed
 855              	.LVL103:
 856 006c 04BC     		pop	{r2}
 857 006e 9046     		mov	r8, r2
 858 0070 F0BD     		pop	{r4, r5, r6, r7, pc}
 859              		.cfi_endproc
 860              	.LFE71:
 861              		.size	lv_img_decoder_built_in_line_true_color, .-lv_img_decoder_built_in_line_true_color
 862 0072 C046     		.section	.text.lv_img_decoder_built_in_line_alpha,"ax",%progbits
 863              		.align	2
 864              		.code	16
 865              		.thumb_func
 866              		.type	lv_img_decoder_built_in_line_alpha, %function
 867              	lv_img_decoder_built_in_line_alpha:
 868              	.LFB72:
 536:..\..\..\arduinoLCD\test\Pain Drain\libraries\lvgl\src\draw/lv_img_decoder.c **** 
ARM GAS  C:\Users\haske\AppData\Local\Temp\ccufPcu5.s 			page 41


 537:..\..\..\arduinoLCD\test\Pain Drain\libraries\lvgl\src\draw/lv_img_decoder.c **** static lv_res_t lv_img_decoder_built_in_line_alpha(lv_img_decoder_dsc_t * dsc, lv_coord_t x, lv_coo
 538:..\..\..\arduinoLCD\test\Pain Drain\libraries\lvgl\src\draw/lv_img_decoder.c ****                                                    lv_coord_t len, uint8_t * buf)
 539:..\..\..\arduinoLCD\test\Pain Drain\libraries\lvgl\src\draw/lv_img_decoder.c **** {
 869              		.loc 1 539 0
 870              		.cfi_startproc
 871              		@ args = 4, pretend = 0, frame = 40
 872              		@ frame_needed = 0, uses_anonymous_args = 0
 873              	.LVL104:
 874 0000 F0B5     		push	{r4, r5, r6, r7, lr}
 875              		.cfi_def_cfa_offset 20
 876              		.cfi_offset 4, -20
 877              		.cfi_offset 5, -16
 878              		.cfi_offset 6, -12
 879              		.cfi_offset 7, -8
 880              		.cfi_offset 14, -4
 881 0002 5F46     		mov	r7, fp
 882 0004 5646     		mov	r6, r10
 883 0006 4D46     		mov	r5, r9
 884 0008 4446     		mov	r4, r8
 885 000a F0B4     		push	{r4, r5, r6, r7}
 886              		.cfi_def_cfa_offset 36
 887              		.cfi_offset 8, -36
 888              		.cfi_offset 9, -32
 889              		.cfi_offset 10, -28
 890              		.cfi_offset 11, -24
 891 000c 8BB0     		sub	sp, sp, #44
 892              		.cfi_def_cfa_offset 80
 893 000e 0700     		movs	r7, r0
 894 0010 8A46     		mov	r10, r1
 895 0012 9346     		mov	fp, r2
 896 0014 1E00     		movs	r6, r3
 897 0016 149D     		ldr	r5, [sp, #80]
 540:..\..\..\arduinoLCD\test\Pain Drain\libraries\lvgl\src\draw/lv_img_decoder.c ****     const lv_opa_t alpha1_opa_table[2]  = {0, 255};          /*Opacity mapping with bpp = 1 (Just f
 898              		.loc 1 540 0
 899 0018 09AB     		add	r3, sp, #36
 900              	.LVL105:
 901 001a 0022     		movs	r2, #0
 902              	.LVL106:
 903 001c 1A70     		strb	r2, [r3]
 904 001e FF32     		adds	r2, r2, #255
 905 0020 5A70     		strb	r2, [r3, #1]
 541:..\..\..\arduinoLCD\test\Pain Drain\libraries\lvgl\src\draw/lv_img_decoder.c ****     const lv_opa_t alpha2_opa_table[4]  = {0, 85, 170, 255}; /*Opacity mapping with bpp = 2*/
 906              		.loc 1 541 0
 907 0022 6C4C     		ldr	r4, .L76
 908 0024 FB3A     		subs	r2, r2, #251
 909 0026 2100     		movs	r1, r4
 910              	.LVL107:
 911 0028 08A8     		add	r0, sp, #32
 912              	.LVL108:
 913 002a FFF7FEFF 		bl	memcpy
 914              	.LVL109:
 542:..\..\..\arduinoLCD\test\Pain Drain\libraries\lvgl\src\draw/lv_img_decoder.c ****     const lv_opa_t alpha4_opa_table[16] = {0,  17, 34,  51,  /*Opacity mapping with bpp = 4*/
 915              		.loc 1 542 0
 916 002e 211D     		adds	r1, r4, #4
 917 0030 1022     		movs	r2, #16
 918 0032 04A8     		add	r0, sp, #16
 919 0034 FFF7FEFF 		bl	memcpy
ARM GAS  C:\Users\haske\AppData\Local\Temp\ccufPcu5.s 			page 42


 920              	.LVL110:
 543:..\..\..\arduinoLCD\test\Pain Drain\libraries\lvgl\src\draw/lv_img_decoder.c ****                                            68, 85, 102, 119, 136, 153, 170, 187, 204, 221, 238, 255
 544:..\..\..\arduinoLCD\test\Pain Drain\libraries\lvgl\src\draw/lv_img_decoder.c ****                                           };
 545:..\..\..\arduinoLCD\test\Pain Drain\libraries\lvgl\src\draw/lv_img_decoder.c **** 
 546:..\..\..\arduinoLCD\test\Pain Drain\libraries\lvgl\src\draw/lv_img_decoder.c ****     /*Simply fill the buffer with the color. Later only the alpha value will be modified.*/
 547:..\..\..\arduinoLCD\test\Pain Drain\libraries\lvgl\src\draw/lv_img_decoder.c ****     lv_color_t bg_color = dsc->color;
 921              		.loc 1 547 0
 922 0038 3989     		ldrh	r1, [r7, #8]
 923              	.LVL111:
 548:..\..\..\arduinoLCD\test\Pain Drain\libraries\lvgl\src\draw/lv_img_decoder.c ****     lv_coord_t i;
 549:..\..\..\arduinoLCD\test\Pain Drain\libraries\lvgl\src\draw/lv_img_decoder.c ****     for(i = 0; i < len; i++) {
 924              		.loc 1 549 0
 925 003a 0023     		movs	r3, #0
 926 003c 08E0     		b	.L57
 927              	.LVL112:
 928              	.L58:
 550:..\..\..\arduinoLCD\test\Pain Drain\libraries\lvgl\src\draw/lv_img_decoder.c **** #if LV_COLOR_DEPTH == 8 || LV_COLOR_DEPTH == 1
 551:..\..\..\arduinoLCD\test\Pain Drain\libraries\lvgl\src\draw/lv_img_decoder.c ****         buf[i * LV_IMG_PX_SIZE_ALPHA_BYTE] = bg_color.full;
 552:..\..\..\arduinoLCD\test\Pain Drain\libraries\lvgl\src\draw/lv_img_decoder.c **** #elif LV_COLOR_DEPTH == 16
 553:..\..\..\arduinoLCD\test\Pain Drain\libraries\lvgl\src\draw/lv_img_decoder.c ****         /*Because of Alpha byte 16 bit color can start on odd address which can cause crash*/
 554:..\..\..\arduinoLCD\test\Pain Drain\libraries\lvgl\src\draw/lv_img_decoder.c ****         buf[i * LV_IMG_PX_SIZE_ALPHA_BYTE] = bg_color.full & 0xFF;
 929              		.loc 1 554 0 discriminator 3
 930 003e 5A00     		lsls	r2, r3, #1
 931 0040 D218     		adds	r2, r2, r3
 932 0042 88B2     		uxth	r0, r1
 933 0044 A854     		strb	r0, [r5, r2]
 555:..\..\..\arduinoLCD\test\Pain Drain\libraries\lvgl\src\draw/lv_img_decoder.c ****         buf[i * LV_IMG_PX_SIZE_ALPHA_BYTE + 1] = (bg_color.full >> 8) & 0xFF;
 934              		.loc 1 555 0 discriminator 3
 935 0046 0132     		adds	r2, r2, #1
 936 0048 000A     		lsrs	r0, r0, #8
 937 004a A854     		strb	r0, [r5, r2]
 549:..\..\..\arduinoLCD\test\Pain Drain\libraries\lvgl\src\draw/lv_img_decoder.c **** #if LV_COLOR_DEPTH == 8 || LV_COLOR_DEPTH == 1
 938              		.loc 1 549 0 discriminator 3
 939 004c 0133     		adds	r3, r3, #1
 940              	.LVL113:
 941 004e 1BB2     		sxth	r3, r3
 942              	.LVL114:
 943              	.L57:
 549:..\..\..\arduinoLCD\test\Pain Drain\libraries\lvgl\src\draw/lv_img_decoder.c **** #if LV_COLOR_DEPTH == 8 || LV_COLOR_DEPTH == 1
 944              		.loc 1 549 0 is_stmt 0 discriminator 1
 945 0050 B342     		cmp	r3, r6
 946 0052 F4DB     		blt	.L58
 947              	.LVL115:
 556:..\..\..\arduinoLCD\test\Pain Drain\libraries\lvgl\src\draw/lv_img_decoder.c **** #elif LV_COLOR_DEPTH == 32
 557:..\..\..\arduinoLCD\test\Pain Drain\libraries\lvgl\src\draw/lv_img_decoder.c ****         *((uint32_t *)&buf[i * LV_IMG_PX_SIZE_ALPHA_BYTE]) = bg_color.full;
 558:..\..\..\arduinoLCD\test\Pain Drain\libraries\lvgl\src\draw/lv_img_decoder.c **** #else
 559:..\..\..\arduinoLCD\test\Pain Drain\libraries\lvgl\src\draw/lv_img_decoder.c **** #error "Invalid LV_COLOR_DEPTH. Check it in lv_conf.h"
 560:..\..\..\arduinoLCD\test\Pain Drain\libraries\lvgl\src\draw/lv_img_decoder.c **** #endif
 561:..\..\..\arduinoLCD\test\Pain Drain\libraries\lvgl\src\draw/lv_img_decoder.c ****     }
 562:..\..\..\arduinoLCD\test\Pain Drain\libraries\lvgl\src\draw/lv_img_decoder.c **** 
 563:..\..\..\arduinoLCD\test\Pain Drain\libraries\lvgl\src\draw/lv_img_decoder.c ****     const lv_opa_t * opa_table = NULL;
 564:..\..\..\arduinoLCD\test\Pain Drain\libraries\lvgl\src\draw/lv_img_decoder.c ****     uint8_t px_size            = lv_img_cf_get_px_size(dsc->header.cf);
 948              		.loc 1 564 0 is_stmt 1
 949 0054 387D     		ldrb	r0, [r7, #20]
 950 0056 C006     		lsls	r0, r0, #27
 951 0058 C00E     		lsrs	r0, r0, #27
 952 005a FFF7FEFF 		bl	lv_img_cf_get_px_size
ARM GAS  C:\Users\haske\AppData\Local\Temp\ccufPcu5.s 			page 43


 953              	.LVL116:
 954 005e 8146     		mov	r9, r0
 955              	.LVL117:
 565:..\..\..\arduinoLCD\test\Pain Drain\libraries\lvgl\src\draw/lv_img_decoder.c ****     uint16_t mask              = (1 << px_size) - 1; /*E.g. px_size = 2; mask = 0x03*/
 956              		.loc 1 565 0
 957 0060 0123     		movs	r3, #1
 958 0062 8340     		lsls	r3, r3, r0
 959 0064 013B     		subs	r3, r3, #1
 960 0066 9BB2     		uxth	r3, r3
 961 0068 9846     		mov	r8, r3
 962              	.LVL118:
 566:..\..\..\arduinoLCD\test\Pain Drain\libraries\lvgl\src\draw/lv_img_decoder.c **** 
 567:..\..\..\arduinoLCD\test\Pain Drain\libraries\lvgl\src\draw/lv_img_decoder.c ****     lv_coord_t w = 0;
 568:..\..\..\arduinoLCD\test\Pain Drain\libraries\lvgl\src\draw/lv_img_decoder.c ****     uint32_t ofs = 0;
 569:..\..\..\arduinoLCD\test\Pain Drain\libraries\lvgl\src\draw/lv_img_decoder.c ****     int8_t pos   = 0;
 570:..\..\..\arduinoLCD\test\Pain Drain\libraries\lvgl\src\draw/lv_img_decoder.c ****     switch(dsc->header.cf) {
 963              		.loc 1 570 0
 964 006a 3B7D     		ldrb	r3, [r7, #20]
 965 006c DB06     		lsls	r3, r3, #27
 966 006e DB0E     		lsrs	r3, r3, #27
 967 0070 0C2B     		cmp	r3, #12
 968 0072 1AD0     		beq	.L60
 969 0074 02D8     		bhi	.L61
 970 0076 0B2B     		cmp	r3, #11
 971 0078 05D0     		beq	.L62
 972 007a 4AE0     		b	.L72
 973              	.L61:
 974 007c 0D2B     		cmp	r3, #13
 975 007e 29D0     		beq	.L63
 976 0080 0E2B     		cmp	r3, #14
 977 0082 39D0     		beq	.L64
 978 0084 45E0     		b	.L72
 979              	.L62:
 571:..\..\..\arduinoLCD\test\Pain Drain\libraries\lvgl\src\draw/lv_img_decoder.c ****         case LV_IMG_CF_ALPHA_1BIT:
 572:..\..\..\arduinoLCD\test\Pain Drain\libraries\lvgl\src\draw/lv_img_decoder.c ****             w = (dsc->header.w + 7) >> 3; /*E.g. w = 20 -> w = 2 + 1*/
 980              		.loc 1 572 0
 981 0086 7B69     		ldr	r3, [r7, #20]
 982 0088 D802     		lsls	r0, r3, #11
 983              	.LVL119:
 984 008a 400D     		lsrs	r0, r0, #21
 985 008c 0730     		adds	r0, r0, #7
 986 008e C010     		asrs	r0, r0, #3
 987              	.LVL120:
 573:..\..\..\arduinoLCD\test\Pain Drain\libraries\lvgl\src\draw/lv_img_decoder.c ****             ofs += w * y + (x >> 3); /*First pixel*/
 988              		.loc 1 573 0
 989 0090 5A46     		mov	r2, fp
 990 0092 4243     		muls	r2, r0
 991 0094 5346     		mov	r3, r10
 992 0096 DB10     		asrs	r3, r3, #3
 993 0098 9346     		mov	fp, r2
 994 009a 9B44     		add	fp, fp, r3
 995              	.LVL121:
 574:..\..\..\arduinoLCD\test\Pain Drain\libraries\lvgl\src\draw/lv_img_decoder.c ****             pos = 7 - (x & 0x7);
 996              		.loc 1 574 0
 997 009c 0723     		movs	r3, #7
 998 009e 5246     		mov	r2, r10
 999 00a0 9343     		bics	r3, r2
ARM GAS  C:\Users\haske\AppData\Local\Temp\ccufPcu5.s 			page 44


 1000 00a2 1C00     		movs	r4, r3
 1001              	.LVL122:
 575:..\..\..\arduinoLCD\test\Pain Drain\libraries\lvgl\src\draw/lv_img_decoder.c ****             opa_table = alpha1_opa_table;
 1002              		.loc 1 575 0
 1003 00a4 09AB     		add	r3, sp, #36
 1004              	.LVL123:
 1005 00a6 9A46     		mov	r10, r3
 576:..\..\..\arduinoLCD\test\Pain Drain\libraries\lvgl\src\draw/lv_img_decoder.c ****             break;
 1006              		.loc 1 576 0
 1007 00a8 3CE0     		b	.L59
 1008              	.LVL124:
 1009              	.L60:
 577:..\..\..\arduinoLCD\test\Pain Drain\libraries\lvgl\src\draw/lv_img_decoder.c ****         case LV_IMG_CF_ALPHA_2BIT:
 578:..\..\..\arduinoLCD\test\Pain Drain\libraries\lvgl\src\draw/lv_img_decoder.c ****             w = (dsc->header.w + 3) >> 2; /*E.g. w = 13 -> w = 3 + 1 (bytes)*/
 1010              		.loc 1 578 0
 1011 00aa 7B69     		ldr	r3, [r7, #20]
 1012 00ac D802     		lsls	r0, r3, #11
 1013              	.LVL125:
 1014 00ae 400D     		lsrs	r0, r0, #21
 1015 00b0 0330     		adds	r0, r0, #3
 1016 00b2 8010     		asrs	r0, r0, #2
 1017              	.LVL126:
 579:..\..\..\arduinoLCD\test\Pain Drain\libraries\lvgl\src\draw/lv_img_decoder.c ****             ofs += w * y + (x >> 2); /*First pixel*/
 1018              		.loc 1 579 0
 1019 00b4 5A46     		mov	r2, fp
 1020 00b6 4243     		muls	r2, r0
 1021 00b8 5346     		mov	r3, r10
 1022 00ba 9B10     		asrs	r3, r3, #2
 1023 00bc 9346     		mov	fp, r2
 1024 00be 9B44     		add	fp, fp, r3
 1025              	.LVL127:
 580:..\..\..\arduinoLCD\test\Pain Drain\libraries\lvgl\src\draw/lv_img_decoder.c ****             pos = 6 - (x & 0x3) * 2;
 1026              		.loc 1 580 0
 1027 00c0 5346     		mov	r3, r10
 1028 00c2 6A46     		mov	r2, sp
 1029 00c4 9380     		strh	r3, [r2, #4]
 1030 00c6 9388     		ldrh	r3, [r2, #4]
 1031 00c8 0324     		movs	r4, #3
 1032 00ca 9C43     		bics	r4, r3
 1033 00cc 6400     		lsls	r4, r4, #1
 1034              	.LVL128:
 581:..\..\..\arduinoLCD\test\Pain Drain\libraries\lvgl\src\draw/lv_img_decoder.c ****             opa_table = alpha2_opa_table;
 1035              		.loc 1 581 0
 1036 00ce 08AB     		add	r3, sp, #32
 1037              	.LVL129:
 1038 00d0 9A46     		mov	r10, r3
 582:..\..\..\arduinoLCD\test\Pain Drain\libraries\lvgl\src\draw/lv_img_decoder.c ****             break;
 1039              		.loc 1 582 0
 1040 00d2 27E0     		b	.L59
 1041              	.LVL130:
 1042              	.L63:
 583:..\..\..\arduinoLCD\test\Pain Drain\libraries\lvgl\src\draw/lv_img_decoder.c ****         case LV_IMG_CF_ALPHA_4BIT:
 584:..\..\..\arduinoLCD\test\Pain Drain\libraries\lvgl\src\draw/lv_img_decoder.c ****             w = (dsc->header.w + 1) >> 1; /*E.g. w = 13 -> w = 6 + 1 (bytes)*/
 1043              		.loc 1 584 0
 1044 00d4 7B69     		ldr	r3, [r7, #20]
 1045 00d6 D802     		lsls	r0, r3, #11
 1046              	.LVL131:
ARM GAS  C:\Users\haske\AppData\Local\Temp\ccufPcu5.s 			page 45


 1047 00d8 400D     		lsrs	r0, r0, #21
 1048 00da 0130     		adds	r0, r0, #1
 1049 00dc 4010     		asrs	r0, r0, #1
 1050              	.LVL132:
 585:..\..\..\arduinoLCD\test\Pain Drain\libraries\lvgl\src\draw/lv_img_decoder.c ****             ofs += w * y + (x >> 1); /*First pixel*/
 1051              		.loc 1 585 0
 1052 00de 5A46     		mov	r2, fp
 1053 00e0 4243     		muls	r2, r0
 1054 00e2 5346     		mov	r3, r10
 1055 00e4 5B10     		asrs	r3, r3, #1
 1056 00e6 9346     		mov	fp, r2
 1057 00e8 9B44     		add	fp, fp, r3
 1058              	.LVL133:
 586:..\..\..\arduinoLCD\test\Pain Drain\libraries\lvgl\src\draw/lv_img_decoder.c ****             pos = 4 - (x & 0x1) * 4;
 1059              		.loc 1 586 0
 1060 00ea 5346     		mov	r3, r10
 1061 00ec DB07     		lsls	r3, r3, #31
 1062 00ee 16D4     		bmi	.L73
 1063 00f0 0424     		movs	r4, #4
 587:..\..\..\arduinoLCD\test\Pain Drain\libraries\lvgl\src\draw/lv_img_decoder.c ****             opa_table = alpha4_opa_table;
 1064              		.loc 1 587 0
 1065 00f2 04AB     		add	r3, sp, #16
 1066 00f4 9A46     		mov	r10, r3
 1067 00f6 15E0     		b	.L59
 1068              	.LVL134:
 1069              	.L64:
 588:..\..\..\arduinoLCD\test\Pain Drain\libraries\lvgl\src\draw/lv_img_decoder.c ****             break;
 589:..\..\..\arduinoLCD\test\Pain Drain\libraries\lvgl\src\draw/lv_img_decoder.c ****         case LV_IMG_CF_ALPHA_8BIT:
 590:..\..\..\arduinoLCD\test\Pain Drain\libraries\lvgl\src\draw/lv_img_decoder.c ****             w = dsc->header.w; /*E.g. x = 7 -> w = 7 (bytes)*/
 1070              		.loc 1 590 0
 1071 00f8 7B69     		ldr	r3, [r7, #20]
 1072 00fa D802     		lsls	r0, r3, #11
 1073              	.LVL135:
 1074 00fc 400D     		lsrs	r0, r0, #21
 1075 00fe 81B2     		uxth	r1, r0
 1076 0100 00B2     		sxth	r0, r0
 1077              	.LVL136:
 591:..\..\..\arduinoLCD\test\Pain Drain\libraries\lvgl\src\draw/lv_img_decoder.c ****             ofs += w * y + x;  /*First pixel*/
 1078              		.loc 1 591 0
 1079 0102 5B46     		mov	r3, fp
 1080 0104 4B43     		muls	r3, r1
 1081 0106 5344     		add	r3, r3, r10
 1082 0108 9B46     		mov	fp, r3
 1083              	.LVL137:
 592:..\..\..\arduinoLCD\test\Pain Drain\libraries\lvgl\src\draw/lv_img_decoder.c ****             pos = 0;
 1084              		.loc 1 592 0
 1085 010a 0024     		movs	r4, #0
 563:..\..\..\arduinoLCD\test\Pain Drain\libraries\lvgl\src\draw/lv_img_decoder.c ****     uint8_t px_size            = lv_img_cf_get_px_size(dsc->header.cf);
 1086              		.loc 1 563 0
 1087 010c 0023     		movs	r3, #0
 1088              	.LVL138:
 1089 010e 9A46     		mov	r10, r3
 593:..\..\..\arduinoLCD\test\Pain Drain\libraries\lvgl\src\draw/lv_img_decoder.c ****             break;
 1090              		.loc 1 593 0
 1091 0110 08E0     		b	.L59
 1092              	.LVL139:
 1093              	.L72:
ARM GAS  C:\Users\haske\AppData\Local\Temp\ccufPcu5.s 			page 46


 569:..\..\..\arduinoLCD\test\Pain Drain\libraries\lvgl\src\draw/lv_img_decoder.c ****     switch(dsc->header.cf) {
 1094              		.loc 1 569 0
 1095 0112 0024     		movs	r4, #0
 568:..\..\..\arduinoLCD\test\Pain Drain\libraries\lvgl\src\draw/lv_img_decoder.c ****     int8_t pos   = 0;
 1096              		.loc 1 568 0
 1097 0114 0023     		movs	r3, #0
 1098 0116 9B46     		mov	fp, r3
 567:..\..\..\arduinoLCD\test\Pain Drain\libraries\lvgl\src\draw/lv_img_decoder.c ****     uint32_t ofs = 0;
 1099              		.loc 1 567 0
 1100 0118 0020     		movs	r0, #0
 1101              	.LVL140:
 563:..\..\..\arduinoLCD\test\Pain Drain\libraries\lvgl\src\draw/lv_img_decoder.c ****     uint8_t px_size            = lv_img_cf_get_px_size(dsc->header.cf);
 1102              		.loc 1 563 0
 1103 011a 9A46     		mov	r10, r3
 1104 011c 02E0     		b	.L59
 1105              	.LVL141:
 1106              	.L73:
 586:..\..\..\arduinoLCD\test\Pain Drain\libraries\lvgl\src\draw/lv_img_decoder.c ****             opa_table = alpha4_opa_table;
 1107              		.loc 1 586 0
 1108 011e 0024     		movs	r4, #0
 587:..\..\..\arduinoLCD\test\Pain Drain\libraries\lvgl\src\draw/lv_img_decoder.c ****             break;
 1109              		.loc 1 587 0
 1110 0120 04AB     		add	r3, sp, #16
 1111 0122 9A46     		mov	r10, r3
 1112              	.LVL142:
 1113              	.L59:
 594:..\..\..\arduinoLCD\test\Pain Drain\libraries\lvgl\src\draw/lv_img_decoder.c ****     }
 595:..\..\..\arduinoLCD\test\Pain Drain\libraries\lvgl\src\draw/lv_img_decoder.c **** 
 596:..\..\..\arduinoLCD\test\Pain Drain\libraries\lvgl\src\draw/lv_img_decoder.c ****     lv_img_decoder_built_in_data_t * user_data = dsc->user_data;
 1114              		.loc 1 596 0
 1115 0124 7B6A     		ldr	r3, [r7, #36]
 1116 0126 0193     		str	r3, [sp, #4]
 1117              	.LVL143:
 597:..\..\..\arduinoLCD\test\Pain Drain\libraries\lvgl\src\draw/lv_img_decoder.c ****     uint8_t * fs_buf = lv_mem_buf_get(w);
 1118              		.loc 1 597 0
 1119 0128 0290     		str	r0, [sp, #8]
 1120 012a FFF7FEFF 		bl	lv_mem_buf_get
 1121              	.LVL144:
 1122 012e 0390     		str	r0, [sp, #12]
 1123              	.LVL145:
 598:..\..\..\arduinoLCD\test\Pain Drain\libraries\lvgl\src\draw/lv_img_decoder.c ****     if(fs_buf == NULL) return LV_RES_INV;
 1124              		.loc 1 598 0
 1125 0130 0028     		cmp	r0, #0
 1126 0132 47D0     		beq	.L74
 1127              	.LVL146:
 599:..\..\..\arduinoLCD\test\Pain Drain\libraries\lvgl\src\draw/lv_img_decoder.c **** 
 600:..\..\..\arduinoLCD\test\Pain Drain\libraries\lvgl\src\draw/lv_img_decoder.c ****     const uint8_t * data_tmp = NULL;
 601:..\..\..\arduinoLCD\test\Pain Drain\libraries\lvgl\src\draw/lv_img_decoder.c ****     if(dsc->src_type == LV_IMG_SRC_VARIABLE) {
 1128              		.loc 1 601 0
 1129 0134 3B7C     		ldrb	r3, [r7, #16]
 1130 0136 002B     		cmp	r3, #0
 1131 0138 0BD1     		bne	.L66
 1132              	.LBB30:
 602:..\..\..\arduinoLCD\test\Pain Drain\libraries\lvgl\src\draw/lv_img_decoder.c ****         const lv_img_dsc_t * img_dsc = dsc->src;
 1133              		.loc 1 602 0
 1134 013a 7B68     		ldr	r3, [r7, #4]
 1135              	.LVL147:
ARM GAS  C:\Users\haske\AppData\Local\Temp\ccufPcu5.s 			page 47


 603:..\..\..\arduinoLCD\test\Pain Drain\libraries\lvgl\src\draw/lv_img_decoder.c **** 
 604:..\..\..\arduinoLCD\test\Pain Drain\libraries\lvgl\src\draw/lv_img_decoder.c ****         data_tmp = img_dsc->data + ofs;
 1136              		.loc 1 604 0
 1137 013c 9968     		ldr	r1, [r3, #8]
 1138 013e 8B44     		add	fp, fp, r1
 1139              	.LVL148:
 1140              	.L68:
 1141              	.LBE30:
 1142              	.LBB31:
 605:..\..\..\arduinoLCD\test\Pain Drain\libraries\lvgl\src\draw/lv_img_decoder.c ****     }
 606:..\..\..\arduinoLCD\test\Pain Drain\libraries\lvgl\src\draw/lv_img_decoder.c ****     else {
 607:..\..\..\arduinoLCD\test\Pain Drain\libraries\lvgl\src\draw/lv_img_decoder.c ****         lv_fs_seek(&user_data->f, ofs + 4, LV_FS_SEEK_SET); /*+4 to skip the header*/
 608:..\..\..\arduinoLCD\test\Pain Drain\libraries\lvgl\src\draw/lv_img_decoder.c ****         lv_fs_read(&user_data->f, fs_buf, w, NULL);
 609:..\..\..\arduinoLCD\test\Pain Drain\libraries\lvgl\src\draw/lv_img_decoder.c ****         data_tmp = fs_buf;
 610:..\..\..\arduinoLCD\test\Pain Drain\libraries\lvgl\src\draw/lv_img_decoder.c ****     }
 611:..\..\..\arduinoLCD\test\Pain Drain\libraries\lvgl\src\draw/lv_img_decoder.c **** 
 612:..\..\..\arduinoLCD\test\Pain Drain\libraries\lvgl\src\draw/lv_img_decoder.c ****     for(i = 0; i < len; i++) {
 613:..\..\..\arduinoLCD\test\Pain Drain\libraries\lvgl\src\draw/lv_img_decoder.c ****         uint8_t val_act = (*data_tmp >> pos) & mask;
 614:..\..\..\arduinoLCD\test\Pain Drain\libraries\lvgl\src\draw/lv_img_decoder.c **** 
 615:..\..\..\arduinoLCD\test\Pain Drain\libraries\lvgl\src\draw/lv_img_decoder.c ****         buf[i * LV_IMG_PX_SIZE_ALPHA_BYTE + LV_IMG_PX_SIZE_ALPHA_BYTE - 1] =
 1143              		.loc 1 615 0 discriminator 1
 1144 0140 0020     		movs	r0, #0
 1145 0142 5946     		mov	r1, fp
 1146 0144 BC46     		mov	ip, r7
 1147 0146 4346     		mov	r3, r8
 1148 0148 0293     		str	r3, [sp, #8]
 1149 014a 0196     		str	r6, [sp, #4]
 1150              	.LVL149:
 1151 014c A846     		mov	r8, r5
 1152              	.LVL150:
 1153 014e 4D46     		mov	r5, r9
 1154 0150 30E0     		b	.L67
 1155              	.LVL151:
 1156              	.L66:
 1157              	.LBE31:
 607:..\..\..\arduinoLCD\test\Pain Drain\libraries\lvgl\src\draw/lv_img_decoder.c ****         lv_fs_read(&user_data->f, fs_buf, w, NULL);
 1158              		.loc 1 607 0
 1159 0152 5946     		mov	r1, fp
 1160 0154 0431     		adds	r1, r1, #4
 1161 0156 0022     		movs	r2, #0
 1162 0158 019B     		ldr	r3, [sp, #4]
 1163 015a 9B46     		mov	fp, r3
 1164              	.LVL152:
 1165 015c 1800     		movs	r0, r3
 1166              	.LVL153:
 1167 015e FFF7FEFF 		bl	lv_fs_seek
 1168              	.LVL154:
 608:..\..\..\arduinoLCD\test\Pain Drain\libraries\lvgl\src\draw/lv_img_decoder.c ****         data_tmp = fs_buf;
 1169              		.loc 1 608 0
 1170 0162 0023     		movs	r3, #0
 1171 0164 029A     		ldr	r2, [sp, #8]
 1172 0166 0399     		ldr	r1, [sp, #12]
 1173 0168 5846     		mov	r0, fp
 1174 016a FFF7FEFF 		bl	lv_fs_read
 1175              	.LVL155:
 609:..\..\..\arduinoLCD\test\Pain Drain\libraries\lvgl\src\draw/lv_img_decoder.c ****     }
 1176              		.loc 1 609 0
ARM GAS  C:\Users\haske\AppData\Local\Temp\ccufPcu5.s 			page 48


 1177 016e 039B     		ldr	r3, [sp, #12]
 1178 0170 9B46     		mov	fp, r3
 1179 0172 E5E7     		b	.L68
 1180              	.LVL156:
 1181              	.L71:
 1182              	.LBB32:
 613:..\..\..\arduinoLCD\test\Pain Drain\libraries\lvgl\src\draw/lv_img_decoder.c **** 
 1183              		.loc 1 613 0
 1184 0174 0B78     		ldrb	r3, [r1]
 1185 0176 2341     		asrs	r3, r3, r4
 1186 0178 029A     		ldr	r2, [sp, #8]
 1187 017a 1340     		ands	r3, r2
 1188 017c DBB2     		uxtb	r3, r3
 1189              	.LVL157:
 1190              		.loc 1 615 0
 1191 017e 4200     		lsls	r2, r0, #1
 1192 0180 1218     		adds	r2, r2, r0
 1193 0182 0232     		adds	r2, r2, #2
 1194 0184 4244     		add	r2, r2, r8
 616:..\..\..\arduinoLCD\test\Pain Drain\libraries\lvgl\src\draw/lv_img_decoder.c ****             dsc->header.cf == LV_IMG_CF_ALPHA_8BIT ? val_act : opa_table[val_act];
 1195              		.loc 1 616 0
 1196 0186 6746     		mov	r7, ip
 1197 0188 3F7D     		ldrb	r7, [r7, #20]
 1198 018a B946     		mov	r9, r7
 1199 018c 1F27     		movs	r7, #31
 1200 018e BB46     		mov	fp, r7
 1201 0190 4F46     		mov	r7, r9
 1202 0192 5E46     		mov	r6, fp
 1203 0194 3740     		ands	r7, r6
 615:..\..\..\arduinoLCD\test\Pain Drain\libraries\lvgl\src\draw/lv_img_decoder.c ****             dsc->header.cf == LV_IMG_CF_ALPHA_8BIT ? val_act : opa_table[val_act];
 1204              		.loc 1 615 0
 1205 0196 0E2F     		cmp	r7, #14
 1206 0198 01D0     		beq	.L69
 615:..\..\..\arduinoLCD\test\Pain Drain\libraries\lvgl\src\draw/lv_img_decoder.c ****             dsc->header.cf == LV_IMG_CF_ALPHA_8BIT ? val_act : opa_table[val_act];
 1207              		.loc 1 615 0 is_stmt 0 discriminator 1
 1208 019a 5646     		mov	r6, r10
 1209 019c F35C     		ldrb	r3, [r6, r3]
 1210              	.LVL158:
 1211              	.L69:
 615:..\..\..\arduinoLCD\test\Pain Drain\libraries\lvgl\src\draw/lv_img_decoder.c ****             dsc->header.cf == LV_IMG_CF_ALPHA_8BIT ? val_act : opa_table[val_act];
 1212              		.loc 1 615 0 discriminator 4
 1213 019e 1370     		strb	r3, [r2]
 1214              	.LVL159:
 617:..\..\..\arduinoLCD\test\Pain Drain\libraries\lvgl\src\draw/lv_img_decoder.c **** 
 618:..\..\..\arduinoLCD\test\Pain Drain\libraries\lvgl\src\draw/lv_img_decoder.c ****         pos -= px_size;
 1215              		.loc 1 618 0 is_stmt 1 discriminator 4
 1216 01a0 641B     		subs	r4, r4, r5
 1217              	.LVL160:
 1218 01a2 64B2     		sxtb	r4, r4
 1219              	.LVL161:
 619:..\..\..\arduinoLCD\test\Pain Drain\libraries\lvgl\src\draw/lv_img_decoder.c ****         if(pos < 0) {
 1220              		.loc 1 619 0 discriminator 4
 1221 01a4 002C     		cmp	r4, #0
 1222 01a6 03DA     		bge	.L70
 620:..\..\..\arduinoLCD\test\Pain Drain\libraries\lvgl\src\draw/lv_img_decoder.c ****             pos = 8 - px_size;
 1223              		.loc 1 620 0
 1224 01a8 0824     		movs	r4, #8
ARM GAS  C:\Users\haske\AppData\Local\Temp\ccufPcu5.s 			page 49


 1225              	.LVL162:
 1226 01aa 641B     		subs	r4, r4, r5
 1227 01ac 64B2     		sxtb	r4, r4
 1228              	.LVL163:
 621:..\..\..\arduinoLCD\test\Pain Drain\libraries\lvgl\src\draw/lv_img_decoder.c ****             data_tmp++;
 1229              		.loc 1 621 0
 1230 01ae 0131     		adds	r1, r1, #1
 1231              	.LVL164:
 1232              	.L70:
 1233              	.LBE32:
 612:..\..\..\arduinoLCD\test\Pain Drain\libraries\lvgl\src\draw/lv_img_decoder.c ****         uint8_t val_act = (*data_tmp >> pos) & mask;
 1234              		.loc 1 612 0 discriminator 2
 1235 01b0 0130     		adds	r0, r0, #1
 1236              	.LVL165:
 1237 01b2 00B2     		sxth	r0, r0
 1238              	.LVL166:
 1239              	.L67:
 612:..\..\..\arduinoLCD\test\Pain Drain\libraries\lvgl\src\draw/lv_img_decoder.c ****         uint8_t val_act = (*data_tmp >> pos) & mask;
 1240              		.loc 1 612 0 is_stmt 0 discriminator 1
 1241 01b4 019B     		ldr	r3, [sp, #4]
 1242 01b6 9842     		cmp	r0, r3
 1243 01b8 DCDB     		blt	.L71
 622:..\..\..\arduinoLCD\test\Pain Drain\libraries\lvgl\src\draw/lv_img_decoder.c ****         }
 623:..\..\..\arduinoLCD\test\Pain Drain\libraries\lvgl\src\draw/lv_img_decoder.c ****     }
 624:..\..\..\arduinoLCD\test\Pain Drain\libraries\lvgl\src\draw/lv_img_decoder.c ****     lv_mem_buf_release(fs_buf);
 1244              		.loc 1 624 0 is_stmt 1
 1245 01ba 0398     		ldr	r0, [sp, #12]
 1246              	.LVL167:
 1247 01bc FFF7FEFF 		bl	lv_mem_buf_release
 1248              	.LVL168:
 625:..\..\..\arduinoLCD\test\Pain Drain\libraries\lvgl\src\draw/lv_img_decoder.c ****     return LV_RES_OK;
 1249              		.loc 1 625 0
 1250 01c0 0120     		movs	r0, #1
 1251 01c2 00E0     		b	.L65
 1252              	.LVL169:
 1253              	.L74:
 598:..\..\..\arduinoLCD\test\Pain Drain\libraries\lvgl\src\draw/lv_img_decoder.c **** 
 1254              		.loc 1 598 0
 1255 01c4 0020     		movs	r0, #0
 1256              	.LVL170:
 1257              	.L65:
 626:..\..\..\arduinoLCD\test\Pain Drain\libraries\lvgl\src\draw/lv_img_decoder.c **** }
 1258              		.loc 1 626 0
 1259 01c6 0BB0     		add	sp, sp, #44
 1260              		@ sp needed
 1261              	.LVL171:
 1262              	.LVL172:
 1263 01c8 3CBC     		pop	{r2, r3, r4, r5}
 1264 01ca 9046     		mov	r8, r2
 1265 01cc 9946     		mov	r9, r3
 1266 01ce A246     		mov	r10, r4
 1267 01d0 AB46     		mov	fp, r5
 1268 01d2 F0BD     		pop	{r4, r5, r6, r7, pc}
 1269              	.L77:
 1270              		.align	2
 1271              	.L76:
 1272 01d4 00000000 		.word	.LANCHOR0
ARM GAS  C:\Users\haske\AppData\Local\Temp\ccufPcu5.s 			page 50


 1273              		.cfi_endproc
 1274              	.LFE72:
 1275              		.size	lv_img_decoder_built_in_line_alpha, .-lv_img_decoder_built_in_line_alpha
 1276              		.section	.text.lv_img_decoder_built_in_line_indexed,"ax",%progbits
 1277              		.align	2
 1278              		.code	16
 1279              		.thumb_func
 1280              		.type	lv_img_decoder_built_in_line_indexed, %function
 1281              	lv_img_decoder_built_in_line_indexed:
 1282              	.LFB73:
 627:..\..\..\arduinoLCD\test\Pain Drain\libraries\lvgl\src\draw/lv_img_decoder.c **** 
 628:..\..\..\arduinoLCD\test\Pain Drain\libraries\lvgl\src\draw/lv_img_decoder.c **** static lv_res_t lv_img_decoder_built_in_line_indexed(lv_img_decoder_dsc_t * dsc, lv_coord_t x, lv_c
 629:..\..\..\arduinoLCD\test\Pain Drain\libraries\lvgl\src\draw/lv_img_decoder.c ****                                                      lv_coord_t len, uint8_t * buf)
 630:..\..\..\arduinoLCD\test\Pain Drain\libraries\lvgl\src\draw/lv_img_decoder.c **** {
 1283              		.loc 1 630 0
 1284              		.cfi_startproc
 1285              		@ args = 4, pretend = 0, frame = 8
 1286              		@ frame_needed = 0, uses_anonymous_args = 0
 1287              	.LVL173:
 1288 0000 F0B5     		push	{r4, r5, r6, r7, lr}
 1289              		.cfi_def_cfa_offset 20
 1290              		.cfi_offset 4, -20
 1291              		.cfi_offset 5, -16
 1292              		.cfi_offset 6, -12
 1293              		.cfi_offset 7, -8
 1294              		.cfi_offset 14, -4
 1295 0002 5F46     		mov	r7, fp
 1296 0004 5646     		mov	r6, r10
 1297 0006 4D46     		mov	r5, r9
 1298 0008 4446     		mov	r4, r8
 1299 000a F0B4     		push	{r4, r5, r6, r7}
 1300              		.cfi_def_cfa_offset 36
 1301              		.cfi_offset 8, -36
 1302              		.cfi_offset 9, -32
 1303              		.cfi_offset 10, -28
 1304              		.cfi_offset 11, -24
 1305 000c 83B0     		sub	sp, sp, #12
 1306              		.cfi_def_cfa_offset 48
 1307 000e 8346     		mov	fp, r0
 1308 0010 0E00     		movs	r6, r1
 1309 0012 1400     		movs	r4, r2
 1310 0014 9A46     		mov	r10, r3
 1311 0016 0C9D     		ldr	r5, [sp, #48]
 631:..\..\..\arduinoLCD\test\Pain Drain\libraries\lvgl\src\draw/lv_img_decoder.c ****     uint8_t px_size = lv_img_cf_get_px_size(dsc->header.cf);
 1312              		.loc 1 631 0
 1313 0018 007D     		ldrb	r0, [r0, #20]
 1314              	.LVL174:
 1315 001a C006     		lsls	r0, r0, #27
 1316 001c C00E     		lsrs	r0, r0, #27
 1317 001e FFF7FEFF 		bl	lv_img_cf_get_px_size
 1318              	.LVL175:
 1319 0022 8146     		mov	r9, r0
 1320              	.LVL176:
 632:..\..\..\arduinoLCD\test\Pain Drain\libraries\lvgl\src\draw/lv_img_decoder.c ****     uint16_t mask   = (1 << px_size) - 1; /*E.g. px_size = 2; mask = 0x03*/
 1321              		.loc 1 632 0
 1322 0024 0123     		movs	r3, #1
 1323 0026 8340     		lsls	r3, r3, r0
ARM GAS  C:\Users\haske\AppData\Local\Temp\ccufPcu5.s 			page 51


 1324 0028 013B     		subs	r3, r3, #1
 1325 002a 9BB2     		uxth	r3, r3
 1326 002c 9846     		mov	r8, r3
 1327              	.LVL177:
 633:..\..\..\arduinoLCD\test\Pain Drain\libraries\lvgl\src\draw/lv_img_decoder.c **** 
 634:..\..\..\arduinoLCD\test\Pain Drain\libraries\lvgl\src\draw/lv_img_decoder.c ****     lv_coord_t w = 0;
 635:..\..\..\arduinoLCD\test\Pain Drain\libraries\lvgl\src\draw/lv_img_decoder.c ****     int8_t pos   = 0;
 636:..\..\..\arduinoLCD\test\Pain Drain\libraries\lvgl\src\draw/lv_img_decoder.c ****     uint32_t ofs = 0;
 637:..\..\..\arduinoLCD\test\Pain Drain\libraries\lvgl\src\draw/lv_img_decoder.c ****     switch(dsc->header.cf) {
 1328              		.loc 1 637 0
 1329 002e 5B46     		mov	r3, fp
 1330 0030 1B7D     		ldrb	r3, [r3, #20]
 1331 0032 DB06     		lsls	r3, r3, #27
 1332 0034 DB0E     		lsrs	r3, r3, #27
 1333 0036 082B     		cmp	r3, #8
 1334 0038 16D0     		beq	.L80
 1335 003a 02D8     		bhi	.L81
 1336 003c 072B     		cmp	r3, #7
 1337 003e 05D0     		beq	.L82
 1338 0040 3EE0     		b	.L91
 1339              	.L81:
 1340 0042 092B     		cmp	r3, #9
 1341 0044 20D0     		beq	.L83
 1342 0046 0A2B     		cmp	r3, #10
 1343 0048 2DD0     		beq	.L84
 1344 004a 39E0     		b	.L91
 1345              	.L82:
 638:..\..\..\arduinoLCD\test\Pain Drain\libraries\lvgl\src\draw/lv_img_decoder.c ****         case LV_IMG_CF_INDEXED_1BIT:
 639:..\..\..\arduinoLCD\test\Pain Drain\libraries\lvgl\src\draw/lv_img_decoder.c ****             w = (dsc->header.w + 7) >> 3; /*E.g. w = 20 -> w = 2 + 1*/
 1346              		.loc 1 639 0
 1347 004c 5B46     		mov	r3, fp
 1348 004e 5B69     		ldr	r3, [r3, #20]
 1349 0050 D802     		lsls	r0, r3, #11
 1350              	.LVL178:
 1351 0052 400D     		lsrs	r0, r0, #21
 1352 0054 0730     		adds	r0, r0, #7
 1353 0056 C010     		asrs	r0, r0, #3
 1354              	.LVL179:
 640:..\..\..\arduinoLCD\test\Pain Drain\libraries\lvgl\src\draw/lv_img_decoder.c ****             ofs += w * y + (x >> 3); /*First pixel*/
 1355              		.loc 1 640 0
 1356 0058 4443     		muls	r4, r0
 1357 005a F310     		asrs	r3, r6, #3
 1358 005c E418     		adds	r4, r4, r3
 1359              	.LVL180:
 641:..\..\..\arduinoLCD\test\Pain Drain\libraries\lvgl\src\draw/lv_img_decoder.c ****             ofs += 8;                /*Skip the palette*/
 1360              		.loc 1 641 0
 1361 005e 0834     		adds	r4, r4, #8
 1362              	.LVL181:
 1363 0060 2700     		movs	r7, r4
 1364              	.LVL182:
 642:..\..\..\arduinoLCD\test\Pain Drain\libraries\lvgl\src\draw/lv_img_decoder.c ****             pos = 7 - (x & 0x7);
 1365              		.loc 1 642 0
 1366 0062 0724     		movs	r4, #7
 1367              	.LVL183:
 1368 0064 B443     		bics	r4, r6
 1369              	.LVL184:
 643:..\..\..\arduinoLCD\test\Pain Drain\libraries\lvgl\src\draw/lv_img_decoder.c ****             break;
ARM GAS  C:\Users\haske\AppData\Local\Temp\ccufPcu5.s 			page 52


 1370              		.loc 1 643 0
 1371 0066 30E0     		b	.L79
 1372              	.LVL185:
 1373              	.L80:
 644:..\..\..\arduinoLCD\test\Pain Drain\libraries\lvgl\src\draw/lv_img_decoder.c ****         case LV_IMG_CF_INDEXED_2BIT:
 645:..\..\..\arduinoLCD\test\Pain Drain\libraries\lvgl\src\draw/lv_img_decoder.c ****             w = (dsc->header.w + 3) >> 2; /*E.g. w = 13 -> w = 3 + 1 (bytes)*/
 1374              		.loc 1 645 0
 1375 0068 5B46     		mov	r3, fp
 1376 006a 5B69     		ldr	r3, [r3, #20]
 1377 006c D802     		lsls	r0, r3, #11
 1378              	.LVL186:
 1379 006e 400D     		lsrs	r0, r0, #21
 1380 0070 0330     		adds	r0, r0, #3
 1381 0072 8010     		asrs	r0, r0, #2
 1382              	.LVL187:
 646:..\..\..\arduinoLCD\test\Pain Drain\libraries\lvgl\src\draw/lv_img_decoder.c ****             ofs += w * y + (x >> 2); /*First pixel*/
 1383              		.loc 1 646 0
 1384 0074 4443     		muls	r4, r0
 1385 0076 B310     		asrs	r3, r6, #2
 1386 0078 E418     		adds	r4, r4, r3
 1387              	.LVL188:
 647:..\..\..\arduinoLCD\test\Pain Drain\libraries\lvgl\src\draw/lv_img_decoder.c ****             ofs += 16;               /*Skip the palette*/
 1388              		.loc 1 647 0
 1389 007a 1034     		adds	r4, r4, #16
 1390              	.LVL189:
 1391 007c 2700     		movs	r7, r4
 1392              	.LVL190:
 648:..\..\..\arduinoLCD\test\Pain Drain\libraries\lvgl\src\draw/lv_img_decoder.c ****             pos = 6 - (x & 0x3) * 2;
 1393              		.loc 1 648 0
 1394 007e B6B2     		uxth	r6, r6
 1395 0080 0324     		movs	r4, #3
 1396              	.LVL191:
 1397 0082 B443     		bics	r4, r6
 1398 0084 6400     		lsls	r4, r4, #1
 1399              	.LVL192:
 649:..\..\..\arduinoLCD\test\Pain Drain\libraries\lvgl\src\draw/lv_img_decoder.c ****             break;
 1400              		.loc 1 649 0
 1401 0086 20E0     		b	.L79
 1402              	.LVL193:
 1403              	.L83:
 650:..\..\..\arduinoLCD\test\Pain Drain\libraries\lvgl\src\draw/lv_img_decoder.c ****         case LV_IMG_CF_INDEXED_4BIT:
 651:..\..\..\arduinoLCD\test\Pain Drain\libraries\lvgl\src\draw/lv_img_decoder.c ****             w = (dsc->header.w + 1) >> 1; /*E.g. w = 13 -> w = 6 + 1 (bytes)*/
 1404              		.loc 1 651 0
 1405 0088 5B46     		mov	r3, fp
 1406 008a 5B69     		ldr	r3, [r3, #20]
 1407 008c D802     		lsls	r0, r3, #11
 1408              	.LVL194:
 1409 008e 400D     		lsrs	r0, r0, #21
 1410 0090 0130     		adds	r0, r0, #1
 1411 0092 4010     		asrs	r0, r0, #1
 1412              	.LVL195:
 652:..\..\..\arduinoLCD\test\Pain Drain\libraries\lvgl\src\draw/lv_img_decoder.c ****             ofs += w * y + (x >> 1); /*First pixel*/
 1413              		.loc 1 652 0
 1414 0094 4443     		muls	r4, r0
 1415 0096 7310     		asrs	r3, r6, #1
 1416 0098 E418     		adds	r4, r4, r3
 1417              	.LVL196:
ARM GAS  C:\Users\haske\AppData\Local\Temp\ccufPcu5.s 			page 53


 653:..\..\..\arduinoLCD\test\Pain Drain\libraries\lvgl\src\draw/lv_img_decoder.c ****             ofs += 64;               /*Skip the palette*/
 1418              		.loc 1 653 0
 1419 009a 4034     		adds	r4, r4, #64
 1420              	.LVL197:
 1421 009c 2700     		movs	r7, r4
 1422              	.LVL198:
 654:..\..\..\arduinoLCD\test\Pain Drain\libraries\lvgl\src\draw/lv_img_decoder.c ****             pos = 4 - (x & 0x1) * 4;
 1423              		.loc 1 654 0
 1424 009e F307     		lsls	r3, r6, #31
 1425 00a0 12D4     		bmi	.L92
 1426 00a2 0424     		movs	r4, #4
 1427              	.LVL199:
 1428 00a4 11E0     		b	.L79
 1429              	.LVL200:
 1430              	.L84:
 655:..\..\..\arduinoLCD\test\Pain Drain\libraries\lvgl\src\draw/lv_img_decoder.c ****             break;
 656:..\..\..\arduinoLCD\test\Pain Drain\libraries\lvgl\src\draw/lv_img_decoder.c ****         case LV_IMG_CF_INDEXED_8BIT:
 657:..\..\..\arduinoLCD\test\Pain Drain\libraries\lvgl\src\draw/lv_img_decoder.c ****             w = dsc->header.w; /*E.g. x = 7 -> w = 7 (bytes)*/
 1431              		.loc 1 657 0
 1432 00a6 5B46     		mov	r3, fp
 1433 00a8 5B69     		ldr	r3, [r3, #20]
 1434 00aa D802     		lsls	r0, r3, #11
 1435              	.LVL201:
 1436 00ac 400D     		lsrs	r0, r0, #21
 1437 00ae 81B2     		uxth	r1, r0
 1438 00b0 00B2     		sxth	r0, r0
 1439              	.LVL202:
 658:..\..\..\arduinoLCD\test\Pain Drain\libraries\lvgl\src\draw/lv_img_decoder.c ****             ofs += w * y + x;  /*First pixel*/
 1440              		.loc 1 658 0
 1441 00b2 4C43     		muls	r4, r1
 1442 00b4 3619     		adds	r6, r6, r4
 1443              	.LVL203:
 659:..\..\..\arduinoLCD\test\Pain Drain\libraries\lvgl\src\draw/lv_img_decoder.c ****             ofs += 1024;       /*Skip the palette*/
 1444              		.loc 1 659 0
 1445 00b6 8023     		movs	r3, #128
 1446 00b8 DB00     		lsls	r3, r3, #3
 1447 00ba F718     		adds	r7, r6, r3
 1448              	.LVL204:
 660:..\..\..\arduinoLCD\test\Pain Drain\libraries\lvgl\src\draw/lv_img_decoder.c ****             pos = 0;
 1449              		.loc 1 660 0
 1450 00bc 0024     		movs	r4, #0
 661:..\..\..\arduinoLCD\test\Pain Drain\libraries\lvgl\src\draw/lv_img_decoder.c ****             break;
 1451              		.loc 1 661 0
 1452 00be 04E0     		b	.L79
 1453              	.LVL205:
 1454              	.L91:
 636:..\..\..\arduinoLCD\test\Pain Drain\libraries\lvgl\src\draw/lv_img_decoder.c ****     switch(dsc->header.cf) {
 1455              		.loc 1 636 0
 1456 00c0 0027     		movs	r7, #0
 635:..\..\..\arduinoLCD\test\Pain Drain\libraries\lvgl\src\draw/lv_img_decoder.c ****     uint32_t ofs = 0;
 1457              		.loc 1 635 0
 1458 00c2 0024     		movs	r4, #0
 634:..\..\..\arduinoLCD\test\Pain Drain\libraries\lvgl\src\draw/lv_img_decoder.c ****     int8_t pos   = 0;
 1459              		.loc 1 634 0
 1460 00c4 0020     		movs	r0, #0
 1461              	.LVL206:
 1462 00c6 00E0     		b	.L79
ARM GAS  C:\Users\haske\AppData\Local\Temp\ccufPcu5.s 			page 54


 1463              	.LVL207:
 1464              	.L92:
 654:..\..\..\arduinoLCD\test\Pain Drain\libraries\lvgl\src\draw/lv_img_decoder.c ****             break;
 1465              		.loc 1 654 0
 1466 00c8 0024     		movs	r4, #0
 1467              	.LVL208:
 1468              	.L79:
 662:..\..\..\arduinoLCD\test\Pain Drain\libraries\lvgl\src\draw/lv_img_decoder.c ****     }
 663:..\..\..\arduinoLCD\test\Pain Drain\libraries\lvgl\src\draw/lv_img_decoder.c **** 
 664:..\..\..\arduinoLCD\test\Pain Drain\libraries\lvgl\src\draw/lv_img_decoder.c ****     lv_img_decoder_built_in_data_t * user_data = dsc->user_data;
 1469              		.loc 1 664 0
 1470 00ca 5B46     		mov	r3, fp
 1471 00cc 5E6A     		ldr	r6, [r3, #36]
 1472              	.LVL209:
 665:..\..\..\arduinoLCD\test\Pain Drain\libraries\lvgl\src\draw/lv_img_decoder.c **** 
 666:..\..\..\arduinoLCD\test\Pain Drain\libraries\lvgl\src\draw/lv_img_decoder.c ****     uint8_t * fs_buf = lv_mem_buf_get(w);
 1473              		.loc 1 666 0
 1474 00ce 0090     		str	r0, [sp]
 1475 00d0 FFF7FEFF 		bl	lv_mem_buf_get
 1476              	.LVL210:
 1477 00d4 0190     		str	r0, [sp, #4]
 1478              	.LVL211:
 667:..\..\..\arduinoLCD\test\Pain Drain\libraries\lvgl\src\draw/lv_img_decoder.c ****     if(fs_buf == NULL) return LV_RES_INV;
 1479              		.loc 1 667 0
 1480 00d6 0028     		cmp	r0, #0
 1481 00d8 43D0     		beq	.L93
 1482              	.LVL212:
 668:..\..\..\arduinoLCD\test\Pain Drain\libraries\lvgl\src\draw/lv_img_decoder.c ****     const uint8_t * data_tmp = NULL;
 669:..\..\..\arduinoLCD\test\Pain Drain\libraries\lvgl\src\draw/lv_img_decoder.c ****     if(dsc->src_type == LV_IMG_SRC_VARIABLE) {
 1483              		.loc 1 669 0
 1484 00da 5B46     		mov	r3, fp
 1485 00dc 1B7C     		ldrb	r3, [r3, #16]
 1486 00de 002B     		cmp	r3, #0
 1487 00e0 06D1     		bne	.L86
 1488              	.LBB33:
 670:..\..\..\arduinoLCD\test\Pain Drain\libraries\lvgl\src\draw/lv_img_decoder.c ****         const lv_img_dsc_t * img_dsc = dsc->src;
 1489              		.loc 1 670 0
 1490 00e2 5B46     		mov	r3, fp
 1491 00e4 5B68     		ldr	r3, [r3, #4]
 1492              	.LVL213:
 671:..\..\..\arduinoLCD\test\Pain Drain\libraries\lvgl\src\draw/lv_img_decoder.c ****         data_tmp                     = img_dsc->data + ofs;
 1493              		.loc 1 671 0
 1494 00e6 9968     		ldr	r1, [r3, #8]
 1495 00e8 CB19     		adds	r3, r1, r7
 1496              	.LVL214:
 1497 00ea 0093     		str	r3, [sp]
 1498              	.LVL215:
 1499              	.L88:
 1500              	.LBE33:
 672:..\..\..\arduinoLCD\test\Pain Drain\libraries\lvgl\src\draw/lv_img_decoder.c ****     }
 673:..\..\..\arduinoLCD\test\Pain Drain\libraries\lvgl\src\draw/lv_img_decoder.c ****     else {
 674:..\..\..\arduinoLCD\test\Pain Drain\libraries\lvgl\src\draw/lv_img_decoder.c ****         lv_fs_seek(&user_data->f, ofs + 4, LV_FS_SEEK_SET); /*+4 to skip the header*/
 675:..\..\..\arduinoLCD\test\Pain Drain\libraries\lvgl\src\draw/lv_img_decoder.c ****         lv_fs_read(&user_data->f, fs_buf, w, NULL);
 676:..\..\..\arduinoLCD\test\Pain Drain\libraries\lvgl\src\draw/lv_img_decoder.c ****         data_tmp = fs_buf;
 1501              		.loc 1 676 0 discriminator 1
 1502 00ec 0020     		movs	r0, #0
 1503 00ee 31E0     		b	.L87
ARM GAS  C:\Users\haske\AppData\Local\Temp\ccufPcu5.s 			page 55


 1504              	.LVL216:
 1505              	.L86:
 674:..\..\..\arduinoLCD\test\Pain Drain\libraries\lvgl\src\draw/lv_img_decoder.c ****         lv_fs_read(&user_data->f, fs_buf, w, NULL);
 1506              		.loc 1 674 0
 1507 00f0 391D     		adds	r1, r7, #4
 1508 00f2 0022     		movs	r2, #0
 1509 00f4 3000     		movs	r0, r6
 1510              	.LVL217:
 1511 00f6 FFF7FEFF 		bl	lv_fs_seek
 1512              	.LVL218:
 675:..\..\..\arduinoLCD\test\Pain Drain\libraries\lvgl\src\draw/lv_img_decoder.c ****         data_tmp = fs_buf;
 1513              		.loc 1 675 0
 1514 00fa 0023     		movs	r3, #0
 1515 00fc 009A     		ldr	r2, [sp]
 1516 00fe 019F     		ldr	r7, [sp, #4]
 1517              	.LVL219:
 1518 0100 3900     		movs	r1, r7
 1519 0102 3000     		movs	r0, r6
 1520 0104 FFF7FEFF 		bl	lv_fs_read
 1521              	.LVL220:
 1522              		.loc 1 676 0
 1523 0108 0097     		str	r7, [sp]
 1524 010a EFE7     		b	.L88
 1525              	.LVL221:
 1526              	.L90:
 1527              	.LBB34:
 677:..\..\..\arduinoLCD\test\Pain Drain\libraries\lvgl\src\draw/lv_img_decoder.c ****     }
 678:..\..\..\arduinoLCD\test\Pain Drain\libraries\lvgl\src\draw/lv_img_decoder.c **** 
 679:..\..\..\arduinoLCD\test\Pain Drain\libraries\lvgl\src\draw/lv_img_decoder.c ****     lv_coord_t i;
 680:..\..\..\arduinoLCD\test\Pain Drain\libraries\lvgl\src\draw/lv_img_decoder.c ****     for(i = 0; i < len; i++) {
 681:..\..\..\arduinoLCD\test\Pain Drain\libraries\lvgl\src\draw/lv_img_decoder.c ****         uint8_t val_act = (*data_tmp >> pos) & mask;
 1528              		.loc 1 681 0
 1529 010c 009B     		ldr	r3, [sp]
 1530 010e 1B78     		ldrb	r3, [r3]
 1531 0110 2341     		asrs	r3, r3, r4
 1532 0112 4246     		mov	r2, r8
 1533 0114 1340     		ands	r3, r2
 1534 0116 DBB2     		uxtb	r3, r3
 1535              	.LVL222:
 682:..\..\..\arduinoLCD\test\Pain Drain\libraries\lvgl\src\draw/lv_img_decoder.c **** 
 683:..\..\..\arduinoLCD\test\Pain Drain\libraries\lvgl\src\draw/lv_img_decoder.c ****         lv_color_t color = user_data->palette[val_act];
 1536              		.loc 1 683 0
 1537 0118 5F00     		lsls	r7, r3, #1
 684:..\..\..\arduinoLCD\test\Pain Drain\libraries\lvgl\src\draw/lv_img_decoder.c **** #if LV_COLOR_DEPTH == 8 || LV_COLOR_DEPTH == 1
 685:..\..\..\arduinoLCD\test\Pain Drain\libraries\lvgl\src\draw/lv_img_decoder.c ****         buf[i * LV_IMG_PX_SIZE_ALPHA_BYTE] = color.full;
 686:..\..\..\arduinoLCD\test\Pain Drain\libraries\lvgl\src\draw/lv_img_decoder.c **** #elif LV_COLOR_DEPTH == 16
 687:..\..\..\arduinoLCD\test\Pain Drain\libraries\lvgl\src\draw/lv_img_decoder.c ****         /*Because of Alpha byte 16 bit color can start on odd address which can cause crash*/
 688:..\..\..\arduinoLCD\test\Pain Drain\libraries\lvgl\src\draw/lv_img_decoder.c ****         buf[i * LV_IMG_PX_SIZE_ALPHA_BYTE] = color.full & 0xFF;
 1538              		.loc 1 688 0
 1539 011a 4200     		lsls	r2, r0, #1
 1540 011c 1218     		adds	r2, r2, r0
 1541 011e F168     		ldr	r1, [r6, #12]
 1542 0120 CF5B     		ldrh	r7, [r1, r7]
 1543 0122 AF54     		strb	r7, [r5, r2]
 689:..\..\..\arduinoLCD\test\Pain Drain\libraries\lvgl\src\draw/lv_img_decoder.c ****         buf[i * LV_IMG_PX_SIZE_ALPHA_BYTE + 1] = (color.full >> 8) & 0xFF;
 1544              		.loc 1 689 0
