ARM GAS  C:\Users\haske\AppData\Local\Temp\ccGWO5DZ.s 			page 1


   1              		.syntax unified
   2              		.cpu cortex-m0plus
   3              		.fpu softvfp
   4              		.eabi_attribute 20, 1
   5              		.eabi_attribute 21, 1
   6              		.eabi_attribute 23, 3
   7              		.eabi_attribute 24, 1
   8              		.eabi_attribute 25, 1
   9              		.eabi_attribute 26, 1
  10              		.eabi_attribute 30, 1
  11              		.eabi_attribute 34, 0
  12              		.eabi_attribute 18, 4
  13              		.thumb
  14              		.syntax unified
  15              		.file	"lv_img.c"
  16              		.text
  17              	.Ltext0:
  18              		.cfi_sections	.debug_frame
  19              		.section	.text.lv_img_get_transformed_size,"ax",%progbits
  20              		.align	2
  21              		.code	16
  22              		.thumb_func
  23              		.type	lv_img_get_transformed_size, %function
  24              	lv_img_get_transformed_size:
  25              	.LFB184:
  26              		.file 1 "..\\..\\..\\arduinoLCD\\test\\Pain Drain\\libraries\\lvgl\\src\\widgets\\lv_img.c"
   1:..\..\..\arduinoLCD\test\Pain Drain\libraries\lvgl\src\widgets/lv_img.c **** /**
   2:..\..\..\arduinoLCD\test\Pain Drain\libraries\lvgl\src\widgets/lv_img.c ****  * @file lv_img.c
   3:..\..\..\arduinoLCD\test\Pain Drain\libraries\lvgl\src\widgets/lv_img.c ****  *
   4:..\..\..\arduinoLCD\test\Pain Drain\libraries\lvgl\src\widgets/lv_img.c ****  */
   5:..\..\..\arduinoLCD\test\Pain Drain\libraries\lvgl\src\widgets/lv_img.c **** 
   6:..\..\..\arduinoLCD\test\Pain Drain\libraries\lvgl\src\widgets/lv_img.c **** /*********************
   7:..\..\..\arduinoLCD\test\Pain Drain\libraries\lvgl\src\widgets/lv_img.c ****  *      INCLUDES
   8:..\..\..\arduinoLCD\test\Pain Drain\libraries\lvgl\src\widgets/lv_img.c ****  *********************/
   9:..\..\..\arduinoLCD\test\Pain Drain\libraries\lvgl\src\widgets/lv_img.c **** #include "lv_img.h"
  10:..\..\..\arduinoLCD\test\Pain Drain\libraries\lvgl\src\widgets/lv_img.c **** #if LV_USE_IMG != 0
  11:..\..\..\arduinoLCD\test\Pain Drain\libraries\lvgl\src\widgets/lv_img.c **** 
  12:..\..\..\arduinoLCD\test\Pain Drain\libraries\lvgl\src\widgets/lv_img.c **** #include "../core/lv_disp.h"
  13:..\..\..\arduinoLCD\test\Pain Drain\libraries\lvgl\src\widgets/lv_img.c **** #include "../misc/lv_assert.h"
  14:..\..\..\arduinoLCD\test\Pain Drain\libraries\lvgl\src\widgets/lv_img.c **** #include "../draw/lv_img_decoder.h"
  15:..\..\..\arduinoLCD\test\Pain Drain\libraries\lvgl\src\widgets/lv_img.c **** #include "../misc/lv_fs.h"
  16:..\..\..\arduinoLCD\test\Pain Drain\libraries\lvgl\src\widgets/lv_img.c **** #include "../misc/lv_txt.h"
  17:..\..\..\arduinoLCD\test\Pain Drain\libraries\lvgl\src\widgets/lv_img.c **** #include "../misc/lv_math.h"
  18:..\..\..\arduinoLCD\test\Pain Drain\libraries\lvgl\src\widgets/lv_img.c **** #include "../misc/lv_log.h"
  19:..\..\..\arduinoLCD\test\Pain Drain\libraries\lvgl\src\widgets/lv_img.c **** 
  20:..\..\..\arduinoLCD\test\Pain Drain\libraries\lvgl\src\widgets/lv_img.c **** /*********************
  21:..\..\..\arduinoLCD\test\Pain Drain\libraries\lvgl\src\widgets/lv_img.c ****  *      DEFINES
  22:..\..\..\arduinoLCD\test\Pain Drain\libraries\lvgl\src\widgets/lv_img.c ****  *********************/
  23:..\..\..\arduinoLCD\test\Pain Drain\libraries\lvgl\src\widgets/lv_img.c **** #define MY_CLASS &lv_img_class
  24:..\..\..\arduinoLCD\test\Pain Drain\libraries\lvgl\src\widgets/lv_img.c **** 
  25:..\..\..\arduinoLCD\test\Pain Drain\libraries\lvgl\src\widgets/lv_img.c **** /**********************
  26:..\..\..\arduinoLCD\test\Pain Drain\libraries\lvgl\src\widgets/lv_img.c ****  *      TYPEDEFS
  27:..\..\..\arduinoLCD\test\Pain Drain\libraries\lvgl\src\widgets/lv_img.c ****  **********************/
  28:..\..\..\arduinoLCD\test\Pain Drain\libraries\lvgl\src\widgets/lv_img.c **** 
  29:..\..\..\arduinoLCD\test\Pain Drain\libraries\lvgl\src\widgets/lv_img.c **** /**********************
  30:..\..\..\arduinoLCD\test\Pain Drain\libraries\lvgl\src\widgets/lv_img.c ****  *  STATIC PROTOTYPES
  31:..\..\..\arduinoLCD\test\Pain Drain\libraries\lvgl\src\widgets/lv_img.c ****  **********************/
ARM GAS  C:\Users\haske\AppData\Local\Temp\ccGWO5DZ.s 			page 2


  32:..\..\..\arduinoLCD\test\Pain Drain\libraries\lvgl\src\widgets/lv_img.c **** static void lv_img_constructor(const lv_obj_class_t * class_p, lv_obj_t * obj);
  33:..\..\..\arduinoLCD\test\Pain Drain\libraries\lvgl\src\widgets/lv_img.c **** static void lv_img_destructor(const lv_obj_class_t * class_p, lv_obj_t * obj);
  34:..\..\..\arduinoLCD\test\Pain Drain\libraries\lvgl\src\widgets/lv_img.c **** static void lv_img_event(const lv_obj_class_t * class_p, lv_event_t * e);
  35:..\..\..\arduinoLCD\test\Pain Drain\libraries\lvgl\src\widgets/lv_img.c **** static void draw_img(lv_event_t * e);
  36:..\..\..\arduinoLCD\test\Pain Drain\libraries\lvgl\src\widgets/lv_img.c **** 
  37:..\..\..\arduinoLCD\test\Pain Drain\libraries\lvgl\src\widgets/lv_img.c **** /**********************
  38:..\..\..\arduinoLCD\test\Pain Drain\libraries\lvgl\src\widgets/lv_img.c ****  *  STATIC VARIABLES
  39:..\..\..\arduinoLCD\test\Pain Drain\libraries\lvgl\src\widgets/lv_img.c ****  **********************/
  40:..\..\..\arduinoLCD\test\Pain Drain\libraries\lvgl\src\widgets/lv_img.c **** const lv_obj_class_t lv_img_class = {
  41:..\..\..\arduinoLCD\test\Pain Drain\libraries\lvgl\src\widgets/lv_img.c ****     .constructor_cb = lv_img_constructor,
  42:..\..\..\arduinoLCD\test\Pain Drain\libraries\lvgl\src\widgets/lv_img.c ****     .destructor_cb = lv_img_destructor,
  43:..\..\..\arduinoLCD\test\Pain Drain\libraries\lvgl\src\widgets/lv_img.c ****     .event_cb = lv_img_event,
  44:..\..\..\arduinoLCD\test\Pain Drain\libraries\lvgl\src\widgets/lv_img.c ****     .width_def = LV_SIZE_CONTENT,
  45:..\..\..\arduinoLCD\test\Pain Drain\libraries\lvgl\src\widgets/lv_img.c ****     .height_def = LV_SIZE_CONTENT,
  46:..\..\..\arduinoLCD\test\Pain Drain\libraries\lvgl\src\widgets/lv_img.c ****     .instance_size = sizeof(lv_img_t),
  47:..\..\..\arduinoLCD\test\Pain Drain\libraries\lvgl\src\widgets/lv_img.c ****     .base_class = &lv_obj_class
  48:..\..\..\arduinoLCD\test\Pain Drain\libraries\lvgl\src\widgets/lv_img.c **** };
  49:..\..\..\arduinoLCD\test\Pain Drain\libraries\lvgl\src\widgets/lv_img.c **** 
  50:..\..\..\arduinoLCD\test\Pain Drain\libraries\lvgl\src\widgets/lv_img.c **** /**********************
  51:..\..\..\arduinoLCD\test\Pain Drain\libraries\lvgl\src\widgets/lv_img.c ****  *      MACROS
  52:..\..\..\arduinoLCD\test\Pain Drain\libraries\lvgl\src\widgets/lv_img.c ****  **********************/
  53:..\..\..\arduinoLCD\test\Pain Drain\libraries\lvgl\src\widgets/lv_img.c **** 
  54:..\..\..\arduinoLCD\test\Pain Drain\libraries\lvgl\src\widgets/lv_img.c **** /**********************
  55:..\..\..\arduinoLCD\test\Pain Drain\libraries\lvgl\src\widgets/lv_img.c ****  *   GLOBAL FUNCTIONS
  56:..\..\..\arduinoLCD\test\Pain Drain\libraries\lvgl\src\widgets/lv_img.c ****  **********************/
  57:..\..\..\arduinoLCD\test\Pain Drain\libraries\lvgl\src\widgets/lv_img.c **** 
  58:..\..\..\arduinoLCD\test\Pain Drain\libraries\lvgl\src\widgets/lv_img.c **** lv_obj_t * lv_img_create(lv_obj_t * parent)
  59:..\..\..\arduinoLCD\test\Pain Drain\libraries\lvgl\src\widgets/lv_img.c **** {
  60:..\..\..\arduinoLCD\test\Pain Drain\libraries\lvgl\src\widgets/lv_img.c ****     LV_LOG_INFO("begin");
  61:..\..\..\arduinoLCD\test\Pain Drain\libraries\lvgl\src\widgets/lv_img.c ****     lv_obj_t * obj = lv_obj_class_create_obj(MY_CLASS, parent);
  62:..\..\..\arduinoLCD\test\Pain Drain\libraries\lvgl\src\widgets/lv_img.c ****     lv_obj_class_init_obj(obj);
  63:..\..\..\arduinoLCD\test\Pain Drain\libraries\lvgl\src\widgets/lv_img.c ****     return obj;
  64:..\..\..\arduinoLCD\test\Pain Drain\libraries\lvgl\src\widgets/lv_img.c **** }
  65:..\..\..\arduinoLCD\test\Pain Drain\libraries\lvgl\src\widgets/lv_img.c **** 
  66:..\..\..\arduinoLCD\test\Pain Drain\libraries\lvgl\src\widgets/lv_img.c **** /*=====================
  67:..\..\..\arduinoLCD\test\Pain Drain\libraries\lvgl\src\widgets/lv_img.c ****  * Setter functions
  68:..\..\..\arduinoLCD\test\Pain Drain\libraries\lvgl\src\widgets/lv_img.c ****  *====================*/
  69:..\..\..\arduinoLCD\test\Pain Drain\libraries\lvgl\src\widgets/lv_img.c **** 
  70:..\..\..\arduinoLCD\test\Pain Drain\libraries\lvgl\src\widgets/lv_img.c **** void lv_img_set_src(lv_obj_t * obj, const void * src)
  71:..\..\..\arduinoLCD\test\Pain Drain\libraries\lvgl\src\widgets/lv_img.c **** {
  72:..\..\..\arduinoLCD\test\Pain Drain\libraries\lvgl\src\widgets/lv_img.c ****     LV_ASSERT_OBJ(obj, MY_CLASS);
  73:..\..\..\arduinoLCD\test\Pain Drain\libraries\lvgl\src\widgets/lv_img.c **** 
  74:..\..\..\arduinoLCD\test\Pain Drain\libraries\lvgl\src\widgets/lv_img.c ****     lv_obj_invalidate(obj);
  75:..\..\..\arduinoLCD\test\Pain Drain\libraries\lvgl\src\widgets/lv_img.c **** 
  76:..\..\..\arduinoLCD\test\Pain Drain\libraries\lvgl\src\widgets/lv_img.c ****     lv_img_src_t src_type = lv_img_src_get_type(src);
  77:..\..\..\arduinoLCD\test\Pain Drain\libraries\lvgl\src\widgets/lv_img.c ****     lv_img_t * img = (lv_img_t *)obj;
  78:..\..\..\arduinoLCD\test\Pain Drain\libraries\lvgl\src\widgets/lv_img.c **** 
  79:..\..\..\arduinoLCD\test\Pain Drain\libraries\lvgl\src\widgets/lv_img.c **** #if LV_USE_LOG && LV_LOG_LEVEL >= LV_LOG_LEVEL_INFO
  80:..\..\..\arduinoLCD\test\Pain Drain\libraries\lvgl\src\widgets/lv_img.c ****     switch(src_type) {
  81:..\..\..\arduinoLCD\test\Pain Drain\libraries\lvgl\src\widgets/lv_img.c ****         case LV_IMG_SRC_FILE:
  82:..\..\..\arduinoLCD\test\Pain Drain\libraries\lvgl\src\widgets/lv_img.c ****             LV_LOG_TRACE("lv_img_set_src: `LV_IMG_SRC_FILE` type found");
  83:..\..\..\arduinoLCD\test\Pain Drain\libraries\lvgl\src\widgets/lv_img.c ****             break;
  84:..\..\..\arduinoLCD\test\Pain Drain\libraries\lvgl\src\widgets/lv_img.c ****         case LV_IMG_SRC_VARIABLE:
  85:..\..\..\arduinoLCD\test\Pain Drain\libraries\lvgl\src\widgets/lv_img.c ****             LV_LOG_TRACE("lv_img_set_src: `LV_IMG_SRC_VARIABLE` type found");
  86:..\..\..\arduinoLCD\test\Pain Drain\libraries\lvgl\src\widgets/lv_img.c ****             break;
  87:..\..\..\arduinoLCD\test\Pain Drain\libraries\lvgl\src\widgets/lv_img.c ****         case LV_IMG_SRC_SYMBOL:
  88:..\..\..\arduinoLCD\test\Pain Drain\libraries\lvgl\src\widgets/lv_img.c ****             LV_LOG_TRACE("lv_img_set_src: `LV_IMG_SRC_SYMBOL` type found");
ARM GAS  C:\Users\haske\AppData\Local\Temp\ccGWO5DZ.s 			page 3


  89:..\..\..\arduinoLCD\test\Pain Drain\libraries\lvgl\src\widgets/lv_img.c ****             break;
  90:..\..\..\arduinoLCD\test\Pain Drain\libraries\lvgl\src\widgets/lv_img.c ****         default:
  91:..\..\..\arduinoLCD\test\Pain Drain\libraries\lvgl\src\widgets/lv_img.c ****             LV_LOG_WARN("lv_img_set_src: unknown type");
  92:..\..\..\arduinoLCD\test\Pain Drain\libraries\lvgl\src\widgets/lv_img.c ****     }
  93:..\..\..\arduinoLCD\test\Pain Drain\libraries\lvgl\src\widgets/lv_img.c **** #endif
  94:..\..\..\arduinoLCD\test\Pain Drain\libraries\lvgl\src\widgets/lv_img.c **** 
  95:..\..\..\arduinoLCD\test\Pain Drain\libraries\lvgl\src\widgets/lv_img.c ****     /*If the new source type is unknown free the memories of the old source*/
  96:..\..\..\arduinoLCD\test\Pain Drain\libraries\lvgl\src\widgets/lv_img.c ****     if(src_type == LV_IMG_SRC_UNKNOWN) {
  97:..\..\..\arduinoLCD\test\Pain Drain\libraries\lvgl\src\widgets/lv_img.c ****         LV_LOG_WARN("lv_img_set_src: unknown image type");
  98:..\..\..\arduinoLCD\test\Pain Drain\libraries\lvgl\src\widgets/lv_img.c ****         if(img->src_type == LV_IMG_SRC_SYMBOL || img->src_type == LV_IMG_SRC_FILE) {
  99:..\..\..\arduinoLCD\test\Pain Drain\libraries\lvgl\src\widgets/lv_img.c ****             lv_mem_free((void *)img->src);
 100:..\..\..\arduinoLCD\test\Pain Drain\libraries\lvgl\src\widgets/lv_img.c ****         }
 101:..\..\..\arduinoLCD\test\Pain Drain\libraries\lvgl\src\widgets/lv_img.c ****         img->src      = NULL;
 102:..\..\..\arduinoLCD\test\Pain Drain\libraries\lvgl\src\widgets/lv_img.c ****         img->src_type = LV_IMG_SRC_UNKNOWN;
 103:..\..\..\arduinoLCD\test\Pain Drain\libraries\lvgl\src\widgets/lv_img.c ****         return;
 104:..\..\..\arduinoLCD\test\Pain Drain\libraries\lvgl\src\widgets/lv_img.c ****     }
 105:..\..\..\arduinoLCD\test\Pain Drain\libraries\lvgl\src\widgets/lv_img.c **** 
 106:..\..\..\arduinoLCD\test\Pain Drain\libraries\lvgl\src\widgets/lv_img.c ****     lv_img_header_t header;
 107:..\..\..\arduinoLCD\test\Pain Drain\libraries\lvgl\src\widgets/lv_img.c ****     lv_img_decoder_get_info(src, &header);
 108:..\..\..\arduinoLCD\test\Pain Drain\libraries\lvgl\src\widgets/lv_img.c **** 
 109:..\..\..\arduinoLCD\test\Pain Drain\libraries\lvgl\src\widgets/lv_img.c ****     /*Save the source*/
 110:..\..\..\arduinoLCD\test\Pain Drain\libraries\lvgl\src\widgets/lv_img.c ****     if(src_type == LV_IMG_SRC_VARIABLE) {
 111:..\..\..\arduinoLCD\test\Pain Drain\libraries\lvgl\src\widgets/lv_img.c ****         /*If memory was allocated because of the previous `src_type` then free it*/
 112:..\..\..\arduinoLCD\test\Pain Drain\libraries\lvgl\src\widgets/lv_img.c ****         if(img->src_type == LV_IMG_SRC_FILE || img->src_type == LV_IMG_SRC_SYMBOL) {
 113:..\..\..\arduinoLCD\test\Pain Drain\libraries\lvgl\src\widgets/lv_img.c ****             lv_mem_free((void *)img->src);
 114:..\..\..\arduinoLCD\test\Pain Drain\libraries\lvgl\src\widgets/lv_img.c ****         }
 115:..\..\..\arduinoLCD\test\Pain Drain\libraries\lvgl\src\widgets/lv_img.c ****         img->src = src;
 116:..\..\..\arduinoLCD\test\Pain Drain\libraries\lvgl\src\widgets/lv_img.c ****     }
 117:..\..\..\arduinoLCD\test\Pain Drain\libraries\lvgl\src\widgets/lv_img.c ****     else if(src_type == LV_IMG_SRC_FILE || src_type == LV_IMG_SRC_SYMBOL) {
 118:..\..\..\arduinoLCD\test\Pain Drain\libraries\lvgl\src\widgets/lv_img.c ****         /*If the new and the old src are the same then it was only a refresh.*/
 119:..\..\..\arduinoLCD\test\Pain Drain\libraries\lvgl\src\widgets/lv_img.c ****         if(img->src != src) {
 120:..\..\..\arduinoLCD\test\Pain Drain\libraries\lvgl\src\widgets/lv_img.c ****             const void * old_src = NULL;
 121:..\..\..\arduinoLCD\test\Pain Drain\libraries\lvgl\src\widgets/lv_img.c ****             /*If memory was allocated because of the previous `src_type` then save its pointer and 
 122:..\..\..\arduinoLCD\test\Pain Drain\libraries\lvgl\src\widgets/lv_img.c ****              *It's important to allocate first to be sure the new data will be on a new address.
 123:..\..\..\arduinoLCD\test\Pain Drain\libraries\lvgl\src\widgets/lv_img.c ****              *Else `img_cache` wouldn't see the change in source.*/
 124:..\..\..\arduinoLCD\test\Pain Drain\libraries\lvgl\src\widgets/lv_img.c ****             if(img->src_type == LV_IMG_SRC_FILE || img->src_type == LV_IMG_SRC_SYMBOL) {
 125:..\..\..\arduinoLCD\test\Pain Drain\libraries\lvgl\src\widgets/lv_img.c ****                 old_src = img->src;
 126:..\..\..\arduinoLCD\test\Pain Drain\libraries\lvgl\src\widgets/lv_img.c ****             }
 127:..\..\..\arduinoLCD\test\Pain Drain\libraries\lvgl\src\widgets/lv_img.c ****             char * new_str = lv_mem_alloc(strlen(src) + 1);
 128:..\..\..\arduinoLCD\test\Pain Drain\libraries\lvgl\src\widgets/lv_img.c ****             LV_ASSERT_MALLOC(new_str);
 129:..\..\..\arduinoLCD\test\Pain Drain\libraries\lvgl\src\widgets/lv_img.c ****             if(new_str == NULL) return;
 130:..\..\..\arduinoLCD\test\Pain Drain\libraries\lvgl\src\widgets/lv_img.c ****             strcpy(new_str, src);
 131:..\..\..\arduinoLCD\test\Pain Drain\libraries\lvgl\src\widgets/lv_img.c ****             img->src = new_str;
 132:..\..\..\arduinoLCD\test\Pain Drain\libraries\lvgl\src\widgets/lv_img.c **** 
 133:..\..\..\arduinoLCD\test\Pain Drain\libraries\lvgl\src\widgets/lv_img.c ****             if(old_src) lv_mem_free((void *)old_src);
 134:..\..\..\arduinoLCD\test\Pain Drain\libraries\lvgl\src\widgets/lv_img.c ****         }
 135:..\..\..\arduinoLCD\test\Pain Drain\libraries\lvgl\src\widgets/lv_img.c ****     }
 136:..\..\..\arduinoLCD\test\Pain Drain\libraries\lvgl\src\widgets/lv_img.c **** 
 137:..\..\..\arduinoLCD\test\Pain Drain\libraries\lvgl\src\widgets/lv_img.c ****     if(src_type == LV_IMG_SRC_SYMBOL) {
 138:..\..\..\arduinoLCD\test\Pain Drain\libraries\lvgl\src\widgets/lv_img.c ****         /*`lv_img_dsc_get_info` couldn't set the width and height of a font so set it here*/
 139:..\..\..\arduinoLCD\test\Pain Drain\libraries\lvgl\src\widgets/lv_img.c ****         const lv_font_t * font = lv_obj_get_style_text_font(obj, LV_PART_MAIN);
 140:..\..\..\arduinoLCD\test\Pain Drain\libraries\lvgl\src\widgets/lv_img.c ****         lv_coord_t letter_space = lv_obj_get_style_text_letter_space(obj, LV_PART_MAIN);
 141:..\..\..\arduinoLCD\test\Pain Drain\libraries\lvgl\src\widgets/lv_img.c ****         lv_coord_t line_space = lv_obj_get_style_text_line_space(obj, LV_PART_MAIN);
 142:..\..\..\arduinoLCD\test\Pain Drain\libraries\lvgl\src\widgets/lv_img.c ****         lv_point_t size;
 143:..\..\..\arduinoLCD\test\Pain Drain\libraries\lvgl\src\widgets/lv_img.c ****         lv_txt_get_size(&size, src, font, letter_space, line_space, LV_COORD_MAX, LV_TEXT_FLAG_NONE
 144:..\..\..\arduinoLCD\test\Pain Drain\libraries\lvgl\src\widgets/lv_img.c ****         header.w = size.x;
 145:..\..\..\arduinoLCD\test\Pain Drain\libraries\lvgl\src\widgets/lv_img.c ****         header.h = size.y;
ARM GAS  C:\Users\haske\AppData\Local\Temp\ccGWO5DZ.s 			page 4


 146:..\..\..\arduinoLCD\test\Pain Drain\libraries\lvgl\src\widgets/lv_img.c ****     }
 147:..\..\..\arduinoLCD\test\Pain Drain\libraries\lvgl\src\widgets/lv_img.c **** 
 148:..\..\..\arduinoLCD\test\Pain Drain\libraries\lvgl\src\widgets/lv_img.c ****     img->src_type = src_type;
 149:..\..\..\arduinoLCD\test\Pain Drain\libraries\lvgl\src\widgets/lv_img.c ****     img->w        = header.w;
 150:..\..\..\arduinoLCD\test\Pain Drain\libraries\lvgl\src\widgets/lv_img.c ****     img->h        = header.h;
 151:..\..\..\arduinoLCD\test\Pain Drain\libraries\lvgl\src\widgets/lv_img.c ****     img->cf       = header.cf;
 152:..\..\..\arduinoLCD\test\Pain Drain\libraries\lvgl\src\widgets/lv_img.c ****     img->pivot.x = header.w / 2;
 153:..\..\..\arduinoLCD\test\Pain Drain\libraries\lvgl\src\widgets/lv_img.c ****     img->pivot.y = header.h / 2;
 154:..\..\..\arduinoLCD\test\Pain Drain\libraries\lvgl\src\widgets/lv_img.c **** 
 155:..\..\..\arduinoLCD\test\Pain Drain\libraries\lvgl\src\widgets/lv_img.c ****     lv_obj_refresh_self_size(obj);
 156:..\..\..\arduinoLCD\test\Pain Drain\libraries\lvgl\src\widgets/lv_img.c **** 
 157:..\..\..\arduinoLCD\test\Pain Drain\libraries\lvgl\src\widgets/lv_img.c ****     /*Provide enough room for the rotated corners*/
 158:..\..\..\arduinoLCD\test\Pain Drain\libraries\lvgl\src\widgets/lv_img.c ****     if(img->angle || img->zoom != LV_IMG_ZOOM_NONE) lv_obj_refresh_ext_draw_size(obj);
 159:..\..\..\arduinoLCD\test\Pain Drain\libraries\lvgl\src\widgets/lv_img.c **** 
 160:..\..\..\arduinoLCD\test\Pain Drain\libraries\lvgl\src\widgets/lv_img.c ****     lv_obj_invalidate(obj);
 161:..\..\..\arduinoLCD\test\Pain Drain\libraries\lvgl\src\widgets/lv_img.c **** }
 162:..\..\..\arduinoLCD\test\Pain Drain\libraries\lvgl\src\widgets/lv_img.c **** 
 163:..\..\..\arduinoLCD\test\Pain Drain\libraries\lvgl\src\widgets/lv_img.c **** void lv_img_set_offset_x(lv_obj_t * obj, lv_coord_t x)
 164:..\..\..\arduinoLCD\test\Pain Drain\libraries\lvgl\src\widgets/lv_img.c **** {
 165:..\..\..\arduinoLCD\test\Pain Drain\libraries\lvgl\src\widgets/lv_img.c ****     LV_ASSERT_OBJ(obj, MY_CLASS);
 166:..\..\..\arduinoLCD\test\Pain Drain\libraries\lvgl\src\widgets/lv_img.c **** 
 167:..\..\..\arduinoLCD\test\Pain Drain\libraries\lvgl\src\widgets/lv_img.c ****     lv_img_t * img = (lv_img_t *)obj;
 168:..\..\..\arduinoLCD\test\Pain Drain\libraries\lvgl\src\widgets/lv_img.c **** 
 169:..\..\..\arduinoLCD\test\Pain Drain\libraries\lvgl\src\widgets/lv_img.c ****     img->offset.x = x;
 170:..\..\..\arduinoLCD\test\Pain Drain\libraries\lvgl\src\widgets/lv_img.c ****     lv_obj_invalidate(obj);
 171:..\..\..\arduinoLCD\test\Pain Drain\libraries\lvgl\src\widgets/lv_img.c **** }
 172:..\..\..\arduinoLCD\test\Pain Drain\libraries\lvgl\src\widgets/lv_img.c **** 
 173:..\..\..\arduinoLCD\test\Pain Drain\libraries\lvgl\src\widgets/lv_img.c **** void lv_img_set_offset_y(lv_obj_t * obj, lv_coord_t y)
 174:..\..\..\arduinoLCD\test\Pain Drain\libraries\lvgl\src\widgets/lv_img.c **** {
 175:..\..\..\arduinoLCD\test\Pain Drain\libraries\lvgl\src\widgets/lv_img.c ****     LV_ASSERT_OBJ(obj, MY_CLASS);
 176:..\..\..\arduinoLCD\test\Pain Drain\libraries\lvgl\src\widgets/lv_img.c **** 
 177:..\..\..\arduinoLCD\test\Pain Drain\libraries\lvgl\src\widgets/lv_img.c ****     lv_img_t * img = (lv_img_t *)obj;
 178:..\..\..\arduinoLCD\test\Pain Drain\libraries\lvgl\src\widgets/lv_img.c **** 
 179:..\..\..\arduinoLCD\test\Pain Drain\libraries\lvgl\src\widgets/lv_img.c ****     img->offset.y = y;
 180:..\..\..\arduinoLCD\test\Pain Drain\libraries\lvgl\src\widgets/lv_img.c ****     lv_obj_invalidate(obj);
 181:..\..\..\arduinoLCD\test\Pain Drain\libraries\lvgl\src\widgets/lv_img.c **** }
 182:..\..\..\arduinoLCD\test\Pain Drain\libraries\lvgl\src\widgets/lv_img.c **** 
 183:..\..\..\arduinoLCD\test\Pain Drain\libraries\lvgl\src\widgets/lv_img.c **** void lv_img_set_angle(lv_obj_t * obj, int16_t angle)
 184:..\..\..\arduinoLCD\test\Pain Drain\libraries\lvgl\src\widgets/lv_img.c **** {
 185:..\..\..\arduinoLCD\test\Pain Drain\libraries\lvgl\src\widgets/lv_img.c ****     while(angle >= 3600) angle -= 3600;
 186:..\..\..\arduinoLCD\test\Pain Drain\libraries\lvgl\src\widgets/lv_img.c ****     while(angle < 0) angle += 3600;
 187:..\..\..\arduinoLCD\test\Pain Drain\libraries\lvgl\src\widgets/lv_img.c **** 
 188:..\..\..\arduinoLCD\test\Pain Drain\libraries\lvgl\src\widgets/lv_img.c ****     lv_img_t * img = (lv_img_t *)obj;
 189:..\..\..\arduinoLCD\test\Pain Drain\libraries\lvgl\src\widgets/lv_img.c ****     if(angle == img->angle) return;
 190:..\..\..\arduinoLCD\test\Pain Drain\libraries\lvgl\src\widgets/lv_img.c **** 
 191:..\..\..\arduinoLCD\test\Pain Drain\libraries\lvgl\src\widgets/lv_img.c ****     lv_obj_update_layout(obj);  /*Be sure the object's size is calculated*/
 192:..\..\..\arduinoLCD\test\Pain Drain\libraries\lvgl\src\widgets/lv_img.c ****     lv_coord_t w = lv_obj_get_width(obj);
 193:..\..\..\arduinoLCD\test\Pain Drain\libraries\lvgl\src\widgets/lv_img.c ****     lv_coord_t h = lv_obj_get_height(obj);
 194:..\..\..\arduinoLCD\test\Pain Drain\libraries\lvgl\src\widgets/lv_img.c ****     lv_area_t a;
 195:..\..\..\arduinoLCD\test\Pain Drain\libraries\lvgl\src\widgets/lv_img.c ****     _lv_img_buf_get_transformed_area(&a, w, h, img->angle, img->zoom, &img->pivot);
 196:..\..\..\arduinoLCD\test\Pain Drain\libraries\lvgl\src\widgets/lv_img.c ****     a.x1 += obj->coords.x1;
 197:..\..\..\arduinoLCD\test\Pain Drain\libraries\lvgl\src\widgets/lv_img.c ****     a.y1 += obj->coords.y1;
 198:..\..\..\arduinoLCD\test\Pain Drain\libraries\lvgl\src\widgets/lv_img.c ****     a.x2 += obj->coords.x1;
 199:..\..\..\arduinoLCD\test\Pain Drain\libraries\lvgl\src\widgets/lv_img.c ****     a.y2 += obj->coords.y1;
 200:..\..\..\arduinoLCD\test\Pain Drain\libraries\lvgl\src\widgets/lv_img.c ****     lv_obj_invalidate_area(obj, &a);
 201:..\..\..\arduinoLCD\test\Pain Drain\libraries\lvgl\src\widgets/lv_img.c **** 
 202:..\..\..\arduinoLCD\test\Pain Drain\libraries\lvgl\src\widgets/lv_img.c ****     img->angle = angle;
ARM GAS  C:\Users\haske\AppData\Local\Temp\ccGWO5DZ.s 			page 5


 203:..\..\..\arduinoLCD\test\Pain Drain\libraries\lvgl\src\widgets/lv_img.c **** 
 204:..\..\..\arduinoLCD\test\Pain Drain\libraries\lvgl\src\widgets/lv_img.c ****     /* Disable invalidations because lv_obj_refresh_ext_draw_size would invalidate
 205:..\..\..\arduinoLCD\test\Pain Drain\libraries\lvgl\src\widgets/lv_img.c ****      * the whole ext draw area */
 206:..\..\..\arduinoLCD\test\Pain Drain\libraries\lvgl\src\widgets/lv_img.c ****     lv_disp_t * disp = lv_obj_get_disp(obj);
 207:..\..\..\arduinoLCD\test\Pain Drain\libraries\lvgl\src\widgets/lv_img.c ****     lv_disp_enable_invalidation(disp, false);
 208:..\..\..\arduinoLCD\test\Pain Drain\libraries\lvgl\src\widgets/lv_img.c ****     lv_obj_refresh_ext_draw_size(obj);
 209:..\..\..\arduinoLCD\test\Pain Drain\libraries\lvgl\src\widgets/lv_img.c ****     lv_disp_enable_invalidation(disp, true);
 210:..\..\..\arduinoLCD\test\Pain Drain\libraries\lvgl\src\widgets/lv_img.c **** 
 211:..\..\..\arduinoLCD\test\Pain Drain\libraries\lvgl\src\widgets/lv_img.c ****     _lv_img_buf_get_transformed_area(&a, w, h, img->angle, img->zoom, &img->pivot);
 212:..\..\..\arduinoLCD\test\Pain Drain\libraries\lvgl\src\widgets/lv_img.c ****     a.x1 += obj->coords.x1;
 213:..\..\..\arduinoLCD\test\Pain Drain\libraries\lvgl\src\widgets/lv_img.c ****     a.y1 += obj->coords.y1;
 214:..\..\..\arduinoLCD\test\Pain Drain\libraries\lvgl\src\widgets/lv_img.c ****     a.x2 += obj->coords.x1;
 215:..\..\..\arduinoLCD\test\Pain Drain\libraries\lvgl\src\widgets/lv_img.c ****     a.y2 += obj->coords.y1;
 216:..\..\..\arduinoLCD\test\Pain Drain\libraries\lvgl\src\widgets/lv_img.c ****     lv_obj_invalidate_area(obj, &a);
 217:..\..\..\arduinoLCD\test\Pain Drain\libraries\lvgl\src\widgets/lv_img.c **** }
 218:..\..\..\arduinoLCD\test\Pain Drain\libraries\lvgl\src\widgets/lv_img.c **** 
 219:..\..\..\arduinoLCD\test\Pain Drain\libraries\lvgl\src\widgets/lv_img.c **** void lv_img_set_pivot(lv_obj_t * obj, lv_coord_t x, lv_coord_t y)
 220:..\..\..\arduinoLCD\test\Pain Drain\libraries\lvgl\src\widgets/lv_img.c **** {
 221:..\..\..\arduinoLCD\test\Pain Drain\libraries\lvgl\src\widgets/lv_img.c ****     lv_img_t * img = (lv_img_t *)obj;
 222:..\..\..\arduinoLCD\test\Pain Drain\libraries\lvgl\src\widgets/lv_img.c ****     if(img->pivot.x == x && img->pivot.y == y) return;
 223:..\..\..\arduinoLCD\test\Pain Drain\libraries\lvgl\src\widgets/lv_img.c **** 
 224:..\..\..\arduinoLCD\test\Pain Drain\libraries\lvgl\src\widgets/lv_img.c ****     lv_obj_update_layout(obj);  /*Be sure the object's size is calculated*/
 225:..\..\..\arduinoLCD\test\Pain Drain\libraries\lvgl\src\widgets/lv_img.c ****     lv_coord_t w = lv_obj_get_width(obj);
 226:..\..\..\arduinoLCD\test\Pain Drain\libraries\lvgl\src\widgets/lv_img.c ****     lv_coord_t h = lv_obj_get_height(obj);
 227:..\..\..\arduinoLCD\test\Pain Drain\libraries\lvgl\src\widgets/lv_img.c ****     lv_area_t a;
 228:..\..\..\arduinoLCD\test\Pain Drain\libraries\lvgl\src\widgets/lv_img.c ****     _lv_img_buf_get_transformed_area(&a, w, h, img->angle, img->zoom, &img->pivot);
 229:..\..\..\arduinoLCD\test\Pain Drain\libraries\lvgl\src\widgets/lv_img.c ****     a.x1 += obj->coords.x1;
 230:..\..\..\arduinoLCD\test\Pain Drain\libraries\lvgl\src\widgets/lv_img.c ****     a.y1 += obj->coords.y1;
 231:..\..\..\arduinoLCD\test\Pain Drain\libraries\lvgl\src\widgets/lv_img.c ****     a.x2 += obj->coords.x1;
 232:..\..\..\arduinoLCD\test\Pain Drain\libraries\lvgl\src\widgets/lv_img.c ****     a.y2 += obj->coords.y1;
 233:..\..\..\arduinoLCD\test\Pain Drain\libraries\lvgl\src\widgets/lv_img.c ****     lv_obj_invalidate_area(obj, &a);
 234:..\..\..\arduinoLCD\test\Pain Drain\libraries\lvgl\src\widgets/lv_img.c **** 
 235:..\..\..\arduinoLCD\test\Pain Drain\libraries\lvgl\src\widgets/lv_img.c ****     img->pivot.x = x;
 236:..\..\..\arduinoLCD\test\Pain Drain\libraries\lvgl\src\widgets/lv_img.c ****     img->pivot.y = y;
 237:..\..\..\arduinoLCD\test\Pain Drain\libraries\lvgl\src\widgets/lv_img.c **** 
 238:..\..\..\arduinoLCD\test\Pain Drain\libraries\lvgl\src\widgets/lv_img.c ****     /* Disable invalidations because lv_obj_refresh_ext_draw_size would invalidate
 239:..\..\..\arduinoLCD\test\Pain Drain\libraries\lvgl\src\widgets/lv_img.c ****      * the whole ext draw area */
 240:..\..\..\arduinoLCD\test\Pain Drain\libraries\lvgl\src\widgets/lv_img.c ****     lv_disp_t * disp = lv_obj_get_disp(obj);
 241:..\..\..\arduinoLCD\test\Pain Drain\libraries\lvgl\src\widgets/lv_img.c ****     lv_disp_enable_invalidation(disp, false);
 242:..\..\..\arduinoLCD\test\Pain Drain\libraries\lvgl\src\widgets/lv_img.c ****     lv_obj_refresh_ext_draw_size(obj);
 243:..\..\..\arduinoLCD\test\Pain Drain\libraries\lvgl\src\widgets/lv_img.c ****     lv_disp_enable_invalidation(disp, true);
 244:..\..\..\arduinoLCD\test\Pain Drain\libraries\lvgl\src\widgets/lv_img.c **** 
 245:..\..\..\arduinoLCD\test\Pain Drain\libraries\lvgl\src\widgets/lv_img.c ****     _lv_img_buf_get_transformed_area(&a, w, h, img->angle, img->zoom, &img->pivot);
 246:..\..\..\arduinoLCD\test\Pain Drain\libraries\lvgl\src\widgets/lv_img.c ****     a.x1 += obj->coords.x1;
 247:..\..\..\arduinoLCD\test\Pain Drain\libraries\lvgl\src\widgets/lv_img.c ****     a.y1 += obj->coords.y1;
 248:..\..\..\arduinoLCD\test\Pain Drain\libraries\lvgl\src\widgets/lv_img.c ****     a.x2 += obj->coords.x1;
 249:..\..\..\arduinoLCD\test\Pain Drain\libraries\lvgl\src\widgets/lv_img.c ****     a.y2 += obj->coords.y1;
 250:..\..\..\arduinoLCD\test\Pain Drain\libraries\lvgl\src\widgets/lv_img.c ****     lv_obj_invalidate_area(obj, &a);
 251:..\..\..\arduinoLCD\test\Pain Drain\libraries\lvgl\src\widgets/lv_img.c **** }
 252:..\..\..\arduinoLCD\test\Pain Drain\libraries\lvgl\src\widgets/lv_img.c **** 
 253:..\..\..\arduinoLCD\test\Pain Drain\libraries\lvgl\src\widgets/lv_img.c **** void lv_img_set_zoom(lv_obj_t * obj, uint16_t zoom)
 254:..\..\..\arduinoLCD\test\Pain Drain\libraries\lvgl\src\widgets/lv_img.c **** {
 255:..\..\..\arduinoLCD\test\Pain Drain\libraries\lvgl\src\widgets/lv_img.c ****     lv_img_t * img = (lv_img_t *)obj;
 256:..\..\..\arduinoLCD\test\Pain Drain\libraries\lvgl\src\widgets/lv_img.c ****     if(zoom == img->zoom) return;
 257:..\..\..\arduinoLCD\test\Pain Drain\libraries\lvgl\src\widgets/lv_img.c **** 
 258:..\..\..\arduinoLCD\test\Pain Drain\libraries\lvgl\src\widgets/lv_img.c ****     if(zoom == 0) zoom = 1;
 259:..\..\..\arduinoLCD\test\Pain Drain\libraries\lvgl\src\widgets/lv_img.c **** 
ARM GAS  C:\Users\haske\AppData\Local\Temp\ccGWO5DZ.s 			page 6


 260:..\..\..\arduinoLCD\test\Pain Drain\libraries\lvgl\src\widgets/lv_img.c ****     lv_obj_update_layout(obj);  /*Be sure the object's size is calculated*/
 261:..\..\..\arduinoLCD\test\Pain Drain\libraries\lvgl\src\widgets/lv_img.c ****     lv_coord_t w = lv_obj_get_width(obj);
 262:..\..\..\arduinoLCD\test\Pain Drain\libraries\lvgl\src\widgets/lv_img.c ****     lv_coord_t h = lv_obj_get_height(obj);
 263:..\..\..\arduinoLCD\test\Pain Drain\libraries\lvgl\src\widgets/lv_img.c ****     lv_area_t a;
 264:..\..\..\arduinoLCD\test\Pain Drain\libraries\lvgl\src\widgets/lv_img.c ****     _lv_img_buf_get_transformed_area(&a, w, h, img->angle, img->zoom >> 8, &img->pivot);
 265:..\..\..\arduinoLCD\test\Pain Drain\libraries\lvgl\src\widgets/lv_img.c ****     a.x1 += obj->coords.x1 - 1;
 266:..\..\..\arduinoLCD\test\Pain Drain\libraries\lvgl\src\widgets/lv_img.c ****     a.y1 += obj->coords.y1 - 1;
 267:..\..\..\arduinoLCD\test\Pain Drain\libraries\lvgl\src\widgets/lv_img.c ****     a.x2 += obj->coords.x1 + 1;
 268:..\..\..\arduinoLCD\test\Pain Drain\libraries\lvgl\src\widgets/lv_img.c ****     a.y2 += obj->coords.y1 + 1;
 269:..\..\..\arduinoLCD\test\Pain Drain\libraries\lvgl\src\widgets/lv_img.c ****     lv_obj_invalidate_area(obj, &a);
 270:..\..\..\arduinoLCD\test\Pain Drain\libraries\lvgl\src\widgets/lv_img.c **** 
 271:..\..\..\arduinoLCD\test\Pain Drain\libraries\lvgl\src\widgets/lv_img.c ****     img->zoom = zoom;
 272:..\..\..\arduinoLCD\test\Pain Drain\libraries\lvgl\src\widgets/lv_img.c **** 
 273:..\..\..\arduinoLCD\test\Pain Drain\libraries\lvgl\src\widgets/lv_img.c ****     /* Disable invalidations because lv_obj_refresh_ext_draw_size would invalidate
 274:..\..\..\arduinoLCD\test\Pain Drain\libraries\lvgl\src\widgets/lv_img.c ****      * the whole ext draw area */
 275:..\..\..\arduinoLCD\test\Pain Drain\libraries\lvgl\src\widgets/lv_img.c ****     lv_disp_t * disp = lv_obj_get_disp(obj);
 276:..\..\..\arduinoLCD\test\Pain Drain\libraries\lvgl\src\widgets/lv_img.c ****     lv_disp_enable_invalidation(disp, false);
 277:..\..\..\arduinoLCD\test\Pain Drain\libraries\lvgl\src\widgets/lv_img.c ****     lv_obj_refresh_ext_draw_size(obj);
 278:..\..\..\arduinoLCD\test\Pain Drain\libraries\lvgl\src\widgets/lv_img.c ****     lv_disp_enable_invalidation(disp, true);
 279:..\..\..\arduinoLCD\test\Pain Drain\libraries\lvgl\src\widgets/lv_img.c **** 
 280:..\..\..\arduinoLCD\test\Pain Drain\libraries\lvgl\src\widgets/lv_img.c ****     _lv_img_buf_get_transformed_area(&a, w, h, img->angle, img->zoom, &img->pivot);
 281:..\..\..\arduinoLCD\test\Pain Drain\libraries\lvgl\src\widgets/lv_img.c ****     a.x1 += obj->coords.x1 - 1;
 282:..\..\..\arduinoLCD\test\Pain Drain\libraries\lvgl\src\widgets/lv_img.c ****     a.y1 += obj->coords.y1 - 1;
 283:..\..\..\arduinoLCD\test\Pain Drain\libraries\lvgl\src\widgets/lv_img.c ****     a.x2 += obj->coords.x1 + 1;
 284:..\..\..\arduinoLCD\test\Pain Drain\libraries\lvgl\src\widgets/lv_img.c ****     a.y2 += obj->coords.y1 + 1;
 285:..\..\..\arduinoLCD\test\Pain Drain\libraries\lvgl\src\widgets/lv_img.c ****     lv_obj_invalidate_area(obj, &a);
 286:..\..\..\arduinoLCD\test\Pain Drain\libraries\lvgl\src\widgets/lv_img.c **** }
 287:..\..\..\arduinoLCD\test\Pain Drain\libraries\lvgl\src\widgets/lv_img.c **** 
 288:..\..\..\arduinoLCD\test\Pain Drain\libraries\lvgl\src\widgets/lv_img.c **** void lv_img_set_antialias(lv_obj_t * obj, bool antialias)
 289:..\..\..\arduinoLCD\test\Pain Drain\libraries\lvgl\src\widgets/lv_img.c **** {
 290:..\..\..\arduinoLCD\test\Pain Drain\libraries\lvgl\src\widgets/lv_img.c ****     lv_img_t * img = (lv_img_t *)obj;
 291:..\..\..\arduinoLCD\test\Pain Drain\libraries\lvgl\src\widgets/lv_img.c ****     if(antialias == img->antialias) return;
 292:..\..\..\arduinoLCD\test\Pain Drain\libraries\lvgl\src\widgets/lv_img.c **** 
 293:..\..\..\arduinoLCD\test\Pain Drain\libraries\lvgl\src\widgets/lv_img.c ****     img->antialias = antialias;
 294:..\..\..\arduinoLCD\test\Pain Drain\libraries\lvgl\src\widgets/lv_img.c ****     lv_obj_invalidate(obj);
 295:..\..\..\arduinoLCD\test\Pain Drain\libraries\lvgl\src\widgets/lv_img.c **** }
 296:..\..\..\arduinoLCD\test\Pain Drain\libraries\lvgl\src\widgets/lv_img.c **** 
 297:..\..\..\arduinoLCD\test\Pain Drain\libraries\lvgl\src\widgets/lv_img.c **** void lv_img_set_size_mode(lv_obj_t * obj, lv_img_size_mode_t mode)
 298:..\..\..\arduinoLCD\test\Pain Drain\libraries\lvgl\src\widgets/lv_img.c **** {
 299:..\..\..\arduinoLCD\test\Pain Drain\libraries\lvgl\src\widgets/lv_img.c ****     LV_ASSERT_OBJ(obj, MY_CLASS);
 300:..\..\..\arduinoLCD\test\Pain Drain\libraries\lvgl\src\widgets/lv_img.c ****     lv_img_t * img = (lv_img_t *)obj;
 301:..\..\..\arduinoLCD\test\Pain Drain\libraries\lvgl\src\widgets/lv_img.c ****     if(mode == img->obj_size_mode) return;
 302:..\..\..\arduinoLCD\test\Pain Drain\libraries\lvgl\src\widgets/lv_img.c **** 
 303:..\..\..\arduinoLCD\test\Pain Drain\libraries\lvgl\src\widgets/lv_img.c ****     img->obj_size_mode = mode;
 304:..\..\..\arduinoLCD\test\Pain Drain\libraries\lvgl\src\widgets/lv_img.c ****     lv_obj_invalidate(obj);
 305:..\..\..\arduinoLCD\test\Pain Drain\libraries\lvgl\src\widgets/lv_img.c **** }
 306:..\..\..\arduinoLCD\test\Pain Drain\libraries\lvgl\src\widgets/lv_img.c **** 
 307:..\..\..\arduinoLCD\test\Pain Drain\libraries\lvgl\src\widgets/lv_img.c **** /*=====================
 308:..\..\..\arduinoLCD\test\Pain Drain\libraries\lvgl\src\widgets/lv_img.c ****  * Getter functions
 309:..\..\..\arduinoLCD\test\Pain Drain\libraries\lvgl\src\widgets/lv_img.c ****  *====================*/
 310:..\..\..\arduinoLCD\test\Pain Drain\libraries\lvgl\src\widgets/lv_img.c **** 
 311:..\..\..\arduinoLCD\test\Pain Drain\libraries\lvgl\src\widgets/lv_img.c **** const void * lv_img_get_src(lv_obj_t * obj)
 312:..\..\..\arduinoLCD\test\Pain Drain\libraries\lvgl\src\widgets/lv_img.c **** {
 313:..\..\..\arduinoLCD\test\Pain Drain\libraries\lvgl\src\widgets/lv_img.c ****     LV_ASSERT_OBJ(obj, MY_CLASS);
 314:..\..\..\arduinoLCD\test\Pain Drain\libraries\lvgl\src\widgets/lv_img.c **** 
 315:..\..\..\arduinoLCD\test\Pain Drain\libraries\lvgl\src\widgets/lv_img.c ****     lv_img_t * img = (lv_img_t *)obj;
 316:..\..\..\arduinoLCD\test\Pain Drain\libraries\lvgl\src\widgets/lv_img.c **** 
ARM GAS  C:\Users\haske\AppData\Local\Temp\ccGWO5DZ.s 			page 7


 317:..\..\..\arduinoLCD\test\Pain Drain\libraries\lvgl\src\widgets/lv_img.c ****     return img->src;
 318:..\..\..\arduinoLCD\test\Pain Drain\libraries\lvgl\src\widgets/lv_img.c **** }
 319:..\..\..\arduinoLCD\test\Pain Drain\libraries\lvgl\src\widgets/lv_img.c **** 
 320:..\..\..\arduinoLCD\test\Pain Drain\libraries\lvgl\src\widgets/lv_img.c **** lv_coord_t lv_img_get_offset_x(lv_obj_t * obj)
 321:..\..\..\arduinoLCD\test\Pain Drain\libraries\lvgl\src\widgets/lv_img.c **** {
 322:..\..\..\arduinoLCD\test\Pain Drain\libraries\lvgl\src\widgets/lv_img.c ****     LV_ASSERT_OBJ(obj, MY_CLASS);
 323:..\..\..\arduinoLCD\test\Pain Drain\libraries\lvgl\src\widgets/lv_img.c **** 
 324:..\..\..\arduinoLCD\test\Pain Drain\libraries\lvgl\src\widgets/lv_img.c ****     lv_img_t * img = (lv_img_t *)obj;
 325:..\..\..\arduinoLCD\test\Pain Drain\libraries\lvgl\src\widgets/lv_img.c **** 
 326:..\..\..\arduinoLCD\test\Pain Drain\libraries\lvgl\src\widgets/lv_img.c ****     return img->offset.x;
 327:..\..\..\arduinoLCD\test\Pain Drain\libraries\lvgl\src\widgets/lv_img.c **** }
 328:..\..\..\arduinoLCD\test\Pain Drain\libraries\lvgl\src\widgets/lv_img.c **** 
 329:..\..\..\arduinoLCD\test\Pain Drain\libraries\lvgl\src\widgets/lv_img.c **** lv_coord_t lv_img_get_offset_y(lv_obj_t * obj)
 330:..\..\..\arduinoLCD\test\Pain Drain\libraries\lvgl\src\widgets/lv_img.c **** {
 331:..\..\..\arduinoLCD\test\Pain Drain\libraries\lvgl\src\widgets/lv_img.c ****     LV_ASSERT_OBJ(obj, MY_CLASS);
 332:..\..\..\arduinoLCD\test\Pain Drain\libraries\lvgl\src\widgets/lv_img.c **** 
 333:..\..\..\arduinoLCD\test\Pain Drain\libraries\lvgl\src\widgets/lv_img.c ****     lv_img_t * img = (lv_img_t *)obj;
 334:..\..\..\arduinoLCD\test\Pain Drain\libraries\lvgl\src\widgets/lv_img.c **** 
 335:..\..\..\arduinoLCD\test\Pain Drain\libraries\lvgl\src\widgets/lv_img.c ****     return img->offset.y;
 336:..\..\..\arduinoLCD\test\Pain Drain\libraries\lvgl\src\widgets/lv_img.c **** }
 337:..\..\..\arduinoLCD\test\Pain Drain\libraries\lvgl\src\widgets/lv_img.c **** 
 338:..\..\..\arduinoLCD\test\Pain Drain\libraries\lvgl\src\widgets/lv_img.c **** uint16_t lv_img_get_angle(lv_obj_t * obj)
 339:..\..\..\arduinoLCD\test\Pain Drain\libraries\lvgl\src\widgets/lv_img.c **** {
 340:..\..\..\arduinoLCD\test\Pain Drain\libraries\lvgl\src\widgets/lv_img.c ****     LV_ASSERT_OBJ(obj, MY_CLASS);
 341:..\..\..\arduinoLCD\test\Pain Drain\libraries\lvgl\src\widgets/lv_img.c **** 
 342:..\..\..\arduinoLCD\test\Pain Drain\libraries\lvgl\src\widgets/lv_img.c ****     lv_img_t * img = (lv_img_t *)obj;
 343:..\..\..\arduinoLCD\test\Pain Drain\libraries\lvgl\src\widgets/lv_img.c **** 
 344:..\..\..\arduinoLCD\test\Pain Drain\libraries\lvgl\src\widgets/lv_img.c ****     return img->angle;
 345:..\..\..\arduinoLCD\test\Pain Drain\libraries\lvgl\src\widgets/lv_img.c **** }
 346:..\..\..\arduinoLCD\test\Pain Drain\libraries\lvgl\src\widgets/lv_img.c **** 
 347:..\..\..\arduinoLCD\test\Pain Drain\libraries\lvgl\src\widgets/lv_img.c **** void lv_img_get_pivot(lv_obj_t * obj, lv_point_t * pivot)
 348:..\..\..\arduinoLCD\test\Pain Drain\libraries\lvgl\src\widgets/lv_img.c **** {
 349:..\..\..\arduinoLCD\test\Pain Drain\libraries\lvgl\src\widgets/lv_img.c ****     LV_ASSERT_OBJ(obj, MY_CLASS);
 350:..\..\..\arduinoLCD\test\Pain Drain\libraries\lvgl\src\widgets/lv_img.c **** 
 351:..\..\..\arduinoLCD\test\Pain Drain\libraries\lvgl\src\widgets/lv_img.c ****     lv_img_t * img = (lv_img_t *)obj;
 352:..\..\..\arduinoLCD\test\Pain Drain\libraries\lvgl\src\widgets/lv_img.c **** 
 353:..\..\..\arduinoLCD\test\Pain Drain\libraries\lvgl\src\widgets/lv_img.c ****     *pivot = img->pivot;
 354:..\..\..\arduinoLCD\test\Pain Drain\libraries\lvgl\src\widgets/lv_img.c **** }
 355:..\..\..\arduinoLCD\test\Pain Drain\libraries\lvgl\src\widgets/lv_img.c **** 
 356:..\..\..\arduinoLCD\test\Pain Drain\libraries\lvgl\src\widgets/lv_img.c **** uint16_t lv_img_get_zoom(lv_obj_t * obj)
 357:..\..\..\arduinoLCD\test\Pain Drain\libraries\lvgl\src\widgets/lv_img.c **** {
 358:..\..\..\arduinoLCD\test\Pain Drain\libraries\lvgl\src\widgets/lv_img.c ****     LV_ASSERT_OBJ(obj, MY_CLASS);
 359:..\..\..\arduinoLCD\test\Pain Drain\libraries\lvgl\src\widgets/lv_img.c **** 
 360:..\..\..\arduinoLCD\test\Pain Drain\libraries\lvgl\src\widgets/lv_img.c ****     lv_img_t * img = (lv_img_t *)obj;
 361:..\..\..\arduinoLCD\test\Pain Drain\libraries\lvgl\src\widgets/lv_img.c **** 
 362:..\..\..\arduinoLCD\test\Pain Drain\libraries\lvgl\src\widgets/lv_img.c ****     return img->zoom;
 363:..\..\..\arduinoLCD\test\Pain Drain\libraries\lvgl\src\widgets/lv_img.c **** }
 364:..\..\..\arduinoLCD\test\Pain Drain\libraries\lvgl\src\widgets/lv_img.c **** 
 365:..\..\..\arduinoLCD\test\Pain Drain\libraries\lvgl\src\widgets/lv_img.c **** bool lv_img_get_antialias(lv_obj_t * obj)
 366:..\..\..\arduinoLCD\test\Pain Drain\libraries\lvgl\src\widgets/lv_img.c **** {
 367:..\..\..\arduinoLCD\test\Pain Drain\libraries\lvgl\src\widgets/lv_img.c ****     LV_ASSERT_OBJ(obj, MY_CLASS);
 368:..\..\..\arduinoLCD\test\Pain Drain\libraries\lvgl\src\widgets/lv_img.c **** 
 369:..\..\..\arduinoLCD\test\Pain Drain\libraries\lvgl\src\widgets/lv_img.c ****     lv_img_t * img = (lv_img_t *)obj;
 370:..\..\..\arduinoLCD\test\Pain Drain\libraries\lvgl\src\widgets/lv_img.c **** 
 371:..\..\..\arduinoLCD\test\Pain Drain\libraries\lvgl\src\widgets/lv_img.c ****     return img->antialias ? true : false;
 372:..\..\..\arduinoLCD\test\Pain Drain\libraries\lvgl\src\widgets/lv_img.c **** }
 373:..\..\..\arduinoLCD\test\Pain Drain\libraries\lvgl\src\widgets/lv_img.c **** 
ARM GAS  C:\Users\haske\AppData\Local\Temp\ccGWO5DZ.s 			page 8


 374:..\..\..\arduinoLCD\test\Pain Drain\libraries\lvgl\src\widgets/lv_img.c **** lv_img_size_mode_t lv_img_get_size_mode(lv_obj_t * obj)
 375:..\..\..\arduinoLCD\test\Pain Drain\libraries\lvgl\src\widgets/lv_img.c **** {
 376:..\..\..\arduinoLCD\test\Pain Drain\libraries\lvgl\src\widgets/lv_img.c ****     LV_ASSERT_OBJ(obj, MY_CLASS);
 377:..\..\..\arduinoLCD\test\Pain Drain\libraries\lvgl\src\widgets/lv_img.c ****     lv_img_t * img = (lv_img_t *)obj;
 378:..\..\..\arduinoLCD\test\Pain Drain\libraries\lvgl\src\widgets/lv_img.c ****     return img->obj_size_mode;
 379:..\..\..\arduinoLCD\test\Pain Drain\libraries\lvgl\src\widgets/lv_img.c **** }
 380:..\..\..\arduinoLCD\test\Pain Drain\libraries\lvgl\src\widgets/lv_img.c **** 
 381:..\..\..\arduinoLCD\test\Pain Drain\libraries\lvgl\src\widgets/lv_img.c **** /**********************
 382:..\..\..\arduinoLCD\test\Pain Drain\libraries\lvgl\src\widgets/lv_img.c ****  *   STATIC FUNCTIONS
 383:..\..\..\arduinoLCD\test\Pain Drain\libraries\lvgl\src\widgets/lv_img.c ****  **********************/
 384:..\..\..\arduinoLCD\test\Pain Drain\libraries\lvgl\src\widgets/lv_img.c **** 
 385:..\..\..\arduinoLCD\test\Pain Drain\libraries\lvgl\src\widgets/lv_img.c **** static void lv_img_constructor(const lv_obj_class_t * class_p, lv_obj_t * obj)
 386:..\..\..\arduinoLCD\test\Pain Drain\libraries\lvgl\src\widgets/lv_img.c **** {
 387:..\..\..\arduinoLCD\test\Pain Drain\libraries\lvgl\src\widgets/lv_img.c ****     LV_UNUSED(class_p);
 388:..\..\..\arduinoLCD\test\Pain Drain\libraries\lvgl\src\widgets/lv_img.c ****     LV_TRACE_OBJ_CREATE("begin");
 389:..\..\..\arduinoLCD\test\Pain Drain\libraries\lvgl\src\widgets/lv_img.c **** 
 390:..\..\..\arduinoLCD\test\Pain Drain\libraries\lvgl\src\widgets/lv_img.c ****     lv_img_t * img = (lv_img_t *)obj;
 391:..\..\..\arduinoLCD\test\Pain Drain\libraries\lvgl\src\widgets/lv_img.c **** 
 392:..\..\..\arduinoLCD\test\Pain Drain\libraries\lvgl\src\widgets/lv_img.c ****     img->src       = NULL;
 393:..\..\..\arduinoLCD\test\Pain Drain\libraries\lvgl\src\widgets/lv_img.c ****     img->src_type  = LV_IMG_SRC_UNKNOWN;
 394:..\..\..\arduinoLCD\test\Pain Drain\libraries\lvgl\src\widgets/lv_img.c ****     img->cf        = LV_IMG_CF_UNKNOWN;
 395:..\..\..\arduinoLCD\test\Pain Drain\libraries\lvgl\src\widgets/lv_img.c ****     img->w         = lv_obj_get_width(obj);
 396:..\..\..\arduinoLCD\test\Pain Drain\libraries\lvgl\src\widgets/lv_img.c ****     img->h         = lv_obj_get_height(obj);
 397:..\..\..\arduinoLCD\test\Pain Drain\libraries\lvgl\src\widgets/lv_img.c ****     img->angle = 0;
 398:..\..\..\arduinoLCD\test\Pain Drain\libraries\lvgl\src\widgets/lv_img.c ****     img->zoom = LV_IMG_ZOOM_NONE;
 399:..\..\..\arduinoLCD\test\Pain Drain\libraries\lvgl\src\widgets/lv_img.c ****     img->antialias = LV_COLOR_DEPTH > 8 ? 1 : 0;
 400:..\..\..\arduinoLCD\test\Pain Drain\libraries\lvgl\src\widgets/lv_img.c ****     img->offset.x  = 0;
 401:..\..\..\arduinoLCD\test\Pain Drain\libraries\lvgl\src\widgets/lv_img.c ****     img->offset.y  = 0;
 402:..\..\..\arduinoLCD\test\Pain Drain\libraries\lvgl\src\widgets/lv_img.c ****     img->pivot.x = 0;
 403:..\..\..\arduinoLCD\test\Pain Drain\libraries\lvgl\src\widgets/lv_img.c ****     img->pivot.y = 0;
 404:..\..\..\arduinoLCD\test\Pain Drain\libraries\lvgl\src\widgets/lv_img.c ****     img->obj_size_mode = LV_IMG_SIZE_MODE_VIRTUAL;
 405:..\..\..\arduinoLCD\test\Pain Drain\libraries\lvgl\src\widgets/lv_img.c **** 
 406:..\..\..\arduinoLCD\test\Pain Drain\libraries\lvgl\src\widgets/lv_img.c ****     lv_obj_clear_flag(obj, LV_OBJ_FLAG_CLICKABLE);
 407:..\..\..\arduinoLCD\test\Pain Drain\libraries\lvgl\src\widgets/lv_img.c ****     lv_obj_add_flag(obj, LV_OBJ_FLAG_ADV_HITTEST);
 408:..\..\..\arduinoLCD\test\Pain Drain\libraries\lvgl\src\widgets/lv_img.c **** 
 409:..\..\..\arduinoLCD\test\Pain Drain\libraries\lvgl\src\widgets/lv_img.c ****     LV_TRACE_OBJ_CREATE("finished");
 410:..\..\..\arduinoLCD\test\Pain Drain\libraries\lvgl\src\widgets/lv_img.c **** }
 411:..\..\..\arduinoLCD\test\Pain Drain\libraries\lvgl\src\widgets/lv_img.c **** 
 412:..\..\..\arduinoLCD\test\Pain Drain\libraries\lvgl\src\widgets/lv_img.c **** static void lv_img_destructor(const lv_obj_class_t * class_p, lv_obj_t * obj)
 413:..\..\..\arduinoLCD\test\Pain Drain\libraries\lvgl\src\widgets/lv_img.c **** {
 414:..\..\..\arduinoLCD\test\Pain Drain\libraries\lvgl\src\widgets/lv_img.c ****     LV_UNUSED(class_p);
 415:..\..\..\arduinoLCD\test\Pain Drain\libraries\lvgl\src\widgets/lv_img.c ****     lv_img_t * img = (lv_img_t *)obj;
 416:..\..\..\arduinoLCD\test\Pain Drain\libraries\lvgl\src\widgets/lv_img.c ****     if(img->src_type == LV_IMG_SRC_FILE || img->src_type == LV_IMG_SRC_SYMBOL) {
 417:..\..\..\arduinoLCD\test\Pain Drain\libraries\lvgl\src\widgets/lv_img.c ****         lv_mem_free((void *)img->src);
 418:..\..\..\arduinoLCD\test\Pain Drain\libraries\lvgl\src\widgets/lv_img.c ****         img->src      = NULL;
 419:..\..\..\arduinoLCD\test\Pain Drain\libraries\lvgl\src\widgets/lv_img.c ****         img->src_type = LV_IMG_SRC_UNKNOWN;
 420:..\..\..\arduinoLCD\test\Pain Drain\libraries\lvgl\src\widgets/lv_img.c ****     }
 421:..\..\..\arduinoLCD\test\Pain Drain\libraries\lvgl\src\widgets/lv_img.c **** }
 422:..\..\..\arduinoLCD\test\Pain Drain\libraries\lvgl\src\widgets/lv_img.c **** 
 423:..\..\..\arduinoLCD\test\Pain Drain\libraries\lvgl\src\widgets/lv_img.c **** static lv_point_t lv_img_get_transformed_size(lv_obj_t * obj)
 424:..\..\..\arduinoLCD\test\Pain Drain\libraries\lvgl\src\widgets/lv_img.c **** {
  27              		.loc 1 424 0
  28              		.cfi_startproc
  29              		@ args = 0, pretend = 0, frame = 16
  30              		@ frame_needed = 0, uses_anonymous_args = 0
  31              	.LVL0:
  32 0000 30B5     		push	{r4, r5, lr}
ARM GAS  C:\Users\haske\AppData\Local\Temp\ccGWO5DZ.s 			page 9


  33              		.cfi_def_cfa_offset 12
  34              		.cfi_offset 4, -12
  35              		.cfi_offset 5, -8
  36              		.cfi_offset 14, -4
  37 0002 87B0     		sub	sp, sp, #28
  38              		.cfi_def_cfa_offset 40
  39              	.LVL1:
 425:..\..\..\arduinoLCD\test\Pain Drain\libraries\lvgl\src\widgets/lv_img.c ****     lv_img_t * img = (lv_img_t *)obj;
 426:..\..\..\arduinoLCD\test\Pain Drain\libraries\lvgl\src\widgets/lv_img.c **** 
 427:..\..\..\arduinoLCD\test\Pain Drain\libraries\lvgl\src\widgets/lv_img.c **** 
 428:..\..\..\arduinoLCD\test\Pain Drain\libraries\lvgl\src\widgets/lv_img.c ****     lv_area_t area_transform;
 429:..\..\..\arduinoLCD\test\Pain Drain\libraries\lvgl\src\widgets/lv_img.c ****     _lv_img_buf_get_transformed_area(&area_transform, img->w, img->h,
 430:..\..\..\arduinoLCD\test\Pain Drain\libraries\lvgl\src\widgets/lv_img.c ****                                      img->angle, img->zoom, &img->pivot);
  40              		.loc 1 430 0
  41 0004 0500     		movs	r5, r0
  42 0006 3235     		adds	r5, r5, #50
 429:..\..\..\arduinoLCD\test\Pain Drain\libraries\lvgl\src\widgets/lv_img.c ****                                      img->angle, img->zoom, &img->pivot);
  43              		.loc 1 429 0
  44 0008 3022     		movs	r2, #48
  45 000a 835E     		ldrsh	r3, [r0, r2]
  46 000c 2E21     		movs	r1, #46
  47 000e 425E     		ldrsh	r2, [r0, r1]
  48 0010 2C24     		movs	r4, #44
  49 0012 015F     		ldrsh	r1, [r0, r4]
  50 0014 03AC     		add	r4, sp, #12
  51 0016 0195     		str	r5, [sp, #4]
  52 0018 C08E     		ldrh	r0, [r0, #54]
  53              	.LVL2:
  54 001a 0090     		str	r0, [sp]
  55 001c 2000     		movs	r0, r4
  56 001e FFF7FEFF 		bl	_lv_img_buf_get_transformed_area
  57              	.LVL3:
  58              	.LBB44:
  59              	.LBB45:
  60              		.file 2 "c:\\projects\\paindrain\\arduinolcd\\test\\pain drain\\libraries\\lvgl\\src\\misc\\lv_are
   1:c:\projects\paindrain\arduinolcd\test\pain drain\libraries\lvgl\src\misc\lv_area.h **** /**
   2:c:\projects\paindrain\arduinolcd\test\pain drain\libraries\lvgl\src\misc\lv_area.h ****  * @file lv_area.h
   3:c:\projects\paindrain\arduinolcd\test\pain drain\libraries\lvgl\src\misc\lv_area.h ****  *
   4:c:\projects\paindrain\arduinolcd\test\pain drain\libraries\lvgl\src\misc\lv_area.h ****  */
   5:c:\projects\paindrain\arduinolcd\test\pain drain\libraries\lvgl\src\misc\lv_area.h **** 
   6:c:\projects\paindrain\arduinolcd\test\pain drain\libraries\lvgl\src\misc\lv_area.h **** #ifndef LV_AREA_H
   7:c:\projects\paindrain\arduinolcd\test\pain drain\libraries\lvgl\src\misc\lv_area.h **** #define LV_AREA_H
   8:c:\projects\paindrain\arduinolcd\test\pain drain\libraries\lvgl\src\misc\lv_area.h **** 
   9:c:\projects\paindrain\arduinolcd\test\pain drain\libraries\lvgl\src\misc\lv_area.h **** #ifdef __cplusplus
  10:c:\projects\paindrain\arduinolcd\test\pain drain\libraries\lvgl\src\misc\lv_area.h **** extern "C" {
  11:c:\projects\paindrain\arduinolcd\test\pain drain\libraries\lvgl\src\misc\lv_area.h **** #endif
  12:c:\projects\paindrain\arduinolcd\test\pain drain\libraries\lvgl\src\misc\lv_area.h **** 
  13:c:\projects\paindrain\arduinolcd\test\pain drain\libraries\lvgl\src\misc\lv_area.h **** /*********************
  14:c:\projects\paindrain\arduinolcd\test\pain drain\libraries\lvgl\src\misc\lv_area.h ****  *      INCLUDES
  15:c:\projects\paindrain\arduinolcd\test\pain drain\libraries\lvgl\src\misc\lv_area.h ****  *********************/
  16:c:\projects\paindrain\arduinolcd\test\pain drain\libraries\lvgl\src\misc\lv_area.h **** #include "../lv_conf_internal.h"
  17:c:\projects\paindrain\arduinolcd\test\pain drain\libraries\lvgl\src\misc\lv_area.h **** #include <stdbool.h>
  18:c:\projects\paindrain\arduinolcd\test\pain drain\libraries\lvgl\src\misc\lv_area.h **** #include <stdint.h>
  19:c:\projects\paindrain\arduinolcd\test\pain drain\libraries\lvgl\src\misc\lv_area.h **** 
  20:c:\projects\paindrain\arduinolcd\test\pain drain\libraries\lvgl\src\misc\lv_area.h **** /*********************
  21:c:\projects\paindrain\arduinolcd\test\pain drain\libraries\lvgl\src\misc\lv_area.h ****  *      DEFINES
  22:c:\projects\paindrain\arduinolcd\test\pain drain\libraries\lvgl\src\misc\lv_area.h ****  *********************/
ARM GAS  C:\Users\haske\AppData\Local\Temp\ccGWO5DZ.s 			page 10


  23:c:\projects\paindrain\arduinolcd\test\pain drain\libraries\lvgl\src\misc\lv_area.h **** 
  24:c:\projects\paindrain\arduinolcd\test\pain drain\libraries\lvgl\src\misc\lv_area.h **** #if LV_USE_LARGE_COORD
  25:c:\projects\paindrain\arduinolcd\test\pain drain\libraries\lvgl\src\misc\lv_area.h **** typedef int32_t lv_coord_t;
  26:c:\projects\paindrain\arduinolcd\test\pain drain\libraries\lvgl\src\misc\lv_area.h **** #else
  27:c:\projects\paindrain\arduinolcd\test\pain drain\libraries\lvgl\src\misc\lv_area.h **** typedef int16_t lv_coord_t;
  28:c:\projects\paindrain\arduinolcd\test\pain drain\libraries\lvgl\src\misc\lv_area.h **** #endif
  29:c:\projects\paindrain\arduinolcd\test\pain drain\libraries\lvgl\src\misc\lv_area.h **** 
  30:c:\projects\paindrain\arduinolcd\test\pain drain\libraries\lvgl\src\misc\lv_area.h **** /**********************
  31:c:\projects\paindrain\arduinolcd\test\pain drain\libraries\lvgl\src\misc\lv_area.h ****  *      TYPEDEFS
  32:c:\projects\paindrain\arduinolcd\test\pain drain\libraries\lvgl\src\misc\lv_area.h ****  **********************/
  33:c:\projects\paindrain\arduinolcd\test\pain drain\libraries\lvgl\src\misc\lv_area.h **** 
  34:c:\projects\paindrain\arduinolcd\test\pain drain\libraries\lvgl\src\misc\lv_area.h **** /**
  35:c:\projects\paindrain\arduinolcd\test\pain drain\libraries\lvgl\src\misc\lv_area.h ****  * Represents a point on the screen.
  36:c:\projects\paindrain\arduinolcd\test\pain drain\libraries\lvgl\src\misc\lv_area.h ****  */
  37:c:\projects\paindrain\arduinolcd\test\pain drain\libraries\lvgl\src\misc\lv_area.h **** typedef struct {
  38:c:\projects\paindrain\arduinolcd\test\pain drain\libraries\lvgl\src\misc\lv_area.h ****     lv_coord_t x;
  39:c:\projects\paindrain\arduinolcd\test\pain drain\libraries\lvgl\src\misc\lv_area.h ****     lv_coord_t y;
  40:c:\projects\paindrain\arduinolcd\test\pain drain\libraries\lvgl\src\misc\lv_area.h **** } lv_point_t;
  41:c:\projects\paindrain\arduinolcd\test\pain drain\libraries\lvgl\src\misc\lv_area.h **** 
  42:c:\projects\paindrain\arduinolcd\test\pain drain\libraries\lvgl\src\misc\lv_area.h **** /** Represents an area of the screen.*/
  43:c:\projects\paindrain\arduinolcd\test\pain drain\libraries\lvgl\src\misc\lv_area.h **** typedef struct {
  44:c:\projects\paindrain\arduinolcd\test\pain drain\libraries\lvgl\src\misc\lv_area.h ****     lv_coord_t x1;
  45:c:\projects\paindrain\arduinolcd\test\pain drain\libraries\lvgl\src\misc\lv_area.h ****     lv_coord_t y1;
  46:c:\projects\paindrain\arduinolcd\test\pain drain\libraries\lvgl\src\misc\lv_area.h ****     lv_coord_t x2;
  47:c:\projects\paindrain\arduinolcd\test\pain drain\libraries\lvgl\src\misc\lv_area.h ****     lv_coord_t y2;
  48:c:\projects\paindrain\arduinolcd\test\pain drain\libraries\lvgl\src\misc\lv_area.h **** } lv_area_t;
  49:c:\projects\paindrain\arduinolcd\test\pain drain\libraries\lvgl\src\misc\lv_area.h **** 
  50:c:\projects\paindrain\arduinolcd\test\pain drain\libraries\lvgl\src\misc\lv_area.h **** /** Alignments*/
  51:c:\projects\paindrain\arduinolcd\test\pain drain\libraries\lvgl\src\misc\lv_area.h **** enum {
  52:c:\projects\paindrain\arduinolcd\test\pain drain\libraries\lvgl\src\misc\lv_area.h ****     LV_ALIGN_DEFAULT = 0,
  53:c:\projects\paindrain\arduinolcd\test\pain drain\libraries\lvgl\src\misc\lv_area.h ****     LV_ALIGN_TOP_LEFT,
  54:c:\projects\paindrain\arduinolcd\test\pain drain\libraries\lvgl\src\misc\lv_area.h ****     LV_ALIGN_TOP_MID,
  55:c:\projects\paindrain\arduinolcd\test\pain drain\libraries\lvgl\src\misc\lv_area.h ****     LV_ALIGN_TOP_RIGHT,
  56:c:\projects\paindrain\arduinolcd\test\pain drain\libraries\lvgl\src\misc\lv_area.h ****     LV_ALIGN_BOTTOM_LEFT,
  57:c:\projects\paindrain\arduinolcd\test\pain drain\libraries\lvgl\src\misc\lv_area.h ****     LV_ALIGN_BOTTOM_MID,
  58:c:\projects\paindrain\arduinolcd\test\pain drain\libraries\lvgl\src\misc\lv_area.h ****     LV_ALIGN_BOTTOM_RIGHT,
  59:c:\projects\paindrain\arduinolcd\test\pain drain\libraries\lvgl\src\misc\lv_area.h ****     LV_ALIGN_LEFT_MID,
  60:c:\projects\paindrain\arduinolcd\test\pain drain\libraries\lvgl\src\misc\lv_area.h ****     LV_ALIGN_RIGHT_MID,
  61:c:\projects\paindrain\arduinolcd\test\pain drain\libraries\lvgl\src\misc\lv_area.h ****     LV_ALIGN_CENTER,
  62:c:\projects\paindrain\arduinolcd\test\pain drain\libraries\lvgl\src\misc\lv_area.h **** 
  63:c:\projects\paindrain\arduinolcd\test\pain drain\libraries\lvgl\src\misc\lv_area.h ****     LV_ALIGN_OUT_TOP_LEFT,
  64:c:\projects\paindrain\arduinolcd\test\pain drain\libraries\lvgl\src\misc\lv_area.h ****     LV_ALIGN_OUT_TOP_MID,
  65:c:\projects\paindrain\arduinolcd\test\pain drain\libraries\lvgl\src\misc\lv_area.h ****     LV_ALIGN_OUT_TOP_RIGHT,
  66:c:\projects\paindrain\arduinolcd\test\pain drain\libraries\lvgl\src\misc\lv_area.h ****     LV_ALIGN_OUT_BOTTOM_LEFT,
  67:c:\projects\paindrain\arduinolcd\test\pain drain\libraries\lvgl\src\misc\lv_area.h ****     LV_ALIGN_OUT_BOTTOM_MID,
  68:c:\projects\paindrain\arduinolcd\test\pain drain\libraries\lvgl\src\misc\lv_area.h ****     LV_ALIGN_OUT_BOTTOM_RIGHT,
  69:c:\projects\paindrain\arduinolcd\test\pain drain\libraries\lvgl\src\misc\lv_area.h ****     LV_ALIGN_OUT_LEFT_TOP,
  70:c:\projects\paindrain\arduinolcd\test\pain drain\libraries\lvgl\src\misc\lv_area.h ****     LV_ALIGN_OUT_LEFT_MID,
  71:c:\projects\paindrain\arduinolcd\test\pain drain\libraries\lvgl\src\misc\lv_area.h ****     LV_ALIGN_OUT_LEFT_BOTTOM,
  72:c:\projects\paindrain\arduinolcd\test\pain drain\libraries\lvgl\src\misc\lv_area.h ****     LV_ALIGN_OUT_RIGHT_TOP,
  73:c:\projects\paindrain\arduinolcd\test\pain drain\libraries\lvgl\src\misc\lv_area.h ****     LV_ALIGN_OUT_RIGHT_MID,
  74:c:\projects\paindrain\arduinolcd\test\pain drain\libraries\lvgl\src\misc\lv_area.h ****     LV_ALIGN_OUT_RIGHT_BOTTOM,
  75:c:\projects\paindrain\arduinolcd\test\pain drain\libraries\lvgl\src\misc\lv_area.h **** };
  76:c:\projects\paindrain\arduinolcd\test\pain drain\libraries\lvgl\src\misc\lv_area.h **** typedef uint8_t lv_align_t;
  77:c:\projects\paindrain\arduinolcd\test\pain drain\libraries\lvgl\src\misc\lv_area.h **** 
  78:c:\projects\paindrain\arduinolcd\test\pain drain\libraries\lvgl\src\misc\lv_area.h **** enum {
  79:c:\projects\paindrain\arduinolcd\test\pain drain\libraries\lvgl\src\misc\lv_area.h ****     LV_DIR_NONE     = 0x00,
ARM GAS  C:\Users\haske\AppData\Local\Temp\ccGWO5DZ.s 			page 11


  80:c:\projects\paindrain\arduinolcd\test\pain drain\libraries\lvgl\src\misc\lv_area.h ****     LV_DIR_LEFT     = (1 << 0),
  81:c:\projects\paindrain\arduinolcd\test\pain drain\libraries\lvgl\src\misc\lv_area.h ****     LV_DIR_RIGHT    = (1 << 1),
  82:c:\projects\paindrain\arduinolcd\test\pain drain\libraries\lvgl\src\misc\lv_area.h ****     LV_DIR_TOP      = (1 << 2),
  83:c:\projects\paindrain\arduinolcd\test\pain drain\libraries\lvgl\src\misc\lv_area.h ****     LV_DIR_BOTTOM   = (1 << 3),
  84:c:\projects\paindrain\arduinolcd\test\pain drain\libraries\lvgl\src\misc\lv_area.h ****     LV_DIR_HOR      = LV_DIR_LEFT | LV_DIR_RIGHT,
  85:c:\projects\paindrain\arduinolcd\test\pain drain\libraries\lvgl\src\misc\lv_area.h ****     LV_DIR_VER      = LV_DIR_TOP | LV_DIR_BOTTOM,
  86:c:\projects\paindrain\arduinolcd\test\pain drain\libraries\lvgl\src\misc\lv_area.h ****     LV_DIR_ALL      = LV_DIR_HOR | LV_DIR_VER,
  87:c:\projects\paindrain\arduinolcd\test\pain drain\libraries\lvgl\src\misc\lv_area.h **** };
  88:c:\projects\paindrain\arduinolcd\test\pain drain\libraries\lvgl\src\misc\lv_area.h **** 
  89:c:\projects\paindrain\arduinolcd\test\pain drain\libraries\lvgl\src\misc\lv_area.h **** typedef uint8_t lv_dir_t;
  90:c:\projects\paindrain\arduinolcd\test\pain drain\libraries\lvgl\src\misc\lv_area.h **** 
  91:c:\projects\paindrain\arduinolcd\test\pain drain\libraries\lvgl\src\misc\lv_area.h **** /**********************
  92:c:\projects\paindrain\arduinolcd\test\pain drain\libraries\lvgl\src\misc\lv_area.h ****  * GLOBAL PROTOTYPES
  93:c:\projects\paindrain\arduinolcd\test\pain drain\libraries\lvgl\src\misc\lv_area.h ****  **********************/
  94:c:\projects\paindrain\arduinolcd\test\pain drain\libraries\lvgl\src\misc\lv_area.h **** 
  95:c:\projects\paindrain\arduinolcd\test\pain drain\libraries\lvgl\src\misc\lv_area.h **** /**
  96:c:\projects\paindrain\arduinolcd\test\pain drain\libraries\lvgl\src\misc\lv_area.h ****  * Initialize an area
  97:c:\projects\paindrain\arduinolcd\test\pain drain\libraries\lvgl\src\misc\lv_area.h ****  * @param area_p pointer to an area
  98:c:\projects\paindrain\arduinolcd\test\pain drain\libraries\lvgl\src\misc\lv_area.h ****  * @param x1 left coordinate of the area
  99:c:\projects\paindrain\arduinolcd\test\pain drain\libraries\lvgl\src\misc\lv_area.h ****  * @param y1 top coordinate of the area
 100:c:\projects\paindrain\arduinolcd\test\pain drain\libraries\lvgl\src\misc\lv_area.h ****  * @param x2 right coordinate of the area
 101:c:\projects\paindrain\arduinolcd\test\pain drain\libraries\lvgl\src\misc\lv_area.h ****  * @param y2 bottom coordinate of the area
 102:c:\projects\paindrain\arduinolcd\test\pain drain\libraries\lvgl\src\misc\lv_area.h ****  */
 103:c:\projects\paindrain\arduinolcd\test\pain drain\libraries\lvgl\src\misc\lv_area.h **** void lv_area_set(lv_area_t * area_p, lv_coord_t x1, lv_coord_t y1, lv_coord_t x2, lv_coord_t y2);
 104:c:\projects\paindrain\arduinolcd\test\pain drain\libraries\lvgl\src\misc\lv_area.h **** 
 105:c:\projects\paindrain\arduinolcd\test\pain drain\libraries\lvgl\src\misc\lv_area.h **** /**
 106:c:\projects\paindrain\arduinolcd\test\pain drain\libraries\lvgl\src\misc\lv_area.h ****  * Copy an area
 107:c:\projects\paindrain\arduinolcd\test\pain drain\libraries\lvgl\src\misc\lv_area.h ****  * @param dest pointer to the destination area
 108:c:\projects\paindrain\arduinolcd\test\pain drain\libraries\lvgl\src\misc\lv_area.h ****  * @param src pointer to the source area
 109:c:\projects\paindrain\arduinolcd\test\pain drain\libraries\lvgl\src\misc\lv_area.h ****  */
 110:c:\projects\paindrain\arduinolcd\test\pain drain\libraries\lvgl\src\misc\lv_area.h **** inline static void lv_area_copy(lv_area_t * dest, const lv_area_t * src)
 111:c:\projects\paindrain\arduinolcd\test\pain drain\libraries\lvgl\src\misc\lv_area.h **** {
 112:c:\projects\paindrain\arduinolcd\test\pain drain\libraries\lvgl\src\misc\lv_area.h ****     dest->x1 = src->x1;
 113:c:\projects\paindrain\arduinolcd\test\pain drain\libraries\lvgl\src\misc\lv_area.h ****     dest->y1 = src->y1;
 114:c:\projects\paindrain\arduinolcd\test\pain drain\libraries\lvgl\src\misc\lv_area.h ****     dest->x2 = src->x2;
 115:c:\projects\paindrain\arduinolcd\test\pain drain\libraries\lvgl\src\misc\lv_area.h ****     dest->y2 = src->y2;
 116:c:\projects\paindrain\arduinolcd\test\pain drain\libraries\lvgl\src\misc\lv_area.h **** }
 117:c:\projects\paindrain\arduinolcd\test\pain drain\libraries\lvgl\src\misc\lv_area.h **** 
 118:c:\projects\paindrain\arduinolcd\test\pain drain\libraries\lvgl\src\misc\lv_area.h **** /**
 119:c:\projects\paindrain\arduinolcd\test\pain drain\libraries\lvgl\src\misc\lv_area.h ****  * Get the width of an area
 120:c:\projects\paindrain\arduinolcd\test\pain drain\libraries\lvgl\src\misc\lv_area.h ****  * @param area_p pointer to an area
 121:c:\projects\paindrain\arduinolcd\test\pain drain\libraries\lvgl\src\misc\lv_area.h ****  * @return the width of the area (if x1 == x2 -> width = 1)
 122:c:\projects\paindrain\arduinolcd\test\pain drain\libraries\lvgl\src\misc\lv_area.h ****  */
 123:c:\projects\paindrain\arduinolcd\test\pain drain\libraries\lvgl\src\misc\lv_area.h **** static inline lv_coord_t lv_area_get_width(const lv_area_t * area_p)
 124:c:\projects\paindrain\arduinolcd\test\pain drain\libraries\lvgl\src\misc\lv_area.h **** {
 125:c:\projects\paindrain\arduinolcd\test\pain drain\libraries\lvgl\src\misc\lv_area.h ****     return (lv_coord_t)(area_p->x2 - area_p->x1 + 1);
  61              		.loc 2 125 0
  62 0022 0422     		movs	r2, #4
  63 0024 A35E     		ldrsh	r3, [r4, r2]
  64 0026 0021     		movs	r1, #0
  65 0028 625E     		ldrsh	r2, [r4, r1]
  66 002a 9A1A     		subs	r2, r3, r2
  67              	.LVL4:
  68              	.LBE45:
  69              	.LBE44:
  70              	.LBB46:
  71              	.LBB47:
ARM GAS  C:\Users\haske\AppData\Local\Temp\ccGWO5DZ.s 			page 12


 126:c:\projects\paindrain\arduinolcd\test\pain drain\libraries\lvgl\src\misc\lv_area.h **** }
 127:c:\projects\paindrain\arduinolcd\test\pain drain\libraries\lvgl\src\misc\lv_area.h **** 
 128:c:\projects\paindrain\arduinolcd\test\pain drain\libraries\lvgl\src\misc\lv_area.h **** /**
 129:c:\projects\paindrain\arduinolcd\test\pain drain\libraries\lvgl\src\misc\lv_area.h ****  * Get the height of an area
 130:c:\projects\paindrain\arduinolcd\test\pain drain\libraries\lvgl\src\misc\lv_area.h ****  * @param area_p pointer to an area
 131:c:\projects\paindrain\arduinolcd\test\pain drain\libraries\lvgl\src\misc\lv_area.h ****  * @return the height of the area (if y1 == y2 -> height = 1)
 132:c:\projects\paindrain\arduinolcd\test\pain drain\libraries\lvgl\src\misc\lv_area.h ****  */
 133:c:\projects\paindrain\arduinolcd\test\pain drain\libraries\lvgl\src\misc\lv_area.h **** static inline lv_coord_t lv_area_get_height(const lv_area_t * area_p)
 134:c:\projects\paindrain\arduinolcd\test\pain drain\libraries\lvgl\src\misc\lv_area.h **** {
 135:c:\projects\paindrain\arduinolcd\test\pain drain\libraries\lvgl\src\misc\lv_area.h ****     return (lv_coord_t)(area_p->y2 - area_p->y1 + 1);
  72              		.loc 2 135 0
  73 002c 0621     		movs	r1, #6
  74 002e 635E     		ldrsh	r3, [r4, r1]
  75 0030 0221     		movs	r1, #2
  76 0032 605E     		ldrsh	r0, [r4, r1]
  77 0034 181A     		subs	r0, r3, r0
  78              	.LVL5:
  79              	.LBE47:
  80              	.LBE46:
 431:..\..\..\arduinoLCD\test\Pain Drain\libraries\lvgl\src\widgets/lv_img.c **** 
 432:..\..\..\arduinoLCD\test\Pain Drain\libraries\lvgl\src\widgets/lv_img.c ****     return (lv_point_t) {
  81              		.loc 1 432 0
  82 0036 0132     		adds	r2, r2, #1
  83 0038 0130     		adds	r0, r0, #1
  84 003a 0304     		lsls	r3, r0, #16
  85 003c 1004     		lsls	r0, r2, #16
  86 003e 000C     		lsrs	r0, r0, #16
  87 0040 1843     		orrs	r0, r3
 433:..\..\..\arduinoLCD\test\Pain Drain\libraries\lvgl\src\widgets/lv_img.c ****         lv_area_get_width(&area_transform), lv_area_get_height(&area_transform)
 434:..\..\..\arduinoLCD\test\Pain Drain\libraries\lvgl\src\widgets/lv_img.c ****     };
 435:..\..\..\arduinoLCD\test\Pain Drain\libraries\lvgl\src\widgets/lv_img.c **** }
  88              		.loc 1 435 0
  89 0042 07B0     		add	sp, sp, #28
  90              		@ sp needed
  91              	.LVL6:
  92 0044 30BD     		pop	{r4, r5, pc}
  93              		.cfi_endproc
  94              	.LFE184:
  95              		.size	lv_img_get_transformed_size, .-lv_img_get_transformed_size
  96              		.global	__aeabi_idivmod
  97 0046 C046     		.section	.text.draw_img,"ax",%progbits
  98              		.align	2
  99              		.code	16
 100              		.thumb_func
 101              		.type	draw_img, %function
 102              	draw_img:
 103              	.LFB186:
 436:..\..\..\arduinoLCD\test\Pain Drain\libraries\lvgl\src\widgets/lv_img.c **** 
 437:..\..\..\arduinoLCD\test\Pain Drain\libraries\lvgl\src\widgets/lv_img.c **** static void lv_img_event(const lv_obj_class_t * class_p, lv_event_t * e)
 438:..\..\..\arduinoLCD\test\Pain Drain\libraries\lvgl\src\widgets/lv_img.c **** {
 439:..\..\..\arduinoLCD\test\Pain Drain\libraries\lvgl\src\widgets/lv_img.c ****     LV_UNUSED(class_p);
 440:..\..\..\arduinoLCD\test\Pain Drain\libraries\lvgl\src\widgets/lv_img.c **** 
 441:..\..\..\arduinoLCD\test\Pain Drain\libraries\lvgl\src\widgets/lv_img.c ****     lv_event_code_t code = lv_event_get_code(e);
 442:..\..\..\arduinoLCD\test\Pain Drain\libraries\lvgl\src\widgets/lv_img.c **** 
 443:..\..\..\arduinoLCD\test\Pain Drain\libraries\lvgl\src\widgets/lv_img.c ****     /*Ancestor events will be called during drawing*/
 444:..\..\..\arduinoLCD\test\Pain Drain\libraries\lvgl\src\widgets/lv_img.c ****     if(code != LV_EVENT_DRAW_MAIN && code != LV_EVENT_DRAW_POST) {
 445:..\..\..\arduinoLCD\test\Pain Drain\libraries\lvgl\src\widgets/lv_img.c ****         /*Call the ancestor's event handler*/
ARM GAS  C:\Users\haske\AppData\Local\Temp\ccGWO5DZ.s 			page 13


 446:..\..\..\arduinoLCD\test\Pain Drain\libraries\lvgl\src\widgets/lv_img.c ****         lv_res_t res = lv_obj_event_base(MY_CLASS, e);
 447:..\..\..\arduinoLCD\test\Pain Drain\libraries\lvgl\src\widgets/lv_img.c ****         if(res != LV_RES_OK) return;
 448:..\..\..\arduinoLCD\test\Pain Drain\libraries\lvgl\src\widgets/lv_img.c ****     }
 449:..\..\..\arduinoLCD\test\Pain Drain\libraries\lvgl\src\widgets/lv_img.c **** 
 450:..\..\..\arduinoLCD\test\Pain Drain\libraries\lvgl\src\widgets/lv_img.c ****     lv_obj_t * obj = lv_event_get_target(e);
 451:..\..\..\arduinoLCD\test\Pain Drain\libraries\lvgl\src\widgets/lv_img.c ****     lv_img_t * img = (lv_img_t *)obj;
 452:..\..\..\arduinoLCD\test\Pain Drain\libraries\lvgl\src\widgets/lv_img.c **** 
 453:..\..\..\arduinoLCD\test\Pain Drain\libraries\lvgl\src\widgets/lv_img.c ****     if(code == LV_EVENT_STYLE_CHANGED) {
 454:..\..\..\arduinoLCD\test\Pain Drain\libraries\lvgl\src\widgets/lv_img.c ****         /*Refresh the file name to refresh the symbol text size*/
 455:..\..\..\arduinoLCD\test\Pain Drain\libraries\lvgl\src\widgets/lv_img.c ****         if(img->src_type == LV_IMG_SRC_SYMBOL) {
 456:..\..\..\arduinoLCD\test\Pain Drain\libraries\lvgl\src\widgets/lv_img.c ****             lv_img_set_src(obj, img->src);
 457:..\..\..\arduinoLCD\test\Pain Drain\libraries\lvgl\src\widgets/lv_img.c ****         }
 458:..\..\..\arduinoLCD\test\Pain Drain\libraries\lvgl\src\widgets/lv_img.c ****         else {
 459:..\..\..\arduinoLCD\test\Pain Drain\libraries\lvgl\src\widgets/lv_img.c ****             /*With transformation it might change*/
 460:..\..\..\arduinoLCD\test\Pain Drain\libraries\lvgl\src\widgets/lv_img.c ****             lv_obj_refresh_ext_draw_size(obj);
 461:..\..\..\arduinoLCD\test\Pain Drain\libraries\lvgl\src\widgets/lv_img.c ****         }
 462:..\..\..\arduinoLCD\test\Pain Drain\libraries\lvgl\src\widgets/lv_img.c ****     }
 463:..\..\..\arduinoLCD\test\Pain Drain\libraries\lvgl\src\widgets/lv_img.c ****     else if(code == LV_EVENT_REFR_EXT_DRAW_SIZE) {
 464:..\..\..\arduinoLCD\test\Pain Drain\libraries\lvgl\src\widgets/lv_img.c **** 
 465:..\..\..\arduinoLCD\test\Pain Drain\libraries\lvgl\src\widgets/lv_img.c ****         lv_coord_t * s = lv_event_get_param(e);
 466:..\..\..\arduinoLCD\test\Pain Drain\libraries\lvgl\src\widgets/lv_img.c **** 
 467:..\..\..\arduinoLCD\test\Pain Drain\libraries\lvgl\src\widgets/lv_img.c ****         /*If the image has angle provide enough room for the rotated corners*/
 468:..\..\..\arduinoLCD\test\Pain Drain\libraries\lvgl\src\widgets/lv_img.c ****         if(img->angle || img->zoom != LV_IMG_ZOOM_NONE) {
 469:..\..\..\arduinoLCD\test\Pain Drain\libraries\lvgl\src\widgets/lv_img.c ****             lv_area_t a;
 470:..\..\..\arduinoLCD\test\Pain Drain\libraries\lvgl\src\widgets/lv_img.c ****             lv_coord_t w = lv_obj_get_width(obj);
 471:..\..\..\arduinoLCD\test\Pain Drain\libraries\lvgl\src\widgets/lv_img.c ****             lv_coord_t h = lv_obj_get_height(obj);
 472:..\..\..\arduinoLCD\test\Pain Drain\libraries\lvgl\src\widgets/lv_img.c ****             _lv_img_buf_get_transformed_area(&a, w, h, img->angle, img->zoom, &img->pivot);
 473:..\..\..\arduinoLCD\test\Pain Drain\libraries\lvgl\src\widgets/lv_img.c ****             *s = LV_MAX(*s, -a.x1);
 474:..\..\..\arduinoLCD\test\Pain Drain\libraries\lvgl\src\widgets/lv_img.c ****             *s = LV_MAX(*s, -a.y1);
 475:..\..\..\arduinoLCD\test\Pain Drain\libraries\lvgl\src\widgets/lv_img.c ****             *s = LV_MAX(*s, a.x2 - w);
 476:..\..\..\arduinoLCD\test\Pain Drain\libraries\lvgl\src\widgets/lv_img.c ****             *s = LV_MAX(*s, a.y2 - h);
 477:..\..\..\arduinoLCD\test\Pain Drain\libraries\lvgl\src\widgets/lv_img.c ****         }
 478:..\..\..\arduinoLCD\test\Pain Drain\libraries\lvgl\src\widgets/lv_img.c ****     }
 479:..\..\..\arduinoLCD\test\Pain Drain\libraries\lvgl\src\widgets/lv_img.c ****     else if(code == LV_EVENT_HIT_TEST) {
 480:..\..\..\arduinoLCD\test\Pain Drain\libraries\lvgl\src\widgets/lv_img.c ****         lv_hit_test_info_t * info = lv_event_get_param(e);
 481:..\..\..\arduinoLCD\test\Pain Drain\libraries\lvgl\src\widgets/lv_img.c **** 
 482:..\..\..\arduinoLCD\test\Pain Drain\libraries\lvgl\src\widgets/lv_img.c ****         /*If the object is exactly image sized (not cropped, not mosaic) and transformed
 483:..\..\..\arduinoLCD\test\Pain Drain\libraries\lvgl\src\widgets/lv_img.c ****          *perform hit test on its transformed area*/
 484:..\..\..\arduinoLCD\test\Pain Drain\libraries\lvgl\src\widgets/lv_img.c ****         if(img->w == lv_obj_get_width(obj) && img->h == lv_obj_get_height(obj) &&
 485:..\..\..\arduinoLCD\test\Pain Drain\libraries\lvgl\src\widgets/lv_img.c ****            (img->zoom != LV_IMG_ZOOM_NONE || img->angle != 0 || img->pivot.x != img->w / 2 || img->
 486:..\..\..\arduinoLCD\test\Pain Drain\libraries\lvgl\src\widgets/lv_img.c **** 
 487:..\..\..\arduinoLCD\test\Pain Drain\libraries\lvgl\src\widgets/lv_img.c ****             lv_coord_t w = lv_obj_get_width(obj);
 488:..\..\..\arduinoLCD\test\Pain Drain\libraries\lvgl\src\widgets/lv_img.c ****             lv_coord_t h = lv_obj_get_height(obj);
 489:..\..\..\arduinoLCD\test\Pain Drain\libraries\lvgl\src\widgets/lv_img.c ****             lv_area_t coords;
 490:..\..\..\arduinoLCD\test\Pain Drain\libraries\lvgl\src\widgets/lv_img.c ****             _lv_img_buf_get_transformed_area(&coords, w, h, img->angle, img->zoom, &img->pivot);
 491:..\..\..\arduinoLCD\test\Pain Drain\libraries\lvgl\src\widgets/lv_img.c ****             coords.x1 += obj->coords.x1;
 492:..\..\..\arduinoLCD\test\Pain Drain\libraries\lvgl\src\widgets/lv_img.c ****             coords.y1 += obj->coords.y1;
 493:..\..\..\arduinoLCD\test\Pain Drain\libraries\lvgl\src\widgets/lv_img.c ****             coords.x2 += obj->coords.x1;
 494:..\..\..\arduinoLCD\test\Pain Drain\libraries\lvgl\src\widgets/lv_img.c ****             coords.y2 += obj->coords.y1;
 495:..\..\..\arduinoLCD\test\Pain Drain\libraries\lvgl\src\widgets/lv_img.c **** 
 496:..\..\..\arduinoLCD\test\Pain Drain\libraries\lvgl\src\widgets/lv_img.c ****             info->res = _lv_area_is_point_on(&coords, info->point, 0);
 497:..\..\..\arduinoLCD\test\Pain Drain\libraries\lvgl\src\widgets/lv_img.c ****         }
 498:..\..\..\arduinoLCD\test\Pain Drain\libraries\lvgl\src\widgets/lv_img.c ****         else {
 499:..\..\..\arduinoLCD\test\Pain Drain\libraries\lvgl\src\widgets/lv_img.c ****             lv_area_t a;
 500:..\..\..\arduinoLCD\test\Pain Drain\libraries\lvgl\src\widgets/lv_img.c ****             lv_obj_get_click_area(obj, &a);
 501:..\..\..\arduinoLCD\test\Pain Drain\libraries\lvgl\src\widgets/lv_img.c ****             info->res = _lv_area_is_point_on(&a, info->point, 0);
 502:..\..\..\arduinoLCD\test\Pain Drain\libraries\lvgl\src\widgets/lv_img.c ****         }
ARM GAS  C:\Users\haske\AppData\Local\Temp\ccGWO5DZ.s 			page 14


 503:..\..\..\arduinoLCD\test\Pain Drain\libraries\lvgl\src\widgets/lv_img.c ****     }
 504:..\..\..\arduinoLCD\test\Pain Drain\libraries\lvgl\src\widgets/lv_img.c ****     else if(code == LV_EVENT_GET_SELF_SIZE) {
 505:..\..\..\arduinoLCD\test\Pain Drain\libraries\lvgl\src\widgets/lv_img.c ****         lv_point_t * p = lv_event_get_param(e);
 506:..\..\..\arduinoLCD\test\Pain Drain\libraries\lvgl\src\widgets/lv_img.c ****         if(img->obj_size_mode == LV_IMG_SIZE_MODE_REAL) {
 507:..\..\..\arduinoLCD\test\Pain Drain\libraries\lvgl\src\widgets/lv_img.c ****             *p = lv_img_get_transformed_size(obj);
 508:..\..\..\arduinoLCD\test\Pain Drain\libraries\lvgl\src\widgets/lv_img.c ****         }
 509:..\..\..\arduinoLCD\test\Pain Drain\libraries\lvgl\src\widgets/lv_img.c ****         else {
 510:..\..\..\arduinoLCD\test\Pain Drain\libraries\lvgl\src\widgets/lv_img.c ****             p->x = img->w;
 511:..\..\..\arduinoLCD\test\Pain Drain\libraries\lvgl\src\widgets/lv_img.c ****             p->y = img->h;
 512:..\..\..\arduinoLCD\test\Pain Drain\libraries\lvgl\src\widgets/lv_img.c ****         }
 513:..\..\..\arduinoLCD\test\Pain Drain\libraries\lvgl\src\widgets/lv_img.c ****     }
 514:..\..\..\arduinoLCD\test\Pain Drain\libraries\lvgl\src\widgets/lv_img.c ****     else if(code == LV_EVENT_DRAW_MAIN || code == LV_EVENT_DRAW_POST || code == LV_EVENT_COVER_CHEC
 515:..\..\..\arduinoLCD\test\Pain Drain\libraries\lvgl\src\widgets/lv_img.c ****         draw_img(e);
 516:..\..\..\arduinoLCD\test\Pain Drain\libraries\lvgl\src\widgets/lv_img.c ****     }
 517:..\..\..\arduinoLCD\test\Pain Drain\libraries\lvgl\src\widgets/lv_img.c **** }
 518:..\..\..\arduinoLCD\test\Pain Drain\libraries\lvgl\src\widgets/lv_img.c **** 
 519:..\..\..\arduinoLCD\test\Pain Drain\libraries\lvgl\src\widgets/lv_img.c **** static void draw_img(lv_event_t * e)
 520:..\..\..\arduinoLCD\test\Pain Drain\libraries\lvgl\src\widgets/lv_img.c **** {
 104              		.loc 1 520 0
 105              		.cfi_startproc
 106              		@ args = 0, pretend = 0, frame = 96
 107              		@ frame_needed = 0, uses_anonymous_args = 0
 108              	.LVL7:
 109 0000 F0B5     		push	{r4, r5, r6, r7, lr}
 110              		.cfi_def_cfa_offset 20
 111              		.cfi_offset 4, -20
 112              		.cfi_offset 5, -16
 113              		.cfi_offset 6, -12
 114              		.cfi_offset 7, -8
 115              		.cfi_offset 14, -4
 116 0002 5F46     		mov	r7, fp
 117 0004 5646     		mov	r6, r10
 118 0006 4D46     		mov	r5, r9
 119 0008 4446     		mov	r4, r8
 120 000a F0B4     		push	{r4, r5, r6, r7}
 121              		.cfi_def_cfa_offset 36
 122              		.cfi_offset 8, -36
 123              		.cfi_offset 9, -32
 124              		.cfi_offset 10, -28
 125              		.cfi_offset 11, -24
 126 000c 9BB0     		sub	sp, sp, #108
 127              		.cfi_def_cfa_offset 144
 128 000e 0400     		movs	r4, r0
 129 0010 0390     		str	r0, [sp, #12]
 521:..\..\..\arduinoLCD\test\Pain Drain\libraries\lvgl\src\widgets/lv_img.c ****     lv_event_code_t code = lv_event_get_code(e);
 130              		.loc 1 521 0
 131 0012 FFF7FEFF 		bl	lv_event_get_code
 132              	.LVL8:
 133 0016 0600     		movs	r6, r0
 134              	.LVL9:
 522:..\..\..\arduinoLCD\test\Pain Drain\libraries\lvgl\src\widgets/lv_img.c ****     lv_obj_t * obj = lv_event_get_target(e);
 135              		.loc 1 522 0
 136 0018 2000     		movs	r0, r4
 137              	.LVL10:
 138 001a FFF7FEFF 		bl	lv_event_get_target
 139              	.LVL11:
 140 001e 0400     		movs	r4, r0
ARM GAS  C:\Users\haske\AppData\Local\Temp\ccGWO5DZ.s 			page 15


 141              	.LVL12:
 523:..\..\..\arduinoLCD\test\Pain Drain\libraries\lvgl\src\widgets/lv_img.c ****     lv_img_t * img = (lv_img_t *)obj;
 524:..\..\..\arduinoLCD\test\Pain Drain\libraries\lvgl\src\widgets/lv_img.c ****     if(code == LV_EVENT_COVER_CHECK) {
 142              		.loc 1 524 0
 143 0020 122E     		cmp	r6, #18
 144 0022 6CD1     		bne	.L3
 145              	.LBB48:
 525:..\..\..\arduinoLCD\test\Pain Drain\libraries\lvgl\src\widgets/lv_img.c ****         lv_cover_check_info_t * info = lv_event_get_param(e);
 146              		.loc 1 525 0
 147 0024 0398     		ldr	r0, [sp, #12]
 148              	.LVL13:
 149 0026 FFF7FEFF 		bl	lv_event_get_param
 150              	.LVL14:
 151 002a 0700     		movs	r7, r0
 152              	.LVL15:
 526:..\..\..\arduinoLCD\test\Pain Drain\libraries\lvgl\src\widgets/lv_img.c ****         if(info->res == LV_COVER_RES_MASKED) return;
 153              		.loc 1 526 0
 154 002c 0378     		ldrb	r3, [r0]
 155 002e 022B     		cmp	r3, #2
 156 0030 00D1     		bne	.LCB123
 157 0032 18E2     		b	.L2	@long jump
 158              	.LCB123:
 527:..\..\..\arduinoLCD\test\Pain Drain\libraries\lvgl\src\widgets/lv_img.c ****         if(img->src_type == LV_IMG_SRC_UNKNOWN || img->src_type == LV_IMG_SRC_SYMBOL) {
 159              		.loc 1 527 0
 160 0034 3823     		movs	r3, #56
 161 0036 E25C     		ldrb	r2, [r4, r3]
 162 0038 353B     		subs	r3, r3, #53
 163 003a 1340     		ands	r3, r2
 164 003c 023B     		subs	r3, r3, #2
 165 003e DBB2     		uxtb	r3, r3
 166 0040 012B     		cmp	r3, #1
 167 0042 02D8     		bhi	.L5
 528:..\..\..\arduinoLCD\test\Pain Drain\libraries\lvgl\src\widgets/lv_img.c ****             info->res = LV_COVER_RES_NOT_COVER;
 168              		.loc 1 528 0
 169 0044 0123     		movs	r3, #1
 170 0046 0370     		strb	r3, [r0]
 529:..\..\..\arduinoLCD\test\Pain Drain\libraries\lvgl\src\widgets/lv_img.c ****             return;
 171              		.loc 1 529 0
 172 0048 0DE2     		b	.L2
 173              	.L5:
 530:..\..\..\arduinoLCD\test\Pain Drain\libraries\lvgl\src\widgets/lv_img.c ****         }
 531:..\..\..\arduinoLCD\test\Pain Drain\libraries\lvgl\src\widgets/lv_img.c **** 
 532:..\..\..\arduinoLCD\test\Pain Drain\libraries\lvgl\src\widgets/lv_img.c ****         /*Non true color format might have "holes"*/
 533:..\..\..\arduinoLCD\test\Pain Drain\libraries\lvgl\src\widgets/lv_img.c ****         if(img->cf != LV_IMG_CF_TRUE_COLOR && img->cf != LV_IMG_CF_RAW) {
 174              		.loc 1 533 0
 175 004a 7C23     		movs	r3, #124
 176 004c 1A40     		ands	r2, r3
 177 004e 102A     		cmp	r2, #16
 178 0050 04D0     		beq	.L6
 179              		.loc 1 533 0 is_stmt 0 discriminator 1
 180 0052 042A     		cmp	r2, #4
 181 0054 02D0     		beq	.L6
 534:..\..\..\arduinoLCD\test\Pain Drain\libraries\lvgl\src\widgets/lv_img.c ****             info->res = LV_COVER_RES_NOT_COVER;
 182              		.loc 1 534 0 is_stmt 1
 183 0056 7B3B     		subs	r3, r3, #123
 184 0058 0370     		strb	r3, [r0]
 535:..\..\..\arduinoLCD\test\Pain Drain\libraries\lvgl\src\widgets/lv_img.c ****             return;
ARM GAS  C:\Users\haske\AppData\Local\Temp\ccGWO5DZ.s 			page 16


 185              		.loc 1 535 0
 186 005a 04E2     		b	.L2
 187              	.L6:
 188              	.LVL16:
 189              	.LBB49:
 190              	.LBB50:
 191              		.file 3 "..\\..\\..\\arduinoLCD\\test\\Pain Drain\\libraries\\lvgl\\src\\widgets\\../core/lv_obj_s
   1:..\..\..\arduinoLCD\test\Pain Drain\libraries\lvgl\src\widgets\../core/lv_obj_style_gen.h **** static inline lv_coord_t lv_obj_get_style_width(const struct _lv_obj_t * obj, uint32_t part)
   2:..\..\..\arduinoLCD\test\Pain Drain\libraries\lvgl\src\widgets\../core/lv_obj_style_gen.h **** {
   3:..\..\..\arduinoLCD\test\Pain Drain\libraries\lvgl\src\widgets\../core/lv_obj_style_gen.h ****     lv_style_value_t v = lv_obj_get_style_prop(obj, part, LV_STYLE_WIDTH);
   4:..\..\..\arduinoLCD\test\Pain Drain\libraries\lvgl\src\widgets\../core/lv_obj_style_gen.h ****     return (lv_coord_t)v.num;
   5:..\..\..\arduinoLCD\test\Pain Drain\libraries\lvgl\src\widgets\../core/lv_obj_style_gen.h **** }
   6:..\..\..\arduinoLCD\test\Pain Drain\libraries\lvgl\src\widgets\../core/lv_obj_style_gen.h **** 
   7:..\..\..\arduinoLCD\test\Pain Drain\libraries\lvgl\src\widgets\../core/lv_obj_style_gen.h **** static inline lv_coord_t lv_obj_get_style_min_width(const struct _lv_obj_t * obj, uint32_t part)
   8:..\..\..\arduinoLCD\test\Pain Drain\libraries\lvgl\src\widgets\../core/lv_obj_style_gen.h **** {
   9:..\..\..\arduinoLCD\test\Pain Drain\libraries\lvgl\src\widgets\../core/lv_obj_style_gen.h ****     lv_style_value_t v = lv_obj_get_style_prop(obj, part, LV_STYLE_MIN_WIDTH);
  10:..\..\..\arduinoLCD\test\Pain Drain\libraries\lvgl\src\widgets\../core/lv_obj_style_gen.h ****     return (lv_coord_t)v.num;
  11:..\..\..\arduinoLCD\test\Pain Drain\libraries\lvgl\src\widgets\../core/lv_obj_style_gen.h **** }
  12:..\..\..\arduinoLCD\test\Pain Drain\libraries\lvgl\src\widgets\../core/lv_obj_style_gen.h **** 
  13:..\..\..\arduinoLCD\test\Pain Drain\libraries\lvgl\src\widgets\../core/lv_obj_style_gen.h **** static inline lv_coord_t lv_obj_get_style_max_width(const struct _lv_obj_t * obj, uint32_t part)
  14:..\..\..\arduinoLCD\test\Pain Drain\libraries\lvgl\src\widgets\../core/lv_obj_style_gen.h **** {
  15:..\..\..\arduinoLCD\test\Pain Drain\libraries\lvgl\src\widgets\../core/lv_obj_style_gen.h ****     lv_style_value_t v = lv_obj_get_style_prop(obj, part, LV_STYLE_MAX_WIDTH);
  16:..\..\..\arduinoLCD\test\Pain Drain\libraries\lvgl\src\widgets\../core/lv_obj_style_gen.h ****     return (lv_coord_t)v.num;
  17:..\..\..\arduinoLCD\test\Pain Drain\libraries\lvgl\src\widgets\../core/lv_obj_style_gen.h **** }
  18:..\..\..\arduinoLCD\test\Pain Drain\libraries\lvgl\src\widgets\../core/lv_obj_style_gen.h **** 
  19:..\..\..\arduinoLCD\test\Pain Drain\libraries\lvgl\src\widgets\../core/lv_obj_style_gen.h **** static inline lv_coord_t lv_obj_get_style_height(const struct _lv_obj_t * obj, uint32_t part)
  20:..\..\..\arduinoLCD\test\Pain Drain\libraries\lvgl\src\widgets\../core/lv_obj_style_gen.h **** {
  21:..\..\..\arduinoLCD\test\Pain Drain\libraries\lvgl\src\widgets\../core/lv_obj_style_gen.h ****     lv_style_value_t v = lv_obj_get_style_prop(obj, part, LV_STYLE_HEIGHT);
  22:..\..\..\arduinoLCD\test\Pain Drain\libraries\lvgl\src\widgets\../core/lv_obj_style_gen.h ****     return (lv_coord_t)v.num;
  23:..\..\..\arduinoLCD\test\Pain Drain\libraries\lvgl\src\widgets\../core/lv_obj_style_gen.h **** }
  24:..\..\..\arduinoLCD\test\Pain Drain\libraries\lvgl\src\widgets\../core/lv_obj_style_gen.h **** 
  25:..\..\..\arduinoLCD\test\Pain Drain\libraries\lvgl\src\widgets\../core/lv_obj_style_gen.h **** static inline lv_coord_t lv_obj_get_style_min_height(const struct _lv_obj_t * obj, uint32_t part)
  26:..\..\..\arduinoLCD\test\Pain Drain\libraries\lvgl\src\widgets\../core/lv_obj_style_gen.h **** {
  27:..\..\..\arduinoLCD\test\Pain Drain\libraries\lvgl\src\widgets\../core/lv_obj_style_gen.h ****     lv_style_value_t v = lv_obj_get_style_prop(obj, part, LV_STYLE_MIN_HEIGHT);
  28:..\..\..\arduinoLCD\test\Pain Drain\libraries\lvgl\src\widgets\../core/lv_obj_style_gen.h ****     return (lv_coord_t)v.num;
  29:..\..\..\arduinoLCD\test\Pain Drain\libraries\lvgl\src\widgets\../core/lv_obj_style_gen.h **** }
  30:..\..\..\arduinoLCD\test\Pain Drain\libraries\lvgl\src\widgets\../core/lv_obj_style_gen.h **** 
  31:..\..\..\arduinoLCD\test\Pain Drain\libraries\lvgl\src\widgets\../core/lv_obj_style_gen.h **** static inline lv_coord_t lv_obj_get_style_max_height(const struct _lv_obj_t * obj, uint32_t part)
  32:..\..\..\arduinoLCD\test\Pain Drain\libraries\lvgl\src\widgets\../core/lv_obj_style_gen.h **** {
  33:..\..\..\arduinoLCD\test\Pain Drain\libraries\lvgl\src\widgets\../core/lv_obj_style_gen.h ****     lv_style_value_t v = lv_obj_get_style_prop(obj, part, LV_STYLE_MAX_HEIGHT);
  34:..\..\..\arduinoLCD\test\Pain Drain\libraries\lvgl\src\widgets\../core/lv_obj_style_gen.h ****     return (lv_coord_t)v.num;
  35:..\..\..\arduinoLCD\test\Pain Drain\libraries\lvgl\src\widgets\../core/lv_obj_style_gen.h **** }
  36:..\..\..\arduinoLCD\test\Pain Drain\libraries\lvgl\src\widgets\../core/lv_obj_style_gen.h **** 
  37:..\..\..\arduinoLCD\test\Pain Drain\libraries\lvgl\src\widgets\../core/lv_obj_style_gen.h **** static inline lv_coord_t lv_obj_get_style_x(const struct _lv_obj_t * obj, uint32_t part)
  38:..\..\..\arduinoLCD\test\Pain Drain\libraries\lvgl\src\widgets\../core/lv_obj_style_gen.h **** {
  39:..\..\..\arduinoLCD\test\Pain Drain\libraries\lvgl\src\widgets\../core/lv_obj_style_gen.h ****     lv_style_value_t v = lv_obj_get_style_prop(obj, part, LV_STYLE_X);
  40:..\..\..\arduinoLCD\test\Pain Drain\libraries\lvgl\src\widgets\../core/lv_obj_style_gen.h ****     return (lv_coord_t)v.num;
  41:..\..\..\arduinoLCD\test\Pain Drain\libraries\lvgl\src\widgets\../core/lv_obj_style_gen.h **** }
  42:..\..\..\arduinoLCD\test\Pain Drain\libraries\lvgl\src\widgets\../core/lv_obj_style_gen.h **** 
  43:..\..\..\arduinoLCD\test\Pain Drain\libraries\lvgl\src\widgets\../core/lv_obj_style_gen.h **** static inline lv_coord_t lv_obj_get_style_y(const struct _lv_obj_t * obj, uint32_t part)
  44:..\..\..\arduinoLCD\test\Pain Drain\libraries\lvgl\src\widgets\../core/lv_obj_style_gen.h **** {
  45:..\..\..\arduinoLCD\test\Pain Drain\libraries\lvgl\src\widgets\../core/lv_obj_style_gen.h ****     lv_style_value_t v = lv_obj_get_style_prop(obj, part, LV_STYLE_Y);
  46:..\..\..\arduinoLCD\test\Pain Drain\libraries\lvgl\src\widgets\../core/lv_obj_style_gen.h ****     return (lv_coord_t)v.num;
  47:..\..\..\arduinoLCD\test\Pain Drain\libraries\lvgl\src\widgets\../core/lv_obj_style_gen.h **** }
  48:..\..\..\arduinoLCD\test\Pain Drain\libraries\lvgl\src\widgets\../core/lv_obj_style_gen.h **** 
  49:..\..\..\arduinoLCD\test\Pain Drain\libraries\lvgl\src\widgets\../core/lv_obj_style_gen.h **** static inline lv_align_t lv_obj_get_style_align(const struct _lv_obj_t * obj, uint32_t part)
  50:..\..\..\arduinoLCD\test\Pain Drain\libraries\lvgl\src\widgets\../core/lv_obj_style_gen.h **** {
ARM GAS  C:\Users\haske\AppData\Local\Temp\ccGWO5DZ.s 			page 17


  51:..\..\..\arduinoLCD\test\Pain Drain\libraries\lvgl\src\widgets\../core/lv_obj_style_gen.h ****     lv_style_value_t v = lv_obj_get_style_prop(obj, part, LV_STYLE_ALIGN);
  52:..\..\..\arduinoLCD\test\Pain Drain\libraries\lvgl\src\widgets\../core/lv_obj_style_gen.h ****     return (lv_align_t)v.num;
  53:..\..\..\arduinoLCD\test\Pain Drain\libraries\lvgl\src\widgets\../core/lv_obj_style_gen.h **** }
  54:..\..\..\arduinoLCD\test\Pain Drain\libraries\lvgl\src\widgets\../core/lv_obj_style_gen.h **** 
  55:..\..\..\arduinoLCD\test\Pain Drain\libraries\lvgl\src\widgets\../core/lv_obj_style_gen.h **** static inline lv_coord_t lv_obj_get_style_transform_width(const struct _lv_obj_t * obj, uint32_t pa
  56:..\..\..\arduinoLCD\test\Pain Drain\libraries\lvgl\src\widgets\../core/lv_obj_style_gen.h **** {
  57:..\..\..\arduinoLCD\test\Pain Drain\libraries\lvgl\src\widgets\../core/lv_obj_style_gen.h ****     lv_style_value_t v = lv_obj_get_style_prop(obj, part, LV_STYLE_TRANSFORM_WIDTH);
  58:..\..\..\arduinoLCD\test\Pain Drain\libraries\lvgl\src\widgets\../core/lv_obj_style_gen.h ****     return (lv_coord_t)v.num;
  59:..\..\..\arduinoLCD\test\Pain Drain\libraries\lvgl\src\widgets\../core/lv_obj_style_gen.h **** }
  60:..\..\..\arduinoLCD\test\Pain Drain\libraries\lvgl\src\widgets\../core/lv_obj_style_gen.h **** 
  61:..\..\..\arduinoLCD\test\Pain Drain\libraries\lvgl\src\widgets\../core/lv_obj_style_gen.h **** static inline lv_coord_t lv_obj_get_style_transform_height(const struct _lv_obj_t * obj, uint32_t p
  62:..\..\..\arduinoLCD\test\Pain Drain\libraries\lvgl\src\widgets\../core/lv_obj_style_gen.h **** {
  63:..\..\..\arduinoLCD\test\Pain Drain\libraries\lvgl\src\widgets\../core/lv_obj_style_gen.h ****     lv_style_value_t v = lv_obj_get_style_prop(obj, part, LV_STYLE_TRANSFORM_HEIGHT);
  64:..\..\..\arduinoLCD\test\Pain Drain\libraries\lvgl\src\widgets\../core/lv_obj_style_gen.h ****     return (lv_coord_t)v.num;
  65:..\..\..\arduinoLCD\test\Pain Drain\libraries\lvgl\src\widgets\../core/lv_obj_style_gen.h **** }
  66:..\..\..\arduinoLCD\test\Pain Drain\libraries\lvgl\src\widgets\../core/lv_obj_style_gen.h **** 
  67:..\..\..\arduinoLCD\test\Pain Drain\libraries\lvgl\src\widgets\../core/lv_obj_style_gen.h **** static inline lv_coord_t lv_obj_get_style_translate_x(const struct _lv_obj_t * obj, uint32_t part)
  68:..\..\..\arduinoLCD\test\Pain Drain\libraries\lvgl\src\widgets\../core/lv_obj_style_gen.h **** {
  69:..\..\..\arduinoLCD\test\Pain Drain\libraries\lvgl\src\widgets\../core/lv_obj_style_gen.h ****     lv_style_value_t v = lv_obj_get_style_prop(obj, part, LV_STYLE_TRANSLATE_X);
  70:..\..\..\arduinoLCD\test\Pain Drain\libraries\lvgl\src\widgets\../core/lv_obj_style_gen.h ****     return (lv_coord_t)v.num;
  71:..\..\..\arduinoLCD\test\Pain Drain\libraries\lvgl\src\widgets\../core/lv_obj_style_gen.h **** }
  72:..\..\..\arduinoLCD\test\Pain Drain\libraries\lvgl\src\widgets\../core/lv_obj_style_gen.h **** 
  73:..\..\..\arduinoLCD\test\Pain Drain\libraries\lvgl\src\widgets\../core/lv_obj_style_gen.h **** static inline lv_coord_t lv_obj_get_style_translate_y(const struct _lv_obj_t * obj, uint32_t part)
  74:..\..\..\arduinoLCD\test\Pain Drain\libraries\lvgl\src\widgets\../core/lv_obj_style_gen.h **** {
  75:..\..\..\arduinoLCD\test\Pain Drain\libraries\lvgl\src\widgets\../core/lv_obj_style_gen.h ****     lv_style_value_t v = lv_obj_get_style_prop(obj, part, LV_STYLE_TRANSLATE_Y);
  76:..\..\..\arduinoLCD\test\Pain Drain\libraries\lvgl\src\widgets\../core/lv_obj_style_gen.h ****     return (lv_coord_t)v.num;
  77:..\..\..\arduinoLCD\test\Pain Drain\libraries\lvgl\src\widgets\../core/lv_obj_style_gen.h **** }
  78:..\..\..\arduinoLCD\test\Pain Drain\libraries\lvgl\src\widgets\../core/lv_obj_style_gen.h **** 
  79:..\..\..\arduinoLCD\test\Pain Drain\libraries\lvgl\src\widgets\../core/lv_obj_style_gen.h **** static inline lv_coord_t lv_obj_get_style_transform_zoom(const struct _lv_obj_t * obj, uint32_t par
  80:..\..\..\arduinoLCD\test\Pain Drain\libraries\lvgl\src\widgets\../core/lv_obj_style_gen.h **** {
  81:..\..\..\arduinoLCD\test\Pain Drain\libraries\lvgl\src\widgets\../core/lv_obj_style_gen.h ****     lv_style_value_t v = lv_obj_get_style_prop(obj, part, LV_STYLE_TRANSFORM_ZOOM);
  82:..\..\..\arduinoLCD\test\Pain Drain\libraries\lvgl\src\widgets\../core/lv_obj_style_gen.h ****     return (lv_coord_t)v.num;
  83:..\..\..\arduinoLCD\test\Pain Drain\libraries\lvgl\src\widgets\../core/lv_obj_style_gen.h **** }
  84:..\..\..\arduinoLCD\test\Pain Drain\libraries\lvgl\src\widgets\../core/lv_obj_style_gen.h **** 
  85:..\..\..\arduinoLCD\test\Pain Drain\libraries\lvgl\src\widgets\../core/lv_obj_style_gen.h **** static inline lv_coord_t lv_obj_get_style_transform_angle(const struct _lv_obj_t * obj, uint32_t pa
  86:..\..\..\arduinoLCD\test\Pain Drain\libraries\lvgl\src\widgets\../core/lv_obj_style_gen.h **** {
  87:..\..\..\arduinoLCD\test\Pain Drain\libraries\lvgl\src\widgets\../core/lv_obj_style_gen.h ****     lv_style_value_t v = lv_obj_get_style_prop(obj, part, LV_STYLE_TRANSFORM_ANGLE);
  88:..\..\..\arduinoLCD\test\Pain Drain\libraries\lvgl\src\widgets\../core/lv_obj_style_gen.h ****     return (lv_coord_t)v.num;
  89:..\..\..\arduinoLCD\test\Pain Drain\libraries\lvgl\src\widgets\../core/lv_obj_style_gen.h **** }
  90:..\..\..\arduinoLCD\test\Pain Drain\libraries\lvgl\src\widgets\../core/lv_obj_style_gen.h **** 
  91:..\..\..\arduinoLCD\test\Pain Drain\libraries\lvgl\src\widgets\../core/lv_obj_style_gen.h **** static inline lv_coord_t lv_obj_get_style_transform_pivot_x(const struct _lv_obj_t * obj, uint32_t 
  92:..\..\..\arduinoLCD\test\Pain Drain\libraries\lvgl\src\widgets\../core/lv_obj_style_gen.h **** {
  93:..\..\..\arduinoLCD\test\Pain Drain\libraries\lvgl\src\widgets\../core/lv_obj_style_gen.h ****     lv_style_value_t v = lv_obj_get_style_prop(obj, part, LV_STYLE_TRANSFORM_PIVOT_X);
  94:..\..\..\arduinoLCD\test\Pain Drain\libraries\lvgl\src\widgets\../core/lv_obj_style_gen.h ****     return (lv_coord_t)v.num;
  95:..\..\..\arduinoLCD\test\Pain Drain\libraries\lvgl\src\widgets\../core/lv_obj_style_gen.h **** }
  96:..\..\..\arduinoLCD\test\Pain Drain\libraries\lvgl\src\widgets\../core/lv_obj_style_gen.h **** 
  97:..\..\..\arduinoLCD\test\Pain Drain\libraries\lvgl\src\widgets\../core/lv_obj_style_gen.h **** static inline lv_coord_t lv_obj_get_style_transform_pivot_y(const struct _lv_obj_t * obj, uint32_t 
  98:..\..\..\arduinoLCD\test\Pain Drain\libraries\lvgl\src\widgets\../core/lv_obj_style_gen.h **** {
  99:..\..\..\arduinoLCD\test\Pain Drain\libraries\lvgl\src\widgets\../core/lv_obj_style_gen.h ****     lv_style_value_t v = lv_obj_get_style_prop(obj, part, LV_STYLE_TRANSFORM_PIVOT_Y);
 100:..\..\..\arduinoLCD\test\Pain Drain\libraries\lvgl\src\widgets\../core/lv_obj_style_gen.h ****     return (lv_coord_t)v.num;
 101:..\..\..\arduinoLCD\test\Pain Drain\libraries\lvgl\src\widgets\../core/lv_obj_style_gen.h **** }
 102:..\..\..\arduinoLCD\test\Pain Drain\libraries\lvgl\src\widgets\../core/lv_obj_style_gen.h **** 
 103:..\..\..\arduinoLCD\test\Pain Drain\libraries\lvgl\src\widgets\../core/lv_obj_style_gen.h **** static inline lv_coord_t lv_obj_get_style_pad_top(const struct _lv_obj_t * obj, uint32_t part)
 104:..\..\..\arduinoLCD\test\Pain Drain\libraries\lvgl\src\widgets\../core/lv_obj_style_gen.h **** {
 105:..\..\..\arduinoLCD\test\Pain Drain\libraries\lvgl\src\widgets\../core/lv_obj_style_gen.h ****     lv_style_value_t v = lv_obj_get_style_prop(obj, part, LV_STYLE_PAD_TOP);
 106:..\..\..\arduinoLCD\test\Pain Drain\libraries\lvgl\src\widgets\../core/lv_obj_style_gen.h ****     return (lv_coord_t)v.num;
 107:..\..\..\arduinoLCD\test\Pain Drain\libraries\lvgl\src\widgets\../core/lv_obj_style_gen.h **** }
ARM GAS  C:\Users\haske\AppData\Local\Temp\ccGWO5DZ.s 			page 18


 108:..\..\..\arduinoLCD\test\Pain Drain\libraries\lvgl\src\widgets\../core/lv_obj_style_gen.h **** 
 109:..\..\..\arduinoLCD\test\Pain Drain\libraries\lvgl\src\widgets\../core/lv_obj_style_gen.h **** static inline lv_coord_t lv_obj_get_style_pad_bottom(const struct _lv_obj_t * obj, uint32_t part)
 110:..\..\..\arduinoLCD\test\Pain Drain\libraries\lvgl\src\widgets\../core/lv_obj_style_gen.h **** {
 111:..\..\..\arduinoLCD\test\Pain Drain\libraries\lvgl\src\widgets\../core/lv_obj_style_gen.h ****     lv_style_value_t v = lv_obj_get_style_prop(obj, part, LV_STYLE_PAD_BOTTOM);
 112:..\..\..\arduinoLCD\test\Pain Drain\libraries\lvgl\src\widgets\../core/lv_obj_style_gen.h ****     return (lv_coord_t)v.num;
 113:..\..\..\arduinoLCD\test\Pain Drain\libraries\lvgl\src\widgets\../core/lv_obj_style_gen.h **** }
 114:..\..\..\arduinoLCD\test\Pain Drain\libraries\lvgl\src\widgets\../core/lv_obj_style_gen.h **** 
 115:..\..\..\arduinoLCD\test\Pain Drain\libraries\lvgl\src\widgets\../core/lv_obj_style_gen.h **** static inline lv_coord_t lv_obj_get_style_pad_left(const struct _lv_obj_t * obj, uint32_t part)
 116:..\..\..\arduinoLCD\test\Pain Drain\libraries\lvgl\src\widgets\../core/lv_obj_style_gen.h **** {
 117:..\..\..\arduinoLCD\test\Pain Drain\libraries\lvgl\src\widgets\../core/lv_obj_style_gen.h ****     lv_style_value_t v = lv_obj_get_style_prop(obj, part, LV_STYLE_PAD_LEFT);
 118:..\..\..\arduinoLCD\test\Pain Drain\libraries\lvgl\src\widgets\../core/lv_obj_style_gen.h ****     return (lv_coord_t)v.num;
 119:..\..\..\arduinoLCD\test\Pain Drain\libraries\lvgl\src\widgets\../core/lv_obj_style_gen.h **** }
 120:..\..\..\arduinoLCD\test\Pain Drain\libraries\lvgl\src\widgets\../core/lv_obj_style_gen.h **** 
 121:..\..\..\arduinoLCD\test\Pain Drain\libraries\lvgl\src\widgets\../core/lv_obj_style_gen.h **** static inline lv_coord_t lv_obj_get_style_pad_right(const struct _lv_obj_t * obj, uint32_t part)
 122:..\..\..\arduinoLCD\test\Pain Drain\libraries\lvgl\src\widgets\../core/lv_obj_style_gen.h **** {
 123:..\..\..\arduinoLCD\test\Pain Drain\libraries\lvgl\src\widgets\../core/lv_obj_style_gen.h ****     lv_style_value_t v = lv_obj_get_style_prop(obj, part, LV_STYLE_PAD_RIGHT);
 124:..\..\..\arduinoLCD\test\Pain Drain\libraries\lvgl\src\widgets\../core/lv_obj_style_gen.h ****     return (lv_coord_t)v.num;
 125:..\..\..\arduinoLCD\test\Pain Drain\libraries\lvgl\src\widgets\../core/lv_obj_style_gen.h **** }
 126:..\..\..\arduinoLCD\test\Pain Drain\libraries\lvgl\src\widgets\../core/lv_obj_style_gen.h **** 
 127:..\..\..\arduinoLCD\test\Pain Drain\libraries\lvgl\src\widgets\../core/lv_obj_style_gen.h **** static inline lv_coord_t lv_obj_get_style_pad_row(const struct _lv_obj_t * obj, uint32_t part)
 128:..\..\..\arduinoLCD\test\Pain Drain\libraries\lvgl\src\widgets\../core/lv_obj_style_gen.h **** {
 129:..\..\..\arduinoLCD\test\Pain Drain\libraries\lvgl\src\widgets\../core/lv_obj_style_gen.h ****     lv_style_value_t v = lv_obj_get_style_prop(obj, part, LV_STYLE_PAD_ROW);
 130:..\..\..\arduinoLCD\test\Pain Drain\libraries\lvgl\src\widgets\../core/lv_obj_style_gen.h ****     return (lv_coord_t)v.num;
 131:..\..\..\arduinoLCD\test\Pain Drain\libraries\lvgl\src\widgets\../core/lv_obj_style_gen.h **** }
 132:..\..\..\arduinoLCD\test\Pain Drain\libraries\lvgl\src\widgets\../core/lv_obj_style_gen.h **** 
 133:..\..\..\arduinoLCD\test\Pain Drain\libraries\lvgl\src\widgets\../core/lv_obj_style_gen.h **** static inline lv_coord_t lv_obj_get_style_pad_column(const struct _lv_obj_t * obj, uint32_t part)
 134:..\..\..\arduinoLCD\test\Pain Drain\libraries\lvgl\src\widgets\../core/lv_obj_style_gen.h **** {
 135:..\..\..\arduinoLCD\test\Pain Drain\libraries\lvgl\src\widgets\../core/lv_obj_style_gen.h ****     lv_style_value_t v = lv_obj_get_style_prop(obj, part, LV_STYLE_PAD_COLUMN);
 136:..\..\..\arduinoLCD\test\Pain Drain\libraries\lvgl\src\widgets\../core/lv_obj_style_gen.h ****     return (lv_coord_t)v.num;
 137:..\..\..\arduinoLCD\test\Pain Drain\libraries\lvgl\src\widgets\../core/lv_obj_style_gen.h **** }
 138:..\..\..\arduinoLCD\test\Pain Drain\libraries\lvgl\src\widgets\../core/lv_obj_style_gen.h **** 
 139:..\..\..\arduinoLCD\test\Pain Drain\libraries\lvgl\src\widgets\../core/lv_obj_style_gen.h **** static inline lv_color_t lv_obj_get_style_bg_color(const struct _lv_obj_t * obj, uint32_t part)
 140:..\..\..\arduinoLCD\test\Pain Drain\libraries\lvgl\src\widgets\../core/lv_obj_style_gen.h **** {
 141:..\..\..\arduinoLCD\test\Pain Drain\libraries\lvgl\src\widgets\../core/lv_obj_style_gen.h ****     lv_style_value_t v = lv_obj_get_style_prop(obj, part, LV_STYLE_BG_COLOR);
 142:..\..\..\arduinoLCD\test\Pain Drain\libraries\lvgl\src\widgets\../core/lv_obj_style_gen.h ****     return v.color;
 143:..\..\..\arduinoLCD\test\Pain Drain\libraries\lvgl\src\widgets\../core/lv_obj_style_gen.h **** }
 144:..\..\..\arduinoLCD\test\Pain Drain\libraries\lvgl\src\widgets\../core/lv_obj_style_gen.h **** 
 145:..\..\..\arduinoLCD\test\Pain Drain\libraries\lvgl\src\widgets\../core/lv_obj_style_gen.h **** static inline lv_color_t lv_obj_get_style_bg_color_filtered(const struct _lv_obj_t * obj, uint32_t 
 146:..\..\..\arduinoLCD\test\Pain Drain\libraries\lvgl\src\widgets\../core/lv_obj_style_gen.h **** {
 147:..\..\..\arduinoLCD\test\Pain Drain\libraries\lvgl\src\widgets\../core/lv_obj_style_gen.h ****     lv_style_value_t v = _lv_obj_style_apply_color_filter(obj, part, lv_obj_get_style_prop(obj, par
 148:..\..\..\arduinoLCD\test\Pain Drain\libraries\lvgl\src\widgets\../core/lv_obj_style_gen.h ****     return v.color;
 149:..\..\..\arduinoLCD\test\Pain Drain\libraries\lvgl\src\widgets\../core/lv_obj_style_gen.h **** }
 150:..\..\..\arduinoLCD\test\Pain Drain\libraries\lvgl\src\widgets\../core/lv_obj_style_gen.h **** 
 151:..\..\..\arduinoLCD\test\Pain Drain\libraries\lvgl\src\widgets\../core/lv_obj_style_gen.h **** static inline lv_opa_t lv_obj_get_style_bg_opa(const struct _lv_obj_t * obj, uint32_t part)
 152:..\..\..\arduinoLCD\test\Pain Drain\libraries\lvgl\src\widgets\../core/lv_obj_style_gen.h **** {
 153:..\..\..\arduinoLCD\test\Pain Drain\libraries\lvgl\src\widgets\../core/lv_obj_style_gen.h ****     lv_style_value_t v = lv_obj_get_style_prop(obj, part, LV_STYLE_BG_OPA);
 154:..\..\..\arduinoLCD\test\Pain Drain\libraries\lvgl\src\widgets\../core/lv_obj_style_gen.h ****     return (lv_opa_t)v.num;
 155:..\..\..\arduinoLCD\test\Pain Drain\libraries\lvgl\src\widgets\../core/lv_obj_style_gen.h **** }
 156:..\..\..\arduinoLCD\test\Pain Drain\libraries\lvgl\src\widgets\../core/lv_obj_style_gen.h **** 
 157:..\..\..\arduinoLCD\test\Pain Drain\libraries\lvgl\src\widgets\../core/lv_obj_style_gen.h **** static inline lv_color_t lv_obj_get_style_bg_grad_color(const struct _lv_obj_t * obj, uint32_t part
 158:..\..\..\arduinoLCD\test\Pain Drain\libraries\lvgl\src\widgets\../core/lv_obj_style_gen.h **** {
 159:..\..\..\arduinoLCD\test\Pain Drain\libraries\lvgl\src\widgets\../core/lv_obj_style_gen.h ****     lv_style_value_t v = lv_obj_get_style_prop(obj, part, LV_STYLE_BG_GRAD_COLOR);
 160:..\..\..\arduinoLCD\test\Pain Drain\libraries\lvgl\src\widgets\../core/lv_obj_style_gen.h ****     return v.color;
 161:..\..\..\arduinoLCD\test\Pain Drain\libraries\lvgl\src\widgets\../core/lv_obj_style_gen.h **** }
 162:..\..\..\arduinoLCD\test\Pain Drain\libraries\lvgl\src\widgets\../core/lv_obj_style_gen.h **** 
 163:..\..\..\arduinoLCD\test\Pain Drain\libraries\lvgl\src\widgets\../core/lv_obj_style_gen.h **** static inline lv_color_t lv_obj_get_style_bg_grad_color_filtered(const struct _lv_obj_t * obj, uint
 164:..\..\..\arduinoLCD\test\Pain Drain\libraries\lvgl\src\widgets\../core/lv_obj_style_gen.h **** {
ARM GAS  C:\Users\haske\AppData\Local\Temp\ccGWO5DZ.s 			page 19


 165:..\..\..\arduinoLCD\test\Pain Drain\libraries\lvgl\src\widgets\../core/lv_obj_style_gen.h ****     lv_style_value_t v = _lv_obj_style_apply_color_filter(obj, part, lv_obj_get_style_prop(obj, par
 166:..\..\..\arduinoLCD\test\Pain Drain\libraries\lvgl\src\widgets\../core/lv_obj_style_gen.h ****     return v.color;
 167:..\..\..\arduinoLCD\test\Pain Drain\libraries\lvgl\src\widgets\../core/lv_obj_style_gen.h **** }
 168:..\..\..\arduinoLCD\test\Pain Drain\libraries\lvgl\src\widgets\../core/lv_obj_style_gen.h **** 
 169:..\..\..\arduinoLCD\test\Pain Drain\libraries\lvgl\src\widgets\../core/lv_obj_style_gen.h **** static inline lv_grad_dir_t lv_obj_get_style_bg_grad_dir(const struct _lv_obj_t * obj, uint32_t par
 170:..\..\..\arduinoLCD\test\Pain Drain\libraries\lvgl\src\widgets\../core/lv_obj_style_gen.h **** {
 171:..\..\..\arduinoLCD\test\Pain Drain\libraries\lvgl\src\widgets\../core/lv_obj_style_gen.h ****     lv_style_value_t v = lv_obj_get_style_prop(obj, part, LV_STYLE_BG_GRAD_DIR);
 172:..\..\..\arduinoLCD\test\Pain Drain\libraries\lvgl\src\widgets\../core/lv_obj_style_gen.h ****     return (lv_grad_dir_t)v.num;
 173:..\..\..\arduinoLCD\test\Pain Drain\libraries\lvgl\src\widgets\../core/lv_obj_style_gen.h **** }
 174:..\..\..\arduinoLCD\test\Pain Drain\libraries\lvgl\src\widgets\../core/lv_obj_style_gen.h **** 
 175:..\..\..\arduinoLCD\test\Pain Drain\libraries\lvgl\src\widgets\../core/lv_obj_style_gen.h **** static inline lv_coord_t lv_obj_get_style_bg_main_stop(const struct _lv_obj_t * obj, uint32_t part)
 176:..\..\..\arduinoLCD\test\Pain Drain\libraries\lvgl\src\widgets\../core/lv_obj_style_gen.h **** {
 177:..\..\..\arduinoLCD\test\Pain Drain\libraries\lvgl\src\widgets\../core/lv_obj_style_gen.h ****     lv_style_value_t v = lv_obj_get_style_prop(obj, part, LV_STYLE_BG_MAIN_STOP);
 178:..\..\..\arduinoLCD\test\Pain Drain\libraries\lvgl\src\widgets\../core/lv_obj_style_gen.h ****     return (lv_coord_t)v.num;
 179:..\..\..\arduinoLCD\test\Pain Drain\libraries\lvgl\src\widgets\../core/lv_obj_style_gen.h **** }
 180:..\..\..\arduinoLCD\test\Pain Drain\libraries\lvgl\src\widgets\../core/lv_obj_style_gen.h **** 
 181:..\..\..\arduinoLCD\test\Pain Drain\libraries\lvgl\src\widgets\../core/lv_obj_style_gen.h **** static inline lv_coord_t lv_obj_get_style_bg_grad_stop(const struct _lv_obj_t * obj, uint32_t part)
 182:..\..\..\arduinoLCD\test\Pain Drain\libraries\lvgl\src\widgets\../core/lv_obj_style_gen.h **** {
 183:..\..\..\arduinoLCD\test\Pain Drain\libraries\lvgl\src\widgets\../core/lv_obj_style_gen.h ****     lv_style_value_t v = lv_obj_get_style_prop(obj, part, LV_STYLE_BG_GRAD_STOP);
 184:..\..\..\arduinoLCD\test\Pain Drain\libraries\lvgl\src\widgets\../core/lv_obj_style_gen.h ****     return (lv_coord_t)v.num;
 185:..\..\..\arduinoLCD\test\Pain Drain\libraries\lvgl\src\widgets\../core/lv_obj_style_gen.h **** }
 186:..\..\..\arduinoLCD\test\Pain Drain\libraries\lvgl\src\widgets\../core/lv_obj_style_gen.h **** 
 187:..\..\..\arduinoLCD\test\Pain Drain\libraries\lvgl\src\widgets\../core/lv_obj_style_gen.h **** static inline const lv_grad_dsc_t * lv_obj_get_style_bg_grad(const struct _lv_obj_t * obj, uint32_t
 188:..\..\..\arduinoLCD\test\Pain Drain\libraries\lvgl\src\widgets\../core/lv_obj_style_gen.h **** {
 189:..\..\..\arduinoLCD\test\Pain Drain\libraries\lvgl\src\widgets\../core/lv_obj_style_gen.h ****     lv_style_value_t v = lv_obj_get_style_prop(obj, part, LV_STYLE_BG_GRAD);
 190:..\..\..\arduinoLCD\test\Pain Drain\libraries\lvgl\src\widgets\../core/lv_obj_style_gen.h ****     return (const lv_grad_dsc_t *)v.ptr;
 191:..\..\..\arduinoLCD\test\Pain Drain\libraries\lvgl\src\widgets\../core/lv_obj_style_gen.h **** }
 192:..\..\..\arduinoLCD\test\Pain Drain\libraries\lvgl\src\widgets\../core/lv_obj_style_gen.h **** 
 193:..\..\..\arduinoLCD\test\Pain Drain\libraries\lvgl\src\widgets\../core/lv_obj_style_gen.h **** static inline lv_dither_mode_t lv_obj_get_style_bg_dither_mode(const struct _lv_obj_t * obj, uint32
 194:..\..\..\arduinoLCD\test\Pain Drain\libraries\lvgl\src\widgets\../core/lv_obj_style_gen.h **** {
 195:..\..\..\arduinoLCD\test\Pain Drain\libraries\lvgl\src\widgets\../core/lv_obj_style_gen.h ****     lv_style_value_t v = lv_obj_get_style_prop(obj, part, LV_STYLE_BG_DITHER_MODE);
 196:..\..\..\arduinoLCD\test\Pain Drain\libraries\lvgl\src\widgets\../core/lv_obj_style_gen.h ****     return (lv_dither_mode_t)v.num;
 197:..\..\..\arduinoLCD\test\Pain Drain\libraries\lvgl\src\widgets\../core/lv_obj_style_gen.h **** }
 198:..\..\..\arduinoLCD\test\Pain Drain\libraries\lvgl\src\widgets\../core/lv_obj_style_gen.h **** 
 199:..\..\..\arduinoLCD\test\Pain Drain\libraries\lvgl\src\widgets\../core/lv_obj_style_gen.h **** static inline const void * lv_obj_get_style_bg_img_src(const struct _lv_obj_t * obj, uint32_t part)
 200:..\..\..\arduinoLCD\test\Pain Drain\libraries\lvgl\src\widgets\../core/lv_obj_style_gen.h **** {
 201:..\..\..\arduinoLCD\test\Pain Drain\libraries\lvgl\src\widgets\../core/lv_obj_style_gen.h ****     lv_style_value_t v = lv_obj_get_style_prop(obj, part, LV_STYLE_BG_IMG_SRC);
 202:..\..\..\arduinoLCD\test\Pain Drain\libraries\lvgl\src\widgets\../core/lv_obj_style_gen.h ****     return (const void *)v.ptr;
 203:..\..\..\arduinoLCD\test\Pain Drain\libraries\lvgl\src\widgets\../core/lv_obj_style_gen.h **** }
 204:..\..\..\arduinoLCD\test\Pain Drain\libraries\lvgl\src\widgets\../core/lv_obj_style_gen.h **** 
 205:..\..\..\arduinoLCD\test\Pain Drain\libraries\lvgl\src\widgets\../core/lv_obj_style_gen.h **** static inline lv_opa_t lv_obj_get_style_bg_img_opa(const struct _lv_obj_t * obj, uint32_t part)
 206:..\..\..\arduinoLCD\test\Pain Drain\libraries\lvgl\src\widgets\../core/lv_obj_style_gen.h **** {
 207:..\..\..\arduinoLCD\test\Pain Drain\libraries\lvgl\src\widgets\../core/lv_obj_style_gen.h ****     lv_style_value_t v = lv_obj_get_style_prop(obj, part, LV_STYLE_BG_IMG_OPA);
 208:..\..\..\arduinoLCD\test\Pain Drain\libraries\lvgl\src\widgets\../core/lv_obj_style_gen.h ****     return (lv_opa_t)v.num;
 209:..\..\..\arduinoLCD\test\Pain Drain\libraries\lvgl\src\widgets\../core/lv_obj_style_gen.h **** }
 210:..\..\..\arduinoLCD\test\Pain Drain\libraries\lvgl\src\widgets\../core/lv_obj_style_gen.h **** 
 211:..\..\..\arduinoLCD\test\Pain Drain\libraries\lvgl\src\widgets\../core/lv_obj_style_gen.h **** static inline lv_color_t lv_obj_get_style_bg_img_recolor(const struct _lv_obj_t * obj, uint32_t par
 212:..\..\..\arduinoLCD\test\Pain Drain\libraries\lvgl\src\widgets\../core/lv_obj_style_gen.h **** {
 213:..\..\..\arduinoLCD\test\Pain Drain\libraries\lvgl\src\widgets\../core/lv_obj_style_gen.h ****     lv_style_value_t v = lv_obj_get_style_prop(obj, part, LV_STYLE_BG_IMG_RECOLOR);
 214:..\..\..\arduinoLCD\test\Pain Drain\libraries\lvgl\src\widgets\../core/lv_obj_style_gen.h ****     return v.color;
 215:..\..\..\arduinoLCD\test\Pain Drain\libraries\lvgl\src\widgets\../core/lv_obj_style_gen.h **** }
 216:..\..\..\arduinoLCD\test\Pain Drain\libraries\lvgl\src\widgets\../core/lv_obj_style_gen.h **** 
 217:..\..\..\arduinoLCD\test\Pain Drain\libraries\lvgl\src\widgets\../core/lv_obj_style_gen.h **** static inline lv_color_t lv_obj_get_style_bg_img_recolor_filtered(const struct _lv_obj_t * obj, uin
 218:..\..\..\arduinoLCD\test\Pain Drain\libraries\lvgl\src\widgets\../core/lv_obj_style_gen.h **** {
 219:..\..\..\arduinoLCD\test\Pain Drain\libraries\lvgl\src\widgets\../core/lv_obj_style_gen.h ****     lv_style_value_t v = _lv_obj_style_apply_color_filter(obj, part, lv_obj_get_style_prop(obj, par
 220:..\..\..\arduinoLCD\test\Pain Drain\libraries\lvgl\src\widgets\../core/lv_obj_style_gen.h ****     return v.color;
 221:..\..\..\arduinoLCD\test\Pain Drain\libraries\lvgl\src\widgets\../core/lv_obj_style_gen.h **** }
ARM GAS  C:\Users\haske\AppData\Local\Temp\ccGWO5DZ.s 			page 20


 222:..\..\..\arduinoLCD\test\Pain Drain\libraries\lvgl\src\widgets\../core/lv_obj_style_gen.h **** 
 223:..\..\..\arduinoLCD\test\Pain Drain\libraries\lvgl\src\widgets\../core/lv_obj_style_gen.h **** static inline lv_opa_t lv_obj_get_style_bg_img_recolor_opa(const struct _lv_obj_t * obj, uint32_t p
 224:..\..\..\arduinoLCD\test\Pain Drain\libraries\lvgl\src\widgets\../core/lv_obj_style_gen.h **** {
 225:..\..\..\arduinoLCD\test\Pain Drain\libraries\lvgl\src\widgets\../core/lv_obj_style_gen.h ****     lv_style_value_t v = lv_obj_get_style_prop(obj, part, LV_STYLE_BG_IMG_RECOLOR_OPA);
 226:..\..\..\arduinoLCD\test\Pain Drain\libraries\lvgl\src\widgets\../core/lv_obj_style_gen.h ****     return (lv_opa_t)v.num;
 227:..\..\..\arduinoLCD\test\Pain Drain\libraries\lvgl\src\widgets\../core/lv_obj_style_gen.h **** }
 228:..\..\..\arduinoLCD\test\Pain Drain\libraries\lvgl\src\widgets\../core/lv_obj_style_gen.h **** 
 229:..\..\..\arduinoLCD\test\Pain Drain\libraries\lvgl\src\widgets\../core/lv_obj_style_gen.h **** static inline bool lv_obj_get_style_bg_img_tiled(const struct _lv_obj_t * obj, uint32_t part)
 230:..\..\..\arduinoLCD\test\Pain Drain\libraries\lvgl\src\widgets\../core/lv_obj_style_gen.h **** {
 231:..\..\..\arduinoLCD\test\Pain Drain\libraries\lvgl\src\widgets\../core/lv_obj_style_gen.h ****     lv_style_value_t v = lv_obj_get_style_prop(obj, part, LV_STYLE_BG_IMG_TILED);
 232:..\..\..\arduinoLCD\test\Pain Drain\libraries\lvgl\src\widgets\../core/lv_obj_style_gen.h ****     return (bool)v.num;
 233:..\..\..\arduinoLCD\test\Pain Drain\libraries\lvgl\src\widgets\../core/lv_obj_style_gen.h **** }
 234:..\..\..\arduinoLCD\test\Pain Drain\libraries\lvgl\src\widgets\../core/lv_obj_style_gen.h **** 
 235:..\..\..\arduinoLCD\test\Pain Drain\libraries\lvgl\src\widgets\../core/lv_obj_style_gen.h **** static inline lv_color_t lv_obj_get_style_border_color(const struct _lv_obj_t * obj, uint32_t part)
 236:..\..\..\arduinoLCD\test\Pain Drain\libraries\lvgl\src\widgets\../core/lv_obj_style_gen.h **** {
 237:..\..\..\arduinoLCD\test\Pain Drain\libraries\lvgl\src\widgets\../core/lv_obj_style_gen.h ****     lv_style_value_t v = lv_obj_get_style_prop(obj, part, LV_STYLE_BORDER_COLOR);
 238:..\..\..\arduinoLCD\test\Pain Drain\libraries\lvgl\src\widgets\../core/lv_obj_style_gen.h ****     return v.color;
 239:..\..\..\arduinoLCD\test\Pain Drain\libraries\lvgl\src\widgets\../core/lv_obj_style_gen.h **** }
 240:..\..\..\arduinoLCD\test\Pain Drain\libraries\lvgl\src\widgets\../core/lv_obj_style_gen.h **** 
 241:..\..\..\arduinoLCD\test\Pain Drain\libraries\lvgl\src\widgets\../core/lv_obj_style_gen.h **** static inline lv_color_t lv_obj_get_style_border_color_filtered(const struct _lv_obj_t * obj, uint3
 242:..\..\..\arduinoLCD\test\Pain Drain\libraries\lvgl\src\widgets\../core/lv_obj_style_gen.h **** {
 243:..\..\..\arduinoLCD\test\Pain Drain\libraries\lvgl\src\widgets\../core/lv_obj_style_gen.h ****     lv_style_value_t v = _lv_obj_style_apply_color_filter(obj, part, lv_obj_get_style_prop(obj, par
 244:..\..\..\arduinoLCD\test\Pain Drain\libraries\lvgl\src\widgets\../core/lv_obj_style_gen.h ****     return v.color;
 245:..\..\..\arduinoLCD\test\Pain Drain\libraries\lvgl\src\widgets\../core/lv_obj_style_gen.h **** }
 246:..\..\..\arduinoLCD\test\Pain Drain\libraries\lvgl\src\widgets\../core/lv_obj_style_gen.h **** 
 247:..\..\..\arduinoLCD\test\Pain Drain\libraries\lvgl\src\widgets\../core/lv_obj_style_gen.h **** static inline lv_opa_t lv_obj_get_style_border_opa(const struct _lv_obj_t * obj, uint32_t part)
 248:..\..\..\arduinoLCD\test\Pain Drain\libraries\lvgl\src\widgets\../core/lv_obj_style_gen.h **** {
 249:..\..\..\arduinoLCD\test\Pain Drain\libraries\lvgl\src\widgets\../core/lv_obj_style_gen.h ****     lv_style_value_t v = lv_obj_get_style_prop(obj, part, LV_STYLE_BORDER_OPA);
 250:..\..\..\arduinoLCD\test\Pain Drain\libraries\lvgl\src\widgets\../core/lv_obj_style_gen.h ****     return (lv_opa_t)v.num;
 251:..\..\..\arduinoLCD\test\Pain Drain\libraries\lvgl\src\widgets\../core/lv_obj_style_gen.h **** }
 252:..\..\..\arduinoLCD\test\Pain Drain\libraries\lvgl\src\widgets\../core/lv_obj_style_gen.h **** 
 253:..\..\..\arduinoLCD\test\Pain Drain\libraries\lvgl\src\widgets\../core/lv_obj_style_gen.h **** static inline lv_coord_t lv_obj_get_style_border_width(const struct _lv_obj_t * obj, uint32_t part)
 254:..\..\..\arduinoLCD\test\Pain Drain\libraries\lvgl\src\widgets\../core/lv_obj_style_gen.h **** {
 255:..\..\..\arduinoLCD\test\Pain Drain\libraries\lvgl\src\widgets\../core/lv_obj_style_gen.h ****     lv_style_value_t v = lv_obj_get_style_prop(obj, part, LV_STYLE_BORDER_WIDTH);
 256:..\..\..\arduinoLCD\test\Pain Drain\libraries\lvgl\src\widgets\../core/lv_obj_style_gen.h ****     return (lv_coord_t)v.num;
 257:..\..\..\arduinoLCD\test\Pain Drain\libraries\lvgl\src\widgets\../core/lv_obj_style_gen.h **** }
 258:..\..\..\arduinoLCD\test\Pain Drain\libraries\lvgl\src\widgets\../core/lv_obj_style_gen.h **** 
 259:..\..\..\arduinoLCD\test\Pain Drain\libraries\lvgl\src\widgets\../core/lv_obj_style_gen.h **** static inline lv_border_side_t lv_obj_get_style_border_side(const struct _lv_obj_t * obj, uint32_t 
 260:..\..\..\arduinoLCD\test\Pain Drain\libraries\lvgl\src\widgets\../core/lv_obj_style_gen.h **** {
 261:..\..\..\arduinoLCD\test\Pain Drain\libraries\lvgl\src\widgets\../core/lv_obj_style_gen.h ****     lv_style_value_t v = lv_obj_get_style_prop(obj, part, LV_STYLE_BORDER_SIDE);
 262:..\..\..\arduinoLCD\test\Pain Drain\libraries\lvgl\src\widgets\../core/lv_obj_style_gen.h ****     return (lv_border_side_t)v.num;
 263:..\..\..\arduinoLCD\test\Pain Drain\libraries\lvgl\src\widgets\../core/lv_obj_style_gen.h **** }
 264:..\..\..\arduinoLCD\test\Pain Drain\libraries\lvgl\src\widgets\../core/lv_obj_style_gen.h **** 
 265:..\..\..\arduinoLCD\test\Pain Drain\libraries\lvgl\src\widgets\../core/lv_obj_style_gen.h **** static inline bool lv_obj_get_style_border_post(const struct _lv_obj_t * obj, uint32_t part)
 266:..\..\..\arduinoLCD\test\Pain Drain\libraries\lvgl\src\widgets\../core/lv_obj_style_gen.h **** {
 267:..\..\..\arduinoLCD\test\Pain Drain\libraries\lvgl\src\widgets\../core/lv_obj_style_gen.h ****     lv_style_value_t v = lv_obj_get_style_prop(obj, part, LV_STYLE_BORDER_POST);
 268:..\..\..\arduinoLCD\test\Pain Drain\libraries\lvgl\src\widgets\../core/lv_obj_style_gen.h ****     return (bool)v.num;
 269:..\..\..\arduinoLCD\test\Pain Drain\libraries\lvgl\src\widgets\../core/lv_obj_style_gen.h **** }
 270:..\..\..\arduinoLCD\test\Pain Drain\libraries\lvgl\src\widgets\../core/lv_obj_style_gen.h **** 
 271:..\..\..\arduinoLCD\test\Pain Drain\libraries\lvgl\src\widgets\../core/lv_obj_style_gen.h **** static inline lv_coord_t lv_obj_get_style_outline_width(const struct _lv_obj_t * obj, uint32_t part
 272:..\..\..\arduinoLCD\test\Pain Drain\libraries\lvgl\src\widgets\../core/lv_obj_style_gen.h **** {
 273:..\..\..\arduinoLCD\test\Pain Drain\libraries\lvgl\src\widgets\../core/lv_obj_style_gen.h ****     lv_style_value_t v = lv_obj_get_style_prop(obj, part, LV_STYLE_OUTLINE_WIDTH);
 274:..\..\..\arduinoLCD\test\Pain Drain\libraries\lvgl\src\widgets\../core/lv_obj_style_gen.h ****     return (lv_coord_t)v.num;
 275:..\..\..\arduinoLCD\test\Pain Drain\libraries\lvgl\src\widgets\../core/lv_obj_style_gen.h **** }
 276:..\..\..\arduinoLCD\test\Pain Drain\libraries\lvgl\src\widgets\../core/lv_obj_style_gen.h **** 
 277:..\..\..\arduinoLCD\test\Pain Drain\libraries\lvgl\src\widgets\../core/lv_obj_style_gen.h **** static inline lv_color_t lv_obj_get_style_outline_color(const struct _lv_obj_t * obj, uint32_t part
 278:..\..\..\arduinoLCD\test\Pain Drain\libraries\lvgl\src\widgets\../core/lv_obj_style_gen.h **** {
ARM GAS  C:\Users\haske\AppData\Local\Temp\ccGWO5DZ.s 			page 21


 279:..\..\..\arduinoLCD\test\Pain Drain\libraries\lvgl\src\widgets\../core/lv_obj_style_gen.h ****     lv_style_value_t v = lv_obj_get_style_prop(obj, part, LV_STYLE_OUTLINE_COLOR);
 280:..\..\..\arduinoLCD\test\Pain Drain\libraries\lvgl\src\widgets\../core/lv_obj_style_gen.h ****     return v.color;
 281:..\..\..\arduinoLCD\test\Pain Drain\libraries\lvgl\src\widgets\../core/lv_obj_style_gen.h **** }
 282:..\..\..\arduinoLCD\test\Pain Drain\libraries\lvgl\src\widgets\../core/lv_obj_style_gen.h **** 
 283:..\..\..\arduinoLCD\test\Pain Drain\libraries\lvgl\src\widgets\../core/lv_obj_style_gen.h **** static inline lv_color_t lv_obj_get_style_outline_color_filtered(const struct _lv_obj_t * obj, uint
 284:..\..\..\arduinoLCD\test\Pain Drain\libraries\lvgl\src\widgets\../core/lv_obj_style_gen.h **** {
 285:..\..\..\arduinoLCD\test\Pain Drain\libraries\lvgl\src\widgets\../core/lv_obj_style_gen.h ****     lv_style_value_t v = _lv_obj_style_apply_color_filter(obj, part, lv_obj_get_style_prop(obj, par
 286:..\..\..\arduinoLCD\test\Pain Drain\libraries\lvgl\src\widgets\../core/lv_obj_style_gen.h ****     return v.color;
 287:..\..\..\arduinoLCD\test\Pain Drain\libraries\lvgl\src\widgets\../core/lv_obj_style_gen.h **** }
 288:..\..\..\arduinoLCD\test\Pain Drain\libraries\lvgl\src\widgets\../core/lv_obj_style_gen.h **** 
 289:..\..\..\arduinoLCD\test\Pain Drain\libraries\lvgl\src\widgets\../core/lv_obj_style_gen.h **** static inline lv_opa_t lv_obj_get_style_outline_opa(const struct _lv_obj_t * obj, uint32_t part)
 290:..\..\..\arduinoLCD\test\Pain Drain\libraries\lvgl\src\widgets\../core/lv_obj_style_gen.h **** {
 291:..\..\..\arduinoLCD\test\Pain Drain\libraries\lvgl\src\widgets\../core/lv_obj_style_gen.h ****     lv_style_value_t v = lv_obj_get_style_prop(obj, part, LV_STYLE_OUTLINE_OPA);
 292:..\..\..\arduinoLCD\test\Pain Drain\libraries\lvgl\src\widgets\../core/lv_obj_style_gen.h ****     return (lv_opa_t)v.num;
 293:..\..\..\arduinoLCD\test\Pain Drain\libraries\lvgl\src\widgets\../core/lv_obj_style_gen.h **** }
 294:..\..\..\arduinoLCD\test\Pain Drain\libraries\lvgl\src\widgets\../core/lv_obj_style_gen.h **** 
 295:..\..\..\arduinoLCD\test\Pain Drain\libraries\lvgl\src\widgets\../core/lv_obj_style_gen.h **** static inline lv_coord_t lv_obj_get_style_outline_pad(const struct _lv_obj_t * obj, uint32_t part)
 296:..\..\..\arduinoLCD\test\Pain Drain\libraries\lvgl\src\widgets\../core/lv_obj_style_gen.h **** {
 297:..\..\..\arduinoLCD\test\Pain Drain\libraries\lvgl\src\widgets\../core/lv_obj_style_gen.h ****     lv_style_value_t v = lv_obj_get_style_prop(obj, part, LV_STYLE_OUTLINE_PAD);
 298:..\..\..\arduinoLCD\test\Pain Drain\libraries\lvgl\src\widgets\../core/lv_obj_style_gen.h ****     return (lv_coord_t)v.num;
 299:..\..\..\arduinoLCD\test\Pain Drain\libraries\lvgl\src\widgets\../core/lv_obj_style_gen.h **** }
 300:..\..\..\arduinoLCD\test\Pain Drain\libraries\lvgl\src\widgets\../core/lv_obj_style_gen.h **** 
 301:..\..\..\arduinoLCD\test\Pain Drain\libraries\lvgl\src\widgets\../core/lv_obj_style_gen.h **** static inline lv_coord_t lv_obj_get_style_shadow_width(const struct _lv_obj_t * obj, uint32_t part)
 302:..\..\..\arduinoLCD\test\Pain Drain\libraries\lvgl\src\widgets\../core/lv_obj_style_gen.h **** {
 303:..\..\..\arduinoLCD\test\Pain Drain\libraries\lvgl\src\widgets\../core/lv_obj_style_gen.h ****     lv_style_value_t v = lv_obj_get_style_prop(obj, part, LV_STYLE_SHADOW_WIDTH);
 304:..\..\..\arduinoLCD\test\Pain Drain\libraries\lvgl\src\widgets\../core/lv_obj_style_gen.h ****     return (lv_coord_t)v.num;
 305:..\..\..\arduinoLCD\test\Pain Drain\libraries\lvgl\src\widgets\../core/lv_obj_style_gen.h **** }
 306:..\..\..\arduinoLCD\test\Pain Drain\libraries\lvgl\src\widgets\../core/lv_obj_style_gen.h **** 
 307:..\..\..\arduinoLCD\test\Pain Drain\libraries\lvgl\src\widgets\../core/lv_obj_style_gen.h **** static inline lv_coord_t lv_obj_get_style_shadow_ofs_x(const struct _lv_obj_t * obj, uint32_t part)
 308:..\..\..\arduinoLCD\test\Pain Drain\libraries\lvgl\src\widgets\../core/lv_obj_style_gen.h **** {
 309:..\..\..\arduinoLCD\test\Pain Drain\libraries\lvgl\src\widgets\../core/lv_obj_style_gen.h ****     lv_style_value_t v = lv_obj_get_style_prop(obj, part, LV_STYLE_SHADOW_OFS_X);
 310:..\..\..\arduinoLCD\test\Pain Drain\libraries\lvgl\src\widgets\../core/lv_obj_style_gen.h ****     return (lv_coord_t)v.num;
 311:..\..\..\arduinoLCD\test\Pain Drain\libraries\lvgl\src\widgets\../core/lv_obj_style_gen.h **** }
 312:..\..\..\arduinoLCD\test\Pain Drain\libraries\lvgl\src\widgets\../core/lv_obj_style_gen.h **** 
 313:..\..\..\arduinoLCD\test\Pain Drain\libraries\lvgl\src\widgets\../core/lv_obj_style_gen.h **** static inline lv_coord_t lv_obj_get_style_shadow_ofs_y(const struct _lv_obj_t * obj, uint32_t part)
 314:..\..\..\arduinoLCD\test\Pain Drain\libraries\lvgl\src\widgets\../core/lv_obj_style_gen.h **** {
 315:..\..\..\arduinoLCD\test\Pain Drain\libraries\lvgl\src\widgets\../core/lv_obj_style_gen.h ****     lv_style_value_t v = lv_obj_get_style_prop(obj, part, LV_STYLE_SHADOW_OFS_Y);
 316:..\..\..\arduinoLCD\test\Pain Drain\libraries\lvgl\src\widgets\../core/lv_obj_style_gen.h ****     return (lv_coord_t)v.num;
 317:..\..\..\arduinoLCD\test\Pain Drain\libraries\lvgl\src\widgets\../core/lv_obj_style_gen.h **** }
 318:..\..\..\arduinoLCD\test\Pain Drain\libraries\lvgl\src\widgets\../core/lv_obj_style_gen.h **** 
 319:..\..\..\arduinoLCD\test\Pain Drain\libraries\lvgl\src\widgets\../core/lv_obj_style_gen.h **** static inline lv_coord_t lv_obj_get_style_shadow_spread(const struct _lv_obj_t * obj, uint32_t part
 320:..\..\..\arduinoLCD\test\Pain Drain\libraries\lvgl\src\widgets\../core/lv_obj_style_gen.h **** {
 321:..\..\..\arduinoLCD\test\Pain Drain\libraries\lvgl\src\widgets\../core/lv_obj_style_gen.h ****     lv_style_value_t v = lv_obj_get_style_prop(obj, part, LV_STYLE_SHADOW_SPREAD);
 322:..\..\..\arduinoLCD\test\Pain Drain\libraries\lvgl\src\widgets\../core/lv_obj_style_gen.h ****     return (lv_coord_t)v.num;
 323:..\..\..\arduinoLCD\test\Pain Drain\libraries\lvgl\src\widgets\../core/lv_obj_style_gen.h **** }
 324:..\..\..\arduinoLCD\test\Pain Drain\libraries\lvgl\src\widgets\../core/lv_obj_style_gen.h **** 
 325:..\..\..\arduinoLCD\test\Pain Drain\libraries\lvgl\src\widgets\../core/lv_obj_style_gen.h **** static inline lv_color_t lv_obj_get_style_shadow_color(const struct _lv_obj_t * obj, uint32_t part)
 326:..\..\..\arduinoLCD\test\Pain Drain\libraries\lvgl\src\widgets\../core/lv_obj_style_gen.h **** {
 327:..\..\..\arduinoLCD\test\Pain Drain\libraries\lvgl\src\widgets\../core/lv_obj_style_gen.h ****     lv_style_value_t v = lv_obj_get_style_prop(obj, part, LV_STYLE_SHADOW_COLOR);
 328:..\..\..\arduinoLCD\test\Pain Drain\libraries\lvgl\src\widgets\../core/lv_obj_style_gen.h ****     return v.color;
 329:..\..\..\arduinoLCD\test\Pain Drain\libraries\lvgl\src\widgets\../core/lv_obj_style_gen.h **** }
 330:..\..\..\arduinoLCD\test\Pain Drain\libraries\lvgl\src\widgets\../core/lv_obj_style_gen.h **** 
 331:..\..\..\arduinoLCD\test\Pain Drain\libraries\lvgl\src\widgets\../core/lv_obj_style_gen.h **** static inline lv_color_t lv_obj_get_style_shadow_color_filtered(const struct _lv_obj_t * obj, uint3
 332:..\..\..\arduinoLCD\test\Pain Drain\libraries\lvgl\src\widgets\../core/lv_obj_style_gen.h **** {
 333:..\..\..\arduinoLCD\test\Pain Drain\libraries\lvgl\src\widgets\../core/lv_obj_style_gen.h ****     lv_style_value_t v = _lv_obj_style_apply_color_filter(obj, part, lv_obj_get_style_prop(obj, par
 334:..\..\..\arduinoLCD\test\Pain Drain\libraries\lvgl\src\widgets\../core/lv_obj_style_gen.h ****     return v.color;
 335:..\..\..\arduinoLCD\test\Pain Drain\libraries\lvgl\src\widgets\../core/lv_obj_style_gen.h **** }
ARM GAS  C:\Users\haske\AppData\Local\Temp\ccGWO5DZ.s 			page 22


 336:..\..\..\arduinoLCD\test\Pain Drain\libraries\lvgl\src\widgets\../core/lv_obj_style_gen.h **** 
 337:..\..\..\arduinoLCD\test\Pain Drain\libraries\lvgl\src\widgets\../core/lv_obj_style_gen.h **** static inline lv_opa_t lv_obj_get_style_shadow_opa(const struct _lv_obj_t * obj, uint32_t part)
 338:..\..\..\arduinoLCD\test\Pain Drain\libraries\lvgl\src\widgets\../core/lv_obj_style_gen.h **** {
 339:..\..\..\arduinoLCD\test\Pain Drain\libraries\lvgl\src\widgets\../core/lv_obj_style_gen.h ****     lv_style_value_t v = lv_obj_get_style_prop(obj, part, LV_STYLE_SHADOW_OPA);
 340:..\..\..\arduinoLCD\test\Pain Drain\libraries\lvgl\src\widgets\../core/lv_obj_style_gen.h ****     return (lv_opa_t)v.num;
 341:..\..\..\arduinoLCD\test\Pain Drain\libraries\lvgl\src\widgets\../core/lv_obj_style_gen.h **** }
 342:..\..\..\arduinoLCD\test\Pain Drain\libraries\lvgl\src\widgets\../core/lv_obj_style_gen.h **** 
 343:..\..\..\arduinoLCD\test\Pain Drain\libraries\lvgl\src\widgets\../core/lv_obj_style_gen.h **** static inline lv_opa_t lv_obj_get_style_img_opa(const struct _lv_obj_t * obj, uint32_t part)
 344:..\..\..\arduinoLCD\test\Pain Drain\libraries\lvgl\src\widgets\../core/lv_obj_style_gen.h **** {
 345:..\..\..\arduinoLCD\test\Pain Drain\libraries\lvgl\src\widgets\../core/lv_obj_style_gen.h ****     lv_style_value_t v = lv_obj_get_style_prop(obj, part, LV_STYLE_IMG_OPA);
 192              		.loc 3 345 0
 193 005c 4622     		movs	r2, #70
 194 005e 0021     		movs	r1, #0
 195 0060 2000     		movs	r0, r4
 196              	.LVL17:
 197 0062 FFF7FEFF 		bl	lv_obj_get_style_prop
 198              	.LVL18:
 346:..\..\..\arduinoLCD\test\Pain Drain\libraries\lvgl\src\widgets\../core/lv_obj_style_gen.h ****     return (lv_opa_t)v.num;
 199              		.loc 3 346 0
 200 0066 C0B2     		uxtb	r0, r0
 201              	.LVL19:
 202              	.LBE50:
 203              	.LBE49:
 536:..\..\..\arduinoLCD\test\Pain Drain\libraries\lvgl\src\widgets/lv_img.c ****         }
 537:..\..\..\arduinoLCD\test\Pain Drain\libraries\lvgl\src\widgets/lv_img.c **** 
 538:..\..\..\arduinoLCD\test\Pain Drain\libraries\lvgl\src\widgets/lv_img.c ****         /*With not LV_OPA_COVER images can't cover an area */
 539:..\..\..\arduinoLCD\test\Pain Drain\libraries\lvgl\src\widgets/lv_img.c ****         if(lv_obj_get_style_img_opa(obj, LV_PART_MAIN) != LV_OPA_COVER) {
 204              		.loc 1 539 0
 205 0068 FF28     		cmp	r0, #255
 206 006a 02D0     		beq	.L7
 540:..\..\..\arduinoLCD\test\Pain Drain\libraries\lvgl\src\widgets/lv_img.c ****             info->res = LV_COVER_RES_NOT_COVER;
 207              		.loc 1 540 0
 208 006c 0123     		movs	r3, #1
 209 006e 3B70     		strb	r3, [r7]
 541:..\..\..\arduinoLCD\test\Pain Drain\libraries\lvgl\src\widgets/lv_img.c ****             return;
 210              		.loc 1 541 0
 211 0070 F9E1     		b	.L2
 212              	.L7:
 542:..\..\..\arduinoLCD\test\Pain Drain\libraries\lvgl\src\widgets/lv_img.c ****         }
 543:..\..\..\arduinoLCD\test\Pain Drain\libraries\lvgl\src\widgets/lv_img.c **** 
 544:..\..\..\arduinoLCD\test\Pain Drain\libraries\lvgl\src\widgets/lv_img.c ****         if(img->angle != 0) {
 213              		.loc 1 544 0
 214 0072 238E     		ldrh	r3, [r4, #48]
 215 0074 002B     		cmp	r3, #0
 216 0076 02D0     		beq	.L8
 545:..\..\..\arduinoLCD\test\Pain Drain\libraries\lvgl\src\widgets/lv_img.c ****             info->res = LV_COVER_RES_NOT_COVER;
 217              		.loc 1 545 0
 218 0078 0123     		movs	r3, #1
 219 007a 3B70     		strb	r3, [r7]
 546:..\..\..\arduinoLCD\test\Pain Drain\libraries\lvgl\src\widgets/lv_img.c ****             return;
 220              		.loc 1 546 0
 221 007c F3E1     		b	.L2
 222              	.L8:
 547:..\..\..\arduinoLCD\test\Pain Drain\libraries\lvgl\src\widgets/lv_img.c ****         }
 548:..\..\..\arduinoLCD\test\Pain Drain\libraries\lvgl\src\widgets/lv_img.c **** 
 549:..\..\..\arduinoLCD\test\Pain Drain\libraries\lvgl\src\widgets/lv_img.c ****         const lv_area_t * clip_area = lv_event_get_param(e);
 223              		.loc 1 549 0
ARM GAS  C:\Users\haske\AppData\Local\Temp\ccGWO5DZ.s 			page 23


 224 007e 0398     		ldr	r0, [sp, #12]
 225 0080 FFF7FEFF 		bl	lv_event_get_param
 226              	.LVL20:
 227 0084 0390     		str	r0, [sp, #12]
 228              	.LVL21:
 550:..\..\..\arduinoLCD\test\Pain Drain\libraries\lvgl\src\widgets/lv_img.c ****         if(img->zoom == LV_IMG_ZOOM_NONE) {
 229              		.loc 1 550 0
 230 0086 E28E     		ldrh	r2, [r4, #54]
 231 0088 8023     		movs	r3, #128
 232 008a 5B00     		lsls	r3, r3, #1
 233 008c 9A42     		cmp	r2, r3
 234 008e 0AD1     		bne	.L9
 551:..\..\..\arduinoLCD\test\Pain Drain\libraries\lvgl\src\widgets/lv_img.c ****             if(_lv_area_is_in(clip_area, &obj->coords, 0) == false) {
 235              		.loc 1 551 0
 236 0090 2100     		movs	r1, r4
 237 0092 1431     		adds	r1, r1, #20
 238 0094 0022     		movs	r2, #0
 239 0096 FFF7FEFF 		bl	_lv_area_is_in
 240              	.LVL22:
 241 009a 0028     		cmp	r0, #0
 242 009c 00D0     		beq	.LCB206
 243 009e E2E1     		b	.L2	@long jump
 244              	.LCB206:
 552:..\..\..\arduinoLCD\test\Pain Drain\libraries\lvgl\src\widgets/lv_img.c ****                 info->res = LV_COVER_RES_NOT_COVER;
 245              		.loc 1 552 0
 246 00a0 0123     		movs	r3, #1
 247 00a2 3B70     		strb	r3, [r7]
 553:..\..\..\arduinoLCD\test\Pain Drain\libraries\lvgl\src\widgets/lv_img.c ****                 return;
 248              		.loc 1 553 0
 249 00a4 DFE1     		b	.L2
 250              	.LVL23:
 251              	.L9:
 252              	.LBB51:
 554:..\..\..\arduinoLCD\test\Pain Drain\libraries\lvgl\src\widgets/lv_img.c ****             }
 555:..\..\..\arduinoLCD\test\Pain Drain\libraries\lvgl\src\widgets/lv_img.c ****         }
 556:..\..\..\arduinoLCD\test\Pain Drain\libraries\lvgl\src\widgets/lv_img.c ****         else {
 557:..\..\..\arduinoLCD\test\Pain Drain\libraries\lvgl\src\widgets/lv_img.c ****             lv_area_t a;
 558:..\..\..\arduinoLCD\test\Pain Drain\libraries\lvgl\src\widgets/lv_img.c ****             _lv_img_buf_get_transformed_area(&a, lv_obj_get_width(obj), lv_obj_get_height(obj), 0, 
 253              		.loc 1 558 0
 254 00a6 2000     		movs	r0, r4
 255              	.LVL24:
 256 00a8 FFF7FEFF 		bl	lv_obj_get_width
 257              	.LVL25:
 258 00ac 0600     		movs	r6, r0
 259              	.LVL26:
 260 00ae 2000     		movs	r0, r4
 261 00b0 FFF7FEFF 		bl	lv_obj_get_height
 262              	.LVL27:
 263 00b4 0200     		movs	r2, r0
 264 00b6 2300     		movs	r3, r4
 265 00b8 3233     		adds	r3, r3, #50
 266 00ba 12AD     		add	r5, sp, #72
 267 00bc 0193     		str	r3, [sp, #4]
 268 00be E38E     		ldrh	r3, [r4, #54]
 269 00c0 0093     		str	r3, [sp]
 270 00c2 0023     		movs	r3, #0
 271 00c4 3100     		movs	r1, r6
ARM GAS  C:\Users\haske\AppData\Local\Temp\ccGWO5DZ.s 			page 24


 272 00c6 2800     		movs	r0, r5
 273 00c8 FFF7FEFF 		bl	_lv_img_buf_get_transformed_area
 274              	.LVL28:
 559:..\..\..\arduinoLCD\test\Pain Drain\libraries\lvgl\src\widgets/lv_img.c ****             a.x1 += obj->coords.x1;
 275              		.loc 1 559 0
 276 00cc A68A     		ldrh	r6, [r4, #20]
 277 00ce 2B88     		ldrh	r3, [r5]
 278 00d0 F318     		adds	r3, r6, r3
 279 00d2 2B80     		strh	r3, [r5]
 560:..\..\..\arduinoLCD\test\Pain Drain\libraries\lvgl\src\widgets/lv_img.c ****             a.y1 += obj->coords.y1;
 280              		.loc 1 560 0
 281 00d4 E08A     		ldrh	r0, [r4, #22]
 282 00d6 6988     		ldrh	r1, [r5, #2]
 283 00d8 4118     		adds	r1, r0, r1
 284 00da 6980     		strh	r1, [r5, #2]
 561:..\..\..\arduinoLCD\test\Pain Drain\libraries\lvgl\src\widgets/lv_img.c ****             a.x2 += obj->coords.x1;
 285              		.loc 1 561 0
 286 00dc AA88     		ldrh	r2, [r5, #4]
 287 00de B218     		adds	r2, r6, r2
 288 00e0 AA80     		strh	r2, [r5, #4]
 562:..\..\..\arduinoLCD\test\Pain Drain\libraries\lvgl\src\widgets/lv_img.c ****             a.y2 += obj->coords.y1;
 289              		.loc 1 562 0
 290 00e2 EB88     		ldrh	r3, [r5, #6]
 291 00e4 C318     		adds	r3, r0, r3
 292 00e6 EB80     		strh	r3, [r5, #6]
 563:..\..\..\arduinoLCD\test\Pain Drain\libraries\lvgl\src\widgets/lv_img.c **** 
 564:..\..\..\arduinoLCD\test\Pain Drain\libraries\lvgl\src\widgets/lv_img.c ****             if(_lv_area_is_in(clip_area, &a, 0) == false) {
 293              		.loc 1 564 0
 294 00e8 0022     		movs	r2, #0
 295 00ea 2900     		movs	r1, r5
 296 00ec 0398     		ldr	r0, [sp, #12]
 297 00ee FFF7FEFF 		bl	_lv_area_is_in
 298              	.LVL29:
 299 00f2 0028     		cmp	r0, #0
 300 00f4 00D0     		beq	.LCB259
 301 00f6 B6E1     		b	.L2	@long jump
 302              	.LCB259:
 565:..\..\..\arduinoLCD\test\Pain Drain\libraries\lvgl\src\widgets/lv_img.c ****                 info->res = LV_COVER_RES_NOT_COVER;
 303              		.loc 1 565 0
 304 00f8 0123     		movs	r3, #1
 305 00fa 3B70     		strb	r3, [r7]
 306 00fc B3E1     		b	.L2
 307              	.LVL30:
 308              	.L3:
 309              	.LBE51:
 310              	.LBE48:
 566:..\..\..\arduinoLCD\test\Pain Drain\libraries\lvgl\src\widgets/lv_img.c ****                 return;
 567:..\..\..\arduinoLCD\test\Pain Drain\libraries\lvgl\src\widgets/lv_img.c ****             }
 568:..\..\..\arduinoLCD\test\Pain Drain\libraries\lvgl\src\widgets/lv_img.c ****         }
 569:..\..\..\arduinoLCD\test\Pain Drain\libraries\lvgl\src\widgets/lv_img.c ****     }
 570:..\..\..\arduinoLCD\test\Pain Drain\libraries\lvgl\src\widgets/lv_img.c ****     else if(code == LV_EVENT_DRAW_MAIN || code == LV_EVENT_DRAW_POST) {
 311              		.loc 1 570 0
 312 00fe 152E     		cmp	r6, #21
 313 0100 02D0     		beq	.L11
 314              		.loc 1 570 0 is_stmt 0 discriminator 1
 315 0102 182E     		cmp	r6, #24
 316 0104 00D0     		beq	.LCB277
ARM GAS  C:\Users\haske\AppData\Local\Temp\ccGWO5DZ.s 			page 25


 317 0106 AEE1     		b	.L2	@long jump
 318              	.LCB277:
 319              	.L11:
 320              	.LBB52:
 571:..\..\..\arduinoLCD\test\Pain Drain\libraries\lvgl\src\widgets/lv_img.c **** 
 572:..\..\..\arduinoLCD\test\Pain Drain\libraries\lvgl\src\widgets/lv_img.c ****         lv_coord_t obj_w = lv_obj_get_width(obj);
 321              		.loc 1 572 0 is_stmt 1
 322 0108 2000     		movs	r0, r4
 323              	.LVL31:
 324 010a FFF7FEFF 		bl	lv_obj_get_width
 325              	.LVL32:
 326 010e 0490     		str	r0, [sp, #16]
 327              	.LVL33:
 573:..\..\..\arduinoLCD\test\Pain Drain\libraries\lvgl\src\widgets/lv_img.c ****         lv_coord_t obj_h = lv_obj_get_height(obj);
 328              		.loc 1 573 0
 329 0110 2000     		movs	r0, r4
 330 0112 FFF7FEFF 		bl	lv_obj_get_height
 331              	.LVL34:
 332 0116 0700     		movs	r7, r0
 333              	.LVL35:
 334              	.LBB53:
 335              	.LBB54:
 255:..\..\..\arduinoLCD\test\Pain Drain\libraries\lvgl\src\widgets\../core/lv_obj_style_gen.h ****     return (lv_coord_t)v.num;
 336              		.loc 3 255 0
 337 0118 3222     		movs	r2, #50
 338 011a 0021     		movs	r1, #0
 339 011c 2000     		movs	r0, r4
 340 011e FFF7FEFF 		bl	lv_obj_get_style_prop
 341              	.LVL36:
 342 0122 0500     		movs	r5, r0
 343              	.LVL37:
 344              	.LBE54:
 345              	.LBE53:
 346              	.LBB55:
 347              	.LBB56:
 117:..\..\..\arduinoLCD\test\Pain Drain\libraries\lvgl\src\widgets\../core/lv_obj_style_gen.h ****     return (lv_coord_t)v.num;
 348              		.loc 3 117 0
 349 0124 1222     		movs	r2, #18
 350 0126 0021     		movs	r1, #0
 351 0128 2000     		movs	r0, r4
 352 012a FFF7FEFF 		bl	lv_obj_get_style_prop
 353              	.LVL38:
 354              	.LBE56:
 355              	.LBE55:
 574:..\..\..\arduinoLCD\test\Pain Drain\libraries\lvgl\src\widgets/lv_img.c **** 
 575:..\..\..\arduinoLCD\test\Pain Drain\libraries\lvgl\src\widgets/lv_img.c ****         lv_coord_t border_width = lv_obj_get_style_border_width(obj, LV_PART_MAIN);
 576:..\..\..\arduinoLCD\test\Pain Drain\libraries\lvgl\src\widgets/lv_img.c ****         lv_coord_t pleft = lv_obj_get_style_pad_left(obj, LV_PART_MAIN) + border_width;
 356              		.loc 1 576 0
 357 012e ADB2     		uxth	r5, r5
 358              	.LVL39:
 359 0130 2818     		adds	r0, r5, r0
 360              	.LVL40:
 361 0132 83B2     		uxth	r3, r0
 362 0134 9A46     		mov	r10, r3
 363              	.LVL41:
 364              	.LBB57:
 365              	.LBB58:
ARM GAS  C:\Users\haske\AppData\Local\Temp\ccGWO5DZ.s 			page 26


 123:..\..\..\arduinoLCD\test\Pain Drain\libraries\lvgl\src\widgets\../core/lv_obj_style_gen.h ****     return (lv_coord_t)v.num;
 366              		.loc 3 123 0
 367 0136 1322     		movs	r2, #19
 368 0138 0021     		movs	r1, #0
 369 013a 2000     		movs	r0, r4
 370 013c FFF7FEFF 		bl	lv_obj_get_style_prop
 371              	.LVL42:
 372              	.LBE58:
 373              	.LBE57:
 577:..\..\..\arduinoLCD\test\Pain Drain\libraries\lvgl\src\widgets/lv_img.c ****         lv_coord_t pright = lv_obj_get_style_pad_right(obj, LV_PART_MAIN) + border_width;
 374              		.loc 1 577 0
 375 0140 2818     		adds	r0, r5, r0
 376              	.LVL43:
 377 0142 83B2     		uxth	r3, r0
 378 0144 0593     		str	r3, [sp, #20]
 379              	.LVL44:
 380              	.LBB59:
 381              	.LBB60:
 105:..\..\..\arduinoLCD\test\Pain Drain\libraries\lvgl\src\widgets\../core/lv_obj_style_gen.h ****     return (lv_coord_t)v.num;
 382              		.loc 3 105 0
 383 0146 1022     		movs	r2, #16
 384 0148 0021     		movs	r1, #0
 385 014a 2000     		movs	r0, r4
 386 014c FFF7FEFF 		bl	lv_obj_get_style_prop
 387              	.LVL45:
 388              	.LBE60:
 389              	.LBE59:
 578:..\..\..\arduinoLCD\test\Pain Drain\libraries\lvgl\src\widgets/lv_img.c ****         lv_coord_t ptop = lv_obj_get_style_pad_top(obj, LV_PART_MAIN) + border_width;
 390              		.loc 1 578 0
 391 0150 2818     		adds	r0, r5, r0
 392              	.LVL46:
 393 0152 83B2     		uxth	r3, r0
 394 0154 9846     		mov	r8, r3
 395              	.LVL47:
 396              	.LBB61:
 397              	.LBB62:
 111:..\..\..\arduinoLCD\test\Pain Drain\libraries\lvgl\src\widgets\../core/lv_obj_style_gen.h ****     return (lv_coord_t)v.num;
 398              		.loc 3 111 0
 399 0156 1122     		movs	r2, #17
 400 0158 0021     		movs	r1, #0
 401 015a 2000     		movs	r0, r4
 402 015c FFF7FEFF 		bl	lv_obj_get_style_prop
 403              	.LVL48:
 404              	.LBE62:
 405              	.LBE61:
 579:..\..\..\arduinoLCD\test\Pain Drain\libraries\lvgl\src\widgets/lv_img.c ****         lv_coord_t pbottom = lv_obj_get_style_pad_bottom(obj, LV_PART_MAIN) + border_width;
 406              		.loc 1 579 0
 407 0160 2D18     		adds	r5, r5, r0
 408 0162 ABB2     		uxth	r3, r5
 409 0164 0693     		str	r3, [sp, #24]
 410              	.LVL49:
 580:..\..\..\arduinoLCD\test\Pain Drain\libraries\lvgl\src\widgets/lv_img.c **** 
 581:..\..\..\arduinoLCD\test\Pain Drain\libraries\lvgl\src\widgets/lv_img.c ****         lv_point_t bg_pivot;
 582:..\..\..\arduinoLCD\test\Pain Drain\libraries\lvgl\src\widgets/lv_img.c ****         bg_pivot.x = img->pivot.x + pleft;
 411              		.loc 1 582 0
 412 0166 3222     		movs	r2, #50
 413 0168 A35E     		ldrsh	r3, [r4, r2]
ARM GAS  C:\Users\haske\AppData\Local\Temp\ccGWO5DZ.s 			page 27


 414 016a 08AA     		add	r2, sp, #32
 415 016c 5344     		add	r3, r3, r10
 416 016e 1380     		strh	r3, [r2]
 583:..\..\..\arduinoLCD\test\Pain Drain\libraries\lvgl\src\widgets/lv_img.c ****         bg_pivot.y = img->pivot.y + ptop;
 417              		.loc 1 583 0
 418 0170 3421     		movs	r1, #52
 419 0172 635E     		ldrsh	r3, [r4, r1]
 420 0174 4344     		add	r3, r3, r8
 421 0176 5380     		strh	r3, [r2, #2]
 584:..\..\..\arduinoLCD\test\Pain Drain\libraries\lvgl\src\widgets/lv_img.c ****         lv_area_t bg_coords;
 585:..\..\..\arduinoLCD\test\Pain Drain\libraries\lvgl\src\widgets/lv_img.c **** 
 586:..\..\..\arduinoLCD\test\Pain Drain\libraries\lvgl\src\widgets/lv_img.c ****         if(img->obj_size_mode == LV_IMG_SIZE_MODE_REAL) {
 422              		.loc 1 586 0
 423 0178 3923     		movs	r3, #57
 424 017a E35C     		ldrb	r3, [r4, r3]
 425 017c 0322     		movs	r2, #3
 426 017e 1340     		ands	r3, r2
 427 0180 012B     		cmp	r3, #1
 428 0182 04D1     		bne	.L12
 587:..\..\..\arduinoLCD\test\Pain Drain\libraries\lvgl\src\widgets/lv_img.c ****             /*Object size equals to transformed image size*/
 588:..\..\..\arduinoLCD\test\Pain Drain\libraries\lvgl\src\widgets/lv_img.c ****             lv_obj_get_coords(obj, &bg_coords);
 429              		.loc 1 588 0
 430 0184 0AA9     		add	r1, sp, #40
 431 0186 2000     		movs	r0, r4
 432              	.LVL50:
 433 0188 FFF7FEFF 		bl	lv_obj_get_coords
 434              	.LVL51:
 435 018c 19E0     		b	.L13
 436              	.LVL52:
 437              	.L12:
 589:..\..\..\arduinoLCD\test\Pain Drain\libraries\lvgl\src\widgets/lv_img.c ****         }
 590:..\..\..\arduinoLCD\test\Pain Drain\libraries\lvgl\src\widgets/lv_img.c ****         else {
 591:..\..\..\arduinoLCD\test\Pain Drain\libraries\lvgl\src\widgets/lv_img.c ****             _lv_img_buf_get_transformed_area(&bg_coords, obj_w, obj_h,
 438              		.loc 1 591 0
 439 018e 3022     		movs	r2, #48
 440 0190 A35E     		ldrsh	r3, [r4, r2]
 441 0192 0AAD     		add	r5, sp, #40
 442 0194 08AA     		add	r2, sp, #32
 443 0196 0192     		str	r2, [sp, #4]
 444 0198 E28E     		ldrh	r2, [r4, #54]
 445 019a 0092     		str	r2, [sp]
 446 019c 3A00     		movs	r2, r7
 447 019e 0499     		ldr	r1, [sp, #16]
 448 01a0 2800     		movs	r0, r5
 449              	.LVL53:
 450 01a2 FFF7FEFF 		bl	_lv_img_buf_get_transformed_area
 451              	.LVL54:
 592:..\..\..\arduinoLCD\test\Pain Drain\libraries\lvgl\src\widgets/lv_img.c ****                                              img->angle, img->zoom, &bg_pivot);
 593:..\..\..\arduinoLCD\test\Pain Drain\libraries\lvgl\src\widgets/lv_img.c **** 
 594:..\..\..\arduinoLCD\test\Pain Drain\libraries\lvgl\src\widgets/lv_img.c ****             /*Modify the coordinates to draw the background for the rotated and scaled coordinates*
 595:..\..\..\arduinoLCD\test\Pain Drain\libraries\lvgl\src\widgets/lv_img.c ****             bg_coords.x1 += obj->coords.x1;
 452              		.loc 1 595 0
 453 01a6 A38A     		ldrh	r3, [r4, #20]
 454 01a8 2A88     		ldrh	r2, [r5]
 455 01aa 9A18     		adds	r2, r3, r2
 456 01ac 2A80     		strh	r2, [r5]
 596:..\..\..\arduinoLCD\test\Pain Drain\libraries\lvgl\src\widgets/lv_img.c ****             bg_coords.y1 += obj->coords.y1;
ARM GAS  C:\Users\haske\AppData\Local\Temp\ccGWO5DZ.s 			page 28


 457              		.loc 1 596 0
 458 01ae E08A     		ldrh	r0, [r4, #22]
 459 01b0 6988     		ldrh	r1, [r5, #2]
 460 01b2 4118     		adds	r1, r0, r1
 461 01b4 6980     		strh	r1, [r5, #2]
 597:..\..\..\arduinoLCD\test\Pain Drain\libraries\lvgl\src\widgets/lv_img.c ****             bg_coords.x2 += obj->coords.x1;
 462              		.loc 1 597 0
 463 01b6 AA88     		ldrh	r2, [r5, #4]
 464 01b8 9A18     		adds	r2, r3, r2
 465 01ba AA80     		strh	r2, [r5, #4]
 598:..\..\..\arduinoLCD\test\Pain Drain\libraries\lvgl\src\widgets/lv_img.c ****             bg_coords.y2 += obj->coords.y1;
 466              		.loc 1 598 0
 467 01bc EB88     		ldrh	r3, [r5, #6]
 468 01be C318     		adds	r3, r0, r3
 469 01c0 EB80     		strh	r3, [r5, #6]
 470              	.L13:
 471              	.LVL55:
 472              	.LBB63:
 473              	.LBB64:
 112:c:\projects\paindrain\arduinolcd\test\pain drain\libraries\lvgl\src\misc\lv_area.h ****     dest->y1 = src->y1;
 474              		.loc 2 112 0
 475 01c2 1422     		movs	r2, #20
 476 01c4 A35E     		ldrsh	r3, [r4, r2]
 477 01c6 9B46     		mov	fp, r3
 113:c:\projects\paindrain\arduinolcd\test\pain drain\libraries\lvgl\src\misc\lv_area.h ****     dest->x2 = src->x2;
 478              		.loc 2 113 0
 479 01c8 1623     		movs	r3, #22
 480 01ca E75E     		ldrsh	r7, [r4, r3]
 481              	.LVL56:
 114:c:\projects\paindrain\arduinolcd\test\pain drain\libraries\lvgl\src\misc\lv_area.h ****     dest->y2 = src->y2;
 482              		.loc 2 114 0
 483 01cc 1822     		movs	r2, #24
 484 01ce A35E     		ldrsh	r3, [r4, r2]
 485 01d0 9946     		mov	r9, r3
 115:c:\projects\paindrain\arduinolcd\test\pain drain\libraries\lvgl\src\misc\lv_area.h **** }
 486              		.loc 2 115 0
 487 01d2 1A23     		movs	r3, #26
 488 01d4 E55E     		ldrsh	r5, [r4, r3]
 489              	.LVL57:
 490              	.LBE64:
 491              	.LBE63:
 492              	.LBB65:
 493              	.LBB66:
 112:c:\projects\paindrain\arduinolcd\test\pain drain\libraries\lvgl\src\misc\lv_area.h ****     dest->y1 = src->y1;
 494              		.loc 2 112 0
 495 01d6 0AAB     		add	r3, sp, #40
 496              	.LVL58:
 497 01d8 0021     		movs	r1, #0
 498 01da 5A5E     		ldrsh	r2, [r3, r1]
 499 01dc A282     		strh	r2, [r4, #20]
 113:c:\projects\paindrain\arduinolcd\test\pain drain\libraries\lvgl\src\misc\lv_area.h ****     dest->x2 = src->x2;
 500              		.loc 2 113 0
 501 01de 0221     		movs	r1, #2
 502 01e0 5A5E     		ldrsh	r2, [r3, r1]
 503 01e2 E282     		strh	r2, [r4, #22]
 114:c:\projects\paindrain\arduinolcd\test\pain drain\libraries\lvgl\src\misc\lv_area.h ****     dest->y2 = src->y2;
 504              		.loc 2 114 0
ARM GAS  C:\Users\haske\AppData\Local\Temp\ccGWO5DZ.s 			page 29


 505 01e4 0421     		movs	r1, #4
 506 01e6 5A5E     		ldrsh	r2, [r3, r1]
 507 01e8 2283     		strh	r2, [r4, #24]
 115:c:\projects\paindrain\arduinolcd\test\pain drain\libraries\lvgl\src\misc\lv_area.h **** }
 508              		.loc 2 115 0
 509 01ea 0622     		movs	r2, #6
 510 01ec 9B5E     		ldrsh	r3, [r3, r2]
 511              	.LVL59:
 512 01ee 6383     		strh	r3, [r4, #26]
 513              	.LVL60:
 514              	.LBE66:
 515              	.LBE65:
 599:..\..\..\arduinoLCD\test\Pain Drain\libraries\lvgl\src\widgets/lv_img.c ****         }
 600:..\..\..\arduinoLCD\test\Pain Drain\libraries\lvgl\src\widgets/lv_img.c **** 
 601:..\..\..\arduinoLCD\test\Pain Drain\libraries\lvgl\src\widgets/lv_img.c ****         lv_area_t ori_coords;
 602:..\..\..\arduinoLCD\test\Pain Drain\libraries\lvgl\src\widgets/lv_img.c ****         lv_area_copy(&ori_coords, &obj->coords);
 603:..\..\..\arduinoLCD\test\Pain Drain\libraries\lvgl\src\widgets/lv_img.c ****         lv_area_copy(&obj->coords, &bg_coords);
 604:..\..\..\arduinoLCD\test\Pain Drain\libraries\lvgl\src\widgets/lv_img.c **** 
 605:..\..\..\arduinoLCD\test\Pain Drain\libraries\lvgl\src\widgets/lv_img.c ****         lv_res_t res = lv_obj_event_base(MY_CLASS, e);
 516              		.loc 1 605 0
 517 01f0 0399     		ldr	r1, [sp, #12]
 518 01f2 A048     		ldr	r0, .L29
 519 01f4 FFF7FEFF 		bl	lv_obj_event_base
 520              	.LVL61:
 606:..\..\..\arduinoLCD\test\Pain Drain\libraries\lvgl\src\widgets/lv_img.c ****         if(res != LV_RES_OK) return;
 521              		.loc 1 606 0
 522 01f8 0128     		cmp	r0, #1
 523 01fa 00D0     		beq	.LCB482
 524 01fc 33E1     		b	.L2	@long jump
 525              	.LCB482:
 526              	.LVL62:
 527              	.LBB67:
 528              	.LBB68:
 112:c:\projects\paindrain\arduinolcd\test\pain drain\libraries\lvgl\src\misc\lv_area.h ****     dest->y1 = src->y1;
 529              		.loc 2 112 0
 530 01fe 5B46     		mov	r3, fp
 531 0200 A382     		strh	r3, [r4, #20]
 113:c:\projects\paindrain\arduinolcd\test\pain drain\libraries\lvgl\src\misc\lv_area.h ****     dest->x2 = src->x2;
 532              		.loc 2 113 0
 533 0202 E782     		strh	r7, [r4, #22]
 114:c:\projects\paindrain\arduinolcd\test\pain drain\libraries\lvgl\src\misc\lv_area.h ****     dest->y2 = src->y2;
 534              		.loc 2 114 0
 535 0204 4B46     		mov	r3, r9
 536 0206 2383     		strh	r3, [r4, #24]
 115:c:\projects\paindrain\arduinolcd\test\pain drain\libraries\lvgl\src\misc\lv_area.h **** }
 537              		.loc 2 115 0
 538 0208 6583     		strh	r5, [r4, #26]
 539              	.LVL63:
 540              	.LBE68:
 541              	.LBE67:
 607:..\..\..\arduinoLCD\test\Pain Drain\libraries\lvgl\src\widgets/lv_img.c **** 
 608:..\..\..\arduinoLCD\test\Pain Drain\libraries\lvgl\src\widgets/lv_img.c ****         lv_area_copy(&obj->coords, &ori_coords);
 609:..\..\..\arduinoLCD\test\Pain Drain\libraries\lvgl\src\widgets/lv_img.c **** 
 610:..\..\..\arduinoLCD\test\Pain Drain\libraries\lvgl\src\widgets/lv_img.c ****         if(code == LV_EVENT_DRAW_MAIN) {
 542              		.loc 1 610 0
 543 020a 152E     		cmp	r6, #21
 544 020c 00D0     		beq	.LCB498
ARM GAS  C:\Users\haske\AppData\Local\Temp\ccGWO5DZ.s 			page 30


 545 020e 2AE1     		b	.L2	@long jump
 546              	.LCB498:
 547              	.LBB69:
 611:..\..\..\arduinoLCD\test\Pain Drain\libraries\lvgl\src\widgets/lv_img.c ****             if(img->h == 0 || img->w == 0) return;
 548              		.loc 1 611 0
 549 0210 2E22     		movs	r2, #46
 550 0212 A35E     		ldrsh	r3, [r4, r2]
 551 0214 002B     		cmp	r3, #0
 552 0216 00D1     		bne	.LCB502
 553 0218 25E1     		b	.L2	@long jump
 554              	.LCB502:
 555              		.loc 1 611 0 is_stmt 0 discriminator 1
 556 021a 2C22     		movs	r2, #44
 557 021c A35E     		ldrsh	r3, [r4, r2]
 558 021e 002B     		cmp	r3, #0
 559 0220 00D1     		bne	.LCB505
 560 0222 20E1     		b	.L2	@long jump
 561              	.LCB505:
 612:..\..\..\arduinoLCD\test\Pain Drain\libraries\lvgl\src\widgets/lv_img.c ****             if(img->zoom == 0) return;
 562              		.loc 1 612 0 is_stmt 1
 563 0224 E38E     		ldrh	r3, [r4, #54]
 564 0226 002B     		cmp	r3, #0
 565 0228 00D1     		bne	.LCB508
 566 022a 1CE1     		b	.L2	@long jump
 567              	.LCB508:
 613:..\..\..\arduinoLCD\test\Pain Drain\libraries\lvgl\src\widgets/lv_img.c **** 
 614:..\..\..\arduinoLCD\test\Pain Drain\libraries\lvgl\src\widgets/lv_img.c ****             lv_draw_ctx_t * draw_ctx = lv_event_get_draw_ctx(e);
 568              		.loc 1 614 0
 569 022c 0398     		ldr	r0, [sp, #12]
 570              	.LVL64:
 571 022e FFF7FEFF 		bl	lv_event_get_draw_ctx
 572              	.LVL65:
 573 0232 0390     		str	r0, [sp, #12]
 574              	.LVL66:
 575              	.LBB70:
 576              	.LBB71:
 112:c:\projects\paindrain\arduinolcd\test\pain drain\libraries\lvgl\src\misc\lv_area.h ****     dest->y1 = src->y1;
 577              		.loc 2 112 0
 578 0234 1423     		movs	r3, #20
 579 0236 E55E     		ldrsh	r5, [r4, r3]
 580 0238 0CAB     		add	r3, sp, #48
 581              	.LVL67:
 582 023a 1D80     		strh	r5, [r3]
 113:c:\projects\paindrain\arduinolcd\test\pain drain\libraries\lvgl\src\misc\lv_area.h ****     dest->x2 = src->x2;
 583              		.loc 2 113 0
 584 023c 1622     		movs	r2, #22
 585 023e A75E     		ldrsh	r7, [r4, r2]
 586 0240 5F80     		strh	r7, [r3, #2]
 114:c:\projects\paindrain\arduinolcd\test\pain drain\libraries\lvgl\src\misc\lv_area.h ****     dest->y2 = src->y2;
 587              		.loc 2 114 0
 588 0242 1823     		movs	r3, #24
 589 0244 E65E     		ldrsh	r6, [r4, r3]
 590              	.LVL68:
 115:c:\projects\paindrain\arduinolcd\test\pain drain\libraries\lvgl\src\misc\lv_area.h **** }
 591              		.loc 2 115 0
 592 0246 1A22     		movs	r2, #26
 593 0248 A35E     		ldrsh	r3, [r4, r2]
ARM GAS  C:\Users\haske\AppData\Local\Temp\ccGWO5DZ.s 			page 31


 594 024a 9946     		mov	r9, r3
 595              	.LVL69:
 596              	.LBE71:
 597              	.LBE70:
 615:..\..\..\arduinoLCD\test\Pain Drain\libraries\lvgl\src\widgets/lv_img.c **** 
 616:..\..\..\arduinoLCD\test\Pain Drain\libraries\lvgl\src\widgets/lv_img.c ****             lv_area_t img_max_area;
 617:..\..\..\arduinoLCD\test\Pain Drain\libraries\lvgl\src\widgets/lv_img.c ****             lv_area_copy(&img_max_area, &obj->coords);
 618:..\..\..\arduinoLCD\test\Pain Drain\libraries\lvgl\src\widgets/lv_img.c **** 
 619:..\..\..\arduinoLCD\test\Pain Drain\libraries\lvgl\src\widgets/lv_img.c ****             lv_point_t img_size_final = lv_img_get_transformed_size(obj);
 598              		.loc 1 619 0
 599 024c 2000     		movs	r0, r4
 600              	.LVL70:
 601 024e FFF7FEFF 		bl	lv_img_get_transformed_size
 602              	.LVL71:
 603 0252 0990     		str	r0, [sp, #36]
 620:..\..\..\arduinoLCD\test\Pain Drain\libraries\lvgl\src\widgets/lv_img.c **** 
 621:..\..\..\arduinoLCD\test\Pain Drain\libraries\lvgl\src\widgets/lv_img.c ****             if(img->obj_size_mode == LV_IMG_SIZE_MODE_REAL) {
 604              		.loc 1 621 0
 605 0254 3923     		movs	r3, #57
 606 0256 E35C     		ldrb	r3, [r4, r3]
 607 0258 0322     		movs	r2, #3
 608 025a 1340     		ands	r3, r2
 609 025c 012B     		cmp	r3, #1
 610 025e 1FD1     		bne	.L17
 622:..\..\..\arduinoLCD\test\Pain Drain\libraries\lvgl\src\widgets/lv_img.c ****                 img_max_area.x1 -= ((img->w - img_size_final.x) + 1) / 2;
 611              		.loc 1 622 0
 612 0260 2C22     		movs	r2, #44
 613 0262 A35E     		ldrsh	r3, [r4, r2]
 614 0264 09A9     		add	r1, sp, #36
 615 0266 0020     		movs	r0, #0
 616 0268 0A5E     		ldrsh	r2, [r1, r0]
 617 026a 9B1A     		subs	r3, r3, r2
 618 026c 0133     		adds	r3, r3, #1
 619 026e DA0F     		lsrs	r2, r3, #31
 620 0270 D318     		adds	r3, r2, r3
 621 0272 5B10     		asrs	r3, r3, #1
 622 0274 9BB2     		uxth	r3, r3
 623 0276 0CAA     		add	r2, sp, #48
 624 0278 ED1A     		subs	r5, r5, r3
 625 027a 1580     		strh	r5, [r2]
 623:..\..\..\arduinoLCD\test\Pain Drain\libraries\lvgl\src\widgets/lv_img.c ****                 img_max_area.x2 -= ((img->w - img_size_final.x) + 1) / 2;
 626              		.loc 1 623 0
 627 027c F61A     		subs	r6, r6, r3
 628 027e 9680     		strh	r6, [r2, #4]
 624:..\..\..\arduinoLCD\test\Pain Drain\libraries\lvgl\src\widgets/lv_img.c ****                 img_max_area.y1 -= ((img->h - img_size_final.y) + 1) / 2;
 629              		.loc 1 624 0
 630 0280 2E20     		movs	r0, #46
 631 0282 235E     		ldrsh	r3, [r4, r0]
 632 0284 0220     		movs	r0, #2
 633 0286 095E     		ldrsh	r1, [r1, r0]
 634 0288 5B1A     		subs	r3, r3, r1
 635 028a 0133     		adds	r3, r3, #1
 636 028c D90F     		lsrs	r1, r3, #31
 637 028e CB18     		adds	r3, r1, r3
 638 0290 5B10     		asrs	r3, r3, #1
 639 0292 9BB2     		uxth	r3, r3
 640 0294 F91A     		subs	r1, r7, r3
ARM GAS  C:\Users\haske\AppData\Local\Temp\ccGWO5DZ.s 			page 32


 641 0296 5180     		strh	r1, [r2, #2]
 625:..\..\..\arduinoLCD\test\Pain Drain\libraries\lvgl\src\widgets/lv_img.c ****                 img_max_area.y2 -= ((img->h - img_size_final.y) + 1) / 2;
 642              		.loc 1 625 0
 643 0298 4946     		mov	r1, r9
 644 029a CF1A     		subs	r7, r1, r3
 645 029c D780     		strh	r7, [r2, #6]
 646 029e 15E0     		b	.L18
 647              	.L17:
 648              	.LVL72:
 649              	.LBB72:
 650              	.LBB73:
 125:c:\projects\paindrain\arduinolcd\test\pain drain\libraries\lvgl\src\misc\lv_area.h **** }
 651              		.loc 2 125 0
 652 02a0 0AA9     		add	r1, sp, #40
 653              	.LVL73:
 654 02a2 0422     		movs	r2, #4
 655 02a4 8B5E     		ldrsh	r3, [r1, r2]
 656 02a6 0020     		movs	r0, #0
 657 02a8 0A5E     		ldrsh	r2, [r1, r0]
 658 02aa 9A1A     		subs	r2, r3, r2
 659 02ac 0132     		adds	r2, r2, #1
 660 02ae 92B2     		uxth	r2, r2
 661              	.LVL74:
 662              	.LBE73:
 663              	.LBE72:
 626:..\..\..\arduinoLCD\test\Pain Drain\libraries\lvgl\src\widgets/lv_img.c ****             }
 627:..\..\..\arduinoLCD\test\Pain Drain\libraries\lvgl\src\widgets/lv_img.c ****             else {
 628:..\..\..\arduinoLCD\test\Pain Drain\libraries\lvgl\src\widgets/lv_img.c ****                 img_max_area.x2 = img_max_area.x1 + lv_area_get_width(&bg_coords) - 1;
 664              		.loc 1 628 0
 665 02b0 0CAB     		add	r3, sp, #48
 666 02b2 5519     		adds	r5, r2, r5
 667 02b4 013D     		subs	r5, r5, #1
 668 02b6 9D80     		strh	r5, [r3, #4]
 669              	.LVL75:
 670              	.LBB74:
 671              	.LBB75:
 672              		.loc 2 135 0
 673 02b8 0620     		movs	r0, #6
 674 02ba 0A5E     		ldrsh	r2, [r1, r0]
 675 02bc 0220     		movs	r0, #2
 676 02be 095E     		ldrsh	r1, [r1, r0]
 677              	.LVL76:
 678 02c0 521A     		subs	r2, r2, r1
 679 02c2 0132     		adds	r2, r2, #1
 680 02c4 92B2     		uxth	r2, r2
 681              	.LVL77:
 682              	.LBE75:
 683              	.LBE74:
 629:..\..\..\arduinoLCD\test\Pain Drain\libraries\lvgl\src\widgets/lv_img.c ****                 img_max_area.y2 = img_max_area.y1 + lv_area_get_height(&bg_coords) - 1;
 684              		.loc 1 629 0
 685 02c6 D219     		adds	r2, r2, r7
 686 02c8 013A     		subs	r2, r2, #1
 687 02ca DA80     		strh	r2, [r3, #6]
 688              	.L18:
 630:..\..\..\arduinoLCD\test\Pain Drain\libraries\lvgl\src\widgets/lv_img.c ****             }
 631:..\..\..\arduinoLCD\test\Pain Drain\libraries\lvgl\src\widgets/lv_img.c **** 
 632:..\..\..\arduinoLCD\test\Pain Drain\libraries\lvgl\src\widgets/lv_img.c ****             img_max_area.x1 += pleft;
ARM GAS  C:\Users\haske\AppData\Local\Temp\ccGWO5DZ.s 			page 33


 689              		.loc 1 632 0
 690 02cc 0CAB     		add	r3, sp, #48
 691 02ce 1F88     		ldrh	r7, [r3]
 692 02d0 5744     		add	r7, r7, r10
 693 02d2 BFB2     		uxth	r7, r7
 694 02d4 3AB2     		sxth	r2, r7
 695 02d6 9346     		mov	fp, r2
 633:..\..\..\arduinoLCD\test\Pain Drain\libraries\lvgl\src\widgets/lv_img.c ****             img_max_area.y1 += ptop;
 696              		.loc 1 633 0
 697 02d8 5A88     		ldrh	r2, [r3, #2]
 698 02da 4244     		add	r2, r2, r8
 699 02dc 92B2     		uxth	r2, r2
 700 02de 0792     		str	r2, [sp, #28]
 701 02e0 12B2     		sxth	r2, r2
 702 02e2 9146     		mov	r9, r2
 634:..\..\..\arduinoLCD\test\Pain Drain\libraries\lvgl\src\widgets/lv_img.c ****             img_max_area.x2 -= pright;
 703              		.loc 1 634 0
 704 02e4 9E88     		ldrh	r6, [r3, #4]
 705 02e6 059A     		ldr	r2, [sp, #20]
 706 02e8 B61A     		subs	r6, r6, r2
 707 02ea 36B2     		sxth	r6, r6
 635:..\..\..\arduinoLCD\test\Pain Drain\libraries\lvgl\src\widgets/lv_img.c ****             img_max_area.y2 -= pbottom;
 708              		.loc 1 635 0
 709 02ec DD88     		ldrh	r5, [r3, #6]
 710 02ee 069B     		ldr	r3, [sp, #24]
 711 02f0 ED1A     		subs	r5, r5, r3
 712 02f2 2BB2     		sxth	r3, r5
 713 02f4 0493     		str	r3, [sp, #16]
 714              	.LVL78:
 636:..\..\..\arduinoLCD\test\Pain Drain\libraries\lvgl\src\widgets/lv_img.c **** 
 637:..\..\..\arduinoLCD\test\Pain Drain\libraries\lvgl\src\widgets/lv_img.c ****             if(img->src_type == LV_IMG_SRC_FILE || img->src_type == LV_IMG_SRC_VARIABLE) {
 715              		.loc 1 637 0
 716 02f6 3823     		movs	r3, #56
 717 02f8 E35C     		ldrb	r3, [r4, r3]
 718 02fa 0322     		movs	r2, #3
 719 02fc 1340     		ands	r3, r2
 720 02fe 012B     		cmp	r3, #1
 721 0300 00D9     		bls	.LCB640
 722 0302 95E0     		b	.L19	@long jump
 723              	.LCB640:
 724              	.LBB76:
 638:..\..\..\arduinoLCD\test\Pain Drain\libraries\lvgl\src\widgets/lv_img.c ****                 lv_draw_img_dsc_t img_dsc;
 639:..\..\..\arduinoLCD\test\Pain Drain\libraries\lvgl\src\widgets/lv_img.c ****                 lv_draw_img_dsc_init(&img_dsc);
 725              		.loc 1 639 0
 726 0304 12AD     		add	r5, sp, #72
 727 0306 2800     		movs	r0, r5
 728 0308 FFF7FEFF 		bl	lv_draw_img_dsc_init
 729              	.LVL79:
 640:..\..\..\arduinoLCD\test\Pain Drain\libraries\lvgl\src\widgets/lv_img.c ****                 lv_obj_init_draw_img_dsc(obj, LV_PART_MAIN, &img_dsc);
 730              		.loc 1 640 0
 731 030c 2A00     		movs	r2, r5
 732 030e 0021     		movs	r1, #0
 733 0310 2000     		movs	r0, r4
 734 0312 FFF7FEFF 		bl	lv_obj_init_draw_img_dsc
 735              	.LVL80:
 641:..\..\..\arduinoLCD\test\Pain Drain\libraries\lvgl\src\widgets/lv_img.c **** 
 642:..\..\..\arduinoLCD\test\Pain Drain\libraries\lvgl\src\widgets/lv_img.c ****                 img_dsc.zoom = img->zoom;
ARM GAS  C:\Users\haske\AppData\Local\Temp\ccGWO5DZ.s 			page 34


 736              		.loc 1 642 0
 737 0316 E38E     		ldrh	r3, [r4, #54]
 738 0318 6B80     		strh	r3, [r5, #2]
 643:..\..\..\arduinoLCD\test\Pain Drain\libraries\lvgl\src\widgets/lv_img.c ****                 img_dsc.angle = img->angle;
 739              		.loc 1 643 0
 740 031a 238E     		ldrh	r3, [r4, #48]
 741 031c 2B80     		strh	r3, [r5]
 644:..\..\..\arduinoLCD\test\Pain Drain\libraries\lvgl\src\widgets/lv_img.c ****                 img_dsc.pivot.x = img->pivot.x;
 742              		.loc 1 644 0
 743 031e 3222     		movs	r2, #50
 744 0320 A35E     		ldrsh	r3, [r4, r2]
 745 0322 AB80     		strh	r3, [r5, #4]
 645:..\..\..\arduinoLCD\test\Pain Drain\libraries\lvgl\src\widgets/lv_img.c ****                 img_dsc.pivot.y = img->pivot.y;
 746              		.loc 1 645 0
 747 0324 3422     		movs	r2, #52
 748 0326 A35E     		ldrsh	r3, [r4, r2]
 749 0328 EB80     		strh	r3, [r5, #6]
 646:..\..\..\arduinoLCD\test\Pain Drain\libraries\lvgl\src\widgets/lv_img.c ****                 img_dsc.antialias = img->antialias;
 750              		.loc 1 646 0
 751 032a 3823     		movs	r3, #56
 752 032c E35C     		ldrb	r3, [r4, r3]
 753 032e DA09     		lsrs	r2, r3, #7
 754 0330 2B7D     		ldrb	r3, [r5, #20]
 755 0332 0121     		movs	r1, #1
 756 0334 8B43     		bics	r3, r1
 757 0336 1343     		orrs	r3, r2
 758 0338 2B75     		strb	r3, [r5, #20]
 647:..\..\..\arduinoLCD\test\Pain Drain\libraries\lvgl\src\widgets/lv_img.c **** 
 648:..\..\..\arduinoLCD\test\Pain Drain\libraries\lvgl\src\widgets/lv_img.c ****                 lv_area_t img_clip_area;
 649:..\..\..\arduinoLCD\test\Pain Drain\libraries\lvgl\src\widgets/lv_img.c ****                 img_clip_area.x1 = bg_coords.x1 + pleft;
 759              		.loc 1 649 0
 760 033a 0AAB     		add	r3, sp, #40
 761 033c 0021     		movs	r1, #0
 762 033e 5A5E     		ldrsh	r2, [r3, r1]
 763 0340 0EA8     		add	r0, sp, #56
 764 0342 5244     		add	r2, r2, r10
 765 0344 0280     		strh	r2, [r0]
 650:..\..\..\arduinoLCD\test\Pain Drain\libraries\lvgl\src\widgets/lv_img.c ****                 img_clip_area.y1 = bg_coords.y1 + ptop;
 766              		.loc 1 650 0
 767 0346 0221     		movs	r1, #2
 768 0348 5A5E     		ldrsh	r2, [r3, r1]
 769 034a 4244     		add	r2, r2, r8
 770 034c 4280     		strh	r2, [r0, #2]
 651:..\..\..\arduinoLCD\test\Pain Drain\libraries\lvgl\src\widgets/lv_img.c ****                 img_clip_area.x2 = bg_coords.x2 - pright;
 771              		.loc 1 651 0
 772 034e 0421     		movs	r1, #4
 773 0350 5A5E     		ldrsh	r2, [r3, r1]
 774 0352 0599     		ldr	r1, [sp, #20]
 775 0354 521A     		subs	r2, r2, r1
 776 0356 8280     		strh	r2, [r0, #4]
 652:..\..\..\arduinoLCD\test\Pain Drain\libraries\lvgl\src\widgets/lv_img.c ****                 img_clip_area.y2 = bg_coords.y2 - pbottom;
 777              		.loc 1 652 0
 778 0358 0622     		movs	r2, #6
 779 035a 9B5E     		ldrsh	r3, [r3, r2]
 780 035c 069A     		ldr	r2, [sp, #24]
 781 035e 9B1A     		subs	r3, r3, r2
 782 0360 C380     		strh	r3, [r0, #6]
ARM GAS  C:\Users\haske\AppData\Local\Temp\ccGWO5DZ.s 			page 35


 653:..\..\..\arduinoLCD\test\Pain Drain\libraries\lvgl\src\widgets/lv_img.c ****                 const lv_area_t * clip_area_ori = draw_ctx->clip_area;
 783              		.loc 1 653 0
 784 0362 039D     		ldr	r5, [sp, #12]
 785 0364 AB68     		ldr	r3, [r5, #8]
 786 0366 9846     		mov	r8, r3
 787              	.LVL81:
 654:..\..\..\arduinoLCD\test\Pain Drain\libraries\lvgl\src\widgets/lv_img.c **** 
 655:..\..\..\arduinoLCD\test\Pain Drain\libraries\lvgl\src\widgets/lv_img.c ****                 if(!_lv_area_intersect(&img_clip_area, draw_ctx->clip_area, &img_clip_area)) return
 788              		.loc 1 655 0
 789 0368 0200     		movs	r2, r0
 790 036a 1900     		movs	r1, r3
 791 036c FFF7FEFF 		bl	_lv_area_intersect
 792              	.LVL82:
 793 0370 0028     		cmp	r0, #0
 794 0372 78D0     		beq	.L2
 656:..\..\..\arduinoLCD\test\Pain Drain\libraries\lvgl\src\widgets/lv_img.c ****                 draw_ctx->clip_area = &img_clip_area;
 795              		.loc 1 656 0
 796 0374 0EAB     		add	r3, sp, #56
 797 0376 AB60     		str	r3, [r5, #8]
 657:..\..\..\arduinoLCD\test\Pain Drain\libraries\lvgl\src\widgets/lv_img.c **** 
 658:..\..\..\arduinoLCD\test\Pain Drain\libraries\lvgl\src\widgets/lv_img.c ****                 lv_area_t coords_tmp;
 659:..\..\..\arduinoLCD\test\Pain Drain\libraries\lvgl\src\widgets/lv_img.c ****                 lv_coord_t offset_x = img->offset.x % img->w;
 798              		.loc 1 659 0
 799 0378 2823     		movs	r3, #40
 800 037a E05E     		ldrsh	r0, [r4, r3]
 801 037c 2C23     		movs	r3, #44
 802 037e E15E     		ldrsh	r1, [r4, r3]
 803 0380 FFF7FEFF 		bl	__aeabi_idivmod
 804              	.LVL83:
 805 0384 8A46     		mov	r10, r1
 806              	.LVL84:
 660:..\..\..\arduinoLCD\test\Pain Drain\libraries\lvgl\src\widgets/lv_img.c ****                 lv_coord_t offset_y = img->offset.y % img->h;
 807              		.loc 1 660 0
 808 0386 2A23     		movs	r3, #42
 809 0388 E05E     		ldrsh	r0, [r4, r3]
 810 038a 2E23     		movs	r3, #46
 811 038c E55E     		ldrsh	r5, [r4, r3]
 812 038e 2900     		movs	r1, r5
 813 0390 FFF7FEFF 		bl	__aeabi_idivmod
 814              	.LVL85:
 661:..\..\..\arduinoLCD\test\Pain Drain\libraries\lvgl\src\widgets/lv_img.c ****                 coords_tmp.y1 = img_max_area.y1 + offset_y;
 815              		.loc 1 661 0
 816 0394 079B     		ldr	r3, [sp, #28]
 817 0396 5B18     		adds	r3, r3, r1
 818 0398 9BB2     		uxth	r3, r3
 819 039a 1AB2     		sxth	r2, r3
 820 039c 10A9     		add	r1, sp, #64
 821              	.LVL86:
 822 039e 4A80     		strh	r2, [r1, #2]
 662:..\..\..\arduinoLCD\test\Pain Drain\libraries\lvgl\src\widgets/lv_img.c ****                 if(coords_tmp.y1 > img_max_area.y1) coords_tmp.y1 -= img->h;
 823              		.loc 1 662 0
 824 03a0 9145     		cmp	r9, r2
 825 03a2 01DA     		bge	.L21
 826              		.loc 1 662 0 is_stmt 0 discriminator 1
 827 03a4 5B1B     		subs	r3, r3, r5
 828 03a6 4B80     		strh	r3, [r1, #2]
 829              	.L21:
ARM GAS  C:\Users\haske\AppData\Local\Temp\ccGWO5DZ.s 			page 36


 663:..\..\..\arduinoLCD\test\Pain Drain\libraries\lvgl\src\widgets/lv_img.c ****                 coords_tmp.y2 = coords_tmp.y1 + img->h - 1;
 830              		.loc 1 663 0 is_stmt 1
 831 03a8 10AB     		add	r3, sp, #64
 832 03aa 0221     		movs	r1, #2
 833 03ac 5A5E     		ldrsh	r2, [r3, r1]
 834 03ae 5219     		adds	r2, r2, r5
 835 03b0 013A     		subs	r2, r2, #1
 836 03b2 DA80     		strh	r2, [r3, #6]
 664:..\..\..\arduinoLCD\test\Pain Drain\libraries\lvgl\src\widgets/lv_img.c **** 
 665:..\..\..\arduinoLCD\test\Pain Drain\libraries\lvgl\src\widgets/lv_img.c ****                 for(; coords_tmp.y1 < img_max_area.y2; coords_tmp.y1 += img_size_final.y, coords_tm
 837              		.loc 1 665 0
 838 03b4 32E0     		b	.L22
 839              	.L26:
 666:..\..\..\arduinoLCD\test\Pain Drain\libraries\lvgl\src\widgets/lv_img.c ****                     coords_tmp.x1 = img_max_area.x1 + offset_x;
 840              		.loc 1 666 0
 841 03b6 5346     		mov	r3, r10
 842 03b8 FB18     		adds	r3, r7, r3
 843 03ba 9BB2     		uxth	r3, r3
 844 03bc 1AB2     		sxth	r2, r3
 845 03be 10A9     		add	r1, sp, #64
 846 03c0 0A80     		strh	r2, [r1]
 667:..\..\..\arduinoLCD\test\Pain Drain\libraries\lvgl\src\widgets/lv_img.c ****                     if(coords_tmp.x1 > img_max_area.x1) coords_tmp.x1 -= img->w;
 847              		.loc 1 667 0
 848 03c2 9345     		cmp	fp, r2
 849 03c4 04DA     		bge	.L23
 850              		.loc 1 667 0 is_stmt 0 discriminator 1
 851 03c6 2C21     		movs	r1, #44
 852 03c8 625E     		ldrsh	r2, [r4, r1]
 853 03ca 9B1A     		subs	r3, r3, r2
 854 03cc 10AA     		add	r2, sp, #64
 855 03ce 1380     		strh	r3, [r2]
 856              	.L23:
 668:..\..\..\arduinoLCD\test\Pain Drain\libraries\lvgl\src\widgets/lv_img.c ****                     coords_tmp.x2 = coords_tmp.x1 + img->w - 1;
 857              		.loc 1 668 0 is_stmt 1
 858 03d0 10AA     		add	r2, sp, #64
 859 03d2 0023     		movs	r3, #0
 860 03d4 D15E     		ldrsh	r1, [r2, r3]
 861 03d6 2C20     		movs	r0, #44
 862 03d8 235E     		ldrsh	r3, [r4, r0]
 863 03da CB18     		adds	r3, r1, r3
 864 03dc 013B     		subs	r3, r3, #1
 865 03de 9380     		strh	r3, [r2, #4]
 669:..\..\..\arduinoLCD\test\Pain Drain\libraries\lvgl\src\widgets/lv_img.c **** 
 670:..\..\..\arduinoLCD\test\Pain Drain\libraries\lvgl\src\widgets/lv_img.c ****                     for(; coords_tmp.x1 < img_max_area.x2; coords_tmp.x1 += img_size_final.x, coord
 866              		.loc 1 670 0
 867 03e0 0EE0     		b	.L24
 868              	.L25:
 671:..\..\..\arduinoLCD\test\Pain Drain\libraries\lvgl\src\widgets/lv_img.c ****                         lv_draw_img(draw_ctx, &img_dsc, &coords_tmp, img->src);
 869              		.loc 1 671 0 discriminator 2
 870 03e2 10AD     		add	r5, sp, #64
 871 03e4 636A     		ldr	r3, [r4, #36]
 872 03e6 2A00     		movs	r2, r5
 873 03e8 12A9     		add	r1, sp, #72
 874 03ea 0398     		ldr	r0, [sp, #12]
 875 03ec FFF7FEFF 		bl	lv_draw_img
 876              	.LVL87:
 670:..\..\..\arduinoLCD\test\Pain Drain\libraries\lvgl\src\widgets/lv_img.c ****                         lv_draw_img(draw_ctx, &img_dsc, &coords_tmp, img->src);
ARM GAS  C:\Users\haske\AppData\Local\Temp\ccGWO5DZ.s 			page 37


 877              		.loc 1 670 0 discriminator 2
 878 03f0 09AB     		add	r3, sp, #36
 879 03f2 1988     		ldrh	r1, [r3]
 880 03f4 2A88     		ldrh	r2, [r5]
 881 03f6 8A18     		adds	r2, r1, r2
 882 03f8 2A80     		strh	r2, [r5]
 883 03fa AB88     		ldrh	r3, [r5, #4]
 884 03fc CB18     		adds	r3, r1, r3
 885 03fe AB80     		strh	r3, [r5, #4]
 886              	.L24:
 670:..\..\..\arduinoLCD\test\Pain Drain\libraries\lvgl\src\widgets/lv_img.c ****                         lv_draw_img(draw_ctx, &img_dsc, &coords_tmp, img->src);
 887              		.loc 1 670 0 is_stmt 0 discriminator 1
 888 0400 10AB     		add	r3, sp, #64
 889 0402 0022     		movs	r2, #0
 890 0404 9B5E     		ldrsh	r3, [r3, r2]
 891 0406 9E42     		cmp	r6, r3
 892 0408 EBDC     		bgt	.L25
 665:..\..\..\arduinoLCD\test\Pain Drain\libraries\lvgl\src\widgets/lv_img.c ****                     coords_tmp.x1 = img_max_area.x1 + offset_x;
 893              		.loc 1 665 0 is_stmt 1
 894 040a 09AB     		add	r3, sp, #36
 895 040c 5888     		ldrh	r0, [r3, #2]
 896 040e 10AB     		add	r3, sp, #64
 897 0410 5988     		ldrh	r1, [r3, #2]
 898 0412 4118     		adds	r1, r0, r1
 899 0414 5980     		strh	r1, [r3, #2]
 900 0416 DA88     		ldrh	r2, [r3, #6]
 901 0418 8218     		adds	r2, r0, r2
 902 041a DA80     		strh	r2, [r3, #6]
 903              	.L22:
 665:..\..\..\arduinoLCD\test\Pain Drain\libraries\lvgl\src\widgets/lv_img.c ****                     coords_tmp.x1 = img_max_area.x1 + offset_x;
 904              		.loc 1 665 0 is_stmt 0 discriminator 1
 905 041c 10AB     		add	r3, sp, #64
 906 041e 0222     		movs	r2, #2
 907 0420 9B5E     		ldrsh	r3, [r3, r2]
 908 0422 049A     		ldr	r2, [sp, #16]
 909 0424 9A42     		cmp	r2, r3
 910 0426 C6DC     		bgt	.L26
 672:..\..\..\arduinoLCD\test\Pain Drain\libraries\lvgl\src\widgets/lv_img.c ****                     }
 673:..\..\..\arduinoLCD\test\Pain Drain\libraries\lvgl\src\widgets/lv_img.c ****                 }
 674:..\..\..\arduinoLCD\test\Pain Drain\libraries\lvgl\src\widgets/lv_img.c ****                 draw_ctx->clip_area = clip_area_ori;
 911              		.loc 1 674 0 is_stmt 1
 912 0428 039B     		ldr	r3, [sp, #12]
 913 042a 4246     		mov	r2, r8
 914 042c 9A60     		str	r2, [r3, #8]
 915              	.LBE76:
 916 042e 1AE0     		b	.L2
 917              	.LVL88:
 918              	.L19:
 675:..\..\..\arduinoLCD\test\Pain Drain\libraries\lvgl\src\widgets/lv_img.c ****             }
 676:..\..\..\arduinoLCD\test\Pain Drain\libraries\lvgl\src\widgets/lv_img.c ****             else if(img->src_type == LV_IMG_SRC_SYMBOL) {
 919              		.loc 1 676 0
 920 0430 022B     		cmp	r3, #2
 921 0432 11D1     		bne	.L28
 922              	.LBB77:
 677:..\..\..\arduinoLCD\test\Pain Drain\libraries\lvgl\src\widgets/lv_img.c ****                 lv_draw_label_dsc_t label_dsc;
 678:..\..\..\arduinoLCD\test\Pain Drain\libraries\lvgl\src\widgets/lv_img.c ****                 lv_draw_label_dsc_init(&label_dsc);
 923              		.loc 1 678 0
ARM GAS  C:\Users\haske\AppData\Local\Temp\ccGWO5DZ.s 			page 38


 924 0434 12A8     		add	r0, sp, #72
 925 0436 FFF7FEFF 		bl	lv_draw_label_dsc_init
 926              	.LVL89:
 679:..\..\..\arduinoLCD\test\Pain Drain\libraries\lvgl\src\widgets/lv_img.c ****                 lv_obj_init_draw_label_dsc(obj, LV_PART_MAIN, &label_dsc);
 927              		.loc 1 679 0
 928 043a 12AA     		add	r2, sp, #72
 929 043c 0021     		movs	r1, #0
 930 043e 2000     		movs	r0, r4
 931 0440 FFF7FEFF 		bl	lv_obj_init_draw_label_dsc
 932              	.LVL90:
 680:..\..\..\arduinoLCD\test\Pain Drain\libraries\lvgl\src\widgets/lv_img.c **** 
 681:..\..\..\arduinoLCD\test\Pain Drain\libraries\lvgl\src\widgets/lv_img.c ****                 lv_draw_label(draw_ctx, &label_dsc, &obj->coords, img->src, NULL);
 933              		.loc 1 681 0
 934 0444 2200     		movs	r2, r4
 935 0446 1432     		adds	r2, r2, #20
 936 0448 636A     		ldr	r3, [r4, #36]
 937 044a 0021     		movs	r1, #0
 938 044c 0091     		str	r1, [sp]
 939 044e 12A9     		add	r1, sp, #72
 940 0450 0398     		ldr	r0, [sp, #12]
 941 0452 FFF7FEFF 		bl	lv_draw_label
 942              	.LVL91:
 943              	.LBE77:
 944 0456 06E0     		b	.L2
 945              	.L28:
 682:..\..\..\arduinoLCD\test\Pain Drain\libraries\lvgl\src\widgets/lv_img.c ****             }
 683:..\..\..\arduinoLCD\test\Pain Drain\libraries\lvgl\src\widgets/lv_img.c ****             else {
 684:..\..\..\arduinoLCD\test\Pain Drain\libraries\lvgl\src\widgets/lv_img.c ****                 /*Trigger the error handler of image draw*/
 685:..\..\..\arduinoLCD\test\Pain Drain\libraries\lvgl\src\widgets/lv_img.c ****                 LV_LOG_WARN("draw_img: image source type is unknown");
 686:..\..\..\arduinoLCD\test\Pain Drain\libraries\lvgl\src\widgets/lv_img.c ****                 lv_draw_img(draw_ctx, NULL, &obj->coords, NULL);
 946              		.loc 1 686 0
 947 0458 2200     		movs	r2, r4
 948 045a 1432     		adds	r2, r2, #20
 949 045c 0023     		movs	r3, #0
 950 045e 0021     		movs	r1, #0
 951 0460 0398     		ldr	r0, [sp, #12]
 952 0462 FFF7FEFF 		bl	lv_draw_img
 953              	.LVL92:
 954              	.L2:
 955              	.LBE69:
 956              	.LBE52:
 687:..\..\..\arduinoLCD\test\Pain Drain\libraries\lvgl\src\widgets/lv_img.c ****             }
 688:..\..\..\arduinoLCD\test\Pain Drain\libraries\lvgl\src\widgets/lv_img.c ****         }
 689:..\..\..\arduinoLCD\test\Pain Drain\libraries\lvgl\src\widgets/lv_img.c ****     }
 690:..\..\..\arduinoLCD\test\Pain Drain\libraries\lvgl\src\widgets/lv_img.c **** }
 957              		.loc 1 690 0
 958 0466 1BB0     		add	sp, sp, #108
 959              		@ sp needed
 960              	.LVL93:
 961 0468 3CBC     		pop	{r2, r3, r4, r5}
 962 046a 9046     		mov	r8, r2
 963 046c 9946     		mov	r9, r3
 964 046e A246     		mov	r10, r4
 965 0470 AB46     		mov	fp, r5
 966 0472 F0BD     		pop	{r4, r5, r6, r7, pc}
 967              	.L30:
 968              		.align	2
ARM GAS  C:\Users\haske\AppData\Local\Temp\ccGWO5DZ.s 			page 39


 969              	.L29:
 970 0474 00000000 		.word	.LANCHOR0
 971              		.cfi_endproc
 972              	.LFE186:
 973              		.size	draw_img, .-draw_img
 974              		.section	.text.lv_img_destructor,"ax",%progbits
 975              		.align	2
 976              		.code	16
 977              		.thumb_func
 978              		.type	lv_img_destructor, %function
 979              	lv_img_destructor:
 980              	.LFB183:
 413:..\..\..\arduinoLCD\test\Pain Drain\libraries\lvgl\src\widgets/lv_img.c ****     LV_UNUSED(class_p);
 981              		.loc 1 413 0
 982              		.cfi_startproc
 983              		@ args = 0, pretend = 0, frame = 0
 984              		@ frame_needed = 0, uses_anonymous_args = 0
 985              	.LVL94:
 986 0000 10B5     		push	{r4, lr}
 987              		.cfi_def_cfa_offset 8
 988              		.cfi_offset 4, -8
 989              		.cfi_offset 14, -4
 990 0002 0C00     		movs	r4, r1
 991              	.LVL95:
 416:..\..\..\arduinoLCD\test\Pain Drain\libraries\lvgl\src\widgets/lv_img.c ****         lv_mem_free((void *)img->src);
 992              		.loc 1 416 0
 993 0004 3823     		movs	r3, #56
 994 0006 CB5C     		ldrb	r3, [r1, r3]
 995 0008 0322     		movs	r2, #3
 996 000a 1340     		ands	r3, r2
 997 000c 013B     		subs	r3, r3, #1
 998 000e DBB2     		uxtb	r3, r3
 999 0010 012B     		cmp	r3, #1
 1000 0012 09D8     		bhi	.L31
 417:..\..\..\arduinoLCD\test\Pain Drain\libraries\lvgl\src\widgets/lv_img.c ****         img->src      = NULL;
 1001              		.loc 1 417 0
 1002 0014 486A     		ldr	r0, [r1, #36]
 1003              	.LVL96:
 1004 0016 FFF7FEFF 		bl	lv_mem_free
 1005              	.LVL97:
 418:..\..\..\arduinoLCD\test\Pain Drain\libraries\lvgl\src\widgets/lv_img.c ****         img->src_type = LV_IMG_SRC_UNKNOWN;
 1006              		.loc 1 418 0
 1007 001a 0023     		movs	r3, #0
 1008 001c 6362     		str	r3, [r4, #36]
 419:..\..\..\arduinoLCD\test\Pain Drain\libraries\lvgl\src\widgets/lv_img.c ****     }
 1009              		.loc 1 419 0
 1010 001e 3822     		movs	r2, #56
 1011 0020 A15C     		ldrb	r1, [r4, r2]
 1012 0022 0323     		movs	r3, #3
 1013 0024 0B43     		orrs	r3, r1
 1014 0026 A354     		strb	r3, [r4, r2]
 1015              	.L31:
 421:..\..\..\arduinoLCD\test\Pain Drain\libraries\lvgl\src\widgets/lv_img.c **** 
 1016              		.loc 1 421 0
 1017              		@ sp needed
 1018              	.LVL98:
 1019 0028 10BD     		pop	{r4, pc}
ARM GAS  C:\Users\haske\AppData\Local\Temp\ccGWO5DZ.s 			page 40


 1020              		.cfi_endproc
 1021              	.LFE183:
 1022              		.size	lv_img_destructor, .-lv_img_destructor
 1023 002a C046     		.section	.text.lv_img_constructor,"ax",%progbits
 1024              		.align	2
 1025              		.code	16
 1026              		.thumb_func
 1027              		.type	lv_img_constructor, %function
 1028              	lv_img_constructor:
 1029              	.LFB182:
 386:..\..\..\arduinoLCD\test\Pain Drain\libraries\lvgl\src\widgets/lv_img.c ****     LV_UNUSED(class_p);
 1030              		.loc 1 386 0
 1031              		.cfi_startproc
 1032              		@ args = 0, pretend = 0, frame = 0
 1033              		@ frame_needed = 0, uses_anonymous_args = 0
 1034              	.LVL99:
 1035 0000 70B5     		push	{r4, r5, r6, lr}
 1036              		.cfi_def_cfa_offset 16
 1037              		.cfi_offset 4, -16
 1038              		.cfi_offset 5, -12
 1039              		.cfi_offset 6, -8
 1040              		.cfi_offset 14, -4
 1041 0002 0C00     		movs	r4, r1
 1042              	.LVL100:
 392:..\..\..\arduinoLCD\test\Pain Drain\libraries\lvgl\src\widgets/lv_img.c ****     img->src_type  = LV_IMG_SRC_UNKNOWN;
 1043              		.loc 1 392 0
 1044 0004 0025     		movs	r5, #0
 1045 0006 4D62     		str	r5, [r1, #36]
 393:..\..\..\arduinoLCD\test\Pain Drain\libraries\lvgl\src\widgets/lv_img.c ****     img->cf        = LV_IMG_CF_UNKNOWN;
 1046              		.loc 1 393 0
 1047 0008 3826     		movs	r6, #56
 1048 000a 8A5D     		ldrb	r2, [r1, r6]
 1049 000c 0323     		movs	r3, #3
 1050 000e 1343     		orrs	r3, r2
 394:..\..\..\arduinoLCD\test\Pain Drain\libraries\lvgl\src\widgets/lv_img.c ****     img->w         = lv_obj_get_width(obj);
 1051              		.loc 1 394 0
 1052 0010 DBB2     		uxtb	r3, r3
 1053 0012 7C22     		movs	r2, #124
 1054 0014 9343     		bics	r3, r2
 1055 0016 8B55     		strb	r3, [r1, r6]
 395:..\..\..\arduinoLCD\test\Pain Drain\libraries\lvgl\src\widgets/lv_img.c ****     img->h         = lv_obj_get_height(obj);
 1056              		.loc 1 395 0
 1057 0018 0800     		movs	r0, r1
 1058              	.LVL101:
 1059 001a FFF7FEFF 		bl	lv_obj_get_width
 1060              	.LVL102:
 1061 001e A085     		strh	r0, [r4, #44]
 396:..\..\..\arduinoLCD\test\Pain Drain\libraries\lvgl\src\widgets/lv_img.c ****     img->angle = 0;
 1062              		.loc 1 396 0
 1063 0020 2000     		movs	r0, r4
 1064 0022 FFF7FEFF 		bl	lv_obj_get_height
 1065              	.LVL103:
 1066 0026 E085     		strh	r0, [r4, #46]
 397:..\..\..\arduinoLCD\test\Pain Drain\libraries\lvgl\src\widgets/lv_img.c ****     img->zoom = LV_IMG_ZOOM_NONE;
 1067              		.loc 1 397 0
 1068 0028 2586     		strh	r5, [r4, #48]
 398:..\..\..\arduinoLCD\test\Pain Drain\libraries\lvgl\src\widgets/lv_img.c ****     img->antialias = LV_COLOR_DEPTH > 8 ? 1 : 0;
ARM GAS  C:\Users\haske\AppData\Local\Temp\ccGWO5DZ.s 			page 41


 1069              		.loc 1 398 0
 1070 002a 8023     		movs	r3, #128
 1071 002c 5B00     		lsls	r3, r3, #1
 1072 002e E386     		strh	r3, [r4, #54]
 399:..\..\..\arduinoLCD\test\Pain Drain\libraries\lvgl\src\widgets/lv_img.c ****     img->offset.x  = 0;
 1073              		.loc 1 399 0
 1074 0030 A35D     		ldrb	r3, [r4, r6]
 1075 0032 8022     		movs	r2, #128
 1076 0034 5242     		rsbs	r2, r2, #0
 1077 0036 1343     		orrs	r3, r2
 1078 0038 A355     		strb	r3, [r4, r6]
 400:..\..\..\arduinoLCD\test\Pain Drain\libraries\lvgl\src\widgets/lv_img.c ****     img->offset.y  = 0;
 1079              		.loc 1 400 0
 1080 003a 2585     		strh	r5, [r4, #40]
 401:..\..\..\arduinoLCD\test\Pain Drain\libraries\lvgl\src\widgets/lv_img.c ****     img->pivot.x = 0;
 1081              		.loc 1 401 0
 1082 003c 6585     		strh	r5, [r4, #42]
 402:..\..\..\arduinoLCD\test\Pain Drain\libraries\lvgl\src\widgets/lv_img.c ****     img->pivot.y = 0;
 1083              		.loc 1 402 0
 1084 003e 6586     		strh	r5, [r4, #50]
 403:..\..\..\arduinoLCD\test\Pain Drain\libraries\lvgl\src\widgets/lv_img.c ****     img->obj_size_mode = LV_IMG_SIZE_MODE_VIRTUAL;
 1085              		.loc 1 403 0
 1086 0040 A586     		strh	r5, [r4, #52]
 404:..\..\..\arduinoLCD\test\Pain Drain\libraries\lvgl\src\widgets/lv_img.c **** 
 1087              		.loc 1 404 0
 1088 0042 2200     		movs	r2, r4
 1089 0044 3832     		adds	r2, r2, #56
 1090 0046 5378     		ldrb	r3, [r2, #1]
 1091 0048 0321     		movs	r1, #3
 1092 004a 8B43     		bics	r3, r1
 1093 004c 5370     		strb	r3, [r2, #1]
 406:..\..\..\arduinoLCD\test\Pain Drain\libraries\lvgl\src\widgets/lv_img.c ****     lv_obj_add_flag(obj, LV_OBJ_FLAG_ADV_HITTEST);
 1094              		.loc 1 406 0
 1095 004e 0139     		subs	r1, r1, #1
 1096 0050 2000     		movs	r0, r4
 1097 0052 FFF7FEFF 		bl	lv_obj_clear_flag
 1098              	.LVL104:
 407:..\..\..\arduinoLCD\test\Pain Drain\libraries\lvgl\src\widgets/lv_img.c **** 
 1099              		.loc 1 407 0
 1100 0056 8021     		movs	r1, #128
 1101 0058 4902     		lsls	r1, r1, #9
 1102 005a 2000     		movs	r0, r4
 1103 005c FFF7FEFF 		bl	lv_obj_add_flag
 1104              	.LVL105:
 410:..\..\..\arduinoLCD\test\Pain Drain\libraries\lvgl\src\widgets/lv_img.c **** 
 1105              		.loc 1 410 0
 1106              		@ sp needed
 1107              	.LVL106:
 1108 0060 70BD     		pop	{r4, r5, r6, pc}
 1109              		.cfi_endproc
 1110              	.LFE182:
 1111              		.size	lv_img_constructor, .-lv_img_constructor
 1112 0062 C046     		.section	.text.lv_img_create,"ax",%progbits
 1113              		.align	2
 1114              		.global	lv_img_create
 1115              		.code	16
 1116              		.thumb_func
ARM GAS  C:\Users\haske\AppData\Local\Temp\ccGWO5DZ.s 			page 42


 1117              		.type	lv_img_create, %function
 1118              	lv_img_create:
 1119              	.LFB165:
  59:..\..\..\arduinoLCD\test\Pain Drain\libraries\lvgl\src\widgets/lv_img.c ****     LV_LOG_INFO("begin");
 1120              		.loc 1 59 0
 1121              		.cfi_startproc
 1122              		@ args = 0, pretend = 0, frame = 0
 1123              		@ frame_needed = 0, uses_anonymous_args = 0
 1124              	.LVL107:
 1125 0000 10B5     		push	{r4, lr}
 1126              		.cfi_def_cfa_offset 8
 1127              		.cfi_offset 4, -8
 1128              		.cfi_offset 14, -4
 1129 0002 0100     		movs	r1, r0
  61:..\..\..\arduinoLCD\test\Pain Drain\libraries\lvgl\src\widgets/lv_img.c ****     lv_obj_class_init_obj(obj);
 1130              		.loc 1 61 0
 1131 0004 0348     		ldr	r0, .L35
 1132              	.LVL108:
 1133 0006 FFF7FEFF 		bl	lv_obj_class_create_obj
 1134              	.LVL109:
 1135 000a 0400     		movs	r4, r0
 1136              	.LVL110:
  62:..\..\..\arduinoLCD\test\Pain Drain\libraries\lvgl\src\widgets/lv_img.c ****     return obj;
 1137              		.loc 1 62 0
 1138 000c FFF7FEFF 		bl	lv_obj_class_init_obj
 1139              	.LVL111:
  64:..\..\..\arduinoLCD\test\Pain Drain\libraries\lvgl\src\widgets/lv_img.c **** 
 1140              		.loc 1 64 0
 1141 0010 2000     		movs	r0, r4
 1142              		@ sp needed
 1143              	.LVL112:
 1144 0012 10BD     		pop	{r4, pc}
 1145              	.L36:
 1146              		.align	2
 1147              	.L35:
 1148 0014 00000000 		.word	.LANCHOR0
 1149              		.cfi_endproc
 1150              	.LFE165:
 1151              		.size	lv_img_create, .-lv_img_create
 1152              		.section	.text.lv_img_set_src,"ax",%progbits
 1153              		.align	2
 1154              		.global	lv_img_set_src
 1155              		.code	16
 1156              		.thumb_func
 1157              		.type	lv_img_set_src, %function
 1158              	lv_img_set_src:
 1159              	.LFB166:
  71:..\..\..\arduinoLCD\test\Pain Drain\libraries\lvgl\src\widgets/lv_img.c ****     LV_ASSERT_OBJ(obj, MY_CLASS);
 1160              		.loc 1 71 0
 1161              		.cfi_startproc
 1162              		@ args = 0, pretend = 0, frame = 16
 1163              		@ frame_needed = 0, uses_anonymous_args = 0
 1164              	.LVL113:
 1165 0000 F0B5     		push	{r4, r5, r6, r7, lr}
 1166              		.cfi_def_cfa_offset 20
 1167              		.cfi_offset 4, -20
 1168              		.cfi_offset 5, -16
ARM GAS  C:\Users\haske\AppData\Local\Temp\ccGWO5DZ.s 			page 43


 1169              		.cfi_offset 6, -12
 1170              		.cfi_offset 7, -8
 1171              		.cfi_offset 14, -4
 1172 0002 4F46     		mov	r7, r9
 1173 0004 4646     		mov	r6, r8
 1174 0006 C0B4     		push	{r6, r7}
 1175              		.cfi_def_cfa_offset 28
 1176              		.cfi_offset 8, -28
 1177              		.cfi_offset 9, -24
 1178 0008 89B0     		sub	sp, sp, #36
 1179              		.cfi_def_cfa_offset 64
 1180 000a 0700     		movs	r7, r0
 1181 000c 0C00     		movs	r4, r1
  74:..\..\..\arduinoLCD\test\Pain Drain\libraries\lvgl\src\widgets/lv_img.c **** 
 1182              		.loc 1 74 0
 1183 000e FFF7FEFF 		bl	lv_obj_invalidate
 1184              	.LVL114:
  76:..\..\..\arduinoLCD\test\Pain Drain\libraries\lvgl\src\widgets/lv_img.c ****     lv_img_t * img = (lv_img_t *)obj;
 1185              		.loc 1 76 0
 1186 0012 2000     		movs	r0, r4
 1187 0014 FFF7FEFF 		bl	lv_img_src_get_type
 1188              	.LVL115:
 1189 0018 0500     		movs	r5, r0
 1190 001a 0600     		movs	r6, r0
 1191              	.LVL116:
  96:..\..\..\arduinoLCD\test\Pain Drain\libraries\lvgl\src\widgets/lv_img.c ****         LV_LOG_WARN("lv_img_set_src: unknown image type");
 1192              		.loc 1 96 0
 1193 001c 0328     		cmp	r0, #3
 1194 001e 12D1     		bne	.L38
  98:..\..\..\arduinoLCD\test\Pain Drain\libraries\lvgl\src\widgets/lv_img.c ****             lv_mem_free((void *)img->src);
 1195              		.loc 1 98 0
 1196 0020 3823     		movs	r3, #56
 1197 0022 FB5C     		ldrb	r3, [r7, r3]
 1198 0024 0322     		movs	r2, #3
 1199 0026 1340     		ands	r3, r2
 1200 0028 013B     		subs	r3, r3, #1
 1201 002a DBB2     		uxtb	r3, r3
 1202 002c 012B     		cmp	r3, #1
 1203 002e 02D8     		bhi	.L39
  99:..\..\..\arduinoLCD\test\Pain Drain\libraries\lvgl\src\widgets/lv_img.c ****         }
 1204              		.loc 1 99 0
 1205 0030 786A     		ldr	r0, [r7, #36]
 1206              	.LVL117:
 1207 0032 FFF7FEFF 		bl	lv_mem_free
 1208              	.LVL118:
 1209              	.L39:
 101:..\..\..\arduinoLCD\test\Pain Drain\libraries\lvgl\src\widgets/lv_img.c ****         img->src_type = LV_IMG_SRC_UNKNOWN;
 1210              		.loc 1 101 0
 1211 0036 0023     		movs	r3, #0
 1212 0038 7B62     		str	r3, [r7, #36]
 102:..\..\..\arduinoLCD\test\Pain Drain\libraries\lvgl\src\widgets/lv_img.c ****         return;
 1213              		.loc 1 102 0
 1214 003a 3822     		movs	r2, #56
 1215 003c B95C     		ldrb	r1, [r7, r2]
 1216 003e 0323     		movs	r3, #3
 1217 0040 0B43     		orrs	r3, r1
 1218 0042 BB54     		strb	r3, [r7, r2]
ARM GAS  C:\Users\haske\AppData\Local\Temp\ccGWO5DZ.s 			page 44


 103:..\..\..\arduinoLCD\test\Pain Drain\libraries\lvgl\src\widgets/lv_img.c ****     }
 1219              		.loc 1 103 0
 1220 0044 A3E0     		b	.L37
 1221              	.LVL119:
 1222              	.L38:
 107:..\..\..\arduinoLCD\test\Pain Drain\libraries\lvgl\src\widgets/lv_img.c **** 
 1223              		.loc 1 107 0
 1224 0046 07A9     		add	r1, sp, #28
 1225 0048 2000     		movs	r0, r4
 1226              	.LVL120:
 1227 004a FFF7FEFF 		bl	lv_img_decoder_get_info
 1228              	.LVL121:
 110:..\..\..\arduinoLCD\test\Pain Drain\libraries\lvgl\src\widgets/lv_img.c ****         /*If memory was allocated because of the previous `src_type` then free it*/
 1229              		.loc 1 110 0
 1230 004e 002D     		cmp	r5, #0
 1231 0050 0CD1     		bne	.L41
 112:..\..\..\arduinoLCD\test\Pain Drain\libraries\lvgl\src\widgets/lv_img.c ****             lv_mem_free((void *)img->src);
 1232              		.loc 1 112 0
 1233 0052 3823     		movs	r3, #56
 1234 0054 FB5C     		ldrb	r3, [r7, r3]
 1235 0056 0322     		movs	r2, #3
 1236 0058 1340     		ands	r3, r2
 1237 005a 013B     		subs	r3, r3, #1
 1238 005c DBB2     		uxtb	r3, r3
 1239 005e 012B     		cmp	r3, #1
 1240 0060 02D8     		bhi	.L42
 113:..\..\..\arduinoLCD\test\Pain Drain\libraries\lvgl\src\widgets/lv_img.c ****         }
 1241              		.loc 1 113 0
 1242 0062 786A     		ldr	r0, [r7, #36]
 1243 0064 FFF7FEFF 		bl	lv_mem_free
 1244              	.LVL122:
 1245              	.L42:
 115:..\..\..\arduinoLCD\test\Pain Drain\libraries\lvgl\src\widgets/lv_img.c ****     }
 1246              		.loc 1 115 0
 1247 0068 7C62     		str	r4, [r7, #36]
 1248 006a 28E0     		b	.L43
 1249              	.L41:
 117:..\..\..\arduinoLCD\test\Pain Drain\libraries\lvgl\src\widgets/lv_img.c ****         /*If the new and the old src are the same then it was only a refresh.*/
 1250              		.loc 1 117 0
 1251 006c 6B1E     		subs	r3, r5, #1
 1252 006e DBB2     		uxtb	r3, r3
 1253 0070 012B     		cmp	r3, #1
 1254 0072 24D8     		bhi	.L43
 119:..\..\..\arduinoLCD\test\Pain Drain\libraries\lvgl\src\widgets/lv_img.c ****             const void * old_src = NULL;
 1255              		.loc 1 119 0
 1256 0074 7B6A     		ldr	r3, [r7, #36]
 1257 0076 9846     		mov	r8, r3
 1258 0078 9C42     		cmp	r4, r3
 1259 007a 20D0     		beq	.L43
 1260              	.LVL123:
 1261              	.LBB78:
 124:..\..\..\arduinoLCD\test\Pain Drain\libraries\lvgl\src\widgets/lv_img.c ****                 old_src = img->src;
 1262              		.loc 1 124 0
 1263 007c 3823     		movs	r3, #56
 1264 007e FB5C     		ldrb	r3, [r7, r3]
 1265 0080 0322     		movs	r2, #3
 1266 0082 1340     		ands	r3, r2
ARM GAS  C:\Users\haske\AppData\Local\Temp\ccGWO5DZ.s 			page 45


 1267 0084 013B     		subs	r3, r3, #1
 1268 0086 DBB2     		uxtb	r3, r3
 1269 0088 012B     		cmp	r3, #1
 1270 008a 01D9     		bls	.L44
 120:..\..\..\arduinoLCD\test\Pain Drain\libraries\lvgl\src\widgets/lv_img.c ****             /*If memory was allocated because of the previous `src_type` then save its pointer and 
 1271              		.loc 1 120 0
 1272 008c 0023     		movs	r3, #0
 1273 008e 9846     		mov	r8, r3
 1274              	.L44:
 1275              	.LVL124:
 127:..\..\..\arduinoLCD\test\Pain Drain\libraries\lvgl\src\widgets/lv_img.c ****             LV_ASSERT_MALLOC(new_str);
 1276              		.loc 1 127 0
 1277 0090 2000     		movs	r0, r4
 1278 0092 FFF7FEFF 		bl	strlen
 1279              	.LVL125:
 1280 0096 0130     		adds	r0, r0, #1
 1281 0098 FFF7FEFF 		bl	lv_mem_alloc
 1282              	.LVL126:
 1283 009c 8146     		mov	r9, r0
 1284              	.LVL127:
 128:..\..\..\arduinoLCD\test\Pain Drain\libraries\lvgl\src\widgets/lv_img.c ****             if(new_str == NULL) return;
 1285              		.loc 1 128 0
 1286 009e 0028     		cmp	r0, #0
 1287 00a0 00D1     		bne	.L45
 1288              	.L46:
 1289 00a2 FEE7     		b	.L46
 1290              	.L45:
 129:..\..\..\arduinoLCD\test\Pain Drain\libraries\lvgl\src\widgets/lv_img.c ****             strcpy(new_str, src);
 1291              		.loc 1 129 0
 1292 00a4 0028     		cmp	r0, #0
 1293 00a6 72D0     		beq	.L37
 130:..\..\..\arduinoLCD\test\Pain Drain\libraries\lvgl\src\widgets/lv_img.c ****             img->src = new_str;
 1294              		.loc 1 130 0
 1295 00a8 2100     		movs	r1, r4
 1296 00aa FFF7FEFF 		bl	strcpy
 1297              	.LVL128:
 131:..\..\..\arduinoLCD\test\Pain Drain\libraries\lvgl\src\widgets/lv_img.c **** 
 1298              		.loc 1 131 0
 1299 00ae 4B46     		mov	r3, r9
 1300 00b0 7B62     		str	r3, [r7, #36]
 133:..\..\..\arduinoLCD\test\Pain Drain\libraries\lvgl\src\widgets/lv_img.c ****         }
 1301              		.loc 1 133 0
 1302 00b2 4346     		mov	r3, r8
 1303 00b4 002B     		cmp	r3, #0
 1304 00b6 02D0     		beq	.L43
 1305              	.LVL129:
 133:..\..\..\arduinoLCD\test\Pain Drain\libraries\lvgl\src\widgets/lv_img.c ****         }
 1306              		.loc 1 133 0 is_stmt 0 discriminator 1
 1307 00b8 4046     		mov	r0, r8
 1308 00ba FFF7FEFF 		bl	lv_mem_free
 1309              	.LVL130:
 1310              	.L43:
 1311              	.LBE78:
 137:..\..\..\arduinoLCD\test\Pain Drain\libraries\lvgl\src\widgets/lv_img.c ****         /*`lv_img_dsc_get_info` couldn't set the width and height of a font so set it here*/
 1312              		.loc 1 137 0 is_stmt 1
 1313 00be 022E     		cmp	r6, #2
 1314 00c0 32D1     		bne	.L47
ARM GAS  C:\Users\haske\AppData\Local\Temp\ccGWO5DZ.s 			page 46


 1315              	.LVL131:
 1316              	.LBB79:
 1317              	.LBB80:
 1318              	.LBB81:
 347:..\..\..\arduinoLCD\test\Pain Drain\libraries\lvgl\src\widgets\../core/lv_obj_style_gen.h **** }
 348:..\..\..\arduinoLCD\test\Pain Drain\libraries\lvgl\src\widgets\../core/lv_obj_style_gen.h **** 
 349:..\..\..\arduinoLCD\test\Pain Drain\libraries\lvgl\src\widgets\../core/lv_obj_style_gen.h **** static inline lv_color_t lv_obj_get_style_img_recolor(const struct _lv_obj_t * obj, uint32_t part)
 350:..\..\..\arduinoLCD\test\Pain Drain\libraries\lvgl\src\widgets\../core/lv_obj_style_gen.h **** {
 351:..\..\..\arduinoLCD\test\Pain Drain\libraries\lvgl\src\widgets\../core/lv_obj_style_gen.h ****     lv_style_value_t v = lv_obj_get_style_prop(obj, part, LV_STYLE_IMG_RECOLOR);
 352:..\..\..\arduinoLCD\test\Pain Drain\libraries\lvgl\src\widgets\../core/lv_obj_style_gen.h ****     return v.color;
 353:..\..\..\arduinoLCD\test\Pain Drain\libraries\lvgl\src\widgets\../core/lv_obj_style_gen.h **** }
 354:..\..\..\arduinoLCD\test\Pain Drain\libraries\lvgl\src\widgets\../core/lv_obj_style_gen.h **** 
 355:..\..\..\arduinoLCD\test\Pain Drain\libraries\lvgl\src\widgets\../core/lv_obj_style_gen.h **** static inline lv_color_t lv_obj_get_style_img_recolor_filtered(const struct _lv_obj_t * obj, uint32
 356:..\..\..\arduinoLCD\test\Pain Drain\libraries\lvgl\src\widgets\../core/lv_obj_style_gen.h **** {
 357:..\..\..\arduinoLCD\test\Pain Drain\libraries\lvgl\src\widgets\../core/lv_obj_style_gen.h ****     lv_style_value_t v = _lv_obj_style_apply_color_filter(obj, part, lv_obj_get_style_prop(obj, par
 358:..\..\..\arduinoLCD\test\Pain Drain\libraries\lvgl\src\widgets\../core/lv_obj_style_gen.h ****     return v.color;
 359:..\..\..\arduinoLCD\test\Pain Drain\libraries\lvgl\src\widgets\../core/lv_obj_style_gen.h **** }
 360:..\..\..\arduinoLCD\test\Pain Drain\libraries\lvgl\src\widgets\../core/lv_obj_style_gen.h **** 
 361:..\..\..\arduinoLCD\test\Pain Drain\libraries\lvgl\src\widgets\../core/lv_obj_style_gen.h **** static inline lv_opa_t lv_obj_get_style_img_recolor_opa(const struct _lv_obj_t * obj, uint32_t part
 362:..\..\..\arduinoLCD\test\Pain Drain\libraries\lvgl\src\widgets\../core/lv_obj_style_gen.h **** {
 363:..\..\..\arduinoLCD\test\Pain Drain\libraries\lvgl\src\widgets\../core/lv_obj_style_gen.h ****     lv_style_value_t v = lv_obj_get_style_prop(obj, part, LV_STYLE_IMG_RECOLOR_OPA);
 364:..\..\..\arduinoLCD\test\Pain Drain\libraries\lvgl\src\widgets\../core/lv_obj_style_gen.h ****     return (lv_opa_t)v.num;
 365:..\..\..\arduinoLCD\test\Pain Drain\libraries\lvgl\src\widgets\../core/lv_obj_style_gen.h **** }
 366:..\..\..\arduinoLCD\test\Pain Drain\libraries\lvgl\src\widgets\../core/lv_obj_style_gen.h **** 
 367:..\..\..\arduinoLCD\test\Pain Drain\libraries\lvgl\src\widgets\../core/lv_obj_style_gen.h **** static inline lv_coord_t lv_obj_get_style_line_width(const struct _lv_obj_t * obj, uint32_t part)
 368:..\..\..\arduinoLCD\test\Pain Drain\libraries\lvgl\src\widgets\../core/lv_obj_style_gen.h **** {
 369:..\..\..\arduinoLCD\test\Pain Drain\libraries\lvgl\src\widgets\../core/lv_obj_style_gen.h ****     lv_style_value_t v = lv_obj_get_style_prop(obj, part, LV_STYLE_LINE_WIDTH);
 370:..\..\..\arduinoLCD\test\Pain Drain\libraries\lvgl\src\widgets\../core/lv_obj_style_gen.h ****     return (lv_coord_t)v.num;
 371:..\..\..\arduinoLCD\test\Pain Drain\libraries\lvgl\src\widgets\../core/lv_obj_style_gen.h **** }
 372:..\..\..\arduinoLCD\test\Pain Drain\libraries\lvgl\src\widgets\../core/lv_obj_style_gen.h **** 
 373:..\..\..\arduinoLCD\test\Pain Drain\libraries\lvgl\src\widgets\../core/lv_obj_style_gen.h **** static inline lv_coord_t lv_obj_get_style_line_dash_width(const struct _lv_obj_t * obj, uint32_t pa
 374:..\..\..\arduinoLCD\test\Pain Drain\libraries\lvgl\src\widgets\../core/lv_obj_style_gen.h **** {
 375:..\..\..\arduinoLCD\test\Pain Drain\libraries\lvgl\src\widgets\../core/lv_obj_style_gen.h ****     lv_style_value_t v = lv_obj_get_style_prop(obj, part, LV_STYLE_LINE_DASH_WIDTH);
 376:..\..\..\arduinoLCD\test\Pain Drain\libraries\lvgl\src\widgets\../core/lv_obj_style_gen.h ****     return (lv_coord_t)v.num;
 377:..\..\..\arduinoLCD\test\Pain Drain\libraries\lvgl\src\widgets\../core/lv_obj_style_gen.h **** }
 378:..\..\..\arduinoLCD\test\Pain Drain\libraries\lvgl\src\widgets\../core/lv_obj_style_gen.h **** 
 379:..\..\..\arduinoLCD\test\Pain Drain\libraries\lvgl\src\widgets\../core/lv_obj_style_gen.h **** static inline lv_coord_t lv_obj_get_style_line_dash_gap(const struct _lv_obj_t * obj, uint32_t part
 380:..\..\..\arduinoLCD\test\Pain Drain\libraries\lvgl\src\widgets\../core/lv_obj_style_gen.h **** {
 381:..\..\..\arduinoLCD\test\Pain Drain\libraries\lvgl\src\widgets\../core/lv_obj_style_gen.h ****     lv_style_value_t v = lv_obj_get_style_prop(obj, part, LV_STYLE_LINE_DASH_GAP);
 382:..\..\..\arduinoLCD\test\Pain Drain\libraries\lvgl\src\widgets\../core/lv_obj_style_gen.h ****     return (lv_coord_t)v.num;
 383:..\..\..\arduinoLCD\test\Pain Drain\libraries\lvgl\src\widgets\../core/lv_obj_style_gen.h **** }
 384:..\..\..\arduinoLCD\test\Pain Drain\libraries\lvgl\src\widgets\../core/lv_obj_style_gen.h **** 
 385:..\..\..\arduinoLCD\test\Pain Drain\libraries\lvgl\src\widgets\../core/lv_obj_style_gen.h **** static inline bool lv_obj_get_style_line_rounded(const struct _lv_obj_t * obj, uint32_t part)
 386:..\..\..\arduinoLCD\test\Pain Drain\libraries\lvgl\src\widgets\../core/lv_obj_style_gen.h **** {
 387:..\..\..\arduinoLCD\test\Pain Drain\libraries\lvgl\src\widgets\../core/lv_obj_style_gen.h ****     lv_style_value_t v = lv_obj_get_style_prop(obj, part, LV_STYLE_LINE_ROUNDED);
 388:..\..\..\arduinoLCD\test\Pain Drain\libraries\lvgl\src\widgets\../core/lv_obj_style_gen.h ****     return (bool)v.num;
 389:..\..\..\arduinoLCD\test\Pain Drain\libraries\lvgl\src\widgets\../core/lv_obj_style_gen.h **** }
 390:..\..\..\arduinoLCD\test\Pain Drain\libraries\lvgl\src\widgets\../core/lv_obj_style_gen.h **** 
 391:..\..\..\arduinoLCD\test\Pain Drain\libraries\lvgl\src\widgets\../core/lv_obj_style_gen.h **** static inline lv_color_t lv_obj_get_style_line_color(const struct _lv_obj_t * obj, uint32_t part)
 392:..\..\..\arduinoLCD\test\Pain Drain\libraries\lvgl\src\widgets\../core/lv_obj_style_gen.h **** {
 393:..\..\..\arduinoLCD\test\Pain Drain\libraries\lvgl\src\widgets\../core/lv_obj_style_gen.h ****     lv_style_value_t v = lv_obj_get_style_prop(obj, part, LV_STYLE_LINE_COLOR);
 394:..\..\..\arduinoLCD\test\Pain Drain\libraries\lvgl\src\widgets\../core/lv_obj_style_gen.h ****     return v.color;
 395:..\..\..\arduinoLCD\test\Pain Drain\libraries\lvgl\src\widgets\../core/lv_obj_style_gen.h **** }
 396:..\..\..\arduinoLCD\test\Pain Drain\libraries\lvgl\src\widgets\../core/lv_obj_style_gen.h **** 
 397:..\..\..\arduinoLCD\test\Pain Drain\libraries\lvgl\src\widgets\../core/lv_obj_style_gen.h **** static inline lv_color_t lv_obj_get_style_line_color_filtered(const struct _lv_obj_t * obj, uint32_
 398:..\..\..\arduinoLCD\test\Pain Drain\libraries\lvgl\src\widgets\../core/lv_obj_style_gen.h **** {
 399:..\..\..\arduinoLCD\test\Pain Drain\libraries\lvgl\src\widgets\../core/lv_obj_style_gen.h ****     lv_style_value_t v = _lv_obj_style_apply_color_filter(obj, part, lv_obj_get_style_prop(obj, par
ARM GAS  C:\Users\haske\AppData\Local\Temp\ccGWO5DZ.s 			page 47


 400:..\..\..\arduinoLCD\test\Pain Drain\libraries\lvgl\src\widgets\../core/lv_obj_style_gen.h ****     return v.color;
 401:..\..\..\arduinoLCD\test\Pain Drain\libraries\lvgl\src\widgets\../core/lv_obj_style_gen.h **** }
 402:..\..\..\arduinoLCD\test\Pain Drain\libraries\lvgl\src\widgets\../core/lv_obj_style_gen.h **** 
 403:..\..\..\arduinoLCD\test\Pain Drain\libraries\lvgl\src\widgets\../core/lv_obj_style_gen.h **** static inline lv_opa_t lv_obj_get_style_line_opa(const struct _lv_obj_t * obj, uint32_t part)
 404:..\..\..\arduinoLCD\test\Pain Drain\libraries\lvgl\src\widgets\../core/lv_obj_style_gen.h **** {
 405:..\..\..\arduinoLCD\test\Pain Drain\libraries\lvgl\src\widgets\../core/lv_obj_style_gen.h ****     lv_style_value_t v = lv_obj_get_style_prop(obj, part, LV_STYLE_LINE_OPA);
 406:..\..\..\arduinoLCD\test\Pain Drain\libraries\lvgl\src\widgets\../core/lv_obj_style_gen.h ****     return (lv_opa_t)v.num;
 407:..\..\..\arduinoLCD\test\Pain Drain\libraries\lvgl\src\widgets\../core/lv_obj_style_gen.h **** }
 408:..\..\..\arduinoLCD\test\Pain Drain\libraries\lvgl\src\widgets\../core/lv_obj_style_gen.h **** 
 409:..\..\..\arduinoLCD\test\Pain Drain\libraries\lvgl\src\widgets\../core/lv_obj_style_gen.h **** static inline lv_coord_t lv_obj_get_style_arc_width(const struct _lv_obj_t * obj, uint32_t part)
 410:..\..\..\arduinoLCD\test\Pain Drain\libraries\lvgl\src\widgets\../core/lv_obj_style_gen.h **** {
 411:..\..\..\arduinoLCD\test\Pain Drain\libraries\lvgl\src\widgets\../core/lv_obj_style_gen.h ****     lv_style_value_t v = lv_obj_get_style_prop(obj, part, LV_STYLE_ARC_WIDTH);
 412:..\..\..\arduinoLCD\test\Pain Drain\libraries\lvgl\src\widgets\../core/lv_obj_style_gen.h ****     return (lv_coord_t)v.num;
 413:..\..\..\arduinoLCD\test\Pain Drain\libraries\lvgl\src\widgets\../core/lv_obj_style_gen.h **** }
 414:..\..\..\arduinoLCD\test\Pain Drain\libraries\lvgl\src\widgets\../core/lv_obj_style_gen.h **** 
 415:..\..\..\arduinoLCD\test\Pain Drain\libraries\lvgl\src\widgets\../core/lv_obj_style_gen.h **** static inline bool lv_obj_get_style_arc_rounded(const struct _lv_obj_t * obj, uint32_t part)
 416:..\..\..\arduinoLCD\test\Pain Drain\libraries\lvgl\src\widgets\../core/lv_obj_style_gen.h **** {
 417:..\..\..\arduinoLCD\test\Pain Drain\libraries\lvgl\src\widgets\../core/lv_obj_style_gen.h ****     lv_style_value_t v = lv_obj_get_style_prop(obj, part, LV_STYLE_ARC_ROUNDED);
 418:..\..\..\arduinoLCD\test\Pain Drain\libraries\lvgl\src\widgets\../core/lv_obj_style_gen.h ****     return (bool)v.num;
 419:..\..\..\arduinoLCD\test\Pain Drain\libraries\lvgl\src\widgets\../core/lv_obj_style_gen.h **** }
 420:..\..\..\arduinoLCD\test\Pain Drain\libraries\lvgl\src\widgets\../core/lv_obj_style_gen.h **** 
 421:..\..\..\arduinoLCD\test\Pain Drain\libraries\lvgl\src\widgets\../core/lv_obj_style_gen.h **** static inline lv_color_t lv_obj_get_style_arc_color(const struct _lv_obj_t * obj, uint32_t part)
 422:..\..\..\arduinoLCD\test\Pain Drain\libraries\lvgl\src\widgets\../core/lv_obj_style_gen.h **** {
 423:..\..\..\arduinoLCD\test\Pain Drain\libraries\lvgl\src\widgets\../core/lv_obj_style_gen.h ****     lv_style_value_t v = lv_obj_get_style_prop(obj, part, LV_STYLE_ARC_COLOR);
 424:..\..\..\arduinoLCD\test\Pain Drain\libraries\lvgl\src\widgets\../core/lv_obj_style_gen.h ****     return v.color;
 425:..\..\..\arduinoLCD\test\Pain Drain\libraries\lvgl\src\widgets\../core/lv_obj_style_gen.h **** }
 426:..\..\..\arduinoLCD\test\Pain Drain\libraries\lvgl\src\widgets\../core/lv_obj_style_gen.h **** 
 427:..\..\..\arduinoLCD\test\Pain Drain\libraries\lvgl\src\widgets\../core/lv_obj_style_gen.h **** static inline lv_color_t lv_obj_get_style_arc_color_filtered(const struct _lv_obj_t * obj, uint32_t
 428:..\..\..\arduinoLCD\test\Pain Drain\libraries\lvgl\src\widgets\../core/lv_obj_style_gen.h **** {
 429:..\..\..\arduinoLCD\test\Pain Drain\libraries\lvgl\src\widgets\../core/lv_obj_style_gen.h ****     lv_style_value_t v = _lv_obj_style_apply_color_filter(obj, part, lv_obj_get_style_prop(obj, par
 430:..\..\..\arduinoLCD\test\Pain Drain\libraries\lvgl\src\widgets\../core/lv_obj_style_gen.h ****     return v.color;
 431:..\..\..\arduinoLCD\test\Pain Drain\libraries\lvgl\src\widgets\../core/lv_obj_style_gen.h **** }
 432:..\..\..\arduinoLCD\test\Pain Drain\libraries\lvgl\src\widgets\../core/lv_obj_style_gen.h **** 
 433:..\..\..\arduinoLCD\test\Pain Drain\libraries\lvgl\src\widgets\../core/lv_obj_style_gen.h **** static inline lv_opa_t lv_obj_get_style_arc_opa(const struct _lv_obj_t * obj, uint32_t part)
 434:..\..\..\arduinoLCD\test\Pain Drain\libraries\lvgl\src\widgets\../core/lv_obj_style_gen.h **** {
 435:..\..\..\arduinoLCD\test\Pain Drain\libraries\lvgl\src\widgets\../core/lv_obj_style_gen.h ****     lv_style_value_t v = lv_obj_get_style_prop(obj, part, LV_STYLE_ARC_OPA);
 436:..\..\..\arduinoLCD\test\Pain Drain\libraries\lvgl\src\widgets\../core/lv_obj_style_gen.h ****     return (lv_opa_t)v.num;
 437:..\..\..\arduinoLCD\test\Pain Drain\libraries\lvgl\src\widgets\../core/lv_obj_style_gen.h **** }
 438:..\..\..\arduinoLCD\test\Pain Drain\libraries\lvgl\src\widgets\../core/lv_obj_style_gen.h **** 
 439:..\..\..\arduinoLCD\test\Pain Drain\libraries\lvgl\src\widgets\../core/lv_obj_style_gen.h **** static inline const void * lv_obj_get_style_arc_img_src(const struct _lv_obj_t * obj, uint32_t part
 440:..\..\..\arduinoLCD\test\Pain Drain\libraries\lvgl\src\widgets\../core/lv_obj_style_gen.h **** {
 441:..\..\..\arduinoLCD\test\Pain Drain\libraries\lvgl\src\widgets\../core/lv_obj_style_gen.h ****     lv_style_value_t v = lv_obj_get_style_prop(obj, part, LV_STYLE_ARC_IMG_SRC);
 442:..\..\..\arduinoLCD\test\Pain Drain\libraries\lvgl\src\widgets\../core/lv_obj_style_gen.h ****     return (const void *)v.ptr;
 443:..\..\..\arduinoLCD\test\Pain Drain\libraries\lvgl\src\widgets\../core/lv_obj_style_gen.h **** }
 444:..\..\..\arduinoLCD\test\Pain Drain\libraries\lvgl\src\widgets\../core/lv_obj_style_gen.h **** 
 445:..\..\..\arduinoLCD\test\Pain Drain\libraries\lvgl\src\widgets\../core/lv_obj_style_gen.h **** static inline lv_color_t lv_obj_get_style_text_color(const struct _lv_obj_t * obj, uint32_t part)
 446:..\..\..\arduinoLCD\test\Pain Drain\libraries\lvgl\src\widgets\../core/lv_obj_style_gen.h **** {
 447:..\..\..\arduinoLCD\test\Pain Drain\libraries\lvgl\src\widgets\../core/lv_obj_style_gen.h ****     lv_style_value_t v = lv_obj_get_style_prop(obj, part, LV_STYLE_TEXT_COLOR);
 448:..\..\..\arduinoLCD\test\Pain Drain\libraries\lvgl\src\widgets\../core/lv_obj_style_gen.h ****     return v.color;
 449:..\..\..\arduinoLCD\test\Pain Drain\libraries\lvgl\src\widgets\../core/lv_obj_style_gen.h **** }
 450:..\..\..\arduinoLCD\test\Pain Drain\libraries\lvgl\src\widgets\../core/lv_obj_style_gen.h **** 
 451:..\..\..\arduinoLCD\test\Pain Drain\libraries\lvgl\src\widgets\../core/lv_obj_style_gen.h **** static inline lv_color_t lv_obj_get_style_text_color_filtered(const struct _lv_obj_t * obj, uint32_
 452:..\..\..\arduinoLCD\test\Pain Drain\libraries\lvgl\src\widgets\../core/lv_obj_style_gen.h **** {
 453:..\..\..\arduinoLCD\test\Pain Drain\libraries\lvgl\src\widgets\../core/lv_obj_style_gen.h ****     lv_style_value_t v = _lv_obj_style_apply_color_filter(obj, part, lv_obj_get_style_prop(obj, par
 454:..\..\..\arduinoLCD\test\Pain Drain\libraries\lvgl\src\widgets\../core/lv_obj_style_gen.h ****     return v.color;
 455:..\..\..\arduinoLCD\test\Pain Drain\libraries\lvgl\src\widgets\../core/lv_obj_style_gen.h **** }
 456:..\..\..\arduinoLCD\test\Pain Drain\libraries\lvgl\src\widgets\../core/lv_obj_style_gen.h **** 
ARM GAS  C:\Users\haske\AppData\Local\Temp\ccGWO5DZ.s 			page 48


 457:..\..\..\arduinoLCD\test\Pain Drain\libraries\lvgl\src\widgets\../core/lv_obj_style_gen.h **** static inline lv_opa_t lv_obj_get_style_text_opa(const struct _lv_obj_t * obj, uint32_t part)
 458:..\..\..\arduinoLCD\test\Pain Drain\libraries\lvgl\src\widgets\../core/lv_obj_style_gen.h **** {
 459:..\..\..\arduinoLCD\test\Pain Drain\libraries\lvgl\src\widgets\../core/lv_obj_style_gen.h ****     lv_style_value_t v = lv_obj_get_style_prop(obj, part, LV_STYLE_TEXT_OPA);
 460:..\..\..\arduinoLCD\test\Pain Drain\libraries\lvgl\src\widgets\../core/lv_obj_style_gen.h ****     return (lv_opa_t)v.num;
 461:..\..\..\arduinoLCD\test\Pain Drain\libraries\lvgl\src\widgets\../core/lv_obj_style_gen.h **** }
 462:..\..\..\arduinoLCD\test\Pain Drain\libraries\lvgl\src\widgets\../core/lv_obj_style_gen.h **** 
 463:..\..\..\arduinoLCD\test\Pain Drain\libraries\lvgl\src\widgets\../core/lv_obj_style_gen.h **** static inline const lv_font_t * lv_obj_get_style_text_font(const struct _lv_obj_t * obj, uint32_t p
 464:..\..\..\arduinoLCD\test\Pain Drain\libraries\lvgl\src\widgets\../core/lv_obj_style_gen.h **** {
 465:..\..\..\arduinoLCD\test\Pain Drain\libraries\lvgl\src\widgets\../core/lv_obj_style_gen.h ****     lv_style_value_t v = lv_obj_get_style_prop(obj, part, LV_STYLE_TEXT_FONT);
 1319              		.loc 3 465 0
 1320 00c2 5722     		movs	r2, #87
 1321 00c4 0021     		movs	r1, #0
 1322 00c6 3800     		movs	r0, r7
 1323 00c8 FFF7FEFF 		bl	lv_obj_get_style_prop
 1324              	.LVL132:
 1325 00cc 0590     		str	r0, [sp, #20]
 1326              	.LVL133:
 1327              	.LBE81:
 1328              	.LBE80:
 1329              	.LBB82:
 1330              	.LBB83:
 466:..\..\..\arduinoLCD\test\Pain Drain\libraries\lvgl\src\widgets\../core/lv_obj_style_gen.h ****     return (const lv_font_t *)v.ptr;
 467:..\..\..\arduinoLCD\test\Pain Drain\libraries\lvgl\src\widgets\../core/lv_obj_style_gen.h **** }
 468:..\..\..\arduinoLCD\test\Pain Drain\libraries\lvgl\src\widgets\../core/lv_obj_style_gen.h **** 
 469:..\..\..\arduinoLCD\test\Pain Drain\libraries\lvgl\src\widgets\../core/lv_obj_style_gen.h **** static inline lv_coord_t lv_obj_get_style_text_letter_space(const struct _lv_obj_t * obj, uint32_t 
 470:..\..\..\arduinoLCD\test\Pain Drain\libraries\lvgl\src\widgets\../core/lv_obj_style_gen.h **** {
 471:..\..\..\arduinoLCD\test\Pain Drain\libraries\lvgl\src\widgets\../core/lv_obj_style_gen.h ****     lv_style_value_t v = lv_obj_get_style_prop(obj, part, LV_STYLE_TEXT_LETTER_SPACE);
 1331              		.loc 3 471 0
 1332 00ce 5822     		movs	r2, #88
 1333 00d0 0021     		movs	r1, #0
 1334 00d2 3800     		movs	r0, r7
 1335 00d4 FFF7FEFF 		bl	lv_obj_get_style_prop
 1336              	.LVL134:
 472:..\..\..\arduinoLCD\test\Pain Drain\libraries\lvgl\src\widgets\../core/lv_obj_style_gen.h ****     return (lv_coord_t)v.num;
 1337              		.loc 3 472 0
 1338 00d8 03B2     		sxth	r3, r0
 1339 00da 9946     		mov	r9, r3
 1340              	.LVL135:
 1341              	.LBE83:
 1342              	.LBE82:
 1343              	.LBB84:
 1344              	.LBB85:
 473:..\..\..\arduinoLCD\test\Pain Drain\libraries\lvgl\src\widgets\../core/lv_obj_style_gen.h **** }
 474:..\..\..\arduinoLCD\test\Pain Drain\libraries\lvgl\src\widgets\../core/lv_obj_style_gen.h **** 
 475:..\..\..\arduinoLCD\test\Pain Drain\libraries\lvgl\src\widgets\../core/lv_obj_style_gen.h **** static inline lv_coord_t lv_obj_get_style_text_line_space(const struct _lv_obj_t * obj, uint32_t pa
 476:..\..\..\arduinoLCD\test\Pain Drain\libraries\lvgl\src\widgets\../core/lv_obj_style_gen.h **** {
 477:..\..\..\arduinoLCD\test\Pain Drain\libraries\lvgl\src\widgets\../core/lv_obj_style_gen.h ****     lv_style_value_t v = lv_obj_get_style_prop(obj, part, LV_STYLE_TEXT_LINE_SPACE);
 1345              		.loc 3 477 0
 1346 00dc 5922     		movs	r2, #89
 1347 00de 0021     		movs	r1, #0
 1348 00e0 3800     		movs	r0, r7
 1349 00e2 FFF7FEFF 		bl	lv_obj_get_style_prop
 1350              	.LVL136:
 478:..\..\..\arduinoLCD\test\Pain Drain\libraries\lvgl\src\widgets\../core/lv_obj_style_gen.h ****     return (lv_coord_t)v.num;
 1351              		.loc 3 478 0
 1352 00e6 00B2     		sxth	r0, r0
 1353              	.LVL137:
ARM GAS  C:\Users\haske\AppData\Local\Temp\ccGWO5DZ.s 			page 49


 1354              	.LBE85:
 1355              	.LBE84:
 143:..\..\..\arduinoLCD\test\Pain Drain\libraries\lvgl\src\widgets/lv_img.c ****         header.w = size.x;
 1356              		.loc 1 143 0
 1357 00e8 06AE     		add	r6, sp, #24
 1358 00ea 0023     		movs	r3, #0
 1359 00ec 0293     		str	r3, [sp, #8]
 1360 00ee 2A4B     		ldr	r3, .L51
 1361 00f0 0193     		str	r3, [sp, #4]
 1362 00f2 0090     		str	r0, [sp]
 1363 00f4 4B46     		mov	r3, r9
 1364 00f6 059A     		ldr	r2, [sp, #20]
 1365 00f8 2100     		movs	r1, r4
 1366 00fa 3000     		movs	r0, r6
 1367 00fc FFF7FEFF 		bl	lv_txt_get_size
 1368              	.LVL138:
 144:..\..\..\arduinoLCD\test\Pain Drain\libraries\lvgl\src\widgets/lv_img.c ****         header.h = size.y;
 1369              		.loc 1 144 0
 1370 0100 3388     		ldrh	r3, [r6]
 1371 0102 5B05     		lsls	r3, r3, #21
 1372 0104 DA0A     		lsrs	r2, r3, #11
 1373 0106 254B     		ldr	r3, .L51+4
 1374 0108 0799     		ldr	r1, [sp, #28]
 1375 010a 0B40     		ands	r3, r1
 1376 010c 1343     		orrs	r3, r2
 1377 010e 0793     		str	r3, [sp, #28]
 145:..\..\..\arduinoLCD\test\Pain Drain\libraries\lvgl\src\widgets/lv_img.c ****     }
 1378              		.loc 1 145 0
 1379 0110 0221     		movs	r1, #2
 1380 0112 725E     		ldrsh	r2, [r6, r1]
 1381 0114 5201     		lsls	r2, r2, #5
 1382 0116 1B0C     		lsrs	r3, r3, #16
 1383 0118 1F21     		movs	r1, #31
 1384 011a 0B40     		ands	r3, r1
 1385 011c 1343     		orrs	r3, r2
 1386 011e 1622     		movs	r2, #22
 1387 0120 02A9     		add	r1, sp, #8
 1388 0122 8C46     		mov	ip, r1
 1389 0124 6244     		add	r2, r2, ip
 1390 0126 1380     		strh	r3, [r2]
 1391              	.L47:
 1392              	.LBE79:
 148:..\..\..\arduinoLCD\test\Pain Drain\libraries\lvgl\src\widgets/lv_img.c ****     img->w        = header.w;
 1393              		.loc 1 148 0
 1394 0128 3821     		movs	r1, #56
 1395 012a 0323     		movs	r3, #3
 1396 012c 1D40     		ands	r5, r3
 1397 012e 7B5C     		ldrb	r3, [r7, r1]
 1398 0130 0322     		movs	r2, #3
 1399 0132 9343     		bics	r3, r2
 1400 0134 1E00     		movs	r6, r3
 149:..\..\..\arduinoLCD\test\Pain Drain\libraries\lvgl\src\widgets/lv_img.c ****     img->h        = header.h;
 1401              		.loc 1 149 0
 1402 0136 079B     		ldr	r3, [sp, #28]
 1403 0138 DA02     		lsls	r2, r3, #11
 1404 013a 520D     		lsrs	r2, r2, #21
 1405 013c 90B2     		uxth	r0, r2
ARM GAS  C:\Users\haske\AppData\Local\Temp\ccGWO5DZ.s 			page 50


 1406 013e BA85     		strh	r2, [r7, #44]
 150:..\..\..\arduinoLCD\test\Pain Drain\libraries\lvgl\src\widgets/lv_img.c ****     img->cf       = header.cf;
 1407              		.loc 1 150 0
 1408 0140 1623     		movs	r3, #22
 1409 0142 02AA     		add	r2, sp, #8
 1410 0144 9446     		mov	ip, r2
 1411 0146 6344     		add	r3, r3, ip
 1412 0148 1A88     		ldrh	r2, [r3]
 1413 014a 5209     		lsrs	r2, r2, #5
 1414 014c 94B2     		uxth	r4, r2
 1415              	.LVL139:
 1416 014e FA85     		strh	r2, [r7, #46]
 151:..\..\..\arduinoLCD\test\Pain Drain\libraries\lvgl\src\widgets/lv_img.c ****     img->pivot.x = header.w / 2;
 1417              		.loc 1 151 0
 1418 0150 07AB     		add	r3, sp, #28
 1419 0152 1B78     		ldrb	r3, [r3]
 1420 0154 DB06     		lsls	r3, r3, #27
 1421 0156 5A0E     		lsrs	r2, r3, #25
 1422 0158 3300     		movs	r3, r6
 1423 015a 2B43     		orrs	r3, r5
 1424 015c 7C25     		movs	r5, #124
 1425 015e AB43     		bics	r3, r5
 1426 0160 1343     		orrs	r3, r2
 1427 0162 7B54     		strb	r3, [r7, r1]
 152:..\..\..\arduinoLCD\test\Pain Drain\libraries\lvgl\src\widgets/lv_img.c ****     img->pivot.y = header.h / 2;
 1428              		.loc 1 152 0
 1429 0164 4008     		lsrs	r0, r0, #1
 1430 0166 7886     		strh	r0, [r7, #50]
 153:..\..\..\arduinoLCD\test\Pain Drain\libraries\lvgl\src\widgets/lv_img.c **** 
 1431              		.loc 1 153 0
 1432 0168 6308     		lsrs	r3, r4, #1
 1433 016a BB86     		strh	r3, [r7, #52]
 155:..\..\..\arduinoLCD\test\Pain Drain\libraries\lvgl\src\widgets/lv_img.c **** 
 1434              		.loc 1 155 0
 1435 016c 3800     		movs	r0, r7
 1436 016e FFF7FEFF 		bl	lv_obj_refresh_self_size
 1437              	.LVL140:
 158:..\..\..\arduinoLCD\test\Pain Drain\libraries\lvgl\src\widgets/lv_img.c **** 
 1438              		.loc 1 158 0
 1439 0172 3B8E     		ldrh	r3, [r7, #48]
 1440 0174 002B     		cmp	r3, #0
 1441 0176 04D1     		bne	.L48
 158:..\..\..\arduinoLCD\test\Pain Drain\libraries\lvgl\src\widgets/lv_img.c **** 
 1442              		.loc 1 158 0 is_stmt 0 discriminator 2
 1443 0178 FA8E     		ldrh	r2, [r7, #54]
 1444 017a 0133     		adds	r3, r3, #1
 1445 017c FF33     		adds	r3, r3, #255
 1446 017e 9A42     		cmp	r2, r3
 1447 0180 02D0     		beq	.L49
 1448              	.L48:
 158:..\..\..\arduinoLCD\test\Pain Drain\libraries\lvgl\src\widgets/lv_img.c **** 
 1449              		.loc 1 158 0 discriminator 3
 1450 0182 3800     		movs	r0, r7
 1451 0184 FFF7FEFF 		bl	lv_obj_refresh_ext_draw_size
 1452              	.LVL141:
 1453              	.L49:
 160:..\..\..\arduinoLCD\test\Pain Drain\libraries\lvgl\src\widgets/lv_img.c **** }
ARM GAS  C:\Users\haske\AppData\Local\Temp\ccGWO5DZ.s 			page 51


 1454              		.loc 1 160 0 is_stmt 1
 1455 0188 3800     		movs	r0, r7
 1456 018a FFF7FEFF 		bl	lv_obj_invalidate
 1457              	.LVL142:
 1458              	.L37:
 161:..\..\..\arduinoLCD\test\Pain Drain\libraries\lvgl\src\widgets/lv_img.c **** 
 1459              		.loc 1 161 0
 1460 018e 09B0     		add	sp, sp, #36
 1461              		@ sp needed
 1462              	.LVL143:
 1463 0190 0CBC     		pop	{r2, r3}
 1464 0192 9046     		mov	r8, r2
 1465 0194 9946     		mov	r9, r3
 1466 0196 F0BD     		pop	{r4, r5, r6, r7, pc}
 1467              	.L52:
 1468              		.align	2
 1469              	.L51:
 1470 0198 FF1F0000 		.word	8191
 1471 019c FF03E0FF 		.word	-2096129
 1472              		.cfi_endproc
 1473              	.LFE166:
 1474              		.size	lv_img_set_src, .-lv_img_set_src
 1475              		.section	.text.lv_img_event,"ax",%progbits
 1476              		.align	2
 1477              		.code	16
 1478              		.thumb_func
 1479              		.type	lv_img_event, %function
 1480              	lv_img_event:
 1481              	.LFB185:
 438:..\..\..\arduinoLCD\test\Pain Drain\libraries\lvgl\src\widgets/lv_img.c ****     LV_UNUSED(class_p);
 1482              		.loc 1 438 0
 1483              		.cfi_startproc
 1484              		@ args = 0, pretend = 0, frame = 16
 1485              		@ frame_needed = 0, uses_anonymous_args = 0
 1486              	.LVL144:
 1487 0000 F0B5     		push	{r4, r5, r6, r7, lr}
 1488              		.cfi_def_cfa_offset 20
 1489              		.cfi_offset 4, -20
 1490              		.cfi_offset 5, -16
 1491              		.cfi_offset 6, -12
 1492              		.cfi_offset 7, -8
 1493              		.cfi_offset 14, -4
 1494 0002 87B0     		sub	sp, sp, #28
 1495              		.cfi_def_cfa_offset 48
 1496 0004 0D00     		movs	r5, r1
 441:..\..\..\arduinoLCD\test\Pain Drain\libraries\lvgl\src\widgets/lv_img.c **** 
 1497              		.loc 1 441 0
 1498 0006 0800     		movs	r0, r1
 1499              	.LVL145:
 1500 0008 FFF7FEFF 		bl	lv_event_get_code
 1501              	.LVL146:
 1502 000c 0400     		movs	r4, r0
 1503              	.LVL147:
 444:..\..\..\arduinoLCD\test\Pain Drain\libraries\lvgl\src\widgets/lv_img.c ****         /*Call the ancestor's event handler*/
 1504              		.loc 1 444 0
 1505 000e 1528     		cmp	r0, #21
 1506 0010 08D0     		beq	.L54
ARM GAS  C:\Users\haske\AppData\Local\Temp\ccGWO5DZ.s 			page 52


 444:..\..\..\arduinoLCD\test\Pain Drain\libraries\lvgl\src\widgets/lv_img.c ****         /*Call the ancestor's event handler*/
 1507              		.loc 1 444 0 is_stmt 0 discriminator 1
 1508 0012 1828     		cmp	r0, #24
 1509 0014 06D0     		beq	.L54
 1510              	.LBB86:
 446:..\..\..\arduinoLCD\test\Pain Drain\libraries\lvgl\src\widgets/lv_img.c ****         if(res != LV_RES_OK) return;
 1511              		.loc 1 446 0 is_stmt 1
 1512 0016 2900     		movs	r1, r5
 1513 0018 7548     		ldr	r0, .L70
 1514              	.LVL148:
 1515 001a FFF7FEFF 		bl	lv_obj_event_base
 1516              	.LVL149:
 447:..\..\..\arduinoLCD\test\Pain Drain\libraries\lvgl\src\widgets/lv_img.c ****     }
 1517              		.loc 1 447 0
 1518 001e 0128     		cmp	r0, #1
 1519 0020 00D0     		beq	.LCB1425
 1520 0022 E2E0     		b	.L53	@long jump
 1521              	.LCB1425:
 1522              	.LVL150:
 1523              	.L54:
 1524              	.LBE86:
 450:..\..\..\arduinoLCD\test\Pain Drain\libraries\lvgl\src\widgets/lv_img.c ****     lv_img_t * img = (lv_img_t *)obj;
 1525              		.loc 1 450 0
 1526 0024 2800     		movs	r0, r5
 1527 0026 FFF7FEFF 		bl	lv_event_get_target
 1528              	.LVL151:
 1529 002a 0600     		movs	r6, r0
 1530              	.LVL152:
 453:..\..\..\arduinoLCD\test\Pain Drain\libraries\lvgl\src\widgets/lv_img.c ****         /*Refresh the file name to refresh the symbol text size*/
 1531              		.loc 1 453 0
 1532 002c 2A2C     		cmp	r4, #42
 1533 002e 0CD1     		bne	.L56
 455:..\..\..\arduinoLCD\test\Pain Drain\libraries\lvgl\src\widgets/lv_img.c ****             lv_img_set_src(obj, img->src);
 1534              		.loc 1 455 0
 1535 0030 3823     		movs	r3, #56
 1536 0032 C35C     		ldrb	r3, [r0, r3]
 1537 0034 0322     		movs	r2, #3
 1538 0036 1340     		ands	r3, r2
 1539 0038 022B     		cmp	r3, #2
 1540 003a 03D1     		bne	.L57
 456:..\..\..\arduinoLCD\test\Pain Drain\libraries\lvgl\src\widgets/lv_img.c ****         }
 1541              		.loc 1 456 0
 1542 003c 416A     		ldr	r1, [r0, #36]
 1543 003e FFF7FEFF 		bl	lv_img_set_src
 1544              	.LVL153:
 1545 0042 D2E0     		b	.L53
 1546              	.LVL154:
 1547              	.L57:
 460:..\..\..\arduinoLCD\test\Pain Drain\libraries\lvgl\src\widgets/lv_img.c ****         }
 1548              		.loc 1 460 0
 1549 0044 FFF7FEFF 		bl	lv_obj_refresh_ext_draw_size
 1550              	.LVL155:
 1551 0048 CFE0     		b	.L53
 1552              	.LVL156:
 1553              	.L56:
 463:..\..\..\arduinoLCD\test\Pain Drain\libraries\lvgl\src\widgets/lv_img.c **** 
 1554              		.loc 1 463 0
ARM GAS  C:\Users\haske\AppData\Local\Temp\ccGWO5DZ.s 			page 53


 1555 004a 132C     		cmp	r4, #19
 1556 004c 48D1     		bne	.L58
 1557              	.LBB87:
 465:..\..\..\arduinoLCD\test\Pain Drain\libraries\lvgl\src\widgets/lv_img.c **** 
 1558              		.loc 1 465 0
 1559 004e 2800     		movs	r0, r5
 1560              	.LVL157:
 1561 0050 FFF7FEFF 		bl	lv_event_get_param
 1562              	.LVL158:
 1563 0054 0700     		movs	r7, r0
 1564              	.LVL159:
 468:..\..\..\arduinoLCD\test\Pain Drain\libraries\lvgl\src\widgets/lv_img.c ****             lv_area_t a;
 1565              		.loc 1 468 0
 1566 0056 338E     		ldrh	r3, [r6, #48]
 1567 0058 002B     		cmp	r3, #0
 1568 005a 05D1     		bne	.L59
 468:..\..\..\arduinoLCD\test\Pain Drain\libraries\lvgl\src\widgets/lv_img.c ****             lv_area_t a;
 1569              		.loc 1 468 0 is_stmt 0 discriminator 1
 1570 005c F28E     		ldrh	r2, [r6, #54]
 1571 005e 0133     		adds	r3, r3, #1
 1572 0060 FF33     		adds	r3, r3, #255
 1573 0062 9A42     		cmp	r2, r3
 1574 0064 00D1     		bne	.LCB1483
 1575 0066 C0E0     		b	.L53	@long jump
 1576              	.LCB1483:
 1577              	.L59:
 1578              	.LBB88:
 470:..\..\..\arduinoLCD\test\Pain Drain\libraries\lvgl\src\widgets/lv_img.c ****             lv_coord_t h = lv_obj_get_height(obj);
 1579              		.loc 1 470 0 is_stmt 1
 1580 0068 3000     		movs	r0, r6
 1581              	.LVL160:
 1582 006a FFF7FEFF 		bl	lv_obj_get_width
 1583              	.LVL161:
 1584 006e 0500     		movs	r5, r0
 1585              	.LVL162:
 471:..\..\..\arduinoLCD\test\Pain Drain\libraries\lvgl\src\widgets/lv_img.c ****             _lv_img_buf_get_transformed_area(&a, w, h, img->angle, img->zoom, &img->pivot);
 1586              		.loc 1 471 0
 1587 0070 3000     		movs	r0, r6
 1588 0072 FFF7FEFF 		bl	lv_obj_get_height
 1589              	.LVL163:
 1590 0076 0390     		str	r0, [sp, #12]
 1591              	.LVL164:
 472:..\..\..\arduinoLCD\test\Pain Drain\libraries\lvgl\src\widgets/lv_img.c ****             *s = LV_MAX(*s, -a.x1);
 1592              		.loc 1 472 0
 1593 0078 3300     		movs	r3, r6
 1594 007a 3233     		adds	r3, r3, #50
 1595 007c 1A00     		movs	r2, r3
 1596 007e 3021     		movs	r1, #48
 1597 0080 735E     		ldrsh	r3, [r6, r1]
 1598 0082 04AC     		add	r4, sp, #16
 1599              	.LVL165:
 1600 0084 0192     		str	r2, [sp, #4]
 1601 0086 F28E     		ldrh	r2, [r6, #54]
 1602 0088 0092     		str	r2, [sp]
 1603 008a 0200     		movs	r2, r0
 1604 008c 2900     		movs	r1, r5
 1605 008e 2000     		movs	r0, r4
ARM GAS  C:\Users\haske\AppData\Local\Temp\ccGWO5DZ.s 			page 54


 1606              	.LVL166:
 1607 0090 FFF7FEFF 		bl	_lv_img_buf_get_transformed_area
 1608              	.LVL167:
 473:..\..\..\arduinoLCD\test\Pain Drain\libraries\lvgl\src\widgets/lv_img.c ****             *s = LV_MAX(*s, -a.y1);
 1609              		.loc 1 473 0
 1610 0094 0023     		movs	r3, #0
 1611 0096 E25E     		ldrsh	r2, [r4, r3]
 1612 0098 5242     		rsbs	r2, r2, #0
 1613 009a 0021     		movs	r1, #0
 1614 009c 7B5E     		ldrsh	r3, [r7, r1]
 1615 009e 9342     		cmp	r3, r2
 1616 00a0 00DA     		bge	.L60
 1617 00a2 1300     		movs	r3, r2
 1618              	.L60:
 1619 00a4 1BB2     		sxth	r3, r3
 1620 00a6 3B80     		strh	r3, [r7]
 474:..\..\..\arduinoLCD\test\Pain Drain\libraries\lvgl\src\widgets/lv_img.c ****             *s = LV_MAX(*s, a.x2 - w);
 1621              		.loc 1 474 0
 1622 00a8 04AA     		add	r2, sp, #16
 1623 00aa 0221     		movs	r1, #2
 1624 00ac 525E     		ldrsh	r2, [r2, r1]
 1625 00ae 5242     		rsbs	r2, r2, #0
 1626 00b0 9342     		cmp	r3, r2
 1627 00b2 00DA     		bge	.L61
 1628 00b4 1300     		movs	r3, r2
 1629              	.L61:
 1630 00b6 1BB2     		sxth	r3, r3
 1631 00b8 3B80     		strh	r3, [r7]
 475:..\..\..\arduinoLCD\test\Pain Drain\libraries\lvgl\src\widgets/lv_img.c ****             *s = LV_MAX(*s, a.y2 - h);
 1632              		.loc 1 475 0
 1633 00ba 04AA     		add	r2, sp, #16
 1634 00bc 0421     		movs	r1, #4
 1635 00be 525E     		ldrsh	r2, [r2, r1]
 1636 00c0 551B     		subs	r5, r2, r5
 1637              	.LVL168:
 1638 00c2 AB42     		cmp	r3, r5
 1639 00c4 00DA     		bge	.L62
 1640 00c6 2B00     		movs	r3, r5
 1641              	.L62:
 1642 00c8 1BB2     		sxth	r3, r3
 1643 00ca 3B80     		strh	r3, [r7]
 476:..\..\..\arduinoLCD\test\Pain Drain\libraries\lvgl\src\widgets/lv_img.c ****         }
 1644              		.loc 1 476 0
 1645 00cc 04AA     		add	r2, sp, #16
 1646 00ce 0621     		movs	r1, #6
 1647 00d0 525E     		ldrsh	r2, [r2, r1]
 1648 00d2 0399     		ldr	r1, [sp, #12]
 1649 00d4 541A     		subs	r4, r2, r1
 1650 00d6 A342     		cmp	r3, r4
 1651 00d8 00DA     		bge	.L63
 1652 00da 2300     		movs	r3, r4
 1653              	.L63:
 1654 00dc 3B80     		strh	r3, [r7]
 1655 00de 84E0     		b	.L53
 1656              	.LVL169:
 1657              	.L58:
 1658              	.LBE88:
ARM GAS  C:\Users\haske\AppData\Local\Temp\ccGWO5DZ.s 			page 55


 1659              	.LBE87:
 479:..\..\..\arduinoLCD\test\Pain Drain\libraries\lvgl\src\widgets/lv_img.c ****         lv_hit_test_info_t * info = lv_event_get_param(e);
 1660              		.loc 1 479 0
 1661 00e0 112C     		cmp	r4, #17
 1662 00e2 5FD1     		bne	.L64
 1663              	.LBB89:
 480:..\..\..\arduinoLCD\test\Pain Drain\libraries\lvgl\src\widgets/lv_img.c **** 
 1664              		.loc 1 480 0
 1665 00e4 2800     		movs	r0, r5
 1666              	.LVL170:
 1667 00e6 FFF7FEFF 		bl	lv_event_get_param
 1668              	.LVL171:
 1669 00ea 0400     		movs	r4, r0
 1670              	.LVL172:
 484:..\..\..\arduinoLCD\test\Pain Drain\libraries\lvgl\src\widgets/lv_img.c ****            (img->zoom != LV_IMG_ZOOM_NONE || img->angle != 0 || img->pivot.x != img->w / 2 || img->
 1671              		.loc 1 484 0
 1672 00ec 2C23     		movs	r3, #44
 1673 00ee F55E     		ldrsh	r5, [r6, r3]
 1674              	.LVL173:
 1675 00f0 3000     		movs	r0, r6
 1676              	.LVL174:
 1677 00f2 FFF7FEFF 		bl	lv_obj_get_width
 1678              	.LVL175:
 1679 00f6 8542     		cmp	r5, r0
 1680 00f8 49D1     		bne	.L65
 484:..\..\..\arduinoLCD\test\Pain Drain\libraries\lvgl\src\widgets/lv_img.c ****            (img->zoom != LV_IMG_ZOOM_NONE || img->angle != 0 || img->pivot.x != img->w / 2 || img->
 1681              		.loc 1 484 0 is_stmt 0 discriminator 1
 1682 00fa 2E23     		movs	r3, #46
 1683 00fc F55E     		ldrsh	r5, [r6, r3]
 1684 00fe 3000     		movs	r0, r6
 1685 0100 FFF7FEFF 		bl	lv_obj_get_height
 1686              	.LVL176:
 1687 0104 8542     		cmp	r5, r0
 1688 0106 42D1     		bne	.L65
 485:..\..\..\arduinoLCD\test\Pain Drain\libraries\lvgl\src\widgets/lv_img.c **** 
 1689              		.loc 1 485 0 is_stmt 1 discriminator 2
 1690 0108 F28E     		ldrh	r2, [r6, #54]
 484:..\..\..\arduinoLCD\test\Pain Drain\libraries\lvgl\src\widgets/lv_img.c ****            (img->zoom != LV_IMG_ZOOM_NONE || img->angle != 0 || img->pivot.x != img->w / 2 || img->
 1691              		.loc 1 484 0 discriminator 2
 1692 010a 8023     		movs	r3, #128
 1693 010c 5B00     		lsls	r3, r3, #1
 1694 010e 9A42     		cmp	r2, r3
 1695 0110 14D1     		bne	.L66
 485:..\..\..\arduinoLCD\test\Pain Drain\libraries\lvgl\src\widgets/lv_img.c **** 
 1696              		.loc 1 485 0
 1697 0112 338E     		ldrh	r3, [r6, #48]
 1698 0114 002B     		cmp	r3, #0
 1699 0116 11D1     		bne	.L66
 485:..\..\..\arduinoLCD\test\Pain Drain\libraries\lvgl\src\widgets/lv_img.c **** 
 1700              		.loc 1 485 0 is_stmt 0 discriminator 1
 1701 0118 3223     		movs	r3, #50
 1702 011a F25E     		ldrsh	r2, [r6, r3]
 1703 011c 2C21     		movs	r1, #44
 1704 011e 735E     		ldrsh	r3, [r6, r1]
 1705 0120 D90F     		lsrs	r1, r3, #31
 1706 0122 CB18     		adds	r3, r1, r3
 1707 0124 5B10     		asrs	r3, r3, #1
ARM GAS  C:\Users\haske\AppData\Local\Temp\ccGWO5DZ.s 			page 56


 1708 0126 9A42     		cmp	r2, r3
 1709 0128 08D1     		bne	.L66
 485:..\..\..\arduinoLCD\test\Pain Drain\libraries\lvgl\src\widgets/lv_img.c **** 
 1710              		.loc 1 485 0 discriminator 2
 1711 012a 3423     		movs	r3, #52
 1712 012c F25E     		ldrsh	r2, [r6, r3]
 1713 012e 2E21     		movs	r1, #46
 1714 0130 735E     		ldrsh	r3, [r6, r1]
 1715 0132 D90F     		lsrs	r1, r3, #31
 1716 0134 CB18     		adds	r3, r1, r3
 1717 0136 5B10     		asrs	r3, r3, #1
 1718 0138 9A42     		cmp	r2, r3
 1719 013a 28D0     		beq	.L65
 1720              	.L66:
 1721              	.LBB90:
 487:..\..\..\arduinoLCD\test\Pain Drain\libraries\lvgl\src\widgets/lv_img.c ****             lv_coord_t h = lv_obj_get_height(obj);
 1722              		.loc 1 487 0 is_stmt 1
 1723 013c 3000     		movs	r0, r6
 1724 013e FFF7FEFF 		bl	lv_obj_get_width
 1725              	.LVL177:
 1726 0142 0700     		movs	r7, r0
 1727              	.LVL178:
 488:..\..\..\arduinoLCD\test\Pain Drain\libraries\lvgl\src\widgets/lv_img.c ****             lv_area_t coords;
 1728              		.loc 1 488 0
 1729 0144 3000     		movs	r0, r6
 1730 0146 FFF7FEFF 		bl	lv_obj_get_height
 1731              	.LVL179:
 1732 014a 0200     		movs	r2, r0
 1733              	.LVL180:
 490:..\..\..\arduinoLCD\test\Pain Drain\libraries\lvgl\src\widgets/lv_img.c ****             coords.x1 += obj->coords.x1;
 1734              		.loc 1 490 0
 1735 014c 3100     		movs	r1, r6
 1736 014e 3231     		adds	r1, r1, #50
 1737 0150 3020     		movs	r0, #48
 1738 0152 335E     		ldrsh	r3, [r6, r0]
 1739 0154 04AD     		add	r5, sp, #16
 1740 0156 0191     		str	r1, [sp, #4]
 1741 0158 F18E     		ldrh	r1, [r6, #54]
 1742 015a 0091     		str	r1, [sp]
 1743 015c 3900     		movs	r1, r7
 1744 015e 2800     		movs	r0, r5
 1745 0160 FFF7FEFF 		bl	_lv_img_buf_get_transformed_area
 1746              	.LVL181:
 491:..\..\..\arduinoLCD\test\Pain Drain\libraries\lvgl\src\widgets/lv_img.c ****             coords.y1 += obj->coords.y1;
 1747              		.loc 1 491 0
 1748 0164 B78A     		ldrh	r7, [r6, #20]
 1749              	.LVL182:
 1750 0166 2B88     		ldrh	r3, [r5]
 1751 0168 FB18     		adds	r3, r7, r3
 1752 016a 2B80     		strh	r3, [r5]
 492:..\..\..\arduinoLCD\test\Pain Drain\libraries\lvgl\src\widgets/lv_img.c ****             coords.x2 += obj->coords.x1;
 1753              		.loc 1 492 0
 1754 016c F08A     		ldrh	r0, [r6, #22]
 1755 016e 6988     		ldrh	r1, [r5, #2]
 1756 0170 4118     		adds	r1, r0, r1
 1757 0172 6980     		strh	r1, [r5, #2]
 493:..\..\..\arduinoLCD\test\Pain Drain\libraries\lvgl\src\widgets/lv_img.c ****             coords.y2 += obj->coords.y1;
ARM GAS  C:\Users\haske\AppData\Local\Temp\ccGWO5DZ.s 			page 57


 1758              		.loc 1 493 0
 1759 0174 AA88     		ldrh	r2, [r5, #4]
 1760 0176 BA18     		adds	r2, r7, r2
 1761 0178 AA80     		strh	r2, [r5, #4]
 494:..\..\..\arduinoLCD\test\Pain Drain\libraries\lvgl\src\widgets/lv_img.c **** 
 1762              		.loc 1 494 0
 1763 017a EB88     		ldrh	r3, [r5, #6]
 1764 017c C318     		adds	r3, r0, r3
 1765 017e EB80     		strh	r3, [r5, #6]
 496:..\..\..\arduinoLCD\test\Pain Drain\libraries\lvgl\src\widgets/lv_img.c ****         }
 1766              		.loc 1 496 0
 1767 0180 0022     		movs	r2, #0
 1768 0182 2168     		ldr	r1, [r4]
 1769 0184 2800     		movs	r0, r5
 1770 0186 FFF7FEFF 		bl	_lv_area_is_point_on
 1771              	.LVL183:
 1772 018a 2071     		strb	r0, [r4, #4]
 1773              	.LBE90:
 485:..\..\..\arduinoLCD\test\Pain Drain\libraries\lvgl\src\widgets/lv_img.c **** 
 1774              		.loc 1 485 0
 1775 018c 2DE0     		b	.L53
 1776              	.L65:
 1777              	.LBB91:
 500:..\..\..\arduinoLCD\test\Pain Drain\libraries\lvgl\src\widgets/lv_img.c ****             info->res = _lv_area_is_point_on(&a, info->point, 0);
 1778              		.loc 1 500 0 discriminator 6
 1779 018e 04A9     		add	r1, sp, #16
 1780 0190 3000     		movs	r0, r6
 1781 0192 FFF7FEFF 		bl	lv_obj_get_click_area
 1782              	.LVL184:
 501:..\..\..\arduinoLCD\test\Pain Drain\libraries\lvgl\src\widgets/lv_img.c ****         }
 1783              		.loc 1 501 0 discriminator 6
 1784 0196 0022     		movs	r2, #0
 1785 0198 2168     		ldr	r1, [r4]
 1786 019a 04A8     		add	r0, sp, #16
 1787 019c FFF7FEFF 		bl	_lv_area_is_point_on
 1788              	.LVL185:
 1789 01a0 2071     		strb	r0, [r4, #4]
 1790 01a2 22E0     		b	.L53
 1791              	.LVL186:
 1792              	.L64:
 1793              	.LBE91:
 1794              	.LBE89:
 504:..\..\..\arduinoLCD\test\Pain Drain\libraries\lvgl\src\widgets/lv_img.c ****         lv_point_t * p = lv_event_get_param(e);
 1795              		.loc 1 504 0
 1796 01a4 2C2C     		cmp	r4, #44
 1797 01a6 17D1     		bne	.L67
 1798              	.LBB92:
 505:..\..\..\arduinoLCD\test\Pain Drain\libraries\lvgl\src\widgets/lv_img.c ****         if(img->obj_size_mode == LV_IMG_SIZE_MODE_REAL) {
 1799              		.loc 1 505 0
 1800 01a8 2800     		movs	r0, r5
 1801              	.LVL187:
 1802 01aa FFF7FEFF 		bl	lv_event_get_param
 1803              	.LVL188:
 1804 01ae 0400     		movs	r4, r0
 1805              	.LVL189:
 506:..\..\..\arduinoLCD\test\Pain Drain\libraries\lvgl\src\widgets/lv_img.c ****             *p = lv_img_get_transformed_size(obj);
 1806              		.loc 1 506 0
ARM GAS  C:\Users\haske\AppData\Local\Temp\ccGWO5DZ.s 			page 58


 1807 01b0 3923     		movs	r3, #57
 1808 01b2 F35C     		ldrb	r3, [r6, r3]
 1809 01b4 0322     		movs	r2, #3
 1810 01b6 1340     		ands	r3, r2
 1811 01b8 012B     		cmp	r3, #1
 1812 01ba 06D1     		bne	.L68
 507:..\..\..\arduinoLCD\test\Pain Drain\libraries\lvgl\src\widgets/lv_img.c ****         }
 1813              		.loc 1 507 0
 1814 01bc 3000     		movs	r0, r6
 1815              	.LVL190:
 1816 01be FFF7FEFF 		bl	lv_img_get_transformed_size
 1817              	.LVL191:
 1818 01c2 2080     		strh	r0, [r4]
 1819 01c4 000C     		lsrs	r0, r0, #16
 1820 01c6 6080     		strh	r0, [r4, #2]
 1821 01c8 0FE0     		b	.L53
 1822              	.LVL192:
 1823              	.L68:
 510:..\..\..\arduinoLCD\test\Pain Drain\libraries\lvgl\src\widgets/lv_img.c ****             p->y = img->h;
 1824              		.loc 1 510 0
 1825 01ca 2C22     		movs	r2, #44
 1826 01cc B35E     		ldrsh	r3, [r6, r2]
 1827 01ce 0380     		strh	r3, [r0]
 511:..\..\..\arduinoLCD\test\Pain Drain\libraries\lvgl\src\widgets/lv_img.c ****         }
 1828              		.loc 1 511 0
 1829 01d0 2E22     		movs	r2, #46
 1830 01d2 B35E     		ldrsh	r3, [r6, r2]
 1831 01d4 4380     		strh	r3, [r0, #2]
 1832 01d6 08E0     		b	.L53
 1833              	.LVL193:
 1834              	.L67:
 1835              	.LBE92:
 514:..\..\..\arduinoLCD\test\Pain Drain\libraries\lvgl\src\widgets/lv_img.c ****         draw_img(e);
 1836              		.loc 1 514 0
 1837 01d8 152C     		cmp	r4, #21
 1838 01da 03D0     		beq	.L69
 514:..\..\..\arduinoLCD\test\Pain Drain\libraries\lvgl\src\widgets/lv_img.c ****         draw_img(e);
 1839              		.loc 1 514 0 is_stmt 0 discriminator 1
 1840 01dc 182C     		cmp	r4, #24
 1841 01de 01D0     		beq	.L69
 514:..\..\..\arduinoLCD\test\Pain Drain\libraries\lvgl\src\widgets/lv_img.c ****         draw_img(e);
 1842              		.loc 1 514 0 discriminator 2
 1843 01e0 122C     		cmp	r4, #18
 1844 01e2 02D1     		bne	.L53
 1845              	.L69:
 515:..\..\..\arduinoLCD\test\Pain Drain\libraries\lvgl\src\widgets/lv_img.c ****     }
 1846              		.loc 1 515 0 is_stmt 1
 1847 01e4 2800     		movs	r0, r5
 1848              	.LVL194:
 1849 01e6 FFF7FEFF 		bl	draw_img
 1850              	.LVL195:
 1851              	.L53:
 517:..\..\..\arduinoLCD\test\Pain Drain\libraries\lvgl\src\widgets/lv_img.c **** 
 1852              		.loc 1 517 0
 1853 01ea 07B0     		add	sp, sp, #28
 1854              		@ sp needed
 1855 01ec F0BD     		pop	{r4, r5, r6, r7, pc}
ARM GAS  C:\Users\haske\AppData\Local\Temp\ccGWO5DZ.s 			page 59


 1856              	.L71:
 1857 01ee C046     		.align	2
 1858              	.L70:
 1859 01f0 00000000 		.word	.LANCHOR0
 1860              		.cfi_endproc
 1861              	.LFE185:
 1862              		.size	lv_img_event, .-lv_img_event
 1863              		.section	.text.lv_img_set_offset_x,"ax",%progbits
 1864              		.align	2
 1865              		.global	lv_img_set_offset_x
 1866              		.code	16
 1867              		.thumb_func
 1868              		.type	lv_img_set_offset_x, %function
 1869              	lv_img_set_offset_x:
 1870              	.LFB167:
 164:..\..\..\arduinoLCD\test\Pain Drain\libraries\lvgl\src\widgets/lv_img.c ****     LV_ASSERT_OBJ(obj, MY_CLASS);
 1871              		.loc 1 164 0
 1872              		.cfi_startproc
 1873              		@ args = 0, pretend = 0, frame = 0
 1874              		@ frame_needed = 0, uses_anonymous_args = 0
 1875              	.LVL196:
 1876 0000 10B5     		push	{r4, lr}
 1877              		.cfi_def_cfa_offset 8
 1878              		.cfi_offset 4, -8
 1879              		.cfi_offset 14, -4
 1880              	.LVL197:
 169:..\..\..\arduinoLCD\test\Pain Drain\libraries\lvgl\src\widgets/lv_img.c ****     lv_obj_invalidate(obj);
 1881              		.loc 1 169 0
 1882 0002 0185     		strh	r1, [r0, #40]
 170:..\..\..\arduinoLCD\test\Pain Drain\libraries\lvgl\src\widgets/lv_img.c **** }
 1883              		.loc 1 170 0
 1884 0004 FFF7FEFF 		bl	lv_obj_invalidate
 1885              	.LVL198:
 171:..\..\..\arduinoLCD\test\Pain Drain\libraries\lvgl\src\widgets/lv_img.c **** 
 1886              		.loc 1 171 0
 1887              		@ sp needed
 1888 0008 10BD     		pop	{r4, pc}
 1889              		.cfi_endproc
 1890              	.LFE167:
 1891              		.size	lv_img_set_offset_x, .-lv_img_set_offset_x
 1892 000a C046     		.section	.text.lv_img_set_offset_y,"ax",%progbits
 1893              		.align	2
 1894              		.global	lv_img_set_offset_y
 1895              		.code	16
 1896              		.thumb_func
 1897              		.type	lv_img_set_offset_y, %function
 1898              	lv_img_set_offset_y:
 1899              	.LFB168:
 174:..\..\..\arduinoLCD\test\Pain Drain\libraries\lvgl\src\widgets/lv_img.c ****     LV_ASSERT_OBJ(obj, MY_CLASS);
 1900              		.loc 1 174 0
 1901              		.cfi_startproc
 1902              		@ args = 0, pretend = 0, frame = 0
 1903              		@ frame_needed = 0, uses_anonymous_args = 0
 1904              	.LVL199:
 1905 0000 10B5     		push	{r4, lr}
 1906              		.cfi_def_cfa_offset 8
 1907              		.cfi_offset 4, -8
ARM GAS  C:\Users\haske\AppData\Local\Temp\ccGWO5DZ.s 			page 60


 1908              		.cfi_offset 14, -4
 1909              	.LVL200:
 179:..\..\..\arduinoLCD\test\Pain Drain\libraries\lvgl\src\widgets/lv_img.c ****     lv_obj_invalidate(obj);
 1910              		.loc 1 179 0
 1911 0002 4185     		strh	r1, [r0, #42]
 180:..\..\..\arduinoLCD\test\Pain Drain\libraries\lvgl\src\widgets/lv_img.c **** }
 1912              		.loc 1 180 0
 1913 0004 FFF7FEFF 		bl	lv_obj_invalidate
 1914              	.LVL201:
 181:..\..\..\arduinoLCD\test\Pain Drain\libraries\lvgl\src\widgets/lv_img.c **** 
 1915              		.loc 1 181 0
 1916              		@ sp needed
 1917 0008 10BD     		pop	{r4, pc}
 1918              		.cfi_endproc
 1919              	.LFE168:
 1920              		.size	lv_img_set_offset_y, .-lv_img_set_offset_y
 1921 000a C046     		.section	.text.lv_img_set_angle,"ax",%progbits
 1922              		.align	2
 1923              		.global	lv_img_set_angle
 1924              		.code	16
 1925              		.thumb_func
 1926              		.type	lv_img_set_angle, %function
 1927              	lv_img_set_angle:
 1928              	.LFB169:
 184:..\..\..\arduinoLCD\test\Pain Drain\libraries\lvgl\src\widgets/lv_img.c ****     while(angle >= 3600) angle -= 3600;
 1929              		.loc 1 184 0
 1930              		.cfi_startproc
 1931              		@ args = 0, pretend = 0, frame = 16
 1932              		@ frame_needed = 0, uses_anonymous_args = 0
 1933              	.LVL202:
 1934 0000 F0B5     		push	{r4, r5, r6, r7, lr}
 1935              		.cfi_def_cfa_offset 20
 1936              		.cfi_offset 4, -20
 1937              		.cfi_offset 5, -16
 1938              		.cfi_offset 6, -12
 1939              		.cfi_offset 7, -8
 1940              		.cfi_offset 14, -4
 1941 0002 87B0     		sub	sp, sp, #28
 1942              		.cfi_def_cfa_offset 48
 1943 0004 0600     		movs	r6, r0
 1944 0006 0C00     		movs	r4, r1
 185:..\..\..\arduinoLCD\test\Pain Drain\libraries\lvgl\src\widgets/lv_img.c ****     while(angle < 0) angle += 3600;
 1945              		.loc 1 185 0
 1946 0008 03E0     		b	.L75
 1947              	.LVL203:
 1948              	.L76:
 185:..\..\..\arduinoLCD\test\Pain Drain\libraries\lvgl\src\widgets/lv_img.c ****     while(angle < 0) angle += 3600;
 1949              		.loc 1 185 0 is_stmt 0 discriminator 2
 1950 000a 354B     		ldr	r3, .L81
 1951 000c 9C46     		mov	ip, r3
 1952 000e 6444     		add	r4, r4, ip
 1953              	.LVL204:
 1954 0010 24B2     		sxth	r4, r4
 1955              	.LVL205:
 1956              	.L75:
 185:..\..\..\arduinoLCD\test\Pain Drain\libraries\lvgl\src\widgets/lv_img.c ****     while(angle < 0) angle += 3600;
 1957              		.loc 1 185 0 discriminator 1
ARM GAS  C:\Users\haske\AppData\Local\Temp\ccGWO5DZ.s 			page 61


 1958 0012 344B     		ldr	r3, .L81+4
 1959 0014 9C42     		cmp	r4, r3
 1960 0016 F8DC     		bgt	.L76
 1961 0018 04E0     		b	.L77
 1962              	.L78:
 186:..\..\..\arduinoLCD\test\Pain Drain\libraries\lvgl\src\widgets/lv_img.c **** 
 1963              		.loc 1 186 0 is_stmt 1 discriminator 2
 1964 001a E123     		movs	r3, #225
 1965 001c 1B01     		lsls	r3, r3, #4
 1966 001e 9C46     		mov	ip, r3
 1967 0020 6444     		add	r4, r4, ip
 1968              	.LVL206:
 1969 0022 24B2     		sxth	r4, r4
 1970              	.LVL207:
 1971              	.L77:
 186:..\..\..\arduinoLCD\test\Pain Drain\libraries\lvgl\src\widgets/lv_img.c **** 
 1972              		.loc 1 186 0 is_stmt 0 discriminator 1
 1973 0024 002C     		cmp	r4, #0
 1974 0026 F8DB     		blt	.L78
 1975              	.LVL208:
 189:..\..\..\arduinoLCD\test\Pain Drain\libraries\lvgl\src\widgets/lv_img.c **** 
 1976              		.loc 1 189 0 is_stmt 1
 1977 0028 338E     		ldrh	r3, [r6, #48]
 1978 002a 9C42     		cmp	r4, r3
 1979 002c 55D0     		beq	.L74
 191:..\..\..\arduinoLCD\test\Pain Drain\libraries\lvgl\src\widgets/lv_img.c ****     lv_coord_t w = lv_obj_get_width(obj);
 1980              		.loc 1 191 0
 1981 002e 3000     		movs	r0, r6
 1982              	.LVL209:
 1983 0030 FFF7FEFF 		bl	lv_obj_update_layout
 1984              	.LVL210:
 192:..\..\..\arduinoLCD\test\Pain Drain\libraries\lvgl\src\widgets/lv_img.c ****     lv_coord_t h = lv_obj_get_height(obj);
 1985              		.loc 1 192 0
 1986 0034 3000     		movs	r0, r6
 1987 0036 FFF7FEFF 		bl	lv_obj_get_width
 1988              	.LVL211:
 1989 003a 0290     		str	r0, [sp, #8]
 1990              	.LVL212:
 193:..\..\..\arduinoLCD\test\Pain Drain\libraries\lvgl\src\widgets/lv_img.c ****     lv_area_t a;
 1991              		.loc 1 193 0
 1992 003c 3000     		movs	r0, r6
 1993 003e FFF7FEFF 		bl	lv_obj_get_height
 1994              	.LVL213:
 195:..\..\..\arduinoLCD\test\Pain Drain\libraries\lvgl\src\widgets/lv_img.c ****     a.x1 += obj->coords.x1;
 1995              		.loc 1 195 0
 1996 0042 3700     		movs	r7, r6
 1997 0044 3237     		adds	r7, r7, #50
 1998 0046 3022     		movs	r2, #48
 1999 0048 B35E     		ldrsh	r3, [r6, r2]
 2000 004a 04AD     		add	r5, sp, #16
 2001 004c 0197     		str	r7, [sp, #4]
 2002 004e F28E     		ldrh	r2, [r6, #54]
 2003 0050 0092     		str	r2, [sp]
 2004 0052 0390     		str	r0, [sp, #12]
 2005 0054 0200     		movs	r2, r0
 2006 0056 0299     		ldr	r1, [sp, #8]
 2007 0058 2800     		movs	r0, r5
ARM GAS  C:\Users\haske\AppData\Local\Temp\ccGWO5DZ.s 			page 62


 2008              	.LVL214:
 2009 005a FFF7FEFF 		bl	_lv_img_buf_get_transformed_area
 2010              	.LVL215:
 196:..\..\..\arduinoLCD\test\Pain Drain\libraries\lvgl\src\widgets/lv_img.c ****     a.y1 += obj->coords.y1;
 2011              		.loc 1 196 0
 2012 005e B38A     		ldrh	r3, [r6, #20]
 2013 0060 9C46     		mov	ip, r3
 2014 0062 2B88     		ldrh	r3, [r5]
 2015 0064 6344     		add	r3, r3, ip
 2016 0066 2B80     		strh	r3, [r5]
 197:..\..\..\arduinoLCD\test\Pain Drain\libraries\lvgl\src\widgets/lv_img.c ****     a.x2 += obj->coords.x1;
 2017              		.loc 1 197 0
 2018 0068 F08A     		ldrh	r0, [r6, #22]
 2019 006a 6988     		ldrh	r1, [r5, #2]
 2020 006c 4118     		adds	r1, r0, r1
 2021 006e 6980     		strh	r1, [r5, #2]
 198:..\..\..\arduinoLCD\test\Pain Drain\libraries\lvgl\src\widgets/lv_img.c ****     a.y2 += obj->coords.y1;
 2022              		.loc 1 198 0
 2023 0070 AA88     		ldrh	r2, [r5, #4]
 2024 0072 6244     		add	r2, r2, ip
 2025 0074 AA80     		strh	r2, [r5, #4]
 199:..\..\..\arduinoLCD\test\Pain Drain\libraries\lvgl\src\widgets/lv_img.c ****     lv_obj_invalidate_area(obj, &a);
 2026              		.loc 1 199 0
 2027 0076 EB88     		ldrh	r3, [r5, #6]
 2028 0078 C318     		adds	r3, r0, r3
 2029 007a EB80     		strh	r3, [r5, #6]
 200:..\..\..\arduinoLCD\test\Pain Drain\libraries\lvgl\src\widgets/lv_img.c **** 
 2030              		.loc 1 200 0
 2031 007c 2900     		movs	r1, r5
 2032 007e 3000     		movs	r0, r6
 2033 0080 FFF7FEFF 		bl	lv_obj_invalidate_area
 2034              	.LVL216:
 202:..\..\..\arduinoLCD\test\Pain Drain\libraries\lvgl\src\widgets/lv_img.c **** 
 2035              		.loc 1 202 0
 2036 0084 3486     		strh	r4, [r6, #48]
 206:..\..\..\arduinoLCD\test\Pain Drain\libraries\lvgl\src\widgets/lv_img.c ****     lv_disp_enable_invalidation(disp, false);
 2037              		.loc 1 206 0
 2038 0086 3000     		movs	r0, r6
 2039 0088 FFF7FEFF 		bl	lv_obj_get_disp
 2040              	.LVL217:
 2041 008c 0400     		movs	r4, r0
 2042              	.LVL218:
 207:..\..\..\arduinoLCD\test\Pain Drain\libraries\lvgl\src\widgets/lv_img.c ****     lv_obj_refresh_ext_draw_size(obj);
 2043              		.loc 1 207 0
 2044 008e 0021     		movs	r1, #0
 2045 0090 FFF7FEFF 		bl	lv_disp_enable_invalidation
 2046              	.LVL219:
 208:..\..\..\arduinoLCD\test\Pain Drain\libraries\lvgl\src\widgets/lv_img.c ****     lv_disp_enable_invalidation(disp, true);
 2047              		.loc 1 208 0
 2048 0094 3000     		movs	r0, r6
 2049 0096 FFF7FEFF 		bl	lv_obj_refresh_ext_draw_size
 2050              	.LVL220:
 209:..\..\..\arduinoLCD\test\Pain Drain\libraries\lvgl\src\widgets/lv_img.c **** 
 2051              		.loc 1 209 0
 2052 009a 0121     		movs	r1, #1
 2053 009c 2000     		movs	r0, r4
 2054 009e FFF7FEFF 		bl	lv_disp_enable_invalidation
ARM GAS  C:\Users\haske\AppData\Local\Temp\ccGWO5DZ.s 			page 63


 2055              	.LVL221:
 211:..\..\..\arduinoLCD\test\Pain Drain\libraries\lvgl\src\widgets/lv_img.c ****     a.x1 += obj->coords.x1;
 2056              		.loc 1 211 0
 2057 00a2 3020     		movs	r0, #48
 2058 00a4 335E     		ldrsh	r3, [r6, r0]
 2059 00a6 0197     		str	r7, [sp, #4]
 2060 00a8 F28E     		ldrh	r2, [r6, #54]
 2061 00aa 0092     		str	r2, [sp]
 2062 00ac 039A     		ldr	r2, [sp, #12]
 2063 00ae 0299     		ldr	r1, [sp, #8]
 2064 00b0 2800     		movs	r0, r5
 2065 00b2 FFF7FEFF 		bl	_lv_img_buf_get_transformed_area
 2066              	.LVL222:
 212:..\..\..\arduinoLCD\test\Pain Drain\libraries\lvgl\src\widgets/lv_img.c ****     a.y1 += obj->coords.y1;
 2067              		.loc 1 212 0
 2068 00b6 B48A     		ldrh	r4, [r6, #20]
 2069              	.LVL223:
 2070 00b8 2B88     		ldrh	r3, [r5]
 2071 00ba E318     		adds	r3, r4, r3
 2072 00bc 2B80     		strh	r3, [r5]
 213:..\..\..\arduinoLCD\test\Pain Drain\libraries\lvgl\src\widgets/lv_img.c ****     a.x2 += obj->coords.x1;
 2073              		.loc 1 213 0
 2074 00be F08A     		ldrh	r0, [r6, #22]
 2075 00c0 6988     		ldrh	r1, [r5, #2]
 2076 00c2 4118     		adds	r1, r0, r1
 2077 00c4 6980     		strh	r1, [r5, #2]
 214:..\..\..\arduinoLCD\test\Pain Drain\libraries\lvgl\src\widgets/lv_img.c ****     a.y2 += obj->coords.y1;
 2078              		.loc 1 214 0
 2079 00c6 AA88     		ldrh	r2, [r5, #4]
 2080 00c8 A218     		adds	r2, r4, r2
 2081 00ca AA80     		strh	r2, [r5, #4]
 215:..\..\..\arduinoLCD\test\Pain Drain\libraries\lvgl\src\widgets/lv_img.c ****     lv_obj_invalidate_area(obj, &a);
 2082              		.loc 1 215 0
 2083 00cc EB88     		ldrh	r3, [r5, #6]
 2084 00ce C318     		adds	r3, r0, r3
 2085 00d0 EB80     		strh	r3, [r5, #6]
 216:..\..\..\arduinoLCD\test\Pain Drain\libraries\lvgl\src\widgets/lv_img.c **** }
 2086              		.loc 1 216 0
 2087 00d2 2900     		movs	r1, r5
 2088 00d4 3000     		movs	r0, r6
 2089 00d6 FFF7FEFF 		bl	lv_obj_invalidate_area
 2090              	.LVL224:
 2091              	.L74:
 217:..\..\..\arduinoLCD\test\Pain Drain\libraries\lvgl\src\widgets/lv_img.c **** 
 2092              		.loc 1 217 0
 2093 00da 07B0     		add	sp, sp, #28
 2094              		@ sp needed
 2095              	.LVL225:
 2096 00dc F0BD     		pop	{r4, r5, r6, r7, pc}
 2097              	.L82:
 2098 00de C046     		.align	2
 2099              	.L81:
 2100 00e0 F0F1FFFF 		.word	-3600
 2101 00e4 0F0E0000 		.word	3599
 2102              		.cfi_endproc
 2103              	.LFE169:
 2104              		.size	lv_img_set_angle, .-lv_img_set_angle
ARM GAS  C:\Users\haske\AppData\Local\Temp\ccGWO5DZ.s 			page 64


 2105              		.section	.text.lv_img_set_pivot,"ax",%progbits
 2106              		.align	2
 2107              		.global	lv_img_set_pivot
 2108              		.code	16
 2109              		.thumb_func
 2110              		.type	lv_img_set_pivot, %function
 2111              	lv_img_set_pivot:
 2112              	.LFB170:
 220:..\..\..\arduinoLCD\test\Pain Drain\libraries\lvgl\src\widgets/lv_img.c ****     lv_img_t * img = (lv_img_t *)obj;
 2113              		.loc 1 220 0
 2114              		.cfi_startproc
 2115              		@ args = 0, pretend = 0, frame = 16
 2116              		@ frame_needed = 0, uses_anonymous_args = 0
 2117              	.LVL226:
 2118 0000 F0B5     		push	{r4, r5, r6, r7, lr}
 2119              		.cfi_def_cfa_offset 20
 2120              		.cfi_offset 4, -20
 2121              		.cfi_offset 5, -16
 2122              		.cfi_offset 6, -12
 2123              		.cfi_offset 7, -8
 2124              		.cfi_offset 14, -4
 2125 0002 5746     		mov	r7, r10
 2126 0004 80B4     		push	{r7}
 2127              		.cfi_def_cfa_offset 24
 2128              		.cfi_offset 10, -24
 2129 0006 86B0     		sub	sp, sp, #24
 2130              		.cfi_def_cfa_offset 48
 2131 0008 0600     		movs	r6, r0
 2132 000a 0F00     		movs	r7, r1
 2133 000c 9246     		mov	r10, r2
 2134              	.LVL227:
 222:..\..\..\arduinoLCD\test\Pain Drain\libraries\lvgl\src\widgets/lv_img.c **** 
 2135              		.loc 1 222 0
 2136 000e 3222     		movs	r2, #50
 2137 0010 835E     		ldrsh	r3, [r0, r2]
 2138              	.LVL228:
 2139 0012 8B42     		cmp	r3, r1
 2140 0014 03D1     		bne	.L84
 222:..\..\..\arduinoLCD\test\Pain Drain\libraries\lvgl\src\widgets/lv_img.c **** 
 2141              		.loc 1 222 0 is_stmt 0 discriminator 1
 2142 0016 3422     		movs	r2, #52
 2143 0018 835E     		ldrsh	r3, [r0, r2]
 2144 001a 5345     		cmp	r3, r10
 2145 001c 57D0     		beq	.L83
 2146              	.L84:
 224:..\..\..\arduinoLCD\test\Pain Drain\libraries\lvgl\src\widgets/lv_img.c ****     lv_coord_t w = lv_obj_get_width(obj);
 2147              		.loc 1 224 0 is_stmt 1
 2148 001e 3000     		movs	r0, r6
 2149              	.LVL229:
 2150 0020 FFF7FEFF 		bl	lv_obj_update_layout
 2151              	.LVL230:
 225:..\..\..\arduinoLCD\test\Pain Drain\libraries\lvgl\src\widgets/lv_img.c ****     lv_coord_t h = lv_obj_get_height(obj);
 2152              		.loc 1 225 0
 2153 0024 3000     		movs	r0, r6
 2154 0026 FFF7FEFF 		bl	lv_obj_get_width
 2155              	.LVL231:
 2156 002a 0290     		str	r0, [sp, #8]
ARM GAS  C:\Users\haske\AppData\Local\Temp\ccGWO5DZ.s 			page 65


 2157              	.LVL232:
 226:..\..\..\arduinoLCD\test\Pain Drain\libraries\lvgl\src\widgets/lv_img.c ****     lv_area_t a;
 2158              		.loc 1 226 0
 2159 002c 3000     		movs	r0, r6
 2160 002e FFF7FEFF 		bl	lv_obj_get_height
 2161              	.LVL233:
 228:..\..\..\arduinoLCD\test\Pain Drain\libraries\lvgl\src\widgets/lv_img.c ****     a.x1 += obj->coords.x1;
 2162              		.loc 1 228 0
 2163 0032 3500     		movs	r5, r6
 2164 0034 3235     		adds	r5, r5, #50
 2165 0036 3022     		movs	r2, #48
 2166 0038 B35E     		ldrsh	r3, [r6, r2]
 2167 003a 04AC     		add	r4, sp, #16
 2168 003c 0195     		str	r5, [sp, #4]
 2169 003e F28E     		ldrh	r2, [r6, #54]
 2170 0040 0092     		str	r2, [sp]
 2171 0042 0390     		str	r0, [sp, #12]
 2172 0044 0200     		movs	r2, r0
 2173 0046 0299     		ldr	r1, [sp, #8]
 2174 0048 2000     		movs	r0, r4
 2175              	.LVL234:
 2176 004a FFF7FEFF 		bl	_lv_img_buf_get_transformed_area
 2177              	.LVL235:
 229:..\..\..\arduinoLCD\test\Pain Drain\libraries\lvgl\src\widgets/lv_img.c ****     a.y1 += obj->coords.y1;
 2178              		.loc 1 229 0
 2179 004e B38A     		ldrh	r3, [r6, #20]
 2180 0050 9C46     		mov	ip, r3
 2181 0052 2388     		ldrh	r3, [r4]
 2182 0054 6344     		add	r3, r3, ip
 2183 0056 2380     		strh	r3, [r4]
 230:..\..\..\arduinoLCD\test\Pain Drain\libraries\lvgl\src\widgets/lv_img.c ****     a.x2 += obj->coords.x1;
 2184              		.loc 1 230 0
 2185 0058 F08A     		ldrh	r0, [r6, #22]
 2186 005a 6188     		ldrh	r1, [r4, #2]
 2187 005c 4118     		adds	r1, r0, r1
 2188 005e 6180     		strh	r1, [r4, #2]
 231:..\..\..\arduinoLCD\test\Pain Drain\libraries\lvgl\src\widgets/lv_img.c ****     a.y2 += obj->coords.y1;
 2189              		.loc 1 231 0
 2190 0060 A288     		ldrh	r2, [r4, #4]
 2191 0062 6244     		add	r2, r2, ip
 2192 0064 A280     		strh	r2, [r4, #4]
 232:..\..\..\arduinoLCD\test\Pain Drain\libraries\lvgl\src\widgets/lv_img.c ****     lv_obj_invalidate_area(obj, &a);
 2193              		.loc 1 232 0
 2194 0066 E388     		ldrh	r3, [r4, #6]
 2195 0068 C318     		adds	r3, r0, r3
 2196 006a E380     		strh	r3, [r4, #6]
 233:..\..\..\arduinoLCD\test\Pain Drain\libraries\lvgl\src\widgets/lv_img.c **** 
 2197              		.loc 1 233 0
 2198 006c 2100     		movs	r1, r4
 2199 006e 3000     		movs	r0, r6
 2200 0070 FFF7FEFF 		bl	lv_obj_invalidate_area
 2201              	.LVL236:
 235:..\..\..\arduinoLCD\test\Pain Drain\libraries\lvgl\src\widgets/lv_img.c ****     img->pivot.y = y;
 2202              		.loc 1 235 0
 2203 0074 7786     		strh	r7, [r6, #50]
 236:..\..\..\arduinoLCD\test\Pain Drain\libraries\lvgl\src\widgets/lv_img.c **** 
 2204              		.loc 1 236 0
ARM GAS  C:\Users\haske\AppData\Local\Temp\ccGWO5DZ.s 			page 66


 2205 0076 5346     		mov	r3, r10
 2206 0078 B386     		strh	r3, [r6, #52]
 240:..\..\..\arduinoLCD\test\Pain Drain\libraries\lvgl\src\widgets/lv_img.c ****     lv_disp_enable_invalidation(disp, false);
 2207              		.loc 1 240 0
 2208 007a 3000     		movs	r0, r6
 2209 007c FFF7FEFF 		bl	lv_obj_get_disp
 2210              	.LVL237:
 2211 0080 0700     		movs	r7, r0
 2212              	.LVL238:
 241:..\..\..\arduinoLCD\test\Pain Drain\libraries\lvgl\src\widgets/lv_img.c ****     lv_obj_refresh_ext_draw_size(obj);
 2213              		.loc 1 241 0
 2214 0082 0021     		movs	r1, #0
 2215 0084 FFF7FEFF 		bl	lv_disp_enable_invalidation
 2216              	.LVL239:
 242:..\..\..\arduinoLCD\test\Pain Drain\libraries\lvgl\src\widgets/lv_img.c ****     lv_disp_enable_invalidation(disp, true);
 2217              		.loc 1 242 0
 2218 0088 3000     		movs	r0, r6
 2219 008a FFF7FEFF 		bl	lv_obj_refresh_ext_draw_size
 2220              	.LVL240:
 243:..\..\..\arduinoLCD\test\Pain Drain\libraries\lvgl\src\widgets/lv_img.c **** 
 2221              		.loc 1 243 0
 2222 008e 0121     		movs	r1, #1
 2223 0090 3800     		movs	r0, r7
 2224 0092 FFF7FEFF 		bl	lv_disp_enable_invalidation
 2225              	.LVL241:
 245:..\..\..\arduinoLCD\test\Pain Drain\libraries\lvgl\src\widgets/lv_img.c ****     a.x1 += obj->coords.x1;
 2226              		.loc 1 245 0
 2227 0096 3020     		movs	r0, #48
 2228 0098 335E     		ldrsh	r3, [r6, r0]
 2229 009a 0195     		str	r5, [sp, #4]
 2230 009c F28E     		ldrh	r2, [r6, #54]
 2231 009e 0092     		str	r2, [sp]
 2232 00a0 039A     		ldr	r2, [sp, #12]
 2233 00a2 0299     		ldr	r1, [sp, #8]
 2234 00a4 2000     		movs	r0, r4
 2235 00a6 FFF7FEFF 		bl	_lv_img_buf_get_transformed_area
 2236              	.LVL242:
 246:..\..\..\arduinoLCD\test\Pain Drain\libraries\lvgl\src\widgets/lv_img.c ****     a.y1 += obj->coords.y1;
 2237              		.loc 1 246 0
 2238 00aa B58A     		ldrh	r5, [r6, #20]
 2239 00ac 2388     		ldrh	r3, [r4]
 2240 00ae EB18     		adds	r3, r5, r3
 2241 00b0 2380     		strh	r3, [r4]
 247:..\..\..\arduinoLCD\test\Pain Drain\libraries\lvgl\src\widgets/lv_img.c ****     a.x2 += obj->coords.x1;
 2242              		.loc 1 247 0
 2243 00b2 F08A     		ldrh	r0, [r6, #22]
 2244 00b4 6188     		ldrh	r1, [r4, #2]
 2245 00b6 4118     		adds	r1, r0, r1
 2246 00b8 6180     		strh	r1, [r4, #2]
 248:..\..\..\arduinoLCD\test\Pain Drain\libraries\lvgl\src\widgets/lv_img.c ****     a.y2 += obj->coords.y1;
 2247              		.loc 1 248 0
 2248 00ba A288     		ldrh	r2, [r4, #4]
 2249 00bc AA18     		adds	r2, r5, r2
 2250 00be A280     		strh	r2, [r4, #4]
 249:..\..\..\arduinoLCD\test\Pain Drain\libraries\lvgl\src\widgets/lv_img.c ****     lv_obj_invalidate_area(obj, &a);
 2251              		.loc 1 249 0
 2252 00c0 E388     		ldrh	r3, [r4, #6]
ARM GAS  C:\Users\haske\AppData\Local\Temp\ccGWO5DZ.s 			page 67


 2253 00c2 C318     		adds	r3, r0, r3
 2254 00c4 E380     		strh	r3, [r4, #6]
 250:..\..\..\arduinoLCD\test\Pain Drain\libraries\lvgl\src\widgets/lv_img.c **** }
 2255              		.loc 1 250 0
 2256 00c6 2100     		movs	r1, r4
 2257 00c8 3000     		movs	r0, r6
 2258 00ca FFF7FEFF 		bl	lv_obj_invalidate_area
 2259              	.LVL243:
 2260              	.L83:
 251:..\..\..\arduinoLCD\test\Pain Drain\libraries\lvgl\src\widgets/lv_img.c **** 
 2261              		.loc 1 251 0
 2262 00ce 06B0     		add	sp, sp, #24
 2263              		@ sp needed
 2264              	.LVL244:
 2265 00d0 04BC     		pop	{r2}
 2266 00d2 9246     		mov	r10, r2
 2267 00d4 F0BD     		pop	{r4, r5, r6, r7, pc}
 2268              		.cfi_endproc
 2269              	.LFE170:
 2270              		.size	lv_img_set_pivot, .-lv_img_set_pivot
 2271 00d6 C046     		.section	.text.lv_img_set_zoom,"ax",%progbits
 2272              		.align	2
 2273              		.global	lv_img_set_zoom
 2274              		.code	16
 2275              		.thumb_func
 2276              		.type	lv_img_set_zoom, %function
 2277              	lv_img_set_zoom:
 2278              	.LFB171:
 254:..\..\..\arduinoLCD\test\Pain Drain\libraries\lvgl\src\widgets/lv_img.c ****     lv_img_t * img = (lv_img_t *)obj;
 2279              		.loc 1 254 0
 2280              		.cfi_startproc
 2281              		@ args = 0, pretend = 0, frame = 16
 2282              		@ frame_needed = 0, uses_anonymous_args = 0
 2283              	.LVL245:
 2284 0000 F0B5     		push	{r4, r5, r6, r7, lr}
 2285              		.cfi_def_cfa_offset 20
 2286              		.cfi_offset 4, -20
 2287              		.cfi_offset 5, -16
 2288              		.cfi_offset 6, -12
 2289              		.cfi_offset 7, -8
 2290              		.cfi_offset 14, -4
 2291 0002 87B0     		sub	sp, sp, #28
 2292              		.cfi_def_cfa_offset 48
 2293 0004 0600     		movs	r6, r0
 2294 0006 0F00     		movs	r7, r1
 2295              	.LVL246:
 256:..\..\..\arduinoLCD\test\Pain Drain\libraries\lvgl\src\widgets/lv_img.c **** 
 2296              		.loc 1 256 0
 2297 0008 C38E     		ldrh	r3, [r0, #54]
 2298 000a 8B42     		cmp	r3, r1
 2299 000c 61D0     		beq	.L87
 258:..\..\..\arduinoLCD\test\Pain Drain\libraries\lvgl\src\widgets/lv_img.c **** 
 2300              		.loc 1 258 0
 2301 000e 0029     		cmp	r1, #0
 2302 0010 00D1     		bne	.L89
 2303 0012 0137     		adds	r7, r7, #1
 2304              	.L89:
ARM GAS  C:\Users\haske\AppData\Local\Temp\ccGWO5DZ.s 			page 68


 2305              	.LVL247:
 260:..\..\..\arduinoLCD\test\Pain Drain\libraries\lvgl\src\widgets/lv_img.c ****     lv_coord_t w = lv_obj_get_width(obj);
 2306              		.loc 1 260 0
 2307 0014 3000     		movs	r0, r6
 2308              	.LVL248:
 2309 0016 FFF7FEFF 		bl	lv_obj_update_layout
 2310              	.LVL249:
 261:..\..\..\arduinoLCD\test\Pain Drain\libraries\lvgl\src\widgets/lv_img.c ****     lv_coord_t h = lv_obj_get_height(obj);
 2311              		.loc 1 261 0
 2312 001a 3000     		movs	r0, r6
 2313 001c FFF7FEFF 		bl	lv_obj_get_width
 2314              	.LVL250:
 2315 0020 0290     		str	r0, [sp, #8]
 2316              	.LVL251:
 262:..\..\..\arduinoLCD\test\Pain Drain\libraries\lvgl\src\widgets/lv_img.c ****     lv_area_t a;
 2317              		.loc 1 262 0
 2318 0022 3000     		movs	r0, r6
 2319 0024 FFF7FEFF 		bl	lv_obj_get_height
 2320              	.LVL252:
 264:..\..\..\arduinoLCD\test\Pain Drain\libraries\lvgl\src\widgets/lv_img.c ****     a.x1 += obj->coords.x1 - 1;
 2321              		.loc 1 264 0
 2322 0028 F28E     		ldrh	r2, [r6, #54]
 2323 002a 3500     		movs	r5, r6
 2324 002c 3235     		adds	r5, r5, #50
 2325 002e 3024     		movs	r4, #48
 2326 0030 335F     		ldrsh	r3, [r6, r4]
 2327 0032 04AC     		add	r4, sp, #16
 2328 0034 0195     		str	r5, [sp, #4]
 2329 0036 120A     		lsrs	r2, r2, #8
 2330 0038 0092     		str	r2, [sp]
 2331 003a 0390     		str	r0, [sp, #12]
 2332 003c 0200     		movs	r2, r0
 2333 003e 0299     		ldr	r1, [sp, #8]
 2334 0040 2000     		movs	r0, r4
 2335              	.LVL253:
 2336 0042 FFF7FEFF 		bl	_lv_img_buf_get_transformed_area
 2337              	.LVL254:
 265:..\..\..\arduinoLCD\test\Pain Drain\libraries\lvgl\src\widgets/lv_img.c ****     a.y1 += obj->coords.y1 - 1;
 2338              		.loc 1 265 0
 2339 0046 B38A     		ldrh	r3, [r6, #20]
 2340 0048 9C46     		mov	ip, r3
 2341 004a 2388     		ldrh	r3, [r4]
 2342 004c 6344     		add	r3, r3, ip
 2343 004e 013B     		subs	r3, r3, #1
 2344 0050 2380     		strh	r3, [r4]
 266:..\..\..\arduinoLCD\test\Pain Drain\libraries\lvgl\src\widgets/lv_img.c ****     a.x2 += obj->coords.x1 + 1;
 2345              		.loc 1 266 0
 2346 0052 F08A     		ldrh	r0, [r6, #22]
 2347 0054 6188     		ldrh	r1, [r4, #2]
 2348 0056 4118     		adds	r1, r0, r1
 2349 0058 0139     		subs	r1, r1, #1
 2350 005a 6180     		strh	r1, [r4, #2]
 267:..\..\..\arduinoLCD\test\Pain Drain\libraries\lvgl\src\widgets/lv_img.c ****     a.y2 += obj->coords.y1 + 1;
 2351              		.loc 1 267 0
 2352 005c A288     		ldrh	r2, [r4, #4]
 2353 005e 6244     		add	r2, r2, ip
 2354 0060 0132     		adds	r2, r2, #1
ARM GAS  C:\Users\haske\AppData\Local\Temp\ccGWO5DZ.s 			page 69


 2355 0062 A280     		strh	r2, [r4, #4]
 268:..\..\..\arduinoLCD\test\Pain Drain\libraries\lvgl\src\widgets/lv_img.c ****     lv_obj_invalidate_area(obj, &a);
 2356              		.loc 1 268 0
 2357 0064 E388     		ldrh	r3, [r4, #6]
 2358 0066 C318     		adds	r3, r0, r3
 2359 0068 0133     		adds	r3, r3, #1
 2360 006a E380     		strh	r3, [r4, #6]
 269:..\..\..\arduinoLCD\test\Pain Drain\libraries\lvgl\src\widgets/lv_img.c **** 
 2361              		.loc 1 269 0
 2362 006c 2100     		movs	r1, r4
 2363 006e 3000     		movs	r0, r6
 2364 0070 FFF7FEFF 		bl	lv_obj_invalidate_area
 2365              	.LVL255:
 271:..\..\..\arduinoLCD\test\Pain Drain\libraries\lvgl\src\widgets/lv_img.c **** 
 2366              		.loc 1 271 0
 2367 0074 F786     		strh	r7, [r6, #54]
 275:..\..\..\arduinoLCD\test\Pain Drain\libraries\lvgl\src\widgets/lv_img.c ****     lv_disp_enable_invalidation(disp, false);
 2368              		.loc 1 275 0
 2369 0076 3000     		movs	r0, r6
 2370 0078 FFF7FEFF 		bl	lv_obj_get_disp
 2371              	.LVL256:
 2372 007c 0700     		movs	r7, r0
 2373              	.LVL257:
 276:..\..\..\arduinoLCD\test\Pain Drain\libraries\lvgl\src\widgets/lv_img.c ****     lv_obj_refresh_ext_draw_size(obj);
 2374              		.loc 1 276 0
 2375 007e 0021     		movs	r1, #0
 2376 0080 FFF7FEFF 		bl	lv_disp_enable_invalidation
 2377              	.LVL258:
 277:..\..\..\arduinoLCD\test\Pain Drain\libraries\lvgl\src\widgets/lv_img.c ****     lv_disp_enable_invalidation(disp, true);
 2378              		.loc 1 277 0
 2379 0084 3000     		movs	r0, r6
 2380 0086 FFF7FEFF 		bl	lv_obj_refresh_ext_draw_size
 2381              	.LVL259:
 278:..\..\..\arduinoLCD\test\Pain Drain\libraries\lvgl\src\widgets/lv_img.c **** 
 2382              		.loc 1 278 0
 2383 008a 0121     		movs	r1, #1
 2384 008c 3800     		movs	r0, r7
 2385 008e FFF7FEFF 		bl	lv_disp_enable_invalidation
 2386              	.LVL260:
 280:..\..\..\arduinoLCD\test\Pain Drain\libraries\lvgl\src\widgets/lv_img.c ****     a.x1 += obj->coords.x1 - 1;
 2387              		.loc 1 280 0
 2388 0092 3020     		movs	r0, #48
 2389 0094 335E     		ldrsh	r3, [r6, r0]
 2390 0096 0195     		str	r5, [sp, #4]
 2391 0098 F28E     		ldrh	r2, [r6, #54]
 2392 009a 0092     		str	r2, [sp]
 2393 009c 039A     		ldr	r2, [sp, #12]
 2394 009e 0299     		ldr	r1, [sp, #8]
 2395 00a0 2000     		movs	r0, r4
 2396 00a2 FFF7FEFF 		bl	_lv_img_buf_get_transformed_area
 2397              	.LVL261:
 281:..\..\..\arduinoLCD\test\Pain Drain\libraries\lvgl\src\widgets/lv_img.c ****     a.y1 += obj->coords.y1 - 1;
 2398              		.loc 1 281 0
 2399 00a6 B58A     		ldrh	r5, [r6, #20]
 2400 00a8 2388     		ldrh	r3, [r4]
 2401 00aa EB18     		adds	r3, r5, r3
 2402 00ac 013B     		subs	r3, r3, #1
ARM GAS  C:\Users\haske\AppData\Local\Temp\ccGWO5DZ.s 			page 70


 2403 00ae 2380     		strh	r3, [r4]
 282:..\..\..\arduinoLCD\test\Pain Drain\libraries\lvgl\src\widgets/lv_img.c ****     a.x2 += obj->coords.x1 + 1;
 2404              		.loc 1 282 0
 2405 00b0 F08A     		ldrh	r0, [r6, #22]
 2406 00b2 6188     		ldrh	r1, [r4, #2]
 2407 00b4 4118     		adds	r1, r0, r1
 2408 00b6 0139     		subs	r1, r1, #1
 2409 00b8 6180     		strh	r1, [r4, #2]
 283:..\..\..\arduinoLCD\test\Pain Drain\libraries\lvgl\src\widgets/lv_img.c ****     a.y2 += obj->coords.y1 + 1;
 2410              		.loc 1 283 0
 2411 00ba A288     		ldrh	r2, [r4, #4]
 2412 00bc AA18     		adds	r2, r5, r2
 2413 00be 0132     		adds	r2, r2, #1
 2414 00c0 A280     		strh	r2, [r4, #4]
 284:..\..\..\arduinoLCD\test\Pain Drain\libraries\lvgl\src\widgets/lv_img.c ****     lv_obj_invalidate_area(obj, &a);
 2415              		.loc 1 284 0
 2416 00c2 E388     		ldrh	r3, [r4, #6]
 2417 00c4 C318     		adds	r3, r0, r3
 2418 00c6 0133     		adds	r3, r3, #1
 2419 00c8 E380     		strh	r3, [r4, #6]
 285:..\..\..\arduinoLCD\test\Pain Drain\libraries\lvgl\src\widgets/lv_img.c **** }
 2420              		.loc 1 285 0
 2421 00ca 2100     		movs	r1, r4
 2422 00cc 3000     		movs	r0, r6
 2423 00ce FFF7FEFF 		bl	lv_obj_invalidate_area
 2424              	.LVL262:
 2425              	.L87:
 286:..\..\..\arduinoLCD\test\Pain Drain\libraries\lvgl\src\widgets/lv_img.c **** 
 2426              		.loc 1 286 0
 2427 00d2 07B0     		add	sp, sp, #28
 2428              		@ sp needed
 2429              	.LVL263:
 2430 00d4 F0BD     		pop	{r4, r5, r6, r7, pc}
 2431              		.cfi_endproc
 2432              	.LFE171:
 2433              		.size	lv_img_set_zoom, .-lv_img_set_zoom
 2434 00d6 C046     		.section	.text.lv_img_set_antialias,"ax",%progbits
 2435              		.align	2
 2436              		.global	lv_img_set_antialias
 2437              		.code	16
 2438              		.thumb_func
 2439              		.type	lv_img_set_antialias, %function
 2440              	lv_img_set_antialias:
 2441              	.LFB172:
 289:..\..\..\arduinoLCD\test\Pain Drain\libraries\lvgl\src\widgets/lv_img.c ****     lv_img_t * img = (lv_img_t *)obj;
 2442              		.loc 1 289 0
 2443              		.cfi_startproc
 2444              		@ args = 0, pretend = 0, frame = 0
 2445              		@ frame_needed = 0, uses_anonymous_args = 0
 2446              	.LVL264:
 2447 0000 10B5     		push	{r4, lr}
 2448              		.cfi_def_cfa_offset 8
 2449              		.cfi_offset 4, -8
 2450              		.cfi_offset 14, -4
 2451              	.LVL265:
 291:..\..\..\arduinoLCD\test\Pain Drain\libraries\lvgl\src\widgets/lv_img.c **** 
 2452              		.loc 1 291 0
ARM GAS  C:\Users\haske\AppData\Local\Temp\ccGWO5DZ.s 			page 71


 2453 0002 3823     		movs	r3, #56
 2454 0004 C35C     		ldrb	r3, [r0, r3]
 2455 0006 DB09     		lsrs	r3, r3, #7
 2456 0008 8B42     		cmp	r3, r1
 2457 000a 08D0     		beq	.L92
 293:..\..\..\arduinoLCD\test\Pain Drain\libraries\lvgl\src\widgets/lv_img.c ****     lv_obj_invalidate(obj);
 2458              		.loc 1 293 0
 2459 000c 3822     		movs	r2, #56
 2460 000e C901     		lsls	r1, r1, #7
 2461              	.LVL266:
 2462 0010 835C     		ldrb	r3, [r0, r2]
 2463 0012 7F24     		movs	r4, #127
 2464 0014 2340     		ands	r3, r4
 2465 0016 1943     		orrs	r1, r3
 2466 0018 8154     		strb	r1, [r0, r2]
 294:..\..\..\arduinoLCD\test\Pain Drain\libraries\lvgl\src\widgets/lv_img.c **** }
 2467              		.loc 1 294 0
 2468 001a FFF7FEFF 		bl	lv_obj_invalidate
 2469              	.LVL267:
 2470              	.L92:
 295:..\..\..\arduinoLCD\test\Pain Drain\libraries\lvgl\src\widgets/lv_img.c **** 
 2471              		.loc 1 295 0
 2472              		@ sp needed
 2473 001e 10BD     		pop	{r4, pc}
 2474              		.cfi_endproc
 2475              	.LFE172:
 2476              		.size	lv_img_set_antialias, .-lv_img_set_antialias
 2477              		.section	.text.lv_img_set_size_mode,"ax",%progbits
 2478              		.align	2
 2479              		.global	lv_img_set_size_mode
 2480              		.code	16
 2481              		.thumb_func
 2482              		.type	lv_img_set_size_mode, %function
 2483              	lv_img_set_size_mode:
 2484              	.LFB173:
 298:..\..\..\arduinoLCD\test\Pain Drain\libraries\lvgl\src\widgets/lv_img.c ****     LV_ASSERT_OBJ(obj, MY_CLASS);
 2485              		.loc 1 298 0
 2486              		.cfi_startproc
 2487              		@ args = 0, pretend = 0, frame = 0
 2488              		@ frame_needed = 0, uses_anonymous_args = 0
 2489              	.LVL268:
 2490 0000 10B5     		push	{r4, lr}
 2491              		.cfi_def_cfa_offset 8
 2492              		.cfi_offset 4, -8
 2493              		.cfi_offset 14, -4
 2494              	.LVL269:
 301:..\..\..\arduinoLCD\test\Pain Drain\libraries\lvgl\src\widgets/lv_img.c **** 
 2495              		.loc 1 301 0
 2496 0002 3923     		movs	r3, #57
 2497 0004 C35C     		ldrb	r3, [r0, r3]
 2498 0006 9B07     		lsls	r3, r3, #30
 2499 0008 9B0F     		lsrs	r3, r3, #30
 2500 000a 8B42     		cmp	r3, r1
 2501 000c 0AD0     		beq	.L94
 303:..\..\..\arduinoLCD\test\Pain Drain\libraries\lvgl\src\widgets/lv_img.c ****     lv_obj_invalidate(obj);
 2502              		.loc 1 303 0
 2503 000e 0200     		movs	r2, r0
ARM GAS  C:\Users\haske\AppData\Local\Temp\ccGWO5DZ.s 			page 72


 2504 0010 3832     		adds	r2, r2, #56
 2505 0012 0323     		movs	r3, #3
 2506 0014 1940     		ands	r1, r3
 2507              	.LVL270:
 2508 0016 5378     		ldrb	r3, [r2, #1]
 2509 0018 0324     		movs	r4, #3
 2510 001a A343     		bics	r3, r4
 2511 001c 1943     		orrs	r1, r3
 2512 001e 5170     		strb	r1, [r2, #1]
 304:..\..\..\arduinoLCD\test\Pain Drain\libraries\lvgl\src\widgets/lv_img.c **** }
 2513              		.loc 1 304 0
 2514 0020 FFF7FEFF 		bl	lv_obj_invalidate
 2515              	.LVL271:
 2516              	.L94:
 305:..\..\..\arduinoLCD\test\Pain Drain\libraries\lvgl\src\widgets/lv_img.c **** 
 2517              		.loc 1 305 0
 2518              		@ sp needed
 2519 0024 10BD     		pop	{r4, pc}
 2520              		.cfi_endproc
 2521              	.LFE173:
 2522              		.size	lv_img_set_size_mode, .-lv_img_set_size_mode
 2523 0026 C046     		.section	.text.lv_img_get_src,"ax",%progbits
 2524              		.align	2
 2525              		.global	lv_img_get_src
 2526              		.code	16
 2527              		.thumb_func
 2528              		.type	lv_img_get_src, %function
 2529              	lv_img_get_src:
 2530              	.LFB174:
 312:..\..\..\arduinoLCD\test\Pain Drain\libraries\lvgl\src\widgets/lv_img.c ****     LV_ASSERT_OBJ(obj, MY_CLASS);
 2531              		.loc 1 312 0
 2532              		.cfi_startproc
 2533              		@ args = 0, pretend = 0, frame = 0
 2534              		@ frame_needed = 0, uses_anonymous_args = 0
 2535              		@ link register save eliminated.
 2536              	.LVL272:
 317:..\..\..\arduinoLCD\test\Pain Drain\libraries\lvgl\src\widgets/lv_img.c **** }
 2537              		.loc 1 317 0
 2538 0000 406A     		ldr	r0, [r0, #36]
 2539              	.LVL273:
 318:..\..\..\arduinoLCD\test\Pain Drain\libraries\lvgl\src\widgets/lv_img.c **** 
 2540              		.loc 1 318 0
 2541              		@ sp needed
 2542 0002 7047     		bx	lr
 2543              		.cfi_endproc
 2544              	.LFE174:
 2545              		.size	lv_img_get_src, .-lv_img_get_src
 2546              		.section	.text.lv_img_get_offset_x,"ax",%progbits
 2547              		.align	2
 2548              		.global	lv_img_get_offset_x
 2549              		.code	16
 2550              		.thumb_func
 2551              		.type	lv_img_get_offset_x, %function
 2552              	lv_img_get_offset_x:
 2553              	.LFB175:
 321:..\..\..\arduinoLCD\test\Pain Drain\libraries\lvgl\src\widgets/lv_img.c ****     LV_ASSERT_OBJ(obj, MY_CLASS);
 2554              		.loc 1 321 0
ARM GAS  C:\Users\haske\AppData\Local\Temp\ccGWO5DZ.s 			page 73


 2555              		.cfi_startproc
 2556              		@ args = 0, pretend = 0, frame = 0
 2557              		@ frame_needed = 0, uses_anonymous_args = 0
 2558              		@ link register save eliminated.
 2559              	.LVL274:
 326:..\..\..\arduinoLCD\test\Pain Drain\libraries\lvgl\src\widgets/lv_img.c **** }
 2560              		.loc 1 326 0
 2561 0000 2823     		movs	r3, #40
 2562 0002 C05E     		ldrsh	r0, [r0, r3]
 2563              	.LVL275:
 327:..\..\..\arduinoLCD\test\Pain Drain\libraries\lvgl\src\widgets/lv_img.c **** 
 2564              		.loc 1 327 0
 2565              		@ sp needed
 2566 0004 7047     		bx	lr
 2567              		.cfi_endproc
 2568              	.LFE175:
 2569              		.size	lv_img_get_offset_x, .-lv_img_get_offset_x
 2570 0006 C046     		.section	.text.lv_img_get_offset_y,"ax",%progbits
 2571              		.align	2
 2572              		.global	lv_img_get_offset_y
 2573              		.code	16
 2574              		.thumb_func
 2575              		.type	lv_img_get_offset_y, %function
 2576              	lv_img_get_offset_y:
 2577              	.LFB176:
 330:..\..\..\arduinoLCD\test\Pain Drain\libraries\lvgl\src\widgets/lv_img.c ****     LV_ASSERT_OBJ(obj, MY_CLASS);
 2578              		.loc 1 330 0
 2579              		.cfi_startproc
 2580              		@ args = 0, pretend = 0, frame = 0
 2581              		@ frame_needed = 0, uses_anonymous_args = 0
 2582              		@ link register save eliminated.
 2583              	.LVL276:
 335:..\..\..\arduinoLCD\test\Pain Drain\libraries\lvgl\src\widgets/lv_img.c **** }
 2584              		.loc 1 335 0
 2585 0000 2A23     		movs	r3, #42
 2586 0002 C05E     		ldrsh	r0, [r0, r3]
 2587              	.LVL277:
 336:..\..\..\arduinoLCD\test\Pain Drain\libraries\lvgl\src\widgets/lv_img.c **** 
 2588              		.loc 1 336 0
 2589              		@ sp needed
 2590 0004 7047     		bx	lr
 2591              		.cfi_endproc
 2592              	.LFE176:
 2593              		.size	lv_img_get_offset_y, .-lv_img_get_offset_y
 2594 0006 C046     		.section	.text.lv_img_get_angle,"ax",%progbits
 2595              		.align	2
 2596              		.global	lv_img_get_angle
 2597              		.code	16
 2598              		.thumb_func
 2599              		.type	lv_img_get_angle, %function
 2600              	lv_img_get_angle:
 2601              	.LFB177:
 339:..\..\..\arduinoLCD\test\Pain Drain\libraries\lvgl\src\widgets/lv_img.c ****     LV_ASSERT_OBJ(obj, MY_CLASS);
 2602              		.loc 1 339 0
 2603              		.cfi_startproc
 2604              		@ args = 0, pretend = 0, frame = 0
 2605              		@ frame_needed = 0, uses_anonymous_args = 0
ARM GAS  C:\Users\haske\AppData\Local\Temp\ccGWO5DZ.s 			page 74


 2606              		@ link register save eliminated.
 2607              	.LVL278:
 344:..\..\..\arduinoLCD\test\Pain Drain\libraries\lvgl\src\widgets/lv_img.c **** }
 2608              		.loc 1 344 0
 2609 0000 008E     		ldrh	r0, [r0, #48]
 2610              	.LVL279:
 345:..\..\..\arduinoLCD\test\Pain Drain\libraries\lvgl\src\widgets/lv_img.c **** 
 2611              		.loc 1 345 0
 2612              		@ sp needed
 2613 0002 7047     		bx	lr
 2614              		.cfi_endproc
 2615              	.LFE177:
 2616              		.size	lv_img_get_angle, .-lv_img_get_angle
 2617              		.section	.text.lv_img_get_pivot,"ax",%progbits
 2618              		.align	2
 2619              		.global	lv_img_get_pivot
 2620              		.code	16
 2621              		.thumb_func
 2622              		.type	lv_img_get_pivot, %function
 2623              	lv_img_get_pivot:
 2624              	.LFB178:
 348:..\..\..\arduinoLCD\test\Pain Drain\libraries\lvgl\src\widgets/lv_img.c ****     LV_ASSERT_OBJ(obj, MY_CLASS);
 2625              		.loc 1 348 0
 2626              		.cfi_startproc
 2627              		@ args = 0, pretend = 0, frame = 0
 2628              		@ frame_needed = 0, uses_anonymous_args = 0
 2629              	.LVL280:
 2630 0000 10B5     		push	{r4, lr}
 2631              		.cfi_def_cfa_offset 8
 2632              		.cfi_offset 4, -8
 2633              		.cfi_offset 14, -4
 2634 0002 0B00     		movs	r3, r1
 2635              	.LVL281:
 353:..\..\..\arduinoLCD\test\Pain Drain\libraries\lvgl\src\widgets/lv_img.c **** }
 2636              		.loc 1 353 0
 2637 0004 0100     		movs	r1, r0
 2638              	.LVL282:
 2639 0006 3231     		adds	r1, r1, #50
 2640 0008 0422     		movs	r2, #4
 2641 000a 1800     		movs	r0, r3
 2642              	.LVL283:
 2643 000c FFF7FEFF 		bl	memcpy
 2644              	.LVL284:
 354:..\..\..\arduinoLCD\test\Pain Drain\libraries\lvgl\src\widgets/lv_img.c **** 
 2645              		.loc 1 354 0
 2646              		@ sp needed
 2647 0010 10BD     		pop	{r4, pc}
 2648              		.cfi_endproc
 2649              	.LFE178:
 2650              		.size	lv_img_get_pivot, .-lv_img_get_pivot
 2651 0012 C046     		.section	.text.lv_img_get_zoom,"ax",%progbits
 2652              		.align	2
 2653              		.global	lv_img_get_zoom
 2654              		.code	16
 2655              		.thumb_func
 2656              		.type	lv_img_get_zoom, %function
 2657              	lv_img_get_zoom:
ARM GAS  C:\Users\haske\AppData\Local\Temp\ccGWO5DZ.s 			page 75


 2658              	.LFB179:
 357:..\..\..\arduinoLCD\test\Pain Drain\libraries\lvgl\src\widgets/lv_img.c ****     LV_ASSERT_OBJ(obj, MY_CLASS);
 2659              		.loc 1 357 0
 2660              		.cfi_startproc
 2661              		@ args = 0, pretend = 0, frame = 0
 2662              		@ frame_needed = 0, uses_anonymous_args = 0
 2663              		@ link register save eliminated.
 2664              	.LVL285:
 362:..\..\..\arduinoLCD\test\Pain Drain\libraries\lvgl\src\widgets/lv_img.c **** }
 2665              		.loc 1 362 0
 2666 0000 C08E     		ldrh	r0, [r0, #54]
 2667              	.LVL286:
 363:..\..\..\arduinoLCD\test\Pain Drain\libraries\lvgl\src\widgets/lv_img.c **** 
 2668              		.loc 1 363 0
 2669              		@ sp needed
 2670 0002 7047     		bx	lr
 2671              		.cfi_endproc
 2672              	.LFE179:
 2673              		.size	lv_img_get_zoom, .-lv_img_get_zoom
 2674              		.section	.text.lv_img_get_antialias,"ax",%progbits
 2675              		.align	2
 2676              		.global	lv_img_get_antialias
 2677              		.code	16
 2678              		.thumb_func
 2679              		.type	lv_img_get_antialias, %function
 2680              	lv_img_get_antialias:
 2681              	.LFB180:
 366:..\..\..\arduinoLCD\test\Pain Drain\libraries\lvgl\src\widgets/lv_img.c ****     LV_ASSERT_OBJ(obj, MY_CLASS);
 2682              		.loc 1 366 0
 2683              		.cfi_startproc
 2684              		@ args = 0, pretend = 0, frame = 0
 2685              		@ frame_needed = 0, uses_anonymous_args = 0
 2686              		@ link register save eliminated.
 2687              	.LVL287:
 371:..\..\..\arduinoLCD\test\Pain Drain\libraries\lvgl\src\widgets/lv_img.c **** }
 2688              		.loc 1 371 0
 2689 0000 3823     		movs	r3, #56
 2690 0002 C05C     		ldrb	r0, [r0, r3]
 2691              	.LVL288:
 2692 0004 4733     		adds	r3, r3, #71
 2693 0006 9843     		bics	r0, r3
 2694 0008 431E     		subs	r3, r0, #1
 2695 000a 9841     		sbcs	r0, r0, r3
 2696 000c C0B2     		uxtb	r0, r0
 372:..\..\..\arduinoLCD\test\Pain Drain\libraries\lvgl\src\widgets/lv_img.c **** 
 2697              		.loc 1 372 0
 2698              		@ sp needed
 2699 000e 7047     		bx	lr
 2700              		.cfi_endproc
 2701              	.LFE180:
 2702              		.size	lv_img_get_antialias, .-lv_img_get_antialias
 2703              		.section	.text.lv_img_get_size_mode,"ax",%progbits
 2704              		.align	2
 2705              		.global	lv_img_get_size_mode
 2706              		.code	16
 2707              		.thumb_func
 2708              		.type	lv_img_get_size_mode, %function
ARM GAS  C:\Users\haske\AppData\Local\Temp\ccGWO5DZ.s 			page 76


 2709              	lv_img_get_size_mode:
 2710              	.LFB181:
 375:..\..\..\arduinoLCD\test\Pain Drain\libraries\lvgl\src\widgets/lv_img.c ****     LV_ASSERT_OBJ(obj, MY_CLASS);
 2711              		.loc 1 375 0
 2712              		.cfi_startproc
 2713              		@ args = 0, pretend = 0, frame = 0
 2714              		@ frame_needed = 0, uses_anonymous_args = 0
 2715              		@ link register save eliminated.
 2716              	.LVL289:
 378:..\..\..\arduinoLCD\test\Pain Drain\libraries\lvgl\src\widgets/lv_img.c **** }
 2717              		.loc 1 378 0
 2718 0000 3923     		movs	r3, #57
 2719 0002 C05C     		ldrb	r0, [r0, r3]
 2720              	.LVL290:
 2721 0004 8007     		lsls	r0, r0, #30
 2722 0006 800F     		lsrs	r0, r0, #30
 379:..\..\..\arduinoLCD\test\Pain Drain\libraries\lvgl\src\widgets/lv_img.c **** 
 2723              		.loc 1 379 0
 2724              		@ sp needed
 2725 0008 7047     		bx	lr
 2726              		.cfi_endproc
 2727              	.LFE181:
 2728              		.size	lv_img_get_size_mode, .-lv_img_get_size_mode
 2729              		.global	lv_img_class
 2730 000a C046     		.section	.rodata
 2731              		.align	2
 2732              		.set	.LANCHOR0,. + 0
 2733              		.type	lv_img_class, %object
 2734              		.size	lv_img_class, 28
 2735              	lv_img_class:
 2736 0000 00000000 		.word	lv_obj_class
 2737 0004 00000000 		.word	lv_img_constructor
 2738 0008 00000000 		.word	lv_img_destructor
 2739 000c 00000000 		.space	4
 2740 0010 00000000 		.word	lv_img_event
 2741 0014 D127     		.short	10193
 2742 0016 D127     		.short	10193
 2743 0018 C0       		.byte	192
 2744 0019 03       		.byte	3
 2745 001a 00       		.byte	0
 2746 001b 00       		.space	1
 2747              		.text
 2748              	.Letext0:
 2749              		.file 4 "c:\\program files (x86)\\cypress\\psoc creator\\4.4\\psoc creator\\import\\gnu\\arm\\5.4.
 2750              		.file 5 "c:\\program files (x86)\\cypress\\psoc creator\\4.4\\psoc creator\\import\\gnu\\arm\\5.4.
 2751              		.file 6 "c:\\program files (x86)\\cypress\\psoc creator\\4.4\\psoc creator\\import\\gnu\\arm\\5.4.
 2752              		.file 7 "c:\\projects\\paindrain\\arduinolcd\\test\\pain drain\\libraries\\lvgl\\src\\font\\lv_fon
 2753              		.file 8 "c:\\projects\\paindrain\\arduinolcd\\test\\pain drain\\libraries\\lvgl\\src\\misc\\lv_typ
 2754              		.file 9 "c:\\projects\\paindrain\\arduinolcd\\test\\pain drain\\libraries\\lvgl\\src\\misc\\lv_col
 2755              		.file 10 "c:\\projects\\paindrain\\arduinolcd\\test\\pain drain\\libraries\\lvgl\\src\\misc\\lv_tx
 2756              		.file 11 "c:\\projects\\paindrain\\arduinolcd\\test\\pain drain\\libraries\\lvgl\\src\\misc\\lv_bi
 2757              		.file 12 "c:\\projects\\paindrain\\arduinolcd\\test\\pain drain\\libraries\\lvgl\\src\\misc\\lv_st
 2758              		.file 13 "c:\\projects\\paindrain\\arduinolcd\\test\\pain drain\\libraries\\lvgl\\src\\draw\\lv_im
 2759              		.file 14 "c:\\projects\\paindrain\\arduinolcd\\test\\pain drain\\libraries\\lvgl\\src\\draw\\lv_im
 2760              		.file 15 "..\\..\\..\\arduinoLCD\\test\\Pain Drain\\libraries\\lvgl\\src\\widgets\\../core/lv_obj.
 2761              		.file 16 "c:\\projects\\paindrain\\arduinolcd\\test\\pain drain\\libraries\\lvgl\\src\\draw\\lv_dr
 2762              		.file 17 "c:\\projects\\paindrain\\arduinolcd\\test\\pain drain\\libraries\\lvgl\\src\\draw\\lv_dr
ARM GAS  C:\Users\haske\AppData\Local\Temp\ccGWO5DZ.s 			page 77


 2763              		.file 18 "c:\\projects\\paindrain\\arduinolcd\\test\\pain drain\\libraries\\lvgl\\src\\draw\\lv_dr
 2764              		.file 19 "c:\\projects\\paindrain\\arduinolcd\\test\\pain drain\\libraries\\lvgl\\src\\draw\\lv_dr
 2765              		.file 20 "c:\\projects\\paindrain\\arduinolcd\\test\\pain drain\\libraries\\lvgl\\src\\draw\\lv_dr
 2766              		.file 21 "c:\\projects\\paindrain\\arduinolcd\\test\\pain drain\\libraries\\lvgl\\src\\draw\\lv_dr
 2767              		.file 22 "c:\\projects\\paindrain\\arduinolcd\\test\\pain drain\\libraries\\lvgl\\src\\draw\\lv_dr
 2768              		.file 23 "c:\\projects\\paindrain\\arduinolcd\\test\\pain drain\\libraries\\lvgl\\src\\misc\\lv_ll
 2769              		.file 24 "c:\\projects\\paindrain\\arduinolcd\\test\\pain drain\\libraries\\lvgl\\src\\misc\\lv_ti
 2770              		.file 25 "c:\\projects\\paindrain\\arduinolcd\\test\\pain drain\\libraries\\lvgl\\src\\hal\\lv_hal
 2771              		.file 26 "..\\..\\..\\arduinoLCD\\test\\Pain Drain\\libraries\\lvgl\\src\\widgets\\../core/lv_them
 2772              		.file 27 "..\\..\\..\\arduinoLCD\\test\\Pain Drain\\libraries\\lvgl\\src\\widgets\\../core/lv_grou
 2773              		.file 28 "..\\..\\..\\arduinoLCD\\test\\Pain Drain\\libraries\\lvgl\\src\\widgets\\../core/lv_obj_
 2774              		.file 29 "..\\..\\..\\arduinoLCD\\test\\Pain Drain\\libraries\\lvgl\\src\\widgets\\../core/lv_obj_
 2775              		.file 30 "..\\..\\..\\arduinoLCD\\test\\Pain Drain\\libraries\\lvgl\\src\\widgets\\../core/lv_obj_
 2776              		.file 31 "..\\..\\..\\arduinoLCD\\test\\Pain Drain\\libraries\\lvgl\\src\\widgets\\../core/lv_obj_
 2777              		.file 32 "..\\..\\..\\arduinoLCD\\test\\Pain Drain\\libraries\\lvgl\\src\\widgets\\../core/lv_even
 2778              		.file 33 "..\\..\\..\\arduinoLCD\\test\\Pain Drain\\libraries\\lvgl\\src\\widgets\\lv_img.h"
 2779              		.file 34 "c:\\projects\\paindrain\\arduinolcd\\test\\pain drain\\libraries\\lvgl\\src\\core\\lv_ob
 2780              		.file 35 "c:\\projects\\paindrain\\arduinolcd\\test\\pain drain\\libraries\\lvgl\\src\\misc\\lv_me
 2781              		.file 36 "c:\\program files (x86)\\cypress\\psoc creator\\4.4\\psoc creator\\import\\gnu\\arm\\5.4
 2782              		.file 37 "..\\..\\..\\arduinoLCD\\test\\Pain Drain\\libraries\\lvgl\\src\\widgets\\../core/lv_obj_
 2783              		.file 38 "..\\..\\..\\arduinoLCD\\test\\Pain Drain\\libraries\\lvgl\\src\\widgets\\../core/lv_disp
 2784              		.section	.debug_info,"",%progbits
 2785              	.Ldebug_info0:
 2786 0000 E43A0000 		.4byte	0x3ae4
 2787 0004 0400     		.2byte	0x4
 2788 0006 00000000 		.4byte	.Ldebug_abbrev0
 2789 000a 04       		.byte	0x4
 2790 000b 01       		.uleb128 0x1
 2791 000c 9F0A0000 		.4byte	.LASF680
 2792 0010 0C       		.byte	0xc
 2793 0011 EF070000 		.4byte	.LASF681
 2794 0015 0C250000 		.4byte	.LASF682
 2795 0019 00000000 		.4byte	.Ldebug_ranges0+0
 2796 001d 00000000 		.4byte	0
 2797 0021 00000000 		.4byte	.Ldebug_line0
 2798 0025 02       		.uleb128 0x2
 2799 0026 941E0000 		.4byte	.LASF0
 2800 002a 04       		.byte	0x4
 2801 002b 1B       		.byte	0x1b
 2802 002c 30000000 		.4byte	0x30
 2803 0030 03       		.uleb128 0x3
 2804 0031 01       		.byte	0x1
 2805 0032 06       		.byte	0x6
 2806 0033 C9070000 		.4byte	.LASF2
 2807 0037 02       		.uleb128 0x2
 2808 0038 66040000 		.4byte	.LASF1
 2809 003c 04       		.byte	0x4
 2810 003d 1D       		.byte	0x1d
 2811 003e 42000000 		.4byte	0x42
 2812 0042 03       		.uleb128 0x3
 2813 0043 01       		.byte	0x1
 2814 0044 08       		.byte	0x8
 2815 0045 03090000 		.4byte	.LASF3
 2816 0049 02       		.uleb128 0x2
 2817 004a 6B210000 		.4byte	.LASF4
 2818 004e 04       		.byte	0x4
 2819 004f 29       		.byte	0x29
ARM GAS  C:\Users\haske\AppData\Local\Temp\ccGWO5DZ.s 			page 78


 2820 0050 54000000 		.4byte	0x54
 2821 0054 03       		.uleb128 0x3
 2822 0055 02       		.byte	0x2
 2823 0056 05       		.byte	0x5
 2824 0057 18230000 		.4byte	.LASF5
 2825 005b 02       		.uleb128 0x2
 2826 005c 5F0C0000 		.4byte	.LASF6
 2827 0060 04       		.byte	0x4
 2828 0061 2B       		.byte	0x2b
 2829 0062 66000000 		.4byte	0x66
 2830 0066 03       		.uleb128 0x3
 2831 0067 02       		.byte	0x2
 2832 0068 07       		.byte	0x7
 2833 0069 96270000 		.4byte	.LASF7
 2834 006d 02       		.uleb128 0x2
 2835 006e 5A280000 		.4byte	.LASF8
 2836 0072 04       		.byte	0x4
 2837 0073 3F       		.byte	0x3f
 2838 0074 78000000 		.4byte	0x78
 2839 0078 03       		.uleb128 0x3
 2840 0079 04       		.byte	0x4
 2841 007a 05       		.byte	0x5
 2842 007b 9B050000 		.4byte	.LASF9
 2843 007f 02       		.uleb128 0x2
 2844 0080 AE150000 		.4byte	.LASF10
 2845 0084 04       		.byte	0x4
 2846 0085 41       		.byte	0x41
 2847 0086 8A000000 		.4byte	0x8a
 2848 008a 03       		.uleb128 0x3
 2849 008b 04       		.byte	0x4
 2850 008c 07       		.byte	0x7
 2851 008d 64120000 		.4byte	.LASF11
 2852 0091 03       		.uleb128 0x3
 2853 0092 08       		.byte	0x8
 2854 0093 05       		.byte	0x5
 2855 0094 16160000 		.4byte	.LASF12
 2856 0098 03       		.uleb128 0x3
 2857 0099 08       		.byte	0x8
 2858 009a 07       		.byte	0x7
 2859 009b EF1E0000 		.4byte	.LASF13
 2860 009f 04       		.uleb128 0x4
 2861 00a0 04       		.byte	0x4
 2862 00a1 05       		.byte	0x5
 2863 00a2 696E7400 		.ascii	"int\000"
 2864 00a6 03       		.uleb128 0x3
 2865 00a7 04       		.byte	0x4
 2866 00a8 07       		.byte	0x7
 2867 00a9 EA180000 		.4byte	.LASF14
 2868 00ad 02       		.uleb128 0x2
 2869 00ae 20000000 		.4byte	.LASF15
 2870 00b2 05       		.byte	0x5
 2871 00b3 14       		.byte	0x14
 2872 00b4 25000000 		.4byte	0x25
 2873 00b8 02       		.uleb128 0x2
 2874 00b9 D5070000 		.4byte	.LASF16
 2875 00bd 05       		.byte	0x5
 2876 00be 18       		.byte	0x18
ARM GAS  C:\Users\haske\AppData\Local\Temp\ccGWO5DZ.s 			page 79


 2877 00bf 37000000 		.4byte	0x37
 2878 00c3 02       		.uleb128 0x2
 2879 00c4 F4230000 		.4byte	.LASF17
 2880 00c8 05       		.byte	0x5
 2881 00c9 20       		.byte	0x20
 2882 00ca 49000000 		.4byte	0x49
 2883 00ce 02       		.uleb128 0x2
 2884 00cf 8E1F0000 		.4byte	.LASF18
 2885 00d3 05       		.byte	0x5
 2886 00d4 24       		.byte	0x24
 2887 00d5 5B000000 		.4byte	0x5b
 2888 00d9 02       		.uleb128 0x2
 2889 00da 30010000 		.4byte	.LASF19
 2890 00de 05       		.byte	0x5
 2891 00df 2C       		.byte	0x2c
 2892 00e0 6D000000 		.4byte	0x6d
 2893 00e4 02       		.uleb128 0x2
 2894 00e5 C4260000 		.4byte	.LASF20
 2895 00e9 05       		.byte	0x5
 2896 00ea 30       		.byte	0x30
 2897 00eb 7F000000 		.4byte	0x7f
 2898 00ef 02       		.uleb128 0x2
 2899 00f0 65000000 		.4byte	.LASF21
 2900 00f4 06       		.byte	0x6
 2901 00f5 D8       		.byte	0xd8
 2902 00f6 A6000000 		.4byte	0xa6
 2903 00fa 03       		.uleb128 0x3
 2904 00fb 08       		.byte	0x8
 2905 00fc 04       		.byte	0x4
 2906 00fd 061D0000 		.4byte	.LASF22
 2907 0101 02       		.uleb128 0x2
 2908 0102 B6270000 		.4byte	.LASF23
 2909 0106 02       		.byte	0x2
 2910 0107 1B       		.byte	0x1b
 2911 0108 C3000000 		.4byte	0xc3
 2912 010c 05       		.uleb128 0x5
 2913 010d 04       		.byte	0x4
 2914 010e 02       		.byte	0x2
 2915 010f 25       		.byte	0x25
 2916 0110 29010000 		.4byte	0x129
 2917 0114 06       		.uleb128 0x6
 2918 0115 7800     		.ascii	"x\000"
 2919 0117 02       		.byte	0x2
 2920 0118 26       		.byte	0x26
 2921 0119 01010000 		.4byte	0x101
 2922 011d 00       		.byte	0
 2923 011e 06       		.uleb128 0x6
 2924 011f 7900     		.ascii	"y\000"
 2925 0121 02       		.byte	0x2
 2926 0122 27       		.byte	0x27
 2927 0123 01010000 		.4byte	0x101
 2928 0127 02       		.byte	0x2
 2929 0128 00       		.byte	0
 2930 0129 02       		.uleb128 0x2
 2931 012a BE010000 		.4byte	.LASF24
 2932 012e 02       		.byte	0x2
 2933 012f 28       		.byte	0x28
ARM GAS  C:\Users\haske\AppData\Local\Temp\ccGWO5DZ.s 			page 80


 2934 0130 0C010000 		.4byte	0x10c
 2935 0134 05       		.uleb128 0x5
 2936 0135 08       		.byte	0x8
 2937 0136 02       		.byte	0x2
 2938 0137 2B       		.byte	0x2b
 2939 0138 69010000 		.4byte	0x169
 2940 013c 06       		.uleb128 0x6
 2941 013d 783100   		.ascii	"x1\000"
 2942 0140 02       		.byte	0x2
 2943 0141 2C       		.byte	0x2c
 2944 0142 01010000 		.4byte	0x101
 2945 0146 00       		.byte	0
 2946 0147 06       		.uleb128 0x6
 2947 0148 793100   		.ascii	"y1\000"
 2948 014b 02       		.byte	0x2
 2949 014c 2D       		.byte	0x2d
 2950 014d 01010000 		.4byte	0x101
 2951 0151 02       		.byte	0x2
 2952 0152 06       		.uleb128 0x6
 2953 0153 783200   		.ascii	"x2\000"
 2954 0156 02       		.byte	0x2
 2955 0157 2E       		.byte	0x2e
 2956 0158 01010000 		.4byte	0x101
 2957 015c 04       		.byte	0x4
 2958 015d 06       		.uleb128 0x6
 2959 015e 793200   		.ascii	"y2\000"
 2960 0161 02       		.byte	0x2
 2961 0162 2F       		.byte	0x2f
 2962 0163 01010000 		.4byte	0x101
 2963 0167 06       		.byte	0x6
 2964 0168 00       		.byte	0
 2965 0169 02       		.uleb128 0x2
 2966 016a 330F0000 		.4byte	.LASF25
 2967 016e 02       		.byte	0x2
 2968 016f 30       		.byte	0x30
 2969 0170 34010000 		.4byte	0x134
 2970 0174 02       		.uleb128 0x2
 2971 0175 580D0000 		.4byte	.LASF26
 2972 0179 02       		.byte	0x2
 2973 017a 59       		.byte	0x59
 2974 017b B8000000 		.4byte	0xb8
 2975 017f 05       		.uleb128 0x5
 2976 0180 10       		.byte	0x10
 2977 0181 07       		.byte	0x7
 2978 0182 29       		.byte	0x29
 2979 0183 EE010000 		.4byte	0x1ee
 2980 0187 07       		.uleb128 0x7
 2981 0188 3B130000 		.4byte	.LASF27
 2982 018c 07       		.byte	0x7
 2983 018d 2B       		.byte	0x2b
 2984 018e 76020000 		.4byte	0x276
 2985 0192 00       		.byte	0
 2986 0193 07       		.uleb128 0x7
 2987 0194 6C000000 		.4byte	.LASF28
 2988 0198 07       		.byte	0x7
 2989 0199 2C       		.byte	0x2c
 2990 019a CE000000 		.4byte	0xce
ARM GAS  C:\Users\haske\AppData\Local\Temp\ccGWO5DZ.s 			page 81


 2991 019e 04       		.byte	0x4
 2992 019f 07       		.uleb128 0x7
 2993 01a0 12230000 		.4byte	.LASF29
 2994 01a4 07       		.byte	0x7
 2995 01a5 2D       		.byte	0x2d
 2996 01a6 CE000000 		.4byte	0xce
 2997 01aa 06       		.byte	0x6
 2998 01ab 07       		.uleb128 0x7
 2999 01ac F0220000 		.4byte	.LASF30
 3000 01b0 07       		.byte	0x7
 3001 01b1 2E       		.byte	0x2e
 3002 01b2 CE000000 		.4byte	0xce
 3003 01b6 08       		.byte	0x8
 3004 01b7 07       		.uleb128 0x7
 3005 01b8 EB090000 		.4byte	.LASF31
 3006 01bc 07       		.byte	0x7
 3007 01bd 2F       		.byte	0x2f
 3008 01be C3000000 		.4byte	0xc3
 3009 01c2 0A       		.byte	0xa
 3010 01c3 07       		.uleb128 0x7
 3011 01c4 F1090000 		.4byte	.LASF32
 3012 01c8 07       		.byte	0x7
 3013 01c9 30       		.byte	0x30
 3014 01ca C3000000 		.4byte	0xc3
 3015 01ce 0C       		.byte	0xc
 3016 01cf 08       		.uleb128 0x8
 3017 01d0 62707000 		.ascii	"bpp\000"
 3018 01d4 07       		.byte	0x7
 3019 01d5 31       		.byte	0x31
 3020 01d6 B8000000 		.4byte	0xb8
 3021 01da 01       		.byte	0x1
 3022 01db 04       		.byte	0x4
 3023 01dc 04       		.byte	0x4
 3024 01dd 0E       		.byte	0xe
 3025 01de 09       		.uleb128 0x9
 3026 01df 0C2A0000 		.4byte	.LASF33
 3027 01e3 07       		.byte	0x7
 3028 01e4 32       		.byte	0x32
 3029 01e5 B8000000 		.4byte	0xb8
 3030 01e9 01       		.byte	0x1
 3031 01ea 01       		.byte	0x1
 3032 01eb 03       		.byte	0x3
 3033 01ec 0E       		.byte	0xe
 3034 01ed 00       		.byte	0
 3035 01ee 0A       		.uleb128 0xa
 3036 01ef 9B150000 		.4byte	.LASF237
 3037 01f3 1C       		.byte	0x1c
 3038 01f4 07       		.byte	0x7
 3039 01f5 40       		.byte	0x40
 3040 01f6 76020000 		.4byte	0x276
 3041 01fa 07       		.uleb128 0x7
 3042 01fb 4C280000 		.4byte	.LASF34
 3043 01ff 07       		.byte	0x7
 3044 0200 42       		.byte	0x42
 3045 0201 B7020000 		.4byte	0x2b7
 3046 0205 00       		.byte	0
 3047 0206 07       		.uleb128 0x7
ARM GAS  C:\Users\haske\AppData\Local\Temp\ccGWO5DZ.s 			page 82


 3048 0207 83080000 		.4byte	.LASF35
 3049 020b 07       		.byte	0x7
 3050 020c 45       		.byte	0x45
 3051 020d DC020000 		.4byte	0x2dc
 3052 0211 04       		.byte	0x4
 3053 0212 07       		.uleb128 0x7
 3054 0213 03020000 		.4byte	.LASF36
 3055 0217 07       		.byte	0x7
 3056 0218 48       		.byte	0x48
 3057 0219 01010000 		.4byte	0x101
 3058 021d 08       		.byte	0x8
 3059 021e 07       		.uleb128 0x7
 3060 021f 22230000 		.4byte	.LASF37
 3061 0223 07       		.byte	0x7
 3062 0224 49       		.byte	0x49
 3063 0225 01010000 		.4byte	0x101
 3064 0229 0A       		.byte	0xa
 3065 022a 09       		.uleb128 0x9
 3066 022b 751D0000 		.4byte	.LASF38
 3067 022f 07       		.byte	0x7
 3068 0230 4A       		.byte	0x4a
 3069 0231 B8000000 		.4byte	0xb8
 3070 0235 01       		.byte	0x1
 3071 0236 02       		.byte	0x2
 3072 0237 06       		.byte	0x6
 3073 0238 0C       		.byte	0xc
 3074 0239 07       		.uleb128 0x7
 3075 023a B80B0000 		.4byte	.LASF39
 3076 023e 07       		.byte	0x7
 3077 023f 4C       		.byte	0x4c
 3078 0240 AD000000 		.4byte	0xad
 3079 0244 0D       		.byte	0xd
 3080 0245 07       		.uleb128 0x7
 3081 0246 8A170000 		.4byte	.LASF40
 3082 024a 07       		.byte	0x7
 3083 024b 4D       		.byte	0x4d
 3084 024c AD000000 		.4byte	0xad
 3085 0250 0E       		.byte	0xe
 3086 0251 06       		.uleb128 0x6
 3087 0252 64736300 		.ascii	"dsc\000"
 3088 0256 07       		.byte	0x7
 3089 0257 4F       		.byte	0x4f
 3090 0258 E2020000 		.4byte	0x2e2
 3091 025c 10       		.byte	0x10
 3092 025d 07       		.uleb128 0x7
 3093 025e 8A0E0000 		.4byte	.LASF41
 3094 0262 07       		.byte	0x7
 3095 0263 50       		.byte	0x50
 3096 0264 76020000 		.4byte	0x276
 3097 0268 14       		.byte	0x14
 3098 0269 07       		.uleb128 0x7
 3099 026a E1270000 		.4byte	.LASF42
 3100 026e 07       		.byte	0x7
 3101 026f 52       		.byte	0x52
 3102 0270 E9020000 		.4byte	0x2e9
 3103 0274 18       		.byte	0x18
 3104 0275 00       		.byte	0
ARM GAS  C:\Users\haske\AppData\Local\Temp\ccGWO5DZ.s 			page 83


 3105 0276 0B       		.uleb128 0xb
 3106 0277 04       		.byte	0x4
 3107 0278 7C020000 		.4byte	0x27c
 3108 027c 0C       		.uleb128 0xc
 3109 027d EE010000 		.4byte	0x1ee
 3110 0281 02       		.uleb128 0x2
 3111 0282 901A0000 		.4byte	.LASF43
 3112 0286 07       		.byte	0x7
 3113 0287 33       		.byte	0x33
 3114 0288 7F010000 		.4byte	0x17f
 3115 028c 0D       		.uleb128 0xd
 3116 028d AA020000 		.4byte	0x2aa
 3117 0291 AA020000 		.4byte	0x2aa
 3118 0295 0E       		.uleb128 0xe
 3119 0296 76020000 		.4byte	0x276
 3120 029a 0E       		.uleb128 0xe
 3121 029b B1020000 		.4byte	0x2b1
 3122 029f 0E       		.uleb128 0xe
 3123 02a0 E4000000 		.4byte	0xe4
 3124 02a4 0E       		.uleb128 0xe
 3125 02a5 E4000000 		.4byte	0xe4
 3126 02a9 00       		.byte	0
 3127 02aa 03       		.uleb128 0x3
 3128 02ab 01       		.byte	0x1
 3129 02ac 02       		.byte	0x2
 3130 02ad 460A0000 		.4byte	.LASF44
 3131 02b1 0B       		.uleb128 0xb
 3132 02b2 04       		.byte	0x4
 3133 02b3 81020000 		.4byte	0x281
 3134 02b7 0B       		.uleb128 0xb
 3135 02b8 04       		.byte	0x4
 3136 02b9 8C020000 		.4byte	0x28c
 3137 02bd 0D       		.uleb128 0xd
 3138 02be D1020000 		.4byte	0x2d1
 3139 02c2 D1020000 		.4byte	0x2d1
 3140 02c6 0E       		.uleb128 0xe
 3141 02c7 76020000 		.4byte	0x276
 3142 02cb 0E       		.uleb128 0xe
 3143 02cc E4000000 		.4byte	0xe4
 3144 02d0 00       		.byte	0
 3145 02d1 0B       		.uleb128 0xb
 3146 02d2 04       		.byte	0x4
 3147 02d3 D7020000 		.4byte	0x2d7
 3148 02d7 0C       		.uleb128 0xc
 3149 02d8 B8000000 		.4byte	0xb8
 3150 02dc 0B       		.uleb128 0xb
 3151 02dd 04       		.byte	0x4
 3152 02de BD020000 		.4byte	0x2bd
 3153 02e2 0B       		.uleb128 0xb
 3154 02e3 04       		.byte	0x4
 3155 02e4 E8020000 		.4byte	0x2e8
 3156 02e8 0F       		.uleb128 0xf
 3157 02e9 10       		.uleb128 0x10
 3158 02ea 04       		.byte	0x4
 3159 02eb 02       		.uleb128 0x2
 3160 02ec 2A270000 		.4byte	.LASF45
 3161 02f0 07       		.byte	0x7
ARM GAS  C:\Users\haske\AppData\Local\Temp\ccGWO5DZ.s 			page 84


 3162 02f1 54       		.byte	0x54
 3163 02f2 EE010000 		.4byte	0x1ee
 3164 02f6 11       		.uleb128 0x11
 3165 02f7 01       		.byte	0x1
 3166 02f8 42000000 		.4byte	0x42
 3167 02fc 08       		.byte	0x8
 3168 02fd 2A       		.byte	0x2a
 3169 02fe 0F030000 		.4byte	0x30f
 3170 0302 12       		.uleb128 0x12
 3171 0303 28030000 		.4byte	.LASF46
 3172 0307 00       		.byte	0
 3173 0308 12       		.uleb128 0x12
 3174 0309 971F0000 		.4byte	.LASF47
 3175 030d 01       		.byte	0x1
 3176 030e 00       		.byte	0
 3177 030f 02       		.uleb128 0x2
 3178 0310 D01C0000 		.4byte	.LASF48
 3179 0314 08       		.byte	0x8
 3180 0315 2F       		.byte	0x2f
 3181 0316 B8000000 		.4byte	0xb8
 3182 031a 03       		.uleb128 0x3
 3183 031b 04       		.byte	0x4
 3184 031c 07       		.byte	0x7
 3185 031d 72000000 		.4byte	.LASF49
 3186 0321 0B       		.uleb128 0xb
 3187 0322 04       		.byte	0x4
 3188 0323 27030000 		.4byte	0x327
 3189 0327 03       		.uleb128 0x3
 3190 0328 01       		.byte	0x1
 3191 0329 08       		.byte	0x8
 3192 032a 780B0000 		.4byte	.LASF50
 3193 032e 11       		.uleb128 0x11
 3194 032f 01       		.byte	0x1
 3195 0330 42000000 		.4byte	0x42
 3196 0334 09       		.byte	0x9
 3197 0335 29       		.byte	0x29
 3198 0336 89030000 		.4byte	0x389
 3199 033a 12       		.uleb128 0x12
 3200 033b CE170000 		.4byte	.LASF51
 3201 033f 00       		.byte	0
 3202 0340 12       		.uleb128 0x12
 3203 0341 D3130000 		.4byte	.LASF52
 3204 0345 00       		.byte	0
 3205 0346 12       		.uleb128 0x12
 3206 0347 FB200000 		.4byte	.LASF53
 3207 034b 19       		.byte	0x19
 3208 034c 12       		.uleb128 0x12
 3209 034d 16220000 		.4byte	.LASF54
 3210 0351 33       		.byte	0x33
 3211 0352 12       		.uleb128 0x12
 3212 0353 A8220000 		.4byte	.LASF55
 3213 0357 4C       		.byte	0x4c
 3214 0358 12       		.uleb128 0x12
 3215 0359 EA230000 		.4byte	.LASF56
 3216 035d 66       		.byte	0x66
 3217 035e 12       		.uleb128 0x12
 3218 035f F0240000 		.4byte	.LASF57
ARM GAS  C:\Users\haske\AppData\Local\Temp\ccGWO5DZ.s 			page 85


 3219 0363 7F       		.byte	0x7f
 3220 0364 12       		.uleb128 0x12
 3221 0365 48260000 		.4byte	.LASF58
 3222 0369 99       		.byte	0x99
 3223 036a 12       		.uleb128 0x12
 3224 036b 8C270000 		.4byte	.LASF59
 3225 036f B2       		.byte	0xb2
 3226 0370 12       		.uleb128 0x12
 3227 0371 E5280000 		.4byte	.LASF60
 3228 0375 CC       		.byte	0xcc
 3229 0376 12       		.uleb128 0x12
 3230 0377 302A0000 		.4byte	.LASF61
 3231 037b E5       		.byte	0xe5
 3232 037c 12       		.uleb128 0x12
 3233 037d BC1B0000 		.4byte	.LASF62
 3234 0381 FF       		.byte	0xff
 3235 0382 12       		.uleb128 0x12
 3236 0383 7B1D0000 		.4byte	.LASF63
 3237 0387 FF       		.byte	0xff
 3238 0388 00       		.byte	0
 3239 0389 05       		.uleb128 0x5
 3240 038a 02       		.byte	0x2
 3241 038b 09       		.byte	0x9
 3242 038c D1       		.byte	0xd1
 3243 038d BF030000 		.4byte	0x3bf
 3244 0391 09       		.uleb128 0x9
 3245 0392 9E080000 		.4byte	.LASF64
 3246 0396 09       		.byte	0x9
 3247 0397 D3       		.byte	0xd3
 3248 0398 CE000000 		.4byte	0xce
 3249 039c 02       		.byte	0x2
 3250 039d 05       		.byte	0x5
 3251 039e 0B       		.byte	0xb
 3252 039f 00       		.byte	0
 3253 03a0 09       		.uleb128 0x9
 3254 03a1 24270000 		.4byte	.LASF65
 3255 03a5 09       		.byte	0x9
 3256 03a6 D4       		.byte	0xd4
 3257 03a7 CE000000 		.4byte	0xce
 3258 03ab 02       		.byte	0x2
 3259 03ac 06       		.byte	0x6
 3260 03ad 05       		.byte	0x5
 3261 03ae 00       		.byte	0
 3262 03af 08       		.uleb128 0x8
 3263 03b0 72656400 		.ascii	"red\000"
 3264 03b4 09       		.byte	0x9
 3265 03b5 D5       		.byte	0xd5
 3266 03b6 CE000000 		.4byte	0xce
 3267 03ba 02       		.byte	0x2
 3268 03bb 05       		.byte	0x5
 3269 03bc 00       		.byte	0
 3270 03bd 00       		.byte	0
 3271 03be 00       		.byte	0
 3272 03bf 13       		.uleb128 0x13
 3273 03c0 02       		.byte	0x2
 3274 03c1 09       		.byte	0x9
 3275 03c2 D0       		.byte	0xd0
ARM GAS  C:\Users\haske\AppData\Local\Temp\ccGWO5DZ.s 			page 86


 3276 03c3 DD030000 		.4byte	0x3dd
 3277 03c7 14       		.uleb128 0x14
 3278 03c8 636800   		.ascii	"ch\000"
 3279 03cb 09       		.byte	0x9
 3280 03cc DC       		.byte	0xdc
 3281 03cd 89030000 		.4byte	0x389
 3282 03d1 15       		.uleb128 0x15
 3283 03d2 F0210000 		.4byte	.LASF66
 3284 03d6 09       		.byte	0x9
 3285 03d7 DD       		.byte	0xdd
 3286 03d8 CE000000 		.4byte	0xce
 3287 03dc 00       		.byte	0
 3288 03dd 02       		.uleb128 0x2
 3289 03de 05230000 		.4byte	.LASF67
 3290 03e2 09       		.byte	0x9
 3291 03e3 DE       		.byte	0xde
 3292 03e4 BF030000 		.4byte	0x3bf
 3293 03e8 02       		.uleb128 0x2
 3294 03e9 F31F0000 		.4byte	.LASF68
 3295 03ed 09       		.byte	0x9
 3296 03ee EB       		.byte	0xeb
 3297 03ef DD030000 		.4byte	0x3dd
 3298 03f3 02       		.uleb128 0x2
 3299 03f4 0E010000 		.4byte	.LASF69
 3300 03f8 09       		.byte	0x9
 3301 03f9 F5       		.byte	0xf5
 3302 03fa B8000000 		.4byte	0xb8
 3303 03fe 11       		.uleb128 0x11
 3304 03ff 01       		.byte	0x1
 3305 0400 42000000 		.4byte	0x42
 3306 0404 0A       		.byte	0xa
 3307 0405 2A       		.byte	0x2a
 3308 0406 23040000 		.4byte	0x423
 3309 040a 12       		.uleb128 0x12
 3310 040b 35040000 		.4byte	.LASF70
 3311 040f 00       		.byte	0
 3312 0410 12       		.uleb128 0x12
 3313 0411 921B0000 		.4byte	.LASF71
 3314 0415 01       		.byte	0x1
 3315 0416 12       		.uleb128 0x12
 3316 0417 6D280000 		.4byte	.LASF72
 3317 041b 02       		.byte	0x2
 3318 041c 12       		.uleb128 0x12
 3319 041d B8070000 		.4byte	.LASF73
 3320 0421 04       		.byte	0x4
 3321 0422 00       		.byte	0
 3322 0423 02       		.uleb128 0x2
 3323 0424 79200000 		.4byte	.LASF74
 3324 0428 0A       		.byte	0xa
 3325 0429 30       		.byte	0x30
 3326 042a B8000000 		.4byte	0xb8
 3327 042e 02       		.uleb128 0x2
 3328 042f 2B170000 		.4byte	.LASF75
 3329 0433 0A       		.byte	0xa
 3330 0434 42       		.byte	0x42
 3331 0435 B8000000 		.4byte	0xb8
 3332 0439 02       		.uleb128 0x2
ARM GAS  C:\Users\haske\AppData\Local\Temp\ccGWO5DZ.s 			page 87


 3333 043a F7090000 		.4byte	.LASF76
 3334 043e 0B       		.byte	0xb
 3335 043f 2A       		.byte	0x2a
 3336 0440 B8000000 		.4byte	0xb8
 3337 0444 02       		.uleb128 0x2
 3338 0445 0F020000 		.4byte	.LASF77
 3339 0449 0C       		.byte	0xc
 3340 044a 5E       		.byte	0x5e
 3341 044b B8000000 		.4byte	0xb8
 3342 044f 02       		.uleb128 0x2
 3343 0450 FA150000 		.4byte	.LASF78
 3344 0454 0C       		.byte	0xc
 3345 0455 6A       		.byte	0x6a
 3346 0456 B8000000 		.4byte	0xb8
 3347 045a 02       		.uleb128 0x2
 3348 045b 62220000 		.4byte	.LASF79
 3349 045f 0C       		.byte	0xc
 3350 0460 79       		.byte	0x79
 3351 0461 B8000000 		.4byte	0xb8
 3352 0465 02       		.uleb128 0x2
 3353 0466 92280000 		.4byte	.LASF80
 3354 046a 0C       		.byte	0xc
 3355 046b 84       		.byte	0x84
 3356 046c B8000000 		.4byte	0xb8
 3357 0470 02       		.uleb128 0x2
 3358 0471 201D0000 		.4byte	.LASF81
 3359 0475 0C       		.byte	0xc
 3360 0476 90       		.byte	0x90
 3361 0477 B8000000 		.4byte	0xb8
 3362 047b 05       		.uleb128 0x5
 3363 047c 04       		.byte	0x4
 3364 047d 0C       		.byte	0xc
 3365 047e 95       		.byte	0x95
 3366 047f 9C040000 		.4byte	0x49c
 3367 0483 07       		.uleb128 0x7
 3368 0484 20220000 		.4byte	.LASF82
 3369 0488 0C       		.byte	0xc
 3370 0489 96       		.byte	0x96
 3371 048a E8030000 		.4byte	0x3e8
 3372 048e 00       		.byte	0
 3373 048f 07       		.uleb128 0x7
 3374 0490 73220000 		.4byte	.LASF83
 3375 0494 0C       		.byte	0xc
 3376 0495 97       		.byte	0x97
 3377 0496 B8000000 		.4byte	0xb8
 3378 049a 02       		.byte	0x2
 3379 049b 00       		.byte	0
 3380 049c 02       		.uleb128 0x2
 3381 049d 14260000 		.4byte	.LASF84
 3382 04a1 0C       		.byte	0xc
 3383 04a2 98       		.byte	0x98
 3384 04a3 7B040000 		.4byte	0x47b
 3385 04a7 05       		.uleb128 0x5
 3386 04a8 0A       		.byte	0xa
 3387 04a9 0C       		.byte	0xc
 3388 04aa 9B       		.byte	0x9b
 3389 04ab E6040000 		.4byte	0x4e6
ARM GAS  C:\Users\haske\AppData\Local\Temp\ccGWO5DZ.s 			page 88


 3390 04af 07       		.uleb128 0x7
 3391 04b0 2C220000 		.4byte	.LASF85
 3392 04b4 0C       		.byte	0xc
 3393 04b5 9C       		.byte	0x9c
 3394 04b6 E6040000 		.4byte	0x4e6
 3395 04ba 00       		.byte	0
 3396 04bb 07       		.uleb128 0x7
 3397 04bc 3F0C0000 		.4byte	.LASF86
 3398 04c0 0C       		.byte	0xc
 3399 04c1 9D       		.byte	0x9d
 3400 04c2 B8000000 		.4byte	0xb8
 3401 04c6 08       		.byte	0x8
 3402 04c7 08       		.uleb128 0x8
 3403 04c8 64697200 		.ascii	"dir\000"
 3404 04cc 0C       		.byte	0xc
 3405 04cd 9E       		.byte	0x9e
 3406 04ce 65040000 		.4byte	0x465
 3407 04d2 01       		.byte	0x1
 3408 04d3 03       		.byte	0x3
 3409 04d4 05       		.byte	0x5
 3410 04d5 09       		.byte	0x9
 3411 04d6 09       		.uleb128 0x9
 3412 04d7 85270000 		.4byte	.LASF87
 3413 04db 0C       		.byte	0xc
 3414 04dc A0       		.byte	0xa0
 3415 04dd 70040000 		.4byte	0x470
 3416 04e1 01       		.byte	0x1
 3417 04e2 03       		.byte	0x3
 3418 04e3 02       		.byte	0x2
 3419 04e4 09       		.byte	0x9
 3420 04e5 00       		.byte	0
 3421 04e6 16       		.uleb128 0x16
 3422 04e7 9C040000 		.4byte	0x49c
 3423 04eb F6040000 		.4byte	0x4f6
 3424 04ef 17       		.uleb128 0x17
 3425 04f0 1A030000 		.4byte	0x31a
 3426 04f4 01       		.byte	0x1
 3427 04f5 00       		.byte	0
 3428 04f6 02       		.uleb128 0x2
 3429 04f7 A7290000 		.4byte	.LASF88
 3430 04fb 0C       		.byte	0xc
 3431 04fc A2       		.byte	0xa2
 3432 04fd A7040000 		.4byte	0x4a7
 3433 0501 13       		.uleb128 0x13
 3434 0502 04       		.byte	0x4
 3435 0503 0C       		.byte	0xc
 3436 0504 A7       		.byte	0xa7
 3437 0505 2B050000 		.4byte	0x52b
 3438 0509 14       		.uleb128 0x14
 3439 050a 6E756D00 		.ascii	"num\000"
 3440 050e 0C       		.byte	0xc
 3441 050f A8       		.byte	0xa8
 3442 0510 D9000000 		.4byte	0xd9
 3443 0514 14       		.uleb128 0x14
 3444 0515 70747200 		.ascii	"ptr\000"
 3445 0519 0C       		.byte	0xc
 3446 051a A9       		.byte	0xa9
ARM GAS  C:\Users\haske\AppData\Local\Temp\ccGWO5DZ.s 			page 89


 3447 051b E2020000 		.4byte	0x2e2
 3448 051f 15       		.uleb128 0x15
 3449 0520 20220000 		.4byte	.LASF82
 3450 0524 0C       		.byte	0xc
 3451 0525 AA       		.byte	0xaa
 3452 0526 E8030000 		.4byte	0x3e8
 3453 052a 00       		.byte	0
 3454 052b 02       		.uleb128 0x2
 3455 052c 2B190000 		.4byte	.LASF89
 3456 0530 0C       		.byte	0xc
 3457 0531 AB       		.byte	0xab
 3458 0532 01050000 		.4byte	0x501
 3459 0536 11       		.uleb128 0x11
 3460 0537 02       		.byte	0x2
 3461 0538 66000000 		.4byte	0x66
 3462 053c 0C       		.byte	0xc
 3463 053d B2       		.byte	0xb2
 3464 053e 5B070000 		.4byte	0x75b
 3465 0542 12       		.uleb128 0x12
 3466 0543 06100000 		.4byte	.LASF90
 3467 0547 00       		.byte	0
 3468 0548 12       		.uleb128 0x12
 3469 0549 37200000 		.4byte	.LASF91
 3470 054d 01       		.byte	0x1
 3471 054e 12       		.uleb128 0x12
 3472 054f 66200000 		.4byte	.LASF92
 3473 0553 02       		.byte	0x2
 3474 0554 12       		.uleb128 0x12
 3475 0555 C4040000 		.4byte	.LASF93
 3476 0559 03       		.byte	0x3
 3477 055a 12       		.uleb128 0x12
 3478 055b C5020000 		.4byte	.LASF94
 3479 055f 04       		.byte	0x4
 3480 0560 12       		.uleb128 0x12
 3481 0561 8A250000 		.4byte	.LASF95
 3482 0565 05       		.byte	0x5
 3483 0566 12       		.uleb128 0x12
 3484 0567 94220000 		.4byte	.LASF96
 3485 056b 06       		.byte	0x6
 3486 056c 12       		.uleb128 0x12
 3487 056d 1F150000 		.4byte	.LASF97
 3488 0571 07       		.byte	0x7
 3489 0572 12       		.uleb128 0x12
 3490 0573 27260000 		.4byte	.LASF98
 3491 0577 08       		.byte	0x8
 3492 0578 12       		.uleb128 0x12
 3493 0579 F4080000 		.4byte	.LASF99
 3494 057d 09       		.byte	0x9
 3495 057e 12       		.uleb128 0x12
 3496 057f 791A0000 		.4byte	.LASF100
 3497 0583 0A       		.byte	0xa
 3498 0584 12       		.uleb128 0x12
 3499 0585 9D040000 		.4byte	.LASF101
 3500 0589 0B       		.byte	0xb
 3501 058a 12       		.uleb128 0x12
 3502 058b 80240000 		.4byte	.LASF102
 3503 058f 10       		.byte	0x10
ARM GAS  C:\Users\haske\AppData\Local\Temp\ccGWO5DZ.s 			page 90


 3504 0590 12       		.uleb128 0x12
 3505 0591 EC100000 		.4byte	.LASF103
 3506 0595 11       		.byte	0x11
 3507 0596 12       		.uleb128 0x12
 3508 0597 76140000 		.4byte	.LASF104
 3509 059b 12       		.byte	0x12
 3510 059c 12       		.uleb128 0x12
 3511 059d 55050000 		.4byte	.LASF105
 3512 05a1 13       		.byte	0x13
 3513 05a2 12       		.uleb128 0x12
 3514 05a3 EA130000 		.4byte	.LASF106
 3515 05a7 14       		.byte	0x14
 3516 05a8 12       		.uleb128 0x12
 3517 05a9 F3030000 		.4byte	.LASF107
 3518 05ad 15       		.byte	0x15
 3519 05ae 12       		.uleb128 0x12
 3520 05af 180C0000 		.4byte	.LASF108
 3521 05b3 16       		.byte	0x16
 3522 05b4 12       		.uleb128 0x12
 3523 05b5 5B1B0000 		.4byte	.LASF109
 3524 05b9 17       		.byte	0x17
 3525 05ba 12       		.uleb128 0x12
 3526 05bb BB0C0000 		.4byte	.LASF110
 3527 05bf 20       		.byte	0x20
 3528 05c0 12       		.uleb128 0x12
 3529 05c1 85110000 		.4byte	.LASF111
 3530 05c5 21       		.byte	0x21
 3531 05c6 12       		.uleb128 0x12
 3532 05c7 D0220000 		.4byte	.LASF112
 3533 05cb 22       		.byte	0x22
 3534 05cc 12       		.uleb128 0x12
 3535 05cd 6E080000 		.4byte	.LASF113
 3536 05d1 23       		.byte	0x23
 3537 05d2 12       		.uleb128 0x12
 3538 05d3 CC110000 		.4byte	.LASF114
 3539 05d7 24       		.byte	0x24
 3540 05d8 12       		.uleb128 0x12
 3541 05d9 101F0000 		.4byte	.LASF115
 3542 05dd 25       		.byte	0x25
 3543 05de 12       		.uleb128 0x12
 3544 05df E9290000 		.4byte	.LASF116
 3545 05e3 26       		.byte	0x26
 3546 05e4 12       		.uleb128 0x12
 3547 05e5 69150000 		.4byte	.LASF117
 3548 05e9 27       		.byte	0x27
 3549 05ea 12       		.uleb128 0x12
 3550 05eb 05210000 		.4byte	.LASF118
 3551 05ef 28       		.byte	0x28
 3552 05f0 12       		.uleb128 0x12
 3553 05f1 C8240000 		.4byte	.LASF119
 3554 05f5 29       		.byte	0x29
 3555 05f6 12       		.uleb128 0x12
 3556 05f7 DF040000 		.4byte	.LASF120
 3557 05fb 2A       		.byte	0x2a
 3558 05fc 12       		.uleb128 0x12
 3559 05fd F5050000 		.4byte	.LASF121
 3560 0601 2B       		.byte	0x2b
ARM GAS  C:\Users\haske\AppData\Local\Temp\ccGWO5DZ.s 			page 91


 3561 0602 12       		.uleb128 0x12
 3562 0603 B0060000 		.4byte	.LASF122
 3563 0607 2C       		.byte	0x2c
 3564 0608 12       		.uleb128 0x12
 3565 0609 601E0000 		.4byte	.LASF123
 3566 060d 30       		.byte	0x30
 3567 060e 12       		.uleb128 0x12
 3568 060f 0F070000 		.4byte	.LASF124
 3569 0613 31       		.byte	0x31
 3570 0614 12       		.uleb128 0x12
 3571 0615 B1030000 		.4byte	.LASF125
 3572 0619 32       		.byte	0x32
 3573 061a 12       		.uleb128 0x12
 3574 061b 261F0000 		.4byte	.LASF126
 3575 061f 33       		.byte	0x33
 3576 0620 12       		.uleb128 0x12
 3577 0621 D6250000 		.4byte	.LASF127
 3578 0625 34       		.byte	0x34
 3579 0626 12       		.uleb128 0x12
 3580 0627 480F0000 		.4byte	.LASF128
 3581 062b 35       		.byte	0x35
 3582 062c 12       		.uleb128 0x12
 3583 062d CA270000 		.4byte	.LASF129
 3584 0631 36       		.byte	0x36
 3585 0632 12       		.uleb128 0x12
 3586 0633 2A0C0000 		.4byte	.LASF130
 3587 0637 37       		.byte	0x37
 3588 0638 12       		.uleb128 0x12
 3589 0639 1B2A0000 		.4byte	.LASF131
 3590 063d 38       		.byte	0x38
 3591 063e 12       		.uleb128 0x12
 3592 063f F91A0000 		.4byte	.LASF132
 3593 0643 40       		.byte	0x40
 3594 0644 12       		.uleb128 0x12
 3595 0645 A1200000 		.4byte	.LASF133
 3596 0649 41       		.byte	0x41
 3597 064a 12       		.uleb128 0x12
 3598 064b B7200000 		.4byte	.LASF134
 3599 064f 42       		.byte	0x42
 3600 0650 12       		.uleb128 0x12
 3601 0651 1B280000 		.4byte	.LASF135
 3602 0655 43       		.byte	0x43
 3603 0656 12       		.uleb128 0x12
 3604 0657 8D070000 		.4byte	.LASF136
 3605 065b 44       		.byte	0x44
 3606 065c 12       		.uleb128 0x12
 3607 065d F7040000 		.4byte	.LASF137
 3608 0661 45       		.byte	0x45
 3609 0662 12       		.uleb128 0x12
 3610 0663 10120000 		.4byte	.LASF138
 3611 0667 46       		.byte	0x46
 3612 0668 12       		.uleb128 0x12
 3613 0669 AD090000 		.4byte	.LASF139
 3614 066d 47       		.byte	0x47
 3615 066e 12       		.uleb128 0x12
 3616 066f CD0C0000 		.4byte	.LASF140
 3617 0673 48       		.byte	0x48
ARM GAS  C:\Users\haske\AppData\Local\Temp\ccGWO5DZ.s 			page 92


 3618 0674 12       		.uleb128 0x12
 3619 0675 DC240000 		.4byte	.LASF141
 3620 0679 49       		.byte	0x49
 3621 067a 12       		.uleb128 0x12
 3622 067b DA0D0000 		.4byte	.LASF142
 3623 067f 4A       		.byte	0x4a
 3624 0680 12       		.uleb128 0x12
 3625 0681 A7000000 		.4byte	.LASF143
 3626 0685 4B       		.byte	0x4b
 3627 0686 12       		.uleb128 0x12
 3628 0687 32260000 		.4byte	.LASF144
 3629 068b 4C       		.byte	0x4c
 3630 068c 12       		.uleb128 0x12
 3631 068d AC130000 		.4byte	.LASF145
 3632 0691 4D       		.byte	0x4d
 3633 0692 12       		.uleb128 0x12
 3634 0693 95110000 		.4byte	.LASF146
 3635 0697 4E       		.byte	0x4e
 3636 0698 12       		.uleb128 0x12
 3637 0699 D8090000 		.4byte	.LASF147
 3638 069d 50       		.byte	0x50
 3639 069e 12       		.uleb128 0x12
 3640 069f DC170000 		.4byte	.LASF148
 3641 06a3 51       		.byte	0x51
 3642 06a4 12       		.uleb128 0x12
 3643 06a5 D7230000 		.4byte	.LASF149
 3644 06a9 52       		.byte	0x52
 3645 06aa 12       		.uleb128 0x12
 3646 06ab 17010000 		.4byte	.LASF150
 3647 06af 53       		.byte	0x53
 3648 06b0 12       		.uleb128 0x12
 3649 06b1 2E210000 		.4byte	.LASF151
 3650 06b5 54       		.byte	0x54
 3651 06b6 12       		.uleb128 0x12
 3652 06b7 8C180000 		.4byte	.LASF152
 3653 06bb 55       		.byte	0x55
 3654 06bc 12       		.uleb128 0x12
 3655 06bd B2120000 		.4byte	.LASF153
 3656 06c1 56       		.byte	0x56
 3657 06c2 12       		.uleb128 0x12
 3658 06c3 82210000 		.4byte	.LASF154
 3659 06c7 57       		.byte	0x57
 3660 06c8 12       		.uleb128 0x12
 3661 06c9 442A0000 		.4byte	.LASF155
 3662 06cd 58       		.byte	0x58
 3663 06ce 12       		.uleb128 0x12
 3664 06cf 2E100000 		.4byte	.LASF156
 3665 06d3 59       		.byte	0x59
 3666 06d4 12       		.uleb128 0x12
 3667 06d5 9E170000 		.4byte	.LASF157
 3668 06d9 5A       		.byte	0x5a
 3669 06da 12       		.uleb128 0x12
 3670 06db 55150000 		.4byte	.LASF158
 3671 06df 5B       		.byte	0x5b
 3672 06e0 12       		.uleb128 0x12
 3673 06e1 27000000 		.4byte	.LASF159
 3674 06e5 60       		.byte	0x60
ARM GAS  C:\Users\haske\AppData\Local\Temp\ccGWO5DZ.s 			page 93


 3675 06e6 12       		.uleb128 0x12
 3676 06e7 11170000 		.4byte	.LASF160
 3677 06eb 61       		.byte	0x61
 3678 06ec 12       		.uleb128 0x12
 3679 06ed E41C0000 		.4byte	.LASF161
 3680 06f1 62       		.byte	0x62
 3681 06f2 12       		.uleb128 0x12
 3682 06f3 11150000 		.4byte	.LASF162
 3683 06f7 63       		.byte	0x63
 3684 06f8 12       		.uleb128 0x12
 3685 06f9 D9100000 		.4byte	.LASF163
 3686 06fd 64       		.byte	0x64
 3687 06fe 12       		.uleb128 0x12
 3688 06ff 050F0000 		.4byte	.LASF164
 3689 0703 65       		.byte	0x65
 3690 0704 12       		.uleb128 0x12
 3691 0705 B4050000 		.4byte	.LASF165
 3692 0709 66       		.byte	0x66
 3693 070a 12       		.uleb128 0x12
 3694 070b 310D0000 		.4byte	.LASF166
 3695 070f 67       		.byte	0x67
 3696 0710 12       		.uleb128 0x12
 3697 0711 050E0000 		.4byte	.LASF167
 3698 0715 68       		.byte	0x68
 3699 0716 12       		.uleb128 0x12
 3700 0717 24050000 		.4byte	.LASF168
 3701 071b 69       		.byte	0x69
 3702 071c 12       		.uleb128 0x12
 3703 071d 750A0000 		.4byte	.LASF169
 3704 0721 6A       		.byte	0x6a
 3705 0722 12       		.uleb128 0x12
 3706 0723 8A0A0000 		.4byte	.LASF170
 3707 0727 6B       		.byte	0x6b
 3708 0728 12       		.uleb128 0x12
 3709 0729 21120000 		.4byte	.LASF171
 3710 072d 6C       		.byte	0x6c
 3711 072e 12       		.uleb128 0x12
 3712 072f CC160000 		.4byte	.LASF172
 3713 0733 6D       		.byte	0x6d
 3714 0734 12       		.uleb128 0x12
 3715 0735 58090000 		.4byte	.LASF173
 3716 0739 6E       		.byte	0x6e
 3717 073a 12       		.uleb128 0x12
 3718 073b 73090000 		.4byte	.LASF174
 3719 073f 6F       		.byte	0x6f
 3720 0740 12       		.uleb128 0x12
 3721 0741 53030000 		.4byte	.LASF175
 3722 0745 6F       		.byte	0x6f
 3723 0746 12       		.uleb128 0x12
 3724 0747 63240000 		.4byte	.LASF176
 3725 074b 70       		.byte	0x70
 3726 074c 18       		.uleb128 0x18
 3727 074d C7210000 		.4byte	.LASF177
 3728 0751 FFFF     		.2byte	0xffff
 3729 0753 18       		.uleb128 0x18
 3730 0754 83190000 		.4byte	.LASF178
 3731 0758 FFFF     		.2byte	0xffff
ARM GAS  C:\Users\haske\AppData\Local\Temp\ccGWO5DZ.s 			page 94


 3732 075a 00       		.byte	0
 3733 075b 19       		.uleb128 0x19
 3734 075c 310E0000 		.4byte	.LASF179
 3735 0760 0C       		.byte	0xc
 3736 0761 1C01     		.2byte	0x11c
 3737 0763 36050000 		.4byte	0x536
 3738 0767 1A       		.uleb128 0x1a
 3739 0768 08       		.byte	0x8
 3740 0769 0C       		.byte	0xc
 3741 076a 3601     		.2byte	0x136
 3742 076c 8B070000 		.4byte	0x78b
 3743 0770 1B       		.uleb128 0x1b
 3744 0771 780D0000 		.4byte	.LASF180
 3745 0775 0C       		.byte	0xc
 3746 0776 3701     		.2byte	0x137
 3747 0778 5B070000 		.4byte	0x75b
 3748 077c 00       		.byte	0
 3749 077d 1B       		.uleb128 0x1b
 3750 077e 410B0000 		.4byte	.LASF181
 3751 0782 0C       		.byte	0xc
 3752 0783 3801     		.2byte	0x138
 3753 0785 2B050000 		.4byte	0x52b
 3754 0789 04       		.byte	0x4
 3755 078a 00       		.byte	0
 3756 078b 19       		.uleb128 0x19
 3757 078c 56100000 		.4byte	.LASF182
 3758 0790 0C       		.byte	0xc
 3759 0791 3901     		.2byte	0x139
 3760 0793 67070000 		.4byte	0x767
 3761 0797 1C       		.uleb128 0x1c
 3762 0798 04       		.byte	0x4
 3763 0799 0C       		.byte	0xc
 3764 079a 4601     		.2byte	0x146
 3765 079c C5070000 		.4byte	0x7c5
 3766 07a0 1D       		.uleb128 0x1d
 3767 07a1 43210000 		.4byte	.LASF183
 3768 07a5 0C       		.byte	0xc
 3769 07a6 4701     		.2byte	0x147
 3770 07a8 2B050000 		.4byte	0x52b
 3771 07ac 1D       		.uleb128 0x1d
 3772 07ad A20E0000 		.4byte	.LASF184
 3773 07b1 0C       		.byte	0xc
 3774 07b2 4801     		.2byte	0x148
 3775 07b4 C5070000 		.4byte	0x7c5
 3776 07b8 1D       		.uleb128 0x1d
 3777 07b9 890D0000 		.4byte	.LASF185
 3778 07bd 0C       		.byte	0xc
 3779 07be 4901     		.2byte	0x149
 3780 07c0 CB070000 		.4byte	0x7cb
 3781 07c4 00       		.byte	0
 3782 07c5 0B       		.uleb128 0xb
 3783 07c6 04       		.byte	0x4
 3784 07c7 B8000000 		.4byte	0xb8
 3785 07cb 0B       		.uleb128 0xb
 3786 07cc 04       		.byte	0x4
 3787 07cd D1070000 		.4byte	0x7d1
 3788 07d1 0C       		.uleb128 0xc
ARM GAS  C:\Users\haske\AppData\Local\Temp\ccGWO5DZ.s 			page 95


 3789 07d2 8B070000 		.4byte	0x78b
 3790 07d6 1A       		.uleb128 0x1a
 3791 07d7 08       		.byte	0x8
 3792 07d8 0C       		.byte	0xc
 3793 07d9 3E01     		.2byte	0x13e
 3794 07db 14080000 		.4byte	0x814
 3795 07df 1E       		.uleb128 0x1e
 3796 07e0 765F7000 		.ascii	"v_p\000"
 3797 07e4 0C       		.byte	0xc
 3798 07e5 4A01     		.2byte	0x14a
 3799 07e7 97070000 		.4byte	0x797
 3800 07eb 00       		.byte	0
 3801 07ec 1B       		.uleb128 0x1b
 3802 07ed 5B250000 		.4byte	.LASF186
 3803 07f1 0C       		.byte	0xc
 3804 07f2 4C01     		.2byte	0x14c
 3805 07f4 CE000000 		.4byte	0xce
 3806 07f8 04       		.byte	0x4
 3807 07f9 1B       		.uleb128 0x1b
 3808 07fa 8F010000 		.4byte	.LASF187
 3809 07fe 0C       		.byte	0xc
 3810 07ff 4D01     		.2byte	0x14d
 3811 0801 B8000000 		.4byte	0xb8
 3812 0805 06       		.byte	0x6
 3813 0806 1B       		.uleb128 0x1b
 3814 0807 17000000 		.4byte	.LASF188
 3815 080b 0C       		.byte	0xc
 3816 080c 4E01     		.2byte	0x14e
 3817 080e B8000000 		.4byte	0xb8
 3818 0812 07       		.byte	0x7
 3819 0813 00       		.byte	0
 3820 0814 19       		.uleb128 0x19
 3821 0815 A7110000 		.4byte	.LASF189
 3822 0819 0C       		.byte	0xc
 3823 081a 4F01     		.2byte	0x14f
 3824 081c D6070000 		.4byte	0x7d6
 3825 0820 11       		.uleb128 0x11
 3826 0821 01       		.byte	0x1
 3827 0822 42000000 		.4byte	0x42
 3828 0826 0D       		.byte	0xd
 3829 0827 37       		.byte	0x37
 3830 0828 11090000 		.4byte	0x911
 3831 082c 12       		.uleb128 0x12
 3832 082d 25200000 		.4byte	.LASF190
 3833 0831 00       		.byte	0
 3834 0832 12       		.uleb128 0x12
 3835 0833 BC080000 		.4byte	.LASF191
 3836 0837 01       		.byte	0x1
 3837 0838 12       		.uleb128 0x12
 3838 0839 B1250000 		.4byte	.LASF192
 3839 083d 02       		.byte	0x2
 3840 083e 12       		.uleb128 0x12
 3841 083f 261B0000 		.4byte	.LASF193
 3842 0843 03       		.byte	0x3
 3843 0844 12       		.uleb128 0x12
 3844 0845 19210000 		.4byte	.LASF194
 3845 0849 04       		.byte	0x4
ARM GAS  C:\Users\haske\AppData\Local\Temp\ccGWO5DZ.s 			page 96


 3846 084a 12       		.uleb128 0x12
 3847 084b 06190000 		.4byte	.LASF195
 3848 084f 05       		.byte	0x5
 3849 0850 12       		.uleb128 0x12
 3850 0851 701B0000 		.4byte	.LASF196
 3851 0855 06       		.byte	0x6
 3852 0856 12       		.uleb128 0x12
 3853 0857 F2020000 		.4byte	.LASF197
 3854 085b 07       		.byte	0x7
 3855 085c 12       		.uleb128 0x12
 3856 085d A2190000 		.4byte	.LASF198
 3857 0861 08       		.byte	0x8
 3858 0862 12       		.uleb128 0x12
 3859 0863 0B1A0000 		.4byte	.LASF199
 3860 0867 09       		.byte	0x9
 3861 0868 12       		.uleb128 0x12
 3862 0869 0F1B0000 		.4byte	.LASF200
 3863 086d 0A       		.byte	0xa
 3864 086e 12       		.uleb128 0x12
 3865 086f 38010000 		.4byte	.LASF201
 3866 0873 0B       		.byte	0xb
 3867 0874 12       		.uleb128 0x12
 3868 0875 12180000 		.4byte	.LASF202
 3869 0879 0C       		.byte	0xc
 3870 087a 12       		.uleb128 0x12
 3871 087b 77180000 		.4byte	.LASF203
 3872 087f 0D       		.byte	0xd
 3873 0880 12       		.uleb128 0x12
 3874 0881 3C190000 		.4byte	.LASF204
 3875 0885 0E       		.byte	0xe
 3876 0886 12       		.uleb128 0x12
 3877 0887 7F290000 		.4byte	.LASF205
 3878 088b 0F       		.byte	0xf
 3879 088c 12       		.uleb128 0x12
 3880 088d 37060000 		.4byte	.LASF206
 3881 0891 10       		.byte	0x10
 3882 0892 12       		.uleb128 0x12
 3883 0893 5A1A0000 		.4byte	.LASF207
 3884 0897 11       		.byte	0x11
 3885 0898 12       		.uleb128 0x12
 3886 0899 6F020000 		.4byte	.LASF208
 3887 089d 12       		.byte	0x12
 3888 089e 12       		.uleb128 0x12
 3889 089f 75050000 		.4byte	.LASF209
 3890 08a3 13       		.byte	0x13
 3891 08a4 12       		.uleb128 0x12
 3892 08a5 C01F0000 		.4byte	.LASF210
 3893 08a9 14       		.byte	0x14
 3894 08aa 12       		.uleb128 0x12
 3895 08ab DA0F0000 		.4byte	.LASF211
 3896 08af 15       		.byte	0x15
 3897 08b0 12       		.uleb128 0x12
 3898 08b1 F00F0000 		.4byte	.LASF212
 3899 08b5 16       		.byte	0x16
 3900 08b6 12       		.uleb128 0x12
 3901 08b7 161E0000 		.4byte	.LASF213
 3902 08bb 17       		.byte	0x17
ARM GAS  C:\Users\haske\AppData\Local\Temp\ccGWO5DZ.s 			page 97


 3903 08bc 12       		.uleb128 0x12
 3904 08bd 18100000 		.4byte	.LASF214
 3905 08c1 18       		.byte	0x18
 3906 08c2 12       		.uleb128 0x12
 3907 08c3 3C1E0000 		.4byte	.LASF215
 3908 08c7 19       		.byte	0x19
 3909 08c8 12       		.uleb128 0x12
 3910 08c9 24110000 		.4byte	.LASF216
 3911 08cd 1A       		.byte	0x1a
 3912 08ce 12       		.uleb128 0x12
 3913 08cf 3A110000 		.4byte	.LASF217
 3914 08d3 1B       		.byte	0x1b
 3915 08d4 12       		.uleb128 0x12
 3916 08d5 50110000 		.4byte	.LASF218
 3917 08d9 1C       		.byte	0x1c
 3918 08da 12       		.uleb128 0x12
 3919 08db 66110000 		.4byte	.LASF219
 3920 08df 1D       		.byte	0x1d
 3921 08e0 12       		.uleb128 0x12
 3922 08e1 081C0000 		.4byte	.LASF220
 3923 08e5 1E       		.byte	0x1e
 3924 08e6 12       		.uleb128 0x12
 3925 08e7 211C0000 		.4byte	.LASF221
 3926 08eb 1F       		.byte	0x1f
 3927 08ec 12       		.uleb128 0x12
 3928 08ed 3A1C0000 		.4byte	.LASF222
 3929 08f1 20       		.byte	0x20
 3930 08f2 12       		.uleb128 0x12
 3931 08f3 531C0000 		.4byte	.LASF223
 3932 08f7 21       		.byte	0x21
 3933 08f8 12       		.uleb128 0x12
 3934 08f9 6C1C0000 		.4byte	.LASF224
 3935 08fd 22       		.byte	0x22
 3936 08fe 12       		.uleb128 0x12
 3937 08ff 851C0000 		.4byte	.LASF225
 3938 0903 23       		.byte	0x23
 3939 0904 12       		.uleb128 0x12
 3940 0905 9E1C0000 		.4byte	.LASF226
 3941 0909 24       		.byte	0x24
 3942 090a 12       		.uleb128 0x12
 3943 090b B71C0000 		.4byte	.LASF227
 3944 090f 25       		.byte	0x25
 3945 0910 00       		.byte	0
 3946 0911 02       		.uleb128 0x2
 3947 0912 8A120000 		.4byte	.LASF228
 3948 0916 0D       		.byte	0xd
 3949 0917 69       		.byte	0x69
 3950 0918 B8000000 		.4byte	0xb8
 3951 091c 05       		.uleb128 0x5
 3952 091d 04       		.byte	0x4
 3953 091e 0D       		.byte	0xd
 3954 091f 7E       		.byte	0x7e
 3955 0920 6B090000 		.4byte	0x96b
 3956 0924 08       		.uleb128 0x8
 3957 0925 636600   		.ascii	"cf\000"
 3958 0928 0D       		.byte	0xd
 3959 0929 80       		.byte	0x80
ARM GAS  C:\Users\haske\AppData\Local\Temp\ccGWO5DZ.s 			page 98


 3960 092a E4000000 		.4byte	0xe4
 3961 092e 04       		.byte	0x4
 3962 092f 05       		.byte	0x5
 3963 0930 1B       		.byte	0x1b
 3964 0931 00       		.byte	0
 3965 0932 09       		.uleb128 0x9
 3966 0933 FF270000 		.4byte	.LASF229
 3967 0937 0D       		.byte	0xd
 3968 0938 81       		.byte	0x81
 3969 0939 E4000000 		.4byte	0xe4
 3970 093d 04       		.byte	0x4
 3971 093e 03       		.byte	0x3
 3972 093f 18       		.byte	0x18
 3973 0940 00       		.byte	0
 3974 0941 09       		.uleb128 0x9
 3975 0942 34270000 		.4byte	.LASF230
 3976 0946 0D       		.byte	0xd
 3977 0947 84       		.byte	0x84
 3978 0948 E4000000 		.4byte	0xe4
 3979 094c 04       		.byte	0x4
 3980 094d 02       		.byte	0x2
 3981 094e 16       		.byte	0x16
 3982 094f 00       		.byte	0
 3983 0950 08       		.uleb128 0x8
 3984 0951 7700     		.ascii	"w\000"
 3985 0953 0D       		.byte	0xd
 3986 0954 86       		.byte	0x86
 3987 0955 E4000000 		.4byte	0xe4
 3988 0959 04       		.byte	0x4
 3989 095a 0B       		.byte	0xb
 3990 095b 0B       		.byte	0xb
 3991 095c 00       		.byte	0
 3992 095d 08       		.uleb128 0x8
 3993 095e 6800     		.ascii	"h\000"
 3994 0960 0D       		.byte	0xd
 3995 0961 87       		.byte	0x87
 3996 0962 E4000000 		.4byte	0xe4
 3997 0966 04       		.byte	0x4
 3998 0967 0B       		.byte	0xb
 3999 0968 00       		.byte	0
 4000 0969 00       		.byte	0
 4001 096a 00       		.byte	0
 4002 096b 02       		.uleb128 0x2
 4003 096c DC010000 		.4byte	.LASF231
 4004 0970 0D       		.byte	0xd
 4005 0971 88       		.byte	0x88
 4006 0972 1C090000 		.4byte	0x91c
 4007 0976 11       		.uleb128 0x11
 4008 0977 01       		.byte	0x1
 4009 0978 42000000 		.4byte	0x42
 4010 097c 0E       		.byte	0xe
 4011 097d 22       		.byte	0x22
 4012 097e 9B090000 		.4byte	0x99b
 4013 0982 12       		.uleb128 0x12
 4014 0983 050A0000 		.4byte	.LASF232
 4015 0987 00       		.byte	0
 4016 0988 12       		.uleb128 0x12
ARM GAS  C:\Users\haske\AppData\Local\Temp\ccGWO5DZ.s 			page 99


 4017 0989 3A230000 		.4byte	.LASF233
 4018 098d 01       		.byte	0x1
 4019 098e 12       		.uleb128 0x12
 4020 098f 7D010000 		.4byte	.LASF234
 4021 0993 02       		.byte	0x2
 4022 0994 12       		.uleb128 0x12
 4023 0995 450D0000 		.4byte	.LASF235
 4024 0999 03       		.byte	0x3
 4025 099a 00       		.byte	0
 4026 099b 02       		.uleb128 0x2
 4027 099c 8B260000 		.4byte	.LASF236
 4028 09a0 0E       		.byte	0xe
 4029 09a1 29       		.byte	0x29
 4030 09a2 B8000000 		.4byte	0xb8
 4031 09a6 0B       		.uleb128 0xb
 4032 09a7 04       		.byte	0x4
 4033 09a8 AC090000 		.4byte	0x9ac
 4034 09ac 0A       		.uleb128 0xa
 4035 09ad 78220000 		.4byte	.LASF238
 4036 09b1 24       		.byte	0x24
 4037 09b2 0F       		.byte	0xf
 4038 09b3 AE       		.byte	0xae
 4039 09b4 730A0000 		.4byte	0xa73
 4040 09b8 07       		.uleb128 0x7
 4041 09b9 C2180000 		.4byte	.LASF239
 4042 09bd 0F       		.byte	0xf
 4043 09be AF       		.byte	0xaf
 4044 09bf 6B1E0000 		.4byte	0x1e6b
 4045 09c3 00       		.byte	0
 4046 09c4 07       		.uleb128 0x7
 4047 09c5 83100000 		.4byte	.LASF240
 4048 09c9 0F       		.byte	0xf
 4049 09ca B0       		.byte	0xb0
 4050 09cb A6090000 		.4byte	0x9a6
 4051 09cf 04       		.byte	0x4
 4052 09d0 07       		.uleb128 0x7
 4053 09d1 49020000 		.4byte	.LASF241
 4054 09d5 0F       		.byte	0xf
 4055 09d6 B1       		.byte	0xb1
 4056 09d7 761E0000 		.4byte	0x1e76
 4057 09db 08       		.byte	0x8
 4058 09dc 07       		.uleb128 0x7
 4059 09dd FF110000 		.4byte	.LASF242
 4060 09e1 0F       		.byte	0xf
 4061 09e2 B2       		.byte	0xb2
 4062 09e3 7C1E0000 		.4byte	0x1e7c
 4063 09e7 0C       		.byte	0xc
 4064 09e8 07       		.uleb128 0x7
 4065 09e9 E1270000 		.4byte	.LASF42
 4066 09ed 0F       		.byte	0xf
 4067 09ee B4       		.byte	0xb4
 4068 09ef E9020000 		.4byte	0x2e9
 4069 09f3 10       		.byte	0x10
 4070 09f4 07       		.uleb128 0x7
 4071 09f5 2D240000 		.4byte	.LASF243
 4072 09f9 0F       		.byte	0xf
 4073 09fa B6       		.byte	0xb6
ARM GAS  C:\Users\haske\AppData\Local\Temp\ccGWO5DZ.s 			page 100


 4074 09fb 69010000 		.4byte	0x169
 4075 09ff 14       		.byte	0x14
 4076 0a00 07       		.uleb128 0x7
 4077 0a01 470B0000 		.4byte	.LASF244
 4078 0a05 0F       		.byte	0xf
 4079 0a06 B7       		.byte	0xb7
 4080 0a07 BF190000 		.4byte	0x19bf
 4081 0a0b 1C       		.byte	0x1c
 4082 0a0c 07       		.uleb128 0x7
 4083 0a0d BF020000 		.4byte	.LASF245
 4084 0a11 0F       		.byte	0xf
 4085 0a12 B8       		.byte	0xb8
 4086 0a13 68180000 		.4byte	0x1868
 4087 0a17 20       		.byte	0x20
 4088 0a18 09       		.uleb128 0x9
 4089 0a19 AD070000 		.4byte	.LASF246
 4090 0a1d 0F       		.byte	0xf
 4091 0a1e B9       		.byte	0xb9
 4092 0a1f CE000000 		.4byte	0xce
 4093 0a23 02       		.byte	0x2
 4094 0a24 01       		.byte	0x1
 4095 0a25 0F       		.byte	0xf
 4096 0a26 22       		.byte	0x22
 4097 0a27 09       		.uleb128 0x9
 4098 0a28 B5040000 		.4byte	.LASF247
 4099 0a2c 0F       		.byte	0xf
 4100 0a2d BA       		.byte	0xba
 4101 0a2e CE000000 		.4byte	0xce
 4102 0a32 02       		.byte	0x2
 4103 0a33 01       		.byte	0x1
 4104 0a34 0E       		.byte	0xe
 4105 0a35 22       		.byte	0x22
 4106 0a36 09       		.uleb128 0x9
 4107 0a37 27180000 		.4byte	.LASF248
 4108 0a3b 0F       		.byte	0xf
 4109 0a3c BB       		.byte	0xbb
 4110 0a3d CE000000 		.4byte	0xce
 4111 0a41 02       		.byte	0x2
 4112 0a42 01       		.byte	0x1
 4113 0a43 0D       		.byte	0xd
 4114 0a44 22       		.byte	0x22
 4115 0a45 09       		.uleb128 0x9
 4116 0a46 A3070000 		.4byte	.LASF249
 4117 0a4a 0F       		.byte	0xf
 4118 0a4b BC       		.byte	0xbc
 4119 0a4c CE000000 		.4byte	0xce
 4120 0a50 02       		.byte	0x2
 4121 0a51 06       		.byte	0x6
 4122 0a52 07       		.byte	0x7
 4123 0a53 22       		.byte	0x22
 4124 0a54 09       		.uleb128 0x9
 4125 0a55 2F0A0000 		.4byte	.LASF250
 4126 0a59 0F       		.byte	0xf
 4127 0a5a BD       		.byte	0xbd
 4128 0a5b CE000000 		.4byte	0xce
 4129 0a5f 02       		.byte	0x2
 4130 0a60 01       		.byte	0x1
ARM GAS  C:\Users\haske\AppData\Local\Temp\ccGWO5DZ.s 			page 101


 4131 0a61 06       		.byte	0x6
 4132 0a62 22       		.byte	0x22
 4133 0a63 09       		.uleb128 0x9
 4134 0a64 70040000 		.4byte	.LASF251
 4135 0a68 0F       		.byte	0xf
 4136 0a69 BE       		.byte	0xbe
 4137 0a6a CE000000 		.4byte	0xce
 4138 0a6e 02       		.byte	0x2
 4139 0a6f 01       		.byte	0x1
 4140 0a70 05       		.byte	0x5
 4141 0a71 22       		.byte	0x22
 4142 0a72 00       		.byte	0
 4143 0a73 0B       		.uleb128 0xb
 4144 0a74 04       		.byte	0x4
 4145 0a75 E8030000 		.4byte	0x3e8
 4146 0a79 05       		.uleb128 0x5
 4147 0a7a 38       		.byte	0x38
 4148 0a7b 10       		.byte	0x10
 4149 0a7c 20       		.byte	0x20
 4150 0a7d C00B0000 		.4byte	0xbc0
 4151 0a81 07       		.uleb128 0x7
 4152 0a82 EC010000 		.4byte	.LASF252
 4153 0a86 10       		.byte	0x10
 4154 0a87 21       		.byte	0x21
 4155 0a88 01010000 		.4byte	0x101
 4156 0a8c 00       		.byte	0
 4157 0a8d 07       		.uleb128 0x7
 4158 0a8e 79040000 		.4byte	.LASF253
 4159 0a92 10       		.byte	0x10
 4160 0a93 22       		.byte	0x22
 4161 0a94 44040000 		.4byte	0x444
 4162 0a98 02       		.byte	0x2
 4163 0a99 07       		.uleb128 0x7
 4164 0a9a 11060000 		.4byte	.LASF254
 4165 0a9e 10       		.byte	0x10
 4166 0a9f 25       		.byte	0x25
 4167 0aa0 F3030000 		.4byte	0x3f3
 4168 0aa4 03       		.byte	0x3
 4169 0aa5 07       		.uleb128 0x7
 4170 0aa6 F3010000 		.4byte	.LASF255
 4171 0aaa 10       		.byte	0x10
 4172 0aab 26       		.byte	0x26
 4173 0aac E8030000 		.4byte	0x3e8
 4174 0ab0 04       		.byte	0x4
 4175 0ab1 07       		.uleb128 0x7
 4176 0ab2 C5250000 		.4byte	.LASF256
 4177 0ab6 10       		.byte	0x10
 4178 0ab7 27       		.byte	0x27
 4179 0ab8 F6040000 		.4byte	0x4f6
 4180 0abc 06       		.byte	0x6
 4181 0abd 07       		.uleb128 0x7
 4182 0abe A6030000 		.4byte	.LASF257
 4183 0ac2 10       		.byte	0x10
 4184 0ac3 2A       		.byte	0x2a
 4185 0ac4 E2020000 		.4byte	0x2e2
 4186 0ac8 10       		.byte	0x10
 4187 0ac9 07       		.uleb128 0x7
ARM GAS  C:\Users\haske\AppData\Local\Temp\ccGWO5DZ.s 			page 102


 4188 0aca 47040000 		.4byte	.LASF258
 4189 0ace 10       		.byte	0x10
 4190 0acf 2B       		.byte	0x2b
 4191 0ad0 E2020000 		.4byte	0x2e2
 4192 0ad4 14       		.byte	0x14
 4193 0ad5 07       		.uleb128 0x7
 4194 0ad6 F6220000 		.4byte	.LASF259
 4195 0ada 10       		.byte	0x10
 4196 0adb 2C       		.byte	0x2c
 4197 0adc E8030000 		.4byte	0x3e8
 4198 0ae0 18       		.byte	0x18
 4199 0ae1 07       		.uleb128 0x7
 4200 0ae2 B3230000 		.4byte	.LASF260
 4201 0ae6 10       		.byte	0x10
 4202 0ae7 2D       		.byte	0x2d
 4203 0ae8 F3030000 		.4byte	0x3f3
 4204 0aec 1A       		.byte	0x1a
 4205 0aed 07       		.uleb128 0x7
 4206 0aee B61D0000 		.4byte	.LASF261
 4207 0af2 10       		.byte	0x10
 4208 0af3 2E       		.byte	0x2e
 4209 0af4 F3030000 		.4byte	0x3f3
 4210 0af8 1B       		.byte	0x1b
 4211 0af9 07       		.uleb128 0x7
 4212 0afa 61080000 		.4byte	.LASF262
 4213 0afe 10       		.byte	0x10
 4214 0aff 2F       		.byte	0x2f
 4215 0b00 B8000000 		.4byte	0xb8
 4216 0b04 1C       		.byte	0x1c
 4217 0b05 07       		.uleb128 0x7
 4218 0b06 240D0000 		.4byte	.LASF263
 4219 0b0a 10       		.byte	0x10
 4220 0b0b 32       		.byte	0x32
 4221 0b0c E8030000 		.4byte	0x3e8
 4222 0b10 1E       		.byte	0x1e
 4223 0b11 07       		.uleb128 0x7
 4224 0b12 59200000 		.4byte	.LASF264
 4225 0b16 10       		.byte	0x10
 4226 0b17 33       		.byte	0x33
 4227 0b18 01010000 		.4byte	0x101
 4228 0b1c 20       		.byte	0x20
 4229 0b1d 07       		.uleb128 0x7
 4230 0b1e 7F250000 		.4byte	.LASF265
 4231 0b22 10       		.byte	0x10
 4232 0b23 34       		.byte	0x34
 4233 0b24 F3030000 		.4byte	0x3f3
 4234 0b28 22       		.byte	0x22
 4235 0b29 09       		.uleb128 0x9
 4236 0b2a BB0D0000 		.4byte	.LASF266
 4237 0b2e 10       		.byte	0x10
 4238 0b2f 35       		.byte	0x35
 4239 0b30 B8000000 		.4byte	0xb8
 4240 0b34 01       		.byte	0x1
 4241 0b35 01       		.byte	0x1
 4242 0b36 07       		.byte	0x7
 4243 0b37 23       		.byte	0x23
 4244 0b38 09       		.uleb128 0x9
ARM GAS  C:\Users\haske\AppData\Local\Temp\ccGWO5DZ.s 			page 103


 4245 0b39 5A040000 		.4byte	.LASF267
 4246 0b3d 10       		.byte	0x10
 4247 0b3e 36       		.byte	0x36
 4248 0b3f 5A040000 		.4byte	0x45a
 4249 0b43 01       		.byte	0x1
 4250 0b44 05       		.byte	0x5
 4251 0b45 02       		.byte	0x2
 4252 0b46 23       		.byte	0x23
 4253 0b47 07       		.uleb128 0x7
 4254 0b48 7F070000 		.4byte	.LASF268
 4255 0b4c 10       		.byte	0x10
 4256 0b4d 39       		.byte	0x39
 4257 0b4e E8030000 		.4byte	0x3e8
 4258 0b52 24       		.byte	0x24
 4259 0b53 07       		.uleb128 0x7
 4260 0b54 EB1A0000 		.4byte	.LASF269
 4261 0b58 10       		.byte	0x10
 4262 0b59 3A       		.byte	0x3a
 4263 0b5a 01010000 		.4byte	0x101
 4264 0b5e 26       		.byte	0x26
 4265 0b5f 07       		.uleb128 0x7
 4266 0b60 970C0000 		.4byte	.LASF270
 4267 0b64 10       		.byte	0x10
 4268 0b65 3B       		.byte	0x3b
 4269 0b66 01010000 		.4byte	0x101
 4270 0b6a 28       		.byte	0x28
 4271 0b6b 07       		.uleb128 0x7
 4272 0b6c F5190000 		.4byte	.LASF271
 4273 0b70 10       		.byte	0x10
 4274 0b71 3C       		.byte	0x3c
 4275 0b72 F3030000 		.4byte	0x3f3
 4276 0b76 2A       		.byte	0x2a
 4277 0b77 07       		.uleb128 0x7
 4278 0b78 24160000 		.4byte	.LASF272
 4279 0b7c 10       		.byte	0x10
 4280 0b7d 3F       		.byte	0x3f
 4281 0b7e E8030000 		.4byte	0x3e8
 4282 0b82 2C       		.byte	0x2c
 4283 0b83 07       		.uleb128 0x7
 4284 0b84 17270000 		.4byte	.LASF273
 4285 0b88 10       		.byte	0x10
 4286 0b89 40       		.byte	0x40
 4287 0b8a 01010000 		.4byte	0x101
 4288 0b8e 2E       		.byte	0x2e
 4289 0b8f 07       		.uleb128 0x7
 4290 0b90 F80D0000 		.4byte	.LASF274
 4291 0b94 10       		.byte	0x10
 4292 0b95 41       		.byte	0x41
 4293 0b96 01010000 		.4byte	0x101
 4294 0b9a 30       		.byte	0x30
 4295 0b9b 07       		.uleb128 0x7
 4296 0b9c 90290000 		.4byte	.LASF275
 4297 0ba0 10       		.byte	0x10
 4298 0ba1 42       		.byte	0x42
 4299 0ba2 01010000 		.4byte	0x101
 4300 0ba6 32       		.byte	0x32
 4301 0ba7 07       		.uleb128 0x7
ARM GAS  C:\Users\haske\AppData\Local\Temp\ccGWO5DZ.s 			page 104


 4302 0ba8 CB100000 		.4byte	.LASF276
 4303 0bac 10       		.byte	0x10
 4304 0bad 43       		.byte	0x43
 4305 0bae 01010000 		.4byte	0x101
 4306 0bb2 34       		.byte	0x34
 4307 0bb3 07       		.uleb128 0x7
 4308 0bb4 CC230000 		.4byte	.LASF277
 4309 0bb8 10       		.byte	0x10
 4310 0bb9 44       		.byte	0x44
 4311 0bba F3030000 		.4byte	0x3f3
 4312 0bbe 36       		.byte	0x36
 4313 0bbf 00       		.byte	0
 4314 0bc0 02       		.uleb128 0x2
 4315 0bc1 5F1F0000 		.4byte	.LASF278
 4316 0bc5 10       		.byte	0x10
 4317 0bc6 45       		.byte	0x45
 4318 0bc7 790A0000 		.4byte	0xa79
 4319 0bcb 05       		.uleb128 0x5
 4320 0bcc 20       		.byte	0x20
 4321 0bcd 11       		.byte	0x11
 4322 0bce 1E       		.byte	0x1e
 4323 0bcf 9A0C0000 		.4byte	0xc9a
 4324 0bd3 07       		.uleb128 0x7
 4325 0bd4 82220000 		.4byte	.LASF279
 4326 0bd8 11       		.byte	0x11
 4327 0bd9 1F       		.byte	0x1f
 4328 0bda 9A0C0000 		.4byte	0xc9a
 4329 0bde 00       		.byte	0
 4330 0bdf 07       		.uleb128 0x7
 4331 0be0 A7260000 		.4byte	.LASF280
 4332 0be4 11       		.byte	0x11
 4333 0be5 20       		.byte	0x20
 4334 0be6 E4000000 		.4byte	0xe4
 4335 0bea 04       		.byte	0x4
 4336 0beb 07       		.uleb128 0x7
 4337 0bec 7B190000 		.4byte	.LASF281
 4338 0bf0 11       		.byte	0x11
 4339 0bf1 21       		.byte	0x21
 4340 0bf2 E4000000 		.4byte	0xe4
 4341 0bf6 08       		.byte	0x8
 4342 0bf7 07       		.uleb128 0x7
 4343 0bf8 20220000 		.4byte	.LASF82
 4344 0bfc 11       		.byte	0x11
 4345 0bfd 22       		.byte	0x22
 4346 0bfe E8030000 		.4byte	0x3e8
 4347 0c02 0C       		.byte	0xc
 4348 0c03 07       		.uleb128 0x7
 4349 0c04 30290000 		.4byte	.LASF282
 4350 0c08 11       		.byte	0x11
 4351 0c09 23       		.byte	0x23
 4352 0c0a E8030000 		.4byte	0x3e8
 4353 0c0e 0E       		.byte	0xe
 4354 0c0f 07       		.uleb128 0x7
 4355 0c10 6D060000 		.4byte	.LASF283
 4356 0c14 11       		.byte	0x11
 4357 0c15 24       		.byte	0x24
 4358 0c16 E8030000 		.4byte	0x3e8
ARM GAS  C:\Users\haske\AppData\Local\Temp\ccGWO5DZ.s 			page 105


 4359 0c1a 10       		.byte	0x10
 4360 0c1b 07       		.uleb128 0x7
 4361 0c1c 32220000 		.4byte	.LASF284
 4362 0c20 11       		.byte	0x11
 4363 0c21 25       		.byte	0x25
 4364 0c22 01010000 		.4byte	0x101
 4365 0c26 12       		.byte	0x12
 4366 0c27 07       		.uleb128 0x7
 4367 0c28 87220000 		.4byte	.LASF285
 4368 0c2c 11       		.byte	0x11
 4369 0c2d 26       		.byte	0x26
 4370 0c2e 01010000 		.4byte	0x101
 4371 0c32 14       		.byte	0x14
 4372 0c33 07       		.uleb128 0x7
 4373 0c34 EB090000 		.4byte	.LASF31
 4374 0c38 11       		.byte	0x11
 4375 0c39 27       		.byte	0x27
 4376 0c3a 01010000 		.4byte	0x101
 4377 0c3e 16       		.byte	0x16
 4378 0c3f 07       		.uleb128 0x7
 4379 0c40 F1090000 		.4byte	.LASF32
 4380 0c44 11       		.byte	0x11
 4381 0c45 28       		.byte	0x28
 4382 0c46 01010000 		.4byte	0x101
 4383 0c4a 18       		.byte	0x18
 4384 0c4b 06       		.uleb128 0x6
 4385 0c4c 6F706100 		.ascii	"opa\000"
 4386 0c50 11       		.byte	0x11
 4387 0c51 29       		.byte	0x29
 4388 0c52 F3030000 		.4byte	0x3f3
 4389 0c56 1A       		.byte	0x1a
 4390 0c57 07       		.uleb128 0x7
 4391 0c58 1F020000 		.4byte	.LASF286
 4392 0c5c 11       		.byte	0x11
 4393 0c5d 2A       		.byte	0x2a
 4394 0c5e 39040000 		.4byte	0x439
 4395 0c62 1B       		.byte	0x1b
 4396 0c63 07       		.uleb128 0x7
 4397 0c64 C8170000 		.4byte	.LASF287
 4398 0c68 11       		.byte	0x11
 4399 0c69 2B       		.byte	0x2b
 4400 0c6a 2E040000 		.4byte	0x42e
 4401 0c6e 1C       		.byte	0x1c
 4402 0c6f 07       		.uleb128 0x7
 4403 0c70 B9190000 		.4byte	.LASF288
 4404 0c74 11       		.byte	0x11
 4405 0c75 2C       		.byte	0x2c
 4406 0c76 23040000 		.4byte	0x423
 4407 0c7a 1D       		.byte	0x1d
 4408 0c7b 09       		.uleb128 0x9
 4409 0c7c 65210000 		.4byte	.LASF289
 4410 0c80 11       		.byte	0x11
 4411 0c81 2D       		.byte	0x2d
 4412 0c82 4F040000 		.4byte	0x44f
 4413 0c86 01       		.byte	0x1
 4414 0c87 03       		.byte	0x3
 4415 0c88 05       		.byte	0x5
ARM GAS  C:\Users\haske\AppData\Local\Temp\ccGWO5DZ.s 			page 106


 4416 0c89 1E       		.byte	0x1e
 4417 0c8a 09       		.uleb128 0x9
 4418 0c8b 79040000 		.4byte	.LASF253
 4419 0c8f 11       		.byte	0x11
 4420 0c90 2E       		.byte	0x2e
 4421 0c91 44040000 		.4byte	0x444
 4422 0c95 01       		.byte	0x1
 4423 0c96 03       		.byte	0x3
 4424 0c97 02       		.byte	0x2
 4425 0c98 1E       		.byte	0x1e
 4426 0c99 00       		.byte	0
 4427 0c9a 0B       		.uleb128 0xb
 4428 0c9b 04       		.byte	0x4
 4429 0c9c A00C0000 		.4byte	0xca0
 4430 0ca0 0C       		.uleb128 0xc
 4431 0ca1 EB020000 		.4byte	0x2eb
 4432 0ca5 02       		.uleb128 0x2
 4433 0ca6 23060000 		.4byte	.LASF290
 4434 0caa 11       		.byte	0x11
 4435 0cab 2F       		.byte	0x2f
 4436 0cac CB0B0000 		.4byte	0xbcb
 4437 0cb0 05       		.uleb128 0x5
 4438 0cb1 18       		.byte	0x18
 4439 0cb2 12       		.byte	0x12
 4440 0cb3 20       		.byte	0x20
 4441 0cb4 2B0D0000 		.4byte	0xd2b
 4442 0cb8 07       		.uleb128 0x7
 4443 0cb9 70140000 		.4byte	.LASF291
 4444 0cbd 12       		.byte	0x12
 4445 0cbe 22       		.byte	0x22
 4446 0cbf C3000000 		.4byte	0xc3
 4447 0cc3 00       		.byte	0
 4448 0cc4 07       		.uleb128 0x7
 4449 0cc5 36140000 		.4byte	.LASF292
 4450 0cc9 12       		.byte	0x12
 4451 0cca 23       		.byte	0x23
 4452 0ccb CE000000 		.4byte	0xce
 4453 0ccf 02       		.byte	0x2
 4454 0cd0 07       		.uleb128 0x7
 4455 0cd1 26220000 		.4byte	.LASF293
 4456 0cd5 12       		.byte	0x12
 4457 0cd6 24       		.byte	0x24
 4458 0cd7 29010000 		.4byte	0x129
 4459 0cdb 04       		.byte	0x4
 4460 0cdc 07       		.uleb128 0x7
 4461 0cdd 3B140000 		.4byte	.LASF294
 4462 0ce1 12       		.byte	0x12
 4463 0ce2 26       		.byte	0x26
 4464 0ce3 E8030000 		.4byte	0x3e8
 4465 0ce7 08       		.byte	0x8
 4466 0ce8 07       		.uleb128 0x7
 4467 0ce9 6D1A0000 		.4byte	.LASF295
 4468 0ced 12       		.byte	0x12
 4469 0cee 27       		.byte	0x27
 4470 0cef F3030000 		.4byte	0x3f3
 4471 0cf3 0A       		.byte	0xa
 4472 0cf4 06       		.uleb128 0x6
ARM GAS  C:\Users\haske\AppData\Local\Temp\ccGWO5DZ.s 			page 107


 4473 0cf5 6F706100 		.ascii	"opa\000"
 4474 0cf9 12       		.byte	0x12
 4475 0cfa 29       		.byte	0x29
 4476 0cfb F3030000 		.4byte	0x3f3
 4477 0cff 0B       		.byte	0xb
 4478 0d00 09       		.uleb128 0x9
 4479 0d01 79040000 		.4byte	.LASF253
 4480 0d05 12       		.byte	0x12
 4481 0d06 2A       		.byte	0x2a
 4482 0d07 44040000 		.4byte	0x444
 4483 0d0b 01       		.byte	0x1
 4484 0d0c 04       		.byte	0x4
 4485 0d0d 04       		.byte	0x4
 4486 0d0e 0C       		.byte	0xc
 4487 0d0f 07       		.uleb128 0x7
 4488 0d10 511A0000 		.4byte	.LASF296
 4489 0d14 12       		.byte	0x12
 4490 0d15 2C       		.byte	0x2c
 4491 0d16 D9000000 		.4byte	0xd9
 4492 0d1a 10       		.byte	0x10
 4493 0d1b 09       		.uleb128 0x9
 4494 0d1c A71B0000 		.4byte	.LASF297
 4495 0d20 12       		.byte	0x12
 4496 0d21 2D       		.byte	0x2d
 4497 0d22 B8000000 		.4byte	0xb8
 4498 0d26 01       		.byte	0x1
 4499 0d27 01       		.byte	0x1
 4500 0d28 07       		.byte	0x7
 4501 0d29 14       		.byte	0x14
 4502 0d2a 00       		.byte	0
 4503 0d2b 02       		.uleb128 0x2
 4504 0d2c 7D0B0000 		.4byte	.LASF298
 4505 0d30 12       		.byte	0x12
 4506 0d31 2E       		.byte	0x2e
 4507 0d32 B00C0000 		.4byte	0xcb0
 4508 0d36 05       		.uleb128 0x5
 4509 0d37 0A       		.byte	0xa
 4510 0d38 13       		.byte	0x13
 4511 0d39 1C       		.byte	0x1c
 4512 0d3a B70D0000 		.4byte	0xdb7
 4513 0d3e 07       		.uleb128 0x7
 4514 0d3f 20220000 		.4byte	.LASF82
 4515 0d43 13       		.byte	0x13
 4516 0d44 1D       		.byte	0x1d
 4517 0d45 E8030000 		.4byte	0x3e8
 4518 0d49 00       		.byte	0
 4519 0d4a 07       		.uleb128 0x7
 4520 0d4b 49160000 		.4byte	.LASF299
 4521 0d4f 13       		.byte	0x13
 4522 0d50 1E       		.byte	0x1e
 4523 0d51 01010000 		.4byte	0x101
 4524 0d55 02       		.byte	0x2
 4525 0d56 07       		.uleb128 0x7
 4526 0d57 05130000 		.4byte	.LASF300
 4527 0d5b 13       		.byte	0x13
 4528 0d5c 1F       		.byte	0x1f
 4529 0d5d 01010000 		.4byte	0x101
ARM GAS  C:\Users\haske\AppData\Local\Temp\ccGWO5DZ.s 			page 108


 4530 0d61 04       		.byte	0x4
 4531 0d62 07       		.uleb128 0x7
 4532 0d63 DF0B0000 		.4byte	.LASF301
 4533 0d67 13       		.byte	0x13
 4534 0d68 20       		.byte	0x20
 4535 0d69 01010000 		.4byte	0x101
 4536 0d6d 06       		.byte	0x6
 4537 0d6e 06       		.uleb128 0x6
 4538 0d6f 6F706100 		.ascii	"opa\000"
 4539 0d73 13       		.byte	0x13
 4540 0d74 21       		.byte	0x21
 4541 0d75 F3030000 		.4byte	0x3f3
 4542 0d79 08       		.byte	0x8
 4543 0d7a 09       		.uleb128 0x9
 4544 0d7b 79040000 		.4byte	.LASF253
 4545 0d7f 13       		.byte	0x13
 4546 0d80 22       		.byte	0x22
 4547 0d81 44040000 		.4byte	0x444
 4548 0d85 01       		.byte	0x1
 4549 0d86 02       		.byte	0x2
 4550 0d87 06       		.byte	0x6
 4551 0d88 09       		.byte	0x9
 4552 0d89 09       		.uleb128 0x9
 4553 0d8a 770E0000 		.4byte	.LASF302
 4554 0d8e 13       		.byte	0x13
 4555 0d8f 23       		.byte	0x23
 4556 0d90 B8000000 		.4byte	0xb8
 4557 0d94 01       		.byte	0x1
 4558 0d95 01       		.byte	0x1
 4559 0d96 05       		.byte	0x5
 4560 0d97 09       		.byte	0x9
 4561 0d98 09       		.uleb128 0x9
 4562 0d99 97100000 		.4byte	.LASF303
 4563 0d9d 13       		.byte	0x13
 4564 0d9e 24       		.byte	0x24
 4565 0d9f B8000000 		.4byte	0xb8
 4566 0da3 01       		.byte	0x1
 4567 0da4 01       		.byte	0x1
 4568 0da5 04       		.byte	0x4
 4569 0da6 09       		.byte	0x9
 4570 0da7 09       		.uleb128 0x9
 4571 0da8 28010000 		.4byte	.LASF304
 4572 0dac 13       		.byte	0x13
 4573 0dad 25       		.byte	0x25
 4574 0dae B8000000 		.4byte	0xb8
 4575 0db2 01       		.byte	0x1
 4576 0db3 01       		.byte	0x1
 4577 0db4 03       		.byte	0x3
 4578 0db5 09       		.byte	0x9
 4579 0db6 00       		.byte	0
 4580 0db7 02       		.uleb128 0x2
 4581 0db8 45090000 		.4byte	.LASF305
 4582 0dbc 13       		.byte	0x13
 4583 0dbd 26       		.byte	0x26
 4584 0dbe 360D0000 		.4byte	0xd36
 4585 0dc2 05       		.uleb128 0x5
 4586 0dc3 10       		.byte	0x10
ARM GAS  C:\Users\haske\AppData\Local\Temp\ccGWO5DZ.s 			page 109


 4587 0dc4 14       		.byte	0x14
 4588 0dc5 1C       		.byte	0x1c
 4589 0dc6 310E0000 		.4byte	0xe31
 4590 0dca 07       		.uleb128 0x7
 4591 0dcb 20220000 		.4byte	.LASF82
 4592 0dcf 14       		.byte	0x14
 4593 0dd0 1D       		.byte	0x1d
 4594 0dd1 E8030000 		.4byte	0x3e8
 4595 0dd5 00       		.byte	0
 4596 0dd6 07       		.uleb128 0x7
 4597 0dd7 49160000 		.4byte	.LASF299
 4598 0ddb 14       		.byte	0x14
 4599 0ddc 1E       		.byte	0x1e
 4600 0ddd 01010000 		.4byte	0x101
 4601 0de1 02       		.byte	0x2
 4602 0de2 07       		.uleb128 0x7
 4603 0de3 C4120000 		.4byte	.LASF306
 4604 0de7 14       		.byte	0x14
 4605 0de8 1F       		.byte	0x1f
 4606 0de9 CE000000 		.4byte	0xce
 4607 0ded 04       		.byte	0x4
 4608 0dee 07       		.uleb128 0x7
 4609 0def 94080000 		.4byte	.LASF307
 4610 0df3 14       		.byte	0x14
 4611 0df4 20       		.byte	0x20
 4612 0df5 CE000000 		.4byte	0xce
 4613 0df9 06       		.byte	0x6
 4614 0dfa 07       		.uleb128 0x7
 4615 0dfb A1100000 		.4byte	.LASF308
 4616 0dff 14       		.byte	0x14
 4617 0e00 21       		.byte	0x21
 4618 0e01 E2020000 		.4byte	0x2e2
 4619 0e05 08       		.byte	0x8
 4620 0e06 06       		.uleb128 0x6
 4621 0e07 6F706100 		.ascii	"opa\000"
 4622 0e0b 14       		.byte	0x14
 4623 0e0c 22       		.byte	0x22
 4624 0e0d F3030000 		.4byte	0x3f3
 4625 0e11 0C       		.byte	0xc
 4626 0e12 09       		.uleb128 0x9
 4627 0e13 79040000 		.4byte	.LASF253
 4628 0e17 14       		.byte	0x14
 4629 0e18 23       		.byte	0x23
 4630 0e19 44040000 		.4byte	0x444
 4631 0e1d 01       		.byte	0x1
 4632 0e1e 02       		.byte	0x2
 4633 0e1f 06       		.byte	0x6
 4634 0e20 0D       		.byte	0xd
 4635 0e21 09       		.uleb128 0x9
 4636 0e22 4B030000 		.4byte	.LASF309
 4637 0e26 14       		.byte	0x14
 4638 0e27 24       		.byte	0x24
 4639 0e28 B8000000 		.4byte	0xb8
 4640 0e2c 01       		.byte	0x1
 4641 0e2d 01       		.byte	0x1
 4642 0e2e 05       		.byte	0x5
 4643 0e2f 0D       		.byte	0xd
ARM GAS  C:\Users\haske\AppData\Local\Temp\ccGWO5DZ.s 			page 110


 4644 0e30 00       		.byte	0
 4645 0e31 02       		.uleb128 0x2
 4646 0e32 BE220000 		.4byte	.LASF310
 4647 0e36 14       		.byte	0x14
 4648 0e37 25       		.byte	0x25
 4649 0e38 C20D0000 		.4byte	0xdc2
 4650 0e3c 0B       		.uleb128 0xb
 4651 0e3d 04       		.byte	0x4
 4652 0e3e F3030000 		.4byte	0x3f3
 4653 0e42 0B       		.uleb128 0xb
 4654 0e43 04       		.byte	0x4
 4655 0e44 29010000 		.4byte	0x129
 4656 0e48 11       		.uleb128 0x11
 4657 0e49 01       		.byte	0x1
 4658 0e4a 42000000 		.4byte	0x42
 4659 0e4e 15       		.byte	0x15
 4660 0e4f 1C       		.byte	0x1c
 4661 0e50 670E0000 		.4byte	0xe67
 4662 0e54 12       		.uleb128 0x12
 4663 0e55 E5160000 		.4byte	.LASF311
 4664 0e59 00       		.byte	0
 4665 0e5a 12       		.uleb128 0x12
 4666 0e5b 80020000 		.4byte	.LASF312
 4667 0e5f 01       		.byte	0x1
 4668 0e60 12       		.uleb128 0x12
 4669 0e61 C91D0000 		.4byte	.LASF313
 4670 0e65 02       		.byte	0x2
 4671 0e66 00       		.byte	0
 4672 0e67 02       		.uleb128 0x2
 4673 0e68 4D0B0000 		.4byte	.LASF314
 4674 0e6c 15       		.byte	0x15
 4675 0e6d 20       		.byte	0x20
 4676 0e6e 480E0000 		.4byte	0xe48
 4677 0e72 05       		.uleb128 0x5
 4678 0e73 10       		.byte	0x10
 4679 0e74 16       		.byte	0x16
 4680 0e75 33       		.byte	0x33
 4681 0e76 AB0E0000 		.4byte	0xeab
 4682 0e7a 07       		.uleb128 0x7
 4683 0e7b 21190000 		.4byte	.LASF315
 4684 0e7f 16       		.byte	0x16
 4685 0e80 34       		.byte	0x34
 4686 0e81 AB0E0000 		.4byte	0xeab
 4687 0e85 00       		.byte	0
 4688 0e86 07       		.uleb128 0x7
 4689 0e87 2D140000 		.4byte	.LASF316
 4690 0e8b 16       		.byte	0x16
 4691 0e8c 35       		.byte	0x35
 4692 0e8d B60E0000 		.4byte	0xeb6
 4693 0e91 04       		.byte	0x4
 4694 0e92 06       		.uleb128 0x6
 4695 0e93 62756600 		.ascii	"buf\000"
 4696 0e97 16       		.byte	0x16
 4697 0e98 36       		.byte	0x36
 4698 0e99 E9020000 		.4byte	0x2e9
 4699 0e9d 08       		.byte	0x8
 4700 0e9e 07       		.uleb128 0x7
ARM GAS  C:\Users\haske\AppData\Local\Temp\ccGWO5DZ.s 			page 111


 4701 0e9f 1F240000 		.4byte	.LASF317
 4702 0ea3 16       		.byte	0x16
 4703 0ea4 37       		.byte	0x37
 4704 0ea5 AA020000 		.4byte	0x2aa
 4705 0ea9 0C       		.byte	0xc
 4706 0eaa 00       		.byte	0
 4707 0eab 0B       		.uleb128 0xb
 4708 0eac 04       		.byte	0x4
 4709 0ead B10E0000 		.4byte	0xeb1
 4710 0eb1 0C       		.uleb128 0xc
 4711 0eb2 69010000 		.4byte	0x169
 4712 0eb6 0B       		.uleb128 0xb
 4713 0eb7 04       		.byte	0x4
 4714 0eb8 69010000 		.4byte	0x169
 4715 0ebc 0A       		.uleb128 0xa
 4716 0ebd E0190000 		.4byte	.LASF318
 4717 0ec1 28       		.byte	0x28
 4718 0ec2 16       		.byte	0x16
 4719 0ec3 2D       		.byte	0x2d
 4720 0ec4 110F0000 		.4byte	0xf11
 4721 0ec8 07       		.uleb128 0x7
 4722 0ec9 98190000 		.4byte	.LASF319
 4723 0ecd 16       		.byte	0x16
 4724 0ece 2E       		.byte	0x2e
 4725 0ecf 69010000 		.4byte	0x169
 4726 0ed3 00       		.byte	0
 4727 0ed4 07       		.uleb128 0x7
 4728 0ed5 C2090000 		.4byte	.LASF320
 4729 0ed9 16       		.byte	0x16
 4730 0eda 2F       		.byte	0x2f
 4731 0edb 69010000 		.4byte	0x169
 4732 0edf 08       		.byte	0x8
 4733 0ee0 07       		.uleb128 0x7
 4734 0ee1 221A0000 		.4byte	.LASF321
 4735 0ee5 16       		.byte	0x16
 4736 0ee6 30       		.byte	0x30
 4737 0ee7 01010000 		.4byte	0x101
 4738 0eeb 10       		.byte	0x10
 4739 0eec 07       		.uleb128 0x7
 4740 0eed D91E0000 		.4byte	.LASF322
 4741 0ef1 16       		.byte	0x16
 4742 0ef2 31       		.byte	0x31
 4743 0ef3 01010000 		.4byte	0x101
 4744 0ef7 12       		.byte	0x12
 4745 0ef8 06       		.uleb128 0x6
 4746 0ef9 62756600 		.ascii	"buf\000"
 4747 0efd 16       		.byte	0x16
 4748 0efe 32       		.byte	0x32
 4749 0eff E9020000 		.4byte	0x2e9
 4750 0f03 14       		.byte	0x14
 4751 0f04 07       		.uleb128 0x7
 4752 0f05 6C0A0000 		.4byte	.LASF323
 4753 0f09 16       		.byte	0x16
 4754 0f0a 38       		.byte	0x38
 4755 0f0b 720E0000 		.4byte	0xe72
 4756 0f0f 18       		.byte	0x18
 4757 0f10 00       		.byte	0
ARM GAS  C:\Users\haske\AppData\Local\Temp\ccGWO5DZ.s 			page 112


 4758 0f11 02       		.uleb128 0x2
 4759 0f12 02220000 		.4byte	.LASF324
 4760 0f16 16       		.byte	0x16
 4761 0f17 39       		.byte	0x39
 4762 0f18 BC0E0000 		.4byte	0xebc
 4763 0f1c 0A       		.uleb128 0xa
 4764 0f1d 70030000 		.4byte	.LASF325
 4765 0f21 54       		.byte	0x54
 4766 0f22 16       		.byte	0x16
 4767 0f23 3B       		.byte	0x3b
 4768 0f24 25100000 		.4byte	0x1025
 4769 0f28 06       		.uleb128 0x6
 4770 0f29 62756600 		.ascii	"buf\000"
 4771 0f2d 16       		.byte	0x16
 4772 0f2e 3F       		.byte	0x3f
 4773 0f2f E9020000 		.4byte	0x2e9
 4774 0f33 00       		.byte	0
 4775 0f34 07       		.uleb128 0x7
 4776 0f35 2D140000 		.4byte	.LASF316
 4777 0f39 16       		.byte	0x16
 4778 0f3a 44       		.byte	0x44
 4779 0f3b B60E0000 		.4byte	0xeb6
 4780 0f3f 04       		.byte	0x4
 4781 0f40 07       		.uleb128 0x7
 4782 0f41 21190000 		.4byte	.LASF315
 4783 0f45 16       		.byte	0x16
 4784 0f46 49       		.byte	0x49
 4785 0f47 AB0E0000 		.4byte	0xeab
 4786 0f4b 08       		.byte	0x8
 4787 0f4c 07       		.uleb128 0x7
 4788 0f4d 33030000 		.4byte	.LASF326
 4789 0f51 16       		.byte	0x16
 4790 0f52 4B       		.byte	0x4b
 4791 0f53 36100000 		.4byte	0x1036
 4792 0f57 0C       		.byte	0xc
 4793 0f58 07       		.uleb128 0x7
 4794 0f59 12030000 		.4byte	.LASF327
 4795 0f5d 16       		.byte	0x16
 4796 0f5e 4D       		.byte	0x4d
 4797 0f5f 5C100000 		.4byte	0x105c
 4798 0f63 10       		.byte	0x10
 4799 0f64 07       		.uleb128 0x7
 4800 0f65 A3130000 		.4byte	.LASF328
 4801 0f69 16       		.byte	0x16
 4802 0f6a 4F       		.byte	0x4f
 4803 0f6b 9C100000 		.4byte	0x109c
 4804 0f6f 14       		.byte	0x14
 4805 0f70 07       		.uleb128 0x7
 4806 0f71 F2140000 		.4byte	.LASF329
 4807 0f75 16       		.byte	0x16
 4808 0f76 52       		.byte	0x52
 4809 0f77 CC100000 		.4byte	0x10cc
 4810 0f7b 18       		.byte	0x18
 4811 0f7c 07       		.uleb128 0x7
 4812 0f7d 0B260000 		.4byte	.LASF330
 4813 0f81 16       		.byte	0x16
 4814 0f82 55       		.byte	0x55
ARM GAS  C:\Users\haske\AppData\Local\Temp\ccGWO5DZ.s 			page 113


 4815 0f83 F0100000 		.4byte	0x10f0
 4816 0f87 1C       		.byte	0x1c
 4817 0f88 07       		.uleb128 0x7
 4818 0f89 FE1F0000 		.4byte	.LASF331
 4819 0f8d 16       		.byte	0x16
 4820 0f8e 58       		.byte	0x58
 4821 0f8f 1B110000 		.4byte	0x111b
 4822 0f93 20       		.byte	0x20
 4823 0f94 07       		.uleb128 0x7
 4824 0f95 DD070000 		.4byte	.LASF332
 4825 0f99 16       		.byte	0x16
 4826 0f9a 5C       		.byte	0x5c
 4827 0f9b 46110000 		.4byte	0x1146
 4828 0f9f 24       		.byte	0x24
 4829 0fa0 07       		.uleb128 0x7
 4830 0fa1 67260000 		.4byte	.LASF333
 4831 0fa5 16       		.byte	0x16
 4832 0fa6 60       		.byte	0x60
 4833 0fa7 66110000 		.4byte	0x1166
 4834 0fab 28       		.byte	0x28
 4835 0fac 07       		.uleb128 0x7
 4836 0fad E80B0000 		.4byte	.LASF334
 4837 0fb1 16       		.byte	0x16
 4838 0fb2 71       		.byte	0x71
 4839 0fb3 A4110000 		.4byte	0x11a4
 4840 0fb7 2C       		.byte	0x2c
 4841 0fb8 07       		.uleb128 0x7
 4842 0fb9 EA000000 		.4byte	.LASF335
 4843 0fbd 16       		.byte	0x16
 4844 0fbe 78       		.byte	0x78
 4845 0fbf 5C100000 		.4byte	0x105c
 4846 0fc3 30       		.byte	0x30
 4847 0fc4 07       		.uleb128 0x7
 4848 0fc5 881D0000 		.4byte	.LASF336
 4849 0fc9 16       		.byte	0x16
 4850 0fca 7D       		.byte	0x7d
 4851 0fcb 36100000 		.4byte	0x1036
 4852 0fcf 34       		.byte	0x34
 4853 0fd0 07       		.uleb128 0x7
 4854 0fd1 5A070000 		.4byte	.LASF337
 4855 0fd5 16       		.byte	0x16
 4856 0fd6 8D       		.byte	0x8d
 4857 0fd7 D3110000 		.4byte	0x11d3
 4858 0fdb 38       		.byte	0x38
 4859 0fdc 07       		.uleb128 0x7
 4860 0fdd 3D0F0000 		.4byte	.LASF338
 4861 0fe1 16       		.byte	0x16
 4862 0fe2 99       		.byte	0x99
 4863 0fe3 F8110000 		.4byte	0x11f8
 4864 0fe7 3C       		.byte	0x3c
 4865 0fe8 07       		.uleb128 0x7
 4866 0fe9 75210000 		.4byte	.LASF339
 4867 0fed 16       		.byte	0x16
 4868 0fee A3       		.byte	0xa3
 4869 0fef 13120000 		.4byte	0x1213
 4870 0ff3 40       		.byte	0x40
 4871 0ff4 07       		.uleb128 0x7
ARM GAS  C:\Users\haske\AppData\Local\Temp\ccGWO5DZ.s 			page 114


 4872 0ff5 3D220000 		.4byte	.LASF340
 4873 0ff9 16       		.byte	0x16
 4874 0ffa AC       		.byte	0xac
 4875 0ffb 2E120000 		.4byte	0x122e
 4876 0fff 44       		.byte	0x44
 4877 1000 07       		.uleb128 0x7
 4878 1001 F7120000 		.4byte	.LASF341
 4879 1005 16       		.byte	0x16
 4880 1006 B5       		.byte	0xb5
 4881 1007 4A120000 		.4byte	0x124a
 4882 100b 48       		.byte	0x48
 4883 100c 07       		.uleb128 0x7
 4884 100d CB0B0000 		.4byte	.LASF342
 4885 1011 16       		.byte	0x16
 4886 1012 BA       		.byte	0xba
 4887 1013 EF000000 		.4byte	0xef
 4888 1017 4C       		.byte	0x4c
 4889 1018 07       		.uleb128 0x7
 4890 1019 E1270000 		.4byte	.LASF42
 4891 101d 16       		.byte	0x16
 4892 101e BD       		.byte	0xbd
 4893 101f E9020000 		.4byte	0x2e9
 4894 1023 50       		.byte	0x50
 4895 1024 00       		.byte	0
 4896 1025 1F       		.uleb128 0x1f
 4897 1026 30100000 		.4byte	0x1030
 4898 102a 0E       		.uleb128 0xe
 4899 102b 30100000 		.4byte	0x1030
 4900 102f 00       		.byte	0
 4901 1030 0B       		.uleb128 0xb
 4902 1031 04       		.byte	0x4
 4903 1032 1C0F0000 		.4byte	0xf1c
 4904 1036 0B       		.uleb128 0xb
 4905 1037 04       		.byte	0x4
 4906 1038 25100000 		.4byte	0x1025
 4907 103c 1F       		.uleb128 0x1f
 4908 103d 51100000 		.4byte	0x1051
 4909 1041 0E       		.uleb128 0xe
 4910 1042 30100000 		.4byte	0x1030
 4911 1046 0E       		.uleb128 0xe
 4912 1047 51100000 		.4byte	0x1051
 4913 104b 0E       		.uleb128 0xe
 4914 104c AB0E0000 		.4byte	0xeab
 4915 1050 00       		.byte	0
 4916 1051 0B       		.uleb128 0xb
 4917 1052 04       		.byte	0x4
 4918 1053 57100000 		.4byte	0x1057
 4919 1057 0C       		.uleb128 0xc
 4920 1058 C00B0000 		.4byte	0xbc0
 4921 105c 0B       		.uleb128 0xb
 4922 105d 04       		.byte	0x4
 4923 105e 3C100000 		.4byte	0x103c
 4924 1062 1F       		.uleb128 0x1f
 4925 1063 86100000 		.4byte	0x1086
 4926 1067 0E       		.uleb128 0xe
 4927 1068 30100000 		.4byte	0x1030
 4928 106c 0E       		.uleb128 0xe
ARM GAS  C:\Users\haske\AppData\Local\Temp\ccGWO5DZ.s 			page 115


 4929 106d 86100000 		.4byte	0x1086
 4930 1071 0E       		.uleb128 0xe
 4931 1072 91100000 		.4byte	0x1091
 4932 1076 0E       		.uleb128 0xe
 4933 1077 CE000000 		.4byte	0xce
 4934 107b 0E       		.uleb128 0xe
 4935 107c CE000000 		.4byte	0xce
 4936 1080 0E       		.uleb128 0xe
 4937 1081 CE000000 		.4byte	0xce
 4938 1085 00       		.byte	0
 4939 1086 0B       		.uleb128 0xb
 4940 1087 04       		.byte	0x4
 4941 1088 8C100000 		.4byte	0x108c
 4942 108c 0C       		.uleb128 0xc
 4943 108d 310E0000 		.4byte	0xe31
 4944 1091 0B       		.uleb128 0xb
 4945 1092 04       		.byte	0x4
 4946 1093 97100000 		.4byte	0x1097
 4947 1097 0C       		.uleb128 0xc
 4948 1098 29010000 		.4byte	0x129
 4949 109c 0B       		.uleb128 0xb
 4950 109d 04       		.byte	0x4
 4951 109e 62100000 		.4byte	0x1062
 4952 10a2 1F       		.uleb128 0x1f
 4953 10a3 C1100000 		.4byte	0x10c1
 4954 10a7 0E       		.uleb128 0xe
 4955 10a8 30100000 		.4byte	0x1030
 4956 10ac 0E       		.uleb128 0xe
 4957 10ad C1100000 		.4byte	0x10c1
 4958 10b1 0E       		.uleb128 0xe
 4959 10b2 AB0E0000 		.4byte	0xeab
 4960 10b6 0E       		.uleb128 0xe
 4961 10b7 D1020000 		.4byte	0x2d1
 4962 10bb 0E       		.uleb128 0xe
 4963 10bc 11090000 		.4byte	0x911
 4964 10c0 00       		.byte	0
 4965 10c1 0B       		.uleb128 0xb
 4966 10c2 04       		.byte	0x4
 4967 10c3 C7100000 		.4byte	0x10c7
 4968 10c7 0C       		.uleb128 0xc
 4969 10c8 2B0D0000 		.4byte	0xd2b
 4970 10cc 0B       		.uleb128 0xb
 4971 10cd 04       		.byte	0x4
 4972 10ce A2100000 		.4byte	0x10a2
 4973 10d2 0D       		.uleb128 0xd
 4974 10d3 0F030000 		.4byte	0x30f
 4975 10d7 F0100000 		.4byte	0x10f0
 4976 10db 0E       		.uleb128 0xe
 4977 10dc 30100000 		.4byte	0x1030
 4978 10e0 0E       		.uleb128 0xe
 4979 10e1 C1100000 		.4byte	0x10c1
 4980 10e5 0E       		.uleb128 0xe
 4981 10e6 AB0E0000 		.4byte	0xeab
 4982 10ea 0E       		.uleb128 0xe
 4983 10eb E2020000 		.4byte	0x2e2
 4984 10ef 00       		.byte	0
 4985 10f0 0B       		.uleb128 0xb
ARM GAS  C:\Users\haske\AppData\Local\Temp\ccGWO5DZ.s 			page 116


 4986 10f1 04       		.byte	0x4
 4987 10f2 D2100000 		.4byte	0x10d2
 4988 10f6 1F       		.uleb128 0x1f
 4989 10f7 10110000 		.4byte	0x1110
 4990 10fb 0E       		.uleb128 0xe
 4991 10fc 30100000 		.4byte	0x1030
 4992 1100 0E       		.uleb128 0xe
 4993 1101 10110000 		.4byte	0x1110
 4994 1105 0E       		.uleb128 0xe
 4995 1106 91100000 		.4byte	0x1091
 4996 110a 0E       		.uleb128 0xe
 4997 110b E4000000 		.4byte	0xe4
 4998 110f 00       		.byte	0
 4999 1110 0B       		.uleb128 0xb
 5000 1111 04       		.byte	0x4
 5001 1112 16110000 		.4byte	0x1116
 5002 1116 0C       		.uleb128 0xc
 5003 1117 A50C0000 		.4byte	0xca5
 5004 111b 0B       		.uleb128 0xb
 5005 111c 04       		.byte	0x4
 5006 111d F6100000 		.4byte	0x10f6
 5007 1121 1F       		.uleb128 0x1f
 5008 1122 3B110000 		.4byte	0x113b
 5009 1126 0E       		.uleb128 0xe
 5010 1127 30100000 		.4byte	0x1030
 5011 112b 0E       		.uleb128 0xe
 5012 112c 3B110000 		.4byte	0x113b
 5013 1130 0E       		.uleb128 0xe
 5014 1131 91100000 		.4byte	0x1091
 5015 1135 0E       		.uleb128 0xe
 5016 1136 91100000 		.4byte	0x1091
 5017 113a 00       		.byte	0
 5018 113b 0B       		.uleb128 0xb
 5019 113c 04       		.byte	0x4
 5020 113d 41110000 		.4byte	0x1141
 5021 1141 0C       		.uleb128 0xc
 5022 1142 B70D0000 		.4byte	0xdb7
 5023 1146 0B       		.uleb128 0xb
 5024 1147 04       		.byte	0x4
 5025 1148 21110000 		.4byte	0x1121
 5026 114c 1F       		.uleb128 0x1f
 5027 114d 66110000 		.4byte	0x1166
 5028 1151 0E       		.uleb128 0xe
 5029 1152 30100000 		.4byte	0x1030
 5030 1156 0E       		.uleb128 0xe
 5031 1157 51100000 		.4byte	0x1051
 5032 115b 0E       		.uleb128 0xe
 5033 115c 91100000 		.4byte	0x1091
 5034 1160 0E       		.uleb128 0xe
 5035 1161 CE000000 		.4byte	0xce
 5036 1165 00       		.byte	0
 5037 1166 0B       		.uleb128 0xb
 5038 1167 04       		.byte	0x4
 5039 1168 4C110000 		.4byte	0x114c
 5040 116c 1F       		.uleb128 0x1f
 5041 116d A4110000 		.4byte	0x11a4
 5042 1171 0E       		.uleb128 0xe
ARM GAS  C:\Users\haske\AppData\Local\Temp\ccGWO5DZ.s 			page 117


 5043 1172 30100000 		.4byte	0x1030
 5044 1176 0E       		.uleb128 0xe
 5045 1177 AB0E0000 		.4byte	0xeab
 5046 117b 0E       		.uleb128 0xe
 5047 117c E2020000 		.4byte	0x2e2
 5048 1180 0E       		.uleb128 0xe
 5049 1181 01010000 		.4byte	0x101
 5050 1185 0E       		.uleb128 0xe
 5051 1186 01010000 		.4byte	0x101
 5052 118a 0E       		.uleb128 0xe
 5053 118b 01010000 		.4byte	0x101
 5054 118f 0E       		.uleb128 0xe
 5055 1190 C1100000 		.4byte	0x10c1
 5056 1194 0E       		.uleb128 0xe
 5057 1195 11090000 		.4byte	0x911
 5058 1199 0E       		.uleb128 0xe
 5059 119a 730A0000 		.4byte	0xa73
 5060 119e 0E       		.uleb128 0xe
 5061 119f 3C0E0000 		.4byte	0xe3c
 5062 11a3 00       		.byte	0
 5063 11a4 0B       		.uleb128 0xb
 5064 11a5 04       		.byte	0x4
 5065 11a6 6C110000 		.4byte	0x116c
 5066 11aa 1F       		.uleb128 0x1f
 5067 11ab D3110000 		.4byte	0x11d3
 5068 11af 0E       		.uleb128 0xe
 5069 11b0 30100000 		.4byte	0x1030
 5070 11b4 0E       		.uleb128 0xe
 5071 11b5 E9020000 		.4byte	0x2e9
 5072 11b9 0E       		.uleb128 0xe
 5073 11ba 01010000 		.4byte	0x101
 5074 11be 0E       		.uleb128 0xe
 5075 11bf AB0E0000 		.4byte	0xeab
 5076 11c3 0E       		.uleb128 0xe
 5077 11c4 E9020000 		.4byte	0x2e9
 5078 11c8 0E       		.uleb128 0xe
 5079 11c9 01010000 		.4byte	0x101
 5080 11cd 0E       		.uleb128 0xe
 5081 11ce AB0E0000 		.4byte	0xeab
 5082 11d2 00       		.byte	0
 5083 11d3 0B       		.uleb128 0xb
 5084 11d4 04       		.byte	0x4
 5085 11d5 AA110000 		.4byte	0x11aa
 5086 11d9 0D       		.uleb128 0xd
 5087 11da F2110000 		.4byte	0x11f2
 5088 11de F2110000 		.4byte	0x11f2
 5089 11e2 0E       		.uleb128 0xe
 5090 11e3 30100000 		.4byte	0x1030
 5091 11e7 0E       		.uleb128 0xe
 5092 11e8 F2110000 		.4byte	0x11f2
 5093 11ec 0E       		.uleb128 0xe
 5094 11ed 670E0000 		.4byte	0xe67
 5095 11f1 00       		.byte	0
 5096 11f2 0B       		.uleb128 0xb
 5097 11f3 04       		.byte	0x4
 5098 11f4 BC0E0000 		.4byte	0xebc
 5099 11f8 0B       		.uleb128 0xb
ARM GAS  C:\Users\haske\AppData\Local\Temp\ccGWO5DZ.s 			page 118


 5100 11f9 04       		.byte	0x4
 5101 11fa D9110000 		.4byte	0x11d9
 5102 11fe 1F       		.uleb128 0x1f
 5103 11ff 13120000 		.4byte	0x1213
 5104 1203 0E       		.uleb128 0xe
 5105 1204 30100000 		.4byte	0x1030
 5106 1208 0E       		.uleb128 0xe
 5107 1209 F2110000 		.4byte	0x11f2
 5108 120d 0E       		.uleb128 0xe
 5109 120e 670E0000 		.4byte	0xe67
 5110 1212 00       		.byte	0
 5111 1213 0B       		.uleb128 0xb
 5112 1214 04       		.byte	0x4
 5113 1215 FE110000 		.4byte	0x11fe
 5114 1219 1F       		.uleb128 0x1f
 5115 121a 2E120000 		.4byte	0x122e
 5116 121e 0E       		.uleb128 0xe
 5117 121f 30100000 		.4byte	0x1030
 5118 1223 0E       		.uleb128 0xe
 5119 1224 F2110000 		.4byte	0x11f2
 5120 1228 0E       		.uleb128 0xe
 5121 1229 C1100000 		.4byte	0x10c1
 5122 122d 00       		.byte	0
 5123 122e 0B       		.uleb128 0xb
 5124 122f 04       		.byte	0x4
 5125 1230 19120000 		.4byte	0x1219
 5126 1234 1F       		.uleb128 0x1f
 5127 1235 44120000 		.4byte	0x1244
 5128 1239 0E       		.uleb128 0xe
 5129 123a 30100000 		.4byte	0x1030
 5130 123e 0E       		.uleb128 0xe
 5131 123f 44120000 		.4byte	0x1244
 5132 1243 00       		.byte	0
 5133 1244 0B       		.uleb128 0xb
 5134 1245 04       		.byte	0x4
 5135 1246 110F0000 		.4byte	0xf11
 5136 124a 0B       		.uleb128 0xb
 5137 124b 04       		.byte	0x4
 5138 124c 34120000 		.4byte	0x1234
 5139 1250 02       		.uleb128 0x2
 5140 1251 AD0C0000 		.4byte	.LASF343
 5141 1255 16       		.byte	0x16
 5142 1256 C0       		.byte	0xc0
 5143 1257 1C0F0000 		.4byte	0xf1c
 5144 125b 02       		.uleb128 0x2
 5145 125c 45000000 		.4byte	.LASF344
 5146 1260 17       		.byte	0x17
 5147 1261 1D       		.byte	0x1d
 5148 1262 B8000000 		.4byte	0xb8
 5149 1266 05       		.uleb128 0x5
 5150 1267 0C       		.byte	0xc
 5151 1268 17       		.byte	0x17
 5152 1269 20       		.byte	0x20
 5153 126a 93120000 		.4byte	0x1293
 5154 126e 07       		.uleb128 0x7
 5155 126f C9290000 		.4byte	.LASF345
 5156 1273 17       		.byte	0x17
ARM GAS  C:\Users\haske\AppData\Local\Temp\ccGWO5DZ.s 			page 119


 5157 1274 21       		.byte	0x21
 5158 1275 E4000000 		.4byte	0xe4
 5159 1279 00       		.byte	0
 5160 127a 07       		.uleb128 0x7
 5161 127b E9060000 		.4byte	.LASF346
 5162 127f 17       		.byte	0x17
 5163 1280 22       		.byte	0x22
 5164 1281 93120000 		.4byte	0x1293
 5165 1285 04       		.byte	0x4
 5166 1286 07       		.uleb128 0x7
 5167 1287 BE000000 		.4byte	.LASF347
 5168 128b 17       		.byte	0x17
 5169 128c 23       		.byte	0x23
 5170 128d 93120000 		.4byte	0x1293
 5171 1291 08       		.byte	0x8
 5172 1292 00       		.byte	0
 5173 1293 0B       		.uleb128 0xb
 5174 1294 04       		.byte	0x4
 5175 1295 5B120000 		.4byte	0x125b
 5176 1299 02       		.uleb128 0x2
 5177 129a 32230000 		.4byte	.LASF348
 5178 129e 17       		.byte	0x17
 5179 129f 24       		.byte	0x24
 5180 12a0 66120000 		.4byte	0x1266
 5181 12a4 02       		.uleb128 0x2
 5182 12a5 03150000 		.4byte	.LASF349
 5183 12a9 18       		.byte	0x18
 5184 12aa 27       		.byte	0x27
 5185 12ab AF120000 		.4byte	0x12af
 5186 12af 0B       		.uleb128 0xb
 5187 12b0 04       		.byte	0x4
 5188 12b1 B5120000 		.4byte	0x12b5
 5189 12b5 1F       		.uleb128 0x1f
 5190 12b6 C0120000 		.4byte	0x12c0
 5191 12ba 0E       		.uleb128 0xe
 5192 12bb C0120000 		.4byte	0x12c0
 5193 12bf 00       		.byte	0
 5194 12c0 0B       		.uleb128 0xb
 5195 12c1 04       		.byte	0x4
 5196 12c2 C6120000 		.4byte	0x12c6
 5197 12c6 0A       		.uleb128 0xa
 5198 12c7 1C030000 		.4byte	.LASF350
 5199 12cb 18       		.byte	0x18
 5200 12cc 18       		.byte	0x18
 5201 12cd 2C       		.byte	0x2c
 5202 12ce 1E130000 		.4byte	0x131e
 5203 12d2 07       		.uleb128 0x7
 5204 12d3 53210000 		.4byte	.LASF351
 5205 12d7 18       		.byte	0x18
 5206 12d8 2D       		.byte	0x2d
 5207 12d9 E4000000 		.4byte	0xe4
 5208 12dd 00       		.byte	0
 5209 12de 07       		.uleb128 0x7
 5210 12df B71F0000 		.4byte	.LASF352
 5211 12e3 18       		.byte	0x18
 5212 12e4 2E       		.byte	0x2e
 5213 12e5 E4000000 		.4byte	0xe4
ARM GAS  C:\Users\haske\AppData\Local\Temp\ccGWO5DZ.s 			page 120


 5214 12e9 04       		.byte	0x4
 5215 12ea 07       		.uleb128 0x7
 5216 12eb FC1D0000 		.4byte	.LASF353
 5217 12ef 18       		.byte	0x18
 5218 12f0 2F       		.byte	0x2f
 5219 12f1 A4120000 		.4byte	0x12a4
 5220 12f5 08       		.byte	0x8
 5221 12f6 07       		.uleb128 0x7
 5222 12f7 E1270000 		.4byte	.LASF42
 5223 12fb 18       		.byte	0x18
 5224 12fc 30       		.byte	0x30
 5225 12fd E9020000 		.4byte	0x2e9
 5226 1301 0C       		.byte	0xc
 5227 1302 07       		.uleb128 0x7
 5228 1303 E5020000 		.4byte	.LASF354
 5229 1307 18       		.byte	0x18
 5230 1308 31       		.byte	0x31
 5231 1309 D9000000 		.4byte	0xd9
 5232 130d 10       		.byte	0x10
 5233 130e 09       		.uleb128 0x9
 5234 130f 81150000 		.4byte	.LASF355
 5235 1313 18       		.byte	0x18
 5236 1314 32       		.byte	0x32
 5237 1315 E4000000 		.4byte	0xe4
 5238 1319 04       		.byte	0x4
 5239 131a 01       		.byte	0x1
 5240 131b 1F       		.byte	0x1f
 5241 131c 14       		.byte	0x14
 5242 131d 00       		.byte	0
 5243 131e 02       		.uleb128 0x2
 5244 131f 1E0E0000 		.4byte	.LASF356
 5245 1323 18       		.byte	0x18
 5246 1324 33       		.byte	0x33
 5247 1325 C6120000 		.4byte	0x12c6
 5248 1329 0A       		.uleb128 0xa
 5249 132a FB130000 		.4byte	.LASF357
 5250 132e 1C       		.byte	0x1c
 5251 132f 19       		.byte	0x19
 5252 1330 32       		.byte	0x32
 5253 1331 9C130000 		.4byte	0x139c
 5254 1335 07       		.uleb128 0x7
 5255 1336 B9160000 		.4byte	.LASF358
 5256 133a 19       		.byte	0x19
 5257 133b 33       		.byte	0x33
 5258 133c E9020000 		.4byte	0x2e9
 5259 1340 00       		.byte	0
 5260 1341 07       		.uleb128 0x7
 5261 1342 BE160000 		.4byte	.LASF359
 5262 1346 19       		.byte	0x19
 5263 1347 34       		.byte	0x34
 5264 1348 E9020000 		.4byte	0x2e9
 5265 134c 04       		.byte	0x4
 5266 134d 07       		.uleb128 0x7
 5267 134e FE1C0000 		.4byte	.LASF360
 5268 1352 19       		.byte	0x19
 5269 1353 37       		.byte	0x37
 5270 1354 E9020000 		.4byte	0x2e9
ARM GAS  C:\Users\haske\AppData\Local\Temp\ccGWO5DZ.s 			page 121


 5271 1358 08       		.byte	0x8
 5272 1359 07       		.uleb128 0x7
 5273 135a D41E0000 		.4byte	.LASF361
 5274 135e 19       		.byte	0x19
 5275 135f 38       		.byte	0x38
 5276 1360 E4000000 		.4byte	0xe4
 5277 1364 0C       		.byte	0xc
 5278 1365 07       		.uleb128 0x7
 5279 1366 D10D0000 		.4byte	.LASF362
 5280 136a 19       		.byte	0x19
 5281 136b 3A       		.byte	0x3a
 5282 136c 9C130000 		.4byte	0x139c
 5283 1370 10       		.byte	0x10
 5284 1371 07       		.uleb128 0x7
 5285 1372 380A0000 		.4byte	.LASF363
 5286 1376 19       		.byte	0x19
 5287 1377 3C       		.byte	0x3c
 5288 1378 9C130000 		.4byte	0x139c
 5289 137c 14       		.byte	0x14
 5290 137d 09       		.uleb128 0x9
 5291 137e 3A070000 		.4byte	.LASF364
 5292 1382 19       		.byte	0x19
 5293 1383 3D       		.byte	0x3d
 5294 1384 A1130000 		.4byte	0x13a1
 5295 1388 04       		.byte	0x4
 5296 1389 01       		.byte	0x1
 5297 138a 1F       		.byte	0x1f
 5298 138b 18       		.byte	0x18
 5299 138c 09       		.uleb128 0x9
 5300 138d 10130000 		.4byte	.LASF365
 5301 1391 19       		.byte	0x19
 5302 1392 3E       		.byte	0x3e
 5303 1393 A1130000 		.4byte	0x13a1
 5304 1397 04       		.byte	0x4
 5305 1398 01       		.byte	0x1
 5306 1399 1E       		.byte	0x1e
 5307 139a 18       		.byte	0x18
 5308 139b 00       		.byte	0
 5309 139c 20       		.uleb128 0x20
 5310 139d 9F000000 		.4byte	0x9f
 5311 13a1 20       		.uleb128 0x20
 5312 13a2 E4000000 		.4byte	0xe4
 5313 13a6 02       		.uleb128 0x2
 5314 13a7 52000000 		.4byte	.LASF366
 5315 13ab 19       		.byte	0x19
 5316 13ac 3F       		.byte	0x3f
 5317 13ad 29130000 		.4byte	0x1329
 5318 13b1 0A       		.uleb128 0xa
 5319 13b2 D6280000 		.4byte	.LASF367
 5320 13b6 50       		.byte	0x50
 5321 13b7 19       		.byte	0x19
 5322 13b8 4D       		.byte	0x4d
 5323 13b9 2F150000 		.4byte	0x152f
 5324 13bd 07       		.uleb128 0x7
 5325 13be E7070000 		.4byte	.LASF368
 5326 13c2 19       		.byte	0x19
 5327 13c3 4F       		.byte	0x4f
ARM GAS  C:\Users\haske\AppData\Local\Temp\ccGWO5DZ.s 			page 122


 5328 13c4 01010000 		.4byte	0x101
 5329 13c8 00       		.byte	0
 5330 13c9 07       		.uleb128 0x7
 5331 13ca AD040000 		.4byte	.LASF369
 5332 13ce 19       		.byte	0x19
 5333 13cf 50       		.byte	0x50
 5334 13d0 01010000 		.4byte	0x101
 5335 13d4 02       		.byte	0x2
 5336 13d5 07       		.uleb128 0x7
 5337 13d6 B41E0000 		.4byte	.LASF370
 5338 13da 19       		.byte	0x19
 5339 13db 53       		.byte	0x53
 5340 13dc 01010000 		.4byte	0x101
 5341 13e0 04       		.byte	0x4
 5342 13e1 07       		.uleb128 0x7
 5343 13e2 5B0A0000 		.4byte	.LASF371
 5344 13e6 19       		.byte	0x19
 5345 13e7 55       		.byte	0x55
 5346 13e8 01010000 		.4byte	0x101
 5347 13ec 06       		.byte	0x6
 5348 13ed 07       		.uleb128 0x7
 5349 13ee 29130000 		.4byte	.LASF372
 5350 13f2 19       		.byte	0x19
 5351 13f3 57       		.byte	0x57
 5352 13f4 01010000 		.4byte	0x101
 5353 13f8 08       		.byte	0x8
 5354 13f9 07       		.uleb128 0x7
 5355 13fa 32130000 		.4byte	.LASF373
 5356 13fe 19       		.byte	0x19
 5357 13ff 58       		.byte	0x58
 5358 1400 01010000 		.4byte	0x101
 5359 1404 0A       		.byte	0xa
 5360 1405 07       		.uleb128 0x7
 5361 1406 4A210000 		.4byte	.LASF374
 5362 140a 19       		.byte	0x19
 5363 140b 5C       		.byte	0x5c
 5364 140c 2F150000 		.4byte	0x152f
 5365 1410 0C       		.byte	0xc
 5366 1411 09       		.uleb128 0x9
 5367 1412 F70B0000 		.4byte	.LASF375
 5368 1416 19       		.byte	0x19
 5369 1417 5E       		.byte	0x5e
 5370 1418 E4000000 		.4byte	0xe4
 5371 141c 04       		.byte	0x4
 5372 141d 01       		.byte	0x1
 5373 141e 1F       		.byte	0x1f
 5374 141f 10       		.byte	0x10
 5375 1420 09       		.uleb128 0x9
 5376 1421 8A100000 		.4byte	.LASF376
 5377 1425 19       		.byte	0x19
 5378 1426 5F       		.byte	0x5f
 5379 1427 E4000000 		.4byte	0xe4
 5380 142b 04       		.byte	0x4
 5381 142c 01       		.byte	0x1
 5382 142d 1E       		.byte	0x1e
 5383 142e 10       		.byte	0x10
 5384 142f 09       		.uleb128 0x9
ARM GAS  C:\Users\haske\AppData\Local\Temp\ccGWO5DZ.s 			page 123


 5385 1430 F00E0000 		.4byte	.LASF377
 5386 1434 19       		.byte	0x19
 5387 1435 60       		.byte	0x60
 5388 1436 E4000000 		.4byte	0xe4
 5389 143a 04       		.byte	0x4
 5390 143b 01       		.byte	0x1
 5391 143c 1D       		.byte	0x1d
 5392 143d 10       		.byte	0x10
 5393 143e 09       		.uleb128 0x9
 5394 143f 4B0C0000 		.4byte	.LASF378
 5395 1443 19       		.byte	0x19
 5396 1444 61       		.byte	0x61
 5397 1445 E4000000 		.4byte	0xe4
 5398 1449 04       		.byte	0x4
 5399 144a 01       		.byte	0x1
 5400 144b 1C       		.byte	0x1c
 5401 144c 10       		.byte	0x10
 5402 144d 09       		.uleb128 0x9
 5403 144e C8050000 		.4byte	.LASF379
 5404 1452 19       		.byte	0x19
 5405 1453 62       		.byte	0x62
 5406 1454 E4000000 		.4byte	0xe4
 5407 1458 04       		.byte	0x4
 5408 1459 02       		.byte	0x2
 5409 145a 1A       		.byte	0x1a
 5410 145b 10       		.byte	0x10
 5411 145c 09       		.uleb128 0x9
 5412 145d 1F240000 		.4byte	.LASF317
 5413 1461 19       		.byte	0x19
 5414 1462 63       		.byte	0x63
 5415 1463 E4000000 		.4byte	0xe4
 5416 1467 04       		.byte	0x4
 5417 1468 01       		.byte	0x1
 5418 1469 19       		.byte	0x19
 5419 146a 10       		.byte	0x10
 5420 146b 08       		.uleb128 0x8
 5421 146c 64706900 		.ascii	"dpi\000"
 5422 1470 19       		.byte	0x19
 5423 1471 66       		.byte	0x66
 5424 1472 E4000000 		.4byte	0xe4
 5425 1476 04       		.byte	0x4
 5426 1477 0A       		.byte	0xa
 5427 1478 0F       		.byte	0xf
 5428 1479 10       		.byte	0x10
 5429 147a 07       		.uleb128 0x7
 5430 147b C1270000 		.4byte	.LASF380
 5431 147f 19       		.byte	0x19
 5432 1480 6A       		.byte	0x6a
 5433 1481 50150000 		.4byte	0x1550
 5434 1485 14       		.byte	0x14
 5435 1486 07       		.uleb128 0x7
 5436 1487 5A210000 		.4byte	.LASF381
 5437 148b 19       		.byte	0x19
 5438 148c 6E       		.byte	0x6e
 5439 148d 66150000 		.4byte	0x1566
 5440 1491 18       		.byte	0x18
 5441 1492 07       		.uleb128 0x7
ARM GAS  C:\Users\haske\AppData\Local\Temp\ccGWO5DZ.s 			page 124


 5442 1493 61250000 		.4byte	.LASF382
 5443 1497 19       		.byte	0x19
 5444 1498 73       		.byte	0x73
 5445 1499 95150000 		.4byte	0x1595
 5446 149d 1C       		.byte	0x1c
 5447 149e 07       		.uleb128 0x7
 5448 149f 7C110000 		.4byte	.LASF383
 5449 14a3 19       		.byte	0x19
 5450 14a4 76       		.byte	0x76
 5451 14a5 B0150000 		.4byte	0x15b0
 5452 14a9 20       		.byte	0x20
 5453 14aa 07       		.uleb128 0x7
 5454 14ab 07180000 		.4byte	.LASF384
 5455 14af 19       		.byte	0x19
 5456 14b0 7B       		.byte	0x7b
 5457 14b1 CB150000 		.4byte	0x15cb
 5458 14b5 24       		.byte	0x24
 5459 14b6 07       		.uleb128 0x7
 5460 14b7 A6150000 		.4byte	.LASF385
 5461 14bb 19       		.byte	0x19
 5462 14bc 80       		.byte	0x80
 5463 14bd DC150000 		.4byte	0x15dc
 5464 14c1 28       		.byte	0x28
 5465 14c2 07       		.uleb128 0x7
 5466 14c3 20290000 		.4byte	.LASF386
 5467 14c7 19       		.byte	0x19
 5468 14c8 83       		.byte	0x83
 5469 14c9 DC150000 		.4byte	0x15dc
 5470 14cd 2C       		.byte	0x2c
 5471 14ce 07       		.uleb128 0x7
 5472 14cf 861E0000 		.4byte	.LASF387
 5473 14d3 19       		.byte	0x19
 5474 14d4 86       		.byte	0x86
 5475 14d5 DC150000 		.4byte	0x15dc
 5476 14d9 30       		.byte	0x30
 5477 14da 07       		.uleb128 0x7
 5478 14db 761E0000 		.4byte	.LASF388
 5479 14df 19       		.byte	0x19
 5480 14e0 89       		.byte	0x89
 5481 14e1 DC150000 		.4byte	0x15dc
 5482 14e5 34       		.byte	0x34
 5483 14e6 07       		.uleb128 0x7
 5484 14e7 34000000 		.4byte	.LASF389
 5485 14eb 19       		.byte	0x19
 5486 14ec 8D       		.byte	0x8d
 5487 14ed E8030000 		.4byte	0x3e8
 5488 14f1 38       		.byte	0x38
 5489 14f2 07       		.uleb128 0x7
 5490 14f3 02260000 		.4byte	.LASF390
 5491 14f7 19       		.byte	0x19
 5492 14f8 8F       		.byte	0x8f
 5493 14f9 E2150000 		.4byte	0x15e2
 5494 14fd 3C       		.byte	0x3c
 5495 14fe 07       		.uleb128 0x7
 5496 14ff 90140000 		.4byte	.LASF391
 5497 1503 19       		.byte	0x19
 5498 1504 90       		.byte	0x90
ARM GAS  C:\Users\haske\AppData\Local\Temp\ccGWO5DZ.s 			page 125


 5499 1505 F8150000 		.4byte	0x15f8
 5500 1509 40       		.byte	0x40
 5501 150a 07       		.uleb128 0x7
 5502 150b E5050000 		.4byte	.LASF392
 5503 150f 19       		.byte	0x19
 5504 1510 91       		.byte	0x91
 5505 1511 F8150000 		.4byte	0x15f8
 5506 1515 44       		.byte	0x44
 5507 1516 07       		.uleb128 0x7
 5508 1517 28020000 		.4byte	.LASF393
 5509 151b 19       		.byte	0x19
 5510 151c 92       		.byte	0x92
 5511 151d EF000000 		.4byte	0xef
 5512 1521 48       		.byte	0x48
 5513 1522 07       		.uleb128 0x7
 5514 1523 E1270000 		.4byte	.LASF42
 5515 1527 19       		.byte	0x19
 5516 1528 95       		.byte	0x95
 5517 1529 E9020000 		.4byte	0x2e9
 5518 152d 4C       		.byte	0x4c
 5519 152e 00       		.byte	0
 5520 152f 0B       		.uleb128 0xb
 5521 1530 04       		.byte	0x4
 5522 1531 A6130000 		.4byte	0x13a6
 5523 1535 1F       		.uleb128 0x1f
 5524 1536 4A150000 		.4byte	0x154a
 5525 153a 0E       		.uleb128 0xe
 5526 153b 4A150000 		.4byte	0x154a
 5527 153f 0E       		.uleb128 0xe
 5528 1540 AB0E0000 		.4byte	0xeab
 5529 1544 0E       		.uleb128 0xe
 5530 1545 730A0000 		.4byte	0xa73
 5531 1549 00       		.byte	0
 5532 154a 0B       		.uleb128 0xb
 5533 154b 04       		.byte	0x4
 5534 154c B1130000 		.4byte	0x13b1
 5535 1550 0B       		.uleb128 0xb
 5536 1551 04       		.byte	0x4
 5537 1552 35150000 		.4byte	0x1535
 5538 1556 1F       		.uleb128 0x1f
 5539 1557 66150000 		.4byte	0x1566
 5540 155b 0E       		.uleb128 0xe
 5541 155c 4A150000 		.4byte	0x154a
 5542 1560 0E       		.uleb128 0xe
 5543 1561 B60E0000 		.4byte	0xeb6
 5544 1565 00       		.byte	0
 5545 1566 0B       		.uleb128 0xb
 5546 1567 04       		.byte	0x4
 5547 1568 56150000 		.4byte	0x1556
 5548 156c 1F       		.uleb128 0x1f
 5549 156d 95150000 		.4byte	0x1595
 5550 1571 0E       		.uleb128 0xe
 5551 1572 4A150000 		.4byte	0x154a
 5552 1576 0E       		.uleb128 0xe
 5553 1577 C5070000 		.4byte	0x7c5
 5554 157b 0E       		.uleb128 0xe
 5555 157c 01010000 		.4byte	0x101
ARM GAS  C:\Users\haske\AppData\Local\Temp\ccGWO5DZ.s 			page 126


 5556 1580 0E       		.uleb128 0xe
 5557 1581 01010000 		.4byte	0x101
 5558 1585 0E       		.uleb128 0xe
 5559 1586 01010000 		.4byte	0x101
 5560 158a 0E       		.uleb128 0xe
 5561 158b E8030000 		.4byte	0x3e8
 5562 158f 0E       		.uleb128 0xe
 5563 1590 F3030000 		.4byte	0x3f3
 5564 1594 00       		.byte	0
 5565 1595 0B       		.uleb128 0xb
 5566 1596 04       		.byte	0x4
 5567 1597 6C150000 		.4byte	0x156c
 5568 159b 1F       		.uleb128 0x1f
 5569 159c B0150000 		.4byte	0x15b0
 5570 15a0 0E       		.uleb128 0xe
 5571 15a1 4A150000 		.4byte	0x154a
 5572 15a5 0E       		.uleb128 0xe
 5573 15a6 C5070000 		.4byte	0x7c5
 5574 15aa 0E       		.uleb128 0xe
 5575 15ab E4000000 		.4byte	0xe4
 5576 15af 00       		.byte	0
 5577 15b0 0B       		.uleb128 0xb
 5578 15b1 04       		.byte	0x4
 5579 15b2 9B150000 		.4byte	0x159b
 5580 15b6 1F       		.uleb128 0x1f
 5581 15b7 CB150000 		.4byte	0x15cb
 5582 15bb 0E       		.uleb128 0xe
 5583 15bc 4A150000 		.4byte	0x154a
 5584 15c0 0E       		.uleb128 0xe
 5585 15c1 E4000000 		.4byte	0xe4
 5586 15c5 0E       		.uleb128 0xe
 5587 15c6 E4000000 		.4byte	0xe4
 5588 15ca 00       		.byte	0
 5589 15cb 0B       		.uleb128 0xb
 5590 15cc 04       		.byte	0x4
 5591 15cd B6150000 		.4byte	0x15b6
 5592 15d1 1F       		.uleb128 0x1f
 5593 15d2 DC150000 		.4byte	0x15dc
 5594 15d6 0E       		.uleb128 0xe
 5595 15d7 4A150000 		.4byte	0x154a
 5596 15db 00       		.byte	0
 5597 15dc 0B       		.uleb128 0xb
 5598 15dd 04       		.byte	0x4
 5599 15de D1150000 		.4byte	0x15d1
 5600 15e2 0B       		.uleb128 0xb
 5601 15e3 04       		.byte	0x4
 5602 15e4 50120000 		.4byte	0x1250
 5603 15e8 1F       		.uleb128 0x1f
 5604 15e9 F8150000 		.4byte	0x15f8
 5605 15ed 0E       		.uleb128 0xe
 5606 15ee 4A150000 		.4byte	0x154a
 5607 15f2 0E       		.uleb128 0xe
 5608 15f3 E2150000 		.4byte	0x15e2
 5609 15f7 00       		.byte	0
 5610 15f8 0B       		.uleb128 0xb
 5611 15f9 04       		.byte	0x4
 5612 15fa E8150000 		.4byte	0x15e8
ARM GAS  C:\Users\haske\AppData\Local\Temp\ccGWO5DZ.s 			page 127


 5613 15fe 21       		.uleb128 0x21
 5614 15ff BE190000 		.4byte	.LASF394
 5615 1603 5C01     		.2byte	0x15c
 5616 1605 19       		.byte	0x19
 5617 1606 9E       		.byte	0x9e
 5618 1607 15170000 		.4byte	0x1715
 5619 160b 07       		.uleb128 0x7
 5620 160c 580C0000 		.4byte	.LASF395
 5621 1610 19       		.byte	0x19
 5622 1611 A0       		.byte	0xa0
 5623 1612 4A150000 		.4byte	0x154a
 5624 1616 00       		.byte	0
 5625 1617 07       		.uleb128 0x7
 5626 1618 18060000 		.4byte	.LASF396
 5627 161c 19       		.byte	0x19
 5628 161d A3       		.byte	0xa3
 5629 161e 15170000 		.4byte	0x1715
 5630 1622 04       		.byte	0x4
 5631 1623 07       		.uleb128 0x7
 5632 1624 23130000 		.4byte	.LASF397
 5633 1628 19       		.byte	0x19
 5634 1629 A6       		.byte	0xa6
 5635 162a A0170000 		.4byte	0x17a0
 5636 162e 08       		.byte	0x8
 5637 162f 07       		.uleb128 0x7
 5638 1630 D7040000 		.4byte	.LASF398
 5639 1634 19       		.byte	0x19
 5640 1635 A9       		.byte	0xa9
 5641 1636 A6170000 		.4byte	0x17a6
 5642 163a 0C       		.byte	0xc
 5643 163b 07       		.uleb128 0x7
 5644 163c D7000000 		.4byte	.LASF399
 5645 1640 19       		.byte	0x19
 5646 1641 AA       		.byte	0xaa
 5647 1642 A6090000 		.4byte	0x9a6
 5648 1646 10       		.byte	0x10
 5649 1647 07       		.uleb128 0x7
 5650 1648 E7220000 		.4byte	.LASF400
 5651 164c 19       		.byte	0x19
 5652 164d AB       		.byte	0xab
 5653 164e A6090000 		.4byte	0x9a6
 5654 1652 14       		.byte	0x14
 5655 1653 07       		.uleb128 0x7
 5656 1654 C6060000 		.4byte	.LASF401
 5657 1658 19       		.byte	0x19
 5658 1659 AC       		.byte	0xac
 5659 165a A6090000 		.4byte	0x9a6
 5660 165e 18       		.byte	0x18
 5661 165f 07       		.uleb128 0x7
 5662 1660 11090000 		.4byte	.LASF402
 5663 1664 19       		.byte	0x19
 5664 1665 AD       		.byte	0xad
 5665 1666 A6090000 		.4byte	0x9a6
 5666 166a 1C       		.byte	0x1c
 5667 166b 07       		.uleb128 0x7
 5668 166c 061F0000 		.4byte	.LASF403
 5669 1670 19       		.byte	0x19
ARM GAS  C:\Users\haske\AppData\Local\Temp\ccGWO5DZ.s 			page 128


 5670 1671 AE       		.byte	0xae
 5671 1672 A6090000 		.4byte	0x9a6
 5672 1676 20       		.byte	0x20
 5673 1677 07       		.uleb128 0x7
 5674 1678 DF000000 		.4byte	.LASF404
 5675 167c 19       		.byte	0x19
 5676 167d AF       		.byte	0xaf
 5677 167e E4000000 		.4byte	0xe4
 5678 1682 24       		.byte	0x24
 5679 1683 09       		.uleb128 0x9
 5680 1684 E4120000 		.4byte	.LASF405
 5681 1688 19       		.byte	0x19
 5682 1689 B0       		.byte	0xb0
 5683 168a B8000000 		.4byte	0xb8
 5684 168e 01       		.byte	0x1
 5685 168f 01       		.byte	0x1
 5686 1690 07       		.byte	0x7
 5687 1691 28       		.byte	0x28
 5688 1692 09       		.uleb128 0x9
 5689 1693 91240000 		.4byte	.LASF406
 5690 1697 19       		.byte	0x19
 5691 1698 B2       		.byte	0xb2
 5692 1699 B8000000 		.4byte	0xb8
 5693 169d 01       		.byte	0x1
 5694 169e 01       		.byte	0x1
 5695 169f 06       		.byte	0x6
 5696 16a0 28       		.byte	0x28
 5697 16a1 09       		.uleb128 0x9
 5698 16a2 190A0000 		.4byte	.LASF407
 5699 16a6 19       		.byte	0x19
 5700 16a7 B4       		.byte	0xb4
 5701 16a8 B8000000 		.4byte	0xb8
 5702 16ac 01       		.byte	0x1
 5703 16ad 01       		.byte	0x1
 5704 16ae 05       		.byte	0x5
 5705 16af 28       		.byte	0x28
 5706 16b0 07       		.uleb128 0x7
 5707 16b1 11060000 		.4byte	.LASF254
 5708 16b5 19       		.byte	0x19
 5709 16b6 B6       		.byte	0xb6
 5710 16b7 F3030000 		.4byte	0x3f3
 5711 16bb 29       		.byte	0x29
 5712 16bc 07       		.uleb128 0x7
 5713 16bd F3010000 		.4byte	.LASF255
 5714 16c1 19       		.byte	0x19
 5715 16c2 B7       		.byte	0xb7
 5716 16c3 E8030000 		.4byte	0x3e8
 5717 16c7 2A       		.byte	0x2a
 5718 16c8 07       		.uleb128 0x7
 5719 16c9 AC240000 		.4byte	.LASF408
 5720 16cd 19       		.byte	0x19
 5721 16ce B8       		.byte	0xb8
 5722 16cf E2020000 		.4byte	0x2e2
 5723 16d3 2C       		.byte	0x2c
 5724 16d4 07       		.uleb128 0x7
 5725 16d5 011A0000 		.4byte	.LASF409
 5726 16d9 19       		.byte	0x19
ARM GAS  C:\Users\haske\AppData\Local\Temp\ccGWO5DZ.s 			page 129


 5727 16da BB       		.byte	0xbb
 5728 16db AC170000 		.4byte	0x17ac
 5729 16df 30       		.byte	0x30
 5730 16e0 22       		.uleb128 0x22
 5731 16e1 A0060000 		.4byte	.LASF410
 5732 16e5 19       		.byte	0x19
 5733 16e6 BC       		.byte	0xbc
 5734 16e7 BC170000 		.4byte	0x17bc
 5735 16eb 3001     		.2byte	0x130
 5736 16ed 22       		.uleb128 0x22
 5737 16ee 2C230000 		.4byte	.LASF411
 5738 16f2 19       		.byte	0x19
 5739 16f3 BD       		.byte	0xbd
 5740 16f4 CE000000 		.4byte	0xce
 5741 16f8 5001     		.2byte	0x150
 5742 16fa 22       		.uleb128 0x22
 5743 16fb 14240000 		.4byte	.LASF412
 5744 16ff 19       		.byte	0x19
 5745 1700 BE       		.byte	0xbe
 5746 1701 D9000000 		.4byte	0xd9
 5747 1705 5401     		.2byte	0x154
 5748 1707 22       		.uleb128 0x22
 5749 1708 88050000 		.4byte	.LASF413
 5750 170c 19       		.byte	0x19
 5751 170d C1       		.byte	0xc1
 5752 170e E4000000 		.4byte	0xe4
 5753 1712 5801     		.2byte	0x158
 5754 1714 00       		.byte	0
 5755 1715 0B       		.uleb128 0xb
 5756 1716 04       		.byte	0x4
 5757 1717 1E130000 		.4byte	0x131e
 5758 171b 0A       		.uleb128 0xa
 5759 171c B2220000 		.4byte	.LASF414
 5760 1720 24       		.byte	0x24
 5761 1721 1A       		.byte	0x1a
 5762 1722 1F       		.byte	0x1f
 5763 1723 A0170000 		.4byte	0x17a0
 5764 1727 07       		.uleb128 0x7
 5765 1728 DC260000 		.4byte	.LASF415
 5766 172c 1A       		.byte	0x1a
 5767 172d 20       		.byte	0x20
 5768 172e 5C1F0000 		.4byte	0x1f5c
 5769 1732 00       		.byte	0
 5770 1733 07       		.uleb128 0x7
 5771 1734 83100000 		.4byte	.LASF240
 5772 1738 1A       		.byte	0x1a
 5773 1739 21       		.byte	0x21
 5774 173a A0170000 		.4byte	0x17a0
 5775 173e 04       		.byte	0x4
 5776 173f 07       		.uleb128 0x7
 5777 1740 E1270000 		.4byte	.LASF42
 5778 1744 1A       		.byte	0x1a
 5779 1745 22       		.byte	0x22
 5780 1746 E9020000 		.4byte	0x2e9
 5781 174a 08       		.byte	0x8
 5782 174b 07       		.uleb128 0x7
 5783 174c 01190000 		.4byte	.LASF416
ARM GAS  C:\Users\haske\AppData\Local\Temp\ccGWO5DZ.s 			page 130


 5784 1750 1A       		.byte	0x1a
 5785 1751 23       		.byte	0x23
 5786 1752 D7170000 		.4byte	0x17d7
 5787 1756 0C       		.byte	0xc
 5788 1757 07       		.uleb128 0x7
 5789 1758 B0010000 		.4byte	.LASF417
 5790 175c 1A       		.byte	0x1a
 5791 175d 24       		.byte	0x24
 5792 175e E8030000 		.4byte	0x3e8
 5793 1762 10       		.byte	0x10
 5794 1763 07       		.uleb128 0x7
 5795 1764 D5020000 		.4byte	.LASF418
 5796 1768 1A       		.byte	0x1a
 5797 1769 25       		.byte	0x25
 5798 176a E8030000 		.4byte	0x3e8
 5799 176e 12       		.byte	0x12
 5800 176f 07       		.uleb128 0x7
 5801 1770 5F0F0000 		.4byte	.LASF419
 5802 1774 1A       		.byte	0x1a
 5803 1775 26       		.byte	0x26
 5804 1776 9A0C0000 		.4byte	0xc9a
 5805 177a 14       		.byte	0x14
 5806 177b 07       		.uleb128 0x7
 5807 177c 40280000 		.4byte	.LASF420
 5808 1780 1A       		.byte	0x1a
 5809 1781 27       		.byte	0x27
 5810 1782 9A0C0000 		.4byte	0xc9a
 5811 1786 18       		.byte	0x18
 5812 1787 07       		.uleb128 0x7
 5813 1788 D91C0000 		.4byte	.LASF421
 5814 178c 1A       		.byte	0x1a
 5815 178d 28       		.byte	0x28
 5816 178e 9A0C0000 		.4byte	0xc9a
 5817 1792 1C       		.byte	0x1c
 5818 1793 07       		.uleb128 0x7
 5819 1794 470B0000 		.4byte	.LASF244
 5820 1798 1A       		.byte	0x1a
 5821 1799 29       		.byte	0x29
 5822 179a E4000000 		.4byte	0xe4
 5823 179e 20       		.byte	0x20
 5824 179f 00       		.byte	0
 5825 17a0 0B       		.uleb128 0xb
 5826 17a1 04       		.byte	0x4
 5827 17a2 1B170000 		.4byte	0x171b
 5828 17a6 0B       		.uleb128 0xb
 5829 17a7 04       		.byte	0x4
 5830 17a8 A6090000 		.4byte	0x9a6
 5831 17ac 16       		.uleb128 0x16
 5832 17ad 69010000 		.4byte	0x169
 5833 17b1 BC170000 		.4byte	0x17bc
 5834 17b5 17       		.uleb128 0x17
 5835 17b6 1A030000 		.4byte	0x31a
 5836 17ba 1F       		.byte	0x1f
 5837 17bb 00       		.byte	0
 5838 17bc 16       		.uleb128 0x16
 5839 17bd B8000000 		.4byte	0xb8
 5840 17c1 CC170000 		.4byte	0x17cc
ARM GAS  C:\Users\haske\AppData\Local\Temp\ccGWO5DZ.s 			page 131


 5841 17c5 17       		.uleb128 0x17
 5842 17c6 1A030000 		.4byte	0x31a
 5843 17ca 1F       		.byte	0x1f
 5844 17cb 00       		.byte	0
 5845 17cc 02       		.uleb128 0x2
 5846 17cd 7B000000 		.4byte	.LASF422
 5847 17d1 19       		.byte	0x19
 5848 17d2 C2       		.byte	0xc2
 5849 17d3 FE150000 		.4byte	0x15fe
 5850 17d7 0B       		.uleb128 0xb
 5851 17d8 04       		.byte	0x4
 5852 17d9 FE150000 		.4byte	0x15fe
 5853 17dd 0A       		.uleb128 0xa
 5854 17de DD290000 		.4byte	.LASF423
 5855 17e2 20       		.byte	0x20
 5856 17e3 1B       		.byte	0x1b
 5857 17e4 3B       		.byte	0x3b
 5858 17e5 62180000 		.4byte	0x1862
 5859 17e9 07       		.uleb128 0x7
 5860 17ea 9C130000 		.4byte	.LASF424
 5861 17ee 1B       		.byte	0x1b
 5862 17ef 3C       		.byte	0x3c
 5863 17f0 99120000 		.4byte	0x1299
 5864 17f4 00       		.byte	0
 5865 17f5 07       		.uleb128 0x7
 5866 17f6 3A2A0000 		.4byte	.LASF425
 5867 17fa 1B       		.byte	0x1b
 5868 17fb 3D       		.byte	0x3d
 5869 17fc A6170000 		.4byte	0x17a6
 5870 1800 0C       		.byte	0xc
 5871 1801 07       		.uleb128 0x7
 5872 1802 FF1B0000 		.4byte	.LASF426
 5873 1806 1B       		.byte	0x1b
 5874 1807 3F       		.byte	0x3f
 5875 1808 501D0000 		.4byte	0x1d50
 5876 180c 10       		.byte	0x10
 5877 180d 07       		.uleb128 0x7
 5878 180e 98060000 		.4byte	.LASF427
 5879 1812 1B       		.byte	0x1b
 5880 1813 40       		.byte	0x40
 5881 1814 6C1D0000 		.4byte	0x1d6c
 5882 1818 14       		.byte	0x14
 5883 1819 07       		.uleb128 0x7
 5884 181a E1270000 		.4byte	.LASF42
 5885 181e 1B       		.byte	0x1b
 5886 181f 45       		.byte	0x45
 5887 1820 E9020000 		.4byte	0x2e9
 5888 1824 18       		.byte	0x18
 5889 1825 09       		.uleb128 0x9
 5890 1826 A9010000 		.4byte	.LASF428
 5891 182a 1B       		.byte	0x1b
 5892 182b 48       		.byte	0x48
 5893 182c B8000000 		.4byte	0xb8
 5894 1830 01       		.byte	0x1
 5895 1831 01       		.byte	0x1
 5896 1832 07       		.byte	0x7
 5897 1833 1C       		.byte	0x1c
ARM GAS  C:\Users\haske\AppData\Local\Temp\ccGWO5DZ.s 			page 132


 5898 1834 09       		.uleb128 0x9
 5899 1835 AC1E0000 		.4byte	.LASF429
 5900 1839 1B       		.byte	0x1b
 5901 183a 49       		.byte	0x49
 5902 183b B8000000 		.4byte	0xb8
 5903 183f 01       		.byte	0x1
 5904 1840 01       		.byte	0x1
 5905 1841 06       		.byte	0x6
 5906 1842 1C       		.byte	0x1c
 5907 1843 09       		.uleb128 0x9
 5908 1844 A0280000 		.4byte	.LASF430
 5909 1848 1B       		.byte	0x1b
 5910 1849 4A       		.byte	0x4a
 5911 184a B8000000 		.4byte	0xb8
 5912 184e 01       		.byte	0x1
 5913 184f 01       		.byte	0x1
 5914 1850 05       		.byte	0x5
 5915 1851 1C       		.byte	0x1c
 5916 1852 09       		.uleb128 0x9
 5917 1853 D31F0000 		.4byte	.LASF431
 5918 1857 1B       		.byte	0x1b
 5919 1858 4C       		.byte	0x4c
 5920 1859 B8000000 		.4byte	0xb8
 5921 185d 01       		.byte	0x1
 5922 185e 01       		.byte	0x1
 5923 185f 04       		.byte	0x4
 5924 1860 1C       		.byte	0x1c
 5925 1861 00       		.byte	0
 5926 1862 0B       		.uleb128 0xb
 5927 1863 04       		.byte	0x4
 5928 1864 DD170000 		.4byte	0x17dd
 5929 1868 02       		.uleb128 0x2
 5930 1869 4A060000 		.4byte	.LASF432
 5931 186d 0F       		.byte	0xf
 5932 186e 3C       		.byte	0x3c
 5933 186f CE000000 		.4byte	0xce
 5934 1873 11       		.uleb128 0x11
 5935 1874 04       		.byte	0x4
 5936 1875 A6000000 		.4byte	0xa6
 5937 1879 0F       		.byte	0xf
 5938 187a 44       		.byte	0x44
 5939 187b D7180000 		.4byte	0x18d7
 5940 187f 12       		.uleb128 0x12
 5941 1880 981D0000 		.4byte	.LASF433
 5942 1884 00       		.byte	0
 5943 1885 23       		.uleb128 0x23
 5944 1886 65180000 		.4byte	.LASF434
 5945 188a 00000100 		.4byte	0x10000
 5946 188e 23       		.uleb128 0x23
 5947 188f 45180000 		.4byte	.LASF435
 5948 1893 00000200 		.4byte	0x20000
 5949 1897 23       		.uleb128 0x23
 5950 1898 D0140000 		.4byte	.LASF436
 5951 189c 00000300 		.4byte	0x30000
 5952 18a0 23       		.uleb128 0x23
 5953 18a1 07040000 		.4byte	.LASF437
 5954 18a5 00000400 		.4byte	0x40000
ARM GAS  C:\Users\haske\AppData\Local\Temp\ccGWO5DZ.s 			page 133


 5955 18a9 23       		.uleb128 0x23
 5956 18aa 521E0000 		.4byte	.LASF438
 5957 18ae 00000500 		.4byte	0x50000
 5958 18b2 23       		.uleb128 0x23
 5959 18b3 32280000 		.4byte	.LASF439
 5960 18b7 00000600 		.4byte	0x60000
 5961 18bb 23       		.uleb128 0x23
 5962 18bc CD260000 		.4byte	.LASF440
 5963 18c0 00000700 		.4byte	0x70000
 5964 18c4 23       		.uleb128 0x23
 5965 18c5 B3240000 		.4byte	.LASF441
 5966 18c9 00000800 		.4byte	0x80000
 5967 18cd 23       		.uleb128 0x23
 5968 18ce 7D0D0000 		.4byte	.LASF442
 5969 18d2 00000F00 		.4byte	0xf0000
 5970 18d6 00       		.byte	0
 5971 18d7 11       		.uleb128 0x11
 5972 18d8 04       		.byte	0x4
 5973 18d9 A6000000 		.4byte	0xa6
 5974 18dd 0F       		.byte	0xf
 5975 18de 59       		.byte	0x59
 5976 18df BF190000 		.4byte	0x19bf
 5977 18e3 12       		.uleb128 0x12
 5978 18e4 C0130000 		.4byte	.LASF443
 5979 18e8 01       		.byte	0x1
 5980 18e9 12       		.uleb128 0x12
 5981 18ea F1170000 		.4byte	.LASF444
 5982 18ee 02       		.byte	0x2
 5983 18ef 12       		.uleb128 0x12
 5984 18f0 721F0000 		.4byte	.LASF445
 5985 18f4 04       		.byte	0x4
 5986 18f5 12       		.uleb128 0x12
 5987 18f6 49130000 		.4byte	.LASF446
 5988 18fa 08       		.byte	0x8
 5989 18fb 12       		.uleb128 0x12
 5990 18fc 3E050000 		.4byte	.LASF447
 5991 1900 10       		.byte	0x10
 5992 1901 12       		.uleb128 0x12
 5993 1902 43170000 		.4byte	.LASF448
 5994 1906 20       		.byte	0x20
 5995 1907 12       		.uleb128 0x12
 5996 1908 96120000 		.4byte	.LASF449
 5997 190c 40       		.byte	0x40
 5998 190d 12       		.uleb128 0x12
 5999 190e 68290000 		.4byte	.LASF450
 6000 1912 80       		.byte	0x80
 6001 1913 18       		.uleb128 0x18
 6002 1914 CD200000 		.4byte	.LASF451
 6003 1918 0001     		.2byte	0x100
 6004 191a 18       		.uleb128 0x18
 6005 191b 410E0000 		.4byte	.LASF452
 6006 191f 0002     		.2byte	0x200
 6007 1921 18       		.uleb128 0x18
 6008 1922 A3080000 		.4byte	.LASF453
 6009 1926 0003     		.2byte	0x300
 6010 1928 18       		.uleb128 0x18
 6011 1929 351A0000 		.4byte	.LASF454
ARM GAS  C:\Users\haske\AppData\Local\Temp\ccGWO5DZ.s 			page 134


 6012 192d 0004     		.2byte	0x400
 6013 192f 18       		.uleb128 0x18
 6014 1930 7A060000 		.4byte	.LASF455
 6015 1934 0008     		.2byte	0x800
 6016 1936 18       		.uleb128 0x18
 6017 1937 2A150000 		.4byte	.LASF456
 6018 193b 0010     		.2byte	0x1000
 6019 193d 18       		.uleb128 0x18
 6020 193e 4A230000 		.4byte	.LASF457
 6021 1942 0020     		.2byte	0x2000
 6022 1944 18       		.uleb128 0x18
 6023 1945 5E0E0000 		.4byte	.LASF458
 6024 1949 0040     		.2byte	0x4000
 6025 194b 18       		.uleb128 0x18
 6026 194c 88160000 		.4byte	.LASF459
 6027 1950 0080     		.2byte	0x8000
 6028 1952 23       		.uleb128 0x23
 6029 1953 55060000 		.4byte	.LASF460
 6030 1957 00000100 		.4byte	0x10000
 6031 195b 23       		.uleb128 0x23
 6032 195c 411B0000 		.4byte	.LASF461
 6033 1960 00000200 		.4byte	0x20000
 6034 1964 23       		.uleb128 0x23
 6035 1965 0A110000 		.4byte	.LASF462
 6036 1969 00000400 		.4byte	0x40000
 6037 196d 23       		.uleb128 0x23
 6038 196e E2110000 		.4byte	.LASF463
 6039 1972 00000800 		.4byte	0x80000
 6040 1976 23       		.uleb128 0x23
 6041 1977 37080000 		.4byte	.LASF464
 6042 197b 00008000 		.4byte	0x800000
 6043 197f 23       		.uleb128 0x23
 6044 1980 4C080000 		.4byte	.LASF465
 6045 1984 00000001 		.4byte	0x1000000
 6046 1988 23       		.uleb128 0x23
 6047 1989 CA080000 		.4byte	.LASF466
 6048 198d 00000002 		.4byte	0x2000000
 6049 1991 23       		.uleb128 0x23
 6050 1992 DF080000 		.4byte	.LASF467
 6051 1996 00000004 		.4byte	0x4000000
 6052 199a 23       		.uleb128 0x23
 6053 199b 8E0F0000 		.4byte	.LASF468
 6054 199f 00000008 		.4byte	0x8000000
 6055 19a3 23       		.uleb128 0x23
 6056 19a4 A10F0000 		.4byte	.LASF469
 6057 19a8 00000010 		.4byte	0x10000000
 6058 19ac 23       		.uleb128 0x23
 6059 19ad B40F0000 		.4byte	.LASF470
 6060 19b1 00000020 		.4byte	0x20000000
 6061 19b5 23       		.uleb128 0x23
 6062 19b6 C70F0000 		.4byte	.LASF471
 6063 19ba 00000040 		.4byte	0x40000000
 6064 19be 00       		.byte	0
 6065 19bf 02       		.uleb128 0x2
 6066 19c0 F3260000 		.4byte	.LASF472
 6067 19c4 0F       		.byte	0xf
 6068 19c5 7D       		.byte	0x7d
ARM GAS  C:\Users\haske\AppData\Local\Temp\ccGWO5DZ.s 			page 135


 6069 19c6 E4000000 		.4byte	0xe4
 6070 19ca 02       		.uleb128 0x2
 6071 19cb 4D010000 		.4byte	.LASF473
 6072 19cf 1C       		.byte	0x1c
 6073 19d0 26       		.byte	0x26
 6074 19d1 B8000000 		.4byte	0xb8
 6075 19d5 02       		.uleb128 0x2
 6076 19d6 311D0000 		.4byte	.LASF474
 6077 19da 1C       		.byte	0x1c
 6078 19db 30       		.byte	0x30
 6079 19dc B8000000 		.4byte	0xb8
 6080 19e0 05       		.uleb128 0x5
 6081 19e1 08       		.byte	0x8
 6082 19e2 1D       		.byte	0x1d
 6083 19e3 27       		.byte	0x27
 6084 19e4 221A0000 		.4byte	0x1a22
 6085 19e8 07       		.uleb128 0x7
 6086 19e9 1A1D0000 		.4byte	.LASF475
 6087 19ed 1D       		.byte	0x1d
 6088 19ee 28       		.byte	0x28
 6089 19ef 221A0000 		.4byte	0x1a22
 6090 19f3 00       		.byte	0
 6091 19f4 09       		.uleb128 0x9
 6092 19f5 64280000 		.4byte	.LASF476
 6093 19f9 1D       		.byte	0x1d
 6094 19fa 29       		.byte	0x29
 6095 19fb E4000000 		.4byte	0xe4
 6096 19ff 04       		.byte	0x4
 6097 1a00 18       		.byte	0x18
 6098 1a01 08       		.byte	0x8
 6099 1a02 04       		.byte	0x4
 6100 1a03 09       		.uleb128 0x9
 6101 1a04 09030000 		.4byte	.LASF477
 6102 1a08 1D       		.byte	0x1d
 6103 1a09 2A       		.byte	0x2a
 6104 1a0a E4000000 		.4byte	0xe4
 6105 1a0e 04       		.byte	0x4
 6106 1a0f 01       		.byte	0x1
 6107 1a10 07       		.byte	0x7
 6108 1a11 04       		.byte	0x4
 6109 1a12 09       		.uleb128 0x9
 6110 1a13 A9100000 		.4byte	.LASF478
 6111 1a17 1D       		.byte	0x1d
 6112 1a18 2B       		.byte	0x2b
 6113 1a19 E4000000 		.4byte	0xe4
 6114 1a1d 04       		.byte	0x4
 6115 1a1e 01       		.byte	0x1
 6116 1a1f 06       		.byte	0x6
 6117 1a20 04       		.byte	0x4
 6118 1a21 00       		.byte	0
 6119 1a22 0B       		.uleb128 0xb
 6120 1a23 04       		.byte	0x4
 6121 1a24 14080000 		.4byte	0x814
 6122 1a28 02       		.uleb128 0x2
 6123 1a29 AB0D0000 		.4byte	.LASF479
 6124 1a2d 1D       		.byte	0x1d
 6125 1a2e 2C       		.byte	0x2c
ARM GAS  C:\Users\haske\AppData\Local\Temp\ccGWO5DZ.s 			page 136


 6126 1a2f E0190000 		.4byte	0x19e0
 6127 1a33 11       		.uleb128 0x11
 6128 1a34 01       		.byte	0x1
 6129 1a35 42000000 		.4byte	0x42
 6130 1a39 1E       		.byte	0x1e
 6131 1a3a 1E       		.byte	0x1e
 6132 1a3b 521A0000 		.4byte	0x1a52
 6133 1a3f 12       		.uleb128 0x12
 6134 1a40 C9010000 		.4byte	.LASF480
 6135 1a44 00       		.byte	0
 6136 1a45 12       		.uleb128 0x12
 6137 1a46 00000000 		.4byte	.LASF481
 6138 1a4a 01       		.byte	0x1
 6139 1a4b 12       		.uleb128 0x12
 6140 1a4c FD160000 		.4byte	.LASF482
 6141 1a50 02       		.byte	0x2
 6142 1a51 00       		.byte	0
 6143 1a52 02       		.uleb128 0x2
 6144 1a53 AA160000 		.4byte	.LASF483
 6145 1a57 1E       		.byte	0x1e
 6146 1a58 22       		.byte	0x22
 6147 1a59 331A0000 		.4byte	0x1a33
 6148 1a5d 0A       		.uleb128 0xa
 6149 1a5e 4F1F0000 		.4byte	.LASF484
 6150 1a62 1C       		.byte	0x1c
 6151 1a63 1F       		.byte	0x1f
 6152 1a64 31       		.byte	0x31
 6153 1a65 EB1A0000 		.4byte	0x1aeb
 6154 1a69 07       		.uleb128 0x7
 6155 1a6a B11B0000 		.4byte	.LASF485
 6156 1a6e 1F       		.byte	0x1f
 6157 1a6f 32       		.byte	0x32
 6158 1a70 EB1A0000 		.4byte	0x1aeb
 6159 1a74 00       		.byte	0
 6160 1a75 07       		.uleb128 0x7
 6161 1a76 3C030000 		.4byte	.LASF486
 6162 1a7a 1F       		.byte	0x1f
 6163 1a7b 33       		.byte	0x33
 6164 1a7c 8E1B0000 		.4byte	0x1b8e
 6165 1a80 04       		.byte	0x4
 6166 1a81 07       		.uleb128 0x7
 6167 1a82 54220000 		.4byte	.LASF487
 6168 1a86 1F       		.byte	0x1f
 6169 1a87 34       		.byte	0x34
 6170 1a88 8E1B0000 		.4byte	0x1b8e
 6171 1a8c 08       		.byte	0x8
 6172 1a8d 07       		.uleb128 0x7
 6173 1a8e E1270000 		.4byte	.LASF42
 6174 1a92 1F       		.byte	0x1f
 6175 1a93 36       		.byte	0x36
 6176 1a94 E9020000 		.4byte	0x2e9
 6177 1a98 0C       		.byte	0xc
 6178 1a99 07       		.uleb128 0x7
 6179 1a9a B9150000 		.4byte	.LASF488
 6180 1a9e 1F       		.byte	0x1f
 6181 1a9f 38       		.byte	0x38
 6182 1aa0 A41B0000 		.4byte	0x1ba4
ARM GAS  C:\Users\haske\AppData\Local\Temp\ccGWO5DZ.s 			page 137


 6183 1aa4 10       		.byte	0x10
 6184 1aa5 07       		.uleb128 0x7
 6185 1aa6 00110000 		.4byte	.LASF489
 6186 1aaa 1F       		.byte	0x1f
 6187 1aab 3A       		.byte	0x3a
 6188 1aac 01010000 		.4byte	0x101
 6189 1ab0 14       		.byte	0x14
 6190 1ab1 07       		.uleb128 0x7
 6191 1ab2 F8280000 		.4byte	.LASF490
 6192 1ab6 1F       		.byte	0x1f
 6193 1ab7 3B       		.byte	0x3b
 6194 1ab8 01010000 		.4byte	0x101
 6195 1abc 16       		.byte	0x16
 6196 1abd 09       		.uleb128 0x9
 6197 1abe 1A130000 		.4byte	.LASF491
 6198 1ac2 1F       		.byte	0x1f
 6199 1ac3 3C       		.byte	0x3c
 6200 1ac4 E4000000 		.4byte	0xe4
 6201 1ac8 04       		.byte	0x4
 6202 1ac9 02       		.byte	0x2
 6203 1aca 1E       		.byte	0x1e
 6204 1acb 18       		.byte	0x18
 6205 1acc 09       		.uleb128 0x9
 6206 1acd DB050000 		.4byte	.LASF492
 6207 1ad1 1F       		.byte	0x1f
 6208 1ad2 3D       		.byte	0x3d
 6209 1ad3 E4000000 		.4byte	0xe4
 6210 1ad7 04       		.byte	0x4
 6211 1ad8 02       		.byte	0x2
 6212 1ad9 1C       		.byte	0x1c
 6213 1ada 18       		.byte	0x18
 6214 1adb 09       		.uleb128 0x9
 6215 1adc 54140000 		.4byte	.LASF493
 6216 1ae0 1F       		.byte	0x1f
 6217 1ae1 3E       		.byte	0x3e
 6218 1ae2 E4000000 		.4byte	0xe4
 6219 1ae6 04       		.byte	0x4
 6220 1ae7 10       		.byte	0x10
 6221 1ae8 0C       		.byte	0xc
 6222 1ae9 18       		.byte	0x18
 6223 1aea 00       		.byte	0
 6224 1aeb 0B       		.uleb128 0xb
 6225 1aec 04       		.byte	0x4
 6226 1aed F11A0000 		.4byte	0x1af1
 6227 1af1 0C       		.uleb128 0xc
 6228 1af2 5D1A0000 		.4byte	0x1a5d
 6229 1af6 0B       		.uleb128 0xb
 6230 1af7 04       		.byte	0x4
 6231 1af8 FC1A0000 		.4byte	0x1afc
 6232 1afc 0A       		.uleb128 0xa
 6233 1afd 0A160000 		.4byte	.LASF494
 6234 1b01 1C       		.byte	0x1c
 6235 1b02 20       		.byte	0x20
 6236 1b03 5E       		.byte	0x5e
 6237 1b04 7E1B0000 		.4byte	0x1b7e
 6238 1b08 07       		.uleb128 0x7
 6239 1b09 DD120000 		.4byte	.LASF495
ARM GAS  C:\Users\haske\AppData\Local\Temp\ccGWO5DZ.s 			page 138


 6240 1b0d 20       		.byte	0x20
 6241 1b0e 5F       		.byte	0x5f
 6242 1b0f A6090000 		.4byte	0x9a6
 6243 1b13 00       		.byte	0
 6244 1b14 07       		.uleb128 0x7
 6245 1b15 9E140000 		.4byte	.LASF496
 6246 1b19 20       		.byte	0x20
 6247 1b1a 60       		.byte	0x60
 6248 1b1b A6090000 		.4byte	0x9a6
 6249 1b1f 04       		.byte	0x4
 6250 1b20 07       		.uleb128 0x7
 6251 1b21 671D0000 		.4byte	.LASF497
 6252 1b25 20       		.byte	0x20
 6253 1b26 61       		.byte	0x61
 6254 1b27 DC1C0000 		.4byte	0x1cdc
 6255 1b2b 08       		.byte	0x8
 6256 1b2c 07       		.uleb128 0x7
 6257 1b2d E1270000 		.4byte	.LASF42
 6258 1b31 20       		.byte	0x20
 6259 1b32 62       		.byte	0x62
 6260 1b33 E9020000 		.4byte	0x2e9
 6261 1b37 0C       		.byte	0xc
 6262 1b38 07       		.uleb128 0x7
 6263 1b39 D7120000 		.4byte	.LASF498
 6264 1b3d 20       		.byte	0x20
 6265 1b3e 63       		.byte	0x63
 6266 1b3f E9020000 		.4byte	0x2e9
 6267 1b43 10       		.byte	0x10
 6268 1b44 07       		.uleb128 0x7
 6269 1b45 A2290000 		.4byte	.LASF499
 6270 1b49 20       		.byte	0x20
 6271 1b4a 64       		.byte	0x64
 6272 1b4b F61A0000 		.4byte	0x1af6
 6273 1b4f 14       		.byte	0x14
 6274 1b50 09       		.uleb128 0x9
 6275 1b51 41160000 		.4byte	.LASF500
 6276 1b55 20       		.byte	0x20
 6277 1b56 65       		.byte	0x65
 6278 1b57 B8000000 		.4byte	0xb8
 6279 1b5b 01       		.byte	0x1
 6280 1b5c 01       		.byte	0x1
 6281 1b5d 07       		.byte	0x7
 6282 1b5e 18       		.byte	0x18
 6283 1b5f 09       		.uleb128 0x9
 6284 1b60 310B0000 		.4byte	.LASF501
 6285 1b64 20       		.byte	0x20
 6286 1b65 66       		.byte	0x66
 6287 1b66 B8000000 		.4byte	0xb8
 6288 1b6a 01       		.byte	0x1
 6289 1b6b 01       		.byte	0x1
 6290 1b6c 06       		.byte	0x6
 6291 1b6d 18       		.byte	0x18
 6292 1b6e 09       		.uleb128 0x9
 6293 1b6f DD1A0000 		.4byte	.LASF502
 6294 1b73 20       		.byte	0x20
 6295 1b74 67       		.byte	0x67
 6296 1b75 B8000000 		.4byte	0xb8
ARM GAS  C:\Users\haske\AppData\Local\Temp\ccGWO5DZ.s 			page 139


 6297 1b79 01       		.byte	0x1
 6298 1b7a 01       		.byte	0x1
 6299 1b7b 05       		.byte	0x5
 6300 1b7c 18       		.byte	0x18
 6301 1b7d 00       		.byte	0
 6302 1b7e 1F       		.uleb128 0x1f
 6303 1b7f 8E1B0000 		.4byte	0x1b8e
 6304 1b83 0E       		.uleb128 0xe
 6305 1b84 EB1A0000 		.4byte	0x1aeb
 6306 1b88 0E       		.uleb128 0xe
 6307 1b89 A6090000 		.4byte	0x9a6
 6308 1b8d 00       		.byte	0
 6309 1b8e 0B       		.uleb128 0xb
 6310 1b8f 04       		.byte	0x4
 6311 1b90 7E1B0000 		.4byte	0x1b7e
 6312 1b94 1F       		.uleb128 0x1f
 6313 1b95 A41B0000 		.4byte	0x1ba4
 6314 1b99 0E       		.uleb128 0xe
 6315 1b9a EB1A0000 		.4byte	0x1aeb
 6316 1b9e 0E       		.uleb128 0xe
 6317 1b9f F61A0000 		.4byte	0x1af6
 6318 1ba3 00       		.byte	0
 6319 1ba4 0B       		.uleb128 0xb
 6320 1ba5 04       		.byte	0x4
 6321 1ba6 941B0000 		.4byte	0x1b94
 6322 1baa 02       		.uleb128 0x2
 6323 1bab 47100000 		.4byte	.LASF503
 6324 1baf 1F       		.byte	0x1f
 6325 1bb0 3F       		.byte	0x3f
 6326 1bb1 5D1A0000 		.4byte	0x1a5d
 6327 1bb5 11       		.uleb128 0x11
 6328 1bb6 01       		.byte	0x1
 6329 1bb7 42000000 		.4byte	0x42
 6330 1bbb 20       		.byte	0x20
 6331 1bbc 20       		.byte	0x20
 6332 1bbd DC1C0000 		.4byte	0x1cdc
 6333 1bc1 12       		.uleb128 0x12
 6334 1bc2 68050000 		.4byte	.LASF504
 6335 1bc6 00       		.byte	0
 6336 1bc7 12       		.uleb128 0x12
 6337 1bc8 051E0000 		.4byte	.LASF505
 6338 1bcc 01       		.byte	0x1
 6339 1bcd 12       		.uleb128 0x12
 6340 1bce EA1D0000 		.4byte	.LASF506
 6341 1bd2 02       		.byte	0x2
 6342 1bd3 12       		.uleb128 0x12
 6343 1bd4 EB270000 		.4byte	.LASF507
 6344 1bd8 03       		.byte	0x3
 6345 1bd9 12       		.uleb128 0x12
 6346 1bda 1E040000 		.4byte	.LASF508
 6347 1bde 04       		.byte	0x4
 6348 1bdf 12       		.uleb128 0x12
 6349 1be0 90030000 		.4byte	.LASF509
 6350 1be4 05       		.byte	0x5
 6351 1be5 12       		.uleb128 0x12
 6352 1be6 C71B0000 		.4byte	.LASF510
 6353 1bea 06       		.byte	0x6
ARM GAS  C:\Users\haske\AppData\Local\Temp\ccGWO5DZ.s 			page 140


 6354 1beb 12       		.uleb128 0x12
 6355 1bec 5E170000 		.4byte	.LASF511
 6356 1bf0 07       		.byte	0x7
 6357 1bf1 12       		.uleb128 0x12
 6358 1bf2 FA290000 		.4byte	.LASF512
 6359 1bf6 08       		.byte	0x8
 6360 1bf7 12       		.uleb128 0x12
 6361 1bf8 B2170000 		.4byte	.LASF513
 6362 1bfc 09       		.byte	0x9
 6363 1bfd 12       		.uleb128 0x12
 6364 1bfe 6B250000 		.4byte	.LASF514
 6365 1c02 0A       		.byte	0xa
 6366 1c03 12       		.uleb128 0x12
 6367 1c04 4F160000 		.4byte	.LASF515
 6368 1c08 0B       		.byte	0xb
 6369 1c09 12       		.uleb128 0x12
 6370 1c0a 7F030000 		.4byte	.LASF516
 6371 1c0e 0C       		.byte	0xc
 6372 1c0f 12       		.uleb128 0x12
 6373 1c10 A9270000 		.4byte	.LASF517
 6374 1c14 0D       		.byte	0xd
 6375 1c15 12       		.uleb128 0x12
 6376 1c16 81280000 		.4byte	.LASF518
 6377 1c1a 0E       		.byte	0xe
 6378 1c1b 12       		.uleb128 0x12
 6379 1c1c 9E250000 		.4byte	.LASF519
 6380 1c20 0F       		.byte	0xf
 6381 1c21 12       		.uleb128 0x12
 6382 1c22 39120000 		.4byte	.LASF520
 6383 1c26 10       		.byte	0x10
 6384 1c27 12       		.uleb128 0x12
 6385 1c28 6A0C0000 		.4byte	.LASF521
 6386 1c2c 11       		.byte	0x11
 6387 1c2d 12       		.uleb128 0x12
 6388 1c2e 030C0000 		.4byte	.LASF522
 6389 1c32 12       		.byte	0x12
 6390 1c33 12       		.uleb128 0x12
 6391 1c34 9C0B0000 		.4byte	.LASF523
 6392 1c38 13       		.byte	0x13
 6393 1c39 12       		.uleb128 0x12
 6394 1c3a 85000000 		.4byte	.LASF524
 6395 1c3e 14       		.byte	0x14
 6396 1c3f 12       		.uleb128 0x12
 6397 1c40 32090000 		.4byte	.LASF525
 6398 1c44 15       		.byte	0x15
 6399 1c45 12       		.uleb128 0x12
 6400 1c46 6C100000 		.4byte	.LASF526
 6401 1c4a 16       		.byte	0x16
 6402 1c4b 12       		.uleb128 0x12
 6403 1c4c D1180000 		.4byte	.LASF527
 6404 1c50 17       		.byte	0x17
 6405 1c51 12       		.uleb128 0x12
 6406 1c52 B1260000 		.4byte	.LASF528
 6407 1c56 18       		.byte	0x18
 6408 1c57 12       		.uleb128 0x12
 6409 1c58 83230000 		.4byte	.LASF529
 6410 1c5c 19       		.byte	0x19
ARM GAS  C:\Users\haske\AppData\Local\Temp\ccGWO5DZ.s 			page 141


 6411 1c5d 12       		.uleb128 0x12
 6412 1c5e 9A230000 		.4byte	.LASF530
 6413 1c62 1A       		.byte	0x1a
 6414 1c63 12       		.uleb128 0x12
 6415 1c64 23070000 		.4byte	.LASF531
 6416 1c68 1B       		.byte	0x1b
 6417 1c69 12       		.uleb128 0x12
 6418 1c6a C9190000 		.4byte	.LASF532
 6419 1c6e 1C       		.byte	0x1c
 6420 1c6f 12       		.uleb128 0x12
 6421 1c70 99010000 		.4byte	.LASF533
 6422 1c74 1D       		.byte	0x1d
 6423 1c75 12       		.uleb128 0x12
 6424 1c76 43140000 		.4byte	.LASF534
 6425 1c7a 1E       		.byte	0x1e
 6426 1c7b 12       		.uleb128 0x12
 6427 1c7c 98260000 		.4byte	.LASF535
 6428 1c80 1F       		.byte	0x1f
 6429 1c81 12       		.uleb128 0x12
 6430 1c82 2C1E0000 		.4byte	.LASF536
 6431 1c86 20       		.byte	0x20
 6432 1c87 12       		.uleb128 0x12
 6433 1c88 B2180000 		.4byte	.LASF537
 6434 1c8c 21       		.byte	0x21
 6435 1c8d 12       		.uleb128 0x12
 6436 1c8e A8020000 		.4byte	.LASF538
 6437 1c92 22       		.byte	0x22
 6438 1c93 12       		.uleb128 0x12
 6439 1c94 DC030000 		.4byte	.LASF539
 6440 1c98 23       		.byte	0x23
 6441 1c99 12       		.uleb128 0x12
 6442 1c9a AD140000 		.4byte	.LASF540
 6443 1c9e 24       		.byte	0x24
 6444 1c9f 12       		.uleb128 0x12
 6445 1ca0 03290000 		.4byte	.LASF541
 6446 1ca4 25       		.byte	0x25
 6447 1ca5 12       		.uleb128 0x12
 6448 1ca6 C21A0000 		.4byte	.LASF542
 6449 1caa 26       		.byte	0x26
 6450 1cab 12       		.uleb128 0x12
 6451 1cac 610D0000 		.4byte	.LASF543
 6452 1cb0 27       		.byte	0x27
 6453 1cb1 12       		.uleb128 0x12
 6454 1cb2 AE210000 		.4byte	.LASF544
 6455 1cb6 28       		.byte	0x28
 6456 1cb7 12       		.uleb128 0x12
 6457 1cb8 01270000 		.4byte	.LASF545
 6458 1cbc 29       		.byte	0x29
 6459 1cbd 12       		.uleb128 0x12
 6460 1cbe 74260000 		.4byte	.LASF546
 6461 1cc2 2A       		.byte	0x2a
 6462 1cc3 12       		.uleb128 0x12
 6463 1cc4 5C270000 		.4byte	.LASF547
 6464 1cc8 2B       		.byte	0x2b
 6465 1cc9 12       		.uleb128 0x12
 6466 1cca 1B090000 		.4byte	.LASF548
 6467 1cce 2C       		.byte	0x2c
ARM GAS  C:\Users\haske\AppData\Local\Temp\ccGWO5DZ.s 			page 142


 6468 1ccf 12       		.uleb128 0x12
 6469 1cd0 9D1E0000 		.4byte	.LASF549
 6470 1cd4 2D       		.byte	0x2d
 6471 1cd5 12       		.uleb128 0x12
 6472 1cd6 76120000 		.4byte	.LASF550
 6473 1cda 80       		.byte	0x80
 6474 1cdb 00       		.byte	0
 6475 1cdc 02       		.uleb128 0x2
 6476 1cdd C2150000 		.4byte	.LASF551
 6477 1ce1 20       		.byte	0x20
 6478 1ce2 5C       		.byte	0x5c
 6479 1ce3 B51B0000 		.4byte	0x1bb5
 6480 1ce7 02       		.uleb128 0x2
 6481 1ce8 9D020000 		.4byte	.LASF552
 6482 1cec 20       		.byte	0x20
 6483 1ced 68       		.byte	0x68
 6484 1cee FC1A0000 		.4byte	0x1afc
 6485 1cf2 0B       		.uleb128 0xb
 6486 1cf3 04       		.byte	0x4
 6487 1cf4 E71C0000 		.4byte	0x1ce7
 6488 1cf8 05       		.uleb128 0x5
 6489 1cf9 08       		.byte	0x8
 6490 1cfa 20       		.byte	0x20
 6491 1cfb 78       		.byte	0x78
 6492 1cfc 191D0000 		.4byte	0x1d19
 6493 1d00 07       		.uleb128 0x7
 6494 1d01 18040000 		.4byte	.LASF553
 6495 1d05 20       		.byte	0x20
 6496 1d06 79       		.byte	0x79
 6497 1d07 91100000 		.4byte	0x1091
 6498 1d0b 00       		.byte	0
 6499 1d0c 06       		.uleb128 0x6
 6500 1d0d 72657300 		.ascii	"res\000"
 6501 1d11 20       		.byte	0x20
 6502 1d12 7A       		.byte	0x7a
 6503 1d13 AA020000 		.4byte	0x2aa
 6504 1d17 04       		.byte	0x4
 6505 1d18 00       		.byte	0
 6506 1d19 02       		.uleb128 0x2
 6507 1d1a 36020000 		.4byte	.LASF554
 6508 1d1e 20       		.byte	0x20
 6509 1d1f 7B       		.byte	0x7b
 6510 1d20 F81C0000 		.4byte	0x1cf8
 6511 1d24 05       		.uleb128 0x5
 6512 1d25 08       		.byte	0x8
 6513 1d26 20       		.byte	0x20
 6514 1d27 82       		.byte	0x82
 6515 1d28 451D0000 		.4byte	0x1d45
 6516 1d2c 06       		.uleb128 0x6
 6517 1d2d 72657300 		.ascii	"res\000"
 6518 1d31 20       		.byte	0x20
 6519 1d32 83       		.byte	0x83
 6520 1d33 521A0000 		.4byte	0x1a52
 6521 1d37 00       		.byte	0
 6522 1d38 07       		.uleb128 0x7
 6523 1d39 1F110000 		.4byte	.LASF555
 6524 1d3d 20       		.byte	0x20
ARM GAS  C:\Users\haske\AppData\Local\Temp\ccGWO5DZ.s 			page 143


 6525 1d3e 84       		.byte	0x84
 6526 1d3f AB0E0000 		.4byte	0xeab
 6527 1d43 04       		.byte	0x4
 6528 1d44 00       		.byte	0
 6529 1d45 02       		.uleb128 0x2
 6530 1d46 44070000 		.4byte	.LASF556
 6531 1d4a 20       		.byte	0x20
 6532 1d4b 85       		.byte	0x85
 6533 1d4c 241D0000 		.4byte	0x1d24
 6534 1d50 02       		.uleb128 0x2
 6535 1d51 3B1F0000 		.4byte	.LASF557
 6536 1d55 1B       		.byte	0x1b
 6537 1d56 34       		.byte	0x34
 6538 1d57 5B1D0000 		.4byte	0x1d5b
 6539 1d5b 0B       		.uleb128 0xb
 6540 1d5c 04       		.byte	0x4
 6541 1d5d 611D0000 		.4byte	0x1d61
 6542 1d61 1F       		.uleb128 0x1f
 6543 1d62 6C1D0000 		.4byte	0x1d6c
 6544 1d66 0E       		.uleb128 0xe
 6545 1d67 62180000 		.4byte	0x1862
 6546 1d6b 00       		.byte	0
 6547 1d6c 02       		.uleb128 0x2
 6548 1d6d 6A0F0000 		.4byte	.LASF558
 6549 1d71 1B       		.byte	0x1b
 6550 1d72 35       		.byte	0x35
 6551 1d73 771D0000 		.4byte	0x1d77
 6552 1d77 0B       		.uleb128 0xb
 6553 1d78 04       		.byte	0x4
 6554 1d79 7D1D0000 		.4byte	0x1d7d
 6555 1d7d 1F       		.uleb128 0x1f
 6556 1d7e 8D1D0000 		.4byte	0x1d8d
 6557 1d82 0E       		.uleb128 0xe
 6558 1d83 62180000 		.4byte	0x1862
 6559 1d87 0E       		.uleb128 0xe
 6560 1d88 AA020000 		.4byte	0x2aa
 6561 1d8c 00       		.byte	0
 6562 1d8d 02       		.uleb128 0x2
 6563 1d8e 8E090000 		.4byte	.LASF559
 6564 1d92 1B       		.byte	0x1b
 6565 1d93 4E       		.byte	0x4e
 6566 1d94 DD170000 		.4byte	0x17dd
 6567 1d98 05       		.uleb128 0x5
 6568 1d99 1C       		.byte	0x1c
 6569 1d9a 0F       		.byte	0xf
 6570 1d9b 9B       		.byte	0x9b
 6571 1d9c 4F1E0000 		.4byte	0x1e4f
 6572 1da0 07       		.uleb128 0x7
 6573 1da1 C3160000 		.4byte	.LASF560
 6574 1da5 0F       		.byte	0xf
 6575 1da6 9C       		.byte	0x9c
 6576 1da7 A6170000 		.4byte	0x17a6
 6577 1dab 00       		.byte	0
 6578 1dac 07       		.uleb128 0x7
 6579 1dad 06120000 		.4byte	.LASF561
 6580 1db1 0F       		.byte	0xf
 6581 1db2 9D       		.byte	0x9d
ARM GAS  C:\Users\haske\AppData\Local\Temp\ccGWO5DZ.s 			page 144


 6582 1db3 E4000000 		.4byte	0xe4
 6583 1db7 04       		.byte	0x4
 6584 1db8 07       		.uleb128 0x7
 6585 1db9 290E0000 		.4byte	.LASF562
 6586 1dbd 0F       		.byte	0xf
 6587 1dbe 9E       		.byte	0x9e
 6588 1dbf 4F1E0000 		.4byte	0x1e4f
 6589 1dc3 08       		.byte	0x8
 6590 1dc4 07       		.uleb128 0x7
 6591 1dc5 C70D0000 		.4byte	.LASF563
 6592 1dc9 0F       		.byte	0xf
 6593 1dca A0       		.byte	0xa0
 6594 1dcb 5A1E0000 		.4byte	0x1e5a
 6595 1dcf 0C       		.byte	0xc
 6596 1dd0 07       		.uleb128 0x7
 6597 1dd1 830E0000 		.4byte	.LASF564
 6598 1dd5 0F       		.byte	0xf
 6599 1dd6 A1       		.byte	0xa1
 6600 1dd7 29010000 		.4byte	0x129
 6601 1ddb 10       		.byte	0x10
 6602 1ddc 07       		.uleb128 0x7
 6603 1ddd 34240000 		.4byte	.LASF565
 6604 1de1 0F       		.byte	0xf
 6605 1de2 A3       		.byte	0xa3
 6606 1de3 01010000 		.4byte	0x101
 6607 1de7 14       		.byte	0x14
 6608 1de8 07       		.uleb128 0x7
 6609 1de9 57180000 		.4byte	.LASF566
 6610 1ded 0F       		.byte	0xf
 6611 1dee A4       		.byte	0xa4
 6612 1def 01010000 		.4byte	0x101
 6613 1df3 16       		.byte	0x16
 6614 1df4 09       		.uleb128 0x9
 6615 1df5 4C0A0000 		.4byte	.LASF567
 6616 1df9 0F       		.byte	0xf
 6617 1dfa A6       		.byte	0xa6
 6618 1dfb CA190000 		.4byte	0x19ca
 6619 1dff 01       		.byte	0x1
 6620 1e00 02       		.byte	0x2
 6621 1e01 06       		.byte	0x6
 6622 1e02 18       		.byte	0x18
 6623 1e03 09       		.uleb128 0x9
 6624 1e04 53020000 		.4byte	.LASF568
 6625 1e08 0F       		.byte	0xf
 6626 1e09 A7       		.byte	0xa7
 6627 1e0a D5190000 		.4byte	0x19d5
 6628 1e0e 01       		.byte	0x1
 6629 1e0f 02       		.byte	0x2
 6630 1e10 04       		.byte	0x4
 6631 1e11 18       		.byte	0x18
 6632 1e12 09       		.uleb128 0x9
 6633 1e13 61020000 		.4byte	.LASF569
 6634 1e17 0F       		.byte	0xf
 6635 1e18 A8       		.byte	0xa8
 6636 1e19 D5190000 		.4byte	0x19d5
 6637 1e1d 01       		.byte	0x1
 6638 1e1e 02       		.byte	0x2
ARM GAS  C:\Users\haske\AppData\Local\Temp\ccGWO5DZ.s 			page 145


 6639 1e1f 02       		.byte	0x2
 6640 1e20 18       		.byte	0x18
 6641 1e21 09       		.uleb128 0x9
 6642 1e22 D0050000 		.4byte	.LASF570
 6643 1e26 0F       		.byte	0xf
 6644 1e27 A9       		.byte	0xa9
 6645 1e28 74010000 		.4byte	0x174
 6646 1e2c 01       		.byte	0x1
 6647 1e2d 04       		.byte	0x4
 6648 1e2e 04       		.byte	0x4
 6649 1e2f 19       		.byte	0x19
 6650 1e30 09       		.uleb128 0x9
 6651 1e31 5F2A0000 		.4byte	.LASF571
 6652 1e35 0F       		.byte	0xf
 6653 1e36 AA       		.byte	0xaa
 6654 1e37 B8000000 		.4byte	0xb8
 6655 1e3b 01       		.byte	0x1
 6656 1e3c 06       		.byte	0x6
 6657 1e3d 02       		.byte	0x2
 6658 1e3e 1A       		.byte	0x1a
 6659 1e3f 09       		.uleb128 0x9
 6660 1e40 FA0E0000 		.4byte	.LASF572
 6661 1e44 0F       		.byte	0xf
 6662 1e45 AB       		.byte	0xab
 6663 1e46 B8000000 		.4byte	0xb8
 6664 1e4a 01       		.byte	0x1
 6665 1e4b 02       		.byte	0x2
 6666 1e4c 00       		.byte	0
 6667 1e4d 1A       		.byte	0x1a
 6668 1e4e 00       		.byte	0
 6669 1e4f 0B       		.uleb128 0xb
 6670 1e50 04       		.byte	0x4
 6671 1e51 8D1D0000 		.4byte	0x1d8d
 6672 1e55 24       		.uleb128 0x24
 6673 1e56 0B280000 		.4byte	.LASF683
 6674 1e5a 0B       		.uleb128 0xb
 6675 1e5b 04       		.byte	0x4
 6676 1e5c 551E0000 		.4byte	0x1e55
 6677 1e60 02       		.uleb128 0x2
 6678 1e61 99090000 		.4byte	.LASF573
 6679 1e65 0F       		.byte	0xf
 6680 1e66 AC       		.byte	0xac
 6681 1e67 981D0000 		.4byte	0x1d98
 6682 1e6b 0B       		.uleb128 0xb
 6683 1e6c 04       		.byte	0x4
 6684 1e6d 711E0000 		.4byte	0x1e71
 6685 1e71 0C       		.uleb128 0xc
 6686 1e72 AA1B0000 		.4byte	0x1baa
 6687 1e76 0B       		.uleb128 0xb
 6688 1e77 04       		.byte	0x4
 6689 1e78 601E0000 		.4byte	0x1e60
 6690 1e7c 0B       		.uleb128 0xb
 6691 1e7d 04       		.byte	0x4
 6692 1e7e 281A0000 		.4byte	0x1a28
 6693 1e82 02       		.uleb128 0x2
 6694 1e83 CD250000 		.4byte	.LASF574
 6695 1e87 0F       		.byte	0xf
ARM GAS  C:\Users\haske\AppData\Local\Temp\ccGWO5DZ.s 			page 146


 6696 1e88 BF       		.byte	0xbf
 6697 1e89 AC090000 		.4byte	0x9ac
 6698 1e8d 05       		.uleb128 0x5
 6699 1e8e 3C       		.byte	0x3c
 6700 1e8f 21       		.byte	0x21
 6701 1e90 28       		.byte	0x28
 6702 1e91 2D1F0000 		.4byte	0x1f2d
 6703 1e95 06       		.uleb128 0x6
 6704 1e96 6F626A00 		.ascii	"obj\000"
 6705 1e9a 21       		.byte	0x21
 6706 1e9b 29       		.byte	0x29
 6707 1e9c 821E0000 		.4byte	0x1e82
 6708 1ea0 00       		.byte	0
 6709 1ea1 06       		.uleb128 0x6
 6710 1ea2 73726300 		.ascii	"src\000"
 6711 1ea6 21       		.byte	0x21
 6712 1ea7 2A       		.byte	0x2a
 6713 1ea8 E2020000 		.4byte	0x2e2
 6714 1eac 24       		.byte	0x24
 6715 1ead 07       		.uleb128 0x7
 6716 1eae 891A0000 		.4byte	.LASF575
 6717 1eb2 21       		.byte	0x21
 6718 1eb3 2B       		.byte	0x2b
 6719 1eb4 29010000 		.4byte	0x129
 6720 1eb8 28       		.byte	0x28
 6721 1eb9 06       		.uleb128 0x6
 6722 1eba 7700     		.ascii	"w\000"
 6723 1ebc 21       		.byte	0x21
 6724 1ebd 2C       		.byte	0x2c
 6725 1ebe 01010000 		.4byte	0x101
 6726 1ec2 2C       		.byte	0x2c
 6727 1ec3 06       		.uleb128 0x6
 6728 1ec4 6800     		.ascii	"h\000"
 6729 1ec6 21       		.byte	0x21
 6730 1ec7 2D       		.byte	0x2d
 6731 1ec8 01010000 		.4byte	0x101
 6732 1ecc 2E       		.byte	0x2e
 6733 1ecd 07       		.uleb128 0x7
 6734 1ece 70140000 		.4byte	.LASF291
 6735 1ed2 21       		.byte	0x21
 6736 1ed3 2E       		.byte	0x2e
 6737 1ed4 CE000000 		.4byte	0xce
 6738 1ed8 30       		.byte	0x30
 6739 1ed9 07       		.uleb128 0x7
 6740 1eda 26220000 		.4byte	.LASF293
 6741 1ede 21       		.byte	0x21
 6742 1edf 2F       		.byte	0x2f
 6743 1ee0 29010000 		.4byte	0x129
 6744 1ee4 32       		.byte	0x32
 6745 1ee5 07       		.uleb128 0x7
 6746 1ee6 36140000 		.4byte	.LASF292
 6747 1eea 21       		.byte	0x21
 6748 1eeb 30       		.byte	0x30
 6749 1eec CE000000 		.4byte	0xce
 6750 1ef0 36       		.byte	0x36
 6751 1ef1 09       		.uleb128 0x9
 6752 1ef2 EF280000 		.4byte	.LASF576
ARM GAS  C:\Users\haske\AppData\Local\Temp\ccGWO5DZ.s 			page 147


 6753 1ef6 21       		.byte	0x21
 6754 1ef7 31       		.byte	0x31
 6755 1ef8 B8000000 		.4byte	0xb8
 6756 1efc 01       		.byte	0x1
 6757 1efd 02       		.byte	0x2
 6758 1efe 06       		.byte	0x6
 6759 1eff 38       		.byte	0x38
 6760 1f00 08       		.uleb128 0x8
 6761 1f01 636600   		.ascii	"cf\000"
 6762 1f04 21       		.byte	0x21
 6763 1f05 32       		.byte	0x32
 6764 1f06 B8000000 		.4byte	0xb8
 6765 1f0a 01       		.byte	0x1
 6766 1f0b 05       		.byte	0x5
 6767 1f0c 01       		.byte	0x1
 6768 1f0d 38       		.byte	0x38
 6769 1f0e 09       		.uleb128 0x9
 6770 1f0f A71B0000 		.4byte	.LASF297
 6771 1f13 21       		.byte	0x21
 6772 1f14 33       		.byte	0x33
 6773 1f15 B8000000 		.4byte	0xb8
 6774 1f19 01       		.byte	0x1
 6775 1f1a 01       		.byte	0x1
 6776 1f1b 00       		.byte	0
 6777 1f1c 38       		.byte	0x38
 6778 1f1d 09       		.uleb128 0x9
 6779 1f1e DC130000 		.4byte	.LASF577
 6780 1f22 21       		.byte	0x21
 6781 1f23 34       		.byte	0x34
 6782 1f24 B8000000 		.4byte	0xb8
 6783 1f28 01       		.byte	0x1
 6784 1f29 02       		.byte	0x2
 6785 1f2a 06       		.byte	0x6
 6786 1f2b 39       		.byte	0x39
 6787 1f2c 00       		.byte	0
 6788 1f2d 02       		.uleb128 0x2
 6789 1f2e 6C1D0000 		.4byte	.LASF578
 6790 1f32 21       		.byte	0x21
 6791 1f33 35       		.byte	0x35
 6792 1f34 8D1E0000 		.4byte	0x1e8d
 6793 1f38 11       		.uleb128 0x11
 6794 1f39 01       		.byte	0x1
 6795 1f3a 42000000 		.4byte	0x42
 6796 1f3e 21       		.byte	0x21
 6797 1f3f 3C       		.byte	0x3c
 6798 1f40 511F0000 		.4byte	0x1f51
 6799 1f44 12       		.uleb128 0x12
 6800 1f45 84040000 		.4byte	.LASF579
 6801 1f49 00       		.byte	0
 6802 1f4a 12       		.uleb128 0x12
 6803 1f4b 0F200000 		.4byte	.LASF580
 6804 1f4f 01       		.byte	0x1
 6805 1f50 00       		.byte	0
 6806 1f51 02       		.uleb128 0x2
 6807 1f52 32180000 		.4byte	.LASF581
 6808 1f56 21       		.byte	0x21
 6809 1f57 48       		.byte	0x48
ARM GAS  C:\Users\haske\AppData\Local\Temp\ccGWO5DZ.s 			page 148


 6810 1f58 B8000000 		.4byte	0xb8
 6811 1f5c 02       		.uleb128 0x2
 6812 1f5d C90E0000 		.4byte	.LASF582
 6813 1f61 1A       		.byte	0x1a
 6814 1f62 1D       		.byte	0x1d
 6815 1f63 671F0000 		.4byte	0x1f67
 6816 1f67 0B       		.uleb128 0xb
 6817 1f68 04       		.byte	0x4
 6818 1f69 6D1F0000 		.4byte	0x1f6d
 6819 1f6d 1F       		.uleb128 0x1f
 6820 1f6e 7D1F0000 		.4byte	0x1f7d
 6821 1f72 0E       		.uleb128 0xe
 6822 1f73 A0170000 		.4byte	0x17a0
 6823 1f77 0E       		.uleb128 0xe
 6824 1f78 7D1F0000 		.4byte	0x1f7d
 6825 1f7c 00       		.byte	0
 6826 1f7d 0B       		.uleb128 0xb
 6827 1f7e 04       		.byte	0x4
 6828 1f7f 821E0000 		.4byte	0x1e82
 6829 1f83 25       		.uleb128 0x25
 6830 1f84 46200000 		.4byte	.LASF583
 6831 1f88 02       		.byte	0x2
 6832 1f89 85       		.byte	0x85
 6833 1f8a 01010000 		.4byte	0x101
 6834 1f8e 03       		.byte	0x3
 6835 1f8f 9F1F0000 		.4byte	0x1f9f
 6836 1f93 26       		.uleb128 0x26
 6837 1f94 D2060000 		.4byte	.LASF585
 6838 1f98 02       		.byte	0x2
 6839 1f99 85       		.byte	0x85
 6840 1f9a AB0E0000 		.4byte	0xeab
 6841 1f9e 00       		.byte	0
 6842 1f9f 25       		.uleb128 0x25
 6843 1fa0 FA240000 		.4byte	.LASF584
 6844 1fa4 02       		.byte	0x2
 6845 1fa5 7B       		.byte	0x7b
 6846 1fa6 01010000 		.4byte	0x101
 6847 1faa 03       		.byte	0x3
 6848 1fab BB1F0000 		.4byte	0x1fbb
 6849 1faf 26       		.uleb128 0x26
 6850 1fb0 D2060000 		.4byte	.LASF585
 6851 1fb4 02       		.byte	0x2
 6852 1fb5 7B       		.byte	0x7b
 6853 1fb6 AB0E0000 		.4byte	0xeab
 6854 1fba 00       		.byte	0
 6855 1fbb 27       		.uleb128 0x27
 6856 1fbc 0B050000 		.4byte	.LASF586
 6857 1fc0 03       		.byte	0x3
 6858 1fc1 5701     		.2byte	0x157
 6859 1fc3 F3030000 		.4byte	0x3f3
 6860 1fc7 03       		.byte	0x3
 6861 1fc8 EF1F0000 		.4byte	0x1fef
 6862 1fcc 28       		.uleb128 0x28
 6863 1fcd 6F626A00 		.ascii	"obj\000"
 6864 1fd1 03       		.byte	0x3
 6865 1fd2 5701     		.2byte	0x157
 6866 1fd4 EF1F0000 		.4byte	0x1fef
ARM GAS  C:\Users\haske\AppData\Local\Temp\ccGWO5DZ.s 			page 149


 6867 1fd8 29       		.uleb128 0x29
 6868 1fd9 9D290000 		.4byte	.LASF587
 6869 1fdd 03       		.byte	0x3
 6870 1fde 5701     		.2byte	0x157
 6871 1fe0 E4000000 		.4byte	0xe4
 6872 1fe4 2A       		.uleb128 0x2a
 6873 1fe5 7600     		.ascii	"v\000"
 6874 1fe7 03       		.byte	0x3
 6875 1fe8 5901     		.2byte	0x159
 6876 1fea 2B050000 		.4byte	0x52b
 6877 1fee 00       		.byte	0
 6878 1fef 0B       		.uleb128 0xb
 6879 1ff0 04       		.byte	0x4
 6880 1ff1 F51F0000 		.4byte	0x1ff5
 6881 1ff5 0C       		.uleb128 0xc
 6882 1ff6 AC090000 		.4byte	0x9ac
 6883 1ffa 25       		.uleb128 0x25
 6884 1ffb 6C160000 		.4byte	.LASF588
 6885 1fff 03       		.byte	0x3
 6886 2000 6D       		.byte	0x6d
 6887 2001 01010000 		.4byte	0x101
 6888 2005 03       		.byte	0x3
 6889 2006 2A200000 		.4byte	0x202a
 6890 200a 2B       		.uleb128 0x2b
 6891 200b 6F626A00 		.ascii	"obj\000"
 6892 200f 03       		.byte	0x3
 6893 2010 6D       		.byte	0x6d
 6894 2011 EF1F0000 		.4byte	0x1fef
 6895 2015 26       		.uleb128 0x26
 6896 2016 9D290000 		.4byte	.LASF587
 6897 201a 03       		.byte	0x3
 6898 201b 6D       		.byte	0x6d
 6899 201c E4000000 		.4byte	0xe4
 6900 2020 2C       		.uleb128 0x2c
 6901 2021 7600     		.ascii	"v\000"
 6902 2023 03       		.byte	0x3
 6903 2024 6F       		.byte	0x6f
 6904 2025 2B050000 		.4byte	0x52b
 6905 2029 00       		.byte	0
 6906 202a 25       		.uleb128 0x25
 6907 202b 66070000 		.4byte	.LASF589
 6908 202f 03       		.byte	0x3
 6909 2030 67       		.byte	0x67
 6910 2031 01010000 		.4byte	0x101
 6911 2035 03       		.byte	0x3
 6912 2036 5A200000 		.4byte	0x205a
 6913 203a 2B       		.uleb128 0x2b
 6914 203b 6F626A00 		.ascii	"obj\000"
 6915 203f 03       		.byte	0x3
 6916 2040 67       		.byte	0x67
 6917 2041 EF1F0000 		.4byte	0x1fef
 6918 2045 26       		.uleb128 0x26
 6919 2046 9D290000 		.4byte	.LASF587
 6920 204a 03       		.byte	0x3
 6921 204b 67       		.byte	0x67
 6922 204c E4000000 		.4byte	0xe4
 6923 2050 2C       		.uleb128 0x2c
ARM GAS  C:\Users\haske\AppData\Local\Temp\ccGWO5DZ.s 			page 150


 6924 2051 7600     		.ascii	"v\000"
 6925 2053 03       		.byte	0x3
 6926 2054 69       		.byte	0x69
 6927 2055 2B050000 		.4byte	0x52b
 6928 2059 00       		.byte	0
 6929 205a 25       		.uleb128 0x25
 6930 205b 090D0000 		.4byte	.LASF590
 6931 205f 03       		.byte	0x3
 6932 2060 79       		.byte	0x79
 6933 2061 01010000 		.4byte	0x101
 6934 2065 03       		.byte	0x3
 6935 2066 8A200000 		.4byte	0x208a
 6936 206a 2B       		.uleb128 0x2b
 6937 206b 6F626A00 		.ascii	"obj\000"
 6938 206f 03       		.byte	0x3
 6939 2070 79       		.byte	0x79
 6940 2071 EF1F0000 		.4byte	0x1fef
 6941 2075 26       		.uleb128 0x26
 6942 2076 9D290000 		.4byte	.LASF587
 6943 207a 03       		.byte	0x3
 6944 207b 79       		.byte	0x79
 6945 207c E4000000 		.4byte	0xe4
 6946 2080 2C       		.uleb128 0x2c
 6947 2081 7600     		.ascii	"v\000"
 6948 2083 03       		.byte	0x3
 6949 2084 7B       		.byte	0x7b
 6950 2085 2B050000 		.4byte	0x52b
 6951 2089 00       		.byte	0
 6952 208a 25       		.uleb128 0x25
 6953 208b 190F0000 		.4byte	.LASF591
 6954 208f 03       		.byte	0x3
 6955 2090 73       		.byte	0x73
 6956 2091 01010000 		.4byte	0x101
 6957 2095 03       		.byte	0x3
 6958 2096 BA200000 		.4byte	0x20ba
 6959 209a 2B       		.uleb128 0x2b
 6960 209b 6F626A00 		.ascii	"obj\000"
 6961 209f 03       		.byte	0x3
 6962 20a0 73       		.byte	0x73
 6963 20a1 EF1F0000 		.4byte	0x1fef
 6964 20a5 26       		.uleb128 0x26
 6965 20a6 9D290000 		.4byte	.LASF587
 6966 20aa 03       		.byte	0x3
 6967 20ab 73       		.byte	0x73
 6968 20ac E4000000 		.4byte	0xe4
 6969 20b0 2C       		.uleb128 0x2c
 6970 20b1 7600     		.ascii	"v\000"
 6971 20b3 03       		.byte	0x3
 6972 20b4 75       		.byte	0x75
 6973 20b5 2B050000 		.4byte	0x52b
 6974 20b9 00       		.byte	0
 6975 20ba 25       		.uleb128 0x25
 6976 20bb 0F140000 		.4byte	.LASF592
 6977 20bf 03       		.byte	0x3
 6978 20c0 FD       		.byte	0xfd
 6979 20c1 01010000 		.4byte	0x101
 6980 20c5 03       		.byte	0x3
ARM GAS  C:\Users\haske\AppData\Local\Temp\ccGWO5DZ.s 			page 151


 6981 20c6 EA200000 		.4byte	0x20ea
 6982 20ca 2B       		.uleb128 0x2b
 6983 20cb 6F626A00 		.ascii	"obj\000"
 6984 20cf 03       		.byte	0x3
 6985 20d0 FD       		.byte	0xfd
 6986 20d1 EF1F0000 		.4byte	0x1fef
 6987 20d5 26       		.uleb128 0x26
 6988 20d6 9D290000 		.4byte	.LASF587
 6989 20da 03       		.byte	0x3
 6990 20db FD       		.byte	0xfd
 6991 20dc E4000000 		.4byte	0xe4
 6992 20e0 2C       		.uleb128 0x2c
 6993 20e1 7600     		.ascii	"v\000"
 6994 20e3 03       		.byte	0x3
 6995 20e4 FF       		.byte	0xff
 6996 20e5 2B050000 		.4byte	0x52b
 6997 20e9 00       		.byte	0
 6998 20ea 2D       		.uleb128 0x2d
 6999 20eb 8F0B0000 		.4byte	.LASF684
 7000 20ef 02       		.byte	0x2
 7001 20f0 6E       		.byte	0x6e
 7002 20f1 03       		.byte	0x3
 7003 20f2 0D210000 		.4byte	0x210d
 7004 20f6 26       		.uleb128 0x26
 7005 20f7 D9210000 		.4byte	.LASF593
 7006 20fb 02       		.byte	0x2
 7007 20fc 6E       		.byte	0x6e
 7008 20fd B60E0000 		.4byte	0xeb6
 7009 2101 2B       		.uleb128 0x2b
 7010 2102 73726300 		.ascii	"src\000"
 7011 2106 02       		.byte	0x2
 7012 2107 6E       		.byte	0x6e
 7013 2108 AB0E0000 		.4byte	0xeab
 7014 210c 00       		.byte	0
 7015 210d 27       		.uleb128 0x27
 7016 210e EE060000 		.4byte	.LASF594
 7017 2112 03       		.byte	0x3
 7018 2113 DB01     		.2byte	0x1db
 7019 2115 01010000 		.4byte	0x101
 7020 2119 03       		.byte	0x3
 7021 211a 41210000 		.4byte	0x2141
 7022 211e 28       		.uleb128 0x28
 7023 211f 6F626A00 		.ascii	"obj\000"
 7024 2123 03       		.byte	0x3
 7025 2124 DB01     		.2byte	0x1db
 7026 2126 EF1F0000 		.4byte	0x1fef
 7027 212a 29       		.uleb128 0x29
 7028 212b 9D290000 		.4byte	.LASF587
 7029 212f 03       		.byte	0x3
 7030 2130 DB01     		.2byte	0x1db
 7031 2132 E4000000 		.4byte	0xe4
 7032 2136 2A       		.uleb128 0x2a
 7033 2137 7600     		.ascii	"v\000"
 7034 2139 03       		.byte	0x3
 7035 213a DD01     		.2byte	0x1dd
 7036 213c 2B050000 		.4byte	0x52b
 7037 2140 00       		.byte	0
ARM GAS  C:\Users\haske\AppData\Local\Temp\ccGWO5DZ.s 			page 152


 7038 2141 27       		.uleb128 0x27
 7039 2142 E60C0000 		.4byte	.LASF595
 7040 2146 03       		.byte	0x3
 7041 2147 D501     		.2byte	0x1d5
 7042 2149 01010000 		.4byte	0x101
 7043 214d 03       		.byte	0x3
 7044 214e 75210000 		.4byte	0x2175
 7045 2152 28       		.uleb128 0x28
 7046 2153 6F626A00 		.ascii	"obj\000"
 7047 2157 03       		.byte	0x3
 7048 2158 D501     		.2byte	0x1d5
 7049 215a EF1F0000 		.4byte	0x1fef
 7050 215e 29       		.uleb128 0x29
 7051 215f 9D290000 		.4byte	.LASF587
 7052 2163 03       		.byte	0x3
 7053 2164 D501     		.2byte	0x1d5
 7054 2166 E4000000 		.4byte	0xe4
 7055 216a 2A       		.uleb128 0x2a
 7056 216b 7600     		.ascii	"v\000"
 7057 216d 03       		.byte	0x3
 7058 216e D701     		.2byte	0x1d7
 7059 2170 2B050000 		.4byte	0x52b
 7060 2174 00       		.byte	0
 7061 2175 27       		.uleb128 0x27
 7062 2176 7C0C0000 		.4byte	.LASF596
 7063 217a 03       		.byte	0x3
 7064 217b CF01     		.2byte	0x1cf
 7065 217d 9A0C0000 		.4byte	0xc9a
 7066 2181 03       		.byte	0x3
 7067 2182 A9210000 		.4byte	0x21a9
 7068 2186 28       		.uleb128 0x28
 7069 2187 6F626A00 		.ascii	"obj\000"
 7070 218b 03       		.byte	0x3
 7071 218c CF01     		.2byte	0x1cf
 7072 218e EF1F0000 		.4byte	0x1fef
 7073 2192 29       		.uleb128 0x29
 7074 2193 9D290000 		.4byte	.LASF587
 7075 2197 03       		.byte	0x3
 7076 2198 CF01     		.2byte	0x1cf
 7077 219a E4000000 		.4byte	0xe4
 7078 219e 2A       		.uleb128 0x2a
 7079 219f 7600     		.ascii	"v\000"
 7080 21a1 03       		.byte	0x3
 7081 21a2 D101     		.2byte	0x1d1
 7082 21a4 2B050000 		.4byte	0x52b
 7083 21a8 00       		.byte	0
 7084 21a9 2E       		.uleb128 0x2e
 7085 21aa 4C290000 		.4byte	.LASF685
 7086 21ae 01       		.byte	0x1
 7087 21af A701     		.2byte	0x1a7
 7088 21b1 29010000 		.4byte	0x129
 7089 21b5 00000000 		.4byte	.LFB184
 7090 21b9 46000000 		.4byte	.LFE184-.LFB184
 7091 21bd 01       		.uleb128 0x1
 7092 21be 9C       		.byte	0x9c
 7093 21bf 46220000 		.4byte	0x2246
 7094 21c3 2F       		.uleb128 0x2f
ARM GAS  C:\Users\haske\AppData\Local\Temp\ccGWO5DZ.s 			page 153


 7095 21c4 6F626A00 		.ascii	"obj\000"
 7096 21c8 01       		.byte	0x1
 7097 21c9 A701     		.2byte	0x1a7
 7098 21cb 7D1F0000 		.4byte	0x1f7d
 7099 21cf 00000000 		.4byte	.LLST0
 7100 21d3 30       		.uleb128 0x30
 7101 21d4 696D6700 		.ascii	"img\000"
 7102 21d8 01       		.byte	0x1
 7103 21d9 A901     		.2byte	0x1a9
 7104 21db 46220000 		.4byte	0x2246
 7105 21df 2E000000 		.4byte	.LLST1
 7106 21e3 31       		.uleb128 0x31
 7107 21e4 4C250000 		.4byte	.LASF597
 7108 21e8 01       		.byte	0x1
 7109 21e9 AC01     		.2byte	0x1ac
 7110 21eb 69010000 		.4byte	0x169
 7111 21ef 02       		.uleb128 0x2
 7112 21f0 91       		.byte	0x91
 7113 21f1 64       		.sleb128 -28
 7114 21f2 32       		.uleb128 0x32
 7115 21f3 9F1F0000 		.4byte	0x1f9f
 7116 21f7 22000000 		.4byte	.LBB44
 7117 21fb 0A000000 		.4byte	.LBE44-.LBB44
 7118 21ff 01       		.byte	0x1
 7119 2200 B101     		.2byte	0x1b1
 7120 2202 10220000 		.4byte	0x2210
 7121 2206 33       		.uleb128 0x33
 7122 2207 AF1F0000 		.4byte	0x1faf
 7123 220b 5C000000 		.4byte	.LLST2
 7124 220f 00       		.byte	0
 7125 2210 32       		.uleb128 0x32
 7126 2211 831F0000 		.4byte	0x1f83
 7127 2215 2C000000 		.4byte	.LBB46
 7128 2219 0A000000 		.4byte	.LBE46-.LBB46
 7129 221d 01       		.byte	0x1
 7130 221e B101     		.2byte	0x1b1
 7131 2220 2E220000 		.4byte	0x222e
 7132 2224 33       		.uleb128 0x33
 7133 2225 931F0000 		.4byte	0x1f93
 7134 2229 6F000000 		.4byte	.LLST3
 7135 222d 00       		.byte	0
 7136 222e 34       		.uleb128 0x34
 7137 222f 22000000 		.4byte	.LVL3
 7138 2233 35390000 		.4byte	0x3935
 7139 2237 35       		.uleb128 0x35
 7140 2238 01       		.uleb128 0x1
 7141 2239 50       		.byte	0x50
 7142 223a 02       		.uleb128 0x2
 7143 223b 74       		.byte	0x74
 7144 223c 00       		.sleb128 0
 7145 223d 35       		.uleb128 0x35
 7146 223e 02       		.uleb128 0x2
 7147 223f 7D       		.byte	0x7d
 7148 2240 04       		.sleb128 4
 7149 2241 02       		.uleb128 0x2
 7150 2242 75       		.byte	0x75
 7151 2243 00       		.sleb128 0
ARM GAS  C:\Users\haske\AppData\Local\Temp\ccGWO5DZ.s 			page 154


 7152 2244 00       		.byte	0
 7153 2245 00       		.byte	0
 7154 2246 0B       		.uleb128 0xb
 7155 2247 04       		.byte	0x4
 7156 2248 2D1F0000 		.4byte	0x1f2d
 7157 224c 36       		.uleb128 0x36
 7158 224d 0B260000 		.4byte	.LASF330
 7159 2251 01       		.byte	0x1
 7160 2252 0702     		.2byte	0x207
 7161 2254 00000000 		.4byte	.LFB186
 7162 2258 78040000 		.4byte	.LFE186-.LFB186
 7163 225c 01       		.uleb128 0x1
 7164 225d 9C       		.byte	0x9c
 7165 225e B0290000 		.4byte	0x29b0
 7166 2262 2F       		.uleb128 0x2f
 7167 2263 6500     		.ascii	"e\000"
 7168 2265 01       		.byte	0x1
 7169 2266 0702     		.2byte	0x207
 7170 2268 F21C0000 		.4byte	0x1cf2
 7171 226c 82000000 		.4byte	.LLST4
 7172 2270 37       		.uleb128 0x37
 7173 2271 671D0000 		.4byte	.LASF497
 7174 2275 01       		.byte	0x1
 7175 2276 0902     		.2byte	0x209
 7176 2278 DC1C0000 		.4byte	0x1cdc
 7177 227c D6000000 		.4byte	.LLST5
 7178 2280 30       		.uleb128 0x30
 7179 2281 6F626A00 		.ascii	"obj\000"
 7180 2285 01       		.byte	0x1
 7181 2286 0A02     		.2byte	0x20a
 7182 2288 7D1F0000 		.4byte	0x1f7d
 7183 228c FF000000 		.4byte	.LLST6
 7184 2290 30       		.uleb128 0x30
 7185 2291 696D6700 		.ascii	"img\000"
 7186 2295 01       		.byte	0x1
 7187 2296 0B02     		.2byte	0x20b
 7188 2298 46220000 		.4byte	0x2246
 7189 229c FF000000 		.4byte	.LLST6
 7190 22a0 38       		.uleb128 0x38
 7191 22a1 24000000 		.4byte	.LBB48
 7192 22a5 DA000000 		.4byte	.LBE48-.LBB48
 7193 22a9 EF230000 		.4byte	0x23ef
 7194 22ad 37       		.uleb128 0x37
 7195 22ae F30D0000 		.4byte	.LASF598
 7196 22b2 01       		.byte	0x1
 7197 22b3 0D02     		.2byte	0x20d
 7198 22b5 B0290000 		.4byte	0x29b0
 7199 22b9 33010000 		.4byte	.LLST8
 7200 22bd 37       		.uleb128 0x37
 7201 22be 21190000 		.4byte	.LASF315
 7202 22c2 01       		.byte	0x1
 7203 22c3 2502     		.2byte	0x225
 7204 22c5 AB0E0000 		.4byte	0xeab
 7205 22c9 51010000 		.4byte	.LLST9
 7206 22cd 32       		.uleb128 0x32
 7207 22ce BB1F0000 		.4byte	0x1fbb
 7208 22d2 5C000000 		.4byte	.LBB49
ARM GAS  C:\Users\haske\AppData\Local\Temp\ccGWO5DZ.s 			page 155


 7209 22d6 0C000000 		.4byte	.LBE49-.LBB49
 7210 22da 01       		.byte	0x1
 7211 22db 1B02     		.2byte	0x21b
 7212 22dd 1E230000 		.4byte	0x231e
 7213 22e1 33       		.uleb128 0x33
 7214 22e2 D81F0000 		.4byte	0x1fd8
 7215 22e6 89010000 		.4byte	.LLST10
 7216 22ea 33       		.uleb128 0x33
 7217 22eb CC1F0000 		.4byte	0x1fcc
 7218 22ef 9D010000 		.4byte	.LLST11
 7219 22f3 39       		.uleb128 0x39
 7220 22f4 5C000000 		.4byte	.LBB50
 7221 22f8 0C000000 		.4byte	.LBE50-.LBB50
 7222 22fc 3A       		.uleb128 0x3a
 7223 22fd E41F0000 		.4byte	0x1fe4
 7224 2301 34       		.uleb128 0x34
 7225 2302 66000000 		.4byte	.LVL18
 7226 2306 40390000 		.4byte	0x3940
 7227 230a 35       		.uleb128 0x35
 7228 230b 01       		.uleb128 0x1
 7229 230c 50       		.byte	0x50
 7230 230d 02       		.uleb128 0x2
 7231 230e 74       		.byte	0x74
 7232 230f 00       		.sleb128 0
 7233 2310 35       		.uleb128 0x35
 7234 2311 01       		.uleb128 0x1
 7235 2312 51       		.byte	0x51
 7236 2313 01       		.uleb128 0x1
 7237 2314 30       		.byte	0x30
 7238 2315 35       		.uleb128 0x35
 7239 2316 01       		.uleb128 0x1
 7240 2317 52       		.byte	0x52
 7241 2318 02       		.uleb128 0x2
 7242 2319 08       		.byte	0x8
 7243 231a 46       		.byte	0x46
 7244 231b 00       		.byte	0
 7245 231c 00       		.byte	0
 7246 231d 00       		.byte	0
 7247 231e 38       		.uleb128 0x38
 7248 231f A6000000 		.4byte	.LBB51
 7249 2323 58000000 		.4byte	.LBE51-.LBB51
 7250 2327 A5230000 		.4byte	0x23a5
 7251 232b 3B       		.uleb128 0x3b
 7252 232c 6100     		.ascii	"a\000"
 7253 232e 01       		.byte	0x1
 7254 232f 2D02     		.2byte	0x22d
 7255 2331 69010000 		.4byte	0x169
 7256 2335 03       		.uleb128 0x3
 7257 2336 91       		.byte	0x91
 7258 2337 B87F     		.sleb128 -72
 7259 2339 3C       		.uleb128 0x3c
 7260 233a AC000000 		.4byte	.LVL25
 7261 233e 4B390000 		.4byte	0x394b
 7262 2342 4D230000 		.4byte	0x234d
 7263 2346 35       		.uleb128 0x35
 7264 2347 01       		.uleb128 0x1
 7265 2348 50       		.byte	0x50
ARM GAS  C:\Users\haske\AppData\Local\Temp\ccGWO5DZ.s 			page 156


 7266 2349 02       		.uleb128 0x2
 7267 234a 74       		.byte	0x74
 7268 234b 00       		.sleb128 0
 7269 234c 00       		.byte	0
 7270 234d 3C       		.uleb128 0x3c
 7271 234e B4000000 		.4byte	.LVL27
 7272 2352 57390000 		.4byte	0x3957
 7273 2356 61230000 		.4byte	0x2361
 7274 235a 35       		.uleb128 0x35
 7275 235b 01       		.uleb128 0x1
 7276 235c 50       		.byte	0x50
 7277 235d 02       		.uleb128 0x2
 7278 235e 74       		.byte	0x74
 7279 235f 00       		.sleb128 0
 7280 2360 00       		.byte	0
 7281 2361 3C       		.uleb128 0x3c
 7282 2362 CC000000 		.4byte	.LVL28
 7283 2366 35390000 		.4byte	0x3935
 7284 236a 87230000 		.4byte	0x2387
 7285 236e 35       		.uleb128 0x35
 7286 236f 01       		.uleb128 0x1
 7287 2370 50       		.byte	0x50
 7288 2371 02       		.uleb128 0x2
 7289 2372 75       		.byte	0x75
 7290 2373 00       		.sleb128 0
 7291 2374 35       		.uleb128 0x35
 7292 2375 01       		.uleb128 0x1
 7293 2376 51       		.byte	0x51
 7294 2377 02       		.uleb128 0x2
 7295 2378 76       		.byte	0x76
 7296 2379 00       		.sleb128 0
 7297 237a 35       		.uleb128 0x35
 7298 237b 01       		.uleb128 0x1
 7299 237c 53       		.byte	0x53
 7300 237d 01       		.uleb128 0x1
 7301 237e 30       		.byte	0x30
 7302 237f 35       		.uleb128 0x35
 7303 2380 02       		.uleb128 0x2
 7304 2381 7D       		.byte	0x7d
 7305 2382 04       		.sleb128 4
 7306 2383 02       		.uleb128 0x2
 7307 2384 74       		.byte	0x74
 7308 2385 32       		.sleb128 50
 7309 2386 00       		.byte	0
 7310 2387 34       		.uleb128 0x34
 7311 2388 F2000000 		.4byte	.LVL29
 7312 238c 63390000 		.4byte	0x3963
 7313 2390 35       		.uleb128 0x35
 7314 2391 01       		.uleb128 0x1
 7315 2392 50       		.byte	0x50
 7316 2393 04       		.uleb128 0x4
 7317 2394 91       		.byte	0x91
 7318 2395 FC7E     		.sleb128 -132
 7319 2397 06       		.byte	0x6
 7320 2398 35       		.uleb128 0x35
 7321 2399 01       		.uleb128 0x1
 7322 239a 51       		.byte	0x51
ARM GAS  C:\Users\haske\AppData\Local\Temp\ccGWO5DZ.s 			page 157


 7323 239b 02       		.uleb128 0x2
 7324 239c 75       		.byte	0x75
 7325 239d 00       		.sleb128 0
 7326 239e 35       		.uleb128 0x35
 7327 239f 01       		.uleb128 0x1
 7328 23a0 52       		.byte	0x52
 7329 23a1 01       		.uleb128 0x1
 7330 23a2 30       		.byte	0x30
 7331 23a3 00       		.byte	0
 7332 23a4 00       		.byte	0
 7333 23a5 3C       		.uleb128 0x3c
 7334 23a6 2A000000 		.4byte	.LVL14
 7335 23aa 6E390000 		.4byte	0x396e
 7336 23ae BB230000 		.4byte	0x23bb
 7337 23b2 35       		.uleb128 0x35
 7338 23b3 01       		.uleb128 0x1
 7339 23b4 50       		.byte	0x50
 7340 23b5 04       		.uleb128 0x4
 7341 23b6 91       		.byte	0x91
 7342 23b7 FC7E     		.sleb128 -132
 7343 23b9 06       		.byte	0x6
 7344 23ba 00       		.byte	0
 7345 23bb 3C       		.uleb128 0x3c
 7346 23bc 84000000 		.4byte	.LVL20
 7347 23c0 6E390000 		.4byte	0x396e
 7348 23c4 D1230000 		.4byte	0x23d1
 7349 23c8 35       		.uleb128 0x35
 7350 23c9 01       		.uleb128 0x1
 7351 23ca 50       		.byte	0x50
 7352 23cb 04       		.uleb128 0x4
 7353 23cc 91       		.byte	0x91
 7354 23cd FC7E     		.sleb128 -132
 7355 23cf 06       		.byte	0x6
 7356 23d0 00       		.byte	0
 7357 23d1 34       		.uleb128 0x34
 7358 23d2 9A000000 		.4byte	.LVL22
 7359 23d6 63390000 		.4byte	0x3963
 7360 23da 35       		.uleb128 0x35
 7361 23db 01       		.uleb128 0x1
 7362 23dc 50       		.byte	0x50
 7363 23dd 04       		.uleb128 0x4
 7364 23de 91       		.byte	0x91
 7365 23df FC7E     		.sleb128 -132
 7366 23e1 06       		.byte	0x6
 7367 23e2 35       		.uleb128 0x35
 7368 23e3 01       		.uleb128 0x1
 7369 23e4 51       		.byte	0x51
 7370 23e5 02       		.uleb128 0x2
 7371 23e6 74       		.byte	0x74
 7372 23e7 14       		.sleb128 20
 7373 23e8 35       		.uleb128 0x35
 7374 23e9 01       		.uleb128 0x1
 7375 23ea 52       		.byte	0x52
 7376 23eb 01       		.uleb128 0x1
 7377 23ec 30       		.byte	0x30
 7378 23ed 00       		.byte	0
 7379 23ee 00       		.byte	0
ARM GAS  C:\Users\haske\AppData\Local\Temp\ccGWO5DZ.s 			page 158


 7380 23ef 38       		.uleb128 0x38
 7381 23f0 08010000 		.4byte	.LBB52
 7382 23f4 5E030000 		.4byte	.LBE52-.LBB52
 7383 23f8 8B290000 		.4byte	0x298b
 7384 23fc 37       		.uleb128 0x37
 7385 23fd 48120000 		.4byte	.LASF599
 7386 2401 01       		.byte	0x1
 7387 2402 3C02     		.2byte	0x23c
 7388 2404 01010000 		.4byte	0x101
 7389 2408 B0010000 		.4byte	.LLST12
 7390 240c 37       		.uleb128 0x37
 7391 240d B2110000 		.4byte	.LASF600
 7392 2411 01       		.byte	0x1
 7393 2412 3D02     		.2byte	0x23d
 7394 2414 01010000 		.4byte	0x101
 7395 2418 C5010000 		.4byte	.LLST13
 7396 241c 3D       		.uleb128 0x3d
 7397 241d 59200000 		.4byte	.LASF264
 7398 2421 01       		.byte	0x1
 7399 2422 3F02     		.2byte	0x23f
 7400 2424 01010000 		.4byte	0x101
 7401 2428 37       		.uleb128 0x37
 7402 2429 84170000 		.4byte	.LASF601
 7403 242d 01       		.byte	0x1
 7404 242e 4002     		.2byte	0x240
 7405 2430 01010000 		.4byte	0x101
 7406 2434 D8010000 		.4byte	.LLST14
 7407 2438 37       		.uleb128 0x37
 7408 2439 CA180000 		.4byte	.LASF602
 7409 243d 01       		.byte	0x1
 7410 243e 4102     		.2byte	0x241
 7411 2440 01010000 		.4byte	0x101
 7412 2444 F6010000 		.4byte	.LLST15
 7413 2448 37       		.uleb128 0x37
 7414 2449 0A200000 		.4byte	.LASF603
 7415 244d 01       		.byte	0x1
 7416 244e 4202     		.2byte	0x242
 7417 2450 01010000 		.4byte	0x101
 7418 2454 0B020000 		.4byte	.LLST16
 7419 2458 37       		.uleb128 0x37
 7420 2459 88140000 		.4byte	.LASF604
 7421 245d 01       		.byte	0x1
 7422 245e 4302     		.2byte	0x243
 7423 2460 01010000 		.4byte	0x101
 7424 2464 29020000 		.4byte	.LLST17
 7425 2468 31       		.uleb128 0x31
 7426 2469 9E000000 		.4byte	.LASF605
 7427 246d 01       		.byte	0x1
 7428 246e 4502     		.2byte	0x245
 7429 2470 29010000 		.4byte	0x129
 7430 2474 03       		.uleb128 0x3
 7431 2475 91       		.byte	0x91
 7432 2476 907F     		.sleb128 -112
 7433 2478 31       		.uleb128 0x31
 7434 2479 A30C0000 		.4byte	.LASF606
 7435 247d 01       		.byte	0x1
 7436 247e 4802     		.2byte	0x248
ARM GAS  C:\Users\haske\AppData\Local\Temp\ccGWO5DZ.s 			page 159


 7437 2480 69010000 		.4byte	0x169
 7438 2484 03       		.uleb128 0x3
 7439 2485 91       		.byte	0x91
 7440 2486 987F     		.sleb128 -104
 7441 2488 3D       		.uleb128 0x3d
 7442 2489 49220000 		.4byte	.LASF607
 7443 248d 01       		.byte	0x1
 7444 248e 5902     		.2byte	0x259
 7445 2490 69010000 		.4byte	0x169
 7446 2494 30       		.uleb128 0x30
 7447 2495 72657300 		.ascii	"res\000"
 7448 2499 01       		.byte	0x1
 7449 249a 5D02     		.2byte	0x25d
 7450 249c 0F030000 		.4byte	0x30f
 7451 24a0 3E020000 		.4byte	.LLST18
 7452 24a4 32       		.uleb128 0x32
 7453 24a5 BA200000 		.4byte	0x20ba
 7454 24a9 18010000 		.4byte	.LBB53
 7455 24ad 0C000000 		.4byte	.LBE53-.LBB53
 7456 24b1 01       		.byte	0x1
 7457 24b2 3F02     		.2byte	0x23f
 7458 24b4 F5240000 		.4byte	0x24f5
 7459 24b8 33       		.uleb128 0x33
 7460 24b9 D5200000 		.4byte	0x20d5
 7461 24bd 51020000 		.4byte	.LLST19
 7462 24c1 33       		.uleb128 0x33
 7463 24c2 CA200000 		.4byte	0x20ca
 7464 24c6 65020000 		.4byte	.LLST20
 7465 24ca 39       		.uleb128 0x39
 7466 24cb 18010000 		.4byte	.LBB54
 7467 24cf 0C000000 		.4byte	.LBE54-.LBB54
 7468 24d3 3A       		.uleb128 0x3a
 7469 24d4 E0200000 		.4byte	0x20e0
 7470 24d8 34       		.uleb128 0x34
 7471 24d9 22010000 		.4byte	.LVL36
 7472 24dd 40390000 		.4byte	0x3940
 7473 24e1 35       		.uleb128 0x35
 7474 24e2 01       		.uleb128 0x1
 7475 24e3 50       		.byte	0x50
 7476 24e4 02       		.uleb128 0x2
 7477 24e5 74       		.byte	0x74
 7478 24e6 00       		.sleb128 0
 7479 24e7 35       		.uleb128 0x35
 7480 24e8 01       		.uleb128 0x1
 7481 24e9 51       		.byte	0x51
 7482 24ea 01       		.uleb128 0x1
 7483 24eb 30       		.byte	0x30
 7484 24ec 35       		.uleb128 0x35
 7485 24ed 01       		.uleb128 0x1
 7486 24ee 52       		.byte	0x52
 7487 24ef 02       		.uleb128 0x2
 7488 24f0 08       		.byte	0x8
 7489 24f1 32       		.byte	0x32
 7490 24f2 00       		.byte	0
 7491 24f3 00       		.byte	0
 7492 24f4 00       		.byte	0
 7493 24f5 32       		.uleb128 0x32
ARM GAS  C:\Users\haske\AppData\Local\Temp\ccGWO5DZ.s 			page 160


 7494 24f6 8A200000 		.4byte	0x208a
 7495 24fa 24010000 		.4byte	.LBB55
 7496 24fe 0A000000 		.4byte	.LBE55-.LBB55
 7497 2502 01       		.byte	0x1
 7498 2503 4002     		.2byte	0x240
 7499 2505 49250000 		.4byte	0x2549
 7500 2509 33       		.uleb128 0x33
 7501 250a A5200000 		.4byte	0x20a5
 7502 250e 78020000 		.4byte	.LLST21
 7503 2512 33       		.uleb128 0x33
 7504 2513 9A200000 		.4byte	0x209a
 7505 2517 8C020000 		.4byte	.LLST22
 7506 251b 39       		.uleb128 0x39
 7507 251c 24010000 		.4byte	.LBB56
 7508 2520 0A000000 		.4byte	.LBE56-.LBB56
 7509 2524 3E       		.uleb128 0x3e
 7510 2525 B0200000 		.4byte	0x20b0
 7511 2529 9F020000 		.4byte	.LLST23
 7512 252d 34       		.uleb128 0x34
 7513 252e 2E010000 		.4byte	.LVL38
 7514 2532 40390000 		.4byte	0x3940
 7515 2536 35       		.uleb128 0x35
 7516 2537 01       		.uleb128 0x1
 7517 2538 50       		.byte	0x50
 7518 2539 02       		.uleb128 0x2
 7519 253a 74       		.byte	0x74
 7520 253b 00       		.sleb128 0
 7521 253c 35       		.uleb128 0x35
 7522 253d 01       		.uleb128 0x1
 7523 253e 51       		.byte	0x51
 7524 253f 01       		.uleb128 0x1
 7525 2540 30       		.byte	0x30
 7526 2541 35       		.uleb128 0x35
 7527 2542 01       		.uleb128 0x1
 7528 2543 52       		.byte	0x52
 7529 2544 01       		.uleb128 0x1
 7530 2545 42       		.byte	0x42
 7531 2546 00       		.byte	0
 7532 2547 00       		.byte	0
 7533 2548 00       		.byte	0
 7534 2549 32       		.uleb128 0x32
 7535 254a 5A200000 		.4byte	0x205a
 7536 254e 36010000 		.4byte	.LBB57
 7537 2552 0A000000 		.4byte	.LBE57-.LBB57
 7538 2556 01       		.byte	0x1
 7539 2557 4102     		.2byte	0x241
 7540 2559 9D250000 		.4byte	0x259d
 7541 255d 33       		.uleb128 0x33
 7542 255e 75200000 		.4byte	0x2075
 7543 2562 B2020000 		.4byte	.LLST24
 7544 2566 33       		.uleb128 0x33
 7545 2567 6A200000 		.4byte	0x206a
 7546 256b C6020000 		.4byte	.LLST25
 7547 256f 39       		.uleb128 0x39
 7548 2570 36010000 		.4byte	.LBB58
 7549 2574 0A000000 		.4byte	.LBE58-.LBB58
 7550 2578 3E       		.uleb128 0x3e
ARM GAS  C:\Users\haske\AppData\Local\Temp\ccGWO5DZ.s 			page 161


 7551 2579 80200000 		.4byte	0x2080
 7552 257d D9020000 		.4byte	.LLST26
 7553 2581 34       		.uleb128 0x34
 7554 2582 40010000 		.4byte	.LVL42
 7555 2586 40390000 		.4byte	0x3940
 7556 258a 35       		.uleb128 0x35
 7557 258b 01       		.uleb128 0x1
 7558 258c 50       		.byte	0x50
 7559 258d 02       		.uleb128 0x2
 7560 258e 74       		.byte	0x74
 7561 258f 00       		.sleb128 0
 7562 2590 35       		.uleb128 0x35
 7563 2591 01       		.uleb128 0x1
 7564 2592 51       		.byte	0x51
 7565 2593 01       		.uleb128 0x1
 7566 2594 30       		.byte	0x30
 7567 2595 35       		.uleb128 0x35
 7568 2596 01       		.uleb128 0x1
 7569 2597 52       		.byte	0x52
 7570 2598 01       		.uleb128 0x1
 7571 2599 43       		.byte	0x43
 7572 259a 00       		.byte	0
 7573 259b 00       		.byte	0
 7574 259c 00       		.byte	0
 7575 259d 32       		.uleb128 0x32
 7576 259e 2A200000 		.4byte	0x202a
 7577 25a2 46010000 		.4byte	.LBB59
 7578 25a6 0A000000 		.4byte	.LBE59-.LBB59
 7579 25aa 01       		.byte	0x1
 7580 25ab 4202     		.2byte	0x242
 7581 25ad F1250000 		.4byte	0x25f1
 7582 25b1 33       		.uleb128 0x33
 7583 25b2 45200000 		.4byte	0x2045
 7584 25b6 EC020000 		.4byte	.LLST27
 7585 25ba 33       		.uleb128 0x33
 7586 25bb 3A200000 		.4byte	0x203a
 7587 25bf 00030000 		.4byte	.LLST28
 7588 25c3 39       		.uleb128 0x39
 7589 25c4 46010000 		.4byte	.LBB60
 7590 25c8 0A000000 		.4byte	.LBE60-.LBB60
 7591 25cc 3E       		.uleb128 0x3e
 7592 25cd 50200000 		.4byte	0x2050
 7593 25d1 13030000 		.4byte	.LLST29
 7594 25d5 34       		.uleb128 0x34
 7595 25d6 50010000 		.4byte	.LVL45
 7596 25da 40390000 		.4byte	0x3940
 7597 25de 35       		.uleb128 0x35
 7598 25df 01       		.uleb128 0x1
 7599 25e0 50       		.byte	0x50
 7600 25e1 02       		.uleb128 0x2
 7601 25e2 74       		.byte	0x74
 7602 25e3 00       		.sleb128 0
 7603 25e4 35       		.uleb128 0x35
 7604 25e5 01       		.uleb128 0x1
 7605 25e6 51       		.byte	0x51
 7606 25e7 01       		.uleb128 0x1
 7607 25e8 30       		.byte	0x30
ARM GAS  C:\Users\haske\AppData\Local\Temp\ccGWO5DZ.s 			page 162


 7608 25e9 35       		.uleb128 0x35
 7609 25ea 01       		.uleb128 0x1
 7610 25eb 52       		.byte	0x52
 7611 25ec 01       		.uleb128 0x1
 7612 25ed 40       		.byte	0x40
 7613 25ee 00       		.byte	0
 7614 25ef 00       		.byte	0
 7615 25f0 00       		.byte	0
 7616 25f1 32       		.uleb128 0x32
 7617 25f2 FA1F0000 		.4byte	0x1ffa
 7618 25f6 56010000 		.4byte	.LBB61
 7619 25fa 0A000000 		.4byte	.LBE61-.LBB61
 7620 25fe 01       		.byte	0x1
 7621 25ff 4302     		.2byte	0x243
 7622 2601 45260000 		.4byte	0x2645
 7623 2605 33       		.uleb128 0x33
 7624 2606 15200000 		.4byte	0x2015
 7625 260a 26030000 		.4byte	.LLST30
 7626 260e 33       		.uleb128 0x33
 7627 260f 0A200000 		.4byte	0x200a
 7628 2613 3A030000 		.4byte	.LLST31
 7629 2617 39       		.uleb128 0x39
 7630 2618 56010000 		.4byte	.LBB62
 7631 261c 0A000000 		.4byte	.LBE62-.LBB62
 7632 2620 3E       		.uleb128 0x3e
 7633 2621 20200000 		.4byte	0x2020
 7634 2625 4D030000 		.4byte	.LLST32
 7635 2629 34       		.uleb128 0x34
 7636 262a 60010000 		.4byte	.LVL48
 7637 262e 40390000 		.4byte	0x3940
 7638 2632 35       		.uleb128 0x35
 7639 2633 01       		.uleb128 0x1
 7640 2634 50       		.byte	0x50
 7641 2635 02       		.uleb128 0x2
 7642 2636 74       		.byte	0x74
 7643 2637 00       		.sleb128 0
 7644 2638 35       		.uleb128 0x35
 7645 2639 01       		.uleb128 0x1
 7646 263a 51       		.byte	0x51
 7647 263b 01       		.uleb128 0x1
 7648 263c 30       		.byte	0x30
 7649 263d 35       		.uleb128 0x35
 7650 263e 01       		.uleb128 0x1
 7651 263f 52       		.byte	0x52
 7652 2640 01       		.uleb128 0x1
 7653 2641 41       		.byte	0x41
 7654 2642 00       		.byte	0
 7655 2643 00       		.byte	0
 7656 2644 00       		.byte	0
 7657 2645 32       		.uleb128 0x32
 7658 2646 EA200000 		.4byte	0x20ea
 7659 264a C2010000 		.4byte	.LBB63
 7660 264e 14000000 		.4byte	.LBE63-.LBB63
 7661 2652 01       		.byte	0x1
 7662 2653 5A02     		.2byte	0x25a
 7663 2655 6C260000 		.4byte	0x266c
 7664 2659 33       		.uleb128 0x33
ARM GAS  C:\Users\haske\AppData\Local\Temp\ccGWO5DZ.s 			page 163


 7665 265a 01210000 		.4byte	0x2101
 7666 265e 6B030000 		.4byte	.LLST33
 7667 2662 33       		.uleb128 0x33
 7668 2663 F6200000 		.4byte	0x20f6
 7669 2667 80030000 		.4byte	.LLST34
 7670 266b 00       		.byte	0
 7671 266c 32       		.uleb128 0x32
 7672 266d EA200000 		.4byte	0x20ea
 7673 2671 D6010000 		.4byte	.LBB65
 7674 2675 1A000000 		.4byte	.LBE65-.LBB65
 7675 2679 01       		.byte	0x1
 7676 267a 5B02     		.2byte	0x25b
 7677 267c 93260000 		.4byte	0x2693
 7678 2680 33       		.uleb128 0x33
 7679 2681 01210000 		.4byte	0x2101
 7680 2685 98030000 		.4byte	.LLST35
 7681 2689 33       		.uleb128 0x33
 7682 268a F6200000 		.4byte	0x20f6
 7683 268e C7030000 		.4byte	.LLST36
 7684 2692 00       		.byte	0
 7685 2693 32       		.uleb128 0x32
 7686 2694 EA200000 		.4byte	0x20ea
 7687 2698 FE010000 		.4byte	.LBB67
 7688 269c 0C000000 		.4byte	.LBE67-.LBB67
 7689 26a0 01       		.byte	0x1
 7690 26a1 6002     		.2byte	0x260
 7691 26a3 BA260000 		.4byte	0x26ba
 7692 26a7 33       		.uleb128 0x33
 7693 26a8 01210000 		.4byte	0x2101
 7694 26ac DC030000 		.4byte	.LLST37
 7695 26b0 33       		.uleb128 0x33
 7696 26b1 F6200000 		.4byte	0x20f6
 7697 26b5 F4030000 		.4byte	.LLST38
 7698 26b9 00       		.byte	0
 7699 26ba 38       		.uleb128 0x38
 7700 26bb 10020000 		.4byte	.LBB69
 7701 26bf 56020000 		.4byte	.LBE69-.LBB69
 7702 26c3 01290000 		.4byte	0x2901
 7703 26c7 37       		.uleb128 0x37
 7704 26c8 02260000 		.4byte	.LASF390
 7705 26cc 01       		.byte	0x1
 7706 26cd 6602     		.2byte	0x266
 7707 26cf E2150000 		.4byte	0x15e2
 7708 26d3 09040000 		.4byte	.LLST39
 7709 26d7 31       		.uleb128 0x31
 7710 26d8 CB090000 		.4byte	.LASF608
 7711 26dc 01       		.byte	0x1
 7712 26dd 6802     		.2byte	0x268
 7713 26df 69010000 		.4byte	0x169
 7714 26e3 03       		.uleb128 0x3
 7715 26e4 91       		.byte	0x91
 7716 26e5 A07F     		.sleb128 -96
 7717 26e7 31       		.uleb128 0x31
 7718 26e8 930E0000 		.4byte	.LASF609
 7719 26ec 01       		.byte	0x1
 7720 26ed 6B02     		.2byte	0x26b
 7721 26ef 29010000 		.4byte	0x129
ARM GAS  C:\Users\haske\AppData\Local\Temp\ccGWO5DZ.s 			page 164


 7722 26f3 03       		.uleb128 0x3
 7723 26f4 91       		.byte	0x91
 7724 26f5 947F     		.sleb128 -108
 7725 26f7 32       		.uleb128 0x32
 7726 26f8 EA200000 		.4byte	0x20ea
 7727 26fc 34020000 		.4byte	.LBB70
 7728 2700 18000000 		.4byte	.LBE70-.LBB70
 7729 2704 01       		.byte	0x1
 7730 2705 6902     		.2byte	0x269
 7731 2707 1E270000 		.4byte	0x271e
 7732 270b 33       		.uleb128 0x33
 7733 270c 01210000 		.4byte	0x2101
 7734 2710 29040000 		.4byte	.LLST40
 7735 2714 33       		.uleb128 0x33
 7736 2715 F6200000 		.4byte	0x20f6
 7737 2719 3E040000 		.4byte	.LLST41
 7738 271d 00       		.byte	0
 7739 271e 32       		.uleb128 0x32
 7740 271f 9F1F0000 		.4byte	0x1f9f
 7741 2723 A0020000 		.4byte	.LBB72
 7742 2727 10000000 		.4byte	.LBE72-.LBB72
 7743 272b 01       		.byte	0x1
 7744 272c 7402     		.2byte	0x274
 7745 272e 3C270000 		.4byte	0x273c
 7746 2732 33       		.uleb128 0x33
 7747 2733 AF1F0000 		.4byte	0x1faf
 7748 2737 6D040000 		.4byte	.LLST42
 7749 273b 00       		.byte	0
 7750 273c 32       		.uleb128 0x32
 7751 273d 831F0000 		.4byte	0x1f83
 7752 2741 B8020000 		.4byte	.LBB74
 7753 2745 0E000000 		.4byte	.LBE74-.LBB74
 7754 2749 01       		.byte	0x1
 7755 274a 7502     		.2byte	0x275
 7756 274c 5A270000 		.4byte	0x275a
 7757 2750 33       		.uleb128 0x33
 7758 2751 931F0000 		.4byte	0x1f93
 7759 2755 8E040000 		.4byte	.LLST43
 7760 2759 00       		.byte	0
 7761 275a 38       		.uleb128 0x38
 7762 275b 04030000 		.4byte	.LBB76
 7763 275f 2A010000 		.4byte	.LBE76-.LBB76
 7764 2763 3C280000 		.4byte	0x283c
 7765 2767 31       		.uleb128 0x31
 7766 2768 C3100000 		.4byte	.LASF610
 7767 276c 01       		.byte	0x1
 7768 276d 7E02     		.2byte	0x27e
 7769 276f 2B0D0000 		.4byte	0xd2b
 7770 2773 03       		.uleb128 0x3
 7771 2774 91       		.byte	0x91
 7772 2775 B87F     		.sleb128 -72
 7773 2777 31       		.uleb128 0x31
 7774 2778 421D0000 		.4byte	.LASF611
 7775 277c 01       		.byte	0x1
 7776 277d 8802     		.2byte	0x288
 7777 277f 69010000 		.4byte	0x169
 7778 2783 03       		.uleb128 0x3
ARM GAS  C:\Users\haske\AppData\Local\Temp\ccGWO5DZ.s 			page 165


 7779 2784 91       		.byte	0x91
 7780 2785 A87F     		.sleb128 -88
 7781 2787 37       		.uleb128 0x37
 7782 2788 BE230000 		.4byte	.LASF612
 7783 278c 01       		.byte	0x1
 7784 278d 8D02     		.2byte	0x28d
 7785 278f AB0E0000 		.4byte	0xeab
 7786 2793 AF040000 		.4byte	.LLST44
 7787 2797 31       		.uleb128 0x31
 7788 2798 E41B0000 		.4byte	.LASF613
 7789 279c 01       		.byte	0x1
 7790 279d 9202     		.2byte	0x292
 7791 279f 69010000 		.4byte	0x169
 7792 27a3 03       		.uleb128 0x3
 7793 27a4 91       		.byte	0x91
 7794 27a5 B07F     		.sleb128 -80
 7795 27a7 37       		.uleb128 0x37
 7796 27a8 29130000 		.4byte	.LASF372
 7797 27ac 01       		.byte	0x1
 7798 27ad 9302     		.2byte	0x293
 7799 27af 01010000 		.4byte	0x101
 7800 27b3 CD040000 		.4byte	.LLST45
 7801 27b7 37       		.uleb128 0x37
 7802 27b8 32130000 		.4byte	.LASF373
 7803 27bc 01       		.byte	0x1
 7804 27bd 9402     		.2byte	0x294
 7805 27bf 01010000 		.4byte	0x101
 7806 27c3 E0040000 		.4byte	.LLST46
 7807 27c7 3C       		.uleb128 0x3c
 7808 27c8 0C030000 		.4byte	.LVL79
 7809 27cc 79390000 		.4byte	0x3979
 7810 27d0 DB270000 		.4byte	0x27db
 7811 27d4 35       		.uleb128 0x35
 7812 27d5 01       		.uleb128 0x1
 7813 27d6 50       		.byte	0x50
 7814 27d7 02       		.uleb128 0x2
 7815 27d8 75       		.byte	0x75
 7816 27d9 00       		.sleb128 0
 7817 27da 00       		.byte	0
 7818 27db 3C       		.uleb128 0x3c
 7819 27dc 16030000 		.4byte	.LVL80
 7820 27e0 84390000 		.4byte	0x3984
 7821 27e4 FA270000 		.4byte	0x27fa
 7822 27e8 35       		.uleb128 0x35
 7823 27e9 01       		.uleb128 0x1
 7824 27ea 50       		.byte	0x50
 7825 27eb 02       		.uleb128 0x2
 7826 27ec 74       		.byte	0x74
 7827 27ed 00       		.sleb128 0
 7828 27ee 35       		.uleb128 0x35
 7829 27ef 01       		.uleb128 0x1
 7830 27f0 51       		.byte	0x51
 7831 27f1 01       		.uleb128 0x1
 7832 27f2 30       		.byte	0x30
 7833 27f3 35       		.uleb128 0x35
 7834 27f4 01       		.uleb128 0x1
 7835 27f5 52       		.byte	0x52
ARM GAS  C:\Users\haske\AppData\Local\Temp\ccGWO5DZ.s 			page 166


 7836 27f6 02       		.uleb128 0x2
 7837 27f7 75       		.byte	0x75
 7838 27f8 00       		.sleb128 0
 7839 27f9 00       		.byte	0
 7840 27fa 3C       		.uleb128 0x3c
 7841 27fb 70030000 		.4byte	.LVL82
 7842 27ff 8F390000 		.4byte	0x398f
 7843 2803 1C280000 		.4byte	0x281c
 7844 2807 35       		.uleb128 0x35
 7845 2808 01       		.uleb128 0x1
 7846 2809 50       		.byte	0x50
 7847 280a 03       		.uleb128 0x3
 7848 280b 91       		.byte	0x91
 7849 280c A87F     		.sleb128 -88
 7850 280e 35       		.uleb128 0x35
 7851 280f 01       		.uleb128 0x1
 7852 2810 51       		.byte	0x51
 7853 2811 02       		.uleb128 0x2
 7854 2812 78       		.byte	0x78
 7855 2813 00       		.sleb128 0
 7856 2814 35       		.uleb128 0x35
 7857 2815 01       		.uleb128 0x1
 7858 2816 52       		.byte	0x52
 7859 2817 03       		.uleb128 0x3
 7860 2818 91       		.byte	0x91
 7861 2819 A87F     		.sleb128 -88
 7862 281b 00       		.byte	0
 7863 281c 34       		.uleb128 0x34
 7864 281d F0030000 		.4byte	.LVL87
 7865 2821 9A390000 		.4byte	0x399a
 7866 2825 35       		.uleb128 0x35
 7867 2826 01       		.uleb128 0x1
 7868 2827 50       		.byte	0x50
 7869 2828 04       		.uleb128 0x4
 7870 2829 91       		.byte	0x91
 7871 282a FC7E     		.sleb128 -132
 7872 282c 06       		.byte	0x6
 7873 282d 35       		.uleb128 0x35
 7874 282e 01       		.uleb128 0x1
 7875 282f 51       		.byte	0x51
 7876 2830 03       		.uleb128 0x3
 7877 2831 91       		.byte	0x91
 7878 2832 B87F     		.sleb128 -72
 7879 2834 35       		.uleb128 0x35
 7880 2835 01       		.uleb128 0x1
 7881 2836 52       		.byte	0x52
 7882 2837 02       		.uleb128 0x2
 7883 2838 75       		.byte	0x75
 7884 2839 00       		.sleb128 0
 7885 283a 00       		.byte	0
 7886 283b 00       		.byte	0
 7887 283c 38       		.uleb128 0x38
 7888 283d 34040000 		.4byte	.LBB77
 7889 2841 22000000 		.4byte	.LBE77-.LBB77
 7890 2845 B4280000 		.4byte	0x28b4
 7891 2849 31       		.uleb128 0x31
 7892 284a F7180000 		.4byte	.LASF614
ARM GAS  C:\Users\haske\AppData\Local\Temp\ccGWO5DZ.s 			page 167


 7893 284e 01       		.byte	0x1
 7894 284f A502     		.2byte	0x2a5
 7895 2851 A50C0000 		.4byte	0xca5
 7896 2855 03       		.uleb128 0x3
 7897 2856 91       		.byte	0x91
 7898 2857 B87F     		.sleb128 -72
 7899 2859 3C       		.uleb128 0x3c
 7900 285a 3A040000 		.4byte	.LVL89
 7901 285e A5390000 		.4byte	0x39a5
 7902 2862 6E280000 		.4byte	0x286e
 7903 2866 35       		.uleb128 0x35
 7904 2867 01       		.uleb128 0x1
 7905 2868 50       		.byte	0x50
 7906 2869 03       		.uleb128 0x3
 7907 286a 91       		.byte	0x91
 7908 286b B87F     		.sleb128 -72
 7909 286d 00       		.byte	0
 7910 286e 3C       		.uleb128 0x3c
 7911 286f 44040000 		.4byte	.LVL90
 7912 2873 B0390000 		.4byte	0x39b0
 7913 2877 8E280000 		.4byte	0x288e
 7914 287b 35       		.uleb128 0x35
 7915 287c 01       		.uleb128 0x1
 7916 287d 50       		.byte	0x50
 7917 287e 02       		.uleb128 0x2
 7918 287f 74       		.byte	0x74
 7919 2880 00       		.sleb128 0
 7920 2881 35       		.uleb128 0x35
 7921 2882 01       		.uleb128 0x1
 7922 2883 51       		.byte	0x51
 7923 2884 01       		.uleb128 0x1
 7924 2885 30       		.byte	0x30
 7925 2886 35       		.uleb128 0x35
 7926 2887 01       		.uleb128 0x1
 7927 2888 52       		.byte	0x52
 7928 2889 03       		.uleb128 0x3
 7929 288a 91       		.byte	0x91
 7930 288b B87F     		.sleb128 -72
 7931 288d 00       		.byte	0
 7932 288e 34       		.uleb128 0x34
 7933 288f 56040000 		.4byte	.LVL91
 7934 2893 BB390000 		.4byte	0x39bb
 7935 2897 35       		.uleb128 0x35
 7936 2898 01       		.uleb128 0x1
 7937 2899 50       		.byte	0x50
 7938 289a 04       		.uleb128 0x4
 7939 289b 91       		.byte	0x91
 7940 289c FC7E     		.sleb128 -132
 7941 289e 06       		.byte	0x6
 7942 289f 35       		.uleb128 0x35
 7943 28a0 01       		.uleb128 0x1
 7944 28a1 51       		.byte	0x51
 7945 28a2 03       		.uleb128 0x3
 7946 28a3 91       		.byte	0x91
 7947 28a4 B87F     		.sleb128 -72
 7948 28a6 35       		.uleb128 0x35
 7949 28a7 01       		.uleb128 0x1
ARM GAS  C:\Users\haske\AppData\Local\Temp\ccGWO5DZ.s 			page 168


 7950 28a8 52       		.byte	0x52
 7951 28a9 02       		.uleb128 0x2
 7952 28aa 74       		.byte	0x74
 7953 28ab 14       		.sleb128 20
 7954 28ac 35       		.uleb128 0x35
 7955 28ad 02       		.uleb128 0x2
 7956 28ae 7D       		.byte	0x7d
 7957 28af 00       		.sleb128 0
 7958 28b0 01       		.uleb128 0x1
 7959 28b1 30       		.byte	0x30
 7960 28b2 00       		.byte	0
 7961 28b3 00       		.byte	0
 7962 28b4 3C       		.uleb128 0x3c
 7963 28b5 32020000 		.4byte	.LVL65
 7964 28b9 C6390000 		.4byte	0x39c6
 7965 28bd CA280000 		.4byte	0x28ca
 7966 28c1 35       		.uleb128 0x35
 7967 28c2 01       		.uleb128 0x1
 7968 28c3 50       		.byte	0x50
 7969 28c4 04       		.uleb128 0x4
 7970 28c5 91       		.byte	0x91
 7971 28c6 FC7E     		.sleb128 -132
 7972 28c8 06       		.byte	0x6
 7973 28c9 00       		.byte	0
 7974 28ca 3C       		.uleb128 0x3c
 7975 28cb 52020000 		.4byte	.LVL71
 7976 28cf A9210000 		.4byte	0x21a9
 7977 28d3 DE280000 		.4byte	0x28de
 7978 28d7 35       		.uleb128 0x35
 7979 28d8 01       		.uleb128 0x1
 7980 28d9 50       		.byte	0x50
 7981 28da 02       		.uleb128 0x2
 7982 28db 74       		.byte	0x74
 7983 28dc 00       		.sleb128 0
 7984 28dd 00       		.byte	0
 7985 28de 34       		.uleb128 0x34
 7986 28df 66040000 		.4byte	.LVL92
 7987 28e3 9A390000 		.4byte	0x399a
 7988 28e7 35       		.uleb128 0x35
 7989 28e8 01       		.uleb128 0x1
 7990 28e9 50       		.byte	0x50
 7991 28ea 04       		.uleb128 0x4
 7992 28eb 91       		.byte	0x91
 7993 28ec FC7E     		.sleb128 -132
 7994 28ee 06       		.byte	0x6
 7995 28ef 35       		.uleb128 0x35
 7996 28f0 01       		.uleb128 0x1
 7997 28f1 51       		.byte	0x51
 7998 28f2 01       		.uleb128 0x1
 7999 28f3 30       		.byte	0x30
 8000 28f4 35       		.uleb128 0x35
 8001 28f5 01       		.uleb128 0x1
 8002 28f6 52       		.byte	0x52
 8003 28f7 02       		.uleb128 0x2
 8004 28f8 74       		.byte	0x74
 8005 28f9 14       		.sleb128 20
 8006 28fa 35       		.uleb128 0x35
ARM GAS  C:\Users\haske\AppData\Local\Temp\ccGWO5DZ.s 			page 169


 8007 28fb 01       		.uleb128 0x1
 8008 28fc 53       		.byte	0x53
 8009 28fd 01       		.uleb128 0x1
 8010 28fe 30       		.byte	0x30
 8011 28ff 00       		.byte	0
 8012 2900 00       		.byte	0
 8013 2901 3C       		.uleb128 0x3c
 8014 2902 0E010000 		.4byte	.LVL32
 8015 2906 4B390000 		.4byte	0x394b
 8016 290a 15290000 		.4byte	0x2915
 8017 290e 35       		.uleb128 0x35
 8018 290f 01       		.uleb128 0x1
 8019 2910 50       		.byte	0x50
 8020 2911 02       		.uleb128 0x2
 8021 2912 74       		.byte	0x74
 8022 2913 00       		.sleb128 0
 8023 2914 00       		.byte	0
 8024 2915 3C       		.uleb128 0x3c
 8025 2916 16010000 		.4byte	.LVL34
 8026 291a 57390000 		.4byte	0x3957
 8027 291e 29290000 		.4byte	0x2929
 8028 2922 35       		.uleb128 0x35
 8029 2923 01       		.uleb128 0x1
 8030 2924 50       		.byte	0x50
 8031 2925 02       		.uleb128 0x2
 8032 2926 74       		.byte	0x74
 8033 2927 00       		.sleb128 0
 8034 2928 00       		.byte	0
 8035 2929 3C       		.uleb128 0x3c
 8036 292a 8C010000 		.4byte	.LVL51
 8037 292e D2390000 		.4byte	0x39d2
 8038 2932 44290000 		.4byte	0x2944
 8039 2936 35       		.uleb128 0x35
 8040 2937 01       		.uleb128 0x1
 8041 2938 50       		.byte	0x50
 8042 2939 02       		.uleb128 0x2
 8043 293a 74       		.byte	0x74
 8044 293b 00       		.sleb128 0
 8045 293c 35       		.uleb128 0x35
 8046 293d 01       		.uleb128 0x1
 8047 293e 51       		.byte	0x51
 8048 293f 03       		.uleb128 0x3
 8049 2940 91       		.byte	0x91
 8050 2941 987F     		.sleb128 -104
 8051 2943 00       		.byte	0
 8052 2944 3C       		.uleb128 0x3c
 8053 2945 A6010000 		.4byte	.LVL54
 8054 2949 35390000 		.4byte	0x3935
 8055 294d 6F290000 		.4byte	0x296f
 8056 2951 35       		.uleb128 0x35
 8057 2952 01       		.uleb128 0x1
 8058 2953 50       		.byte	0x50
 8059 2954 02       		.uleb128 0x2
 8060 2955 75       		.byte	0x75
 8061 2956 00       		.sleb128 0
 8062 2957 35       		.uleb128 0x35
 8063 2958 01       		.uleb128 0x1
ARM GAS  C:\Users\haske\AppData\Local\Temp\ccGWO5DZ.s 			page 170


 8064 2959 51       		.byte	0x51
 8065 295a 05       		.uleb128 0x5
 8066 295b 91       		.byte	0x91
 8067 295c 807F     		.sleb128 -128
 8068 295e 94       		.byte	0x94
 8069 295f 02       		.byte	0x2
 8070 2960 35       		.uleb128 0x35
 8071 2961 01       		.uleb128 0x1
 8072 2962 52       		.byte	0x52
 8073 2963 02       		.uleb128 0x2
 8074 2964 77       		.byte	0x77
 8075 2965 00       		.sleb128 0
 8076 2966 35       		.uleb128 0x35
 8077 2967 02       		.uleb128 0x2
 8078 2968 7D       		.byte	0x7d
 8079 2969 04       		.sleb128 4
 8080 296a 03       		.uleb128 0x3
 8081 296b 91       		.byte	0x91
 8082 296c 907F     		.sleb128 -112
 8083 296e 00       		.byte	0
 8084 296f 34       		.uleb128 0x34
 8085 2970 F8010000 		.4byte	.LVL61
 8086 2974 DD390000 		.4byte	0x39dd
 8087 2978 35       		.uleb128 0x35
 8088 2979 01       		.uleb128 0x1
 8089 297a 50       		.byte	0x50
 8090 297b 05       		.uleb128 0x5
 8091 297c 03       		.byte	0x3
 8092 297d 00000000 		.4byte	.LANCHOR0
 8093 2981 35       		.uleb128 0x35
 8094 2982 01       		.uleb128 0x1
 8095 2983 51       		.byte	0x51
 8096 2984 04       		.uleb128 0x4
 8097 2985 91       		.byte	0x91
 8098 2986 FC7E     		.sleb128 -132
 8099 2988 06       		.byte	0x6
 8100 2989 00       		.byte	0
 8101 298a 00       		.byte	0
 8102 298b 3C       		.uleb128 0x3c
 8103 298c 16000000 		.4byte	.LVL8
 8104 2990 E8390000 		.4byte	0x39e8
 8105 2994 9F290000 		.4byte	0x299f
 8106 2998 35       		.uleb128 0x35
 8107 2999 01       		.uleb128 0x1
 8108 299a 50       		.byte	0x50
 8109 299b 02       		.uleb128 0x2
 8110 299c 74       		.byte	0x74
 8111 299d 00       		.sleb128 0
 8112 299e 00       		.byte	0
 8113 299f 34       		.uleb128 0x34
 8114 29a0 1E000000 		.4byte	.LVL11
 8115 29a4 F3390000 		.4byte	0x39f3
 8116 29a8 35       		.uleb128 0x35
 8117 29a9 01       		.uleb128 0x1
 8118 29aa 50       		.byte	0x50
 8119 29ab 02       		.uleb128 0x2
 8120 29ac 74       		.byte	0x74
ARM GAS  C:\Users\haske\AppData\Local\Temp\ccGWO5DZ.s 			page 171


 8121 29ad 00       		.sleb128 0
 8122 29ae 00       		.byte	0
 8123 29af 00       		.byte	0
 8124 29b0 0B       		.uleb128 0xb
 8125 29b1 04       		.byte	0x4
 8126 29b2 451D0000 		.4byte	0x1d45
 8127 29b6 3F       		.uleb128 0x3f
 8128 29b7 5F130000 		.4byte	.LASF615
 8129 29bb 01       		.byte	0x1
 8130 29bc 9C01     		.2byte	0x19c
 8131 29be 00000000 		.4byte	.LFB183
 8132 29c2 2A000000 		.4byte	.LFE183-.LFB183
 8133 29c6 01       		.uleb128 0x1
 8134 29c7 9C       		.byte	0x9c
 8135 29c8 062A0000 		.4byte	0x2a06
 8136 29cc 40       		.uleb128 0x40
 8137 29cd C2180000 		.4byte	.LASF239
 8138 29d1 01       		.byte	0x1
 8139 29d2 9C01     		.2byte	0x19c
 8140 29d4 6B1E0000 		.4byte	0x1e6b
 8141 29d8 F3040000 		.4byte	.LLST47
 8142 29dc 2F       		.uleb128 0x2f
 8143 29dd 6F626A00 		.ascii	"obj\000"
 8144 29e1 01       		.byte	0x1
 8145 29e2 9C01     		.2byte	0x19c
 8146 29e4 7D1F0000 		.4byte	0x1f7d
 8147 29e8 14050000 		.4byte	.LLST48
 8148 29ec 30       		.uleb128 0x30
 8149 29ed 696D6700 		.ascii	"img\000"
 8150 29f1 01       		.byte	0x1
 8151 29f2 9F01     		.2byte	0x19f
 8152 29f4 46220000 		.4byte	0x2246
 8153 29f8 40050000 		.4byte	.LLST49
 8154 29fc 41       		.uleb128 0x41
 8155 29fd 1A000000 		.4byte	.LVL97
 8156 2a01 FE390000 		.4byte	0x39fe
 8157 2a05 00       		.byte	0
 8158 2a06 3F       		.uleb128 0x3f
 8159 2a07 C3280000 		.4byte	.LASF616
 8160 2a0b 01       		.byte	0x1
 8161 2a0c 8101     		.2byte	0x181
 8162 2a0e 00000000 		.4byte	.LFB182
 8163 2a12 62000000 		.4byte	.LFE182-.LFB182
 8164 2a16 01       		.uleb128 0x1
 8165 2a17 9C       		.byte	0x9c
 8166 2a18 A52A0000 		.4byte	0x2aa5
 8167 2a1c 40       		.uleb128 0x40
 8168 2a1d C2180000 		.4byte	.LASF239
 8169 2a21 01       		.byte	0x1
 8170 2a22 8101     		.2byte	0x181
 8171 2a24 6B1E0000 		.4byte	0x1e6b
 8172 2a28 6C050000 		.4byte	.LLST50
 8173 2a2c 2F       		.uleb128 0x2f
 8174 2a2d 6F626A00 		.ascii	"obj\000"
 8175 2a31 01       		.byte	0x1
 8176 2a32 8101     		.2byte	0x181
 8177 2a34 7D1F0000 		.4byte	0x1f7d
ARM GAS  C:\Users\haske\AppData\Local\Temp\ccGWO5DZ.s 			page 172


 8178 2a38 8D050000 		.4byte	.LLST51
 8179 2a3c 30       		.uleb128 0x30
 8180 2a3d 696D6700 		.ascii	"img\000"
 8181 2a41 01       		.byte	0x1
 8182 2a42 8601     		.2byte	0x186
 8183 2a44 46220000 		.4byte	0x2246
 8184 2a48 B9050000 		.4byte	.LLST52
 8185 2a4c 3C       		.uleb128 0x3c
 8186 2a4d 1E000000 		.4byte	.LVL102
 8187 2a51 4B390000 		.4byte	0x394b
 8188 2a55 602A0000 		.4byte	0x2a60
 8189 2a59 35       		.uleb128 0x35
 8190 2a5a 01       		.uleb128 0x1
 8191 2a5b 50       		.byte	0x50
 8192 2a5c 02       		.uleb128 0x2
 8193 2a5d 74       		.byte	0x74
 8194 2a5e 00       		.sleb128 0
 8195 2a5f 00       		.byte	0
 8196 2a60 3C       		.uleb128 0x3c
 8197 2a61 26000000 		.4byte	.LVL103
 8198 2a65 57390000 		.4byte	0x3957
 8199 2a69 742A0000 		.4byte	0x2a74
 8200 2a6d 35       		.uleb128 0x35
 8201 2a6e 01       		.uleb128 0x1
 8202 2a6f 50       		.byte	0x50
 8203 2a70 02       		.uleb128 0x2
 8204 2a71 74       		.byte	0x74
 8205 2a72 00       		.sleb128 0
 8206 2a73 00       		.byte	0
 8207 2a74 3C       		.uleb128 0x3c
 8208 2a75 56000000 		.4byte	.LVL104
 8209 2a79 093A0000 		.4byte	0x3a09
 8210 2a7d 8D2A0000 		.4byte	0x2a8d
 8211 2a81 35       		.uleb128 0x35
 8212 2a82 01       		.uleb128 0x1
 8213 2a83 50       		.byte	0x50
 8214 2a84 02       		.uleb128 0x2
 8215 2a85 74       		.byte	0x74
 8216 2a86 00       		.sleb128 0
 8217 2a87 35       		.uleb128 0x35
 8218 2a88 01       		.uleb128 0x1
 8219 2a89 51       		.byte	0x51
 8220 2a8a 01       		.uleb128 0x1
 8221 2a8b 32       		.byte	0x32
 8222 2a8c 00       		.byte	0
 8223 2a8d 34       		.uleb128 0x34
 8224 2a8e 60000000 		.4byte	.LVL105
 8225 2a92 143A0000 		.4byte	0x3a14
 8226 2a96 35       		.uleb128 0x35
 8227 2a97 01       		.uleb128 0x1
 8228 2a98 50       		.byte	0x50
 8229 2a99 02       		.uleb128 0x2
 8230 2a9a 74       		.byte	0x74
 8231 2a9b 00       		.sleb128 0
 8232 2a9c 35       		.uleb128 0x35
 8233 2a9d 01       		.uleb128 0x1
 8234 2a9e 51       		.byte	0x51
ARM GAS  C:\Users\haske\AppData\Local\Temp\ccGWO5DZ.s 			page 173


 8235 2a9f 03       		.uleb128 0x3
 8236 2aa0 40       		.byte	0x40
 8237 2aa1 3C       		.byte	0x3c
 8238 2aa2 24       		.byte	0x24
 8239 2aa3 00       		.byte	0
 8240 2aa4 00       		.byte	0
 8241 2aa5 42       		.uleb128 0x42
 8242 2aa6 E5260000 		.4byte	.LASF630
 8243 2aaa 01       		.byte	0x1
 8244 2aab 3A       		.byte	0x3a
 8245 2aac 7D1F0000 		.4byte	0x1f7d
 8246 2ab0 00000000 		.4byte	.LFB165
 8247 2ab4 18000000 		.4byte	.LFE165-.LFB165
 8248 2ab8 01       		.uleb128 0x1
 8249 2ab9 9C       		.byte	0x9c
 8250 2aba 0B2B0000 		.4byte	0x2b0b
 8251 2abe 43       		.uleb128 0x43
 8252 2abf 83100000 		.4byte	.LASF240
 8253 2ac3 01       		.byte	0x1
 8254 2ac4 3A       		.byte	0x3a
 8255 2ac5 7D1F0000 		.4byte	0x1f7d
 8256 2ac9 E5050000 		.4byte	.LLST53
 8257 2acd 44       		.uleb128 0x44
 8258 2ace 6F626A00 		.ascii	"obj\000"
 8259 2ad2 01       		.byte	0x1
 8260 2ad3 3D       		.byte	0x3d
 8261 2ad4 7D1F0000 		.4byte	0x1f7d
 8262 2ad8 11060000 		.4byte	.LLST54
 8263 2adc 3C       		.uleb128 0x3c
 8264 2add 0A000000 		.4byte	.LVL109
 8265 2ae1 1F3A0000 		.4byte	0x3a1f
 8266 2ae5 FA2A0000 		.4byte	0x2afa
 8267 2ae9 35       		.uleb128 0x35
 8268 2aea 01       		.uleb128 0x1
 8269 2aeb 50       		.byte	0x50
 8270 2aec 05       		.uleb128 0x5
 8271 2aed 03       		.byte	0x3
 8272 2aee 00000000 		.4byte	.LANCHOR0
 8273 2af2 35       		.uleb128 0x35
 8274 2af3 01       		.uleb128 0x1
 8275 2af4 51       		.byte	0x51
 8276 2af5 03       		.uleb128 0x3
 8277 2af6 F3       		.byte	0xf3
 8278 2af7 01       		.uleb128 0x1
 8279 2af8 50       		.byte	0x50
 8280 2af9 00       		.byte	0
 8281 2afa 34       		.uleb128 0x34
 8282 2afb 10000000 		.4byte	.LVL111
 8283 2aff 2A3A0000 		.4byte	0x3a2a
 8284 2b03 35       		.uleb128 0x35
 8285 2b04 01       		.uleb128 0x1
 8286 2b05 50       		.byte	0x50
 8287 2b06 02       		.uleb128 0x2
 8288 2b07 74       		.byte	0x74
 8289 2b08 00       		.sleb128 0
 8290 2b09 00       		.byte	0
 8291 2b0a 00       		.byte	0
ARM GAS  C:\Users\haske\AppData\Local\Temp\ccGWO5DZ.s 			page 174


 8292 2b0b 45       		.uleb128 0x45
 8293 2b0c B31A0000 		.4byte	.LASF621
 8294 2b10 01       		.byte	0x1
 8295 2b11 46       		.byte	0x46
 8296 2b12 00000000 		.4byte	.LFB166
 8297 2b16 A0010000 		.4byte	.LFE166-.LFB166
 8298 2b1a 01       		.uleb128 0x1
 8299 2b1b 9C       		.byte	0x9c
 8300 2b1c C22D0000 		.4byte	0x2dc2
 8301 2b20 46       		.uleb128 0x46
 8302 2b21 6F626A00 		.ascii	"obj\000"
 8303 2b25 01       		.byte	0x1
 8304 2b26 46       		.byte	0x46
 8305 2b27 7D1F0000 		.4byte	0x1f7d
 8306 2b2b 3A060000 		.4byte	.LLST55
 8307 2b2f 46       		.uleb128 0x46
 8308 2b30 73726300 		.ascii	"src\000"
 8309 2b34 01       		.byte	0x1
 8310 2b35 46       		.byte	0x46
 8311 2b36 E2020000 		.4byte	0x2e2
 8312 2b3a 66060000 		.4byte	.LLST56
 8313 2b3e 47       		.uleb128 0x47
 8314 2b3f EF280000 		.4byte	.LASF576
 8315 2b43 01       		.byte	0x1
 8316 2b44 4C       		.byte	0x4c
 8317 2b45 9B090000 		.4byte	0x99b
 8318 2b49 92060000 		.4byte	.LLST57
 8319 2b4d 44       		.uleb128 0x44
 8320 2b4e 696D6700 		.ascii	"img\000"
 8321 2b52 01       		.byte	0x1
 8322 2b53 4D       		.byte	0x4d
 8323 2b54 46220000 		.4byte	0x2246
 8324 2b58 B0060000 		.4byte	.LLST58
 8325 2b5c 48       		.uleb128 0x48
 8326 2b5d FC010000 		.4byte	.LASF617
 8327 2b61 01       		.byte	0x1
 8328 2b62 6A       		.byte	0x6a
 8329 2b63 6B090000 		.4byte	0x96b
 8330 2b67 02       		.uleb128 0x2
 8331 2b68 91       		.byte	0x91
 8332 2b69 5C       		.sleb128 -36
 8333 2b6a 38       		.uleb128 0x38
 8334 2b6b 7C000000 		.4byte	.LBB78
 8335 2b6f 42000000 		.4byte	.LBE78-.LBB78
 8336 2b73 D72B0000 		.4byte	0x2bd7
 8337 2b77 47       		.uleb128 0x47
 8338 2b78 3B170000 		.4byte	.LASF618
 8339 2b7c 01       		.byte	0x1
 8340 2b7d 78       		.byte	0x78
 8341 2b7e E2020000 		.4byte	0x2e2
 8342 2b82 D1060000 		.4byte	.LLST59
 8343 2b86 47       		.uleb128 0x47
 8344 2b87 121D0000 		.4byte	.LASF619
 8345 2b8b 01       		.byte	0x1
 8346 2b8c 7F       		.byte	0x7f
 8347 2b8d 21030000 		.4byte	0x321
 8348 2b91 06070000 		.4byte	.LLST60
ARM GAS  C:\Users\haske\AppData\Local\Temp\ccGWO5DZ.s 			page 175


 8349 2b95 3C       		.uleb128 0x3c
 8350 2b96 96000000 		.4byte	.LVL125
 8351 2b9a 353A0000 		.4byte	0x3a35
 8352 2b9e A92B0000 		.4byte	0x2ba9
 8353 2ba2 35       		.uleb128 0x35
 8354 2ba3 01       		.uleb128 0x1
 8355 2ba4 50       		.byte	0x50
 8356 2ba5 02       		.uleb128 0x2
 8357 2ba6 74       		.byte	0x74
 8358 2ba7 00       		.sleb128 0
 8359 2ba8 00       		.byte	0
 8360 2ba9 41       		.uleb128 0x41
 8361 2baa 9C000000 		.4byte	.LVL126
 8362 2bae 403A0000 		.4byte	0x3a40
 8363 2bb2 3C       		.uleb128 0x3c
 8364 2bb3 AE000000 		.4byte	.LVL128
 8365 2bb7 4B3A0000 		.4byte	0x3a4b
 8366 2bbb C62B0000 		.4byte	0x2bc6
 8367 2bbf 35       		.uleb128 0x35
 8368 2bc0 01       		.uleb128 0x1
 8369 2bc1 51       		.byte	0x51
 8370 2bc2 02       		.uleb128 0x2
 8371 2bc3 74       		.byte	0x74
 8372 2bc4 00       		.sleb128 0
 8373 2bc5 00       		.byte	0
 8374 2bc6 34       		.uleb128 0x34
 8375 2bc7 BE000000 		.4byte	.LVL130
 8376 2bcb FE390000 		.4byte	0x39fe
 8377 2bcf 35       		.uleb128 0x35
 8378 2bd0 01       		.uleb128 0x1
 8379 2bd1 50       		.byte	0x50
 8380 2bd2 02       		.uleb128 0x2
 8381 2bd3 78       		.byte	0x78
 8382 2bd4 00       		.sleb128 0
 8383 2bd5 00       		.byte	0
 8384 2bd6 00       		.byte	0
 8385 2bd7 38       		.uleb128 0x38
 8386 2bd8 C2000000 		.4byte	.LBB79
 8387 2bdc 66000000 		.4byte	.LBE79-.LBB79
 8388 2be0 352D0000 		.4byte	0x2d35
 8389 2be4 49       		.uleb128 0x49
 8390 2be5 82220000 		.4byte	.LASF279
 8391 2be9 01       		.byte	0x1
 8392 2bea 8B       		.byte	0x8b
 8393 2beb 9A0C0000 		.4byte	0xc9a
 8394 2bef 49       		.uleb128 0x49
 8395 2bf0 87220000 		.4byte	.LASF285
 8396 2bf4 01       		.byte	0x1
 8397 2bf5 8C       		.byte	0x8c
 8398 2bf6 01010000 		.4byte	0x101
 8399 2bfa 49       		.uleb128 0x49
 8400 2bfb 32220000 		.4byte	.LASF284
 8401 2bff 01       		.byte	0x1
 8402 2c00 8D       		.byte	0x8d
 8403 2c01 01010000 		.4byte	0x101
 8404 2c05 48       		.uleb128 0x48
 8405 2c06 D41E0000 		.4byte	.LASF361
ARM GAS  C:\Users\haske\AppData\Local\Temp\ccGWO5DZ.s 			page 176


 8406 2c0a 01       		.byte	0x1
 8407 2c0b 8E       		.byte	0x8e
 8408 2c0c 29010000 		.4byte	0x129
 8409 2c10 02       		.uleb128 0x2
 8410 2c11 91       		.byte	0x91
 8411 2c12 58       		.sleb128 -40
 8412 2c13 4A       		.uleb128 0x4a
 8413 2c14 75210000 		.4byte	0x2175
 8414 2c18 C2000000 		.4byte	.LBB80
 8415 2c1c 0C000000 		.4byte	.LBE80-.LBB80
 8416 2c20 01       		.byte	0x1
 8417 2c21 8B       		.byte	0x8b
 8418 2c22 632C0000 		.4byte	0x2c63
 8419 2c26 33       		.uleb128 0x33
 8420 2c27 92210000 		.4byte	0x2192
 8421 2c2b 24070000 		.4byte	.LLST61
 8422 2c2f 33       		.uleb128 0x33
 8423 2c30 86210000 		.4byte	0x2186
 8424 2c34 38070000 		.4byte	.LLST62
 8425 2c38 39       		.uleb128 0x39
 8426 2c39 C2000000 		.4byte	.LBB81
 8427 2c3d 0C000000 		.4byte	.LBE81-.LBB81
 8428 2c41 3A       		.uleb128 0x3a
 8429 2c42 9E210000 		.4byte	0x219e
 8430 2c46 34       		.uleb128 0x34
 8431 2c47 CC000000 		.4byte	.LVL132
 8432 2c4b 40390000 		.4byte	0x3940
 8433 2c4f 35       		.uleb128 0x35
 8434 2c50 01       		.uleb128 0x1
 8435 2c51 50       		.byte	0x50
 8436 2c52 02       		.uleb128 0x2
 8437 2c53 77       		.byte	0x77
 8438 2c54 00       		.sleb128 0
 8439 2c55 35       		.uleb128 0x35
 8440 2c56 01       		.uleb128 0x1
 8441 2c57 51       		.byte	0x51
 8442 2c58 01       		.uleb128 0x1
 8443 2c59 30       		.byte	0x30
 8444 2c5a 35       		.uleb128 0x35
 8445 2c5b 01       		.uleb128 0x1
 8446 2c5c 52       		.byte	0x52
 8447 2c5d 02       		.uleb128 0x2
 8448 2c5e 08       		.byte	0x8
 8449 2c5f 57       		.byte	0x57
 8450 2c60 00       		.byte	0
 8451 2c61 00       		.byte	0
 8452 2c62 00       		.byte	0
 8453 2c63 4A       		.uleb128 0x4a
 8454 2c64 41210000 		.4byte	0x2141
 8455 2c68 CE000000 		.4byte	.LBB82
 8456 2c6c 0E000000 		.4byte	.LBE82-.LBB82
 8457 2c70 01       		.byte	0x1
 8458 2c71 8C       		.byte	0x8c
 8459 2c72 B32C0000 		.4byte	0x2cb3
 8460 2c76 33       		.uleb128 0x33
 8461 2c77 5E210000 		.4byte	0x215e
 8462 2c7b 4B070000 		.4byte	.LLST63
ARM GAS  C:\Users\haske\AppData\Local\Temp\ccGWO5DZ.s 			page 177


 8463 2c7f 33       		.uleb128 0x33
 8464 2c80 52210000 		.4byte	0x2152
 8465 2c84 5F070000 		.4byte	.LLST64
 8466 2c88 39       		.uleb128 0x39
 8467 2c89 CE000000 		.4byte	.LBB83
 8468 2c8d 0E000000 		.4byte	.LBE83-.LBB83
 8469 2c91 3A       		.uleb128 0x3a
 8470 2c92 6A210000 		.4byte	0x216a
 8471 2c96 34       		.uleb128 0x34
 8472 2c97 D8000000 		.4byte	.LVL134
 8473 2c9b 40390000 		.4byte	0x3940
 8474 2c9f 35       		.uleb128 0x35
 8475 2ca0 01       		.uleb128 0x1
 8476 2ca1 50       		.byte	0x50
 8477 2ca2 02       		.uleb128 0x2
 8478 2ca3 77       		.byte	0x77
 8479 2ca4 00       		.sleb128 0
 8480 2ca5 35       		.uleb128 0x35
 8481 2ca6 01       		.uleb128 0x1
 8482 2ca7 51       		.byte	0x51
 8483 2ca8 01       		.uleb128 0x1
 8484 2ca9 30       		.byte	0x30
 8485 2caa 35       		.uleb128 0x35
 8486 2cab 01       		.uleb128 0x1
 8487 2cac 52       		.byte	0x52
 8488 2cad 02       		.uleb128 0x2
 8489 2cae 08       		.byte	0x8
 8490 2caf 58       		.byte	0x58
 8491 2cb0 00       		.byte	0
 8492 2cb1 00       		.byte	0
 8493 2cb2 00       		.byte	0
 8494 2cb3 4A       		.uleb128 0x4a
 8495 2cb4 0D210000 		.4byte	0x210d
 8496 2cb8 DC000000 		.4byte	.LBB84
 8497 2cbc 0C000000 		.4byte	.LBE84-.LBB84
 8498 2cc0 01       		.byte	0x1
 8499 2cc1 8D       		.byte	0x8d
 8500 2cc2 032D0000 		.4byte	0x2d03
 8501 2cc6 33       		.uleb128 0x33
 8502 2cc7 2A210000 		.4byte	0x212a
 8503 2ccb 72070000 		.4byte	.LLST65
 8504 2ccf 33       		.uleb128 0x33
 8505 2cd0 1E210000 		.4byte	0x211e
 8506 2cd4 86070000 		.4byte	.LLST66
 8507 2cd8 39       		.uleb128 0x39
 8508 2cd9 DC000000 		.4byte	.LBB85
 8509 2cdd 0C000000 		.4byte	.LBE85-.LBB85
 8510 2ce1 3A       		.uleb128 0x3a
 8511 2ce2 36210000 		.4byte	0x2136
 8512 2ce6 34       		.uleb128 0x34
 8513 2ce7 E6000000 		.4byte	.LVL136
 8514 2ceb 40390000 		.4byte	0x3940
 8515 2cef 35       		.uleb128 0x35
 8516 2cf0 01       		.uleb128 0x1
 8517 2cf1 50       		.byte	0x50
 8518 2cf2 02       		.uleb128 0x2
 8519 2cf3 77       		.byte	0x77
ARM GAS  C:\Users\haske\AppData\Local\Temp\ccGWO5DZ.s 			page 178


 8520 2cf4 00       		.sleb128 0
 8521 2cf5 35       		.uleb128 0x35
 8522 2cf6 01       		.uleb128 0x1
 8523 2cf7 51       		.byte	0x51
 8524 2cf8 01       		.uleb128 0x1
 8525 2cf9 30       		.byte	0x30
 8526 2cfa 35       		.uleb128 0x35
 8527 2cfb 01       		.uleb128 0x1
 8528 2cfc 52       		.byte	0x52
 8529 2cfd 02       		.uleb128 0x2
 8530 2cfe 08       		.byte	0x8
 8531 2cff 59       		.byte	0x59
 8532 2d00 00       		.byte	0
 8533 2d01 00       		.byte	0
 8534 2d02 00       		.byte	0
 8535 2d03 34       		.uleb128 0x34
 8536 2d04 00010000 		.4byte	.LVL138
 8537 2d08 563A0000 		.4byte	0x3a56
 8538 2d0c 35       		.uleb128 0x35
 8539 2d0d 01       		.uleb128 0x1
 8540 2d0e 50       		.byte	0x50
 8541 2d0f 02       		.uleb128 0x2
 8542 2d10 76       		.byte	0x76
 8543 2d11 00       		.sleb128 0
 8544 2d12 35       		.uleb128 0x35
 8545 2d13 01       		.uleb128 0x1
 8546 2d14 51       		.byte	0x51
 8547 2d15 02       		.uleb128 0x2
 8548 2d16 74       		.byte	0x74
 8549 2d17 00       		.sleb128 0
 8550 2d18 35       		.uleb128 0x35
 8551 2d19 01       		.uleb128 0x1
 8552 2d1a 52       		.byte	0x52
 8553 2d1b 03       		.uleb128 0x3
 8554 2d1c 91       		.byte	0x91
 8555 2d1d 54       		.sleb128 -44
 8556 2d1e 06       		.byte	0x6
 8557 2d1f 35       		.uleb128 0x35
 8558 2d20 01       		.uleb128 0x1
 8559 2d21 53       		.byte	0x53
 8560 2d22 02       		.uleb128 0x2
 8561 2d23 79       		.byte	0x79
 8562 2d24 00       		.sleb128 0
 8563 2d25 35       		.uleb128 0x35
 8564 2d26 02       		.uleb128 0x2
 8565 2d27 7D       		.byte	0x7d
 8566 2d28 04       		.sleb128 4
 8567 2d29 03       		.uleb128 0x3
 8568 2d2a 0A       		.byte	0xa
 8569 2d2b FF1F     		.2byte	0x1fff
 8570 2d2d 35       		.uleb128 0x35
 8571 2d2e 02       		.uleb128 0x2
 8572 2d2f 7D       		.byte	0x7d
 8573 2d30 08       		.sleb128 8
 8574 2d31 01       		.uleb128 0x1
 8575 2d32 30       		.byte	0x30
 8576 2d33 00       		.byte	0
ARM GAS  C:\Users\haske\AppData\Local\Temp\ccGWO5DZ.s 			page 179


 8577 2d34 00       		.byte	0
 8578 2d35 3C       		.uleb128 0x3c
 8579 2d36 12000000 		.4byte	.LVL114
 8580 2d3a 613A0000 		.4byte	0x3a61
 8581 2d3e 492D0000 		.4byte	0x2d49
 8582 2d42 35       		.uleb128 0x35
 8583 2d43 01       		.uleb128 0x1
 8584 2d44 50       		.byte	0x50
 8585 2d45 02       		.uleb128 0x2
 8586 2d46 77       		.byte	0x77
 8587 2d47 00       		.sleb128 0
 8588 2d48 00       		.byte	0
 8589 2d49 3C       		.uleb128 0x3c
 8590 2d4a 18000000 		.4byte	.LVL115
 8591 2d4e 6D3A0000 		.4byte	0x3a6d
 8592 2d52 5D2D0000 		.4byte	0x2d5d
 8593 2d56 35       		.uleb128 0x35
 8594 2d57 01       		.uleb128 0x1
 8595 2d58 50       		.byte	0x50
 8596 2d59 02       		.uleb128 0x2
 8597 2d5a 74       		.byte	0x74
 8598 2d5b 00       		.sleb128 0
 8599 2d5c 00       		.byte	0
 8600 2d5d 41       		.uleb128 0x41
 8601 2d5e 36000000 		.4byte	.LVL118
 8602 2d62 FE390000 		.4byte	0x39fe
 8603 2d66 3C       		.uleb128 0x3c
 8604 2d67 4E000000 		.4byte	.LVL121
 8605 2d6b 783A0000 		.4byte	0x3a78
 8606 2d6f 802D0000 		.4byte	0x2d80
 8607 2d73 35       		.uleb128 0x35
 8608 2d74 01       		.uleb128 0x1
 8609 2d75 50       		.byte	0x50
 8610 2d76 02       		.uleb128 0x2
 8611 2d77 74       		.byte	0x74
 8612 2d78 00       		.sleb128 0
 8613 2d79 35       		.uleb128 0x35
 8614 2d7a 01       		.uleb128 0x1
 8615 2d7b 51       		.byte	0x51
 8616 2d7c 02       		.uleb128 0x2
 8617 2d7d 91       		.byte	0x91
 8618 2d7e 5C       		.sleb128 -36
 8619 2d7f 00       		.byte	0
 8620 2d80 41       		.uleb128 0x41
 8621 2d81 68000000 		.4byte	.LVL122
 8622 2d85 FE390000 		.4byte	0x39fe
 8623 2d89 3C       		.uleb128 0x3c
 8624 2d8a 72010000 		.4byte	.LVL140
 8625 2d8e 833A0000 		.4byte	0x3a83
 8626 2d92 9D2D0000 		.4byte	0x2d9d
 8627 2d96 35       		.uleb128 0x35
 8628 2d97 01       		.uleb128 0x1
 8629 2d98 50       		.byte	0x50
 8630 2d99 02       		.uleb128 0x2
 8631 2d9a 77       		.byte	0x77
 8632 2d9b 00       		.sleb128 0
 8633 2d9c 00       		.byte	0
ARM GAS  C:\Users\haske\AppData\Local\Temp\ccGWO5DZ.s 			page 180


 8634 2d9d 3C       		.uleb128 0x3c
 8635 2d9e 88010000 		.4byte	.LVL141
 8636 2da2 8F3A0000 		.4byte	0x3a8f
 8637 2da6 B12D0000 		.4byte	0x2db1
 8638 2daa 35       		.uleb128 0x35
 8639 2dab 01       		.uleb128 0x1
 8640 2dac 50       		.byte	0x50
 8641 2dad 02       		.uleb128 0x2
 8642 2dae 77       		.byte	0x77
 8643 2daf 00       		.sleb128 0
 8644 2db0 00       		.byte	0
 8645 2db1 34       		.uleb128 0x34
 8646 2db2 8E010000 		.4byte	.LVL142
 8647 2db6 613A0000 		.4byte	0x3a61
 8648 2dba 35       		.uleb128 0x35
 8649 2dbb 01       		.uleb128 0x1
 8650 2dbc 50       		.byte	0x50
 8651 2dbd 02       		.uleb128 0x2
 8652 2dbe 77       		.byte	0x77
 8653 2dbf 00       		.sleb128 0
 8654 2dc0 00       		.byte	0
 8655 2dc1 00       		.byte	0
 8656 2dc2 3F       		.uleb128 0x3f
 8657 2dc3 D0290000 		.4byte	.LASF620
 8658 2dc7 01       		.byte	0x1
 8659 2dc8 B501     		.2byte	0x1b5
 8660 2dca 00000000 		.4byte	.LFB185
 8661 2dce F4010000 		.4byte	.LFE185-.LFB185
 8662 2dd2 01       		.uleb128 0x1
 8663 2dd3 9C       		.byte	0x9c
 8664 2dd4 DA300000 		.4byte	0x30da
 8665 2dd8 40       		.uleb128 0x40
 8666 2dd9 C2180000 		.4byte	.LASF239
 8667 2ddd 01       		.byte	0x1
 8668 2dde B501     		.2byte	0x1b5
 8669 2de0 6B1E0000 		.4byte	0x1e6b
 8670 2de4 99070000 		.4byte	.LLST67
 8671 2de8 2F       		.uleb128 0x2f
 8672 2de9 6500     		.ascii	"e\000"
 8673 2deb 01       		.byte	0x1
 8674 2dec B501     		.2byte	0x1b5
 8675 2dee F21C0000 		.4byte	0x1cf2
 8676 2df2 BA070000 		.4byte	.LLST68
 8677 2df6 37       		.uleb128 0x37
 8678 2df7 671D0000 		.4byte	.LASF497
 8679 2dfb 01       		.byte	0x1
 8680 2dfc B901     		.2byte	0x1b9
 8681 2dfe DC1C0000 		.4byte	0x1cdc
 8682 2e02 18080000 		.4byte	.LLST69
 8683 2e06 30       		.uleb128 0x30
 8684 2e07 6F626A00 		.ascii	"obj\000"
 8685 2e0b 01       		.byte	0x1
 8686 2e0c C201     		.2byte	0x1c2
 8687 2e0e 7D1F0000 		.4byte	0x1f7d
 8688 2e12 57080000 		.4byte	.LLST70
 8689 2e16 30       		.uleb128 0x30
 8690 2e17 696D6700 		.ascii	"img\000"
ARM GAS  C:\Users\haske\AppData\Local\Temp\ccGWO5DZ.s 			page 181


 8691 2e1b 01       		.byte	0x1
 8692 2e1c C301     		.2byte	0x1c3
 8693 2e1e 46220000 		.4byte	0x2246
 8694 2e22 57080000 		.4byte	.LLST70
 8695 2e26 38       		.uleb128 0x38
 8696 2e27 16000000 		.4byte	.LBB86
 8697 2e2b 0E000000 		.4byte	.LBE86-.LBB86
 8698 2e2f 5D2E0000 		.4byte	0x2e5d
 8699 2e33 30       		.uleb128 0x30
 8700 2e34 72657300 		.ascii	"res\000"
 8701 2e38 01       		.byte	0x1
 8702 2e39 BE01     		.2byte	0x1be
 8703 2e3b 0F030000 		.4byte	0x30f
 8704 2e3f E3080000 		.4byte	.LLST72
 8705 2e43 34       		.uleb128 0x34
 8706 2e44 1E000000 		.4byte	.LVL149
 8707 2e48 DD390000 		.4byte	0x39dd
 8708 2e4c 35       		.uleb128 0x35
 8709 2e4d 01       		.uleb128 0x1
 8710 2e4e 50       		.byte	0x50
 8711 2e4f 05       		.uleb128 0x5
 8712 2e50 03       		.byte	0x3
 8713 2e51 00000000 		.4byte	.LANCHOR0
 8714 2e55 35       		.uleb128 0x35
 8715 2e56 01       		.uleb128 0x1
 8716 2e57 51       		.byte	0x51
 8717 2e58 02       		.uleb128 0x2
 8718 2e59 75       		.byte	0x75
 8719 2e5a 00       		.sleb128 0
 8720 2e5b 00       		.byte	0
 8721 2e5c 00       		.byte	0
 8722 2e5d 38       		.uleb128 0x38
 8723 2e5e 4E000000 		.4byte	.LBB87
 8724 2e62 92000000 		.4byte	.LBE87-.LBB87
 8725 2e66 0D2F0000 		.4byte	0x2f0d
 8726 2e6a 30       		.uleb128 0x30
 8727 2e6b 7300     		.ascii	"s\000"
 8728 2e6d 01       		.byte	0x1
 8729 2e6e D101     		.2byte	0x1d1
 8730 2e70 DA300000 		.4byte	0x30da
 8731 2e74 F6080000 		.4byte	.LLST73
 8732 2e78 38       		.uleb128 0x38
 8733 2e79 68000000 		.4byte	.LBB88
 8734 2e7d 78000000 		.4byte	.LBE88-.LBB88
 8735 2e81 FC2E0000 		.4byte	0x2efc
 8736 2e85 3B       		.uleb128 0x3b
 8737 2e86 6100     		.ascii	"a\000"
 8738 2e88 01       		.byte	0x1
 8739 2e89 D501     		.2byte	0x1d5
 8740 2e8b 69010000 		.4byte	0x169
 8741 2e8f 02       		.uleb128 0x2
 8742 2e90 91       		.byte	0x91
 8743 2e91 60       		.sleb128 -32
 8744 2e92 30       		.uleb128 0x30
 8745 2e93 7700     		.ascii	"w\000"
 8746 2e95 01       		.byte	0x1
 8747 2e96 D601     		.2byte	0x1d6
ARM GAS  C:\Users\haske\AppData\Local\Temp\ccGWO5DZ.s 			page 182


 8748 2e98 01010000 		.4byte	0x101
 8749 2e9c 14090000 		.4byte	.LLST74
 8750 2ea0 30       		.uleb128 0x30
 8751 2ea1 6800     		.ascii	"h\000"
 8752 2ea3 01       		.byte	0x1
 8753 2ea4 D701     		.2byte	0x1d7
 8754 2ea6 01010000 		.4byte	0x101
 8755 2eaa 27090000 		.4byte	.LLST75
 8756 2eae 3C       		.uleb128 0x3c
 8757 2eaf 6E000000 		.4byte	.LVL161
 8758 2eb3 4B390000 		.4byte	0x394b
 8759 2eb7 C22E0000 		.4byte	0x2ec2
 8760 2ebb 35       		.uleb128 0x35
 8761 2ebc 01       		.uleb128 0x1
 8762 2ebd 50       		.byte	0x50
 8763 2ebe 02       		.uleb128 0x2
 8764 2ebf 76       		.byte	0x76
 8765 2ec0 00       		.sleb128 0
 8766 2ec1 00       		.byte	0
 8767 2ec2 3C       		.uleb128 0x3c
 8768 2ec3 76000000 		.4byte	.LVL163
 8769 2ec7 57390000 		.4byte	0x3957
 8770 2ecb D62E0000 		.4byte	0x2ed6
 8771 2ecf 35       		.uleb128 0x35
 8772 2ed0 01       		.uleb128 0x1
 8773 2ed1 50       		.byte	0x50
 8774 2ed2 02       		.uleb128 0x2
 8775 2ed3 76       		.byte	0x76
 8776 2ed4 00       		.sleb128 0
 8777 2ed5 00       		.byte	0
 8778 2ed6 34       		.uleb128 0x34
 8779 2ed7 94000000 		.4byte	.LVL167
 8780 2edb 35390000 		.4byte	0x3935
 8781 2edf 35       		.uleb128 0x35
 8782 2ee0 01       		.uleb128 0x1
 8783 2ee1 50       		.byte	0x50
 8784 2ee2 02       		.uleb128 0x2
 8785 2ee3 74       		.byte	0x74
 8786 2ee4 00       		.sleb128 0
 8787 2ee5 35       		.uleb128 0x35
 8788 2ee6 01       		.uleb128 0x1
 8789 2ee7 51       		.byte	0x51
 8790 2ee8 02       		.uleb128 0x2
 8791 2ee9 75       		.byte	0x75
 8792 2eea 00       		.sleb128 0
 8793 2eeb 35       		.uleb128 0x35
 8794 2eec 01       		.uleb128 0x1
 8795 2eed 52       		.byte	0x52
 8796 2eee 04       		.uleb128 0x4
 8797 2eef 91       		.byte	0x91
 8798 2ef0 5C       		.sleb128 -36
 8799 2ef1 94       		.byte	0x94
 8800 2ef2 02       		.byte	0x2
 8801 2ef3 35       		.uleb128 0x35
 8802 2ef4 02       		.uleb128 0x2
 8803 2ef5 7D       		.byte	0x7d
 8804 2ef6 04       		.sleb128 4
ARM GAS  C:\Users\haske\AppData\Local\Temp\ccGWO5DZ.s 			page 183


 8805 2ef7 02       		.uleb128 0x2
 8806 2ef8 76       		.byte	0x76
 8807 2ef9 32       		.sleb128 50
 8808 2efa 00       		.byte	0
 8809 2efb 00       		.byte	0
 8810 2efc 34       		.uleb128 0x34
 8811 2efd 54000000 		.4byte	.LVL158
 8812 2f01 6E390000 		.4byte	0x396e
 8813 2f05 35       		.uleb128 0x35
 8814 2f06 01       		.uleb128 0x1
 8815 2f07 50       		.byte	0x50
 8816 2f08 02       		.uleb128 0x2
 8817 2f09 75       		.byte	0x75
 8818 2f0a 00       		.sleb128 0
 8819 2f0b 00       		.byte	0
 8820 2f0c 00       		.byte	0
 8821 2f0d 38       		.uleb128 0x38
 8822 2f0e E4000000 		.4byte	.LBB89
 8823 2f12 C0000000 		.4byte	.LBE89-.LBB89
 8824 2f16 44300000 		.4byte	0x3044
 8825 2f1a 37       		.uleb128 0x37
 8826 2f1b F30D0000 		.4byte	.LASF598
 8827 2f1f 01       		.byte	0x1
 8828 2f20 E001     		.2byte	0x1e0
 8829 2f22 E0300000 		.4byte	0x30e0
 8830 2f26 51090000 		.4byte	.LLST76
 8831 2f2a 38       		.uleb128 0x38
 8832 2f2b 3C010000 		.4byte	.LBB90
 8833 2f2f 50000000 		.4byte	.LBE90-.LBB90
 8834 2f33 C12F0000 		.4byte	0x2fc1
 8835 2f37 30       		.uleb128 0x30
 8836 2f38 7700     		.ascii	"w\000"
 8837 2f3a 01       		.byte	0x1
 8838 2f3b E701     		.2byte	0x1e7
 8839 2f3d 01010000 		.4byte	0x101
 8840 2f41 6F090000 		.4byte	.LLST77
 8841 2f45 30       		.uleb128 0x30
 8842 2f46 6800     		.ascii	"h\000"
 8843 2f48 01       		.byte	0x1
 8844 2f49 E801     		.2byte	0x1e8
 8845 2f4b 01010000 		.4byte	0x101
 8846 2f4f 82090000 		.4byte	.LLST78
 8847 2f53 31       		.uleb128 0x31
 8848 2f54 2D240000 		.4byte	.LASF243
 8849 2f58 01       		.byte	0x1
 8850 2f59 E901     		.2byte	0x1e9
 8851 2f5b 69010000 		.4byte	0x169
 8852 2f5f 02       		.uleb128 0x2
 8853 2f60 91       		.byte	0x91
 8854 2f61 60       		.sleb128 -32
 8855 2f62 3C       		.uleb128 0x3c
 8856 2f63 42010000 		.4byte	.LVL177
 8857 2f67 4B390000 		.4byte	0x394b
 8858 2f6b 762F0000 		.4byte	0x2f76
 8859 2f6f 35       		.uleb128 0x35
 8860 2f70 01       		.uleb128 0x1
 8861 2f71 50       		.byte	0x50
ARM GAS  C:\Users\haske\AppData\Local\Temp\ccGWO5DZ.s 			page 184


 8862 2f72 02       		.uleb128 0x2
 8863 2f73 76       		.byte	0x76
 8864 2f74 00       		.sleb128 0
 8865 2f75 00       		.byte	0
 8866 2f76 3C       		.uleb128 0x3c
 8867 2f77 4A010000 		.4byte	.LVL179
 8868 2f7b 57390000 		.4byte	0x3957
 8869 2f7f 8A2F0000 		.4byte	0x2f8a
 8870 2f83 35       		.uleb128 0x35
 8871 2f84 01       		.uleb128 0x1
 8872 2f85 50       		.byte	0x50
 8873 2f86 02       		.uleb128 0x2
 8874 2f87 76       		.byte	0x76
 8875 2f88 00       		.sleb128 0
 8876 2f89 00       		.byte	0
 8877 2f8a 3C       		.uleb128 0x3c
 8878 2f8b 64010000 		.4byte	.LVL181
 8879 2f8f 35390000 		.4byte	0x3935
 8880 2f93 AB2F0000 		.4byte	0x2fab
 8881 2f97 35       		.uleb128 0x35
 8882 2f98 01       		.uleb128 0x1
 8883 2f99 50       		.byte	0x50
 8884 2f9a 02       		.uleb128 0x2
 8885 2f9b 75       		.byte	0x75
 8886 2f9c 00       		.sleb128 0
 8887 2f9d 35       		.uleb128 0x35
 8888 2f9e 01       		.uleb128 0x1
 8889 2f9f 51       		.byte	0x51
 8890 2fa0 02       		.uleb128 0x2
 8891 2fa1 77       		.byte	0x77
 8892 2fa2 00       		.sleb128 0
 8893 2fa3 35       		.uleb128 0x35
 8894 2fa4 02       		.uleb128 0x2
 8895 2fa5 7D       		.byte	0x7d
 8896 2fa6 04       		.sleb128 4
 8897 2fa7 02       		.uleb128 0x2
 8898 2fa8 76       		.byte	0x76
 8899 2fa9 32       		.sleb128 50
 8900 2faa 00       		.byte	0
 8901 2fab 34       		.uleb128 0x34
 8902 2fac 8A010000 		.4byte	.LVL183
 8903 2fb0 9A3A0000 		.4byte	0x3a9a
 8904 2fb4 35       		.uleb128 0x35
 8905 2fb5 01       		.uleb128 0x1
 8906 2fb6 50       		.byte	0x50
 8907 2fb7 02       		.uleb128 0x2
 8908 2fb8 75       		.byte	0x75
 8909 2fb9 00       		.sleb128 0
 8910 2fba 35       		.uleb128 0x35
 8911 2fbb 01       		.uleb128 0x1
 8912 2fbc 52       		.byte	0x52
 8913 2fbd 01       		.uleb128 0x1
 8914 2fbe 30       		.byte	0x30
 8915 2fbf 00       		.byte	0
 8916 2fc0 00       		.byte	0
 8917 2fc1 38       		.uleb128 0x38
 8918 2fc2 8E010000 		.4byte	.LBB91
ARM GAS  C:\Users\haske\AppData\Local\Temp\ccGWO5DZ.s 			page 185


 8919 2fc6 16000000 		.4byte	.LBE91-.LBB91
 8920 2fca 0B300000 		.4byte	0x300b
 8921 2fce 3B       		.uleb128 0x3b
 8922 2fcf 6100     		.ascii	"a\000"
 8923 2fd1 01       		.byte	0x1
 8924 2fd2 F301     		.2byte	0x1f3
 8925 2fd4 69010000 		.4byte	0x169
 8926 2fd8 02       		.uleb128 0x2
 8927 2fd9 91       		.byte	0x91
 8928 2fda 60       		.sleb128 -32
 8929 2fdb 3C       		.uleb128 0x3c
 8930 2fdc 96010000 		.4byte	.LVL184
 8931 2fe0 A53A0000 		.4byte	0x3aa5
 8932 2fe4 F52F0000 		.4byte	0x2ff5
 8933 2fe8 35       		.uleb128 0x35
 8934 2fe9 01       		.uleb128 0x1
 8935 2fea 50       		.byte	0x50
 8936 2feb 02       		.uleb128 0x2
 8937 2fec 76       		.byte	0x76
 8938 2fed 00       		.sleb128 0
 8939 2fee 35       		.uleb128 0x35
 8940 2fef 01       		.uleb128 0x1
 8941 2ff0 51       		.byte	0x51
 8942 2ff1 02       		.uleb128 0x2
 8943 2ff2 91       		.byte	0x91
 8944 2ff3 60       		.sleb128 -32
 8945 2ff4 00       		.byte	0
 8946 2ff5 34       		.uleb128 0x34
 8947 2ff6 A0010000 		.4byte	.LVL185
 8948 2ffa 9A3A0000 		.4byte	0x3a9a
 8949 2ffe 35       		.uleb128 0x35
 8950 2fff 01       		.uleb128 0x1
 8951 3000 50       		.byte	0x50
 8952 3001 02       		.uleb128 0x2
 8953 3002 91       		.byte	0x91
 8954 3003 60       		.sleb128 -32
 8955 3004 35       		.uleb128 0x35
 8956 3005 01       		.uleb128 0x1
 8957 3006 52       		.byte	0x52
 8958 3007 01       		.uleb128 0x1
 8959 3008 30       		.byte	0x30
 8960 3009 00       		.byte	0
 8961 300a 00       		.byte	0
 8962 300b 3C       		.uleb128 0x3c
 8963 300c EA000000 		.4byte	.LVL171
 8964 3010 6E390000 		.4byte	0x396e
 8965 3014 1F300000 		.4byte	0x301f
 8966 3018 35       		.uleb128 0x35
 8967 3019 01       		.uleb128 0x1
 8968 301a 50       		.byte	0x50
 8969 301b 02       		.uleb128 0x2
 8970 301c 75       		.byte	0x75
 8971 301d 00       		.sleb128 0
 8972 301e 00       		.byte	0
 8973 301f 3C       		.uleb128 0x3c
 8974 3020 F6000000 		.4byte	.LVL175
 8975 3024 4B390000 		.4byte	0x394b
ARM GAS  C:\Users\haske\AppData\Local\Temp\ccGWO5DZ.s 			page 186


 8976 3028 33300000 		.4byte	0x3033
 8977 302c 35       		.uleb128 0x35
 8978 302d 01       		.uleb128 0x1
 8979 302e 50       		.byte	0x50
 8980 302f 02       		.uleb128 0x2
 8981 3030 76       		.byte	0x76
 8982 3031 00       		.sleb128 0
 8983 3032 00       		.byte	0
 8984 3033 34       		.uleb128 0x34
 8985 3034 04010000 		.4byte	.LVL176
 8986 3038 57390000 		.4byte	0x3957
 8987 303c 35       		.uleb128 0x35
 8988 303d 01       		.uleb128 0x1
 8989 303e 50       		.byte	0x50
 8990 303f 02       		.uleb128 0x2
 8991 3040 76       		.byte	0x76
 8992 3041 00       		.sleb128 0
 8993 3042 00       		.byte	0
 8994 3043 00       		.byte	0
 8995 3044 38       		.uleb128 0x38
 8996 3045 A8010000 		.4byte	.LBB92
 8997 3049 30000000 		.4byte	.LBE92-.LBB92
 8998 304d 84300000 		.4byte	0x3084
 8999 3051 30       		.uleb128 0x30
 9000 3052 7000     		.ascii	"p\000"
 9001 3054 01       		.byte	0x1
 9002 3055 F901     		.2byte	0x1f9
 9003 3057 420E0000 		.4byte	0xe42
 9004 305b 95090000 		.4byte	.LLST79
 9005 305f 3C       		.uleb128 0x3c
 9006 3060 AE010000 		.4byte	.LVL188
 9007 3064 6E390000 		.4byte	0x396e
 9008 3068 73300000 		.4byte	0x3073
 9009 306c 35       		.uleb128 0x35
 9010 306d 01       		.uleb128 0x1
 9011 306e 50       		.byte	0x50
 9012 306f 02       		.uleb128 0x2
 9013 3070 75       		.byte	0x75
 9014 3071 00       		.sleb128 0
 9015 3072 00       		.byte	0
 9016 3073 34       		.uleb128 0x34
 9017 3074 C2010000 		.4byte	.LVL191
 9018 3078 A9210000 		.4byte	0x21a9
 9019 307c 35       		.uleb128 0x35
 9020 307d 01       		.uleb128 0x1
 9021 307e 50       		.byte	0x50
 9022 307f 02       		.uleb128 0x2
 9023 3080 76       		.byte	0x76
 9024 3081 00       		.sleb128 0
 9025 3082 00       		.byte	0
 9026 3083 00       		.byte	0
 9027 3084 3C       		.uleb128 0x3c
 9028 3085 0C000000 		.4byte	.LVL146
 9029 3089 E8390000 		.4byte	0x39e8
 9030 308d 98300000 		.4byte	0x3098
 9031 3091 35       		.uleb128 0x35
 9032 3092 01       		.uleb128 0x1
ARM GAS  C:\Users\haske\AppData\Local\Temp\ccGWO5DZ.s 			page 187


 9033 3093 50       		.byte	0x50
 9034 3094 02       		.uleb128 0x2
 9035 3095 75       		.byte	0x75
 9036 3096 00       		.sleb128 0
 9037 3097 00       		.byte	0
 9038 3098 3C       		.uleb128 0x3c
 9039 3099 2A000000 		.4byte	.LVL151
 9040 309d F3390000 		.4byte	0x39f3
 9041 30a1 AC300000 		.4byte	0x30ac
 9042 30a5 35       		.uleb128 0x35
 9043 30a6 01       		.uleb128 0x1
 9044 30a7 50       		.byte	0x50
 9045 30a8 02       		.uleb128 0x2
 9046 30a9 75       		.byte	0x75
 9047 30aa 00       		.sleb128 0
 9048 30ab 00       		.byte	0
 9049 30ac 3C       		.uleb128 0x3c
 9050 30ad 42000000 		.4byte	.LVL153
 9051 30b1 0B2B0000 		.4byte	0x2b0b
 9052 30b5 C0300000 		.4byte	0x30c0
 9053 30b9 35       		.uleb128 0x35
 9054 30ba 01       		.uleb128 0x1
 9055 30bb 50       		.byte	0x50
 9056 30bc 02       		.uleb128 0x2
 9057 30bd 76       		.byte	0x76
 9058 30be 00       		.sleb128 0
 9059 30bf 00       		.byte	0
 9060 30c0 41       		.uleb128 0x41
 9061 30c1 48000000 		.4byte	.LVL155
 9062 30c5 8F3A0000 		.4byte	0x3a8f
 9063 30c9 34       		.uleb128 0x34
 9064 30ca EA010000 		.4byte	.LVL195
 9065 30ce 4C220000 		.4byte	0x224c
 9066 30d2 35       		.uleb128 0x35
 9067 30d3 01       		.uleb128 0x1
 9068 30d4 50       		.byte	0x50
 9069 30d5 02       		.uleb128 0x2
 9070 30d6 75       		.byte	0x75
 9071 30d7 00       		.sleb128 0
 9072 30d8 00       		.byte	0
 9073 30d9 00       		.byte	0
 9074 30da 0B       		.uleb128 0xb
 9075 30db 04       		.byte	0x4
 9076 30dc 01010000 		.4byte	0x101
 9077 30e0 0B       		.uleb128 0xb
 9078 30e1 04       		.byte	0x4
 9079 30e2 191D0000 		.4byte	0x1d19
 9080 30e6 45       		.uleb128 0x45
 9081 30e7 D2150000 		.4byte	.LASF622
 9082 30eb 01       		.byte	0x1
 9083 30ec A3       		.byte	0xa3
 9084 30ed 00000000 		.4byte	.LFB167
 9085 30f1 0A000000 		.4byte	.LFE167-.LFB167
 9086 30f5 01       		.uleb128 0x1
 9087 30f6 9C       		.byte	0x9c
 9088 30f7 38310000 		.4byte	0x3138
 9089 30fb 46       		.uleb128 0x46
ARM GAS  C:\Users\haske\AppData\Local\Temp\ccGWO5DZ.s 			page 188


 9090 30fc 6F626A00 		.ascii	"obj\000"
 9091 3100 01       		.byte	0x1
 9092 3101 A3       		.byte	0xa3
 9093 3102 7D1F0000 		.4byte	0x1f7d
 9094 3106 BE090000 		.4byte	.LLST80
 9095 310a 46       		.uleb128 0x46
 9096 310b 7800     		.ascii	"x\000"
 9097 310d 01       		.byte	0x1
 9098 310e A3       		.byte	0xa3
 9099 310f 01010000 		.4byte	0x101
 9100 3113 DF090000 		.4byte	.LLST81
 9101 3117 44       		.uleb128 0x44
 9102 3118 696D6700 		.ascii	"img\000"
 9103 311c 01       		.byte	0x1
 9104 311d A7       		.byte	0xa7
 9105 311e 46220000 		.4byte	0x2246
 9106 3122 000A0000 		.4byte	.LLST82
 9107 3126 34       		.uleb128 0x34
 9108 3127 08000000 		.4byte	.LVL198
 9109 312b 613A0000 		.4byte	0x3a61
 9110 312f 35       		.uleb128 0x35
 9111 3130 01       		.uleb128 0x1
 9112 3131 50       		.byte	0x50
 9113 3132 03       		.uleb128 0x3
 9114 3133 F3       		.byte	0xf3
 9115 3134 01       		.uleb128 0x1
 9116 3135 50       		.byte	0x50
 9117 3136 00       		.byte	0
 9118 3137 00       		.byte	0
 9119 3138 45       		.uleb128 0x45
 9120 3139 E6150000 		.4byte	.LASF623
 9121 313d 01       		.byte	0x1
 9122 313e AD       		.byte	0xad
 9123 313f 00000000 		.4byte	.LFB168
 9124 3143 0A000000 		.4byte	.LFE168-.LFB168
 9125 3147 01       		.uleb128 0x1
 9126 3148 9C       		.byte	0x9c
 9127 3149 8A310000 		.4byte	0x318a
 9128 314d 46       		.uleb128 0x46
 9129 314e 6F626A00 		.ascii	"obj\000"
 9130 3152 01       		.byte	0x1
 9131 3153 AD       		.byte	0xad
 9132 3154 7D1F0000 		.4byte	0x1f7d
 9133 3158 210A0000 		.4byte	.LLST83
 9134 315c 46       		.uleb128 0x46
 9135 315d 7900     		.ascii	"y\000"
 9136 315f 01       		.byte	0x1
 9137 3160 AD       		.byte	0xad
 9138 3161 01010000 		.4byte	0x101
 9139 3165 420A0000 		.4byte	.LLST84
 9140 3169 44       		.uleb128 0x44
 9141 316a 696D6700 		.ascii	"img\000"
 9142 316e 01       		.byte	0x1
 9143 316f B1       		.byte	0xb1
 9144 3170 46220000 		.4byte	0x2246
 9145 3174 630A0000 		.4byte	.LLST85
 9146 3178 34       		.uleb128 0x34
ARM GAS  C:\Users\haske\AppData\Local\Temp\ccGWO5DZ.s 			page 189


 9147 3179 08000000 		.4byte	.LVL201
 9148 317d 613A0000 		.4byte	0x3a61
 9149 3181 35       		.uleb128 0x35
 9150 3182 01       		.uleb128 0x1
 9151 3183 50       		.byte	0x50
 9152 3184 03       		.uleb128 0x3
 9153 3185 F3       		.byte	0xf3
 9154 3186 01       		.uleb128 0x1
 9155 3187 50       		.byte	0x50
 9156 3188 00       		.byte	0
 9157 3189 00       		.byte	0
 9158 318a 45       		.uleb128 0x45
 9159 318b B2100000 		.4byte	.LASF624
 9160 318f 01       		.byte	0x1
 9161 3190 B7       		.byte	0xb7
 9162 3191 00000000 		.4byte	.LFB169
 9163 3195 E8000000 		.4byte	.LFE169-.LFB169
 9164 3199 01       		.uleb128 0x1
 9165 319a 9C       		.byte	0x9c
 9166 319b 1E330000 		.4byte	0x331e
 9167 319f 46       		.uleb128 0x46
 9168 31a0 6F626A00 		.ascii	"obj\000"
 9169 31a4 01       		.byte	0x1
 9170 31a5 B7       		.byte	0xb7
 9171 31a6 7D1F0000 		.4byte	0x1f7d
 9172 31aa 840A0000 		.4byte	.LLST86
 9173 31ae 43       		.uleb128 0x43
 9174 31af 70140000 		.4byte	.LASF291
 9175 31b3 01       		.byte	0x1
 9176 31b4 B7       		.byte	0xb7
 9177 31b5 C3000000 		.4byte	0xc3
 9178 31b9 B00A0000 		.4byte	.LLST87
 9179 31bd 44       		.uleb128 0x44
 9180 31be 696D6700 		.ascii	"img\000"
 9181 31c2 01       		.byte	0x1
 9182 31c3 BC       		.byte	0xbc
 9183 31c4 46220000 		.4byte	0x2246
 9184 31c8 E40A0000 		.4byte	.LLST88
 9185 31cc 44       		.uleb128 0x44
 9186 31cd 7700     		.ascii	"w\000"
 9187 31cf 01       		.byte	0x1
 9188 31d0 C0       		.byte	0xc0
 9189 31d1 01010000 		.4byte	0x101
 9190 31d5 100B0000 		.4byte	.LLST89
 9191 31d9 44       		.uleb128 0x44
 9192 31da 6800     		.ascii	"h\000"
 9193 31dc 01       		.byte	0x1
 9194 31dd C1       		.byte	0xc1
 9195 31de 01010000 		.4byte	0x101
 9196 31e2 240B0000 		.4byte	.LLST90
 9197 31e6 4B       		.uleb128 0x4b
 9198 31e7 6100     		.ascii	"a\000"
 9199 31e9 01       		.byte	0x1
 9200 31ea C2       		.byte	0xc2
 9201 31eb 69010000 		.4byte	0x169
 9202 31ef 02       		.uleb128 0x2
 9203 31f0 91       		.byte	0x91
ARM GAS  C:\Users\haske\AppData\Local\Temp\ccGWO5DZ.s 			page 190


 9204 31f1 60       		.sleb128 -32
 9205 31f2 47       		.uleb128 0x47
 9206 31f3 01190000 		.4byte	.LASF416
 9207 31f7 01       		.byte	0x1
 9208 31f8 CE       		.byte	0xce
 9209 31f9 1E330000 		.4byte	0x331e
 9210 31fd 370B0000 		.4byte	.LLST91
 9211 3201 3C       		.uleb128 0x3c
 9212 3202 34000000 		.4byte	.LVL210
 9213 3206 B13A0000 		.4byte	0x3ab1
 9214 320a 15320000 		.4byte	0x3215
 9215 320e 35       		.uleb128 0x35
 9216 320f 01       		.uleb128 0x1
 9217 3210 50       		.byte	0x50
 9218 3211 02       		.uleb128 0x2
 9219 3212 76       		.byte	0x76
 9220 3213 00       		.sleb128 0
 9221 3214 00       		.byte	0
 9222 3215 3C       		.uleb128 0x3c
 9223 3216 3A000000 		.4byte	.LVL211
 9224 321a 4B390000 		.4byte	0x394b
 9225 321e 29320000 		.4byte	0x3229
 9226 3222 35       		.uleb128 0x35
 9227 3223 01       		.uleb128 0x1
 9228 3224 50       		.byte	0x50
 9229 3225 02       		.uleb128 0x2
 9230 3226 76       		.byte	0x76
 9231 3227 00       		.sleb128 0
 9232 3228 00       		.byte	0
 9233 3229 3C       		.uleb128 0x3c
 9234 322a 42000000 		.4byte	.LVL213
 9235 322e 57390000 		.4byte	0x3957
 9236 3232 3D320000 		.4byte	0x323d
 9237 3236 35       		.uleb128 0x35
 9238 3237 01       		.uleb128 0x1
 9239 3238 50       		.byte	0x50
 9240 3239 02       		.uleb128 0x2
 9241 323a 76       		.byte	0x76
 9242 323b 00       		.sleb128 0
 9243 323c 00       		.byte	0
 9244 323d 3C       		.uleb128 0x3c
 9245 323e 5E000000 		.4byte	.LVL215
 9246 3242 35390000 		.4byte	0x3935
 9247 3246 68320000 		.4byte	0x3268
 9248 324a 35       		.uleb128 0x35
 9249 324b 01       		.uleb128 0x1
 9250 324c 50       		.byte	0x50
 9251 324d 02       		.uleb128 0x2
 9252 324e 75       		.byte	0x75
 9253 324f 00       		.sleb128 0
 9254 3250 35       		.uleb128 0x35
 9255 3251 01       		.uleb128 0x1
 9256 3252 51       		.byte	0x51
 9257 3253 04       		.uleb128 0x4
 9258 3254 91       		.byte	0x91
 9259 3255 58       		.sleb128 -40
 9260 3256 94       		.byte	0x94
ARM GAS  C:\Users\haske\AppData\Local\Temp\ccGWO5DZ.s 			page 191


 9261 3257 02       		.byte	0x2
 9262 3258 35       		.uleb128 0x35
 9263 3259 01       		.uleb128 0x1
 9264 325a 52       		.byte	0x52
 9265 325b 04       		.uleb128 0x4
 9266 325c 91       		.byte	0x91
 9267 325d 5C       		.sleb128 -36
 9268 325e 94       		.byte	0x94
 9269 325f 02       		.byte	0x2
 9270 3260 35       		.uleb128 0x35
 9271 3261 02       		.uleb128 0x2
 9272 3262 7D       		.byte	0x7d
 9273 3263 04       		.sleb128 4
 9274 3264 02       		.uleb128 0x2
 9275 3265 77       		.byte	0x77
 9276 3266 00       		.sleb128 0
 9277 3267 00       		.byte	0
 9278 3268 3C       		.uleb128 0x3c
 9279 3269 84000000 		.4byte	.LVL216
 9280 326d BC3A0000 		.4byte	0x3abc
 9281 3271 82320000 		.4byte	0x3282
 9282 3275 35       		.uleb128 0x35
 9283 3276 01       		.uleb128 0x1
 9284 3277 50       		.byte	0x50
 9285 3278 02       		.uleb128 0x2
 9286 3279 76       		.byte	0x76
 9287 327a 00       		.sleb128 0
 9288 327b 35       		.uleb128 0x35
 9289 327c 01       		.uleb128 0x1
 9290 327d 51       		.byte	0x51
 9291 327e 02       		.uleb128 0x2
 9292 327f 75       		.byte	0x75
 9293 3280 00       		.sleb128 0
 9294 3281 00       		.byte	0
 9295 3282 3C       		.uleb128 0x3c
 9296 3283 8C000000 		.4byte	.LVL217
 9297 3287 C83A0000 		.4byte	0x3ac8
 9298 328b 96320000 		.4byte	0x3296
 9299 328f 35       		.uleb128 0x35
 9300 3290 01       		.uleb128 0x1
 9301 3291 50       		.byte	0x50
 9302 3292 02       		.uleb128 0x2
 9303 3293 76       		.byte	0x76
 9304 3294 00       		.sleb128 0
 9305 3295 00       		.byte	0
 9306 3296 3C       		.uleb128 0x3c
 9307 3297 94000000 		.4byte	.LVL219
 9308 329b D33A0000 		.4byte	0x3ad3
 9309 329f AF320000 		.4byte	0x32af
 9310 32a3 35       		.uleb128 0x35
 9311 32a4 01       		.uleb128 0x1
 9312 32a5 50       		.byte	0x50
 9313 32a6 02       		.uleb128 0x2
 9314 32a7 74       		.byte	0x74
 9315 32a8 00       		.sleb128 0
 9316 32a9 35       		.uleb128 0x35
 9317 32aa 01       		.uleb128 0x1
ARM GAS  C:\Users\haske\AppData\Local\Temp\ccGWO5DZ.s 			page 192


 9318 32ab 51       		.byte	0x51
 9319 32ac 01       		.uleb128 0x1
 9320 32ad 30       		.byte	0x30
 9321 32ae 00       		.byte	0
 9322 32af 3C       		.uleb128 0x3c
 9323 32b0 9A000000 		.4byte	.LVL220
 9324 32b4 8F3A0000 		.4byte	0x3a8f
 9325 32b8 C3320000 		.4byte	0x32c3
 9326 32bc 35       		.uleb128 0x35
 9327 32bd 01       		.uleb128 0x1
 9328 32be 50       		.byte	0x50
 9329 32bf 02       		.uleb128 0x2
 9330 32c0 76       		.byte	0x76
 9331 32c1 00       		.sleb128 0
 9332 32c2 00       		.byte	0
 9333 32c3 3C       		.uleb128 0x3c
 9334 32c4 A2000000 		.4byte	.LVL221
 9335 32c8 D33A0000 		.4byte	0x3ad3
 9336 32cc DC320000 		.4byte	0x32dc
 9337 32d0 35       		.uleb128 0x35
 9338 32d1 01       		.uleb128 0x1
 9339 32d2 50       		.byte	0x50
 9340 32d3 02       		.uleb128 0x2
 9341 32d4 74       		.byte	0x74
 9342 32d5 00       		.sleb128 0
 9343 32d6 35       		.uleb128 0x35
 9344 32d7 01       		.uleb128 0x1
 9345 32d8 51       		.byte	0x51
 9346 32d9 01       		.uleb128 0x1
 9347 32da 31       		.byte	0x31
 9348 32db 00       		.byte	0
 9349 32dc 3C       		.uleb128 0x3c
 9350 32dd B6000000 		.4byte	.LVL222
 9351 32e1 35390000 		.4byte	0x3935
 9352 32e5 07330000 		.4byte	0x3307
 9353 32e9 35       		.uleb128 0x35
 9354 32ea 01       		.uleb128 0x1
 9355 32eb 50       		.byte	0x50
 9356 32ec 02       		.uleb128 0x2
 9357 32ed 75       		.byte	0x75
 9358 32ee 00       		.sleb128 0
 9359 32ef 35       		.uleb128 0x35
 9360 32f0 01       		.uleb128 0x1
 9361 32f1 51       		.byte	0x51
 9362 32f2 04       		.uleb128 0x4
 9363 32f3 91       		.byte	0x91
 9364 32f4 58       		.sleb128 -40
 9365 32f5 94       		.byte	0x94
 9366 32f6 02       		.byte	0x2
 9367 32f7 35       		.uleb128 0x35
 9368 32f8 01       		.uleb128 0x1
 9369 32f9 52       		.byte	0x52
 9370 32fa 04       		.uleb128 0x4
 9371 32fb 91       		.byte	0x91
 9372 32fc 5C       		.sleb128 -36
 9373 32fd 94       		.byte	0x94
 9374 32fe 02       		.byte	0x2
ARM GAS  C:\Users\haske\AppData\Local\Temp\ccGWO5DZ.s 			page 193


 9375 32ff 35       		.uleb128 0x35
 9376 3300 02       		.uleb128 0x2
 9377 3301 7D       		.byte	0x7d
 9378 3302 04       		.sleb128 4
 9379 3303 02       		.uleb128 0x2
 9380 3304 77       		.byte	0x77
 9381 3305 00       		.sleb128 0
 9382 3306 00       		.byte	0
 9383 3307 34       		.uleb128 0x34
 9384 3308 DA000000 		.4byte	.LVL224
 9385 330c BC3A0000 		.4byte	0x3abc
 9386 3310 35       		.uleb128 0x35
 9387 3311 01       		.uleb128 0x1
 9388 3312 50       		.byte	0x50
 9389 3313 02       		.uleb128 0x2
 9390 3314 76       		.byte	0x76
 9391 3315 00       		.sleb128 0
 9392 3316 35       		.uleb128 0x35
 9393 3317 01       		.uleb128 0x1
 9394 3318 51       		.byte	0x51
 9395 3319 02       		.uleb128 0x2
 9396 331a 75       		.byte	0x75
 9397 331b 00       		.sleb128 0
 9398 331c 00       		.byte	0
 9399 331d 00       		.byte	0
 9400 331e 0B       		.uleb128 0xb
 9401 331f 04       		.byte	0x4
 9402 3320 CC170000 		.4byte	0x17cc
 9403 3324 45       		.uleb128 0x45
 9404 3325 A51D0000 		.4byte	.LASF625
 9405 3329 01       		.byte	0x1
 9406 332a DB       		.byte	0xdb
 9407 332b 00000000 		.4byte	.LFB170
 9408 332f D6000000 		.4byte	.LFE170-.LFB170
 9409 3333 01       		.uleb128 0x1
 9410 3334 9C       		.byte	0x9c
 9411 3335 C3340000 		.4byte	0x34c3
 9412 3339 46       		.uleb128 0x46
 9413 333a 6F626A00 		.ascii	"obj\000"
 9414 333e 01       		.byte	0x1
 9415 333f DB       		.byte	0xdb
 9416 3340 7D1F0000 		.4byte	0x1f7d
 9417 3344 550B0000 		.4byte	.LLST92
 9418 3348 46       		.uleb128 0x46
 9419 3349 7800     		.ascii	"x\000"
 9420 334b 01       		.byte	0x1
 9421 334c DB       		.byte	0xdb
 9422 334d 01010000 		.4byte	0x101
 9423 3351 810B0000 		.4byte	.LLST93
 9424 3355 46       		.uleb128 0x46
 9425 3356 7900     		.ascii	"y\000"
 9426 3358 01       		.byte	0x1
 9427 3359 DB       		.byte	0xdb
 9428 335a 01010000 		.4byte	0x101
 9429 335e A20B0000 		.4byte	.LLST94
 9430 3362 44       		.uleb128 0x44
 9431 3363 696D6700 		.ascii	"img\000"
ARM GAS  C:\Users\haske\AppData\Local\Temp\ccGWO5DZ.s 			page 194


 9432 3367 01       		.byte	0x1
 9433 3368 DD       		.byte	0xdd
 9434 3369 46220000 		.4byte	0x2246
 9435 336d C30B0000 		.4byte	.LLST95
 9436 3371 44       		.uleb128 0x44
 9437 3372 7700     		.ascii	"w\000"
 9438 3374 01       		.byte	0x1
 9439 3375 E1       		.byte	0xe1
 9440 3376 01010000 		.4byte	0x101
 9441 337a EF0B0000 		.4byte	.LLST96
 9442 337e 44       		.uleb128 0x44
 9443 337f 6800     		.ascii	"h\000"
 9444 3381 01       		.byte	0x1
 9445 3382 E2       		.byte	0xe2
 9446 3383 01010000 		.4byte	0x101
 9447 3387 030C0000 		.4byte	.LLST97
 9448 338b 4B       		.uleb128 0x4b
 9449 338c 6100     		.ascii	"a\000"
 9450 338e 01       		.byte	0x1
 9451 338f E3       		.byte	0xe3
 9452 3390 69010000 		.4byte	0x169
 9453 3394 02       		.uleb128 0x2
 9454 3395 91       		.byte	0x91
 9455 3396 60       		.sleb128 -32
 9456 3397 47       		.uleb128 0x47
 9457 3398 01190000 		.4byte	.LASF416
 9458 339c 01       		.byte	0x1
 9459 339d F0       		.byte	0xf0
 9460 339e 1E330000 		.4byte	0x331e
 9461 33a2 160C0000 		.4byte	.LLST98
 9462 33a6 3C       		.uleb128 0x3c
 9463 33a7 24000000 		.4byte	.LVL230
 9464 33ab B13A0000 		.4byte	0x3ab1
 9465 33af BA330000 		.4byte	0x33ba
 9466 33b3 35       		.uleb128 0x35
 9467 33b4 01       		.uleb128 0x1
 9468 33b5 50       		.byte	0x50
 9469 33b6 02       		.uleb128 0x2
 9470 33b7 76       		.byte	0x76
 9471 33b8 00       		.sleb128 0
 9472 33b9 00       		.byte	0
 9473 33ba 3C       		.uleb128 0x3c
 9474 33bb 2A000000 		.4byte	.LVL231
 9475 33bf 4B390000 		.4byte	0x394b
 9476 33c3 CE330000 		.4byte	0x33ce
 9477 33c7 35       		.uleb128 0x35
 9478 33c8 01       		.uleb128 0x1
 9479 33c9 50       		.byte	0x50
 9480 33ca 02       		.uleb128 0x2
 9481 33cb 76       		.byte	0x76
 9482 33cc 00       		.sleb128 0
 9483 33cd 00       		.byte	0
 9484 33ce 3C       		.uleb128 0x3c
 9485 33cf 32000000 		.4byte	.LVL233
 9486 33d3 57390000 		.4byte	0x3957
 9487 33d7 E2330000 		.4byte	0x33e2
 9488 33db 35       		.uleb128 0x35
ARM GAS  C:\Users\haske\AppData\Local\Temp\ccGWO5DZ.s 			page 195


 9489 33dc 01       		.uleb128 0x1
 9490 33dd 50       		.byte	0x50
 9491 33de 02       		.uleb128 0x2
 9492 33df 76       		.byte	0x76
 9493 33e0 00       		.sleb128 0
 9494 33e1 00       		.byte	0
 9495 33e2 3C       		.uleb128 0x3c
 9496 33e3 4E000000 		.4byte	.LVL235
 9497 33e7 35390000 		.4byte	0x3935
 9498 33eb 0D340000 		.4byte	0x340d
 9499 33ef 35       		.uleb128 0x35
 9500 33f0 01       		.uleb128 0x1
 9501 33f1 50       		.byte	0x50
 9502 33f2 02       		.uleb128 0x2
 9503 33f3 74       		.byte	0x74
 9504 33f4 00       		.sleb128 0
 9505 33f5 35       		.uleb128 0x35
 9506 33f6 01       		.uleb128 0x1
 9507 33f7 51       		.byte	0x51
 9508 33f8 04       		.uleb128 0x4
 9509 33f9 91       		.byte	0x91
 9510 33fa 58       		.sleb128 -40
 9511 33fb 94       		.byte	0x94
 9512 33fc 02       		.byte	0x2
 9513 33fd 35       		.uleb128 0x35
 9514 33fe 01       		.uleb128 0x1
 9515 33ff 52       		.byte	0x52
 9516 3400 04       		.uleb128 0x4
 9517 3401 91       		.byte	0x91
 9518 3402 5C       		.sleb128 -36
 9519 3403 94       		.byte	0x94
 9520 3404 02       		.byte	0x2
 9521 3405 35       		.uleb128 0x35
 9522 3406 02       		.uleb128 0x2
 9523 3407 7D       		.byte	0x7d
 9524 3408 04       		.sleb128 4
 9525 3409 02       		.uleb128 0x2
 9526 340a 75       		.byte	0x75
 9527 340b 00       		.sleb128 0
 9528 340c 00       		.byte	0
 9529 340d 3C       		.uleb128 0x3c
 9530 340e 74000000 		.4byte	.LVL236
 9531 3412 BC3A0000 		.4byte	0x3abc
 9532 3416 27340000 		.4byte	0x3427
 9533 341a 35       		.uleb128 0x35
 9534 341b 01       		.uleb128 0x1
 9535 341c 50       		.byte	0x50
 9536 341d 02       		.uleb128 0x2
 9537 341e 76       		.byte	0x76
 9538 341f 00       		.sleb128 0
 9539 3420 35       		.uleb128 0x35
 9540 3421 01       		.uleb128 0x1
 9541 3422 51       		.byte	0x51
 9542 3423 02       		.uleb128 0x2
 9543 3424 74       		.byte	0x74
 9544 3425 00       		.sleb128 0
 9545 3426 00       		.byte	0
ARM GAS  C:\Users\haske\AppData\Local\Temp\ccGWO5DZ.s 			page 196


 9546 3427 3C       		.uleb128 0x3c
 9547 3428 80000000 		.4byte	.LVL237
 9548 342c C83A0000 		.4byte	0x3ac8
 9549 3430 3B340000 		.4byte	0x343b
 9550 3434 35       		.uleb128 0x35
 9551 3435 01       		.uleb128 0x1
 9552 3436 50       		.byte	0x50
 9553 3437 02       		.uleb128 0x2
 9554 3438 76       		.byte	0x76
 9555 3439 00       		.sleb128 0
 9556 343a 00       		.byte	0
 9557 343b 3C       		.uleb128 0x3c
 9558 343c 88000000 		.4byte	.LVL239
 9559 3440 D33A0000 		.4byte	0x3ad3
 9560 3444 54340000 		.4byte	0x3454
 9561 3448 35       		.uleb128 0x35
 9562 3449 01       		.uleb128 0x1
 9563 344a 50       		.byte	0x50
 9564 344b 02       		.uleb128 0x2
 9565 344c 77       		.byte	0x77
 9566 344d 00       		.sleb128 0
 9567 344e 35       		.uleb128 0x35
 9568 344f 01       		.uleb128 0x1
 9569 3450 51       		.byte	0x51
 9570 3451 01       		.uleb128 0x1
 9571 3452 30       		.byte	0x30
 9572 3453 00       		.byte	0
 9573 3454 3C       		.uleb128 0x3c
 9574 3455 8E000000 		.4byte	.LVL240
 9575 3459 8F3A0000 		.4byte	0x3a8f
 9576 345d 68340000 		.4byte	0x3468
 9577 3461 35       		.uleb128 0x35
 9578 3462 01       		.uleb128 0x1
 9579 3463 50       		.byte	0x50
 9580 3464 02       		.uleb128 0x2
 9581 3465 76       		.byte	0x76
 9582 3466 00       		.sleb128 0
 9583 3467 00       		.byte	0
 9584 3468 3C       		.uleb128 0x3c
 9585 3469 96000000 		.4byte	.LVL241
 9586 346d D33A0000 		.4byte	0x3ad3
 9587 3471 81340000 		.4byte	0x3481
 9588 3475 35       		.uleb128 0x35
 9589 3476 01       		.uleb128 0x1
 9590 3477 50       		.byte	0x50
 9591 3478 02       		.uleb128 0x2
 9592 3479 77       		.byte	0x77
 9593 347a 00       		.sleb128 0
 9594 347b 35       		.uleb128 0x35
 9595 347c 01       		.uleb128 0x1
 9596 347d 51       		.byte	0x51
 9597 347e 01       		.uleb128 0x1
 9598 347f 31       		.byte	0x31
 9599 3480 00       		.byte	0
 9600 3481 3C       		.uleb128 0x3c
 9601 3482 AA000000 		.4byte	.LVL242
 9602 3486 35390000 		.4byte	0x3935
ARM GAS  C:\Users\haske\AppData\Local\Temp\ccGWO5DZ.s 			page 197


 9603 348a AC340000 		.4byte	0x34ac
 9604 348e 35       		.uleb128 0x35
 9605 348f 01       		.uleb128 0x1
 9606 3490 50       		.byte	0x50
 9607 3491 02       		.uleb128 0x2
 9608 3492 74       		.byte	0x74
 9609 3493 00       		.sleb128 0
 9610 3494 35       		.uleb128 0x35
 9611 3495 01       		.uleb128 0x1
 9612 3496 51       		.byte	0x51
 9613 3497 04       		.uleb128 0x4
 9614 3498 91       		.byte	0x91
 9615 3499 58       		.sleb128 -40
 9616 349a 94       		.byte	0x94
 9617 349b 02       		.byte	0x2
 9618 349c 35       		.uleb128 0x35
 9619 349d 01       		.uleb128 0x1
 9620 349e 52       		.byte	0x52
 9621 349f 04       		.uleb128 0x4
 9622 34a0 91       		.byte	0x91
 9623 34a1 5C       		.sleb128 -36
 9624 34a2 94       		.byte	0x94
 9625 34a3 02       		.byte	0x2
 9626 34a4 35       		.uleb128 0x35
 9627 34a5 02       		.uleb128 0x2
 9628 34a6 7D       		.byte	0x7d
 9629 34a7 04       		.sleb128 4
 9630 34a8 02       		.uleb128 0x2
 9631 34a9 75       		.byte	0x75
 9632 34aa 00       		.sleb128 0
 9633 34ab 00       		.byte	0
 9634 34ac 34       		.uleb128 0x34
 9635 34ad CE000000 		.4byte	.LVL243
 9636 34b1 BC3A0000 		.4byte	0x3abc
 9637 34b5 35       		.uleb128 0x35
 9638 34b6 01       		.uleb128 0x1
 9639 34b7 50       		.byte	0x50
 9640 34b8 02       		.uleb128 0x2
 9641 34b9 76       		.byte	0x76
 9642 34ba 00       		.sleb128 0
 9643 34bb 35       		.uleb128 0x35
 9644 34bc 01       		.uleb128 0x1
 9645 34bd 51       		.byte	0x51
 9646 34be 02       		.uleb128 0x2
 9647 34bf 74       		.byte	0x74
 9648 34c0 00       		.sleb128 0
 9649 34c1 00       		.byte	0
 9650 34c2 00       		.byte	0
 9651 34c3 45       		.uleb128 0x45
 9652 34c4 EF1B0000 		.4byte	.LASF626
 9653 34c8 01       		.byte	0x1
 9654 34c9 FD       		.byte	0xfd
 9655 34ca 00000000 		.4byte	.LFB171
 9656 34ce D6000000 		.4byte	.LFE171-.LFB171
 9657 34d2 01       		.uleb128 0x1
 9658 34d3 9C       		.byte	0x9c
 9659 34d4 5B360000 		.4byte	0x365b
ARM GAS  C:\Users\haske\AppData\Local\Temp\ccGWO5DZ.s 			page 198


 9660 34d8 46       		.uleb128 0x46
 9661 34d9 6F626A00 		.ascii	"obj\000"
 9662 34dd 01       		.byte	0x1
 9663 34de FD       		.byte	0xfd
 9664 34df 7D1F0000 		.4byte	0x1f7d
 9665 34e3 340C0000 		.4byte	.LLST99
 9666 34e7 43       		.uleb128 0x43
 9667 34e8 36140000 		.4byte	.LASF292
 9668 34ec 01       		.byte	0x1
 9669 34ed FD       		.byte	0xfd
 9670 34ee CE000000 		.4byte	0xce
 9671 34f2 600C0000 		.4byte	.LLST100
 9672 34f6 44       		.uleb128 0x44
 9673 34f7 696D6700 		.ascii	"img\000"
 9674 34fb 01       		.byte	0x1
 9675 34fc FF       		.byte	0xff
 9676 34fd 46220000 		.4byte	0x2246
 9677 3501 7E0C0000 		.4byte	.LLST101
 9678 3505 30       		.uleb128 0x30
 9679 3506 7700     		.ascii	"w\000"
 9680 3508 01       		.byte	0x1
 9681 3509 0501     		.2byte	0x105
 9682 350b 01010000 		.4byte	0x101
 9683 350f AA0C0000 		.4byte	.LLST102
 9684 3513 30       		.uleb128 0x30
 9685 3514 6800     		.ascii	"h\000"
 9686 3516 01       		.byte	0x1
 9687 3517 0601     		.2byte	0x106
 9688 3519 01010000 		.4byte	0x101
 9689 351d BE0C0000 		.4byte	.LLST103
 9690 3521 3B       		.uleb128 0x3b
 9691 3522 6100     		.ascii	"a\000"
 9692 3524 01       		.byte	0x1
 9693 3525 0701     		.2byte	0x107
 9694 3527 69010000 		.4byte	0x169
 9695 352b 02       		.uleb128 0x2
 9696 352c 91       		.byte	0x91
 9697 352d 60       		.sleb128 -32
 9698 352e 37       		.uleb128 0x37
 9699 352f 01190000 		.4byte	.LASF416
 9700 3533 01       		.byte	0x1
 9701 3534 1301     		.2byte	0x113
 9702 3536 1E330000 		.4byte	0x331e
 9703 353a D10C0000 		.4byte	.LLST104
 9704 353e 3C       		.uleb128 0x3c
 9705 353f 1A000000 		.4byte	.LVL249
 9706 3543 B13A0000 		.4byte	0x3ab1
 9707 3547 52350000 		.4byte	0x3552
 9708 354b 35       		.uleb128 0x35
 9709 354c 01       		.uleb128 0x1
 9710 354d 50       		.byte	0x50
 9711 354e 02       		.uleb128 0x2
 9712 354f 76       		.byte	0x76
 9713 3550 00       		.sleb128 0
 9714 3551 00       		.byte	0
 9715 3552 3C       		.uleb128 0x3c
 9716 3553 20000000 		.4byte	.LVL250
ARM GAS  C:\Users\haske\AppData\Local\Temp\ccGWO5DZ.s 			page 199


 9717 3557 4B390000 		.4byte	0x394b
 9718 355b 66350000 		.4byte	0x3566
 9719 355f 35       		.uleb128 0x35
 9720 3560 01       		.uleb128 0x1
 9721 3561 50       		.byte	0x50
 9722 3562 02       		.uleb128 0x2
 9723 3563 76       		.byte	0x76
 9724 3564 00       		.sleb128 0
 9725 3565 00       		.byte	0
 9726 3566 3C       		.uleb128 0x3c
 9727 3567 28000000 		.4byte	.LVL252
 9728 356b 57390000 		.4byte	0x3957
 9729 356f 7A350000 		.4byte	0x357a
 9730 3573 35       		.uleb128 0x35
 9731 3574 01       		.uleb128 0x1
 9732 3575 50       		.byte	0x50
 9733 3576 02       		.uleb128 0x2
 9734 3577 76       		.byte	0x76
 9735 3578 00       		.sleb128 0
 9736 3579 00       		.byte	0
 9737 357a 3C       		.uleb128 0x3c
 9738 357b 46000000 		.4byte	.LVL254
 9739 357f 35390000 		.4byte	0x3935
 9740 3583 A5350000 		.4byte	0x35a5
 9741 3587 35       		.uleb128 0x35
 9742 3588 01       		.uleb128 0x1
 9743 3589 50       		.byte	0x50
 9744 358a 02       		.uleb128 0x2
 9745 358b 74       		.byte	0x74
 9746 358c 00       		.sleb128 0
 9747 358d 35       		.uleb128 0x35
 9748 358e 01       		.uleb128 0x1
 9749 358f 51       		.byte	0x51
 9750 3590 04       		.uleb128 0x4
 9751 3591 91       		.byte	0x91
 9752 3592 58       		.sleb128 -40
 9753 3593 94       		.byte	0x94
 9754 3594 02       		.byte	0x2
 9755 3595 35       		.uleb128 0x35
 9756 3596 01       		.uleb128 0x1
 9757 3597 52       		.byte	0x52
 9758 3598 04       		.uleb128 0x4
 9759 3599 91       		.byte	0x91
 9760 359a 5C       		.sleb128 -36
 9761 359b 94       		.byte	0x94
 9762 359c 02       		.byte	0x2
 9763 359d 35       		.uleb128 0x35
 9764 359e 02       		.uleb128 0x2
 9765 359f 7D       		.byte	0x7d
 9766 35a0 04       		.sleb128 4
 9767 35a1 02       		.uleb128 0x2
 9768 35a2 75       		.byte	0x75
 9769 35a3 00       		.sleb128 0
 9770 35a4 00       		.byte	0
 9771 35a5 3C       		.uleb128 0x3c
 9772 35a6 74000000 		.4byte	.LVL255
 9773 35aa BC3A0000 		.4byte	0x3abc
ARM GAS  C:\Users\haske\AppData\Local\Temp\ccGWO5DZ.s 			page 200


 9774 35ae BF350000 		.4byte	0x35bf
 9775 35b2 35       		.uleb128 0x35
 9776 35b3 01       		.uleb128 0x1
 9777 35b4 50       		.byte	0x50
 9778 35b5 02       		.uleb128 0x2
 9779 35b6 76       		.byte	0x76
 9780 35b7 00       		.sleb128 0
 9781 35b8 35       		.uleb128 0x35
 9782 35b9 01       		.uleb128 0x1
 9783 35ba 51       		.byte	0x51
 9784 35bb 02       		.uleb128 0x2
 9785 35bc 74       		.byte	0x74
 9786 35bd 00       		.sleb128 0
 9787 35be 00       		.byte	0
 9788 35bf 3C       		.uleb128 0x3c
 9789 35c0 7C000000 		.4byte	.LVL256
 9790 35c4 C83A0000 		.4byte	0x3ac8
 9791 35c8 D3350000 		.4byte	0x35d3
 9792 35cc 35       		.uleb128 0x35
 9793 35cd 01       		.uleb128 0x1
 9794 35ce 50       		.byte	0x50
 9795 35cf 02       		.uleb128 0x2
 9796 35d0 76       		.byte	0x76
 9797 35d1 00       		.sleb128 0
 9798 35d2 00       		.byte	0
 9799 35d3 3C       		.uleb128 0x3c
 9800 35d4 84000000 		.4byte	.LVL258
 9801 35d8 D33A0000 		.4byte	0x3ad3
 9802 35dc EC350000 		.4byte	0x35ec
 9803 35e0 35       		.uleb128 0x35
 9804 35e1 01       		.uleb128 0x1
 9805 35e2 50       		.byte	0x50
 9806 35e3 02       		.uleb128 0x2
 9807 35e4 77       		.byte	0x77
 9808 35e5 00       		.sleb128 0
 9809 35e6 35       		.uleb128 0x35
 9810 35e7 01       		.uleb128 0x1
 9811 35e8 51       		.byte	0x51
 9812 35e9 01       		.uleb128 0x1
 9813 35ea 30       		.byte	0x30
 9814 35eb 00       		.byte	0
 9815 35ec 3C       		.uleb128 0x3c
 9816 35ed 8A000000 		.4byte	.LVL259
 9817 35f1 8F3A0000 		.4byte	0x3a8f
 9818 35f5 00360000 		.4byte	0x3600
 9819 35f9 35       		.uleb128 0x35
 9820 35fa 01       		.uleb128 0x1
 9821 35fb 50       		.byte	0x50
 9822 35fc 02       		.uleb128 0x2
 9823 35fd 76       		.byte	0x76
 9824 35fe 00       		.sleb128 0
 9825 35ff 00       		.byte	0
 9826 3600 3C       		.uleb128 0x3c
 9827 3601 92000000 		.4byte	.LVL260
 9828 3605 D33A0000 		.4byte	0x3ad3
 9829 3609 19360000 		.4byte	0x3619
 9830 360d 35       		.uleb128 0x35
ARM GAS  C:\Users\haske\AppData\Local\Temp\ccGWO5DZ.s 			page 201


 9831 360e 01       		.uleb128 0x1
 9832 360f 50       		.byte	0x50
 9833 3610 02       		.uleb128 0x2
 9834 3611 77       		.byte	0x77
 9835 3612 00       		.sleb128 0
 9836 3613 35       		.uleb128 0x35
 9837 3614 01       		.uleb128 0x1
 9838 3615 51       		.byte	0x51
 9839 3616 01       		.uleb128 0x1
 9840 3617 31       		.byte	0x31
 9841 3618 00       		.byte	0
 9842 3619 3C       		.uleb128 0x3c
 9843 361a A6000000 		.4byte	.LVL261
 9844 361e 35390000 		.4byte	0x3935
 9845 3622 44360000 		.4byte	0x3644
 9846 3626 35       		.uleb128 0x35
 9847 3627 01       		.uleb128 0x1
 9848 3628 50       		.byte	0x50
 9849 3629 02       		.uleb128 0x2
 9850 362a 74       		.byte	0x74
 9851 362b 00       		.sleb128 0
 9852 362c 35       		.uleb128 0x35
 9853 362d 01       		.uleb128 0x1
 9854 362e 51       		.byte	0x51
 9855 362f 04       		.uleb128 0x4
 9856 3630 91       		.byte	0x91
 9857 3631 58       		.sleb128 -40
 9858 3632 94       		.byte	0x94
 9859 3633 02       		.byte	0x2
 9860 3634 35       		.uleb128 0x35
 9861 3635 01       		.uleb128 0x1
 9862 3636 52       		.byte	0x52
 9863 3637 04       		.uleb128 0x4
 9864 3638 91       		.byte	0x91
 9865 3639 5C       		.sleb128 -36
 9866 363a 94       		.byte	0x94
 9867 363b 02       		.byte	0x2
 9868 363c 35       		.uleb128 0x35
 9869 363d 02       		.uleb128 0x2
 9870 363e 7D       		.byte	0x7d
 9871 363f 04       		.sleb128 4
 9872 3640 02       		.uleb128 0x2
 9873 3641 75       		.byte	0x75
 9874 3642 00       		.sleb128 0
 9875 3643 00       		.byte	0
 9876 3644 34       		.uleb128 0x34
 9877 3645 D2000000 		.4byte	.LVL262
 9878 3649 BC3A0000 		.4byte	0x3abc
 9879 364d 35       		.uleb128 0x35
 9880 364e 01       		.uleb128 0x1
 9881 364f 50       		.byte	0x50
 9882 3650 02       		.uleb128 0x2
 9883 3651 76       		.byte	0x76
 9884 3652 00       		.sleb128 0
 9885 3653 35       		.uleb128 0x35
 9886 3654 01       		.uleb128 0x1
 9887 3655 51       		.byte	0x51
ARM GAS  C:\Users\haske\AppData\Local\Temp\ccGWO5DZ.s 			page 202


 9888 3656 02       		.uleb128 0x2
 9889 3657 74       		.byte	0x74
 9890 3658 00       		.sleb128 0
 9891 3659 00       		.byte	0
 9892 365a 00       		.byte	0
 9893 365b 4C       		.uleb128 0x4c
 9894 365c C7030000 		.4byte	.LASF627
 9895 3660 01       		.byte	0x1
 9896 3661 2001     		.2byte	0x120
 9897 3663 00000000 		.4byte	.LFB172
 9898 3667 20000000 		.4byte	.LFE172-.LFB172
 9899 366b 01       		.uleb128 0x1
 9900 366c 9C       		.byte	0x9c
 9901 366d B3360000 		.4byte	0x36b3
 9902 3671 2F       		.uleb128 0x2f
 9903 3672 6F626A00 		.ascii	"obj\000"
 9904 3676 01       		.byte	0x1
 9905 3677 2001     		.2byte	0x120
 9906 3679 7D1F0000 		.4byte	0x1f7d
 9907 367d EF0C0000 		.4byte	.LLST105
 9908 3681 40       		.uleb128 0x40
 9909 3682 A71B0000 		.4byte	.LASF297
 9910 3686 01       		.byte	0x1
 9911 3687 2001     		.2byte	0x120
 9912 3689 AA020000 		.4byte	0x2aa
 9913 368d 100D0000 		.4byte	.LLST106
 9914 3691 30       		.uleb128 0x30
 9915 3692 696D6700 		.ascii	"img\000"
 9916 3696 01       		.byte	0x1
 9917 3697 2201     		.2byte	0x122
 9918 3699 46220000 		.4byte	0x2246
 9919 369d 310D0000 		.4byte	.LLST107
 9920 36a1 34       		.uleb128 0x34
 9921 36a2 1E000000 		.4byte	.LVL267
 9922 36a6 613A0000 		.4byte	0x3a61
 9923 36aa 35       		.uleb128 0x35
 9924 36ab 01       		.uleb128 0x1
 9925 36ac 50       		.byte	0x50
 9926 36ad 03       		.uleb128 0x3
 9927 36ae F3       		.byte	0xf3
 9928 36af 01       		.uleb128 0x1
 9929 36b0 50       		.byte	0x50
 9930 36b1 00       		.byte	0
 9931 36b2 00       		.byte	0
 9932 36b3 4C       		.uleb128 0x4c
 9933 36b4 6F170000 		.4byte	.LASF628
 9934 36b8 01       		.byte	0x1
 9935 36b9 2901     		.2byte	0x129
 9936 36bb 00000000 		.4byte	.LFB173
 9937 36bf 26000000 		.4byte	.LFE173-.LFB173
 9938 36c3 01       		.uleb128 0x1
 9939 36c4 9C       		.byte	0x9c
 9940 36c5 0B370000 		.4byte	0x370b
 9941 36c9 2F       		.uleb128 0x2f
 9942 36ca 6F626A00 		.ascii	"obj\000"
 9943 36ce 01       		.byte	0x1
 9944 36cf 2901     		.2byte	0x129
ARM GAS  C:\Users\haske\AppData\Local\Temp\ccGWO5DZ.s 			page 203


 9945 36d1 7D1F0000 		.4byte	0x1f7d
 9946 36d5 520D0000 		.4byte	.LLST108
 9947 36d9 40       		.uleb128 0x40
 9948 36da 7E230000 		.4byte	.LASF629
 9949 36de 01       		.byte	0x1
 9950 36df 2901     		.2byte	0x129
 9951 36e1 511F0000 		.4byte	0x1f51
 9952 36e5 730D0000 		.4byte	.LLST109
 9953 36e9 30       		.uleb128 0x30
 9954 36ea 696D6700 		.ascii	"img\000"
 9955 36ee 01       		.byte	0x1
 9956 36ef 2C01     		.2byte	0x12c
 9957 36f1 46220000 		.4byte	0x2246
 9958 36f5 940D0000 		.4byte	.LLST110
 9959 36f9 34       		.uleb128 0x34
 9960 36fa 24000000 		.4byte	.LVL271
 9961 36fe 613A0000 		.4byte	0x3a61
 9962 3702 35       		.uleb128 0x35
 9963 3703 01       		.uleb128 0x1
 9964 3704 50       		.byte	0x50
 9965 3705 03       		.uleb128 0x3
 9966 3706 F3       		.byte	0xf3
 9967 3707 01       		.uleb128 0x1
 9968 3708 50       		.byte	0x50
 9969 3709 00       		.byte	0
 9970 370a 00       		.byte	0
 9971 370b 4D       		.uleb128 0x4d
 9972 370c C51E0000 		.4byte	.LASF631
 9973 3710 01       		.byte	0x1
 9974 3711 3701     		.2byte	0x137
 9975 3713 E2020000 		.4byte	0x2e2
 9976 3717 00000000 		.4byte	.LFB174
 9977 371b 04000000 		.4byte	.LFE174-.LFB174
 9978 371f 01       		.uleb128 0x1
 9979 3720 9C       		.byte	0x9c
 9980 3721 46370000 		.4byte	0x3746
 9981 3725 2F       		.uleb128 0x2f
 9982 3726 6F626A00 		.ascii	"obj\000"
 9983 372a 01       		.byte	0x1
 9984 372b 3701     		.2byte	0x137
 9985 372d 7D1F0000 		.4byte	0x1f7d
 9986 3731 B50D0000 		.4byte	.LLST111
 9987 3735 30       		.uleb128 0x30
 9988 3736 696D6700 		.ascii	"img\000"
 9989 373a 01       		.byte	0x1
 9990 373b 3B01     		.2byte	0x13b
 9991 373d 46220000 		.4byte	0x2246
 9992 3741 D60D0000 		.4byte	.LLST112
 9993 3745 00       		.byte	0
 9994 3746 4D       		.uleb128 0x4d
 9995 3747 C3000000 		.4byte	.LASF632
 9996 374b 01       		.byte	0x1
 9997 374c 4001     		.2byte	0x140
 9998 374e 01010000 		.4byte	0x101
 9999 3752 00000000 		.4byte	.LFB175
 10000 3756 06000000 		.4byte	.LFE175-.LFB175
 10001 375a 01       		.uleb128 0x1
ARM GAS  C:\Users\haske\AppData\Local\Temp\ccGWO5DZ.s 			page 204


 10002 375b 9C       		.byte	0x9c
 10003 375c 81370000 		.4byte	0x3781
 10004 3760 2F       		.uleb128 0x2f
 10005 3761 6F626A00 		.ascii	"obj\000"
 10006 3765 01       		.byte	0x1
 10007 3766 4001     		.2byte	0x140
 10008 3768 7D1F0000 		.4byte	0x1f7d
 10009 376c F70D0000 		.4byte	.LLST113
 10010 3770 30       		.uleb128 0x30
 10011 3771 696D6700 		.ascii	"img\000"
 10012 3775 01       		.byte	0x1
 10013 3776 4401     		.2byte	0x144
 10014 3778 46220000 		.4byte	0x2246
 10015 377c 180E0000 		.4byte	.LLST114
 10016 3780 00       		.byte	0
 10017 3781 4D       		.uleb128 0x4d
 10018 3782 AF280000 		.4byte	.LASF633
 10019 3786 01       		.byte	0x1
 10020 3787 4901     		.2byte	0x149
 10021 3789 01010000 		.4byte	0x101
 10022 378d 00000000 		.4byte	.LFB176
 10023 3791 06000000 		.4byte	.LFE176-.LFB176
 10024 3795 01       		.uleb128 0x1
 10025 3796 9C       		.byte	0x9c
 10026 3797 BC370000 		.4byte	0x37bc
 10027 379b 2F       		.uleb128 0x2f
 10028 379c 6F626A00 		.ascii	"obj\000"
 10029 37a0 01       		.byte	0x1
 10030 37a1 4901     		.2byte	0x149
 10031 37a3 7D1F0000 		.4byte	0x1f7d
 10032 37a7 390E0000 		.4byte	.LLST115
 10033 37ab 30       		.uleb128 0x30
 10034 37ac 696D6700 		.ascii	"img\000"
 10035 37b0 01       		.byte	0x1
 10036 37b1 4D01     		.2byte	0x14d
 10037 37b3 46220000 		.4byte	0x2246
 10038 37b7 5A0E0000 		.4byte	.LLST116
 10039 37bb 00       		.byte	0
 10040 37bc 4D       		.uleb128 0x4d
 10041 37bd EA200000 		.4byte	.LASF634
 10042 37c1 01       		.byte	0x1
 10043 37c2 5201     		.2byte	0x152
 10044 37c4 CE000000 		.4byte	0xce
 10045 37c8 00000000 		.4byte	.LFB177
 10046 37cc 04000000 		.4byte	.LFE177-.LFB177
 10047 37d0 01       		.uleb128 0x1
 10048 37d1 9C       		.byte	0x9c
 10049 37d2 F7370000 		.4byte	0x37f7
 10050 37d6 2F       		.uleb128 0x2f
 10051 37d7 6F626A00 		.ascii	"obj\000"
 10052 37db 01       		.byte	0x1
 10053 37dc 5201     		.2byte	0x152
 10054 37de 7D1F0000 		.4byte	0x1f7d
 10055 37e2 7B0E0000 		.4byte	.LLST117
 10056 37e6 30       		.uleb128 0x30
 10057 37e7 696D6700 		.ascii	"img\000"
 10058 37eb 01       		.byte	0x1
ARM GAS  C:\Users\haske\AppData\Local\Temp\ccGWO5DZ.s 			page 205


 10059 37ec 5601     		.2byte	0x156
 10060 37ee 46220000 		.4byte	0x2246
 10061 37f2 9C0E0000 		.4byte	.LLST118
 10062 37f6 00       		.byte	0
 10063 37f7 4C       		.uleb128 0x4c
 10064 37f8 74270000 		.4byte	.LASF635
 10065 37fc 01       		.byte	0x1
 10066 37fd 5B01     		.2byte	0x15b
 10067 37ff 00000000 		.4byte	.LFB178
 10068 3803 12000000 		.4byte	.LFE178-.LFB178
 10069 3807 01       		.uleb128 0x1
 10070 3808 9C       		.byte	0x9c
 10071 3809 5D380000 		.4byte	0x385d
 10072 380d 2F       		.uleb128 0x2f
 10073 380e 6F626A00 		.ascii	"obj\000"
 10074 3812 01       		.byte	0x1
 10075 3813 5B01     		.2byte	0x15b
 10076 3815 7D1F0000 		.4byte	0x1f7d
 10077 3819 BD0E0000 		.4byte	.LLST119
 10078 381d 40       		.uleb128 0x40
 10079 381e 26220000 		.4byte	.LASF293
 10080 3822 01       		.byte	0x1
 10081 3823 5B01     		.2byte	0x15b
 10082 3825 420E0000 		.4byte	0xe42
 10083 3829 EB0E0000 		.4byte	.LLST120
 10084 382d 30       		.uleb128 0x30
 10085 382e 696D6700 		.ascii	"img\000"
 10086 3832 01       		.byte	0x1
 10087 3833 5F01     		.2byte	0x15f
 10088 3835 46220000 		.4byte	0x2246
 10089 3839 170F0000 		.4byte	.LLST121
 10090 383d 34       		.uleb128 0x34
 10091 383e 10000000 		.4byte	.LVL284
 10092 3842 DE3A0000 		.4byte	0x3ade
 10093 3846 35       		.uleb128 0x35
 10094 3847 01       		.uleb128 0x1
 10095 3848 50       		.byte	0x50
 10096 3849 03       		.uleb128 0x3
 10097 384a F3       		.byte	0xf3
 10098 384b 01       		.uleb128 0x1
 10099 384c 51       		.byte	0x51
 10100 384d 35       		.uleb128 0x35
 10101 384e 01       		.uleb128 0x1
 10102 384f 51       		.byte	0x51
 10103 3850 05       		.uleb128 0x5
 10104 3851 F3       		.byte	0xf3
 10105 3852 01       		.uleb128 0x1
 10106 3853 50       		.byte	0x50
 10107 3854 23       		.byte	0x23
 10108 3855 32       		.uleb128 0x32
 10109 3856 35       		.uleb128 0x35
 10110 3857 01       		.uleb128 0x1
 10111 3858 52       		.byte	0x52
 10112 3859 01       		.uleb128 0x1
 10113 385a 34       		.byte	0x34
 10114 385b 00       		.byte	0
 10115 385c 00       		.byte	0
ARM GAS  C:\Users\haske\AppData\Local\Temp\ccGWO5DZ.s 			page 206


 10116 385d 4D       		.uleb128 0x4d
 10117 385e FE000000 		.4byte	.LASF636
 10118 3862 01       		.byte	0x1
 10119 3863 6401     		.2byte	0x164
 10120 3865 CE000000 		.4byte	0xce
 10121 3869 00000000 		.4byte	.LFB179
 10122 386d 04000000 		.4byte	.LFE179-.LFB179
 10123 3871 01       		.uleb128 0x1
 10124 3872 9C       		.byte	0x9c
 10125 3873 98380000 		.4byte	0x3898
 10126 3877 2F       		.uleb128 0x2f
 10127 3878 6F626A00 		.ascii	"obj\000"
 10128 387c 01       		.byte	0x1
 10129 387d 6401     		.2byte	0x164
 10130 387f 7D1F0000 		.4byte	0x1f7d
 10131 3883 450F0000 		.4byte	.LLST122
 10132 3887 30       		.uleb128 0x30
 10133 3888 696D6700 		.ascii	"img\000"
 10134 388c 01       		.byte	0x1
 10135 388d 6801     		.2byte	0x168
 10136 388f 46220000 		.4byte	0x2246
 10137 3893 660F0000 		.4byte	.LLST123
 10138 3897 00       		.byte	0
 10139 3898 4D       		.uleb128 0x4d
 10140 3899 87130000 		.4byte	.LASF637
 10141 389d 01       		.byte	0x1
 10142 389e 6D01     		.2byte	0x16d
 10143 38a0 AA020000 		.4byte	0x2aa
 10144 38a4 00000000 		.4byte	.LFB180
 10145 38a8 10000000 		.4byte	.LFE180-.LFB180
 10146 38ac 01       		.uleb128 0x1
 10147 38ad 9C       		.byte	0x9c
 10148 38ae D3380000 		.4byte	0x38d3
 10149 38b2 2F       		.uleb128 0x2f
 10150 38b3 6F626A00 		.ascii	"obj\000"
 10151 38b7 01       		.byte	0x1
 10152 38b8 6D01     		.2byte	0x16d
 10153 38ba 7D1F0000 		.4byte	0x1f7d
 10154 38be 870F0000 		.4byte	.LLST124
 10155 38c2 30       		.uleb128 0x30
 10156 38c3 696D6700 		.ascii	"img\000"
 10157 38c7 01       		.byte	0x1
 10158 38c8 7101     		.2byte	0x171
 10159 38ca 46220000 		.4byte	0x2246
 10160 38ce A80F0000 		.4byte	.LLST125
 10161 38d2 00       		.byte	0
 10162 38d3 4D       		.uleb128 0x4d
 10163 38d4 52260000 		.4byte	.LASF638
 10164 38d8 01       		.byte	0x1
 10165 38d9 7601     		.2byte	0x176
 10166 38db 511F0000 		.4byte	0x1f51
 10167 38df 00000000 		.4byte	.LFB181
 10168 38e3 0A000000 		.4byte	.LFE181-.LFB181
 10169 38e7 01       		.uleb128 0x1
 10170 38e8 9C       		.byte	0x9c
 10171 38e9 0E390000 		.4byte	0x390e
 10172 38ed 2F       		.uleb128 0x2f
ARM GAS  C:\Users\haske\AppData\Local\Temp\ccGWO5DZ.s 			page 207


 10173 38ee 6F626A00 		.ascii	"obj\000"
 10174 38f2 01       		.byte	0x1
 10175 38f3 7601     		.2byte	0x176
 10176 38f5 7D1F0000 		.4byte	0x1f7d
 10177 38f9 C90F0000 		.4byte	.LLST126
 10178 38fd 30       		.uleb128 0x30
 10179 38fe 696D6700 		.ascii	"img\000"
 10180 3902 01       		.byte	0x1
 10181 3903 7901     		.2byte	0x179
 10182 3905 46220000 		.4byte	0x2246
 10183 3909 EA0F0000 		.4byte	.LLST127
 10184 390d 00       		.byte	0
 10185 390e 4E       		.uleb128 0x4e
 10186 390f B30E0000 		.4byte	.LASF639
 10187 3913 07       		.byte	0x7
 10188 3914 94       		.byte	0x94
 10189 3915 A00C0000 		.4byte	0xca0
 10190 3919 4E       		.uleb128 0x4e
 10191 391a F5210000 		.4byte	.LASF640
 10192 391e 0F       		.byte	0xf
 10193 391f 95       		.byte	0x95
 10194 3920 711E0000 		.4byte	0x1e71
 10195 3924 4F       		.uleb128 0x4f
 10196 3925 5F160000 		.4byte	.LASF641
 10197 3929 01       		.byte	0x1
 10198 392a 28       		.byte	0x28
 10199 392b 711E0000 		.4byte	0x1e71
 10200 392f 05       		.uleb128 0x5
 10201 3930 03       		.byte	0x3
 10202 3931 00000000 		.4byte	lv_img_class
 10203 3935 50       		.uleb128 0x50
 10204 3936 42240000 		.4byte	.LASF642
 10205 393a 42240000 		.4byte	.LASF642
 10206 393e 0D       		.byte	0xd
 10207 393f EE       		.byte	0xee
 10208 3940 50       		.uleb128 0x50
 10209 3941 A11F0000 		.4byte	.LASF643
 10210 3945 A11F0000 		.4byte	.LASF643
 10211 3949 1D       		.byte	0x1d
 10212 394a 83       		.byte	0x83
 10213 394b 51       		.uleb128 0x51
 10214 394c 7D0F0000 		.4byte	.LASF644
 10215 3950 7D0F0000 		.4byte	.LASF644
 10216 3954 22       		.byte	0x22
 10217 3955 1901     		.2byte	0x119
 10218 3957 51       		.uleb128 0x51
 10219 3958 DE210000 		.4byte	.LASF645
 10220 395c DE210000 		.4byte	.LASF645
 10221 3960 22       		.byte	0x22
 10222 3961 2201     		.2byte	0x122
 10223 3963 50       		.uleb128 0x50
 10224 3964 A41A0000 		.4byte	.LASF646
 10225 3968 A41A0000 		.4byte	.LASF646
 10226 396c 02       		.byte	0x2
 10227 396d D4       		.byte	0xd4
 10228 396e 50       		.uleb128 0x50
 10229 396f 88150000 		.4byte	.LASF647
ARM GAS  C:\Users\haske\AppData\Local\Temp\ccGWO5DZ.s 			page 208


 10230 3973 88150000 		.4byte	.LASF647
 10231 3977 20       		.byte	0x20
 10232 3978 B7       		.byte	0xb7
 10233 3979 50       		.uleb128 0x50
 10234 397a 630B0000 		.4byte	.LASF648
 10235 397e 630B0000 		.4byte	.LASF648
 10236 3982 12       		.byte	0x12
 10237 3983 36       		.byte	0x36
 10238 3984 50       		.uleb128 0x50
 10239 3985 88200000 		.4byte	.LASF649
 10240 3989 88200000 		.4byte	.LASF649
 10241 398d 1E       		.byte	0x1e
 10242 398e 66       		.byte	0x66
 10243 398f 50       		.uleb128 0x50
 10244 3990 DD0E0000 		.4byte	.LASF650
 10245 3994 DD0E0000 		.4byte	.LASF650
 10246 3998 02       		.byte	0x2
 10247 3999 B2       		.byte	0xb2
 10248 399a 50       		.uleb128 0x50
 10249 399b C4140000 		.4byte	.LASF651
 10250 399f C4140000 		.4byte	.LASF651
 10251 39a3 12       		.byte	0x12
 10252 39a4 3E       		.byte	0x3e
 10253 39a5 50       		.uleb128 0x50
 10254 39a6 EB250000 		.4byte	.LASF652
 10255 39aa EB250000 		.4byte	.LASF652
 10256 39ae 11       		.byte	0x11
 10257 39af 47       		.byte	0x47
 10258 39b0 50       		.uleb128 0x50
 10259 39b1 D81F0000 		.4byte	.LASF653
 10260 39b5 D81F0000 		.4byte	.LASF653
 10261 39b9 1E       		.byte	0x1e
 10262 39ba 5D       		.byte	0x5d
 10263 39bb 50       		.uleb128 0x50
 10264 39bc 62140000 		.4byte	.LASF654
 10265 39c0 62140000 		.4byte	.LASF654
 10266 39c4 11       		.byte	0x11
 10267 39c5 52       		.byte	0x52
 10268 39c6 51       		.uleb128 0x51
 10269 39c7 71130000 		.4byte	.LASF655
 10270 39cb 71130000 		.4byte	.LASF655
 10271 39cf 20       		.byte	0x20
 10272 39d0 2701     		.2byte	0x127
 10273 39d2 50       		.uleb128 0x50
 10274 39d3 3D270000 		.4byte	.LASF656
 10275 39d7 3D270000 		.4byte	.LASF656
 10276 39db 22       		.byte	0x22
 10277 39dc D2       		.byte	0xd2
 10278 39dd 50       		.uleb128 0x50
 10279 39de 9A240000 		.4byte	.LASF657
 10280 39e2 9A240000 		.4byte	.LASF657
 10281 39e6 20       		.byte	0x20
 10282 39e7 9A       		.byte	0x9a
 10283 39e8 50       		.uleb128 0x50
 10284 39e9 A0180000 		.4byte	.LASF658
 10285 39ed A0180000 		.4byte	.LASF658
 10286 39f1 20       		.byte	0x20
ARM GAS  C:\Users\haske\AppData\Local\Temp\ccGWO5DZ.s 			page 209


 10287 39f2 B0       		.byte	0xb0
 10288 39f3 50       		.uleb128 0x50
 10289 39f4 B8110000 		.4byte	.LASF659
 10290 39f8 B8110000 		.4byte	.LASF659
 10291 39fc 20       		.byte	0x20
 10292 39fd A1       		.byte	0xa1
 10293 39fe 50       		.uleb128 0x50
 10294 39ff F2000000 		.4byte	.LASF660
 10295 3a03 F2000000 		.4byte	.LASF660
 10296 3a07 23       		.byte	0x23
 10297 3a08 50       		.byte	0x50
 10298 3a09 50       		.uleb128 0x50
 10299 3a0a 69190000 		.4byte	.LASF661
 10300 3a0e 69190000 		.4byte	.LASF661
 10301 3a12 0F       		.byte	0xf
 10302 3a13 F3       		.byte	0xf3
 10303 3a14 50       		.uleb128 0x50
 10304 3a15 31160000 		.4byte	.LASF662
 10305 3a19 31160000 		.4byte	.LASF662
 10306 3a1d 0F       		.byte	0xf
 10307 3a1e EC       		.byte	0xec
 10308 3a1f 50       		.uleb128 0x50
 10309 3a20 51190000 		.4byte	.LASF663
 10310 3a24 51190000 		.4byte	.LASF663
 10311 3a28 1F       		.byte	0x1f
 10312 3a29 4B       		.byte	0x4b
 10313 3a2a 50       		.uleb128 0x50
 10314 3a2b 950D0000 		.4byte	.LASF664
 10315 3a2f 950D0000 		.4byte	.LASF664
 10316 3a33 1F       		.byte	0x1f
 10317 3a34 4D       		.byte	0x4d
 10318 3a35 50       		.uleb128 0x50
 10319 3a36 45250000 		.4byte	.LASF665
 10320 3a3a 45250000 		.4byte	.LASF665
 10321 3a3e 24       		.byte	0x24
 10322 3a3f 21       		.byte	0x21
 10323 3a40 50       		.uleb128 0x50
 10324 3a41 4F270000 		.4byte	.LASF666
 10325 3a45 4F270000 		.4byte	.LASF666
 10326 3a49 23       		.byte	0x23
 10327 3a4a 4A       		.byte	0x4a
 10328 3a4b 50       		.uleb128 0x50
 10329 3a4c D0120000 		.4byte	.LASF667
 10330 3a50 D0120000 		.4byte	.LASF667
 10331 3a54 24       		.byte	0x24
 10332 3a55 1E       		.byte	0x1e
 10333 3a56 50       		.uleb128 0x50
 10334 3a57 A4050000 		.4byte	.LASF668
 10335 3a5b A4050000 		.4byte	.LASF668
 10336 3a5f 0A       		.byte	0xa
 10337 3a60 53       		.byte	0x53
 10338 3a61 51       		.uleb128 0x51
 10339 3a62 3A290000 		.4byte	.LASF669
 10340 3a66 3A290000 		.4byte	.LASF669
 10341 3a6a 22       		.byte	0x22
 10342 3a6b 7D01     		.2byte	0x17d
 10343 3a6d 50       		.uleb128 0x50
ARM GAS  C:\Users\haske\AppData\Local\Temp\ccGWO5DZ.s 			page 210


 10344 3a6e B5290000 		.4byte	.LASF670
 10345 3a72 B5290000 		.4byte	.LASF670
 10346 3a76 12       		.byte	0x12
 10347 3a77 4D       		.byte	0x4d
 10348 3a78 50       		.uleb128 0x50
 10349 3a79 FC230000 		.4byte	.LASF671
 10350 3a7d FC230000 		.4byte	.LASF671
 10351 3a81 0E       		.byte	0xe
 10352 3a82 99       		.byte	0x99
 10353 3a83 51       		.uleb128 0x51
 10354 3a84 95210000 		.4byte	.LASF672
 10355 3a88 95210000 		.4byte	.LASF672
 10356 3a8c 22       		.byte	0x22
 10357 3a8d 5601     		.2byte	0x156
 10358 3a8f 50       		.uleb128 0x50
 10359 3a90 61230000 		.4byte	.LASF673
 10360 3a94 61230000 		.4byte	.LASF673
 10361 3a98 1E       		.byte	0x1e
 10362 3a99 98       		.byte	0x98
 10363 3a9a 50       		.uleb128 0x50
 10364 3a9b 40150000 		.4byte	.LASF674
 10365 3a9f 40150000 		.4byte	.LASF674
 10366 3aa3 02       		.byte	0x2
 10367 3aa4 C3       		.byte	0xc3
 10368 3aa5 51       		.uleb128 0x51
 10369 3aa6 4E120000 		.4byte	.LASF675
 10370 3aaa 4E120000 		.4byte	.LASF675
 10371 3aae 22       		.byte	0x22
 10372 3aaf 9B01     		.2byte	0x19b
 10373 3ab1 50       		.uleb128 0x50
 10374 3ab2 DD140000 		.4byte	.LASF676
 10375 3ab6 DD140000 		.4byte	.LASF676
 10376 3aba 22       		.byte	0x22
 10377 3abb 99       		.byte	0x99
 10378 3abc 51       		.uleb128 0x51
 10379 3abd 501D0000 		.4byte	.LASF677
 10380 3ac1 501D0000 		.4byte	.LASF677
 10381 3ac5 22       		.byte	0x22
 10382 3ac6 7701     		.2byte	0x177
 10383 3ac8 50       		.uleb128 0x50
 10384 3ac9 D9060000 		.4byte	.LASF678
 10385 3acd D9060000 		.4byte	.LASF678
 10386 3ad1 25       		.byte	0x25
 10387 3ad2 76       		.byte	0x76
 10388 3ad3 50       		.uleb128 0x50
 10389 3ad4 61010000 		.4byte	.LASF679
 10390 3ad8 61010000 		.4byte	.LASF679
 10391 3adc 26       		.byte	0x26
 10392 3add 9C       		.byte	0x9c
 10393 3ade 52       		.uleb128 0x52
 10394 3adf A3160000 		.4byte	.LASF686
 10395 3ae3 A3160000 		.4byte	.LASF686
 10396 3ae7 00       		.byte	0
 10397              		.section	.debug_abbrev,"",%progbits
 10398              	.Ldebug_abbrev0:
 10399 0000 01       		.uleb128 0x1
 10400 0001 11       		.uleb128 0x11
ARM GAS  C:\Users\haske\AppData\Local\Temp\ccGWO5DZ.s 			page 211


 10401 0002 01       		.byte	0x1
 10402 0003 25       		.uleb128 0x25
 10403 0004 0E       		.uleb128 0xe
 10404 0005 13       		.uleb128 0x13
 10405 0006 0B       		.uleb128 0xb
 10406 0007 03       		.uleb128 0x3
 10407 0008 0E       		.uleb128 0xe
 10408 0009 1B       		.uleb128 0x1b
 10409 000a 0E       		.uleb128 0xe
 10410 000b 55       		.uleb128 0x55
 10411 000c 17       		.uleb128 0x17
 10412 000d 11       		.uleb128 0x11
 10413 000e 01       		.uleb128 0x1
 10414 000f 10       		.uleb128 0x10
 10415 0010 17       		.uleb128 0x17
 10416 0011 00       		.byte	0
 10417 0012 00       		.byte	0
 10418 0013 02       		.uleb128 0x2
 10419 0014 16       		.uleb128 0x16
 10420 0015 00       		.byte	0
 10421 0016 03       		.uleb128 0x3
 10422 0017 0E       		.uleb128 0xe
 10423 0018 3A       		.uleb128 0x3a
 10424 0019 0B       		.uleb128 0xb
 10425 001a 3B       		.uleb128 0x3b
 10426 001b 0B       		.uleb128 0xb
 10427 001c 49       		.uleb128 0x49
 10428 001d 13       		.uleb128 0x13
 10429 001e 00       		.byte	0
 10430 001f 00       		.byte	0
 10431 0020 03       		.uleb128 0x3
 10432 0021 24       		.uleb128 0x24
 10433 0022 00       		.byte	0
 10434 0023 0B       		.uleb128 0xb
 10435 0024 0B       		.uleb128 0xb
 10436 0025 3E       		.uleb128 0x3e
 10437 0026 0B       		.uleb128 0xb
 10438 0027 03       		.uleb128 0x3
 10439 0028 0E       		.uleb128 0xe
 10440 0029 00       		.byte	0
 10441 002a 00       		.byte	0
 10442 002b 04       		.uleb128 0x4
 10443 002c 24       		.uleb128 0x24
 10444 002d 00       		.byte	0
 10445 002e 0B       		.uleb128 0xb
 10446 002f 0B       		.uleb128 0xb
 10447 0030 3E       		.uleb128 0x3e
 10448 0031 0B       		.uleb128 0xb
 10449 0032 03       		.uleb128 0x3
 10450 0033 08       		.uleb128 0x8
 10451 0034 00       		.byte	0
 10452 0035 00       		.byte	0
 10453 0036 05       		.uleb128 0x5
 10454 0037 13       		.uleb128 0x13
 10455 0038 01       		.byte	0x1
 10456 0039 0B       		.uleb128 0xb
 10457 003a 0B       		.uleb128 0xb
ARM GAS  C:\Users\haske\AppData\Local\Temp\ccGWO5DZ.s 			page 212


 10458 003b 3A       		.uleb128 0x3a
 10459 003c 0B       		.uleb128 0xb
 10460 003d 3B       		.uleb128 0x3b
 10461 003e 0B       		.uleb128 0xb
 10462 003f 01       		.uleb128 0x1
 10463 0040 13       		.uleb128 0x13
 10464 0041 00       		.byte	0
 10465 0042 00       		.byte	0
 10466 0043 06       		.uleb128 0x6
 10467 0044 0D       		.uleb128 0xd
 10468 0045 00       		.byte	0
 10469 0046 03       		.uleb128 0x3
 10470 0047 08       		.uleb128 0x8
 10471 0048 3A       		.uleb128 0x3a
 10472 0049 0B       		.uleb128 0xb
 10473 004a 3B       		.uleb128 0x3b
 10474 004b 0B       		.uleb128 0xb
 10475 004c 49       		.uleb128 0x49
 10476 004d 13       		.uleb128 0x13
 10477 004e 38       		.uleb128 0x38
 10478 004f 0B       		.uleb128 0xb
 10479 0050 00       		.byte	0
 10480 0051 00       		.byte	0
 10481 0052 07       		.uleb128 0x7
 10482 0053 0D       		.uleb128 0xd
 10483 0054 00       		.byte	0
 10484 0055 03       		.uleb128 0x3
 10485 0056 0E       		.uleb128 0xe
 10486 0057 3A       		.uleb128 0x3a
 10487 0058 0B       		.uleb128 0xb
 10488 0059 3B       		.uleb128 0x3b
 10489 005a 0B       		.uleb128 0xb
 10490 005b 49       		.uleb128 0x49
 10491 005c 13       		.uleb128 0x13
 10492 005d 38       		.uleb128 0x38
 10493 005e 0B       		.uleb128 0xb
 10494 005f 00       		.byte	0
 10495 0060 00       		.byte	0
 10496 0061 08       		.uleb128 0x8
 10497 0062 0D       		.uleb128 0xd
 10498 0063 00       		.byte	0
 10499 0064 03       		.uleb128 0x3
 10500 0065 08       		.uleb128 0x8
 10501 0066 3A       		.uleb128 0x3a
 10502 0067 0B       		.uleb128 0xb
 10503 0068 3B       		.uleb128 0x3b
 10504 0069 0B       		.uleb128 0xb
 10505 006a 49       		.uleb128 0x49
 10506 006b 13       		.uleb128 0x13
 10507 006c 0B       		.uleb128 0xb
 10508 006d 0B       		.uleb128 0xb
 10509 006e 0D       		.uleb128 0xd
 10510 006f 0B       		.uleb128 0xb
 10511 0070 0C       		.uleb128 0xc
 10512 0071 0B       		.uleb128 0xb
 10513 0072 38       		.uleb128 0x38
 10514 0073 0B       		.uleb128 0xb
ARM GAS  C:\Users\haske\AppData\Local\Temp\ccGWO5DZ.s 			page 213


 10515 0074 00       		.byte	0
 10516 0075 00       		.byte	0
 10517 0076 09       		.uleb128 0x9
 10518 0077 0D       		.uleb128 0xd
 10519 0078 00       		.byte	0
 10520 0079 03       		.uleb128 0x3
 10521 007a 0E       		.uleb128 0xe
 10522 007b 3A       		.uleb128 0x3a
 10523 007c 0B       		.uleb128 0xb
 10524 007d 3B       		.uleb128 0x3b
 10525 007e 0B       		.uleb128 0xb
 10526 007f 49       		.uleb128 0x49
 10527 0080 13       		.uleb128 0x13
 10528 0081 0B       		.uleb128 0xb
 10529 0082 0B       		.uleb128 0xb
 10530 0083 0D       		.uleb128 0xd
 10531 0084 0B       		.uleb128 0xb
 10532 0085 0C       		.uleb128 0xc
 10533 0086 0B       		.uleb128 0xb
 10534 0087 38       		.uleb128 0x38
 10535 0088 0B       		.uleb128 0xb
 10536 0089 00       		.byte	0
 10537 008a 00       		.byte	0
 10538 008b 0A       		.uleb128 0xa
 10539 008c 13       		.uleb128 0x13
 10540 008d 01       		.byte	0x1
 10541 008e 03       		.uleb128 0x3
 10542 008f 0E       		.uleb128 0xe
 10543 0090 0B       		.uleb128 0xb
 10544 0091 0B       		.uleb128 0xb
 10545 0092 3A       		.uleb128 0x3a
 10546 0093 0B       		.uleb128 0xb
 10547 0094 3B       		.uleb128 0x3b
 10548 0095 0B       		.uleb128 0xb
 10549 0096 01       		.uleb128 0x1
 10550 0097 13       		.uleb128 0x13
 10551 0098 00       		.byte	0
 10552 0099 00       		.byte	0
 10553 009a 0B       		.uleb128 0xb
 10554 009b 0F       		.uleb128 0xf
 10555 009c 00       		.byte	0
 10556 009d 0B       		.uleb128 0xb
 10557 009e 0B       		.uleb128 0xb
 10558 009f 49       		.uleb128 0x49
 10559 00a0 13       		.uleb128 0x13
 10560 00a1 00       		.byte	0
 10561 00a2 00       		.byte	0
 10562 00a3 0C       		.uleb128 0xc
 10563 00a4 26       		.uleb128 0x26
 10564 00a5 00       		.byte	0
 10565 00a6 49       		.uleb128 0x49
 10566 00a7 13       		.uleb128 0x13
 10567 00a8 00       		.byte	0
 10568 00a9 00       		.byte	0
 10569 00aa 0D       		.uleb128 0xd
 10570 00ab 15       		.uleb128 0x15
 10571 00ac 01       		.byte	0x1
ARM GAS  C:\Users\haske\AppData\Local\Temp\ccGWO5DZ.s 			page 214


 10572 00ad 27       		.uleb128 0x27
 10573 00ae 19       		.uleb128 0x19
 10574 00af 49       		.uleb128 0x49
 10575 00b0 13       		.uleb128 0x13
 10576 00b1 01       		.uleb128 0x1
 10577 00b2 13       		.uleb128 0x13
 10578 00b3 00       		.byte	0
 10579 00b4 00       		.byte	0
 10580 00b5 0E       		.uleb128 0xe
 10581 00b6 05       		.uleb128 0x5
 10582 00b7 00       		.byte	0
 10583 00b8 49       		.uleb128 0x49
 10584 00b9 13       		.uleb128 0x13
 10585 00ba 00       		.byte	0
 10586 00bb 00       		.byte	0
 10587 00bc 0F       		.uleb128 0xf
 10588 00bd 26       		.uleb128 0x26
 10589 00be 00       		.byte	0
 10590 00bf 00       		.byte	0
 10591 00c0 00       		.byte	0
 10592 00c1 10       		.uleb128 0x10
 10593 00c2 0F       		.uleb128 0xf
 10594 00c3 00       		.byte	0
 10595 00c4 0B       		.uleb128 0xb
 10596 00c5 0B       		.uleb128 0xb
 10597 00c6 00       		.byte	0
 10598 00c7 00       		.byte	0
 10599 00c8 11       		.uleb128 0x11
 10600 00c9 04       		.uleb128 0x4
 10601 00ca 01       		.byte	0x1
 10602 00cb 0B       		.uleb128 0xb
 10603 00cc 0B       		.uleb128 0xb
 10604 00cd 49       		.uleb128 0x49
 10605 00ce 13       		.uleb128 0x13
 10606 00cf 3A       		.uleb128 0x3a
 10607 00d0 0B       		.uleb128 0xb
 10608 00d1 3B       		.uleb128 0x3b
 10609 00d2 0B       		.uleb128 0xb
 10610 00d3 01       		.uleb128 0x1
 10611 00d4 13       		.uleb128 0x13
 10612 00d5 00       		.byte	0
 10613 00d6 00       		.byte	0
 10614 00d7 12       		.uleb128 0x12
 10615 00d8 28       		.uleb128 0x28
 10616 00d9 00       		.byte	0
 10617 00da 03       		.uleb128 0x3
 10618 00db 0E       		.uleb128 0xe
 10619 00dc 1C       		.uleb128 0x1c
 10620 00dd 0B       		.uleb128 0xb
 10621 00de 00       		.byte	0
 10622 00df 00       		.byte	0
 10623 00e0 13       		.uleb128 0x13
 10624 00e1 17       		.uleb128 0x17
 10625 00e2 01       		.byte	0x1
 10626 00e3 0B       		.uleb128 0xb
 10627 00e4 0B       		.uleb128 0xb
 10628 00e5 3A       		.uleb128 0x3a
ARM GAS  C:\Users\haske\AppData\Local\Temp\ccGWO5DZ.s 			page 215


 10629 00e6 0B       		.uleb128 0xb
 10630 00e7 3B       		.uleb128 0x3b
 10631 00e8 0B       		.uleb128 0xb
 10632 00e9 01       		.uleb128 0x1
 10633 00ea 13       		.uleb128 0x13
 10634 00eb 00       		.byte	0
 10635 00ec 00       		.byte	0
 10636 00ed 14       		.uleb128 0x14
 10637 00ee 0D       		.uleb128 0xd
 10638 00ef 00       		.byte	0
 10639 00f0 03       		.uleb128 0x3
 10640 00f1 08       		.uleb128 0x8
 10641 00f2 3A       		.uleb128 0x3a
 10642 00f3 0B       		.uleb128 0xb
 10643 00f4 3B       		.uleb128 0x3b
 10644 00f5 0B       		.uleb128 0xb
 10645 00f6 49       		.uleb128 0x49
 10646 00f7 13       		.uleb128 0x13
 10647 00f8 00       		.byte	0
 10648 00f9 00       		.byte	0
 10649 00fa 15       		.uleb128 0x15
 10650 00fb 0D       		.uleb128 0xd
 10651 00fc 00       		.byte	0
 10652 00fd 03       		.uleb128 0x3
 10653 00fe 0E       		.uleb128 0xe
 10654 00ff 3A       		.uleb128 0x3a
 10655 0100 0B       		.uleb128 0xb
 10656 0101 3B       		.uleb128 0x3b
 10657 0102 0B       		.uleb128 0xb
 10658 0103 49       		.uleb128 0x49
 10659 0104 13       		.uleb128 0x13
 10660 0105 00       		.byte	0
 10661 0106 00       		.byte	0
 10662 0107 16       		.uleb128 0x16
 10663 0108 01       		.uleb128 0x1
 10664 0109 01       		.byte	0x1
 10665 010a 49       		.uleb128 0x49
 10666 010b 13       		.uleb128 0x13
 10667 010c 01       		.uleb128 0x1
 10668 010d 13       		.uleb128 0x13
 10669 010e 00       		.byte	0
 10670 010f 00       		.byte	0
 10671 0110 17       		.uleb128 0x17
 10672 0111 21       		.uleb128 0x21
 10673 0112 00       		.byte	0
 10674 0113 49       		.uleb128 0x49
 10675 0114 13       		.uleb128 0x13
 10676 0115 2F       		.uleb128 0x2f
 10677 0116 0B       		.uleb128 0xb
 10678 0117 00       		.byte	0
 10679 0118 00       		.byte	0
 10680 0119 18       		.uleb128 0x18
 10681 011a 28       		.uleb128 0x28
 10682 011b 00       		.byte	0
 10683 011c 03       		.uleb128 0x3
 10684 011d 0E       		.uleb128 0xe
 10685 011e 1C       		.uleb128 0x1c
ARM GAS  C:\Users\haske\AppData\Local\Temp\ccGWO5DZ.s 			page 216


 10686 011f 05       		.uleb128 0x5
 10687 0120 00       		.byte	0
 10688 0121 00       		.byte	0
 10689 0122 19       		.uleb128 0x19
 10690 0123 16       		.uleb128 0x16
 10691 0124 00       		.byte	0
 10692 0125 03       		.uleb128 0x3
 10693 0126 0E       		.uleb128 0xe
 10694 0127 3A       		.uleb128 0x3a
 10695 0128 0B       		.uleb128 0xb
 10696 0129 3B       		.uleb128 0x3b
 10697 012a 05       		.uleb128 0x5
 10698 012b 49       		.uleb128 0x49
 10699 012c 13       		.uleb128 0x13
 10700 012d 00       		.byte	0
 10701 012e 00       		.byte	0
 10702 012f 1A       		.uleb128 0x1a
 10703 0130 13       		.uleb128 0x13
 10704 0131 01       		.byte	0x1
 10705 0132 0B       		.uleb128 0xb
 10706 0133 0B       		.uleb128 0xb
 10707 0134 3A       		.uleb128 0x3a
 10708 0135 0B       		.uleb128 0xb
 10709 0136 3B       		.uleb128 0x3b
 10710 0137 05       		.uleb128 0x5
 10711 0138 01       		.uleb128 0x1
 10712 0139 13       		.uleb128 0x13
 10713 013a 00       		.byte	0
 10714 013b 00       		.byte	0
 10715 013c 1B       		.uleb128 0x1b
 10716 013d 0D       		.uleb128 0xd
 10717 013e 00       		.byte	0
 10718 013f 03       		.uleb128 0x3
 10719 0140 0E       		.uleb128 0xe
 10720 0141 3A       		.uleb128 0x3a
 10721 0142 0B       		.uleb128 0xb
 10722 0143 3B       		.uleb128 0x3b
 10723 0144 05       		.uleb128 0x5
 10724 0145 49       		.uleb128 0x49
 10725 0146 13       		.uleb128 0x13
 10726 0147 38       		.uleb128 0x38
 10727 0148 0B       		.uleb128 0xb
 10728 0149 00       		.byte	0
 10729 014a 00       		.byte	0
 10730 014b 1C       		.uleb128 0x1c
 10731 014c 17       		.uleb128 0x17
 10732 014d 01       		.byte	0x1
 10733 014e 0B       		.uleb128 0xb
 10734 014f 0B       		.uleb128 0xb
 10735 0150 3A       		.uleb128 0x3a
 10736 0151 0B       		.uleb128 0xb
 10737 0152 3B       		.uleb128 0x3b
 10738 0153 05       		.uleb128 0x5
 10739 0154 01       		.uleb128 0x1
 10740 0155 13       		.uleb128 0x13
 10741 0156 00       		.byte	0
 10742 0157 00       		.byte	0
ARM GAS  C:\Users\haske\AppData\Local\Temp\ccGWO5DZ.s 			page 217


 10743 0158 1D       		.uleb128 0x1d
 10744 0159 0D       		.uleb128 0xd
 10745 015a 00       		.byte	0
 10746 015b 03       		.uleb128 0x3
 10747 015c 0E       		.uleb128 0xe
 10748 015d 3A       		.uleb128 0x3a
 10749 015e 0B       		.uleb128 0xb
 10750 015f 3B       		.uleb128 0x3b
 10751 0160 05       		.uleb128 0x5
 10752 0161 49       		.uleb128 0x49
 10753 0162 13       		.uleb128 0x13
 10754 0163 00       		.byte	0
 10755 0164 00       		.byte	0
 10756 0165 1E       		.uleb128 0x1e
 10757 0166 0D       		.uleb128 0xd
 10758 0167 00       		.byte	0
 10759 0168 03       		.uleb128 0x3
 10760 0169 08       		.uleb128 0x8
 10761 016a 3A       		.uleb128 0x3a
 10762 016b 0B       		.uleb128 0xb
 10763 016c 3B       		.uleb128 0x3b
 10764 016d 05       		.uleb128 0x5
 10765 016e 49       		.uleb128 0x49
 10766 016f 13       		.uleb128 0x13
 10767 0170 38       		.uleb128 0x38
 10768 0171 0B       		.uleb128 0xb
 10769 0172 00       		.byte	0
 10770 0173 00       		.byte	0
 10771 0174 1F       		.uleb128 0x1f
 10772 0175 15       		.uleb128 0x15
 10773 0176 01       		.byte	0x1
 10774 0177 27       		.uleb128 0x27
 10775 0178 19       		.uleb128 0x19
 10776 0179 01       		.uleb128 0x1
 10777 017a 13       		.uleb128 0x13
 10778 017b 00       		.byte	0
 10779 017c 00       		.byte	0
 10780 017d 20       		.uleb128 0x20
 10781 017e 35       		.uleb128 0x35
 10782 017f 00       		.byte	0
 10783 0180 49       		.uleb128 0x49
 10784 0181 13       		.uleb128 0x13
 10785 0182 00       		.byte	0
 10786 0183 00       		.byte	0
 10787 0184 21       		.uleb128 0x21
 10788 0185 13       		.uleb128 0x13
 10789 0186 01       		.byte	0x1
 10790 0187 03       		.uleb128 0x3
 10791 0188 0E       		.uleb128 0xe
 10792 0189 0B       		.uleb128 0xb
 10793 018a 05       		.uleb128 0x5
 10794 018b 3A       		.uleb128 0x3a
 10795 018c 0B       		.uleb128 0xb
 10796 018d 3B       		.uleb128 0x3b
 10797 018e 0B       		.uleb128 0xb
 10798 018f 01       		.uleb128 0x1
 10799 0190 13       		.uleb128 0x13
ARM GAS  C:\Users\haske\AppData\Local\Temp\ccGWO5DZ.s 			page 218


 10800 0191 00       		.byte	0
 10801 0192 00       		.byte	0
 10802 0193 22       		.uleb128 0x22
 10803 0194 0D       		.uleb128 0xd
 10804 0195 00       		.byte	0
 10805 0196 03       		.uleb128 0x3
 10806 0197 0E       		.uleb128 0xe
 10807 0198 3A       		.uleb128 0x3a
 10808 0199 0B       		.uleb128 0xb
 10809 019a 3B       		.uleb128 0x3b
 10810 019b 0B       		.uleb128 0xb
 10811 019c 49       		.uleb128 0x49
 10812 019d 13       		.uleb128 0x13
 10813 019e 38       		.uleb128 0x38
 10814 019f 05       		.uleb128 0x5
 10815 01a0 00       		.byte	0
 10816 01a1 00       		.byte	0
 10817 01a2 23       		.uleb128 0x23
 10818 01a3 28       		.uleb128 0x28
 10819 01a4 00       		.byte	0
 10820 01a5 03       		.uleb128 0x3
 10821 01a6 0E       		.uleb128 0xe
 10822 01a7 1C       		.uleb128 0x1c
 10823 01a8 06       		.uleb128 0x6
 10824 01a9 00       		.byte	0
 10825 01aa 00       		.byte	0
 10826 01ab 24       		.uleb128 0x24
 10827 01ac 13       		.uleb128 0x13
 10828 01ad 00       		.byte	0
 10829 01ae 03       		.uleb128 0x3
 10830 01af 0E       		.uleb128 0xe
 10831 01b0 3C       		.uleb128 0x3c
 10832 01b1 19       		.uleb128 0x19
 10833 01b2 00       		.byte	0
 10834 01b3 00       		.byte	0
 10835 01b4 25       		.uleb128 0x25
 10836 01b5 2E       		.uleb128 0x2e
 10837 01b6 01       		.byte	0x1
 10838 01b7 03       		.uleb128 0x3
 10839 01b8 0E       		.uleb128 0xe
 10840 01b9 3A       		.uleb128 0x3a
 10841 01ba 0B       		.uleb128 0xb
 10842 01bb 3B       		.uleb128 0x3b
 10843 01bc 0B       		.uleb128 0xb
 10844 01bd 27       		.uleb128 0x27
 10845 01be 19       		.uleb128 0x19
 10846 01bf 49       		.uleb128 0x49
 10847 01c0 13       		.uleb128 0x13
 10848 01c1 20       		.uleb128 0x20
 10849 01c2 0B       		.uleb128 0xb
 10850 01c3 01       		.uleb128 0x1
 10851 01c4 13       		.uleb128 0x13
 10852 01c5 00       		.byte	0
 10853 01c6 00       		.byte	0
 10854 01c7 26       		.uleb128 0x26
 10855 01c8 05       		.uleb128 0x5
 10856 01c9 00       		.byte	0
ARM GAS  C:\Users\haske\AppData\Local\Temp\ccGWO5DZ.s 			page 219


 10857 01ca 03       		.uleb128 0x3
 10858 01cb 0E       		.uleb128 0xe
 10859 01cc 3A       		.uleb128 0x3a
 10860 01cd 0B       		.uleb128 0xb
 10861 01ce 3B       		.uleb128 0x3b
 10862 01cf 0B       		.uleb128 0xb
 10863 01d0 49       		.uleb128 0x49
 10864 01d1 13       		.uleb128 0x13
 10865 01d2 00       		.byte	0
 10866 01d3 00       		.byte	0
 10867 01d4 27       		.uleb128 0x27
 10868 01d5 2E       		.uleb128 0x2e
 10869 01d6 01       		.byte	0x1
 10870 01d7 03       		.uleb128 0x3
 10871 01d8 0E       		.uleb128 0xe
 10872 01d9 3A       		.uleb128 0x3a
 10873 01da 0B       		.uleb128 0xb
 10874 01db 3B       		.uleb128 0x3b
 10875 01dc 05       		.uleb128 0x5
 10876 01dd 27       		.uleb128 0x27
 10877 01de 19       		.uleb128 0x19
 10878 01df 49       		.uleb128 0x49
 10879 01e0 13       		.uleb128 0x13
 10880 01e1 20       		.uleb128 0x20
 10881 01e2 0B       		.uleb128 0xb
 10882 01e3 01       		.uleb128 0x1
 10883 01e4 13       		.uleb128 0x13
 10884 01e5 00       		.byte	0
 10885 01e6 00       		.byte	0
 10886 01e7 28       		.uleb128 0x28
 10887 01e8 05       		.uleb128 0x5
 10888 01e9 00       		.byte	0
 10889 01ea 03       		.uleb128 0x3
 10890 01eb 08       		.uleb128 0x8
 10891 01ec 3A       		.uleb128 0x3a
 10892 01ed 0B       		.uleb128 0xb
 10893 01ee 3B       		.uleb128 0x3b
 10894 01ef 05       		.uleb128 0x5
 10895 01f0 49       		.uleb128 0x49
 10896 01f1 13       		.uleb128 0x13
 10897 01f2 00       		.byte	0
 10898 01f3 00       		.byte	0
 10899 01f4 29       		.uleb128 0x29
 10900 01f5 05       		.uleb128 0x5
 10901 01f6 00       		.byte	0
 10902 01f7 03       		.uleb128 0x3
 10903 01f8 0E       		.uleb128 0xe
 10904 01f9 3A       		.uleb128 0x3a
 10905 01fa 0B       		.uleb128 0xb
 10906 01fb 3B       		.uleb128 0x3b
 10907 01fc 05       		.uleb128 0x5
 10908 01fd 49       		.uleb128 0x49
 10909 01fe 13       		.uleb128 0x13
 10910 01ff 00       		.byte	0
 10911 0200 00       		.byte	0
 10912 0201 2A       		.uleb128 0x2a
 10913 0202 34       		.uleb128 0x34
ARM GAS  C:\Users\haske\AppData\Local\Temp\ccGWO5DZ.s 			page 220


 10914 0203 00       		.byte	0
 10915 0204 03       		.uleb128 0x3
 10916 0205 08       		.uleb128 0x8
 10917 0206 3A       		.uleb128 0x3a
 10918 0207 0B       		.uleb128 0xb
 10919 0208 3B       		.uleb128 0x3b
 10920 0209 05       		.uleb128 0x5
 10921 020a 49       		.uleb128 0x49
 10922 020b 13       		.uleb128 0x13
 10923 020c 00       		.byte	0
 10924 020d 00       		.byte	0
 10925 020e 2B       		.uleb128 0x2b
 10926 020f 05       		.uleb128 0x5
 10927 0210 00       		.byte	0
 10928 0211 03       		.uleb128 0x3
 10929 0212 08       		.uleb128 0x8
 10930 0213 3A       		.uleb128 0x3a
 10931 0214 0B       		.uleb128 0xb
 10932 0215 3B       		.uleb128 0x3b
 10933 0216 0B       		.uleb128 0xb
 10934 0217 49       		.uleb128 0x49
 10935 0218 13       		.uleb128 0x13
 10936 0219 00       		.byte	0
 10937 021a 00       		.byte	0
 10938 021b 2C       		.uleb128 0x2c
 10939 021c 34       		.uleb128 0x34
 10940 021d 00       		.byte	0
 10941 021e 03       		.uleb128 0x3
 10942 021f 08       		.uleb128 0x8
 10943 0220 3A       		.uleb128 0x3a
 10944 0221 0B       		.uleb128 0xb
 10945 0222 3B       		.uleb128 0x3b
 10946 0223 0B       		.uleb128 0xb
 10947 0224 49       		.uleb128 0x49
 10948 0225 13       		.uleb128 0x13
 10949 0226 00       		.byte	0
 10950 0227 00       		.byte	0
 10951 0228 2D       		.uleb128 0x2d
 10952 0229 2E       		.uleb128 0x2e
 10953 022a 01       		.byte	0x1
 10954 022b 03       		.uleb128 0x3
 10955 022c 0E       		.uleb128 0xe
 10956 022d 3A       		.uleb128 0x3a
 10957 022e 0B       		.uleb128 0xb
 10958 022f 3B       		.uleb128 0x3b
 10959 0230 0B       		.uleb128 0xb
 10960 0231 27       		.uleb128 0x27
 10961 0232 19       		.uleb128 0x19
 10962 0233 20       		.uleb128 0x20
 10963 0234 0B       		.uleb128 0xb
 10964 0235 01       		.uleb128 0x1
 10965 0236 13       		.uleb128 0x13
 10966 0237 00       		.byte	0
 10967 0238 00       		.byte	0
 10968 0239 2E       		.uleb128 0x2e
 10969 023a 2E       		.uleb128 0x2e
 10970 023b 01       		.byte	0x1
ARM GAS  C:\Users\haske\AppData\Local\Temp\ccGWO5DZ.s 			page 221


 10971 023c 03       		.uleb128 0x3
 10972 023d 0E       		.uleb128 0xe
 10973 023e 3A       		.uleb128 0x3a
 10974 023f 0B       		.uleb128 0xb
 10975 0240 3B       		.uleb128 0x3b
 10976 0241 05       		.uleb128 0x5
 10977 0242 27       		.uleb128 0x27
 10978 0243 19       		.uleb128 0x19
 10979 0244 49       		.uleb128 0x49
 10980 0245 13       		.uleb128 0x13
 10981 0246 11       		.uleb128 0x11
 10982 0247 01       		.uleb128 0x1
 10983 0248 12       		.uleb128 0x12
 10984 0249 06       		.uleb128 0x6
 10985 024a 40       		.uleb128 0x40
 10986 024b 18       		.uleb128 0x18
 10987 024c 9742     		.uleb128 0x2117
 10988 024e 19       		.uleb128 0x19
 10989 024f 01       		.uleb128 0x1
 10990 0250 13       		.uleb128 0x13
 10991 0251 00       		.byte	0
 10992 0252 00       		.byte	0
 10993 0253 2F       		.uleb128 0x2f
 10994 0254 05       		.uleb128 0x5
 10995 0255 00       		.byte	0
 10996 0256 03       		.uleb128 0x3
 10997 0257 08       		.uleb128 0x8
 10998 0258 3A       		.uleb128 0x3a
 10999 0259 0B       		.uleb128 0xb
 11000 025a 3B       		.uleb128 0x3b
 11001 025b 05       		.uleb128 0x5
 11002 025c 49       		.uleb128 0x49
 11003 025d 13       		.uleb128 0x13
 11004 025e 02       		.uleb128 0x2
 11005 025f 17       		.uleb128 0x17
 11006 0260 00       		.byte	0
 11007 0261 00       		.byte	0
 11008 0262 30       		.uleb128 0x30
 11009 0263 34       		.uleb128 0x34
 11010 0264 00       		.byte	0
 11011 0265 03       		.uleb128 0x3
 11012 0266 08       		.uleb128 0x8
 11013 0267 3A       		.uleb128 0x3a
 11014 0268 0B       		.uleb128 0xb
 11015 0269 3B       		.uleb128 0x3b
 11016 026a 05       		.uleb128 0x5
 11017 026b 49       		.uleb128 0x49
 11018 026c 13       		.uleb128 0x13
 11019 026d 02       		.uleb128 0x2
 11020 026e 17       		.uleb128 0x17
 11021 026f 00       		.byte	0
 11022 0270 00       		.byte	0
 11023 0271 31       		.uleb128 0x31
 11024 0272 34       		.uleb128 0x34
 11025 0273 00       		.byte	0
 11026 0274 03       		.uleb128 0x3
 11027 0275 0E       		.uleb128 0xe
ARM GAS  C:\Users\haske\AppData\Local\Temp\ccGWO5DZ.s 			page 222


 11028 0276 3A       		.uleb128 0x3a
 11029 0277 0B       		.uleb128 0xb
 11030 0278 3B       		.uleb128 0x3b
 11031 0279 05       		.uleb128 0x5
 11032 027a 49       		.uleb128 0x49
 11033 027b 13       		.uleb128 0x13
 11034 027c 02       		.uleb128 0x2
 11035 027d 18       		.uleb128 0x18
 11036 027e 00       		.byte	0
 11037 027f 00       		.byte	0
 11038 0280 32       		.uleb128 0x32
 11039 0281 1D       		.uleb128 0x1d
 11040 0282 01       		.byte	0x1
 11041 0283 31       		.uleb128 0x31
 11042 0284 13       		.uleb128 0x13
 11043 0285 11       		.uleb128 0x11
 11044 0286 01       		.uleb128 0x1
 11045 0287 12       		.uleb128 0x12
 11046 0288 06       		.uleb128 0x6
 11047 0289 58       		.uleb128 0x58
 11048 028a 0B       		.uleb128 0xb
 11049 028b 59       		.uleb128 0x59
 11050 028c 05       		.uleb128 0x5
 11051 028d 01       		.uleb128 0x1
 11052 028e 13       		.uleb128 0x13
 11053 028f 00       		.byte	0
 11054 0290 00       		.byte	0
 11055 0291 33       		.uleb128 0x33
 11056 0292 05       		.uleb128 0x5
 11057 0293 00       		.byte	0
 11058 0294 31       		.uleb128 0x31
 11059 0295 13       		.uleb128 0x13
 11060 0296 02       		.uleb128 0x2
 11061 0297 17       		.uleb128 0x17
 11062 0298 00       		.byte	0
 11063 0299 00       		.byte	0
 11064 029a 34       		.uleb128 0x34
 11065 029b 898201   		.uleb128 0x4109
 11066 029e 01       		.byte	0x1
 11067 029f 11       		.uleb128 0x11
 11068 02a0 01       		.uleb128 0x1
 11069 02a1 31       		.uleb128 0x31
 11070 02a2 13       		.uleb128 0x13
 11071 02a3 00       		.byte	0
 11072 02a4 00       		.byte	0
 11073 02a5 35       		.uleb128 0x35
 11074 02a6 8A8201   		.uleb128 0x410a
 11075 02a9 00       		.byte	0
 11076 02aa 02       		.uleb128 0x2
 11077 02ab 18       		.uleb128 0x18
 11078 02ac 9142     		.uleb128 0x2111
 11079 02ae 18       		.uleb128 0x18
 11080 02af 00       		.byte	0
 11081 02b0 00       		.byte	0
 11082 02b1 36       		.uleb128 0x36
 11083 02b2 2E       		.uleb128 0x2e
 11084 02b3 01       		.byte	0x1
ARM GAS  C:\Users\haske\AppData\Local\Temp\ccGWO5DZ.s 			page 223


 11085 02b4 03       		.uleb128 0x3
 11086 02b5 0E       		.uleb128 0xe
 11087 02b6 3A       		.uleb128 0x3a
 11088 02b7 0B       		.uleb128 0xb
 11089 02b8 3B       		.uleb128 0x3b
 11090 02b9 05       		.uleb128 0x5
 11091 02ba 27       		.uleb128 0x27
 11092 02bb 19       		.uleb128 0x19
 11093 02bc 11       		.uleb128 0x11
 11094 02bd 01       		.uleb128 0x1
 11095 02be 12       		.uleb128 0x12
 11096 02bf 06       		.uleb128 0x6
 11097 02c0 40       		.uleb128 0x40
 11098 02c1 18       		.uleb128 0x18
 11099 02c2 9642     		.uleb128 0x2116
 11100 02c4 19       		.uleb128 0x19
 11101 02c5 01       		.uleb128 0x1
 11102 02c6 13       		.uleb128 0x13
 11103 02c7 00       		.byte	0
 11104 02c8 00       		.byte	0
 11105 02c9 37       		.uleb128 0x37
 11106 02ca 34       		.uleb128 0x34
 11107 02cb 00       		.byte	0
 11108 02cc 03       		.uleb128 0x3
 11109 02cd 0E       		.uleb128 0xe
 11110 02ce 3A       		.uleb128 0x3a
 11111 02cf 0B       		.uleb128 0xb
 11112 02d0 3B       		.uleb128 0x3b
 11113 02d1 05       		.uleb128 0x5
 11114 02d2 49       		.uleb128 0x49
 11115 02d3 13       		.uleb128 0x13
 11116 02d4 02       		.uleb128 0x2
 11117 02d5 17       		.uleb128 0x17
 11118 02d6 00       		.byte	0
 11119 02d7 00       		.byte	0
 11120 02d8 38       		.uleb128 0x38
 11121 02d9 0B       		.uleb128 0xb
 11122 02da 01       		.byte	0x1
 11123 02db 11       		.uleb128 0x11
 11124 02dc 01       		.uleb128 0x1
 11125 02dd 12       		.uleb128 0x12
 11126 02de 06       		.uleb128 0x6
 11127 02df 01       		.uleb128 0x1
 11128 02e0 13       		.uleb128 0x13
 11129 02e1 00       		.byte	0
 11130 02e2 00       		.byte	0
 11131 02e3 39       		.uleb128 0x39
 11132 02e4 0B       		.uleb128 0xb
 11133 02e5 01       		.byte	0x1
 11134 02e6 11       		.uleb128 0x11
 11135 02e7 01       		.uleb128 0x1
 11136 02e8 12       		.uleb128 0x12
 11137 02e9 06       		.uleb128 0x6
 11138 02ea 00       		.byte	0
 11139 02eb 00       		.byte	0
 11140 02ec 3A       		.uleb128 0x3a
 11141 02ed 34       		.uleb128 0x34
ARM GAS  C:\Users\haske\AppData\Local\Temp\ccGWO5DZ.s 			page 224


 11142 02ee 00       		.byte	0
 11143 02ef 31       		.uleb128 0x31
 11144 02f0 13       		.uleb128 0x13
 11145 02f1 00       		.byte	0
 11146 02f2 00       		.byte	0
 11147 02f3 3B       		.uleb128 0x3b
 11148 02f4 34       		.uleb128 0x34
 11149 02f5 00       		.byte	0
 11150 02f6 03       		.uleb128 0x3
 11151 02f7 08       		.uleb128 0x8
 11152 02f8 3A       		.uleb128 0x3a
 11153 02f9 0B       		.uleb128 0xb
 11154 02fa 3B       		.uleb128 0x3b
 11155 02fb 05       		.uleb128 0x5
 11156 02fc 49       		.uleb128 0x49
 11157 02fd 13       		.uleb128 0x13
 11158 02fe 02       		.uleb128 0x2
 11159 02ff 18       		.uleb128 0x18
 11160 0300 00       		.byte	0
 11161 0301 00       		.byte	0
 11162 0302 3C       		.uleb128 0x3c
 11163 0303 898201   		.uleb128 0x4109
 11164 0306 01       		.byte	0x1
 11165 0307 11       		.uleb128 0x11
 11166 0308 01       		.uleb128 0x1
 11167 0309 31       		.uleb128 0x31
 11168 030a 13       		.uleb128 0x13
 11169 030b 01       		.uleb128 0x1
 11170 030c 13       		.uleb128 0x13
 11171 030d 00       		.byte	0
 11172 030e 00       		.byte	0
 11173 030f 3D       		.uleb128 0x3d
 11174 0310 34       		.uleb128 0x34
 11175 0311 00       		.byte	0
 11176 0312 03       		.uleb128 0x3
 11177 0313 0E       		.uleb128 0xe
 11178 0314 3A       		.uleb128 0x3a
 11179 0315 0B       		.uleb128 0xb
 11180 0316 3B       		.uleb128 0x3b
 11181 0317 05       		.uleb128 0x5
 11182 0318 49       		.uleb128 0x49
 11183 0319 13       		.uleb128 0x13
 11184 031a 00       		.byte	0
 11185 031b 00       		.byte	0
 11186 031c 3E       		.uleb128 0x3e
 11187 031d 34       		.uleb128 0x34
 11188 031e 00       		.byte	0
 11189 031f 31       		.uleb128 0x31
 11190 0320 13       		.uleb128 0x13
 11191 0321 02       		.uleb128 0x2
 11192 0322 17       		.uleb128 0x17
 11193 0323 00       		.byte	0
 11194 0324 00       		.byte	0
 11195 0325 3F       		.uleb128 0x3f
 11196 0326 2E       		.uleb128 0x2e
 11197 0327 01       		.byte	0x1
 11198 0328 03       		.uleb128 0x3
ARM GAS  C:\Users\haske\AppData\Local\Temp\ccGWO5DZ.s 			page 225


 11199 0329 0E       		.uleb128 0xe
 11200 032a 3A       		.uleb128 0x3a
 11201 032b 0B       		.uleb128 0xb
 11202 032c 3B       		.uleb128 0x3b
 11203 032d 05       		.uleb128 0x5
 11204 032e 27       		.uleb128 0x27
 11205 032f 19       		.uleb128 0x19
 11206 0330 11       		.uleb128 0x11
 11207 0331 01       		.uleb128 0x1
 11208 0332 12       		.uleb128 0x12
 11209 0333 06       		.uleb128 0x6
 11210 0334 40       		.uleb128 0x40
 11211 0335 18       		.uleb128 0x18
 11212 0336 9742     		.uleb128 0x2117
 11213 0338 19       		.uleb128 0x19
 11214 0339 01       		.uleb128 0x1
 11215 033a 13       		.uleb128 0x13
 11216 033b 00       		.byte	0
 11217 033c 00       		.byte	0
 11218 033d 40       		.uleb128 0x40
 11219 033e 05       		.uleb128 0x5
 11220 033f 00       		.byte	0
 11221 0340 03       		.uleb128 0x3
 11222 0341 0E       		.uleb128 0xe
 11223 0342 3A       		.uleb128 0x3a
 11224 0343 0B       		.uleb128 0xb
 11225 0344 3B       		.uleb128 0x3b
 11226 0345 05       		.uleb128 0x5
 11227 0346 49       		.uleb128 0x49
 11228 0347 13       		.uleb128 0x13
 11229 0348 02       		.uleb128 0x2
 11230 0349 17       		.uleb128 0x17
 11231 034a 00       		.byte	0
 11232 034b 00       		.byte	0
 11233 034c 41       		.uleb128 0x41
 11234 034d 898201   		.uleb128 0x4109
 11235 0350 00       		.byte	0
 11236 0351 11       		.uleb128 0x11
 11237 0352 01       		.uleb128 0x1
 11238 0353 31       		.uleb128 0x31
 11239 0354 13       		.uleb128 0x13
 11240 0355 00       		.byte	0
 11241 0356 00       		.byte	0
 11242 0357 42       		.uleb128 0x42
 11243 0358 2E       		.uleb128 0x2e
 11244 0359 01       		.byte	0x1
 11245 035a 3F       		.uleb128 0x3f
 11246 035b 19       		.uleb128 0x19
 11247 035c 03       		.uleb128 0x3
 11248 035d 0E       		.uleb128 0xe
 11249 035e 3A       		.uleb128 0x3a
 11250 035f 0B       		.uleb128 0xb
 11251 0360 3B       		.uleb128 0x3b
 11252 0361 0B       		.uleb128 0xb
 11253 0362 27       		.uleb128 0x27
 11254 0363 19       		.uleb128 0x19
 11255 0364 49       		.uleb128 0x49
ARM GAS  C:\Users\haske\AppData\Local\Temp\ccGWO5DZ.s 			page 226


 11256 0365 13       		.uleb128 0x13
 11257 0366 11       		.uleb128 0x11
 11258 0367 01       		.uleb128 0x1
 11259 0368 12       		.uleb128 0x12
 11260 0369 06       		.uleb128 0x6
 11261 036a 40       		.uleb128 0x40
 11262 036b 18       		.uleb128 0x18
 11263 036c 9742     		.uleb128 0x2117
 11264 036e 19       		.uleb128 0x19
 11265 036f 01       		.uleb128 0x1
 11266 0370 13       		.uleb128 0x13
 11267 0371 00       		.byte	0
 11268 0372 00       		.byte	0
 11269 0373 43       		.uleb128 0x43
 11270 0374 05       		.uleb128 0x5
 11271 0375 00       		.byte	0
 11272 0376 03       		.uleb128 0x3
 11273 0377 0E       		.uleb128 0xe
 11274 0378 3A       		.uleb128 0x3a
 11275 0379 0B       		.uleb128 0xb
 11276 037a 3B       		.uleb128 0x3b
 11277 037b 0B       		.uleb128 0xb
 11278 037c 49       		.uleb128 0x49
 11279 037d 13       		.uleb128 0x13
 11280 037e 02       		.uleb128 0x2
 11281 037f 17       		.uleb128 0x17
 11282 0380 00       		.byte	0
 11283 0381 00       		.byte	0
 11284 0382 44       		.uleb128 0x44
 11285 0383 34       		.uleb128 0x34
 11286 0384 00       		.byte	0
 11287 0385 03       		.uleb128 0x3
 11288 0386 08       		.uleb128 0x8
 11289 0387 3A       		.uleb128 0x3a
 11290 0388 0B       		.uleb128 0xb
 11291 0389 3B       		.uleb128 0x3b
 11292 038a 0B       		.uleb128 0xb
 11293 038b 49       		.uleb128 0x49
 11294 038c 13       		.uleb128 0x13
 11295 038d 02       		.uleb128 0x2
 11296 038e 17       		.uleb128 0x17
 11297 038f 00       		.byte	0
 11298 0390 00       		.byte	0
 11299 0391 45       		.uleb128 0x45
 11300 0392 2E       		.uleb128 0x2e
 11301 0393 01       		.byte	0x1
 11302 0394 3F       		.uleb128 0x3f
 11303 0395 19       		.uleb128 0x19
 11304 0396 03       		.uleb128 0x3
 11305 0397 0E       		.uleb128 0xe
 11306 0398 3A       		.uleb128 0x3a
 11307 0399 0B       		.uleb128 0xb
 11308 039a 3B       		.uleb128 0x3b
 11309 039b 0B       		.uleb128 0xb
 11310 039c 27       		.uleb128 0x27
 11311 039d 19       		.uleb128 0x19
 11312 039e 11       		.uleb128 0x11
ARM GAS  C:\Users\haske\AppData\Local\Temp\ccGWO5DZ.s 			page 227


 11313 039f 01       		.uleb128 0x1
 11314 03a0 12       		.uleb128 0x12
 11315 03a1 06       		.uleb128 0x6
 11316 03a2 40       		.uleb128 0x40
 11317 03a3 18       		.uleb128 0x18
 11318 03a4 9742     		.uleb128 0x2117
 11319 03a6 19       		.uleb128 0x19
 11320 03a7 01       		.uleb128 0x1
 11321 03a8 13       		.uleb128 0x13
 11322 03a9 00       		.byte	0
 11323 03aa 00       		.byte	0
 11324 03ab 46       		.uleb128 0x46
 11325 03ac 05       		.uleb128 0x5
 11326 03ad 00       		.byte	0
 11327 03ae 03       		.uleb128 0x3
 11328 03af 08       		.uleb128 0x8
 11329 03b0 3A       		.uleb128 0x3a
 11330 03b1 0B       		.uleb128 0xb
 11331 03b2 3B       		.uleb128 0x3b
 11332 03b3 0B       		.uleb128 0xb
 11333 03b4 49       		.uleb128 0x49
 11334 03b5 13       		.uleb128 0x13
 11335 03b6 02       		.uleb128 0x2
 11336 03b7 17       		.uleb128 0x17
 11337 03b8 00       		.byte	0
 11338 03b9 00       		.byte	0
 11339 03ba 47       		.uleb128 0x47
 11340 03bb 34       		.uleb128 0x34
 11341 03bc 00       		.byte	0
 11342 03bd 03       		.uleb128 0x3
 11343 03be 0E       		.uleb128 0xe
 11344 03bf 3A       		.uleb128 0x3a
 11345 03c0 0B       		.uleb128 0xb
 11346 03c1 3B       		.uleb128 0x3b
 11347 03c2 0B       		.uleb128 0xb
 11348 03c3 49       		.uleb128 0x49
 11349 03c4 13       		.uleb128 0x13
 11350 03c5 02       		.uleb128 0x2
 11351 03c6 17       		.uleb128 0x17
 11352 03c7 00       		.byte	0
 11353 03c8 00       		.byte	0
 11354 03c9 48       		.uleb128 0x48
 11355 03ca 34       		.uleb128 0x34
 11356 03cb 00       		.byte	0
 11357 03cc 03       		.uleb128 0x3
 11358 03cd 0E       		.uleb128 0xe
 11359 03ce 3A       		.uleb128 0x3a
 11360 03cf 0B       		.uleb128 0xb
 11361 03d0 3B       		.uleb128 0x3b
 11362 03d1 0B       		.uleb128 0xb
 11363 03d2 49       		.uleb128 0x49
 11364 03d3 13       		.uleb128 0x13
 11365 03d4 02       		.uleb128 0x2
 11366 03d5 18       		.uleb128 0x18
 11367 03d6 00       		.byte	0
 11368 03d7 00       		.byte	0
 11369 03d8 49       		.uleb128 0x49
ARM GAS  C:\Users\haske\AppData\Local\Temp\ccGWO5DZ.s 			page 228


 11370 03d9 34       		.uleb128 0x34
 11371 03da 00       		.byte	0
 11372 03db 03       		.uleb128 0x3
 11373 03dc 0E       		.uleb128 0xe
 11374 03dd 3A       		.uleb128 0x3a
 11375 03de 0B       		.uleb128 0xb
 11376 03df 3B       		.uleb128 0x3b
 11377 03e0 0B       		.uleb128 0xb
 11378 03e1 49       		.uleb128 0x49
 11379 03e2 13       		.uleb128 0x13
 11380 03e3 00       		.byte	0
 11381 03e4 00       		.byte	0
 11382 03e5 4A       		.uleb128 0x4a
 11383 03e6 1D       		.uleb128 0x1d
 11384 03e7 01       		.byte	0x1
 11385 03e8 31       		.uleb128 0x31
 11386 03e9 13       		.uleb128 0x13
 11387 03ea 11       		.uleb128 0x11
 11388 03eb 01       		.uleb128 0x1
 11389 03ec 12       		.uleb128 0x12
 11390 03ed 06       		.uleb128 0x6
 11391 03ee 58       		.uleb128 0x58
 11392 03ef 0B       		.uleb128 0xb
 11393 03f0 59       		.uleb128 0x59
 11394 03f1 0B       		.uleb128 0xb
 11395 03f2 01       		.uleb128 0x1
 11396 03f3 13       		.uleb128 0x13
 11397 03f4 00       		.byte	0
 11398 03f5 00       		.byte	0
 11399 03f6 4B       		.uleb128 0x4b
 11400 03f7 34       		.uleb128 0x34
 11401 03f8 00       		.byte	0
 11402 03f9 03       		.uleb128 0x3
 11403 03fa 08       		.uleb128 0x8
 11404 03fb 3A       		.uleb128 0x3a
 11405 03fc 0B       		.uleb128 0xb
 11406 03fd 3B       		.uleb128 0x3b
 11407 03fe 0B       		.uleb128 0xb
 11408 03ff 49       		.uleb128 0x49
 11409 0400 13       		.uleb128 0x13
 11410 0401 02       		.uleb128 0x2
 11411 0402 18       		.uleb128 0x18
 11412 0403 00       		.byte	0
 11413 0404 00       		.byte	0
 11414 0405 4C       		.uleb128 0x4c
 11415 0406 2E       		.uleb128 0x2e
 11416 0407 01       		.byte	0x1
 11417 0408 3F       		.uleb128 0x3f
 11418 0409 19       		.uleb128 0x19
 11419 040a 03       		.uleb128 0x3
 11420 040b 0E       		.uleb128 0xe
 11421 040c 3A       		.uleb128 0x3a
 11422 040d 0B       		.uleb128 0xb
 11423 040e 3B       		.uleb128 0x3b
 11424 040f 05       		.uleb128 0x5
 11425 0410 27       		.uleb128 0x27
 11426 0411 19       		.uleb128 0x19
ARM GAS  C:\Users\haske\AppData\Local\Temp\ccGWO5DZ.s 			page 229


 11427 0412 11       		.uleb128 0x11
 11428 0413 01       		.uleb128 0x1
 11429 0414 12       		.uleb128 0x12
 11430 0415 06       		.uleb128 0x6
 11431 0416 40       		.uleb128 0x40
 11432 0417 18       		.uleb128 0x18
 11433 0418 9742     		.uleb128 0x2117
 11434 041a 19       		.uleb128 0x19
 11435 041b 01       		.uleb128 0x1
 11436 041c 13       		.uleb128 0x13
 11437 041d 00       		.byte	0
 11438 041e 00       		.byte	0
 11439 041f 4D       		.uleb128 0x4d
 11440 0420 2E       		.uleb128 0x2e
 11441 0421 01       		.byte	0x1
 11442 0422 3F       		.uleb128 0x3f
 11443 0423 19       		.uleb128 0x19
 11444 0424 03       		.uleb128 0x3
 11445 0425 0E       		.uleb128 0xe
 11446 0426 3A       		.uleb128 0x3a
 11447 0427 0B       		.uleb128 0xb
 11448 0428 3B       		.uleb128 0x3b
 11449 0429 05       		.uleb128 0x5
 11450 042a 27       		.uleb128 0x27
 11451 042b 19       		.uleb128 0x19
 11452 042c 49       		.uleb128 0x49
 11453 042d 13       		.uleb128 0x13
 11454 042e 11       		.uleb128 0x11
 11455 042f 01       		.uleb128 0x1
 11456 0430 12       		.uleb128 0x12
 11457 0431 06       		.uleb128 0x6
 11458 0432 40       		.uleb128 0x40
 11459 0433 18       		.uleb128 0x18
 11460 0434 9742     		.uleb128 0x2117
 11461 0436 19       		.uleb128 0x19
 11462 0437 01       		.uleb128 0x1
 11463 0438 13       		.uleb128 0x13
 11464 0439 00       		.byte	0
 11465 043a 00       		.byte	0
 11466 043b 4E       		.uleb128 0x4e
 11467 043c 34       		.uleb128 0x34
 11468 043d 00       		.byte	0
 11469 043e 03       		.uleb128 0x3
 11470 043f 0E       		.uleb128 0xe
 11471 0440 3A       		.uleb128 0x3a
 11472 0441 0B       		.uleb128 0xb
 11473 0442 3B       		.uleb128 0x3b
 11474 0443 0B       		.uleb128 0xb
 11475 0444 49       		.uleb128 0x49
 11476 0445 13       		.uleb128 0x13
 11477 0446 3F       		.uleb128 0x3f
 11478 0447 19       		.uleb128 0x19
 11479 0448 3C       		.uleb128 0x3c
 11480 0449 19       		.uleb128 0x19
 11481 044a 00       		.byte	0
 11482 044b 00       		.byte	0
 11483 044c 4F       		.uleb128 0x4f
ARM GAS  C:\Users\haske\AppData\Local\Temp\ccGWO5DZ.s 			page 230


 11484 044d 34       		.uleb128 0x34
 11485 044e 00       		.byte	0
 11486 044f 03       		.uleb128 0x3
 11487 0450 0E       		.uleb128 0xe
 11488 0451 3A       		.uleb128 0x3a
 11489 0452 0B       		.uleb128 0xb
 11490 0453 3B       		.uleb128 0x3b
 11491 0454 0B       		.uleb128 0xb
 11492 0455 49       		.uleb128 0x49
 11493 0456 13       		.uleb128 0x13
 11494 0457 3F       		.uleb128 0x3f
 11495 0458 19       		.uleb128 0x19
 11496 0459 02       		.uleb128 0x2
 11497 045a 18       		.uleb128 0x18
 11498 045b 00       		.byte	0
 11499 045c 00       		.byte	0
 11500 045d 50       		.uleb128 0x50
 11501 045e 2E       		.uleb128 0x2e
 11502 045f 00       		.byte	0
 11503 0460 3F       		.uleb128 0x3f
 11504 0461 19       		.uleb128 0x19
 11505 0462 3C       		.uleb128 0x3c
 11506 0463 19       		.uleb128 0x19
 11507 0464 6E       		.uleb128 0x6e
 11508 0465 0E       		.uleb128 0xe
 11509 0466 03       		.uleb128 0x3
 11510 0467 0E       		.uleb128 0xe
 11511 0468 3A       		.uleb128 0x3a
 11512 0469 0B       		.uleb128 0xb
 11513 046a 3B       		.uleb128 0x3b
 11514 046b 0B       		.uleb128 0xb
 11515 046c 00       		.byte	0
 11516 046d 00       		.byte	0
 11517 046e 51       		.uleb128 0x51
 11518 046f 2E       		.uleb128 0x2e
 11519 0470 00       		.byte	0
 11520 0471 3F       		.uleb128 0x3f
 11521 0472 19       		.uleb128 0x19
 11522 0473 3C       		.uleb128 0x3c
 11523 0474 19       		.uleb128 0x19
 11524 0475 6E       		.uleb128 0x6e
 11525 0476 0E       		.uleb128 0xe
 11526 0477 03       		.uleb128 0x3
 11527 0478 0E       		.uleb128 0xe
 11528 0479 3A       		.uleb128 0x3a
 11529 047a 0B       		.uleb128 0xb
 11530 047b 3B       		.uleb128 0x3b
 11531 047c 05       		.uleb128 0x5
 11532 047d 00       		.byte	0
 11533 047e 00       		.byte	0
 11534 047f 52       		.uleb128 0x52
 11535 0480 2E       		.uleb128 0x2e
 11536 0481 00       		.byte	0
 11537 0482 3F       		.uleb128 0x3f
 11538 0483 19       		.uleb128 0x19
 11539 0484 3C       		.uleb128 0x3c
 11540 0485 19       		.uleb128 0x19
ARM GAS  C:\Users\haske\AppData\Local\Temp\ccGWO5DZ.s 			page 231


 11541 0486 6E       		.uleb128 0x6e
 11542 0487 0E       		.uleb128 0xe
 11543 0488 03       		.uleb128 0x3
 11544 0489 0E       		.uleb128 0xe
 11545 048a 00       		.byte	0
 11546 048b 00       		.byte	0
 11547 048c 00       		.byte	0
 11548              		.section	.debug_loc,"",%progbits
 11549              	.Ldebug_loc0:
 11550              	.LLST0:
 11551 0000 00000000 		.4byte	.LVL0
 11552 0004 1A000000 		.4byte	.LVL2
 11553 0008 0100     		.2byte	0x1
 11554 000a 50       		.byte	0x50
 11555 000b 1A000000 		.4byte	.LVL2
 11556 000f 44000000 		.4byte	.LVL6
 11557 0013 0300     		.2byte	0x3
 11558 0015 75       		.byte	0x75
 11559 0016 4E       		.sleb128 -50
 11560 0017 9F       		.byte	0x9f
 11561 0018 44000000 		.4byte	.LVL6
 11562 001c 46000000 		.4byte	.LFE184
 11563 0020 0400     		.2byte	0x4
 11564 0022 F3       		.byte	0xf3
 11565 0023 01       		.uleb128 0x1
 11566 0024 50       		.byte	0x50
 11567 0025 9F       		.byte	0x9f
 11568 0026 00000000 		.4byte	0
 11569 002a 00000000 		.4byte	0
 11570              	.LLST1:
 11571 002e 04000000 		.4byte	.LVL1
 11572 0032 1A000000 		.4byte	.LVL2
 11573 0036 0100     		.2byte	0x1
 11574 0038 50       		.byte	0x50
 11575 0039 1A000000 		.4byte	.LVL2
 11576 003d 44000000 		.4byte	.LVL6
 11577 0041 0300     		.2byte	0x3
 11578 0043 75       		.byte	0x75
 11579 0044 4E       		.sleb128 -50
 11580 0045 9F       		.byte	0x9f
 11581 0046 44000000 		.4byte	.LVL6
 11582 004a 46000000 		.4byte	.LFE184
 11583 004e 0400     		.2byte	0x4
 11584 0050 F3       		.byte	0xf3
 11585 0051 01       		.uleb128 0x1
 11586 0052 50       		.byte	0x50
 11587 0053 9F       		.byte	0x9f
 11588 0054 00000000 		.4byte	0
 11589 0058 00000000 		.4byte	0
 11590              	.LLST2:
 11591 005c 22000000 		.4byte	.LVL3
 11592 0060 2C000000 		.4byte	.LVL4
 11593 0064 0100     		.2byte	0x1
 11594 0066 54       		.byte	0x54
 11595 0067 00000000 		.4byte	0
 11596 006b 00000000 		.4byte	0
 11597              	.LLST3:
ARM GAS  C:\Users\haske\AppData\Local\Temp\ccGWO5DZ.s 			page 232


 11598 006f 2C000000 		.4byte	.LVL4
 11599 0073 36000000 		.4byte	.LVL5
 11600 0077 0100     		.2byte	0x1
 11601 0079 54       		.byte	0x54
 11602 007a 00000000 		.4byte	0
 11603 007e 00000000 		.4byte	0
 11604              	.LLST4:
 11605 0082 00000000 		.4byte	.LVL7
 11606 0086 15000000 		.4byte	.LVL8-1
 11607 008a 0100     		.2byte	0x1
 11608 008c 50       		.byte	0x50
 11609 008d 15000000 		.4byte	.LVL8-1
 11610 0091 20000000 		.4byte	.LVL12
 11611 0095 0100     		.2byte	0x1
 11612 0097 54       		.byte	0x54
 11613 0098 20000000 		.4byte	.LVL12
 11614 009c 86000000 		.4byte	.LVL21
 11615 00a0 0300     		.2byte	0x3
 11616 00a2 91       		.byte	0x91
 11617 00a3 FC7E     		.sleb128 -132
 11618 00a5 86000000 		.4byte	.LVL21
 11619 00a9 FE000000 		.4byte	.LVL30
 11620 00ad 0400     		.2byte	0x4
 11621 00af F3       		.byte	0xf3
 11622 00b0 01       		.uleb128 0x1
 11623 00b1 50       		.byte	0x50
 11624 00b2 9F       		.byte	0x9f
 11625 00b3 FE000000 		.4byte	.LVL30
 11626 00b7 34020000 		.4byte	.LVL66
 11627 00bb 0300     		.2byte	0x3
 11628 00bd 91       		.byte	0x91
 11629 00be FC7E     		.sleb128 -132
 11630 00c0 34020000 		.4byte	.LVL66
 11631 00c4 78040000 		.4byte	.LFE186
 11632 00c8 0400     		.2byte	0x4
 11633 00ca F3       		.byte	0xf3
 11634 00cb 01       		.uleb128 0x1
 11635 00cc 50       		.byte	0x50
 11636 00cd 9F       		.byte	0x9f
 11637 00ce 00000000 		.4byte	0
 11638 00d2 00000000 		.4byte	0
 11639              	.LLST5:
 11640 00d6 18000000 		.4byte	.LVL9
 11641 00da 1A000000 		.4byte	.LVL10
 11642 00de 0100     		.2byte	0x1
 11643 00e0 50       		.byte	0x50
 11644 00e1 1A000000 		.4byte	.LVL10
 11645 00e5 AE000000 		.4byte	.LVL26
 11646 00e9 0100     		.2byte	0x1
 11647 00eb 56       		.byte	0x56
 11648 00ec FE000000 		.4byte	.LVL30
 11649 00f0 46020000 		.4byte	.LVL68
 11650 00f4 0100     		.2byte	0x1
 11651 00f6 56       		.byte	0x56
 11652 00f7 00000000 		.4byte	0
 11653 00fb 00000000 		.4byte	0
 11654              	.LLST6:
ARM GAS  C:\Users\haske\AppData\Local\Temp\ccGWO5DZ.s 			page 233


 11655 00ff 20000000 		.4byte	.LVL12
 11656 0103 26000000 		.4byte	.LVL13
 11657 0107 0100     		.2byte	0x1
 11658 0109 50       		.byte	0x50
 11659 010a 26000000 		.4byte	.LVL13
 11660 010e FE000000 		.4byte	.LVL30
 11661 0112 0100     		.2byte	0x1
 11662 0114 54       		.byte	0x54
 11663 0115 FE000000 		.4byte	.LVL30
 11664 0119 0A010000 		.4byte	.LVL31
 11665 011d 0100     		.2byte	0x1
 11666 011f 50       		.byte	0x50
 11667 0120 0A010000 		.4byte	.LVL31
 11668 0124 68040000 		.4byte	.LVL93
 11669 0128 0100     		.2byte	0x1
 11670 012a 54       		.byte	0x54
 11671 012b 00000000 		.4byte	0
 11672 012f 00000000 		.4byte	0
 11673              	.LLST8:
 11674 0133 2C000000 		.4byte	.LVL15
 11675 0137 62000000 		.4byte	.LVL17
 11676 013b 0100     		.2byte	0x1
 11677 013d 50       		.byte	0x50
 11678 013e 62000000 		.4byte	.LVL17
 11679 0142 FE000000 		.4byte	.LVL30
 11680 0146 0100     		.2byte	0x1
 11681 0148 57       		.byte	0x57
 11682 0149 00000000 		.4byte	0
 11683 014d 00000000 		.4byte	0
 11684              	.LLST9:
 11685 0151 86000000 		.4byte	.LVL21
 11686 0155 99000000 		.4byte	.LVL22-1
 11687 0159 0100     		.2byte	0x1
 11688 015b 50       		.byte	0x50
 11689 015c 99000000 		.4byte	.LVL22-1
 11690 0160 A6000000 		.4byte	.LVL23
 11691 0164 0300     		.2byte	0x3
 11692 0166 91       		.byte	0x91
 11693 0167 FC7E     		.sleb128 -132
 11694 0169 A6000000 		.4byte	.LVL23
 11695 016d A8000000 		.4byte	.LVL24
 11696 0171 0100     		.2byte	0x1
 11697 0173 50       		.byte	0x50
 11698 0174 A8000000 		.4byte	.LVL24
 11699 0178 FE000000 		.4byte	.LVL30
 11700 017c 0300     		.2byte	0x3
 11701 017e 91       		.byte	0x91
 11702 017f FC7E     		.sleb128 -132
 11703 0181 00000000 		.4byte	0
 11704 0185 00000000 		.4byte	0
 11705              	.LLST10:
 11706 0189 5C000000 		.4byte	.LVL16
 11707 018d 68000000 		.4byte	.LVL19
 11708 0191 0200     		.2byte	0x2
 11709 0193 30       		.byte	0x30
 11710 0194 9F       		.byte	0x9f
 11711 0195 00000000 		.4byte	0
ARM GAS  C:\Users\haske\AppData\Local\Temp\ccGWO5DZ.s 			page 234


 11712 0199 00000000 		.4byte	0
 11713              	.LLST11:
 11714 019d 5C000000 		.4byte	.LVL16
 11715 01a1 68000000 		.4byte	.LVL19
 11716 01a5 0100     		.2byte	0x1
 11717 01a7 54       		.byte	0x54
 11718 01a8 00000000 		.4byte	0
 11719 01ac 00000000 		.4byte	0
 11720              	.LLST12:
 11721 01b0 10010000 		.4byte	.LVL33
 11722 01b4 F6020000 		.4byte	.LVL78
 11723 01b8 0300     		.2byte	0x3
 11724 01ba 91       		.byte	0x91
 11725 01bb 807F     		.sleb128 -128
 11726 01bd 00000000 		.4byte	0
 11727 01c1 00000000 		.4byte	0
 11728              	.LLST13:
 11729 01c5 18010000 		.4byte	.LVL35
 11730 01c9 CC010000 		.4byte	.LVL56
 11731 01cd 0100     		.2byte	0x1
 11732 01cf 57       		.byte	0x57
 11733 01d0 00000000 		.4byte	0
 11734 01d4 00000000 		.4byte	0
 11735              	.LLST14:
 11736 01d8 36010000 		.4byte	.LVL41
 11737 01dc 86030000 		.4byte	.LVL84
 11738 01e0 0100     		.2byte	0x1
 11739 01e2 5A       		.byte	0x5a
 11740 01e3 30040000 		.4byte	.LVL88
 11741 01e7 66040000 		.4byte	.LVL92
 11742 01eb 0100     		.2byte	0x1
 11743 01ed 5A       		.byte	0x5a
 11744 01ee 00000000 		.4byte	0
 11745 01f2 00000000 		.4byte	0
 11746              	.LLST15:
 11747 01f6 46010000 		.4byte	.LVL44
 11748 01fa 66040000 		.4byte	.LVL92
 11749 01fe 0300     		.2byte	0x3
 11750 0200 91       		.byte	0x91
 11751 0201 847F     		.sleb128 -124
 11752 0203 00000000 		.4byte	0
 11753 0207 00000000 		.4byte	0
 11754              	.LLST16:
 11755 020b 56010000 		.4byte	.LVL47
 11756 020f 68030000 		.4byte	.LVL81
 11757 0213 0100     		.2byte	0x1
 11758 0215 58       		.byte	0x58
 11759 0216 30040000 		.4byte	.LVL88
 11760 021a 66040000 		.4byte	.LVL92
 11761 021e 0100     		.2byte	0x1
 11762 0220 58       		.byte	0x58
 11763 0221 00000000 		.4byte	0
 11764 0225 00000000 		.4byte	0
 11765              	.LLST17:
 11766 0229 66010000 		.4byte	.LVL49
 11767 022d 66040000 		.4byte	.LVL92
 11768 0231 0300     		.2byte	0x3
ARM GAS  C:\Users\haske\AppData\Local\Temp\ccGWO5DZ.s 			page 235


 11769 0233 91       		.byte	0x91
 11770 0234 887F     		.sleb128 -120
 11771 0236 00000000 		.4byte	0
 11772 023a 00000000 		.4byte	0
 11773              	.LLST18:
 11774 023e F8010000 		.4byte	.LVL61
 11775 0242 2E020000 		.4byte	.LVL64
 11776 0246 0100     		.2byte	0x1
 11777 0248 50       		.byte	0x50
 11778 0249 00000000 		.4byte	0
 11779 024d 00000000 		.4byte	0
 11780              	.LLST19:
 11781 0251 18010000 		.4byte	.LVL35
 11782 0255 24010000 		.4byte	.LVL37
 11783 0259 0200     		.2byte	0x2
 11784 025b 30       		.byte	0x30
 11785 025c 9F       		.byte	0x9f
 11786 025d 00000000 		.4byte	0
 11787 0261 00000000 		.4byte	0
 11788              	.LLST20:
 11789 0265 18010000 		.4byte	.LVL35
 11790 0269 24010000 		.4byte	.LVL37
 11791 026d 0100     		.2byte	0x1
 11792 026f 54       		.byte	0x54
 11793 0270 00000000 		.4byte	0
 11794 0274 00000000 		.4byte	0
 11795              	.LLST21:
 11796 0278 24010000 		.4byte	.LVL37
 11797 027c 2E010000 		.4byte	.LVL38
 11798 0280 0200     		.2byte	0x2
 11799 0282 30       		.byte	0x30
 11800 0283 9F       		.byte	0x9f
 11801 0284 00000000 		.4byte	0
 11802 0288 00000000 		.4byte	0
 11803              	.LLST22:
 11804 028c 24010000 		.4byte	.LVL37
 11805 0290 2E010000 		.4byte	.LVL38
 11806 0294 0100     		.2byte	0x1
 11807 0296 54       		.byte	0x54
 11808 0297 00000000 		.4byte	0
 11809 029b 00000000 		.4byte	0
 11810              	.LLST23:
 11811 029f 30010000 		.4byte	.LVL39
 11812 02a3 32010000 		.4byte	.LVL40
 11813 02a7 0100     		.2byte	0x1
 11814 02a9 50       		.byte	0x50
 11815 02aa 00000000 		.4byte	0
 11816 02ae 00000000 		.4byte	0
 11817              	.LLST24:
 11818 02b2 36010000 		.4byte	.LVL41
 11819 02b6 40010000 		.4byte	.LVL42
 11820 02ba 0200     		.2byte	0x2
 11821 02bc 30       		.byte	0x30
 11822 02bd 9F       		.byte	0x9f
 11823 02be 00000000 		.4byte	0
 11824 02c2 00000000 		.4byte	0
 11825              	.LLST25:
ARM GAS  C:\Users\haske\AppData\Local\Temp\ccGWO5DZ.s 			page 236


 11826 02c6 36010000 		.4byte	.LVL41
 11827 02ca 40010000 		.4byte	.LVL42
 11828 02ce 0100     		.2byte	0x1
 11829 02d0 54       		.byte	0x54
 11830 02d1 00000000 		.4byte	0
 11831 02d5 00000000 		.4byte	0
 11832              	.LLST26:
 11833 02d9 40010000 		.4byte	.LVL42
 11834 02dd 42010000 		.4byte	.LVL43
 11835 02e1 0100     		.2byte	0x1
 11836 02e3 50       		.byte	0x50
 11837 02e4 00000000 		.4byte	0
 11838 02e8 00000000 		.4byte	0
 11839              	.LLST27:
 11840 02ec 46010000 		.4byte	.LVL44
 11841 02f0 50010000 		.4byte	.LVL45
 11842 02f4 0200     		.2byte	0x2
 11843 02f6 30       		.byte	0x30
 11844 02f7 9F       		.byte	0x9f
 11845 02f8 00000000 		.4byte	0
 11846 02fc 00000000 		.4byte	0
 11847              	.LLST28:
 11848 0300 46010000 		.4byte	.LVL44
 11849 0304 50010000 		.4byte	.LVL45
 11850 0308 0100     		.2byte	0x1
 11851 030a 54       		.byte	0x54
 11852 030b 00000000 		.4byte	0
 11853 030f 00000000 		.4byte	0
 11854              	.LLST29:
 11855 0313 50010000 		.4byte	.LVL45
 11856 0317 52010000 		.4byte	.LVL46
 11857 031b 0100     		.2byte	0x1
 11858 031d 50       		.byte	0x50
 11859 031e 00000000 		.4byte	0
 11860 0322 00000000 		.4byte	0
 11861              	.LLST30:
 11862 0326 56010000 		.4byte	.LVL47
 11863 032a 60010000 		.4byte	.LVL48
 11864 032e 0200     		.2byte	0x2
 11865 0330 30       		.byte	0x30
 11866 0331 9F       		.byte	0x9f
 11867 0332 00000000 		.4byte	0
 11868 0336 00000000 		.4byte	0
 11869              	.LLST31:
 11870 033a 56010000 		.4byte	.LVL47
 11871 033e 60010000 		.4byte	.LVL48
 11872 0342 0100     		.2byte	0x1
 11873 0344 54       		.byte	0x54
 11874 0345 00000000 		.4byte	0
 11875 0349 00000000 		.4byte	0
 11876              	.LLST32:
 11877 034d 60010000 		.4byte	.LVL48
 11878 0351 88010000 		.4byte	.LVL50
 11879 0355 0100     		.2byte	0x1
 11880 0357 50       		.byte	0x50
 11881 0358 8E010000 		.4byte	.LVL52
 11882 035c A2010000 		.4byte	.LVL53
ARM GAS  C:\Users\haske\AppData\Local\Temp\ccGWO5DZ.s 			page 237


 11883 0360 0100     		.2byte	0x1
 11884 0362 50       		.byte	0x50
 11885 0363 00000000 		.4byte	0
 11886 0367 00000000 		.4byte	0
 11887              	.LLST33:
 11888 036b C2010000 		.4byte	.LVL55
 11889 036f D6010000 		.4byte	.LVL57
 11890 0373 0300     		.2byte	0x3
 11891 0375 74       		.byte	0x74
 11892 0376 14       		.sleb128 20
 11893 0377 9F       		.byte	0x9f
 11894 0378 00000000 		.4byte	0
 11895 037c 00000000 		.4byte	0
 11896              	.LLST34:
 11897 0380 C2010000 		.4byte	.LVL55
 11898 0384 D6010000 		.4byte	.LVL57
 11899 0388 0600     		.2byte	0x6
 11900 038a F2       		.byte	0xf2
 11901 038b 88240000 		.4byte	.Ldebug_info0+9352
 11902 038f 00       		.sleb128 0
 11903 0390 00000000 		.4byte	0
 11904 0394 00000000 		.4byte	0
 11905              	.LLST35:
 11906 0398 D6010000 		.4byte	.LVL57
 11907 039c D8010000 		.4byte	.LVL58
 11908 03a0 0400     		.2byte	0x4
 11909 03a2 91       		.byte	0x91
 11910 03a3 987F     		.sleb128 -104
 11911 03a5 9F       		.byte	0x9f
 11912 03a6 D8010000 		.4byte	.LVL58
 11913 03aa EE010000 		.4byte	.LVL59
 11914 03ae 0100     		.2byte	0x1
 11915 03b0 53       		.byte	0x53
 11916 03b1 EE010000 		.4byte	.LVL59
 11917 03b5 F0010000 		.4byte	.LVL60
 11918 03b9 0400     		.2byte	0x4
 11919 03bb 91       		.byte	0x91
 11920 03bc 987F     		.sleb128 -104
 11921 03be 9F       		.byte	0x9f
 11922 03bf 00000000 		.4byte	0
 11923 03c3 00000000 		.4byte	0
 11924              	.LLST36:
 11925 03c7 D6010000 		.4byte	.LVL57
 11926 03cb F0010000 		.4byte	.LVL60
 11927 03cf 0300     		.2byte	0x3
 11928 03d1 74       		.byte	0x74
 11929 03d2 14       		.sleb128 20
 11930 03d3 9F       		.byte	0x9f
 11931 03d4 00000000 		.4byte	0
 11932 03d8 00000000 		.4byte	0
 11933              	.LLST37:
 11934 03dc FE010000 		.4byte	.LVL62
 11935 03e0 0A020000 		.4byte	.LVL63
 11936 03e4 0600     		.2byte	0x6
 11937 03e6 F2       		.byte	0xf2
 11938 03e7 88240000 		.4byte	.Ldebug_info0+9352
 11939 03eb 00       		.sleb128 0
ARM GAS  C:\Users\haske\AppData\Local\Temp\ccGWO5DZ.s 			page 238


 11940 03ec 00000000 		.4byte	0
 11941 03f0 00000000 		.4byte	0
 11942              	.LLST38:
 11943 03f4 FE010000 		.4byte	.LVL62
 11944 03f8 0A020000 		.4byte	.LVL63
 11945 03fc 0300     		.2byte	0x3
 11946 03fe 74       		.byte	0x74
 11947 03ff 14       		.sleb128 20
 11948 0400 9F       		.byte	0x9f
 11949 0401 00000000 		.4byte	0
 11950 0405 00000000 		.4byte	0
 11951              	.LLST39:
 11952 0409 34020000 		.4byte	.LVL66
 11953 040d 4E020000 		.4byte	.LVL70
 11954 0411 0100     		.2byte	0x1
 11955 0413 50       		.byte	0x50
 11956 0414 4E020000 		.4byte	.LVL70
 11957 0418 66040000 		.4byte	.LVL92
 11958 041c 0300     		.2byte	0x3
 11959 041e 91       		.byte	0x91
 11960 041f FC7E     		.sleb128 -132
 11961 0421 00000000 		.4byte	0
 11962 0425 00000000 		.4byte	0
 11963              	.LLST40:
 11964 0429 34020000 		.4byte	.LVL66
 11965 042d 4C020000 		.4byte	.LVL69
 11966 0431 0300     		.2byte	0x3
 11967 0433 74       		.byte	0x74
 11968 0434 14       		.sleb128 20
 11969 0435 9F       		.byte	0x9f
 11970 0436 00000000 		.4byte	0
 11971 043a 00000000 		.4byte	0
 11972              	.LLST41:
 11973 043e 34020000 		.4byte	.LVL66
 11974 0442 3A020000 		.4byte	.LVL67
 11975 0446 0400     		.2byte	0x4
 11976 0448 91       		.byte	0x91
 11977 0449 A07F     		.sleb128 -96
 11978 044b 9F       		.byte	0x9f
 11979 044c 3A020000 		.4byte	.LVL67
 11980 0450 46020000 		.4byte	.LVL68
 11981 0454 0100     		.2byte	0x1
 11982 0456 53       		.byte	0x53
 11983 0457 46020000 		.4byte	.LVL68
 11984 045b 4C020000 		.4byte	.LVL69
 11985 045f 0400     		.2byte	0x4
 11986 0461 91       		.byte	0x91
 11987 0462 A07F     		.sleb128 -96
 11988 0464 9F       		.byte	0x9f
 11989 0465 00000000 		.4byte	0
 11990 0469 00000000 		.4byte	0
 11991              	.LLST42:
 11992 046d A0020000 		.4byte	.LVL72
 11993 0471 A2020000 		.4byte	.LVL73
 11994 0475 0400     		.2byte	0x4
 11995 0477 91       		.byte	0x91
 11996 0478 987F     		.sleb128 -104
ARM GAS  C:\Users\haske\AppData\Local\Temp\ccGWO5DZ.s 			page 239


 11997 047a 9F       		.byte	0x9f
 11998 047b A2020000 		.4byte	.LVL73
 11999 047f B0020000 		.4byte	.LVL74
 12000 0483 0100     		.2byte	0x1
 12001 0485 51       		.byte	0x51
 12002 0486 00000000 		.4byte	0
 12003 048a 00000000 		.4byte	0
 12004              	.LLST43:
 12005 048e B8020000 		.4byte	.LVL75
 12006 0492 C0020000 		.4byte	.LVL76
 12007 0496 0100     		.2byte	0x1
 12008 0498 51       		.byte	0x51
 12009 0499 C0020000 		.4byte	.LVL76
 12010 049d C6020000 		.4byte	.LVL77
 12011 04a1 0400     		.2byte	0x4
 12012 04a3 91       		.byte	0x91
 12013 04a4 987F     		.sleb128 -104
 12014 04a6 9F       		.byte	0x9f
 12015 04a7 00000000 		.4byte	0
 12016 04ab 00000000 		.4byte	0
 12017              	.LLST44:
 12018 04af 68030000 		.4byte	.LVL81
 12019 04b3 6F030000 		.4byte	.LVL82-1
 12020 04b7 0100     		.2byte	0x1
 12021 04b9 53       		.byte	0x53
 12022 04ba 6F030000 		.4byte	.LVL82-1
 12023 04be 30040000 		.4byte	.LVL88
 12024 04c2 0100     		.2byte	0x1
 12025 04c4 58       		.byte	0x58
 12026 04c5 00000000 		.4byte	0
 12027 04c9 00000000 		.4byte	0
 12028              	.LLST45:
 12029 04cd 86030000 		.4byte	.LVL84
 12030 04d1 30040000 		.4byte	.LVL88
 12031 04d5 0100     		.2byte	0x1
 12032 04d7 5A       		.byte	0x5a
 12033 04d8 00000000 		.4byte	0
 12034 04dc 00000000 		.4byte	0
 12035              	.LLST46:
 12036 04e0 94030000 		.4byte	.LVL85
 12037 04e4 9E030000 		.4byte	.LVL86
 12038 04e8 0100     		.2byte	0x1
 12039 04ea 51       		.byte	0x51
 12040 04eb 00000000 		.4byte	0
 12041 04ef 00000000 		.4byte	0
 12042              	.LLST47:
 12043 04f3 00000000 		.4byte	.LVL94
 12044 04f7 16000000 		.4byte	.LVL96
 12045 04fb 0100     		.2byte	0x1
 12046 04fd 50       		.byte	0x50
 12047 04fe 16000000 		.4byte	.LVL96
 12048 0502 2A000000 		.4byte	.LFE183
 12049 0506 0400     		.2byte	0x4
 12050 0508 F3       		.byte	0xf3
 12051 0509 01       		.uleb128 0x1
 12052 050a 50       		.byte	0x50
 12053 050b 9F       		.byte	0x9f
ARM GAS  C:\Users\haske\AppData\Local\Temp\ccGWO5DZ.s 			page 240


 12054 050c 00000000 		.4byte	0
 12055 0510 00000000 		.4byte	0
 12056              	.LLST48:
 12057 0514 00000000 		.4byte	.LVL94
 12058 0518 19000000 		.4byte	.LVL97-1
 12059 051c 0100     		.2byte	0x1
 12060 051e 51       		.byte	0x51
 12061 051f 19000000 		.4byte	.LVL97-1
 12062 0523 28000000 		.4byte	.LVL98
 12063 0527 0100     		.2byte	0x1
 12064 0529 54       		.byte	0x54
 12065 052a 28000000 		.4byte	.LVL98
 12066 052e 2A000000 		.4byte	.LFE183
 12067 0532 0400     		.2byte	0x4
 12068 0534 F3       		.byte	0xf3
 12069 0535 01       		.uleb128 0x1
 12070 0536 51       		.byte	0x51
 12071 0537 9F       		.byte	0x9f
 12072 0538 00000000 		.4byte	0
 12073 053c 00000000 		.4byte	0
 12074              	.LLST49:
 12075 0540 04000000 		.4byte	.LVL95
 12076 0544 19000000 		.4byte	.LVL97-1
 12077 0548 0100     		.2byte	0x1
 12078 054a 51       		.byte	0x51
 12079 054b 19000000 		.4byte	.LVL97-1
 12080 054f 28000000 		.4byte	.LVL98
 12081 0553 0100     		.2byte	0x1
 12082 0555 54       		.byte	0x54
 12083 0556 28000000 		.4byte	.LVL98
 12084 055a 2A000000 		.4byte	.LFE183
 12085 055e 0400     		.2byte	0x4
 12086 0560 F3       		.byte	0xf3
 12087 0561 01       		.uleb128 0x1
 12088 0562 51       		.byte	0x51
 12089 0563 9F       		.byte	0x9f
 12090 0564 00000000 		.4byte	0
 12091 0568 00000000 		.4byte	0
 12092              	.LLST50:
 12093 056c 00000000 		.4byte	.LVL99
 12094 0570 1A000000 		.4byte	.LVL101
 12095 0574 0100     		.2byte	0x1
 12096 0576 50       		.byte	0x50
 12097 0577 1A000000 		.4byte	.LVL101
 12098 057b 62000000 		.4byte	.LFE182
 12099 057f 0400     		.2byte	0x4
 12100 0581 F3       		.byte	0xf3
 12101 0582 01       		.uleb128 0x1
 12102 0583 50       		.byte	0x50
 12103 0584 9F       		.byte	0x9f
 12104 0585 00000000 		.4byte	0
 12105 0589 00000000 		.4byte	0
 12106              	.LLST51:
 12107 058d 00000000 		.4byte	.LVL99
 12108 0591 1D000000 		.4byte	.LVL102-1
 12109 0595 0100     		.2byte	0x1
 12110 0597 51       		.byte	0x51
ARM GAS  C:\Users\haske\AppData\Local\Temp\ccGWO5DZ.s 			page 241


 12111 0598 1D000000 		.4byte	.LVL102-1
 12112 059c 60000000 		.4byte	.LVL106
 12113 05a0 0100     		.2byte	0x1
 12114 05a2 54       		.byte	0x54
 12115 05a3 60000000 		.4byte	.LVL106
 12116 05a7 62000000 		.4byte	.LFE182
 12117 05ab 0400     		.2byte	0x4
 12118 05ad F3       		.byte	0xf3
 12119 05ae 01       		.uleb128 0x1
 12120 05af 51       		.byte	0x51
 12121 05b0 9F       		.byte	0x9f
 12122 05b1 00000000 		.4byte	0
 12123 05b5 00000000 		.4byte	0
 12124              	.LLST52:
 12125 05b9 04000000 		.4byte	.LVL100
 12126 05bd 1D000000 		.4byte	.LVL102-1
 12127 05c1 0100     		.2byte	0x1
 12128 05c3 51       		.byte	0x51
 12129 05c4 1D000000 		.4byte	.LVL102-1
 12130 05c8 60000000 		.4byte	.LVL106
 12131 05cc 0100     		.2byte	0x1
 12132 05ce 54       		.byte	0x54
 12133 05cf 60000000 		.4byte	.LVL106
 12134 05d3 62000000 		.4byte	.LFE182
 12135 05d7 0400     		.2byte	0x4
 12136 05d9 F3       		.byte	0xf3
 12137 05da 01       		.uleb128 0x1
 12138 05db 51       		.byte	0x51
 12139 05dc 9F       		.byte	0x9f
 12140 05dd 00000000 		.4byte	0
 12141 05e1 00000000 		.4byte	0
 12142              	.LLST53:
 12143 05e5 00000000 		.4byte	.LVL107
 12144 05e9 06000000 		.4byte	.LVL108
 12145 05ed 0100     		.2byte	0x1
 12146 05ef 50       		.byte	0x50
 12147 05f0 06000000 		.4byte	.LVL108
 12148 05f4 09000000 		.4byte	.LVL109-1
 12149 05f8 0100     		.2byte	0x1
 12150 05fa 51       		.byte	0x51
 12151 05fb 09000000 		.4byte	.LVL109-1
 12152 05ff 18000000 		.4byte	.LFE165
 12153 0603 0400     		.2byte	0x4
 12154 0605 F3       		.byte	0xf3
 12155 0606 01       		.uleb128 0x1
 12156 0607 50       		.byte	0x50
 12157 0608 9F       		.byte	0x9f
 12158 0609 00000000 		.4byte	0
 12159 060d 00000000 		.4byte	0
 12160              	.LLST54:
 12161 0611 0C000000 		.4byte	.LVL110
 12162 0615 0F000000 		.4byte	.LVL111-1
 12163 0619 0100     		.2byte	0x1
 12164 061b 50       		.byte	0x50
 12165 061c 0F000000 		.4byte	.LVL111-1
 12166 0620 12000000 		.4byte	.LVL112
 12167 0624 0100     		.2byte	0x1
ARM GAS  C:\Users\haske\AppData\Local\Temp\ccGWO5DZ.s 			page 242


 12168 0626 54       		.byte	0x54
 12169 0627 12000000 		.4byte	.LVL112
 12170 062b 18000000 		.4byte	.LFE165
 12171 062f 0100     		.2byte	0x1
 12172 0631 50       		.byte	0x50
 12173 0632 00000000 		.4byte	0
 12174 0636 00000000 		.4byte	0
 12175              	.LLST55:
 12176 063a 00000000 		.4byte	.LVL113
 12177 063e 11000000 		.4byte	.LVL114-1
 12178 0642 0100     		.2byte	0x1
 12179 0644 50       		.byte	0x50
 12180 0645 11000000 		.4byte	.LVL114-1
 12181 0649 90010000 		.4byte	.LVL143
 12182 064d 0100     		.2byte	0x1
 12183 064f 57       		.byte	0x57
 12184 0650 90010000 		.4byte	.LVL143
 12185 0654 A0010000 		.4byte	.LFE166
 12186 0658 0400     		.2byte	0x4
 12187 065a F3       		.byte	0xf3
 12188 065b 01       		.uleb128 0x1
 12189 065c 50       		.byte	0x50
 12190 065d 9F       		.byte	0x9f
 12191 065e 00000000 		.4byte	0
 12192 0662 00000000 		.4byte	0
 12193              	.LLST56:
 12194 0666 00000000 		.4byte	.LVL113
 12195 066a 11000000 		.4byte	.LVL114-1
 12196 066e 0100     		.2byte	0x1
 12197 0670 51       		.byte	0x51
 12198 0671 11000000 		.4byte	.LVL114-1
 12199 0675 4E010000 		.4byte	.LVL139
 12200 0679 0100     		.2byte	0x1
 12201 067b 54       		.byte	0x54
 12202 067c 4E010000 		.4byte	.LVL139
 12203 0680 A0010000 		.4byte	.LFE166
 12204 0684 0400     		.2byte	0x4
 12205 0686 F3       		.byte	0xf3
 12206 0687 01       		.uleb128 0x1
 12207 0688 51       		.byte	0x51
 12208 0689 9F       		.byte	0x9f
 12209 068a 00000000 		.4byte	0
 12210 068e 00000000 		.4byte	0
 12211              	.LLST57:
 12212 0692 1C000000 		.4byte	.LVL116
 12213 0696 32000000 		.4byte	.LVL117
 12214 069a 0100     		.2byte	0x1
 12215 069c 50       		.byte	0x50
 12216 069d 46000000 		.4byte	.LVL119
 12217 06a1 4A000000 		.4byte	.LVL120
 12218 06a5 0100     		.2byte	0x1
 12219 06a7 50       		.byte	0x50
 12220 06a8 00000000 		.4byte	0
 12221 06ac 00000000 		.4byte	0
 12222              	.LLST58:
 12223 06b0 1C000000 		.4byte	.LVL116
 12224 06b4 90010000 		.4byte	.LVL143
ARM GAS  C:\Users\haske\AppData\Local\Temp\ccGWO5DZ.s 			page 243


 12225 06b8 0100     		.2byte	0x1
 12226 06ba 57       		.byte	0x57
 12227 06bb 90010000 		.4byte	.LVL143
 12228 06bf A0010000 		.4byte	.LFE166
 12229 06c3 0400     		.2byte	0x4
 12230 06c5 F3       		.byte	0xf3
 12231 06c6 01       		.uleb128 0x1
 12232 06c7 50       		.byte	0x50
 12233 06c8 9F       		.byte	0x9f
 12234 06c9 00000000 		.4byte	0
 12235 06cd 00000000 		.4byte	0
 12236              	.LLST59:
 12237 06d1 7C000000 		.4byte	.LVL123
 12238 06d5 90000000 		.4byte	.LVL124
 12239 06d9 0200     		.2byte	0x2
 12240 06db 30       		.byte	0x30
 12241 06dc 9F       		.byte	0x9f
 12242 06dd 90000000 		.4byte	.LVL124
 12243 06e1 B8000000 		.4byte	.LVL129
 12244 06e5 0100     		.2byte	0x1
 12245 06e7 58       		.byte	0x58
 12246 06e8 B8000000 		.4byte	.LVL129
 12247 06ec BD000000 		.4byte	.LVL130-1
 12248 06f0 0100     		.2byte	0x1
 12249 06f2 53       		.byte	0x53
 12250 06f3 BD000000 		.4byte	.LVL130-1
 12251 06f7 BE000000 		.4byte	.LVL130
 12252 06fb 0100     		.2byte	0x1
 12253 06fd 58       		.byte	0x58
 12254 06fe 00000000 		.4byte	0
 12255 0702 00000000 		.4byte	0
 12256              	.LLST60:
 12257 0706 9E000000 		.4byte	.LVL127
 12258 070a AD000000 		.4byte	.LVL128-1
 12259 070e 0100     		.2byte	0x1
 12260 0710 50       		.byte	0x50
 12261 0711 AD000000 		.4byte	.LVL128-1
 12262 0715 BE000000 		.4byte	.LVL130
 12263 0719 0100     		.2byte	0x1
 12264 071b 59       		.byte	0x59
 12265 071c 00000000 		.4byte	0
 12266 0720 00000000 		.4byte	0
 12267              	.LLST61:
 12268 0724 C2000000 		.4byte	.LVL131
 12269 0728 CE000000 		.4byte	.LVL133
 12270 072c 0200     		.2byte	0x2
 12271 072e 30       		.byte	0x30
 12272 072f 9F       		.byte	0x9f
 12273 0730 00000000 		.4byte	0
 12274 0734 00000000 		.4byte	0
 12275              	.LLST62:
 12276 0738 C2000000 		.4byte	.LVL131
 12277 073c CE000000 		.4byte	.LVL133
 12278 0740 0100     		.2byte	0x1
 12279 0742 57       		.byte	0x57
 12280 0743 00000000 		.4byte	0
 12281 0747 00000000 		.4byte	0
ARM GAS  C:\Users\haske\AppData\Local\Temp\ccGWO5DZ.s 			page 244


 12282              	.LLST63:
 12283 074b CE000000 		.4byte	.LVL133
 12284 074f DC000000 		.4byte	.LVL135
 12285 0753 0200     		.2byte	0x2
 12286 0755 30       		.byte	0x30
 12287 0756 9F       		.byte	0x9f
 12288 0757 00000000 		.4byte	0
 12289 075b 00000000 		.4byte	0
 12290              	.LLST64:
 12291 075f CE000000 		.4byte	.LVL133
 12292 0763 DC000000 		.4byte	.LVL135
 12293 0767 0100     		.2byte	0x1
 12294 0769 57       		.byte	0x57
 12295 076a 00000000 		.4byte	0
 12296 076e 00000000 		.4byte	0
 12297              	.LLST65:
 12298 0772 DC000000 		.4byte	.LVL135
 12299 0776 E8000000 		.4byte	.LVL137
 12300 077a 0200     		.2byte	0x2
 12301 077c 30       		.byte	0x30
 12302 077d 9F       		.byte	0x9f
 12303 077e 00000000 		.4byte	0
 12304 0782 00000000 		.4byte	0
 12305              	.LLST66:
 12306 0786 DC000000 		.4byte	.LVL135
 12307 078a E8000000 		.4byte	.LVL137
 12308 078e 0100     		.2byte	0x1
 12309 0790 57       		.byte	0x57
 12310 0791 00000000 		.4byte	0
 12311 0795 00000000 		.4byte	0
 12312              	.LLST67:
 12313 0799 00000000 		.4byte	.LVL144
 12314 079d 08000000 		.4byte	.LVL145
 12315 07a1 0100     		.2byte	0x1
 12316 07a3 50       		.byte	0x50
 12317 07a4 08000000 		.4byte	.LVL145
 12318 07a8 F4010000 		.4byte	.LFE185
 12319 07ac 0400     		.2byte	0x4
 12320 07ae F3       		.byte	0xf3
 12321 07af 01       		.uleb128 0x1
 12322 07b0 50       		.byte	0x50
 12323 07b1 9F       		.byte	0x9f
 12324 07b2 00000000 		.4byte	0
 12325 07b6 00000000 		.4byte	0
 12326              	.LLST68:
 12327 07ba 00000000 		.4byte	.LVL144
 12328 07be 0B000000 		.4byte	.LVL146-1
 12329 07c2 0100     		.2byte	0x1
 12330 07c4 51       		.byte	0x51
 12331 07c5 0B000000 		.4byte	.LVL146-1
 12332 07c9 70000000 		.4byte	.LVL162
 12333 07cd 0100     		.2byte	0x1
 12334 07cf 55       		.byte	0x55
 12335 07d0 70000000 		.4byte	.LVL162
 12336 07d4 E0000000 		.4byte	.LVL169
 12337 07d8 0400     		.2byte	0x4
 12338 07da F3       		.byte	0xf3
ARM GAS  C:\Users\haske\AppData\Local\Temp\ccGWO5DZ.s 			page 245


 12339 07db 01       		.uleb128 0x1
 12340 07dc 51       		.byte	0x51
 12341 07dd 9F       		.byte	0x9f
 12342 07de E0000000 		.4byte	.LVL169
 12343 07e2 F0000000 		.4byte	.LVL173
 12344 07e6 0100     		.2byte	0x1
 12345 07e8 55       		.byte	0x55
 12346 07e9 F0000000 		.4byte	.LVL173
 12347 07ed A4010000 		.4byte	.LVL186
 12348 07f1 0400     		.2byte	0x4
 12349 07f3 F3       		.byte	0xf3
 12350 07f4 01       		.uleb128 0x1
 12351 07f5 51       		.byte	0x51
 12352 07f6 9F       		.byte	0x9f
 12353 07f7 A4010000 		.4byte	.LVL186
 12354 07fb EA010000 		.4byte	.LVL195
 12355 07ff 0100     		.2byte	0x1
 12356 0801 55       		.byte	0x55
 12357 0802 EA010000 		.4byte	.LVL195
 12358 0806 F4010000 		.4byte	.LFE185
 12359 080a 0400     		.2byte	0x4
 12360 080c F3       		.byte	0xf3
 12361 080d 01       		.uleb128 0x1
 12362 080e 51       		.byte	0x51
 12363 080f 9F       		.byte	0x9f
 12364 0810 00000000 		.4byte	0
 12365 0814 00000000 		.4byte	0
 12366              	.LLST69:
 12367 0818 0E000000 		.4byte	.LVL147
 12368 081c 1A000000 		.4byte	.LVL148
 12369 0820 0100     		.2byte	0x1
 12370 0822 50       		.byte	0x50
 12371 0823 1A000000 		.4byte	.LVL148
 12372 0827 84000000 		.4byte	.LVL165
 12373 082b 0100     		.2byte	0x1
 12374 082d 54       		.byte	0x54
 12375 082e E0000000 		.4byte	.LVL169
 12376 0832 EC000000 		.4byte	.LVL172
 12377 0836 0100     		.2byte	0x1
 12378 0838 54       		.byte	0x54
 12379 0839 A4010000 		.4byte	.LVL186
 12380 083d B0010000 		.4byte	.LVL189
 12381 0841 0100     		.2byte	0x1
 12382 0843 54       		.byte	0x54
 12383 0844 D8010000 		.4byte	.LVL193
 12384 0848 EA010000 		.4byte	.LVL195
 12385 084c 0100     		.2byte	0x1
 12386 084e 54       		.byte	0x54
 12387 084f 00000000 		.4byte	0
 12388 0853 00000000 		.4byte	0
 12389              	.LLST70:
 12390 0857 2C000000 		.4byte	.LVL152
 12391 085b 41000000 		.4byte	.LVL153-1
 12392 085f 0100     		.2byte	0x1
 12393 0861 50       		.byte	0x50
 12394 0862 41000000 		.4byte	.LVL153-1
 12395 0866 44000000 		.4byte	.LVL154
ARM GAS  C:\Users\haske\AppData\Local\Temp\ccGWO5DZ.s 			page 246


 12396 086a 0100     		.2byte	0x1
 12397 086c 56       		.byte	0x56
 12398 086d 44000000 		.4byte	.LVL154
 12399 0871 47000000 		.4byte	.LVL155-1
 12400 0875 0100     		.2byte	0x1
 12401 0877 50       		.byte	0x50
 12402 0878 47000000 		.4byte	.LVL155-1
 12403 087c 4A000000 		.4byte	.LVL156
 12404 0880 0100     		.2byte	0x1
 12405 0882 56       		.byte	0x56
 12406 0883 4A000000 		.4byte	.LVL156
 12407 0887 50000000 		.4byte	.LVL157
 12408 088b 0100     		.2byte	0x1
 12409 088d 50       		.byte	0x50
 12410 088e 50000000 		.4byte	.LVL157
 12411 0892 E0000000 		.4byte	.LVL169
 12412 0896 0100     		.2byte	0x1
 12413 0898 56       		.byte	0x56
 12414 0899 E0000000 		.4byte	.LVL169
 12415 089d E6000000 		.4byte	.LVL170
 12416 08a1 0100     		.2byte	0x1
 12417 08a3 50       		.byte	0x50
 12418 08a4 E6000000 		.4byte	.LVL170
 12419 08a8 A4010000 		.4byte	.LVL186
 12420 08ac 0100     		.2byte	0x1
 12421 08ae 56       		.byte	0x56
 12422 08af A4010000 		.4byte	.LVL186
 12423 08b3 AA010000 		.4byte	.LVL187
 12424 08b7 0100     		.2byte	0x1
 12425 08b9 50       		.byte	0x50
 12426 08ba AA010000 		.4byte	.LVL187
 12427 08be D8010000 		.4byte	.LVL193
 12428 08c2 0100     		.2byte	0x1
 12429 08c4 56       		.byte	0x56
 12430 08c5 D8010000 		.4byte	.LVL193
 12431 08c9 E6010000 		.4byte	.LVL194
 12432 08cd 0100     		.2byte	0x1
 12433 08cf 50       		.byte	0x50
 12434 08d0 E6010000 		.4byte	.LVL194
 12435 08d4 EA010000 		.4byte	.LVL195
 12436 08d8 0100     		.2byte	0x1
 12437 08da 56       		.byte	0x56
 12438 08db 00000000 		.4byte	0
 12439 08df 00000000 		.4byte	0
 12440              	.LLST72:
 12441 08e3 1E000000 		.4byte	.LVL149
 12442 08e7 24000000 		.4byte	.LVL150
 12443 08eb 0100     		.2byte	0x1
 12444 08ed 50       		.byte	0x50
 12445 08ee 00000000 		.4byte	0
 12446 08f2 00000000 		.4byte	0
 12447              	.LLST73:
 12448 08f6 56000000 		.4byte	.LVL159
 12449 08fa 6A000000 		.4byte	.LVL160
 12450 08fe 0100     		.2byte	0x1
 12451 0900 50       		.byte	0x50
 12452 0901 6A000000 		.4byte	.LVL160
ARM GAS  C:\Users\haske\AppData\Local\Temp\ccGWO5DZ.s 			page 247


 12453 0905 E0000000 		.4byte	.LVL169
 12454 0909 0100     		.2byte	0x1
 12455 090b 57       		.byte	0x57
 12456 090c 00000000 		.4byte	0
 12457 0910 00000000 		.4byte	0
 12458              	.LLST74:
 12459 0914 70000000 		.4byte	.LVL162
 12460 0918 C2000000 		.4byte	.LVL168
 12461 091c 0100     		.2byte	0x1
 12462 091e 55       		.byte	0x55
 12463 091f 00000000 		.4byte	0
 12464 0923 00000000 		.4byte	0
 12465              	.LLST75:
 12466 0927 78000000 		.4byte	.LVL164
 12467 092b 90000000 		.4byte	.LVL166
 12468 092f 0100     		.2byte	0x1
 12469 0931 50       		.byte	0x50
 12470 0932 90000000 		.4byte	.LVL166
 12471 0936 93000000 		.4byte	.LVL167-1
 12472 093a 0100     		.2byte	0x1
 12473 093c 52       		.byte	0x52
 12474 093d 93000000 		.4byte	.LVL167-1
 12475 0941 E0000000 		.4byte	.LVL169
 12476 0945 0200     		.2byte	0x2
 12477 0947 91       		.byte	0x91
 12478 0948 5C       		.sleb128 -36
 12479 0949 00000000 		.4byte	0
 12480 094d 00000000 		.4byte	0
 12481              	.LLST76:
 12482 0951 EC000000 		.4byte	.LVL172
 12483 0955 F2000000 		.4byte	.LVL174
 12484 0959 0100     		.2byte	0x1
 12485 095b 50       		.byte	0x50
 12486 095c F2000000 		.4byte	.LVL174
 12487 0960 A4010000 		.4byte	.LVL186
 12488 0964 0100     		.2byte	0x1
 12489 0966 54       		.byte	0x54
 12490 0967 00000000 		.4byte	0
 12491 096b 00000000 		.4byte	0
 12492              	.LLST77:
 12493 096f 44010000 		.4byte	.LVL178
 12494 0973 66010000 		.4byte	.LVL182
 12495 0977 0100     		.2byte	0x1
 12496 0979 57       		.byte	0x57
 12497 097a 00000000 		.4byte	0
 12498 097e 00000000 		.4byte	0
 12499              	.LLST78:
 12500 0982 4C010000 		.4byte	.LVL180
 12501 0986 63010000 		.4byte	.LVL181-1
 12502 098a 0100     		.2byte	0x1
 12503 098c 52       		.byte	0x52
 12504 098d 00000000 		.4byte	0
 12505 0991 00000000 		.4byte	0
 12506              	.LLST79:
 12507 0995 B0010000 		.4byte	.LVL189
 12508 0999 BE010000 		.4byte	.LVL190
 12509 099d 0100     		.2byte	0x1
ARM GAS  C:\Users\haske\AppData\Local\Temp\ccGWO5DZ.s 			page 248


 12510 099f 50       		.byte	0x50
 12511 09a0 BE010000 		.4byte	.LVL190
 12512 09a4 CA010000 		.4byte	.LVL192
 12513 09a8 0100     		.2byte	0x1
 12514 09aa 54       		.byte	0x54
 12515 09ab CA010000 		.4byte	.LVL192
 12516 09af D8010000 		.4byte	.LVL193
 12517 09b3 0100     		.2byte	0x1
 12518 09b5 50       		.byte	0x50
 12519 09b6 00000000 		.4byte	0
 12520 09ba 00000000 		.4byte	0
 12521              	.LLST80:
 12522 09be 00000000 		.4byte	.LVL196
 12523 09c2 07000000 		.4byte	.LVL198-1
 12524 09c6 0100     		.2byte	0x1
 12525 09c8 50       		.byte	0x50
 12526 09c9 07000000 		.4byte	.LVL198-1
 12527 09cd 0A000000 		.4byte	.LFE167
 12528 09d1 0400     		.2byte	0x4
 12529 09d3 F3       		.byte	0xf3
 12530 09d4 01       		.uleb128 0x1
 12531 09d5 50       		.byte	0x50
 12532 09d6 9F       		.byte	0x9f
 12533 09d7 00000000 		.4byte	0
 12534 09db 00000000 		.4byte	0
 12535              	.LLST81:
 12536 09df 00000000 		.4byte	.LVL196
 12537 09e3 07000000 		.4byte	.LVL198-1
 12538 09e7 0100     		.2byte	0x1
 12539 09e9 51       		.byte	0x51
 12540 09ea 07000000 		.4byte	.LVL198-1
 12541 09ee 0A000000 		.4byte	.LFE167
 12542 09f2 0400     		.2byte	0x4
 12543 09f4 F3       		.byte	0xf3
 12544 09f5 01       		.uleb128 0x1
 12545 09f6 51       		.byte	0x51
 12546 09f7 9F       		.byte	0x9f
 12547 09f8 00000000 		.4byte	0
 12548 09fc 00000000 		.4byte	0
 12549              	.LLST82:
 12550 0a00 02000000 		.4byte	.LVL197
 12551 0a04 07000000 		.4byte	.LVL198-1
 12552 0a08 0100     		.2byte	0x1
 12553 0a0a 50       		.byte	0x50
 12554 0a0b 07000000 		.4byte	.LVL198-1
 12555 0a0f 0A000000 		.4byte	.LFE167
 12556 0a13 0400     		.2byte	0x4
 12557 0a15 F3       		.byte	0xf3
 12558 0a16 01       		.uleb128 0x1
 12559 0a17 50       		.byte	0x50
 12560 0a18 9F       		.byte	0x9f
 12561 0a19 00000000 		.4byte	0
 12562 0a1d 00000000 		.4byte	0
 12563              	.LLST83:
 12564 0a21 00000000 		.4byte	.LVL199
 12565 0a25 07000000 		.4byte	.LVL201-1
 12566 0a29 0100     		.2byte	0x1
ARM GAS  C:\Users\haske\AppData\Local\Temp\ccGWO5DZ.s 			page 249


 12567 0a2b 50       		.byte	0x50
 12568 0a2c 07000000 		.4byte	.LVL201-1
 12569 0a30 0A000000 		.4byte	.LFE168
 12570 0a34 0400     		.2byte	0x4
 12571 0a36 F3       		.byte	0xf3
 12572 0a37 01       		.uleb128 0x1
 12573 0a38 50       		.byte	0x50
 12574 0a39 9F       		.byte	0x9f
 12575 0a3a 00000000 		.4byte	0
 12576 0a3e 00000000 		.4byte	0
 12577              	.LLST84:
 12578 0a42 00000000 		.4byte	.LVL199
 12579 0a46 07000000 		.4byte	.LVL201-1
 12580 0a4a 0100     		.2byte	0x1
 12581 0a4c 51       		.byte	0x51
 12582 0a4d 07000000 		.4byte	.LVL201-1
 12583 0a51 0A000000 		.4byte	.LFE168
 12584 0a55 0400     		.2byte	0x4
 12585 0a57 F3       		.byte	0xf3
 12586 0a58 01       		.uleb128 0x1
 12587 0a59 51       		.byte	0x51
 12588 0a5a 9F       		.byte	0x9f
 12589 0a5b 00000000 		.4byte	0
 12590 0a5f 00000000 		.4byte	0
 12591              	.LLST85:
 12592 0a63 02000000 		.4byte	.LVL200
 12593 0a67 07000000 		.4byte	.LVL201-1
 12594 0a6b 0100     		.2byte	0x1
 12595 0a6d 50       		.byte	0x50
 12596 0a6e 07000000 		.4byte	.LVL201-1
 12597 0a72 0A000000 		.4byte	.LFE168
 12598 0a76 0400     		.2byte	0x4
 12599 0a78 F3       		.byte	0xf3
 12600 0a79 01       		.uleb128 0x1
 12601 0a7a 50       		.byte	0x50
 12602 0a7b 9F       		.byte	0x9f
 12603 0a7c 00000000 		.4byte	0
 12604 0a80 00000000 		.4byte	0
 12605              	.LLST86:
 12606 0a84 00000000 		.4byte	.LVL202
 12607 0a88 30000000 		.4byte	.LVL209
 12608 0a8c 0100     		.2byte	0x1
 12609 0a8e 50       		.byte	0x50
 12610 0a8f 30000000 		.4byte	.LVL209
 12611 0a93 DC000000 		.4byte	.LVL225
 12612 0a97 0100     		.2byte	0x1
 12613 0a99 56       		.byte	0x56
 12614 0a9a DC000000 		.4byte	.LVL225
 12615 0a9e E8000000 		.4byte	.LFE169
 12616 0aa2 0400     		.2byte	0x4
 12617 0aa4 F3       		.byte	0xf3
 12618 0aa5 01       		.uleb128 0x1
 12619 0aa6 50       		.byte	0x50
 12620 0aa7 9F       		.byte	0x9f
 12621 0aa8 00000000 		.4byte	0
 12622 0aac 00000000 		.4byte	0
 12623              	.LLST87:
ARM GAS  C:\Users\haske\AppData\Local\Temp\ccGWO5DZ.s 			page 250


 12624 0ab0 00000000 		.4byte	.LVL202
 12625 0ab4 0A000000 		.4byte	.LVL203
 12626 0ab8 0100     		.2byte	0x1
 12627 0aba 51       		.byte	0x51
 12628 0abb 0A000000 		.4byte	.LVL203
 12629 0abf 10000000 		.4byte	.LVL204
 12630 0ac3 0100     		.2byte	0x1
 12631 0ac5 54       		.byte	0x54
 12632 0ac6 12000000 		.4byte	.LVL205
 12633 0aca 22000000 		.4byte	.LVL206
 12634 0ace 0100     		.2byte	0x1
 12635 0ad0 54       		.byte	0x54
 12636 0ad1 24000000 		.4byte	.LVL207
 12637 0ad5 8E000000 		.4byte	.LVL218
 12638 0ad9 0100     		.2byte	0x1
 12639 0adb 54       		.byte	0x54
 12640 0adc 00000000 		.4byte	0
 12641 0ae0 00000000 		.4byte	0
 12642              	.LLST88:
 12643 0ae4 28000000 		.4byte	.LVL208
 12644 0ae8 33000000 		.4byte	.LVL210-1
 12645 0aec 0100     		.2byte	0x1
 12646 0aee 50       		.byte	0x50
 12647 0aef 33000000 		.4byte	.LVL210-1
 12648 0af3 DC000000 		.4byte	.LVL225
 12649 0af7 0100     		.2byte	0x1
 12650 0af9 56       		.byte	0x56
 12651 0afa DC000000 		.4byte	.LVL225
 12652 0afe E8000000 		.4byte	.LFE169
 12653 0b02 0400     		.2byte	0x4
 12654 0b04 F3       		.byte	0xf3
 12655 0b05 01       		.uleb128 0x1
 12656 0b06 50       		.byte	0x50
 12657 0b07 9F       		.byte	0x9f
 12658 0b08 00000000 		.4byte	0
 12659 0b0c 00000000 		.4byte	0
 12660              	.LLST89:
 12661 0b10 3C000000 		.4byte	.LVL212
 12662 0b14 DA000000 		.4byte	.LVL224
 12663 0b18 0200     		.2byte	0x2
 12664 0b1a 91       		.byte	0x91
 12665 0b1b 58       		.sleb128 -40
 12666 0b1c 00000000 		.4byte	0
 12667 0b20 00000000 		.4byte	0
 12668              	.LLST90:
 12669 0b24 42000000 		.4byte	.LVL213
 12670 0b28 5A000000 		.4byte	.LVL214
 12671 0b2c 0100     		.2byte	0x1
 12672 0b2e 50       		.byte	0x50
 12673 0b2f 00000000 		.4byte	0
 12674 0b33 00000000 		.4byte	0
 12675              	.LLST91:
 12676 0b37 8E000000 		.4byte	.LVL218
 12677 0b3b 93000000 		.4byte	.LVL219-1
 12678 0b3f 0100     		.2byte	0x1
 12679 0b41 50       		.byte	0x50
 12680 0b42 93000000 		.4byte	.LVL219-1
ARM GAS  C:\Users\haske\AppData\Local\Temp\ccGWO5DZ.s 			page 251


 12681 0b46 B8000000 		.4byte	.LVL223
 12682 0b4a 0100     		.2byte	0x1
 12683 0b4c 54       		.byte	0x54
 12684 0b4d 00000000 		.4byte	0
 12685 0b51 00000000 		.4byte	0
 12686              	.LLST92:
 12687 0b55 00000000 		.4byte	.LVL226
 12688 0b59 20000000 		.4byte	.LVL229
 12689 0b5d 0100     		.2byte	0x1
 12690 0b5f 50       		.byte	0x50
 12691 0b60 20000000 		.4byte	.LVL229
 12692 0b64 D0000000 		.4byte	.LVL244
 12693 0b68 0100     		.2byte	0x1
 12694 0b6a 56       		.byte	0x56
 12695 0b6b D0000000 		.4byte	.LVL244
 12696 0b6f D6000000 		.4byte	.LFE170
 12697 0b73 0400     		.2byte	0x4
 12698 0b75 F3       		.byte	0xf3
 12699 0b76 01       		.uleb128 0x1
 12700 0b77 50       		.byte	0x50
 12701 0b78 9F       		.byte	0x9f
 12702 0b79 00000000 		.4byte	0
 12703 0b7d 00000000 		.4byte	0
 12704              	.LLST93:
 12705 0b81 00000000 		.4byte	.LVL226
 12706 0b85 23000000 		.4byte	.LVL230-1
 12707 0b89 0100     		.2byte	0x1
 12708 0b8b 51       		.byte	0x51
 12709 0b8c 23000000 		.4byte	.LVL230-1
 12710 0b90 D6000000 		.4byte	.LFE170
 12711 0b94 0400     		.2byte	0x4
 12712 0b96 F3       		.byte	0xf3
 12713 0b97 01       		.uleb128 0x1
 12714 0b98 51       		.byte	0x51
 12715 0b99 9F       		.byte	0x9f
 12716 0b9a 00000000 		.4byte	0
 12717 0b9e 00000000 		.4byte	0
 12718              	.LLST94:
 12719 0ba2 00000000 		.4byte	.LVL226
 12720 0ba6 12000000 		.4byte	.LVL228
 12721 0baa 0100     		.2byte	0x1
 12722 0bac 52       		.byte	0x52
 12723 0bad 12000000 		.4byte	.LVL228
 12724 0bb1 D6000000 		.4byte	.LFE170
 12725 0bb5 0400     		.2byte	0x4
 12726 0bb7 F3       		.byte	0xf3
 12727 0bb8 01       		.uleb128 0x1
 12728 0bb9 52       		.byte	0x52
 12729 0bba 9F       		.byte	0x9f
 12730 0bbb 00000000 		.4byte	0
 12731 0bbf 00000000 		.4byte	0
 12732              	.LLST95:
 12733 0bc3 0E000000 		.4byte	.LVL227
 12734 0bc7 20000000 		.4byte	.LVL229
 12735 0bcb 0100     		.2byte	0x1
 12736 0bcd 50       		.byte	0x50
 12737 0bce 20000000 		.4byte	.LVL229
ARM GAS  C:\Users\haske\AppData\Local\Temp\ccGWO5DZ.s 			page 252


 12738 0bd2 D0000000 		.4byte	.LVL244
 12739 0bd6 0100     		.2byte	0x1
 12740 0bd8 56       		.byte	0x56
 12741 0bd9 D0000000 		.4byte	.LVL244
 12742 0bdd D6000000 		.4byte	.LFE170
 12743 0be1 0400     		.2byte	0x4
 12744 0be3 F3       		.byte	0xf3
 12745 0be4 01       		.uleb128 0x1
 12746 0be5 50       		.byte	0x50
 12747 0be6 9F       		.byte	0x9f
 12748 0be7 00000000 		.4byte	0
 12749 0beb 00000000 		.4byte	0
 12750              	.LLST96:
 12751 0bef 2C000000 		.4byte	.LVL232
 12752 0bf3 CE000000 		.4byte	.LVL243
 12753 0bf7 0200     		.2byte	0x2
 12754 0bf9 91       		.byte	0x91
 12755 0bfa 58       		.sleb128 -40
 12756 0bfb 00000000 		.4byte	0
 12757 0bff 00000000 		.4byte	0
 12758              	.LLST97:
 12759 0c03 32000000 		.4byte	.LVL233
 12760 0c07 4A000000 		.4byte	.LVL234
 12761 0c0b 0100     		.2byte	0x1
 12762 0c0d 50       		.byte	0x50
 12763 0c0e 00000000 		.4byte	0
 12764 0c12 00000000 		.4byte	0
 12765              	.LLST98:
 12766 0c16 82000000 		.4byte	.LVL238
 12767 0c1a 87000000 		.4byte	.LVL239-1
 12768 0c1e 0100     		.2byte	0x1
 12769 0c20 50       		.byte	0x50
 12770 0c21 87000000 		.4byte	.LVL239-1
 12771 0c25 CE000000 		.4byte	.LVL243
 12772 0c29 0100     		.2byte	0x1
 12773 0c2b 57       		.byte	0x57
 12774 0c2c 00000000 		.4byte	0
 12775 0c30 00000000 		.4byte	0
 12776              	.LLST99:
 12777 0c34 00000000 		.4byte	.LVL245
 12778 0c38 16000000 		.4byte	.LVL248
 12779 0c3c 0100     		.2byte	0x1
 12780 0c3e 50       		.byte	0x50
 12781 0c3f 16000000 		.4byte	.LVL248
 12782 0c43 D4000000 		.4byte	.LVL263
 12783 0c47 0100     		.2byte	0x1
 12784 0c49 56       		.byte	0x56
 12785 0c4a D4000000 		.4byte	.LVL263
 12786 0c4e D6000000 		.4byte	.LFE171
 12787 0c52 0400     		.2byte	0x4
 12788 0c54 F3       		.byte	0xf3
 12789 0c55 01       		.uleb128 0x1
 12790 0c56 50       		.byte	0x50
 12791 0c57 9F       		.byte	0x9f
 12792 0c58 00000000 		.4byte	0
 12793 0c5c 00000000 		.4byte	0
 12794              	.LLST100:
ARM GAS  C:\Users\haske\AppData\Local\Temp\ccGWO5DZ.s 			page 253


 12795 0c60 00000000 		.4byte	.LVL245
 12796 0c64 14000000 		.4byte	.LVL247
 12797 0c68 0100     		.2byte	0x1
 12798 0c6a 51       		.byte	0x51
 12799 0c6b 14000000 		.4byte	.LVL247
 12800 0c6f 7E000000 		.4byte	.LVL257
 12801 0c73 0100     		.2byte	0x1
 12802 0c75 57       		.byte	0x57
 12803 0c76 00000000 		.4byte	0
 12804 0c7a 00000000 		.4byte	0
 12805              	.LLST101:
 12806 0c7e 08000000 		.4byte	.LVL246
 12807 0c82 16000000 		.4byte	.LVL248
 12808 0c86 0100     		.2byte	0x1
 12809 0c88 50       		.byte	0x50
 12810 0c89 16000000 		.4byte	.LVL248
 12811 0c8d D4000000 		.4byte	.LVL263
 12812 0c91 0100     		.2byte	0x1
 12813 0c93 56       		.byte	0x56
 12814 0c94 D4000000 		.4byte	.LVL263
 12815 0c98 D6000000 		.4byte	.LFE171
 12816 0c9c 0400     		.2byte	0x4
 12817 0c9e F3       		.byte	0xf3
 12818 0c9f 01       		.uleb128 0x1
 12819 0ca0 50       		.byte	0x50
 12820 0ca1 9F       		.byte	0x9f
 12821 0ca2 00000000 		.4byte	0
 12822 0ca6 00000000 		.4byte	0
 12823              	.LLST102:
 12824 0caa 22000000 		.4byte	.LVL251
 12825 0cae D2000000 		.4byte	.LVL262
 12826 0cb2 0200     		.2byte	0x2
 12827 0cb4 91       		.byte	0x91
 12828 0cb5 58       		.sleb128 -40
 12829 0cb6 00000000 		.4byte	0
 12830 0cba 00000000 		.4byte	0
 12831              	.LLST103:
 12832 0cbe 28000000 		.4byte	.LVL252
 12833 0cc2 42000000 		.4byte	.LVL253
 12834 0cc6 0100     		.2byte	0x1
 12835 0cc8 50       		.byte	0x50
 12836 0cc9 00000000 		.4byte	0
 12837 0ccd 00000000 		.4byte	0
 12838              	.LLST104:
 12839 0cd1 7E000000 		.4byte	.LVL257
 12840 0cd5 83000000 		.4byte	.LVL258-1
 12841 0cd9 0100     		.2byte	0x1
 12842 0cdb 50       		.byte	0x50
 12843 0cdc 83000000 		.4byte	.LVL258-1
 12844 0ce0 D2000000 		.4byte	.LVL262
 12845 0ce4 0100     		.2byte	0x1
 12846 0ce6 57       		.byte	0x57
 12847 0ce7 00000000 		.4byte	0
 12848 0ceb 00000000 		.4byte	0
 12849              	.LLST105:
 12850 0cef 00000000 		.4byte	.LVL264
 12851 0cf3 1D000000 		.4byte	.LVL267-1
ARM GAS  C:\Users\haske\AppData\Local\Temp\ccGWO5DZ.s 			page 254


 12852 0cf7 0100     		.2byte	0x1
 12853 0cf9 50       		.byte	0x50
 12854 0cfa 1D000000 		.4byte	.LVL267-1
 12855 0cfe 20000000 		.4byte	.LFE172
 12856 0d02 0400     		.2byte	0x4
 12857 0d04 F3       		.byte	0xf3
 12858 0d05 01       		.uleb128 0x1
 12859 0d06 50       		.byte	0x50
 12860 0d07 9F       		.byte	0x9f
 12861 0d08 00000000 		.4byte	0
 12862 0d0c 00000000 		.4byte	0
 12863              	.LLST106:
 12864 0d10 00000000 		.4byte	.LVL264
 12865 0d14 10000000 		.4byte	.LVL266
 12866 0d18 0100     		.2byte	0x1
 12867 0d1a 51       		.byte	0x51
 12868 0d1b 10000000 		.4byte	.LVL266
 12869 0d1f 20000000 		.4byte	.LFE172
 12870 0d23 0400     		.2byte	0x4
 12871 0d25 F3       		.byte	0xf3
 12872 0d26 01       		.uleb128 0x1
 12873 0d27 51       		.byte	0x51
 12874 0d28 9F       		.byte	0x9f
 12875 0d29 00000000 		.4byte	0
 12876 0d2d 00000000 		.4byte	0
 12877              	.LLST107:
 12878 0d31 02000000 		.4byte	.LVL265
 12879 0d35 1D000000 		.4byte	.LVL267-1
 12880 0d39 0100     		.2byte	0x1
 12881 0d3b 50       		.byte	0x50
 12882 0d3c 1D000000 		.4byte	.LVL267-1
 12883 0d40 20000000 		.4byte	.LFE172
 12884 0d44 0400     		.2byte	0x4
 12885 0d46 F3       		.byte	0xf3
 12886 0d47 01       		.uleb128 0x1
 12887 0d48 50       		.byte	0x50
 12888 0d49 9F       		.byte	0x9f
 12889 0d4a 00000000 		.4byte	0
 12890 0d4e 00000000 		.4byte	0
 12891              	.LLST108:
 12892 0d52 00000000 		.4byte	.LVL268
 12893 0d56 23000000 		.4byte	.LVL271-1
 12894 0d5a 0100     		.2byte	0x1
 12895 0d5c 50       		.byte	0x50
 12896 0d5d 23000000 		.4byte	.LVL271-1
 12897 0d61 26000000 		.4byte	.LFE173
 12898 0d65 0400     		.2byte	0x4
 12899 0d67 F3       		.byte	0xf3
 12900 0d68 01       		.uleb128 0x1
 12901 0d69 50       		.byte	0x50
 12902 0d6a 9F       		.byte	0x9f
 12903 0d6b 00000000 		.4byte	0
 12904 0d6f 00000000 		.4byte	0
 12905              	.LLST109:
 12906 0d73 00000000 		.4byte	.LVL268
 12907 0d77 16000000 		.4byte	.LVL270
 12908 0d7b 0100     		.2byte	0x1
ARM GAS  C:\Users\haske\AppData\Local\Temp\ccGWO5DZ.s 			page 255


 12909 0d7d 51       		.byte	0x51
 12910 0d7e 16000000 		.4byte	.LVL270
 12911 0d82 26000000 		.4byte	.LFE173
 12912 0d86 0400     		.2byte	0x4
 12913 0d88 F3       		.byte	0xf3
 12914 0d89 01       		.uleb128 0x1
 12915 0d8a 51       		.byte	0x51
 12916 0d8b 9F       		.byte	0x9f
 12917 0d8c 00000000 		.4byte	0
 12918 0d90 00000000 		.4byte	0
 12919              	.LLST110:
 12920 0d94 02000000 		.4byte	.LVL269
 12921 0d98 23000000 		.4byte	.LVL271-1
 12922 0d9c 0100     		.2byte	0x1
 12923 0d9e 50       		.byte	0x50
 12924 0d9f 23000000 		.4byte	.LVL271-1
 12925 0da3 26000000 		.4byte	.LFE173
 12926 0da7 0400     		.2byte	0x4
 12927 0da9 F3       		.byte	0xf3
 12928 0daa 01       		.uleb128 0x1
 12929 0dab 50       		.byte	0x50
 12930 0dac 9F       		.byte	0x9f
 12931 0dad 00000000 		.4byte	0
 12932 0db1 00000000 		.4byte	0
 12933              	.LLST111:
 12934 0db5 00000000 		.4byte	.LVL272
 12935 0db9 02000000 		.4byte	.LVL273
 12936 0dbd 0100     		.2byte	0x1
 12937 0dbf 50       		.byte	0x50
 12938 0dc0 02000000 		.4byte	.LVL273
 12939 0dc4 04000000 		.4byte	.LFE174
 12940 0dc8 0400     		.2byte	0x4
 12941 0dca F3       		.byte	0xf3
 12942 0dcb 01       		.uleb128 0x1
 12943 0dcc 50       		.byte	0x50
 12944 0dcd 9F       		.byte	0x9f
 12945 0dce 00000000 		.4byte	0
 12946 0dd2 00000000 		.4byte	0
 12947              	.LLST112:
 12948 0dd6 00000000 		.4byte	.LVL272
 12949 0dda 02000000 		.4byte	.LVL273
 12950 0dde 0100     		.2byte	0x1
 12951 0de0 50       		.byte	0x50
 12952 0de1 02000000 		.4byte	.LVL273
 12953 0de5 04000000 		.4byte	.LFE174
 12954 0de9 0400     		.2byte	0x4
 12955 0deb F3       		.byte	0xf3
 12956 0dec 01       		.uleb128 0x1
 12957 0ded 50       		.byte	0x50
 12958 0dee 9F       		.byte	0x9f
 12959 0def 00000000 		.4byte	0
 12960 0df3 00000000 		.4byte	0
 12961              	.LLST113:
 12962 0df7 00000000 		.4byte	.LVL274
 12963 0dfb 04000000 		.4byte	.LVL275
 12964 0dff 0100     		.2byte	0x1
 12965 0e01 50       		.byte	0x50
ARM GAS  C:\Users\haske\AppData\Local\Temp\ccGWO5DZ.s 			page 256


 12966 0e02 04000000 		.4byte	.LVL275
 12967 0e06 06000000 		.4byte	.LFE175
 12968 0e0a 0400     		.2byte	0x4
 12969 0e0c F3       		.byte	0xf3
 12970 0e0d 01       		.uleb128 0x1
 12971 0e0e 50       		.byte	0x50
 12972 0e0f 9F       		.byte	0x9f
 12973 0e10 00000000 		.4byte	0
 12974 0e14 00000000 		.4byte	0
 12975              	.LLST114:
 12976 0e18 00000000 		.4byte	.LVL274
 12977 0e1c 04000000 		.4byte	.LVL275
 12978 0e20 0100     		.2byte	0x1
 12979 0e22 50       		.byte	0x50
 12980 0e23 04000000 		.4byte	.LVL275
 12981 0e27 06000000 		.4byte	.LFE175
 12982 0e2b 0400     		.2byte	0x4
 12983 0e2d F3       		.byte	0xf3
 12984 0e2e 01       		.uleb128 0x1
 12985 0e2f 50       		.byte	0x50
 12986 0e30 9F       		.byte	0x9f
 12987 0e31 00000000 		.4byte	0
 12988 0e35 00000000 		.4byte	0
 12989              	.LLST115:
 12990 0e39 00000000 		.4byte	.LVL276
 12991 0e3d 04000000 		.4byte	.LVL277
 12992 0e41 0100     		.2byte	0x1
 12993 0e43 50       		.byte	0x50
 12994 0e44 04000000 		.4byte	.LVL277
 12995 0e48 06000000 		.4byte	.LFE176
 12996 0e4c 0400     		.2byte	0x4
 12997 0e4e F3       		.byte	0xf3
 12998 0e4f 01       		.uleb128 0x1
 12999 0e50 50       		.byte	0x50
 13000 0e51 9F       		.byte	0x9f
 13001 0e52 00000000 		.4byte	0
 13002 0e56 00000000 		.4byte	0
 13003              	.LLST116:
 13004 0e5a 00000000 		.4byte	.LVL276
 13005 0e5e 04000000 		.4byte	.LVL277
 13006 0e62 0100     		.2byte	0x1
 13007 0e64 50       		.byte	0x50
 13008 0e65 04000000 		.4byte	.LVL277
 13009 0e69 06000000 		.4byte	.LFE176
 13010 0e6d 0400     		.2byte	0x4
 13011 0e6f F3       		.byte	0xf3
 13012 0e70 01       		.uleb128 0x1
 13013 0e71 50       		.byte	0x50
 13014 0e72 9F       		.byte	0x9f
 13015 0e73 00000000 		.4byte	0
 13016 0e77 00000000 		.4byte	0
 13017              	.LLST117:
 13018 0e7b 00000000 		.4byte	.LVL278
 13019 0e7f 02000000 		.4byte	.LVL279
 13020 0e83 0100     		.2byte	0x1
 13021 0e85 50       		.byte	0x50
 13022 0e86 02000000 		.4byte	.LVL279
ARM GAS  C:\Users\haske\AppData\Local\Temp\ccGWO5DZ.s 			page 257


 13023 0e8a 04000000 		.4byte	.LFE177
 13024 0e8e 0400     		.2byte	0x4
 13025 0e90 F3       		.byte	0xf3
 13026 0e91 01       		.uleb128 0x1
 13027 0e92 50       		.byte	0x50
 13028 0e93 9F       		.byte	0x9f
 13029 0e94 00000000 		.4byte	0
 13030 0e98 00000000 		.4byte	0
 13031              	.LLST118:
 13032 0e9c 00000000 		.4byte	.LVL278
 13033 0ea0 02000000 		.4byte	.LVL279
 13034 0ea4 0100     		.2byte	0x1
 13035 0ea6 50       		.byte	0x50
 13036 0ea7 02000000 		.4byte	.LVL279
 13037 0eab 04000000 		.4byte	.LFE177
 13038 0eaf 0400     		.2byte	0x4
 13039 0eb1 F3       		.byte	0xf3
 13040 0eb2 01       		.uleb128 0x1
 13041 0eb3 50       		.byte	0x50
 13042 0eb4 9F       		.byte	0x9f
 13043 0eb5 00000000 		.4byte	0
 13044 0eb9 00000000 		.4byte	0
 13045              	.LLST119:
 13046 0ebd 00000000 		.4byte	.LVL280
 13047 0ec1 0C000000 		.4byte	.LVL283
 13048 0ec5 0100     		.2byte	0x1
 13049 0ec7 50       		.byte	0x50
 13050 0ec8 0C000000 		.4byte	.LVL283
 13051 0ecc 0F000000 		.4byte	.LVL284-1
 13052 0ed0 0300     		.2byte	0x3
 13053 0ed2 71       		.byte	0x71
 13054 0ed3 4E       		.sleb128 -50
 13055 0ed4 9F       		.byte	0x9f
 13056 0ed5 0F000000 		.4byte	.LVL284-1
 13057 0ed9 12000000 		.4byte	.LFE178
 13058 0edd 0400     		.2byte	0x4
 13059 0edf F3       		.byte	0xf3
 13060 0ee0 01       		.uleb128 0x1
 13061 0ee1 50       		.byte	0x50
 13062 0ee2 9F       		.byte	0x9f
 13063 0ee3 00000000 		.4byte	0
 13064 0ee7 00000000 		.4byte	0
 13065              	.LLST120:
 13066 0eeb 00000000 		.4byte	.LVL280
 13067 0eef 06000000 		.4byte	.LVL282
 13068 0ef3 0100     		.2byte	0x1
 13069 0ef5 51       		.byte	0x51
 13070 0ef6 06000000 		.4byte	.LVL282
 13071 0efa 0F000000 		.4byte	.LVL284-1
 13072 0efe 0100     		.2byte	0x1
 13073 0f00 53       		.byte	0x53
 13074 0f01 0F000000 		.4byte	.LVL284-1
 13075 0f05 12000000 		.4byte	.LFE178
 13076 0f09 0400     		.2byte	0x4
 13077 0f0b F3       		.byte	0xf3
 13078 0f0c 01       		.uleb128 0x1
 13079 0f0d 51       		.byte	0x51
ARM GAS  C:\Users\haske\AppData\Local\Temp\ccGWO5DZ.s 			page 258


 13080 0f0e 9F       		.byte	0x9f
 13081 0f0f 00000000 		.4byte	0
 13082 0f13 00000000 		.4byte	0
 13083              	.LLST121:
 13084 0f17 04000000 		.4byte	.LVL281
 13085 0f1b 0C000000 		.4byte	.LVL283
 13086 0f1f 0100     		.2byte	0x1
 13087 0f21 50       		.byte	0x50
 13088 0f22 0C000000 		.4byte	.LVL283
 13089 0f26 0F000000 		.4byte	.LVL284-1
 13090 0f2a 0300     		.2byte	0x3
 13091 0f2c 71       		.byte	0x71
 13092 0f2d 4E       		.sleb128 -50
 13093 0f2e 9F       		.byte	0x9f
 13094 0f2f 0F000000 		.4byte	.LVL284-1
 13095 0f33 12000000 		.4byte	.LFE178
 13096 0f37 0400     		.2byte	0x4
 13097 0f39 F3       		.byte	0xf3
 13098 0f3a 01       		.uleb128 0x1
 13099 0f3b 50       		.byte	0x50
 13100 0f3c 9F       		.byte	0x9f
 13101 0f3d 00000000 		.4byte	0
 13102 0f41 00000000 		.4byte	0
 13103              	.LLST122:
 13104 0f45 00000000 		.4byte	.LVL285
 13105 0f49 02000000 		.4byte	.LVL286
 13106 0f4d 0100     		.2byte	0x1
 13107 0f4f 50       		.byte	0x50
 13108 0f50 02000000 		.4byte	.LVL286
 13109 0f54 04000000 		.4byte	.LFE179
 13110 0f58 0400     		.2byte	0x4
 13111 0f5a F3       		.byte	0xf3
 13112 0f5b 01       		.uleb128 0x1
 13113 0f5c 50       		.byte	0x50
 13114 0f5d 9F       		.byte	0x9f
 13115 0f5e 00000000 		.4byte	0
 13116 0f62 00000000 		.4byte	0
 13117              	.LLST123:
 13118 0f66 00000000 		.4byte	.LVL285
 13119 0f6a 02000000 		.4byte	.LVL286
 13120 0f6e 0100     		.2byte	0x1
 13121 0f70 50       		.byte	0x50
 13122 0f71 02000000 		.4byte	.LVL286
 13123 0f75 04000000 		.4byte	.LFE179
 13124 0f79 0400     		.2byte	0x4
 13125 0f7b F3       		.byte	0xf3
 13126 0f7c 01       		.uleb128 0x1
 13127 0f7d 50       		.byte	0x50
 13128 0f7e 9F       		.byte	0x9f
 13129 0f7f 00000000 		.4byte	0
 13130 0f83 00000000 		.4byte	0
 13131              	.LLST124:
 13132 0f87 00000000 		.4byte	.LVL287
 13133 0f8b 04000000 		.4byte	.LVL288
 13134 0f8f 0100     		.2byte	0x1
 13135 0f91 50       		.byte	0x50
 13136 0f92 04000000 		.4byte	.LVL288
ARM GAS  C:\Users\haske\AppData\Local\Temp\ccGWO5DZ.s 			page 259


 13137 0f96 10000000 		.4byte	.LFE180
 13138 0f9a 0400     		.2byte	0x4
 13139 0f9c F3       		.byte	0xf3
 13140 0f9d 01       		.uleb128 0x1
 13141 0f9e 50       		.byte	0x50
 13142 0f9f 9F       		.byte	0x9f
 13143 0fa0 00000000 		.4byte	0
 13144 0fa4 00000000 		.4byte	0
 13145              	.LLST125:
 13146 0fa8 00000000 		.4byte	.LVL287
 13147 0fac 04000000 		.4byte	.LVL288
 13148 0fb0 0100     		.2byte	0x1
 13149 0fb2 50       		.byte	0x50
 13150 0fb3 04000000 		.4byte	.LVL288
 13151 0fb7 10000000 		.4byte	.LFE180
 13152 0fbb 0400     		.2byte	0x4
 13153 0fbd F3       		.byte	0xf3
 13154 0fbe 01       		.uleb128 0x1
 13155 0fbf 50       		.byte	0x50
 13156 0fc0 9F       		.byte	0x9f
 13157 0fc1 00000000 		.4byte	0
 13158 0fc5 00000000 		.4byte	0
 13159              	.LLST126:
 13160 0fc9 00000000 		.4byte	.LVL289
 13161 0fcd 04000000 		.4byte	.LVL290
 13162 0fd1 0100     		.2byte	0x1
 13163 0fd3 50       		.byte	0x50
 13164 0fd4 04000000 		.4byte	.LVL290
 13165 0fd8 0A000000 		.4byte	.LFE181
 13166 0fdc 0400     		.2byte	0x4
 13167 0fde F3       		.byte	0xf3
 13168 0fdf 01       		.uleb128 0x1
 13169 0fe0 50       		.byte	0x50
 13170 0fe1 9F       		.byte	0x9f
 13171 0fe2 00000000 		.4byte	0
 13172 0fe6 00000000 		.4byte	0
 13173              	.LLST127:
 13174 0fea 00000000 		.4byte	.LVL289
 13175 0fee 04000000 		.4byte	.LVL290
 13176 0ff2 0100     		.2byte	0x1
 13177 0ff4 50       		.byte	0x50
 13178 0ff5 04000000 		.4byte	.LVL290
 13179 0ff9 0A000000 		.4byte	.LFE181
 13180 0ffd 0400     		.2byte	0x4
 13181 0fff F3       		.byte	0xf3
 13182 1000 01       		.uleb128 0x1
 13183 1001 50       		.byte	0x50
 13184 1002 9F       		.byte	0x9f
 13185 1003 00000000 		.4byte	0
 13186 1007 00000000 		.4byte	0
 13187              		.section	.debug_aranges,"",%progbits
 13188 0000 C4000000 		.4byte	0xc4
 13189 0004 0200     		.2byte	0x2
 13190 0006 00000000 		.4byte	.Ldebug_info0
 13191 000a 04       		.byte	0x4
 13192 000b 00       		.byte	0
 13193 000c 0000     		.2byte	0
ARM GAS  C:\Users\haske\AppData\Local\Temp\ccGWO5DZ.s 			page 260


 13194 000e 0000     		.2byte	0
 13195 0010 00000000 		.4byte	.LFB184
 13196 0014 46000000 		.4byte	.LFE184-.LFB184
 13197 0018 00000000 		.4byte	.LFB186
 13198 001c 78040000 		.4byte	.LFE186-.LFB186
 13199 0020 00000000 		.4byte	.LFB183
 13200 0024 2A000000 		.4byte	.LFE183-.LFB183
 13201 0028 00000000 		.4byte	.LFB182
 13202 002c 62000000 		.4byte	.LFE182-.LFB182
 13203 0030 00000000 		.4byte	.LFB165
 13204 0034 18000000 		.4byte	.LFE165-.LFB165
 13205 0038 00000000 		.4byte	.LFB166
 13206 003c A0010000 		.4byte	.LFE166-.LFB166
 13207 0040 00000000 		.4byte	.LFB185
 13208 0044 F4010000 		.4byte	.LFE185-.LFB185
 13209 0048 00000000 		.4byte	.LFB167
 13210 004c 0A000000 		.4byte	.LFE167-.LFB167
 13211 0050 00000000 		.4byte	.LFB168
 13212 0054 0A000000 		.4byte	.LFE168-.LFB168
 13213 0058 00000000 		.4byte	.LFB169
 13214 005c E8000000 		.4byte	.LFE169-.LFB169
 13215 0060 00000000 		.4byte	.LFB170
 13216 0064 D6000000 		.4byte	.LFE170-.LFB170
 13217 0068 00000000 		.4byte	.LFB171
 13218 006c D6000000 		.4byte	.LFE171-.LFB171
 13219 0070 00000000 		.4byte	.LFB172
 13220 0074 20000000 		.4byte	.LFE172-.LFB172
 13221 0078 00000000 		.4byte	.LFB173
 13222 007c 26000000 		.4byte	.LFE173-.LFB173
 13223 0080 00000000 		.4byte	.LFB174
 13224 0084 04000000 		.4byte	.LFE174-.LFB174
 13225 0088 00000000 		.4byte	.LFB175
 13226 008c 06000000 		.4byte	.LFE175-.LFB175
 13227 0090 00000000 		.4byte	.LFB176
 13228 0094 06000000 		.4byte	.LFE176-.LFB176
 13229 0098 00000000 		.4byte	.LFB177
 13230 009c 04000000 		.4byte	.LFE177-.LFB177
 13231 00a0 00000000 		.4byte	.LFB178
 13232 00a4 12000000 		.4byte	.LFE178-.LFB178
 13233 00a8 00000000 		.4byte	.LFB179
 13234 00ac 04000000 		.4byte	.LFE179-.LFB179
 13235 00b0 00000000 		.4byte	.LFB180
 13236 00b4 10000000 		.4byte	.LFE180-.LFB180
 13237 00b8 00000000 		.4byte	.LFB181
 13238 00bc 0A000000 		.4byte	.LFE181-.LFB181
 13239 00c0 00000000 		.4byte	0
 13240 00c4 00000000 		.4byte	0
 13241              		.section	.debug_ranges,"",%progbits
 13242              	.Ldebug_ranges0:
 13243 0000 00000000 		.4byte	.LFB184
 13244 0004 46000000 		.4byte	.LFE184
 13245 0008 00000000 		.4byte	.LFB186
 13246 000c 78040000 		.4byte	.LFE186
 13247 0010 00000000 		.4byte	.LFB183
 13248 0014 2A000000 		.4byte	.LFE183
 13249 0018 00000000 		.4byte	.LFB182
 13250 001c 62000000 		.4byte	.LFE182
ARM GAS  C:\Users\haske\AppData\Local\Temp\ccGWO5DZ.s 			page 261


 13251 0020 00000000 		.4byte	.LFB165
 13252 0024 18000000 		.4byte	.LFE165
 13253 0028 00000000 		.4byte	.LFB166
 13254 002c A0010000 		.4byte	.LFE166
 13255 0030 00000000 		.4byte	.LFB185
 13256 0034 F4010000 		.4byte	.LFE185
 13257 0038 00000000 		.4byte	.LFB167
 13258 003c 0A000000 		.4byte	.LFE167
 13259 0040 00000000 		.4byte	.LFB168
 13260 0044 0A000000 		.4byte	.LFE168
 13261 0048 00000000 		.4byte	.LFB169
 13262 004c E8000000 		.4byte	.LFE169
 13263 0050 00000000 		.4byte	.LFB170
 13264 0054 D6000000 		.4byte	.LFE170
 13265 0058 00000000 		.4byte	.LFB171
 13266 005c D6000000 		.4byte	.LFE171
 13267 0060 00000000 		.4byte	.LFB172
 13268 0064 20000000 		.4byte	.LFE172
 13269 0068 00000000 		.4byte	.LFB173
 13270 006c 26000000 		.4byte	.LFE173
 13271 0070 00000000 		.4byte	.LFB174
 13272 0074 04000000 		.4byte	.LFE174
 13273 0078 00000000 		.4byte	.LFB175
 13274 007c 06000000 		.4byte	.LFE175
 13275 0080 00000000 		.4byte	.LFB176
 13276 0084 06000000 		.4byte	.LFE176
 13277 0088 00000000 		.4byte	.LFB177
 13278 008c 04000000 		.4byte	.LFE177
 13279 0090 00000000 		.4byte	.LFB178
 13280 0094 12000000 		.4byte	.LFE178
 13281 0098 00000000 		.4byte	.LFB179
 13282 009c 04000000 		.4byte	.LFE179
 13283 00a0 00000000 		.4byte	.LFB180
 13284 00a4 10000000 		.4byte	.LFE180
 13285 00a8 00000000 		.4byte	.LFB181
 13286 00ac 0A000000 		.4byte	.LFE181
 13287 00b0 00000000 		.4byte	0
 13288 00b4 00000000 		.4byte	0
 13289              		.section	.debug_line,"",%progbits
 13290              	.Ldebug_line0:
 13291 0000 E8090000 		.section	.debug_str,"MS",%progbits,1
 13291      02000206 
 13291      00000201 
 13291      FB0E0D00 
 13291      01010101 
 13292              	.LASF481:
 13293 0000 4C565F43 		.ascii	"LV_COVER_RES_NOT_COVER\000"
 13293      4F564552 
 13293      5F524553 
 13293      5F4E4F54 
 13293      5F434F56 
 13294              	.LASF188:
 13295 0017 70726F70 		.ascii	"prop_cnt\000"
 13295      5F636E74 
 13295      00
 13296              	.LASF15:
 13297 0020 696E7438 		.ascii	"int8_t\000"
ARM GAS  C:\Users\haske\AppData\Local\Temp\ccGWO5DZ.s 			page 262


 13297      5F7400
 13298              	.LASF159:
 13299 0027 4C565F53 		.ascii	"LV_STYLE_OPA\000"
 13299      54594C45 
 13299      5F4F5041 
 13299      00
 13300              	.LASF389:
 13301 0034 636F6C6F 		.ascii	"color_chroma_key\000"
 13301      725F6368 
 13301      726F6D61 
 13301      5F6B6579 
 13301      00
 13302              	.LASF344:
 13303 0045 6C765F6C 		.ascii	"lv_ll_node_t\000"
 13303      6C5F6E6F 
 13303      64655F74 
 13303      00
 13304              	.LASF366:
 13305 0052 6C765F64 		.ascii	"lv_disp_draw_buf_t\000"
 13305      6973705F 
 13305      64726177 
 13305      5F627566 
 13305      5F7400
 13306              	.LASF21:
 13307 0065 73697A65 		.ascii	"size_t\000"
 13307      5F7400
 13308              	.LASF28:
 13309 006c 6164765F 		.ascii	"adv_w\000"
 13309      7700
 13310              	.LASF49:
 13311 0072 73697A65 		.ascii	"sizetype\000"
 13311      74797065 
 13311      00
 13312              	.LASF422:
 13313 007b 6C765F64 		.ascii	"lv_disp_t\000"
 13313      6973705F 
 13313      7400
 13314              	.LASF524:
 13315 0085 4C565F45 		.ascii	"LV_EVENT_DRAW_MAIN_BEGIN\000"
 13315      56454E54 
 13315      5F445241 
 13315      575F4D41 
 13315      494E5F42 
 13316              	.LASF605:
 13317 009e 62675F70 		.ascii	"bg_pivot\000"
 13317      69766F74 
 13317      00
 13318              	.LASF143:
 13319 00a7 4C565F53 		.ascii	"LV_STYLE_LINE_DASH_GAP\000"
 13319      54594C45 
 13319      5F4C494E 
 13319      455F4441 
 13319      53485F47 
 13320              	.LASF347:
 13321 00be 7461696C 		.ascii	"tail\000"
 13321      00
 13322              	.LASF632:
ARM GAS  C:\Users\haske\AppData\Local\Temp\ccGWO5DZ.s 			page 263


 13323 00c3 6C765F69 		.ascii	"lv_img_get_offset_x\000"
 13323      6D675F67 
 13323      65745F6F 
 13323      66667365 
 13323      745F7800 
 13324              	.LASF399:
 13325 00d7 6163745F 		.ascii	"act_scr\000"
 13325      73637200 
 13326              	.LASF404:
 13327 00df 73637265 		.ascii	"screen_cnt\000"
 13327      656E5F63 
 13327      6E7400
 13328              	.LASF335:
 13329 00ea 64726177 		.ascii	"draw_bg\000"
 13329      5F626700 
 13330              	.LASF660:
 13331 00f2 6C765F6D 		.ascii	"lv_mem_free\000"
 13331      656D5F66 
 13331      72656500 
 13332              	.LASF636:
 13333 00fe 6C765F69 		.ascii	"lv_img_get_zoom\000"
 13333      6D675F67 
 13333      65745F7A 
 13333      6F6F6D00 
 13334              	.LASF69:
 13335 010e 6C765F6F 		.ascii	"lv_opa_t\000"
 13335      70615F74 
 13335      00
 13336              	.LASF150:
 13337 0117 4C565F53 		.ascii	"LV_STYLE_ARC_OPA\000"
 13337      54594C45 
 13337      5F415243 
 13337      5F4F5041 
 13337      00
 13338              	.LASF304:
 13339 0128 7261775F 		.ascii	"raw_end\000"
 13339      656E6400 
 13340              	.LASF19:
 13341 0130 696E7433 		.ascii	"int32_t\000"
 13341      325F7400 
 13342              	.LASF201:
 13343 0138 4C565F49 		.ascii	"LV_IMG_CF_ALPHA_1BIT\000"
 13343      4D475F43 
 13343      465F414C 
 13343      5048415F 
 13343      31424954 
 13344              	.LASF473:
 13345 014d 6C765F73 		.ascii	"lv_scrollbar_mode_t\000"
 13345      63726F6C 
 13345      6C626172 
 13345      5F6D6F64 
 13345      655F7400 
 13346              	.LASF679:
 13347 0161 6C765F64 		.ascii	"lv_disp_enable_invalidation\000"
 13347      6973705F 
 13347      656E6162 
 13347      6C655F69 
ARM GAS  C:\Users\haske\AppData\Local\Temp\ccGWO5DZ.s 			page 264


 13347      6E76616C 
 13348              	.LASF234:
 13349 017d 4C565F49 		.ascii	"LV_IMG_SRC_SYMBOL\000"
 13349      4D475F53 
 13349      52435F53 
 13349      594D424F 
 13349      4C00
 13350              	.LASF187:
 13351 018f 6861735F 		.ascii	"has_group\000"
 13351      67726F75 
 13351      7000
 13352              	.LASF533:
 13353 0199 4C565F45 		.ascii	"LV_EVENT_INSERT\000"
 13353      56454E54 
 13353      5F494E53 
 13353      45525400 
 13354              	.LASF428:
 13355 01a9 66726F7A 		.ascii	"frozen\000"
 13355      656E00
 13356              	.LASF417:
 13357 01b0 636F6C6F 		.ascii	"color_primary\000"
 13357      725F7072 
 13357      696D6172 
 13357      7900
 13358              	.LASF24:
 13359 01be 6C765F70 		.ascii	"lv_point_t\000"
 13359      6F696E74 
 13359      5F7400
 13360              	.LASF480:
 13361 01c9 4C565F43 		.ascii	"LV_COVER_RES_COVER\000"
 13361      4F564552 
 13361      5F524553 
 13361      5F434F56 
 13361      455200
 13362              	.LASF231:
 13363 01dc 6C765F69 		.ascii	"lv_img_header_t\000"
 13363      6D675F68 
 13363      65616465 
 13363      725F7400 
 13364              	.LASF252:
 13365 01ec 72616469 		.ascii	"radius\000"
 13365      757300
 13366              	.LASF255:
 13367 01f3 62675F63 		.ascii	"bg_color\000"
 13367      6F6C6F72 
 13367      00
 13368              	.LASF617:
 13369 01fc 68656164 		.ascii	"header\000"
 13369      657200
 13370              	.LASF36:
 13371 0203 6C696E65 		.ascii	"line_height\000"
 13371      5F686569 
 13371      67687400 
 13372              	.LASF77:
 13373 020f 6C765F62 		.ascii	"lv_blend_mode_t\000"
 13373      6C656E64 
 13373      5F6D6F64 
ARM GAS  C:\Users\haske\AppData\Local\Temp\ccGWO5DZ.s 			page 265


 13373      655F7400 
 13374              	.LASF286:
 13375 021f 62696469 		.ascii	"bidi_dir\000"
 13375      5F646972 
 13375      00
 13376              	.LASF393:
 13377 0228 64726177 		.ascii	"draw_ctx_size\000"
 13377      5F637478 
 13377      5F73697A 
 13377      6500
 13378              	.LASF554:
 13379 0236 6C765F68 		.ascii	"lv_hit_test_info_t\000"
 13379      69745F74 
 13379      6573745F 
 13379      696E666F 
 13379      5F7400
 13380              	.LASF241:
 13381 0249 73706563 		.ascii	"spec_attr\000"
 13381      5F617474 
 13381      7200
 13382              	.LASF568:
 13383 0253 7363726F 		.ascii	"scroll_snap_x\000"
 13383      6C6C5F73 
 13383      6E61705F 
 13383      7800
 13384              	.LASF569:
 13385 0261 7363726F 		.ascii	"scroll_snap_y\000"
 13385      6C6C5F73 
 13385      6E61705F 
 13385      7900
 13386              	.LASF208:
 13387 026f 4C565F49 		.ascii	"LV_IMG_CF_RGB565\000"
 13387      4D475F43 
 13387      465F5247 
 13387      42353635 
 13387      00
 13388              	.LASF312:
 13389 0280 4C565F44 		.ascii	"LV_DRAW_LAYER_FLAG_HAS_ALPHA\000"
 13389      5241575F 
 13389      4C415945 
 13389      525F464C 
 13389      41475F48 
 13390              	.LASF552:
 13391 029d 6C765F65 		.ascii	"lv_event_t\000"
 13391      76656E74 
 13391      5F7400
 13392              	.LASF538:
 13393 02a8 4C565F45 		.ascii	"LV_EVENT_CHILD_CHANGED\000"
 13393      56454E54 
 13393      5F434849 
 13393      4C445F43 
 13393      48414E47 
 13394              	.LASF245:
 13395 02bf 73746174 		.ascii	"state\000"
 13395      6500
 13396              	.LASF94:
 13397 02c5 4C565F53 		.ascii	"LV_STYLE_HEIGHT\000"
ARM GAS  C:\Users\haske\AppData\Local\Temp\ccGWO5DZ.s 			page 266


 13397      54594C45 
 13397      5F484549 
 13397      47485400 
 13398              	.LASF418:
 13399 02d5 636F6C6F 		.ascii	"color_secondary\000"
 13399      725F7365 
 13399      636F6E64 
 13399      61727900 
 13400              	.LASF354:
 13401 02e5 72657065 		.ascii	"repeat_count\000"
 13401      61745F63 
 13401      6F756E74 
 13401      00
 13402              	.LASF197:
 13403 02f2 4C565F49 		.ascii	"LV_IMG_CF_INDEXED_1BIT\000"
 13403      4D475F43 
 13403      465F494E 
 13403      44455845 
 13403      445F3142 
 13404              	.LASF477:
 13405 0309 69735F6C 		.ascii	"is_local\000"
 13405      6F63616C 
 13405      00
 13406              	.LASF327:
 13407 0312 64726177 		.ascii	"draw_rect\000"
 13407      5F726563 
 13407      7400
 13408              	.LASF350:
 13409 031c 5F6C765F 		.ascii	"_lv_timer_t\000"
 13409      74696D65 
 13409      725F7400 
 13410              	.LASF46:
 13411 0328 4C565F52 		.ascii	"LV_RES_INV\000"
 13411      45535F49 
 13411      4E5600
 13412              	.LASF326:
 13413 0333 696E6974 		.ascii	"init_buf\000"
 13413      5F627566 
 13413      00
 13414              	.LASF486:
 13415 033c 636F6E73 		.ascii	"constructor_cb\000"
 13415      74727563 
 13415      746F725F 
 13415      636200
 13416              	.LASF309:
 13417 034b 726F756E 		.ascii	"rounded\000"
 13417      64656400 
 13418              	.LASF175:
 13419 0353 5F4C565F 		.ascii	"_LV_STYLE_LAST_BUILT_IN_PROP\000"
 13419      5354594C 
 13419      455F4C41 
 13419      53545F42 
 13419      55494C54 
 13420              	.LASF325:
 13421 0370 5F6C765F 		.ascii	"_lv_draw_ctx_t\000"
 13421      64726177 
 13421      5F637478 
ARM GAS  C:\Users\haske\AppData\Local\Temp\ccGWO5DZ.s 			page 267


 13421      5F7400
 13422              	.LASF516:
 13423 037f 4C565F45 		.ascii	"LV_EVENT_GESTURE\000"
 13423      56454E54 
 13423      5F474553 
 13423      54555245 
 13423      00
 13424              	.LASF509:
 13425 0390 4C565F45 		.ascii	"LV_EVENT_LONG_PRESSED\000"
 13425      56454E54 
 13425      5F4C4F4E 
 13425      475F5052 
 13425      45535345 
 13426              	.LASF257:
 13427 03a6 62675F69 		.ascii	"bg_img_src\000"
 13427      6D675F73 
 13427      726300
 13428              	.LASF125:
 13429 03b1 4C565F53 		.ascii	"LV_STYLE_BORDER_WIDTH\000"
 13429      54594C45 
 13429      5F424F52 
 13429      4445525F 
 13429      57494454 
 13430              	.LASF627:
 13431 03c7 6C765F69 		.ascii	"lv_img_set_antialias\000"
 13431      6D675F73 
 13431      65745F61 
 13431      6E746961 
 13431      6C696173 
 13432              	.LASF539:
 13433 03dc 4C565F45 		.ascii	"LV_EVENT_CHILD_CREATED\000"
 13433      56454E54 
 13433      5F434849 
 13433      4C445F43 
 13433      52454154 
 13434              	.LASF107:
 13435 03f3 4C565F53 		.ascii	"LV_STYLE_PAD_COLUMN\000"
 13435      54594C45 
 13435      5F504144 
 13435      5F434F4C 
 13435      554D4E00 
 13436              	.LASF437:
 13437 0407 4C565F50 		.ascii	"LV_PART_SELECTED\000"
 13437      4152545F 
 13437      53454C45 
 13437      43544544 
 13437      00
 13438              	.LASF553:
 13439 0418 706F696E 		.ascii	"point\000"
 13439      7400
 13440              	.LASF508:
 13441 041e 4C565F45 		.ascii	"LV_EVENT_SHORT_CLICKED\000"
 13441      56454E54 
 13441      5F53484F 
 13441      52545F43 
 13441      4C49434B 
 13442              	.LASF70:
ARM GAS  C:\Users\haske\AppData\Local\Temp\ccGWO5DZ.s 			page 268


 13443 0435 4C565F54 		.ascii	"LV_TEXT_FLAG_NONE\000"
 13443      4558545F 
 13443      464C4147 
 13443      5F4E4F4E 
 13443      4500
 13444              	.LASF258:
 13445 0447 62675F69 		.ascii	"bg_img_symbol_font\000"
 13445      6D675F73 
 13445      796D626F 
 13445      6C5F666F 
 13445      6E7400
 13446              	.LASF267:
 13447 045a 626F7264 		.ascii	"border_side\000"
 13447      65725F73 
 13447      69646500 
 13448              	.LASF1:
 13449 0466 5F5F7569 		.ascii	"__uint8_t\000"
 13449      6E74385F 
 13449      7400
 13450              	.LASF251:
 13451 0470 775F6C61 		.ascii	"w_layout\000"
 13451      796F7574 
 13451      00
 13452              	.LASF253:
 13453 0479 626C656E 		.ascii	"blend_mode\000"
 13453      645F6D6F 
 13453      646500
 13454              	.LASF579:
 13455 0484 4C565F49 		.ascii	"LV_IMG_SIZE_MODE_VIRTUAL\000"
 13455      4D475F53 
 13455      495A455F 
 13455      4D4F4445 
 13455      5F564952 
 13456              	.LASF101:
 13457 049d 4C565F53 		.ascii	"LV_STYLE_RADIUS\000"
 13457      54594C45 
 13457      5F524144 
 13457      49555300 
 13458              	.LASF369:
 13459 04ad 7665725F 		.ascii	"ver_res\000"
 13459      72657300 
 13460              	.LASF247:
 13461 04b5 7363725F 		.ascii	"scr_layout_inv\000"
 13461      6C61796F 
 13461      75745F69 
 13461      6E7600
 13462              	.LASF93:
 13463 04c4 4C565F53 		.ascii	"LV_STYLE_MAX_WIDTH\000"
 13463      54594C45 
 13463      5F4D4158 
 13463      5F574944 
 13463      544800
 13464              	.LASF398:
 13465 04d7 73637265 		.ascii	"screens\000"
 13465      656E7300 
 13466              	.LASF120:
 13467 04df 4C565F53 		.ascii	"LV_STYLE_BG_IMG_RECOLOR\000"
ARM GAS  C:\Users\haske\AppData\Local\Temp\ccGWO5DZ.s 			page 269


 13467      54594C45 
 13467      5F42475F 
 13467      494D475F 
 13467      5245434F 
 13468              	.LASF137:
 13469 04f7 4C565F53 		.ascii	"LV_STYLE_SHADOW_OPA\000"
 13469      54594C45 
 13469      5F534841 
 13469      444F575F 
 13469      4F504100 
 13470              	.LASF586:
 13471 050b 6C765F6F 		.ascii	"lv_obj_get_style_img_opa\000"
 13471      626A5F67 
 13471      65745F73 
 13471      74796C65 
 13471      5F696D67 
 13472              	.LASF168:
 13473 0524 4C565F53 		.ascii	"LV_STYLE_TRANSFORM_HEIGHT\000"
 13473      54594C45 
 13473      5F545241 
 13473      4E53464F 
 13473      524D5F48 
 13474              	.LASF447:
 13475 053e 4C565F4F 		.ascii	"LV_OBJ_FLAG_SCROLLABLE\000"
 13475      424A5F46 
 13475      4C41475F 
 13475      5343524F 
 13475      4C4C4142 
 13476              	.LASF105:
 13477 0555 4C565F53 		.ascii	"LV_STYLE_PAD_RIGHT\000"
 13477      54594C45 
 13477      5F504144 
 13477      5F524947 
 13477      485400
 13478              	.LASF504:
 13479 0568 4C565F45 		.ascii	"LV_EVENT_ALL\000"
 13479      56454E54 
 13479      5F414C4C 
 13479      00
 13480              	.LASF209:
 13481 0575 4C565F49 		.ascii	"LV_IMG_CF_RGBA5658\000"
 13481      4D475F43 
 13481      465F5247 
 13481      42413536 
 13481      353800
 13482              	.LASF413:
 13483 0588 6C617374 		.ascii	"last_activity_time\000"
 13483      5F616374 
 13483      69766974 
 13483      795F7469 
 13483      6D6500
 13484              	.LASF9:
 13485 059b 6C6F6E67 		.ascii	"long int\000"
 13485      20696E74 
 13485      00
 13486              	.LASF668:
 13487 05a4 6C765F74 		.ascii	"lv_txt_get_size\000"
ARM GAS  C:\Users\haske\AppData\Local\Temp\ccGWO5DZ.s 			page 270


 13487      78745F67 
 13487      65745F73 
 13487      697A6500 
 13488              	.LASF165:
 13489 05b4 4C565F53 		.ascii	"LV_STYLE_TRANSITION\000"
 13489      54594C45 
 13489      5F545241 
 13489      4E534954 
 13489      494F4E00 
 13490              	.LASF379:
 13491 05c8 726F7461 		.ascii	"rotated\000"
 13491      74656400 
 13492              	.LASF570:
 13493 05d0 7363726F 		.ascii	"scroll_dir\000"
 13493      6C6C5F64 
 13493      697200
 13494              	.LASF492:
 13495 05db 67726F75 		.ascii	"group_def\000"
 13495      705F6465 
 13495      6600
 13496              	.LASF392:
 13497 05e5 64726177 		.ascii	"draw_ctx_deinit\000"
 13497      5F637478 
 13497      5F646569 
 13497      6E697400 
 13498              	.LASF121:
 13499 05f5 4C565F53 		.ascii	"LV_STYLE_BG_IMG_RECOLOR_OPA\000"
 13499      54594C45 
 13499      5F42475F 
 13499      494D475F 
 13499      5245434F 
 13500              	.LASF254:
 13501 0611 62675F6F 		.ascii	"bg_opa\000"
 13501      706100
 13502              	.LASF396:
 13503 0618 72656672 		.ascii	"refr_timer\000"
 13503      5F74696D 
 13503      657200
 13504              	.LASF290:
 13505 0623 6C765F64 		.ascii	"lv_draw_label_dsc_t\000"
 13505      7261775F 
 13505      6C616265 
 13505      6C5F6473 
 13505      635F7400 
 13506              	.LASF206:
 13507 0637 4C565F49 		.ascii	"LV_IMG_CF_RGBA8888\000"
 13507      4D475F43 
 13507      465F5247 
 13507      42413838 
 13507      383800
 13508              	.LASF432:
 13509 064a 6C765F73 		.ascii	"lv_state_t\000"
 13509      74617465 
 13509      5F7400
 13510              	.LASF460:
 13511 0655 4C565F4F 		.ascii	"LV_OBJ_FLAG_ADV_HITTEST\000"
 13511      424A5F46 
ARM GAS  C:\Users\haske\AppData\Local\Temp\ccGWO5DZ.s 			page 271


 13511      4C41475F 
 13511      4144565F 
 13511      48495454 
 13512              	.LASF283:
 13513 066d 73656C5F 		.ascii	"sel_bg_color\000"
 13513      62675F63 
 13513      6F6C6F72 
 13513      00
 13514              	.LASF455:
 13515 067a 4C565F4F 		.ascii	"LV_OBJ_FLAG_SCROLL_WITH_ARROW\000"
 13515      424A5F46 
 13515      4C41475F 
 13515      5343524F 
 13515      4C4C5F57 
 13516              	.LASF427:
 13517 0698 65646765 		.ascii	"edge_cb\000"
 13517      5F636200 
 13518              	.LASF410:
 13519 06a0 696E765F 		.ascii	"inv_area_joined\000"
 13519      61726561 
 13519      5F6A6F69 
 13519      6E656400 
 13520              	.LASF122:
 13521 06b0 4C565F53 		.ascii	"LV_STYLE_BG_IMG_TILED\000"
 13521      54594C45 
 13521      5F42475F 
 13521      494D475F 
 13521      54494C45 
 13522              	.LASF401:
 13523 06c6 7363725F 		.ascii	"scr_to_load\000"
 13523      746F5F6C 
 13523      6F616400 
 13524              	.LASF585:
 13525 06d2 61726561 		.ascii	"area_p\000"
 13525      5F7000
 13526              	.LASF678:
 13527 06d9 6C765F6F 		.ascii	"lv_obj_get_disp\000"
 13527      626A5F67 
 13527      65745F64 
 13527      69737000 
 13528              	.LASF346:
 13529 06e9 68656164 		.ascii	"head\000"
 13529      00
 13530              	.LASF594:
 13531 06ee 6C765F6F 		.ascii	"lv_obj_get_style_text_line_space\000"
 13531      626A5F67 
 13531      65745F73 
 13531      74796C65 
 13531      5F746578 
 13532              	.LASF124:
 13533 070f 4C565F53 		.ascii	"LV_STYLE_BORDER_OPA\000"
 13533      54594C45 
 13533      5F424F52 
 13533      4445525F 
 13533      4F504100 
 13534              	.LASF531:
 13535 0723 4C565F45 		.ascii	"LV_EVENT_DRAW_PART_END\000"
ARM GAS  C:\Users\haske\AppData\Local\Temp\ccGWO5DZ.s 			page 272


 13535      56454E54 
 13535      5F445241 
 13535      575F5041 
 13535      52545F45 
 13536              	.LASF364:
 13537 073a 6C617374 		.ascii	"last_area\000"
 13537      5F617265 
 13537      6100
 13538              	.LASF556:
 13539 0744 6C765F63 		.ascii	"lv_cover_check_info_t\000"
 13539      6F766572 
 13539      5F636865 
 13539      636B5F69 
 13539      6E666F5F 
 13540              	.LASF337:
 13541 075a 62756666 		.ascii	"buffer_copy\000"
 13541      65725F63 
 13541      6F707900 
 13542              	.LASF589:
 13543 0766 6C765F6F 		.ascii	"lv_obj_get_style_pad_top\000"
 13543      626A5F67 
 13543      65745F73 
 13543      74796C65 
 13543      5F706164 
 13544              	.LASF268:
 13545 077f 6F75746C 		.ascii	"outline_color\000"
 13545      696E655F 
 13545      636F6C6F 
 13545      7200
 13546              	.LASF136:
 13547 078d 4C565F53 		.ascii	"LV_STYLE_SHADOW_COLOR\000"
 13547      54594C45 
 13547      5F534841 
 13547      444F575F 
 13547      434F4C4F 
 13548              	.LASF249:
 13549 07a3 7374796C 		.ascii	"style_cnt\000"
 13549      655F636E 
 13549      7400
 13550              	.LASF246:
 13551 07ad 6C61796F 		.ascii	"layout_inv\000"
 13551      75745F69 
 13551      6E7600
 13552              	.LASF73:
 13553 07b8 4C565F54 		.ascii	"LV_TEXT_FLAG_FIT\000"
 13553      4558545F 
 13553      464C4147 
 13553      5F464954 
 13553      00
 13554              	.LASF2:
 13555 07c9 7369676E 		.ascii	"signed char\000"
 13555      65642063 
 13555      68617200 
 13556              	.LASF16:
 13557 07d5 75696E74 		.ascii	"uint8_t\000"
 13557      385F7400 
 13558              	.LASF332:
ARM GAS  C:\Users\haske\AppData\Local\Temp\ccGWO5DZ.s 			page 273


 13559 07dd 64726177 		.ascii	"draw_line\000"
 13559      5F6C696E 
 13559      6500
 13560              	.LASF368:
 13561 07e7 686F725F 		.ascii	"hor_res\000"
 13561      72657300 
 13562              	.LASF681:
 13563 07ef 2E2E5C2E 		.ascii	"..\\..\\..\\arduinoLCD\\test\\Pain Drain\\libraries"
 13563      2E5C2E2E 
 13563      5C617264 
 13563      75696E6F 
 13563      4C43445C 
 13564 081c 5C6C7667 		.ascii	"\\lvgl\\src\\widgets\\lv_img.c\000"
 13564      6C5C7372 
 13564      635C7769 
 13564      64676574 
 13564      735C6C76 
 13565              	.LASF464:
 13566 0837 4C565F4F 		.ascii	"LV_OBJ_FLAG_LAYOUT_1\000"
 13566      424A5F46 
 13566      4C41475F 
 13566      4C41594F 
 13566      55545F31 
 13567              	.LASF465:
 13568 084c 4C565F4F 		.ascii	"LV_OBJ_FLAG_LAYOUT_2\000"
 13568      424A5F46 
 13568      4C41475F 
 13568      4C41594F 
 13568      55545F32 
 13569              	.LASF262:
 13570 0861 62675F69 		.ascii	"bg_img_tiled\000"
 13570      6D675F74 
 13570      696C6564 
 13570      00
 13571              	.LASF113:
 13572 086e 4C565F53 		.ascii	"LV_STYLE_BG_GRAD_DIR\000"
 13572      54594C45 
 13572      5F42475F 
 13572      47524144 
 13572      5F444952 
 13573              	.LASF35:
 13574 0883 6765745F 		.ascii	"get_glyph_bitmap\000"
 13574      676C7970 
 13574      685F6269 
 13574      746D6170 
 13574      00
 13575              	.LASF307:
 13576 0894 656E645F 		.ascii	"end_angle\000"
 13576      616E676C 
 13576      6500
 13577              	.LASF64:
 13578 089e 626C7565 		.ascii	"blue\000"
 13578      00
 13579              	.LASF453:
 13580 08a3 4C565F4F 		.ascii	"LV_OBJ_FLAG_SCROLL_CHAIN\000"
 13580      424A5F46 
 13580      4C41475F 
ARM GAS  C:\Users\haske\AppData\Local\Temp\ccGWO5DZ.s 			page 274


 13580      5343524F 
 13580      4C4C5F43 
 13581              	.LASF191:
 13582 08bc 4C565F49 		.ascii	"LV_IMG_CF_RAW\000"
 13582      4D475F43 
 13582      465F5241 
 13582      5700
 13583              	.LASF466:
 13584 08ca 4C565F4F 		.ascii	"LV_OBJ_FLAG_WIDGET_1\000"
 13584      424A5F46 
 13584      4C41475F 
 13584      57494447 
 13584      45545F31 
 13585              	.LASF467:
 13586 08df 4C565F4F 		.ascii	"LV_OBJ_FLAG_WIDGET_2\000"
 13586      424A5F46 
 13586      4C41475F 
 13586      57494447 
 13586      45545F32 
 13587              	.LASF99:
 13588 08f4 4C565F53 		.ascii	"LV_STYLE_ALIGN\000"
 13588      54594C45 
 13588      5F414C49 
 13588      474E00
 13589              	.LASF3:
 13590 0903 756E7369 		.ascii	"unsigned char\000"
 13590      676E6564 
 13590      20636861 
 13590      7200
 13591              	.LASF402:
 13592 0911 746F705F 		.ascii	"top_layer\000"
 13592      6C617965 
 13592      7200
 13593              	.LASF548:
 13594 091b 4C565F45 		.ascii	"LV_EVENT_GET_SELF_SIZE\000"
 13594      56454E54 
 13594      5F474554 
 13594      5F53454C 
 13594      465F5349 
 13595              	.LASF525:
 13596 0932 4C565F45 		.ascii	"LV_EVENT_DRAW_MAIN\000"
 13596      56454E54 
 13596      5F445241 
 13596      575F4D41 
 13596      494E00
 13597              	.LASF305:
 13598 0945 6C765F64 		.ascii	"lv_draw_line_dsc_t\000"
 13598      7261775F 
 13598      6C696E65 
 13598      5F647363 
 13598      5F7400
 13599              	.LASF173:
 13600 0958 4C565F53 		.ascii	"LV_STYLE_TRANSFORM_PIVOT_X\000"
 13600      54594C45 
 13600      5F545241 
 13600      4E53464F 
 13600      524D5F50 
ARM GAS  C:\Users\haske\AppData\Local\Temp\ccGWO5DZ.s 			page 275


 13601              	.LASF174:
 13602 0973 4C565F53 		.ascii	"LV_STYLE_TRANSFORM_PIVOT_Y\000"
 13602      54594C45 
 13602      5F545241 
 13602      4E53464F 
 13602      524D5F50 
 13603              	.LASF559:
 13604 098e 6C765F67 		.ascii	"lv_group_t\000"
 13604      726F7570 
 13604      5F7400
 13605              	.LASF573:
 13606 0999 5F6C765F 		.ascii	"_lv_obj_spec_attr_t\000"
 13606      6F626A5F 
 13606      73706563 
 13606      5F617474 
 13606      725F7400 
 13607              	.LASF139:
 13608 09ad 4C565F53 		.ascii	"LV_STYLE_IMG_RECOLOR\000"
 13608      54594C45 
 13608      5F494D47 
 13608      5F524543 
 13608      4F4C4F52 
 13609              	.LASF320:
 13610 09c2 61726561 		.ascii	"area_act\000"
 13610      5F616374 
 13610      00
 13611              	.LASF608:
 13612 09cb 696D675F 		.ascii	"img_max_area\000"
 13612      6D61785F 
 13612      61726561 
 13612      00
 13613              	.LASF147:
 13614 09d8 4C565F53 		.ascii	"LV_STYLE_ARC_WIDTH\000"
 13614      54594C45 
 13614      5F415243 
 13614      5F574944 
 13614      544800
 13615              	.LASF31:
 13616 09eb 6F66735F 		.ascii	"ofs_x\000"
 13616      7800
 13617              	.LASF32:
 13618 09f1 6F66735F 		.ascii	"ofs_y\000"
 13618      7900
 13619              	.LASF76:
 13620 09f7 6C765F62 		.ascii	"lv_base_dir_t\000"
 13620      6173655F 
 13620      6469725F 
 13620      7400
 13621              	.LASF232:
 13622 0a05 4C565F49 		.ascii	"LV_IMG_SRC_VARIABLE\000"
 13622      4D475F53 
 13622      52435F56 
 13622      41524941 
 13622      424C4500 
 13623              	.LASF407:
 13624 0a19 72656E64 		.ascii	"rendering_in_progress\000"
 13624      6572696E 
ARM GAS  C:\Users\haske\AppData\Local\Temp\ccGWO5DZ.s 			page 276


 13624      675F696E 
 13624      5F70726F 
 13624      67726573 
 13625              	.LASF250:
 13626 0a2f 685F6C61 		.ascii	"h_layout\000"
 13626      796F7574 
 13626      00
 13627              	.LASF363:
 13628 0a38 666C7573 		.ascii	"flushing_last\000"
 13628      68696E67 
 13628      5F6C6173 
 13628      7400
 13629              	.LASF44:
 13630 0a46 5F426F6F 		.ascii	"_Bool\000"
 13630      6C00
 13631              	.LASF567:
 13632 0a4c 7363726F 		.ascii	"scrollbar_mode\000"
 13632      6C6C6261 
 13632      725F6D6F 
 13632      646500
 13633              	.LASF371:
 13634 0a5b 70687973 		.ascii	"physical_ver_res\000"
 13634      6963616C 
 13634      5F766572 
 13634      5F726573 
 13634      00
 13635              	.LASF323:
 13636 0a6c 6F726967 		.ascii	"original\000"
 13636      696E616C 
 13636      00
 13637              	.LASF169:
 13638 0a75 4C565F53 		.ascii	"LV_STYLE_TRANSLATE_X\000"
 13638      54594C45 
 13638      5F545241 
 13638      4E534C41 
 13638      54455F58 
 13639              	.LASF170:
 13640 0a8a 4C565F53 		.ascii	"LV_STYLE_TRANSLATE_Y\000"
 13640      54594C45 
 13640      5F545241 
 13640      4E534C41 
 13640      54455F59 
 13641              	.LASF680:
 13642 0a9f 474E5520 		.ascii	"GNU C11 5.4.1 20160609 (release) [ARM/embedded-5-br"
 13642      43313120 
 13642      352E342E 
 13642      31203230 
 13642      31363036 
 13643 0ad2 616E6368 		.ascii	"anch revision 237715] -mcpu=cortex-m0plus -mthumb -"
 13643      20726576 
 13643      6973696F 
 13643      6E203233 
 13643      37373135 
 13644 0b05 67202D4F 		.ascii	"g -Og -ffunction-sections -ffat-lto-objects\000"
 13644      67202D66 
 13644      66756E63 
 13644      74696F6E 
ARM GAS  C:\Users\haske\AppData\Local\Temp\ccGWO5DZ.s 			page 277


 13644      2D736563 
 13645              	.LASF501:
 13646 0b31 73746F70 		.ascii	"stop_processing\000"
 13646      5F70726F 
 13646      63657373 
 13646      696E6700 
 13647              	.LASF181:
 13648 0b41 76616C75 		.ascii	"value\000"
 13648      6500
 13649              	.LASF244:
 13650 0b47 666C6167 		.ascii	"flags\000"
 13650      7300
 13651              	.LASF314:
 13652 0b4d 6C765F64 		.ascii	"lv_draw_layer_flags_t\000"
 13652      7261775F 
 13652      6C617965 
 13652      725F666C 
 13652      6167735F 
 13653              	.LASF648:
 13654 0b63 6C765F64 		.ascii	"lv_draw_img_dsc_init\000"
 13654      7261775F 
 13654      696D675F 
 13654      6473635F 
 13654      696E6974 
 13655              	.LASF50:
 13656 0b78 63686172 		.ascii	"char\000"
 13656      00
 13657              	.LASF298:
 13658 0b7d 6C765F64 		.ascii	"lv_draw_img_dsc_t\000"
 13658      7261775F 
 13658      696D675F 
 13658      6473635F 
 13658      7400
 13659              	.LASF684:
 13660 0b8f 6C765F61 		.ascii	"lv_area_copy\000"
 13660      7265615F 
 13660      636F7079 
 13660      00
 13661              	.LASF523:
 13662 0b9c 4C565F45 		.ascii	"LV_EVENT_REFR_EXT_DRAW_SIZE\000"
 13662      56454E54 
 13662      5F524546 
 13662      525F4558 
 13662      545F4452 
 13663              	.LASF39:
 13664 0bb8 756E6465 		.ascii	"underline_position\000"
 13664      726C696E 
 13664      655F706F 
 13664      73697469 
 13664      6F6E00
 13665              	.LASF342:
 13666 0bcb 6C617965 		.ascii	"layer_instance_size\000"
 13666      725F696E 
 13666      7374616E 
 13666      63655F73 
 13666      697A6500 
 13667              	.LASF301:
ARM GAS  C:\Users\haske\AppData\Local\Temp\ccGWO5DZ.s 			page 278


 13668 0bdf 64617368 		.ascii	"dash_gap\000"
 13668      5F676170 
 13668      00
 13669              	.LASF334:
 13670 0be8 64726177 		.ascii	"draw_transform\000"
 13670      5F747261 
 13670      6E73666F 
 13670      726D00
 13671              	.LASF375:
 13672 0bf7 64697265 		.ascii	"direct_mode\000"
 13672      63745F6D 
 13672      6F646500 
 13673              	.LASF522:
 13674 0c03 4C565F45 		.ascii	"LV_EVENT_COVER_CHECK\000"
 13674      56454E54 
 13674      5F434F56 
 13674      45525F43 
 13674      4845434B 
 13675              	.LASF108:
 13676 0c18 4C565F53 		.ascii	"LV_STYLE_BASE_DIR\000"
 13676      54594C45 
 13676      5F424153 
 13676      455F4449 
 13676      5200
 13677              	.LASF130:
 13678 0c2a 4C565F53 		.ascii	"LV_STYLE_OUTLINE_OPA\000"
 13678      54594C45 
 13678      5F4F5554 
 13678      4C494E45 
 13678      5F4F5041 
 13679              	.LASF86:
 13680 0c3f 73746F70 		.ascii	"stops_count\000"
 13680      735F636F 
 13680      756E7400 
 13681              	.LASF378:
 13682 0c4b 616E7469 		.ascii	"antialiasing\000"
 13682      616C6961 
 13682      73696E67 
 13682      00
 13683              	.LASF395:
 13684 0c58 64726976 		.ascii	"driver\000"
 13684      657200
 13685              	.LASF6:
 13686 0c5f 5F5F7569 		.ascii	"__uint16_t\000"
 13686      6E743136 
 13686      5F7400
 13687              	.LASF521:
 13688 0c6a 4C565F45 		.ascii	"LV_EVENT_HIT_TEST\000"
 13688      56454E54 
 13688      5F484954 
 13688      5F544553 
 13688      5400
 13689              	.LASF596:
 13690 0c7c 6C765F6F 		.ascii	"lv_obj_get_style_text_font\000"
 13690      626A5F67 
 13690      65745F73 
 13690      74796C65 
ARM GAS  C:\Users\haske\AppData\Local\Temp\ccGWO5DZ.s 			page 279


 13690      5F746578 
 13691              	.LASF270:
 13692 0c97 6F75746C 		.ascii	"outline_pad\000"
 13692      696E655F 
 13692      70616400 
 13693              	.LASF606:
 13694 0ca3 62675F63 		.ascii	"bg_coords\000"
 13694      6F6F7264 
 13694      7300
 13695              	.LASF343:
 13696 0cad 6C765F64 		.ascii	"lv_draw_ctx_t\000"
 13696      7261775F 
 13696      6374785F 
 13696      7400
 13697              	.LASF110:
 13698 0cbb 4C565F53 		.ascii	"LV_STYLE_BG_COLOR\000"
 13698      54594C45 
 13698      5F42475F 
 13698      434F4C4F 
 13698      5200
 13699              	.LASF140:
 13700 0ccd 4C565F53 		.ascii	"LV_STYLE_IMG_RECOLOR_OPA\000"
 13700      54594C45 
 13700      5F494D47 
 13700      5F524543 
 13700      4F4C4F52 
 13701              	.LASF595:
 13702 0ce6 6C765F6F 		.ascii	"lv_obj_get_style_text_letter_space\000"
 13702      626A5F67 
 13702      65745F73 
 13702      74796C65 
 13702      5F746578 
 13703              	.LASF590:
 13704 0d09 6C765F6F 		.ascii	"lv_obj_get_style_pad_right\000"
 13704      626A5F67 
 13704      65745F73 
 13704      74796C65 
 13704      5F706164 
 13705              	.LASF263:
 13706 0d24 626F7264 		.ascii	"border_color\000"
 13706      65725F63 
 13706      6F6C6F72 
 13706      00
 13707              	.LASF166:
 13708 0d31 4C565F53 		.ascii	"LV_STYLE_BLEND_MODE\000"
 13708      54594C45 
 13708      5F424C45 
 13708      4E445F4D 
 13708      4F444500 
 13709              	.LASF235:
 13710 0d45 4C565F49 		.ascii	"LV_IMG_SRC_UNKNOWN\000"
 13710      4D475F53 
 13710      52435F55 
 13710      4E4B4E4F 
 13710      574E00
 13711              	.LASF26:
 13712 0d58 6C765F64 		.ascii	"lv_dir_t\000"
ARM GAS  C:\Users\haske\AppData\Local\Temp\ccGWO5DZ.s 			page 280


 13712      69725F74 
 13712      00
 13713              	.LASF543:
 13714 0d61 4C565F45 		.ascii	"LV_EVENT_SCREEN_LOADED\000"
 13714      56454E54 
 13714      5F534352 
 13714      45454E5F 
 13714      4C4F4144 
 13715              	.LASF180:
 13716 0d78 70726F70 		.ascii	"prop\000"
 13716      00
 13717              	.LASF442:
 13718 0d7d 4C565F50 		.ascii	"LV_PART_ANY\000"
 13718      4152545F 
 13718      414E5900 
 13719              	.LASF185:
 13720 0d89 636F6E73 		.ascii	"const_props\000"
 13720      745F7072 
 13720      6F707300 
 13721              	.LASF664:
 13722 0d95 6C765F6F 		.ascii	"lv_obj_class_init_obj\000"
 13722      626A5F63 
 13722      6C617373 
 13722      5F696E69 
 13722      745F6F62 
 13723              	.LASF479:
 13724 0dab 5F6C765F 		.ascii	"_lv_obj_style_t\000"
 13724      6F626A5F 
 13724      7374796C 
 13724      655F7400 
 13725              	.LASF266:
 13726 0dbb 626F7264 		.ascii	"border_post\000"
 13726      65725F70 
 13726      6F737400 
 13727              	.LASF563:
 13728 0dc7 6576656E 		.ascii	"event_dsc\000"
 13728      745F6473 
 13728      6300
 13729              	.LASF362:
 13730 0dd1 666C7573 		.ascii	"flushing\000"
 13730      68696E67 
 13730      00
 13731              	.LASF142:
 13732 0dda 4C565F53 		.ascii	"LV_STYLE_LINE_DASH_WIDTH\000"
 13732      54594C45 
 13732      5F4C494E 
 13732      455F4441 
 13732      53485F57 
 13733              	.LASF598:
 13734 0df3 696E666F 		.ascii	"info\000"
 13734      00
 13735              	.LASF274:
 13736 0df8 73686164 		.ascii	"shadow_ofs_x\000"
 13736      6F775F6F 
 13736      66735F78 
 13736      00
 13737              	.LASF167:
ARM GAS  C:\Users\haske\AppData\Local\Temp\ccGWO5DZ.s 			page 281


 13738 0e05 4C565F53 		.ascii	"LV_STYLE_TRANSFORM_WIDTH\000"
 13738      54594C45 
 13738      5F545241 
 13738      4E53464F 
 13738      524D5F57 
 13739              	.LASF356:
 13740 0e1e 6C765F74 		.ascii	"lv_timer_t\000"
 13740      696D6572 
 13740      5F7400
 13741              	.LASF562:
 13742 0e29 67726F75 		.ascii	"group_p\000"
 13742      705F7000 
 13743              	.LASF179:
 13744 0e31 6C765F73 		.ascii	"lv_style_prop_t\000"
 13744      74796C65 
 13744      5F70726F 
 13744      705F7400 
 13745              	.LASF452:
 13746 0e41 4C565F4F 		.ascii	"LV_OBJ_FLAG_SCROLL_CHAIN_VER\000"
 13746      424A5F46 
 13746      4C41475F 
 13746      5343524F 
 13746      4C4C5F43 
 13747              	.LASF458:
 13748 0e5e 4C565F4F 		.ascii	"LV_OBJ_FLAG_EVENT_BUBBLE\000"
 13748      424A5F46 
 13748      4C41475F 
 13748      4556454E 
 13748      545F4255 
 13749              	.LASF302:
 13750 0e77 726F756E 		.ascii	"round_start\000"
 13750      645F7374 
 13750      61727400 
 13751              	.LASF564:
 13752 0e83 7363726F 		.ascii	"scroll\000"
 13752      6C6C00
 13753              	.LASF41:
 13754 0e8a 66616C6C 		.ascii	"fallback\000"
 13754      6261636B 
 13754      00
 13755              	.LASF609:
 13756 0e93 696D675F 		.ascii	"img_size_final\000"
 13756      73697A65 
 13756      5F66696E 
 13756      616C00
 13757              	.LASF184:
 13758 0ea2 76616C75 		.ascii	"values_and_props\000"
 13758      65735F61 
 13758      6E645F70 
 13758      726F7073 
 13758      00
 13759              	.LASF639:
 13760 0eb3 6C765F66 		.ascii	"lv_font_montserrat_14\000"
 13760      6F6E745F 
 13760      6D6F6E74 
 13760      73657272 
 13760      61745F31 
ARM GAS  C:\Users\haske\AppData\Local\Temp\ccGWO5DZ.s 			page 282


 13761              	.LASF582:
 13762 0ec9 6C765F74 		.ascii	"lv_theme_apply_cb_t\000"
 13762      68656D65 
 13762      5F617070 
 13762      6C795F63 
 13762      625F7400 
 13763              	.LASF650:
 13764 0edd 5F6C765F 		.ascii	"_lv_area_intersect\000"
 13764      61726561 
 13764      5F696E74 
 13764      65727365 
 13764      637400
 13765              	.LASF377:
 13766 0ef0 73775F72 		.ascii	"sw_rotate\000"
 13766      6F746174 
 13766      6500
 13767              	.LASF572:
 13768 0efa 6C617965 		.ascii	"layer_type\000"
 13768      725F7479 
 13768      706500
 13769              	.LASF164:
 13770 0f05 4C565F53 		.ascii	"LV_STYLE_ANIM_SPEED\000"
 13770      54594C45 
 13770      5F414E49 
 13770      4D5F5350 
 13770      45454400 
 13771              	.LASF591:
 13772 0f19 6C765F6F 		.ascii	"lv_obj_get_style_pad_left\000"
 13772      626A5F67 
 13772      65745F73 
 13772      74796C65 
 13772      5F706164 
 13773              	.LASF25:
 13774 0f33 6C765F61 		.ascii	"lv_area_t\000"
 13774      7265615F 
 13774      7400
 13775              	.LASF338:
 13776 0f3d 6C617965 		.ascii	"layer_init\000"
 13776      725F696E 
 13776      697400
 13777              	.LASF128:
 13778 0f48 4C565F53 		.ascii	"LV_STYLE_OUTLINE_WIDTH\000"
 13778      54594C45 
 13778      5F4F5554 
 13778      4C494E45 
 13778      5F574944 
 13779              	.LASF419:
 13780 0f5f 666F6E74 		.ascii	"font_small\000"
 13780      5F736D61 
 13780      6C6C00
 13781              	.LASF558:
 13782 0f6a 6C765F67 		.ascii	"lv_group_edge_cb_t\000"
 13782      726F7570 
 13782      5F656467 
 13782      655F6362 
 13782      5F7400
 13783              	.LASF644:
ARM GAS  C:\Users\haske\AppData\Local\Temp\ccGWO5DZ.s 			page 283


 13784 0f7d 6C765F6F 		.ascii	"lv_obj_get_width\000"
 13784      626A5F67 
 13784      65745F77 
 13784      69647468 
 13784      00
 13785              	.LASF468:
 13786 0f8e 4C565F4F 		.ascii	"LV_OBJ_FLAG_USER_1\000"
 13786      424A5F46 
 13786      4C41475F 
 13786      55534552 
 13786      5F3100
 13787              	.LASF469:
 13788 0fa1 4C565F4F 		.ascii	"LV_OBJ_FLAG_USER_2\000"
 13788      424A5F46 
 13788      4C41475F 
 13788      55534552 
 13788      5F3200
 13789              	.LASF470:
 13790 0fb4 4C565F4F 		.ascii	"LV_OBJ_FLAG_USER_3\000"
 13790      424A5F46 
 13790      4C41475F 
 13790      55534552 
 13790      5F3300
 13791              	.LASF471:
 13792 0fc7 4C565F4F 		.ascii	"LV_OBJ_FLAG_USER_4\000"
 13792      424A5F46 
 13792      4C41475F 
 13792      55534552 
 13792      5F3400
 13793              	.LASF211:
 13794 0fda 4C565F49 		.ascii	"LV_IMG_CF_RESERVED_15\000"
 13794      4D475F43 
 13794      465F5245 
 13794      53455256 
 13794      45445F31 
 13795              	.LASF212:
 13796 0ff0 4C565F49 		.ascii	"LV_IMG_CF_RESERVED_16\000"
 13796      4D475F43 
 13796      465F5245 
 13796      53455256 
 13796      45445F31 
 13797              	.LASF90:
 13798 1006 4C565F53 		.ascii	"LV_STYLE_PROP_INV\000"
 13798      54594C45 
 13798      5F50524F 
 13798      505F494E 
 13798      5600
 13799              	.LASF214:
 13800 1018 4C565F49 		.ascii	"LV_IMG_CF_RESERVED_18\000"
 13800      4D475F43 
 13800      465F5245 
 13800      53455256 
 13800      45445F31 
 13801              	.LASF156:
 13802 102e 4C565F53 		.ascii	"LV_STYLE_TEXT_LINE_SPACE\000"
 13802      54594C45 
 13802      5F544558 
ARM GAS  C:\Users\haske\AppData\Local\Temp\ccGWO5DZ.s 			page 284


 13802      545F4C49 
 13802      4E455F53 
 13803              	.LASF503:
 13804 1047 6C765F6F 		.ascii	"lv_obj_class_t\000"
 13804      626A5F63 
 13804      6C617373 
 13804      5F7400
 13805              	.LASF182:
 13806 1056 6C765F73 		.ascii	"lv_style_const_prop_t\000"
 13806      74796C65 
 13806      5F636F6E 
 13806      73745F70 
 13806      726F705F 
 13807              	.LASF526:
 13808 106c 4C565F45 		.ascii	"LV_EVENT_DRAW_MAIN_END\000"
 13808      56454E54 
 13808      5F445241 
 13808      575F4D41 
 13808      494E5F45 
 13809              	.LASF240:
 13810 1083 70617265 		.ascii	"parent\000"
 13810      6E7400
 13811              	.LASF376:
 13812 108a 66756C6C 		.ascii	"full_refresh\000"
 13812      5F726566 
 13812      72657368 
 13812      00
 13813              	.LASF303:
 13814 1097 726F756E 		.ascii	"round_end\000"
 13814      645F656E 
 13814      6400
 13815              	.LASF308:
 13816 10a1 696D675F 		.ascii	"img_src\000"
 13816      73726300 
 13817              	.LASF478:
 13818 10a9 69735F74 		.ascii	"is_trans\000"
 13818      72616E73 
 13818      00
 13819              	.LASF624:
 13820 10b2 6C765F69 		.ascii	"lv_img_set_angle\000"
 13820      6D675F73 
 13820      65745F61 
 13820      6E676C65 
 13820      00
 13821              	.LASF610:
 13822 10c3 696D675F 		.ascii	"img_dsc\000"
 13822      64736300 
 13823              	.LASF276:
 13824 10cb 73686164 		.ascii	"shadow_spread\000"
 13824      6F775F73 
 13824      70726561 
 13824      6400
 13825              	.LASF163:
 13826 10d9 4C565F53 		.ascii	"LV_STYLE_ANIM_TIME\000"
 13826      54594C45 
 13826      5F414E49 
 13826      4D5F5449 
ARM GAS  C:\Users\haske\AppData\Local\Temp\ccGWO5DZ.s 			page 285


 13826      4D4500
 13827              	.LASF103:
 13828 10ec 4C565F53 		.ascii	"LV_STYLE_PAD_BOTTOM\000"
 13828      54594C45 
 13828      5F504144 
 13828      5F424F54 
 13828      544F4D00 
 13829              	.LASF489:
 13830 1100 77696474 		.ascii	"width_def\000"
 13830      685F6465 
 13830      6600
 13831              	.LASF462:
 13832 110a 4C565F4F 		.ascii	"LV_OBJ_FLAG_FLOATING\000"
 13832      424A5F46 
 13832      4C41475F 
 13832      464C4F41 
 13832      54494E47 
 13833              	.LASF555:
 13834 111f 61726561 		.ascii	"area\000"
 13834      00
 13835              	.LASF216:
 13836 1124 4C565F49 		.ascii	"LV_IMG_CF_RESERVED_20\000"
 13836      4D475F43 
 13836      465F5245 
 13836      53455256 
 13836      45445F32 
 13837              	.LASF217:
 13838 113a 4C565F49 		.ascii	"LV_IMG_CF_RESERVED_21\000"
 13838      4D475F43 
 13838      465F5245 
 13838      53455256 
 13838      45445F32 
 13839              	.LASF218:
 13840 1150 4C565F49 		.ascii	"LV_IMG_CF_RESERVED_22\000"
 13840      4D475F43 
 13840      465F5245 
 13840      53455256 
 13840      45445F32 
 13841              	.LASF219:
 13842 1166 4C565F49 		.ascii	"LV_IMG_CF_RESERVED_23\000"
 13842      4D475F43 
 13842      465F5245 
 13842      53455256 
 13842      45445F32 
 13843              	.LASF383:
 13844 117c 636C6561 		.ascii	"clear_cb\000"
 13844      725F6362 
 13844      00
 13845              	.LASF111:
 13846 1185 4C565F53 		.ascii	"LV_STYLE_BG_OPA\000"
 13846      54594C45 
 13846      5F42475F 
 13846      4F504100 
 13847              	.LASF146:
 13848 1195 4C565F53 		.ascii	"LV_STYLE_LINE_OPA\000"
 13848      54594C45 
 13848      5F4C494E 
ARM GAS  C:\Users\haske\AppData\Local\Temp\ccGWO5DZ.s 			page 286


 13848      455F4F50 
 13848      4100
 13849              	.LASF189:
 13850 11a7 6C765F73 		.ascii	"lv_style_t\000"
 13850      74796C65 
 13850      5F7400
 13851              	.LASF600:
 13852 11b2 6F626A5F 		.ascii	"obj_h\000"
 13852      6800
 13853              	.LASF659:
 13854 11b8 6C765F65 		.ascii	"lv_event_get_target\000"
 13854      76656E74 
 13854      5F676574 
 13854      5F746172 
 13854      67657400 
 13855              	.LASF114:
 13856 11cc 4C565F53 		.ascii	"LV_STYLE_BG_MAIN_STOP\000"
 13856      54594C45 
 13856      5F42475F 
 13856      4D41494E 
 13856      5F53544F 
 13857              	.LASF463:
 13858 11e2 4C565F4F 		.ascii	"LV_OBJ_FLAG_OVERFLOW_VISIBLE\000"
 13858      424A5F46 
 13858      4C41475F 
 13858      4F564552 
 13858      464C4F57 
 13859              	.LASF242:
 13860 11ff 7374796C 		.ascii	"styles\000"
 13860      657300
 13861              	.LASF561:
 13862 1206 6368696C 		.ascii	"child_cnt\000"
 13862      645F636E 
 13862      7400
 13863              	.LASF138:
 13864 1210 4C565F53 		.ascii	"LV_STYLE_IMG_OPA\000"
 13864      54594C45 
 13864      5F494D47 
 13864      5F4F5041 
 13864      00
 13865              	.LASF171:
 13866 1221 4C565F53 		.ascii	"LV_STYLE_TRANSFORM_ZOOM\000"
 13866      54594C45 
 13866      5F545241 
 13866      4E53464F 
 13866      524D5F5A 
 13867              	.LASF520:
 13868 1239 4C565F45 		.ascii	"LV_EVENT_LEAVE\000"
 13868      56454E54 
 13868      5F4C4541 
 13868      564500
 13869              	.LASF599:
 13870 1248 6F626A5F 		.ascii	"obj_w\000"
 13870      7700
 13871              	.LASF675:
 13872 124e 6C765F6F 		.ascii	"lv_obj_get_click_area\000"
 13872      626A5F67 
ARM GAS  C:\Users\haske\AppData\Local\Temp\ccGWO5DZ.s 			page 287


 13872      65745F63 
 13872      6C69636B 
 13872      5F617265 
 13873              	.LASF11:
 13874 1264 6C6F6E67 		.ascii	"long unsigned int\000"
 13874      20756E73 
 13874      69676E65 
 13874      6420696E 
 13874      7400
 13875              	.LASF550:
 13876 1276 4C565F45 		.ascii	"LV_EVENT_PREPROCESS\000"
 13876      56454E54 
 13876      5F505245 
 13876      50524F43 
 13876      45535300 
 13877              	.LASF228:
 13878 128a 6C765F69 		.ascii	"lv_img_cf_t\000"
 13878      6D675F63 
 13878      665F7400 
 13879              	.LASF449:
 13880 1296 4C565F4F 		.ascii	"LV_OBJ_FLAG_SCROLL_MOMENTUM\000"
 13880      424A5F46 
 13880      4C41475F 
 13880      5343524F 
 13880      4C4C5F4D 
 13881              	.LASF153:
 13882 12b2 4C565F53 		.ascii	"LV_STYLE_TEXT_OPA\000"
 13882      54594C45 
 13882      5F544558 
 13882      545F4F50 
 13882      4100
 13883              	.LASF306:
 13884 12c4 73746172 		.ascii	"start_angle\000"
 13884      745F616E 
 13884      676C6500 
 13885              	.LASF667:
 13886 12d0 73747263 		.ascii	"strcpy\000"
 13886      707900
 13887              	.LASF498:
 13888 12d7 70617261 		.ascii	"param\000"
 13888      6D00
 13889              	.LASF495:
 13890 12dd 74617267 		.ascii	"target\000"
 13890      657400
 13891              	.LASF405:
 13892 12e4 64726177 		.ascii	"draw_prev_over_act\000"
 13892      5F707265 
 13892      765F6F76 
 13892      65725F61 
 13892      637400
 13893              	.LASF341:
 13894 12f7 6C617965 		.ascii	"layer_destroy\000"
 13894      725F6465 
 13894      7374726F 
 13894      7900
 13895              	.LASF300:
 13896 1305 64617368 		.ascii	"dash_width\000"
ARM GAS  C:\Users\haske\AppData\Local\Temp\ccGWO5DZ.s 			page 288


 13896      5F776964 
 13896      746800
 13897              	.LASF365:
 13898 1310 6C617374 		.ascii	"last_part\000"
 13898      5F706172 
 13898      7400
 13899              	.LASF491:
 13900 131a 65646974 		.ascii	"editable\000"
 13900      61626C65 
 13900      00
 13901              	.LASF397:
 13902 1323 7468656D 		.ascii	"theme\000"
 13902      6500
 13903              	.LASF372:
 13904 1329 6F666673 		.ascii	"offset_x\000"
 13904      65745F78 
 13904      00
 13905              	.LASF373:
 13906 1332 6F666673 		.ascii	"offset_y\000"
 13906      65745F79 
 13906      00
 13907              	.LASF27:
 13908 133b 7265736F 		.ascii	"resolved_font\000"
 13908      6C766564 
 13908      5F666F6E 
 13908      7400
 13909              	.LASF446:
 13910 1349 4C565F4F 		.ascii	"LV_OBJ_FLAG_CHECKABLE\000"
 13910      424A5F46 
 13910      4C41475F 
 13910      43484543 
 13910      4B41424C 
 13911              	.LASF615:
 13912 135f 6C765F69 		.ascii	"lv_img_destructor\000"
 13912      6D675F64 
 13912      65737472 
 13912      7563746F 
 13912      7200
 13913              	.LASF655:
 13914 1371 6C765F65 		.ascii	"lv_event_get_draw_ctx\000"
 13914      76656E74 
 13914      5F676574 
 13914      5F647261 
 13914      775F6374 
 13915              	.LASF637:
 13916 1387 6C765F69 		.ascii	"lv_img_get_antialias\000"
 13916      6D675F67 
 13916      65745F61 
 13916      6E746961 
 13916      6C696173 
 13917              	.LASF424:
 13918 139c 6F626A5F 		.ascii	"obj_ll\000"
 13918      6C6C00
 13919              	.LASF328:
 13920 13a3 64726177 		.ascii	"draw_arc\000"
 13920      5F617263 
 13920      00
ARM GAS  C:\Users\haske\AppData\Local\Temp\ccGWO5DZ.s 			page 289


 13921              	.LASF145:
 13922 13ac 4C565F53 		.ascii	"LV_STYLE_LINE_COLOR\000"
 13922      54594C45 
 13922      5F4C494E 
 13922      455F434F 
 13922      4C4F5200 
 13923              	.LASF443:
 13924 13c0 4C565F4F 		.ascii	"LV_OBJ_FLAG_HIDDEN\000"
 13924      424A5F46 
 13924      4C41475F 
 13924      48494444 
 13924      454E00
 13925              	.LASF52:
 13926 13d3 4C565F4F 		.ascii	"LV_OPA_0\000"
 13926      50415F30 
 13926      00
 13927              	.LASF577:
 13928 13dc 6F626A5F 		.ascii	"obj_size_mode\000"
 13928      73697A65 
 13928      5F6D6F64 
 13928      6500
 13929              	.LASF106:
 13930 13ea 4C565F53 		.ascii	"LV_STYLE_PAD_ROW\000"
 13930      54594C45 
 13930      5F504144 
 13930      5F524F57 
 13930      00
 13931              	.LASF357:
 13932 13fb 5F6C765F 		.ascii	"_lv_disp_draw_buf_t\000"
 13932      64697370 
 13932      5F647261 
 13932      775F6275 
 13932      665F7400 
 13933              	.LASF592:
 13934 140f 6C765F6F 		.ascii	"lv_obj_get_style_border_width\000"
 13934      626A5F67 
 13934      65745F73 
 13934      74796C65 
 13934      5F626F72 
 13935              	.LASF316:
 13936 142d 6275665F 		.ascii	"buf_area\000"
 13936      61726561 
 13936      00
 13937              	.LASF292:
 13938 1436 7A6F6F6D 		.ascii	"zoom\000"
 13938      00
 13939              	.LASF294:
 13940 143b 7265636F 		.ascii	"recolor\000"
 13940      6C6F7200 
 13941              	.LASF534:
 13942 1443 4C565F45 		.ascii	"LV_EVENT_REFRESH\000"
 13942      56454E54 
 13942      5F524546 
 13942      52455348 
 13942      00
 13943              	.LASF493:
 13944 1454 696E7374 		.ascii	"instance_size\000"
ARM GAS  C:\Users\haske\AppData\Local\Temp\ccGWO5DZ.s 			page 290


 13944      616E6365 
 13944      5F73697A 
 13944      6500
 13945              	.LASF654:
 13946 1462 6C765F64 		.ascii	"lv_draw_label\000"
 13946      7261775F 
 13946      6C616265 
 13946      6C00
 13947              	.LASF291:
 13948 1470 616E676C 		.ascii	"angle\000"
 13948      6500
 13949              	.LASF104:
 13950 1476 4C565F53 		.ascii	"LV_STYLE_PAD_LEFT\000"
 13950      54594C45 
 13950      5F504144 
 13950      5F4C4546 
 13950      5400
 13951              	.LASF604:
 13952 1488 70626F74 		.ascii	"pbottom\000"
 13952      746F6D00 
 13953              	.LASF391:
 13954 1490 64726177 		.ascii	"draw_ctx_init\000"
 13954      5F637478 
 13954      5F696E69 
 13954      7400
 13955              	.LASF496:
 13956 149e 63757272 		.ascii	"current_target\000"
 13956      656E745F 
 13956      74617267 
 13956      657400
 13957              	.LASF540:
 13958 14ad 4C565F45 		.ascii	"LV_EVENT_CHILD_DELETED\000"
 13958      56454E54 
 13958      5F434849 
 13958      4C445F44 
 13958      454C4554 
 13959              	.LASF651:
 13960 14c4 6C765F64 		.ascii	"lv_draw_img\000"
 13960      7261775F 
 13960      696D6700 
 13961              	.LASF436:
 13962 14d0 4C565F50 		.ascii	"LV_PART_KNOB\000"
 13962      4152545F 
 13962      4B4E4F42 
 13962      00
 13963              	.LASF676:
 13964 14dd 6C765F6F 		.ascii	"lv_obj_update_layout\000"
 13964      626A5F75 
 13964      70646174 
 13964      655F6C61 
 13964      796F7574 
 13965              	.LASF329:
 13966 14f2 64726177 		.ascii	"draw_img_decoded\000"
 13966      5F696D67 
 13966      5F646563 
 13966      6F646564 
 13966      00
ARM GAS  C:\Users\haske\AppData\Local\Temp\ccGWO5DZ.s 			page 291


 13967              	.LASF349:
 13968 1503 6C765F74 		.ascii	"lv_timer_cb_t\000"
 13968      696D6572 
 13968      5F63625F 
 13968      7400
 13969              	.LASF162:
 13970 1511 4C565F53 		.ascii	"LV_STYLE_ANIM\000"
 13970      54594C45 
 13970      5F414E49 
 13970      4D00
 13971              	.LASF97:
 13972 151f 4C565F53 		.ascii	"LV_STYLE_X\000"
 13972      54594C45 
 13972      5F5800
 13973              	.LASF456:
 13974 152a 4C565F4F 		.ascii	"LV_OBJ_FLAG_SNAPPABLE\000"
 13974      424A5F46 
 13974      4C41475F 
 13974      534E4150 
 13974      5041424C 
 13975              	.LASF674:
 13976 1540 5F6C765F 		.ascii	"_lv_area_is_point_on\000"
 13976      61726561 
 13976      5F69735F 
 13976      706F696E 
 13976      745F6F6E 
 13977              	.LASF158:
 13978 1555 4C565F53 		.ascii	"LV_STYLE_TEXT_ALIGN\000"
 13978      54594C45 
 13978      5F544558 
 13978      545F414C 
 13978      49474E00 
 13979              	.LASF117:
 13980 1569 4C565F53 		.ascii	"LV_STYLE_BG_DITHER_MODE\000"
 13980      54594C45 
 13980      5F42475F 
 13980      44495448 
 13980      45525F4D 
 13981              	.LASF355:
 13982 1581 70617573 		.ascii	"paused\000"
 13982      656400
 13983              	.LASF647:
 13984 1588 6C765F65 		.ascii	"lv_event_get_param\000"
 13984      76656E74 
 13984      5F676574 
 13984      5F706172 
 13984      616D00
 13985              	.LASF237:
 13986 159b 5F6C765F 		.ascii	"_lv_font_t\000"
 13986      666F6E74 
 13986      5F7400
 13987              	.LASF385:
 13988 15a6 77616974 		.ascii	"wait_cb\000"
 13988      5F636200 
 13989              	.LASF10:
 13990 15ae 5F5F7569 		.ascii	"__uint32_t\000"
 13990      6E743332 
ARM GAS  C:\Users\haske\AppData\Local\Temp\ccGWO5DZ.s 			page 292


 13990      5F7400
 13991              	.LASF488:
 13992 15b9 6576656E 		.ascii	"event_cb\000"
 13992      745F6362 
 13992      00
 13993              	.LASF551:
 13994 15c2 6C765F65 		.ascii	"lv_event_code_t\000"
 13994      76656E74 
 13994      5F636F64 
 13994      655F7400 
 13995              	.LASF622:
 13996 15d2 6C765F69 		.ascii	"lv_img_set_offset_x\000"
 13996      6D675F73 
 13996      65745F6F 
 13996      66667365 
 13996      745F7800 
 13997              	.LASF623:
 13998 15e6 6C765F69 		.ascii	"lv_img_set_offset_y\000"
 13998      6D675F73 
 13998      65745F6F 
 13998      66667365 
 13998      745F7900 
 13999              	.LASF78:
 14000 15fa 6C765F74 		.ascii	"lv_text_decor_t\000"
 14000      6578745F 
 14000      6465636F 
 14000      725F7400 
 14001              	.LASF494:
 14002 160a 5F6C765F 		.ascii	"_lv_event_t\000"
 14002      6576656E 
 14002      745F7400 
 14003              	.LASF12:
 14004 1616 6C6F6E67 		.ascii	"long long int\000"
 14004      206C6F6E 
 14004      6720696E 
 14004      7400
 14005              	.LASF272:
 14006 1624 73686164 		.ascii	"shadow_color\000"
 14006      6F775F63 
 14006      6F6C6F72 
 14006      00
 14007              	.LASF662:
 14008 1631 6C765F6F 		.ascii	"lv_obj_add_flag\000"
 14008      626A5F61 
 14008      64645F66 
 14008      6C616700 
 14009              	.LASF500:
 14010 1641 64656C65 		.ascii	"deleted\000"
 14010      74656400 
 14011              	.LASF299:
 14012 1649 77696474 		.ascii	"width\000"
 14012      6800
 14013              	.LASF515:
 14014 164f 4C565F45 		.ascii	"LV_EVENT_SCROLL\000"
 14014      56454E54 
 14014      5F534352 
 14014      4F4C4C00 
ARM GAS  C:\Users\haske\AppData\Local\Temp\ccGWO5DZ.s 			page 293


 14015              	.LASF641:
 14016 165f 6C765F69 		.ascii	"lv_img_class\000"
 14016      6D675F63 
 14016      6C617373 
 14016      00
 14017              	.LASF588:
 14018 166c 6C765F6F 		.ascii	"lv_obj_get_style_pad_bottom\000"
 14018      626A5F67 
 14018      65745F73 
 14018      74796C65 
 14018      5F706164 
 14019              	.LASF459:
 14020 1688 4C565F4F 		.ascii	"LV_OBJ_FLAG_GESTURE_BUBBLE\000"
 14020      424A5F46 
 14020      4C41475F 
 14020      47455354 
 14020      5552455F 
 14021              	.LASF686:
 14022 16a3 6D656D63 		.ascii	"memcpy\000"
 14022      707900
 14023              	.LASF483:
 14024 16aa 6C765F63 		.ascii	"lv_cover_res_t\000"
 14024      6F766572 
 14024      5F726573 
 14024      5F7400
 14025              	.LASF358:
 14026 16b9 62756631 		.ascii	"buf1\000"
 14026      00
 14027              	.LASF359:
 14028 16be 62756632 		.ascii	"buf2\000"
 14028      00
 14029              	.LASF560:
 14030 16c3 6368696C 		.ascii	"children\000"
 14030      6472656E 
 14030      00
 14031              	.LASF172:
 14032 16cc 4C565F53 		.ascii	"LV_STYLE_TRANSFORM_ANGLE\000"
 14032      54594C45 
 14032      5F545241 
 14032      4E53464F 
 14032      524D5F41 
 14033              	.LASF311:
 14034 16e5 4C565F44 		.ascii	"LV_DRAW_LAYER_FLAG_NONE\000"
 14034      5241575F 
 14034      4C415945 
 14034      525F464C 
 14034      41475F4E 
 14035              	.LASF482:
 14036 16fd 4C565F43 		.ascii	"LV_COVER_RES_MASKED\000"
 14036      4F564552 
 14036      5F524553 
 14036      5F4D4153 
 14036      4B454400 
 14037              	.LASF160:
 14038 1711 4C565F53 		.ascii	"LV_STYLE_COLOR_FILTER_DSC\000"
 14038      54594C45 
 14038      5F434F4C 
ARM GAS  C:\Users\haske\AppData\Local\Temp\ccGWO5DZ.s 			page 294


 14038      4F525F46 
 14038      494C5445 
 14039              	.LASF75:
 14040 172b 6C765F74 		.ascii	"lv_text_align_t\000"
 14040      6578745F 
 14040      616C6967 
 14040      6E5F7400 
 14041              	.LASF618:
 14042 173b 6F6C645F 		.ascii	"old_src\000"
 14042      73726300 
 14043              	.LASF448:
 14044 1743 4C565F4F 		.ascii	"LV_OBJ_FLAG_SCROLL_ELASTIC\000"
 14044      424A5F46 
 14044      4C41475F 
 14044      5343524F 
 14044      4C4C5F45 
 14045              	.LASF511:
 14046 175e 4C565F45 		.ascii	"LV_EVENT_CLICKED\000"
 14046      56454E54 
 14046      5F434C49 
 14046      434B4544 
 14046      00
 14047              	.LASF628:
 14048 176f 6C765F69 		.ascii	"lv_img_set_size_mode\000"
 14048      6D675F73 
 14048      65745F73 
 14048      697A655F 
 14048      6D6F6465 
 14049              	.LASF601:
 14050 1784 706C6566 		.ascii	"pleft\000"
 14050      7400
 14051              	.LASF40:
 14052 178a 756E6465 		.ascii	"underline_thickness\000"
 14052      726C696E 
 14052      655F7468 
 14052      69636B6E 
 14052      65737300 
 14053              	.LASF157:
 14054 179e 4C565F53 		.ascii	"LV_STYLE_TEXT_DECOR\000"
 14054      54594C45 
 14054      5F544558 
 14054      545F4445 
 14054      434F5200 
 14055              	.LASF513:
 14056 17b2 4C565F45 		.ascii	"LV_EVENT_SCROLL_BEGIN\000"
 14056      56454E54 
 14056      5F534352 
 14056      4F4C4C5F 
 14056      42454749 
 14057              	.LASF287:
 14058 17c8 616C6967 		.ascii	"align\000"
 14058      6E00
 14059              	.LASF51:
 14060 17ce 4C565F4F 		.ascii	"LV_OPA_TRANSP\000"
 14060      50415F54 
 14060      52414E53 
 14060      5000
ARM GAS  C:\Users\haske\AppData\Local\Temp\ccGWO5DZ.s 			page 295


 14061              	.LASF148:
 14062 17dc 4C565F53 		.ascii	"LV_STYLE_ARC_ROUNDED\000"
 14062      54594C45 
 14062      5F415243 
 14062      5F524F55 
 14062      4E444544 
 14063              	.LASF444:
 14064 17f1 4C565F4F 		.ascii	"LV_OBJ_FLAG_CLICKABLE\000"
 14064      424A5F46 
 14064      4C41475F 
 14064      434C4943 
 14064      4B41424C 
 14065              	.LASF384:
 14066 1807 6D6F6E69 		.ascii	"monitor_cb\000"
 14066      746F725F 
 14066      636200
 14067              	.LASF202:
 14068 1812 4C565F49 		.ascii	"LV_IMG_CF_ALPHA_2BIT\000"
 14068      4D475F43 
 14068      465F414C 
 14068      5048415F 
 14068      32424954 
 14069              	.LASF248:
 14070 1827 736B6970 		.ascii	"skip_trans\000"
 14070      5F747261 
 14070      6E7300
 14071              	.LASF581:
 14072 1832 6C765F69 		.ascii	"lv_img_size_mode_t\000"
 14072      6D675F73 
 14072      697A655F 
 14072      6D6F6465 
 14072      5F7400
 14073              	.LASF435:
 14074 1845 4C565F50 		.ascii	"LV_PART_INDICATOR\000"
 14074      4152545F 
 14074      494E4449 
 14074      4341544F 
 14074      5200
 14075              	.LASF566:
 14076 1857 6578745F 		.ascii	"ext_draw_size\000"
 14076      64726177 
 14076      5F73697A 
 14076      6500
 14077              	.LASF434:
 14078 1865 4C565F50 		.ascii	"LV_PART_SCROLLBAR\000"
 14078      4152545F 
 14078      5343524F 
 14078      4C4C4241 
 14078      5200
 14079              	.LASF203:
 14080 1877 4C565F49 		.ascii	"LV_IMG_CF_ALPHA_4BIT\000"
 14080      4D475F43 
 14080      465F414C 
 14080      5048415F 
 14080      34424954 
 14081              	.LASF152:
 14082 188c 4C565F53 		.ascii	"LV_STYLE_TEXT_COLOR\000"
ARM GAS  C:\Users\haske\AppData\Local\Temp\ccGWO5DZ.s 			page 296


 14082      54594C45 
 14082      5F544558 
 14082      545F434F 
 14082      4C4F5200 
 14083              	.LASF658:
 14084 18a0 6C765F65 		.ascii	"lv_event_get_code\000"
 14084      76656E74 
 14084      5F676574 
 14084      5F636F64 
 14084      6500
 14085              	.LASF537:
 14086 18b2 4C565F45 		.ascii	"LV_EVENT_DELETE\000"
 14086      56454E54 
 14086      5F44454C 
 14086      45544500 
 14087              	.LASF239:
 14088 18c2 636C6173 		.ascii	"class_p\000"
 14088      735F7000 
 14089              	.LASF602:
 14090 18ca 70726967 		.ascii	"pright\000"
 14090      687400
 14091              	.LASF527:
 14092 18d1 4C565F45 		.ascii	"LV_EVENT_DRAW_POST_BEGIN\000"
 14092      56454E54 
 14092      5F445241 
 14092      575F504F 
 14092      53545F42 
 14093              	.LASF14:
 14094 18ea 756E7369 		.ascii	"unsigned int\000"
 14094      676E6564 
 14094      20696E74 
 14094      00
 14095              	.LASF614:
 14096 18f7 6C616265 		.ascii	"label_dsc\000"
 14096      6C5F6473 
 14096      6300
 14097              	.LASF416:
 14098 1901 64697370 		.ascii	"disp\000"
 14098      00
 14099              	.LASF195:
 14100 1906 4C565F49 		.ascii	"LV_IMG_CF_TRUE_COLOR_ALPHA\000"
 14100      4D475F43 
 14100      465F5452 
 14100      55455F43 
 14100      4F4C4F52 
 14101              	.LASF315:
 14102 1921 636C6970 		.ascii	"clip_area\000"
 14102      5F617265 
 14102      6100
 14103              	.LASF89:
 14104 192b 6C765F73 		.ascii	"lv_style_value_t\000"
 14104      74796C65 
 14104      5F76616C 
 14104      75655F74 
 14104      00
 14105              	.LASF204:
 14106 193c 4C565F49 		.ascii	"LV_IMG_CF_ALPHA_8BIT\000"
ARM GAS  C:\Users\haske\AppData\Local\Temp\ccGWO5DZ.s 			page 297


 14106      4D475F43 
 14106      465F414C 
 14106      5048415F 
 14106      38424954 
 14107              	.LASF663:
 14108 1951 6C765F6F 		.ascii	"lv_obj_class_create_obj\000"
 14108      626A5F63 
 14108      6C617373 
 14108      5F637265 
 14108      6174655F 
 14109              	.LASF661:
 14110 1969 6C765F6F 		.ascii	"lv_obj_clear_flag\000"
 14110      626A5F63 
 14110      6C656172 
 14110      5F666C61 
 14110      6700
 14111              	.LASF281:
 14112 197b 73656C5F 		.ascii	"sel_end\000"
 14112      656E6400 
 14113              	.LASF178:
 14114 1983 5F4C565F 		.ascii	"_LV_STYLE_PROP_CONST\000"
 14114      5354594C 
 14114      455F5052 
 14114      4F505F43 
 14114      4F4E5354 
 14115              	.LASF319:
 14116 1998 61726561 		.ascii	"area_full\000"
 14116      5F66756C 
 14116      6C00
 14117              	.LASF198:
 14118 19a2 4C565F49 		.ascii	"LV_IMG_CF_INDEXED_2BIT\000"
 14118      4D475F43 
 14118      465F494E 
 14118      44455845 
 14118      445F3242 
 14119              	.LASF288:
 14120 19b9 666C6167 		.ascii	"flag\000"
 14120      00
 14121              	.LASF394:
 14122 19be 5F6C765F 		.ascii	"_lv_disp_t\000"
 14122      64697370 
 14122      5F7400
 14123              	.LASF532:
 14124 19c9 4C565F45 		.ascii	"LV_EVENT_VALUE_CHANGED\000"
 14124      56454E54 
 14124      5F56414C 
 14124      55455F43 
 14124      48414E47 
 14125              	.LASF318:
 14126 19e0 5F6C765F 		.ascii	"_lv_draw_layer_ctx_t\000"
 14126      64726177 
 14126      5F6C6179 
 14126      65725F63 
 14126      74785F74 
 14127              	.LASF271:
 14128 19f5 6F75746C 		.ascii	"outline_opa\000"
 14128      696E655F 
ARM GAS  C:\Users\haske\AppData\Local\Temp\ccGWO5DZ.s 			page 298


 14128      6F706100 
 14129              	.LASF409:
 14130 1a01 696E765F 		.ascii	"inv_areas\000"
 14130      61726561 
 14130      7300
 14131              	.LASF199:
 14132 1a0b 4C565F49 		.ascii	"LV_IMG_CF_INDEXED_4BIT\000"
 14132      4D475F43 
 14132      465F494E 
 14132      44455845 
 14132      445F3442 
 14133              	.LASF321:
 14134 1a22 6D61785F 		.ascii	"max_row_with_alpha\000"
 14134      726F775F 
 14134      77697468 
 14134      5F616C70 
 14134      686100
 14135              	.LASF454:
 14136 1a35 4C565F4F 		.ascii	"LV_OBJ_FLAG_SCROLL_ON_FOCUS\000"
 14136      424A5F46 
 14136      4C41475F 
 14136      5343524F 
 14136      4C4C5F4F 
 14137              	.LASF296:
 14138 1a51 6672616D 		.ascii	"frame_id\000"
 14138      655F6964 
 14138      00
 14139              	.LASF207:
 14140 1a5a 4C565F49 		.ascii	"LV_IMG_CF_RGBX8888\000"
 14140      4D475F43 
 14140      465F5247 
 14140      42583838 
 14140      383800
 14141              	.LASF295:
 14142 1a6d 7265636F 		.ascii	"recolor_opa\000"
 14142      6C6F725F 
 14142      6F706100 
 14143              	.LASF100:
 14144 1a79 4C565F53 		.ascii	"LV_STYLE_LAYOUT\000"
 14144      54594C45 
 14144      5F4C4159 
 14144      4F555400 
 14145              	.LASF575:
 14146 1a89 6F666673 		.ascii	"offset\000"
 14146      657400
 14147              	.LASF43:
 14148 1a90 6C765F66 		.ascii	"lv_font_glyph_dsc_t\000"
 14148      6F6E745F 
 14148      676C7970 
 14148      685F6473 
 14148      635F7400 
 14149              	.LASF646:
 14150 1aa4 5F6C765F 		.ascii	"_lv_area_is_in\000"
 14150      61726561 
 14150      5F69735F 
 14150      696E00
 14151              	.LASF621:
ARM GAS  C:\Users\haske\AppData\Local\Temp\ccGWO5DZ.s 			page 299


 14152 1ab3 6C765F69 		.ascii	"lv_img_set_src\000"
 14152      6D675F73 
 14152      65745F73 
 14152      726300
 14153              	.LASF542:
 14154 1ac2 4C565F45 		.ascii	"LV_EVENT_SCREEN_LOAD_START\000"
 14154      56454E54 
 14154      5F534352 
 14154      45454E5F 
 14154      4C4F4144 
 14155              	.LASF502:
 14156 1add 73746F70 		.ascii	"stop_bubbling\000"
 14156      5F627562 
 14156      626C696E 
 14156      6700
 14157              	.LASF269:
 14158 1aeb 6F75746C 		.ascii	"outline_width\000"
 14158      696E655F 
 14158      77696474 
 14158      6800
 14159              	.LASF132:
 14160 1af9 4C565F53 		.ascii	"LV_STYLE_SHADOW_WIDTH\000"
 14160      54594C45 
 14160      5F534841 
 14160      444F575F 
 14160      57494454 
 14161              	.LASF200:
 14162 1b0f 4C565F49 		.ascii	"LV_IMG_CF_INDEXED_8BIT\000"
 14162      4D475F43 
 14162      465F494E 
 14162      44455845 
 14162      445F3842 
 14163              	.LASF193:
 14164 1b26 4C565F49 		.ascii	"LV_IMG_CF_RAW_CHROMA_KEYED\000"
 14164      4D475F43 
 14164      465F5241 
 14164      575F4348 
 14164      524F4D41 
 14165              	.LASF461:
 14166 1b41 4C565F4F 		.ascii	"LV_OBJ_FLAG_IGNORE_LAYOUT\000"
 14166      424A5F46 
 14166      4C41475F 
 14166      49474E4F 
 14166      52455F4C 
 14167              	.LASF109:
 14168 1b5b 4C565F53 		.ascii	"LV_STYLE_CLIP_CORNER\000"
 14168      54594C45 
 14168      5F434C49 
 14168      505F434F 
 14168      524E4552 
 14169              	.LASF196:
 14170 1b70 4C565F49 		.ascii	"LV_IMG_CF_TRUE_COLOR_CHROMA_KEYED\000"
 14170      4D475F43 
 14170      465F5452 
 14170      55455F43 
 14170      4F4C4F52 
 14171              	.LASF71:
ARM GAS  C:\Users\haske\AppData\Local\Temp\ccGWO5DZ.s 			page 300


 14172 1b92 4C565F54 		.ascii	"LV_TEXT_FLAG_RECOLOR\000"
 14172      4558545F 
 14172      464C4147 
 14172      5F524543 
 14172      4F4C4F52 
 14173              	.LASF297:
 14174 1ba7 616E7469 		.ascii	"antialias\000"
 14174      616C6961 
 14174      7300
 14175              	.LASF485:
 14176 1bb1 62617365 		.ascii	"base_class\000"
 14176      5F636C61 
 14176      737300
 14177              	.LASF62:
 14178 1bbc 4C565F4F 		.ascii	"LV_OPA_100\000"
 14178      50415F31 
 14178      303000
 14179              	.LASF510:
 14180 1bc7 4C565F45 		.ascii	"LV_EVENT_LONG_PRESSED_REPEAT\000"
 14180      56454E54 
 14180      5F4C4F4E 
 14180      475F5052 
 14180      45535345 
 14181              	.LASF613:
 14182 1be4 636F6F72 		.ascii	"coords_tmp\000"
 14182      64735F74 
 14182      6D7000
 14183              	.LASF626:
 14184 1bef 6C765F69 		.ascii	"lv_img_set_zoom\000"
 14184      6D675F73 
 14184      65745F7A 
 14184      6F6F6D00 
 14185              	.LASF426:
 14186 1bff 666F6375 		.ascii	"focus_cb\000"
 14186      735F6362 
 14186      00
 14187              	.LASF220:
 14188 1c08 4C565F49 		.ascii	"LV_IMG_CF_USER_ENCODED_0\000"
 14188      4D475F43 
 14188      465F5553 
 14188      45525F45 
 14188      4E434F44 
 14189              	.LASF221:
 14190 1c21 4C565F49 		.ascii	"LV_IMG_CF_USER_ENCODED_1\000"
 14190      4D475F43 
 14190      465F5553 
 14190      45525F45 
 14190      4E434F44 
 14191              	.LASF222:
 14192 1c3a 4C565F49 		.ascii	"LV_IMG_CF_USER_ENCODED_2\000"
 14192      4D475F43 
 14192      465F5553 
 14192      45525F45 
 14192      4E434F44 
 14193              	.LASF223:
 14194 1c53 4C565F49 		.ascii	"LV_IMG_CF_USER_ENCODED_3\000"
 14194      4D475F43 
ARM GAS  C:\Users\haske\AppData\Local\Temp\ccGWO5DZ.s 			page 301


 14194      465F5553 
 14194      45525F45 
 14194      4E434F44 
 14195              	.LASF224:
 14196 1c6c 4C565F49 		.ascii	"LV_IMG_CF_USER_ENCODED_4\000"
 14196      4D475F43 
 14196      465F5553 
 14196      45525F45 
 14196      4E434F44 
 14197              	.LASF225:
 14198 1c85 4C565F49 		.ascii	"LV_IMG_CF_USER_ENCODED_5\000"
 14198      4D475F43 
 14198      465F5553 
 14198      45525F45 
 14198      4E434F44 
 14199              	.LASF226:
 14200 1c9e 4C565F49 		.ascii	"LV_IMG_CF_USER_ENCODED_6\000"
 14200      4D475F43 
 14200      465F5553 
 14200      45525F45 
 14200      4E434F44 
 14201              	.LASF227:
 14202 1cb7 4C565F49 		.ascii	"LV_IMG_CF_USER_ENCODED_7\000"
 14202      4D475F43 
 14202      465F5553 
 14202      45525F45 
 14202      4E434F44 
 14203              	.LASF48:
 14204 1cd0 6C765F72 		.ascii	"lv_res_t\000"
 14204      65735F74 
 14204      00
 14205              	.LASF421:
 14206 1cd9 666F6E74 		.ascii	"font_large\000"
 14206      5F6C6172 
 14206      676500
 14207              	.LASF161:
 14208 1ce4 4C565F53 		.ascii	"LV_STYLE_COLOR_FILTER_OPA\000"
 14208      54594C45 
 14208      5F434F4C 
 14208      4F525F46 
 14208      494C5445 
 14209              	.LASF360:
 14210 1cfe 6275665F 		.ascii	"buf_act\000"
 14210      61637400 
 14211              	.LASF22:
 14212 1d06 6C6F6E67 		.ascii	"long double\000"
 14212      20646F75 
 14212      626C6500 
 14213              	.LASF619:
 14214 1d12 6E65775F 		.ascii	"new_str\000"
 14214      73747200 
 14215              	.LASF475:
 14216 1d1a 7374796C 		.ascii	"style\000"
 14216      6500
 14217              	.LASF81:
 14218 1d20 6C765F64 		.ascii	"lv_dither_mode_t\000"
 14218      69746865 
ARM GAS  C:\Users\haske\AppData\Local\Temp\ccGWO5DZ.s 			page 302


 14218      725F6D6F 
 14218      64655F74 
 14218      00
 14219              	.LASF474:
 14220 1d31 6C765F73 		.ascii	"lv_scroll_snap_t\000"
 14220      63726F6C 
 14220      6C5F736E 
 14220      61705F74 
 14220      00
 14221              	.LASF611:
 14222 1d42 696D675F 		.ascii	"img_clip_area\000"
 14222      636C6970 
 14222      5F617265 
 14222      6100
 14223              	.LASF677:
 14224 1d50 6C765F6F 		.ascii	"lv_obj_invalidate_area\000"
 14224      626A5F69 
 14224      6E76616C 
 14224      69646174 
 14224      655F6172 
 14225              	.LASF497:
 14226 1d67 636F6465 		.ascii	"code\000"
 14226      00
 14227              	.LASF578:
 14228 1d6c 6C765F69 		.ascii	"lv_img_t\000"
 14228      6D675F74 
 14228      00
 14229              	.LASF38:
 14230 1d75 73756270 		.ascii	"subpx\000"
 14230      7800
 14231              	.LASF63:
 14232 1d7b 4C565F4F 		.ascii	"LV_OPA_COVER\000"
 14232      50415F43 
 14232      4F564552 
 14232      00
 14233              	.LASF336:
 14234 1d88 77616974 		.ascii	"wait_for_finish\000"
 14234      5F666F72 
 14234      5F66696E 
 14234      69736800 
 14235              	.LASF433:
 14236 1d98 4C565F50 		.ascii	"LV_PART_MAIN\000"
 14236      4152545F 
 14236      4D41494E 
 14236      00
 14237              	.LASF625:
 14238 1da5 6C765F69 		.ascii	"lv_img_set_pivot\000"
 14238      6D675F73 
 14238      65745F70 
 14238      69766F74 
 14238      00
 14239              	.LASF261:
 14240 1db6 62675F69 		.ascii	"bg_img_recolor_opa\000"
 14240      6D675F72 
 14240      65636F6C 
 14240      6F725F6F 
 14240      706100
ARM GAS  C:\Users\haske\AppData\Local\Temp\ccGWO5DZ.s 			page 303


 14241              	.LASF313:
 14242 1dc9 4C565F44 		.ascii	"LV_DRAW_LAYER_FLAG_CAN_SUBDIVIDE\000"
 14242      5241575F 
 14242      4C415945 
 14242      525F464C 
 14242      41475F43 
 14243              	.LASF506:
 14244 1dea 4C565F45 		.ascii	"LV_EVENT_PRESSING\000"
 14244      56454E54 
 14244      5F505245 
 14244      5353494E 
 14244      4700
 14245              	.LASF353:
 14246 1dfc 74696D65 		.ascii	"timer_cb\000"
 14246      725F6362 
 14246      00
 14247              	.LASF505:
 14248 1e05 4C565F45 		.ascii	"LV_EVENT_PRESSED\000"
 14248      56454E54 
 14248      5F505245 
 14248      53534544 
 14248      00
 14249              	.LASF213:
 14250 1e16 4C565F49 		.ascii	"LV_IMG_CF_RESERVED_17\000"
 14250      4D475F43 
 14250      465F5245 
 14250      53455256 
 14250      45445F31 
 14251              	.LASF536:
 14252 1e2c 4C565F45 		.ascii	"LV_EVENT_CANCEL\000"
 14252      56454E54 
 14252      5F43414E 
 14252      43454C00 
 14253              	.LASF215:
 14254 1e3c 4C565F49 		.ascii	"LV_IMG_CF_RESERVED_19\000"
 14254      4D475F43 
 14254      465F5245 
 14254      53455256 
 14254      45445F31 
 14255              	.LASF438:
 14256 1e52 4C565F50 		.ascii	"LV_PART_ITEMS\000"
 14256      4152545F 
 14256      4954454D 
 14256      5300
 14257              	.LASF123:
 14258 1e60 4C565F53 		.ascii	"LV_STYLE_BORDER_COLOR\000"
 14258      54594C45 
 14258      5F424F52 
 14258      4445525F 
 14258      434F4C4F 
 14259              	.LASF388:
 14260 1e76 72656E64 		.ascii	"render_start_cb\000"
 14260      65725F73 
 14260      74617274 
 14260      5F636200 
 14261              	.LASF387:
 14262 1e86 6472765F 		.ascii	"drv_update_cb\000"
ARM GAS  C:\Users\haske\AppData\Local\Temp\ccGWO5DZ.s 			page 304


 14262      75706461 
 14262      74655F63 
 14262      6200
 14263              	.LASF0:
 14264 1e94 5F5F696E 		.ascii	"__int8_t\000"
 14264      74385F74 
 14264      00
 14265              	.LASF549:
 14266 1e9d 5F4C565F 		.ascii	"_LV_EVENT_LAST\000"
 14266      4556454E 
 14266      545F4C41 
 14266      535400
 14267              	.LASF429:
 14268 1eac 65646974 		.ascii	"editing\000"
 14268      696E6700 
 14269              	.LASF370:
 14270 1eb4 70687973 		.ascii	"physical_hor_res\000"
 14270      6963616C 
 14270      5F686F72 
 14270      5F726573 
 14270      00
 14271              	.LASF631:
 14272 1ec5 6C765F69 		.ascii	"lv_img_get_src\000"
 14272      6D675F67 
 14272      65745F73 
 14272      726300
 14273              	.LASF361:
 14274 1ed4 73697A65 		.ascii	"size\000"
 14274      00
 14275              	.LASF322:
 14276 1ed9 6D61785F 		.ascii	"max_row_with_no_alpha\000"
 14276      726F775F 
 14276      77697468 
 14276      5F6E6F5F 
 14276      616C7068 
 14277              	.LASF13:
 14278 1eef 6C6F6E67 		.ascii	"long long unsigned int\000"
 14278      206C6F6E 
 14278      6720756E 
 14278      7369676E 
 14278      65642069 
 14279              	.LASF403:
 14280 1f06 7379735F 		.ascii	"sys_layer\000"
 14280      6C617965 
 14280      7200
 14281              	.LASF115:
 14282 1f10 4C565F53 		.ascii	"LV_STYLE_BG_GRAD_STOP\000"
 14282      54594C45 
 14282      5F42475F 
 14282      47524144 
 14282      5F53544F 
 14283              	.LASF126:
 14284 1f26 4C565F53 		.ascii	"LV_STYLE_BORDER_SIDE\000"
 14284      54594C45 
 14284      5F424F52 
 14284      4445525F 
 14284      53494445 
ARM GAS  C:\Users\haske\AppData\Local\Temp\ccGWO5DZ.s 			page 305


 14285              	.LASF557:
 14286 1f3b 6C765F67 		.ascii	"lv_group_focus_cb_t\000"
 14286      726F7570 
 14286      5F666F63 
 14286      75735F63 
 14286      625F7400 
 14287              	.LASF484:
 14288 1f4f 5F6C765F 		.ascii	"_lv_obj_class_t\000"
 14288      6F626A5F 
 14288      636C6173 
 14288      735F7400 
 14289              	.LASF278:
 14290 1f5f 6C765F64 		.ascii	"lv_draw_rect_dsc_t\000"
 14290      7261775F 
 14290      72656374 
 14290      5F647363 
 14290      5F7400
 14291              	.LASF445:
 14292 1f72 4C565F4F 		.ascii	"LV_OBJ_FLAG_CLICK_FOCUSABLE\000"
 14292      424A5F46 
 14292      4C41475F 
 14292      434C4943 
 14292      4B5F464F 
 14293              	.LASF18:
 14294 1f8e 75696E74 		.ascii	"uint16_t\000"
 14294      31365F74 
 14294      00
 14295              	.LASF47:
 14296 1f97 4C565F52 		.ascii	"LV_RES_OK\000"
 14296      45535F4F 
 14296      4B00
 14297              	.LASF643:
 14298 1fa1 6C765F6F 		.ascii	"lv_obj_get_style_prop\000"
 14298      626A5F67 
 14298      65745F73 
 14298      74796C65 
 14298      5F70726F 
 14299              	.LASF352:
 14300 1fb7 6C617374 		.ascii	"last_run\000"
 14300      5F72756E 
 14300      00
 14301              	.LASF210:
 14302 1fc0 4C565F49 		.ascii	"LV_IMG_CF_RGB565A8\000"
 14302      4D475F43 
 14302      465F5247 
 14302      42353635 
 14302      413800
 14303              	.LASF431:
 14304 1fd3 77726170 		.ascii	"wrap\000"
 14304      00
 14305              	.LASF653:
 14306 1fd8 6C765F6F 		.ascii	"lv_obj_init_draw_label_dsc\000"
 14306      626A5F69 
 14306      6E69745F 
 14306      64726177 
 14306      5F6C6162 
 14307              	.LASF68:
ARM GAS  C:\Users\haske\AppData\Local\Temp\ccGWO5DZ.s 			page 306


 14308 1ff3 6C765F63 		.ascii	"lv_color_t\000"
 14308      6F6C6F72 
 14308      5F7400
 14309              	.LASF331:
 14310 1ffe 64726177 		.ascii	"draw_letter\000"
 14310      5F6C6574 
 14310      74657200 
 14311              	.LASF603:
 14312 200a 70746F70 		.ascii	"ptop\000"
 14312      00
 14313              	.LASF580:
 14314 200f 4C565F49 		.ascii	"LV_IMG_SIZE_MODE_REAL\000"
 14314      4D475F53 
 14314      495A455F 
 14314      4D4F4445 
 14314      5F524541 
 14315              	.LASF190:
 14316 2025 4C565F49 		.ascii	"LV_IMG_CF_UNKNOWN\000"
 14316      4D475F43 
 14316      465F554E 
 14316      4B4E4F57 
 14316      4E00
 14317              	.LASF91:
 14318 2037 4C565F53 		.ascii	"LV_STYLE_WIDTH\000"
 14318      54594C45 
 14318      5F574944 
 14318      544800
 14319              	.LASF583:
 14320 2046 6C765F61 		.ascii	"lv_area_get_height\000"
 14320      7265615F 
 14320      6765745F 
 14320      68656967 
 14320      687400
 14321              	.LASF264:
 14322 2059 626F7264 		.ascii	"border_width\000"
 14322      65725F77 
 14322      69647468 
 14322      00
 14323              	.LASF92:
 14324 2066 4C565F53 		.ascii	"LV_STYLE_MIN_WIDTH\000"
 14324      54594C45 
 14324      5F4D494E 
 14324      5F574944 
 14324      544800
 14325              	.LASF74:
 14326 2079 6C765F74 		.ascii	"lv_text_flag_t\000"
 14326      6578745F 
 14326      666C6167 
 14326      5F7400
 14327              	.LASF649:
 14328 2088 6C765F6F 		.ascii	"lv_obj_init_draw_img_dsc\000"
 14328      626A5F69 
 14328      6E69745F 
 14328      64726177 
 14328      5F696D67 
 14329              	.LASF133:
 14330 20a1 4C565F53 		.ascii	"LV_STYLE_SHADOW_OFS_X\000"
ARM GAS  C:\Users\haske\AppData\Local\Temp\ccGWO5DZ.s 			page 307


 14330      54594C45 
 14330      5F534841 
 14330      444F575F 
 14330      4F46535F 
 14331              	.LASF134:
 14332 20b7 4C565F53 		.ascii	"LV_STYLE_SHADOW_OFS_Y\000"
 14332      54594C45 
 14332      5F534841 
 14332      444F575F 
 14332      4F46535F 
 14333              	.LASF451:
 14334 20cd 4C565F4F 		.ascii	"LV_OBJ_FLAG_SCROLL_CHAIN_HOR\000"
 14334      424A5F46 
 14334      4C41475F 
 14334      5343524F 
 14334      4C4C5F43 
 14335              	.LASF634:
 14336 20ea 6C765F69 		.ascii	"lv_img_get_angle\000"
 14336      6D675F67 
 14336      65745F61 
 14336      6E676C65 
 14336      00
 14337              	.LASF53:
 14338 20fb 4C565F4F 		.ascii	"LV_OPA_10\000"
 14338      50415F31 
 14338      3000
 14339              	.LASF118:
 14340 2105 4C565F53 		.ascii	"LV_STYLE_BG_IMG_SRC\000"
 14340      54594C45 
 14340      5F42475F 
 14340      494D475F 
 14340      53524300 
 14341              	.LASF194:
 14342 2119 4C565F49 		.ascii	"LV_IMG_CF_TRUE_COLOR\000"
 14342      4D475F43 
 14342      465F5452 
 14342      55455F43 
 14342      4F4C4F52 
 14343              	.LASF151:
 14344 212e 4C565F53 		.ascii	"LV_STYLE_ARC_IMG_SRC\000"
 14344      54594C45 
 14344      5F415243 
 14344      5F494D47 
 14344      5F535243 
 14345              	.LASF183:
 14346 2143 76616C75 		.ascii	"value1\000"
 14346      653100
 14347              	.LASF374:
 14348 214a 64726177 		.ascii	"draw_buf\000"
 14348      5F627566 
 14348      00
 14349              	.LASF351:
 14350 2153 70657269 		.ascii	"period\000"
 14350      6F6400
 14351              	.LASF381:
 14352 215a 726F756E 		.ascii	"rounder_cb\000"
 14352      6465725F 
ARM GAS  C:\Users\haske\AppData\Local\Temp\ccGWO5DZ.s 			page 308


 14352      636200
 14353              	.LASF289:
 14354 2165 6465636F 		.ascii	"decor\000"
 14354      7200
 14355              	.LASF4:
 14356 216b 5F5F696E 		.ascii	"__int16_t\000"
 14356      7431365F 
 14356      7400
 14357              	.LASF339:
 14358 2175 6C617965 		.ascii	"layer_adjust\000"
 14358      725F6164 
 14358      6A757374 
 14358      00
 14359              	.LASF154:
 14360 2182 4C565F53 		.ascii	"LV_STYLE_TEXT_FONT\000"
 14360      54594C45 
 14360      5F544558 
 14360      545F464F 
 14360      4E5400
 14361              	.LASF672:
 14362 2195 6C765F6F 		.ascii	"lv_obj_refresh_self_size\000"
 14362      626A5F72 
 14362      65667265 
 14362      73685F73 
 14362      656C665F 
 14363              	.LASF544:
 14364 21ae 4C565F45 		.ascii	"LV_EVENT_SCREEN_UNLOADED\000"
 14364      56454E54 
 14364      5F534352 
 14364      45454E5F 
 14364      554E4C4F 
 14365              	.LASF177:
 14366 21c7 4C565F53 		.ascii	"LV_STYLE_PROP_ANY\000"
 14366      54594C45 
 14366      5F50524F 
 14366      505F414E 
 14366      5900
 14367              	.LASF593:
 14368 21d9 64657374 		.ascii	"dest\000"
 14368      00
 14369              	.LASF645:
 14370 21de 6C765F6F 		.ascii	"lv_obj_get_height\000"
 14370      626A5F67 
 14370      65745F68 
 14370      65696768 
 14370      7400
 14371              	.LASF66:
 14372 21f0 66756C6C 		.ascii	"full\000"
 14372      00
 14373              	.LASF640:
 14374 21f5 6C765F6F 		.ascii	"lv_obj_class\000"
 14374      626A5F63 
 14374      6C617373 
 14374      00
 14375              	.LASF324:
 14376 2202 6C765F64 		.ascii	"lv_draw_layer_ctx_t\000"
 14376      7261775F 
ARM GAS  C:\Users\haske\AppData\Local\Temp\ccGWO5DZ.s 			page 309


 14376      6C617965 
 14376      725F6374 
 14376      785F7400 
 14377              	.LASF54:
 14378 2216 4C565F4F 		.ascii	"LV_OPA_20\000"
 14378      50415F32 
 14378      3000
 14379              	.LASF82:
 14380 2220 636F6C6F 		.ascii	"color\000"
 14380      7200
 14381              	.LASF293:
 14382 2226 7069766F 		.ascii	"pivot\000"
 14382      7400
 14383              	.LASF85:
 14384 222c 73746F70 		.ascii	"stops\000"
 14384      7300
 14385              	.LASF284:
 14386 2232 6C696E65 		.ascii	"line_space\000"
 14386      5F737061 
 14386      636500
 14387              	.LASF340:
 14388 223d 6C617965 		.ascii	"layer_blend\000"
 14388      725F626C 
 14388      656E6400 
 14389              	.LASF607:
 14390 2249 6F72695F 		.ascii	"ori_coords\000"
 14390      636F6F72 
 14390      647300
 14391              	.LASF487:
 14392 2254 64657374 		.ascii	"destructor_cb\000"
 14392      72756374 
 14392      6F725F63 
 14392      6200
 14393              	.LASF79:
 14394 2262 6C765F62 		.ascii	"lv_border_side_t\000"
 14394      6F726465 
 14394      725F7369 
 14394      64655F74 
 14394      00
 14395              	.LASF83:
 14396 2273 66726163 		.ascii	"frac\000"
 14396      00
 14397              	.LASF238:
 14398 2278 5F6C765F 		.ascii	"_lv_obj_t\000"
 14398      6F626A5F 
 14398      7400
 14399              	.LASF279:
 14400 2282 666F6E74 		.ascii	"font\000"
 14400      00
 14401              	.LASF285:
 14402 2287 6C657474 		.ascii	"letter_space\000"
 14402      65725F73 
 14402      70616365 
 14402      00
 14403              	.LASF96:
 14404 2294 4C565F53 		.ascii	"LV_STYLE_MAX_HEIGHT\000"
 14404      54594C45 
ARM GAS  C:\Users\haske\AppData\Local\Temp\ccGWO5DZ.s 			page 310


 14404      5F4D4158 
 14404      5F484549 
 14404      47485400 
 14405              	.LASF55:
 14406 22a8 4C565F4F 		.ascii	"LV_OPA_30\000"
 14406      50415F33 
 14406      3000
 14407              	.LASF414:
 14408 22b2 5F6C765F 		.ascii	"_lv_theme_t\000"
 14408      7468656D 
 14408      655F7400 
 14409              	.LASF310:
 14410 22be 6C765F64 		.ascii	"lv_draw_arc_dsc_t\000"
 14410      7261775F 
 14410      6172635F 
 14410      6473635F 
 14410      7400
 14411              	.LASF112:
 14412 22d0 4C565F53 		.ascii	"LV_STYLE_BG_GRAD_COLOR\000"
 14412      54594C45 
 14412      5F42475F 
 14412      47524144 
 14412      5F434F4C 
 14413              	.LASF400:
 14414 22e7 70726576 		.ascii	"prev_scr\000"
 14414      5F736372 
 14414      00
 14415              	.LASF30:
 14416 22f0 626F785F 		.ascii	"box_h\000"
 14416      6800
 14417              	.LASF259:
 14418 22f6 62675F69 		.ascii	"bg_img_recolor\000"
 14418      6D675F72 
 14418      65636F6C 
 14418      6F7200
 14419              	.LASF67:
 14420 2305 6C765F63 		.ascii	"lv_color16_t\000"
 14420      6F6C6F72 
 14420      31365F74 
 14420      00
 14421              	.LASF29:
 14422 2312 626F785F 		.ascii	"box_w\000"
 14422      7700
 14423              	.LASF5:
 14424 2318 73686F72 		.ascii	"short int\000"
 14424      7420696E 
 14424      7400
 14425              	.LASF37:
 14426 2322 62617365 		.ascii	"base_line\000"
 14426      5F6C696E 
 14426      6500
 14427              	.LASF411:
 14428 232c 696E765F 		.ascii	"inv_p\000"
 14428      7000
 14429              	.LASF348:
 14430 2332 6C765F6C 		.ascii	"lv_ll_t\000"
 14430      6C5F7400 
ARM GAS  C:\Users\haske\AppData\Local\Temp\ccGWO5DZ.s 			page 311


 14431              	.LASF233:
 14432 233a 4C565F49 		.ascii	"LV_IMG_SRC_FILE\000"
 14432      4D475F53 
 14432      52435F46 
 14432      494C4500 
 14433              	.LASF457:
 14434 234a 4C565F4F 		.ascii	"LV_OBJ_FLAG_PRESS_LOCK\000"
 14434      424A5F46 
 14434      4C41475F 
 14434      50524553 
 14434      535F4C4F 
 14435              	.LASF673:
 14436 2361 6C765F6F 		.ascii	"lv_obj_refresh_ext_draw_size\000"
 14436      626A5F72 
 14436      65667265 
 14436      73685F65 
 14436      78745F64 
 14437              	.LASF629:
 14438 237e 6D6F6465 		.ascii	"mode\000"
 14438      00
 14439              	.LASF529:
 14440 2383 4C565F45 		.ascii	"LV_EVENT_DRAW_POST_END\000"
 14440      56454E54 
 14440      5F445241 
 14440      575F504F 
 14440      53545F45 
 14441              	.LASF530:
 14442 239a 4C565F45 		.ascii	"LV_EVENT_DRAW_PART_BEGIN\000"
 14442      56454E54 
 14442      5F445241 
 14442      575F5041 
 14442      52545F42 
 14443              	.LASF260:
 14444 23b3 62675F69 		.ascii	"bg_img_opa\000"
 14444      6D675F6F 
 14444      706100
 14445              	.LASF612:
 14446 23be 636C6970 		.ascii	"clip_area_ori\000"
 14446      5F617265 
 14446      615F6F72 
 14446      6900
 14447              	.LASF277:
 14448 23cc 73686164 		.ascii	"shadow_opa\000"
 14448      6F775F6F 
 14448      706100
 14449              	.LASF149:
 14450 23d7 4C565F53 		.ascii	"LV_STYLE_ARC_COLOR\000"
 14450      54594C45 
 14450      5F415243 
 14450      5F434F4C 
 14450      4F5200
 14451              	.LASF56:
 14452 23ea 4C565F4F 		.ascii	"LV_OPA_40\000"
 14452      50415F34 
 14452      3000
 14453              	.LASF17:
 14454 23f4 696E7431 		.ascii	"int16_t\000"
ARM GAS  C:\Users\haske\AppData\Local\Temp\ccGWO5DZ.s 			page 312


 14454      365F7400 
 14455              	.LASF671:
 14456 23fc 6C765F69 		.ascii	"lv_img_decoder_get_info\000"
 14456      6D675F64 
 14456      65636F64 
 14456      65725F67 
 14456      65745F69 
 14457              	.LASF412:
 14458 2414 696E765F 		.ascii	"inv_en_cnt\000"
 14458      656E5F63 
 14458      6E7400
 14459              	.LASF317:
 14460 241f 73637265 		.ascii	"screen_transp\000"
 14460      656E5F74 
 14460      72616E73 
 14460      7000
 14461              	.LASF243:
 14462 242d 636F6F72 		.ascii	"coords\000"
 14462      647300
 14463              	.LASF565:
 14464 2434 6578745F 		.ascii	"ext_click_pad\000"
 14464      636C6963 
 14464      6B5F7061 
 14464      6400
 14465              	.LASF642:
 14466 2442 5F6C765F 		.ascii	"_lv_img_buf_get_transformed_area\000"
 14466      696D675F 
 14466      6275665F 
 14466      6765745F 
 14466      7472616E 
 14467              	.LASF176:
 14468 2463 5F4C565F 		.ascii	"_LV_STYLE_NUM_BUILT_IN_PROPS\000"
 14468      5354594C 
 14468      455F4E55 
 14468      4D5F4255 
 14468      494C545F 
 14469              	.LASF102:
 14470 2480 4C565F53 		.ascii	"LV_STYLE_PAD_TOP\000"
 14470      54594C45 
 14470      5F504144 
 14470      5F544F50 
 14470      00
 14471              	.LASF406:
 14472 2491 64656C5F 		.ascii	"del_prev\000"
 14472      70726576 
 14472      00
 14473              	.LASF657:
 14474 249a 6C765F6F 		.ascii	"lv_obj_event_base\000"
 14474      626A5F65 
 14474      76656E74 
 14474      5F626173 
 14474      6500
 14475              	.LASF408:
 14476 24ac 62675F69 		.ascii	"bg_img\000"
 14476      6D6700
 14477              	.LASF441:
 14478 24b3 4C565F50 		.ascii	"LV_PART_CUSTOM_FIRST\000"
ARM GAS  C:\Users\haske\AppData\Local\Temp\ccGWO5DZ.s 			page 313


 14478      4152545F 
 14478      43555354 
 14478      4F4D5F46 
 14478      49525354 
 14479              	.LASF119:
 14480 24c8 4C565F53 		.ascii	"LV_STYLE_BG_IMG_OPA\000"
 14480      54594C45 
 14480      5F42475F 
 14480      494D475F 
 14480      4F504100 
 14481              	.LASF141:
 14482 24dc 4C565F53 		.ascii	"LV_STYLE_LINE_WIDTH\000"
 14482      54594C45 
 14482      5F4C494E 
 14482      455F5749 
 14482      44544800 
 14483              	.LASF57:
 14484 24f0 4C565F4F 		.ascii	"LV_OPA_50\000"
 14484      50415F35 
 14484      3000
 14485              	.LASF584:
 14486 24fa 6C765F61 		.ascii	"lv_area_get_width\000"
 14486      7265615F 
 14486      6765745F 
 14486      77696474 
 14486      6800
 14487              	.LASF682:
 14488 250c 433A5C50 		.ascii	"C:\\Projects\\PainDrain\\firmware\\PainDrain\\PainD"
 14488      726F6A65 
 14488      6374735C 
 14488      5061696E 
 14488      44726169 
 14489 253a 7261696E 		.ascii	"rain.cydsn\000"
 14489      2E637964 
 14489      736E00
 14490              	.LASF665:
 14491 2545 7374726C 		.ascii	"strlen\000"
 14491      656E00
 14492              	.LASF597:
 14493 254c 61726561 		.ascii	"area_transform\000"
 14493      5F747261 
 14493      6E73666F 
 14493      726D00
 14494              	.LASF186:
 14495 255b 70726F70 		.ascii	"prop1\000"
 14495      3100
 14496              	.LASF382:
 14497 2561 7365745F 		.ascii	"set_px_cb\000"
 14497      70785F63 
 14497      6200
 14498              	.LASF514:
 14499 256b 4C565F45 		.ascii	"LV_EVENT_SCROLL_END\000"
 14499      56454E54 
 14499      5F534352 
 14499      4F4C4C5F 
 14499      454E4400 
 14500              	.LASF265:
ARM GAS  C:\Users\haske\AppData\Local\Temp\ccGWO5DZ.s 			page 314


 14501 257f 626F7264 		.ascii	"border_opa\000"
 14501      65725F6F 
 14501      706100
 14502              	.LASF95:
 14503 258a 4C565F53 		.ascii	"LV_STYLE_MIN_HEIGHT\000"
 14503      54594C45 
 14503      5F4D494E 
 14503      5F484549 
 14503      47485400 
 14504              	.LASF519:
 14505 259e 4C565F45 		.ascii	"LV_EVENT_DEFOCUSED\000"
 14505      56454E54 
 14505      5F444546 
 14505      4F435553 
 14505      454400
 14506              	.LASF192:
 14507 25b1 4C565F49 		.ascii	"LV_IMG_CF_RAW_ALPHA\000"
 14507      4D475F43 
 14507      465F5241 
 14507      575F414C 
 14507      50484100 
 14508              	.LASF256:
 14509 25c5 62675F67 		.ascii	"bg_grad\000"
 14509      72616400 
 14510              	.LASF574:
 14511 25cd 6C765F6F 		.ascii	"lv_obj_t\000"
 14511      626A5F74 
 14511      00
 14512              	.LASF127:
 14513 25d6 4C565F53 		.ascii	"LV_STYLE_BORDER_POST\000"
 14513      54594C45 
 14513      5F424F52 
 14513      4445525F 
 14513      504F5354 
 14514              	.LASF652:
 14515 25eb 6C765F64 		.ascii	"lv_draw_label_dsc_init\000"
 14515      7261775F 
 14515      6C616265 
 14515      6C5F6473 
 14515      635F696E 
 14516              	.LASF390:
 14517 2602 64726177 		.ascii	"draw_ctx\000"
 14517      5F637478 
 14517      00
 14518              	.LASF330:
 14519 260b 64726177 		.ascii	"draw_img\000"
 14519      5F696D67 
 14519      00
 14520              	.LASF84:
 14521 2614 6C765F67 		.ascii	"lv_gradient_stop_t\000"
 14521      72616469 
 14521      656E745F 
 14521      73746F70 
 14521      5F7400
 14522              	.LASF98:
 14523 2627 4C565F53 		.ascii	"LV_STYLE_Y\000"
 14523      54594C45 
ARM GAS  C:\Users\haske\AppData\Local\Temp\ccGWO5DZ.s 			page 315


 14523      5F5900
 14524              	.LASF144:
 14525 2632 4C565F53 		.ascii	"LV_STYLE_LINE_ROUNDED\000"
 14525      54594C45 
 14525      5F4C494E 
 14525      455F524F 
 14525      554E4445 
 14526              	.LASF58:
 14527 2648 4C565F4F 		.ascii	"LV_OPA_60\000"
 14527      50415F36 
 14527      3000
 14528              	.LASF638:
 14529 2652 6C765F69 		.ascii	"lv_img_get_size_mode\000"
 14529      6D675F67 
 14529      65745F73 
 14529      697A655F 
 14529      6D6F6465 
 14530              	.LASF333:
 14531 2667 64726177 		.ascii	"draw_polygon\000"
 14531      5F706F6C 
 14531      79676F6E 
 14531      00
 14532              	.LASF546:
 14533 2674 4C565F45 		.ascii	"LV_EVENT_STYLE_CHANGED\000"
 14533      56454E54 
 14533      5F535459 
 14533      4C455F43 
 14533      48414E47 
 14534              	.LASF236:
 14535 268b 6C765F69 		.ascii	"lv_img_src_t\000"
 14535      6D675F73 
 14535      72635F74 
 14535      00
 14536              	.LASF535:
 14537 2698 4C565F45 		.ascii	"LV_EVENT_READY\000"
 14537      56454E54 
 14537      5F524541 
 14537      445900
 14538              	.LASF280:
 14539 26a7 73656C5F 		.ascii	"sel_start\000"
 14539      73746172 
 14539      7400
 14540              	.LASF528:
 14541 26b1 4C565F45 		.ascii	"LV_EVENT_DRAW_POST\000"
 14541      56454E54 
 14541      5F445241 
 14541      575F504F 
 14541      535400
 14542              	.LASF20:
 14543 26c4 75696E74 		.ascii	"uint32_t\000"
 14543      33325F74 
 14543      00
 14544              	.LASF440:
 14545 26cd 4C565F50 		.ascii	"LV_PART_CURSOR\000"
 14545      4152545F 
 14545      43555253 
 14545      4F5200
ARM GAS  C:\Users\haske\AppData\Local\Temp\ccGWO5DZ.s 			page 316


 14546              	.LASF415:
 14547 26dc 6170706C 		.ascii	"apply_cb\000"
 14547      795F6362 
 14547      00
 14548              	.LASF630:
 14549 26e5 6C765F69 		.ascii	"lv_img_create\000"
 14549      6D675F63 
 14549      72656174 
 14549      6500
 14550              	.LASF472:
 14551 26f3 6C765F6F 		.ascii	"lv_obj_flag_t\000"
 14551      626A5F66 
 14551      6C61675F 
 14551      7400
 14552              	.LASF545:
 14553 2701 4C565F45 		.ascii	"LV_EVENT_SIZE_CHANGED\000"
 14553      56454E54 
 14553      5F53495A 
 14553      455F4348 
 14553      414E4745 
 14554              	.LASF273:
 14555 2717 73686164 		.ascii	"shadow_width\000"
 14555      6F775F77 
 14555      69647468 
 14555      00
 14556              	.LASF65:
 14557 2724 67726565 		.ascii	"green\000"
 14557      6E00
 14558              	.LASF45:
 14559 272a 6C765F66 		.ascii	"lv_font_t\000"
 14559      6F6E745F 
 14559      7400
 14560              	.LASF230:
 14561 2734 72657365 		.ascii	"reserved\000"
 14561      72766564 
 14561      00
 14562              	.LASF656:
 14563 273d 6C765F6F 		.ascii	"lv_obj_get_coords\000"
 14563      626A5F67 
 14563      65745F63 
 14563      6F6F7264 
 14563      7300
 14564              	.LASF666:
 14565 274f 6C765F6D 		.ascii	"lv_mem_alloc\000"
 14565      656D5F61 
 14565      6C6C6F63 
 14565      00
 14566              	.LASF547:
 14567 275c 4C565F45 		.ascii	"LV_EVENT_LAYOUT_CHANGED\000"
 14567      56454E54 
 14567      5F4C4159 
 14567      4F55545F 
 14567      4348414E 
 14568              	.LASF635:
 14569 2774 6C765F69 		.ascii	"lv_img_get_pivot\000"
 14569      6D675F67 
 14569      65745F70 
ARM GAS  C:\Users\haske\AppData\Local\Temp\ccGWO5DZ.s 			page 317


 14569      69766F74 
 14569      00
 14570              	.LASF87:
 14571 2785 64697468 		.ascii	"dither\000"
 14571      657200
 14572              	.LASF59:
 14573 278c 4C565F4F 		.ascii	"LV_OPA_70\000"
 14573      50415F37 
 14573      3000
 14574              	.LASF7:
 14575 2796 73686F72 		.ascii	"short unsigned int\000"
 14575      7420756E 
 14575      7369676E 
 14575      65642069 
 14575      6E7400
 14576              	.LASF517:
 14577 27a9 4C565F45 		.ascii	"LV_EVENT_KEY\000"
 14577      56454E54 
 14577      5F4B4559 
 14577      00
 14578              	.LASF23:
 14579 27b6 6C765F63 		.ascii	"lv_coord_t\000"
 14579      6F6F7264 
 14579      5F7400
 14580              	.LASF380:
 14581 27c1 666C7573 		.ascii	"flush_cb\000"
 14581      685F6362 
 14581      00
 14582              	.LASF129:
 14583 27ca 4C565F53 		.ascii	"LV_STYLE_OUTLINE_COLOR\000"
 14583      54594C45 
 14583      5F4F5554 
 14583      4C494E45 
 14583      5F434F4C 
 14584              	.LASF42:
 14585 27e1 75736572 		.ascii	"user_data\000"
 14585      5F646174 
 14585      6100
 14586              	.LASF507:
 14587 27eb 4C565F45 		.ascii	"LV_EVENT_PRESS_LOST\000"
 14587      56454E54 
 14587      5F505245 
 14587      53535F4C 
 14587      4F535400 
 14588              	.LASF229:
 14589 27ff 616C7761 		.ascii	"always_zero\000"
 14589      79735F7A 
 14589      65726F00 
 14590              	.LASF683:
 14591 280b 5F6C765F 		.ascii	"_lv_event_dsc_t\000"
 14591      6576656E 
 14591      745F6473 
 14591      635F7400 
 14592              	.LASF135:
 14593 281b 4C565F53 		.ascii	"LV_STYLE_SHADOW_SPREAD\000"
 14593      54594C45 
 14593      5F534841 
ARM GAS  C:\Users\haske\AppData\Local\Temp\ccGWO5DZ.s 			page 318


 14593      444F575F 
 14593      53505245 
 14594              	.LASF439:
 14595 2832 4C565F50 		.ascii	"LV_PART_TICKS\000"
 14595      4152545F 
 14595      5449434B 
 14595      5300
 14596              	.LASF420:
 14597 2840 666F6E74 		.ascii	"font_normal\000"
 14597      5F6E6F72 
 14597      6D616C00 
 14598              	.LASF34:
 14599 284c 6765745F 		.ascii	"get_glyph_dsc\000"
 14599      676C7970 
 14599      685F6473 
 14599      6300
 14600              	.LASF8:
 14601 285a 5F5F696E 		.ascii	"__int32_t\000"
 14601      7433325F 
 14601      7400
 14602              	.LASF476:
 14603 2864 73656C65 		.ascii	"selector\000"
 14603      63746F72 
 14603      00
 14604              	.LASF72:
 14605 286d 4C565F54 		.ascii	"LV_TEXT_FLAG_EXPAND\000"
 14605      4558545F 
 14605      464C4147 
 14605      5F455850 
 14605      414E4400 
 14606              	.LASF518:
 14607 2881 4C565F45 		.ascii	"LV_EVENT_FOCUSED\000"
 14607      56454E54 
 14607      5F464F43 
 14607      55534544 
 14607      00
 14608              	.LASF80:
 14609 2892 6C765F67 		.ascii	"lv_grad_dir_t\000"
 14609      7261645F 
 14609      6469725F 
 14609      7400
 14610              	.LASF430:
 14611 28a0 7265666F 		.ascii	"refocus_policy\000"
 14611      6375735F 
 14611      706F6C69 
 14611      637900
 14612              	.LASF633:
 14613 28af 6C765F69 		.ascii	"lv_img_get_offset_y\000"
 14613      6D675F67 
 14613      65745F6F 
 14613      66667365 
 14613      745F7900 
 14614              	.LASF616:
 14615 28c3 6C765F69 		.ascii	"lv_img_constructor\000"
 14615      6D675F63 
 14615      6F6E7374 
 14615      72756374 
ARM GAS  C:\Users\haske\AppData\Local\Temp\ccGWO5DZ.s 			page 319


 14615      6F7200
 14616              	.LASF367:
 14617 28d6 5F6C765F 		.ascii	"_lv_disp_drv_t\000"
 14617      64697370 
 14617      5F647276 
 14617      5F7400
 14618              	.LASF60:
 14619 28e5 4C565F4F 		.ascii	"LV_OPA_80\000"
 14619      50415F38 
 14619      3000
 14620              	.LASF576:
 14621 28ef 7372635F 		.ascii	"src_type\000"
 14621      74797065 
 14621      00
 14622              	.LASF490:
 14623 28f8 68656967 		.ascii	"height_def\000"
 14623      68745F64 
 14623      656600
 14624              	.LASF541:
 14625 2903 4C565F45 		.ascii	"LV_EVENT_SCREEN_UNLOAD_START\000"
 14625      56454E54 
 14625      5F534352 
 14625      45454E5F 
 14625      554E4C4F 
 14626              	.LASF386:
 14627 2920 636C6561 		.ascii	"clean_dcache_cb\000"
 14627      6E5F6463 
 14627      61636865 
 14627      5F636200 
 14628              	.LASF282:
 14629 2930 73656C5F 		.ascii	"sel_color\000"
 14629      636F6C6F 
 14629      7200
 14630              	.LASF669:
 14631 293a 6C765F6F 		.ascii	"lv_obj_invalidate\000"
 14631      626A5F69 
 14631      6E76616C 
 14631      69646174 
 14631      6500
 14632              	.LASF685:
 14633 294c 6C765F69 		.ascii	"lv_img_get_transformed_size\000"
 14633      6D675F67 
 14633      65745F74 
 14633      72616E73 
 14633      666F726D 
 14634              	.LASF450:
 14635 2968 4C565F4F 		.ascii	"LV_OBJ_FLAG_SCROLL_ONE\000"
 14635      424A5F46 
 14635      4C41475F 
 14635      5343524F 
 14635      4C4C5F4F 
 14636              	.LASF205:
 14637 297f 4C565F49 		.ascii	"LV_IMG_CF_RGB888\000"
 14637      4D475F43 
 14637      465F5247 
 14637      42383838 
 14637      00
ARM GAS  C:\Users\haske\AppData\Local\Temp\ccGWO5DZ.s 			page 320


 14638              	.LASF275:
 14639 2990 73686164 		.ascii	"shadow_ofs_y\000"
 14639      6F775F6F 
 14639      66735F79 
 14639      00
 14640              	.LASF587:
 14641 299d 70617274 		.ascii	"part\000"
 14641      00
 14642              	.LASF499:
 14643 29a2 70726576 		.ascii	"prev\000"
 14643      00
 14644              	.LASF88:
 14645 29a7 6C765F67 		.ascii	"lv_grad_dsc_t\000"
 14645      7261645F 
 14645      6473635F 
 14645      7400
 14646              	.LASF670:
 14647 29b5 6C765F69 		.ascii	"lv_img_src_get_type\000"
 14647      6D675F73 
 14647      72635F67 
 14647      65745F74 
 14647      79706500 
 14648              	.LASF345:
 14649 29c9 6E5F7369 		.ascii	"n_size\000"
 14649      7A6500
 14650              	.LASF620:
 14651 29d0 6C765F69 		.ascii	"lv_img_event\000"
 14651      6D675F65 
 14651      76656E74 
 14651      00
 14652              	.LASF423:
 14653 29dd 5F6C765F 		.ascii	"_lv_group_t\000"
 14653      67726F75 
 14653      705F7400 
 14654              	.LASF116:
 14655 29e9 4C565F53 		.ascii	"LV_STYLE_BG_GRAD\000"
 14655      54594C45 
 14655      5F42475F 
 14655      47524144 
 14655      00
 14656              	.LASF512:
 14657 29fa 4C565F45 		.ascii	"LV_EVENT_RELEASED\000"
 14657      56454E54 
 14657      5F52454C 
 14657      45415345 
 14657      4400
 14658              	.LASF33:
 14659 2a0c 69735F70 		.ascii	"is_placeholder\000"
 14659      6C616365 
 14659      686F6C64 
 14659      657200
 14660              	.LASF131:
 14661 2a1b 4C565F53 		.ascii	"LV_STYLE_OUTLINE_PAD\000"
 14661      54594C45 
 14661      5F4F5554 
 14661      4C494E45 
 14661      5F504144 
ARM GAS  C:\Users\haske\AppData\Local\Temp\ccGWO5DZ.s 			page 321


 14662              	.LASF61:
 14663 2a30 4C565F4F 		.ascii	"LV_OPA_90\000"
 14663      50415F39 
 14663      3000
 14664              	.LASF425:
 14665 2a3a 6F626A5F 		.ascii	"obj_focus\000"
 14665      666F6375 
 14665      7300
 14666              	.LASF155:
 14667 2a44 4C565F53 		.ascii	"LV_STYLE_TEXT_LETTER_SPACE\000"
 14667      54594C45 
 14667      5F544558 
 14667      545F4C45 
 14667      54544552 
 14668              	.LASF571:
 14669 2a5f 6576656E 		.ascii	"event_dsc_cnt\000"
 14669      745F6473 
 14669      635F636E 
 14669      7400
 14670              		.ident	"GCC: (GNU Tools for ARM Embedded Processors) 5.4.1 20160609 (release) [ARM/embedded-5-bran
