ARM GAS  C:\Users\haske\AppData\Local\Temp\ccwuLgOR.s 			page 1


   1              		.syntax unified
   2              		.cpu cortex-m0plus
   3              		.fpu softvfp
   4              		.eabi_attribute 20, 1
   5              		.eabi_attribute 21, 1
   6              		.eabi_attribute 23, 3
   7              		.eabi_attribute 24, 1
   8              		.eabi_attribute 25, 1
   9              		.eabi_attribute 26, 1
  10              		.eabi_attribute 30, 1
  11              		.eabi_attribute 34, 0
  12              		.eabi_attribute 18, 4
  13              		.thumb
  14              		.syntax unified
  15              		.file	"lv_img_buf.c"
  16              		.text
  17              	.Ltext0:
  18              		.cfi_sections	.debug_frame
  19              		.section	.text.lv_img_buf_get_px_color,"ax",%progbits
  20              		.align	2
  21              		.global	lv_img_buf_get_px_color
  22              		.code	16
  23              		.thumb_func
  24              		.type	lv_img_buf_get_px_color, %function
  25              	lv_img_buf_get_px_color:
  26              	.LFB54:
  27              		.file 1 "..\\..\\..\\arduinoLCD\\test\\Pain Drain\\libraries\\lvgl\\src\\draw\\lv_img_buf.c"
   1:..\..\..\arduinoLCD\test\Pain Drain\libraries\lvgl\src\draw/lv_img_buf.c **** /**
   2:..\..\..\arduinoLCD\test\Pain Drain\libraries\lvgl\src\draw/lv_img_buf.c ****  * @file lv_img_buf.c
   3:..\..\..\arduinoLCD\test\Pain Drain\libraries\lvgl\src\draw/lv_img_buf.c ****  *
   4:..\..\..\arduinoLCD\test\Pain Drain\libraries\lvgl\src\draw/lv_img_buf.c ****  */
   5:..\..\..\arduinoLCD\test\Pain Drain\libraries\lvgl\src\draw/lv_img_buf.c **** 
   6:..\..\..\arduinoLCD\test\Pain Drain\libraries\lvgl\src\draw/lv_img_buf.c **** /*********************
   7:..\..\..\arduinoLCD\test\Pain Drain\libraries\lvgl\src\draw/lv_img_buf.c ****  *      INCLUDES
   8:..\..\..\arduinoLCD\test\Pain Drain\libraries\lvgl\src\draw/lv_img_buf.c ****  *********************/
   9:..\..\..\arduinoLCD\test\Pain Drain\libraries\lvgl\src\draw/lv_img_buf.c **** #include <stddef.h>
  10:..\..\..\arduinoLCD\test\Pain Drain\libraries\lvgl\src\draw/lv_img_buf.c **** #include <string.h>
  11:..\..\..\arduinoLCD\test\Pain Drain\libraries\lvgl\src\draw/lv_img_buf.c **** #include "lv_img_buf.h"
  12:..\..\..\arduinoLCD\test\Pain Drain\libraries\lvgl\src\draw/lv_img_buf.c **** #include "lv_draw_img.h"
  13:..\..\..\arduinoLCD\test\Pain Drain\libraries\lvgl\src\draw/lv_img_buf.c **** #include "../misc/lv_math.h"
  14:..\..\..\arduinoLCD\test\Pain Drain\libraries\lvgl\src\draw/lv_img_buf.c **** #include "../misc/lv_log.h"
  15:..\..\..\arduinoLCD\test\Pain Drain\libraries\lvgl\src\draw/lv_img_buf.c **** #include "../misc/lv_mem.h"
  16:..\..\..\arduinoLCD\test\Pain Drain\libraries\lvgl\src\draw/lv_img_buf.c **** 
  17:..\..\..\arduinoLCD\test\Pain Drain\libraries\lvgl\src\draw/lv_img_buf.c **** /*********************
  18:..\..\..\arduinoLCD\test\Pain Drain\libraries\lvgl\src\draw/lv_img_buf.c ****  *      DEFINES
  19:..\..\..\arduinoLCD\test\Pain Drain\libraries\lvgl\src\draw/lv_img_buf.c ****  *********************/
  20:..\..\..\arduinoLCD\test\Pain Drain\libraries\lvgl\src\draw/lv_img_buf.c **** 
  21:..\..\..\arduinoLCD\test\Pain Drain\libraries\lvgl\src\draw/lv_img_buf.c **** /**********************
  22:..\..\..\arduinoLCD\test\Pain Drain\libraries\lvgl\src\draw/lv_img_buf.c ****  *      TYPEDEFS
  23:..\..\..\arduinoLCD\test\Pain Drain\libraries\lvgl\src\draw/lv_img_buf.c ****  **********************/
  24:..\..\..\arduinoLCD\test\Pain Drain\libraries\lvgl\src\draw/lv_img_buf.c **** 
  25:..\..\..\arduinoLCD\test\Pain Drain\libraries\lvgl\src\draw/lv_img_buf.c **** /**********************
  26:..\..\..\arduinoLCD\test\Pain Drain\libraries\lvgl\src\draw/lv_img_buf.c ****  *  STATIC PROTOTYPES
  27:..\..\..\arduinoLCD\test\Pain Drain\libraries\lvgl\src\draw/lv_img_buf.c ****  **********************/
  28:..\..\..\arduinoLCD\test\Pain Drain\libraries\lvgl\src\draw/lv_img_buf.c **** 
  29:..\..\..\arduinoLCD\test\Pain Drain\libraries\lvgl\src\draw/lv_img_buf.c **** /**********************
  30:..\..\..\arduinoLCD\test\Pain Drain\libraries\lvgl\src\draw/lv_img_buf.c ****  *  STATIC VARIABLES
ARM GAS  C:\Users\haske\AppData\Local\Temp\ccwuLgOR.s 			page 2


  31:..\..\..\arduinoLCD\test\Pain Drain\libraries\lvgl\src\draw/lv_img_buf.c ****  **********************/
  32:..\..\..\arduinoLCD\test\Pain Drain\libraries\lvgl\src\draw/lv_img_buf.c **** 
  33:..\..\..\arduinoLCD\test\Pain Drain\libraries\lvgl\src\draw/lv_img_buf.c **** /**********************
  34:..\..\..\arduinoLCD\test\Pain Drain\libraries\lvgl\src\draw/lv_img_buf.c ****  *      MACROS
  35:..\..\..\arduinoLCD\test\Pain Drain\libraries\lvgl\src\draw/lv_img_buf.c ****  **********************/
  36:..\..\..\arduinoLCD\test\Pain Drain\libraries\lvgl\src\draw/lv_img_buf.c **** 
  37:..\..\..\arduinoLCD\test\Pain Drain\libraries\lvgl\src\draw/lv_img_buf.c **** /**********************
  38:..\..\..\arduinoLCD\test\Pain Drain\libraries\lvgl\src\draw/lv_img_buf.c ****  *   GLOBAL FUNCTIONS
  39:..\..\..\arduinoLCD\test\Pain Drain\libraries\lvgl\src\draw/lv_img_buf.c ****  **********************/
  40:..\..\..\arduinoLCD\test\Pain Drain\libraries\lvgl\src\draw/lv_img_buf.c **** 
  41:..\..\..\arduinoLCD\test\Pain Drain\libraries\lvgl\src\draw/lv_img_buf.c **** /**
  42:..\..\..\arduinoLCD\test\Pain Drain\libraries\lvgl\src\draw/lv_img_buf.c ****  * Get the color of an image's pixel
  43:..\..\..\arduinoLCD\test\Pain Drain\libraries\lvgl\src\draw/lv_img_buf.c ****  * @param dsc an image descriptor
  44:..\..\..\arduinoLCD\test\Pain Drain\libraries\lvgl\src\draw/lv_img_buf.c ****  * @param x x coordinate of the point to get
  45:..\..\..\arduinoLCD\test\Pain Drain\libraries\lvgl\src\draw/lv_img_buf.c ****  * @param y x coordinate of the point to get
  46:..\..\..\arduinoLCD\test\Pain Drain\libraries\lvgl\src\draw/lv_img_buf.c ****  * @param color the color of the image. In case of `LV_IMG_CF_ALPHA_1/2/4/8` this color is used.
  47:..\..\..\arduinoLCD\test\Pain Drain\libraries\lvgl\src\draw/lv_img_buf.c ****  * Not used in other cases.
  48:..\..\..\arduinoLCD\test\Pain Drain\libraries\lvgl\src\draw/lv_img_buf.c ****  * @param safe true: check out of bounds
  49:..\..\..\arduinoLCD\test\Pain Drain\libraries\lvgl\src\draw/lv_img_buf.c ****  * @return color of the point
  50:..\..\..\arduinoLCD\test\Pain Drain\libraries\lvgl\src\draw/lv_img_buf.c ****  */
  51:..\..\..\arduinoLCD\test\Pain Drain\libraries\lvgl\src\draw/lv_img_buf.c **** lv_color_t lv_img_buf_get_px_color(lv_img_dsc_t * dsc, lv_coord_t x, lv_coord_t y, lv_color_t color
  52:..\..\..\arduinoLCD\test\Pain Drain\libraries\lvgl\src\draw/lv_img_buf.c **** {
  28              		.loc 1 52 0
  29              		.cfi_startproc
  30              		@ args = 0, pretend = 0, frame = 8
  31              		@ frame_needed = 0, uses_anonymous_args = 0
  32              	.LVL0:
  33 0000 F0B5     		push	{r4, r5, r6, r7, lr}
  34              		.cfi_def_cfa_offset 20
  35              		.cfi_offset 4, -20
  36              		.cfi_offset 5, -16
  37              		.cfi_offset 6, -12
  38              		.cfi_offset 7, -8
  39              		.cfi_offset 14, -4
  40 0002 83B0     		sub	sp, sp, #12
  41              		.cfi_def_cfa_offset 32
  42 0004 0400     		movs	r4, r0
  43 0006 0D00     		movs	r5, r1
  44 0008 1700     		movs	r7, r2
  45              	.LVL1:
  53:..\..\..\arduinoLCD\test\Pain Drain\libraries\lvgl\src\draw/lv_img_buf.c ****     lv_color_t p_color = lv_color_black();
  46              		.loc 1 53 0
  47 000a 01AA     		add	r2, sp, #4
  48              	.LVL2:
  49 000c 0021     		movs	r1, #0
  50              	.LVL3:
  51 000e 1180     		strh	r1, [r2]
  54:..\..\..\arduinoLCD\test\Pain Drain\libraries\lvgl\src\draw/lv_img_buf.c ****     uint8_t * buf_u8 = (uint8_t *)dsc->data;
  52              		.loc 1 54 0
  53 0010 8668     		ldr	r6, [r0, #8]
  54              	.LVL4:
  55:..\..\..\arduinoLCD\test\Pain Drain\libraries\lvgl\src\draw/lv_img_buf.c **** 
  56:..\..\..\arduinoLCD\test\Pain Drain\libraries\lvgl\src\draw/lv_img_buf.c ****     if(dsc->header.cf == LV_IMG_CF_TRUE_COLOR || dsc->header.cf == LV_IMG_CF_TRUE_COLOR_CHROMA_KEYE
  55              		.loc 1 56 0
  56 0012 0278     		ldrb	r2, [r0]
  57 0014 1F31     		adds	r1, r1, #31
  58 0016 0A40     		ands	r2, r1
ARM GAS  C:\Users\haske\AppData\Local\Temp\ccwuLgOR.s 			page 3


  59 0018 042A     		cmp	r2, #4
  60 001a 05D0     		beq	.L2
  61              		.loc 1 56 0 is_stmt 0 discriminator 1
  62 001c 062A     		cmp	r2, #6
  63 001e 03D0     		beq	.L2
  64              		.loc 1 56 0 discriminator 2
  65 0020 052A     		cmp	r2, #5
  66 0022 01D0     		beq	.L2
  57:..\..\..\arduinoLCD\test\Pain Drain\libraries\lvgl\src\draw/lv_img_buf.c ****        dsc->header.cf == LV_IMG_CF_TRUE_COLOR_ALPHA || dsc->header.cf == LV_IMG_CF_RGB565A8) {
  67              		.loc 1 57 0 is_stmt 1
  68 0024 142A     		cmp	r2, #20
  69 0026 18D1     		bne	.L3
  70              	.L2:
  71              	.LBB29:
  58:..\..\..\arduinoLCD\test\Pain Drain\libraries\lvgl\src\draw/lv_img_buf.c ****         uint8_t px_size = lv_img_cf_get_px_size(dsc->header.cf) >> 3;
  72              		.loc 1 58 0
  73 0028 2078     		ldrb	r0, [r4]
  74              	.LVL5:
  75 002a C006     		lsls	r0, r0, #27
  76 002c C00E     		lsrs	r0, r0, #27
  77 002e FFF7FEFF 		bl	lv_img_cf_get_px_size
  78              	.LVL6:
  79 0032 C008     		lsrs	r0, r0, #3
  80 0034 C3B2     		uxtb	r3, r0
  81              	.LVL7:
  59:..\..\..\arduinoLCD\test\Pain Drain\libraries\lvgl\src\draw/lv_img_buf.c ****         uint32_t px     = dsc->header.w * y * px_size + x * px_size;
  82              		.loc 1 59 0
  83 0036 2068     		ldr	r0, [r4]
  84 0038 C002     		lsls	r0, r0, #11
  85 003a 400D     		lsrs	r0, r0, #21
  86 003c 7843     		muls	r0, r7
  87 003e 2818     		adds	r0, r5, r0
  88 0040 5843     		muls	r0, r3
  89              	.LVL8:
  60:..\..\..\arduinoLCD\test\Pain Drain\libraries\lvgl\src\draw/lv_img_buf.c ****         lv_memcpy_small(&p_color, &buf_u8[px], sizeof(lv_color_t));
  90              		.loc 1 60 0
  91 0042 3018     		adds	r0, r6, r0
  92              	.LVL9:
  93              	.LBB30:
  94              	.LBB31:
  95              		.file 2 "..\\..\\..\\arduinoLCD\\test\\Pain Drain\\libraries\\lvgl\\src\\draw\\../misc/lv_mem.h"
   1:..\..\..\arduinoLCD\test\Pain Drain\libraries\lvgl\src\draw\../misc/lv_mem.h **** /**
   2:..\..\..\arduinoLCD\test\Pain Drain\libraries\lvgl\src\draw\../misc/lv_mem.h ****  * @file lv_mem.h
   3:..\..\..\arduinoLCD\test\Pain Drain\libraries\lvgl\src\draw\../misc/lv_mem.h ****  *
   4:..\..\..\arduinoLCD\test\Pain Drain\libraries\lvgl\src\draw\../misc/lv_mem.h ****  */
   5:..\..\..\arduinoLCD\test\Pain Drain\libraries\lvgl\src\draw\../misc/lv_mem.h **** 
   6:..\..\..\arduinoLCD\test\Pain Drain\libraries\lvgl\src\draw\../misc/lv_mem.h **** #ifndef LV_MEM_H
   7:..\..\..\arduinoLCD\test\Pain Drain\libraries\lvgl\src\draw\../misc/lv_mem.h **** #define LV_MEM_H
   8:..\..\..\arduinoLCD\test\Pain Drain\libraries\lvgl\src\draw\../misc/lv_mem.h **** 
   9:..\..\..\arduinoLCD\test\Pain Drain\libraries\lvgl\src\draw\../misc/lv_mem.h **** #ifdef __cplusplus
  10:..\..\..\arduinoLCD\test\Pain Drain\libraries\lvgl\src\draw\../misc/lv_mem.h **** extern "C" {
  11:..\..\..\arduinoLCD\test\Pain Drain\libraries\lvgl\src\draw\../misc/lv_mem.h **** #endif
  12:..\..\..\arduinoLCD\test\Pain Drain\libraries\lvgl\src\draw\../misc/lv_mem.h **** 
  13:..\..\..\arduinoLCD\test\Pain Drain\libraries\lvgl\src\draw\../misc/lv_mem.h **** /*********************
  14:..\..\..\arduinoLCD\test\Pain Drain\libraries\lvgl\src\draw\../misc/lv_mem.h ****  *      INCLUDES
  15:..\..\..\arduinoLCD\test\Pain Drain\libraries\lvgl\src\draw\../misc/lv_mem.h ****  *********************/
  16:..\..\..\arduinoLCD\test\Pain Drain\libraries\lvgl\src\draw\../misc/lv_mem.h **** #include "../lv_conf_internal.h"
ARM GAS  C:\Users\haske\AppData\Local\Temp\ccwuLgOR.s 			page 4


  17:..\..\..\arduinoLCD\test\Pain Drain\libraries\lvgl\src\draw\../misc/lv_mem.h **** 
  18:..\..\..\arduinoLCD\test\Pain Drain\libraries\lvgl\src\draw\../misc/lv_mem.h **** #include <stdint.h>
  19:..\..\..\arduinoLCD\test\Pain Drain\libraries\lvgl\src\draw\../misc/lv_mem.h **** #include <stddef.h>
  20:..\..\..\arduinoLCD\test\Pain Drain\libraries\lvgl\src\draw\../misc/lv_mem.h **** #include <string.h>
  21:..\..\..\arduinoLCD\test\Pain Drain\libraries\lvgl\src\draw\../misc/lv_mem.h **** 
  22:..\..\..\arduinoLCD\test\Pain Drain\libraries\lvgl\src\draw\../misc/lv_mem.h **** #include "lv_types.h"
  23:..\..\..\arduinoLCD\test\Pain Drain\libraries\lvgl\src\draw\../misc/lv_mem.h **** 
  24:..\..\..\arduinoLCD\test\Pain Drain\libraries\lvgl\src\draw\../misc/lv_mem.h **** /*********************
  25:..\..\..\arduinoLCD\test\Pain Drain\libraries\lvgl\src\draw\../misc/lv_mem.h ****  *      DEFINES
  26:..\..\..\arduinoLCD\test\Pain Drain\libraries\lvgl\src\draw\../misc/lv_mem.h ****  *********************/
  27:..\..\..\arduinoLCD\test\Pain Drain\libraries\lvgl\src\draw\../misc/lv_mem.h **** 
  28:..\..\..\arduinoLCD\test\Pain Drain\libraries\lvgl\src\draw\../misc/lv_mem.h **** /**********************
  29:..\..\..\arduinoLCD\test\Pain Drain\libraries\lvgl\src\draw\../misc/lv_mem.h ****  *      TYPEDEFS
  30:..\..\..\arduinoLCD\test\Pain Drain\libraries\lvgl\src\draw\../misc/lv_mem.h ****  **********************/
  31:..\..\..\arduinoLCD\test\Pain Drain\libraries\lvgl\src\draw\../misc/lv_mem.h **** 
  32:..\..\..\arduinoLCD\test\Pain Drain\libraries\lvgl\src\draw\../misc/lv_mem.h **** /**
  33:..\..\..\arduinoLCD\test\Pain Drain\libraries\lvgl\src\draw\../misc/lv_mem.h ****  * Heap information structure.
  34:..\..\..\arduinoLCD\test\Pain Drain\libraries\lvgl\src\draw\../misc/lv_mem.h ****  */
  35:..\..\..\arduinoLCD\test\Pain Drain\libraries\lvgl\src\draw\../misc/lv_mem.h **** typedef struct {
  36:..\..\..\arduinoLCD\test\Pain Drain\libraries\lvgl\src\draw\../misc/lv_mem.h ****     uint32_t total_size; /**< Total heap size*/
  37:..\..\..\arduinoLCD\test\Pain Drain\libraries\lvgl\src\draw\../misc/lv_mem.h ****     uint32_t free_cnt;
  38:..\..\..\arduinoLCD\test\Pain Drain\libraries\lvgl\src\draw\../misc/lv_mem.h ****     uint32_t free_size; /**< Size of available memory*/
  39:..\..\..\arduinoLCD\test\Pain Drain\libraries\lvgl\src\draw\../misc/lv_mem.h ****     uint32_t free_biggest_size;
  40:..\..\..\arduinoLCD\test\Pain Drain\libraries\lvgl\src\draw\../misc/lv_mem.h ****     uint32_t used_cnt;
  41:..\..\..\arduinoLCD\test\Pain Drain\libraries\lvgl\src\draw\../misc/lv_mem.h ****     uint32_t max_used; /**< Max size of Heap memory used*/
  42:..\..\..\arduinoLCD\test\Pain Drain\libraries\lvgl\src\draw\../misc/lv_mem.h ****     uint8_t used_pct; /**< Percentage used*/
  43:..\..\..\arduinoLCD\test\Pain Drain\libraries\lvgl\src\draw\../misc/lv_mem.h ****     uint8_t frag_pct; /**< Amount of fragmentation*/
  44:..\..\..\arduinoLCD\test\Pain Drain\libraries\lvgl\src\draw\../misc/lv_mem.h **** } lv_mem_monitor_t;
  45:..\..\..\arduinoLCD\test\Pain Drain\libraries\lvgl\src\draw\../misc/lv_mem.h **** 
  46:..\..\..\arduinoLCD\test\Pain Drain\libraries\lvgl\src\draw\../misc/lv_mem.h **** typedef struct {
  47:..\..\..\arduinoLCD\test\Pain Drain\libraries\lvgl\src\draw\../misc/lv_mem.h ****     void * p;
  48:..\..\..\arduinoLCD\test\Pain Drain\libraries\lvgl\src\draw\../misc/lv_mem.h ****     uint16_t size;
  49:..\..\..\arduinoLCD\test\Pain Drain\libraries\lvgl\src\draw\../misc/lv_mem.h ****     uint8_t used : 1;
  50:..\..\..\arduinoLCD\test\Pain Drain\libraries\lvgl\src\draw\../misc/lv_mem.h **** } lv_mem_buf_t;
  51:..\..\..\arduinoLCD\test\Pain Drain\libraries\lvgl\src\draw\../misc/lv_mem.h **** 
  52:..\..\..\arduinoLCD\test\Pain Drain\libraries\lvgl\src\draw\../misc/lv_mem.h **** typedef lv_mem_buf_t lv_mem_buf_arr_t[LV_MEM_BUF_MAX_NUM];
  53:..\..\..\arduinoLCD\test\Pain Drain\libraries\lvgl\src\draw\../misc/lv_mem.h **** 
  54:..\..\..\arduinoLCD\test\Pain Drain\libraries\lvgl\src\draw\../misc/lv_mem.h **** /**********************
  55:..\..\..\arduinoLCD\test\Pain Drain\libraries\lvgl\src\draw\../misc/lv_mem.h ****  * GLOBAL PROTOTYPES
  56:..\..\..\arduinoLCD\test\Pain Drain\libraries\lvgl\src\draw\../misc/lv_mem.h ****  **********************/
  57:..\..\..\arduinoLCD\test\Pain Drain\libraries\lvgl\src\draw\../misc/lv_mem.h **** 
  58:..\..\..\arduinoLCD\test\Pain Drain\libraries\lvgl\src\draw\../misc/lv_mem.h **** /**
  59:..\..\..\arduinoLCD\test\Pain Drain\libraries\lvgl\src\draw\../misc/lv_mem.h ****  * Initialize the dyn_mem module (work memory and other variables)
  60:..\..\..\arduinoLCD\test\Pain Drain\libraries\lvgl\src\draw\../misc/lv_mem.h ****  */
  61:..\..\..\arduinoLCD\test\Pain Drain\libraries\lvgl\src\draw\../misc/lv_mem.h **** void lv_mem_init(void);
  62:..\..\..\arduinoLCD\test\Pain Drain\libraries\lvgl\src\draw\../misc/lv_mem.h **** 
  63:..\..\..\arduinoLCD\test\Pain Drain\libraries\lvgl\src\draw\../misc/lv_mem.h **** /**
  64:..\..\..\arduinoLCD\test\Pain Drain\libraries\lvgl\src\draw\../misc/lv_mem.h ****  * Clean up the memory buffer which frees all the allocated memories.
  65:..\..\..\arduinoLCD\test\Pain Drain\libraries\lvgl\src\draw\../misc/lv_mem.h ****  * @note It work only if `LV_MEM_CUSTOM == 0`
  66:..\..\..\arduinoLCD\test\Pain Drain\libraries\lvgl\src\draw\../misc/lv_mem.h ****  */
  67:..\..\..\arduinoLCD\test\Pain Drain\libraries\lvgl\src\draw\../misc/lv_mem.h **** void lv_mem_deinit(void);
  68:..\..\..\arduinoLCD\test\Pain Drain\libraries\lvgl\src\draw\../misc/lv_mem.h **** 
  69:..\..\..\arduinoLCD\test\Pain Drain\libraries\lvgl\src\draw\../misc/lv_mem.h **** /**
  70:..\..\..\arduinoLCD\test\Pain Drain\libraries\lvgl\src\draw\../misc/lv_mem.h ****  * Allocate a memory dynamically
  71:..\..\..\arduinoLCD\test\Pain Drain\libraries\lvgl\src\draw\../misc/lv_mem.h ****  * @param size size of the memory to allocate in bytes
  72:..\..\..\arduinoLCD\test\Pain Drain\libraries\lvgl\src\draw\../misc/lv_mem.h ****  * @return pointer to the allocated memory
  73:..\..\..\arduinoLCD\test\Pain Drain\libraries\lvgl\src\draw\../misc/lv_mem.h ****  */
ARM GAS  C:\Users\haske\AppData\Local\Temp\ccwuLgOR.s 			page 5


  74:..\..\..\arduinoLCD\test\Pain Drain\libraries\lvgl\src\draw\../misc/lv_mem.h **** void * lv_mem_alloc(size_t size);
  75:..\..\..\arduinoLCD\test\Pain Drain\libraries\lvgl\src\draw\../misc/lv_mem.h **** 
  76:..\..\..\arduinoLCD\test\Pain Drain\libraries\lvgl\src\draw\../misc/lv_mem.h **** /**
  77:..\..\..\arduinoLCD\test\Pain Drain\libraries\lvgl\src\draw\../misc/lv_mem.h ****  * Free an allocated data
  78:..\..\..\arduinoLCD\test\Pain Drain\libraries\lvgl\src\draw\../misc/lv_mem.h ****  * @param data pointer to an allocated memory
  79:..\..\..\arduinoLCD\test\Pain Drain\libraries\lvgl\src\draw\../misc/lv_mem.h ****  */
  80:..\..\..\arduinoLCD\test\Pain Drain\libraries\lvgl\src\draw\../misc/lv_mem.h **** void lv_mem_free(void * data);
  81:..\..\..\arduinoLCD\test\Pain Drain\libraries\lvgl\src\draw\../misc/lv_mem.h **** 
  82:..\..\..\arduinoLCD\test\Pain Drain\libraries\lvgl\src\draw\../misc/lv_mem.h **** /**
  83:..\..\..\arduinoLCD\test\Pain Drain\libraries\lvgl\src\draw\../misc/lv_mem.h ****  * Reallocate a memory with a new size. The old content will be kept.
  84:..\..\..\arduinoLCD\test\Pain Drain\libraries\lvgl\src\draw\../misc/lv_mem.h ****  * @param data pointer to an allocated memory.
  85:..\..\..\arduinoLCD\test\Pain Drain\libraries\lvgl\src\draw\../misc/lv_mem.h ****  * Its content will be copied to the new memory block and freed
  86:..\..\..\arduinoLCD\test\Pain Drain\libraries\lvgl\src\draw\../misc/lv_mem.h ****  * @param new_size the desired new size in byte
  87:..\..\..\arduinoLCD\test\Pain Drain\libraries\lvgl\src\draw\../misc/lv_mem.h ****  * @return pointer to the new memory, NULL on failure
  88:..\..\..\arduinoLCD\test\Pain Drain\libraries\lvgl\src\draw\../misc/lv_mem.h ****  */
  89:..\..\..\arduinoLCD\test\Pain Drain\libraries\lvgl\src\draw\../misc/lv_mem.h **** void * lv_mem_realloc(void * data_p, size_t new_size);
  90:..\..\..\arduinoLCD\test\Pain Drain\libraries\lvgl\src\draw\../misc/lv_mem.h **** 
  91:..\..\..\arduinoLCD\test\Pain Drain\libraries\lvgl\src\draw\../misc/lv_mem.h **** /**
  92:..\..\..\arduinoLCD\test\Pain Drain\libraries\lvgl\src\draw\../misc/lv_mem.h ****  *
  93:..\..\..\arduinoLCD\test\Pain Drain\libraries\lvgl\src\draw\../misc/lv_mem.h ****  * @return
  94:..\..\..\arduinoLCD\test\Pain Drain\libraries\lvgl\src\draw\../misc/lv_mem.h ****  */
  95:..\..\..\arduinoLCD\test\Pain Drain\libraries\lvgl\src\draw\../misc/lv_mem.h **** lv_res_t lv_mem_test(void);
  96:..\..\..\arduinoLCD\test\Pain Drain\libraries\lvgl\src\draw\../misc/lv_mem.h **** 
  97:..\..\..\arduinoLCD\test\Pain Drain\libraries\lvgl\src\draw\../misc/lv_mem.h **** /**
  98:..\..\..\arduinoLCD\test\Pain Drain\libraries\lvgl\src\draw\../misc/lv_mem.h ****  * Give information about the work memory of dynamic allocation
  99:..\..\..\arduinoLCD\test\Pain Drain\libraries\lvgl\src\draw\../misc/lv_mem.h ****  * @param mon_p pointer to a lv_mem_monitor_t variable,
 100:..\..\..\arduinoLCD\test\Pain Drain\libraries\lvgl\src\draw\../misc/lv_mem.h ****  *              the result of the analysis will be stored here
 101:..\..\..\arduinoLCD\test\Pain Drain\libraries\lvgl\src\draw\../misc/lv_mem.h ****  */
 102:..\..\..\arduinoLCD\test\Pain Drain\libraries\lvgl\src\draw\../misc/lv_mem.h **** void lv_mem_monitor(lv_mem_monitor_t * mon_p);
 103:..\..\..\arduinoLCD\test\Pain Drain\libraries\lvgl\src\draw\../misc/lv_mem.h **** 
 104:..\..\..\arduinoLCD\test\Pain Drain\libraries\lvgl\src\draw\../misc/lv_mem.h **** 
 105:..\..\..\arduinoLCD\test\Pain Drain\libraries\lvgl\src\draw\../misc/lv_mem.h **** /**
 106:..\..\..\arduinoLCD\test\Pain Drain\libraries\lvgl\src\draw\../misc/lv_mem.h ****  * Get a temporal buffer with the given size.
 107:..\..\..\arduinoLCD\test\Pain Drain\libraries\lvgl\src\draw\../misc/lv_mem.h ****  * @param size the required size
 108:..\..\..\arduinoLCD\test\Pain Drain\libraries\lvgl\src\draw\../misc/lv_mem.h ****  */
 109:..\..\..\arduinoLCD\test\Pain Drain\libraries\lvgl\src\draw\../misc/lv_mem.h **** void * lv_mem_buf_get(uint32_t size);
 110:..\..\..\arduinoLCD\test\Pain Drain\libraries\lvgl\src\draw\../misc/lv_mem.h **** 
 111:..\..\..\arduinoLCD\test\Pain Drain\libraries\lvgl\src\draw\../misc/lv_mem.h **** /**
 112:..\..\..\arduinoLCD\test\Pain Drain\libraries\lvgl\src\draw\../misc/lv_mem.h ****  * Release a memory buffer
 113:..\..\..\arduinoLCD\test\Pain Drain\libraries\lvgl\src\draw\../misc/lv_mem.h ****  * @param p buffer to release
 114:..\..\..\arduinoLCD\test\Pain Drain\libraries\lvgl\src\draw\../misc/lv_mem.h ****  */
 115:..\..\..\arduinoLCD\test\Pain Drain\libraries\lvgl\src\draw\../misc/lv_mem.h **** void lv_mem_buf_release(void * p);
 116:..\..\..\arduinoLCD\test\Pain Drain\libraries\lvgl\src\draw\../misc/lv_mem.h **** 
 117:..\..\..\arduinoLCD\test\Pain Drain\libraries\lvgl\src\draw\../misc/lv_mem.h **** /**
 118:..\..\..\arduinoLCD\test\Pain Drain\libraries\lvgl\src\draw\../misc/lv_mem.h ****  * Free all memory buffers
 119:..\..\..\arduinoLCD\test\Pain Drain\libraries\lvgl\src\draw\../misc/lv_mem.h ****  */
 120:..\..\..\arduinoLCD\test\Pain Drain\libraries\lvgl\src\draw\../misc/lv_mem.h **** void lv_mem_buf_free_all(void);
 121:..\..\..\arduinoLCD\test\Pain Drain\libraries\lvgl\src\draw\../misc/lv_mem.h **** 
 122:..\..\..\arduinoLCD\test\Pain Drain\libraries\lvgl\src\draw\../misc/lv_mem.h **** //! @cond Doxygen_Suppress
 123:..\..\..\arduinoLCD\test\Pain Drain\libraries\lvgl\src\draw\../misc/lv_mem.h **** 
 124:..\..\..\arduinoLCD\test\Pain Drain\libraries\lvgl\src\draw\../misc/lv_mem.h **** #if LV_MEMCPY_MEMSET_STD
 125:..\..\..\arduinoLCD\test\Pain Drain\libraries\lvgl\src\draw\../misc/lv_mem.h **** 
 126:..\..\..\arduinoLCD\test\Pain Drain\libraries\lvgl\src\draw\../misc/lv_mem.h **** /**
 127:..\..\..\arduinoLCD\test\Pain Drain\libraries\lvgl\src\draw\../misc/lv_mem.h ****  * Wrapper for the standard memcpy
 128:..\..\..\arduinoLCD\test\Pain Drain\libraries\lvgl\src\draw\../misc/lv_mem.h ****  * @param dst pointer to the destination buffer
 129:..\..\..\arduinoLCD\test\Pain Drain\libraries\lvgl\src\draw\../misc/lv_mem.h ****  * @param src pointer to the source buffer
 130:..\..\..\arduinoLCD\test\Pain Drain\libraries\lvgl\src\draw\../misc/lv_mem.h ****  * @param len number of byte to copy
ARM GAS  C:\Users\haske\AppData\Local\Temp\ccwuLgOR.s 			page 6


 131:..\..\..\arduinoLCD\test\Pain Drain\libraries\lvgl\src\draw\../misc/lv_mem.h ****  */
 132:..\..\..\arduinoLCD\test\Pain Drain\libraries\lvgl\src\draw\../misc/lv_mem.h **** static inline void * lv_memcpy(void * dst, const void * src, size_t len)
 133:..\..\..\arduinoLCD\test\Pain Drain\libraries\lvgl\src\draw\../misc/lv_mem.h **** {
 134:..\..\..\arduinoLCD\test\Pain Drain\libraries\lvgl\src\draw\../misc/lv_mem.h ****     return memcpy(dst, src, len);
 135:..\..\..\arduinoLCD\test\Pain Drain\libraries\lvgl\src\draw\../misc/lv_mem.h **** }
 136:..\..\..\arduinoLCD\test\Pain Drain\libraries\lvgl\src\draw\../misc/lv_mem.h **** 
 137:..\..\..\arduinoLCD\test\Pain Drain\libraries\lvgl\src\draw\../misc/lv_mem.h **** /**
 138:..\..\..\arduinoLCD\test\Pain Drain\libraries\lvgl\src\draw\../misc/lv_mem.h ****  * Wrapper for the standard memcpy
 139:..\..\..\arduinoLCD\test\Pain Drain\libraries\lvgl\src\draw\../misc/lv_mem.h ****  * @param dst pointer to the destination buffer
 140:..\..\..\arduinoLCD\test\Pain Drain\libraries\lvgl\src\draw\../misc/lv_mem.h ****  * @param src pointer to the source buffer
 141:..\..\..\arduinoLCD\test\Pain Drain\libraries\lvgl\src\draw\../misc/lv_mem.h ****  * @param len number of byte to copy
 142:..\..\..\arduinoLCD\test\Pain Drain\libraries\lvgl\src\draw\../misc/lv_mem.h ****  */
 143:..\..\..\arduinoLCD\test\Pain Drain\libraries\lvgl\src\draw\../misc/lv_mem.h **** static inline void * lv_memcpy_small(void * dst, const void * src, size_t len)
 144:..\..\..\arduinoLCD\test\Pain Drain\libraries\lvgl\src\draw\../misc/lv_mem.h **** {
 145:..\..\..\arduinoLCD\test\Pain Drain\libraries\lvgl\src\draw\../misc/lv_mem.h ****     return memcpy(dst, src, len);
 146:..\..\..\arduinoLCD\test\Pain Drain\libraries\lvgl\src\draw\../misc/lv_mem.h **** }
 147:..\..\..\arduinoLCD\test\Pain Drain\libraries\lvgl\src\draw\../misc/lv_mem.h **** 
 148:..\..\..\arduinoLCD\test\Pain Drain\libraries\lvgl\src\draw\../misc/lv_mem.h **** /**
 149:..\..\..\arduinoLCD\test\Pain Drain\libraries\lvgl\src\draw\../misc/lv_mem.h ****  * Wrapper for the standard memset
 150:..\..\..\arduinoLCD\test\Pain Drain\libraries\lvgl\src\draw\../misc/lv_mem.h ****  * @param dst pointer to the destination buffer
 151:..\..\..\arduinoLCD\test\Pain Drain\libraries\lvgl\src\draw\../misc/lv_mem.h ****  * @param v value to set [0..255]
 152:..\..\..\arduinoLCD\test\Pain Drain\libraries\lvgl\src\draw\../misc/lv_mem.h ****  * @param len number of byte to set
 153:..\..\..\arduinoLCD\test\Pain Drain\libraries\lvgl\src\draw\../misc/lv_mem.h ****  */
 154:..\..\..\arduinoLCD\test\Pain Drain\libraries\lvgl\src\draw\../misc/lv_mem.h **** static inline void lv_memset(void * dst, uint8_t v, size_t len)
 155:..\..\..\arduinoLCD\test\Pain Drain\libraries\lvgl\src\draw\../misc/lv_mem.h **** {
 156:..\..\..\arduinoLCD\test\Pain Drain\libraries\lvgl\src\draw\../misc/lv_mem.h ****     memset(dst, v, len);
 157:..\..\..\arduinoLCD\test\Pain Drain\libraries\lvgl\src\draw\../misc/lv_mem.h **** }
 158:..\..\..\arduinoLCD\test\Pain Drain\libraries\lvgl\src\draw\../misc/lv_mem.h **** 
 159:..\..\..\arduinoLCD\test\Pain Drain\libraries\lvgl\src\draw\../misc/lv_mem.h **** /**
 160:..\..\..\arduinoLCD\test\Pain Drain\libraries\lvgl\src\draw\../misc/lv_mem.h ****  * Wrapper for the standard memset with fixed 0x00 value
 161:..\..\..\arduinoLCD\test\Pain Drain\libraries\lvgl\src\draw\../misc/lv_mem.h ****  * @param dst pointer to the destination buffer
 162:..\..\..\arduinoLCD\test\Pain Drain\libraries\lvgl\src\draw\../misc/lv_mem.h ****  * @param len number of byte to set
 163:..\..\..\arduinoLCD\test\Pain Drain\libraries\lvgl\src\draw\../misc/lv_mem.h ****  */
 164:..\..\..\arduinoLCD\test\Pain Drain\libraries\lvgl\src\draw\../misc/lv_mem.h **** static inline void lv_memset_00(void * dst, size_t len)
 165:..\..\..\arduinoLCD\test\Pain Drain\libraries\lvgl\src\draw\../misc/lv_mem.h **** {
 166:..\..\..\arduinoLCD\test\Pain Drain\libraries\lvgl\src\draw\../misc/lv_mem.h ****     memset(dst, 0x00, len);
 167:..\..\..\arduinoLCD\test\Pain Drain\libraries\lvgl\src\draw\../misc/lv_mem.h **** }
 168:..\..\..\arduinoLCD\test\Pain Drain\libraries\lvgl\src\draw\../misc/lv_mem.h **** 
 169:..\..\..\arduinoLCD\test\Pain Drain\libraries\lvgl\src\draw\../misc/lv_mem.h **** /**
 170:..\..\..\arduinoLCD\test\Pain Drain\libraries\lvgl\src\draw\../misc/lv_mem.h ****  * Wrapper for the standard memset with fixed 0xFF value
 171:..\..\..\arduinoLCD\test\Pain Drain\libraries\lvgl\src\draw\../misc/lv_mem.h ****  * @param dst pointer to the destination buffer
 172:..\..\..\arduinoLCD\test\Pain Drain\libraries\lvgl\src\draw\../misc/lv_mem.h ****  * @param len number of byte to set
 173:..\..\..\arduinoLCD\test\Pain Drain\libraries\lvgl\src\draw\../misc/lv_mem.h ****  */
 174:..\..\..\arduinoLCD\test\Pain Drain\libraries\lvgl\src\draw\../misc/lv_mem.h **** static inline void lv_memset_ff(void * dst, size_t len)
 175:..\..\..\arduinoLCD\test\Pain Drain\libraries\lvgl\src\draw\../misc/lv_mem.h **** {
 176:..\..\..\arduinoLCD\test\Pain Drain\libraries\lvgl\src\draw\../misc/lv_mem.h ****     memset(dst, 0xFF, len);
 177:..\..\..\arduinoLCD\test\Pain Drain\libraries\lvgl\src\draw\../misc/lv_mem.h **** }
 178:..\..\..\arduinoLCD\test\Pain Drain\libraries\lvgl\src\draw\../misc/lv_mem.h **** 
 179:..\..\..\arduinoLCD\test\Pain Drain\libraries\lvgl\src\draw\../misc/lv_mem.h **** #else
 180:..\..\..\arduinoLCD\test\Pain Drain\libraries\lvgl\src\draw\../misc/lv_mem.h **** /**
 181:..\..\..\arduinoLCD\test\Pain Drain\libraries\lvgl\src\draw\../misc/lv_mem.h ****  * Same as `memcpy` but optimized for 4 byte operation.
 182:..\..\..\arduinoLCD\test\Pain Drain\libraries\lvgl\src\draw\../misc/lv_mem.h ****  * @param dst pointer to the destination buffer
 183:..\..\..\arduinoLCD\test\Pain Drain\libraries\lvgl\src\draw\../misc/lv_mem.h ****  * @param src pointer to the source buffer
 184:..\..\..\arduinoLCD\test\Pain Drain\libraries\lvgl\src\draw\../misc/lv_mem.h ****  * @param len number of byte to copy
 185:..\..\..\arduinoLCD\test\Pain Drain\libraries\lvgl\src\draw\../misc/lv_mem.h ****  */
 186:..\..\..\arduinoLCD\test\Pain Drain\libraries\lvgl\src\draw\../misc/lv_mem.h **** LV_ATTRIBUTE_FAST_MEM void * lv_memcpy(void * dst, const void * src, size_t len);
 187:..\..\..\arduinoLCD\test\Pain Drain\libraries\lvgl\src\draw\../misc/lv_mem.h **** 
ARM GAS  C:\Users\haske\AppData\Local\Temp\ccwuLgOR.s 			page 7


 188:..\..\..\arduinoLCD\test\Pain Drain\libraries\lvgl\src\draw\../misc/lv_mem.h **** /**
 189:..\..\..\arduinoLCD\test\Pain Drain\libraries\lvgl\src\draw\../misc/lv_mem.h ****  * Same as `memcpy` but optimized to copy only a few bytes.
 190:..\..\..\arduinoLCD\test\Pain Drain\libraries\lvgl\src\draw\../misc/lv_mem.h ****  * @param dst pointer to the destination buffer
 191:..\..\..\arduinoLCD\test\Pain Drain\libraries\lvgl\src\draw\../misc/lv_mem.h ****  * @param src pointer to the source buffer
 192:..\..\..\arduinoLCD\test\Pain Drain\libraries\lvgl\src\draw\../misc/lv_mem.h ****  * @param len number of byte to copy
 193:..\..\..\arduinoLCD\test\Pain Drain\libraries\lvgl\src\draw\../misc/lv_mem.h ****  */
 194:..\..\..\arduinoLCD\test\Pain Drain\libraries\lvgl\src\draw\../misc/lv_mem.h **** LV_ATTRIBUTE_FAST_MEM static inline void * lv_memcpy_small(void * dst, const void * src, size_t len
 195:..\..\..\arduinoLCD\test\Pain Drain\libraries\lvgl\src\draw\../misc/lv_mem.h **** {
 196:..\..\..\arduinoLCD\test\Pain Drain\libraries\lvgl\src\draw\../misc/lv_mem.h ****     uint8_t * d8 = (uint8_t *)dst;
  96              		.loc 2 196 0
  97 0044 01AA     		add	r2, sp, #4
  98              	.LVL10:
  99              	.LBE31:
 100              	.LBE30:
 101              		.loc 1 60 0
 102 0046 0223     		movs	r3, #2
 103              	.LVL11:
 104 0048 04E0     		b	.L4
 105              	.LVL12:
 106              	.L5:
 107              	.LBB33:
 108              	.LBB32:
 197:..\..\..\arduinoLCD\test\Pain Drain\libraries\lvgl\src\draw\../misc/lv_mem.h ****     const uint8_t * s8 = (const uint8_t *)src;
 198:..\..\..\arduinoLCD\test\Pain Drain\libraries\lvgl\src\draw\../misc/lv_mem.h **** 
 199:..\..\..\arduinoLCD\test\Pain Drain\libraries\lvgl\src\draw\../misc/lv_mem.h ****     while(len) {
 200:..\..\..\arduinoLCD\test\Pain Drain\libraries\lvgl\src\draw\../misc/lv_mem.h ****         *d8 = *s8;
 109              		.loc 2 200 0
 110 004a 0178     		ldrb	r1, [r0]
 111 004c 1170     		strb	r1, [r2]
 201:..\..\..\arduinoLCD\test\Pain Drain\libraries\lvgl\src\draw\../misc/lv_mem.h ****         d8++;
 112              		.loc 2 201 0
 113 004e 0132     		adds	r2, r2, #1
 114              	.LVL13:
 202:..\..\..\arduinoLCD\test\Pain Drain\libraries\lvgl\src\draw\../misc/lv_mem.h ****         s8++;
 115              		.loc 2 202 0
 116 0050 0130     		adds	r0, r0, #1
 117              	.LVL14:
 203:..\..\..\arduinoLCD\test\Pain Drain\libraries\lvgl\src\draw\../misc/lv_mem.h ****         len--;
 118              		.loc 2 203 0
 119 0052 013B     		subs	r3, r3, #1
 120              	.LVL15:
 121              	.L4:
 199:..\..\..\arduinoLCD\test\Pain Drain\libraries\lvgl\src\draw\../misc/lv_mem.h ****         *d8 = *s8;
 122              		.loc 2 199 0
 123 0054 002B     		cmp	r3, #0
 124 0056 F8D1     		bne	.L5
 125 0058 5BE0     		b	.L6
 126              	.LVL16:
 127              	.L3:
 128              	.LBE32:
 129              	.LBE33:
 130              	.LBE29:
  61:..\..\..\arduinoLCD\test\Pain Drain\libraries\lvgl\src\draw/lv_img_buf.c **** #if LV_COLOR_SIZE == 32
  62:..\..\..\arduinoLCD\test\Pain Drain\libraries\lvgl\src\draw/lv_img_buf.c ****         p_color.ch.alpha = 0xFF; /*Only the color should be get so use a default alpha value*/
  63:..\..\..\arduinoLCD\test\Pain Drain\libraries\lvgl\src\draw/lv_img_buf.c **** #endif
  64:..\..\..\arduinoLCD\test\Pain Drain\libraries\lvgl\src\draw/lv_img_buf.c ****     }
  65:..\..\..\arduinoLCD\test\Pain Drain\libraries\lvgl\src\draw/lv_img_buf.c ****     else if(dsc->header.cf == LV_IMG_CF_INDEXED_1BIT) {
ARM GAS  C:\Users\haske\AppData\Local\Temp\ccwuLgOR.s 			page 8


 131              		.loc 1 65 0
 132 005a 072A     		cmp	r2, #7
 133 005c 13D1     		bne	.L7
 134              	.LVL17:
 135              	.LBB34:
  66:..\..\..\arduinoLCD\test\Pain Drain\libraries\lvgl\src\draw/lv_img_buf.c ****         buf_u8 += 4 * 2;
  67:..\..\..\arduinoLCD\test\Pain Drain\libraries\lvgl\src\draw/lv_img_buf.c ****         uint8_t bit = x & 0x7;
 136              		.loc 1 67 0
 137 005e 2A40     		ands	r2, r5
 138              	.LVL18:
  68:..\..\..\arduinoLCD\test\Pain Drain\libraries\lvgl\src\draw/lv_img_buf.c ****         x           = x >> 3;
 139              		.loc 1 68 0
 140 0060 E810     		asrs	r0, r5, #3
 141              	.LVL19:
  69:..\..\..\arduinoLCD\test\Pain Drain\libraries\lvgl\src\draw/lv_img_buf.c **** 
  70:..\..\..\arduinoLCD\test\Pain Drain\libraries\lvgl\src\draw/lv_img_buf.c ****         /*Get the current pixel.
  71:..\..\..\arduinoLCD\test\Pain Drain\libraries\lvgl\src\draw/lv_img_buf.c ****          *dsc->header.w + 7 means rounding up to 8 because the lines are byte aligned
  72:..\..\..\arduinoLCD\test\Pain Drain\libraries\lvgl\src\draw/lv_img_buf.c ****          *so the possible real width are 8, 16, 24 ...*/
  73:..\..\..\arduinoLCD\test\Pain Drain\libraries\lvgl\src\draw/lv_img_buf.c ****         uint32_t px  = ((dsc->header.w + 7) >> 3) * y + x;
 142              		.loc 1 73 0
 143 0062 2368     		ldr	r3, [r4]
 144              	.LVL20:
 145 0064 DB02     		lsls	r3, r3, #11
 146 0066 5B0D     		lsrs	r3, r3, #21
 147 0068 0733     		adds	r3, r3, #7
 148 006a DB10     		asrs	r3, r3, #3
 149 006c 5F43     		muls	r7, r3
 150 006e C019     		adds	r0, r0, r7
 151              	.LVL21:
  74:..\..\..\arduinoLCD\test\Pain Drain\libraries\lvgl\src\draw/lv_img_buf.c ****         p_color.full = (buf_u8[px] & (1 << (7 - bit))) >> (7 - bit);
 152              		.loc 1 74 0
 153 0070 3018     		adds	r0, r6, r0
 154              	.LVL22:
 155 0072 017A     		ldrb	r1, [r0, #8]
 156 0074 0723     		movs	r3, #7
 157 0076 9A1A     		subs	r2, r3, r2
 158              	.LVL23:
 159 0078 063B     		subs	r3, r3, #6
 160 007a 9340     		lsls	r3, r3, r2
 161 007c 0B40     		ands	r3, r1
 162 007e 1341     		asrs	r3, r3, r2
 163 0080 01AA     		add	r2, sp, #4
 164 0082 1380     		strh	r3, [r2]
 165              	.LVL24:
 166              	.LBE34:
 167 0084 45E0     		b	.L6
 168              	.LVL25:
 169              	.L7:
  75:..\..\..\arduinoLCD\test\Pain Drain\libraries\lvgl\src\draw/lv_img_buf.c ****     }
  76:..\..\..\arduinoLCD\test\Pain Drain\libraries\lvgl\src\draw/lv_img_buf.c ****     else if(dsc->header.cf == LV_IMG_CF_INDEXED_2BIT) {
 170              		.loc 1 76 0
 171 0086 082A     		cmp	r2, #8
 172 0088 15D1     		bne	.L8
 173              	.LVL26:
 174              	.LBB35:
  77:..\..\..\arduinoLCD\test\Pain Drain\libraries\lvgl\src\draw/lv_img_buf.c ****         buf_u8 += 4 * 4;
  78:..\..\..\arduinoLCD\test\Pain Drain\libraries\lvgl\src\draw/lv_img_buf.c ****         uint8_t bit = (x & 0x3) * 2;
ARM GAS  C:\Users\haske\AppData\Local\Temp\ccwuLgOR.s 			page 9


 175              		.loc 1 78 0
 176 008a 053A     		subs	r2, r2, #5
 177 008c 2A40     		ands	r2, r5
 178 008e 5200     		lsls	r2, r2, #1
 179              	.LVL27:
  79:..\..\..\arduinoLCD\test\Pain Drain\libraries\lvgl\src\draw/lv_img_buf.c ****         x           = x >> 2;
 180              		.loc 1 79 0
 181 0090 A810     		asrs	r0, r5, #2
 182              	.LVL28:
  80:..\..\..\arduinoLCD\test\Pain Drain\libraries\lvgl\src\draw/lv_img_buf.c **** 
  81:..\..\..\arduinoLCD\test\Pain Drain\libraries\lvgl\src\draw/lv_img_buf.c ****         /*Get the current pixel.
  82:..\..\..\arduinoLCD\test\Pain Drain\libraries\lvgl\src\draw/lv_img_buf.c ****          *dsc->header.w + 3 means rounding up to 4 because the lines are byte aligned
  83:..\..\..\arduinoLCD\test\Pain Drain\libraries\lvgl\src\draw/lv_img_buf.c ****          *so the possible real width are 4, 8, 12 ...*/
  84:..\..\..\arduinoLCD\test\Pain Drain\libraries\lvgl\src\draw/lv_img_buf.c ****         uint32_t px  = ((dsc->header.w + 3) >> 2) * y + x;
 183              		.loc 1 84 0
 184 0092 2368     		ldr	r3, [r4]
 185              	.LVL29:
 186 0094 DB02     		lsls	r3, r3, #11
 187 0096 5B0D     		lsrs	r3, r3, #21
 188 0098 0333     		adds	r3, r3, #3
 189 009a 9B10     		asrs	r3, r3, #2
 190 009c 5F43     		muls	r7, r3
 191 009e C019     		adds	r0, r0, r7
 192              	.LVL30:
  85:..\..\..\arduinoLCD\test\Pain Drain\libraries\lvgl\src\draw/lv_img_buf.c ****         p_color.full = (buf_u8[px] & (3 << (6 - bit))) >> (6 - bit);
 193              		.loc 1 85 0
 194 00a0 3018     		adds	r0, r6, r0
 195              	.LVL31:
 196 00a2 017C     		ldrb	r1, [r0, #16]
 197 00a4 0623     		movs	r3, #6
 198 00a6 9A1A     		subs	r2, r3, r2
 199              	.LVL32:
 200 00a8 033B     		subs	r3, r3, #3
 201 00aa 9340     		lsls	r3, r3, r2
 202 00ac 0B40     		ands	r3, r1
 203 00ae 1341     		asrs	r3, r3, r2
 204 00b0 01AA     		add	r2, sp, #4
 205 00b2 1380     		strh	r3, [r2]
 206              	.LVL33:
 207              	.LBE35:
 208 00b4 2DE0     		b	.L6
 209              	.LVL34:
 210              	.L8:
  86:..\..\..\arduinoLCD\test\Pain Drain\libraries\lvgl\src\draw/lv_img_buf.c ****     }
  87:..\..\..\arduinoLCD\test\Pain Drain\libraries\lvgl\src\draw/lv_img_buf.c ****     else if(dsc->header.cf == LV_IMG_CF_INDEXED_4BIT) {
 211              		.loc 1 87 0
 212 00b6 092A     		cmp	r2, #9
 213 00b8 16D1     		bne	.L9
 214              	.LVL35:
 215              	.LBB36:
  88:..\..\..\arduinoLCD\test\Pain Drain\libraries\lvgl\src\draw/lv_img_buf.c ****         buf_u8 += 4 * 16;
  89:..\..\..\arduinoLCD\test\Pain Drain\libraries\lvgl\src\draw/lv_img_buf.c ****         uint8_t bit = (x & 0x1) * 4;
 216              		.loc 1 89 0
 217 00ba 083A     		subs	r2, r2, #8
 218 00bc 2A40     		ands	r2, r5
 219 00be 9200     		lsls	r2, r2, #2
 220              	.LVL36:
ARM GAS  C:\Users\haske\AppData\Local\Temp\ccwuLgOR.s 			page 10


  90:..\..\..\arduinoLCD\test\Pain Drain\libraries\lvgl\src\draw/lv_img_buf.c ****         x           = x >> 1;
 221              		.loc 1 90 0
 222 00c0 6810     		asrs	r0, r5, #1
 223              	.LVL37:
  91:..\..\..\arduinoLCD\test\Pain Drain\libraries\lvgl\src\draw/lv_img_buf.c **** 
  92:..\..\..\arduinoLCD\test\Pain Drain\libraries\lvgl\src\draw/lv_img_buf.c ****         /*Get the current pixel.
  93:..\..\..\arduinoLCD\test\Pain Drain\libraries\lvgl\src\draw/lv_img_buf.c ****          *dsc->header.w + 1 means rounding up to 2 because the lines are byte aligned
  94:..\..\..\arduinoLCD\test\Pain Drain\libraries\lvgl\src\draw/lv_img_buf.c ****          *so the possible real width are 2, 4, 6 ...*/
  95:..\..\..\arduinoLCD\test\Pain Drain\libraries\lvgl\src\draw/lv_img_buf.c ****         uint32_t px  = ((dsc->header.w + 1) >> 1) * y + x;
 224              		.loc 1 95 0
 225 00c2 2368     		ldr	r3, [r4]
 226              	.LVL38:
 227 00c4 DB02     		lsls	r3, r3, #11
 228 00c6 5B0D     		lsrs	r3, r3, #21
 229 00c8 0133     		adds	r3, r3, #1
 230 00ca 5B10     		asrs	r3, r3, #1
 231 00cc 5F43     		muls	r7, r3
 232 00ce C019     		adds	r0, r0, r7
 233              	.LVL39:
  96:..\..\..\arduinoLCD\test\Pain Drain\libraries\lvgl\src\draw/lv_img_buf.c ****         p_color.full = (buf_u8[px] & (0xF << (4 - bit))) >> (4 - bit);
 234              		.loc 1 96 0
 235 00d0 3018     		adds	r0, r6, r0
 236              	.LVL40:
 237 00d2 4030     		adds	r0, r0, #64
 238 00d4 0178     		ldrb	r1, [r0]
 239 00d6 0423     		movs	r3, #4
 240 00d8 9A1A     		subs	r2, r3, r2
 241              	.LVL41:
 242 00da 0B33     		adds	r3, r3, #11
 243 00dc 9340     		lsls	r3, r3, r2
 244 00de 0B40     		ands	r3, r1
 245 00e0 1341     		asrs	r3, r3, r2
 246 00e2 01AA     		add	r2, sp, #4
 247 00e4 1380     		strh	r3, [r2]
 248              	.LVL42:
 249              	.LBE36:
 250 00e6 14E0     		b	.L6
 251              	.LVL43:
 252              	.L9:
  97:..\..\..\arduinoLCD\test\Pain Drain\libraries\lvgl\src\draw/lv_img_buf.c ****     }
  98:..\..\..\arduinoLCD\test\Pain Drain\libraries\lvgl\src\draw/lv_img_buf.c ****     else if(dsc->header.cf == LV_IMG_CF_INDEXED_8BIT) {
 253              		.loc 1 98 0
 254 00e8 0A2A     		cmp	r2, #10
 255 00ea 0CD1     		bne	.L10
 256              	.LVL44:
 257              	.LBB37:
  99:..\..\..\arduinoLCD\test\Pain Drain\libraries\lvgl\src\draw/lv_img_buf.c ****         buf_u8 += 4 * 256;
 100:..\..\..\arduinoLCD\test\Pain Drain\libraries\lvgl\src\draw/lv_img_buf.c ****         uint32_t px  = dsc->header.w * y + x;
 258              		.loc 1 100 0
 259 00ec 0068     		ldr	r0, [r0]
 260              	.LVL45:
 261 00ee C002     		lsls	r0, r0, #11
 262 00f0 400D     		lsrs	r0, r0, #21
 263 00f2 7843     		muls	r0, r7
 264 00f4 2818     		adds	r0, r5, r0
 265              	.LVL46:
 101:..\..\..\arduinoLCD\test\Pain Drain\libraries\lvgl\src\draw/lv_img_buf.c ****         p_color.full = buf_u8[px];
ARM GAS  C:\Users\haske\AppData\Local\Temp\ccwuLgOR.s 			page 11


 266              		.loc 1 101 0
 267 00f6 3018     		adds	r0, r6, r0
 268              	.LVL47:
 269 00f8 8023     		movs	r3, #128
 270              	.LVL48:
 271 00fa DB00     		lsls	r3, r3, #3
 272 00fc C618     		adds	r6, r0, r3
 273              	.LVL49:
 274 00fe 3278     		ldrb	r2, [r6]
 275 0100 01AB     		add	r3, sp, #4
 276 0102 1A80     		strh	r2, [r3]
 277              	.LVL50:
 278              	.LBE37:
 279 0104 05E0     		b	.L6
 280              	.LVL51:
 281              	.L10:
 102:..\..\..\arduinoLCD\test\Pain Drain\libraries\lvgl\src\draw/lv_img_buf.c ****     }
 103:..\..\..\arduinoLCD\test\Pain Drain\libraries\lvgl\src\draw/lv_img_buf.c ****     else if(dsc->header.cf == LV_IMG_CF_ALPHA_1BIT || dsc->header.cf == LV_IMG_CF_ALPHA_2BIT ||
 104:..\..\..\arduinoLCD\test\Pain Drain\libraries\lvgl\src\draw/lv_img_buf.c ****             dsc->header.cf == LV_IMG_CF_ALPHA_4BIT || dsc->header.cf == LV_IMG_CF_ALPHA_8BIT) {
 282              		.loc 1 104 0
 283 0106 0B3A     		subs	r2, r2, #11
 284 0108 D2B2     		uxtb	r2, r2
 103:..\..\..\arduinoLCD\test\Pain Drain\libraries\lvgl\src\draw/lv_img_buf.c ****             dsc->header.cf == LV_IMG_CF_ALPHA_4BIT || dsc->header.cf == LV_IMG_CF_ALPHA_8BIT) {
 285              		.loc 1 103 0
 286 010a 032A     		cmp	r2, #3
 287 010c 01D8     		bhi	.L6
 105:..\..\..\arduinoLCD\test\Pain Drain\libraries\lvgl\src\draw/lv_img_buf.c ****         p_color = color;
 288              		.loc 1 105 0
 289 010e 01AA     		add	r2, sp, #4
 290 0110 1380     		strh	r3, [r2]
 291              	.LVL52:
 292              	.L6:
 106:..\..\..\arduinoLCD\test\Pain Drain\libraries\lvgl\src\draw/lv_img_buf.c ****     }
 107:..\..\..\arduinoLCD\test\Pain Drain\libraries\lvgl\src\draw/lv_img_buf.c ****     return p_color;
 293              		.loc 1 107 0
 294 0112 01AB     		add	r3, sp, #4
 295              	.LVL53:
 296 0114 1888     		ldrh	r0, [r3]
 108:..\..\..\arduinoLCD\test\Pain Drain\libraries\lvgl\src\draw/lv_img_buf.c **** }
 297              		.loc 1 108 0
 298 0116 03B0     		add	sp, sp, #12
 299              		@ sp needed
 300              	.LVL54:
 301 0118 F0BD     		pop	{r4, r5, r6, r7, pc}
 302              		.cfi_endproc
 303              	.LFE54:
 304              		.size	lv_img_buf_get_px_color, .-lv_img_buf_get_px_color
 305 011a C046     		.section	.text.lv_img_buf_get_px_alpha,"ax",%progbits
 306              		.align	2
 307              		.global	lv_img_buf_get_px_alpha
 308              		.code	16
 309              		.thumb_func
 310              		.type	lv_img_buf_get_px_alpha, %function
 311              	lv_img_buf_get_px_alpha:
 312              	.LFB55:
 109:..\..\..\arduinoLCD\test\Pain Drain\libraries\lvgl\src\draw/lv_img_buf.c **** 
 110:..\..\..\arduinoLCD\test\Pain Drain\libraries\lvgl\src\draw/lv_img_buf.c **** /**
ARM GAS  C:\Users\haske\AppData\Local\Temp\ccwuLgOR.s 			page 12


 111:..\..\..\arduinoLCD\test\Pain Drain\libraries\lvgl\src\draw/lv_img_buf.c ****  * Get the alpha value of an image's pixel
 112:..\..\..\arduinoLCD\test\Pain Drain\libraries\lvgl\src\draw/lv_img_buf.c ****  * @param dsc pointer to an image descriptor
 113:..\..\..\arduinoLCD\test\Pain Drain\libraries\lvgl\src\draw/lv_img_buf.c ****  * @param x x coordinate of the point to set
 114:..\..\..\arduinoLCD\test\Pain Drain\libraries\lvgl\src\draw/lv_img_buf.c ****  * @param y x coordinate of the point to set
 115:..\..\..\arduinoLCD\test\Pain Drain\libraries\lvgl\src\draw/lv_img_buf.c ****  * @param safe true: check out of bounds
 116:..\..\..\arduinoLCD\test\Pain Drain\libraries\lvgl\src\draw/lv_img_buf.c ****  * @return alpha value of the point
 117:..\..\..\arduinoLCD\test\Pain Drain\libraries\lvgl\src\draw/lv_img_buf.c ****  */
 118:..\..\..\arduinoLCD\test\Pain Drain\libraries\lvgl\src\draw/lv_img_buf.c **** lv_opa_t lv_img_buf_get_px_alpha(lv_img_dsc_t * dsc, lv_coord_t x, lv_coord_t y)
 119:..\..\..\arduinoLCD\test\Pain Drain\libraries\lvgl\src\draw/lv_img_buf.c **** {
 313              		.loc 1 119 0
 314              		.cfi_startproc
 315              		@ args = 0, pretend = 0, frame = 16
 316              		@ frame_needed = 0, uses_anonymous_args = 0
 317              	.LVL55:
 318 0000 F0B5     		push	{r4, r5, r6, r7, lr}
 319              		.cfi_def_cfa_offset 20
 320              		.cfi_offset 4, -20
 321              		.cfi_offset 5, -16
 322              		.cfi_offset 6, -12
 323              		.cfi_offset 7, -8
 324              		.cfi_offset 14, -4
 325 0002 85B0     		sub	sp, sp, #20
 326              		.cfi_def_cfa_offset 40
 327 0004 0400     		movs	r4, r0
 328 0006 0F00     		movs	r7, r1
 329 0008 1500     		movs	r5, r2
 120:..\..\..\arduinoLCD\test\Pain Drain\libraries\lvgl\src\draw/lv_img_buf.c ****     uint8_t * buf_u8 = (uint8_t *)dsc->data;
 330              		.loc 1 120 0
 331 000a 8668     		ldr	r6, [r0, #8]
 332              	.LVL56:
 121:..\..\..\arduinoLCD\test\Pain Drain\libraries\lvgl\src\draw/lv_img_buf.c **** 
 122:..\..\..\arduinoLCD\test\Pain Drain\libraries\lvgl\src\draw/lv_img_buf.c ****     if(dsc->header.cf == LV_IMG_CF_TRUE_COLOR_ALPHA) {
 333              		.loc 1 122 0
 334 000c 0378     		ldrb	r3, [r0]
 335 000e 1F22     		movs	r2, #31
 336              	.LVL57:
 337 0010 1340     		ands	r3, r2
 338 0012 052B     		cmp	r3, #5
 339 0014 09D1     		bne	.L12
 340              	.LBB38:
 123:..\..\..\arduinoLCD\test\Pain Drain\libraries\lvgl\src\draw/lv_img_buf.c ****         uint32_t px = dsc->header.w * y * LV_IMG_PX_SIZE_ALPHA_BYTE + x * LV_IMG_PX_SIZE_ALPHA_BYTE
 341              		.loc 1 123 0
 342 0016 0168     		ldr	r1, [r0]
 343              	.LVL58:
 344 0018 C902     		lsls	r1, r1, #11
 345 001a 490D     		lsrs	r1, r1, #21
 346 001c 6943     		muls	r1, r5
 347 001e 7918     		adds	r1, r7, r1
 348 0020 4D00     		lsls	r5, r1, #1
 349 0022 6918     		adds	r1, r5, r1
 350              	.LVL59:
 124:..\..\..\arduinoLCD\test\Pain Drain\libraries\lvgl\src\draw/lv_img_buf.c ****         return buf_u8[px + LV_IMG_PX_SIZE_ALPHA_BYTE - 1];
 351              		.loc 1 124 0
 352 0024 0231     		adds	r1, r1, #2
 353              	.LVL60:
 354 0026 705C     		ldrb	r0, [r6, r1]
 355              	.LVL61:
ARM GAS  C:\Users\haske\AppData\Local\Temp\ccwuLgOR.s 			page 13


 356 0028 61E0     		b	.L13
 357              	.LVL62:
 358              	.L12:
 359              	.LBE38:
 125:..\..\..\arduinoLCD\test\Pain Drain\libraries\lvgl\src\draw/lv_img_buf.c ****     }
 126:..\..\..\arduinoLCD\test\Pain Drain\libraries\lvgl\src\draw/lv_img_buf.c ****     else if(dsc->header.cf == LV_IMG_CF_ALPHA_1BIT) {
 360              		.loc 1 126 0
 361 002a 0B2B     		cmp	r3, #11
 362 002c 16D1     		bne	.L14
 363              	.LBB39:
 127:..\..\..\arduinoLCD\test\Pain Drain\libraries\lvgl\src\draw/lv_img_buf.c ****         uint8_t bit = x & 0x7;
 364              		.loc 1 127 0
 365 002e 0721     		movs	r1, #7
 366              	.LVL63:
 367 0030 0B00     		movs	r3, r1
 368 0032 3B40     		ands	r3, r7
 369              	.LVL64:
 128:..\..\..\arduinoLCD\test\Pain Drain\libraries\lvgl\src\draw/lv_img_buf.c ****         x           = x >> 3;
 370              		.loc 1 128 0
 371 0034 F910     		asrs	r1, r7, #3
 372              	.LVL65:
 129:..\..\..\arduinoLCD\test\Pain Drain\libraries\lvgl\src\draw/lv_img_buf.c **** 
 130:..\..\..\arduinoLCD\test\Pain Drain\libraries\lvgl\src\draw/lv_img_buf.c ****         /*Get the current pixel.
 131:..\..\..\arduinoLCD\test\Pain Drain\libraries\lvgl\src\draw/lv_img_buf.c ****          *dsc->header.w + 7 means rounding up to 8 because the lines are byte aligned
 132:..\..\..\arduinoLCD\test\Pain Drain\libraries\lvgl\src\draw/lv_img_buf.c ****          *so the possible real width are 8 ,16, 24 ...*/
 133:..\..\..\arduinoLCD\test\Pain Drain\libraries\lvgl\src\draw/lv_img_buf.c ****         uint32_t px    = ((dsc->header.w + 7) >> 3) * y + x;
 373              		.loc 1 133 0
 374 0036 0268     		ldr	r2, [r0]
 375 0038 D202     		lsls	r2, r2, #11
 376 003a 520D     		lsrs	r2, r2, #21
 377 003c 0732     		adds	r2, r2, #7
 378 003e D210     		asrs	r2, r2, #3
 379 0040 6A43     		muls	r2, r5
 380 0042 8918     		adds	r1, r1, r2
 381              	.LVL66:
 134:..\..\..\arduinoLCD\test\Pain Drain\libraries\lvgl\src\draw/lv_img_buf.c ****         uint8_t px_opa = (buf_u8[px] & (1 << (7 - bit))) >> (7 - bit);
 382              		.loc 1 134 0
 383 0044 725C     		ldrb	r2, [r6, r1]
 384 0046 0721     		movs	r1, #7
 385              	.LVL67:
 386 0048 C91A     		subs	r1, r1, r3
 387 004a 0123     		movs	r3, #1
 388              	.LVL68:
 389 004c 8B40     		lsls	r3, r3, r1
 390 004e 1340     		ands	r3, r2
 391 0050 0B41     		asrs	r3, r3, r1
 392 0052 DBB2     		uxtb	r3, r3
 393              	.LVL69:
 135:..\..\..\arduinoLCD\test\Pain Drain\libraries\lvgl\src\draw/lv_img_buf.c ****         return px_opa ? LV_OPA_TRANSP : LV_OPA_COVER;
 394              		.loc 1 135 0
 395 0054 002B     		cmp	r3, #0
 396 0056 47D0     		beq	.L17
 397 0058 0020     		movs	r0, #0
 398              	.LVL70:
 399 005a 48E0     		b	.L13
 400              	.LVL71:
 401              	.L14:
ARM GAS  C:\Users\haske\AppData\Local\Temp\ccwuLgOR.s 			page 14


 402              	.LBE39:
 136:..\..\..\arduinoLCD\test\Pain Drain\libraries\lvgl\src\draw/lv_img_buf.c ****     }
 137:..\..\..\arduinoLCD\test\Pain Drain\libraries\lvgl\src\draw/lv_img_buf.c ****     else if(dsc->header.cf == LV_IMG_CF_ALPHA_2BIT) {
 403              		.loc 1 137 0
 404 005c 0C2B     		cmp	r3, #12
 405 005e 1BD1     		bne	.L15
 406              	.LBB40:
 138:..\..\..\arduinoLCD\test\Pain Drain\libraries\lvgl\src\draw/lv_img_buf.c ****         const uint8_t opa_table[4] = {0, 85, 170, 255}; /*Opacity mapping with bpp = 2*/
 407              		.loc 1 138 0
 408 0060 0422     		movs	r2, #4
 409 0062 2449     		ldr	r1, .L19
 410              	.LVL72:
 411 0064 6846     		mov	r0, sp
 412              	.LVL73:
 413 0066 FFF7FEFF 		bl	memcpy
 414              	.LVL74:
 139:..\..\..\arduinoLCD\test\Pain Drain\libraries\lvgl\src\draw/lv_img_buf.c **** 
 140:..\..\..\arduinoLCD\test\Pain Drain\libraries\lvgl\src\draw/lv_img_buf.c ****         uint8_t bit = (x & 0x3) * 2;
 415              		.loc 1 140 0
 416 006a 0323     		movs	r3, #3
 417 006c 3B40     		ands	r3, r7
 418 006e 5B00     		lsls	r3, r3, #1
 419              	.LVL75:
 141:..\..\..\arduinoLCD\test\Pain Drain\libraries\lvgl\src\draw/lv_img_buf.c ****         x           = x >> 2;
 420              		.loc 1 141 0
 421 0070 B910     		asrs	r1, r7, #2
 422              	.LVL76:
 142:..\..\..\arduinoLCD\test\Pain Drain\libraries\lvgl\src\draw/lv_img_buf.c **** 
 143:..\..\..\arduinoLCD\test\Pain Drain\libraries\lvgl\src\draw/lv_img_buf.c ****         /*Get the current pixel.
 144:..\..\..\arduinoLCD\test\Pain Drain\libraries\lvgl\src\draw/lv_img_buf.c ****          *dsc->header.w + 4 means rounding up to 8 because the lines are byte aligned
 145:..\..\..\arduinoLCD\test\Pain Drain\libraries\lvgl\src\draw/lv_img_buf.c ****          *so the possible real width are 4 ,8, 12 ...*/
 146:..\..\..\arduinoLCD\test\Pain Drain\libraries\lvgl\src\draw/lv_img_buf.c ****         uint32_t px    = ((dsc->header.w + 3) >> 2) * y + x;
 423              		.loc 1 146 0
 424 0072 2268     		ldr	r2, [r4]
 425 0074 D202     		lsls	r2, r2, #11
 426 0076 520D     		lsrs	r2, r2, #21
 427 0078 0332     		adds	r2, r2, #3
 428 007a 9210     		asrs	r2, r2, #2
 429 007c 6A43     		muls	r2, r5
 430 007e 8918     		adds	r1, r1, r2
 431              	.LVL77:
 147:..\..\..\arduinoLCD\test\Pain Drain\libraries\lvgl\src\draw/lv_img_buf.c ****         uint8_t px_opa = (buf_u8[px] & (3 << (6 - bit))) >> (6 - bit);
 432              		.loc 1 147 0
 433 0080 725C     		ldrb	r2, [r6, r1]
 434 0082 0621     		movs	r1, #6
 435              	.LVL78:
 436 0084 C91A     		subs	r1, r1, r3
 437 0086 0323     		movs	r3, #3
 438              	.LVL79:
 439 0088 8B40     		lsls	r3, r3, r1
 440              	.LVL80:
 441 008a 1340     		ands	r3, r2
 442 008c 0B41     		asrs	r3, r3, r1
 443              	.LVL81:
 148:..\..\..\arduinoLCD\test\Pain Drain\libraries\lvgl\src\draw/lv_img_buf.c ****         return opa_table[px_opa];
 444              		.loc 1 148 0
 445 008e FF22     		movs	r2, #255
ARM GAS  C:\Users\haske\AppData\Local\Temp\ccwuLgOR.s 			page 15


 446 0090 1340     		ands	r3, r2
 447              	.LVL82:
 448 0092 6A46     		mov	r2, sp
 449 0094 D05C     		ldrb	r0, [r2, r3]
 450 0096 2AE0     		b	.L13
 451              	.LVL83:
 452              	.L15:
 453              	.LBE40:
 149:..\..\..\arduinoLCD\test\Pain Drain\libraries\lvgl\src\draw/lv_img_buf.c ****     }
 150:..\..\..\arduinoLCD\test\Pain Drain\libraries\lvgl\src\draw/lv_img_buf.c ****     else if(dsc->header.cf == LV_IMG_CF_ALPHA_4BIT) {
 454              		.loc 1 150 0
 455 0098 0D2B     		cmp	r3, #13
 456 009a 1CD1     		bne	.L16
 457              	.LBB41:
 151:..\..\..\arduinoLCD\test\Pain Drain\libraries\lvgl\src\draw/lv_img_buf.c ****         const uint8_t opa_table[16] = {0,  17, 34,  51, /*Opacity mapping with bpp = 4*/
 458              		.loc 1 151 0
 459 009c 1022     		movs	r2, #16
 460 009e 1549     		ldr	r1, .L19
 461              	.LVL84:
 462 00a0 0431     		adds	r1, r1, #4
 463 00a2 6846     		mov	r0, sp
 464              	.LVL85:
 465 00a4 FFF7FEFF 		bl	memcpy
 466              	.LVL86:
 152:..\..\..\arduinoLCD\test\Pain Drain\libraries\lvgl\src\draw/lv_img_buf.c ****                                        68, 85, 102, 119, 136, 153, 170, 187, 204, 221, 238, 255
 153:..\..\..\arduinoLCD\test\Pain Drain\libraries\lvgl\src\draw/lv_img_buf.c ****                                       };
 154:..\..\..\arduinoLCD\test\Pain Drain\libraries\lvgl\src\draw/lv_img_buf.c **** 
 155:..\..\..\arduinoLCD\test\Pain Drain\libraries\lvgl\src\draw/lv_img_buf.c ****         uint8_t bit = (x & 0x1) * 4;
 467              		.loc 1 155 0
 468 00a8 0123     		movs	r3, #1
 469 00aa 3B40     		ands	r3, r7
 470 00ac 9B00     		lsls	r3, r3, #2
 471              	.LVL87:
 156:..\..\..\arduinoLCD\test\Pain Drain\libraries\lvgl\src\draw/lv_img_buf.c ****         x           = x >> 1;
 472              		.loc 1 156 0
 473 00ae 7910     		asrs	r1, r7, #1
 474              	.LVL88:
 157:..\..\..\arduinoLCD\test\Pain Drain\libraries\lvgl\src\draw/lv_img_buf.c **** 
 158:..\..\..\arduinoLCD\test\Pain Drain\libraries\lvgl\src\draw/lv_img_buf.c ****         /*Get the current pixel.
 159:..\..\..\arduinoLCD\test\Pain Drain\libraries\lvgl\src\draw/lv_img_buf.c ****          *dsc->header.w + 1 means rounding up to 8 because the lines are byte aligned
 160:..\..\..\arduinoLCD\test\Pain Drain\libraries\lvgl\src\draw/lv_img_buf.c ****          *so the possible real width are 2 ,4, 6 ...*/
 161:..\..\..\arduinoLCD\test\Pain Drain\libraries\lvgl\src\draw/lv_img_buf.c ****         uint32_t px    = ((dsc->header.w + 1) >> 1) * y + x;
 475              		.loc 1 161 0
 476 00b0 2268     		ldr	r2, [r4]
 477 00b2 D202     		lsls	r2, r2, #11
 478 00b4 520D     		lsrs	r2, r2, #21
 479 00b6 0132     		adds	r2, r2, #1
 480 00b8 5210     		asrs	r2, r2, #1
 481 00ba 6A43     		muls	r2, r5
 482 00bc 8918     		adds	r1, r1, r2
 483              	.LVL89:
 162:..\..\..\arduinoLCD\test\Pain Drain\libraries\lvgl\src\draw/lv_img_buf.c ****         uint8_t px_opa = (buf_u8[px] & (0xF << (4 - bit))) >> (4 - bit);
 484              		.loc 1 162 0
 485 00be 725C     		ldrb	r2, [r6, r1]
 486 00c0 0421     		movs	r1, #4
 487              	.LVL90:
 488 00c2 C91A     		subs	r1, r1, r3
ARM GAS  C:\Users\haske\AppData\Local\Temp\ccwuLgOR.s 			page 16


 489 00c4 0F23     		movs	r3, #15
 490              	.LVL91:
 491 00c6 8B40     		lsls	r3, r3, r1
 492 00c8 1340     		ands	r3, r2
 493 00ca 0B41     		asrs	r3, r3, r1
 494              	.LVL92:
 163:..\..\..\arduinoLCD\test\Pain Drain\libraries\lvgl\src\draw/lv_img_buf.c ****         return opa_table[px_opa];
 495              		.loc 1 163 0
 496 00cc FF22     		movs	r2, #255
 497 00ce 1340     		ands	r3, r2
 498              	.LVL93:
 499 00d0 6A46     		mov	r2, sp
 500 00d2 D05C     		ldrb	r0, [r2, r3]
 501 00d4 0BE0     		b	.L13
 502              	.LVL94:
 503              	.L16:
 504              	.LBE41:
 164:..\..\..\arduinoLCD\test\Pain Drain\libraries\lvgl\src\draw/lv_img_buf.c ****     }
 165:..\..\..\arduinoLCD\test\Pain Drain\libraries\lvgl\src\draw/lv_img_buf.c ****     else if(dsc->header.cf == LV_IMG_CF_ALPHA_8BIT) {
 505              		.loc 1 165 0
 506 00d6 0E2B     		cmp	r3, #14
 507 00d8 08D1     		bne	.L18
 508              	.LBB42:
 166:..\..\..\arduinoLCD\test\Pain Drain\libraries\lvgl\src\draw/lv_img_buf.c ****         uint32_t px = dsc->header.w * y + x;
 509              		.loc 1 166 0
 510 00da 0168     		ldr	r1, [r0]
 511              	.LVL95:
 512 00dc C902     		lsls	r1, r1, #11
 513 00de 490D     		lsrs	r1, r1, #21
 514 00e0 6943     		muls	r1, r5
 515 00e2 7918     		adds	r1, r7, r1
 516              	.LVL96:
 167:..\..\..\arduinoLCD\test\Pain Drain\libraries\lvgl\src\draw/lv_img_buf.c ****         return buf_u8[px];
 517              		.loc 1 167 0
 518 00e4 705C     		ldrb	r0, [r6, r1]
 519              	.LVL97:
 520 00e6 02E0     		b	.L13
 521              	.LVL98:
 522              	.L17:
 523              	.LBE42:
 524              	.LBB43:
 135:..\..\..\arduinoLCD\test\Pain Drain\libraries\lvgl\src\draw/lv_img_buf.c ****     }
 525              		.loc 1 135 0
 526 00e8 FF20     		movs	r0, #255
 527              	.LVL99:
 528 00ea 00E0     		b	.L13
 529              	.LVL100:
 530              	.L18:
 531              	.LBE43:
 168:..\..\..\arduinoLCD\test\Pain Drain\libraries\lvgl\src\draw/lv_img_buf.c ****     }
 169:..\..\..\arduinoLCD\test\Pain Drain\libraries\lvgl\src\draw/lv_img_buf.c **** 
 170:..\..\..\arduinoLCD\test\Pain Drain\libraries\lvgl\src\draw/lv_img_buf.c ****     return LV_OPA_COVER;
 532              		.loc 1 170 0
 533 00ec FF20     		movs	r0, #255
 534              	.LVL101:
 535              	.L13:
 171:..\..\..\arduinoLCD\test\Pain Drain\libraries\lvgl\src\draw/lv_img_buf.c **** }
ARM GAS  C:\Users\haske\AppData\Local\Temp\ccwuLgOR.s 			page 17


 536              		.loc 1 171 0 discriminator 1
 537 00ee 05B0     		add	sp, sp, #20
 538              		@ sp needed
 539              	.LVL102:
 540              	.LVL103:
 541 00f0 F0BD     		pop	{r4, r5, r6, r7, pc}
 542              	.L20:
 543 00f2 C046     		.align	2
 544              	.L19:
 545 00f4 44000000 		.word	.LANCHOR0
 546              		.cfi_endproc
 547              	.LFE55:
 548              		.size	lv_img_buf_get_px_alpha, .-lv_img_buf_get_px_alpha
 549              		.section	.text.lv_img_buf_set_px_alpha,"ax",%progbits
 550              		.align	2
 551              		.global	lv_img_buf_set_px_alpha
 552              		.code	16
 553              		.thumb_func
 554              		.type	lv_img_buf_set_px_alpha, %function
 555              	lv_img_buf_set_px_alpha:
 556              	.LFB56:
 172:..\..\..\arduinoLCD\test\Pain Drain\libraries\lvgl\src\draw/lv_img_buf.c **** 
 173:..\..\..\arduinoLCD\test\Pain Drain\libraries\lvgl\src\draw/lv_img_buf.c **** /**
 174:..\..\..\arduinoLCD\test\Pain Drain\libraries\lvgl\src\draw/lv_img_buf.c ****  * Set the alpha value of a pixel of an image. The color won't be affected
 175:..\..\..\arduinoLCD\test\Pain Drain\libraries\lvgl\src\draw/lv_img_buf.c ****  * @param dsc pointer to an image descriptor
 176:..\..\..\arduinoLCD\test\Pain Drain\libraries\lvgl\src\draw/lv_img_buf.c ****  * @param x x coordinate of the point to set
 177:..\..\..\arduinoLCD\test\Pain Drain\libraries\lvgl\src\draw/lv_img_buf.c ****  * @param y x coordinate of the point to set
 178:..\..\..\arduinoLCD\test\Pain Drain\libraries\lvgl\src\draw/lv_img_buf.c ****  * @param opa the desired opacity
 179:..\..\..\arduinoLCD\test\Pain Drain\libraries\lvgl\src\draw/lv_img_buf.c ****  * @param safe true: check out of bounds
 180:..\..\..\arduinoLCD\test\Pain Drain\libraries\lvgl\src\draw/lv_img_buf.c ****  */
 181:..\..\..\arduinoLCD\test\Pain Drain\libraries\lvgl\src\draw/lv_img_buf.c **** void lv_img_buf_set_px_alpha(lv_img_dsc_t * dsc, lv_coord_t x, lv_coord_t y, lv_opa_t opa)
 182:..\..\..\arduinoLCD\test\Pain Drain\libraries\lvgl\src\draw/lv_img_buf.c **** {
 557              		.loc 1 182 0
 558              		.cfi_startproc
 559              		@ args = 0, pretend = 0, frame = 0
 560              		@ frame_needed = 0, uses_anonymous_args = 0
 561              	.LVL104:
 562 0000 F0B5     		push	{r4, r5, r6, r7, lr}
 563              		.cfi_def_cfa_offset 20
 564              		.cfi_offset 4, -20
 565              		.cfi_offset 5, -16
 566              		.cfi_offset 6, -12
 567              		.cfi_offset 7, -8
 568              		.cfi_offset 14, -4
 569 0002 4746     		mov	r7, r8
 570 0004 80B4     		push	{r7}
 571              		.cfi_def_cfa_offset 24
 572              		.cfi_offset 8, -24
 573 0006 0600     		movs	r6, r0
 574 0008 8846     		mov	r8, r1
 575 000a 1500     		movs	r5, r2
 576 000c 1C00     		movs	r4, r3
 183:..\..\..\arduinoLCD\test\Pain Drain\libraries\lvgl\src\draw/lv_img_buf.c ****     uint8_t * buf_u8 = (uint8_t *)dsc->data;
 577              		.loc 1 183 0
 578 000e 8768     		ldr	r7, [r0, #8]
 579              	.LVL105:
 184:..\..\..\arduinoLCD\test\Pain Drain\libraries\lvgl\src\draw/lv_img_buf.c **** 
ARM GAS  C:\Users\haske\AppData\Local\Temp\ccwuLgOR.s 			page 18


 185:..\..\..\arduinoLCD\test\Pain Drain\libraries\lvgl\src\draw/lv_img_buf.c ****     if(dsc->header.cf == LV_IMG_CF_TRUE_COLOR_ALPHA) {
 580              		.loc 1 185 0
 581 0010 0378     		ldrb	r3, [r0]
 582              	.LVL106:
 583 0012 1F22     		movs	r2, #31
 584              	.LVL107:
 585 0014 1340     		ands	r3, r2
 586 0016 052B     		cmp	r3, #5
 587 0018 10D1     		bne	.L22
 588              	.LBB44:
 186:..\..\..\arduinoLCD\test\Pain Drain\libraries\lvgl\src\draw/lv_img_buf.c ****         uint8_t px_size          = lv_img_cf_get_px_size(dsc->header.cf) >> 3;
 589              		.loc 1 186 0
 590 001a 0078     		ldrb	r0, [r0]
 591              	.LVL108:
 592 001c C006     		lsls	r0, r0, #27
 593 001e C00E     		lsrs	r0, r0, #27
 594 0020 FFF7FEFF 		bl	lv_img_cf_get_px_size
 595              	.LVL109:
 596 0024 C008     		lsrs	r0, r0, #3
 597 0026 C0B2     		uxtb	r0, r0
 598              	.LVL110:
 187:..\..\..\arduinoLCD\test\Pain Drain\libraries\lvgl\src\draw/lv_img_buf.c ****         uint32_t px              = dsc->header.w * y * px_size + x * px_size;
 599              		.loc 1 187 0
 600 0028 3368     		ldr	r3, [r6]
 601 002a DB02     		lsls	r3, r3, #11
 602 002c 5B0D     		lsrs	r3, r3, #21
 603 002e 5D43     		muls	r5, r3
 604 0030 4544     		add	r5, r5, r8
 605 0032 4543     		muls	r5, r0
 606              	.LVL111:
 188:..\..\..\arduinoLCD\test\Pain Drain\libraries\lvgl\src\draw/lv_img_buf.c ****         buf_u8[px + px_size - 1] = opa;
 607              		.loc 1 188 0
 608 0034 2D18     		adds	r5, r5, r0
 609              	.LVL112:
 610 0036 013D     		subs	r5, r5, #1
 611 0038 7C55     		strb	r4, [r7, r5]
 612              	.LBE44:
 613 003a 54E0     		b	.L21
 614              	.LVL113:
 615              	.L22:
 189:..\..\..\arduinoLCD\test\Pain Drain\libraries\lvgl\src\draw/lv_img_buf.c ****     }
 190:..\..\..\arduinoLCD\test\Pain Drain\libraries\lvgl\src\draw/lv_img_buf.c ****     else if(dsc->header.cf == LV_IMG_CF_ALPHA_1BIT) {
 616              		.loc 1 190 0
 617 003c 0B2B     		cmp	r3, #11
 618 003e 16D1     		bne	.L24
 619              	.LBB45:
 191:..\..\..\arduinoLCD\test\Pain Drain\libraries\lvgl\src\draw/lv_img_buf.c ****         opa         = opa >> 7; /*opa -> [0,1]*/
 620              		.loc 1 191 0
 621 0040 E409     		lsrs	r4, r4, #7
 622              	.LVL114:
 192:..\..\..\arduinoLCD\test\Pain Drain\libraries\lvgl\src\draw/lv_img_buf.c ****         uint8_t bit = x & 0x7;
 623              		.loc 1 192 0
 624 0042 0722     		movs	r2, #7
 625 0044 0A40     		ands	r2, r1
 626              	.LVL115:
 193:..\..\..\arduinoLCD\test\Pain Drain\libraries\lvgl\src\draw/lv_img_buf.c ****         x           = x >> 3;
 627              		.loc 1 193 0
ARM GAS  C:\Users\haske\AppData\Local\Temp\ccwuLgOR.s 			page 19


 628 0046 C910     		asrs	r1, r1, #3
 629              	.LVL116:
 194:..\..\..\arduinoLCD\test\Pain Drain\libraries\lvgl\src\draw/lv_img_buf.c **** 
 195:..\..\..\arduinoLCD\test\Pain Drain\libraries\lvgl\src\draw/lv_img_buf.c ****         /*Get the current pixel.
 196:..\..\..\arduinoLCD\test\Pain Drain\libraries\lvgl\src\draw/lv_img_buf.c ****          *dsc->header.w + 7 means rounding up to 8 because the lines are byte aligned
 197:..\..\..\arduinoLCD\test\Pain Drain\libraries\lvgl\src\draw/lv_img_buf.c ****          *so the possible real width are 8 ,16, 24 ...*/
 198:..\..\..\arduinoLCD\test\Pain Drain\libraries\lvgl\src\draw/lv_img_buf.c ****         uint32_t px = ((dsc->header.w + 7) >> 3) * y + x;
 630              		.loc 1 198 0
 631 0048 0368     		ldr	r3, [r0]
 632 004a DB02     		lsls	r3, r3, #11
 633 004c 5B0D     		lsrs	r3, r3, #21
 634 004e 0733     		adds	r3, r3, #7
 635 0050 DB10     		asrs	r3, r3, #3
 636 0052 6B43     		muls	r3, r5
 637 0054 CD18     		adds	r5, r1, r3
 638              	.LVL117:
 199:..\..\..\arduinoLCD\test\Pain Drain\libraries\lvgl\src\draw/lv_img_buf.c ****         buf_u8[px]  = buf_u8[px] & ~(1 << (7 - bit));
 639              		.loc 1 199 0
 640 0056 7D19     		adds	r5, r7, r5
 641              	.LVL118:
 642 0058 2B78     		ldrb	r3, [r5]
 643              	.LVL119:
 644 005a 0721     		movs	r1, #7
 645              	.LVL120:
 646 005c 8A1A     		subs	r2, r1, r2
 647              	.LVL121:
 648 005e 0639     		subs	r1, r1, #6
 649              	.LVL122:
 650 0060 9140     		lsls	r1, r1, r2
 651 0062 8B43     		bics	r3, r1
 652 0064 5BB2     		sxtb	r3, r3
 200:..\..\..\arduinoLCD\test\Pain Drain\libraries\lvgl\src\draw/lv_img_buf.c ****         buf_u8[px]  = buf_u8[px] | ((opa & 0x1) << (7 - bit));
 653              		.loc 1 200 0
 654 0066 9440     		lsls	r4, r4, r2
 655              	.LVL123:
 656 0068 1C43     		orrs	r4, r3
 657 006a 2C70     		strb	r4, [r5]
 658              	.LBE45:
 659 006c 3BE0     		b	.L21
 660              	.LVL124:
 661              	.L24:
 201:..\..\..\arduinoLCD\test\Pain Drain\libraries\lvgl\src\draw/lv_img_buf.c ****     }
 202:..\..\..\arduinoLCD\test\Pain Drain\libraries\lvgl\src\draw/lv_img_buf.c ****     else if(dsc->header.cf == LV_IMG_CF_ALPHA_2BIT) {
 662              		.loc 1 202 0
 663 006e 0C2B     		cmp	r3, #12
 664 0070 17D1     		bne	.L25
 665              	.LBB46:
 203:..\..\..\arduinoLCD\test\Pain Drain\libraries\lvgl\src\draw/lv_img_buf.c ****         opa         = opa >> 6; /*opa -> [0,3]*/
 666              		.loc 1 203 0
 667 0072 A409     		lsrs	r4, r4, #6
 668              	.LVL125:
 204:..\..\..\arduinoLCD\test\Pain Drain\libraries\lvgl\src\draw/lv_img_buf.c ****         uint8_t bit = (x & 0x3) * 2;
 669              		.loc 1 204 0
 670 0074 0322     		movs	r2, #3
 671 0076 0A40     		ands	r2, r1
 672 0078 5200     		lsls	r2, r2, #1
 673              	.LVL126:
ARM GAS  C:\Users\haske\AppData\Local\Temp\ccwuLgOR.s 			page 20


 205:..\..\..\arduinoLCD\test\Pain Drain\libraries\lvgl\src\draw/lv_img_buf.c ****         x           = x >> 2;
 674              		.loc 1 205 0
 675 007a 8910     		asrs	r1, r1, #2
 676              	.LVL127:
 206:..\..\..\arduinoLCD\test\Pain Drain\libraries\lvgl\src\draw/lv_img_buf.c **** 
 207:..\..\..\arduinoLCD\test\Pain Drain\libraries\lvgl\src\draw/lv_img_buf.c ****         /*Get the current pixel.
 208:..\..\..\arduinoLCD\test\Pain Drain\libraries\lvgl\src\draw/lv_img_buf.c ****          *dsc->header.w + 4 means rounding up to 8 because the lines are byte aligned
 209:..\..\..\arduinoLCD\test\Pain Drain\libraries\lvgl\src\draw/lv_img_buf.c ****          *so the possible real width are 4 ,8, 12 ...*/
 210:..\..\..\arduinoLCD\test\Pain Drain\libraries\lvgl\src\draw/lv_img_buf.c ****         uint32_t px = ((dsc->header.w + 3) >> 2) * y + x;
 677              		.loc 1 210 0
 678 007c 0368     		ldr	r3, [r0]
 679 007e DB02     		lsls	r3, r3, #11
 680 0080 5B0D     		lsrs	r3, r3, #21
 681 0082 0333     		adds	r3, r3, #3
 682 0084 9B10     		asrs	r3, r3, #2
 683 0086 5D43     		muls	r5, r3
 684 0088 4D19     		adds	r5, r1, r5
 685              	.LVL128:
 211:..\..\..\arduinoLCD\test\Pain Drain\libraries\lvgl\src\draw/lv_img_buf.c ****         buf_u8[px]  = buf_u8[px] & ~(3 << (6 - bit));
 686              		.loc 1 211 0
 687 008a 7D19     		adds	r5, r7, r5
 688              	.LVL129:
 689 008c 2B78     		ldrb	r3, [r5]
 690 008e 0621     		movs	r1, #6
 691              	.LVL130:
 692 0090 8A1A     		subs	r2, r1, r2
 693              	.LVL131:
 694 0092 0339     		subs	r1, r1, #3
 695 0094 9140     		lsls	r1, r1, r2
 696 0096 8B43     		bics	r3, r1
 697 0098 5BB2     		sxtb	r3, r3
 212:..\..\..\arduinoLCD\test\Pain Drain\libraries\lvgl\src\draw/lv_img_buf.c ****         buf_u8[px]  = buf_u8[px] | ((opa & 0x3) << (6 - bit));
 698              		.loc 1 212 0
 699 009a 9440     		lsls	r4, r4, r2
 700              	.LVL132:
 701 009c 1C43     		orrs	r4, r3
 702 009e 2C70     		strb	r4, [r5]
 703              	.LBE46:
 704 00a0 21E0     		b	.L21
 705              	.LVL133:
 706              	.L25:
 213:..\..\..\arduinoLCD\test\Pain Drain\libraries\lvgl\src\draw/lv_img_buf.c ****     }
 214:..\..\..\arduinoLCD\test\Pain Drain\libraries\lvgl\src\draw/lv_img_buf.c ****     else if(dsc->header.cf == LV_IMG_CF_ALPHA_4BIT) {
 707              		.loc 1 214 0
 708 00a2 0D2B     		cmp	r3, #13
 709 00a4 17D1     		bne	.L26
 710              	.LBB47:
 215:..\..\..\arduinoLCD\test\Pain Drain\libraries\lvgl\src\draw/lv_img_buf.c ****         opa         = opa >> 4; /*opa -> [0,15]*/
 711              		.loc 1 215 0
 712 00a6 2409     		lsrs	r4, r4, #4
 713              	.LVL134:
 216:..\..\..\arduinoLCD\test\Pain Drain\libraries\lvgl\src\draw/lv_img_buf.c ****         uint8_t bit = (x & 0x1) * 4;
 714              		.loc 1 216 0
 715 00a8 0122     		movs	r2, #1
 716 00aa 0A40     		ands	r2, r1
 717 00ac 9200     		lsls	r2, r2, #2
 718              	.LVL135:
ARM GAS  C:\Users\haske\AppData\Local\Temp\ccwuLgOR.s 			page 21


 217:..\..\..\arduinoLCD\test\Pain Drain\libraries\lvgl\src\draw/lv_img_buf.c ****         x           = x >> 1;
 719              		.loc 1 217 0
 720 00ae 4910     		asrs	r1, r1, #1
 721              	.LVL136:
 218:..\..\..\arduinoLCD\test\Pain Drain\libraries\lvgl\src\draw/lv_img_buf.c **** 
 219:..\..\..\arduinoLCD\test\Pain Drain\libraries\lvgl\src\draw/lv_img_buf.c ****         /*Get the current pixel.
 220:..\..\..\arduinoLCD\test\Pain Drain\libraries\lvgl\src\draw/lv_img_buf.c ****          *dsc->header.w + 1 means rounding up to 8 because the lines are byte aligned
 221:..\..\..\arduinoLCD\test\Pain Drain\libraries\lvgl\src\draw/lv_img_buf.c ****          *so the possible real width are 2 ,4, 6 ...*/
 222:..\..\..\arduinoLCD\test\Pain Drain\libraries\lvgl\src\draw/lv_img_buf.c ****         uint32_t px = ((dsc->header.w + 1) >> 1) * y + x;
 722              		.loc 1 222 0
 723 00b0 0368     		ldr	r3, [r0]
 724 00b2 DB02     		lsls	r3, r3, #11
 725 00b4 5B0D     		lsrs	r3, r3, #21
 726 00b6 0133     		adds	r3, r3, #1
 727 00b8 5B10     		asrs	r3, r3, #1
 728 00ba 5D43     		muls	r5, r3
 729 00bc 4D19     		adds	r5, r1, r5
 730              	.LVL137:
 223:..\..\..\arduinoLCD\test\Pain Drain\libraries\lvgl\src\draw/lv_img_buf.c ****         buf_u8[px]  = buf_u8[px] & ~(0xF << (4 - bit));
 731              		.loc 1 223 0
 732 00be 7D19     		adds	r5, r7, r5
 733              	.LVL138:
 734 00c0 2B78     		ldrb	r3, [r5]
 735 00c2 0421     		movs	r1, #4
 736              	.LVL139:
 737 00c4 8A1A     		subs	r2, r1, r2
 738              	.LVL140:
 739 00c6 0B31     		adds	r1, r1, #11
 740 00c8 9140     		lsls	r1, r1, r2
 741 00ca 8B43     		bics	r3, r1
 742 00cc 5BB2     		sxtb	r3, r3
 224:..\..\..\arduinoLCD\test\Pain Drain\libraries\lvgl\src\draw/lv_img_buf.c ****         buf_u8[px]  = buf_u8[px] | ((opa & 0xF) << (4 - bit));
 743              		.loc 1 224 0
 744 00ce 9440     		lsls	r4, r4, r2
 745              	.LVL141:
 746 00d0 1C43     		orrs	r4, r3
 747 00d2 2C70     		strb	r4, [r5]
 748              	.LBE47:
 749 00d4 07E0     		b	.L21
 750              	.LVL142:
 751              	.L26:
 225:..\..\..\arduinoLCD\test\Pain Drain\libraries\lvgl\src\draw/lv_img_buf.c ****     }
 226:..\..\..\arduinoLCD\test\Pain Drain\libraries\lvgl\src\draw/lv_img_buf.c ****     else if(dsc->header.cf == LV_IMG_CF_ALPHA_8BIT) {
 752              		.loc 1 226 0
 753 00d6 0E2B     		cmp	r3, #14
 754 00d8 05D1     		bne	.L21
 755              	.LBB48:
 227:..\..\..\arduinoLCD\test\Pain Drain\libraries\lvgl\src\draw/lv_img_buf.c ****         uint32_t px = dsc->header.w * y + x;
 756              		.loc 1 227 0
 757 00da 0368     		ldr	r3, [r0]
 758 00dc DB02     		lsls	r3, r3, #11
 759 00de 5B0D     		lsrs	r3, r3, #21
 760 00e0 5D43     		muls	r5, r3
 761 00e2 4544     		add	r5, r5, r8
 762              	.LVL143:
 228:..\..\..\arduinoLCD\test\Pain Drain\libraries\lvgl\src\draw/lv_img_buf.c ****         buf_u8[px]  = opa;
 763              		.loc 1 228 0
ARM GAS  C:\Users\haske\AppData\Local\Temp\ccwuLgOR.s 			page 22


 764 00e4 7C55     		strb	r4, [r7, r5]
 765              	.LVL144:
 766              	.L21:
 767              	.LBE48:
 229:..\..\..\arduinoLCD\test\Pain Drain\libraries\lvgl\src\draw/lv_img_buf.c ****     }
 230:..\..\..\arduinoLCD\test\Pain Drain\libraries\lvgl\src\draw/lv_img_buf.c **** }
 768              		.loc 1 230 0
 769              		@ sp needed
 770              	.LVL145:
 771              	.LVL146:
 772 00e6 04BC     		pop	{r2}
 773 00e8 9046     		mov	r8, r2
 774 00ea F0BD     		pop	{r4, r5, r6, r7, pc}
 775              		.cfi_endproc
 776              	.LFE56:
 777              		.size	lv_img_buf_set_px_alpha, .-lv_img_buf_set_px_alpha
 778              		.section	.text.lv_img_buf_set_px_color,"ax",%progbits
 779              		.align	2
 780              		.global	lv_img_buf_set_px_color
 781              		.code	16
 782              		.thumb_func
 783              		.type	lv_img_buf_set_px_color, %function
 784              	lv_img_buf_set_px_color:
 785              	.LFB57:
 231:..\..\..\arduinoLCD\test\Pain Drain\libraries\lvgl\src\draw/lv_img_buf.c **** 
 232:..\..\..\arduinoLCD\test\Pain Drain\libraries\lvgl\src\draw/lv_img_buf.c **** /**
 233:..\..\..\arduinoLCD\test\Pain Drain\libraries\lvgl\src\draw/lv_img_buf.c ****  * Set the color of a pixel of an image. The alpha channel won't be affected.
 234:..\..\..\arduinoLCD\test\Pain Drain\libraries\lvgl\src\draw/lv_img_buf.c ****  * @param dsc pointer to an image descriptor
 235:..\..\..\arduinoLCD\test\Pain Drain\libraries\lvgl\src\draw/lv_img_buf.c ****  * @param x x coordinate of the point to set
 236:..\..\..\arduinoLCD\test\Pain Drain\libraries\lvgl\src\draw/lv_img_buf.c ****  * @param y x coordinate of the point to set
 237:..\..\..\arduinoLCD\test\Pain Drain\libraries\lvgl\src\draw/lv_img_buf.c ****  * @param c color of the point
 238:..\..\..\arduinoLCD\test\Pain Drain\libraries\lvgl\src\draw/lv_img_buf.c ****  * @param safe true: check out of bounds
 239:..\..\..\arduinoLCD\test\Pain Drain\libraries\lvgl\src\draw/lv_img_buf.c ****  */
 240:..\..\..\arduinoLCD\test\Pain Drain\libraries\lvgl\src\draw/lv_img_buf.c **** void lv_img_buf_set_px_color(lv_img_dsc_t * dsc, lv_coord_t x, lv_coord_t y, lv_color_t c)
 241:..\..\..\arduinoLCD\test\Pain Drain\libraries\lvgl\src\draw/lv_img_buf.c **** {
 786              		.loc 1 241 0
 787              		.cfi_startproc
 788              		@ args = 0, pretend = 0, frame = 8
 789              		@ frame_needed = 0, uses_anonymous_args = 0
 790              	.LVL147:
 791 0000 F0B5     		push	{r4, r5, r6, r7, lr}
 792              		.cfi_def_cfa_offset 20
 793              		.cfi_offset 4, -20
 794              		.cfi_offset 5, -16
 795              		.cfi_offset 6, -12
 796              		.cfi_offset 7, -8
 797              		.cfi_offset 14, -4
 798 0002 83B0     		sub	sp, sp, #12
 799              		.cfi_def_cfa_offset 32
 800 0004 0700     		movs	r7, r0
 801 0006 0D00     		movs	r5, r1
 802 0008 1600     		movs	r6, r2
 803 000a 01AA     		add	r2, sp, #4
 804              	.LVL148:
 805 000c 1380     		strh	r3, [r2]
 242:..\..\..\arduinoLCD\test\Pain Drain\libraries\lvgl\src\draw/lv_img_buf.c ****     uint8_t * buf_u8 = (uint8_t *)dsc->data;
 806              		.loc 1 242 0
ARM GAS  C:\Users\haske\AppData\Local\Temp\ccwuLgOR.s 			page 23


 807 000e 8468     		ldr	r4, [r0, #8]
 808              	.LVL149:
 243:..\..\..\arduinoLCD\test\Pain Drain\libraries\lvgl\src\draw/lv_img_buf.c **** 
 244:..\..\..\arduinoLCD\test\Pain Drain\libraries\lvgl\src\draw/lv_img_buf.c ****     if(dsc->header.cf == LV_IMG_CF_TRUE_COLOR || dsc->header.cf == LV_IMG_CF_TRUE_COLOR_CHROMA_KEYE
 809              		.loc 1 244 0
 810 0010 0378     		ldrb	r3, [r0]
 811 0012 1F22     		movs	r2, #31
 812 0014 1340     		ands	r3, r2
 813 0016 042B     		cmp	r3, #4
 814 0018 01D0     		beq	.L28
 815              		.loc 1 244 0 is_stmt 0 discriminator 1
 816 001a 062B     		cmp	r3, #6
 817 001c 17D1     		bne	.L29
 818              	.L28:
 819              	.LBB49:
 245:..\..\..\arduinoLCD\test\Pain Drain\libraries\lvgl\src\draw/lv_img_buf.c ****         uint8_t px_size = lv_img_cf_get_px_size(dsc->header.cf) >> 3;
 820              		.loc 1 245 0 is_stmt 1
 821 001e 3878     		ldrb	r0, [r7]
 822              	.LVL150:
 823 0020 C006     		lsls	r0, r0, #27
 824 0022 C00E     		lsrs	r0, r0, #27
 825 0024 FFF7FEFF 		bl	lv_img_cf_get_px_size
 826              	.LVL151:
 827 0028 C008     		lsrs	r0, r0, #3
 828 002a C0B2     		uxtb	r0, r0
 829              	.LVL152:
 246:..\..\..\arduinoLCD\test\Pain Drain\libraries\lvgl\src\draw/lv_img_buf.c ****         uint32_t px     = dsc->header.w * y * px_size + x * px_size;
 830              		.loc 1 246 0
 831 002c 3968     		ldr	r1, [r7]
 832 002e C902     		lsls	r1, r1, #11
 833 0030 490D     		lsrs	r1, r1, #21
 834 0032 7143     		muls	r1, r6
 835 0034 6918     		adds	r1, r5, r1
 836 0036 4143     		muls	r1, r0
 837              	.LVL153:
 247:..\..\..\arduinoLCD\test\Pain Drain\libraries\lvgl\src\draw/lv_img_buf.c ****         lv_memcpy_small(&buf_u8[px], &c, px_size);
 838              		.loc 1 247 0
 839 0038 6118     		adds	r1, r4, r1
 840              	.LVL154:
 841              	.LBB50:
 842              	.LBB51:
 197:..\..\..\arduinoLCD\test\Pain Drain\libraries\lvgl\src\draw\../misc/lv_mem.h **** 
 843              		.loc 2 197 0
 844 003a 01AB     		add	r3, sp, #4
 845              	.LVL155:
 846 003c 04E0     		b	.L30
 847              	.LVL156:
 848              	.L31:
 200:..\..\..\arduinoLCD\test\Pain Drain\libraries\lvgl\src\draw\../misc/lv_mem.h ****         d8++;
 849              		.loc 2 200 0
 850 003e 1A78     		ldrb	r2, [r3]
 851 0040 0A70     		strb	r2, [r1]
 201:..\..\..\arduinoLCD\test\Pain Drain\libraries\lvgl\src\draw\../misc/lv_mem.h ****         s8++;
 852              		.loc 2 201 0
 853 0042 0131     		adds	r1, r1, #1
 854              	.LVL157:
 202:..\..\..\arduinoLCD\test\Pain Drain\libraries\lvgl\src\draw\../misc/lv_mem.h ****         len--;
ARM GAS  C:\Users\haske\AppData\Local\Temp\ccwuLgOR.s 			page 24


 855              		.loc 2 202 0
 856 0044 0133     		adds	r3, r3, #1
 857              	.LVL158:
 858              		.loc 2 203 0
 859 0046 0138     		subs	r0, r0, #1
 860              	.LVL159:
 861              	.L30:
 199:..\..\..\arduinoLCD\test\Pain Drain\libraries\lvgl\src\draw\../misc/lv_mem.h ****         *d8 = *s8;
 862              		.loc 2 199 0
 863 0048 0028     		cmp	r0, #0
 864 004a F8D1     		bne	.L31
 865 004c 85E0     		b	.L27
 866              	.LVL160:
 867              	.L29:
 868              	.LBE51:
 869              	.LBE50:
 870              	.LBE49:
 248:..\..\..\arduinoLCD\test\Pain Drain\libraries\lvgl\src\draw/lv_img_buf.c ****     }
 249:..\..\..\arduinoLCD\test\Pain Drain\libraries\lvgl\src\draw/lv_img_buf.c ****     else if(dsc->header.cf == LV_IMG_CF_TRUE_COLOR_ALPHA) {
 871              		.loc 1 249 0
 872 004e 052B     		cmp	r3, #5
 873 0050 18D1     		bne	.L33
 874              	.LBB52:
 250:..\..\..\arduinoLCD\test\Pain Drain\libraries\lvgl\src\draw/lv_img_buf.c ****         uint8_t px_size = lv_img_cf_get_px_size(dsc->header.cf) >> 3;
 875              		.loc 1 250 0
 876 0052 0078     		ldrb	r0, [r0]
 877              	.LVL161:
 878 0054 C006     		lsls	r0, r0, #27
 879 0056 C00E     		lsrs	r0, r0, #27
 880 0058 FFF7FEFF 		bl	lv_img_cf_get_px_size
 881              	.LVL162:
 882 005c C008     		lsrs	r0, r0, #3
 883 005e C3B2     		uxtb	r3, r0
 884              	.LVL163:
 251:..\..\..\arduinoLCD\test\Pain Drain\libraries\lvgl\src\draw/lv_img_buf.c ****         uint32_t px     = dsc->header.w * y * px_size + x * px_size;
 885              		.loc 1 251 0
 886 0060 3968     		ldr	r1, [r7]
 887 0062 C902     		lsls	r1, r1, #11
 888 0064 490D     		lsrs	r1, r1, #21
 889 0066 7143     		muls	r1, r6
 890 0068 6918     		adds	r1, r5, r1
 891 006a 5943     		muls	r1, r3
 892              	.LVL164:
 252:..\..\..\arduinoLCD\test\Pain Drain\libraries\lvgl\src\draw/lv_img_buf.c ****         lv_memcpy_small(&buf_u8[px], &c, px_size - 1); /*-1 to not overwrite the alpha value*/
 893              		.loc 1 252 0
 894 006c 6118     		adds	r1, r4, r1
 895              	.LVL165:
 896 006e 013B     		subs	r3, r3, #1
 897              	.LVL166:
 898              	.LBB53:
 899              	.LBB54:
 197:..\..\..\arduinoLCD\test\Pain Drain\libraries\lvgl\src\draw\../misc/lv_mem.h **** 
 900              		.loc 2 197 0
 901 0070 01AA     		add	r2, sp, #4
 902              	.LVL167:
 903 0072 04E0     		b	.L34
 904              	.LVL168:
ARM GAS  C:\Users\haske\AppData\Local\Temp\ccwuLgOR.s 			page 25


 905              	.L35:
 200:..\..\..\arduinoLCD\test\Pain Drain\libraries\lvgl\src\draw\../misc/lv_mem.h ****         d8++;
 906              		.loc 2 200 0
 907 0074 1078     		ldrb	r0, [r2]
 908 0076 0870     		strb	r0, [r1]
 201:..\..\..\arduinoLCD\test\Pain Drain\libraries\lvgl\src\draw\../misc/lv_mem.h ****         s8++;
 909              		.loc 2 201 0
 910 0078 0131     		adds	r1, r1, #1
 911              	.LVL169:
 202:..\..\..\arduinoLCD\test\Pain Drain\libraries\lvgl\src\draw\../misc/lv_mem.h ****         len--;
 912              		.loc 2 202 0
 913 007a 0132     		adds	r2, r2, #1
 914              	.LVL170:
 915              		.loc 2 203 0
 916 007c 013B     		subs	r3, r3, #1
 917              	.LVL171:
 918              	.L34:
 199:..\..\..\arduinoLCD\test\Pain Drain\libraries\lvgl\src\draw\../misc/lv_mem.h ****         *d8 = *s8;
 919              		.loc 2 199 0
 920 007e 002B     		cmp	r3, #0
 921 0080 F8D1     		bne	.L35
 922 0082 6AE0     		b	.L27
 923              	.LVL172:
 924              	.L33:
 925              	.LBE54:
 926              	.LBE53:
 927              	.LBE52:
 253:..\..\..\arduinoLCD\test\Pain Drain\libraries\lvgl\src\draw/lv_img_buf.c ****     }
 254:..\..\..\arduinoLCD\test\Pain Drain\libraries\lvgl\src\draw/lv_img_buf.c ****     else if(dsc->header.cf == LV_IMG_CF_INDEXED_1BIT) {
 928              		.loc 1 254 0
 929 0084 072B     		cmp	r3, #7
 930 0086 1CD1     		bne	.L36
 931              	.LBB55:
 255:..\..\..\arduinoLCD\test\Pain Drain\libraries\lvgl\src\draw/lv_img_buf.c ****         buf_u8 += sizeof(lv_color32_t) * 2; /*Skip the palette*/
 932              		.loc 1 255 0
 933 0088 2000     		movs	r0, r4
 934              	.LVL173:
 935 008a 0830     		adds	r0, r0, #8
 936              	.LVL174:
 256:..\..\..\arduinoLCD\test\Pain Drain\libraries\lvgl\src\draw/lv_img_buf.c **** 
 257:..\..\..\arduinoLCD\test\Pain Drain\libraries\lvgl\src\draw/lv_img_buf.c ****         uint8_t bit = x & 0x7;
 937              		.loc 1 257 0
 938 008c 0724     		movs	r4, #7
 939 008e 2200     		movs	r2, r4
 940 0090 0A40     		ands	r2, r1
 941              	.LVL175:
 258:..\..\..\arduinoLCD\test\Pain Drain\libraries\lvgl\src\draw/lv_img_buf.c ****         x           = x >> 3;
 942              		.loc 1 258 0
 943 0092 C910     		asrs	r1, r1, #3
 944              	.LVL176:
 259:..\..\..\arduinoLCD\test\Pain Drain\libraries\lvgl\src\draw/lv_img_buf.c **** 
 260:..\..\..\arduinoLCD\test\Pain Drain\libraries\lvgl\src\draw/lv_img_buf.c ****         /*Get the current pixel.
 261:..\..\..\arduinoLCD\test\Pain Drain\libraries\lvgl\src\draw/lv_img_buf.c ****          *dsc->header.w + 7 means rounding up to 8 because the lines are byte aligned
 262:..\..\..\arduinoLCD\test\Pain Drain\libraries\lvgl\src\draw/lv_img_buf.c ****          *so the possible real width are 8 ,16, 24 ...*/
 263:..\..\..\arduinoLCD\test\Pain Drain\libraries\lvgl\src\draw/lv_img_buf.c ****         uint32_t px = ((dsc->header.w + 7) >> 3) * y + x;
 945              		.loc 1 263 0
 946 0094 3B68     		ldr	r3, [r7]
ARM GAS  C:\Users\haske\AppData\Local\Temp\ccwuLgOR.s 			page 26


 947 0096 DB02     		lsls	r3, r3, #11
 948 0098 5B0D     		lsrs	r3, r3, #21
 949 009a 0733     		adds	r3, r3, #7
 950 009c DB10     		asrs	r3, r3, #3
 951 009e 5E43     		muls	r6, r3
 952 00a0 8919     		adds	r1, r1, r6
 953              	.LVL177:
 264:..\..\..\arduinoLCD\test\Pain Drain\libraries\lvgl\src\draw/lv_img_buf.c ****         buf_u8[px]  = buf_u8[px] & ~(1 << (7 - bit));
 954              		.loc 1 264 0
 955 00a2 4118     		adds	r1, r0, r1
 956              	.LVL178:
 957 00a4 0B78     		ldrb	r3, [r1]
 958 00a6 A41A     		subs	r4, r4, r2
 959 00a8 0122     		movs	r2, #1
 960              	.LVL179:
 961 00aa A240     		lsls	r2, r2, r4
 962 00ac 9343     		bics	r3, r2
 963 00ae 58B2     		sxtb	r0, r3
 964              	.LVL180:
 965 00b0 0870     		strb	r0, [r1]
 966              	.LVL181:
 265:..\..\..\arduinoLCD\test\Pain Drain\libraries\lvgl\src\draw/lv_img_buf.c ****         buf_u8[px]  = buf_u8[px] | ((c.full & 0x1) << (7 - bit));
 967              		.loc 1 265 0
 968 00b2 01AB     		add	r3, sp, #4
 969 00b4 1A88     		ldrh	r2, [r3]
 970 00b6 0123     		movs	r3, #1
 971 00b8 1340     		ands	r3, r2
 972 00ba A340     		lsls	r3, r3, r4
 973 00bc 0343     		orrs	r3, r0
 974 00be 0B70     		strb	r3, [r1]
 975              	.LBE55:
 976 00c0 4BE0     		b	.L27
 977              	.LVL182:
 978              	.L36:
 266:..\..\..\arduinoLCD\test\Pain Drain\libraries\lvgl\src\draw/lv_img_buf.c ****     }
 267:..\..\..\arduinoLCD\test\Pain Drain\libraries\lvgl\src\draw/lv_img_buf.c ****     else if(dsc->header.cf == LV_IMG_CF_INDEXED_2BIT) {
 979              		.loc 1 267 0
 980 00c2 082B     		cmp	r3, #8
 981 00c4 1CD1     		bne	.L37
 982              	.LBB56:
 268:..\..\..\arduinoLCD\test\Pain Drain\libraries\lvgl\src\draw/lv_img_buf.c ****         buf_u8 += sizeof(lv_color32_t) * 4; /*Skip the palette*/
 983              		.loc 1 268 0
 984 00c6 1034     		adds	r4, r4, #16
 985              	.LVL183:
 269:..\..\..\arduinoLCD\test\Pain Drain\libraries\lvgl\src\draw/lv_img_buf.c ****         uint8_t bit = (x & 0x3) * 2;
 986              		.loc 1 269 0
 987 00c8 0322     		movs	r2, #3
 988 00ca 0A40     		ands	r2, r1
 989 00cc 5200     		lsls	r2, r2, #1
 990              	.LVL184:
 270:..\..\..\arduinoLCD\test\Pain Drain\libraries\lvgl\src\draw/lv_img_buf.c ****         x           = x >> 2;
 991              		.loc 1 270 0
 992 00ce 8910     		asrs	r1, r1, #2
 993              	.LVL185:
 271:..\..\..\arduinoLCD\test\Pain Drain\libraries\lvgl\src\draw/lv_img_buf.c **** 
 272:..\..\..\arduinoLCD\test\Pain Drain\libraries\lvgl\src\draw/lv_img_buf.c ****         /*Get the current pixel.
 273:..\..\..\arduinoLCD\test\Pain Drain\libraries\lvgl\src\draw/lv_img_buf.c ****          *dsc->header.w + 3 means rounding up to 4 because the lines are byte aligned
ARM GAS  C:\Users\haske\AppData\Local\Temp\ccwuLgOR.s 			page 27


 274:..\..\..\arduinoLCD\test\Pain Drain\libraries\lvgl\src\draw/lv_img_buf.c ****          *so the possible real width are 4, 8 ,12 ...*/
 275:..\..\..\arduinoLCD\test\Pain Drain\libraries\lvgl\src\draw/lv_img_buf.c ****         uint32_t px = ((dsc->header.w + 3) >> 2) * y + x;
 994              		.loc 1 275 0
 995 00d0 0368     		ldr	r3, [r0]
 996 00d2 DB02     		lsls	r3, r3, #11
 997 00d4 5B0D     		lsrs	r3, r3, #21
 998 00d6 0333     		adds	r3, r3, #3
 999 00d8 9B10     		asrs	r3, r3, #2
 1000 00da 5E43     		muls	r6, r3
 1001 00dc 8919     		adds	r1, r1, r6
 1002              	.LVL186:
 276:..\..\..\arduinoLCD\test\Pain Drain\libraries\lvgl\src\draw/lv_img_buf.c **** 
 277:..\..\..\arduinoLCD\test\Pain Drain\libraries\lvgl\src\draw/lv_img_buf.c ****         buf_u8[px] = buf_u8[px] & ~(3 << (6 - bit));
 1003              		.loc 1 277 0
 1004 00de 6118     		adds	r1, r4, r1
 1005              	.LVL187:
 1006 00e0 0B78     		ldrb	r3, [r1]
 1007 00e2 0624     		movs	r4, #6
 1008              	.LVL188:
 1009 00e4 A41A     		subs	r4, r4, r2
 1010 00e6 0322     		movs	r2, #3
 1011              	.LVL189:
 1012 00e8 A240     		lsls	r2, r2, r4
 1013              	.LVL190:
 1014 00ea 9343     		bics	r3, r2
 1015 00ec 58B2     		sxtb	r0, r3
 1016              	.LVL191:
 1017 00ee 0870     		strb	r0, [r1]
 1018              	.LVL192:
 278:..\..\..\arduinoLCD\test\Pain Drain\libraries\lvgl\src\draw/lv_img_buf.c ****         buf_u8[px] = buf_u8[px] | ((c.full & 0x3) << (6 - bit));
 1019              		.loc 1 278 0
 1020 00f0 01AB     		add	r3, sp, #4
 1021 00f2 1A88     		ldrh	r2, [r3]
 1022 00f4 0323     		movs	r3, #3
 1023              	.LVL193:
 1024 00f6 1340     		ands	r3, r2
 1025              	.LVL194:
 1026 00f8 A340     		lsls	r3, r3, r4
 1027 00fa 0343     		orrs	r3, r0
 1028 00fc 0B70     		strb	r3, [r1]
 1029              	.LBE56:
 1030 00fe 2CE0     		b	.L27
 1031              	.LVL195:
 1032              	.L37:
 279:..\..\..\arduinoLCD\test\Pain Drain\libraries\lvgl\src\draw/lv_img_buf.c ****     }
 280:..\..\..\arduinoLCD\test\Pain Drain\libraries\lvgl\src\draw/lv_img_buf.c ****     else if(dsc->header.cf == LV_IMG_CF_INDEXED_4BIT) {
 1033              		.loc 1 280 0
 1034 0100 092B     		cmp	r3, #9
 1035 0102 1CD1     		bne	.L38
 1036              	.LBB57:
 281:..\..\..\arduinoLCD\test\Pain Drain\libraries\lvgl\src\draw/lv_img_buf.c ****         buf_u8 += sizeof(lv_color32_t) * 16; /*Skip the palette*/
 1037              		.loc 1 281 0
 1038 0104 4034     		adds	r4, r4, #64
 1039              	.LVL196:
 282:..\..\..\arduinoLCD\test\Pain Drain\libraries\lvgl\src\draw/lv_img_buf.c ****         uint8_t bit = (x & 0x1) * 4;
 1040              		.loc 1 282 0
 1041 0106 0122     		movs	r2, #1
ARM GAS  C:\Users\haske\AppData\Local\Temp\ccwuLgOR.s 			page 28


 1042 0108 0A40     		ands	r2, r1
 1043 010a 9200     		lsls	r2, r2, #2
 1044              	.LVL197:
 283:..\..\..\arduinoLCD\test\Pain Drain\libraries\lvgl\src\draw/lv_img_buf.c ****         x           = x >> 1;
 1045              		.loc 1 283 0
 1046 010c 4910     		asrs	r1, r1, #1
 1047              	.LVL198:
 284:..\..\..\arduinoLCD\test\Pain Drain\libraries\lvgl\src\draw/lv_img_buf.c **** 
 285:..\..\..\arduinoLCD\test\Pain Drain\libraries\lvgl\src\draw/lv_img_buf.c ****         /*Get the current pixel.
 286:..\..\..\arduinoLCD\test\Pain Drain\libraries\lvgl\src\draw/lv_img_buf.c ****          *dsc->header.w + 1 means rounding up to 2 because the lines are byte aligned
 287:..\..\..\arduinoLCD\test\Pain Drain\libraries\lvgl\src\draw/lv_img_buf.c ****          *so the possible real width are 2 ,4, 6 ...*/
 288:..\..\..\arduinoLCD\test\Pain Drain\libraries\lvgl\src\draw/lv_img_buf.c ****         uint32_t px = ((dsc->header.w + 1) >> 1) * y + x;
 1048              		.loc 1 288 0
 1049 010e 0368     		ldr	r3, [r0]
 1050 0110 DB02     		lsls	r3, r3, #11
 1051 0112 5B0D     		lsrs	r3, r3, #21
 1052 0114 0133     		adds	r3, r3, #1
 1053 0116 5B10     		asrs	r3, r3, #1
 1054 0118 5E43     		muls	r6, r3
 1055 011a 8919     		adds	r1, r1, r6
 1056              	.LVL199:
 289:..\..\..\arduinoLCD\test\Pain Drain\libraries\lvgl\src\draw/lv_img_buf.c ****         buf_u8[px]  = buf_u8[px] & ~(0xF << (4 - bit));
 1057              		.loc 1 289 0
 1058 011c 6118     		adds	r1, r4, r1
 1059              	.LVL200:
 1060 011e 0B78     		ldrb	r3, [r1]
 1061 0120 0424     		movs	r4, #4
 1062              	.LVL201:
 1063 0122 A41A     		subs	r4, r4, r2
 1064 0124 0F22     		movs	r2, #15
 1065              	.LVL202:
 1066 0126 A240     		lsls	r2, r2, r4
 1067 0128 9343     		bics	r3, r2
 1068 012a 58B2     		sxtb	r0, r3
 1069              	.LVL203:
 1070 012c 0870     		strb	r0, [r1]
 1071              	.LVL204:
 290:..\..\..\arduinoLCD\test\Pain Drain\libraries\lvgl\src\draw/lv_img_buf.c ****         buf_u8[px]  = buf_u8[px] | ((c.full & 0xF) << (4 - bit));
 1072              		.loc 1 290 0
 1073 012e 01AB     		add	r3, sp, #4
 1074 0130 1A88     		ldrh	r2, [r3]
 1075 0132 0F23     		movs	r3, #15
 1076 0134 1340     		ands	r3, r2
 1077 0136 A340     		lsls	r3, r3, r4
 1078 0138 0343     		orrs	r3, r0
 1079 013a 0B70     		strb	r3, [r1]
 1080              	.LBE57:
 1081 013c 0DE0     		b	.L27
 1082              	.LVL205:
 1083              	.L38:
 291:..\..\..\arduinoLCD\test\Pain Drain\libraries\lvgl\src\draw/lv_img_buf.c ****     }
 292:..\..\..\arduinoLCD\test\Pain Drain\libraries\lvgl\src\draw/lv_img_buf.c ****     else if(dsc->header.cf == LV_IMG_CF_INDEXED_8BIT) {
 1084              		.loc 1 292 0
 1085 013e 0A2B     		cmp	r3, #10
 1086 0140 0BD1     		bne	.L27
 1087              	.LVL206:
 1088              	.LBB58:
ARM GAS  C:\Users\haske\AppData\Local\Temp\ccwuLgOR.s 			page 29


 293:..\..\..\arduinoLCD\test\Pain Drain\libraries\lvgl\src\draw/lv_img_buf.c ****         buf_u8 += sizeof(lv_color32_t) * 256; /*Skip the palette*/
 294:..\..\..\arduinoLCD\test\Pain Drain\libraries\lvgl\src\draw/lv_img_buf.c ****         uint32_t px = dsc->header.w * y + x;
 1089              		.loc 1 294 0
 1090 0142 0168     		ldr	r1, [r0]
 1091              	.LVL207:
 1092 0144 C902     		lsls	r1, r1, #11
 1093 0146 490D     		lsrs	r1, r1, #21
 1094 0148 7143     		muls	r1, r6
 1095 014a 6918     		adds	r1, r5, r1
 1096              	.LVL208:
 295:..\..\..\arduinoLCD\test\Pain Drain\libraries\lvgl\src\draw/lv_img_buf.c ****         buf_u8[px]  = c.full;
 1097              		.loc 1 295 0
 1098 014c 8023     		movs	r3, #128
 1099 014e DB00     		lsls	r3, r3, #3
 1100 0150 9C46     		mov	ip, r3
 1101 0152 6144     		add	r1, r1, ip
 1102              	.LVL209:
 1103 0154 01AB     		add	r3, sp, #4
 1104 0156 1B88     		ldrh	r3, [r3]
 1105 0158 6354     		strb	r3, [r4, r1]
 1106              	.LVL210:
 1107              	.L27:
 1108              	.LBE58:
 296:..\..\..\arduinoLCD\test\Pain Drain\libraries\lvgl\src\draw/lv_img_buf.c ****     }
 297:..\..\..\arduinoLCD\test\Pain Drain\libraries\lvgl\src\draw/lv_img_buf.c **** }
 1109              		.loc 1 297 0
 1110 015a 03B0     		add	sp, sp, #12
 1111              		@ sp needed
 1112              	.LVL211:
 1113 015c F0BD     		pop	{r4, r5, r6, r7, pc}
 1114              		.cfi_endproc
 1115              	.LFE57:
 1116              		.size	lv_img_buf_set_px_color, .-lv_img_buf_set_px_color
 1117 015e C046     		.section	.text.lv_img_buf_set_palette,"ax",%progbits
 1118              		.align	2
 1119              		.global	lv_img_buf_set_palette
 1120              		.code	16
 1121              		.thumb_func
 1122              		.type	lv_img_buf_set_palette, %function
 1123              	lv_img_buf_set_palette:
 1124              	.LFB58:
 298:..\..\..\arduinoLCD\test\Pain Drain\libraries\lvgl\src\draw/lv_img_buf.c **** 
 299:..\..\..\arduinoLCD\test\Pain Drain\libraries\lvgl\src\draw/lv_img_buf.c **** /**
 300:..\..\..\arduinoLCD\test\Pain Drain\libraries\lvgl\src\draw/lv_img_buf.c ****  * Set the palette color of an indexed image. Valid only for `LV_IMG_CF_INDEXED1/2/4/8`
 301:..\..\..\arduinoLCD\test\Pain Drain\libraries\lvgl\src\draw/lv_img_buf.c ****  * @param dsc pointer to an image descriptor
 302:..\..\..\arduinoLCD\test\Pain Drain\libraries\lvgl\src\draw/lv_img_buf.c ****  * @param id the palette color to set:
 303:..\..\..\arduinoLCD\test\Pain Drain\libraries\lvgl\src\draw/lv_img_buf.c ****  *   - for `LV_IMG_CF_INDEXED1`: 0..1
 304:..\..\..\arduinoLCD\test\Pain Drain\libraries\lvgl\src\draw/lv_img_buf.c ****  *   - for `LV_IMG_CF_INDEXED2`: 0..3
 305:..\..\..\arduinoLCD\test\Pain Drain\libraries\lvgl\src\draw/lv_img_buf.c ****  *   - for `LV_IMG_CF_INDEXED4`: 0..15
 306:..\..\..\arduinoLCD\test\Pain Drain\libraries\lvgl\src\draw/lv_img_buf.c ****  *   - for `LV_IMG_CF_INDEXED8`: 0..255
 307:..\..\..\arduinoLCD\test\Pain Drain\libraries\lvgl\src\draw/lv_img_buf.c ****  * @param c the color to set
 308:..\..\..\arduinoLCD\test\Pain Drain\libraries\lvgl\src\draw/lv_img_buf.c ****  */
 309:..\..\..\arduinoLCD\test\Pain Drain\libraries\lvgl\src\draw/lv_img_buf.c **** void lv_img_buf_set_palette(lv_img_dsc_t * dsc, uint8_t id, lv_color_t c)
 310:..\..\..\arduinoLCD\test\Pain Drain\libraries\lvgl\src\draw/lv_img_buf.c **** {
 1125              		.loc 1 310 0
 1126              		.cfi_startproc
 1127              		@ args = 0, pretend = 0, frame = 8
ARM GAS  C:\Users\haske\AppData\Local\Temp\ccwuLgOR.s 			page 30


 1128              		@ frame_needed = 0, uses_anonymous_args = 0
 1129              	.LVL212:
 1130 0000 70B5     		push	{r4, r5, r6, lr}
 1131              		.cfi_def_cfa_offset 16
 1132              		.cfi_offset 4, -16
 1133              		.cfi_offset 5, -12
 1134              		.cfi_offset 6, -8
 1135              		.cfi_offset 14, -4
 1136 0002 82B0     		sub	sp, sp, #8
 1137              		.cfi_def_cfa_offset 24
 311:..\..\..\arduinoLCD\test\Pain Drain\libraries\lvgl\src\draw/lv_img_buf.c ****     if((dsc->header.cf == LV_IMG_CF_ALPHA_1BIT && id > 1) || (dsc->header.cf == LV_IMG_CF_ALPHA_2BI
 1138              		.loc 1 311 0
 1139 0004 0378     		ldrb	r3, [r0]
 1140 0006 1F24     		movs	r4, #31
 1141 0008 2340     		ands	r3, r4
 1142 000a 0B2B     		cmp	r3, #11
 1143 000c 01D1     		bne	.L40
 1144              		.loc 1 311 0 is_stmt 0 discriminator 1
 1145 000e 0129     		cmp	r1, #1
 1146 0010 39D8     		bhi	.L39
 1147              	.L40:
 1148              		.loc 1 311 0 discriminator 3
 1149 0012 0C2B     		cmp	r3, #12
 1150 0014 01D1     		bne	.L42
 1151              		.loc 1 311 0 discriminator 4
 1152 0016 0329     		cmp	r1, #3
 1153 0018 35D8     		bhi	.L39
 1154              	.L42:
 1155              		.loc 1 311 0 discriminator 6
 1156 001a 0D2B     		cmp	r3, #13
 1157 001c 01D1     		bne	.L43
 312:..\..\..\arduinoLCD\test\Pain Drain\libraries\lvgl\src\draw/lv_img_buf.c ****        (dsc->header.cf == LV_IMG_CF_ALPHA_4BIT && id > 15) || (dsc->header.cf == LV_IMG_CF_ALPHA_8B
 1158              		.loc 1 312 0 is_stmt 1
 1159 001e 0F29     		cmp	r1, #15
 1160 0020 31D8     		bhi	.L39
 1161              	.L43:
 1162              		.loc 1 312 0 is_stmt 0 discriminator 1
 1163 0022 0E2B     		cmp	r3, #14
 1164 0024 2FD0     		beq	.L39
 1165              	.LBB59:
 1166              	.LBB60:
 1167              		.file 3 "..\\..\\..\\arduinoLCD\\test\\Pain Drain\\libraries\\lvgl\\src\\draw\\../misc/lv_color.h"
   1:..\..\..\arduinoLCD\test\Pain Drain\libraries\lvgl\src\draw\../misc/lv_color.h **** /**
   2:..\..\..\arduinoLCD\test\Pain Drain\libraries\lvgl\src\draw\../misc/lv_color.h ****  * @file lv_color.h
   3:..\..\..\arduinoLCD\test\Pain Drain\libraries\lvgl\src\draw\../misc/lv_color.h ****  *
   4:..\..\..\arduinoLCD\test\Pain Drain\libraries\lvgl\src\draw\../misc/lv_color.h ****  */
   5:..\..\..\arduinoLCD\test\Pain Drain\libraries\lvgl\src\draw\../misc/lv_color.h **** 
   6:..\..\..\arduinoLCD\test\Pain Drain\libraries\lvgl\src\draw\../misc/lv_color.h **** #ifndef LV_COLOR_H
   7:..\..\..\arduinoLCD\test\Pain Drain\libraries\lvgl\src\draw\../misc/lv_color.h **** #define LV_COLOR_H
   8:..\..\..\arduinoLCD\test\Pain Drain\libraries\lvgl\src\draw\../misc/lv_color.h **** 
   9:..\..\..\arduinoLCD\test\Pain Drain\libraries\lvgl\src\draw\../misc/lv_color.h **** #ifdef __cplusplus
  10:..\..\..\arduinoLCD\test\Pain Drain\libraries\lvgl\src\draw\../misc/lv_color.h **** extern "C" {
  11:..\..\..\arduinoLCD\test\Pain Drain\libraries\lvgl\src\draw\../misc/lv_color.h **** #endif
  12:..\..\..\arduinoLCD\test\Pain Drain\libraries\lvgl\src\draw\../misc/lv_color.h **** 
  13:..\..\..\arduinoLCD\test\Pain Drain\libraries\lvgl\src\draw\../misc/lv_color.h **** /*********************
  14:..\..\..\arduinoLCD\test\Pain Drain\libraries\lvgl\src\draw\../misc/lv_color.h ****  *      INCLUDES
  15:..\..\..\arduinoLCD\test\Pain Drain\libraries\lvgl\src\draw\../misc/lv_color.h ****  *********************/
ARM GAS  C:\Users\haske\AppData\Local\Temp\ccwuLgOR.s 			page 31


  16:..\..\..\arduinoLCD\test\Pain Drain\libraries\lvgl\src\draw\../misc/lv_color.h **** #include "../lv_conf_internal.h"
  17:..\..\..\arduinoLCD\test\Pain Drain\libraries\lvgl\src\draw\../misc/lv_color.h **** #include "lv_assert.h"
  18:..\..\..\arduinoLCD\test\Pain Drain\libraries\lvgl\src\draw\../misc/lv_color.h **** #include "lv_math.h"
  19:..\..\..\arduinoLCD\test\Pain Drain\libraries\lvgl\src\draw\../misc/lv_color.h **** #include "lv_types.h"
  20:..\..\..\arduinoLCD\test\Pain Drain\libraries\lvgl\src\draw\../misc/lv_color.h **** 
  21:..\..\..\arduinoLCD\test\Pain Drain\libraries\lvgl\src\draw\../misc/lv_color.h **** /*Error checking*/
  22:..\..\..\arduinoLCD\test\Pain Drain\libraries\lvgl\src\draw\../misc/lv_color.h **** #if LV_COLOR_DEPTH == 24
  23:..\..\..\arduinoLCD\test\Pain Drain\libraries\lvgl\src\draw\../misc/lv_color.h **** #error "LV_COLOR_DEPTH 24 is deprecated. Use LV_COLOR_DEPTH 32 instead (lv_conf.h)"
  24:..\..\..\arduinoLCD\test\Pain Drain\libraries\lvgl\src\draw\../misc/lv_color.h **** #endif
  25:..\..\..\arduinoLCD\test\Pain Drain\libraries\lvgl\src\draw\../misc/lv_color.h **** 
  26:..\..\..\arduinoLCD\test\Pain Drain\libraries\lvgl\src\draw\../misc/lv_color.h **** #if LV_COLOR_DEPTH != 16 && LV_COLOR_16_SWAP != 0
  27:..\..\..\arduinoLCD\test\Pain Drain\libraries\lvgl\src\draw\../misc/lv_color.h **** #error "LV_COLOR_16_SWAP requires LV_COLOR_DEPTH == 16. Set it in lv_conf.h"
  28:..\..\..\arduinoLCD\test\Pain Drain\libraries\lvgl\src\draw\../misc/lv_color.h **** #endif
  29:..\..\..\arduinoLCD\test\Pain Drain\libraries\lvgl\src\draw\../misc/lv_color.h **** 
  30:..\..\..\arduinoLCD\test\Pain Drain\libraries\lvgl\src\draw\../misc/lv_color.h **** #include <stdint.h>
  31:..\..\..\arduinoLCD\test\Pain Drain\libraries\lvgl\src\draw\../misc/lv_color.h **** 
  32:..\..\..\arduinoLCD\test\Pain Drain\libraries\lvgl\src\draw\../misc/lv_color.h **** /*********************
  33:..\..\..\arduinoLCD\test\Pain Drain\libraries\lvgl\src\draw\../misc/lv_color.h ****  *      DEFINES
  34:..\..\..\arduinoLCD\test\Pain Drain\libraries\lvgl\src\draw\../misc/lv_color.h ****  *********************/
  35:..\..\..\arduinoLCD\test\Pain Drain\libraries\lvgl\src\draw\../misc/lv_color.h **** LV_EXPORT_CONST_INT(LV_COLOR_DEPTH);
  36:..\..\..\arduinoLCD\test\Pain Drain\libraries\lvgl\src\draw\../misc/lv_color.h **** LV_EXPORT_CONST_INT(LV_COLOR_16_SWAP);
  37:..\..\..\arduinoLCD\test\Pain Drain\libraries\lvgl\src\draw\../misc/lv_color.h **** 
  38:..\..\..\arduinoLCD\test\Pain Drain\libraries\lvgl\src\draw\../misc/lv_color.h **** /**
  39:..\..\..\arduinoLCD\test\Pain Drain\libraries\lvgl\src\draw\../misc/lv_color.h ****  * Opacity percentages.
  40:..\..\..\arduinoLCD\test\Pain Drain\libraries\lvgl\src\draw\../misc/lv_color.h ****  */
  41:..\..\..\arduinoLCD\test\Pain Drain\libraries\lvgl\src\draw\../misc/lv_color.h **** enum {
  42:..\..\..\arduinoLCD\test\Pain Drain\libraries\lvgl\src\draw\../misc/lv_color.h ****     LV_OPA_TRANSP = 0,
  43:..\..\..\arduinoLCD\test\Pain Drain\libraries\lvgl\src\draw\../misc/lv_color.h ****     LV_OPA_0      = 0,
  44:..\..\..\arduinoLCD\test\Pain Drain\libraries\lvgl\src\draw\../misc/lv_color.h ****     LV_OPA_10     = 25,
  45:..\..\..\arduinoLCD\test\Pain Drain\libraries\lvgl\src\draw\../misc/lv_color.h ****     LV_OPA_20     = 51,
  46:..\..\..\arduinoLCD\test\Pain Drain\libraries\lvgl\src\draw\../misc/lv_color.h ****     LV_OPA_30     = 76,
  47:..\..\..\arduinoLCD\test\Pain Drain\libraries\lvgl\src\draw\../misc/lv_color.h ****     LV_OPA_40     = 102,
  48:..\..\..\arduinoLCD\test\Pain Drain\libraries\lvgl\src\draw\../misc/lv_color.h ****     LV_OPA_50     = 127,
  49:..\..\..\arduinoLCD\test\Pain Drain\libraries\lvgl\src\draw\../misc/lv_color.h ****     LV_OPA_60     = 153,
  50:..\..\..\arduinoLCD\test\Pain Drain\libraries\lvgl\src\draw\../misc/lv_color.h ****     LV_OPA_70     = 178,
  51:..\..\..\arduinoLCD\test\Pain Drain\libraries\lvgl\src\draw\../misc/lv_color.h ****     LV_OPA_80     = 204,
  52:..\..\..\arduinoLCD\test\Pain Drain\libraries\lvgl\src\draw\../misc/lv_color.h ****     LV_OPA_90     = 229,
  53:..\..\..\arduinoLCD\test\Pain Drain\libraries\lvgl\src\draw\../misc/lv_color.h ****     LV_OPA_100    = 255,
  54:..\..\..\arduinoLCD\test\Pain Drain\libraries\lvgl\src\draw\../misc/lv_color.h ****     LV_OPA_COVER  = 255,
  55:..\..\..\arduinoLCD\test\Pain Drain\libraries\lvgl\src\draw\../misc/lv_color.h **** };
  56:..\..\..\arduinoLCD\test\Pain Drain\libraries\lvgl\src\draw\../misc/lv_color.h **** 
  57:..\..\..\arduinoLCD\test\Pain Drain\libraries\lvgl\src\draw\../misc/lv_color.h **** #define LV_OPA_MIN 2    /*Opacities below this will be transparent*/
  58:..\..\..\arduinoLCD\test\Pain Drain\libraries\lvgl\src\draw\../misc/lv_color.h **** #define LV_OPA_MAX 253  /*Opacities above this will fully cover*/
  59:..\..\..\arduinoLCD\test\Pain Drain\libraries\lvgl\src\draw\../misc/lv_color.h **** 
  60:..\..\..\arduinoLCD\test\Pain Drain\libraries\lvgl\src\draw\../misc/lv_color.h **** #if LV_COLOR_DEPTH == 1
  61:..\..\..\arduinoLCD\test\Pain Drain\libraries\lvgl\src\draw\../misc/lv_color.h **** #define LV_COLOR_SIZE 8
  62:..\..\..\arduinoLCD\test\Pain Drain\libraries\lvgl\src\draw\../misc/lv_color.h **** #elif LV_COLOR_DEPTH == 8
  63:..\..\..\arduinoLCD\test\Pain Drain\libraries\lvgl\src\draw\../misc/lv_color.h **** #define LV_COLOR_SIZE 8
  64:..\..\..\arduinoLCD\test\Pain Drain\libraries\lvgl\src\draw\../misc/lv_color.h **** #elif LV_COLOR_DEPTH == 16
  65:..\..\..\arduinoLCD\test\Pain Drain\libraries\lvgl\src\draw\../misc/lv_color.h **** #define LV_COLOR_SIZE 16
  66:..\..\..\arduinoLCD\test\Pain Drain\libraries\lvgl\src\draw\../misc/lv_color.h **** #elif LV_COLOR_DEPTH == 32
  67:..\..\..\arduinoLCD\test\Pain Drain\libraries\lvgl\src\draw\../misc/lv_color.h **** #define LV_COLOR_SIZE 32
  68:..\..\..\arduinoLCD\test\Pain Drain\libraries\lvgl\src\draw\../misc/lv_color.h **** #else
  69:..\..\..\arduinoLCD\test\Pain Drain\libraries\lvgl\src\draw\../misc/lv_color.h **** #error "Invalid LV_COLOR_DEPTH in lv_conf.h! Set it to 1, 8, 16 or 32!"
  70:..\..\..\arduinoLCD\test\Pain Drain\libraries\lvgl\src\draw\../misc/lv_color.h **** #endif
  71:..\..\..\arduinoLCD\test\Pain Drain\libraries\lvgl\src\draw\../misc/lv_color.h **** 
  72:..\..\..\arduinoLCD\test\Pain Drain\libraries\lvgl\src\draw\../misc/lv_color.h **** #if defined(__cplusplus) && !defined(_LV_COLOR_HAS_MODERN_CPP)
ARM GAS  C:\Users\haske\AppData\Local\Temp\ccwuLgOR.s 			page 32


  73:..\..\..\arduinoLCD\test\Pain Drain\libraries\lvgl\src\draw\../misc/lv_color.h **** /**
  74:..\..\..\arduinoLCD\test\Pain Drain\libraries\lvgl\src\draw\../misc/lv_color.h **** * MSVC compiler's definition of the __cplusplus indicating 199711L regardless to C++ standard versi
  75:..\..\..\arduinoLCD\test\Pain Drain\libraries\lvgl\src\draw\../misc/lv_color.h **** * see https://devblogs.microsoft.com/cppblog/msvc-now-correctly-reports-cplusplus
  76:..\..\..\arduinoLCD\test\Pain Drain\libraries\lvgl\src\draw\../misc/lv_color.h **** * so we use _MSC_VER macro instead of __cplusplus
  77:..\..\..\arduinoLCD\test\Pain Drain\libraries\lvgl\src\draw\../misc/lv_color.h **** */
  78:..\..\..\arduinoLCD\test\Pain Drain\libraries\lvgl\src\draw\../misc/lv_color.h **** #ifdef _MSC_VER
  79:..\..\..\arduinoLCD\test\Pain Drain\libraries\lvgl\src\draw\../misc/lv_color.h **** #if _MSC_VER >= 1900 /*Visual Studio 2015*/
  80:..\..\..\arduinoLCD\test\Pain Drain\libraries\lvgl\src\draw\../misc/lv_color.h **** #define _LV_COLOR_HAS_MODERN_CPP 1
  81:..\..\..\arduinoLCD\test\Pain Drain\libraries\lvgl\src\draw\../misc/lv_color.h **** #endif
  82:..\..\..\arduinoLCD\test\Pain Drain\libraries\lvgl\src\draw\../misc/lv_color.h **** #else
  83:..\..\..\arduinoLCD\test\Pain Drain\libraries\lvgl\src\draw\../misc/lv_color.h **** #if __cplusplus >= 201103L
  84:..\..\..\arduinoLCD\test\Pain Drain\libraries\lvgl\src\draw\../misc/lv_color.h **** #define _LV_COLOR_HAS_MODERN_CPP 1
  85:..\..\..\arduinoLCD\test\Pain Drain\libraries\lvgl\src\draw\../misc/lv_color.h **** #endif
  86:..\..\..\arduinoLCD\test\Pain Drain\libraries\lvgl\src\draw\../misc/lv_color.h **** #endif
  87:..\..\..\arduinoLCD\test\Pain Drain\libraries\lvgl\src\draw\../misc/lv_color.h **** #endif /*__cplusplus*/
  88:..\..\..\arduinoLCD\test\Pain Drain\libraries\lvgl\src\draw\../misc/lv_color.h **** 
  89:..\..\..\arduinoLCD\test\Pain Drain\libraries\lvgl\src\draw\../misc/lv_color.h **** #ifndef _LV_COLOR_HAS_MODERN_CPP
  90:..\..\..\arduinoLCD\test\Pain Drain\libraries\lvgl\src\draw\../misc/lv_color.h **** #define _LV_COLOR_HAS_MODERN_CPP 0
  91:..\..\..\arduinoLCD\test\Pain Drain\libraries\lvgl\src\draw\../misc/lv_color.h **** #endif
  92:..\..\..\arduinoLCD\test\Pain Drain\libraries\lvgl\src\draw\../misc/lv_color.h **** 
  93:..\..\..\arduinoLCD\test\Pain Drain\libraries\lvgl\src\draw\../misc/lv_color.h **** #if _LV_COLOR_HAS_MODERN_CPP
  94:..\..\..\arduinoLCD\test\Pain Drain\libraries\lvgl\src\draw\../misc/lv_color.h **** /*Fix msvc compiler error C4576 inside C++ code*/
  95:..\..\..\arduinoLCD\test\Pain Drain\libraries\lvgl\src\draw\../misc/lv_color.h **** #define _LV_COLOR_MAKE_TYPE_HELPER lv_color_t
  96:..\..\..\arduinoLCD\test\Pain Drain\libraries\lvgl\src\draw\../misc/lv_color.h **** #else
  97:..\..\..\arduinoLCD\test\Pain Drain\libraries\lvgl\src\draw\../misc/lv_color.h **** #define _LV_COLOR_MAKE_TYPE_HELPER (lv_color_t)
  98:..\..\..\arduinoLCD\test\Pain Drain\libraries\lvgl\src\draw\../misc/lv_color.h **** #endif
  99:..\..\..\arduinoLCD\test\Pain Drain\libraries\lvgl\src\draw\../misc/lv_color.h **** 
 100:..\..\..\arduinoLCD\test\Pain Drain\libraries\lvgl\src\draw\../misc/lv_color.h **** /*---------------------------------------
 101:..\..\..\arduinoLCD\test\Pain Drain\libraries\lvgl\src\draw\../misc/lv_color.h ****  * Macros for all existing color depths
 102:..\..\..\arduinoLCD\test\Pain Drain\libraries\lvgl\src\draw\../misc/lv_color.h ****  * to set/get values of the color channels
 103:..\..\..\arduinoLCD\test\Pain Drain\libraries\lvgl\src\draw\../misc/lv_color.h ****  *------------------------------------------*/
 104:..\..\..\arduinoLCD\test\Pain Drain\libraries\lvgl\src\draw\../misc/lv_color.h **** # define LV_COLOR_SET_R1(c, v) (c).ch.red = (uint8_t)((v) & 0x1)
 105:..\..\..\arduinoLCD\test\Pain Drain\libraries\lvgl\src\draw\../misc/lv_color.h **** # define LV_COLOR_SET_G1(c, v) (c).ch.green = (uint8_t)((v) & 0x1)
 106:..\..\..\arduinoLCD\test\Pain Drain\libraries\lvgl\src\draw\../misc/lv_color.h **** # define LV_COLOR_SET_B1(c, v) (c).ch.blue = (uint8_t)((v) & 0x1)
 107:..\..\..\arduinoLCD\test\Pain Drain\libraries\lvgl\src\draw\../misc/lv_color.h **** # define LV_COLOR_SET_A1(c, v) do {} while(0)
 108:..\..\..\arduinoLCD\test\Pain Drain\libraries\lvgl\src\draw\../misc/lv_color.h **** 
 109:..\..\..\arduinoLCD\test\Pain Drain\libraries\lvgl\src\draw\../misc/lv_color.h **** # define LV_COLOR_GET_R1(c) (c).ch.red
 110:..\..\..\arduinoLCD\test\Pain Drain\libraries\lvgl\src\draw\../misc/lv_color.h **** # define LV_COLOR_GET_G1(c) (c).ch.green
 111:..\..\..\arduinoLCD\test\Pain Drain\libraries\lvgl\src\draw\../misc/lv_color.h **** # define LV_COLOR_GET_B1(c) (c).ch.blue
 112:..\..\..\arduinoLCD\test\Pain Drain\libraries\lvgl\src\draw\../misc/lv_color.h **** # define LV_COLOR_GET_A1(c) 0xFF
 113:..\..\..\arduinoLCD\test\Pain Drain\libraries\lvgl\src\draw\../misc/lv_color.h **** 
 114:..\..\..\arduinoLCD\test\Pain Drain\libraries\lvgl\src\draw\../misc/lv_color.h **** # define _LV_COLOR_ZERO_INITIALIZER1 {0x00}
 115:..\..\..\arduinoLCD\test\Pain Drain\libraries\lvgl\src\draw\../misc/lv_color.h **** # define LV_COLOR_MAKE1(r8, g8, b8)  {(uint8_t)((b8 >> 7) | (g8 >> 7) | (r8 >> 7))}
 116:..\..\..\arduinoLCD\test\Pain Drain\libraries\lvgl\src\draw\../misc/lv_color.h **** 
 117:..\..\..\arduinoLCD\test\Pain Drain\libraries\lvgl\src\draw\../misc/lv_color.h **** # define LV_COLOR_SET_R8(c, v) (c).ch.red = (uint8_t)((v) & 0x7U)
 118:..\..\..\arduinoLCD\test\Pain Drain\libraries\lvgl\src\draw\../misc/lv_color.h **** # define LV_COLOR_SET_G8(c, v) (c).ch.green = (uint8_t)((v) & 0x7U)
 119:..\..\..\arduinoLCD\test\Pain Drain\libraries\lvgl\src\draw\../misc/lv_color.h **** # define LV_COLOR_SET_B8(c, v) (c).ch.blue = (uint8_t)((v) & 0x3U)
 120:..\..\..\arduinoLCD\test\Pain Drain\libraries\lvgl\src\draw\../misc/lv_color.h **** # define LV_COLOR_SET_A8(c, v) do {} while(0)
 121:..\..\..\arduinoLCD\test\Pain Drain\libraries\lvgl\src\draw\../misc/lv_color.h **** 
 122:..\..\..\arduinoLCD\test\Pain Drain\libraries\lvgl\src\draw\../misc/lv_color.h **** # define LV_COLOR_GET_R8(c) (c).ch.red
 123:..\..\..\arduinoLCD\test\Pain Drain\libraries\lvgl\src\draw\../misc/lv_color.h **** # define LV_COLOR_GET_G8(c) (c).ch.green
 124:..\..\..\arduinoLCD\test\Pain Drain\libraries\lvgl\src\draw\../misc/lv_color.h **** # define LV_COLOR_GET_B8(c) (c).ch.blue
 125:..\..\..\arduinoLCD\test\Pain Drain\libraries\lvgl\src\draw\../misc/lv_color.h **** # define LV_COLOR_GET_A8(c) 0xFF
 126:..\..\..\arduinoLCD\test\Pain Drain\libraries\lvgl\src\draw\../misc/lv_color.h **** 
 127:..\..\..\arduinoLCD\test\Pain Drain\libraries\lvgl\src\draw\../misc/lv_color.h **** # define _LV_COLOR_ZERO_INITIALIZER8 {{0x00, 0x00, 0x00}}
 128:..\..\..\arduinoLCD\test\Pain Drain\libraries\lvgl\src\draw\../misc/lv_color.h **** # define LV_COLOR_MAKE8(r8, g8, b8) {{(uint8_t)((b8 >> 6) & 0x3U), (uint8_t)((g8 >> 5) & 0x7U), (ui
 129:..\..\..\arduinoLCD\test\Pain Drain\libraries\lvgl\src\draw\../misc/lv_color.h **** 
ARM GAS  C:\Users\haske\AppData\Local\Temp\ccwuLgOR.s 			page 33


 130:..\..\..\arduinoLCD\test\Pain Drain\libraries\lvgl\src\draw\../misc/lv_color.h **** # define LV_COLOR_SET_R16(c, v) (c).ch.red = (uint8_t)((v) & 0x1FU)
 131:..\..\..\arduinoLCD\test\Pain Drain\libraries\lvgl\src\draw\../misc/lv_color.h **** #if LV_COLOR_16_SWAP == 0
 132:..\..\..\arduinoLCD\test\Pain Drain\libraries\lvgl\src\draw\../misc/lv_color.h **** # define LV_COLOR_SET_G16(c, v) (c).ch.green = (uint8_t)((v) & 0x3FU)
 133:..\..\..\arduinoLCD\test\Pain Drain\libraries\lvgl\src\draw\../misc/lv_color.h **** #else
 134:..\..\..\arduinoLCD\test\Pain Drain\libraries\lvgl\src\draw\../misc/lv_color.h **** # define LV_COLOR_SET_G16(c, v) {(c).ch.green_h = (uint8_t)(((v) >> 3) & 0x7); (c).ch.green_l = (ui
 135:..\..\..\arduinoLCD\test\Pain Drain\libraries\lvgl\src\draw\../misc/lv_color.h **** #endif
 136:..\..\..\arduinoLCD\test\Pain Drain\libraries\lvgl\src\draw\../misc/lv_color.h **** # define LV_COLOR_SET_B16(c, v) (c).ch.blue = (uint8_t)((v) & 0x1FU)
 137:..\..\..\arduinoLCD\test\Pain Drain\libraries\lvgl\src\draw\../misc/lv_color.h **** # define LV_COLOR_SET_A16(c, v) do {} while(0)
 138:..\..\..\arduinoLCD\test\Pain Drain\libraries\lvgl\src\draw\../misc/lv_color.h **** 
 139:..\..\..\arduinoLCD\test\Pain Drain\libraries\lvgl\src\draw\../misc/lv_color.h **** # define LV_COLOR_GET_R16(c) (c).ch.red
 140:..\..\..\arduinoLCD\test\Pain Drain\libraries\lvgl\src\draw\../misc/lv_color.h **** #if LV_COLOR_16_SWAP == 0
 141:..\..\..\arduinoLCD\test\Pain Drain\libraries\lvgl\src\draw\../misc/lv_color.h **** # define LV_COLOR_GET_G16(c) (c).ch.green
 142:..\..\..\arduinoLCD\test\Pain Drain\libraries\lvgl\src\draw\../misc/lv_color.h **** #else
 143:..\..\..\arduinoLCD\test\Pain Drain\libraries\lvgl\src\draw\../misc/lv_color.h **** # define LV_COLOR_GET_G16(c) (((c).ch.green_h << 3) + (c).ch.green_l)
 144:..\..\..\arduinoLCD\test\Pain Drain\libraries\lvgl\src\draw\../misc/lv_color.h **** #endif
 145:..\..\..\arduinoLCD\test\Pain Drain\libraries\lvgl\src\draw\../misc/lv_color.h **** # define LV_COLOR_GET_B16(c) (c).ch.blue
 146:..\..\..\arduinoLCD\test\Pain Drain\libraries\lvgl\src\draw\../misc/lv_color.h **** # define LV_COLOR_GET_A16(c) 0xFF
 147:..\..\..\arduinoLCD\test\Pain Drain\libraries\lvgl\src\draw\../misc/lv_color.h **** 
 148:..\..\..\arduinoLCD\test\Pain Drain\libraries\lvgl\src\draw\../misc/lv_color.h **** #if LV_COLOR_16_SWAP == 0
 149:..\..\..\arduinoLCD\test\Pain Drain\libraries\lvgl\src\draw\../misc/lv_color.h **** # define _LV_COLOR_ZERO_INITIALIZER16  {{0x00, 0x00, 0x00}}
 150:..\..\..\arduinoLCD\test\Pain Drain\libraries\lvgl\src\draw\../misc/lv_color.h **** # define LV_COLOR_MAKE16(r8, g8, b8) {{(uint8_t)((b8 >> 3) & 0x1FU), (uint8_t)((g8 >> 2) & 0x3FU), 
 151:..\..\..\arduinoLCD\test\Pain Drain\libraries\lvgl\src\draw\../misc/lv_color.h **** #else
 152:..\..\..\arduinoLCD\test\Pain Drain\libraries\lvgl\src\draw\../misc/lv_color.h **** # define _LV_COLOR_ZERO_INITIALIZER16 {{0x00, 0x00, 0x00, 0x00}}
 153:..\..\..\arduinoLCD\test\Pain Drain\libraries\lvgl\src\draw\../misc/lv_color.h **** # define LV_COLOR_MAKE16(r8, g8, b8) {{(uint8_t)((g8 >> 5) & 0x7U), (uint8_t)((r8 >> 3) & 0x1FU), (
 154:..\..\..\arduinoLCD\test\Pain Drain\libraries\lvgl\src\draw\../misc/lv_color.h **** #endif
 155:..\..\..\arduinoLCD\test\Pain Drain\libraries\lvgl\src\draw\../misc/lv_color.h **** 
 156:..\..\..\arduinoLCD\test\Pain Drain\libraries\lvgl\src\draw\../misc/lv_color.h **** # define LV_COLOR_SET_R32(c, v) (c).ch.red = (uint8_t)((v) & 0xFF)
 157:..\..\..\arduinoLCD\test\Pain Drain\libraries\lvgl\src\draw\../misc/lv_color.h **** # define LV_COLOR_SET_G32(c, v) (c).ch.green = (uint8_t)((v) & 0xFF)
 158:..\..\..\arduinoLCD\test\Pain Drain\libraries\lvgl\src\draw\../misc/lv_color.h **** # define LV_COLOR_SET_B32(c, v) (c).ch.blue = (uint8_t)((v) & 0xFF)
 159:..\..\..\arduinoLCD\test\Pain Drain\libraries\lvgl\src\draw\../misc/lv_color.h **** # define LV_COLOR_SET_A32(c, v) (c).ch.alpha = (uint8_t)((v) & 0xFF)
 160:..\..\..\arduinoLCD\test\Pain Drain\libraries\lvgl\src\draw\../misc/lv_color.h **** 
 161:..\..\..\arduinoLCD\test\Pain Drain\libraries\lvgl\src\draw\../misc/lv_color.h **** # define LV_COLOR_GET_R32(c) (c).ch.red
 162:..\..\..\arduinoLCD\test\Pain Drain\libraries\lvgl\src\draw\../misc/lv_color.h **** # define LV_COLOR_GET_G32(c) (c).ch.green
 163:..\..\..\arduinoLCD\test\Pain Drain\libraries\lvgl\src\draw\../misc/lv_color.h **** # define LV_COLOR_GET_B32(c) (c).ch.blue
 164:..\..\..\arduinoLCD\test\Pain Drain\libraries\lvgl\src\draw\../misc/lv_color.h **** # define LV_COLOR_GET_A32(c) (c).ch.alpha
 165:..\..\..\arduinoLCD\test\Pain Drain\libraries\lvgl\src\draw\../misc/lv_color.h **** 
 166:..\..\..\arduinoLCD\test\Pain Drain\libraries\lvgl\src\draw\../misc/lv_color.h **** # define _LV_COLOR_ZERO_INITIALIZER32  {{0x00, 0x00, 0x00, 0x00}}
 167:..\..\..\arduinoLCD\test\Pain Drain\libraries\lvgl\src\draw\../misc/lv_color.h **** # define LV_COLOR_MAKE32(r8, g8, b8) {{b8, g8, r8, 0xff}} /*Fix 0xff alpha*/
 168:..\..\..\arduinoLCD\test\Pain Drain\libraries\lvgl\src\draw\../misc/lv_color.h **** 
 169:..\..\..\arduinoLCD\test\Pain Drain\libraries\lvgl\src\draw\../misc/lv_color.h **** /*---------------------------------------
 170:..\..\..\arduinoLCD\test\Pain Drain\libraries\lvgl\src\draw\../misc/lv_color.h ****  * Macros for the current color depth
 171:..\..\..\arduinoLCD\test\Pain Drain\libraries\lvgl\src\draw\../misc/lv_color.h ****  * to set/get values of the color channels
 172:..\..\..\arduinoLCD\test\Pain Drain\libraries\lvgl\src\draw\../misc/lv_color.h ****  *------------------------------------------*/
 173:..\..\..\arduinoLCD\test\Pain Drain\libraries\lvgl\src\draw\../misc/lv_color.h **** #define LV_COLOR_SET_R(c, v) LV_CONCAT(LV_COLOR_SET_R, LV_COLOR_DEPTH)(c, v)
 174:..\..\..\arduinoLCD\test\Pain Drain\libraries\lvgl\src\draw\../misc/lv_color.h **** #define LV_COLOR_SET_G(c, v) LV_CONCAT(LV_COLOR_SET_G, LV_COLOR_DEPTH)(c, v)
 175:..\..\..\arduinoLCD\test\Pain Drain\libraries\lvgl\src\draw\../misc/lv_color.h **** #define LV_COLOR_SET_B(c, v) LV_CONCAT(LV_COLOR_SET_B, LV_COLOR_DEPTH)(c, v)
 176:..\..\..\arduinoLCD\test\Pain Drain\libraries\lvgl\src\draw\../misc/lv_color.h **** #define LV_COLOR_SET_A(c, v) LV_CONCAT(LV_COLOR_SET_A, LV_COLOR_DEPTH)(c, v)
 177:..\..\..\arduinoLCD\test\Pain Drain\libraries\lvgl\src\draw\../misc/lv_color.h **** 
 178:..\..\..\arduinoLCD\test\Pain Drain\libraries\lvgl\src\draw\../misc/lv_color.h **** #define LV_COLOR_GET_R(c) LV_CONCAT(LV_COLOR_GET_R, LV_COLOR_DEPTH)(c)
 179:..\..\..\arduinoLCD\test\Pain Drain\libraries\lvgl\src\draw\../misc/lv_color.h **** #define LV_COLOR_GET_G(c) LV_CONCAT(LV_COLOR_GET_G, LV_COLOR_DEPTH)(c)
 180:..\..\..\arduinoLCD\test\Pain Drain\libraries\lvgl\src\draw\../misc/lv_color.h **** #define LV_COLOR_GET_B(c) LV_CONCAT(LV_COLOR_GET_B, LV_COLOR_DEPTH)(c)
 181:..\..\..\arduinoLCD\test\Pain Drain\libraries\lvgl\src\draw\../misc/lv_color.h **** #define LV_COLOR_GET_A(c) LV_CONCAT(LV_COLOR_GET_A, LV_COLOR_DEPTH)(c)
 182:..\..\..\arduinoLCD\test\Pain Drain\libraries\lvgl\src\draw\../misc/lv_color.h **** 
 183:..\..\..\arduinoLCD\test\Pain Drain\libraries\lvgl\src\draw\../misc/lv_color.h **** #define _LV_COLOR_ZERO_INITIALIZER LV_CONCAT(_LV_COLOR_ZERO_INITIALIZER, LV_COLOR_DEPTH)
 184:..\..\..\arduinoLCD\test\Pain Drain\libraries\lvgl\src\draw\../misc/lv_color.h **** #define LV_COLOR_MAKE(r8, g8, b8) LV_CONCAT(LV_COLOR_MAKE, LV_COLOR_DEPTH)(r8, g8, b8)
 185:..\..\..\arduinoLCD\test\Pain Drain\libraries\lvgl\src\draw\../misc/lv_color.h **** 
 186:..\..\..\arduinoLCD\test\Pain Drain\libraries\lvgl\src\draw\../misc/lv_color.h **** /**********************
ARM GAS  C:\Users\haske\AppData\Local\Temp\ccwuLgOR.s 			page 34


 187:..\..\..\arduinoLCD\test\Pain Drain\libraries\lvgl\src\draw\../misc/lv_color.h ****  *      TYPEDEFS
 188:..\..\..\arduinoLCD\test\Pain Drain\libraries\lvgl\src\draw\../misc/lv_color.h ****  **********************/
 189:..\..\..\arduinoLCD\test\Pain Drain\libraries\lvgl\src\draw\../misc/lv_color.h **** 
 190:..\..\..\arduinoLCD\test\Pain Drain\libraries\lvgl\src\draw\../misc/lv_color.h **** typedef union {
 191:..\..\..\arduinoLCD\test\Pain Drain\libraries\lvgl\src\draw\../misc/lv_color.h ****     uint8_t full; /*must be declared first to set all bits of byte via initializer list*/
 192:..\..\..\arduinoLCD\test\Pain Drain\libraries\lvgl\src\draw\../misc/lv_color.h ****     union {
 193:..\..\..\arduinoLCD\test\Pain Drain\libraries\lvgl\src\draw\../misc/lv_color.h ****         uint8_t blue : 1;
 194:..\..\..\arduinoLCD\test\Pain Drain\libraries\lvgl\src\draw\../misc/lv_color.h ****         uint8_t green : 1;
 195:..\..\..\arduinoLCD\test\Pain Drain\libraries\lvgl\src\draw\../misc/lv_color.h ****         uint8_t red : 1;
 196:..\..\..\arduinoLCD\test\Pain Drain\libraries\lvgl\src\draw\../misc/lv_color.h ****     } ch;
 197:..\..\..\arduinoLCD\test\Pain Drain\libraries\lvgl\src\draw\../misc/lv_color.h **** } lv_color1_t;
 198:..\..\..\arduinoLCD\test\Pain Drain\libraries\lvgl\src\draw\../misc/lv_color.h **** 
 199:..\..\..\arduinoLCD\test\Pain Drain\libraries\lvgl\src\draw\../misc/lv_color.h **** typedef union {
 200:..\..\..\arduinoLCD\test\Pain Drain\libraries\lvgl\src\draw\../misc/lv_color.h ****     struct {
 201:..\..\..\arduinoLCD\test\Pain Drain\libraries\lvgl\src\draw\../misc/lv_color.h ****         uint8_t blue : 2;
 202:..\..\..\arduinoLCD\test\Pain Drain\libraries\lvgl\src\draw\../misc/lv_color.h ****         uint8_t green : 3;
 203:..\..\..\arduinoLCD\test\Pain Drain\libraries\lvgl\src\draw\../misc/lv_color.h ****         uint8_t red : 3;
 204:..\..\..\arduinoLCD\test\Pain Drain\libraries\lvgl\src\draw\../misc/lv_color.h ****     } ch;
 205:..\..\..\arduinoLCD\test\Pain Drain\libraries\lvgl\src\draw\../misc/lv_color.h ****     uint8_t full;
 206:..\..\..\arduinoLCD\test\Pain Drain\libraries\lvgl\src\draw\../misc/lv_color.h **** } lv_color8_t;
 207:..\..\..\arduinoLCD\test\Pain Drain\libraries\lvgl\src\draw\../misc/lv_color.h **** 
 208:..\..\..\arduinoLCD\test\Pain Drain\libraries\lvgl\src\draw\../misc/lv_color.h **** typedef union {
 209:..\..\..\arduinoLCD\test\Pain Drain\libraries\lvgl\src\draw\../misc/lv_color.h ****     struct {
 210:..\..\..\arduinoLCD\test\Pain Drain\libraries\lvgl\src\draw\../misc/lv_color.h **** #if LV_COLOR_16_SWAP == 0
 211:..\..\..\arduinoLCD\test\Pain Drain\libraries\lvgl\src\draw\../misc/lv_color.h ****         uint16_t blue : 5;
 212:..\..\..\arduinoLCD\test\Pain Drain\libraries\lvgl\src\draw\../misc/lv_color.h ****         uint16_t green : 6;
 213:..\..\..\arduinoLCD\test\Pain Drain\libraries\lvgl\src\draw\../misc/lv_color.h ****         uint16_t red : 5;
 214:..\..\..\arduinoLCD\test\Pain Drain\libraries\lvgl\src\draw\../misc/lv_color.h **** #else
 215:..\..\..\arduinoLCD\test\Pain Drain\libraries\lvgl\src\draw\../misc/lv_color.h ****         uint16_t green_h : 3;
 216:..\..\..\arduinoLCD\test\Pain Drain\libraries\lvgl\src\draw\../misc/lv_color.h ****         uint16_t red : 5;
 217:..\..\..\arduinoLCD\test\Pain Drain\libraries\lvgl\src\draw\../misc/lv_color.h ****         uint16_t blue : 5;
 218:..\..\..\arduinoLCD\test\Pain Drain\libraries\lvgl\src\draw\../misc/lv_color.h ****         uint16_t green_l : 3;
 219:..\..\..\arduinoLCD\test\Pain Drain\libraries\lvgl\src\draw\../misc/lv_color.h **** #endif
 220:..\..\..\arduinoLCD\test\Pain Drain\libraries\lvgl\src\draw\../misc/lv_color.h ****     } ch;
 221:..\..\..\arduinoLCD\test\Pain Drain\libraries\lvgl\src\draw\../misc/lv_color.h ****     uint16_t full;
 222:..\..\..\arduinoLCD\test\Pain Drain\libraries\lvgl\src\draw\../misc/lv_color.h **** } lv_color16_t;
 223:..\..\..\arduinoLCD\test\Pain Drain\libraries\lvgl\src\draw\../misc/lv_color.h **** 
 224:..\..\..\arduinoLCD\test\Pain Drain\libraries\lvgl\src\draw\../misc/lv_color.h **** typedef union {
 225:..\..\..\arduinoLCD\test\Pain Drain\libraries\lvgl\src\draw\../misc/lv_color.h ****     struct {
 226:..\..\..\arduinoLCD\test\Pain Drain\libraries\lvgl\src\draw\../misc/lv_color.h ****         uint8_t blue;
 227:..\..\..\arduinoLCD\test\Pain Drain\libraries\lvgl\src\draw\../misc/lv_color.h ****         uint8_t green;
 228:..\..\..\arduinoLCD\test\Pain Drain\libraries\lvgl\src\draw\../misc/lv_color.h ****         uint8_t red;
 229:..\..\..\arduinoLCD\test\Pain Drain\libraries\lvgl\src\draw\../misc/lv_color.h ****         uint8_t alpha;
 230:..\..\..\arduinoLCD\test\Pain Drain\libraries\lvgl\src\draw\../misc/lv_color.h ****     } ch;
 231:..\..\..\arduinoLCD\test\Pain Drain\libraries\lvgl\src\draw\../misc/lv_color.h ****     uint32_t full;
 232:..\..\..\arduinoLCD\test\Pain Drain\libraries\lvgl\src\draw\../misc/lv_color.h **** } lv_color32_t;
 233:..\..\..\arduinoLCD\test\Pain Drain\libraries\lvgl\src\draw\../misc/lv_color.h **** 
 234:..\..\..\arduinoLCD\test\Pain Drain\libraries\lvgl\src\draw\../misc/lv_color.h **** typedef LV_CONCAT3(uint, LV_COLOR_SIZE, _t) lv_color_int_t;
 235:..\..\..\arduinoLCD\test\Pain Drain\libraries\lvgl\src\draw\../misc/lv_color.h **** typedef LV_CONCAT3(lv_color, LV_COLOR_DEPTH, _t) lv_color_t;
 236:..\..\..\arduinoLCD\test\Pain Drain\libraries\lvgl\src\draw\../misc/lv_color.h **** 
 237:..\..\..\arduinoLCD\test\Pain Drain\libraries\lvgl\src\draw\../misc/lv_color.h **** typedef struct {
 238:..\..\..\arduinoLCD\test\Pain Drain\libraries\lvgl\src\draw\../misc/lv_color.h ****     uint16_t h;
 239:..\..\..\arduinoLCD\test\Pain Drain\libraries\lvgl\src\draw\../misc/lv_color.h ****     uint8_t s;
 240:..\..\..\arduinoLCD\test\Pain Drain\libraries\lvgl\src\draw\../misc/lv_color.h ****     uint8_t v;
 241:..\..\..\arduinoLCD\test\Pain Drain\libraries\lvgl\src\draw\../misc/lv_color.h **** } lv_color_hsv_t;
 242:..\..\..\arduinoLCD\test\Pain Drain\libraries\lvgl\src\draw\../misc/lv_color.h **** 
 243:..\..\..\arduinoLCD\test\Pain Drain\libraries\lvgl\src\draw\../misc/lv_color.h **** //! @cond Doxygen_Suppress
ARM GAS  C:\Users\haske\AppData\Local\Temp\ccwuLgOR.s 			page 35


 244:..\..\..\arduinoLCD\test\Pain Drain\libraries\lvgl\src\draw\../misc/lv_color.h **** /*No idea where the guard is required but else throws warnings in the docs*/
 245:..\..\..\arduinoLCD\test\Pain Drain\libraries\lvgl\src\draw\../misc/lv_color.h **** typedef uint8_t lv_opa_t;
 246:..\..\..\arduinoLCD\test\Pain Drain\libraries\lvgl\src\draw\../misc/lv_color.h **** //! @endcond
 247:..\..\..\arduinoLCD\test\Pain Drain\libraries\lvgl\src\draw\../misc/lv_color.h **** 
 248:..\..\..\arduinoLCD\test\Pain Drain\libraries\lvgl\src\draw\../misc/lv_color.h **** struct _lv_color_filter_dsc_t;
 249:..\..\..\arduinoLCD\test\Pain Drain\libraries\lvgl\src\draw\../misc/lv_color.h **** 
 250:..\..\..\arduinoLCD\test\Pain Drain\libraries\lvgl\src\draw\../misc/lv_color.h **** typedef lv_color_t (*lv_color_filter_cb_t)(const struct _lv_color_filter_dsc_t *, lv_color_t, lv_op
 251:..\..\..\arduinoLCD\test\Pain Drain\libraries\lvgl\src\draw\../misc/lv_color.h **** 
 252:..\..\..\arduinoLCD\test\Pain Drain\libraries\lvgl\src\draw\../misc/lv_color.h **** typedef struct _lv_color_filter_dsc_t {
 253:..\..\..\arduinoLCD\test\Pain Drain\libraries\lvgl\src\draw\../misc/lv_color.h ****     lv_color_filter_cb_t filter_cb;
 254:..\..\..\arduinoLCD\test\Pain Drain\libraries\lvgl\src\draw\../misc/lv_color.h ****     void * user_data;
 255:..\..\..\arduinoLCD\test\Pain Drain\libraries\lvgl\src\draw\../misc/lv_color.h **** } lv_color_filter_dsc_t;
 256:..\..\..\arduinoLCD\test\Pain Drain\libraries\lvgl\src\draw\../misc/lv_color.h **** 
 257:..\..\..\arduinoLCD\test\Pain Drain\libraries\lvgl\src\draw\../misc/lv_color.h **** 
 258:..\..\..\arduinoLCD\test\Pain Drain\libraries\lvgl\src\draw\../misc/lv_color.h **** typedef enum {
 259:..\..\..\arduinoLCD\test\Pain Drain\libraries\lvgl\src\draw\../misc/lv_color.h ****     LV_PALETTE_RED,
 260:..\..\..\arduinoLCD\test\Pain Drain\libraries\lvgl\src\draw\../misc/lv_color.h ****     LV_PALETTE_PINK,
 261:..\..\..\arduinoLCD\test\Pain Drain\libraries\lvgl\src\draw\../misc/lv_color.h ****     LV_PALETTE_PURPLE,
 262:..\..\..\arduinoLCD\test\Pain Drain\libraries\lvgl\src\draw\../misc/lv_color.h ****     LV_PALETTE_DEEP_PURPLE,
 263:..\..\..\arduinoLCD\test\Pain Drain\libraries\lvgl\src\draw\../misc/lv_color.h ****     LV_PALETTE_INDIGO,
 264:..\..\..\arduinoLCD\test\Pain Drain\libraries\lvgl\src\draw\../misc/lv_color.h ****     LV_PALETTE_BLUE,
 265:..\..\..\arduinoLCD\test\Pain Drain\libraries\lvgl\src\draw\../misc/lv_color.h ****     LV_PALETTE_LIGHT_BLUE,
 266:..\..\..\arduinoLCD\test\Pain Drain\libraries\lvgl\src\draw\../misc/lv_color.h ****     LV_PALETTE_CYAN,
 267:..\..\..\arduinoLCD\test\Pain Drain\libraries\lvgl\src\draw\../misc/lv_color.h ****     LV_PALETTE_TEAL,
 268:..\..\..\arduinoLCD\test\Pain Drain\libraries\lvgl\src\draw\../misc/lv_color.h ****     LV_PALETTE_GREEN,
 269:..\..\..\arduinoLCD\test\Pain Drain\libraries\lvgl\src\draw\../misc/lv_color.h ****     LV_PALETTE_LIGHT_GREEN,
 270:..\..\..\arduinoLCD\test\Pain Drain\libraries\lvgl\src\draw\../misc/lv_color.h ****     LV_PALETTE_LIME,
 271:..\..\..\arduinoLCD\test\Pain Drain\libraries\lvgl\src\draw\../misc/lv_color.h ****     LV_PALETTE_YELLOW,
 272:..\..\..\arduinoLCD\test\Pain Drain\libraries\lvgl\src\draw\../misc/lv_color.h ****     LV_PALETTE_AMBER,
 273:..\..\..\arduinoLCD\test\Pain Drain\libraries\lvgl\src\draw\../misc/lv_color.h ****     LV_PALETTE_ORANGE,
 274:..\..\..\arduinoLCD\test\Pain Drain\libraries\lvgl\src\draw\../misc/lv_color.h ****     LV_PALETTE_DEEP_ORANGE,
 275:..\..\..\arduinoLCD\test\Pain Drain\libraries\lvgl\src\draw\../misc/lv_color.h ****     LV_PALETTE_BROWN,
 276:..\..\..\arduinoLCD\test\Pain Drain\libraries\lvgl\src\draw\../misc/lv_color.h ****     LV_PALETTE_BLUE_GREY,
 277:..\..\..\arduinoLCD\test\Pain Drain\libraries\lvgl\src\draw\../misc/lv_color.h ****     LV_PALETTE_GREY,
 278:..\..\..\arduinoLCD\test\Pain Drain\libraries\lvgl\src\draw\../misc/lv_color.h ****     _LV_PALETTE_LAST,
 279:..\..\..\arduinoLCD\test\Pain Drain\libraries\lvgl\src\draw\../misc/lv_color.h ****     LV_PALETTE_NONE = 0xff,
 280:..\..\..\arduinoLCD\test\Pain Drain\libraries\lvgl\src\draw\../misc/lv_color.h **** } lv_palette_t;
 281:..\..\..\arduinoLCD\test\Pain Drain\libraries\lvgl\src\draw\../misc/lv_color.h **** 
 282:..\..\..\arduinoLCD\test\Pain Drain\libraries\lvgl\src\draw\../misc/lv_color.h **** /**********************
 283:..\..\..\arduinoLCD\test\Pain Drain\libraries\lvgl\src\draw\../misc/lv_color.h ****  * GLOBAL PROTOTYPES
 284:..\..\..\arduinoLCD\test\Pain Drain\libraries\lvgl\src\draw\../misc/lv_color.h ****  **********************/
 285:..\..\..\arduinoLCD\test\Pain Drain\libraries\lvgl\src\draw\../misc/lv_color.h **** 
 286:..\..\..\arduinoLCD\test\Pain Drain\libraries\lvgl\src\draw\../misc/lv_color.h **** /*In color conversations:
 287:..\..\..\arduinoLCD\test\Pain Drain\libraries\lvgl\src\draw\../misc/lv_color.h ****  * - When converting to bigger color type the LSB weight of 1 LSB is calculated
 288:..\..\..\arduinoLCD\test\Pain Drain\libraries\lvgl\src\draw\../misc/lv_color.h ****  *   E.g. 16 bit Red has 5 bits
 289:..\..\..\arduinoLCD\test\Pain Drain\libraries\lvgl\src\draw\../misc/lv_color.h ****  *         8 bit Red has 3 bits
 290:..\..\..\arduinoLCD\test\Pain Drain\libraries\lvgl\src\draw\../misc/lv_color.h ****  *        ----------------------
 291:..\..\..\arduinoLCD\test\Pain Drain\libraries\lvgl\src\draw\../misc/lv_color.h ****  *        8 bit red LSB = (2^5 - 1) / (2^3 - 1) = 31 / 7 = 4
 292:..\..\..\arduinoLCD\test\Pain Drain\libraries\lvgl\src\draw\../misc/lv_color.h ****  *
 293:..\..\..\arduinoLCD\test\Pain Drain\libraries\lvgl\src\draw\../misc/lv_color.h ****  * - When calculating to smaller color type simply shift out the LSBs
 294:..\..\..\arduinoLCD\test\Pain Drain\libraries\lvgl\src\draw\../misc/lv_color.h ****  *   E.g.  8 bit Red has 3 bits
 295:..\..\..\arduinoLCD\test\Pain Drain\libraries\lvgl\src\draw\../misc/lv_color.h ****  *        16 bit Red has 5 bits
 296:..\..\..\arduinoLCD\test\Pain Drain\libraries\lvgl\src\draw\../misc/lv_color.h ****  *        ----------------------
 297:..\..\..\arduinoLCD\test\Pain Drain\libraries\lvgl\src\draw\../misc/lv_color.h ****  *         Shift right with 5 - 3 = 2
 298:..\..\..\arduinoLCD\test\Pain Drain\libraries\lvgl\src\draw\../misc/lv_color.h ****  */
 299:..\..\..\arduinoLCD\test\Pain Drain\libraries\lvgl\src\draw\../misc/lv_color.h **** static inline uint8_t lv_color_to1(lv_color_t color)
 300:..\..\..\arduinoLCD\test\Pain Drain\libraries\lvgl\src\draw\../misc/lv_color.h **** {
ARM GAS  C:\Users\haske\AppData\Local\Temp\ccwuLgOR.s 			page 36


 301:..\..\..\arduinoLCD\test\Pain Drain\libraries\lvgl\src\draw\../misc/lv_color.h **** #if LV_COLOR_DEPTH == 1
 302:..\..\..\arduinoLCD\test\Pain Drain\libraries\lvgl\src\draw\../misc/lv_color.h ****     return color.full;
 303:..\..\..\arduinoLCD\test\Pain Drain\libraries\lvgl\src\draw\../misc/lv_color.h **** #elif LV_COLOR_DEPTH == 8
 304:..\..\..\arduinoLCD\test\Pain Drain\libraries\lvgl\src\draw\../misc/lv_color.h ****     if((LV_COLOR_GET_R(color) & 0x4) || (LV_COLOR_GET_G(color) & 0x4) || (LV_COLOR_GET_B(color) & 0
 305:..\..\..\arduinoLCD\test\Pain Drain\libraries\lvgl\src\draw\../misc/lv_color.h ****         return 1;
 306:..\..\..\arduinoLCD\test\Pain Drain\libraries\lvgl\src\draw\../misc/lv_color.h ****     }
 307:..\..\..\arduinoLCD\test\Pain Drain\libraries\lvgl\src\draw\../misc/lv_color.h ****     else {
 308:..\..\..\arduinoLCD\test\Pain Drain\libraries\lvgl\src\draw\../misc/lv_color.h ****         return 0;
 309:..\..\..\arduinoLCD\test\Pain Drain\libraries\lvgl\src\draw\../misc/lv_color.h ****     }
 310:..\..\..\arduinoLCD\test\Pain Drain\libraries\lvgl\src\draw\../misc/lv_color.h **** #elif LV_COLOR_DEPTH == 16
 311:..\..\..\arduinoLCD\test\Pain Drain\libraries\lvgl\src\draw\../misc/lv_color.h ****     if((LV_COLOR_GET_R(color) & 0x10) || (LV_COLOR_GET_G(color) & 0x20) || (LV_COLOR_GET_B(color) &
 312:..\..\..\arduinoLCD\test\Pain Drain\libraries\lvgl\src\draw\../misc/lv_color.h ****         return 1;
 313:..\..\..\arduinoLCD\test\Pain Drain\libraries\lvgl\src\draw\../misc/lv_color.h ****     }
 314:..\..\..\arduinoLCD\test\Pain Drain\libraries\lvgl\src\draw\../misc/lv_color.h ****     else {
 315:..\..\..\arduinoLCD\test\Pain Drain\libraries\lvgl\src\draw\../misc/lv_color.h ****         return 0;
 316:..\..\..\arduinoLCD\test\Pain Drain\libraries\lvgl\src\draw\../misc/lv_color.h ****     }
 317:..\..\..\arduinoLCD\test\Pain Drain\libraries\lvgl\src\draw\../misc/lv_color.h **** #elif LV_COLOR_DEPTH == 32
 318:..\..\..\arduinoLCD\test\Pain Drain\libraries\lvgl\src\draw\../misc/lv_color.h ****     if((LV_COLOR_GET_R(color) & 0x80) || (LV_COLOR_GET_G(color) & 0x80) || (LV_COLOR_GET_B(color) &
 319:..\..\..\arduinoLCD\test\Pain Drain\libraries\lvgl\src\draw\../misc/lv_color.h ****         return 1;
 320:..\..\..\arduinoLCD\test\Pain Drain\libraries\lvgl\src\draw\../misc/lv_color.h ****     }
 321:..\..\..\arduinoLCD\test\Pain Drain\libraries\lvgl\src\draw\../misc/lv_color.h ****     else {
 322:..\..\..\arduinoLCD\test\Pain Drain\libraries\lvgl\src\draw\../misc/lv_color.h ****         return 0;
 323:..\..\..\arduinoLCD\test\Pain Drain\libraries\lvgl\src\draw\../misc/lv_color.h ****     }
 324:..\..\..\arduinoLCD\test\Pain Drain\libraries\lvgl\src\draw\../misc/lv_color.h **** #endif
 325:..\..\..\arduinoLCD\test\Pain Drain\libraries\lvgl\src\draw\../misc/lv_color.h **** }
 326:..\..\..\arduinoLCD\test\Pain Drain\libraries\lvgl\src\draw\../misc/lv_color.h **** 
 327:..\..\..\arduinoLCD\test\Pain Drain\libraries\lvgl\src\draw\../misc/lv_color.h **** static inline uint8_t lv_color_to8(lv_color_t color)
 328:..\..\..\arduinoLCD\test\Pain Drain\libraries\lvgl\src\draw\../misc/lv_color.h **** {
 329:..\..\..\arduinoLCD\test\Pain Drain\libraries\lvgl\src\draw\../misc/lv_color.h **** #if LV_COLOR_DEPTH == 1
 330:..\..\..\arduinoLCD\test\Pain Drain\libraries\lvgl\src\draw\../misc/lv_color.h ****     if(color.full == 0)
 331:..\..\..\arduinoLCD\test\Pain Drain\libraries\lvgl\src\draw\../misc/lv_color.h ****         return 0;
 332:..\..\..\arduinoLCD\test\Pain Drain\libraries\lvgl\src\draw\../misc/lv_color.h ****     else
 333:..\..\..\arduinoLCD\test\Pain Drain\libraries\lvgl\src\draw\../misc/lv_color.h ****         return 0xFF;
 334:..\..\..\arduinoLCD\test\Pain Drain\libraries\lvgl\src\draw\../misc/lv_color.h **** #elif LV_COLOR_DEPTH == 8
 335:..\..\..\arduinoLCD\test\Pain Drain\libraries\lvgl\src\draw\../misc/lv_color.h ****     return color.full;
 336:..\..\..\arduinoLCD\test\Pain Drain\libraries\lvgl\src\draw\../misc/lv_color.h **** #elif LV_COLOR_DEPTH == 16
 337:..\..\..\arduinoLCD\test\Pain Drain\libraries\lvgl\src\draw\../misc/lv_color.h ****     lv_color8_t ret;
 338:..\..\..\arduinoLCD\test\Pain Drain\libraries\lvgl\src\draw\../misc/lv_color.h ****     LV_COLOR_SET_R8(ret, LV_COLOR_GET_R(color) >> 2); /*5 - 3  = 2*/
 339:..\..\..\arduinoLCD\test\Pain Drain\libraries\lvgl\src\draw\../misc/lv_color.h ****     LV_COLOR_SET_G8(ret, LV_COLOR_GET_G(color) >> 3); /*6 - 3  = 3*/
 340:..\..\..\arduinoLCD\test\Pain Drain\libraries\lvgl\src\draw\../misc/lv_color.h ****     LV_COLOR_SET_B8(ret, LV_COLOR_GET_B(color) >> 3); /*5 - 2  = 3*/
 341:..\..\..\arduinoLCD\test\Pain Drain\libraries\lvgl\src\draw\../misc/lv_color.h ****     return ret.full;
 342:..\..\..\arduinoLCD\test\Pain Drain\libraries\lvgl\src\draw\../misc/lv_color.h **** #elif LV_COLOR_DEPTH == 32
 343:..\..\..\arduinoLCD\test\Pain Drain\libraries\lvgl\src\draw\../misc/lv_color.h ****     lv_color8_t ret;
 344:..\..\..\arduinoLCD\test\Pain Drain\libraries\lvgl\src\draw\../misc/lv_color.h ****     LV_COLOR_SET_R8(ret, LV_COLOR_GET_R(color) >> 5); /*8 - 3  = 5*/
 345:..\..\..\arduinoLCD\test\Pain Drain\libraries\lvgl\src\draw\../misc/lv_color.h ****     LV_COLOR_SET_G8(ret, LV_COLOR_GET_G(color) >> 5); /*8 - 3  = 5*/
 346:..\..\..\arduinoLCD\test\Pain Drain\libraries\lvgl\src\draw\../misc/lv_color.h ****     LV_COLOR_SET_B8(ret, LV_COLOR_GET_B(color) >> 6); /*8 - 2  = 6*/
 347:..\..\..\arduinoLCD\test\Pain Drain\libraries\lvgl\src\draw\../misc/lv_color.h ****     return ret.full;
 348:..\..\..\arduinoLCD\test\Pain Drain\libraries\lvgl\src\draw\../misc/lv_color.h **** #endif
 349:..\..\..\arduinoLCD\test\Pain Drain\libraries\lvgl\src\draw\../misc/lv_color.h **** }
 350:..\..\..\arduinoLCD\test\Pain Drain\libraries\lvgl\src\draw\../misc/lv_color.h **** 
 351:..\..\..\arduinoLCD\test\Pain Drain\libraries\lvgl\src\draw\../misc/lv_color.h **** static inline uint16_t lv_color_to16(lv_color_t color)
 352:..\..\..\arduinoLCD\test\Pain Drain\libraries\lvgl\src\draw\../misc/lv_color.h **** {
 353:..\..\..\arduinoLCD\test\Pain Drain\libraries\lvgl\src\draw\../misc/lv_color.h **** #if LV_COLOR_DEPTH == 1
 354:..\..\..\arduinoLCD\test\Pain Drain\libraries\lvgl\src\draw\../misc/lv_color.h ****     if(color.full == 0)
 355:..\..\..\arduinoLCD\test\Pain Drain\libraries\lvgl\src\draw\../misc/lv_color.h ****         return 0;
 356:..\..\..\arduinoLCD\test\Pain Drain\libraries\lvgl\src\draw\../misc/lv_color.h ****     else
 357:..\..\..\arduinoLCD\test\Pain Drain\libraries\lvgl\src\draw\../misc/lv_color.h ****         return 0xFFFF;
ARM GAS  C:\Users\haske\AppData\Local\Temp\ccwuLgOR.s 			page 37


 358:..\..\..\arduinoLCD\test\Pain Drain\libraries\lvgl\src\draw\../misc/lv_color.h **** #elif LV_COLOR_DEPTH == 8
 359:..\..\..\arduinoLCD\test\Pain Drain\libraries\lvgl\src\draw\../misc/lv_color.h ****     lv_color16_t ret;
 360:..\..\..\arduinoLCD\test\Pain Drain\libraries\lvgl\src\draw\../misc/lv_color.h ****     LV_COLOR_SET_R16(ret, LV_COLOR_GET_R(color) * 4);  /*(2^5 - 1)/(2^3 - 1) = 31/7 = 4*/
 361:..\..\..\arduinoLCD\test\Pain Drain\libraries\lvgl\src\draw\../misc/lv_color.h ****     LV_COLOR_SET_G16(ret, LV_COLOR_GET_G(color) * 9);  /*(2^6 - 1)/(2^3 - 1) = 63/7 = 9*/
 362:..\..\..\arduinoLCD\test\Pain Drain\libraries\lvgl\src\draw\../misc/lv_color.h ****     LV_COLOR_SET_B16(ret, LV_COLOR_GET_B(color) * 10); /*(2^5 - 1)/(2^2 - 1) = 31/3 = 10*/
 363:..\..\..\arduinoLCD\test\Pain Drain\libraries\lvgl\src\draw\../misc/lv_color.h ****     return ret.full;
 364:..\..\..\arduinoLCD\test\Pain Drain\libraries\lvgl\src\draw\../misc/lv_color.h **** #elif LV_COLOR_DEPTH == 16
 365:..\..\..\arduinoLCD\test\Pain Drain\libraries\lvgl\src\draw\../misc/lv_color.h ****     return color.full;
 366:..\..\..\arduinoLCD\test\Pain Drain\libraries\lvgl\src\draw\../misc/lv_color.h **** #elif LV_COLOR_DEPTH == 32
 367:..\..\..\arduinoLCD\test\Pain Drain\libraries\lvgl\src\draw\../misc/lv_color.h ****     lv_color16_t ret;
 368:..\..\..\arduinoLCD\test\Pain Drain\libraries\lvgl\src\draw\../misc/lv_color.h ****     LV_COLOR_SET_R16(ret, LV_COLOR_GET_R(color) >> 3); /*8 - 5  = 3*/
 369:..\..\..\arduinoLCD\test\Pain Drain\libraries\lvgl\src\draw\../misc/lv_color.h ****     LV_COLOR_SET_G16(ret, LV_COLOR_GET_G(color) >> 2); /*8 - 6  = 2*/
 370:..\..\..\arduinoLCD\test\Pain Drain\libraries\lvgl\src\draw\../misc/lv_color.h ****     LV_COLOR_SET_B16(ret, LV_COLOR_GET_B(color) >> 3); /*8 - 5  = 3*/
 371:..\..\..\arduinoLCD\test\Pain Drain\libraries\lvgl\src\draw\../misc/lv_color.h ****     return ret.full;
 372:..\..\..\arduinoLCD\test\Pain Drain\libraries\lvgl\src\draw\../misc/lv_color.h **** #endif
 373:..\..\..\arduinoLCD\test\Pain Drain\libraries\lvgl\src\draw\../misc/lv_color.h **** }
 374:..\..\..\arduinoLCD\test\Pain Drain\libraries\lvgl\src\draw\../misc/lv_color.h **** 
 375:..\..\..\arduinoLCD\test\Pain Drain\libraries\lvgl\src\draw\../misc/lv_color.h **** static inline uint32_t lv_color_to32(lv_color_t color)
 376:..\..\..\arduinoLCD\test\Pain Drain\libraries\lvgl\src\draw\../misc/lv_color.h **** {
 377:..\..\..\arduinoLCD\test\Pain Drain\libraries\lvgl\src\draw\../misc/lv_color.h **** #if LV_COLOR_DEPTH == 1
 378:..\..\..\arduinoLCD\test\Pain Drain\libraries\lvgl\src\draw\../misc/lv_color.h ****     if(color.full == 0)
 379:..\..\..\arduinoLCD\test\Pain Drain\libraries\lvgl\src\draw\../misc/lv_color.h ****         return 0xFF000000;
 380:..\..\..\arduinoLCD\test\Pain Drain\libraries\lvgl\src\draw\../misc/lv_color.h ****     else
 381:..\..\..\arduinoLCD\test\Pain Drain\libraries\lvgl\src\draw\../misc/lv_color.h ****         return 0xFFFFFFFF;
 382:..\..\..\arduinoLCD\test\Pain Drain\libraries\lvgl\src\draw\../misc/lv_color.h **** #elif LV_COLOR_DEPTH == 8
 383:..\..\..\arduinoLCD\test\Pain Drain\libraries\lvgl\src\draw\../misc/lv_color.h ****     lv_color32_t ret;
 384:..\..\..\arduinoLCD\test\Pain Drain\libraries\lvgl\src\draw\../misc/lv_color.h ****     LV_COLOR_SET_R32(ret, LV_COLOR_GET_R(color) * 36); /*(2^8 - 1)/(2^3 - 1) = 255/7 = 36*/
 385:..\..\..\arduinoLCD\test\Pain Drain\libraries\lvgl\src\draw\../misc/lv_color.h ****     LV_COLOR_SET_G32(ret, LV_COLOR_GET_G(color) * 36); /*(2^8 - 1)/(2^3 - 1) = 255/7 = 36*/
 386:..\..\..\arduinoLCD\test\Pain Drain\libraries\lvgl\src\draw\../misc/lv_color.h ****     LV_COLOR_SET_B32(ret, LV_COLOR_GET_B(color) * 85); /*(2^8 - 1)/(2^2 - 1) = 255/3 = 85*/
 387:..\..\..\arduinoLCD\test\Pain Drain\libraries\lvgl\src\draw\../misc/lv_color.h ****     LV_COLOR_SET_A32(ret, 0xFF);
 388:..\..\..\arduinoLCD\test\Pain Drain\libraries\lvgl\src\draw\../misc/lv_color.h ****     return ret.full;
 389:..\..\..\arduinoLCD\test\Pain Drain\libraries\lvgl\src\draw\../misc/lv_color.h **** #elif LV_COLOR_DEPTH == 16
 390:..\..\..\arduinoLCD\test\Pain Drain\libraries\lvgl\src\draw\../misc/lv_color.h ****     /**
 391:..\..\..\arduinoLCD\test\Pain Drain\libraries\lvgl\src\draw\../misc/lv_color.h ****      * The floating point math for conversion is:
 392:..\..\..\arduinoLCD\test\Pain Drain\libraries\lvgl\src\draw\../misc/lv_color.h ****      *  valueto = valuefrom * ( (2^bitsto - 1) / (float)(2^bitsfrom - 1) )
 393:..\..\..\arduinoLCD\test\Pain Drain\libraries\lvgl\src\draw\../misc/lv_color.h ****      * The faster integer math for conversion is:
 394:..\..\..\arduinoLCD\test\Pain Drain\libraries\lvgl\src\draw\../misc/lv_color.h ****      *  valueto = ( valuefrom * multiplier + adder ) >> divisor
 395:..\..\..\arduinoLCD\test\Pain Drain\libraries\lvgl\src\draw\../misc/lv_color.h ****      *   multiplier = FLOOR( ( (2^bitsto - 1) << divisor ) / (float)(2^bitsfrom - 1) )
 396:..\..\..\arduinoLCD\test\Pain Drain\libraries\lvgl\src\draw\../misc/lv_color.h ****      *
 397:..\..\..\arduinoLCD\test\Pain Drain\libraries\lvgl\src\draw\../misc/lv_color.h ****      * Find the first divisor where ( adder >> divisor ) <= 0
 398:..\..\..\arduinoLCD\test\Pain Drain\libraries\lvgl\src\draw\../misc/lv_color.h ****      *
 399:..\..\..\arduinoLCD\test\Pain Drain\libraries\lvgl\src\draw\../misc/lv_color.h ****      * 5-bit to 8-bit: ( 31 * multiplier + adder ) >> divisor = 255
 400:..\..\..\arduinoLCD\test\Pain Drain\libraries\lvgl\src\draw\../misc/lv_color.h ****      * divisor  multiplier  adder  min (0)  max (31)
 401:..\..\..\arduinoLCD\test\Pain Drain\libraries\lvgl\src\draw\../misc/lv_color.h ****      *       0           8      7        7       255
 402:..\..\..\arduinoLCD\test\Pain Drain\libraries\lvgl\src\draw\../misc/lv_color.h ****      *       1          16     14        7       255
 403:..\..\..\arduinoLCD\test\Pain Drain\libraries\lvgl\src\draw\../misc/lv_color.h ****      *       2          32     28        7       255
 404:..\..\..\arduinoLCD\test\Pain Drain\libraries\lvgl\src\draw\../misc/lv_color.h ****      *       3          65     25        3       255
 405:..\..\..\arduinoLCD\test\Pain Drain\libraries\lvgl\src\draw\../misc/lv_color.h ****      *       4         131     19        1       255
 406:..\..\..\arduinoLCD\test\Pain Drain\libraries\lvgl\src\draw\../misc/lv_color.h ****      *       5         263      7        0       255
 407:..\..\..\arduinoLCD\test\Pain Drain\libraries\lvgl\src\draw\../misc/lv_color.h ****      *
 408:..\..\..\arduinoLCD\test\Pain Drain\libraries\lvgl\src\draw\../misc/lv_color.h ****      * 6-bit to 8-bit: 255 = ( 63 * multiplier + adder ) >> divisor
 409:..\..\..\arduinoLCD\test\Pain Drain\libraries\lvgl\src\draw\../misc/lv_color.h ****      * divisor  multiplier  adder  min (0)  max (63)
 410:..\..\..\arduinoLCD\test\Pain Drain\libraries\lvgl\src\draw\../misc/lv_color.h ****      *       0           4      3        3       255
 411:..\..\..\arduinoLCD\test\Pain Drain\libraries\lvgl\src\draw\../misc/lv_color.h ****      *       1           8      6        3       255
 412:..\..\..\arduinoLCD\test\Pain Drain\libraries\lvgl\src\draw\../misc/lv_color.h ****      *       2          16     12        3       255
 413:..\..\..\arduinoLCD\test\Pain Drain\libraries\lvgl\src\draw\../misc/lv_color.h ****      *       3          32     24        3       255
 414:..\..\..\arduinoLCD\test\Pain Drain\libraries\lvgl\src\draw\../misc/lv_color.h ****      *       4          64     48        3       255
ARM GAS  C:\Users\haske\AppData\Local\Temp\ccwuLgOR.s 			page 38


 415:..\..\..\arduinoLCD\test\Pain Drain\libraries\lvgl\src\draw\../misc/lv_color.h ****      *       5         129     33        1       255
 416:..\..\..\arduinoLCD\test\Pain Drain\libraries\lvgl\src\draw\../misc/lv_color.h ****      *       6         259      3        0       255
 417:..\..\..\arduinoLCD\test\Pain Drain\libraries\lvgl\src\draw\../misc/lv_color.h ****      */
 418:..\..\..\arduinoLCD\test\Pain Drain\libraries\lvgl\src\draw\../misc/lv_color.h **** 
 419:..\..\..\arduinoLCD\test\Pain Drain\libraries\lvgl\src\draw\../misc/lv_color.h ****     lv_color32_t ret;
 420:..\..\..\arduinoLCD\test\Pain Drain\libraries\lvgl\src\draw\../misc/lv_color.h ****     LV_COLOR_SET_R32(ret, (LV_COLOR_GET_R(color) * 263 + 7) >> 5);
 1168              		.loc 3 420 0 is_stmt 1
 1169 0026 1504     		lsls	r5, r2, #16
 1170 0028 EB0E     		lsrs	r3, r5, #27
 1171 002a 5D01     		lsls	r5, r3, #5
 1172 002c ED18     		adds	r5, r5, r3
 1173 002e ED00     		lsls	r5, r5, #3
 1174 0030 ED1A     		subs	r5, r5, r3
 1175 0032 0735     		adds	r5, r5, #7
 1176 0034 6D11     		asrs	r5, r5, #5
 1177 0036 EDB2     		uxtb	r5, r5
 421:..\..\..\arduinoLCD\test\Pain Drain\libraries\lvgl\src\draw\../misc/lv_color.h ****     LV_COLOR_SET_G32(ret, (LV_COLOR_GET_G(color) * 259 + 3) >> 6);
 1178              		.loc 3 421 0
 1179 0038 5305     		lsls	r3, r2, #21
 1180 003a 9B0E     		lsrs	r3, r3, #26
 1181 003c DC01     		lsls	r4, r3, #7
 1182 003e E418     		adds	r4, r4, r3
 1183 0040 6400     		lsls	r4, r4, #1
 1184 0042 E318     		adds	r3, r4, r3
 1185 0044 0333     		adds	r3, r3, #3
 1186 0046 9B11     		asrs	r3, r3, #6
 1187 0048 DBB2     		uxtb	r3, r3
 1188 004a 1B02     		lsls	r3, r3, #8
 1189 004c 2D04     		lsls	r5, r5, #16
 422:..\..\..\arduinoLCD\test\Pain Drain\libraries\lvgl\src\draw\../misc/lv_color.h ****     LV_COLOR_SET_B32(ret, (LV_COLOR_GET_B(color) * 263 + 7) >> 5);
 1190              		.loc 3 422 0
 1191 004e D206     		lsls	r2, r2, #27
 1192              	.LVL213:
 1193 0050 D60E     		lsrs	r6, r2, #27
 1194 0052 7401     		lsls	r4, r6, #5
 1195 0054 A219     		adds	r2, r4, r6
 1196 0056 D400     		lsls	r4, r2, #3
 1197 0058 A21B     		subs	r2, r4, r6
 1198 005a 0732     		adds	r2, r2, #7
 1199 005c 5211     		asrs	r2, r2, #5
 1200 005e D2B2     		uxtb	r2, r2
 1201 0060 2B43     		orrs	r3, r5
 1202 0062 1343     		orrs	r3, r2
 1203              	.LVL214:
 423:..\..\..\arduinoLCD\test\Pain Drain\libraries\lvgl\src\draw\../misc/lv_color.h ****     LV_COLOR_SET_A32(ret, 0xFF);
 1204              		.loc 3 423 0
 1205 0064 FF22     		movs	r2, #255
 1206 0066 1206     		lsls	r2, r2, #24
 1207              	.LVL215:
 1208 0068 1343     		orrs	r3, r2
 1209              	.LVL216:
 1210              	.LBE60:
 1211              	.LBE59:
 313:..\..\..\arduinoLCD\test\Pain Drain\libraries\lvgl\src\draw/lv_img_buf.c ****         LV_LOG_WARN("lv_img_buf_set_px_alpha: invalid 'id'");
 314:..\..\..\arduinoLCD\test\Pain Drain\libraries\lvgl\src\draw/lv_img_buf.c ****         return;
 315:..\..\..\arduinoLCD\test\Pain Drain\libraries\lvgl\src\draw/lv_img_buf.c ****     }
 316:..\..\..\arduinoLCD\test\Pain Drain\libraries\lvgl\src\draw/lv_img_buf.c **** 
ARM GAS  C:\Users\haske\AppData\Local\Temp\ccwuLgOR.s 			page 39


 317:..\..\..\arduinoLCD\test\Pain Drain\libraries\lvgl\src\draw/lv_img_buf.c ****     lv_color32_t c32;
 318:..\..\..\arduinoLCD\test\Pain Drain\libraries\lvgl\src\draw/lv_img_buf.c ****     c32.full      = lv_color_to32(c);
 1212              		.loc 1 318 0
 1213 006a 0193     		str	r3, [sp, #4]
 319:..\..\..\arduinoLCD\test\Pain Drain\libraries\lvgl\src\draw/lv_img_buf.c ****     uint8_t * buf = (uint8_t *)dsc->data;
 1214              		.loc 1 319 0
 1215 006c 8368     		ldr	r3, [r0, #8]
 1216              	.LVL217:
 320:..\..\..\arduinoLCD\test\Pain Drain\libraries\lvgl\src\draw/lv_img_buf.c ****     lv_memcpy_small(&buf[id * sizeof(c32)], &c32, sizeof(c32));
 1217              		.loc 1 320 0
 1218 006e 8900     		lsls	r1, r1, #2
 1219              	.LVL218:
 1220 0070 5918     		adds	r1, r3, r1
 1221              	.LVL219:
 1222              	.LBB61:
 1223              	.LBB62:
 197:..\..\..\arduinoLCD\test\Pain Drain\libraries\lvgl\src\draw\../misc/lv_mem.h **** 
 1224              		.loc 2 197 0
 1225 0072 01AA     		add	r2, sp, #4
 1226              	.LVL220:
 1227              	.LBE62:
 1228              	.LBE61:
 1229              		.loc 1 320 0
 1230 0074 0423     		movs	r3, #4
 1231              	.LVL221:
 1232 0076 04E0     		b	.L44
 1233              	.LVL222:
 1234              	.L45:
 1235              	.LBB64:
 1236              	.LBB63:
 200:..\..\..\arduinoLCD\test\Pain Drain\libraries\lvgl\src\draw\../misc/lv_mem.h ****         d8++;
 1237              		.loc 2 200 0
 1238 0078 1078     		ldrb	r0, [r2]
 1239 007a 0870     		strb	r0, [r1]
 201:..\..\..\arduinoLCD\test\Pain Drain\libraries\lvgl\src\draw\../misc/lv_mem.h ****         s8++;
 1240              		.loc 2 201 0
 1241 007c 0131     		adds	r1, r1, #1
 1242              	.LVL223:
 202:..\..\..\arduinoLCD\test\Pain Drain\libraries\lvgl\src\draw\../misc/lv_mem.h ****         len--;
 1243              		.loc 2 202 0
 1244 007e 0132     		adds	r2, r2, #1
 1245              	.LVL224:
 1246              		.loc 2 203 0
 1247 0080 013B     		subs	r3, r3, #1
 1248              	.LVL225:
 1249              	.L44:
 199:..\..\..\arduinoLCD\test\Pain Drain\libraries\lvgl\src\draw\../misc/lv_mem.h ****         *d8 = *s8;
 1250              		.loc 2 199 0
 1251 0082 002B     		cmp	r3, #0
 1252 0084 F8D1     		bne	.L45
 1253              	.LVL226:
 1254              	.L39:
 1255              	.LBE63:
 1256              	.LBE64:
 321:..\..\..\arduinoLCD\test\Pain Drain\libraries\lvgl\src\draw/lv_img_buf.c **** }
 1257              		.loc 1 321 0
 1258 0086 02B0     		add	sp, sp, #8
ARM GAS  C:\Users\haske\AppData\Local\Temp\ccwuLgOR.s 			page 40


 1259              		@ sp needed
 1260 0088 70BD     		pop	{r4, r5, r6, pc}
 1261              		.cfi_endproc
 1262              	.LFE58:
 1263              		.size	lv_img_buf_set_palette, .-lv_img_buf_set_palette
 1264 008a C046     		.section	.text.lv_img_buf_free,"ax",%progbits
 1265              		.align	2
 1266              		.global	lv_img_buf_free
 1267              		.code	16
 1268              		.thumb_func
 1269              		.type	lv_img_buf_free, %function
 1270              	lv_img_buf_free:
 1271              	.LFB60:
 322:..\..\..\arduinoLCD\test\Pain Drain\libraries\lvgl\src\draw/lv_img_buf.c **** 
 323:..\..\..\arduinoLCD\test\Pain Drain\libraries\lvgl\src\draw/lv_img_buf.c **** /**
 324:..\..\..\arduinoLCD\test\Pain Drain\libraries\lvgl\src\draw/lv_img_buf.c ****  * Allocate an image buffer in RAM
 325:..\..\..\arduinoLCD\test\Pain Drain\libraries\lvgl\src\draw/lv_img_buf.c ****  * @param w width of image
 326:..\..\..\arduinoLCD\test\Pain Drain\libraries\lvgl\src\draw/lv_img_buf.c ****  * @param h height of image
 327:..\..\..\arduinoLCD\test\Pain Drain\libraries\lvgl\src\draw/lv_img_buf.c ****  * @param cf a color format (`LV_IMG_CF_...`)
 328:..\..\..\arduinoLCD\test\Pain Drain\libraries\lvgl\src\draw/lv_img_buf.c ****  * @return an allocated image, or NULL on failure
 329:..\..\..\arduinoLCD\test\Pain Drain\libraries\lvgl\src\draw/lv_img_buf.c ****  */
 330:..\..\..\arduinoLCD\test\Pain Drain\libraries\lvgl\src\draw/lv_img_buf.c **** lv_img_dsc_t * lv_img_buf_alloc(lv_coord_t w, lv_coord_t h, lv_img_cf_t cf)
 331:..\..\..\arduinoLCD\test\Pain Drain\libraries\lvgl\src\draw/lv_img_buf.c **** {
 332:..\..\..\arduinoLCD\test\Pain Drain\libraries\lvgl\src\draw/lv_img_buf.c ****     /*Allocate image descriptor*/
 333:..\..\..\arduinoLCD\test\Pain Drain\libraries\lvgl\src\draw/lv_img_buf.c ****     lv_img_dsc_t * dsc = lv_mem_alloc(sizeof(lv_img_dsc_t));
 334:..\..\..\arduinoLCD\test\Pain Drain\libraries\lvgl\src\draw/lv_img_buf.c ****     if(dsc == NULL)
 335:..\..\..\arduinoLCD\test\Pain Drain\libraries\lvgl\src\draw/lv_img_buf.c ****         return NULL;
 336:..\..\..\arduinoLCD\test\Pain Drain\libraries\lvgl\src\draw/lv_img_buf.c **** 
 337:..\..\..\arduinoLCD\test\Pain Drain\libraries\lvgl\src\draw/lv_img_buf.c ****     lv_memset_00(dsc, sizeof(lv_img_dsc_t));
 338:..\..\..\arduinoLCD\test\Pain Drain\libraries\lvgl\src\draw/lv_img_buf.c **** 
 339:..\..\..\arduinoLCD\test\Pain Drain\libraries\lvgl\src\draw/lv_img_buf.c ****     /*Get image data size*/
 340:..\..\..\arduinoLCD\test\Pain Drain\libraries\lvgl\src\draw/lv_img_buf.c ****     dsc->data_size = lv_img_buf_get_img_size(w, h, cf);
 341:..\..\..\arduinoLCD\test\Pain Drain\libraries\lvgl\src\draw/lv_img_buf.c ****     if(dsc->data_size == 0) {
 342:..\..\..\arduinoLCD\test\Pain Drain\libraries\lvgl\src\draw/lv_img_buf.c ****         lv_mem_free(dsc);
 343:..\..\..\arduinoLCD\test\Pain Drain\libraries\lvgl\src\draw/lv_img_buf.c ****         return NULL;
 344:..\..\..\arduinoLCD\test\Pain Drain\libraries\lvgl\src\draw/lv_img_buf.c ****     }
 345:..\..\..\arduinoLCD\test\Pain Drain\libraries\lvgl\src\draw/lv_img_buf.c **** 
 346:..\..\..\arduinoLCD\test\Pain Drain\libraries\lvgl\src\draw/lv_img_buf.c ****     /*Allocate raw buffer*/
 347:..\..\..\arduinoLCD\test\Pain Drain\libraries\lvgl\src\draw/lv_img_buf.c ****     dsc->data = lv_mem_alloc(dsc->data_size);
 348:..\..\..\arduinoLCD\test\Pain Drain\libraries\lvgl\src\draw/lv_img_buf.c ****     if(dsc->data == NULL) {
 349:..\..\..\arduinoLCD\test\Pain Drain\libraries\lvgl\src\draw/lv_img_buf.c ****         lv_mem_free(dsc);
 350:..\..\..\arduinoLCD\test\Pain Drain\libraries\lvgl\src\draw/lv_img_buf.c ****         return NULL;
 351:..\..\..\arduinoLCD\test\Pain Drain\libraries\lvgl\src\draw/lv_img_buf.c ****     }
 352:..\..\..\arduinoLCD\test\Pain Drain\libraries\lvgl\src\draw/lv_img_buf.c ****     lv_memset_00((uint8_t *)dsc->data, dsc->data_size);
 353:..\..\..\arduinoLCD\test\Pain Drain\libraries\lvgl\src\draw/lv_img_buf.c **** 
 354:..\..\..\arduinoLCD\test\Pain Drain\libraries\lvgl\src\draw/lv_img_buf.c ****     /*Fill in header*/
 355:..\..\..\arduinoLCD\test\Pain Drain\libraries\lvgl\src\draw/lv_img_buf.c ****     dsc->header.always_zero = 0;
 356:..\..\..\arduinoLCD\test\Pain Drain\libraries\lvgl\src\draw/lv_img_buf.c ****     dsc->header.w = w;
 357:..\..\..\arduinoLCD\test\Pain Drain\libraries\lvgl\src\draw/lv_img_buf.c ****     dsc->header.h = h;
 358:..\..\..\arduinoLCD\test\Pain Drain\libraries\lvgl\src\draw/lv_img_buf.c ****     dsc->header.cf = cf;
 359:..\..\..\arduinoLCD\test\Pain Drain\libraries\lvgl\src\draw/lv_img_buf.c ****     return dsc;
 360:..\..\..\arduinoLCD\test\Pain Drain\libraries\lvgl\src\draw/lv_img_buf.c **** }
 361:..\..\..\arduinoLCD\test\Pain Drain\libraries\lvgl\src\draw/lv_img_buf.c **** 
 362:..\..\..\arduinoLCD\test\Pain Drain\libraries\lvgl\src\draw/lv_img_buf.c **** /**
 363:..\..\..\arduinoLCD\test\Pain Drain\libraries\lvgl\src\draw/lv_img_buf.c ****  * Free an allocated image buffer
 364:..\..\..\arduinoLCD\test\Pain Drain\libraries\lvgl\src\draw/lv_img_buf.c ****  * @param dsc image buffer to free
 365:..\..\..\arduinoLCD\test\Pain Drain\libraries\lvgl\src\draw/lv_img_buf.c ****  */
ARM GAS  C:\Users\haske\AppData\Local\Temp\ccwuLgOR.s 			page 41


 366:..\..\..\arduinoLCD\test\Pain Drain\libraries\lvgl\src\draw/lv_img_buf.c **** void lv_img_buf_free(lv_img_dsc_t * dsc)
 367:..\..\..\arduinoLCD\test\Pain Drain\libraries\lvgl\src\draw/lv_img_buf.c **** {
 1272              		.loc 1 367 0
 1273              		.cfi_startproc
 1274              		@ args = 0, pretend = 0, frame = 0
 1275              		@ frame_needed = 0, uses_anonymous_args = 0
 1276              	.LVL227:
 1277 0000 10B5     		push	{r4, lr}
 1278              		.cfi_def_cfa_offset 8
 1279              		.cfi_offset 4, -8
 1280              		.cfi_offset 14, -4
 1281 0002 041E     		subs	r4, r0, #0
 368:..\..\..\arduinoLCD\test\Pain Drain\libraries\lvgl\src\draw/lv_img_buf.c ****     if(dsc != NULL) {
 1282              		.loc 1 368 0
 1283 0004 07D0     		beq	.L47
 369:..\..\..\arduinoLCD\test\Pain Drain\libraries\lvgl\src\draw/lv_img_buf.c ****         if(dsc->data != NULL)
 1284              		.loc 1 369 0
 1285 0006 8068     		ldr	r0, [r0, #8]
 1286              	.LVL228:
 1287 0008 0028     		cmp	r0, #0
 1288 000a 01D0     		beq	.L49
 370:..\..\..\arduinoLCD\test\Pain Drain\libraries\lvgl\src\draw/lv_img_buf.c ****             lv_mem_free((void *)dsc->data);
 1289              		.loc 1 370 0
 1290 000c FFF7FEFF 		bl	lv_mem_free
 1291              	.LVL229:
 1292              	.L49:
 371:..\..\..\arduinoLCD\test\Pain Drain\libraries\lvgl\src\draw/lv_img_buf.c **** 
 372:..\..\..\arduinoLCD\test\Pain Drain\libraries\lvgl\src\draw/lv_img_buf.c ****         lv_mem_free(dsc);
 1293              		.loc 1 372 0
 1294 0010 2000     		movs	r0, r4
 1295 0012 FFF7FEFF 		bl	lv_mem_free
 1296              	.LVL230:
 1297              	.L47:
 373:..\..\..\arduinoLCD\test\Pain Drain\libraries\lvgl\src\draw/lv_img_buf.c ****     }
 374:..\..\..\arduinoLCD\test\Pain Drain\libraries\lvgl\src\draw/lv_img_buf.c **** }
 1298              		.loc 1 374 0
 1299              		@ sp needed
 1300              	.LVL231:
 1301 0016 10BD     		pop	{r4, pc}
 1302              		.cfi_endproc
 1303              	.LFE60:
 1304              		.size	lv_img_buf_free, .-lv_img_buf_free
 1305              		.section	.text.lv_img_buf_get_img_size,"ax",%progbits
 1306              		.align	2
 1307              		.global	lv_img_buf_get_img_size
 1308              		.code	16
 1309              		.thumb_func
 1310              		.type	lv_img_buf_get_img_size, %function
 1311              	lv_img_buf_get_img_size:
 1312              	.LFB61:
 375:..\..\..\arduinoLCD\test\Pain Drain\libraries\lvgl\src\draw/lv_img_buf.c **** 
 376:..\..\..\arduinoLCD\test\Pain Drain\libraries\lvgl\src\draw/lv_img_buf.c **** /**
 377:..\..\..\arduinoLCD\test\Pain Drain\libraries\lvgl\src\draw/lv_img_buf.c ****  * Get the memory consumption of a raw bitmap, given color format and dimensions.
 378:..\..\..\arduinoLCD\test\Pain Drain\libraries\lvgl\src\draw/lv_img_buf.c ****  * @param w width
 379:..\..\..\arduinoLCD\test\Pain Drain\libraries\lvgl\src\draw/lv_img_buf.c ****  * @param h height
 380:..\..\..\arduinoLCD\test\Pain Drain\libraries\lvgl\src\draw/lv_img_buf.c ****  * @param cf color format
 381:..\..\..\arduinoLCD\test\Pain Drain\libraries\lvgl\src\draw/lv_img_buf.c ****  * @return size in bytes
ARM GAS  C:\Users\haske\AppData\Local\Temp\ccwuLgOR.s 			page 42


 382:..\..\..\arduinoLCD\test\Pain Drain\libraries\lvgl\src\draw/lv_img_buf.c ****  */
 383:..\..\..\arduinoLCD\test\Pain Drain\libraries\lvgl\src\draw/lv_img_buf.c **** uint32_t lv_img_buf_get_img_size(lv_coord_t w, lv_coord_t h, lv_img_cf_t cf)
 384:..\..\..\arduinoLCD\test\Pain Drain\libraries\lvgl\src\draw/lv_img_buf.c **** {
 1313              		.loc 1 384 0
 1314              		.cfi_startproc
 1315              		@ args = 0, pretend = 0, frame = 0
 1316              		@ frame_needed = 0, uses_anonymous_args = 0
 1317              		@ link register save eliminated.
 1318              	.LVL232:
 385:..\..\..\arduinoLCD\test\Pain Drain\libraries\lvgl\src\draw/lv_img_buf.c ****     switch(cf) {
 1319              		.loc 1 385 0
 1320 0000 043A     		subs	r2, r2, #4
 1321              	.LVL233:
 1322 0002 D3B2     		uxtb	r3, r2
 1323 0004 102B     		cmp	r3, #16
 1324 0006 44D8     		bhi	.L64
 1325 0008 9A00     		lsls	r2, r3, #2
 1326 000a 234B     		ldr	r3, .L65
 1327 000c 9B58     		ldr	r3, [r3, r2]
 1328 000e 9F46     		mov	pc, r3
 1329              		.section	.rodata
 1330              		.align	2
 1331              	.L53:
 1332 0000 10000000 		.word	.L52
 1333 0004 16000000 		.word	.L54
 1334 0008 1E000000 		.word	.L55
 1335 000c 54000000 		.word	.L56
 1336 0010 66000000 		.word	.L57
 1337 0014 78000000 		.word	.L58
 1338 0018 86000000 		.word	.L59
 1339 001c 24000000 		.word	.L60
 1340 0020 34000000 		.word	.L61
 1341 0024 44000000 		.word	.L62
 1342 0028 50000000 		.word	.L63
 1343 002c 92000000 		.word	.L64
 1344 0030 92000000 		.word	.L64
 1345 0034 92000000 		.word	.L64
 1346 0038 92000000 		.word	.L64
 1347 003c 92000000 		.word	.L64
 1348 0040 16000000 		.word	.L54
 1349              		.section	.text.lv_img_buf_get_img_size
 1350              	.L52:
 386:..\..\..\arduinoLCD\test\Pain Drain\libraries\lvgl\src\draw/lv_img_buf.c ****         case LV_IMG_CF_TRUE_COLOR:
 387:..\..\..\arduinoLCD\test\Pain Drain\libraries\lvgl\src\draw/lv_img_buf.c ****             return LV_IMG_BUF_SIZE_TRUE_COLOR(w, h);
 1351              		.loc 1 387 0
 1352 0010 4000     		lsls	r0, r0, #1
 1353              	.LVL234:
 1354 0012 4843     		muls	r0, r1
 1355 0014 3EE0     		b	.L51
 1356              	.LVL235:
 1357              	.L54:
 388:..\..\..\arduinoLCD\test\Pain Drain\libraries\lvgl\src\draw/lv_img_buf.c ****         case LV_IMG_CF_TRUE_COLOR_ALPHA:
 389:..\..\..\arduinoLCD\test\Pain Drain\libraries\lvgl\src\draw/lv_img_buf.c ****         case LV_IMG_CF_RGB565A8:
 390:..\..\..\arduinoLCD\test\Pain Drain\libraries\lvgl\src\draw/lv_img_buf.c ****             return LV_IMG_BUF_SIZE_TRUE_COLOR_ALPHA(w, h);
 1358              		.loc 1 390 0
 1359 0016 4300     		lsls	r3, r0, #1
 1360 0018 1818     		adds	r0, r3, r0
ARM GAS  C:\Users\haske\AppData\Local\Temp\ccwuLgOR.s 			page 43


 1361              	.LVL236:
 1362 001a 4843     		muls	r0, r1
 1363 001c 3AE0     		b	.L51
 1364              	.LVL237:
 1365              	.L55:
 391:..\..\..\arduinoLCD\test\Pain Drain\libraries\lvgl\src\draw/lv_img_buf.c ****         case LV_IMG_CF_TRUE_COLOR_CHROMA_KEYED:
 392:..\..\..\arduinoLCD\test\Pain Drain\libraries\lvgl\src\draw/lv_img_buf.c ****             return LV_IMG_BUF_SIZE_TRUE_COLOR_CHROMA_KEYED(w, h);
 1366              		.loc 1 392 0
 1367 001e 4000     		lsls	r0, r0, #1
 1368              	.LVL238:
 1369 0020 4843     		muls	r0, r1
 1370 0022 37E0     		b	.L51
 1371              	.LVL239:
 1372              	.L60:
 393:..\..\..\arduinoLCD\test\Pain Drain\libraries\lvgl\src\draw/lv_img_buf.c ****         case LV_IMG_CF_ALPHA_1BIT:
 394:..\..\..\arduinoLCD\test\Pain Drain\libraries\lvgl\src\draw/lv_img_buf.c ****             return LV_IMG_BUF_SIZE_ALPHA_1BIT(w, h);
 1373              		.loc 1 394 0
 1374 0024 C317     		asrs	r3, r0, #31
 1375 0026 0722     		movs	r2, #7
 1376 0028 1340     		ands	r3, r2
 1377 002a 1818     		adds	r0, r3, r0
 1378              	.LVL240:
 1379 002c C010     		asrs	r0, r0, #3
 1380 002e 0130     		adds	r0, r0, #1
 1381 0030 4843     		muls	r0, r1
 1382 0032 2FE0     		b	.L51
 1383              	.LVL241:
 1384              	.L61:
 395:..\..\..\arduinoLCD\test\Pain Drain\libraries\lvgl\src\draw/lv_img_buf.c ****         case LV_IMG_CF_ALPHA_2BIT:
 396:..\..\..\arduinoLCD\test\Pain Drain\libraries\lvgl\src\draw/lv_img_buf.c ****             return LV_IMG_BUF_SIZE_ALPHA_2BIT(w, h);
 1385              		.loc 1 396 0
 1386 0034 C317     		asrs	r3, r0, #31
 1387 0036 0322     		movs	r2, #3
 1388 0038 1340     		ands	r3, r2
 1389 003a 1818     		adds	r0, r3, r0
 1390              	.LVL242:
 1391 003c 8010     		asrs	r0, r0, #2
 1392 003e 0130     		adds	r0, r0, #1
 1393 0040 4843     		muls	r0, r1
 1394 0042 27E0     		b	.L51
 1395              	.LVL243:
 1396              	.L62:
 397:..\..\..\arduinoLCD\test\Pain Drain\libraries\lvgl\src\draw/lv_img_buf.c ****         case LV_IMG_CF_ALPHA_4BIT:
 398:..\..\..\arduinoLCD\test\Pain Drain\libraries\lvgl\src\draw/lv_img_buf.c ****             return LV_IMG_BUF_SIZE_ALPHA_4BIT(w, h);
 1397              		.loc 1 398 0
 1398 0044 C30F     		lsrs	r3, r0, #31
 1399 0046 1818     		adds	r0, r3, r0
 1400              	.LVL244:
 1401 0048 4010     		asrs	r0, r0, #1
 1402 004a 0130     		adds	r0, r0, #1
 1403 004c 4843     		muls	r0, r1
 1404 004e 21E0     		b	.L51
 1405              	.LVL245:
 1406              	.L63:
 399:..\..\..\arduinoLCD\test\Pain Drain\libraries\lvgl\src\draw/lv_img_buf.c ****         case LV_IMG_CF_ALPHA_8BIT:
 400:..\..\..\arduinoLCD\test\Pain Drain\libraries\lvgl\src\draw/lv_img_buf.c ****             return LV_IMG_BUF_SIZE_ALPHA_8BIT(w, h);
 1407              		.loc 1 400 0
ARM GAS  C:\Users\haske\AppData\Local\Temp\ccwuLgOR.s 			page 44


 1408 0050 4843     		muls	r0, r1
 1409              	.LVL246:
 1410 0052 1FE0     		b	.L51
 1411              	.LVL247:
 1412              	.L56:
 401:..\..\..\arduinoLCD\test\Pain Drain\libraries\lvgl\src\draw/lv_img_buf.c ****         case LV_IMG_CF_INDEXED_1BIT:
 402:..\..\..\arduinoLCD\test\Pain Drain\libraries\lvgl\src\draw/lv_img_buf.c ****             return LV_IMG_BUF_SIZE_INDEXED_1BIT(w, h);
 1413              		.loc 1 402 0
 1414 0054 C317     		asrs	r3, r0, #31
 1415 0056 0722     		movs	r2, #7
 1416 0058 1340     		ands	r3, r2
 1417 005a 1818     		adds	r0, r3, r0
 1418              	.LVL248:
 1419 005c C010     		asrs	r0, r0, #3
 1420 005e 0130     		adds	r0, r0, #1
 1421 0060 4843     		muls	r0, r1
 1422 0062 0830     		adds	r0, r0, #8
 1423 0064 16E0     		b	.L51
 1424              	.LVL249:
 1425              	.L57:
 403:..\..\..\arduinoLCD\test\Pain Drain\libraries\lvgl\src\draw/lv_img_buf.c ****         case LV_IMG_CF_INDEXED_2BIT:
 404:..\..\..\arduinoLCD\test\Pain Drain\libraries\lvgl\src\draw/lv_img_buf.c ****             return LV_IMG_BUF_SIZE_INDEXED_2BIT(w, h);
 1426              		.loc 1 404 0
 1427 0066 C317     		asrs	r3, r0, #31
 1428 0068 0322     		movs	r2, #3
 1429 006a 1340     		ands	r3, r2
 1430 006c 1818     		adds	r0, r3, r0
 1431              	.LVL250:
 1432 006e 8010     		asrs	r0, r0, #2
 1433 0070 0130     		adds	r0, r0, #1
 1434 0072 4843     		muls	r0, r1
 1435 0074 1030     		adds	r0, r0, #16
 1436 0076 0DE0     		b	.L51
 1437              	.LVL251:
 1438              	.L58:
 405:..\..\..\arduinoLCD\test\Pain Drain\libraries\lvgl\src\draw/lv_img_buf.c ****         case LV_IMG_CF_INDEXED_4BIT:
 406:..\..\..\arduinoLCD\test\Pain Drain\libraries\lvgl\src\draw/lv_img_buf.c ****             return LV_IMG_BUF_SIZE_INDEXED_4BIT(w, h);
 1439              		.loc 1 406 0
 1440 0078 C30F     		lsrs	r3, r0, #31
 1441 007a 1818     		adds	r0, r3, r0
 1442              	.LVL252:
 1443 007c 4010     		asrs	r0, r0, #1
 1444 007e 0130     		adds	r0, r0, #1
 1445 0080 4843     		muls	r0, r1
 1446 0082 4030     		adds	r0, r0, #64
 1447 0084 06E0     		b	.L51
 1448              	.LVL253:
 1449              	.L59:
 407:..\..\..\arduinoLCD\test\Pain Drain\libraries\lvgl\src\draw/lv_img_buf.c ****         case LV_IMG_CF_INDEXED_8BIT:
 408:..\..\..\arduinoLCD\test\Pain Drain\libraries\lvgl\src\draw/lv_img_buf.c ****             return LV_IMG_BUF_SIZE_INDEXED_8BIT(w, h);
 1450              		.loc 1 408 0
 1451 0086 4843     		muls	r0, r1
 1452              	.LVL254:
 1453 0088 8023     		movs	r3, #128
 1454 008a DB00     		lsls	r3, r3, #3
 1455 008c 9C46     		mov	ip, r3
 1456 008e 6044     		add	r0, r0, ip
ARM GAS  C:\Users\haske\AppData\Local\Temp\ccwuLgOR.s 			page 45


 1457 0090 00E0     		b	.L51
 1458              	.LVL255:
 1459              	.L64:
 409:..\..\..\arduinoLCD\test\Pain Drain\libraries\lvgl\src\draw/lv_img_buf.c ****         default:
 410:..\..\..\arduinoLCD\test\Pain Drain\libraries\lvgl\src\draw/lv_img_buf.c ****             return 0;
 1460              		.loc 1 410 0
 1461 0092 0020     		movs	r0, #0
 1462              	.LVL256:
 1463              	.L51:
 411:..\..\..\arduinoLCD\test\Pain Drain\libraries\lvgl\src\draw/lv_img_buf.c ****     }
 412:..\..\..\arduinoLCD\test\Pain Drain\libraries\lvgl\src\draw/lv_img_buf.c **** }
 1464              		.loc 1 412 0
 1465              		@ sp needed
 1466 0094 7047     		bx	lr
 1467              	.L66:
 1468 0096 C046     		.align	2
 1469              	.L65:
 1470 0098 00000000 		.word	.L53
 1471              		.cfi_endproc
 1472              	.LFE61:
 1473              		.size	lv_img_buf_get_img_size, .-lv_img_buf_get_img_size
 1474              		.section	.text.lv_img_buf_alloc,"ax",%progbits
 1475              		.align	2
 1476              		.global	lv_img_buf_alloc
 1477              		.code	16
 1478              		.thumb_func
 1479              		.type	lv_img_buf_alloc, %function
 1480              	lv_img_buf_alloc:
 1481              	.LFB59:
 331:..\..\..\arduinoLCD\test\Pain Drain\libraries\lvgl\src\draw/lv_img_buf.c ****     /*Allocate image descriptor*/
 1482              		.loc 1 331 0
 1483              		.cfi_startproc
 1484              		@ args = 0, pretend = 0, frame = 0
 1485              		@ frame_needed = 0, uses_anonymous_args = 0
 1486              	.LVL257:
 1487 0000 F8B5     		push	{r3, r4, r5, r6, r7, lr}
 1488              		.cfi_def_cfa_offset 24
 1489              		.cfi_offset 3, -24
 1490              		.cfi_offset 4, -20
 1491              		.cfi_offset 5, -16
 1492              		.cfi_offset 6, -12
 1493              		.cfi_offset 7, -8
 1494              		.cfi_offset 14, -4
 1495 0002 0700     		movs	r7, r0
 1496 0004 0E00     		movs	r6, r1
 1497 0006 1500     		movs	r5, r2
 333:..\..\..\arduinoLCD\test\Pain Drain\libraries\lvgl\src\draw/lv_img_buf.c ****     if(dsc == NULL)
 1498              		.loc 1 333 0
 1499 0008 0C20     		movs	r0, #12
 1500              	.LVL258:
 1501 000a FFF7FEFF 		bl	lv_mem_alloc
 1502              	.LVL259:
 1503 000e 041E     		subs	r4, r0, #0
 1504              	.LVL260:
 334:..\..\..\arduinoLCD\test\Pain Drain\libraries\lvgl\src\draw/lv_img_buf.c ****         return NULL;
 1505              		.loc 1 334 0
 1506 0010 36D0     		beq	.L71
ARM GAS  C:\Users\haske\AppData\Local\Temp\ccwuLgOR.s 			page 46


 337:..\..\..\arduinoLCD\test\Pain Drain\libraries\lvgl\src\draw/lv_img_buf.c **** 
 1507              		.loc 1 337 0
 1508 0012 0C21     		movs	r1, #12
 1509 0014 FFF7FEFF 		bl	lv_memset_00
 1510              	.LVL261:
 340:..\..\..\arduinoLCD\test\Pain Drain\libraries\lvgl\src\draw/lv_img_buf.c ****     if(dsc->data_size == 0) {
 1511              		.loc 1 340 0
 1512 0018 2A00     		movs	r2, r5
 1513 001a 3100     		movs	r1, r6
 1514 001c 3800     		movs	r0, r7
 1515 001e FFF7FEFF 		bl	lv_img_buf_get_img_size
 1516              	.LVL262:
 1517 0022 6060     		str	r0, [r4, #4]
 341:..\..\..\arduinoLCD\test\Pain Drain\libraries\lvgl\src\draw/lv_img_buf.c ****         lv_mem_free(dsc);
 1518              		.loc 1 341 0
 1519 0024 0028     		cmp	r0, #0
 1520 0026 04D1     		bne	.L69
 342:..\..\..\arduinoLCD\test\Pain Drain\libraries\lvgl\src\draw/lv_img_buf.c ****         return NULL;
 1521              		.loc 1 342 0
 1522 0028 2000     		movs	r0, r4
 1523 002a FFF7FEFF 		bl	lv_mem_free
 1524              	.LVL263:
 343:..\..\..\arduinoLCD\test\Pain Drain\libraries\lvgl\src\draw/lv_img_buf.c ****     }
 1525              		.loc 1 343 0
 1526 002e 0020     		movs	r0, #0
 1527 0030 27E0     		b	.L68
 1528              	.L69:
 347:..\..\..\arduinoLCD\test\Pain Drain\libraries\lvgl\src\draw/lv_img_buf.c ****     if(dsc->data == NULL) {
 1529              		.loc 1 347 0
 1530 0032 FFF7FEFF 		bl	lv_mem_alloc
 1531              	.LVL264:
 1532 0036 A060     		str	r0, [r4, #8]
 348:..\..\..\arduinoLCD\test\Pain Drain\libraries\lvgl\src\draw/lv_img_buf.c ****         lv_mem_free(dsc);
 1533              		.loc 1 348 0
 1534 0038 0028     		cmp	r0, #0
 1535 003a 04D1     		bne	.L70
 349:..\..\..\arduinoLCD\test\Pain Drain\libraries\lvgl\src\draw/lv_img_buf.c ****         return NULL;
 1536              		.loc 1 349 0
 1537 003c 2000     		movs	r0, r4
 1538 003e FFF7FEFF 		bl	lv_mem_free
 1539              	.LVL265:
 350:..\..\..\arduinoLCD\test\Pain Drain\libraries\lvgl\src\draw/lv_img_buf.c ****     }
 1540              		.loc 1 350 0
 1541 0042 0020     		movs	r0, #0
 1542 0044 1DE0     		b	.L68
 1543              	.L70:
 352:..\..\..\arduinoLCD\test\Pain Drain\libraries\lvgl\src\draw/lv_img_buf.c **** 
 1544              		.loc 1 352 0
 1545 0046 6168     		ldr	r1, [r4, #4]
 1546 0048 FFF7FEFF 		bl	lv_memset_00
 1547              	.LVL266:
 355:..\..\..\arduinoLCD\test\Pain Drain\libraries\lvgl\src\draw/lv_img_buf.c ****     dsc->header.w = w;
 1548              		.loc 1 355 0
 1549 004c 2378     		ldrb	r3, [r4]
 1550 004e 1F21     		movs	r1, #31
 1551 0050 0B40     		ands	r3, r1
 1552 0052 2370     		strb	r3, [r4]
ARM GAS  C:\Users\haske\AppData\Local\Temp\ccwuLgOR.s 			page 47


 356:..\..\..\arduinoLCD\test\Pain Drain\libraries\lvgl\src\draw/lv_img_buf.c ****     dsc->header.h = h;
 1553              		.loc 1 356 0
 1554 0054 7F05     		lsls	r7, r7, #21
 1555 0056 FF0A     		lsrs	r7, r7, #11
 1556 0058 0A48     		ldr	r0, .L72
 1557 005a 2368     		ldr	r3, [r4]
 1558 005c 0340     		ands	r3, r0
 1559 005e 3B43     		orrs	r3, r7
 1560 0060 1800     		movs	r0, r3
 1561 0062 2360     		str	r3, [r4]
 357:..\..\..\arduinoLCD\test\Pain Drain\libraries\lvgl\src\draw/lv_img_buf.c ****     dsc->header.cf = cf;
 1562              		.loc 1 357 0
 1563 0064 7301     		lsls	r3, r6, #5
 1564 0066 020C     		lsrs	r2, r0, #16
 1565 0068 1F26     		movs	r6, #31
 1566 006a 1640     		ands	r6, r2
 1567 006c 1E43     		orrs	r6, r3
 1568 006e 6680     		strh	r6, [r4, #2]
 358:..\..\..\arduinoLCD\test\Pain Drain\libraries\lvgl\src\draw/lv_img_buf.c ****     return dsc;
 1569              		.loc 1 358 0
 1570 0070 0D40     		ands	r5, r1
 1571 0072 C0B2     		uxtb	r0, r0
 1572 0074 1F23     		movs	r3, #31
 1573 0076 9843     		bics	r0, r3
 1574 0078 2843     		orrs	r0, r5
 1575 007a 2070     		strb	r0, [r4]
 359:..\..\..\arduinoLCD\test\Pain Drain\libraries\lvgl\src\draw/lv_img_buf.c **** }
 1576              		.loc 1 359 0
 1577 007c 2000     		movs	r0, r4
 1578 007e 00E0     		b	.L68
 1579              	.LVL267:
 1580              	.L71:
 335:..\..\..\arduinoLCD\test\Pain Drain\libraries\lvgl\src\draw/lv_img_buf.c **** 
 1581              		.loc 1 335 0
 1582 0080 0020     		movs	r0, #0
 1583              	.LVL268:
 1584              	.L68:
 360:..\..\..\arduinoLCD\test\Pain Drain\libraries\lvgl\src\draw/lv_img_buf.c **** 
 1585              		.loc 1 360 0
 1586              		@ sp needed
 1587              	.LVL269:
 1588 0082 F8BD     		pop	{r3, r4, r5, r6, r7, pc}
 1589              	.L73:
 1590              		.align	2
 1591              	.L72:
 1592 0084 FF03E0FF 		.word	-2096129
 1593              		.cfi_endproc
 1594              	.LFE59:
 1595              		.size	lv_img_buf_alloc, .-lv_img_buf_alloc
 1596              		.section	.text._lv_img_buf_get_transformed_area,"ax",%progbits
 1597              		.align	2
 1598              		.global	_lv_img_buf_get_transformed_area
 1599              		.code	16
 1600              		.thumb_func
 1601              		.type	_lv_img_buf_get_transformed_area, %function
 1602              	_lv_img_buf_get_transformed_area:
 1603              	.LFB62:
ARM GAS  C:\Users\haske\AppData\Local\Temp\ccwuLgOR.s 			page 48


 413:..\..\..\arduinoLCD\test\Pain Drain\libraries\lvgl\src\draw/lv_img_buf.c **** 
 414:..\..\..\arduinoLCD\test\Pain Drain\libraries\lvgl\src\draw/lv_img_buf.c **** /**
 415:..\..\..\arduinoLCD\test\Pain Drain\libraries\lvgl\src\draw/lv_img_buf.c ****  * Get the area of a rectangle if its rotated and scaled
 416:..\..\..\arduinoLCD\test\Pain Drain\libraries\lvgl\src\draw/lv_img_buf.c ****  * @param res store the coordinates here
 417:..\..\..\arduinoLCD\test\Pain Drain\libraries\lvgl\src\draw/lv_img_buf.c ****  * @param w width of the rectangle to transform
 418:..\..\..\arduinoLCD\test\Pain Drain\libraries\lvgl\src\draw/lv_img_buf.c ****  * @param h height of the rectangle to transform
 419:..\..\..\arduinoLCD\test\Pain Drain\libraries\lvgl\src\draw/lv_img_buf.c ****  * @param angle angle of rotation
 420:..\..\..\arduinoLCD\test\Pain Drain\libraries\lvgl\src\draw/lv_img_buf.c ****  * @param zoom zoom, (256 no zoom)
 421:..\..\..\arduinoLCD\test\Pain Drain\libraries\lvgl\src\draw/lv_img_buf.c ****  * @param pivot x,y pivot coordinates of rotation
 422:..\..\..\arduinoLCD\test\Pain Drain\libraries\lvgl\src\draw/lv_img_buf.c ****  */
 423:..\..\..\arduinoLCD\test\Pain Drain\libraries\lvgl\src\draw/lv_img_buf.c **** void _lv_img_buf_get_transformed_area(lv_area_t * res, lv_coord_t w, lv_coord_t h, int16_t angle, u
 424:..\..\..\arduinoLCD\test\Pain Drain\libraries\lvgl\src\draw/lv_img_buf.c ****                                       const lv_point_t * pivot)
 425:..\..\..\arduinoLCD\test\Pain Drain\libraries\lvgl\src\draw/lv_img_buf.c **** {
 1604              		.loc 1 425 0
 1605              		.cfi_startproc
 1606              		@ args = 8, pretend = 0, frame = 16
 1607              		@ frame_needed = 0, uses_anonymous_args = 0
 1608              	.LVL270:
 1609 0000 70B5     		push	{r4, r5, r6, lr}
 1610              		.cfi_def_cfa_offset 16
 1611              		.cfi_offset 4, -16
 1612              		.cfi_offset 5, -12
 1613              		.cfi_offset 6, -8
 1614              		.cfi_offset 14, -4
 1615 0002 84B0     		sub	sp, sp, #16
 1616              		.cfi_def_cfa_offset 32
 1617 0004 0600     		movs	r6, r0
 1618 0006 1C00     		movs	r4, r3
 1619 0008 08AB     		add	r3, sp, #32
 1620              	.LVL271:
 1621 000a 1D88     		ldrh	r5, [r3]
 426:..\..\..\arduinoLCD\test\Pain Drain\libraries\lvgl\src\draw/lv_img_buf.c **** #if LV_DRAW_COMPLEX
 427:..\..\..\arduinoLCD\test\Pain Drain\libraries\lvgl\src\draw/lv_img_buf.c ****     if(angle == 0 && zoom == LV_IMG_ZOOM_NONE) {
 1622              		.loc 1 427 0
 1623 000c 002C     		cmp	r4, #0
 1624 000e 0BD1     		bne	.L75
 1625              		.loc 1 427 0 is_stmt 0 discriminator 1
 1626 0010 8023     		movs	r3, #128
 1627              	.LVL272:
 1628 0012 5B00     		lsls	r3, r3, #1
 1629 0014 9D42     		cmp	r5, r3
 1630 0016 07D1     		bne	.L75
 428:..\..\..\arduinoLCD\test\Pain Drain\libraries\lvgl\src\draw/lv_img_buf.c ****         res->x1 = 0;
 1631              		.loc 1 428 0 is_stmt 1
 1632 0018 0023     		movs	r3, #0
 1633 001a 0380     		strh	r3, [r0]
 429:..\..\..\arduinoLCD\test\Pain Drain\libraries\lvgl\src\draw/lv_img_buf.c ****         res->y1 = 0;
 1634              		.loc 1 429 0
 1635 001c 4380     		strh	r3, [r0, #2]
 430:..\..\..\arduinoLCD\test\Pain Drain\libraries\lvgl\src\draw/lv_img_buf.c ****         res->x2 = w - 1;
 1636              		.loc 1 430 0
 1637 001e 0139     		subs	r1, r1, #1
 1638              	.LVL273:
 1639 0020 8180     		strh	r1, [r0, #4]
 431:..\..\..\arduinoLCD\test\Pain Drain\libraries\lvgl\src\draw/lv_img_buf.c ****         res->y2 = h - 1;
 1640              		.loc 1 431 0
 1641 0022 013A     		subs	r2, r2, #1
ARM GAS  C:\Users\haske\AppData\Local\Temp\ccwuLgOR.s 			page 49


 1642              	.LVL274:
 1643 0024 C280     		strh	r2, [r0, #6]
 1644 0026 90E0     		b	.L74
 1645              	.LVL275:
 1646              	.L75:
 432:..\..\..\arduinoLCD\test\Pain Drain\libraries\lvgl\src\draw/lv_img_buf.c ****         return;
 433:..\..\..\arduinoLCD\test\Pain Drain\libraries\lvgl\src\draw/lv_img_buf.c ****     }
 434:..\..\..\arduinoLCD\test\Pain Drain\libraries\lvgl\src\draw/lv_img_buf.c **** 
 435:..\..\..\arduinoLCD\test\Pain Drain\libraries\lvgl\src\draw/lv_img_buf.c ****     lv_point_t p[4] = {
 1647              		.loc 1 435 0
 1648 0028 0023     		movs	r3, #0
 1649 002a 6846     		mov	r0, sp
 1650              	.LVL276:
 1651 002c 0380     		strh	r3, [r0]
 1652 002e 4380     		strh	r3, [r0, #2]
 1653 0030 8180     		strh	r1, [r0, #4]
 1654 0032 C380     		strh	r3, [r0, #6]
 1655 0034 0381     		strh	r3, [r0, #8]
 1656 0036 4281     		strh	r2, [r0, #10]
 1657 0038 8181     		strh	r1, [r0, #12]
 1658 003a C281     		strh	r2, [r0, #14]
 436:..\..\..\arduinoLCD\test\Pain Drain\libraries\lvgl\src\draw/lv_img_buf.c ****         {0, 0},
 437:..\..\..\arduinoLCD\test\Pain Drain\libraries\lvgl\src\draw/lv_img_buf.c ****         {w, 0},
 438:..\..\..\arduinoLCD\test\Pain Drain\libraries\lvgl\src\draw/lv_img_buf.c ****         {0, h},
 439:..\..\..\arduinoLCD\test\Pain Drain\libraries\lvgl\src\draw/lv_img_buf.c ****         {w, h},
 440:..\..\..\arduinoLCD\test\Pain Drain\libraries\lvgl\src\draw/lv_img_buf.c ****     };
 441:..\..\..\arduinoLCD\test\Pain Drain\libraries\lvgl\src\draw/lv_img_buf.c ****     lv_point_transform(&p[0], angle, zoom, pivot);
 1659              		.loc 1 441 0
 1660 003c 099B     		ldr	r3, [sp, #36]
 1661 003e 2A00     		movs	r2, r5
 1662              	.LVL277:
 1663 0040 2100     		movs	r1, r4
 1664              	.LVL278:
 1665 0042 FFF7FEFF 		bl	lv_point_transform
 1666              	.LVL279:
 442:..\..\..\arduinoLCD\test\Pain Drain\libraries\lvgl\src\draw/lv_img_buf.c ****     lv_point_transform(&p[1], angle, zoom, pivot);
 1667              		.loc 1 442 0
 1668 0046 099B     		ldr	r3, [sp, #36]
 1669 0048 2A00     		movs	r2, r5
 1670 004a 2100     		movs	r1, r4
 1671 004c 01A8     		add	r0, sp, #4
 1672 004e FFF7FEFF 		bl	lv_point_transform
 1673              	.LVL280:
 443:..\..\..\arduinoLCD\test\Pain Drain\libraries\lvgl\src\draw/lv_img_buf.c ****     lv_point_transform(&p[2], angle, zoom, pivot);
 1674              		.loc 1 443 0
 1675 0052 099B     		ldr	r3, [sp, #36]
 1676 0054 2A00     		movs	r2, r5
 1677 0056 2100     		movs	r1, r4
 1678 0058 02A8     		add	r0, sp, #8
 1679 005a FFF7FEFF 		bl	lv_point_transform
 1680              	.LVL281:
 444:..\..\..\arduinoLCD\test\Pain Drain\libraries\lvgl\src\draw/lv_img_buf.c ****     lv_point_transform(&p[3], angle, zoom, pivot);
 1681              		.loc 1 444 0
 1682 005e 099B     		ldr	r3, [sp, #36]
 1683 0060 2A00     		movs	r2, r5
 1684 0062 2100     		movs	r1, r4
 1685 0064 03A8     		add	r0, sp, #12
ARM GAS  C:\Users\haske\AppData\Local\Temp\ccwuLgOR.s 			page 50


 1686 0066 FFF7FEFF 		bl	lv_point_transform
 1687              	.LVL282:
 445:..\..\..\arduinoLCD\test\Pain Drain\libraries\lvgl\src\draw/lv_img_buf.c ****     res->x1 = LV_MIN4(p[0].x, p[1].x, p[2].x, p[3].x) - 2;
 1688              		.loc 1 445 0
 1689 006a 6B46     		mov	r3, sp
 1690 006c 0C22     		movs	r2, #12
 1691 006e 9A5E     		ldrsh	r2, [r3, r2]
 1692 0070 6B46     		mov	r3, sp
 1693 0072 0821     		movs	r1, #8
 1694 0074 595E     		ldrsh	r1, [r3, r1]
 1695 0076 131C     		adds	r3, r2, #0
 1696 0078 8A42     		cmp	r2, r1
 1697 007a 00DD     		ble	.L77
 1698 007c 0B1C     		adds	r3, r1, #0
 1699              	.L77:
 1700 007e 1BB2     		sxth	r3, r3
 1701 0080 6A46     		mov	r2, sp
 1702 0082 0421     		movs	r1, #4
 1703 0084 525E     		ldrsh	r2, [r2, r1]
 1704 0086 6946     		mov	r1, sp
 1705 0088 0020     		movs	r0, #0
 1706 008a 085E     		ldrsh	r0, [r1, r0]
 1707 008c 111C     		adds	r1, r2, #0
 1708 008e 8242     		cmp	r2, r0
 1709 0090 00DD     		ble	.L78
 1710 0092 011C     		adds	r1, r0, #0
 1711              	.L78:
 1712 0094 1A1C     		adds	r2, r3, #0
 1713 0096 08B2     		sxth	r0, r1
 1714 0098 8342     		cmp	r3, r0
 1715 009a 00DD     		ble	.L79
 1716 009c 0A1C     		adds	r2, r1, #0
 1717              	.L79:
 1718 009e 023A     		subs	r2, r2, #2
 1719 00a0 3280     		strh	r2, [r6]
 446:..\..\..\arduinoLCD\test\Pain Drain\libraries\lvgl\src\draw/lv_img_buf.c ****     res->x2 = LV_MAX4(p[0].x, p[1].x, p[2].x, p[3].x) + 2;
 1720              		.loc 1 446 0
 1721 00a2 6B46     		mov	r3, sp
 1722 00a4 0C22     		movs	r2, #12
 1723 00a6 9A5E     		ldrsh	r2, [r3, r2]
 1724 00a8 6B46     		mov	r3, sp
 1725 00aa 0821     		movs	r1, #8
 1726 00ac 595E     		ldrsh	r1, [r3, r1]
 1727 00ae 131C     		adds	r3, r2, #0
 1728 00b0 8A42     		cmp	r2, r1
 1729 00b2 00DA     		bge	.L80
 1730 00b4 0B1C     		adds	r3, r1, #0
 1731              	.L80:
 1732 00b6 1BB2     		sxth	r3, r3
 1733 00b8 6A46     		mov	r2, sp
 1734 00ba 0421     		movs	r1, #4
 1735 00bc 525E     		ldrsh	r2, [r2, r1]
 1736 00be 6946     		mov	r1, sp
 1737 00c0 0020     		movs	r0, #0
 1738 00c2 085E     		ldrsh	r0, [r1, r0]
 1739 00c4 111C     		adds	r1, r2, #0
 1740 00c6 8242     		cmp	r2, r0
ARM GAS  C:\Users\haske\AppData\Local\Temp\ccwuLgOR.s 			page 51


 1741 00c8 00DA     		bge	.L81
 1742 00ca 011C     		adds	r1, r0, #0
 1743              	.L81:
 1744 00cc 1A1C     		adds	r2, r3, #0
 1745 00ce 08B2     		sxth	r0, r1
 1746 00d0 8342     		cmp	r3, r0
 1747 00d2 00DA     		bge	.L82
 1748 00d4 0A1C     		adds	r2, r1, #0
 1749              	.L82:
 1750 00d6 0232     		adds	r2, r2, #2
 1751 00d8 B280     		strh	r2, [r6, #4]
 447:..\..\..\arduinoLCD\test\Pain Drain\libraries\lvgl\src\draw/lv_img_buf.c ****     res->y1 = LV_MIN4(p[0].y, p[1].y, p[2].y, p[3].y) - 2;
 1752              		.loc 1 447 0
 1753 00da 6B46     		mov	r3, sp
 1754 00dc 0E22     		movs	r2, #14
 1755 00de 9A5E     		ldrsh	r2, [r3, r2]
 1756 00e0 6B46     		mov	r3, sp
 1757 00e2 0A21     		movs	r1, #10
 1758 00e4 595E     		ldrsh	r1, [r3, r1]
 1759 00e6 131C     		adds	r3, r2, #0
 1760 00e8 8A42     		cmp	r2, r1
 1761 00ea 00DD     		ble	.L83
 1762 00ec 0B1C     		adds	r3, r1, #0
 1763              	.L83:
 1764 00ee 1BB2     		sxth	r3, r3
 1765 00f0 6A46     		mov	r2, sp
 1766 00f2 0621     		movs	r1, #6
 1767 00f4 525E     		ldrsh	r2, [r2, r1]
 1768 00f6 6946     		mov	r1, sp
 1769 00f8 0220     		movs	r0, #2
 1770 00fa 085E     		ldrsh	r0, [r1, r0]
 1771 00fc 111C     		adds	r1, r2, #0
 1772 00fe 8242     		cmp	r2, r0
 1773 0100 00DD     		ble	.L84
 1774 0102 011C     		adds	r1, r0, #0
 1775              	.L84:
 1776 0104 1A1C     		adds	r2, r3, #0
 1777 0106 08B2     		sxth	r0, r1
 1778 0108 8342     		cmp	r3, r0
 1779 010a 00DD     		ble	.L85
 1780 010c 0A1C     		adds	r2, r1, #0
 1781              	.L85:
 1782 010e 023A     		subs	r2, r2, #2
 1783 0110 7280     		strh	r2, [r6, #2]
 448:..\..\..\arduinoLCD\test\Pain Drain\libraries\lvgl\src\draw/lv_img_buf.c ****     res->y2 = LV_MAX4(p[0].y, p[1].y, p[2].y, p[3].y) + 2;
 1784              		.loc 1 448 0
 1785 0112 6B46     		mov	r3, sp
 1786 0114 0E22     		movs	r2, #14
 1787 0116 9A5E     		ldrsh	r2, [r3, r2]
 1788 0118 6B46     		mov	r3, sp
 1789 011a 0A21     		movs	r1, #10
 1790 011c 595E     		ldrsh	r1, [r3, r1]
 1791 011e 131C     		adds	r3, r2, #0
 1792 0120 8A42     		cmp	r2, r1
 1793 0122 00DA     		bge	.L86
 1794 0124 0B1C     		adds	r3, r1, #0
 1795              	.L86:
ARM GAS  C:\Users\haske\AppData\Local\Temp\ccwuLgOR.s 			page 52


 1796 0126 1BB2     		sxth	r3, r3
 1797 0128 6A46     		mov	r2, sp
 1798 012a 0621     		movs	r1, #6
 1799 012c 525E     		ldrsh	r2, [r2, r1]
 1800 012e 6946     		mov	r1, sp
 1801 0130 0220     		movs	r0, #2
 1802 0132 085E     		ldrsh	r0, [r1, r0]
 1803 0134 111C     		adds	r1, r2, #0
 1804 0136 8242     		cmp	r2, r0
 1805 0138 00DA     		bge	.L87
 1806 013a 011C     		adds	r1, r0, #0
 1807              	.L87:
 1808 013c 1A1C     		adds	r2, r3, #0
 1809 013e 08B2     		sxth	r0, r1
 1810 0140 8342     		cmp	r3, r0
 1811 0142 00DA     		bge	.L88
 1812 0144 0A1C     		adds	r2, r1, #0
 1813              	.L88:
 1814 0146 0232     		adds	r2, r2, #2
 1815 0148 F280     		strh	r2, [r6, #6]
 1816              	.L74:
 449:..\..\..\arduinoLCD\test\Pain Drain\libraries\lvgl\src\draw/lv_img_buf.c **** 
 450:..\..\..\arduinoLCD\test\Pain Drain\libraries\lvgl\src\draw/lv_img_buf.c **** #else
 451:..\..\..\arduinoLCD\test\Pain Drain\libraries\lvgl\src\draw/lv_img_buf.c ****     LV_UNUSED(angle);
 452:..\..\..\arduinoLCD\test\Pain Drain\libraries\lvgl\src\draw/lv_img_buf.c ****     LV_UNUSED(zoom);
 453:..\..\..\arduinoLCD\test\Pain Drain\libraries\lvgl\src\draw/lv_img_buf.c ****     LV_UNUSED(pivot);
 454:..\..\..\arduinoLCD\test\Pain Drain\libraries\lvgl\src\draw/lv_img_buf.c ****     res->x1 = 0;
 455:..\..\..\arduinoLCD\test\Pain Drain\libraries\lvgl\src\draw/lv_img_buf.c ****     res->y1 = 0;
 456:..\..\..\arduinoLCD\test\Pain Drain\libraries\lvgl\src\draw/lv_img_buf.c ****     res->x2 = w - 1;
 457:..\..\..\arduinoLCD\test\Pain Drain\libraries\lvgl\src\draw/lv_img_buf.c ****     res->y2 = h - 1;
 458:..\..\..\arduinoLCD\test\Pain Drain\libraries\lvgl\src\draw/lv_img_buf.c **** #endif
 459:..\..\..\arduinoLCD\test\Pain Drain\libraries\lvgl\src\draw/lv_img_buf.c **** }
 1817              		.loc 1 459 0
 1818 014a 04B0     		add	sp, sp, #16
 1819              		@ sp needed
 1820              	.LVL283:
 1821 014c 70BD     		pop	{r4, r5, r6, pc}
 1822              		.cfi_endproc
 1823              	.LFE62:
 1824              		.size	_lv_img_buf_get_transformed_area, .-_lv_img_buf_get_transformed_area
 1825 014e C046     		.section	.rodata
 1826              		.align	2
 1827              		.set	.LANCHOR0,. + 0
 1828              	.LC0:
 1829 0044 00       		.byte	0
 1830 0045 55       		.byte	85
 1831 0046 AA       		.byte	-86
 1832 0047 FF       		.byte	-1
 1833              	.LC1:
 1834 0048 00       		.byte	0
 1835 0049 11       		.byte	17
 1836 004a 22       		.byte	34
 1837 004b 33       		.byte	51
 1838 004c 44       		.byte	68
 1839 004d 55       		.byte	85
 1840 004e 66       		.byte	102
 1841 004f 77       		.byte	119
ARM GAS  C:\Users\haske\AppData\Local\Temp\ccwuLgOR.s 			page 53


 1842 0050 88       		.byte	-120
 1843 0051 99       		.byte	-103
 1844 0052 AA       		.byte	-86
 1845 0053 BB       		.byte	-69
 1846 0054 CC       		.byte	-52
 1847 0055 DD       		.byte	-35
 1848 0056 EE       		.byte	-18
 1849 0057 FF       		.byte	-1
 1850              		.text
 1851              	.Letext0:
 1852              		.file 4 "c:\\program files (x86)\\cypress\\psoc creator\\4.4\\psoc creator\\import\\gnu\\arm\\5.4.
 1853              		.file 5 "c:\\program files (x86)\\cypress\\psoc creator\\4.4\\psoc creator\\import\\gnu\\arm\\5.4.
 1854              		.file 6 "c:\\program files (x86)\\cypress\\psoc creator\\4.4\\psoc creator\\import\\gnu\\arm\\5.4.
 1855              		.file 7 "..\\..\\..\\arduinoLCD\\test\\Pain Drain\\libraries\\lvgl\\src\\draw\\../misc/lv_area.h"
 1856              		.file 8 "..\\..\\..\\arduinoLCD\\test\\Pain Drain\\libraries\\lvgl\\src\\draw\\lv_img_buf.h"
 1857              		.file 9 "c:\\projects\\paindrain\\arduinolcd\\test\\pain drain\\libraries\\lvgl\\src\\font\\lv_fon
 1858              		.file 10 "..\\..\\..\\arduinoLCD\\test\\Pain Drain\\libraries\\lvgl\\src\\draw\\lv_draw_img.h"
 1859              		.section	.debug_info,"",%progbits
 1860              	.Ldebug_info0:
 1861 0000 6D100000 		.4byte	0x106d
 1862 0004 0400     		.2byte	0x4
 1863 0006 00000000 		.4byte	.Ldebug_abbrev0
 1864 000a 04       		.byte	0x4
 1865 000b 01       		.uleb128 0x1
 1866 000c 2D060000 		.4byte	.LASF138
 1867 0010 0C       		.byte	0xc
 1868 0011 35030000 		.4byte	.LASF139
 1869 0015 AA080000 		.4byte	.LASF140
 1870 0019 48000000 		.4byte	.Ldebug_ranges0+0x48
 1871 001d 00000000 		.4byte	0
 1872 0021 00000000 		.4byte	.Ldebug_line0
 1873 0025 02       		.uleb128 0x2
 1874 0026 04       		.byte	0x4
 1875 0027 05       		.byte	0x5
 1876 0028 696E7400 		.ascii	"int\000"
 1877 002c 03       		.uleb128 0x3
 1878 002d 3F000000 		.4byte	.LASF3
 1879 0031 04       		.byte	0x4
 1880 0032 D8       		.byte	0xd8
 1881 0033 37000000 		.4byte	0x37
 1882 0037 04       		.uleb128 0x4
 1883 0038 04       		.byte	0x4
 1884 0039 07       		.byte	0x7
 1885 003a E6020000 		.4byte	.LASF0
 1886 003e 04       		.uleb128 0x4
 1887 003f 08       		.byte	0x8
 1888 0040 05       		.byte	0x5
 1889 0041 22010000 		.4byte	.LASF1
 1890 0045 04       		.uleb128 0x4
 1891 0046 08       		.byte	0x8
 1892 0047 04       		.byte	0x4
 1893 0048 92040000 		.4byte	.LASF2
 1894 004c 03       		.uleb128 0x3
 1895 004d C4000000 		.4byte	.LASF4
 1896 0051 05       		.byte	0x5
 1897 0052 1B       		.byte	0x1b
 1898 0053 57000000 		.4byte	0x57
ARM GAS  C:\Users\haske\AppData\Local\Temp\ccwuLgOR.s 			page 54


 1899 0057 04       		.uleb128 0x4
 1900 0058 01       		.byte	0x1
 1901 0059 06       		.byte	0x6
 1902 005a 30010000 		.4byte	.LASF5
 1903 005e 03       		.uleb128 0x3
 1904 005f 46000000 		.4byte	.LASF6
 1905 0063 05       		.byte	0x5
 1906 0064 1D       		.byte	0x1d
 1907 0065 69000000 		.4byte	0x69
 1908 0069 04       		.uleb128 0x4
 1909 006a 01       		.byte	0x1
 1910 006b 08       		.byte	0x8
 1911 006c 76050000 		.4byte	.LASF7
 1912 0070 03       		.uleb128 0x3
 1913 0071 74020000 		.4byte	.LASF8
 1914 0075 05       		.byte	0x5
 1915 0076 29       		.byte	0x29
 1916 0077 7B000000 		.4byte	0x7b
 1917 007b 04       		.uleb128 0x4
 1918 007c 02       		.byte	0x2
 1919 007d 05       		.byte	0x5
 1920 007e D5050000 		.4byte	.LASF9
 1921 0082 03       		.uleb128 0x3
 1922 0083 F0060000 		.4byte	.LASF10
 1923 0087 05       		.byte	0x5
 1924 0088 2B       		.byte	0x2b
 1925 0089 8D000000 		.4byte	0x8d
 1926 008d 04       		.uleb128 0x4
 1927 008e 02       		.byte	0x2
 1928 008f 07       		.byte	0x7
 1929 0090 D6030000 		.4byte	.LASF11
 1930 0094 04       		.uleb128 0x4
 1931 0095 04       		.byte	0x4
 1932 0096 05       		.byte	0x5
 1933 0097 73010000 		.4byte	.LASF12
 1934 009b 03       		.uleb128 0x3
 1935 009c 5F020000 		.4byte	.LASF13
 1936 00a0 05       		.byte	0x5
 1937 00a1 41       		.byte	0x41
 1938 00a2 A6000000 		.4byte	0xa6
 1939 00a6 04       		.uleb128 0x4
 1940 00a7 04       		.byte	0x4
 1941 00a8 07       		.byte	0x7
 1942 00a9 23030000 		.4byte	.LASF14
 1943 00ad 04       		.uleb128 0x4
 1944 00ae 08       		.byte	0x8
 1945 00af 07       		.byte	0x7
 1946 00b0 79000000 		.4byte	.LASF15
 1947 00b4 04       		.uleb128 0x4
 1948 00b5 04       		.byte	0x4
 1949 00b6 07       		.byte	0x7
 1950 00b7 7B040000 		.4byte	.LASF16
 1951 00bb 05       		.uleb128 0x5
 1952 00bc 04       		.byte	0x4
 1953 00bd 04       		.uleb128 0x4
 1954 00be 01       		.byte	0x1
 1955 00bf 08       		.byte	0x8
ARM GAS  C:\Users\haske\AppData\Local\Temp\ccwuLgOR.s 			page 55


 1956 00c0 CA060000 		.4byte	.LASF17
 1957 00c4 03       		.uleb128 0x3
 1958 00c5 B3070000 		.4byte	.LASF18
 1959 00c9 06       		.byte	0x6
 1960 00ca 14       		.byte	0x14
 1961 00cb 4C000000 		.4byte	0x4c
 1962 00cf 03       		.uleb128 0x3
 1963 00d0 5B080000 		.4byte	.LASF19
 1964 00d4 06       		.byte	0x6
 1965 00d5 18       		.byte	0x18
 1966 00d6 5E000000 		.4byte	0x5e
 1967 00da 03       		.uleb128 0x3
 1968 00db 11090000 		.4byte	.LASF20
 1969 00df 06       		.byte	0x6
 1970 00e0 20       		.byte	0x20
 1971 00e1 70000000 		.4byte	0x70
 1972 00e5 03       		.uleb128 0x3
 1973 00e6 8C010000 		.4byte	.LASF21
 1974 00ea 06       		.byte	0x6
 1975 00eb 24       		.byte	0x24
 1976 00ec 82000000 		.4byte	0x82
 1977 00f0 03       		.uleb128 0x3
 1978 00f1 30090000 		.4byte	.LASF22
 1979 00f5 06       		.byte	0x6
 1980 00f6 30       		.byte	0x30
 1981 00f7 9B000000 		.4byte	0x9b
 1982 00fb 06       		.uleb128 0x6
 1983 00fc 01       		.byte	0x1
 1984 00fd 69000000 		.4byte	0x69
 1985 0101 03       		.byte	0x3
 1986 0102 29       		.byte	0x29
 1987 0103 56010000 		.4byte	0x156
 1988 0107 07       		.uleb128 0x7
 1989 0108 84040000 		.4byte	.LASF23
 1990 010c 00       		.byte	0
 1991 010d 07       		.uleb128 0x7
 1992 010e 6E080000 		.4byte	.LASF24
 1993 0112 00       		.byte	0
 1994 0113 07       		.uleb128 0x7
 1995 0114 66050000 		.4byte	.LASF25
 1996 0118 19       		.byte	0x19
 1997 0119 07       		.uleb128 0x7
 1998 011a CF060000 		.4byte	.LASF26
 1999 011e 33       		.byte	0x33
 2000 011f 07       		.uleb128 0x7
 2001 0120 8C020000 		.4byte	.LASF27
 2002 0124 4C       		.byte	0x4c
 2003 0125 07       		.uleb128 0x7
 2004 0126 05050000 		.4byte	.LASF28
 2005 012a 66       		.byte	0x66
 2006 012b 07       		.uleb128 0x7
 2007 012c FB040000 		.4byte	.LASF29
 2008 0130 7F       		.byte	0x7f
 2009 0131 07       		.uleb128 0x7
 2010 0132 6A020000 		.4byte	.LASF30
 2011 0136 99       		.byte	0x99
 2012 0137 07       		.uleb128 0x7
ARM GAS  C:\Users\haske\AppData\Local\Temp\ccwuLgOR.s 			page 56


 2013 0138 27040000 		.4byte	.LASF31
 2014 013c B2       		.byte	0xb2
 2015 013d 07       		.uleb128 0x7
 2016 013e 19030000 		.4byte	.LASF32
 2017 0142 CC       		.byte	0xcc
 2018 0143 07       		.uleb128 0x7
 2019 0144 DF050000 		.4byte	.LASF33
 2020 0148 E5       		.byte	0xe5
 2021 0149 07       		.uleb128 0x7
 2022 014a 14070000 		.4byte	.LASF34
 2023 014e FF       		.byte	0xff
 2024 014f 07       		.uleb128 0x7
 2025 0150 A1010000 		.4byte	.LASF35
 2026 0154 FF       		.byte	0xff
 2027 0155 00       		.byte	0
 2028 0156 08       		.uleb128 0x8
 2029 0157 02       		.byte	0x2
 2030 0158 03       		.byte	0x3
 2031 0159 D1       		.byte	0xd1
 2032 015a 8C010000 		.4byte	0x18c
 2033 015e 09       		.uleb128 0x9
 2034 015f BF060000 		.4byte	.LASF36
 2035 0163 03       		.byte	0x3
 2036 0164 D3       		.byte	0xd3
 2037 0165 E5000000 		.4byte	0xe5
 2038 0169 02       		.byte	0x2
 2039 016a 05       		.byte	0x5
 2040 016b 0B       		.byte	0xb
 2041 016c 00       		.byte	0
 2042 016d 09       		.uleb128 0x9
 2043 016e 3C010000 		.4byte	.LASF37
 2044 0172 03       		.byte	0x3
 2045 0173 D4       		.byte	0xd4
 2046 0174 E5000000 		.4byte	0xe5
 2047 0178 02       		.byte	0x2
 2048 0179 06       		.byte	0x6
 2049 017a 05       		.byte	0x5
 2050 017b 00       		.byte	0
 2051 017c 0A       		.uleb128 0xa
 2052 017d 72656400 		.ascii	"red\000"
 2053 0181 03       		.byte	0x3
 2054 0182 D5       		.byte	0xd5
 2055 0183 E5000000 		.4byte	0xe5
 2056 0187 02       		.byte	0x2
 2057 0188 05       		.byte	0x5
 2058 0189 00       		.byte	0
 2059 018a 00       		.byte	0
 2060 018b 00       		.byte	0
 2061 018c 0B       		.uleb128 0xb
 2062 018d 02       		.byte	0x2
 2063 018e 03       		.byte	0x3
 2064 018f D0       		.byte	0xd0
 2065 0190 AA010000 		.4byte	0x1aa
 2066 0194 0C       		.uleb128 0xc
 2067 0195 636800   		.ascii	"ch\000"
 2068 0198 03       		.byte	0x3
 2069 0199 DC       		.byte	0xdc
ARM GAS  C:\Users\haske\AppData\Local\Temp\ccwuLgOR.s 			page 57


 2070 019a 56010000 		.4byte	0x156
 2071 019e 0D       		.uleb128 0xd
 2072 019f 10060000 		.4byte	.LASF38
 2073 01a3 03       		.byte	0x3
 2074 01a4 DD       		.byte	0xdd
 2075 01a5 E5000000 		.4byte	0xe5
 2076 01a9 00       		.byte	0
 2077 01aa 03       		.uleb128 0x3
 2078 01ab 59050000 		.4byte	.LASF39
 2079 01af 03       		.byte	0x3
 2080 01b0 DE       		.byte	0xde
 2081 01b1 8C010000 		.4byte	0x18c
 2082 01b5 08       		.uleb128 0x8
 2083 01b6 04       		.byte	0x4
 2084 01b7 03       		.byte	0x3
 2085 01b8 E1       		.byte	0xe1
 2086 01b9 EE010000 		.4byte	0x1ee
 2087 01bd 0E       		.uleb128 0xe
 2088 01be BF060000 		.4byte	.LASF36
 2089 01c2 03       		.byte	0x3
 2090 01c3 E2       		.byte	0xe2
 2091 01c4 CF000000 		.4byte	0xcf
 2092 01c8 00       		.byte	0
 2093 01c9 0E       		.uleb128 0xe
 2094 01ca 3C010000 		.4byte	.LASF37
 2095 01ce 03       		.byte	0x3
 2096 01cf E3       		.byte	0xe3
 2097 01d0 CF000000 		.4byte	0xcf
 2098 01d4 01       		.byte	0x1
 2099 01d5 0F       		.uleb128 0xf
 2100 01d6 72656400 		.ascii	"red\000"
 2101 01da 03       		.byte	0x3
 2102 01db E4       		.byte	0xe4
 2103 01dc CF000000 		.4byte	0xcf
 2104 01e0 02       		.byte	0x2
 2105 01e1 0E       		.uleb128 0xe
 2106 01e2 42010000 		.4byte	.LASF40
 2107 01e6 03       		.byte	0x3
 2108 01e7 E5       		.byte	0xe5
 2109 01e8 CF000000 		.4byte	0xcf
 2110 01ec 03       		.byte	0x3
 2111 01ed 00       		.byte	0
 2112 01ee 0B       		.uleb128 0xb
 2113 01ef 04       		.byte	0x4
 2114 01f0 03       		.byte	0x3
 2115 01f1 E0       		.byte	0xe0
 2116 01f2 0C020000 		.4byte	0x20c
 2117 01f6 0C       		.uleb128 0xc
 2118 01f7 636800   		.ascii	"ch\000"
 2119 01fa 03       		.byte	0x3
 2120 01fb E6       		.byte	0xe6
 2121 01fc B5010000 		.4byte	0x1b5
 2122 0200 0D       		.uleb128 0xd
 2123 0201 10060000 		.4byte	.LASF38
 2124 0205 03       		.byte	0x3
 2125 0206 E7       		.byte	0xe7
 2126 0207 F0000000 		.4byte	0xf0
ARM GAS  C:\Users\haske\AppData\Local\Temp\ccwuLgOR.s 			page 58


 2127 020b 00       		.byte	0
 2128 020c 03       		.uleb128 0x3
 2129 020d CD000000 		.4byte	.LASF41
 2130 0211 03       		.byte	0x3
 2131 0212 E8       		.byte	0xe8
 2132 0213 EE010000 		.4byte	0x1ee
 2133 0217 03       		.uleb128 0x3
 2134 0218 09070000 		.4byte	.LASF42
 2135 021c 03       		.byte	0x3
 2136 021d EB       		.byte	0xeb
 2137 021e AA010000 		.4byte	0x1aa
 2138 0222 03       		.uleb128 0x3
 2139 0223 5D040000 		.4byte	.LASF43
 2140 0227 03       		.byte	0x3
 2141 0228 F5       		.byte	0xf5
 2142 0229 CF000000 		.4byte	0xcf
 2143 022d 03       		.uleb128 0x3
 2144 022e F7000000 		.4byte	.LASF44
 2145 0232 07       		.byte	0x7
 2146 0233 1B       		.byte	0x1b
 2147 0234 DA000000 		.4byte	0xda
 2148 0238 08       		.uleb128 0x8
 2149 0239 04       		.byte	0x4
 2150 023a 07       		.byte	0x7
 2151 023b 25       		.byte	0x25
 2152 023c 55020000 		.4byte	0x255
 2153 0240 0F       		.uleb128 0xf
 2154 0241 7800     		.ascii	"x\000"
 2155 0243 07       		.byte	0x7
 2156 0244 26       		.byte	0x26
 2157 0245 2D020000 		.4byte	0x22d
 2158 0249 00       		.byte	0
 2159 024a 0F       		.uleb128 0xf
 2160 024b 7900     		.ascii	"y\000"
 2161 024d 07       		.byte	0x7
 2162 024e 27       		.byte	0x27
 2163 024f 2D020000 		.4byte	0x22d
 2164 0253 02       		.byte	0x2
 2165 0254 00       		.byte	0
 2166 0255 03       		.uleb128 0x3
 2167 0256 63080000 		.4byte	.LASF45
 2168 025a 07       		.byte	0x7
 2169 025b 28       		.byte	0x28
 2170 025c 38020000 		.4byte	0x238
 2171 0260 08       		.uleb128 0x8
 2172 0261 08       		.byte	0x8
 2173 0262 07       		.byte	0x7
 2174 0263 2B       		.byte	0x2b
 2175 0264 95020000 		.4byte	0x295
 2176 0268 0F       		.uleb128 0xf
 2177 0269 783100   		.ascii	"x1\000"
 2178 026c 07       		.byte	0x7
 2179 026d 2C       		.byte	0x2c
 2180 026e 2D020000 		.4byte	0x22d
 2181 0272 00       		.byte	0
 2182 0273 0F       		.uleb128 0xf
 2183 0274 793100   		.ascii	"y1\000"
ARM GAS  C:\Users\haske\AppData\Local\Temp\ccwuLgOR.s 			page 59


 2184 0277 07       		.byte	0x7
 2185 0278 2D       		.byte	0x2d
 2186 0279 2D020000 		.4byte	0x22d
 2187 027d 02       		.byte	0x2
 2188 027e 0F       		.uleb128 0xf
 2189 027f 783200   		.ascii	"x2\000"
 2190 0282 07       		.byte	0x7
 2191 0283 2E       		.byte	0x2e
 2192 0284 2D020000 		.4byte	0x22d
 2193 0288 04       		.byte	0x4
 2194 0289 0F       		.uleb128 0xf
 2195 028a 793200   		.ascii	"y2\000"
 2196 028d 07       		.byte	0x7
 2197 028e 2F       		.byte	0x2f
 2198 028f 2D020000 		.4byte	0x22d
 2199 0293 06       		.byte	0x6
 2200 0294 00       		.byte	0
 2201 0295 03       		.uleb128 0x3
 2202 0296 69010000 		.4byte	.LASF46
 2203 029a 07       		.byte	0x7
 2204 029b 30       		.byte	0x30
 2205 029c 60020000 		.4byte	0x260
 2206 02a0 06       		.uleb128 0x6
 2207 02a1 01       		.byte	0x1
 2208 02a2 69000000 		.4byte	0x69
 2209 02a6 08       		.byte	0x8
 2210 02a7 37       		.byte	0x37
 2211 02a8 91030000 		.4byte	0x391
 2212 02ac 07       		.uleb128 0x7
 2213 02ad C9010000 		.4byte	.LASF47
 2214 02b1 00       		.byte	0
 2215 02b2 07       		.uleb128 0x7
 2216 02b3 1B000000 		.4byte	.LASF48
 2217 02b7 01       		.byte	0x1
 2218 02b8 07       		.uleb128 0x7
 2219 02b9 50000000 		.4byte	.LASF49
 2220 02bd 02       		.byte	0x2
 2221 02be 07       		.uleb128 0x7
 2222 02bf 25070000 		.4byte	.LASF50
 2223 02c3 03       		.byte	0x3
 2224 02c4 07       		.uleb128 0x7
 2225 02c5 66040000 		.4byte	.LASF51
 2226 02c9 04       		.byte	0x4
 2227 02ca 07       		.uleb128 0x7
 2228 02cb 77080000 		.4byte	.LASF52
 2229 02cf 05       		.byte	0x5
 2230 02d0 07       		.uleb128 0x7
 2231 02d1 31040000 		.4byte	.LASF53
 2232 02d5 06       		.byte	0x6
 2233 02d6 07       		.uleb128 0x7
 2234 02d7 37080000 		.4byte	.LASF54
 2235 02db 07       		.byte	0x7
 2236 02dc 07       		.uleb128 0x7
 2237 02dd D9060000 		.4byte	.LASF55
 2238 02e1 08       		.byte	0x8
 2239 02e2 07       		.uleb128 0x7
 2240 02e3 D1040000 		.4byte	.LASF56
ARM GAS  C:\Users\haske\AppData\Local\Temp\ccwuLgOR.s 			page 60


 2241 02e7 09       		.byte	0x9
 2242 02e8 07       		.uleb128 0x7
 2243 02e9 AD000000 		.4byte	.LASF57
 2244 02ed 0A       		.byte	0xa
 2245 02ee 07       		.uleb128 0x7
 2246 02ef 0B040000 		.4byte	.LASF58
 2247 02f3 0B       		.byte	0xb
 2248 02f4 07       		.uleb128 0x7
 2249 02f5 B7020000 		.4byte	.LASF59
 2250 02f9 0C       		.byte	0xc
 2251 02fa 07       		.uleb128 0x7
 2252 02fb 64000000 		.4byte	.LASF60
 2253 02ff 0D       		.byte	0xd
 2254 0300 07       		.uleb128 0x7
 2255 0301 84050000 		.4byte	.LASF61
 2256 0305 0E       		.byte	0xe
 2257 0306 07       		.uleb128 0x7
 2258 0307 B1050000 		.4byte	.LASF62
 2259 030b 0F       		.byte	0xf
 2260 030c 07       		.uleb128 0x7
 2261 030d DB010000 		.4byte	.LASF63
 2262 0311 10       		.byte	0x10
 2263 0312 07       		.uleb128 0x7
 2264 0313 FD050000 		.4byte	.LASF64
 2265 0317 11       		.byte	0x11
 2266 0318 07       		.uleb128 0x7
 2267 0319 9E040000 		.4byte	.LASF65
 2268 031d 12       		.byte	0x12
 2269 031e 07       		.uleb128 0x7
 2270 031f E8040000 		.4byte	.LASF66
 2271 0323 13       		.byte	0x13
 2272 0324 07       		.uleb128 0x7
 2273 0325 C2050000 		.4byte	.LASF67
 2274 0329 14       		.byte	0x14
 2275 032a 07       		.uleb128 0x7
 2276 032b 29000000 		.4byte	.LASF68
 2277 032f 15       		.byte	0x15
 2278 0330 07       		.uleb128 0x7
 2279 0331 EE010000 		.4byte	.LASF69
 2280 0335 16       		.byte	0x16
 2281 0336 07       		.uleb128 0x7
 2282 0337 04020000 		.4byte	.LASF70
 2283 033b 17       		.byte	0x17
 2284 033c 07       		.uleb128 0x7
 2285 033d 1A020000 		.4byte	.LASF71
 2286 0341 18       		.byte	0x18
 2287 0342 07       		.uleb128 0x7
 2288 0343 30020000 		.4byte	.LASF72
 2289 0347 19       		.byte	0x19
 2290 0348 07       		.uleb128 0x7
 2291 0349 7E030000 		.4byte	.LASF73
 2292 034d 1A       		.byte	0x1a
 2293 034e 07       		.uleb128 0x7
 2294 034f 94030000 		.4byte	.LASF74
 2295 0353 1B       		.byte	0x1b
 2296 0354 07       		.uleb128 0x7
 2297 0355 AA030000 		.4byte	.LASF75
ARM GAS  C:\Users\haske\AppData\Local\Temp\ccwuLgOR.s 			page 61


 2298 0359 1C       		.byte	0x1c
 2299 035a 07       		.uleb128 0x7
 2300 035b C0030000 		.4byte	.LASF76
 2301 035f 1D       		.byte	0x1d
 2302 0360 07       		.uleb128 0x7
 2303 0361 E6070000 		.4byte	.LASF77
 2304 0365 1E       		.byte	0x1e
 2305 0366 07       		.uleb128 0x7
 2306 0367 05080000 		.4byte	.LASF78
 2307 036b 1F       		.byte	0x1f
 2308 036c 07       		.uleb128 0x7
 2309 036d 1E080000 		.4byte	.LASF79
 2310 0371 20       		.byte	0x20
 2311 0372 07       		.uleb128 0x7
 2312 0373 40070000 		.4byte	.LASF80
 2313 0377 21       		.byte	0x21
 2314 0378 07       		.uleb128 0x7
 2315 0379 59070000 		.4byte	.LASF81
 2316 037d 22       		.byte	0x22
 2317 037e 07       		.uleb128 0x7
 2318 037f 72070000 		.4byte	.LASF82
 2319 0383 23       		.byte	0x23
 2320 0384 07       		.uleb128 0x7
 2321 0385 CD070000 		.4byte	.LASF83
 2322 0389 24       		.byte	0x24
 2323 038a 07       		.uleb128 0x7
 2324 038b 94070000 		.4byte	.LASF84
 2325 038f 25       		.byte	0x25
 2326 0390 00       		.byte	0
 2327 0391 03       		.uleb128 0x3
 2328 0392 05090000 		.4byte	.LASF85
 2329 0396 08       		.byte	0x8
 2330 0397 69       		.byte	0x69
 2331 0398 CF000000 		.4byte	0xcf
 2332 039c 08       		.uleb128 0x8
 2333 039d 04       		.byte	0x4
 2334 039e 08       		.byte	0x8
 2335 039f 7E       		.byte	0x7e
 2336 03a0 EB030000 		.4byte	0x3eb
 2337 03a4 0A       		.uleb128 0xa
 2338 03a5 636600   		.ascii	"cf\000"
 2339 03a8 08       		.byte	0x8
 2340 03a9 80       		.byte	0x80
 2341 03aa F0000000 		.4byte	0xf0
 2342 03ae 04       		.byte	0x4
 2343 03af 05       		.byte	0x5
 2344 03b0 1B       		.byte	0x1b
 2345 03b1 00       		.byte	0
 2346 03b2 09       		.uleb128 0x9
 2347 03b3 92080000 		.4byte	.LASF86
 2348 03b7 08       		.byte	0x8
 2349 03b8 81       		.byte	0x81
 2350 03b9 F0000000 		.4byte	0xf0
 2351 03bd 04       		.byte	0x4
 2352 03be 03       		.byte	0x3
 2353 03bf 18       		.byte	0x18
 2354 03c0 00       		.byte	0
ARM GAS  C:\Users\haske\AppData\Local\Temp\ccwuLgOR.s 			page 62


 2355 03c1 09       		.uleb128 0x9
 2356 03c2 96020000 		.4byte	.LASF87
 2357 03c6 08       		.byte	0x8
 2358 03c7 84       		.byte	0x84
 2359 03c8 F0000000 		.4byte	0xf0
 2360 03cc 04       		.byte	0x4
 2361 03cd 02       		.byte	0x2
 2362 03ce 16       		.byte	0x16
 2363 03cf 00       		.byte	0
 2364 03d0 0A       		.uleb128 0xa
 2365 03d1 7700     		.ascii	"w\000"
 2366 03d3 08       		.byte	0x8
 2367 03d4 86       		.byte	0x86
 2368 03d5 F0000000 		.4byte	0xf0
 2369 03d9 04       		.byte	0x4
 2370 03da 0B       		.byte	0xb
 2371 03db 0B       		.byte	0xb
 2372 03dc 00       		.byte	0
 2373 03dd 0A       		.uleb128 0xa
 2374 03de 6800     		.ascii	"h\000"
 2375 03e0 08       		.byte	0x8
 2376 03e1 87       		.byte	0x87
 2377 03e2 F0000000 		.4byte	0xf0
 2378 03e6 04       		.byte	0x4
 2379 03e7 0B       		.byte	0xb
 2380 03e8 00       		.byte	0
 2381 03e9 00       		.byte	0
 2382 03ea 00       		.byte	0
 2383 03eb 03       		.uleb128 0x3
 2384 03ec 7C010000 		.4byte	.LASF88
 2385 03f0 08       		.byte	0x8
 2386 03f1 88       		.byte	0x88
 2387 03f2 9C030000 		.4byte	0x39c
 2388 03f6 08       		.uleb128 0x8
 2389 03f7 0C       		.byte	0xc
 2390 03f8 08       		.byte	0x8
 2391 03f9 8D       		.byte	0x8d
 2392 03fa 23040000 		.4byte	0x423
 2393 03fe 0E       		.uleb128 0xe
 2394 03ff 29090000 		.4byte	.LASF89
 2395 0403 08       		.byte	0x8
 2396 0404 8E       		.byte	0x8e
 2397 0405 EB030000 		.4byte	0x3eb
 2398 0409 00       		.byte	0
 2399 040a 0E       		.uleb128 0xe
 2400 040b 53040000 		.4byte	.LASF90
 2401 040f 08       		.byte	0x8
 2402 0410 8F       		.byte	0x8f
 2403 0411 F0000000 		.4byte	0xf0
 2404 0415 04       		.byte	0x4
 2405 0416 0E       		.uleb128 0xe
 2406 0417 C4010000 		.4byte	.LASF91
 2407 041b 08       		.byte	0x8
 2408 041c 90       		.byte	0x90
 2409 041d 23040000 		.4byte	0x423
 2410 0421 08       		.byte	0x8
 2411 0422 00       		.byte	0
ARM GAS  C:\Users\haske\AppData\Local\Temp\ccwuLgOR.s 			page 63


 2412 0423 10       		.uleb128 0x10
 2413 0424 04       		.byte	0x4
 2414 0425 29040000 		.4byte	0x429
 2415 0429 11       		.uleb128 0x11
 2416 042a CF000000 		.4byte	0xcf
 2417 042e 03       		.uleb128 0x3
 2418 042f 4E080000 		.4byte	.LASF92
 2419 0433 08       		.byte	0x8
 2420 0434 91       		.byte	0x91
 2421 0435 F6030000 		.4byte	0x3f6
 2422 0439 04       		.uleb128 0x4
 2423 043a 01       		.byte	0x1
 2424 043b 02       		.byte	0x2
 2425 043c 70050000 		.4byte	.LASF93
 2426 0440 10       		.uleb128 0x10
 2427 0441 04       		.byte	0x4
 2428 0442 46040000 		.4byte	0x446
 2429 0446 12       		.uleb128 0x12
 2430 0447 10       		.uleb128 0x10
 2431 0448 04       		.byte	0x4
 2432 0449 CF000000 		.4byte	0xcf
 2433 044d 08       		.uleb128 0x8
 2434 044e 10       		.byte	0x10
 2435 044f 09       		.byte	0x9
 2436 0450 29       		.byte	0x29
 2437 0451 BC040000 		.4byte	0x4bc
 2438 0455 0E       		.uleb128 0xe
 2439 0456 7E020000 		.4byte	.LASF94
 2440 045a 09       		.byte	0x9
 2441 045b 2B       		.byte	0x2b
 2442 045c 44050000 		.4byte	0x544
 2443 0460 00       		.byte	0
 2444 0461 0E       		.uleb128 0xe
 2445 0462 1F070000 		.4byte	.LASF95
 2446 0466 09       		.byte	0x9
 2447 0467 2C       		.byte	0x2c
 2448 0468 E5000000 		.4byte	0xe5
 2449 046c 04       		.byte	0x4
 2450 046d 0E       		.uleb128 0xe
 2451 046e FF070000 		.4byte	.LASF96
 2452 0472 09       		.byte	0x9
 2453 0473 2D       		.byte	0x2d
 2454 0474 E5000000 		.4byte	0xe5
 2455 0478 06       		.byte	0x6
 2456 0479 0E       		.uleb128 0xe
 2457 047a AD070000 		.4byte	.LASF97
 2458 047e 09       		.byte	0x9
 2459 047f 2E       		.byte	0x2e
 2460 0480 E5000000 		.4byte	0xe5
 2461 0484 08       		.byte	0x8
 2462 0485 0E       		.uleb128 0xe
 2463 0486 9E080000 		.4byte	.LASF98
 2464 048a 09       		.byte	0x9
 2465 048b 2F       		.byte	0x2f
 2466 048c DA000000 		.4byte	0xda
 2467 0490 0A       		.byte	0xa
 2468 0491 0E       		.uleb128 0xe
ARM GAS  C:\Users\haske\AppData\Local\Temp\ccwuLgOR.s 			page 64


 2469 0492 A4080000 		.4byte	.LASF99
 2470 0496 09       		.byte	0x9
 2471 0497 30       		.byte	0x30
 2472 0498 DA000000 		.4byte	0xda
 2473 049c 0C       		.byte	0xc
 2474 049d 0A       		.uleb128 0xa
 2475 049e 62707000 		.ascii	"bpp\000"
 2476 04a2 09       		.byte	0x9
 2477 04a3 31       		.byte	0x31
 2478 04a4 CF000000 		.4byte	0xcf
 2479 04a8 01       		.byte	0x1
 2480 04a9 04       		.byte	0x4
 2481 04aa 04       		.byte	0x4
 2482 04ab 0E       		.byte	0xe
 2483 04ac 09       		.uleb128 0x9
 2484 04ad CC020000 		.4byte	.LASF100
 2485 04b1 09       		.byte	0x9
 2486 04b2 32       		.byte	0x32
 2487 04b3 CF000000 		.4byte	0xcf
 2488 04b7 01       		.byte	0x1
 2489 04b8 01       		.byte	0x1
 2490 04b9 03       		.byte	0x3
 2491 04ba 0E       		.byte	0xe
 2492 04bb 00       		.byte	0
 2493 04bc 13       		.uleb128 0x13
 2494 04bd DB020000 		.4byte	.LASF141
 2495 04c1 1C       		.byte	0x1c
 2496 04c2 09       		.byte	0x9
 2497 04c3 40       		.byte	0x40
 2498 04c4 44050000 		.4byte	0x544
 2499 04c8 0E       		.uleb128 0xe
 2500 04c9 F3020000 		.4byte	.LASF101
 2501 04cd 09       		.byte	0x9
 2502 04ce 42       		.byte	0x42
 2503 04cf 7E050000 		.4byte	0x57e
 2504 04d3 00       		.byte	0
 2505 04d4 0E       		.uleb128 0xe
 2506 04d5 0A000000 		.4byte	.LASF102
 2507 04d9 09       		.byte	0x9
 2508 04da 45       		.byte	0x45
 2509 04db 98050000 		.4byte	0x598
 2510 04df 04       		.byte	0x4
 2511 04e0 0E       		.uleb128 0xe
 2512 04e1 E9030000 		.4byte	.LASF103
 2513 04e5 09       		.byte	0x9
 2514 04e6 48       		.byte	0x48
 2515 04e7 2D020000 		.4byte	0x22d
 2516 04eb 08       		.byte	0x8
 2517 04ec 0E       		.uleb128 0xe
 2518 04ed 46020000 		.4byte	.LASF104
 2519 04f1 09       		.byte	0x9
 2520 04f2 49       		.byte	0x49
 2521 04f3 2D020000 		.4byte	0x22d
 2522 04f7 0A       		.byte	0xa
 2523 04f8 09       		.uleb128 0x9
 2524 04f9 05040000 		.4byte	.LASF105
 2525 04fd 09       		.byte	0x9
ARM GAS  C:\Users\haske\AppData\Local\Temp\ccwuLgOR.s 			page 65


 2526 04fe 4A       		.byte	0x4a
 2527 04ff CF000000 		.4byte	0xcf
 2528 0503 01       		.byte	0x1
 2529 0504 02       		.byte	0x2
 2530 0505 06       		.byte	0x6
 2531 0506 0C       		.byte	0xc
 2532 0507 0E       		.uleb128 0xe
 2533 0508 BA070000 		.4byte	.LASF106
 2534 050c 09       		.byte	0x9
 2535 050d 4C       		.byte	0x4c
 2536 050e C4000000 		.4byte	0xc4
 2537 0512 0D       		.byte	0xd
 2538 0513 0E       		.uleb128 0xe
 2539 0514 E9050000 		.4byte	.LASF107
 2540 0518 09       		.byte	0x9
 2541 0519 4D       		.byte	0x4d
 2542 051a C4000000 		.4byte	0xc4
 2543 051e 0E       		.byte	0xe
 2544 051f 0F       		.uleb128 0xf
 2545 0520 64736300 		.ascii	"dsc\000"
 2546 0524 09       		.byte	0x9
 2547 0525 4F       		.byte	0x4f
 2548 0526 40040000 		.4byte	0x440
 2549 052a 10       		.byte	0x10
 2550 052b 0E       		.uleb128 0xe
 2551 052c 8B070000 		.4byte	.LASF108
 2552 0530 09       		.byte	0x9
 2553 0531 50       		.byte	0x50
 2554 0532 44050000 		.4byte	0x544
 2555 0536 14       		.byte	0x14
 2556 0537 0E       		.uleb128 0xe
 2557 0538 00000000 		.4byte	.LASF109
 2558 053c 09       		.byte	0x9
 2559 053d 52       		.byte	0x52
 2560 053e BB000000 		.4byte	0xbb
 2561 0542 18       		.byte	0x18
 2562 0543 00       		.byte	0
 2563 0544 10       		.uleb128 0x10
 2564 0545 04       		.byte	0x4
 2565 0546 4A050000 		.4byte	0x54a
 2566 054a 11       		.uleb128 0x11
 2567 054b BC040000 		.4byte	0x4bc
 2568 054f 03       		.uleb128 0x3
 2569 0550 F1080000 		.4byte	.LASF110
 2570 0554 09       		.byte	0x9
 2571 0555 33       		.byte	0x33
 2572 0556 4D040000 		.4byte	0x44d
 2573 055a 14       		.uleb128 0x14
 2574 055b 39040000 		.4byte	0x439
 2575 055f 78050000 		.4byte	0x578
 2576 0563 15       		.uleb128 0x15
 2577 0564 44050000 		.4byte	0x544
 2578 0568 15       		.uleb128 0x15
 2579 0569 78050000 		.4byte	0x578
 2580 056d 15       		.uleb128 0x15
 2581 056e F0000000 		.4byte	0xf0
 2582 0572 15       		.uleb128 0x15
ARM GAS  C:\Users\haske\AppData\Local\Temp\ccwuLgOR.s 			page 66


 2583 0573 F0000000 		.4byte	0xf0
 2584 0577 00       		.byte	0
 2585 0578 10       		.uleb128 0x10
 2586 0579 04       		.byte	0x4
 2587 057a 4F050000 		.4byte	0x54f
 2588 057e 10       		.uleb128 0x10
 2589 057f 04       		.byte	0x4
 2590 0580 5A050000 		.4byte	0x55a
 2591 0584 14       		.uleb128 0x14
 2592 0585 23040000 		.4byte	0x423
 2593 0589 98050000 		.4byte	0x598
 2594 058d 15       		.uleb128 0x15
 2595 058e 44050000 		.4byte	0x544
 2596 0592 15       		.uleb128 0x15
 2597 0593 F0000000 		.4byte	0xf0
 2598 0597 00       		.byte	0
 2599 0598 10       		.uleb128 0x10
 2600 0599 04       		.byte	0x4
 2601 059a 84050000 		.4byte	0x584
 2602 059e 03       		.uleb128 0x3
 2603 059f 90000000 		.4byte	.LASF111
 2604 05a3 09       		.byte	0x9
 2605 05a4 54       		.byte	0x54
 2606 05a5 BC040000 		.4byte	0x4bc
 2607 05a9 16       		.uleb128 0x16
 2608 05aa E3080000 		.4byte	.LASF112
 2609 05ae 03       		.byte	0x3
 2610 05af 4C02     		.2byte	0x24c
 2611 05b1 17020000 		.4byte	0x217
 2612 05b5 03       		.byte	0x3
 2613 05b6 D9050000 		.4byte	0x5d9
 2614 05ba 17       		.uleb128 0x17
 2615 05bb 7200     		.ascii	"r\000"
 2616 05bd 03       		.byte	0x3
 2617 05be 4C02     		.2byte	0x24c
 2618 05c0 CF000000 		.4byte	0xcf
 2619 05c4 17       		.uleb128 0x17
 2620 05c5 6700     		.ascii	"g\000"
 2621 05c7 03       		.byte	0x3
 2622 05c8 4C02     		.2byte	0x24c
 2623 05ca CF000000 		.4byte	0xcf
 2624 05ce 17       		.uleb128 0x17
 2625 05cf 6200     		.ascii	"b\000"
 2626 05d1 03       		.byte	0x3
 2627 05d2 4C02     		.2byte	0x24c
 2628 05d4 CF000000 		.4byte	0xcf
 2629 05d8 00       		.byte	0
 2630 05d9 18       		.uleb128 0x18
 2631 05da 50020000 		.4byte	.LASF142
 2632 05de 03       		.byte	0x3
 2633 05df B502     		.2byte	0x2b5
 2634 05e1 17020000 		.4byte	0x217
 2635 05e5 03       		.byte	0x3
 2636 05e6 19       		.uleb128 0x19
 2637 05e7 F5030000 		.4byte	.LASF113
 2638 05eb 02       		.byte	0x2
 2639 05ec C2       		.byte	0xc2
ARM GAS  C:\Users\haske\AppData\Local\Temp\ccwuLgOR.s 			page 67


 2640 05ed BB000000 		.4byte	0xbb
 2641 05f1 03       		.byte	0x3
 2642 05f2 2C060000 		.4byte	0x62c
 2643 05f6 1A       		.uleb128 0x1a
 2644 05f7 64737400 		.ascii	"dst\000"
 2645 05fb 02       		.byte	0x2
 2646 05fc C2       		.byte	0xc2
 2647 05fd BB000000 		.4byte	0xbb
 2648 0601 1A       		.uleb128 0x1a
 2649 0602 73726300 		.ascii	"src\000"
 2650 0606 02       		.byte	0x2
 2651 0607 C2       		.byte	0xc2
 2652 0608 40040000 		.4byte	0x440
 2653 060c 1A       		.uleb128 0x1a
 2654 060d 6C656E00 		.ascii	"len\000"
 2655 0611 02       		.byte	0x2
 2656 0612 C2       		.byte	0xc2
 2657 0613 2C000000 		.4byte	0x2c
 2658 0617 1B       		.uleb128 0x1b
 2659 0618 643800   		.ascii	"d8\000"
 2660 061b 02       		.byte	0x2
 2661 061c C4       		.byte	0xc4
 2662 061d 47040000 		.4byte	0x447
 2663 0621 1B       		.uleb128 0x1b
 2664 0622 733800   		.ascii	"s8\000"
 2665 0625 02       		.byte	0x2
 2666 0626 C5       		.byte	0xc5
 2667 0627 23040000 		.4byte	0x423
 2668 062b 00       		.byte	0
 2669 062c 16       		.uleb128 0x16
 2670 062d FB060000 		.4byte	.LASF114
 2671 0631 03       		.byte	0x3
 2672 0632 7701     		.2byte	0x177
 2673 0634 F0000000 		.4byte	0xf0
 2674 0638 03       		.byte	0x3
 2675 0639 56060000 		.4byte	0x656
 2676 063d 1C       		.uleb128 0x1c
 2677 063e C4060000 		.4byte	.LASF115
 2678 0642 03       		.byte	0x3
 2679 0643 7701     		.2byte	0x177
 2680 0645 17020000 		.4byte	0x217
 2681 0649 1D       		.uleb128 0x1d
 2682 064a 72657400 		.ascii	"ret\000"
 2683 064e 03       		.byte	0x3
 2684 064f A301     		.2byte	0x1a3
 2685 0651 0C020000 		.4byte	0x20c
 2686 0655 00       		.byte	0
 2687 0656 1E       		.uleb128 0x1e
 2688 0657 0F050000 		.4byte	.LASF119
 2689 065b 01       		.byte	0x1
 2690 065c 33       		.byte	0x33
 2691 065d 17020000 		.4byte	0x217
 2692 0661 00000000 		.4byte	.LFB54
 2693 0665 1A010000 		.4byte	.LFE54-.LFB54
 2694 0669 01       		.uleb128 0x1
 2695 066a 9C       		.byte	0x9c
 2696 066b D9070000 		.4byte	0x7d9
ARM GAS  C:\Users\haske\AppData\Local\Temp\ccwuLgOR.s 			page 68


 2697 066f 1F       		.uleb128 0x1f
 2698 0670 64736300 		.ascii	"dsc\000"
 2699 0674 01       		.byte	0x1
 2700 0675 33       		.byte	0x33
 2701 0676 D9070000 		.4byte	0x7d9
 2702 067a 00000000 		.4byte	.LLST0
 2703 067e 1F       		.uleb128 0x1f
 2704 067f 7800     		.ascii	"x\000"
 2705 0681 01       		.byte	0x1
 2706 0682 33       		.byte	0x33
 2707 0683 2D020000 		.4byte	0x22d
 2708 0687 9A000000 		.4byte	.LLST1
 2709 068b 1F       		.uleb128 0x1f
 2710 068c 7900     		.ascii	"y\000"
 2711 068e 01       		.byte	0x1
 2712 068f 33       		.byte	0x33
 2713 0690 2D020000 		.4byte	0x22d
 2714 0694 33010000 		.4byte	.LLST2
 2715 0698 20       		.uleb128 0x20
 2716 0699 C4060000 		.4byte	.LASF115
 2717 069d 01       		.byte	0x1
 2718 069e 33       		.byte	0x33
 2719 069f 17020000 		.4byte	0x217
 2720 06a3 54010000 		.4byte	.LLST3
 2721 06a7 21       		.uleb128 0x21
 2722 06a8 C9040000 		.4byte	.LASF116
 2723 06ac 01       		.byte	0x1
 2724 06ad 35       		.byte	0x35
 2725 06ae 17020000 		.4byte	0x217
 2726 06b2 02       		.uleb128 0x2
 2727 06b3 91       		.byte	0x91
 2728 06b4 64       		.sleb128 -28
 2729 06b5 22       		.uleb128 0x22
 2730 06b6 AF040000 		.4byte	.LASF117
 2731 06ba 01       		.byte	0x1
 2732 06bb 36       		.byte	0x36
 2733 06bc 47040000 		.4byte	0x447
 2734 06c0 9E010000 		.4byte	.LLST4
 2735 06c4 23       		.uleb128 0x23
 2736 06c5 28000000 		.4byte	.LBB29
 2737 06c9 32000000 		.4byte	.LBE29-.LBB29
 2738 06cd 3F070000 		.4byte	0x73f
 2739 06d1 22       		.uleb128 0x22
 2740 06d2 A5000000 		.4byte	.LASF118
 2741 06d6 01       		.byte	0x1
 2742 06d7 3A       		.byte	0x3a
 2743 06d8 CF000000 		.4byte	0xcf
 2744 06dc 24020000 		.4byte	.LLST5
 2745 06e0 24       		.uleb128 0x24
 2746 06e1 707800   		.ascii	"px\000"
 2747 06e4 01       		.byte	0x1
 2748 06e5 3B       		.byte	0x3b
 2749 06e6 F0000000 		.4byte	0xf0
 2750 06ea 37020000 		.4byte	.LLST6
 2751 06ee 25       		.uleb128 0x25
 2752 06ef E6050000 		.4byte	0x5e6
 2753 06f3 44000000 		.4byte	.LBB30
ARM GAS  C:\Users\haske\AppData\Local\Temp\ccwuLgOR.s 			page 69


 2754 06f7 00000000 		.4byte	.Ldebug_ranges0+0
 2755 06fb 01       		.byte	0x1
 2756 06fc 3C       		.byte	0x3c
 2757 06fd 35070000 		.4byte	0x735
 2758 0701 26       		.uleb128 0x26
 2759 0702 0C060000 		.4byte	0x60c
 2760 0706 65020000 		.4byte	.LLST7
 2761 070a 26       		.uleb128 0x26
 2762 070b 01060000 		.4byte	0x601
 2763 070f 84020000 		.4byte	.LLST8
 2764 0713 26       		.uleb128 0x26
 2765 0714 F6050000 		.4byte	0x5f6
 2766 0718 97020000 		.4byte	.LLST9
 2767 071c 27       		.uleb128 0x27
 2768 071d 00000000 		.4byte	.Ldebug_ranges0+0
 2769 0721 28       		.uleb128 0x28
 2770 0722 17060000 		.4byte	0x617
 2771 0726 C4020000 		.4byte	.LLST10
 2772 072a 28       		.uleb128 0x28
 2773 072b 21060000 		.4byte	0x621
 2774 072f E4020000 		.4byte	.LLST11
 2775 0733 00       		.byte	0
 2776 0734 00       		.byte	0
 2777 0735 29       		.uleb128 0x29
 2778 0736 32000000 		.4byte	.LVL6
 2779 073a 30100000 		.4byte	0x1030
 2780 073e 00       		.byte	0
 2781 073f 23       		.uleb128 0x23
 2782 0740 5E000000 		.4byte	.LBB34
 2783 0744 26000000 		.4byte	.LBE34-.LBB34
 2784 0748 6A070000 		.4byte	0x76a
 2785 074c 24       		.uleb128 0x24
 2786 074d 62697400 		.ascii	"bit\000"
 2787 0751 01       		.byte	0x1
 2788 0752 43       		.byte	0x43
 2789 0753 CF000000 		.4byte	0xcf
 2790 0757 F7020000 		.4byte	.LLST12
 2791 075b 24       		.uleb128 0x24
 2792 075c 707800   		.ascii	"px\000"
 2793 075f 01       		.byte	0x1
 2794 0760 49       		.byte	0x49
 2795 0761 F0000000 		.4byte	0xf0
 2796 0765 21030000 		.4byte	.LLST13
 2797 0769 00       		.byte	0
 2798 076a 23       		.uleb128 0x23
 2799 076b 8A000000 		.4byte	.LBB35
 2800 076f 2A000000 		.4byte	.LBE35-.LBB35
 2801 0773 95070000 		.4byte	0x795
 2802 0777 24       		.uleb128 0x24
 2803 0778 62697400 		.ascii	"bit\000"
 2804 077c 01       		.byte	0x1
 2805 077d 4E       		.byte	0x4e
 2806 077e CF000000 		.4byte	0xcf
 2807 0782 46030000 		.4byte	.LLST14
 2808 0786 24       		.uleb128 0x24
 2809 0787 707800   		.ascii	"px\000"
 2810 078a 01       		.byte	0x1
ARM GAS  C:\Users\haske\AppData\Local\Temp\ccwuLgOR.s 			page 70


 2811 078b 54       		.byte	0x54
 2812 078c F0000000 		.4byte	0xf0
 2813 0790 74030000 		.4byte	.LLST15
 2814 0794 00       		.byte	0
 2815 0795 23       		.uleb128 0x23
 2816 0796 BA000000 		.4byte	.LBB36
 2817 079a 2C000000 		.4byte	.LBE36-.LBB36
 2818 079e C0070000 		.4byte	0x7c0
 2819 07a2 24       		.uleb128 0x24
 2820 07a3 62697400 		.ascii	"bit\000"
 2821 07a7 01       		.byte	0x1
 2822 07a8 59       		.byte	0x59
 2823 07a9 CF000000 		.4byte	0xcf
 2824 07ad 99030000 		.4byte	.LLST16
 2825 07b1 24       		.uleb128 0x24
 2826 07b2 707800   		.ascii	"px\000"
 2827 07b5 01       		.byte	0x1
 2828 07b6 5F       		.byte	0x5f
 2829 07b7 F0000000 		.4byte	0xf0
 2830 07bb C7030000 		.4byte	.LLST17
 2831 07bf 00       		.byte	0
 2832 07c0 2A       		.uleb128 0x2a
 2833 07c1 EC000000 		.4byte	.LBB37
 2834 07c5 18000000 		.4byte	.LBE37-.LBB37
 2835 07c9 24       		.uleb128 0x24
 2836 07ca 707800   		.ascii	"px\000"
 2837 07cd 01       		.byte	0x1
 2838 07ce 64       		.byte	0x64
 2839 07cf F0000000 		.4byte	0xf0
 2840 07d3 EC030000 		.4byte	.LLST18
 2841 07d7 00       		.byte	0
 2842 07d8 00       		.byte	0
 2843 07d9 10       		.uleb128 0x10
 2844 07da 04       		.byte	0x4
 2845 07db 2E040000 		.4byte	0x42e
 2846 07df 1E       		.uleb128 0x1e
 2847 07e0 99050000 		.4byte	.LASF120
 2848 07e4 01       		.byte	0x1
 2849 07e5 76       		.byte	0x76
 2850 07e6 22020000 		.4byte	0x222
 2851 07ea 00000000 		.4byte	.LFB55
 2852 07ee F8000000 		.4byte	.LFE55-.LFB55
 2853 07f2 01       		.uleb128 0x1
 2854 07f3 9C       		.byte	0x9c
 2855 07f4 67090000 		.4byte	0x967
 2856 07f8 1F       		.uleb128 0x1f
 2857 07f9 64736300 		.ascii	"dsc\000"
 2858 07fd 01       		.byte	0x1
 2859 07fe 76       		.byte	0x76
 2860 07ff D9070000 		.4byte	0x7d9
 2861 0803 17040000 		.4byte	.LLST19
 2862 0807 1F       		.uleb128 0x1f
 2863 0808 7800     		.ascii	"x\000"
 2864 080a 01       		.byte	0x1
 2865 080b 76       		.byte	0x76
 2866 080c 2D020000 		.4byte	0x22d
 2867 0810 C7040000 		.4byte	.LLST20
ARM GAS  C:\Users\haske\AppData\Local\Temp\ccwuLgOR.s 			page 71


 2868 0814 1F       		.uleb128 0x1f
 2869 0815 7900     		.ascii	"y\000"
 2870 0817 01       		.byte	0x1
 2871 0818 76       		.byte	0x76
 2872 0819 2D020000 		.4byte	0x22d
 2873 081d B4050000 		.4byte	.LLST21
 2874 0821 22       		.uleb128 0x22
 2875 0822 AF040000 		.4byte	.LASF117
 2876 0826 01       		.byte	0x1
 2877 0827 78       		.byte	0x78
 2878 0828 47040000 		.4byte	0x447
 2879 082c D5050000 		.4byte	.LLST22
 2880 0830 23       		.uleb128 0x23
 2881 0831 16000000 		.4byte	.LBB38
 2882 0835 14000000 		.4byte	.LBE38-.LBB38
 2883 0839 4C080000 		.4byte	0x84c
 2884 083d 24       		.uleb128 0x24
 2885 083e 707800   		.ascii	"px\000"
 2886 0841 01       		.byte	0x1
 2887 0842 7B       		.byte	0x7b
 2888 0843 F0000000 		.4byte	0xf0
 2889 0847 E8050000 		.4byte	.LLST23
 2890 084b 00       		.byte	0
 2891 084c 2B       		.uleb128 0x2b
 2892 084d 18000000 		.4byte	.Ldebug_ranges0+0x18
 2893 0851 82080000 		.4byte	0x882
 2894 0855 24       		.uleb128 0x24
 2895 0856 62697400 		.ascii	"bit\000"
 2896 085a 01       		.byte	0x1
 2897 085b 7F       		.byte	0x7f
 2898 085c CF000000 		.4byte	0xcf
 2899 0860 08060000 		.4byte	.LLST24
 2900 0864 24       		.uleb128 0x24
 2901 0865 707800   		.ascii	"px\000"
 2902 0868 01       		.byte	0x1
 2903 0869 85       		.byte	0x85
 2904 086a F0000000 		.4byte	0xf0
 2905 086e 39060000 		.4byte	.LLST25
 2906 0872 22       		.uleb128 0x22
 2907 0873 48010000 		.4byte	.LASF121
 2908 0877 01       		.byte	0x1
 2909 0878 86       		.byte	0x86
 2910 0879 CF000000 		.4byte	0xcf
 2911 087d C4060000 		.4byte	.LLST26
 2912 0881 00       		.byte	0
 2913 0882 23       		.uleb128 0x23
 2914 0883 60000000 		.4byte	.LBB40
 2915 0887 38000000 		.4byte	.LBE40-.LBB40
 2916 088b E8080000 		.4byte	0x8e8
 2917 088f 21       		.uleb128 0x21
 2918 0890 02010000 		.4byte	.LASF122
 2919 0894 01       		.byte	0x1
 2920 0895 8A       		.byte	0x8a
 2921 0896 77090000 		.4byte	0x977
 2922 089a 02       		.uleb128 0x2
 2923 089b 91       		.byte	0x91
 2924 089c 58       		.sleb128 -40
ARM GAS  C:\Users\haske\AppData\Local\Temp\ccwuLgOR.s 			page 72


 2925 089d 24       		.uleb128 0x24
 2926 089e 62697400 		.ascii	"bit\000"
 2927 08a2 01       		.byte	0x1
 2928 08a3 8C       		.byte	0x8c
 2929 08a4 CF000000 		.4byte	0xcf
 2930 08a8 E2060000 		.4byte	.LLST27
 2931 08ac 24       		.uleb128 0x24
 2932 08ad 707800   		.ascii	"px\000"
 2933 08b0 01       		.byte	0x1
 2934 08b1 92       		.byte	0x92
 2935 08b2 F0000000 		.4byte	0xf0
 2936 08b6 18070000 		.4byte	.LLST28
 2937 08ba 22       		.uleb128 0x22
 2938 08bb 48010000 		.4byte	.LASF121
 2939 08bf 01       		.byte	0x1
 2940 08c0 93       		.byte	0x93
 2941 08c1 CF000000 		.4byte	0xcf
 2942 08c5 49070000 		.4byte	.LLST29
 2943 08c9 2C       		.uleb128 0x2c
 2944 08ca 6A000000 		.4byte	.LVL74
 2945 08ce 3B100000 		.4byte	0x103b
 2946 08d2 2D       		.uleb128 0x2d
 2947 08d3 01       		.uleb128 0x1
 2948 08d4 50       		.byte	0x50
 2949 08d5 02       		.uleb128 0x2
 2950 08d6 7D       		.byte	0x7d
 2951 08d7 00       		.sleb128 0
 2952 08d8 2D       		.uleb128 0x2d
 2953 08d9 01       		.uleb128 0x1
 2954 08da 51       		.byte	0x51
 2955 08db 05       		.uleb128 0x5
 2956 08dc 03       		.byte	0x3
 2957 08dd 44000000 		.4byte	.LANCHOR0
 2958 08e1 2D       		.uleb128 0x2d
 2959 08e2 01       		.uleb128 0x1
 2960 08e3 52       		.byte	0x52
 2961 08e4 01       		.uleb128 0x1
 2962 08e5 34       		.byte	0x34
 2963 08e6 00       		.byte	0
 2964 08e7 00       		.byte	0
 2965 08e8 23       		.uleb128 0x23
 2966 08e9 9C000000 		.4byte	.LBB41
 2967 08ed 3A000000 		.4byte	.LBE41-.LBB41
 2968 08f1 4E090000 		.4byte	0x94e
 2969 08f5 21       		.uleb128 0x21
 2970 08f6 02010000 		.4byte	.LASF122
 2971 08fa 01       		.byte	0x1
 2972 08fb 97       		.byte	0x97
 2973 08fc 8C090000 		.4byte	0x98c
 2974 0900 02       		.uleb128 0x2
 2975 0901 91       		.byte	0x91
 2976 0902 58       		.sleb128 -40
 2977 0903 24       		.uleb128 0x24
 2978 0904 62697400 		.ascii	"bit\000"
 2979 0908 01       		.byte	0x1
 2980 0909 9B       		.byte	0x9b
 2981 090a CF000000 		.4byte	0xcf
ARM GAS  C:\Users\haske\AppData\Local\Temp\ccwuLgOR.s 			page 73


 2982 090e 8A070000 		.4byte	.LLST30
 2983 0912 24       		.uleb128 0x24
 2984 0913 707800   		.ascii	"px\000"
 2985 0916 01       		.byte	0x1
 2986 0917 A1       		.byte	0xa1
 2987 0918 F0000000 		.4byte	0xf0
 2988 091c AE070000 		.4byte	.LLST31
 2989 0920 22       		.uleb128 0x22
 2990 0921 48010000 		.4byte	.LASF121
 2991 0925 01       		.byte	0x1
 2992 0926 A2       		.byte	0xa2
 2993 0927 CF000000 		.4byte	0xcf
 2994 092b DF070000 		.4byte	.LLST32
 2995 092f 2C       		.uleb128 0x2c
 2996 0930 A8000000 		.4byte	.LVL86
 2997 0934 3B100000 		.4byte	0x103b
 2998 0938 2D       		.uleb128 0x2d
 2999 0939 01       		.uleb128 0x1
 3000 093a 50       		.byte	0x50
 3001 093b 02       		.uleb128 0x2
 3002 093c 7D       		.byte	0x7d
 3003 093d 00       		.sleb128 0
 3004 093e 2D       		.uleb128 0x2d
 3005 093f 01       		.uleb128 0x1
 3006 0940 51       		.byte	0x51
 3007 0941 05       		.uleb128 0x5
 3008 0942 03       		.byte	0x3
 3009 0943 48000000 		.4byte	.LANCHOR0+4
 3010 0947 2D       		.uleb128 0x2d
 3011 0948 01       		.uleb128 0x1
 3012 0949 52       		.byte	0x52
 3013 094a 01       		.uleb128 0x1
 3014 094b 40       		.byte	0x40
 3015 094c 00       		.byte	0
 3016 094d 00       		.byte	0
 3017 094e 2A       		.uleb128 0x2a
 3018 094f DA000000 		.4byte	.LBB42
 3019 0953 0E000000 		.4byte	.LBE42-.LBB42
 3020 0957 24       		.uleb128 0x24
 3021 0958 707800   		.ascii	"px\000"
 3022 095b 01       		.byte	0x1
 3023 095c A6       		.byte	0xa6
 3024 095d F0000000 		.4byte	0xf0
 3025 0961 20080000 		.4byte	.LLST33
 3026 0965 00       		.byte	0
 3027 0966 00       		.byte	0
 3028 0967 2E       		.uleb128 0x2e
 3029 0968 29040000 		.4byte	0x429
 3030 096c 77090000 		.4byte	0x977
 3031 0970 2F       		.uleb128 0x2f
 3032 0971 B4000000 		.4byte	0xb4
 3033 0975 03       		.byte	0x3
 3034 0976 00       		.byte	0
 3035 0977 11       		.uleb128 0x11
 3036 0978 67090000 		.4byte	0x967
 3037 097c 2E       		.uleb128 0x2e
 3038 097d 29040000 		.4byte	0x429
ARM GAS  C:\Users\haske\AppData\Local\Temp\ccwuLgOR.s 			page 74


 3039 0981 8C090000 		.4byte	0x98c
 3040 0985 2F       		.uleb128 0x2f
 3041 0986 B4000000 		.4byte	0xb4
 3042 098a 0F       		.byte	0xf
 3043 098b 00       		.byte	0
 3044 098c 11       		.uleb128 0x11
 3045 098d 7C090000 		.4byte	0x97c
 3046 0991 30       		.uleb128 0x30
 3047 0992 15060000 		.4byte	.LASF123
 3048 0996 01       		.byte	0x1
 3049 0997 B5       		.byte	0xb5
 3050 0998 00000000 		.4byte	.LFB56
 3051 099c EC000000 		.4byte	.LFE56-.LFB56
 3052 09a0 01       		.uleb128 0x1
 3053 09a1 9C       		.byte	0x9c
 3054 09a2 BB0A0000 		.4byte	0xabb
 3055 09a6 1F       		.uleb128 0x1f
 3056 09a7 64736300 		.ascii	"dsc\000"
 3057 09ab 01       		.byte	0x1
 3058 09ac B5       		.byte	0xb5
 3059 09ad D9070000 		.4byte	0x7d9
 3060 09b1 33080000 		.4byte	.LLST34
 3061 09b5 1F       		.uleb128 0x1f
 3062 09b6 7800     		.ascii	"x\000"
 3063 09b8 01       		.byte	0x1
 3064 09b9 B5       		.byte	0xb5
 3065 09ba 2D020000 		.4byte	0x22d
 3066 09be 75080000 		.4byte	.LLST35
 3067 09c2 1F       		.uleb128 0x1f
 3068 09c3 7900     		.ascii	"y\000"
 3069 09c5 01       		.byte	0x1
 3070 09c6 B5       		.byte	0xb5
 3071 09c7 2D020000 		.4byte	0x22d
 3072 09cb EF080000 		.4byte	.LLST36
 3073 09cf 1F       		.uleb128 0x1f
 3074 09d0 6F706100 		.ascii	"opa\000"
 3075 09d4 01       		.byte	0x1
 3076 09d5 B5       		.byte	0xb5
 3077 09d6 22020000 		.4byte	0x222
 3078 09da 10090000 		.4byte	.LLST37
 3079 09de 22       		.uleb128 0x22
 3080 09df AF040000 		.4byte	.LASF117
 3081 09e3 01       		.byte	0x1
 3082 09e4 B7       		.byte	0xb7
 3083 09e5 47040000 		.4byte	0x447
 3084 09e9 7C090000 		.4byte	.LLST38
 3085 09ed 23       		.uleb128 0x23
 3086 09ee 1A000000 		.4byte	.LBB44
 3087 09f2 20000000 		.4byte	.LBE44-.LBB44
 3088 09f6 210A0000 		.4byte	0xa21
 3089 09fa 22       		.uleb128 0x22
 3090 09fb A5000000 		.4byte	.LASF118
 3091 09ff 01       		.byte	0x1
 3092 0a00 BA       		.byte	0xba
 3093 0a01 CF000000 		.4byte	0xcf
 3094 0a05 8F090000 		.4byte	.LLST39
 3095 0a09 24       		.uleb128 0x24
ARM GAS  C:\Users\haske\AppData\Local\Temp\ccwuLgOR.s 			page 75


 3096 0a0a 707800   		.ascii	"px\000"
 3097 0a0d 01       		.byte	0x1
 3098 0a0e BB       		.byte	0xbb
 3099 0a0f F0000000 		.4byte	0xf0
 3100 0a13 A2090000 		.4byte	.LLST40
 3101 0a17 29       		.uleb128 0x29
 3102 0a18 24000000 		.4byte	.LVL109
 3103 0a1c 30100000 		.4byte	0x1030
 3104 0a20 00       		.byte	0
 3105 0a21 23       		.uleb128 0x23
 3106 0a22 40000000 		.4byte	.LBB45
 3107 0a26 2C000000 		.4byte	.LBE45-.LBB45
 3108 0a2a 4C0A0000 		.4byte	0xa4c
 3109 0a2e 24       		.uleb128 0x24
 3110 0a2f 62697400 		.ascii	"bit\000"
 3111 0a33 01       		.byte	0x1
 3112 0a34 C0       		.byte	0xc0
 3113 0a35 CF000000 		.4byte	0xcf
 3114 0a39 B5090000 		.4byte	.LLST41
 3115 0a3d 24       		.uleb128 0x24
 3116 0a3e 707800   		.ascii	"px\000"
 3117 0a41 01       		.byte	0x1
 3118 0a42 C6       		.byte	0xc6
 3119 0a43 F0000000 		.4byte	0xf0
 3120 0a47 E7090000 		.4byte	.LLST42
 3121 0a4b 00       		.byte	0
 3122 0a4c 23       		.uleb128 0x23
 3123 0a4d 72000000 		.4byte	.LBB46
 3124 0a51 2E000000 		.4byte	.LBE46-.LBB46
 3125 0a55 770A0000 		.4byte	0xa77
 3126 0a59 24       		.uleb128 0x24
 3127 0a5a 62697400 		.ascii	"bit\000"
 3128 0a5e 01       		.byte	0x1
 3129 0a5f CC       		.byte	0xcc
 3130 0a60 CF000000 		.4byte	0xcf
 3131 0a64 0A0A0000 		.4byte	.LLST43
 3132 0a68 24       		.uleb128 0x24
 3133 0a69 707800   		.ascii	"px\000"
 3134 0a6c 01       		.byte	0x1
 3135 0a6d D2       		.byte	0xd2
 3136 0a6e F0000000 		.4byte	0xf0
 3137 0a72 2E0A0000 		.4byte	.LLST44
 3138 0a76 00       		.byte	0
 3139 0a77 23       		.uleb128 0x23
 3140 0a78 A6000000 		.4byte	.LBB47
 3141 0a7c 2E000000 		.4byte	.LBE47-.LBB47
 3142 0a80 A20A0000 		.4byte	0xaa2
 3143 0a84 24       		.uleb128 0x24
 3144 0a85 62697400 		.ascii	"bit\000"
 3145 0a89 01       		.byte	0x1
 3146 0a8a D8       		.byte	0xd8
 3147 0a8b CF000000 		.4byte	0xcf
 3148 0a8f 410A0000 		.4byte	.LLST45
 3149 0a93 24       		.uleb128 0x24
 3150 0a94 707800   		.ascii	"px\000"
 3151 0a97 01       		.byte	0x1
 3152 0a98 DE       		.byte	0xde
ARM GAS  C:\Users\haske\AppData\Local\Temp\ccwuLgOR.s 			page 76


 3153 0a99 F0000000 		.4byte	0xf0
 3154 0a9d 650A0000 		.4byte	.LLST46
 3155 0aa1 00       		.byte	0
 3156 0aa2 2A       		.uleb128 0x2a
 3157 0aa3 DA000000 		.4byte	.LBB48
 3158 0aa7 0C000000 		.4byte	.LBE48-.LBB48
 3159 0aab 24       		.uleb128 0x24
 3160 0aac 707800   		.ascii	"px\000"
 3161 0aaf 01       		.byte	0x1
 3162 0ab0 E3       		.byte	0xe3
 3163 0ab1 F0000000 		.4byte	0xf0
 3164 0ab5 780A0000 		.4byte	.LLST47
 3165 0ab9 00       		.byte	0
 3166 0aba 00       		.byte	0
 3167 0abb 30       		.uleb128 0x30
 3168 0abc 01030000 		.4byte	.LASF124
 3169 0ac0 01       		.byte	0x1
 3170 0ac1 F0       		.byte	0xf0
 3171 0ac2 00000000 		.4byte	.LFB57
 3172 0ac6 5E010000 		.4byte	.LFE57-.LFB57
 3173 0aca 01       		.uleb128 0x1
 3174 0acb 9C       		.byte	0x9c
 3175 0acc B30C0000 		.4byte	0xcb3
 3176 0ad0 1F       		.uleb128 0x1f
 3177 0ad1 64736300 		.ascii	"dsc\000"
 3178 0ad5 01       		.byte	0x1
 3179 0ad6 F0       		.byte	0xf0
 3180 0ad7 D9070000 		.4byte	0x7d9
 3181 0adb 8B0A0000 		.4byte	.LLST48
 3182 0adf 1F       		.uleb128 0x1f
 3183 0ae0 7800     		.ascii	"x\000"
 3184 0ae2 01       		.byte	0x1
 3185 0ae3 F0       		.byte	0xf0
 3186 0ae4 2D020000 		.4byte	0x22d
 3187 0ae8 250B0000 		.4byte	.LLST49
 3188 0aec 1F       		.uleb128 0x1f
 3189 0aed 7900     		.ascii	"y\000"
 3190 0aef 01       		.byte	0x1
 3191 0af0 F0       		.byte	0xf0
 3192 0af1 2D020000 		.4byte	0x22d
 3193 0af5 C60B0000 		.4byte	.LLST50
 3194 0af9 31       		.uleb128 0x31
 3195 0afa 6300     		.ascii	"c\000"
 3196 0afc 01       		.byte	0x1
 3197 0afd F0       		.byte	0xf0
 3198 0afe 17020000 		.4byte	0x217
 3199 0b02 02       		.uleb128 0x2
 3200 0b03 91       		.byte	0x91
 3201 0b04 64       		.sleb128 -28
 3202 0b05 22       		.uleb128 0x22
 3203 0b06 AF040000 		.4byte	.LASF117
 3204 0b0a 01       		.byte	0x1
 3205 0b0b F2       		.byte	0xf2
 3206 0b0c 47040000 		.4byte	0x447
 3207 0b10 E70B0000 		.4byte	.LLST51
 3208 0b14 23       		.uleb128 0x23
 3209 0b15 1E000000 		.4byte	.LBB49
ARM GAS  C:\Users\haske\AppData\Local\Temp\ccwuLgOR.s 			page 77


 3210 0b19 30000000 		.4byte	.LBE49-.LBB49
 3211 0b1d 930B0000 		.4byte	0xb93
 3212 0b21 22       		.uleb128 0x22
 3213 0b22 A5000000 		.4byte	.LASF118
 3214 0b26 01       		.byte	0x1
 3215 0b27 F5       		.byte	0xf5
 3216 0b28 CF000000 		.4byte	0xcf
 3217 0b2c 840C0000 		.4byte	.LLST52
 3218 0b30 24       		.uleb128 0x24
 3219 0b31 707800   		.ascii	"px\000"
 3220 0b34 01       		.byte	0x1
 3221 0b35 F6       		.byte	0xf6
 3222 0b36 F0000000 		.4byte	0xf0
 3223 0b3a 970C0000 		.4byte	.LLST53
 3224 0b3e 32       		.uleb128 0x32
 3225 0b3f E6050000 		.4byte	0x5e6
 3226 0b43 3A000000 		.4byte	.LBB50
 3227 0b47 14000000 		.4byte	.LBE50-.LBB50
 3228 0b4b 01       		.byte	0x1
 3229 0b4c F7       		.byte	0xf7
 3230 0b4d 890B0000 		.4byte	0xb89
 3231 0b51 26       		.uleb128 0x26
 3232 0b52 0C060000 		.4byte	0x60c
 3233 0b56 C50C0000 		.4byte	.LLST54
 3234 0b5a 26       		.uleb128 0x26
 3235 0b5b 01060000 		.4byte	0x601
 3236 0b5f D80C0000 		.4byte	.LLST55
 3237 0b63 26       		.uleb128 0x26
 3238 0b64 F6050000 		.4byte	0x5f6
 3239 0b68 050D0000 		.4byte	.LLST56
 3240 0b6c 2A       		.uleb128 0x2a
 3241 0b6d 3A000000 		.4byte	.LBB51
 3242 0b71 14000000 		.4byte	.LBE51-.LBB51
 3243 0b75 28       		.uleb128 0x28
 3244 0b76 17060000 		.4byte	0x617
 3245 0b7a 180D0000 		.4byte	.LLST57
 3246 0b7e 28       		.uleb128 0x28
 3247 0b7f 21060000 		.4byte	0x621
 3248 0b83 2B0D0000 		.4byte	.LLST58
 3249 0b87 00       		.byte	0
 3250 0b88 00       		.byte	0
 3251 0b89 29       		.uleb128 0x29
 3252 0b8a 28000000 		.4byte	.LVL151
 3253 0b8e 30100000 		.4byte	0x1030
 3254 0b92 00       		.byte	0
 3255 0b93 23       		.uleb128 0x23
 3256 0b94 52000000 		.4byte	.LBB52
 3257 0b98 32000000 		.4byte	.LBE52-.LBB52
 3258 0b9c 120C0000 		.4byte	0xc12
 3259 0ba0 22       		.uleb128 0x22
 3260 0ba1 A5000000 		.4byte	.LASF118
 3261 0ba5 01       		.byte	0x1
 3262 0ba6 FA       		.byte	0xfa
 3263 0ba7 CF000000 		.4byte	0xcf
 3264 0bab 4B0D0000 		.4byte	.LLST59
 3265 0baf 24       		.uleb128 0x24
 3266 0bb0 707800   		.ascii	"px\000"
ARM GAS  C:\Users\haske\AppData\Local\Temp\ccwuLgOR.s 			page 78


 3267 0bb3 01       		.byte	0x1
 3268 0bb4 FB       		.byte	0xfb
 3269 0bb5 F0000000 		.4byte	0xf0
 3270 0bb9 6B0D0000 		.4byte	.LLST60
 3271 0bbd 32       		.uleb128 0x32
 3272 0bbe E6050000 		.4byte	0x5e6
 3273 0bc2 70000000 		.4byte	.LBB53
 3274 0bc6 14000000 		.4byte	.LBE53-.LBB53
 3275 0bca 01       		.byte	0x1
 3276 0bcb FC       		.byte	0xfc
 3277 0bcc 080C0000 		.4byte	0xc08
 3278 0bd0 26       		.uleb128 0x26
 3279 0bd1 0C060000 		.4byte	0x60c
 3280 0bd5 B40D0000 		.4byte	.LLST61
 3281 0bd9 26       		.uleb128 0x26
 3282 0bda 01060000 		.4byte	0x601
 3283 0bde C70D0000 		.4byte	.LLST62
 3284 0be2 26       		.uleb128 0x26
 3285 0be3 F6050000 		.4byte	0x5f6
 3286 0be7 F40D0000 		.4byte	.LLST63
 3287 0beb 2A       		.uleb128 0x2a
 3288 0bec 70000000 		.4byte	.LBB54
 3289 0bf0 14000000 		.4byte	.LBE54-.LBB54
 3290 0bf4 28       		.uleb128 0x28
 3291 0bf5 17060000 		.4byte	0x617
 3292 0bf9 070E0000 		.4byte	.LLST64
 3293 0bfd 28       		.uleb128 0x28
 3294 0bfe 21060000 		.4byte	0x621
 3295 0c02 1A0E0000 		.4byte	.LLST65
 3296 0c06 00       		.byte	0
 3297 0c07 00       		.byte	0
 3298 0c08 29       		.uleb128 0x29
 3299 0c09 5C000000 		.4byte	.LVL162
 3300 0c0d 30100000 		.4byte	0x1030
 3301 0c11 00       		.byte	0
 3302 0c12 23       		.uleb128 0x23
 3303 0c13 88000000 		.4byte	.LBB55
 3304 0c17 38000000 		.4byte	.LBE55-.LBB55
 3305 0c1b 3F0C0000 		.4byte	0xc3f
 3306 0c1f 33       		.uleb128 0x33
 3307 0c20 62697400 		.ascii	"bit\000"
 3308 0c24 01       		.byte	0x1
 3309 0c25 0101     		.2byte	0x101
 3310 0c27 CF000000 		.4byte	0xcf
 3311 0c2b 3A0E0000 		.4byte	.LLST66
 3312 0c2f 33       		.uleb128 0x33
 3313 0c30 707800   		.ascii	"px\000"
 3314 0c33 01       		.byte	0x1
 3315 0c34 0701     		.2byte	0x107
 3316 0c36 F0000000 		.4byte	0xf0
 3317 0c3a 5C0E0000 		.4byte	.LLST67
 3318 0c3e 00       		.byte	0
 3319 0c3f 23       		.uleb128 0x23
 3320 0c40 C6000000 		.4byte	.LBB56
 3321 0c44 38000000 		.4byte	.LBE56-.LBB56
 3322 0c48 6C0C0000 		.4byte	0xc6c
 3323 0c4c 33       		.uleb128 0x33
ARM GAS  C:\Users\haske\AppData\Local\Temp\ccwuLgOR.s 			page 79


 3324 0c4d 62697400 		.ascii	"bit\000"
 3325 0c51 01       		.byte	0x1
 3326 0c52 0D01     		.2byte	0x10d
 3327 0c54 CF000000 		.4byte	0xcf
 3328 0c58 810E0000 		.4byte	.LLST68
 3329 0c5c 33       		.uleb128 0x33
 3330 0c5d 707800   		.ascii	"px\000"
 3331 0c60 01       		.byte	0x1
 3332 0c61 1301     		.2byte	0x113
 3333 0c63 F0000000 		.4byte	0xf0
 3334 0c67 DA0E0000 		.4byte	.LLST69
 3335 0c6b 00       		.byte	0
 3336 0c6c 23       		.uleb128 0x23
 3337 0c6d 04010000 		.4byte	.LBB57
 3338 0c71 38000000 		.4byte	.LBE57-.LBB57
 3339 0c75 990C0000 		.4byte	0xc99
 3340 0c79 33       		.uleb128 0x33
 3341 0c7a 62697400 		.ascii	"bit\000"
 3342 0c7e 01       		.byte	0x1
 3343 0c7f 1A01     		.2byte	0x11a
 3344 0c81 CF000000 		.4byte	0xcf
 3345 0c85 FF0E0000 		.4byte	.LLST70
 3346 0c89 33       		.uleb128 0x33
 3347 0c8a 707800   		.ascii	"px\000"
 3348 0c8d 01       		.byte	0x1
 3349 0c8e 2001     		.2byte	0x120
 3350 0c90 F0000000 		.4byte	0xf0
 3351 0c94 230F0000 		.4byte	.LLST71
 3352 0c98 00       		.byte	0
 3353 0c99 2A       		.uleb128 0x2a
 3354 0c9a 42010000 		.4byte	.LBB58
 3355 0c9e 18000000 		.4byte	.LBE58-.LBB58
 3356 0ca2 33       		.uleb128 0x33
 3357 0ca3 707800   		.ascii	"px\000"
 3358 0ca6 01       		.byte	0x1
 3359 0ca7 2601     		.2byte	0x126
 3360 0ca9 F0000000 		.4byte	0xf0
 3361 0cad 480F0000 		.4byte	.LLST72
 3362 0cb1 00       		.byte	0
 3363 0cb2 00       		.byte	0
 3364 0cb3 34       		.uleb128 0x34
 3365 0cb4 E0000000 		.4byte	.LASF125
 3366 0cb8 01       		.byte	0x1
 3367 0cb9 3501     		.2byte	0x135
 3368 0cbb 00000000 		.4byte	.LFB58
 3369 0cbf 8A000000 		.4byte	.LFE58-.LFB58
 3370 0cc3 01       		.uleb128 0x1
 3371 0cc4 9C       		.byte	0x9c
 3372 0cc5 870D0000 		.4byte	0xd87
 3373 0cc9 35       		.uleb128 0x35
 3374 0cca 64736300 		.ascii	"dsc\000"
 3375 0cce 01       		.byte	0x1
 3376 0ccf 3501     		.2byte	0x135
 3377 0cd1 D9070000 		.4byte	0x7d9
 3378 0cd5 690F0000 		.4byte	.LLST73
 3379 0cd9 35       		.uleb128 0x35
 3380 0cda 696400   		.ascii	"id\000"
ARM GAS  C:\Users\haske\AppData\Local\Temp\ccwuLgOR.s 			page 80


 3381 0cdd 01       		.byte	0x1
 3382 0cde 3501     		.2byte	0x135
 3383 0ce0 CF000000 		.4byte	0xcf
 3384 0ce4 8A0F0000 		.4byte	.LLST74
 3385 0ce8 35       		.uleb128 0x35
 3386 0ce9 6300     		.ascii	"c\000"
 3387 0ceb 01       		.byte	0x1
 3388 0cec 3501     		.2byte	0x135
 3389 0cee 17020000 		.4byte	0x217
 3390 0cf2 AB0F0000 		.4byte	.LLST75
 3391 0cf6 36       		.uleb128 0x36
 3392 0cf7 63333200 		.ascii	"c32\000"
 3393 0cfb 01       		.byte	0x1
 3394 0cfc 3D01     		.2byte	0x13d
 3395 0cfe 0C020000 		.4byte	0x20c
 3396 0d02 02       		.uleb128 0x2
 3397 0d03 91       		.byte	0x91
 3398 0d04 6C       		.sleb128 -20
 3399 0d05 33       		.uleb128 0x33
 3400 0d06 62756600 		.ascii	"buf\000"
 3401 0d0a 01       		.byte	0x1
 3402 0d0b 3F01     		.2byte	0x13f
 3403 0d0d 47040000 		.4byte	0x447
 3404 0d11 C90F0000 		.4byte	.LLST76
 3405 0d15 37       		.uleb128 0x37
 3406 0d16 2C060000 		.4byte	0x62c
 3407 0d1a 26000000 		.4byte	.LBB59
 3408 0d1e 44000000 		.4byte	.LBE59-.LBB59
 3409 0d22 01       		.byte	0x1
 3410 0d23 3E01     		.2byte	0x13e
 3411 0d25 420D0000 		.4byte	0xd42
 3412 0d29 38       		.uleb128 0x38
 3413 0d2a 3D060000 		.4byte	0x63d
 3414 0d2e 2A       		.uleb128 0x2a
 3415 0d2f 26000000 		.4byte	.LBB60
 3416 0d33 44000000 		.4byte	.LBE60-.LBB60
 3417 0d37 28       		.uleb128 0x28
 3418 0d38 49060000 		.4byte	0x649
 3419 0d3c E80F0000 		.4byte	.LLST77
 3420 0d40 00       		.byte	0
 3421 0d41 00       		.byte	0
 3422 0d42 39       		.uleb128 0x39
 3423 0d43 E6050000 		.4byte	0x5e6
 3424 0d47 72000000 		.4byte	.LBB61
 3425 0d4b 30000000 		.4byte	.Ldebug_ranges0+0x30
 3426 0d4f 01       		.byte	0x1
 3427 0d50 4001     		.2byte	0x140
 3428 0d52 26       		.uleb128 0x26
 3429 0d53 0C060000 		.4byte	0x60c
 3430 0d57 FB0F0000 		.4byte	.LLST78
 3431 0d5b 26       		.uleb128 0x26
 3432 0d5c 01060000 		.4byte	0x601
 3433 0d60 1A100000 		.4byte	.LLST79
 3434 0d64 26       		.uleb128 0x26
 3435 0d65 F6050000 		.4byte	0x5f6
 3436 0d69 47100000 		.4byte	.LLST80
 3437 0d6d 27       		.uleb128 0x27
ARM GAS  C:\Users\haske\AppData\Local\Temp\ccwuLgOR.s 			page 81


 3438 0d6e 30000000 		.4byte	.Ldebug_ranges0+0x30
 3439 0d72 28       		.uleb128 0x28
 3440 0d73 17060000 		.4byte	0x617
 3441 0d77 5A100000 		.4byte	.LLST81
 3442 0d7b 28       		.uleb128 0x28
 3443 0d7c 21060000 		.4byte	0x621
 3444 0d80 6D100000 		.4byte	.LLST82
 3445 0d84 00       		.byte	0
 3446 0d85 00       		.byte	0
 3447 0d86 00       		.byte	0
 3448 0d87 34       		.uleb128 0x34
 3449 0d88 19090000 		.4byte	.LASF126
 3450 0d8c 01       		.byte	0x1
 3451 0d8d 6E01     		.2byte	0x16e
 3452 0d8f 00000000 		.4byte	.LFB60
 3453 0d93 18000000 		.4byte	.LFE60-.LFB60
 3454 0d97 01       		.uleb128 0x1
 3455 0d98 9C       		.byte	0x9c
 3456 0d99 C70D0000 		.4byte	0xdc7
 3457 0d9d 35       		.uleb128 0x35
 3458 0d9e 64736300 		.ascii	"dsc\000"
 3459 0da2 01       		.byte	0x1
 3460 0da3 6E01     		.2byte	0x16e
 3461 0da5 D9070000 		.4byte	0x7d9
 3462 0da9 80100000 		.4byte	.LLST83
 3463 0dad 29       		.uleb128 0x29
 3464 0dae 10000000 		.4byte	.LVL229
 3465 0db2 44100000 		.4byte	0x1044
 3466 0db6 2C       		.uleb128 0x2c
 3467 0db7 16000000 		.4byte	.LVL230
 3468 0dbb 44100000 		.4byte	0x1044
 3469 0dbf 2D       		.uleb128 0x2d
 3470 0dc0 01       		.uleb128 0x1
 3471 0dc1 50       		.byte	0x50
 3472 0dc2 02       		.uleb128 0x2
 3473 0dc3 74       		.byte	0x74
 3474 0dc4 00       		.sleb128 0
 3475 0dc5 00       		.byte	0
 3476 0dc6 00       		.byte	0
 3477 0dc7 3A       		.uleb128 0x3a
 3478 0dc8 9F020000 		.4byte	.LASF127
 3479 0dcc 01       		.byte	0x1
 3480 0dcd 7F01     		.2byte	0x17f
 3481 0dcf F0000000 		.4byte	0xf0
 3482 0dd3 00000000 		.4byte	.LFB61
 3483 0dd7 9C000000 		.4byte	.LFE61-.LFB61
 3484 0ddb 01       		.uleb128 0x1
 3485 0ddc 9C       		.byte	0x9c
 3486 0ddd 0B0E0000 		.4byte	0xe0b
 3487 0de1 35       		.uleb128 0x35
 3488 0de2 7700     		.ascii	"w\000"
 3489 0de4 01       		.byte	0x1
 3490 0de5 7F01     		.2byte	0x17f
 3491 0de7 2D020000 		.4byte	0x22d
 3492 0deb AC100000 		.4byte	.LLST84
 3493 0def 3B       		.uleb128 0x3b
 3494 0df0 6800     		.ascii	"h\000"
ARM GAS  C:\Users\haske\AppData\Local\Temp\ccwuLgOR.s 			page 82


 3495 0df2 01       		.byte	0x1
 3496 0df3 7F01     		.2byte	0x17f
 3497 0df5 2D020000 		.4byte	0x22d
 3498 0df9 01       		.uleb128 0x1
 3499 0dfa 51       		.byte	0x51
 3500 0dfb 35       		.uleb128 0x35
 3501 0dfc 636600   		.ascii	"cf\000"
 3502 0dff 01       		.byte	0x1
 3503 0e00 7F01     		.2byte	0x17f
 3504 0e02 91030000 		.4byte	0x391
 3505 0e06 E0110000 		.4byte	.LLST85
 3506 0e0a 00       		.byte	0
 3507 0e0b 3A       		.uleb128 0x3a
 3508 0e0c 27050000 		.4byte	.LASF128
 3509 0e10 01       		.byte	0x1
 3510 0e11 4A01     		.2byte	0x14a
 3511 0e13 D9070000 		.4byte	0x7d9
 3512 0e17 00000000 		.4byte	.LFB59
 3513 0e1b 88000000 		.4byte	.LFE59-.LFB59
 3514 0e1f 01       		.uleb128 0x1
 3515 0e20 9C       		.byte	0x9c
 3516 0e21 E70E0000 		.4byte	0xee7
 3517 0e25 35       		.uleb128 0x35
 3518 0e26 7700     		.ascii	"w\000"
 3519 0e28 01       		.byte	0x1
 3520 0e29 4A01     		.2byte	0x14a
 3521 0e2b 2D020000 		.4byte	0x22d
 3522 0e2f 01120000 		.4byte	.LLST86
 3523 0e33 35       		.uleb128 0x35
 3524 0e34 6800     		.ascii	"h\000"
 3525 0e36 01       		.byte	0x1
 3526 0e37 4A01     		.2byte	0x14a
 3527 0e39 2D020000 		.4byte	0x22d
 3528 0e3d 22120000 		.4byte	.LLST87
 3529 0e41 35       		.uleb128 0x35
 3530 0e42 636600   		.ascii	"cf\000"
 3531 0e45 01       		.byte	0x1
 3532 0e46 4A01     		.2byte	0x14a
 3533 0e48 91030000 		.4byte	0x391
 3534 0e4c 43120000 		.4byte	.LLST88
 3535 0e50 33       		.uleb128 0x33
 3536 0e51 64736300 		.ascii	"dsc\000"
 3537 0e55 01       		.byte	0x1
 3538 0e56 4D01     		.2byte	0x14d
 3539 0e58 D9070000 		.4byte	0x7d9
 3540 0e5c 64120000 		.4byte	.LLST89
 3541 0e60 3C       		.uleb128 0x3c
 3542 0e61 0E000000 		.4byte	.LVL259
 3543 0e65 4F100000 		.4byte	0x104f
 3544 0e69 730E0000 		.4byte	0xe73
 3545 0e6d 2D       		.uleb128 0x2d
 3546 0e6e 01       		.uleb128 0x1
 3547 0e6f 50       		.byte	0x50
 3548 0e70 01       		.uleb128 0x1
 3549 0e71 3C       		.byte	0x3c
 3550 0e72 00       		.byte	0
 3551 0e73 3C       		.uleb128 0x3c
ARM GAS  C:\Users\haske\AppData\Local\Temp\ccwuLgOR.s 			page 83


 3552 0e74 18000000 		.4byte	.LVL261
 3553 0e78 5A100000 		.4byte	0x105a
 3554 0e7c 8C0E0000 		.4byte	0xe8c
 3555 0e80 2D       		.uleb128 0x2d
 3556 0e81 01       		.uleb128 0x1
 3557 0e82 50       		.byte	0x50
 3558 0e83 02       		.uleb128 0x2
 3559 0e84 74       		.byte	0x74
 3560 0e85 00       		.sleb128 0
 3561 0e86 2D       		.uleb128 0x2d
 3562 0e87 01       		.uleb128 0x1
 3563 0e88 51       		.byte	0x51
 3564 0e89 01       		.uleb128 0x1
 3565 0e8a 3C       		.byte	0x3c
 3566 0e8b 00       		.byte	0
 3567 0e8c 3C       		.uleb128 0x3c
 3568 0e8d 22000000 		.4byte	.LVL262
 3569 0e91 C70D0000 		.4byte	0xdc7
 3570 0e95 AC0E0000 		.4byte	0xeac
 3571 0e99 2D       		.uleb128 0x2d
 3572 0e9a 01       		.uleb128 0x1
 3573 0e9b 50       		.byte	0x50
 3574 0e9c 02       		.uleb128 0x2
 3575 0e9d 77       		.byte	0x77
 3576 0e9e 00       		.sleb128 0
 3577 0e9f 2D       		.uleb128 0x2d
 3578 0ea0 01       		.uleb128 0x1
 3579 0ea1 51       		.byte	0x51
 3580 0ea2 02       		.uleb128 0x2
 3581 0ea3 76       		.byte	0x76
 3582 0ea4 00       		.sleb128 0
 3583 0ea5 2D       		.uleb128 0x2d
 3584 0ea6 01       		.uleb128 0x1
 3585 0ea7 52       		.byte	0x52
 3586 0ea8 02       		.uleb128 0x2
 3587 0ea9 75       		.byte	0x75
 3588 0eaa 00       		.sleb128 0
 3589 0eab 00       		.byte	0
 3590 0eac 3C       		.uleb128 0x3c
 3591 0ead 2E000000 		.4byte	.LVL263
 3592 0eb1 44100000 		.4byte	0x1044
 3593 0eb5 C00E0000 		.4byte	0xec0
 3594 0eb9 2D       		.uleb128 0x2d
 3595 0eba 01       		.uleb128 0x1
 3596 0ebb 50       		.byte	0x50
 3597 0ebc 02       		.uleb128 0x2
 3598 0ebd 74       		.byte	0x74
 3599 0ebe 00       		.sleb128 0
 3600 0ebf 00       		.byte	0
 3601 0ec0 29       		.uleb128 0x29
 3602 0ec1 36000000 		.4byte	.LVL264
 3603 0ec5 4F100000 		.4byte	0x104f
 3604 0ec9 3C       		.uleb128 0x3c
 3605 0eca 42000000 		.4byte	.LVL265
 3606 0ece 44100000 		.4byte	0x1044
 3607 0ed2 DD0E0000 		.4byte	0xedd
 3608 0ed6 2D       		.uleb128 0x2d
ARM GAS  C:\Users\haske\AppData\Local\Temp\ccwuLgOR.s 			page 84


 3609 0ed7 01       		.uleb128 0x1
 3610 0ed8 50       		.byte	0x50
 3611 0ed9 02       		.uleb128 0x2
 3612 0eda 74       		.byte	0x74
 3613 0edb 00       		.sleb128 0
 3614 0edc 00       		.byte	0
 3615 0edd 29       		.uleb128 0x29
 3616 0ede 4C000000 		.4byte	.LVL266
 3617 0ee2 5A100000 		.4byte	0x105a
 3618 0ee6 00       		.byte	0
 3619 0ee7 34       		.uleb128 0x34
 3620 0ee8 38050000 		.4byte	.LASF129
 3621 0eec 01       		.byte	0x1
 3622 0eed A701     		.2byte	0x1a7
 3623 0eef 00000000 		.4byte	.LFB62
 3624 0ef3 4E010000 		.4byte	.LFE62-.LFB62
 3625 0ef7 01       		.uleb128 0x1
 3626 0ef8 9C       		.byte	0x9c
 3627 0ef9 FF0F0000 		.4byte	0xfff
 3628 0efd 35       		.uleb128 0x35
 3629 0efe 72657300 		.ascii	"res\000"
 3630 0f02 01       		.byte	0x1
 3631 0f03 A701     		.2byte	0x1a7
 3632 0f05 FF0F0000 		.4byte	0xfff
 3633 0f09 98120000 		.4byte	.LLST90
 3634 0f0d 35       		.uleb128 0x35
 3635 0f0e 7700     		.ascii	"w\000"
 3636 0f10 01       		.byte	0x1
 3637 0f11 A701     		.2byte	0x1a7
 3638 0f13 2D020000 		.4byte	0x22d
 3639 0f17 C4120000 		.4byte	.LLST91
 3640 0f1b 35       		.uleb128 0x35
 3641 0f1c 6800     		.ascii	"h\000"
 3642 0f1e 01       		.byte	0x1
 3643 0f1f A701     		.2byte	0x1a7
 3644 0f21 2D020000 		.4byte	0x22d
 3645 0f25 0A130000 		.4byte	.LLST92
 3646 0f29 3D       		.uleb128 0x3d
 3647 0f2a 9A000000 		.4byte	.LASF130
 3648 0f2e 01       		.byte	0x1
 3649 0f2f A701     		.2byte	0x1a7
 3650 0f31 DA000000 		.4byte	0xda
 3651 0f35 50130000 		.4byte	.LLST93
 3652 0f39 3D       		.uleb128 0x3d
 3653 0f3a A0000000 		.4byte	.LASF131
 3654 0f3e 01       		.byte	0x1
 3655 0f3f A701     		.2byte	0x1a7
 3656 0f41 E5000000 		.4byte	0xe5
 3657 0f45 71130000 		.4byte	.LLST94
 3658 0f49 3D       		.uleb128 0x3d
 3659 0f4a DA000000 		.4byte	.LASF132
 3660 0f4e 01       		.byte	0x1
 3661 0f4f A801     		.2byte	0x1a8
 3662 0f51 05100000 		.4byte	0x1005
 3663 0f55 9D130000 		.4byte	.LLST95
 3664 0f59 36       		.uleb128 0x36
 3665 0f5a 7000     		.ascii	"p\000"
ARM GAS  C:\Users\haske\AppData\Local\Temp\ccwuLgOR.s 			page 85


 3666 0f5c 01       		.byte	0x1
 3667 0f5d B301     		.2byte	0x1b3
 3668 0f5f 10100000 		.4byte	0x1010
 3669 0f63 02       		.uleb128 0x2
 3670 0f64 91       		.byte	0x91
 3671 0f65 60       		.sleb128 -32
 3672 0f66 3C       		.uleb128 0x3c
 3673 0f67 46000000 		.4byte	.LVL279
 3674 0f6b 65100000 		.4byte	0x1065
 3675 0f6f 8D0F0000 		.4byte	0xf8d
 3676 0f73 2D       		.uleb128 0x2d
 3677 0f74 01       		.uleb128 0x1
 3678 0f75 50       		.byte	0x50
 3679 0f76 02       		.uleb128 0x2
 3680 0f77 7D       		.byte	0x7d
 3681 0f78 00       		.sleb128 0
 3682 0f79 2D       		.uleb128 0x2d
 3683 0f7a 01       		.uleb128 0x1
 3684 0f7b 51       		.byte	0x51
 3685 0f7c 02       		.uleb128 0x2
 3686 0f7d 74       		.byte	0x74
 3687 0f7e 00       		.sleb128 0
 3688 0f7f 2D       		.uleb128 0x2d
 3689 0f80 01       		.uleb128 0x1
 3690 0f81 52       		.byte	0x52
 3691 0f82 02       		.uleb128 0x2
 3692 0f83 75       		.byte	0x75
 3693 0f84 00       		.sleb128 0
 3694 0f85 2D       		.uleb128 0x2d
 3695 0f86 01       		.uleb128 0x1
 3696 0f87 53       		.byte	0x53
 3697 0f88 03       		.uleb128 0x3
 3698 0f89 91       		.byte	0x91
 3699 0f8a 04       		.sleb128 4
 3700 0f8b 06       		.byte	0x6
 3701 0f8c 00       		.byte	0
 3702 0f8d 3C       		.uleb128 0x3c
 3703 0f8e 52000000 		.4byte	.LVL280
 3704 0f92 65100000 		.4byte	0x1065
 3705 0f96 B40F0000 		.4byte	0xfb4
 3706 0f9a 2D       		.uleb128 0x2d
 3707 0f9b 01       		.uleb128 0x1
 3708 0f9c 50       		.byte	0x50
 3709 0f9d 02       		.uleb128 0x2
 3710 0f9e 91       		.byte	0x91
 3711 0f9f 64       		.sleb128 -28
 3712 0fa0 2D       		.uleb128 0x2d
 3713 0fa1 01       		.uleb128 0x1
 3714 0fa2 51       		.byte	0x51
 3715 0fa3 02       		.uleb128 0x2
 3716 0fa4 74       		.byte	0x74
 3717 0fa5 00       		.sleb128 0
 3718 0fa6 2D       		.uleb128 0x2d
 3719 0fa7 01       		.uleb128 0x1
 3720 0fa8 52       		.byte	0x52
 3721 0fa9 02       		.uleb128 0x2
 3722 0faa 75       		.byte	0x75
ARM GAS  C:\Users\haske\AppData\Local\Temp\ccwuLgOR.s 			page 86


 3723 0fab 00       		.sleb128 0
 3724 0fac 2D       		.uleb128 0x2d
 3725 0fad 01       		.uleb128 0x1
 3726 0fae 53       		.byte	0x53
 3727 0faf 03       		.uleb128 0x3
 3728 0fb0 91       		.byte	0x91
 3729 0fb1 04       		.sleb128 4
 3730 0fb2 06       		.byte	0x6
 3731 0fb3 00       		.byte	0
 3732 0fb4 3C       		.uleb128 0x3c
 3733 0fb5 5E000000 		.4byte	.LVL281
 3734 0fb9 65100000 		.4byte	0x1065
 3735 0fbd DB0F0000 		.4byte	0xfdb
 3736 0fc1 2D       		.uleb128 0x2d
 3737 0fc2 01       		.uleb128 0x1
 3738 0fc3 50       		.byte	0x50
 3739 0fc4 02       		.uleb128 0x2
 3740 0fc5 91       		.byte	0x91
 3741 0fc6 68       		.sleb128 -24
 3742 0fc7 2D       		.uleb128 0x2d
 3743 0fc8 01       		.uleb128 0x1
 3744 0fc9 51       		.byte	0x51
 3745 0fca 02       		.uleb128 0x2
 3746 0fcb 74       		.byte	0x74
 3747 0fcc 00       		.sleb128 0
 3748 0fcd 2D       		.uleb128 0x2d
 3749 0fce 01       		.uleb128 0x1
 3750 0fcf 52       		.byte	0x52
 3751 0fd0 02       		.uleb128 0x2
 3752 0fd1 75       		.byte	0x75
 3753 0fd2 00       		.sleb128 0
 3754 0fd3 2D       		.uleb128 0x2d
 3755 0fd4 01       		.uleb128 0x1
 3756 0fd5 53       		.byte	0x53
 3757 0fd6 03       		.uleb128 0x3
 3758 0fd7 91       		.byte	0x91
 3759 0fd8 04       		.sleb128 4
 3760 0fd9 06       		.byte	0x6
 3761 0fda 00       		.byte	0
 3762 0fdb 2C       		.uleb128 0x2c
 3763 0fdc 6A000000 		.4byte	.LVL282
 3764 0fe0 65100000 		.4byte	0x1065
 3765 0fe4 2D       		.uleb128 0x2d
 3766 0fe5 01       		.uleb128 0x1
 3767 0fe6 50       		.byte	0x50
 3768 0fe7 02       		.uleb128 0x2
 3769 0fe8 91       		.byte	0x91
 3770 0fe9 6C       		.sleb128 -20
 3771 0fea 2D       		.uleb128 0x2d
 3772 0feb 01       		.uleb128 0x1
 3773 0fec 51       		.byte	0x51
 3774 0fed 02       		.uleb128 0x2
 3775 0fee 74       		.byte	0x74
 3776 0fef 00       		.sleb128 0
 3777 0ff0 2D       		.uleb128 0x2d
 3778 0ff1 01       		.uleb128 0x1
 3779 0ff2 52       		.byte	0x52
ARM GAS  C:\Users\haske\AppData\Local\Temp\ccwuLgOR.s 			page 87


 3780 0ff3 02       		.uleb128 0x2
 3781 0ff4 75       		.byte	0x75
 3782 0ff5 00       		.sleb128 0
 3783 0ff6 2D       		.uleb128 0x2d
 3784 0ff7 01       		.uleb128 0x1
 3785 0ff8 53       		.byte	0x53
 3786 0ff9 03       		.uleb128 0x3
 3787 0ffa 91       		.byte	0x91
 3788 0ffb 04       		.sleb128 4
 3789 0ffc 06       		.byte	0x6
 3790 0ffd 00       		.byte	0
 3791 0ffe 00       		.byte	0
 3792 0fff 10       		.uleb128 0x10
 3793 1000 04       		.byte	0x4
 3794 1001 95020000 		.4byte	0x295
 3795 1005 10       		.uleb128 0x10
 3796 1006 04       		.byte	0x4
 3797 1007 0B100000 		.4byte	0x100b
 3798 100b 11       		.uleb128 0x11
 3799 100c 55020000 		.4byte	0x255
 3800 1010 2E       		.uleb128 0x2e
 3801 1011 55020000 		.4byte	0x255
 3802 1015 20100000 		.4byte	0x1020
 3803 1019 2F       		.uleb128 0x2f
 3804 101a B4000000 		.4byte	0xb4
 3805 101e 03       		.byte	0x3
 3806 101f 00       		.byte	0
 3807 1020 3E       		.uleb128 0x3e
 3808 1021 0C010000 		.4byte	.LASF143
 3809 1025 09       		.byte	0x9
 3810 1026 94       		.byte	0x94
 3811 1027 2B100000 		.4byte	0x102b
 3812 102b 11       		.uleb128 0x11
 3813 102c 9E050000 		.4byte	0x59e
 3814 1030 3F       		.uleb128 0x3f
 3815 1031 AE010000 		.4byte	.LASF133
 3816 1035 AE010000 		.4byte	.LASF133
 3817 1039 0A       		.byte	0xa
 3818 103a 54       		.byte	0x54
 3819 103b 40       		.uleb128 0x40
 3820 103c 20040000 		.4byte	.LASF144
 3821 1040 20040000 		.4byte	.LASF144
 3822 1044 3F       		.uleb128 0x3f
 3823 1045 95010000 		.4byte	.LASF134
 3824 1049 95010000 		.4byte	.LASF134
 3825 104d 02       		.byte	0x2
 3826 104e 50       		.byte	0x50
 3827 104f 3F       		.uleb128 0x3f
 3828 1050 4F010000 		.4byte	.LASF135
 3829 1054 4F010000 		.4byte	.LASF135
 3830 1058 02       		.byte	0x2
 3831 1059 4A       		.byte	0x4a
 3832 105a 3F       		.uleb128 0x3f
 3833 105b 5C010000 		.4byte	.LASF136
 3834 105f 5C010000 		.4byte	.LASF136
 3835 1063 02       		.byte	0x2
 3836 1064 DE       		.byte	0xde
ARM GAS  C:\Users\haske\AppData\Local\Temp\ccwuLgOR.s 			page 88


 3837 1065 3F       		.uleb128 0x3f
 3838 1066 B6040000 		.4byte	.LASF137
 3839 106a B6040000 		.4byte	.LASF137
 3840 106e 07       		.byte	0x7
 3841 106f EF       		.byte	0xef
 3842 1070 00       		.byte	0
 3843              		.section	.debug_abbrev,"",%progbits
 3844              	.Ldebug_abbrev0:
 3845 0000 01       		.uleb128 0x1
 3846 0001 11       		.uleb128 0x11
 3847 0002 01       		.byte	0x1
 3848 0003 25       		.uleb128 0x25
 3849 0004 0E       		.uleb128 0xe
 3850 0005 13       		.uleb128 0x13
 3851 0006 0B       		.uleb128 0xb
 3852 0007 03       		.uleb128 0x3
 3853 0008 0E       		.uleb128 0xe
 3854 0009 1B       		.uleb128 0x1b
 3855 000a 0E       		.uleb128 0xe
 3856 000b 55       		.uleb128 0x55
 3857 000c 17       		.uleb128 0x17
 3858 000d 11       		.uleb128 0x11
 3859 000e 01       		.uleb128 0x1
 3860 000f 10       		.uleb128 0x10
 3861 0010 17       		.uleb128 0x17
 3862 0011 00       		.byte	0
 3863 0012 00       		.byte	0
 3864 0013 02       		.uleb128 0x2
 3865 0014 24       		.uleb128 0x24
 3866 0015 00       		.byte	0
 3867 0016 0B       		.uleb128 0xb
 3868 0017 0B       		.uleb128 0xb
 3869 0018 3E       		.uleb128 0x3e
 3870 0019 0B       		.uleb128 0xb
 3871 001a 03       		.uleb128 0x3
 3872 001b 08       		.uleb128 0x8
 3873 001c 00       		.byte	0
 3874 001d 00       		.byte	0
 3875 001e 03       		.uleb128 0x3
 3876 001f 16       		.uleb128 0x16
 3877 0020 00       		.byte	0
 3878 0021 03       		.uleb128 0x3
 3879 0022 0E       		.uleb128 0xe
 3880 0023 3A       		.uleb128 0x3a
 3881 0024 0B       		.uleb128 0xb
 3882 0025 3B       		.uleb128 0x3b
 3883 0026 0B       		.uleb128 0xb
 3884 0027 49       		.uleb128 0x49
 3885 0028 13       		.uleb128 0x13
 3886 0029 00       		.byte	0
 3887 002a 00       		.byte	0
 3888 002b 04       		.uleb128 0x4
 3889 002c 24       		.uleb128 0x24
 3890 002d 00       		.byte	0
 3891 002e 0B       		.uleb128 0xb
 3892 002f 0B       		.uleb128 0xb
 3893 0030 3E       		.uleb128 0x3e
ARM GAS  C:\Users\haske\AppData\Local\Temp\ccwuLgOR.s 			page 89


 3894 0031 0B       		.uleb128 0xb
 3895 0032 03       		.uleb128 0x3
 3896 0033 0E       		.uleb128 0xe
 3897 0034 00       		.byte	0
 3898 0035 00       		.byte	0
 3899 0036 05       		.uleb128 0x5
 3900 0037 0F       		.uleb128 0xf
 3901 0038 00       		.byte	0
 3902 0039 0B       		.uleb128 0xb
 3903 003a 0B       		.uleb128 0xb
 3904 003b 00       		.byte	0
 3905 003c 00       		.byte	0
 3906 003d 06       		.uleb128 0x6
 3907 003e 04       		.uleb128 0x4
 3908 003f 01       		.byte	0x1
 3909 0040 0B       		.uleb128 0xb
 3910 0041 0B       		.uleb128 0xb
 3911 0042 49       		.uleb128 0x49
 3912 0043 13       		.uleb128 0x13
 3913 0044 3A       		.uleb128 0x3a
 3914 0045 0B       		.uleb128 0xb
 3915 0046 3B       		.uleb128 0x3b
 3916 0047 0B       		.uleb128 0xb
 3917 0048 01       		.uleb128 0x1
 3918 0049 13       		.uleb128 0x13
 3919 004a 00       		.byte	0
 3920 004b 00       		.byte	0
 3921 004c 07       		.uleb128 0x7
 3922 004d 28       		.uleb128 0x28
 3923 004e 00       		.byte	0
 3924 004f 03       		.uleb128 0x3
 3925 0050 0E       		.uleb128 0xe
 3926 0051 1C       		.uleb128 0x1c
 3927 0052 0B       		.uleb128 0xb
 3928 0053 00       		.byte	0
 3929 0054 00       		.byte	0
 3930 0055 08       		.uleb128 0x8
 3931 0056 13       		.uleb128 0x13
 3932 0057 01       		.byte	0x1
 3933 0058 0B       		.uleb128 0xb
 3934 0059 0B       		.uleb128 0xb
 3935 005a 3A       		.uleb128 0x3a
 3936 005b 0B       		.uleb128 0xb
 3937 005c 3B       		.uleb128 0x3b
 3938 005d 0B       		.uleb128 0xb
 3939 005e 01       		.uleb128 0x1
 3940 005f 13       		.uleb128 0x13
 3941 0060 00       		.byte	0
 3942 0061 00       		.byte	0
 3943 0062 09       		.uleb128 0x9
 3944 0063 0D       		.uleb128 0xd
 3945 0064 00       		.byte	0
 3946 0065 03       		.uleb128 0x3
 3947 0066 0E       		.uleb128 0xe
 3948 0067 3A       		.uleb128 0x3a
 3949 0068 0B       		.uleb128 0xb
 3950 0069 3B       		.uleb128 0x3b
ARM GAS  C:\Users\haske\AppData\Local\Temp\ccwuLgOR.s 			page 90


 3951 006a 0B       		.uleb128 0xb
 3952 006b 49       		.uleb128 0x49
 3953 006c 13       		.uleb128 0x13
 3954 006d 0B       		.uleb128 0xb
 3955 006e 0B       		.uleb128 0xb
 3956 006f 0D       		.uleb128 0xd
 3957 0070 0B       		.uleb128 0xb
 3958 0071 0C       		.uleb128 0xc
 3959 0072 0B       		.uleb128 0xb
 3960 0073 38       		.uleb128 0x38
 3961 0074 0B       		.uleb128 0xb
 3962 0075 00       		.byte	0
 3963 0076 00       		.byte	0
 3964 0077 0A       		.uleb128 0xa
 3965 0078 0D       		.uleb128 0xd
 3966 0079 00       		.byte	0
 3967 007a 03       		.uleb128 0x3
 3968 007b 08       		.uleb128 0x8
 3969 007c 3A       		.uleb128 0x3a
 3970 007d 0B       		.uleb128 0xb
 3971 007e 3B       		.uleb128 0x3b
 3972 007f 0B       		.uleb128 0xb
 3973 0080 49       		.uleb128 0x49
 3974 0081 13       		.uleb128 0x13
 3975 0082 0B       		.uleb128 0xb
 3976 0083 0B       		.uleb128 0xb
 3977 0084 0D       		.uleb128 0xd
 3978 0085 0B       		.uleb128 0xb
 3979 0086 0C       		.uleb128 0xc
 3980 0087 0B       		.uleb128 0xb
 3981 0088 38       		.uleb128 0x38
 3982 0089 0B       		.uleb128 0xb
 3983 008a 00       		.byte	0
 3984 008b 00       		.byte	0
 3985 008c 0B       		.uleb128 0xb
 3986 008d 17       		.uleb128 0x17
 3987 008e 01       		.byte	0x1
 3988 008f 0B       		.uleb128 0xb
 3989 0090 0B       		.uleb128 0xb
 3990 0091 3A       		.uleb128 0x3a
 3991 0092 0B       		.uleb128 0xb
 3992 0093 3B       		.uleb128 0x3b
 3993 0094 0B       		.uleb128 0xb
 3994 0095 01       		.uleb128 0x1
 3995 0096 13       		.uleb128 0x13
 3996 0097 00       		.byte	0
 3997 0098 00       		.byte	0
 3998 0099 0C       		.uleb128 0xc
 3999 009a 0D       		.uleb128 0xd
 4000 009b 00       		.byte	0
 4001 009c 03       		.uleb128 0x3
 4002 009d 08       		.uleb128 0x8
 4003 009e 3A       		.uleb128 0x3a
 4004 009f 0B       		.uleb128 0xb
 4005 00a0 3B       		.uleb128 0x3b
 4006 00a1 0B       		.uleb128 0xb
 4007 00a2 49       		.uleb128 0x49
ARM GAS  C:\Users\haske\AppData\Local\Temp\ccwuLgOR.s 			page 91


 4008 00a3 13       		.uleb128 0x13
 4009 00a4 00       		.byte	0
 4010 00a5 00       		.byte	0
 4011 00a6 0D       		.uleb128 0xd
 4012 00a7 0D       		.uleb128 0xd
 4013 00a8 00       		.byte	0
 4014 00a9 03       		.uleb128 0x3
 4015 00aa 0E       		.uleb128 0xe
 4016 00ab 3A       		.uleb128 0x3a
 4017 00ac 0B       		.uleb128 0xb
 4018 00ad 3B       		.uleb128 0x3b
 4019 00ae 0B       		.uleb128 0xb
 4020 00af 49       		.uleb128 0x49
 4021 00b0 13       		.uleb128 0x13
 4022 00b1 00       		.byte	0
 4023 00b2 00       		.byte	0
 4024 00b3 0E       		.uleb128 0xe
 4025 00b4 0D       		.uleb128 0xd
 4026 00b5 00       		.byte	0
 4027 00b6 03       		.uleb128 0x3
 4028 00b7 0E       		.uleb128 0xe
 4029 00b8 3A       		.uleb128 0x3a
 4030 00b9 0B       		.uleb128 0xb
 4031 00ba 3B       		.uleb128 0x3b
 4032 00bb 0B       		.uleb128 0xb
 4033 00bc 49       		.uleb128 0x49
 4034 00bd 13       		.uleb128 0x13
 4035 00be 38       		.uleb128 0x38
 4036 00bf 0B       		.uleb128 0xb
 4037 00c0 00       		.byte	0
 4038 00c1 00       		.byte	0
 4039 00c2 0F       		.uleb128 0xf
 4040 00c3 0D       		.uleb128 0xd
 4041 00c4 00       		.byte	0
 4042 00c5 03       		.uleb128 0x3
 4043 00c6 08       		.uleb128 0x8
 4044 00c7 3A       		.uleb128 0x3a
 4045 00c8 0B       		.uleb128 0xb
 4046 00c9 3B       		.uleb128 0x3b
 4047 00ca 0B       		.uleb128 0xb
 4048 00cb 49       		.uleb128 0x49
 4049 00cc 13       		.uleb128 0x13
 4050 00cd 38       		.uleb128 0x38
 4051 00ce 0B       		.uleb128 0xb
 4052 00cf 00       		.byte	0
 4053 00d0 00       		.byte	0
 4054 00d1 10       		.uleb128 0x10
 4055 00d2 0F       		.uleb128 0xf
 4056 00d3 00       		.byte	0
 4057 00d4 0B       		.uleb128 0xb
 4058 00d5 0B       		.uleb128 0xb
 4059 00d6 49       		.uleb128 0x49
 4060 00d7 13       		.uleb128 0x13
 4061 00d8 00       		.byte	0
 4062 00d9 00       		.byte	0
 4063 00da 11       		.uleb128 0x11
 4064 00db 26       		.uleb128 0x26
ARM GAS  C:\Users\haske\AppData\Local\Temp\ccwuLgOR.s 			page 92


 4065 00dc 00       		.byte	0
 4066 00dd 49       		.uleb128 0x49
 4067 00de 13       		.uleb128 0x13
 4068 00df 00       		.byte	0
 4069 00e0 00       		.byte	0
 4070 00e1 12       		.uleb128 0x12
 4071 00e2 26       		.uleb128 0x26
 4072 00e3 00       		.byte	0
 4073 00e4 00       		.byte	0
 4074 00e5 00       		.byte	0
 4075 00e6 13       		.uleb128 0x13
 4076 00e7 13       		.uleb128 0x13
 4077 00e8 01       		.byte	0x1
 4078 00e9 03       		.uleb128 0x3
 4079 00ea 0E       		.uleb128 0xe
 4080 00eb 0B       		.uleb128 0xb
 4081 00ec 0B       		.uleb128 0xb
 4082 00ed 3A       		.uleb128 0x3a
 4083 00ee 0B       		.uleb128 0xb
 4084 00ef 3B       		.uleb128 0x3b
 4085 00f0 0B       		.uleb128 0xb
 4086 00f1 01       		.uleb128 0x1
 4087 00f2 13       		.uleb128 0x13
 4088 00f3 00       		.byte	0
 4089 00f4 00       		.byte	0
 4090 00f5 14       		.uleb128 0x14
 4091 00f6 15       		.uleb128 0x15
 4092 00f7 01       		.byte	0x1
 4093 00f8 27       		.uleb128 0x27
 4094 00f9 19       		.uleb128 0x19
 4095 00fa 49       		.uleb128 0x49
 4096 00fb 13       		.uleb128 0x13
 4097 00fc 01       		.uleb128 0x1
 4098 00fd 13       		.uleb128 0x13
 4099 00fe 00       		.byte	0
 4100 00ff 00       		.byte	0
 4101 0100 15       		.uleb128 0x15
 4102 0101 05       		.uleb128 0x5
 4103 0102 00       		.byte	0
 4104 0103 49       		.uleb128 0x49
 4105 0104 13       		.uleb128 0x13
 4106 0105 00       		.byte	0
 4107 0106 00       		.byte	0
 4108 0107 16       		.uleb128 0x16
 4109 0108 2E       		.uleb128 0x2e
 4110 0109 01       		.byte	0x1
 4111 010a 03       		.uleb128 0x3
 4112 010b 0E       		.uleb128 0xe
 4113 010c 3A       		.uleb128 0x3a
 4114 010d 0B       		.uleb128 0xb
 4115 010e 3B       		.uleb128 0x3b
 4116 010f 05       		.uleb128 0x5
 4117 0110 27       		.uleb128 0x27
 4118 0111 19       		.uleb128 0x19
 4119 0112 49       		.uleb128 0x49
 4120 0113 13       		.uleb128 0x13
 4121 0114 20       		.uleb128 0x20
ARM GAS  C:\Users\haske\AppData\Local\Temp\ccwuLgOR.s 			page 93


 4122 0115 0B       		.uleb128 0xb
 4123 0116 01       		.uleb128 0x1
 4124 0117 13       		.uleb128 0x13
 4125 0118 00       		.byte	0
 4126 0119 00       		.byte	0
 4127 011a 17       		.uleb128 0x17
 4128 011b 05       		.uleb128 0x5
 4129 011c 00       		.byte	0
 4130 011d 03       		.uleb128 0x3
 4131 011e 08       		.uleb128 0x8
 4132 011f 3A       		.uleb128 0x3a
 4133 0120 0B       		.uleb128 0xb
 4134 0121 3B       		.uleb128 0x3b
 4135 0122 05       		.uleb128 0x5
 4136 0123 49       		.uleb128 0x49
 4137 0124 13       		.uleb128 0x13
 4138 0125 00       		.byte	0
 4139 0126 00       		.byte	0
 4140 0127 18       		.uleb128 0x18
 4141 0128 2E       		.uleb128 0x2e
 4142 0129 00       		.byte	0
 4143 012a 03       		.uleb128 0x3
 4144 012b 0E       		.uleb128 0xe
 4145 012c 3A       		.uleb128 0x3a
 4146 012d 0B       		.uleb128 0xb
 4147 012e 3B       		.uleb128 0x3b
 4148 012f 05       		.uleb128 0x5
 4149 0130 27       		.uleb128 0x27
 4150 0131 19       		.uleb128 0x19
 4151 0132 49       		.uleb128 0x49
 4152 0133 13       		.uleb128 0x13
 4153 0134 20       		.uleb128 0x20
 4154 0135 0B       		.uleb128 0xb
 4155 0136 00       		.byte	0
 4156 0137 00       		.byte	0
 4157 0138 19       		.uleb128 0x19
 4158 0139 2E       		.uleb128 0x2e
 4159 013a 01       		.byte	0x1
 4160 013b 03       		.uleb128 0x3
 4161 013c 0E       		.uleb128 0xe
 4162 013d 3A       		.uleb128 0x3a
 4163 013e 0B       		.uleb128 0xb
 4164 013f 3B       		.uleb128 0x3b
 4165 0140 0B       		.uleb128 0xb
 4166 0141 27       		.uleb128 0x27
 4167 0142 19       		.uleb128 0x19
 4168 0143 49       		.uleb128 0x49
 4169 0144 13       		.uleb128 0x13
 4170 0145 20       		.uleb128 0x20
 4171 0146 0B       		.uleb128 0xb
 4172 0147 01       		.uleb128 0x1
 4173 0148 13       		.uleb128 0x13
 4174 0149 00       		.byte	0
 4175 014a 00       		.byte	0
 4176 014b 1A       		.uleb128 0x1a
 4177 014c 05       		.uleb128 0x5
 4178 014d 00       		.byte	0
ARM GAS  C:\Users\haske\AppData\Local\Temp\ccwuLgOR.s 			page 94


 4179 014e 03       		.uleb128 0x3
 4180 014f 08       		.uleb128 0x8
 4181 0150 3A       		.uleb128 0x3a
 4182 0151 0B       		.uleb128 0xb
 4183 0152 3B       		.uleb128 0x3b
 4184 0153 0B       		.uleb128 0xb
 4185 0154 49       		.uleb128 0x49
 4186 0155 13       		.uleb128 0x13
 4187 0156 00       		.byte	0
 4188 0157 00       		.byte	0
 4189 0158 1B       		.uleb128 0x1b
 4190 0159 34       		.uleb128 0x34
 4191 015a 00       		.byte	0
 4192 015b 03       		.uleb128 0x3
 4193 015c 08       		.uleb128 0x8
 4194 015d 3A       		.uleb128 0x3a
 4195 015e 0B       		.uleb128 0xb
 4196 015f 3B       		.uleb128 0x3b
 4197 0160 0B       		.uleb128 0xb
 4198 0161 49       		.uleb128 0x49
 4199 0162 13       		.uleb128 0x13
 4200 0163 00       		.byte	0
 4201 0164 00       		.byte	0
 4202 0165 1C       		.uleb128 0x1c
 4203 0166 05       		.uleb128 0x5
 4204 0167 00       		.byte	0
 4205 0168 03       		.uleb128 0x3
 4206 0169 0E       		.uleb128 0xe
 4207 016a 3A       		.uleb128 0x3a
 4208 016b 0B       		.uleb128 0xb
 4209 016c 3B       		.uleb128 0x3b
 4210 016d 05       		.uleb128 0x5
 4211 016e 49       		.uleb128 0x49
 4212 016f 13       		.uleb128 0x13
 4213 0170 00       		.byte	0
 4214 0171 00       		.byte	0
 4215 0172 1D       		.uleb128 0x1d
 4216 0173 34       		.uleb128 0x34
 4217 0174 00       		.byte	0
 4218 0175 03       		.uleb128 0x3
 4219 0176 08       		.uleb128 0x8
 4220 0177 3A       		.uleb128 0x3a
 4221 0178 0B       		.uleb128 0xb
 4222 0179 3B       		.uleb128 0x3b
 4223 017a 05       		.uleb128 0x5
 4224 017b 49       		.uleb128 0x49
 4225 017c 13       		.uleb128 0x13
 4226 017d 00       		.byte	0
 4227 017e 00       		.byte	0
 4228 017f 1E       		.uleb128 0x1e
 4229 0180 2E       		.uleb128 0x2e
 4230 0181 01       		.byte	0x1
 4231 0182 3F       		.uleb128 0x3f
 4232 0183 19       		.uleb128 0x19
 4233 0184 03       		.uleb128 0x3
 4234 0185 0E       		.uleb128 0xe
 4235 0186 3A       		.uleb128 0x3a
ARM GAS  C:\Users\haske\AppData\Local\Temp\ccwuLgOR.s 			page 95


 4236 0187 0B       		.uleb128 0xb
 4237 0188 3B       		.uleb128 0x3b
 4238 0189 0B       		.uleb128 0xb
 4239 018a 27       		.uleb128 0x27
 4240 018b 19       		.uleb128 0x19
 4241 018c 49       		.uleb128 0x49
 4242 018d 13       		.uleb128 0x13
 4243 018e 11       		.uleb128 0x11
 4244 018f 01       		.uleb128 0x1
 4245 0190 12       		.uleb128 0x12
 4246 0191 06       		.uleb128 0x6
 4247 0192 40       		.uleb128 0x40
 4248 0193 18       		.uleb128 0x18
 4249 0194 9742     		.uleb128 0x2117
 4250 0196 19       		.uleb128 0x19
 4251 0197 01       		.uleb128 0x1
 4252 0198 13       		.uleb128 0x13
 4253 0199 00       		.byte	0
 4254 019a 00       		.byte	0
 4255 019b 1F       		.uleb128 0x1f
 4256 019c 05       		.uleb128 0x5
 4257 019d 00       		.byte	0
 4258 019e 03       		.uleb128 0x3
 4259 019f 08       		.uleb128 0x8
 4260 01a0 3A       		.uleb128 0x3a
 4261 01a1 0B       		.uleb128 0xb
 4262 01a2 3B       		.uleb128 0x3b
 4263 01a3 0B       		.uleb128 0xb
 4264 01a4 49       		.uleb128 0x49
 4265 01a5 13       		.uleb128 0x13
 4266 01a6 02       		.uleb128 0x2
 4267 01a7 17       		.uleb128 0x17
 4268 01a8 00       		.byte	0
 4269 01a9 00       		.byte	0
 4270 01aa 20       		.uleb128 0x20
 4271 01ab 05       		.uleb128 0x5
 4272 01ac 00       		.byte	0
 4273 01ad 03       		.uleb128 0x3
 4274 01ae 0E       		.uleb128 0xe
 4275 01af 3A       		.uleb128 0x3a
 4276 01b0 0B       		.uleb128 0xb
 4277 01b1 3B       		.uleb128 0x3b
 4278 01b2 0B       		.uleb128 0xb
 4279 01b3 49       		.uleb128 0x49
 4280 01b4 13       		.uleb128 0x13
 4281 01b5 02       		.uleb128 0x2
 4282 01b6 17       		.uleb128 0x17
 4283 01b7 00       		.byte	0
 4284 01b8 00       		.byte	0
 4285 01b9 21       		.uleb128 0x21
 4286 01ba 34       		.uleb128 0x34
 4287 01bb 00       		.byte	0
 4288 01bc 03       		.uleb128 0x3
 4289 01bd 0E       		.uleb128 0xe
 4290 01be 3A       		.uleb128 0x3a
 4291 01bf 0B       		.uleb128 0xb
 4292 01c0 3B       		.uleb128 0x3b
ARM GAS  C:\Users\haske\AppData\Local\Temp\ccwuLgOR.s 			page 96


 4293 01c1 0B       		.uleb128 0xb
 4294 01c2 49       		.uleb128 0x49
 4295 01c3 13       		.uleb128 0x13
 4296 01c4 02       		.uleb128 0x2
 4297 01c5 18       		.uleb128 0x18
 4298 01c6 00       		.byte	0
 4299 01c7 00       		.byte	0
 4300 01c8 22       		.uleb128 0x22
 4301 01c9 34       		.uleb128 0x34
 4302 01ca 00       		.byte	0
 4303 01cb 03       		.uleb128 0x3
 4304 01cc 0E       		.uleb128 0xe
 4305 01cd 3A       		.uleb128 0x3a
 4306 01ce 0B       		.uleb128 0xb
 4307 01cf 3B       		.uleb128 0x3b
 4308 01d0 0B       		.uleb128 0xb
 4309 01d1 49       		.uleb128 0x49
 4310 01d2 13       		.uleb128 0x13
 4311 01d3 02       		.uleb128 0x2
 4312 01d4 17       		.uleb128 0x17
 4313 01d5 00       		.byte	0
 4314 01d6 00       		.byte	0
 4315 01d7 23       		.uleb128 0x23
 4316 01d8 0B       		.uleb128 0xb
 4317 01d9 01       		.byte	0x1
 4318 01da 11       		.uleb128 0x11
 4319 01db 01       		.uleb128 0x1
 4320 01dc 12       		.uleb128 0x12
 4321 01dd 06       		.uleb128 0x6
 4322 01de 01       		.uleb128 0x1
 4323 01df 13       		.uleb128 0x13
 4324 01e0 00       		.byte	0
 4325 01e1 00       		.byte	0
 4326 01e2 24       		.uleb128 0x24
 4327 01e3 34       		.uleb128 0x34
 4328 01e4 00       		.byte	0
 4329 01e5 03       		.uleb128 0x3
 4330 01e6 08       		.uleb128 0x8
 4331 01e7 3A       		.uleb128 0x3a
 4332 01e8 0B       		.uleb128 0xb
 4333 01e9 3B       		.uleb128 0x3b
 4334 01ea 0B       		.uleb128 0xb
 4335 01eb 49       		.uleb128 0x49
 4336 01ec 13       		.uleb128 0x13
 4337 01ed 02       		.uleb128 0x2
 4338 01ee 17       		.uleb128 0x17
 4339 01ef 00       		.byte	0
 4340 01f0 00       		.byte	0
 4341 01f1 25       		.uleb128 0x25
 4342 01f2 1D       		.uleb128 0x1d
 4343 01f3 01       		.byte	0x1
 4344 01f4 31       		.uleb128 0x31
 4345 01f5 13       		.uleb128 0x13
 4346 01f6 52       		.uleb128 0x52
 4347 01f7 01       		.uleb128 0x1
 4348 01f8 55       		.uleb128 0x55
 4349 01f9 17       		.uleb128 0x17
ARM GAS  C:\Users\haske\AppData\Local\Temp\ccwuLgOR.s 			page 97


 4350 01fa 58       		.uleb128 0x58
 4351 01fb 0B       		.uleb128 0xb
 4352 01fc 59       		.uleb128 0x59
 4353 01fd 0B       		.uleb128 0xb
 4354 01fe 01       		.uleb128 0x1
 4355 01ff 13       		.uleb128 0x13
 4356 0200 00       		.byte	0
 4357 0201 00       		.byte	0
 4358 0202 26       		.uleb128 0x26
 4359 0203 05       		.uleb128 0x5
 4360 0204 00       		.byte	0
 4361 0205 31       		.uleb128 0x31
 4362 0206 13       		.uleb128 0x13
 4363 0207 02       		.uleb128 0x2
 4364 0208 17       		.uleb128 0x17
 4365 0209 00       		.byte	0
 4366 020a 00       		.byte	0
 4367 020b 27       		.uleb128 0x27
 4368 020c 0B       		.uleb128 0xb
 4369 020d 01       		.byte	0x1
 4370 020e 55       		.uleb128 0x55
 4371 020f 17       		.uleb128 0x17
 4372 0210 00       		.byte	0
 4373 0211 00       		.byte	0
 4374 0212 28       		.uleb128 0x28
 4375 0213 34       		.uleb128 0x34
 4376 0214 00       		.byte	0
 4377 0215 31       		.uleb128 0x31
 4378 0216 13       		.uleb128 0x13
 4379 0217 02       		.uleb128 0x2
 4380 0218 17       		.uleb128 0x17
 4381 0219 00       		.byte	0
 4382 021a 00       		.byte	0
 4383 021b 29       		.uleb128 0x29
 4384 021c 898201   		.uleb128 0x4109
 4385 021f 00       		.byte	0
 4386 0220 11       		.uleb128 0x11
 4387 0221 01       		.uleb128 0x1
 4388 0222 31       		.uleb128 0x31
 4389 0223 13       		.uleb128 0x13
 4390 0224 00       		.byte	0
 4391 0225 00       		.byte	0
 4392 0226 2A       		.uleb128 0x2a
 4393 0227 0B       		.uleb128 0xb
 4394 0228 01       		.byte	0x1
 4395 0229 11       		.uleb128 0x11
 4396 022a 01       		.uleb128 0x1
 4397 022b 12       		.uleb128 0x12
 4398 022c 06       		.uleb128 0x6
 4399 022d 00       		.byte	0
 4400 022e 00       		.byte	0
 4401 022f 2B       		.uleb128 0x2b
 4402 0230 0B       		.uleb128 0xb
 4403 0231 01       		.byte	0x1
 4404 0232 55       		.uleb128 0x55
 4405 0233 17       		.uleb128 0x17
 4406 0234 01       		.uleb128 0x1
ARM GAS  C:\Users\haske\AppData\Local\Temp\ccwuLgOR.s 			page 98


 4407 0235 13       		.uleb128 0x13
 4408 0236 00       		.byte	0
 4409 0237 00       		.byte	0
 4410 0238 2C       		.uleb128 0x2c
 4411 0239 898201   		.uleb128 0x4109
 4412 023c 01       		.byte	0x1
 4413 023d 11       		.uleb128 0x11
 4414 023e 01       		.uleb128 0x1
 4415 023f 31       		.uleb128 0x31
 4416 0240 13       		.uleb128 0x13
 4417 0241 00       		.byte	0
 4418 0242 00       		.byte	0
 4419 0243 2D       		.uleb128 0x2d
 4420 0244 8A8201   		.uleb128 0x410a
 4421 0247 00       		.byte	0
 4422 0248 02       		.uleb128 0x2
 4423 0249 18       		.uleb128 0x18
 4424 024a 9142     		.uleb128 0x2111
 4425 024c 18       		.uleb128 0x18
 4426 024d 00       		.byte	0
 4427 024e 00       		.byte	0
 4428 024f 2E       		.uleb128 0x2e
 4429 0250 01       		.uleb128 0x1
 4430 0251 01       		.byte	0x1
 4431 0252 49       		.uleb128 0x49
 4432 0253 13       		.uleb128 0x13
 4433 0254 01       		.uleb128 0x1
 4434 0255 13       		.uleb128 0x13
 4435 0256 00       		.byte	0
 4436 0257 00       		.byte	0
 4437 0258 2F       		.uleb128 0x2f
 4438 0259 21       		.uleb128 0x21
 4439 025a 00       		.byte	0
 4440 025b 49       		.uleb128 0x49
 4441 025c 13       		.uleb128 0x13
 4442 025d 2F       		.uleb128 0x2f
 4443 025e 0B       		.uleb128 0xb
 4444 025f 00       		.byte	0
 4445 0260 00       		.byte	0
 4446 0261 30       		.uleb128 0x30
 4447 0262 2E       		.uleb128 0x2e
 4448 0263 01       		.byte	0x1
 4449 0264 3F       		.uleb128 0x3f
 4450 0265 19       		.uleb128 0x19
 4451 0266 03       		.uleb128 0x3
 4452 0267 0E       		.uleb128 0xe
 4453 0268 3A       		.uleb128 0x3a
 4454 0269 0B       		.uleb128 0xb
 4455 026a 3B       		.uleb128 0x3b
 4456 026b 0B       		.uleb128 0xb
 4457 026c 27       		.uleb128 0x27
 4458 026d 19       		.uleb128 0x19
 4459 026e 11       		.uleb128 0x11
 4460 026f 01       		.uleb128 0x1
 4461 0270 12       		.uleb128 0x12
 4462 0271 06       		.uleb128 0x6
 4463 0272 40       		.uleb128 0x40
ARM GAS  C:\Users\haske\AppData\Local\Temp\ccwuLgOR.s 			page 99


 4464 0273 18       		.uleb128 0x18
 4465 0274 9742     		.uleb128 0x2117
 4466 0276 19       		.uleb128 0x19
 4467 0277 01       		.uleb128 0x1
 4468 0278 13       		.uleb128 0x13
 4469 0279 00       		.byte	0
 4470 027a 00       		.byte	0
 4471 027b 31       		.uleb128 0x31
 4472 027c 05       		.uleb128 0x5
 4473 027d 00       		.byte	0
 4474 027e 03       		.uleb128 0x3
 4475 027f 08       		.uleb128 0x8
 4476 0280 3A       		.uleb128 0x3a
 4477 0281 0B       		.uleb128 0xb
 4478 0282 3B       		.uleb128 0x3b
 4479 0283 0B       		.uleb128 0xb
 4480 0284 49       		.uleb128 0x49
 4481 0285 13       		.uleb128 0x13
 4482 0286 02       		.uleb128 0x2
 4483 0287 18       		.uleb128 0x18
 4484 0288 00       		.byte	0
 4485 0289 00       		.byte	0
 4486 028a 32       		.uleb128 0x32
 4487 028b 1D       		.uleb128 0x1d
 4488 028c 01       		.byte	0x1
 4489 028d 31       		.uleb128 0x31
 4490 028e 13       		.uleb128 0x13
 4491 028f 11       		.uleb128 0x11
 4492 0290 01       		.uleb128 0x1
 4493 0291 12       		.uleb128 0x12
 4494 0292 06       		.uleb128 0x6
 4495 0293 58       		.uleb128 0x58
 4496 0294 0B       		.uleb128 0xb
 4497 0295 59       		.uleb128 0x59
 4498 0296 0B       		.uleb128 0xb
 4499 0297 01       		.uleb128 0x1
 4500 0298 13       		.uleb128 0x13
 4501 0299 00       		.byte	0
 4502 029a 00       		.byte	0
 4503 029b 33       		.uleb128 0x33
 4504 029c 34       		.uleb128 0x34
 4505 029d 00       		.byte	0
 4506 029e 03       		.uleb128 0x3
 4507 029f 08       		.uleb128 0x8
 4508 02a0 3A       		.uleb128 0x3a
 4509 02a1 0B       		.uleb128 0xb
 4510 02a2 3B       		.uleb128 0x3b
 4511 02a3 05       		.uleb128 0x5
 4512 02a4 49       		.uleb128 0x49
 4513 02a5 13       		.uleb128 0x13
 4514 02a6 02       		.uleb128 0x2
 4515 02a7 17       		.uleb128 0x17
 4516 02a8 00       		.byte	0
 4517 02a9 00       		.byte	0
 4518 02aa 34       		.uleb128 0x34
 4519 02ab 2E       		.uleb128 0x2e
 4520 02ac 01       		.byte	0x1
ARM GAS  C:\Users\haske\AppData\Local\Temp\ccwuLgOR.s 			page 100


 4521 02ad 3F       		.uleb128 0x3f
 4522 02ae 19       		.uleb128 0x19
 4523 02af 03       		.uleb128 0x3
 4524 02b0 0E       		.uleb128 0xe
 4525 02b1 3A       		.uleb128 0x3a
 4526 02b2 0B       		.uleb128 0xb
 4527 02b3 3B       		.uleb128 0x3b
 4528 02b4 05       		.uleb128 0x5
 4529 02b5 27       		.uleb128 0x27
 4530 02b6 19       		.uleb128 0x19
 4531 02b7 11       		.uleb128 0x11
 4532 02b8 01       		.uleb128 0x1
 4533 02b9 12       		.uleb128 0x12
 4534 02ba 06       		.uleb128 0x6
 4535 02bb 40       		.uleb128 0x40
 4536 02bc 18       		.uleb128 0x18
 4537 02bd 9742     		.uleb128 0x2117
 4538 02bf 19       		.uleb128 0x19
 4539 02c0 01       		.uleb128 0x1
 4540 02c1 13       		.uleb128 0x13
 4541 02c2 00       		.byte	0
 4542 02c3 00       		.byte	0
 4543 02c4 35       		.uleb128 0x35
 4544 02c5 05       		.uleb128 0x5
 4545 02c6 00       		.byte	0
 4546 02c7 03       		.uleb128 0x3
 4547 02c8 08       		.uleb128 0x8
 4548 02c9 3A       		.uleb128 0x3a
 4549 02ca 0B       		.uleb128 0xb
 4550 02cb 3B       		.uleb128 0x3b
 4551 02cc 05       		.uleb128 0x5
 4552 02cd 49       		.uleb128 0x49
 4553 02ce 13       		.uleb128 0x13
 4554 02cf 02       		.uleb128 0x2
 4555 02d0 17       		.uleb128 0x17
 4556 02d1 00       		.byte	0
 4557 02d2 00       		.byte	0
 4558 02d3 36       		.uleb128 0x36
 4559 02d4 34       		.uleb128 0x34
 4560 02d5 00       		.byte	0
 4561 02d6 03       		.uleb128 0x3
 4562 02d7 08       		.uleb128 0x8
 4563 02d8 3A       		.uleb128 0x3a
 4564 02d9 0B       		.uleb128 0xb
 4565 02da 3B       		.uleb128 0x3b
 4566 02db 05       		.uleb128 0x5
 4567 02dc 49       		.uleb128 0x49
 4568 02dd 13       		.uleb128 0x13
 4569 02de 02       		.uleb128 0x2
 4570 02df 18       		.uleb128 0x18
 4571 02e0 00       		.byte	0
 4572 02e1 00       		.byte	0
 4573 02e2 37       		.uleb128 0x37
 4574 02e3 1D       		.uleb128 0x1d
 4575 02e4 01       		.byte	0x1
 4576 02e5 31       		.uleb128 0x31
 4577 02e6 13       		.uleb128 0x13
ARM GAS  C:\Users\haske\AppData\Local\Temp\ccwuLgOR.s 			page 101


 4578 02e7 11       		.uleb128 0x11
 4579 02e8 01       		.uleb128 0x1
 4580 02e9 12       		.uleb128 0x12
 4581 02ea 06       		.uleb128 0x6
 4582 02eb 58       		.uleb128 0x58
 4583 02ec 0B       		.uleb128 0xb
 4584 02ed 59       		.uleb128 0x59
 4585 02ee 05       		.uleb128 0x5
 4586 02ef 01       		.uleb128 0x1
 4587 02f0 13       		.uleb128 0x13
 4588 02f1 00       		.byte	0
 4589 02f2 00       		.byte	0
 4590 02f3 38       		.uleb128 0x38
 4591 02f4 05       		.uleb128 0x5
 4592 02f5 00       		.byte	0
 4593 02f6 31       		.uleb128 0x31
 4594 02f7 13       		.uleb128 0x13
 4595 02f8 00       		.byte	0
 4596 02f9 00       		.byte	0
 4597 02fa 39       		.uleb128 0x39
 4598 02fb 1D       		.uleb128 0x1d
 4599 02fc 01       		.byte	0x1
 4600 02fd 31       		.uleb128 0x31
 4601 02fe 13       		.uleb128 0x13
 4602 02ff 52       		.uleb128 0x52
 4603 0300 01       		.uleb128 0x1
 4604 0301 55       		.uleb128 0x55
 4605 0302 17       		.uleb128 0x17
 4606 0303 58       		.uleb128 0x58
 4607 0304 0B       		.uleb128 0xb
 4608 0305 59       		.uleb128 0x59
 4609 0306 05       		.uleb128 0x5
 4610 0307 00       		.byte	0
 4611 0308 00       		.byte	0
 4612 0309 3A       		.uleb128 0x3a
 4613 030a 2E       		.uleb128 0x2e
 4614 030b 01       		.byte	0x1
 4615 030c 3F       		.uleb128 0x3f
 4616 030d 19       		.uleb128 0x19
 4617 030e 03       		.uleb128 0x3
 4618 030f 0E       		.uleb128 0xe
 4619 0310 3A       		.uleb128 0x3a
 4620 0311 0B       		.uleb128 0xb
 4621 0312 3B       		.uleb128 0x3b
 4622 0313 05       		.uleb128 0x5
 4623 0314 27       		.uleb128 0x27
 4624 0315 19       		.uleb128 0x19
 4625 0316 49       		.uleb128 0x49
 4626 0317 13       		.uleb128 0x13
 4627 0318 11       		.uleb128 0x11
 4628 0319 01       		.uleb128 0x1
 4629 031a 12       		.uleb128 0x12
 4630 031b 06       		.uleb128 0x6
 4631 031c 40       		.uleb128 0x40
 4632 031d 18       		.uleb128 0x18
 4633 031e 9742     		.uleb128 0x2117
 4634 0320 19       		.uleb128 0x19
ARM GAS  C:\Users\haske\AppData\Local\Temp\ccwuLgOR.s 			page 102


 4635 0321 01       		.uleb128 0x1
 4636 0322 13       		.uleb128 0x13
 4637 0323 00       		.byte	0
 4638 0324 00       		.byte	0
 4639 0325 3B       		.uleb128 0x3b
 4640 0326 05       		.uleb128 0x5
 4641 0327 00       		.byte	0
 4642 0328 03       		.uleb128 0x3
 4643 0329 08       		.uleb128 0x8
 4644 032a 3A       		.uleb128 0x3a
 4645 032b 0B       		.uleb128 0xb
 4646 032c 3B       		.uleb128 0x3b
 4647 032d 05       		.uleb128 0x5
 4648 032e 49       		.uleb128 0x49
 4649 032f 13       		.uleb128 0x13
 4650 0330 02       		.uleb128 0x2
 4651 0331 18       		.uleb128 0x18
 4652 0332 00       		.byte	0
 4653 0333 00       		.byte	0
 4654 0334 3C       		.uleb128 0x3c
 4655 0335 898201   		.uleb128 0x4109
 4656 0338 01       		.byte	0x1
 4657 0339 11       		.uleb128 0x11
 4658 033a 01       		.uleb128 0x1
 4659 033b 31       		.uleb128 0x31
 4660 033c 13       		.uleb128 0x13
 4661 033d 01       		.uleb128 0x1
 4662 033e 13       		.uleb128 0x13
 4663 033f 00       		.byte	0
 4664 0340 00       		.byte	0
 4665 0341 3D       		.uleb128 0x3d
 4666 0342 05       		.uleb128 0x5
 4667 0343 00       		.byte	0
 4668 0344 03       		.uleb128 0x3
 4669 0345 0E       		.uleb128 0xe
 4670 0346 3A       		.uleb128 0x3a
 4671 0347 0B       		.uleb128 0xb
 4672 0348 3B       		.uleb128 0x3b
 4673 0349 05       		.uleb128 0x5
 4674 034a 49       		.uleb128 0x49
 4675 034b 13       		.uleb128 0x13
 4676 034c 02       		.uleb128 0x2
 4677 034d 17       		.uleb128 0x17
 4678 034e 00       		.byte	0
 4679 034f 00       		.byte	0
 4680 0350 3E       		.uleb128 0x3e
 4681 0351 34       		.uleb128 0x34
 4682 0352 00       		.byte	0
 4683 0353 03       		.uleb128 0x3
 4684 0354 0E       		.uleb128 0xe
 4685 0355 3A       		.uleb128 0x3a
 4686 0356 0B       		.uleb128 0xb
 4687 0357 3B       		.uleb128 0x3b
 4688 0358 0B       		.uleb128 0xb
 4689 0359 49       		.uleb128 0x49
 4690 035a 13       		.uleb128 0x13
 4691 035b 3F       		.uleb128 0x3f
ARM GAS  C:\Users\haske\AppData\Local\Temp\ccwuLgOR.s 			page 103


 4692 035c 19       		.uleb128 0x19
 4693 035d 3C       		.uleb128 0x3c
 4694 035e 19       		.uleb128 0x19
 4695 035f 00       		.byte	0
 4696 0360 00       		.byte	0
 4697 0361 3F       		.uleb128 0x3f
 4698 0362 2E       		.uleb128 0x2e
 4699 0363 00       		.byte	0
 4700 0364 3F       		.uleb128 0x3f
 4701 0365 19       		.uleb128 0x19
 4702 0366 3C       		.uleb128 0x3c
 4703 0367 19       		.uleb128 0x19
 4704 0368 6E       		.uleb128 0x6e
 4705 0369 0E       		.uleb128 0xe
 4706 036a 03       		.uleb128 0x3
 4707 036b 0E       		.uleb128 0xe
 4708 036c 3A       		.uleb128 0x3a
 4709 036d 0B       		.uleb128 0xb
 4710 036e 3B       		.uleb128 0x3b
 4711 036f 0B       		.uleb128 0xb
 4712 0370 00       		.byte	0
 4713 0371 00       		.byte	0
 4714 0372 40       		.uleb128 0x40
 4715 0373 2E       		.uleb128 0x2e
 4716 0374 00       		.byte	0
 4717 0375 3F       		.uleb128 0x3f
 4718 0376 19       		.uleb128 0x19
 4719 0377 3C       		.uleb128 0x3c
 4720 0378 19       		.uleb128 0x19
 4721 0379 6E       		.uleb128 0x6e
 4722 037a 0E       		.uleb128 0xe
 4723 037b 03       		.uleb128 0x3
 4724 037c 0E       		.uleb128 0xe
 4725 037d 00       		.byte	0
 4726 037e 00       		.byte	0
 4727 037f 00       		.byte	0
 4728              		.section	.debug_loc,"",%progbits
 4729              	.Ldebug_loc0:
 4730              	.LLST0:
 4731 0000 00000000 		.4byte	.LVL0
 4732 0004 2A000000 		.4byte	.LVL5
 4733 0008 0100     		.2byte	0x1
 4734 000a 50       		.byte	0x50
 4735 000b 2A000000 		.4byte	.LVL5
 4736 000f 5A000000 		.4byte	.LVL16
 4737 0013 0100     		.2byte	0x1
 4738 0015 54       		.byte	0x54
 4739 0016 5A000000 		.4byte	.LVL16
 4740 001a 62000000 		.4byte	.LVL19
 4741 001e 0100     		.2byte	0x1
 4742 0020 50       		.byte	0x50
 4743 0021 62000000 		.4byte	.LVL19
 4744 0025 86000000 		.4byte	.LVL25
 4745 0029 0100     		.2byte	0x1
 4746 002b 54       		.byte	0x54
 4747 002c 86000000 		.4byte	.LVL25
 4748 0030 92000000 		.4byte	.LVL28
ARM GAS  C:\Users\haske\AppData\Local\Temp\ccwuLgOR.s 			page 104


 4749 0034 0100     		.2byte	0x1
 4750 0036 50       		.byte	0x50
 4751 0037 92000000 		.4byte	.LVL28
 4752 003b B6000000 		.4byte	.LVL34
 4753 003f 0100     		.2byte	0x1
 4754 0041 54       		.byte	0x54
 4755 0042 B6000000 		.4byte	.LVL34
 4756 0046 C2000000 		.4byte	.LVL37
 4757 004a 0100     		.2byte	0x1
 4758 004c 50       		.byte	0x50
 4759 004d C2000000 		.4byte	.LVL37
 4760 0051 E8000000 		.4byte	.LVL43
 4761 0055 0100     		.2byte	0x1
 4762 0057 54       		.byte	0x54
 4763 0058 E8000000 		.4byte	.LVL43
 4764 005c EE000000 		.4byte	.LVL45
 4765 0060 0100     		.2byte	0x1
 4766 0062 50       		.byte	0x50
 4767 0063 EE000000 		.4byte	.LVL45
 4768 0067 06010000 		.4byte	.LVL51
 4769 006b 0100     		.2byte	0x1
 4770 006d 54       		.byte	0x54
 4771 006e 06010000 		.4byte	.LVL51
 4772 0072 12010000 		.4byte	.LVL52
 4773 0076 0100     		.2byte	0x1
 4774 0078 50       		.byte	0x50
 4775 0079 12010000 		.4byte	.LVL52
 4776 007d 18010000 		.4byte	.LVL54
 4777 0081 0100     		.2byte	0x1
 4778 0083 54       		.byte	0x54
 4779 0084 18010000 		.4byte	.LVL54
 4780 0088 1A010000 		.4byte	.LFE54
 4781 008c 0400     		.2byte	0x4
 4782 008e F3       		.byte	0xf3
 4783 008f 01       		.uleb128 0x1
 4784 0090 50       		.byte	0x50
 4785 0091 9F       		.byte	0x9f
 4786 0092 00000000 		.4byte	0
 4787 0096 00000000 		.4byte	0
 4788              	.LLST1:
 4789 009a 00000000 		.4byte	.LVL0
 4790 009e 0E000000 		.4byte	.LVL3
 4791 00a2 0100     		.2byte	0x1
 4792 00a4 51       		.byte	0x51
 4793 00a5 0E000000 		.4byte	.LVL3
 4794 00a9 62000000 		.4byte	.LVL19
 4795 00ad 0400     		.2byte	0x4
 4796 00af F3       		.byte	0xf3
 4797 00b0 01       		.uleb128 0x1
 4798 00b1 51       		.byte	0x51
 4799 00b2 9F       		.byte	0x9f
 4800 00b3 62000000 		.4byte	.LVL19
 4801 00b7 70000000 		.4byte	.LVL21
 4802 00bb 0100     		.2byte	0x1
 4803 00bd 50       		.byte	0x50
 4804 00be 70000000 		.4byte	.LVL21
 4805 00c2 86000000 		.4byte	.LVL25
ARM GAS  C:\Users\haske\AppData\Local\Temp\ccwuLgOR.s 			page 105


 4806 00c6 0500     		.2byte	0x5
 4807 00c8 75       		.byte	0x75
 4808 00c9 00       		.sleb128 0
 4809 00ca 33       		.byte	0x33
 4810 00cb 26       		.byte	0x26
 4811 00cc 9F       		.byte	0x9f
 4812 00cd 86000000 		.4byte	.LVL25
 4813 00d1 92000000 		.4byte	.LVL28
 4814 00d5 0400     		.2byte	0x4
 4815 00d7 F3       		.byte	0xf3
 4816 00d8 01       		.uleb128 0x1
 4817 00d9 51       		.byte	0x51
 4818 00da 9F       		.byte	0x9f
 4819 00db 92000000 		.4byte	.LVL28
 4820 00df A0000000 		.4byte	.LVL30
 4821 00e3 0100     		.2byte	0x1
 4822 00e5 50       		.byte	0x50
 4823 00e6 A0000000 		.4byte	.LVL30
 4824 00ea B6000000 		.4byte	.LVL34
 4825 00ee 0500     		.2byte	0x5
 4826 00f0 75       		.byte	0x75
 4827 00f1 00       		.sleb128 0
 4828 00f2 32       		.byte	0x32
 4829 00f3 26       		.byte	0x26
 4830 00f4 9F       		.byte	0x9f
 4831 00f5 B6000000 		.4byte	.LVL34
 4832 00f9 C2000000 		.4byte	.LVL37
 4833 00fd 0400     		.2byte	0x4
 4834 00ff F3       		.byte	0xf3
 4835 0100 01       		.uleb128 0x1
 4836 0101 51       		.byte	0x51
 4837 0102 9F       		.byte	0x9f
 4838 0103 C2000000 		.4byte	.LVL37
 4839 0107 D0000000 		.4byte	.LVL39
 4840 010b 0100     		.2byte	0x1
 4841 010d 50       		.byte	0x50
 4842 010e D0000000 		.4byte	.LVL39
 4843 0112 E8000000 		.4byte	.LVL43
 4844 0116 0500     		.2byte	0x5
 4845 0118 75       		.byte	0x75
 4846 0119 00       		.sleb128 0
 4847 011a 31       		.byte	0x31
 4848 011b 26       		.byte	0x26
 4849 011c 9F       		.byte	0x9f
 4850 011d E8000000 		.4byte	.LVL43
 4851 0121 12010000 		.4byte	.LVL52
 4852 0125 0400     		.2byte	0x4
 4853 0127 F3       		.byte	0xf3
 4854 0128 01       		.uleb128 0x1
 4855 0129 51       		.byte	0x51
 4856 012a 9F       		.byte	0x9f
 4857 012b 00000000 		.4byte	0
 4858 012f 00000000 		.4byte	0
 4859              	.LLST2:
 4860 0133 00000000 		.4byte	.LVL0
 4861 0137 0C000000 		.4byte	.LVL2
 4862 013b 0100     		.2byte	0x1
ARM GAS  C:\Users\haske\AppData\Local\Temp\ccwuLgOR.s 			page 106


 4863 013d 52       		.byte	0x52
 4864 013e 0C000000 		.4byte	.LVL2
 4865 0142 1A010000 		.4byte	.LFE54
 4866 0146 0400     		.2byte	0x4
 4867 0148 F3       		.byte	0xf3
 4868 0149 01       		.uleb128 0x1
 4869 014a 52       		.byte	0x52
 4870 014b 9F       		.byte	0x9f
 4871 014c 00000000 		.4byte	0
 4872 0150 00000000 		.4byte	0
 4873              	.LLST3:
 4874 0154 00000000 		.4byte	.LVL0
 4875 0158 31000000 		.4byte	.LVL6-1
 4876 015c 0100     		.2byte	0x1
 4877 015e 53       		.byte	0x53
 4878 015f 5A000000 		.4byte	.LVL16
 4879 0163 64000000 		.4byte	.LVL20
 4880 0167 0100     		.2byte	0x1
 4881 0169 53       		.byte	0x53
 4882 016a 86000000 		.4byte	.LVL25
 4883 016e 94000000 		.4byte	.LVL29
 4884 0172 0100     		.2byte	0x1
 4885 0174 53       		.byte	0x53
 4886 0175 B6000000 		.4byte	.LVL34
 4887 0179 C4000000 		.4byte	.LVL38
 4888 017d 0100     		.2byte	0x1
 4889 017f 53       		.byte	0x53
 4890 0180 E8000000 		.4byte	.LVL43
 4891 0184 FA000000 		.4byte	.LVL48
 4892 0188 0100     		.2byte	0x1
 4893 018a 53       		.byte	0x53
 4894 018b 06010000 		.4byte	.LVL51
 4895 018f 14010000 		.4byte	.LVL53
 4896 0193 0100     		.2byte	0x1
 4897 0195 53       		.byte	0x53
 4898 0196 00000000 		.4byte	0
 4899 019a 00000000 		.4byte	0
 4900              	.LLST4:
 4901 019e 12000000 		.4byte	.LVL4
 4902 01a2 5E000000 		.4byte	.LVL17
 4903 01a6 0100     		.2byte	0x1
 4904 01a8 56       		.byte	0x56
 4905 01a9 5E000000 		.4byte	.LVL17
 4906 01ad 86000000 		.4byte	.LVL25
 4907 01b1 0300     		.2byte	0x3
 4908 01b3 76       		.byte	0x76
 4909 01b4 08       		.sleb128 8
 4910 01b5 9F       		.byte	0x9f
 4911 01b6 86000000 		.4byte	.LVL25
 4912 01ba 8A000000 		.4byte	.LVL26
 4913 01be 0100     		.2byte	0x1
 4914 01c0 56       		.byte	0x56
 4915 01c1 8A000000 		.4byte	.LVL26
 4916 01c5 B6000000 		.4byte	.LVL34
 4917 01c9 0300     		.2byte	0x3
 4918 01cb 76       		.byte	0x76
 4919 01cc 10       		.sleb128 16
ARM GAS  C:\Users\haske\AppData\Local\Temp\ccwuLgOR.s 			page 107


 4920 01cd 9F       		.byte	0x9f
 4921 01ce B6000000 		.4byte	.LVL34
 4922 01d2 BA000000 		.4byte	.LVL35
 4923 01d6 0100     		.2byte	0x1
 4924 01d8 56       		.byte	0x56
 4925 01d9 BA000000 		.4byte	.LVL35
 4926 01dd E8000000 		.4byte	.LVL43
 4927 01e1 0400     		.2byte	0x4
 4928 01e3 76       		.byte	0x76
 4929 01e4 C000     		.sleb128 64
 4930 01e6 9F       		.byte	0x9f
 4931 01e7 E8000000 		.4byte	.LVL43
 4932 01eb EC000000 		.4byte	.LVL44
 4933 01ef 0100     		.2byte	0x1
 4934 01f1 56       		.byte	0x56
 4935 01f2 EC000000 		.4byte	.LVL44
 4936 01f6 FE000000 		.4byte	.LVL49
 4937 01fa 0400     		.2byte	0x4
 4938 01fc 76       		.byte	0x76
 4939 01fd 8008     		.sleb128 1024
 4940 01ff 9F       		.byte	0x9f
 4941 0200 FE000000 		.4byte	.LVL49
 4942 0204 06010000 		.4byte	.LVL51
 4943 0208 0700     		.2byte	0x7
 4944 020a 74       		.byte	0x74
 4945 020b 08       		.sleb128 8
 4946 020c 06       		.byte	0x6
 4947 020d 23       		.byte	0x23
 4948 020e 8008     		.uleb128 0x400
 4949 0210 9F       		.byte	0x9f
 4950 0211 06010000 		.4byte	.LVL51
 4951 0215 12010000 		.4byte	.LVL52
 4952 0219 0100     		.2byte	0x1
 4953 021b 56       		.byte	0x56
 4954 021c 00000000 		.4byte	0
 4955 0220 00000000 		.4byte	0
 4956              	.LLST5:
 4957 0224 36000000 		.4byte	.LVL7
 4958 0228 48000000 		.4byte	.LVL11
 4959 022c 0100     		.2byte	0x1
 4960 022e 53       		.byte	0x53
 4961 022f 00000000 		.4byte	0
 4962 0233 00000000 		.4byte	0
 4963              	.LLST6:
 4964 0237 42000000 		.4byte	.LVL8
 4965 023b 44000000 		.4byte	.LVL9
 4966 023f 0100     		.2byte	0x1
 4967 0241 50       		.byte	0x50
 4968 0242 44000000 		.4byte	.LVL9
 4969 0246 48000000 		.4byte	.LVL11
 4970 024a 1100     		.2byte	0x11
 4971 024c 74       		.byte	0x74
 4972 024d 00       		.sleb128 0
 4973 024e 06       		.byte	0x6
 4974 024f 3B       		.byte	0x3b
 4975 0250 24       		.byte	0x24
 4976 0251 45       		.byte	0x45
ARM GAS  C:\Users\haske\AppData\Local\Temp\ccwuLgOR.s 			page 108


 4977 0252 25       		.byte	0x25
 4978 0253 77       		.byte	0x77
 4979 0254 00       		.sleb128 0
 4980 0255 1E       		.byte	0x1e
 4981 0256 75       		.byte	0x75
 4982 0257 00       		.sleb128 0
 4983 0258 22       		.byte	0x22
 4984 0259 73       		.byte	0x73
 4985 025a 00       		.sleb128 0
 4986 025b 1E       		.byte	0x1e
 4987 025c 9F       		.byte	0x9f
 4988 025d 00000000 		.4byte	0
 4989 0261 00000000 		.4byte	0
 4990              	.LLST7:
 4991 0265 44000000 		.4byte	.LVL9
 4992 0269 4A000000 		.4byte	.LVL12
 4993 026d 0200     		.2byte	0x2
 4994 026f 32       		.byte	0x32
 4995 0270 9F       		.byte	0x9f
 4996 0271 4A000000 		.4byte	.LVL12
 4997 0275 5A000000 		.4byte	.LVL16
 4998 0279 0100     		.2byte	0x1
 4999 027b 53       		.byte	0x53
 5000 027c 00000000 		.4byte	0
 5001 0280 00000000 		.4byte	0
 5002              	.LLST8:
 5003 0284 44000000 		.4byte	.LVL9
 5004 0288 4A000000 		.4byte	.LVL12
 5005 028c 0100     		.2byte	0x1
 5006 028e 50       		.byte	0x50
 5007 028f 00000000 		.4byte	0
 5008 0293 00000000 		.4byte	0
 5009              	.LLST9:
 5010 0297 44000000 		.4byte	.LVL9
 5011 029b 46000000 		.4byte	.LVL10
 5012 029f 0300     		.2byte	0x3
 5013 02a1 91       		.byte	0x91
 5014 02a2 64       		.sleb128 -28
 5015 02a3 9F       		.byte	0x9f
 5016 02a4 46000000 		.4byte	.LVL10
 5017 02a8 4A000000 		.4byte	.LVL12
 5018 02ac 0100     		.2byte	0x1
 5019 02ae 52       		.byte	0x52
 5020 02af 4A000000 		.4byte	.LVL12
 5021 02b3 5A000000 		.4byte	.LVL16
 5022 02b7 0300     		.2byte	0x3
 5023 02b9 91       		.byte	0x91
 5024 02ba 64       		.sleb128 -28
 5025 02bb 9F       		.byte	0x9f
 5026 02bc 00000000 		.4byte	0
 5027 02c0 00000000 		.4byte	0
 5028              	.LLST10:
 5029 02c4 44000000 		.4byte	.LVL9
 5030 02c8 46000000 		.4byte	.LVL10
 5031 02cc 0300     		.2byte	0x3
 5032 02ce 91       		.byte	0x91
 5033 02cf 64       		.sleb128 -28
ARM GAS  C:\Users\haske\AppData\Local\Temp\ccwuLgOR.s 			page 109


 5034 02d0 9F       		.byte	0x9f
 5035 02d1 46000000 		.4byte	.LVL10
 5036 02d5 5A000000 		.4byte	.LVL16
 5037 02d9 0100     		.2byte	0x1
 5038 02db 52       		.byte	0x52
 5039 02dc 00000000 		.4byte	0
 5040 02e0 00000000 		.4byte	0
 5041              	.LLST11:
 5042 02e4 44000000 		.4byte	.LVL9
 5043 02e8 5A000000 		.4byte	.LVL16
 5044 02ec 0100     		.2byte	0x1
 5045 02ee 50       		.byte	0x50
 5046 02ef 00000000 		.4byte	0
 5047 02f3 00000000 		.4byte	0
 5048              	.LLST12:
 5049 02f7 60000000 		.4byte	.LVL18
 5050 02fb 78000000 		.4byte	.LVL23
 5051 02ff 0100     		.2byte	0x1
 5052 0301 52       		.byte	0x52
 5053 0302 78000000 		.4byte	.LVL23
 5054 0306 84000000 		.4byte	.LVL24
 5055 030a 0D00     		.2byte	0xd
 5056 030c 74       		.byte	0x74
 5057 030d 00       		.sleb128 0
 5058 030e 94       		.byte	0x94
 5059 030f 01       		.byte	0x1
 5060 0310 4F       		.byte	0x4f
 5061 0311 1A       		.byte	0x1a
 5062 0312 08       		.byte	0x8
 5063 0313 FF       		.byte	0xff
 5064 0314 1A       		.byte	0x1a
 5065 0315 75       		.byte	0x75
 5066 0316 00       		.sleb128 0
 5067 0317 1A       		.byte	0x1a
 5068 0318 9F       		.byte	0x9f
 5069 0319 00000000 		.4byte	0
 5070 031d 00000000 		.4byte	0
 5071              	.LLST13:
 5072 0321 70000000 		.4byte	.LVL21
 5073 0325 72000000 		.4byte	.LVL22
 5074 0329 0100     		.2byte	0x1
 5075 032b 50       		.byte	0x50
 5076 032c 72000000 		.4byte	.LVL22
 5077 0330 86000000 		.4byte	.LVL25
 5078 0334 0800     		.2byte	0x8
 5079 0336 75       		.byte	0x75
 5080 0337 00       		.sleb128 0
 5081 0338 33       		.byte	0x33
 5082 0339 26       		.byte	0x26
 5083 033a 77       		.byte	0x77
 5084 033b 00       		.sleb128 0
 5085 033c 22       		.byte	0x22
 5086 033d 9F       		.byte	0x9f
 5087 033e 00000000 		.4byte	0
 5088 0342 00000000 		.4byte	0
 5089              	.LLST14:
 5090 0346 90000000 		.4byte	.LVL27
ARM GAS  C:\Users\haske\AppData\Local\Temp\ccwuLgOR.s 			page 110


 5091 034a A8000000 		.4byte	.LVL32
 5092 034e 0100     		.2byte	0x1
 5093 0350 52       		.byte	0x52
 5094 0351 A8000000 		.4byte	.LVL32
 5095 0355 B4000000 		.4byte	.LVL33
 5096 0359 1100     		.2byte	0x11
 5097 035b 74       		.byte	0x74
 5098 035c 00       		.sleb128 0
 5099 035d 94       		.byte	0x94
 5100 035e 01       		.byte	0x1
 5101 035f 4F       		.byte	0x4f
 5102 0360 1A       		.byte	0x1a
 5103 0361 08       		.byte	0x8
 5104 0362 FF       		.byte	0xff
 5105 0363 1A       		.byte	0x1a
 5106 0364 35       		.byte	0x35
 5107 0365 1C       		.byte	0x1c
 5108 0366 75       		.byte	0x75
 5109 0367 00       		.sleb128 0
 5110 0368 1A       		.byte	0x1a
 5111 0369 31       		.byte	0x31
 5112 036a 24       		.byte	0x24
 5113 036b 9F       		.byte	0x9f
 5114 036c 00000000 		.4byte	0
 5115 0370 00000000 		.4byte	0
 5116              	.LLST15:
 5117 0374 A0000000 		.4byte	.LVL30
 5118 0378 A2000000 		.4byte	.LVL31
 5119 037c 0100     		.2byte	0x1
 5120 037e 50       		.byte	0x50
 5121 037f A2000000 		.4byte	.LVL31
 5122 0383 B6000000 		.4byte	.LVL34
 5123 0387 0800     		.2byte	0x8
 5124 0389 75       		.byte	0x75
 5125 038a 00       		.sleb128 0
 5126 038b 32       		.byte	0x32
 5127 038c 26       		.byte	0x26
 5128 038d 77       		.byte	0x77
 5129 038e 00       		.sleb128 0
 5130 038f 22       		.byte	0x22
 5131 0390 9F       		.byte	0x9f
 5132 0391 00000000 		.4byte	0
 5133 0395 00000000 		.4byte	0
 5134              	.LLST16:
 5135 0399 C0000000 		.4byte	.LVL36
 5136 039d DA000000 		.4byte	.LVL41
 5137 03a1 0100     		.2byte	0x1
 5138 03a3 52       		.byte	0x52
 5139 03a4 DA000000 		.4byte	.LVL41
 5140 03a8 E6000000 		.4byte	.LVL42
 5141 03ac 1100     		.2byte	0x11
 5142 03ae 74       		.byte	0x74
 5143 03af 00       		.sleb128 0
 5144 03b0 94       		.byte	0x94
 5145 03b1 01       		.byte	0x1
 5146 03b2 4F       		.byte	0x4f
 5147 03b3 1A       		.byte	0x1a
ARM GAS  C:\Users\haske\AppData\Local\Temp\ccwuLgOR.s 			page 111


 5148 03b4 08       		.byte	0x8
 5149 03b5 FF       		.byte	0xff
 5150 03b6 1A       		.byte	0x1a
 5151 03b7 38       		.byte	0x38
 5152 03b8 1C       		.byte	0x1c
 5153 03b9 75       		.byte	0x75
 5154 03ba 00       		.sleb128 0
 5155 03bb 1A       		.byte	0x1a
 5156 03bc 32       		.byte	0x32
 5157 03bd 24       		.byte	0x24
 5158 03be 9F       		.byte	0x9f
 5159 03bf 00000000 		.4byte	0
 5160 03c3 00000000 		.4byte	0
 5161              	.LLST17:
 5162 03c7 D0000000 		.4byte	.LVL39
 5163 03cb D2000000 		.4byte	.LVL40
 5164 03cf 0100     		.2byte	0x1
 5165 03d1 50       		.byte	0x50
 5166 03d2 D2000000 		.4byte	.LVL40
 5167 03d6 E8000000 		.4byte	.LVL43
 5168 03da 0800     		.2byte	0x8
 5169 03dc 75       		.byte	0x75
 5170 03dd 00       		.sleb128 0
 5171 03de 31       		.byte	0x31
 5172 03df 26       		.byte	0x26
 5173 03e0 77       		.byte	0x77
 5174 03e1 00       		.sleb128 0
 5175 03e2 22       		.byte	0x22
 5176 03e3 9F       		.byte	0x9f
 5177 03e4 00000000 		.4byte	0
 5178 03e8 00000000 		.4byte	0
 5179              	.LLST18:
 5180 03ec F6000000 		.4byte	.LVL46
 5181 03f0 F8000000 		.4byte	.LVL47
 5182 03f4 0100     		.2byte	0x1
 5183 03f6 50       		.byte	0x50
 5184 03f7 F8000000 		.4byte	.LVL47
 5185 03fb 04010000 		.4byte	.LVL50
 5186 03ff 0E00     		.2byte	0xe
 5187 0401 74       		.byte	0x74
 5188 0402 00       		.sleb128 0
 5189 0403 06       		.byte	0x6
 5190 0404 3B       		.byte	0x3b
 5191 0405 24       		.byte	0x24
 5192 0406 45       		.byte	0x45
 5193 0407 25       		.byte	0x25
 5194 0408 77       		.byte	0x77
 5195 0409 00       		.sleb128 0
 5196 040a 1E       		.byte	0x1e
 5197 040b 75       		.byte	0x75
 5198 040c 00       		.sleb128 0
 5199 040d 22       		.byte	0x22
 5200 040e 9F       		.byte	0x9f
 5201 040f 00000000 		.4byte	0
 5202 0413 00000000 		.4byte	0
 5203              	.LLST19:
 5204 0417 00000000 		.4byte	.LVL55
ARM GAS  C:\Users\haske\AppData\Local\Temp\ccwuLgOR.s 			page 112


 5205 041b 28000000 		.4byte	.LVL61
 5206 041f 0100     		.2byte	0x1
 5207 0421 50       		.byte	0x50
 5208 0422 28000000 		.4byte	.LVL61
 5209 0426 2A000000 		.4byte	.LVL62
 5210 042a 0100     		.2byte	0x1
 5211 042c 54       		.byte	0x54
 5212 042d 2A000000 		.4byte	.LVL62
 5213 0431 5A000000 		.4byte	.LVL70
 5214 0435 0100     		.2byte	0x1
 5215 0437 50       		.byte	0x50
 5216 0438 5A000000 		.4byte	.LVL70
 5217 043c 5C000000 		.4byte	.LVL71
 5218 0440 0100     		.2byte	0x1
 5219 0442 54       		.byte	0x54
 5220 0443 5C000000 		.4byte	.LVL71
 5221 0447 66000000 		.4byte	.LVL73
 5222 044b 0100     		.2byte	0x1
 5223 044d 50       		.byte	0x50
 5224 044e 66000000 		.4byte	.LVL73
 5225 0452 98000000 		.4byte	.LVL83
 5226 0456 0100     		.2byte	0x1
 5227 0458 54       		.byte	0x54
 5228 0459 98000000 		.4byte	.LVL83
 5229 045d A4000000 		.4byte	.LVL85
 5230 0461 0100     		.2byte	0x1
 5231 0463 50       		.byte	0x50
 5232 0464 A4000000 		.4byte	.LVL85
 5233 0468 D6000000 		.4byte	.LVL94
 5234 046c 0100     		.2byte	0x1
 5235 046e 54       		.byte	0x54
 5236 046f D6000000 		.4byte	.LVL94
 5237 0473 E6000000 		.4byte	.LVL97
 5238 0477 0100     		.2byte	0x1
 5239 0479 50       		.byte	0x50
 5240 047a E6000000 		.4byte	.LVL97
 5241 047e E8000000 		.4byte	.LVL98
 5242 0482 0100     		.2byte	0x1
 5243 0484 54       		.byte	0x54
 5244 0485 E8000000 		.4byte	.LVL98
 5245 0489 EA000000 		.4byte	.LVL99
 5246 048d 0100     		.2byte	0x1
 5247 048f 50       		.byte	0x50
 5248 0490 EA000000 		.4byte	.LVL99
 5249 0494 EC000000 		.4byte	.LVL100
 5250 0498 0100     		.2byte	0x1
 5251 049a 54       		.byte	0x54
 5252 049b EC000000 		.4byte	.LVL100
 5253 049f EE000000 		.4byte	.LVL101
 5254 04a3 0100     		.2byte	0x1
 5255 04a5 50       		.byte	0x50
 5256 04a6 EE000000 		.4byte	.LVL101
 5257 04aa F0000000 		.4byte	.LVL102
 5258 04ae 0100     		.2byte	0x1
 5259 04b0 54       		.byte	0x54
 5260 04b1 F0000000 		.4byte	.LVL102
 5261 04b5 F8000000 		.4byte	.LFE55
ARM GAS  C:\Users\haske\AppData\Local\Temp\ccwuLgOR.s 			page 113


 5262 04b9 0400     		.2byte	0x4
 5263 04bb F3       		.byte	0xf3
 5264 04bc 01       		.uleb128 0x1
 5265 04bd 50       		.byte	0x50
 5266 04be 9F       		.byte	0x9f
 5267 04bf 00000000 		.4byte	0
 5268 04c3 00000000 		.4byte	0
 5269              	.LLST20:
 5270 04c7 00000000 		.4byte	.LVL55
 5271 04cb 18000000 		.4byte	.LVL58
 5272 04cf 0100     		.2byte	0x1
 5273 04d1 51       		.byte	0x51
 5274 04d2 18000000 		.4byte	.LVL58
 5275 04d6 2A000000 		.4byte	.LVL62
 5276 04da 0400     		.2byte	0x4
 5277 04dc F3       		.byte	0xf3
 5278 04dd 01       		.uleb128 0x1
 5279 04de 51       		.byte	0x51
 5280 04df 9F       		.byte	0x9f
 5281 04e0 2A000000 		.4byte	.LVL62
 5282 04e4 30000000 		.4byte	.LVL63
 5283 04e8 0100     		.2byte	0x1
 5284 04ea 51       		.byte	0x51
 5285 04eb 30000000 		.4byte	.LVL63
 5286 04ef 36000000 		.4byte	.LVL65
 5287 04f3 0400     		.2byte	0x4
 5288 04f5 F3       		.byte	0xf3
 5289 04f6 01       		.uleb128 0x1
 5290 04f7 51       		.byte	0x51
 5291 04f8 9F       		.byte	0x9f
 5292 04f9 36000000 		.4byte	.LVL65
 5293 04fd 44000000 		.4byte	.LVL66
 5294 0501 0100     		.2byte	0x1
 5295 0503 51       		.byte	0x51
 5296 0504 44000000 		.4byte	.LVL66
 5297 0508 5C000000 		.4byte	.LVL71
 5298 050c 0500     		.2byte	0x5
 5299 050e 77       		.byte	0x77
 5300 050f 00       		.sleb128 0
 5301 0510 33       		.byte	0x33
 5302 0511 26       		.byte	0x26
 5303 0512 9F       		.byte	0x9f
 5304 0513 5C000000 		.4byte	.LVL71
 5305 0517 64000000 		.4byte	.LVL72
 5306 051b 0100     		.2byte	0x1
 5307 051d 51       		.byte	0x51
 5308 051e 64000000 		.4byte	.LVL72
 5309 0522 72000000 		.4byte	.LVL76
 5310 0526 0400     		.2byte	0x4
 5311 0528 F3       		.byte	0xf3
 5312 0529 01       		.uleb128 0x1
 5313 052a 51       		.byte	0x51
 5314 052b 9F       		.byte	0x9f
 5315 052c 72000000 		.4byte	.LVL76
 5316 0530 80000000 		.4byte	.LVL77
 5317 0534 0100     		.2byte	0x1
 5318 0536 51       		.byte	0x51
ARM GAS  C:\Users\haske\AppData\Local\Temp\ccwuLgOR.s 			page 114


 5319 0537 80000000 		.4byte	.LVL77
 5320 053b 98000000 		.4byte	.LVL83
 5321 053f 0500     		.2byte	0x5
 5322 0541 77       		.byte	0x77
 5323 0542 00       		.sleb128 0
 5324 0543 32       		.byte	0x32
 5325 0544 26       		.byte	0x26
 5326 0545 9F       		.byte	0x9f
 5327 0546 98000000 		.4byte	.LVL83
 5328 054a A0000000 		.4byte	.LVL84
 5329 054e 0100     		.2byte	0x1
 5330 0550 51       		.byte	0x51
 5331 0551 A0000000 		.4byte	.LVL84
 5332 0555 B0000000 		.4byte	.LVL88
 5333 0559 0400     		.2byte	0x4
 5334 055b F3       		.byte	0xf3
 5335 055c 01       		.uleb128 0x1
 5336 055d 51       		.byte	0x51
 5337 055e 9F       		.byte	0x9f
 5338 055f B0000000 		.4byte	.LVL88
 5339 0563 BE000000 		.4byte	.LVL89
 5340 0567 0100     		.2byte	0x1
 5341 0569 51       		.byte	0x51
 5342 056a BE000000 		.4byte	.LVL89
 5343 056e D6000000 		.4byte	.LVL94
 5344 0572 0500     		.2byte	0x5
 5345 0574 77       		.byte	0x77
 5346 0575 00       		.sleb128 0
 5347 0576 31       		.byte	0x31
 5348 0577 26       		.byte	0x26
 5349 0578 9F       		.byte	0x9f
 5350 0579 D6000000 		.4byte	.LVL94
 5351 057d DC000000 		.4byte	.LVL95
 5352 0581 0100     		.2byte	0x1
 5353 0583 51       		.byte	0x51
 5354 0584 DC000000 		.4byte	.LVL95
 5355 0588 E8000000 		.4byte	.LVL98
 5356 058c 0400     		.2byte	0x4
 5357 058e F3       		.byte	0xf3
 5358 058f 01       		.uleb128 0x1
 5359 0590 51       		.byte	0x51
 5360 0591 9F       		.byte	0x9f
 5361 0592 E8000000 		.4byte	.LVL98
 5362 0596 EC000000 		.4byte	.LVL100
 5363 059a 0500     		.2byte	0x5
 5364 059c 77       		.byte	0x77
 5365 059d 00       		.sleb128 0
 5366 059e 33       		.byte	0x33
 5367 059f 26       		.byte	0x26
 5368 05a0 9F       		.byte	0x9f
 5369 05a1 EC000000 		.4byte	.LVL100
 5370 05a5 EE000000 		.4byte	.LVL101
 5371 05a9 0100     		.2byte	0x1
 5372 05ab 51       		.byte	0x51
 5373 05ac 00000000 		.4byte	0
 5374 05b0 00000000 		.4byte	0
 5375              	.LLST21:
ARM GAS  C:\Users\haske\AppData\Local\Temp\ccwuLgOR.s 			page 115


 5376 05b4 00000000 		.4byte	.LVL55
 5377 05b8 10000000 		.4byte	.LVL57
 5378 05bc 0100     		.2byte	0x1
 5379 05be 52       		.byte	0x52
 5380 05bf 10000000 		.4byte	.LVL57
 5381 05c3 F8000000 		.4byte	.LFE55
 5382 05c7 0400     		.2byte	0x4
 5383 05c9 F3       		.byte	0xf3
 5384 05ca 01       		.uleb128 0x1
 5385 05cb 52       		.byte	0x52
 5386 05cc 9F       		.byte	0x9f
 5387 05cd 00000000 		.4byte	0
 5388 05d1 00000000 		.4byte	0
 5389              	.LLST22:
 5390 05d5 0C000000 		.4byte	.LVL56
 5391 05d9 F0000000 		.4byte	.LVL103
 5392 05dd 0100     		.2byte	0x1
 5393 05df 56       		.byte	0x56
 5394 05e0 00000000 		.4byte	0
 5395 05e4 00000000 		.4byte	0
 5396              	.LLST23:
 5397 05e8 24000000 		.4byte	.LVL59
 5398 05ec 26000000 		.4byte	.LVL60
 5399 05f0 0100     		.2byte	0x1
 5400 05f2 51       		.byte	0x51
 5401 05f3 26000000 		.4byte	.LVL60
 5402 05f7 2A000000 		.4byte	.LVL62
 5403 05fb 0300     		.2byte	0x3
 5404 05fd 71       		.byte	0x71
 5405 05fe 7E       		.sleb128 -2
 5406 05ff 9F       		.byte	0x9f
 5407 0600 00000000 		.4byte	0
 5408 0604 00000000 		.4byte	0
 5409              	.LLST24:
 5410 0608 34000000 		.4byte	.LVL64
 5411 060c 4C000000 		.4byte	.LVL68
 5412 0610 0100     		.2byte	0x1
 5413 0612 53       		.byte	0x53
 5414 0613 4C000000 		.4byte	.LVL68
 5415 0617 5C000000 		.4byte	.LVL71
 5416 061b 0500     		.2byte	0x5
 5417 061d 77       		.byte	0x77
 5418 061e 00       		.sleb128 0
 5419 061f 37       		.byte	0x37
 5420 0620 1A       		.byte	0x1a
 5421 0621 9F       		.byte	0x9f
 5422 0622 E8000000 		.4byte	.LVL98
 5423 0626 EC000000 		.4byte	.LVL100
 5424 062a 0500     		.2byte	0x5
 5425 062c 77       		.byte	0x77
 5426 062d 00       		.sleb128 0
 5427 062e 37       		.byte	0x37
 5428 062f 1A       		.byte	0x1a
 5429 0630 9F       		.byte	0x9f
 5430 0631 00000000 		.4byte	0
 5431 0635 00000000 		.4byte	0
 5432              	.LLST25:
ARM GAS  C:\Users\haske\AppData\Local\Temp\ccwuLgOR.s 			page 116


 5433 0639 44000000 		.4byte	.LVL66
 5434 063d 48000000 		.4byte	.LVL67
 5435 0641 0100     		.2byte	0x1
 5436 0643 51       		.byte	0x51
 5437 0644 48000000 		.4byte	.LVL67
 5438 0648 5A000000 		.4byte	.LVL70
 5439 064c 1400     		.2byte	0x14
 5440 064e 70       		.byte	0x70
 5441 064f 00       		.sleb128 0
 5442 0650 06       		.byte	0x6
 5443 0651 3B       		.byte	0x3b
 5444 0652 24       		.byte	0x24
 5445 0653 45       		.byte	0x45
 5446 0654 25       		.byte	0x25
 5447 0655 23       		.byte	0x23
 5448 0656 07       		.uleb128 0x7
 5449 0657 33       		.byte	0x33
 5450 0658 26       		.byte	0x26
 5451 0659 75       		.byte	0x75
 5452 065a 00       		.sleb128 0
 5453 065b 1E       		.byte	0x1e
 5454 065c 77       		.byte	0x77
 5455 065d 00       		.sleb128 0
 5456 065e 33       		.byte	0x33
 5457 065f 26       		.byte	0x26
 5458 0660 22       		.byte	0x22
 5459 0661 9F       		.byte	0x9f
 5460 0662 5A000000 		.4byte	.LVL70
 5461 0666 5C000000 		.4byte	.LVL71
 5462 066a 1400     		.2byte	0x14
 5463 066c 74       		.byte	0x74
 5464 066d 00       		.sleb128 0
 5465 066e 06       		.byte	0x6
 5466 066f 3B       		.byte	0x3b
 5467 0670 24       		.byte	0x24
 5468 0671 45       		.byte	0x45
 5469 0672 25       		.byte	0x25
 5470 0673 23       		.byte	0x23
 5471 0674 07       		.uleb128 0x7
 5472 0675 33       		.byte	0x33
 5473 0676 26       		.byte	0x26
 5474 0677 75       		.byte	0x75
 5475 0678 00       		.sleb128 0
 5476 0679 1E       		.byte	0x1e
 5477 067a 77       		.byte	0x77
 5478 067b 00       		.sleb128 0
 5479 067c 33       		.byte	0x33
 5480 067d 26       		.byte	0x26
 5481 067e 22       		.byte	0x22
 5482 067f 9F       		.byte	0x9f
 5483 0680 E8000000 		.4byte	.LVL98
 5484 0684 EA000000 		.4byte	.LVL99
 5485 0688 1400     		.2byte	0x14
 5486 068a 70       		.byte	0x70
 5487 068b 00       		.sleb128 0
 5488 068c 06       		.byte	0x6
 5489 068d 3B       		.byte	0x3b
ARM GAS  C:\Users\haske\AppData\Local\Temp\ccwuLgOR.s 			page 117


 5490 068e 24       		.byte	0x24
 5491 068f 45       		.byte	0x45
 5492 0690 25       		.byte	0x25
 5493 0691 23       		.byte	0x23
 5494 0692 07       		.uleb128 0x7
 5495 0693 33       		.byte	0x33
 5496 0694 26       		.byte	0x26
 5497 0695 75       		.byte	0x75
 5498 0696 00       		.sleb128 0
 5499 0697 1E       		.byte	0x1e
 5500 0698 77       		.byte	0x77
 5501 0699 00       		.sleb128 0
 5502 069a 33       		.byte	0x33
 5503 069b 26       		.byte	0x26
 5504 069c 22       		.byte	0x22
 5505 069d 9F       		.byte	0x9f
 5506 069e EA000000 		.4byte	.LVL99
 5507 06a2 EC000000 		.4byte	.LVL100
 5508 06a6 1400     		.2byte	0x14
 5509 06a8 74       		.byte	0x74
 5510 06a9 00       		.sleb128 0
 5511 06aa 06       		.byte	0x6
 5512 06ab 3B       		.byte	0x3b
 5513 06ac 24       		.byte	0x24
 5514 06ad 45       		.byte	0x45
 5515 06ae 25       		.byte	0x25
 5516 06af 23       		.byte	0x23
 5517 06b0 07       		.uleb128 0x7
 5518 06b1 33       		.byte	0x33
 5519 06b2 26       		.byte	0x26
 5520 06b3 75       		.byte	0x75
 5521 06b4 00       		.sleb128 0
 5522 06b5 1E       		.byte	0x1e
 5523 06b6 77       		.byte	0x77
 5524 06b7 00       		.sleb128 0
 5525 06b8 33       		.byte	0x33
 5526 06b9 26       		.byte	0x26
 5527 06ba 22       		.byte	0x22
 5528 06bb 9F       		.byte	0x9f
 5529 06bc 00000000 		.4byte	0
 5530 06c0 00000000 		.4byte	0
 5531              	.LLST26:
 5532 06c4 54000000 		.4byte	.LVL69
 5533 06c8 5C000000 		.4byte	.LVL71
 5534 06cc 0100     		.2byte	0x1
 5535 06ce 53       		.byte	0x53
 5536 06cf E8000000 		.4byte	.LVL98
 5537 06d3 EC000000 		.4byte	.LVL100
 5538 06d7 0100     		.2byte	0x1
 5539 06d9 53       		.byte	0x53
 5540 06da 00000000 		.4byte	0
 5541 06de 00000000 		.4byte	0
 5542              	.LLST27:
 5543 06e2 70000000 		.4byte	.LVL75
 5544 06e6 88000000 		.4byte	.LVL79
 5545 06ea 0100     		.2byte	0x1
 5546 06ec 53       		.byte	0x53
ARM GAS  C:\Users\haske\AppData\Local\Temp\ccwuLgOR.s 			page 118


 5547 06ed 88000000 		.4byte	.LVL79
 5548 06f1 8A000000 		.4byte	.LVL80
 5549 06f5 0800     		.2byte	0x8
 5550 06f7 73       		.byte	0x73
 5551 06f8 00       		.sleb128 0
 5552 06f9 77       		.byte	0x77
 5553 06fa 00       		.sleb128 0
 5554 06fb 1A       		.byte	0x1a
 5555 06fc 31       		.byte	0x31
 5556 06fd 24       		.byte	0x24
 5557 06fe 9F       		.byte	0x9f
 5558 06ff 8A000000 		.4byte	.LVL80
 5559 0703 98000000 		.4byte	.LVL83
 5560 0707 0700     		.2byte	0x7
 5561 0709 77       		.byte	0x77
 5562 070a 00       		.sleb128 0
 5563 070b 33       		.byte	0x33
 5564 070c 1A       		.byte	0x1a
 5565 070d 31       		.byte	0x31
 5566 070e 24       		.byte	0x24
 5567 070f 9F       		.byte	0x9f
 5568 0710 00000000 		.4byte	0
 5569 0714 00000000 		.4byte	0
 5570              	.LLST28:
 5571 0718 80000000 		.4byte	.LVL77
 5572 071c 84000000 		.4byte	.LVL78
 5573 0720 0100     		.2byte	0x1
 5574 0722 51       		.byte	0x51
 5575 0723 84000000 		.4byte	.LVL78
 5576 0727 98000000 		.4byte	.LVL83
 5577 072b 1400     		.2byte	0x14
 5578 072d 74       		.byte	0x74
 5579 072e 00       		.sleb128 0
 5580 072f 06       		.byte	0x6
 5581 0730 3B       		.byte	0x3b
 5582 0731 24       		.byte	0x24
 5583 0732 45       		.byte	0x45
 5584 0733 25       		.byte	0x25
 5585 0734 23       		.byte	0x23
 5586 0735 03       		.uleb128 0x3
 5587 0736 32       		.byte	0x32
 5588 0737 26       		.byte	0x26
 5589 0738 75       		.byte	0x75
 5590 0739 00       		.sleb128 0
 5591 073a 1E       		.byte	0x1e
 5592 073b 77       		.byte	0x77
 5593 073c 00       		.sleb128 0
 5594 073d 32       		.byte	0x32
 5595 073e 26       		.byte	0x26
 5596 073f 22       		.byte	0x22
 5597 0740 9F       		.byte	0x9f
 5598 0741 00000000 		.4byte	0
 5599 0745 00000000 		.4byte	0
 5600              	.LLST29:
 5601 0749 8E000000 		.4byte	.LVL81
 5602 074d 92000000 		.4byte	.LVL82
 5603 0751 0100     		.2byte	0x1
ARM GAS  C:\Users\haske\AppData\Local\Temp\ccwuLgOR.s 			page 119


 5604 0753 53       		.byte	0x53
 5605 0754 92000000 		.4byte	.LVL82
 5606 0758 98000000 		.4byte	.LVL83
 5607 075c 2400     		.2byte	0x24
 5608 075e 33       		.byte	0x33
 5609 075f 71       		.byte	0x71
 5610 0760 00       		.sleb128 0
 5611 0761 24       		.byte	0x24
 5612 0762 74       		.byte	0x74
 5613 0763 00       		.sleb128 0
 5614 0764 06       		.byte	0x6
 5615 0765 3B       		.byte	0x3b
 5616 0766 24       		.byte	0x24
 5617 0767 45       		.byte	0x45
 5618 0768 25       		.byte	0x25
 5619 0769 23       		.byte	0x23
 5620 076a 03       		.uleb128 0x3
 5621 076b 32       		.byte	0x32
 5622 076c 26       		.byte	0x26
 5623 076d 75       		.byte	0x75
 5624 076e 00       		.sleb128 0
 5625 076f 1E       		.byte	0x1e
 5626 0770 77       		.byte	0x77
 5627 0771 00       		.sleb128 0
 5628 0772 32       		.byte	0x32
 5629 0773 26       		.byte	0x26
 5630 0774 22       		.byte	0x22
 5631 0775 76       		.byte	0x76
 5632 0776 00       		.sleb128 0
 5633 0777 22       		.byte	0x22
 5634 0778 94       		.byte	0x94
 5635 0779 01       		.byte	0x1
 5636 077a 08       		.byte	0x8
 5637 077b FF       		.byte	0xff
 5638 077c 1A       		.byte	0x1a
 5639 077d 1A       		.byte	0x1a
 5640 077e 71       		.byte	0x71
 5641 077f 00       		.sleb128 0
 5642 0780 26       		.byte	0x26
 5643 0781 9F       		.byte	0x9f
 5644 0782 00000000 		.4byte	0
 5645 0786 00000000 		.4byte	0
 5646              	.LLST30:
 5647 078a AE000000 		.4byte	.LVL87
 5648 078e C6000000 		.4byte	.LVL91
 5649 0792 0100     		.2byte	0x1
 5650 0794 53       		.byte	0x53
 5651 0795 C6000000 		.4byte	.LVL91
 5652 0799 D6000000 		.4byte	.LVL94
 5653 079d 0700     		.2byte	0x7
 5654 079f 77       		.byte	0x77
 5655 07a0 00       		.sleb128 0
 5656 07a1 31       		.byte	0x31
 5657 07a2 1A       		.byte	0x1a
 5658 07a3 32       		.byte	0x32
 5659 07a4 24       		.byte	0x24
 5660 07a5 9F       		.byte	0x9f
ARM GAS  C:\Users\haske\AppData\Local\Temp\ccwuLgOR.s 			page 120


 5661 07a6 00000000 		.4byte	0
 5662 07aa 00000000 		.4byte	0
 5663              	.LLST31:
 5664 07ae BE000000 		.4byte	.LVL89
 5665 07b2 C2000000 		.4byte	.LVL90
 5666 07b6 0100     		.2byte	0x1
 5667 07b8 51       		.byte	0x51
 5668 07b9 C2000000 		.4byte	.LVL90
 5669 07bd D6000000 		.4byte	.LVL94
 5670 07c1 1400     		.2byte	0x14
 5671 07c3 74       		.byte	0x74
 5672 07c4 00       		.sleb128 0
 5673 07c5 06       		.byte	0x6
 5674 07c6 3B       		.byte	0x3b
 5675 07c7 24       		.byte	0x24
 5676 07c8 45       		.byte	0x45
 5677 07c9 25       		.byte	0x25
 5678 07ca 23       		.byte	0x23
 5679 07cb 01       		.uleb128 0x1
 5680 07cc 31       		.byte	0x31
 5681 07cd 26       		.byte	0x26
 5682 07ce 75       		.byte	0x75
 5683 07cf 00       		.sleb128 0
 5684 07d0 1E       		.byte	0x1e
 5685 07d1 77       		.byte	0x77
 5686 07d2 00       		.sleb128 0
 5687 07d3 31       		.byte	0x31
 5688 07d4 26       		.byte	0x26
 5689 07d5 22       		.byte	0x22
 5690 07d6 9F       		.byte	0x9f
 5691 07d7 00000000 		.4byte	0
 5692 07db 00000000 		.4byte	0
 5693              	.LLST32:
 5694 07df CC000000 		.4byte	.LVL92
 5695 07e3 D0000000 		.4byte	.LVL93
 5696 07e7 0100     		.2byte	0x1
 5697 07e9 53       		.byte	0x53
 5698 07ea D0000000 		.4byte	.LVL93
 5699 07ee D6000000 		.4byte	.LVL94
 5700 07f2 2400     		.2byte	0x24
 5701 07f4 3F       		.byte	0x3f
 5702 07f5 71       		.byte	0x71
 5703 07f6 00       		.sleb128 0
 5704 07f7 24       		.byte	0x24
 5705 07f8 74       		.byte	0x74
 5706 07f9 00       		.sleb128 0
 5707 07fa 06       		.byte	0x6
 5708 07fb 3B       		.byte	0x3b
 5709 07fc 24       		.byte	0x24
 5710 07fd 45       		.byte	0x45
 5711 07fe 25       		.byte	0x25
 5712 07ff 23       		.byte	0x23
 5713 0800 01       		.uleb128 0x1
 5714 0801 31       		.byte	0x31
 5715 0802 26       		.byte	0x26
 5716 0803 75       		.byte	0x75
 5717 0804 00       		.sleb128 0
ARM GAS  C:\Users\haske\AppData\Local\Temp\ccwuLgOR.s 			page 121


 5718 0805 1E       		.byte	0x1e
 5719 0806 77       		.byte	0x77
 5720 0807 00       		.sleb128 0
 5721 0808 31       		.byte	0x31
 5722 0809 26       		.byte	0x26
 5723 080a 22       		.byte	0x22
 5724 080b 76       		.byte	0x76
 5725 080c 00       		.sleb128 0
 5726 080d 22       		.byte	0x22
 5727 080e 94       		.byte	0x94
 5728 080f 01       		.byte	0x1
 5729 0810 08       		.byte	0x8
 5730 0811 FF       		.byte	0xff
 5731 0812 1A       		.byte	0x1a
 5732 0813 1A       		.byte	0x1a
 5733 0814 71       		.byte	0x71
 5734 0815 00       		.sleb128 0
 5735 0816 26       		.byte	0x26
 5736 0817 9F       		.byte	0x9f
 5737 0818 00000000 		.4byte	0
 5738 081c 00000000 		.4byte	0
 5739              	.LLST33:
 5740 0820 E4000000 		.4byte	.LVL96
 5741 0824 E8000000 		.4byte	.LVL98
 5742 0828 0100     		.2byte	0x1
 5743 082a 51       		.byte	0x51
 5744 082b 00000000 		.4byte	0
 5745 082f 00000000 		.4byte	0
 5746              	.LLST34:
 5747 0833 00000000 		.4byte	.LVL104
 5748 0837 1C000000 		.4byte	.LVL108
 5749 083b 0100     		.2byte	0x1
 5750 083d 50       		.byte	0x50
 5751 083e 1C000000 		.4byte	.LVL108
 5752 0842 3C000000 		.4byte	.LVL113
 5753 0846 0100     		.2byte	0x1
 5754 0848 56       		.byte	0x56
 5755 0849 3C000000 		.4byte	.LVL113
 5756 084d E6000000 		.4byte	.LVL144
 5757 0851 0100     		.2byte	0x1
 5758 0853 50       		.byte	0x50
 5759 0854 E6000000 		.4byte	.LVL144
 5760 0858 E6000000 		.4byte	.LVL145
 5761 085c 0100     		.2byte	0x1
 5762 085e 56       		.byte	0x56
 5763 085f E6000000 		.4byte	.LVL145
 5764 0863 EC000000 		.4byte	.LFE56
 5765 0867 0400     		.2byte	0x4
 5766 0869 F3       		.byte	0xf3
 5767 086a 01       		.uleb128 0x1
 5768 086b 50       		.byte	0x50
 5769 086c 9F       		.byte	0x9f
 5770 086d 00000000 		.4byte	0
 5771 0871 00000000 		.4byte	0
 5772              	.LLST35:
 5773 0875 00000000 		.4byte	.LVL104
 5774 0879 23000000 		.4byte	.LVL109-1
ARM GAS  C:\Users\haske\AppData\Local\Temp\ccwuLgOR.s 			page 122


 5775 087d 0100     		.2byte	0x1
 5776 087f 51       		.byte	0x51
 5777 0880 23000000 		.4byte	.LVL109-1
 5778 0884 3C000000 		.4byte	.LVL113
 5779 0888 0400     		.2byte	0x4
 5780 088a F3       		.byte	0xf3
 5781 088b 01       		.uleb128 0x1
 5782 088c 51       		.byte	0x51
 5783 088d 9F       		.byte	0x9f
 5784 088e 3C000000 		.4byte	.LVL113
 5785 0892 5C000000 		.4byte	.LVL120
 5786 0896 0100     		.2byte	0x1
 5787 0898 51       		.byte	0x51
 5788 0899 5C000000 		.4byte	.LVL120
 5789 089d 6E000000 		.4byte	.LVL124
 5790 08a1 0500     		.2byte	0x5
 5791 08a3 78       		.byte	0x78
 5792 08a4 00       		.sleb128 0
 5793 08a5 33       		.byte	0x33
 5794 08a6 26       		.byte	0x26
 5795 08a7 9F       		.byte	0x9f
 5796 08a8 6E000000 		.4byte	.LVL124
 5797 08ac 90000000 		.4byte	.LVL130
 5798 08b0 0100     		.2byte	0x1
 5799 08b2 51       		.byte	0x51
 5800 08b3 90000000 		.4byte	.LVL130
 5801 08b7 A2000000 		.4byte	.LVL133
 5802 08bb 0500     		.2byte	0x5
 5803 08bd 78       		.byte	0x78
 5804 08be 00       		.sleb128 0
 5805 08bf 32       		.byte	0x32
 5806 08c0 26       		.byte	0x26
 5807 08c1 9F       		.byte	0x9f
 5808 08c2 A2000000 		.4byte	.LVL133
 5809 08c6 C4000000 		.4byte	.LVL139
 5810 08ca 0100     		.2byte	0x1
 5811 08cc 51       		.byte	0x51
 5812 08cd C4000000 		.4byte	.LVL139
 5813 08d1 D6000000 		.4byte	.LVL142
 5814 08d5 0500     		.2byte	0x5
 5815 08d7 78       		.byte	0x78
 5816 08d8 00       		.sleb128 0
 5817 08d9 31       		.byte	0x31
 5818 08da 26       		.byte	0x26
 5819 08db 9F       		.byte	0x9f
 5820 08dc D6000000 		.4byte	.LVL142
 5821 08e0 E6000000 		.4byte	.LVL144
 5822 08e4 0100     		.2byte	0x1
 5823 08e6 51       		.byte	0x51
 5824 08e7 00000000 		.4byte	0
 5825 08eb 00000000 		.4byte	0
 5826              	.LLST36:
 5827 08ef 00000000 		.4byte	.LVL104
 5828 08f3 14000000 		.4byte	.LVL107
 5829 08f7 0100     		.2byte	0x1
 5830 08f9 52       		.byte	0x52
 5831 08fa 14000000 		.4byte	.LVL107
ARM GAS  C:\Users\haske\AppData\Local\Temp\ccwuLgOR.s 			page 123


 5832 08fe EC000000 		.4byte	.LFE56
 5833 0902 0400     		.2byte	0x4
 5834 0904 F3       		.byte	0xf3
 5835 0905 01       		.uleb128 0x1
 5836 0906 52       		.byte	0x52
 5837 0907 9F       		.byte	0x9f
 5838 0908 00000000 		.4byte	0
 5839 090c 00000000 		.4byte	0
 5840              	.LLST37:
 5841 0910 00000000 		.4byte	.LVL104
 5842 0914 12000000 		.4byte	.LVL106
 5843 0918 0100     		.2byte	0x1
 5844 091a 53       		.byte	0x53
 5845 091b 12000000 		.4byte	.LVL106
 5846 091f 42000000 		.4byte	.LVL114
 5847 0923 0400     		.2byte	0x4
 5848 0925 F3       		.byte	0xf3
 5849 0926 01       		.uleb128 0x1
 5850 0927 53       		.byte	0x53
 5851 0928 9F       		.byte	0x9f
 5852 0929 42000000 		.4byte	.LVL114
 5853 092d 68000000 		.4byte	.LVL123
 5854 0931 0100     		.2byte	0x1
 5855 0933 54       		.byte	0x54
 5856 0934 6E000000 		.4byte	.LVL124
 5857 0938 74000000 		.4byte	.LVL125
 5858 093c 0400     		.2byte	0x4
 5859 093e F3       		.byte	0xf3
 5860 093f 01       		.uleb128 0x1
 5861 0940 53       		.byte	0x53
 5862 0941 9F       		.byte	0x9f
 5863 0942 74000000 		.4byte	.LVL125
 5864 0946 9C000000 		.4byte	.LVL132
 5865 094a 0100     		.2byte	0x1
 5866 094c 54       		.byte	0x54
 5867 094d A2000000 		.4byte	.LVL133
 5868 0951 A8000000 		.4byte	.LVL134
 5869 0955 0400     		.2byte	0x4
 5870 0957 F3       		.byte	0xf3
 5871 0958 01       		.uleb128 0x1
 5872 0959 53       		.byte	0x53
 5873 095a 9F       		.byte	0x9f
 5874 095b A8000000 		.4byte	.LVL134
 5875 095f D0000000 		.4byte	.LVL141
 5876 0963 0100     		.2byte	0x1
 5877 0965 54       		.byte	0x54
 5878 0966 D6000000 		.4byte	.LVL142
 5879 096a E6000000 		.4byte	.LVL144
 5880 096e 0400     		.2byte	0x4
 5881 0970 F3       		.byte	0xf3
 5882 0971 01       		.uleb128 0x1
 5883 0972 53       		.byte	0x53
 5884 0973 9F       		.byte	0x9f
 5885 0974 00000000 		.4byte	0
 5886 0978 00000000 		.4byte	0
 5887              	.LLST38:
 5888 097c 10000000 		.4byte	.LVL105
ARM GAS  C:\Users\haske\AppData\Local\Temp\ccwuLgOR.s 			page 124


 5889 0980 E6000000 		.4byte	.LVL146
 5890 0984 0100     		.2byte	0x1
 5891 0986 57       		.byte	0x57
 5892 0987 00000000 		.4byte	0
 5893 098b 00000000 		.4byte	0
 5894              	.LLST39:
 5895 098f 28000000 		.4byte	.LVL110
 5896 0993 3C000000 		.4byte	.LVL113
 5897 0997 0100     		.2byte	0x1
 5898 0999 50       		.byte	0x50
 5899 099a 00000000 		.4byte	0
 5900 099e 00000000 		.4byte	0
 5901              	.LLST40:
 5902 09a2 34000000 		.4byte	.LVL111
 5903 09a6 36000000 		.4byte	.LVL112
 5904 09aa 0100     		.2byte	0x1
 5905 09ac 55       		.byte	0x55
 5906 09ad 00000000 		.4byte	0
 5907 09b1 00000000 		.4byte	0
 5908              	.LLST41:
 5909 09b5 46000000 		.4byte	.LVL115
 5910 09b9 5E000000 		.4byte	.LVL121
 5911 09bd 0100     		.2byte	0x1
 5912 09bf 52       		.byte	0x52
 5913 09c0 5E000000 		.4byte	.LVL121
 5914 09c4 60000000 		.4byte	.LVL122
 5915 09c8 0600     		.2byte	0x6
 5916 09ca 71       		.byte	0x71
 5917 09cb 00       		.sleb128 0
 5918 09cc 78       		.byte	0x78
 5919 09cd 00       		.sleb128 0
 5920 09ce 1A       		.byte	0x1a
 5921 09cf 9F       		.byte	0x9f
 5922 09d0 60000000 		.4byte	.LVL122
 5923 09d4 6E000000 		.4byte	.LVL124
 5924 09d8 0500     		.2byte	0x5
 5925 09da 78       		.byte	0x78
 5926 09db 00       		.sleb128 0
 5927 09dc 37       		.byte	0x37
 5928 09dd 1A       		.byte	0x1a
 5929 09de 9F       		.byte	0x9f
 5930 09df 00000000 		.4byte	0
 5931 09e3 00000000 		.4byte	0
 5932              	.LLST42:
 5933 09e7 56000000 		.4byte	.LVL117
 5934 09eb 58000000 		.4byte	.LVL118
 5935 09ef 0100     		.2byte	0x1
 5936 09f1 55       		.byte	0x55
 5937 09f2 58000000 		.4byte	.LVL118
 5938 09f6 5A000000 		.4byte	.LVL119
 5939 09fa 0600     		.2byte	0x6
 5940 09fc 71       		.byte	0x71
 5941 09fd 00       		.sleb128 0
 5942 09fe 73       		.byte	0x73
 5943 09ff 00       		.sleb128 0
 5944 0a00 22       		.byte	0x22
 5945 0a01 9F       		.byte	0x9f
ARM GAS  C:\Users\haske\AppData\Local\Temp\ccwuLgOR.s 			page 125


 5946 0a02 00000000 		.4byte	0
 5947 0a06 00000000 		.4byte	0
 5948              	.LLST43:
 5949 0a0a 7A000000 		.4byte	.LVL126
 5950 0a0e 92000000 		.4byte	.LVL131
 5951 0a12 0100     		.2byte	0x1
 5952 0a14 52       		.byte	0x52
 5953 0a15 92000000 		.4byte	.LVL131
 5954 0a19 A2000000 		.4byte	.LVL133
 5955 0a1d 0700     		.2byte	0x7
 5956 0a1f 78       		.byte	0x78
 5957 0a20 00       		.sleb128 0
 5958 0a21 33       		.byte	0x33
 5959 0a22 1A       		.byte	0x1a
 5960 0a23 31       		.byte	0x31
 5961 0a24 24       		.byte	0x24
 5962 0a25 9F       		.byte	0x9f
 5963 0a26 00000000 		.4byte	0
 5964 0a2a 00000000 		.4byte	0
 5965              	.LLST44:
 5966 0a2e 8A000000 		.4byte	.LVL128
 5967 0a32 8C000000 		.4byte	.LVL129
 5968 0a36 0100     		.2byte	0x1
 5969 0a38 55       		.byte	0x55
 5970 0a39 00000000 		.4byte	0
 5971 0a3d 00000000 		.4byte	0
 5972              	.LLST45:
 5973 0a41 AE000000 		.4byte	.LVL135
 5974 0a45 C6000000 		.4byte	.LVL140
 5975 0a49 0100     		.2byte	0x1
 5976 0a4b 52       		.byte	0x52
 5977 0a4c C6000000 		.4byte	.LVL140
 5978 0a50 D6000000 		.4byte	.LVL142
 5979 0a54 0700     		.2byte	0x7
 5980 0a56 78       		.byte	0x78
 5981 0a57 00       		.sleb128 0
 5982 0a58 31       		.byte	0x31
 5983 0a59 1A       		.byte	0x1a
 5984 0a5a 32       		.byte	0x32
 5985 0a5b 24       		.byte	0x24
 5986 0a5c 9F       		.byte	0x9f
 5987 0a5d 00000000 		.4byte	0
 5988 0a61 00000000 		.4byte	0
 5989              	.LLST46:
 5990 0a65 BE000000 		.4byte	.LVL137
 5991 0a69 C0000000 		.4byte	.LVL138
 5992 0a6d 0100     		.2byte	0x1
 5993 0a6f 55       		.byte	0x55
 5994 0a70 00000000 		.4byte	0
 5995 0a74 00000000 		.4byte	0
 5996              	.LLST47:
 5997 0a78 E4000000 		.4byte	.LVL143
 5998 0a7c E6000000 		.4byte	.LVL144
 5999 0a80 0100     		.2byte	0x1
 6000 0a82 55       		.byte	0x55
 6001 0a83 00000000 		.4byte	0
 6002 0a87 00000000 		.4byte	0
ARM GAS  C:\Users\haske\AppData\Local\Temp\ccwuLgOR.s 			page 126


 6003              	.LLST48:
 6004 0a8b 00000000 		.4byte	.LVL147
 6005 0a8f 20000000 		.4byte	.LVL150
 6006 0a93 0100     		.2byte	0x1
 6007 0a95 50       		.byte	0x50
 6008 0a96 20000000 		.4byte	.LVL150
 6009 0a9a 4E000000 		.4byte	.LVL160
 6010 0a9e 0100     		.2byte	0x1
 6011 0aa0 57       		.byte	0x57
 6012 0aa1 4E000000 		.4byte	.LVL160
 6013 0aa5 54000000 		.4byte	.LVL161
 6014 0aa9 0100     		.2byte	0x1
 6015 0aab 50       		.byte	0x50
 6016 0aac 54000000 		.4byte	.LVL161
 6017 0ab0 84000000 		.4byte	.LVL172
 6018 0ab4 0100     		.2byte	0x1
 6019 0ab6 57       		.byte	0x57
 6020 0ab7 84000000 		.4byte	.LVL172
 6021 0abb 8A000000 		.4byte	.LVL173
 6022 0abf 0100     		.2byte	0x1
 6023 0ac1 50       		.byte	0x50
 6024 0ac2 8A000000 		.4byte	.LVL173
 6025 0ac6 C2000000 		.4byte	.LVL182
 6026 0aca 0100     		.2byte	0x1
 6027 0acc 57       		.byte	0x57
 6028 0acd C2000000 		.4byte	.LVL182
 6029 0ad1 EE000000 		.4byte	.LVL191
 6030 0ad5 0100     		.2byte	0x1
 6031 0ad7 50       		.byte	0x50
 6032 0ad8 EE000000 		.4byte	.LVL191
 6033 0adc 00010000 		.4byte	.LVL195
 6034 0ae0 0100     		.2byte	0x1
 6035 0ae2 57       		.byte	0x57
 6036 0ae3 00010000 		.4byte	.LVL195
 6037 0ae7 2C010000 		.4byte	.LVL203
 6038 0aeb 0100     		.2byte	0x1
 6039 0aed 50       		.byte	0x50
 6040 0aee 2C010000 		.4byte	.LVL203
 6041 0af2 3E010000 		.4byte	.LVL205
 6042 0af6 0100     		.2byte	0x1
 6043 0af8 57       		.byte	0x57
 6044 0af9 3E010000 		.4byte	.LVL205
 6045 0afd 5A010000 		.4byte	.LVL210
 6046 0b01 0100     		.2byte	0x1
 6047 0b03 50       		.byte	0x50
 6048 0b04 5A010000 		.4byte	.LVL210
 6049 0b08 5C010000 		.4byte	.LVL211
 6050 0b0c 0100     		.2byte	0x1
 6051 0b0e 57       		.byte	0x57
 6052 0b0f 5C010000 		.4byte	.LVL211
 6053 0b13 5E010000 		.4byte	.LFE57
 6054 0b17 0400     		.2byte	0x4
 6055 0b19 F3       		.byte	0xf3
 6056 0b1a 01       		.uleb128 0x1
 6057 0b1b 50       		.byte	0x50
 6058 0b1c 9F       		.byte	0x9f
 6059 0b1d 00000000 		.4byte	0
ARM GAS  C:\Users\haske\AppData\Local\Temp\ccwuLgOR.s 			page 127


 6060 0b21 00000000 		.4byte	0
 6061              	.LLST49:
 6062 0b25 00000000 		.4byte	.LVL147
 6063 0b29 27000000 		.4byte	.LVL151-1
 6064 0b2d 0100     		.2byte	0x1
 6065 0b2f 51       		.byte	0x51
 6066 0b30 27000000 		.4byte	.LVL151-1
 6067 0b34 4E000000 		.4byte	.LVL160
 6068 0b38 0400     		.2byte	0x4
 6069 0b3a F3       		.byte	0xf3
 6070 0b3b 01       		.uleb128 0x1
 6071 0b3c 51       		.byte	0x51
 6072 0b3d 9F       		.byte	0x9f
 6073 0b3e 4E000000 		.4byte	.LVL160
 6074 0b42 5B000000 		.4byte	.LVL162-1
 6075 0b46 0100     		.2byte	0x1
 6076 0b48 51       		.byte	0x51
 6077 0b49 5B000000 		.4byte	.LVL162-1
 6078 0b4d 84000000 		.4byte	.LVL172
 6079 0b51 0400     		.2byte	0x4
 6080 0b53 F3       		.byte	0xf3
 6081 0b54 01       		.uleb128 0x1
 6082 0b55 51       		.byte	0x51
 6083 0b56 9F       		.byte	0x9f
 6084 0b57 84000000 		.4byte	.LVL172
 6085 0b5b A2000000 		.4byte	.LVL177
 6086 0b5f 0100     		.2byte	0x1
 6087 0b61 51       		.byte	0x51
 6088 0b62 A2000000 		.4byte	.LVL177
 6089 0b66 C2000000 		.4byte	.LVL182
 6090 0b6a 0500     		.2byte	0x5
 6091 0b6c 75       		.byte	0x75
 6092 0b6d 00       		.sleb128 0
 6093 0b6e 33       		.byte	0x33
 6094 0b6f 26       		.byte	0x26
 6095 0b70 9F       		.byte	0x9f
 6096 0b71 C2000000 		.4byte	.LVL182
 6097 0b75 DE000000 		.4byte	.LVL186
 6098 0b79 0100     		.2byte	0x1
 6099 0b7b 51       		.byte	0x51
 6100 0b7c DE000000 		.4byte	.LVL186
 6101 0b80 00010000 		.4byte	.LVL195
 6102 0b84 0500     		.2byte	0x5
 6103 0b86 75       		.byte	0x75
 6104 0b87 00       		.sleb128 0
 6105 0b88 32       		.byte	0x32
 6106 0b89 26       		.byte	0x26
 6107 0b8a 9F       		.byte	0x9f
 6108 0b8b 00010000 		.4byte	.LVL195
 6109 0b8f 1C010000 		.4byte	.LVL199
 6110 0b93 0100     		.2byte	0x1
 6111 0b95 51       		.byte	0x51
 6112 0b96 1C010000 		.4byte	.LVL199
 6113 0b9a 3E010000 		.4byte	.LVL205
 6114 0b9e 0500     		.2byte	0x5
 6115 0ba0 75       		.byte	0x75
 6116 0ba1 00       		.sleb128 0
ARM GAS  C:\Users\haske\AppData\Local\Temp\ccwuLgOR.s 			page 128


 6117 0ba2 31       		.byte	0x31
 6118 0ba3 26       		.byte	0x26
 6119 0ba4 9F       		.byte	0x9f
 6120 0ba5 3E010000 		.4byte	.LVL205
 6121 0ba9 44010000 		.4byte	.LVL207
 6122 0bad 0100     		.2byte	0x1
 6123 0baf 51       		.byte	0x51
 6124 0bb0 44010000 		.4byte	.LVL207
 6125 0bb4 5A010000 		.4byte	.LVL210
 6126 0bb8 0400     		.2byte	0x4
 6127 0bba F3       		.byte	0xf3
 6128 0bbb 01       		.uleb128 0x1
 6129 0bbc 51       		.byte	0x51
 6130 0bbd 9F       		.byte	0x9f
 6131 0bbe 00000000 		.4byte	0
 6132 0bc2 00000000 		.4byte	0
 6133              	.LLST50:
 6134 0bc6 00000000 		.4byte	.LVL147
 6135 0bca 0C000000 		.4byte	.LVL148
 6136 0bce 0100     		.2byte	0x1
 6137 0bd0 52       		.byte	0x52
 6138 0bd1 0C000000 		.4byte	.LVL148
 6139 0bd5 5E010000 		.4byte	.LFE57
 6140 0bd9 0400     		.2byte	0x4
 6141 0bdb F3       		.byte	0xf3
 6142 0bdc 01       		.uleb128 0x1
 6143 0bdd 52       		.byte	0x52
 6144 0bde 9F       		.byte	0x9f
 6145 0bdf 00000000 		.4byte	0
 6146 0be3 00000000 		.4byte	0
 6147              	.LLST51:
 6148 0be7 10000000 		.4byte	.LVL149
 6149 0beb 8C000000 		.4byte	.LVL174
 6150 0bef 0100     		.2byte	0x1
 6151 0bf1 54       		.byte	0x54
 6152 0bf2 8C000000 		.4byte	.LVL174
 6153 0bf6 B0000000 		.4byte	.LVL180
 6154 0bfa 0100     		.2byte	0x1
 6155 0bfc 50       		.byte	0x50
 6156 0bfd B0000000 		.4byte	.LVL180
 6157 0c01 B2000000 		.4byte	.LVL181
 6158 0c05 0600     		.2byte	0x6
 6159 0c07 77       		.byte	0x77
 6160 0c08 08       		.sleb128 8
 6161 0c09 06       		.byte	0x6
 6162 0c0a 23       		.byte	0x23
 6163 0c0b 08       		.uleb128 0x8
 6164 0c0c 9F       		.byte	0x9f
 6165 0c0d C2000000 		.4byte	.LVL182
 6166 0c11 E4000000 		.4byte	.LVL188
 6167 0c15 0100     		.2byte	0x1
 6168 0c17 54       		.byte	0x54
 6169 0c18 E4000000 		.4byte	.LVL188
 6170 0c1c EE000000 		.4byte	.LVL191
 6171 0c20 0600     		.2byte	0x6
 6172 0c22 70       		.byte	0x70
 6173 0c23 08       		.sleb128 8
ARM GAS  C:\Users\haske\AppData\Local\Temp\ccwuLgOR.s 			page 129


 6174 0c24 06       		.byte	0x6
 6175 0c25 23       		.byte	0x23
 6176 0c26 10       		.uleb128 0x10
 6177 0c27 9F       		.byte	0x9f
 6178 0c28 EE000000 		.4byte	.LVL191
 6179 0c2c F0000000 		.4byte	.LVL192
 6180 0c30 0600     		.2byte	0x6
 6181 0c32 77       		.byte	0x77
 6182 0c33 08       		.sleb128 8
 6183 0c34 06       		.byte	0x6
 6184 0c35 23       		.byte	0x23
 6185 0c36 10       		.uleb128 0x10
 6186 0c37 9F       		.byte	0x9f
 6187 0c38 00010000 		.4byte	.LVL195
 6188 0c3c 22010000 		.4byte	.LVL201
 6189 0c40 0100     		.2byte	0x1
 6190 0c42 54       		.byte	0x54
 6191 0c43 22010000 		.4byte	.LVL201
 6192 0c47 2C010000 		.4byte	.LVL203
 6193 0c4b 0600     		.2byte	0x6
 6194 0c4d 70       		.byte	0x70
 6195 0c4e 08       		.sleb128 8
 6196 0c4f 06       		.byte	0x6
 6197 0c50 23       		.byte	0x23
 6198 0c51 40       		.uleb128 0x40
 6199 0c52 9F       		.byte	0x9f
 6200 0c53 2C010000 		.4byte	.LVL203
 6201 0c57 2E010000 		.4byte	.LVL204
 6202 0c5b 0600     		.2byte	0x6
 6203 0c5d 77       		.byte	0x77
 6204 0c5e 08       		.sleb128 8
 6205 0c5f 06       		.byte	0x6
 6206 0c60 23       		.byte	0x23
 6207 0c61 40       		.uleb128 0x40
 6208 0c62 9F       		.byte	0x9f
 6209 0c63 3E010000 		.4byte	.LVL205
 6210 0c67 42010000 		.4byte	.LVL206
 6211 0c6b 0100     		.2byte	0x1
 6212 0c6d 54       		.byte	0x54
 6213 0c6e 42010000 		.4byte	.LVL206
 6214 0c72 5A010000 		.4byte	.LVL210
 6215 0c76 0400     		.2byte	0x4
 6216 0c78 74       		.byte	0x74
 6217 0c79 8008     		.sleb128 1024
 6218 0c7b 9F       		.byte	0x9f
 6219 0c7c 00000000 		.4byte	0
 6220 0c80 00000000 		.4byte	0
 6221              	.LLST52:
 6222 0c84 2C000000 		.4byte	.LVL152
 6223 0c88 3E000000 		.4byte	.LVL156
 6224 0c8c 0100     		.2byte	0x1
 6225 0c8e 50       		.byte	0x50
 6226 0c8f 00000000 		.4byte	0
 6227 0c93 00000000 		.4byte	0
 6228              	.LLST53:
 6229 0c97 38000000 		.4byte	.LVL153
 6230 0c9b 3A000000 		.4byte	.LVL154
ARM GAS  C:\Users\haske\AppData\Local\Temp\ccwuLgOR.s 			page 130


 6231 0c9f 0100     		.2byte	0x1
 6232 0ca1 51       		.byte	0x51
 6233 0ca2 3A000000 		.4byte	.LVL154
 6234 0ca6 3E000000 		.4byte	.LVL156
 6235 0caa 1100     		.2byte	0x11
 6236 0cac 77       		.byte	0x77
 6237 0cad 00       		.sleb128 0
 6238 0cae 06       		.byte	0x6
 6239 0caf 3B       		.byte	0x3b
 6240 0cb0 24       		.byte	0x24
 6241 0cb1 45       		.byte	0x45
 6242 0cb2 25       		.byte	0x25
 6243 0cb3 76       		.byte	0x76
 6244 0cb4 00       		.sleb128 0
 6245 0cb5 1E       		.byte	0x1e
 6246 0cb6 75       		.byte	0x75
 6247 0cb7 00       		.sleb128 0
 6248 0cb8 22       		.byte	0x22
 6249 0cb9 70       		.byte	0x70
 6250 0cba 00       		.sleb128 0
 6251 0cbb 1E       		.byte	0x1e
 6252 0cbc 9F       		.byte	0x9f
 6253 0cbd 00000000 		.4byte	0
 6254 0cc1 00000000 		.4byte	0
 6255              	.LLST54:
 6256 0cc5 3A000000 		.4byte	.LVL154
 6257 0cc9 4E000000 		.4byte	.LVL160
 6258 0ccd 0100     		.2byte	0x1
 6259 0ccf 50       		.byte	0x50
 6260 0cd0 00000000 		.4byte	0
 6261 0cd4 00000000 		.4byte	0
 6262              	.LLST55:
 6263 0cd8 3A000000 		.4byte	.LVL154
 6264 0cdc 3C000000 		.4byte	.LVL155
 6265 0ce0 0300     		.2byte	0x3
 6266 0ce2 91       		.byte	0x91
 6267 0ce3 64       		.sleb128 -28
 6268 0ce4 9F       		.byte	0x9f
 6269 0ce5 3C000000 		.4byte	.LVL155
 6270 0ce9 3E000000 		.4byte	.LVL156
 6271 0ced 0100     		.2byte	0x1
 6272 0cef 53       		.byte	0x53
 6273 0cf0 3E000000 		.4byte	.LVL156
 6274 0cf4 4E000000 		.4byte	.LVL160
 6275 0cf8 0300     		.2byte	0x3
 6276 0cfa 91       		.byte	0x91
 6277 0cfb 64       		.sleb128 -28
 6278 0cfc 9F       		.byte	0x9f
 6279 0cfd 00000000 		.4byte	0
 6280 0d01 00000000 		.4byte	0
 6281              	.LLST56:
 6282 0d05 3A000000 		.4byte	.LVL154
 6283 0d09 3E000000 		.4byte	.LVL156
 6284 0d0d 0100     		.2byte	0x1
 6285 0d0f 51       		.byte	0x51
 6286 0d10 00000000 		.4byte	0
 6287 0d14 00000000 		.4byte	0
ARM GAS  C:\Users\haske\AppData\Local\Temp\ccwuLgOR.s 			page 131


 6288              	.LLST57:
 6289 0d18 3A000000 		.4byte	.LVL154
 6290 0d1c 4E000000 		.4byte	.LVL160
 6291 0d20 0100     		.2byte	0x1
 6292 0d22 51       		.byte	0x51
 6293 0d23 00000000 		.4byte	0
 6294 0d27 00000000 		.4byte	0
 6295              	.LLST58:
 6296 0d2b 3A000000 		.4byte	.LVL154
 6297 0d2f 3C000000 		.4byte	.LVL155
 6298 0d33 0300     		.2byte	0x3
 6299 0d35 91       		.byte	0x91
 6300 0d36 64       		.sleb128 -28
 6301 0d37 9F       		.byte	0x9f
 6302 0d38 3C000000 		.4byte	.LVL155
 6303 0d3c 4E000000 		.4byte	.LVL160
 6304 0d40 0100     		.2byte	0x1
 6305 0d42 53       		.byte	0x53
 6306 0d43 00000000 		.4byte	0
 6307 0d47 00000000 		.4byte	0
 6308              	.LLST59:
 6309 0d4b 60000000 		.4byte	.LVL163
 6310 0d4f 70000000 		.4byte	.LVL166
 6311 0d53 0100     		.2byte	0x1
 6312 0d55 53       		.byte	0x53
 6313 0d56 70000000 		.4byte	.LVL166
 6314 0d5a 74000000 		.4byte	.LVL168
 6315 0d5e 0300     		.2byte	0x3
 6316 0d60 73       		.byte	0x73
 6317 0d61 01       		.sleb128 1
 6318 0d62 9F       		.byte	0x9f
 6319 0d63 00000000 		.4byte	0
 6320 0d67 00000000 		.4byte	0
 6321              	.LLST60:
 6322 0d6b 6C000000 		.4byte	.LVL164
 6323 0d6f 6E000000 		.4byte	.LVL165
 6324 0d73 0100     		.2byte	0x1
 6325 0d75 51       		.byte	0x51
 6326 0d76 6E000000 		.4byte	.LVL165
 6327 0d7a 70000000 		.4byte	.LVL166
 6328 0d7e 1100     		.2byte	0x11
 6329 0d80 77       		.byte	0x77
 6330 0d81 00       		.sleb128 0
 6331 0d82 06       		.byte	0x6
 6332 0d83 3B       		.byte	0x3b
 6333 0d84 24       		.byte	0x24
 6334 0d85 45       		.byte	0x45
 6335 0d86 25       		.byte	0x25
 6336 0d87 76       		.byte	0x76
 6337 0d88 00       		.sleb128 0
 6338 0d89 1E       		.byte	0x1e
 6339 0d8a 75       		.byte	0x75
 6340 0d8b 00       		.sleb128 0
 6341 0d8c 22       		.byte	0x22
 6342 0d8d 73       		.byte	0x73
 6343 0d8e 00       		.sleb128 0
 6344 0d8f 1E       		.byte	0x1e
ARM GAS  C:\Users\haske\AppData\Local\Temp\ccwuLgOR.s 			page 132


 6345 0d90 9F       		.byte	0x9f
 6346 0d91 70000000 		.4byte	.LVL166
 6347 0d95 74000000 		.4byte	.LVL168
 6348 0d99 1100     		.2byte	0x11
 6349 0d9b 73       		.byte	0x73
 6350 0d9c 01       		.sleb128 1
 6351 0d9d 77       		.byte	0x77
 6352 0d9e 00       		.sleb128 0
 6353 0d9f 06       		.byte	0x6
 6354 0da0 3B       		.byte	0x3b
 6355 0da1 24       		.byte	0x24
 6356 0da2 45       		.byte	0x45
 6357 0da3 25       		.byte	0x25
 6358 0da4 76       		.byte	0x76
 6359 0da5 00       		.sleb128 0
 6360 0da6 1E       		.byte	0x1e
 6361 0da7 75       		.byte	0x75
 6362 0da8 00       		.sleb128 0
 6363 0da9 22       		.byte	0x22
 6364 0daa 1E       		.byte	0x1e
 6365 0dab 9F       		.byte	0x9f
 6366 0dac 00000000 		.4byte	0
 6367 0db0 00000000 		.4byte	0
 6368              	.LLST61:
 6369 0db4 70000000 		.4byte	.LVL166
 6370 0db8 84000000 		.4byte	.LVL172
 6371 0dbc 0100     		.2byte	0x1
 6372 0dbe 53       		.byte	0x53
 6373 0dbf 00000000 		.4byte	0
 6374 0dc3 00000000 		.4byte	0
 6375              	.LLST62:
 6376 0dc7 70000000 		.4byte	.LVL166
 6377 0dcb 72000000 		.4byte	.LVL167
 6378 0dcf 0300     		.2byte	0x3
 6379 0dd1 91       		.byte	0x91
 6380 0dd2 64       		.sleb128 -28
 6381 0dd3 9F       		.byte	0x9f
 6382 0dd4 72000000 		.4byte	.LVL167
 6383 0dd8 74000000 		.4byte	.LVL168
 6384 0ddc 0100     		.2byte	0x1
 6385 0dde 52       		.byte	0x52
 6386 0ddf 74000000 		.4byte	.LVL168
 6387 0de3 84000000 		.4byte	.LVL172
 6388 0de7 0300     		.2byte	0x3
 6389 0de9 91       		.byte	0x91
 6390 0dea 64       		.sleb128 -28
 6391 0deb 9F       		.byte	0x9f
 6392 0dec 00000000 		.4byte	0
 6393 0df0 00000000 		.4byte	0
 6394              	.LLST63:
 6395 0df4 70000000 		.4byte	.LVL166
 6396 0df8 74000000 		.4byte	.LVL168
 6397 0dfc 0100     		.2byte	0x1
 6398 0dfe 51       		.byte	0x51
 6399 0dff 00000000 		.4byte	0
 6400 0e03 00000000 		.4byte	0
 6401              	.LLST64:
ARM GAS  C:\Users\haske\AppData\Local\Temp\ccwuLgOR.s 			page 133


 6402 0e07 70000000 		.4byte	.LVL166
 6403 0e0b 84000000 		.4byte	.LVL172
 6404 0e0f 0100     		.2byte	0x1
 6405 0e11 51       		.byte	0x51
 6406 0e12 00000000 		.4byte	0
 6407 0e16 00000000 		.4byte	0
 6408              	.LLST65:
 6409 0e1a 70000000 		.4byte	.LVL166
 6410 0e1e 72000000 		.4byte	.LVL167
 6411 0e22 0300     		.2byte	0x3
 6412 0e24 91       		.byte	0x91
 6413 0e25 64       		.sleb128 -28
 6414 0e26 9F       		.byte	0x9f
 6415 0e27 72000000 		.4byte	.LVL167
 6416 0e2b 84000000 		.4byte	.LVL172
 6417 0e2f 0100     		.2byte	0x1
 6418 0e31 52       		.byte	0x52
 6419 0e32 00000000 		.4byte	0
 6420 0e36 00000000 		.4byte	0
 6421              	.LLST66:
 6422 0e3a 92000000 		.4byte	.LVL175
 6423 0e3e AA000000 		.4byte	.LVL179
 6424 0e42 0100     		.2byte	0x1
 6425 0e44 52       		.byte	0x52
 6426 0e45 AA000000 		.4byte	.LVL179
 6427 0e49 C2000000 		.4byte	.LVL182
 6428 0e4d 0500     		.2byte	0x5
 6429 0e4f 75       		.byte	0x75
 6430 0e50 00       		.sleb128 0
 6431 0e51 37       		.byte	0x37
 6432 0e52 1A       		.byte	0x1a
 6433 0e53 9F       		.byte	0x9f
 6434 0e54 00000000 		.4byte	0
 6435 0e58 00000000 		.4byte	0
 6436              	.LLST67:
 6437 0e5c A2000000 		.4byte	.LVL177
 6438 0e60 A4000000 		.4byte	.LVL178
 6439 0e64 0100     		.2byte	0x1
 6440 0e66 51       		.byte	0x51
 6441 0e67 A4000000 		.4byte	.LVL178
 6442 0e6b C2000000 		.4byte	.LVL182
 6443 0e6f 0800     		.2byte	0x8
 6444 0e71 75       		.byte	0x75
 6445 0e72 00       		.sleb128 0
 6446 0e73 33       		.byte	0x33
 6447 0e74 26       		.byte	0x26
 6448 0e75 76       		.byte	0x76
 6449 0e76 00       		.sleb128 0
 6450 0e77 22       		.byte	0x22
 6451 0e78 9F       		.byte	0x9f
 6452 0e79 00000000 		.4byte	0
 6453 0e7d 00000000 		.4byte	0
 6454              	.LLST68:
 6455 0e81 CE000000 		.4byte	.LVL184
 6456 0e85 E8000000 		.4byte	.LVL189
 6457 0e89 0100     		.2byte	0x1
 6458 0e8b 52       		.byte	0x52
ARM GAS  C:\Users\haske\AppData\Local\Temp\ccwuLgOR.s 			page 134


 6459 0e8c E8000000 		.4byte	.LVL189
 6460 0e90 EA000000 		.4byte	.LVL190
 6461 0e94 0800     		.2byte	0x8
 6462 0e96 72       		.byte	0x72
 6463 0e97 00       		.sleb128 0
 6464 0e98 75       		.byte	0x75
 6465 0e99 00       		.sleb128 0
 6466 0e9a 1A       		.byte	0x1a
 6467 0e9b 31       		.byte	0x31
 6468 0e9c 24       		.byte	0x24
 6469 0e9d 9F       		.byte	0x9f
 6470 0e9e EA000000 		.4byte	.LVL190
 6471 0ea2 F6000000 		.4byte	.LVL193
 6472 0ea6 0700     		.2byte	0x7
 6473 0ea8 75       		.byte	0x75
 6474 0ea9 00       		.sleb128 0
 6475 0eaa 33       		.byte	0x33
 6476 0eab 1A       		.byte	0x1a
 6477 0eac 31       		.byte	0x31
 6478 0ead 24       		.byte	0x24
 6479 0eae 9F       		.byte	0x9f
 6480 0eaf F6000000 		.4byte	.LVL193
 6481 0eb3 F8000000 		.4byte	.LVL194
 6482 0eb7 0800     		.2byte	0x8
 6483 0eb9 73       		.byte	0x73
 6484 0eba 00       		.sleb128 0
 6485 0ebb 75       		.byte	0x75
 6486 0ebc 00       		.sleb128 0
 6487 0ebd 1A       		.byte	0x1a
 6488 0ebe 31       		.byte	0x31
 6489 0ebf 24       		.byte	0x24
 6490 0ec0 9F       		.byte	0x9f
 6491 0ec1 F8000000 		.4byte	.LVL194
 6492 0ec5 00010000 		.4byte	.LVL195
 6493 0ec9 0700     		.2byte	0x7
 6494 0ecb 75       		.byte	0x75
 6495 0ecc 00       		.sleb128 0
 6496 0ecd 33       		.byte	0x33
 6497 0ece 1A       		.byte	0x1a
 6498 0ecf 31       		.byte	0x31
 6499 0ed0 24       		.byte	0x24
 6500 0ed1 9F       		.byte	0x9f
 6501 0ed2 00000000 		.4byte	0
 6502 0ed6 00000000 		.4byte	0
 6503              	.LLST69:
 6504 0eda DE000000 		.4byte	.LVL186
 6505 0ede E0000000 		.4byte	.LVL187
 6506 0ee2 0100     		.2byte	0x1
 6507 0ee4 51       		.byte	0x51
 6508 0ee5 E0000000 		.4byte	.LVL187
 6509 0ee9 00010000 		.4byte	.LVL195
 6510 0eed 0800     		.2byte	0x8
 6511 0eef 75       		.byte	0x75
 6512 0ef0 00       		.sleb128 0
 6513 0ef1 32       		.byte	0x32
 6514 0ef2 26       		.byte	0x26
 6515 0ef3 76       		.byte	0x76
ARM GAS  C:\Users\haske\AppData\Local\Temp\ccwuLgOR.s 			page 135


 6516 0ef4 00       		.sleb128 0
 6517 0ef5 22       		.byte	0x22
 6518 0ef6 9F       		.byte	0x9f
 6519 0ef7 00000000 		.4byte	0
 6520 0efb 00000000 		.4byte	0
 6521              	.LLST70:
 6522 0eff 0C010000 		.4byte	.LVL197
 6523 0f03 26010000 		.4byte	.LVL202
 6524 0f07 0100     		.2byte	0x1
 6525 0f09 52       		.byte	0x52
 6526 0f0a 26010000 		.4byte	.LVL202
 6527 0f0e 3E010000 		.4byte	.LVL205
 6528 0f12 0700     		.2byte	0x7
 6529 0f14 75       		.byte	0x75
 6530 0f15 00       		.sleb128 0
 6531 0f16 31       		.byte	0x31
 6532 0f17 1A       		.byte	0x1a
 6533 0f18 32       		.byte	0x32
 6534 0f19 24       		.byte	0x24
 6535 0f1a 9F       		.byte	0x9f
 6536 0f1b 00000000 		.4byte	0
 6537 0f1f 00000000 		.4byte	0
 6538              	.LLST71:
 6539 0f23 1C010000 		.4byte	.LVL199
 6540 0f27 1E010000 		.4byte	.LVL200
 6541 0f2b 0100     		.2byte	0x1
 6542 0f2d 51       		.byte	0x51
 6543 0f2e 1E010000 		.4byte	.LVL200
 6544 0f32 3E010000 		.4byte	.LVL205
 6545 0f36 0800     		.2byte	0x8
 6546 0f38 75       		.byte	0x75
 6547 0f39 00       		.sleb128 0
 6548 0f3a 31       		.byte	0x31
 6549 0f3b 26       		.byte	0x26
 6550 0f3c 76       		.byte	0x76
 6551 0f3d 00       		.sleb128 0
 6552 0f3e 22       		.byte	0x22
 6553 0f3f 9F       		.byte	0x9f
 6554 0f40 00000000 		.4byte	0
 6555 0f44 00000000 		.4byte	0
 6556              	.LLST72:
 6557 0f48 4C010000 		.4byte	.LVL208
 6558 0f4c 54010000 		.4byte	.LVL209
 6559 0f50 0100     		.2byte	0x1
 6560 0f52 51       		.byte	0x51
 6561 0f53 54010000 		.4byte	.LVL209
 6562 0f57 5A010000 		.4byte	.LVL210
 6563 0f5b 0400     		.2byte	0x4
 6564 0f5d 71       		.byte	0x71
 6565 0f5e 8078     		.sleb128 -1024
 6566 0f60 9F       		.byte	0x9f
 6567 0f61 00000000 		.4byte	0
 6568 0f65 00000000 		.4byte	0
 6569              	.LLST73:
 6570 0f69 00000000 		.4byte	.LVL212
 6571 0f6d 78000000 		.4byte	.LVL222
 6572 0f71 0100     		.2byte	0x1
ARM GAS  C:\Users\haske\AppData\Local\Temp\ccwuLgOR.s 			page 136


 6573 0f73 50       		.byte	0x50
 6574 0f74 78000000 		.4byte	.LVL222
 6575 0f78 8A000000 		.4byte	.LFE58
 6576 0f7c 0400     		.2byte	0x4
 6577 0f7e F3       		.byte	0xf3
 6578 0f7f 01       		.uleb128 0x1
 6579 0f80 50       		.byte	0x50
 6580 0f81 9F       		.byte	0x9f
 6581 0f82 00000000 		.4byte	0
 6582 0f86 00000000 		.4byte	0
 6583              	.LLST74:
 6584 0f8a 00000000 		.4byte	.LVL212
 6585 0f8e 70000000 		.4byte	.LVL218
 6586 0f92 0100     		.2byte	0x1
 6587 0f94 51       		.byte	0x51
 6588 0f95 70000000 		.4byte	.LVL218
 6589 0f99 8A000000 		.4byte	.LFE58
 6590 0f9d 0400     		.2byte	0x4
 6591 0f9f F3       		.byte	0xf3
 6592 0fa0 01       		.uleb128 0x1
 6593 0fa1 51       		.byte	0x51
 6594 0fa2 9F       		.byte	0x9f
 6595 0fa3 00000000 		.4byte	0
 6596 0fa7 00000000 		.4byte	0
 6597              	.LLST75:
 6598 0fab 00000000 		.4byte	.LVL212
 6599 0faf 50000000 		.4byte	.LVL213
 6600 0fb3 0100     		.2byte	0x1
 6601 0fb5 52       		.byte	0x52
 6602 0fb6 86000000 		.4byte	.LVL226
 6603 0fba 8A000000 		.4byte	.LFE58
 6604 0fbe 0100     		.2byte	0x1
 6605 0fc0 52       		.byte	0x52
 6606 0fc1 00000000 		.4byte	0
 6607 0fc5 00000000 		.4byte	0
 6608              	.LLST76:
 6609 0fc9 6E000000 		.4byte	.LVL217
 6610 0fcd 76000000 		.4byte	.LVL221
 6611 0fd1 0100     		.2byte	0x1
 6612 0fd3 53       		.byte	0x53
 6613 0fd4 76000000 		.4byte	.LVL221
 6614 0fd8 78000000 		.4byte	.LVL222
 6615 0fdc 0200     		.2byte	0x2
 6616 0fde 70       		.byte	0x70
 6617 0fdf 08       		.sleb128 8
 6618 0fe0 00000000 		.4byte	0
 6619 0fe4 00000000 		.4byte	0
 6620              	.LLST77:
 6621 0fe8 68000000 		.4byte	.LVL215
 6622 0fec 6E000000 		.4byte	.LVL217
 6623 0ff0 0100     		.2byte	0x1
 6624 0ff2 53       		.byte	0x53
 6625 0ff3 00000000 		.4byte	0
 6626 0ff7 00000000 		.4byte	0
 6627              	.LLST78:
 6628 0ffb 72000000 		.4byte	.LVL219
 6629 0fff 78000000 		.4byte	.LVL222
ARM GAS  C:\Users\haske\AppData\Local\Temp\ccwuLgOR.s 			page 137


 6630 1003 0200     		.2byte	0x2
 6631 1005 34       		.byte	0x34
 6632 1006 9F       		.byte	0x9f
 6633 1007 78000000 		.4byte	.LVL222
 6634 100b 86000000 		.4byte	.LVL226
 6635 100f 0100     		.2byte	0x1
 6636 1011 53       		.byte	0x53
 6637 1012 00000000 		.4byte	0
 6638 1016 00000000 		.4byte	0
 6639              	.LLST79:
 6640 101a 72000000 		.4byte	.LVL219
 6641 101e 74000000 		.4byte	.LVL220
 6642 1022 0300     		.2byte	0x3
 6643 1024 91       		.byte	0x91
 6644 1025 6C       		.sleb128 -20
 6645 1026 9F       		.byte	0x9f
 6646 1027 74000000 		.4byte	.LVL220
 6647 102b 78000000 		.4byte	.LVL222
 6648 102f 0100     		.2byte	0x1
 6649 1031 52       		.byte	0x52
 6650 1032 78000000 		.4byte	.LVL222
 6651 1036 86000000 		.4byte	.LVL226
 6652 103a 0300     		.2byte	0x3
 6653 103c 91       		.byte	0x91
 6654 103d 6C       		.sleb128 -20
 6655 103e 9F       		.byte	0x9f
 6656 103f 00000000 		.4byte	0
 6657 1043 00000000 		.4byte	0
 6658              	.LLST80:
 6659 1047 72000000 		.4byte	.LVL219
 6660 104b 78000000 		.4byte	.LVL222
 6661 104f 0100     		.2byte	0x1
 6662 1051 51       		.byte	0x51
 6663 1052 00000000 		.4byte	0
 6664 1056 00000000 		.4byte	0
 6665              	.LLST81:
 6666 105a 78000000 		.4byte	.LVL222
 6667 105e 86000000 		.4byte	.LVL226
 6668 1062 0100     		.2byte	0x1
 6669 1064 51       		.byte	0x51
 6670 1065 00000000 		.4byte	0
 6671 1069 00000000 		.4byte	0
 6672              	.LLST82:
 6673 106d 78000000 		.4byte	.LVL222
 6674 1071 86000000 		.4byte	.LVL226
 6675 1075 0100     		.2byte	0x1
 6676 1077 52       		.byte	0x52
 6677 1078 00000000 		.4byte	0
 6678 107c 00000000 		.4byte	0
 6679              	.LLST83:
 6680 1080 00000000 		.4byte	.LVL227
 6681 1084 08000000 		.4byte	.LVL228
 6682 1088 0100     		.2byte	0x1
 6683 108a 50       		.byte	0x50
 6684 108b 08000000 		.4byte	.LVL228
 6685 108f 16000000 		.4byte	.LVL231
 6686 1093 0100     		.2byte	0x1
ARM GAS  C:\Users\haske\AppData\Local\Temp\ccwuLgOR.s 			page 138


 6687 1095 54       		.byte	0x54
 6688 1096 16000000 		.4byte	.LVL231
 6689 109a 18000000 		.4byte	.LFE60
 6690 109e 0400     		.2byte	0x4
 6691 10a0 F3       		.byte	0xf3
 6692 10a1 01       		.uleb128 0x1
 6693 10a2 50       		.byte	0x50
 6694 10a3 9F       		.byte	0x9f
 6695 10a4 00000000 		.4byte	0
 6696 10a8 00000000 		.4byte	0
 6697              	.LLST84:
 6698 10ac 00000000 		.4byte	.LVL232
 6699 10b0 12000000 		.4byte	.LVL234
 6700 10b4 0100     		.2byte	0x1
 6701 10b6 50       		.byte	0x50
 6702 10b7 12000000 		.4byte	.LVL234
 6703 10bb 16000000 		.4byte	.LVL235
 6704 10bf 0400     		.2byte	0x4
 6705 10c1 F3       		.byte	0xf3
 6706 10c2 01       		.uleb128 0x1
 6707 10c3 50       		.byte	0x50
 6708 10c4 9F       		.byte	0x9f
 6709 10c5 16000000 		.4byte	.LVL235
 6710 10c9 1A000000 		.4byte	.LVL236
 6711 10cd 0100     		.2byte	0x1
 6712 10cf 50       		.byte	0x50
 6713 10d0 1A000000 		.4byte	.LVL236
 6714 10d4 1E000000 		.4byte	.LVL237
 6715 10d8 0400     		.2byte	0x4
 6716 10da F3       		.byte	0xf3
 6717 10db 01       		.uleb128 0x1
 6718 10dc 50       		.byte	0x50
 6719 10dd 9F       		.byte	0x9f
 6720 10de 1E000000 		.4byte	.LVL237
 6721 10e2 20000000 		.4byte	.LVL238
 6722 10e6 0100     		.2byte	0x1
 6723 10e8 50       		.byte	0x50
 6724 10e9 20000000 		.4byte	.LVL238
 6725 10ed 24000000 		.4byte	.LVL239
 6726 10f1 0400     		.2byte	0x4
 6727 10f3 F3       		.byte	0xf3
 6728 10f4 01       		.uleb128 0x1
 6729 10f5 50       		.byte	0x50
 6730 10f6 9F       		.byte	0x9f
 6731 10f7 24000000 		.4byte	.LVL239
 6732 10fb 2C000000 		.4byte	.LVL240
 6733 10ff 0100     		.2byte	0x1
 6734 1101 50       		.byte	0x50
 6735 1102 2C000000 		.4byte	.LVL240
 6736 1106 34000000 		.4byte	.LVL241
 6737 110a 0400     		.2byte	0x4
 6738 110c F3       		.byte	0xf3
 6739 110d 01       		.uleb128 0x1
 6740 110e 50       		.byte	0x50
 6741 110f 9F       		.byte	0x9f
 6742 1110 34000000 		.4byte	.LVL241
 6743 1114 3C000000 		.4byte	.LVL242
ARM GAS  C:\Users\haske\AppData\Local\Temp\ccwuLgOR.s 			page 139


 6744 1118 0100     		.2byte	0x1
 6745 111a 50       		.byte	0x50
 6746 111b 3C000000 		.4byte	.LVL242
 6747 111f 44000000 		.4byte	.LVL243
 6748 1123 0400     		.2byte	0x4
 6749 1125 F3       		.byte	0xf3
 6750 1126 01       		.uleb128 0x1
 6751 1127 50       		.byte	0x50
 6752 1128 9F       		.byte	0x9f
 6753 1129 44000000 		.4byte	.LVL243
 6754 112d 48000000 		.4byte	.LVL244
 6755 1131 0100     		.2byte	0x1
 6756 1133 50       		.byte	0x50
 6757 1134 48000000 		.4byte	.LVL244
 6758 1138 50000000 		.4byte	.LVL245
 6759 113c 0400     		.2byte	0x4
 6760 113e F3       		.byte	0xf3
 6761 113f 01       		.uleb128 0x1
 6762 1140 50       		.byte	0x50
 6763 1141 9F       		.byte	0x9f
 6764 1142 50000000 		.4byte	.LVL245
 6765 1146 52000000 		.4byte	.LVL246
 6766 114a 0100     		.2byte	0x1
 6767 114c 50       		.byte	0x50
 6768 114d 52000000 		.4byte	.LVL246
 6769 1151 54000000 		.4byte	.LVL247
 6770 1155 0400     		.2byte	0x4
 6771 1157 F3       		.byte	0xf3
 6772 1158 01       		.uleb128 0x1
 6773 1159 50       		.byte	0x50
 6774 115a 9F       		.byte	0x9f
 6775 115b 54000000 		.4byte	.LVL247
 6776 115f 5C000000 		.4byte	.LVL248
 6777 1163 0100     		.2byte	0x1
 6778 1165 50       		.byte	0x50
 6779 1166 5C000000 		.4byte	.LVL248
 6780 116a 66000000 		.4byte	.LVL249
 6781 116e 0400     		.2byte	0x4
 6782 1170 F3       		.byte	0xf3
 6783 1171 01       		.uleb128 0x1
 6784 1172 50       		.byte	0x50
 6785 1173 9F       		.byte	0x9f
 6786 1174 66000000 		.4byte	.LVL249
 6787 1178 6E000000 		.4byte	.LVL250
 6788 117c 0100     		.2byte	0x1
 6789 117e 50       		.byte	0x50
 6790 117f 6E000000 		.4byte	.LVL250
 6791 1183 78000000 		.4byte	.LVL251
 6792 1187 0400     		.2byte	0x4
 6793 1189 F3       		.byte	0xf3
 6794 118a 01       		.uleb128 0x1
 6795 118b 50       		.byte	0x50
 6796 118c 9F       		.byte	0x9f
 6797 118d 78000000 		.4byte	.LVL251
 6798 1191 7C000000 		.4byte	.LVL252
 6799 1195 0100     		.2byte	0x1
 6800 1197 50       		.byte	0x50
ARM GAS  C:\Users\haske\AppData\Local\Temp\ccwuLgOR.s 			page 140


 6801 1198 7C000000 		.4byte	.LVL252
 6802 119c 86000000 		.4byte	.LVL253
 6803 11a0 0400     		.2byte	0x4
 6804 11a2 F3       		.byte	0xf3
 6805 11a3 01       		.uleb128 0x1
 6806 11a4 50       		.byte	0x50
 6807 11a5 9F       		.byte	0x9f
 6808 11a6 86000000 		.4byte	.LVL253
 6809 11aa 88000000 		.4byte	.LVL254
 6810 11ae 0100     		.2byte	0x1
 6811 11b0 50       		.byte	0x50
 6812 11b1 88000000 		.4byte	.LVL254
 6813 11b5 92000000 		.4byte	.LVL255
 6814 11b9 0400     		.2byte	0x4
 6815 11bb F3       		.byte	0xf3
 6816 11bc 01       		.uleb128 0x1
 6817 11bd 50       		.byte	0x50
 6818 11be 9F       		.byte	0x9f
 6819 11bf 92000000 		.4byte	.LVL255
 6820 11c3 94000000 		.4byte	.LVL256
 6821 11c7 0100     		.2byte	0x1
 6822 11c9 50       		.byte	0x50
 6823 11ca 94000000 		.4byte	.LVL256
 6824 11ce 9C000000 		.4byte	.LFE61
 6825 11d2 0400     		.2byte	0x4
 6826 11d4 F3       		.byte	0xf3
 6827 11d5 01       		.uleb128 0x1
 6828 11d6 50       		.byte	0x50
 6829 11d7 9F       		.byte	0x9f
 6830 11d8 00000000 		.4byte	0
 6831 11dc 00000000 		.4byte	0
 6832              	.LLST85:
 6833 11e0 00000000 		.4byte	.LVL232
 6834 11e4 02000000 		.4byte	.LVL233
 6835 11e8 0100     		.2byte	0x1
 6836 11ea 52       		.byte	0x52
 6837 11eb 02000000 		.4byte	.LVL233
 6838 11ef 9C000000 		.4byte	.LFE61
 6839 11f3 0400     		.2byte	0x4
 6840 11f5 F3       		.byte	0xf3
 6841 11f6 01       		.uleb128 0x1
 6842 11f7 52       		.byte	0x52
 6843 11f8 9F       		.byte	0x9f
 6844 11f9 00000000 		.4byte	0
 6845 11fd 00000000 		.4byte	0
 6846              	.LLST86:
 6847 1201 00000000 		.4byte	.LVL257
 6848 1205 0A000000 		.4byte	.LVL258
 6849 1209 0100     		.2byte	0x1
 6850 120b 50       		.byte	0x50
 6851 120c 0A000000 		.4byte	.LVL258
 6852 1210 88000000 		.4byte	.LFE59
 6853 1214 0400     		.2byte	0x4
 6854 1216 F3       		.byte	0xf3
 6855 1217 01       		.uleb128 0x1
 6856 1218 50       		.byte	0x50
 6857 1219 9F       		.byte	0x9f
ARM GAS  C:\Users\haske\AppData\Local\Temp\ccwuLgOR.s 			page 141


 6858 121a 00000000 		.4byte	0
 6859 121e 00000000 		.4byte	0
 6860              	.LLST87:
 6861 1222 00000000 		.4byte	.LVL257
 6862 1226 0D000000 		.4byte	.LVL259-1
 6863 122a 0100     		.2byte	0x1
 6864 122c 51       		.byte	0x51
 6865 122d 0D000000 		.4byte	.LVL259-1
 6866 1231 88000000 		.4byte	.LFE59
 6867 1235 0400     		.2byte	0x4
 6868 1237 F3       		.byte	0xf3
 6869 1238 01       		.uleb128 0x1
 6870 1239 51       		.byte	0x51
 6871 123a 9F       		.byte	0x9f
 6872 123b 00000000 		.4byte	0
 6873 123f 00000000 		.4byte	0
 6874              	.LLST88:
 6875 1243 00000000 		.4byte	.LVL257
 6876 1247 0D000000 		.4byte	.LVL259-1
 6877 124b 0100     		.2byte	0x1
 6878 124d 52       		.byte	0x52
 6879 124e 0D000000 		.4byte	.LVL259-1
 6880 1252 88000000 		.4byte	.LFE59
 6881 1256 0400     		.2byte	0x4
 6882 1258 F3       		.byte	0xf3
 6883 1259 01       		.uleb128 0x1
 6884 125a 52       		.byte	0x52
 6885 125b 9F       		.byte	0x9f
 6886 125c 00000000 		.4byte	0
 6887 1260 00000000 		.4byte	0
 6888              	.LLST89:
 6889 1264 10000000 		.4byte	.LVL260
 6890 1268 17000000 		.4byte	.LVL261-1
 6891 126c 0100     		.2byte	0x1
 6892 126e 50       		.byte	0x50
 6893 126f 17000000 		.4byte	.LVL261-1
 6894 1273 80000000 		.4byte	.LVL267
 6895 1277 0100     		.2byte	0x1
 6896 1279 54       		.byte	0x54
 6897 127a 80000000 		.4byte	.LVL267
 6898 127e 82000000 		.4byte	.LVL268
 6899 1282 0100     		.2byte	0x1
 6900 1284 50       		.byte	0x50
 6901 1285 82000000 		.4byte	.LVL268
 6902 1289 82000000 		.4byte	.LVL269
 6903 128d 0100     		.2byte	0x1
 6904 128f 54       		.byte	0x54
 6905 1290 00000000 		.4byte	0
 6906 1294 00000000 		.4byte	0
 6907              	.LLST90:
 6908 1298 00000000 		.4byte	.LVL270
 6909 129c 2C000000 		.4byte	.LVL276
 6910 12a0 0100     		.2byte	0x1
 6911 12a2 50       		.byte	0x50
 6912 12a3 2C000000 		.4byte	.LVL276
 6913 12a7 4C010000 		.4byte	.LVL283
 6914 12ab 0100     		.2byte	0x1
ARM GAS  C:\Users\haske\AppData\Local\Temp\ccwuLgOR.s 			page 142


 6915 12ad 56       		.byte	0x56
 6916 12ae 4C010000 		.4byte	.LVL283
 6917 12b2 4E010000 		.4byte	.LFE62
 6918 12b6 0400     		.2byte	0x4
 6919 12b8 F3       		.byte	0xf3
 6920 12b9 01       		.uleb128 0x1
 6921 12ba 50       		.byte	0x50
 6922 12bb 9F       		.byte	0x9f
 6923 12bc 00000000 		.4byte	0
 6924 12c0 00000000 		.4byte	0
 6925              	.LLST91:
 6926 12c4 00000000 		.4byte	.LVL270
 6927 12c8 20000000 		.4byte	.LVL273
 6928 12cc 0100     		.2byte	0x1
 6929 12ce 51       		.byte	0x51
 6930 12cf 20000000 		.4byte	.LVL273
 6931 12d3 28000000 		.4byte	.LVL275
 6932 12d7 0400     		.2byte	0x4
 6933 12d9 F3       		.byte	0xf3
 6934 12da 01       		.uleb128 0x1
 6935 12db 51       		.byte	0x51
 6936 12dc 9F       		.byte	0x9f
 6937 12dd 28000000 		.4byte	.LVL275
 6938 12e1 42000000 		.4byte	.LVL278
 6939 12e5 0100     		.2byte	0x1
 6940 12e7 51       		.byte	0x51
 6941 12e8 42000000 		.4byte	.LVL278
 6942 12ec 45000000 		.4byte	.LVL279-1
 6943 12f0 0200     		.2byte	0x2
 6944 12f2 70       		.byte	0x70
 6945 12f3 04       		.sleb128 4
 6946 12f4 45000000 		.4byte	.LVL279-1
 6947 12f8 4E010000 		.4byte	.LFE62
 6948 12fc 0400     		.2byte	0x4
 6949 12fe F3       		.byte	0xf3
 6950 12ff 01       		.uleb128 0x1
 6951 1300 51       		.byte	0x51
 6952 1301 9F       		.byte	0x9f
 6953 1302 00000000 		.4byte	0
 6954 1306 00000000 		.4byte	0
 6955              	.LLST92:
 6956 130a 00000000 		.4byte	.LVL270
 6957 130e 24000000 		.4byte	.LVL274
 6958 1312 0100     		.2byte	0x1
 6959 1314 52       		.byte	0x52
 6960 1315 24000000 		.4byte	.LVL274
 6961 1319 28000000 		.4byte	.LVL275
 6962 131d 0400     		.2byte	0x4
 6963 131f F3       		.byte	0xf3
 6964 1320 01       		.uleb128 0x1
 6965 1321 52       		.byte	0x52
 6966 1322 9F       		.byte	0x9f
 6967 1323 28000000 		.4byte	.LVL275
 6968 1327 40000000 		.4byte	.LVL277
 6969 132b 0100     		.2byte	0x1
 6970 132d 52       		.byte	0x52
 6971 132e 40000000 		.4byte	.LVL277
ARM GAS  C:\Users\haske\AppData\Local\Temp\ccwuLgOR.s 			page 143


 6972 1332 45000000 		.4byte	.LVL279-1
 6973 1336 0200     		.2byte	0x2
 6974 1338 70       		.byte	0x70
 6975 1339 0A       		.sleb128 10
 6976 133a 45000000 		.4byte	.LVL279-1
 6977 133e 4E010000 		.4byte	.LFE62
 6978 1342 0400     		.2byte	0x4
 6979 1344 F3       		.byte	0xf3
 6980 1345 01       		.uleb128 0x1
 6981 1346 52       		.byte	0x52
 6982 1347 9F       		.byte	0x9f
 6983 1348 00000000 		.4byte	0
 6984 134c 00000000 		.4byte	0
 6985              	.LLST93:
 6986 1350 00000000 		.4byte	.LVL270
 6987 1354 0A000000 		.4byte	.LVL271
 6988 1358 0100     		.2byte	0x1
 6989 135a 53       		.byte	0x53
 6990 135b 0A000000 		.4byte	.LVL271
 6991 135f 4E010000 		.4byte	.LFE62
 6992 1363 0400     		.2byte	0x4
 6993 1365 F3       		.byte	0xf3
 6994 1366 01       		.uleb128 0x1
 6995 1367 53       		.byte	0x53
 6996 1368 9F       		.byte	0x9f
 6997 1369 00000000 		.4byte	0
 6998 136d 00000000 		.4byte	0
 6999              	.LLST94:
 7000 1371 00000000 		.4byte	.LVL270
 7001 1375 0A000000 		.4byte	.LVL271
 7002 1379 0200     		.2byte	0x2
 7003 137b 91       		.byte	0x91
 7004 137c 00       		.sleb128 0
 7005 137d 0A000000 		.4byte	.LVL271
 7006 1381 12000000 		.4byte	.LVL272
 7007 1385 0200     		.2byte	0x2
 7008 1387 73       		.byte	0x73
 7009 1388 00       		.sleb128 0
 7010 1389 12000000 		.4byte	.LVL272
 7011 138d 4E010000 		.4byte	.LFE62
 7012 1391 0200     		.2byte	0x2
 7013 1393 91       		.byte	0x91
 7014 1394 00       		.sleb128 0
 7015 1395 00000000 		.4byte	0
 7016 1399 00000000 		.4byte	0
 7017              	.LLST95:
 7018 139d 00000000 		.4byte	.LVL270
 7019 13a1 0A000000 		.4byte	.LVL271
 7020 13a5 0200     		.2byte	0x2
 7021 13a7 91       		.byte	0x91
 7022 13a8 04       		.sleb128 4
 7023 13a9 0A000000 		.4byte	.LVL271
 7024 13ad 12000000 		.4byte	.LVL272
 7025 13b1 0200     		.2byte	0x2
 7026 13b3 73       		.byte	0x73
 7027 13b4 04       		.sleb128 4
 7028 13b5 12000000 		.4byte	.LVL272
ARM GAS  C:\Users\haske\AppData\Local\Temp\ccwuLgOR.s 			page 144


 7029 13b9 4E010000 		.4byte	.LFE62
 7030 13bd 0200     		.2byte	0x2
 7031 13bf 91       		.byte	0x91
 7032 13c0 04       		.sleb128 4
 7033 13c1 00000000 		.4byte	0
 7034 13c5 00000000 		.4byte	0
 7035              		.section	.debug_aranges,"",%progbits
 7036 0000 5C000000 		.4byte	0x5c
 7037 0004 0200     		.2byte	0x2
 7038 0006 00000000 		.4byte	.Ldebug_info0
 7039 000a 04       		.byte	0x4
 7040 000b 00       		.byte	0
 7041 000c 0000     		.2byte	0
 7042 000e 0000     		.2byte	0
 7043 0010 00000000 		.4byte	.LFB54
 7044 0014 1A010000 		.4byte	.LFE54-.LFB54
 7045 0018 00000000 		.4byte	.LFB55
 7046 001c F8000000 		.4byte	.LFE55-.LFB55
 7047 0020 00000000 		.4byte	.LFB56
 7048 0024 EC000000 		.4byte	.LFE56-.LFB56
 7049 0028 00000000 		.4byte	.LFB57
 7050 002c 5E010000 		.4byte	.LFE57-.LFB57
 7051 0030 00000000 		.4byte	.LFB58
 7052 0034 8A000000 		.4byte	.LFE58-.LFB58
 7053 0038 00000000 		.4byte	.LFB60
 7054 003c 18000000 		.4byte	.LFE60-.LFB60
 7055 0040 00000000 		.4byte	.LFB61
 7056 0044 9C000000 		.4byte	.LFE61-.LFB61
 7057 0048 00000000 		.4byte	.LFB59
 7058 004c 88000000 		.4byte	.LFE59-.LFB59
 7059 0050 00000000 		.4byte	.LFB62
 7060 0054 4E010000 		.4byte	.LFE62-.LFB62
 7061 0058 00000000 		.4byte	0
 7062 005c 00000000 		.4byte	0
 7063              		.section	.debug_ranges,"",%progbits
 7064              	.Ldebug_ranges0:
 7065 0000 44000000 		.4byte	.LBB30
 7066 0004 46000000 		.4byte	.LBE30
 7067 0008 4A000000 		.4byte	.LBB33
 7068 000c 5A000000 		.4byte	.LBE33
 7069 0010 00000000 		.4byte	0
 7070 0014 00000000 		.4byte	0
 7071 0018 2E000000 		.4byte	.LBB39
 7072 001c 5C000000 		.4byte	.LBE39
 7073 0020 E8000000 		.4byte	.LBB43
 7074 0024 EC000000 		.4byte	.LBE43
 7075 0028 00000000 		.4byte	0
 7076 002c 00000000 		.4byte	0
 7077 0030 72000000 		.4byte	.LBB61
 7078 0034 74000000 		.4byte	.LBE61
 7079 0038 78000000 		.4byte	.LBB64
 7080 003c 86000000 		.4byte	.LBE64
 7081 0040 00000000 		.4byte	0
 7082 0044 00000000 		.4byte	0
 7083 0048 00000000 		.4byte	.LFB54
 7084 004c 1A010000 		.4byte	.LFE54
 7085 0050 00000000 		.4byte	.LFB55
ARM GAS  C:\Users\haske\AppData\Local\Temp\ccwuLgOR.s 			page 145


 7086 0054 F8000000 		.4byte	.LFE55
 7087 0058 00000000 		.4byte	.LFB56
 7088 005c EC000000 		.4byte	.LFE56
 7089 0060 00000000 		.4byte	.LFB57
 7090 0064 5E010000 		.4byte	.LFE57
 7091 0068 00000000 		.4byte	.LFB58
 7092 006c 8A000000 		.4byte	.LFE58
 7093 0070 00000000 		.4byte	.LFB60
 7094 0074 18000000 		.4byte	.LFE60
 7095 0078 00000000 		.4byte	.LFB61
 7096 007c 9C000000 		.4byte	.LFE61
 7097 0080 00000000 		.4byte	.LFB59
 7098 0084 88000000 		.4byte	.LFE59
 7099 0088 00000000 		.4byte	.LFB62
 7100 008c 4E010000 		.4byte	.LFE62
 7101 0090 00000000 		.4byte	0
 7102 0094 00000000 		.4byte	0
 7103              		.section	.debug_line,"",%progbits
 7104              	.Ldebug_line0:
 7105 0000 B5040000 		.section	.debug_str,"MS",%progbits,1
 7105      0200C002 
 7105      00000201 
 7105      FB0E0D00 
 7105      01010101 
 7106              	.LASF109:
 7107 0000 75736572 		.ascii	"user_data\000"
 7107      5F646174 
 7107      6100
 7108              	.LASF102:
 7109 000a 6765745F 		.ascii	"get_glyph_bitmap\000"
 7109      676C7970 
 7109      685F6269 
 7109      746D6170 
 7109      00
 7110              	.LASF48:
 7111 001b 4C565F49 		.ascii	"LV_IMG_CF_RAW\000"
 7111      4D475F43 
 7111      465F5241 
 7111      5700
 7112              	.LASF68:
 7113 0029 4C565F49 		.ascii	"LV_IMG_CF_RESERVED_15\000"
 7113      4D475F43 
 7113      465F5245 
 7113      53455256 
 7113      45445F31 
 7114              	.LASF3:
 7115 003f 73697A65 		.ascii	"size_t\000"
 7115      5F7400
 7116              	.LASF6:
 7117 0046 5F5F7569 		.ascii	"__uint8_t\000"
 7117      6E74385F 
 7117      7400
 7118              	.LASF49:
 7119 0050 4C565F49 		.ascii	"LV_IMG_CF_RAW_ALPHA\000"
 7119      4D475F43 
 7119      465F5241 
 7119      575F414C 
ARM GAS  C:\Users\haske\AppData\Local\Temp\ccwuLgOR.s 			page 146


 7119      50484100 
 7120              	.LASF60:
 7121 0064 4C565F49 		.ascii	"LV_IMG_CF_ALPHA_4BIT\000"
 7121      4D475F43 
 7121      465F414C 
 7121      5048415F 
 7121      34424954 
 7122              	.LASF15:
 7123 0079 6C6F6E67 		.ascii	"long long unsigned int\000"
 7123      206C6F6E 
 7123      6720756E 
 7123      7369676E 
 7123      65642069 
 7124              	.LASF111:
 7125 0090 6C765F66 		.ascii	"lv_font_t\000"
 7125      6F6E745F 
 7125      7400
 7126              	.LASF130:
 7127 009a 616E676C 		.ascii	"angle\000"
 7127      6500
 7128              	.LASF131:
 7129 00a0 7A6F6F6D 		.ascii	"zoom\000"
 7129      00
 7130              	.LASF118:
 7131 00a5 70785F73 		.ascii	"px_size\000"
 7131      697A6500 
 7132              	.LASF57:
 7133 00ad 4C565F49 		.ascii	"LV_IMG_CF_INDEXED_8BIT\000"
 7133      4D475F43 
 7133      465F494E 
 7133      44455845 
 7133      445F3842 
 7134              	.LASF4:
 7135 00c4 5F5F696E 		.ascii	"__int8_t\000"
 7135      74385F74 
 7135      00
 7136              	.LASF41:
 7137 00cd 6C765F63 		.ascii	"lv_color32_t\000"
 7137      6F6C6F72 
 7137      33325F74 
 7137      00
 7138              	.LASF132:
 7139 00da 7069766F 		.ascii	"pivot\000"
 7139      7400
 7140              	.LASF125:
 7141 00e0 6C765F69 		.ascii	"lv_img_buf_set_palette\000"
 7141      6D675F62 
 7141      75665F73 
 7141      65745F70 
 7141      616C6574 
 7142              	.LASF44:
 7143 00f7 6C765F63 		.ascii	"lv_coord_t\000"
 7143      6F6F7264 
 7143      5F7400
 7144              	.LASF122:
 7145 0102 6F70615F 		.ascii	"opa_table\000"
 7145      7461626C 
ARM GAS  C:\Users\haske\AppData\Local\Temp\ccwuLgOR.s 			page 147


 7145      6500
 7146              	.LASF143:
 7147 010c 6C765F66 		.ascii	"lv_font_montserrat_14\000"
 7147      6F6E745F 
 7147      6D6F6E74 
 7147      73657272 
 7147      61745F31 
 7148              	.LASF1:
 7149 0122 6C6F6E67 		.ascii	"long long int\000"
 7149      206C6F6E 
 7149      6720696E 
 7149      7400
 7150              	.LASF5:
 7151 0130 7369676E 		.ascii	"signed char\000"
 7151      65642063 
 7151      68617200 
 7152              	.LASF37:
 7153 013c 67726565 		.ascii	"green\000"
 7153      6E00
 7154              	.LASF40:
 7155 0142 616C7068 		.ascii	"alpha\000"
 7155      6100
 7156              	.LASF121:
 7157 0148 70785F6F 		.ascii	"px_opa\000"
 7157      706100
 7158              	.LASF135:
 7159 014f 6C765F6D 		.ascii	"lv_mem_alloc\000"
 7159      656D5F61 
 7159      6C6C6F63 
 7159      00
 7160              	.LASF136:
 7161 015c 6C765F6D 		.ascii	"lv_memset_00\000"
 7161      656D7365 
 7161      745F3030 
 7161      00
 7162              	.LASF46:
 7163 0169 6C765F61 		.ascii	"lv_area_t\000"
 7163      7265615F 
 7163      7400
 7164              	.LASF12:
 7165 0173 6C6F6E67 		.ascii	"long int\000"
 7165      20696E74 
 7165      00
 7166              	.LASF88:
 7167 017c 6C765F69 		.ascii	"lv_img_header_t\000"
 7167      6D675F68 
 7167      65616465 
 7167      725F7400 
 7168              	.LASF21:
 7169 018c 75696E74 		.ascii	"uint16_t\000"
 7169      31365F74 
 7169      00
 7170              	.LASF134:
 7171 0195 6C765F6D 		.ascii	"lv_mem_free\000"
 7171      656D5F66 
 7171      72656500 
 7172              	.LASF35:
ARM GAS  C:\Users\haske\AppData\Local\Temp\ccwuLgOR.s 			page 148


 7173 01a1 4C565F4F 		.ascii	"LV_OPA_COVER\000"
 7173      50415F43 
 7173      4F564552 
 7173      00
 7174              	.LASF133:
 7175 01ae 6C765F69 		.ascii	"lv_img_cf_get_px_size\000"
 7175      6D675F63 
 7175      665F6765 
 7175      745F7078 
 7175      5F73697A 
 7176              	.LASF91:
 7177 01c4 64617461 		.ascii	"data\000"
 7177      00
 7178              	.LASF47:
 7179 01c9 4C565F49 		.ascii	"LV_IMG_CF_UNKNOWN\000"
 7179      4D475F43 
 7179      465F554E 
 7179      4B4E4F57 
 7179      4E00
 7180              	.LASF63:
 7181 01db 4C565F49 		.ascii	"LV_IMG_CF_RGBA8888\000"
 7181      4D475F43 
 7181      465F5247 
 7181      42413838 
 7181      383800
 7182              	.LASF69:
 7183 01ee 4C565F49 		.ascii	"LV_IMG_CF_RESERVED_16\000"
 7183      4D475F43 
 7183      465F5245 
 7183      53455256 
 7183      45445F31 
 7184              	.LASF70:
 7185 0204 4C565F49 		.ascii	"LV_IMG_CF_RESERVED_17\000"
 7185      4D475F43 
 7185      465F5245 
 7185      53455256 
 7185      45445F31 
 7186              	.LASF71:
 7187 021a 4C565F49 		.ascii	"LV_IMG_CF_RESERVED_18\000"
 7187      4D475F43 
 7187      465F5245 
 7187      53455256 
 7187      45445F31 
 7188              	.LASF72:
 7189 0230 4C565F49 		.ascii	"LV_IMG_CF_RESERVED_19\000"
 7189      4D475F43 
 7189      465F5245 
 7189      53455256 
 7189      45445F31 
 7190              	.LASF104:
 7191 0246 62617365 		.ascii	"base_line\000"
 7191      5F6C696E 
 7191      6500
 7192              	.LASF142:
 7193 0250 6C765F63 		.ascii	"lv_color_black\000"
 7193      6F6C6F72 
 7193      5F626C61 
ARM GAS  C:\Users\haske\AppData\Local\Temp\ccwuLgOR.s 			page 149


 7193      636B00
 7194              	.LASF13:
 7195 025f 5F5F7569 		.ascii	"__uint32_t\000"
 7195      6E743332 
 7195      5F7400
 7196              	.LASF30:
 7197 026a 4C565F4F 		.ascii	"LV_OPA_60\000"
 7197      50415F36 
 7197      3000
 7198              	.LASF8:
 7199 0274 5F5F696E 		.ascii	"__int16_t\000"
 7199      7431365F 
 7199      7400
 7200              	.LASF94:
 7201 027e 7265736F 		.ascii	"resolved_font\000"
 7201      6C766564 
 7201      5F666F6E 
 7201      7400
 7202              	.LASF27:
 7203 028c 4C565F4F 		.ascii	"LV_OPA_30\000"
 7203      50415F33 
 7203      3000
 7204              	.LASF87:
 7205 0296 72657365 		.ascii	"reserved\000"
 7205      72766564 
 7205      00
 7206              	.LASF127:
 7207 029f 6C765F69 		.ascii	"lv_img_buf_get_img_size\000"
 7207      6D675F62 
 7207      75665F67 
 7207      65745F69 
 7207      6D675F73 
 7208              	.LASF59:
 7209 02b7 4C565F49 		.ascii	"LV_IMG_CF_ALPHA_2BIT\000"
 7209      4D475F43 
 7209      465F414C 
 7209      5048415F 
 7209      32424954 
 7210              	.LASF100:
 7211 02cc 69735F70 		.ascii	"is_placeholder\000"
 7211      6C616365 
 7211      686F6C64 
 7211      657200
 7212              	.LASF141:
 7213 02db 5F6C765F 		.ascii	"_lv_font_t\000"
 7213      666F6E74 
 7213      5F7400
 7214              	.LASF0:
 7215 02e6 756E7369 		.ascii	"unsigned int\000"
 7215      676E6564 
 7215      20696E74 
 7215      00
 7216              	.LASF101:
 7217 02f3 6765745F 		.ascii	"get_glyph_dsc\000"
 7217      676C7970 
 7217      685F6473 
 7217      6300
ARM GAS  C:\Users\haske\AppData\Local\Temp\ccwuLgOR.s 			page 150


 7218              	.LASF124:
 7219 0301 6C765F69 		.ascii	"lv_img_buf_set_px_color\000"
 7219      6D675F62 
 7219      75665F73 
 7219      65745F70 
 7219      785F636F 
 7220              	.LASF32:
 7221 0319 4C565F4F 		.ascii	"LV_OPA_80\000"
 7221      50415F38 
 7221      3000
 7222              	.LASF14:
 7223 0323 6C6F6E67 		.ascii	"long unsigned int\000"
 7223      20756E73 
 7223      69676E65 
 7223      6420696E 
 7223      7400
 7224              	.LASF139:
 7225 0335 2E2E5C2E 		.ascii	"..\\..\\..\\arduinoLCD\\test\\Pain Drain\\libraries"
 7225      2E5C2E2E 
 7225      5C617264 
 7225      75696E6F 
 7225      4C43445C 
 7226 0362 5C6C7667 		.ascii	"\\lvgl\\src\\draw\\lv_img_buf.c\000"
 7226      6C5C7372 
 7226      635C6472 
 7226      61775C6C 
 7226      765F696D 
 7227              	.LASF73:
 7228 037e 4C565F49 		.ascii	"LV_IMG_CF_RESERVED_20\000"
 7228      4D475F43 
 7228      465F5245 
 7228      53455256 
 7228      45445F32 
 7229              	.LASF74:
 7230 0394 4C565F49 		.ascii	"LV_IMG_CF_RESERVED_21\000"
 7230      4D475F43 
 7230      465F5245 
 7230      53455256 
 7230      45445F32 
 7231              	.LASF75:
 7232 03aa 4C565F49 		.ascii	"LV_IMG_CF_RESERVED_22\000"
 7232      4D475F43 
 7232      465F5245 
 7232      53455256 
 7232      45445F32 
 7233              	.LASF76:
 7234 03c0 4C565F49 		.ascii	"LV_IMG_CF_RESERVED_23\000"
 7234      4D475F43 
 7234      465F5245 
 7234      53455256 
 7234      45445F32 
 7235              	.LASF11:
 7236 03d6 73686F72 		.ascii	"short unsigned int\000"
 7236      7420756E 
 7236      7369676E 
 7236      65642069 
 7236      6E7400
ARM GAS  C:\Users\haske\AppData\Local\Temp\ccwuLgOR.s 			page 151


 7237              	.LASF103:
 7238 03e9 6C696E65 		.ascii	"line_height\000"
 7238      5F686569 
 7238      67687400 
 7239              	.LASF113:
 7240 03f5 6C765F6D 		.ascii	"lv_memcpy_small\000"
 7240      656D6370 
 7240      795F736D 
 7240      616C6C00 
 7241              	.LASF105:
 7242 0405 73756270 		.ascii	"subpx\000"
 7242      7800
 7243              	.LASF58:
 7244 040b 4C565F49 		.ascii	"LV_IMG_CF_ALPHA_1BIT\000"
 7244      4D475F43 
 7244      465F414C 
 7244      5048415F 
 7244      31424954 
 7245              	.LASF144:
 7246 0420 6D656D63 		.ascii	"memcpy\000"
 7246      707900
 7247              	.LASF31:
 7248 0427 4C565F4F 		.ascii	"LV_OPA_70\000"
 7248      50415F37 
 7248      3000
 7249              	.LASF53:
 7250 0431 4C565F49 		.ascii	"LV_IMG_CF_TRUE_COLOR_CHROMA_KEYED\000"
 7250      4D475F43 
 7250      465F5452 
 7250      55455F43 
 7250      4F4C4F52 
 7251              	.LASF90:
 7252 0453 64617461 		.ascii	"data_size\000"
 7252      5F73697A 
 7252      6500
 7253              	.LASF43:
 7254 045d 6C765F6F 		.ascii	"lv_opa_t\000"
 7254      70615F74 
 7254      00
 7255              	.LASF51:
 7256 0466 4C565F49 		.ascii	"LV_IMG_CF_TRUE_COLOR\000"
 7256      4D475F43 
 7256      465F5452 
 7256      55455F43 
 7256      4F4C4F52 
 7257              	.LASF16:
 7258 047b 73697A65 		.ascii	"sizetype\000"
 7258      74797065 
 7258      00
 7259              	.LASF23:
 7260 0484 4C565F4F 		.ascii	"LV_OPA_TRANSP\000"
 7260      50415F54 
 7260      52414E53 
 7260      5000
 7261              	.LASF2:
 7262 0492 6C6F6E67 		.ascii	"long double\000"
 7262      20646F75 
ARM GAS  C:\Users\haske\AppData\Local\Temp\ccwuLgOR.s 			page 152


 7262      626C6500 
 7263              	.LASF65:
 7264 049e 4C565F49 		.ascii	"LV_IMG_CF_RGB565\000"
 7264      4D475F43 
 7264      465F5247 
 7264      42353635 
 7264      00
 7265              	.LASF117:
 7266 04af 6275665F 		.ascii	"buf_u8\000"
 7266      753800
 7267              	.LASF137:
 7268 04b6 6C765F70 		.ascii	"lv_point_transform\000"
 7268      6F696E74 
 7268      5F747261 
 7268      6E73666F 
 7268      726D00
 7269              	.LASF116:
 7270 04c9 705F636F 		.ascii	"p_color\000"
 7270      6C6F7200 
 7271              	.LASF56:
 7272 04d1 4C565F49 		.ascii	"LV_IMG_CF_INDEXED_4BIT\000"
 7272      4D475F43 
 7272      465F494E 
 7272      44455845 
 7272      445F3442 
 7273              	.LASF66:
 7274 04e8 4C565F49 		.ascii	"LV_IMG_CF_RGBA5658\000"
 7274      4D475F43 
 7274      465F5247 
 7274      42413536 
 7274      353800
 7275              	.LASF29:
 7276 04fb 4C565F4F 		.ascii	"LV_OPA_50\000"
 7276      50415F35 
 7276      3000
 7277              	.LASF28:
 7278 0505 4C565F4F 		.ascii	"LV_OPA_40\000"
 7278      50415F34 
 7278      3000
 7279              	.LASF119:
 7280 050f 6C765F69 		.ascii	"lv_img_buf_get_px_color\000"
 7280      6D675F62 
 7280      75665F67 
 7280      65745F70 
 7280      785F636F 
 7281              	.LASF128:
 7282 0527 6C765F69 		.ascii	"lv_img_buf_alloc\000"
 7282      6D675F62 
 7282      75665F61 
 7282      6C6C6F63 
 7282      00
 7283              	.LASF129:
 7284 0538 5F6C765F 		.ascii	"_lv_img_buf_get_transformed_area\000"
 7284      696D675F 
 7284      6275665F 
 7284      6765745F 
 7284      7472616E 
ARM GAS  C:\Users\haske\AppData\Local\Temp\ccwuLgOR.s 			page 153


 7285              	.LASF39:
 7286 0559 6C765F63 		.ascii	"lv_color16_t\000"
 7286      6F6C6F72 
 7286      31365F74 
 7286      00
 7287              	.LASF25:
 7288 0566 4C565F4F 		.ascii	"LV_OPA_10\000"
 7288      50415F31 
 7288      3000
 7289              	.LASF93:
 7290 0570 5F426F6F 		.ascii	"_Bool\000"
 7290      6C00
 7291              	.LASF7:
 7292 0576 756E7369 		.ascii	"unsigned char\000"
 7292      676E6564 
 7292      20636861 
 7292      7200
 7293              	.LASF61:
 7294 0584 4C565F49 		.ascii	"LV_IMG_CF_ALPHA_8BIT\000"
 7294      4D475F43 
 7294      465F414C 
 7294      5048415F 
 7294      38424954 
 7295              	.LASF120:
 7296 0599 6C765F69 		.ascii	"lv_img_buf_get_px_alpha\000"
 7296      6D675F62 
 7296      75665F67 
 7296      65745F70 
 7296      785F616C 
 7297              	.LASF62:
 7298 05b1 4C565F49 		.ascii	"LV_IMG_CF_RGB888\000"
 7298      4D475F43 
 7298      465F5247 
 7298      42383838 
 7298      00
 7299              	.LASF67:
 7300 05c2 4C565F49 		.ascii	"LV_IMG_CF_RGB565A8\000"
 7300      4D475F43 
 7300      465F5247 
 7300      42353635 
 7300      413800
 7301              	.LASF9:
 7302 05d5 73686F72 		.ascii	"short int\000"
 7302      7420696E 
 7302      7400
 7303              	.LASF33:
 7304 05df 4C565F4F 		.ascii	"LV_OPA_90\000"
 7304      50415F39 
 7304      3000
 7305              	.LASF107:
 7306 05e9 756E6465 		.ascii	"underline_thickness\000"
 7306      726C696E 
 7306      655F7468 
 7306      69636B6E 
 7306      65737300 
 7307              	.LASF64:
 7308 05fd 4C565F49 		.ascii	"LV_IMG_CF_RGBX8888\000"
ARM GAS  C:\Users\haske\AppData\Local\Temp\ccwuLgOR.s 			page 154


 7308      4D475F43 
 7308      465F5247 
 7308      42583838 
 7308      383800
 7309              	.LASF38:
 7310 0610 66756C6C 		.ascii	"full\000"
 7310      00
 7311              	.LASF123:
 7312 0615 6C765F69 		.ascii	"lv_img_buf_set_px_alpha\000"
 7312      6D675F62 
 7312      75665F73 
 7312      65745F70 
 7312      785F616C 
 7313              	.LASF138:
 7314 062d 474E5520 		.ascii	"GNU C11 5.4.1 20160609 (release) [ARM/embedded-5-br"
 7314      43313120 
 7314      352E342E 
 7314      31203230 
 7314      31363036 
 7315 0660 616E6368 		.ascii	"anch revision 237715] -mcpu=cortex-m0plus -mthumb -"
 7315      20726576 
 7315      6973696F 
 7315      6E203233 
 7315      37373135 
 7316 0693 67202D4F 		.ascii	"g -Og -ffunction-sections -ffat-lto-objects\000"
 7316      67202D66 
 7316      66756E63 
 7316      74696F6E 
 7316      2D736563 
 7317              	.LASF36:
 7318 06bf 626C7565 		.ascii	"blue\000"
 7318      00
 7319              	.LASF115:
 7320 06c4 636F6C6F 		.ascii	"color\000"
 7320      7200
 7321              	.LASF17:
 7322 06ca 63686172 		.ascii	"char\000"
 7322      00
 7323              	.LASF26:
 7324 06cf 4C565F4F 		.ascii	"LV_OPA_20\000"
 7324      50415F32 
 7324      3000
 7325              	.LASF55:
 7326 06d9 4C565F49 		.ascii	"LV_IMG_CF_INDEXED_2BIT\000"
 7326      4D475F43 
 7326      465F494E 
 7326      44455845 
 7326      445F3242 
 7327              	.LASF10:
 7328 06f0 5F5F7569 		.ascii	"__uint16_t\000"
 7328      6E743136 
 7328      5F7400
 7329              	.LASF114:
 7330 06fb 6C765F63 		.ascii	"lv_color_to32\000"
 7330      6F6C6F72 
 7330      5F746F33 
 7330      3200
ARM GAS  C:\Users\haske\AppData\Local\Temp\ccwuLgOR.s 			page 155


 7331              	.LASF42:
 7332 0709 6C765F63 		.ascii	"lv_color_t\000"
 7332      6F6C6F72 
 7332      5F7400
 7333              	.LASF34:
 7334 0714 4C565F4F 		.ascii	"LV_OPA_100\000"
 7334      50415F31 
 7334      303000
 7335              	.LASF95:
 7336 071f 6164765F 		.ascii	"adv_w\000"
 7336      7700
 7337              	.LASF50:
 7338 0725 4C565F49 		.ascii	"LV_IMG_CF_RAW_CHROMA_KEYED\000"
 7338      4D475F43 
 7338      465F5241 
 7338      575F4348 
 7338      524F4D41 
 7339              	.LASF80:
 7340 0740 4C565F49 		.ascii	"LV_IMG_CF_USER_ENCODED_3\000"
 7340      4D475F43 
 7340      465F5553 
 7340      45525F45 
 7340      4E434F44 
 7341              	.LASF81:
 7342 0759 4C565F49 		.ascii	"LV_IMG_CF_USER_ENCODED_4\000"
 7342      4D475F43 
 7342      465F5553 
 7342      45525F45 
 7342      4E434F44 
 7343              	.LASF82:
 7344 0772 4C565F49 		.ascii	"LV_IMG_CF_USER_ENCODED_5\000"
 7344      4D475F43 
 7344      465F5553 
 7344      45525F45 
 7344      4E434F44 
 7345              	.LASF108:
 7346 078b 66616C6C 		.ascii	"fallback\000"
 7346      6261636B 
 7346      00
 7347              	.LASF84:
 7348 0794 4C565F49 		.ascii	"LV_IMG_CF_USER_ENCODED_7\000"
 7348      4D475F43 
 7348      465F5553 
 7348      45525F45 
 7348      4E434F44 
 7349              	.LASF97:
 7350 07ad 626F785F 		.ascii	"box_h\000"
 7350      6800
 7351              	.LASF18:
 7352 07b3 696E7438 		.ascii	"int8_t\000"
 7352      5F7400
 7353              	.LASF106:
 7354 07ba 756E6465 		.ascii	"underline_position\000"
 7354      726C696E 
 7354      655F706F 
 7354      73697469 
 7354      6F6E00
ARM GAS  C:\Users\haske\AppData\Local\Temp\ccwuLgOR.s 			page 156


 7355              	.LASF83:
 7356 07cd 4C565F49 		.ascii	"LV_IMG_CF_USER_ENCODED_6\000"
 7356      4D475F43 
 7356      465F5553 
 7356      45525F45 
 7356      4E434F44 
 7357              	.LASF77:
 7358 07e6 4C565F49 		.ascii	"LV_IMG_CF_USER_ENCODED_0\000"
 7358      4D475F43 
 7358      465F5553 
 7358      45525F45 
 7358      4E434F44 
 7359              	.LASF96:
 7360 07ff 626F785F 		.ascii	"box_w\000"
 7360      7700
 7361              	.LASF78:
 7362 0805 4C565F49 		.ascii	"LV_IMG_CF_USER_ENCODED_1\000"
 7362      4D475F43 
 7362      465F5553 
 7362      45525F45 
 7362      4E434F44 
 7363              	.LASF79:
 7364 081e 4C565F49 		.ascii	"LV_IMG_CF_USER_ENCODED_2\000"
 7364      4D475F43 
 7364      465F5553 
 7364      45525F45 
 7364      4E434F44 
 7365              	.LASF54:
 7366 0837 4C565F49 		.ascii	"LV_IMG_CF_INDEXED_1BIT\000"
 7366      4D475F43 
 7366      465F494E 
 7366      44455845 
 7366      445F3142 
 7367              	.LASF92:
 7368 084e 6C765F69 		.ascii	"lv_img_dsc_t\000"
 7368      6D675F64 
 7368      73635F74 
 7368      00
 7369              	.LASF19:
 7370 085b 75696E74 		.ascii	"uint8_t\000"
 7370      385F7400 
 7371              	.LASF45:
 7372 0863 6C765F70 		.ascii	"lv_point_t\000"
 7372      6F696E74 
 7372      5F7400
 7373              	.LASF24:
 7374 086e 4C565F4F 		.ascii	"LV_OPA_0\000"
 7374      50415F30 
 7374      00
 7375              	.LASF52:
 7376 0877 4C565F49 		.ascii	"LV_IMG_CF_TRUE_COLOR_ALPHA\000"
 7376      4D475F43 
 7376      465F5452 
 7376      55455F43 
 7376      4F4C4F52 
 7377              	.LASF86:
 7378 0892 616C7761 		.ascii	"always_zero\000"
ARM GAS  C:\Users\haske\AppData\Local\Temp\ccwuLgOR.s 			page 157


 7378      79735F7A 
 7378      65726F00 
 7379              	.LASF98:
 7380 089e 6F66735F 		.ascii	"ofs_x\000"
 7380      7800
 7381              	.LASF99:
 7382 08a4 6F66735F 		.ascii	"ofs_y\000"
 7382      7900
 7383              	.LASF140:
 7384 08aa 433A5C50 		.ascii	"C:\\Projects\\PainDrain\\firmware\\PainDrain\\PainD"
 7384      726F6A65 
 7384      6374735C 
 7384      5061696E 
 7384      44726169 
 7385 08d8 7261696E 		.ascii	"rain.cydsn\000"
 7385      2E637964 
 7385      736E00
 7386              	.LASF112:
 7387 08e3 6C765F63 		.ascii	"lv_color_make\000"
 7387      6F6C6F72 
 7387      5F6D616B 
 7387      6500
 7388              	.LASF110:
 7389 08f1 6C765F66 		.ascii	"lv_font_glyph_dsc_t\000"
 7389      6F6E745F 
 7389      676C7970 
 7389      685F6473 
 7389      635F7400 
 7390              	.LASF85:
 7391 0905 6C765F69 		.ascii	"lv_img_cf_t\000"
 7391      6D675F63 
 7391      665F7400 
 7392              	.LASF20:
 7393 0911 696E7431 		.ascii	"int16_t\000"
 7393      365F7400 
 7394              	.LASF126:
 7395 0919 6C765F69 		.ascii	"lv_img_buf_free\000"
 7395      6D675F62 
 7395      75665F66 
 7395      72656500 
 7396              	.LASF89:
 7397 0929 68656164 		.ascii	"header\000"
 7397      657200
 7398              	.LASF22:
 7399 0930 75696E74 		.ascii	"uint32_t\000"
 7399      33325F74 
 7399      00
 7400              		.ident	"GCC: (GNU Tools for ARM Embedded Processors) 5.4.1 20160609 (release) [ARM/embedded-5-bran
