ARM GAS  C:\Users\haske\AppData\Local\Temp\ccwuLgOR.s 			page 1


   1              		.syntax unified
   2              		.cpu cortex-m0plus
   3              		.fpu softvfp
   4              		.eabi_attribute 20, 1
   5              		.eabi_attribute 21, 1
   6              		.eabi_attribute 23, 3
   7              		.eabi_attribute 24, 1
   8              		.eabi_attribute 25, 1
   9              		.eabi_attribute 26, 1
  10              		.eabi_attribute 30, 1
  11              		.eabi_attribute 34, 0
  12              		.eabi_attribute 18, 4
  13              		.thumb
  14              		.syntax unified
  15              		.file	"lv_img_buf.c"
  16              		.text
  17              	.Ltext0:
  18              		.cfi_sections	.debug_frame
  19              		.section	.text.lv_img_buf_get_px_color,"ax",%progbits
  20              		.align	2
  21              		.global	lv_img_buf_get_px_color
  22              		.code	16
  23              		.thumb_func
  24              		.type	lv_img_buf_get_px_color, %function
  25              	lv_img_buf_get_px_color:
  26              	.LFB54:
  27              		.file 1 "..\\..\\..\\arduinoLCD\\test\\Pain Drain\\libraries\\lvgl\\src\\draw\\lv_img_buf.c"
   1:..\..\..\arduinoLCD\test\Pain Drain\libraries\lvgl\src\draw/lv_img_buf.c **** /**
   2:..\..\..\arduinoLCD\test\Pain Drain\libraries\lvgl\src\draw/lv_img_buf.c ****  * @file lv_img_buf.c
   3:..\..\..\arduinoLCD\test\Pain Drain\libraries\lvgl\src\draw/lv_img_buf.c ****  *
   4:..\..\..\arduinoLCD\test\Pain Drain\libraries\lvgl\src\draw/lv_img_buf.c ****  */
   5:..\..\..\arduinoLCD\test\Pain Drain\libraries\lvgl\src\draw/lv_img_buf.c **** 
   6:..\..\..\arduinoLCD\test\Pain Drain\libraries\lvgl\src\draw/lv_img_buf.c **** /*********************
   7:..\..\..\arduinoLCD\test\Pain Drain\libraries\lvgl\src\draw/lv_img_buf.c ****  *      INCLUDES
   8:..\..\..\arduinoLCD\test\Pain Drain\libraries\lvgl\src\draw/lv_img_buf.c ****  *********************/
   9:..\..\..\arduinoLCD\test\Pain Drain\libraries\lvgl\src\draw/lv_img_buf.c **** #include <stddef.h>
  10:..\..\..\arduinoLCD\test\Pain Drain\libraries\lvgl\src\draw/lv_img_buf.c **** #include <string.h>
  11:..\..\..\arduinoLCD\test\Pain Drain\libraries\lvgl\src\draw/lv_img_buf.c **** #include "lv_img_buf.h"
  12:..\..\..\arduinoLCD\test\Pain Drain\libraries\lvgl\src\draw/lv_img_buf.c **** #include "lv_draw_img.h"
  13:..\..\..\arduinoLCD\test\Pain Drain\libraries\lvgl\src\draw/lv_img_buf.c **** #include "../misc/lv_math.h"
  14:..\..\..\arduinoLCD\test\Pain Drain\libraries\lvgl\src\draw/lv_img_buf.c **** #include "../misc/lv_log.h"
  15:..\..\..\arduinoLCD\test\Pain Drain\libraries\lvgl\src\draw/lv_img_buf.c **** #include "../misc/lv_mem.h"
  16:..\..\..\arduinoLCD\test\Pain Drain\libraries\lvgl\src\draw/lv_img_buf.c **** 
  17:..\..\..\arduinoLCD\test\Pain Drain\libraries\lvgl\src\draw/lv_img_buf.c **** /*********************
  18:..\..\..\arduinoLCD\test\Pain Drain\libraries\lvgl\src\draw/lv_img_buf.c ****  *      DEFINES
  19:..\..\..\arduinoLCD\test\Pain Drain\libraries\lvgl\src\draw/lv_img_buf.c ****  *********************/
  20:..\..\..\arduinoLCD\test\Pain Drain\libraries\lvgl\src\draw/lv_img_buf.c **** 
  21:..\..\..\arduinoLCD\test\Pain Drain\libraries\lvgl\src\draw/lv_img_buf.c **** /**********************
  22:..\..\..\arduinoLCD\test\Pain Drain\libraries\lvgl\src\draw/lv_img_buf.c ****  *      TYPEDEFS
  23:..\..\..\arduinoLCD\test\Pain Drain\libraries\lvgl\src\draw/lv_img_buf.c ****  **********************/
  24:..\..\..\arduinoLCD\test\Pain Drain\libraries\lvgl\src\draw/lv_img_buf.c **** 
  25:..\..\..\arduinoLCD\test\Pain Drain\libraries\lvgl\src\draw/lv_img_buf.c **** /**********************
  26:..\..\..\arduinoLCD\test\Pain Drain\libraries\lvgl\src\draw/lv_img_buf.c ****  *  STATIC PROTOTYPES
  27:..\..\..\arduinoLCD\test\Pain Drain\libraries\lvgl\src\draw/lv_img_buf.c ****  **********************/
  28:..\..\..\arduinoLCD\test\Pain Drain\libraries\lvgl\src\draw/lv_img_buf.c **** 
  29:..\..\..\arduinoLCD\test\Pain Drain\libraries\lvgl\src\draw/lv_img_buf.c **** /**********************
  30:..\..\..\arduinoLCD\test\Pain Drain\libraries\lvgl\src\draw/lv_img_buf.c ****  *  STATIC VARIABLES
ARM GAS  C:\Users\haske\AppData\Local\Temp\ccwuLgOR.s 			page 2


  31:..\..\..\arduinoLCD\test\Pain Drain\libraries\lvgl\src\draw/lv_img_buf.c ****  **********************/
  32:..\..\..\arduinoLCD\test\Pain Drain\libraries\lvgl\src\draw/lv_img_buf.c **** 
  33:..\..\..\arduinoLCD\test\Pain Drain\libraries\lvgl\src\draw/lv_img_buf.c **** /**********************
  34:..\..\..\arduinoLCD\test\Pain Drain\libraries\lvgl\src\draw/lv_img_buf.c ****  *      MACROS
  35:..\..\..\arduinoLCD\test\Pain Drain\libraries\lvgl\src\draw/lv_img_buf.c ****  **********************/
  36:..\..\..\arduinoLCD\test\Pain Drain\libraries\lvgl\src\draw/lv_img_buf.c **** 
  37:..\..\..\arduinoLCD\test\Pain Drain\libraries\lvgl\src\draw/lv_img_buf.c **** /**********************
  38:..\..\..\arduinoLCD\test\Pain Drain\libraries\lvgl\src\draw/lv_img_buf.c ****  *   GLOBAL FUNCTIONS
  39:..\..\..\arduinoLCD\test\Pain Drain\libraries\lvgl\src\draw/lv_img_buf.c ****  **********************/
  40:..\..\..\arduinoLCD\test\Pain Drain\libraries\lvgl\src\draw/lv_img_buf.c **** 
  41:..\..\..\arduinoLCD\test\Pain Drain\libraries\lvgl\src\draw/lv_img_buf.c **** /**
  42:..\..\..\arduinoLCD\test\Pain Drain\libraries\lvgl\src\draw/lv_img_buf.c ****  * Get the color of an image's pixel
  43:..\..\..\arduinoLCD\test\Pain Drain\libraries\lvgl\src\draw/lv_img_buf.c ****  * @param dsc an image descriptor
  44:..\..\..\arduinoLCD\test\Pain Drain\libraries\lvgl\src\draw/lv_img_buf.c ****  * @param x x coordinate of the point to get
  45:..\..\..\arduinoLCD\test\Pain Drain\libraries\lvgl\src\draw/lv_img_buf.c ****  * @param y x coordinate of the point to get
  46:..\..\..\arduinoLCD\test\Pain Drain\libraries\lvgl\src\draw/lv_img_buf.c ****  * @param color the color of the image. In case of `LV_IMG_CF_ALPHA_1/2/4/8` this color is used.
  47:..\..\..\arduinoLCD\test\Pain Drain\libraries\lvgl\src\draw/lv_img_buf.c ****  * Not used in other cases.
  48:..\..\..\arduinoLCD\test\Pain Drain\libraries\lvgl\src\draw/lv_img_buf.c ****  * @param safe true: check out of bounds
  49:..\..\..\arduinoLCD\test\Pain Drain\libraries\lvgl\src\draw/lv_img_buf.c ****  * @return color of the point
  50:..\..\..\arduinoLCD\test\Pain Drain\libraries\lvgl\src\draw/lv_img_buf.c ****  */
  51:..\..\..\arduinoLCD\test\Pain Drain\libraries\lvgl\src\draw/lv_img_buf.c **** lv_color_t lv_img_buf_get_px_color(lv_img_dsc_t * dsc, lv_coord_t x, lv_coord_t y, lv_color_t color
  52:..\..\..\arduinoLCD\test\Pain Drain\libraries\lvgl\src\draw/lv_img_buf.c **** {
  28              		.loc 1 52 0
  29              		.cfi_startproc
  30              		@ args = 0, pretend = 0, frame = 8
  31              		@ frame_needed = 0, uses_anonymous_args = 0
  32              	.LVL0:
  33 0000 F0B5     		push	{r4, r5, r6, r7, lr}
  34              		.cfi_def_cfa_offset 20
  35              		.cfi_offset 4, -20
  36              		.cfi_offset 5, -16
  37              		.cfi_offset 6, -12
  38              		.cfi_offset 7, -8
  39              		.cfi_offset 14, -4
  40 0002 83B0     		sub	sp, sp, #12
  41              		.cfi_def_cfa_offset 32
  42 0004 0400     		movs	r4, r0
  43 0006 0D00     		movs	r5, r1
  44 0008 1700     		movs	r7, r2
  45              	.LVL1:
  53:..\..\..\arduinoLCD\test\Pain Drain\libraries\lvgl\src\draw/lv_img_buf.c ****     lv_color_t p_color = lv_color_black();
  46              		.loc 1 53 0
  47 000a 01AA     		add	r2, sp, #4
  48              	.LVL2:
  49 000c 0021     		movs	r1, #0
  50              	.LVL3:
  51 000e 1180     		strh	r1, [r2]
  54:..\..\..\arduinoLCD\test\Pain Drain\libraries\lvgl\src\draw/lv_img_buf.c ****     uint8_t * buf_u8 = (uint8_t *)dsc->data;
  52              		.loc 1 54 0
  53 0010 8668     		ldr	r6, [r0, #8]
  54              	.LVL4:
  55:..\..\..\arduinoLCD\test\Pain Drain\libraries\lvgl\src\draw/lv_img_buf.c **** 
  56:..\..\..\arduinoLCD\test\Pain Drain\libraries\lvgl\src\draw/lv_img_buf.c ****     if(dsc->header.cf == LV_IMG_CF_TRUE_COLOR || dsc->header.cf == LV_IMG_CF_TRUE_COLOR_CHROMA_KEYE
  55              		.loc 1 56 0
  56 0012 0278     		ldrb	r2, [r0]
  57 0014 1F31     		adds	r1, r1, #31
  58 0016 0A40     		ands	r2, r1
ARM GAS  C:\Users\haske\AppData\Local\Temp\ccwuLgOR.s 			page 3


  59 0018 042A     		cmp	r2, #4
  60 001a 05D0     		beq	.L2
  61              		.loc 1 56 0 is_stmt 0 discriminator 1
  62 001c 062A     		cmp	r2, #6
  63 001e 03D0     		beq	.L2
  64              		.loc 1 56 0 discriminator 2
  65 0020 052A     		cmp	r2, #5
  66 0022 01D0     		beq	.L2
  57:..\..\..\arduinoLCD\test\Pain Drain\libraries\lvgl\src\draw/lv_img_buf.c ****        dsc->header.cf == LV_IMG_CF_TRUE_COLOR_ALPHA || dsc->header.cf == LV_IMG_CF_RGB565A8) {
  67              		.loc 1 57 0 is_stmt 1
  68 0024 142A     		cmp	r2, #20
  69 0026 18D1     		bne	.L3
  70              	.L2:
  71              	.LBB29:
  58:..\..\..\arduinoLCD\test\Pain Drain\libraries\lvgl\src\draw/lv_img_buf.c ****         uint8_t px_size = lv_img_cf_get_px_size(dsc->header.cf) >> 3;
  72              		.loc 1 58 0
  73 0028 2078     		ldrb	r0, [r4]
  74              	.LVL5:
  75 002a C006     		lsls	r0, r0, #27
  76 002c C00E     		lsrs	r0, r0, #27
  77 002e FFF7FEFF 		bl	lv_img_cf_get_px_size
  78              	.LVL6:
  79 0032 C008     		lsrs	r0, r0, #3
  80 0034 C3B2     		uxtb	r3, r0
  81              	.LVL7:
  59:..\..\..\arduinoLCD\test\Pain Drain\libraries\lvgl\src\draw/lv_img_buf.c ****         uint32_t px     = dsc->header.w * y * px_size + x * px_size;
  82              		.loc 1 59 0
  83 0036 2068     		ldr	r0, [r4]
  84 0038 C002     		lsls	r0, r0, #11
  85 003a 400D     		lsrs	r0, r0, #21
  86 003c 7843     		muls	r0, r7
  87 003e 2818     		adds	r0, r5, r0
  88 0040 5843     		muls	r0, r3
  89              	.LVL8:
  60:..\..\..\arduinoLCD\test\Pain Drain\libraries\lvgl\src\draw/lv_img_buf.c ****         lv_memcpy_small(&p_color, &buf_u8[px], sizeof(lv_color_t));
  90              		.loc 1 60 0
  91 0042 3018     		adds	r0, r6, r0
  92              	.LVL9:
  93              	.LBB30:
  94              	.LBB31:
  95              		.file 2 "..\\..\\..\\arduinoLCD\\test\\Pain Drain\\libraries\\lvgl\\src\\draw\\../misc/lv_mem.h"
   1:..\..\..\arduinoLCD\test\Pain Drain\libraries\lvgl\src\draw\../misc/lv_mem.h **** /**
   2:..\..\..\arduinoLCD\test\Pain Drain\libraries\lvgl\src\draw\../misc/lv_mem.h ****  * @file lv_mem.h
   3:..\..\..\arduinoLCD\test\Pain Drain\libraries\lvgl\src\draw\../misc/lv_mem.h ****  *
   4:..\..\..\arduinoLCD\test\Pain Drain\libraries\lvgl\src\draw\../misc/lv_mem.h ****  */
   5:..\..\..\arduinoLCD\test\Pain Drain\libraries\lvgl\src\draw\../misc/lv_mem.h **** 
   6:..\..\..\arduinoLCD\test\Pain Drain\libraries\lvgl\src\draw\../misc/lv_mem.h **** #ifndef LV_MEM_H
   7:..\..\..\arduinoLCD\test\Pain Drain\libraries\lvgl\src\draw\../misc/lv_mem.h **** #define LV_MEM_H
   8:..\..\..\arduinoLCD\test\Pain Drain\libraries\lvgl\src\draw\../misc/lv_mem.h **** 
   9:..\..\..\arduinoLCD\test\Pain Drain\libraries\lvgl\src\draw\../misc/lv_mem.h **** #ifdef __cplusplus
  10:..\..\..\arduinoLCD\test\Pain Drain\libraries\lvgl\src\draw\../misc/lv_mem.h **** extern "C" {
  11:..\..\..\arduinoLCD\test\Pain Drain\libraries\lvgl\src\draw\../misc/lv_mem.h **** #endif
  12:..\..\..\arduinoLCD\test\Pain Drain\libraries\lvgl\src\draw\../misc/lv_mem.h **** 
  13:..\..\..\arduinoLCD\test\Pain Drain\libraries\lvgl\src\draw\../misc/lv_mem.h **** /*********************
  14:..\..\..\arduinoLCD\test\Pain Drain\libraries\lvgl\src\draw\../misc/lv_mem.h ****  *      INCLUDES
  15:..\..\..\arduinoLCD\test\Pain Drain\libraries\lvgl\src\draw\../misc/lv_mem.h ****  *********************/
  16:..\..\..\arduinoLCD\test\Pain Drain\libraries\lvgl\src\draw\../misc/lv_mem.h **** #include "../lv_conf_internal.h"
ARM GAS  C:\Users\haske\AppData\Local\Temp\ccwuLgOR.s 			page 4


  17:..\..\..\arduinoLCD\test\Pain Drain\libraries\lvgl\src\draw\../misc/lv_mem.h **** 
  18:..\..\..\arduinoLCD\test\Pain Drain\libraries\lvgl\src\draw\../misc/lv_mem.h **** #include <stdint.h>
  19:..\..\..\arduinoLCD\test\Pain Drain\libraries\lvgl\src\draw\../misc/lv_mem.h **** #include <stddef.h>
  20:..\..\..\arduinoLCD\test\Pain Drain\libraries\lvgl\src\draw\../misc/lv_mem.h **** #include <string.h>
  21:..\..\..\arduinoLCD\test\Pain Drain\libraries\lvgl\src\draw\../misc/lv_mem.h **** 
  22:..\..\..\arduinoLCD\test\Pain Drain\libraries\lvgl\src\draw\../misc/lv_mem.h **** #include "lv_types.h"
  23:..\..\..\arduinoLCD\test\Pain Drain\libraries\lvgl\src\draw\../misc/lv_mem.h **** 
  24:..\..\..\arduinoLCD\test\Pain Drain\libraries\lvgl\src\draw\../misc/lv_mem.h **** /*********************
  25:..\..\..\arduinoLCD\test\Pain Drain\libraries\lvgl\src\draw\../misc/lv_mem.h ****  *      DEFINES
  26:..\..\..\arduinoLCD\test\Pain Drain\libraries\lvgl\src\draw\../misc/lv_mem.h ****  *********************/
  27:..\..\..\arduinoLCD\test\Pain Drain\libraries\lvgl\src\draw\../misc/lv_mem.h **** 
  28:..\..\..\arduinoLCD\test\Pain Drain\libraries\lvgl\src\draw\../misc/lv_mem.h **** /**********************
  29:..\..\..\arduinoLCD\test\Pain Drain\libraries\lvgl\src\draw\../misc/lv_mem.h ****  *      TYPEDEFS
  30:..\..\..\arduinoLCD\test\Pain Drain\libraries\lvgl\src\draw\../misc/lv_mem.h ****  **********************/
  31:..\..\..\arduinoLCD\test\Pain Drain\libraries\lvgl\src\draw\../misc/lv_mem.h **** 
  32:..\..\..\arduinoLCD\test\Pain Drain\libraries\lvgl\src\draw\../misc/lv_mem.h **** /**
  33:..\..\..\arduinoLCD\test\Pain Drain\libraries\lvgl\src\draw\../misc/lv_mem.h ****  * Heap information structure.
  34:..\..\..\arduinoLCD\test\Pain Drain\libraries\lvgl\src\draw\../misc/lv_mem.h ****  */
  35:..\..\..\arduinoLCD\test\Pain Drain\libraries\lvgl\src\draw\../misc/lv_mem.h **** typedef struct {
  36:..\..\..\arduinoLCD\test\Pain Drain\libraries\lvgl\src\draw\../misc/lv_mem.h ****     uint32_t total_size; /**< Total heap size*/
  37:..\..\..\arduinoLCD\test\Pain Drain\libraries\lvgl\src\draw\../misc/lv_mem.h ****     uint32_t free_cnt;
  38:..\..\..\arduinoLCD\test\Pain Drain\libraries\lvgl\src\draw\../misc/lv_mem.h ****     uint32_t free_size; /**< Size of available memory*/
  39:..\..\..\arduinoLCD\test\Pain Drain\libraries\lvgl\src\draw\../misc/lv_mem.h ****     uint32_t free_biggest_size;
  40:..\..\..\arduinoLCD\test\Pain Drain\libraries\lvgl\src\draw\../misc/lv_mem.h ****     uint32_t used_cnt;
  41:..\..\..\arduinoLCD\test\Pain Drain\libraries\lvgl\src\draw\../misc/lv_mem.h ****     uint32_t max_used; /**< Max size of Heap memory used*/
  42:..\..\..\arduinoLCD\test\Pain Drain\libraries\lvgl\src\draw\../misc/lv_mem.h ****     uint8_t used_pct; /**< Percentage used*/
  43:..\..\..\arduinoLCD\test\Pain Drain\libraries\lvgl\src\draw\../misc/lv_mem.h ****     uint8_t frag_pct; /**< Amount of fragmentation*/
  44:..\..\..\arduinoLCD\test\Pain Drain\libraries\lvgl\src\draw\../misc/lv_mem.h **** } lv_mem_monitor_t;
  45:..\..\..\arduinoLCD\test\Pain Drain\libraries\lvgl\src\draw\../misc/lv_mem.h **** 
  46:..\..\..\arduinoLCD\test\Pain Drain\libraries\lvgl\src\draw\../misc/lv_mem.h **** typedef struct {
  47:..\..\..\arduinoLCD\test\Pain Drain\libraries\lvgl\src\draw\../misc/lv_mem.h ****     void * p;
  48:..\..\..\arduinoLCD\test\Pain Drain\libraries\lvgl\src\draw\../misc/lv_mem.h ****     uint16_t size;
  49:..\..\..\arduinoLCD\test\Pain Drain\libraries\lvgl\src\draw\../misc/lv_mem.h ****     uint8_t used : 1;
  50:..\..\..\arduinoLCD\test\Pain Drain\libraries\lvgl\src\draw\../misc/lv_mem.h **** } lv_mem_buf_t;
  51:..\..\..\arduinoLCD\test\Pain Drain\libraries\lvgl\src\draw\../misc/lv_mem.h **** 
  52:..\..\..\arduinoLCD\test\Pain Drain\libraries\lvgl\src\draw\../misc/lv_mem.h **** typedef lv_mem_buf_t lv_mem_buf_arr_t[LV_MEM_BUF_MAX_NUM];
  53:..\..\..\arduinoLCD\test\Pain Drain\libraries\lvgl\src\draw\../misc/lv_mem.h **** 
  54:..\..\..\arduinoLCD\test\Pain Drain\libraries\lvgl\src\draw\../misc/lv_mem.h **** /**********************
  55:..\..\..\arduinoLCD\test\Pain Drain\libraries\lvgl\src\draw\../misc/lv_mem.h ****  * GLOBAL PROTOTYPES
  56:..\..\..\arduinoLCD\test\Pain Drain\libraries\lvgl\src\draw\../misc/lv_mem.h ****  **********************/
  57:..\..\..\arduinoLCD\test\Pain Drain\libraries\lvgl\src\draw\../misc/lv_mem.h **** 
  58:..\..\..\arduinoLCD\test\Pain Drain\libraries\lvgl\src\draw\../misc/lv_mem.h **** /**
  59:..\..\..\arduinoLCD\test\Pain Drain\libraries\lvgl\src\draw\../misc/lv_mem.h ****  * Initialize the dyn_mem module (work memory and other variables)
  60:..\..\..\arduinoLCD\test\Pain Drain\libraries\lvgl\src\draw\../misc/lv_mem.h ****  */
  61:..\..\..\arduinoLCD\test\Pain Drain\libraries\lvgl\src\draw\../misc/lv_mem.h **** void lv_mem_init(void);
  62:..\..\..\arduinoLCD\test\Pain Drain\libraries\lvgl\src\draw\../misc/lv_mem.h **** 
  63:..\..\..\arduinoLCD\test\Pain Drain\libraries\lvgl\src\draw\../misc/lv_mem.h **** /**
  64:..\..\..\arduinoLCD\test\Pain Drain\libraries\lvgl\src\draw\../misc/lv_mem.h ****  * Clean up the memory buffer which frees all the allocated memories.
  65:..\..\..\arduinoLCD\test\Pain Drain\libraries\lvgl\src\draw\../misc/lv_mem.h ****  * @note It work only if `LV_MEM_CUSTOM == 0`
  66:..\..\..\arduinoLCD\test\Pain Drain\libraries\lvgl\src\draw\../misc/lv_mem.h ****  */
  67:..\..\..\arduinoLCD\test\Pain Drain\libraries\lvgl\src\draw\../misc/lv_mem.h **** void lv_mem_deinit(void);
  68:..\..\..\arduinoLCD\test\Pain Drain\libraries\lvgl\src\draw\../misc/lv_mem.h **** 
  69:..\..\..\arduinoLCD\test\Pain Drain\libraries\lvgl\src\draw\../misc/lv_mem.h **** /**
  70:..\..\..\arduinoLCD\test\Pain Drain\libraries\lvgl\src\draw\../misc/lv_mem.h ****  * Allocate a memory dynamically
  71:..\..\..\arduinoLCD\test\Pain Drain\libraries\lvgl\src\draw\../misc/lv_mem.h ****  * @param size size of the memory to allocate in bytes
  72:..\..\..\arduinoLCD\test\Pain Drain\libraries\lvgl\src\draw\../misc/lv_mem.h ****  * @return pointer to the allocated memory
  73:..\..\..\arduinoLCD\test\Pain Drain\libraries\lvgl\src\draw\../misc/lv_mem.h ****  */
ARM GAS  C:\Users\haske\AppData\Local\Temp\ccwuLgOR.s 			page 5


  74:..\..\..\arduinoLCD\test\Pain Drain\libraries\lvgl\src\draw\../misc/lv_mem.h **** void * lv_mem_alloc(size_t size);
  75:..\..\..\arduinoLCD\test\Pain Drain\libraries\lvgl\src\draw\../misc/lv_mem.h **** 
  76:..\..\..\arduinoLCD\test\Pain Drain\libraries\lvgl\src\draw\../misc/lv_mem.h **** /**
  77:..\..\..\arduinoLCD\test\Pain Drain\libraries\lvgl\src\draw\../misc/lv_mem.h ****  * Free an allocated data
  78:..\..\..\arduinoLCD\test\Pain Drain\libraries\lvgl\src\draw\../misc/lv_mem.h ****  * @param data pointer to an allocated memory
  79:..\..\..\arduinoLCD\test\Pain Drain\libraries\lvgl\src\draw\../misc/lv_mem.h ****  */
  80:..\..\..\arduinoLCD\test\Pain Drain\libraries\lvgl\src\draw\../misc/lv_mem.h **** void lv_mem_free(void * data);
  81:..\..\..\arduinoLCD\test\Pain Drain\libraries\lvgl\src\draw\../misc/lv_mem.h **** 
  82:..\..\..\arduinoLCD\test\Pain Drain\libraries\lvgl\src\draw\../misc/lv_mem.h **** /**
  83:..\..\..\arduinoLCD\test\Pain Drain\libraries\lvgl\src\draw\../misc/lv_mem.h ****  * Reallocate a memory with a new size. The old content will be kept.
  84:..\..\..\arduinoLCD\test\Pain Drain\libraries\lvgl\src\draw\../misc/lv_mem.h ****  * @param data pointer to an allocated memory.
  85:..\..\..\arduinoLCD\test\Pain Drain\libraries\lvgl\src\draw\../misc/lv_mem.h ****  * Its content will be copied to the new memory block and freed
  86:..\..\..\arduinoLCD\test\Pain Drain\libraries\lvgl\src\draw\../misc/lv_mem.h ****  * @param new_size the desired new size in byte
  87:..\..\..\arduinoLCD\test\Pain Drain\libraries\lvgl\src\draw\../misc/lv_mem.h ****  * @return pointer to the new memory, NULL on failure
  88:..\..\..\arduinoLCD\test\Pain Drain\libraries\lvgl\src\draw\../misc/lv_mem.h ****  */
  89:..\..\..\arduinoLCD\test\Pain Drain\libraries\lvgl\src\draw\../misc/lv_mem.h **** void * lv_mem_realloc(void * data_p, size_t new_size);
  90:..\..\..\arduinoLCD\test\Pain Drain\libraries\lvgl\src\draw\../misc/lv_mem.h **** 
  91:..\..\..\arduinoLCD\test\Pain Drain\libraries\lvgl\src\draw\../misc/lv_mem.h **** /**
  92:..\..\..\arduinoLCD\test\Pain Drain\libraries\lvgl\src\draw\../misc/lv_mem.h ****  *
  93:..\..\..\arduinoLCD\test\Pain Drain\libraries\lvgl\src\draw\../misc/lv_mem.h ****  * @return
  94:..\..\..\arduinoLCD\test\Pain Drain\libraries\lvgl\src\draw\../misc/lv_mem.h ****  */
  95:..\..\..\arduinoLCD\test\Pain Drain\libraries\lvgl\src\draw\../misc/lv_mem.h **** lv_res_t lv_mem_test(void);
  96:..\..\..\arduinoLCD\test\Pain Drain\libraries\lvgl\src\draw\../misc/lv_mem.h **** 
  97:..\..\..\arduinoLCD\test\Pain Drain\libraries\lvgl\src\draw\../misc/lv_mem.h **** /**
  98:..\..\..\arduinoLCD\test\Pain Drain\libraries\lvgl\src\draw\../misc/lv_mem.h ****  * Give information about the work memory of dynamic allocation
  99:..\..\..\arduinoLCD\test\Pain Drain\libraries\lvgl\src\draw\../misc/lv_mem.h ****  * @param mon_p pointer to a lv_mem_monitor_t variable,
 100:..\..\..\arduinoLCD\test\Pain Drain\libraries\lvgl\src\draw\../misc/lv_mem.h ****  *              the result of the analysis will be stored here
 101:..\..\..\arduinoLCD\test\Pain Drain\libraries\lvgl\src\draw\../misc/lv_mem.h ****  */
 102:..\..\..\arduinoLCD\test\Pain Drain\libraries\lvgl\src\draw\../misc/lv_mem.h **** void lv_mem_monitor(lv_mem_monitor_t * mon_p);
 103:..\..\..\arduinoLCD\test\Pain Drain\libraries\lvgl\src\draw\../misc/lv_mem.h **** 
 104:..\..\..\arduinoLCD\test\Pain Drain\libraries\lvgl\src\draw\../misc/lv_mem.h **** 
 105:..\..\..\arduinoLCD\test\Pain Drain\libraries\lvgl\src\draw\../misc/lv_mem.h **** /**
 106:..\..\..\arduinoLCD\test\Pain Drain\libraries\lvgl\src\draw\../misc/lv_mem.h ****  * Get a temporal buffer with the given size.
 107:..\..\..\arduinoLCD\test\Pain Drain\libraries\lvgl\src\draw\../misc/lv_mem.h ****  * @param size the required size
 108:..\..\..\arduinoLCD\test\Pain Drain\libraries\lvgl\src\draw\../misc/lv_mem.h ****  */
 109:..\..\..\arduinoLCD\test\Pain Drain\libraries\lvgl\src\draw\../misc/lv_mem.h **** void * lv_mem_buf_get(uint32_t size);
 110:..\..\..\arduinoLCD\test\Pain Drain\libraries\lvgl\src\draw\../misc/lv_mem.h **** 
 111:..\..\..\arduinoLCD\test\Pain Drain\libraries\lvgl\src\draw\../misc/lv_mem.h **** /**
 112:..\..\..\arduinoLCD\test\Pain Drain\libraries\lvgl\src\draw\../misc/lv_mem.h ****  * Release a memory buffer
 113:..\..\..\arduinoLCD\test\Pain Drain\libraries\lvgl\src\draw\../misc/lv_mem.h ****  * @param p buffer to release
 114:..\..\..\arduinoLCD\test\Pain Drain\libraries\lvgl\src\draw\../misc/lv_mem.h ****  */
 115:..\..\..\arduinoLCD\test\Pain Drain\libraries\lvgl\src\draw\../misc/lv_mem.h **** void lv_mem_buf_release(void * p);
 116:..\..\..\arduinoLCD\test\Pain Drain\libraries\lvgl\src\draw\../misc/lv_mem.h **** 
 117:..\..\..\arduinoLCD\test\Pain Drain\libraries\lvgl\src\draw\../misc/lv_mem.h **** /**
 118:..\..\..\arduinoLCD\test\Pain Drain\libraries\lvgl\src\draw\../misc/lv_mem.h ****  * Free all memory buffers
 119:..\..\..\arduinoLCD\test\Pain Drain\libraries\lvgl\src\draw\../misc/lv_mem.h ****  */
 120:..\..\..\arduinoLCD\test\Pain Drain\libraries\lvgl\src\draw\../misc/lv_mem.h **** void lv_mem_buf_free_all(void);
 121:..\..\..\arduinoLCD\test\Pain Drain\libraries\lvgl\src\draw\../misc/lv_mem.h **** 
 122:..\..\..\arduinoLCD\test\Pain Drain\libraries\lvgl\src\draw\../misc/lv_mem.h **** //! @cond Doxygen_Suppress
 123:..\..\..\arduinoLCD\test\Pain Drain\libraries\lvgl\src\draw\../misc/lv_mem.h **** 
 124:..\..\..\arduinoLCD\test\Pain Drain\libraries\lvgl\src\draw\../misc/lv_mem.h **** #if LV_MEMCPY_MEMSET_STD
 125:..\..\..\arduinoLCD\test\Pain Drain\libraries\lvgl\src\draw\../misc/lv_mem.h **** 
 126:..\..\..\arduinoLCD\test\Pain Drain\libraries\lvgl\src\draw\../misc/lv_mem.h **** /**
 127:..\..\..\arduinoLCD\test\Pain Drain\libraries\lvgl\src\draw\../misc/lv_mem.h ****  * Wrapper for the standard memcpy
 128:..\..\..\arduinoLCD\test\Pain Drain\libraries\lvgl\src\draw\../misc/lv_mem.h ****  * @param dst pointer to the destination buffer
 129:..\..\..\arduinoLCD\test\Pain Drain\libraries\lvgl\src\draw\../misc/lv_mem.h ****  * @param src pointer to the source buffer
 130:..\..\..\arduinoLCD\test\Pain Drain\libraries\lvgl\src\draw\../misc/lv_mem.h ****  * @param len number of byte to copy
ARM GAS  C:\Users\haske\AppData\Local\Temp\ccwuLgOR.s 			page 6


 131:..\..\..\arduinoLCD\test\Pain Drain\libraries\lvgl\src\draw\../misc/lv_mem.h ****  */
 132:..\..\..\arduinoLCD\test\Pain Drain\libraries\lvgl\src\draw\../misc/lv_mem.h **** static inline void * lv_memcpy(void * dst, const void * src, size_t len)
 133:..\..\..\arduinoLCD\test\Pain Drain\libraries\lvgl\src\draw\../misc/lv_mem.h **** {
 134:..\..\..\arduinoLCD\test\Pain Drain\libraries\lvgl\src\draw\../misc/lv_mem.h ****     return memcpy(dst, src, len);
 135:..\..\..\arduinoLCD\test\Pain Drain\libraries\lvgl\src\draw\../misc/lv_mem.h **** }
 136:..\..\..\arduinoLCD\test\Pain Drain\libraries\lvgl\src\draw\../misc/lv_mem.h **** 
 137:..\..\..\arduinoLCD\test\Pain Drain\libraries\lvgl\src\draw\../misc/lv_mem.h **** /**
 138:..\..\..\arduinoLCD\test\Pain Drain\libraries\lvgl\src\draw\../misc/lv_mem.h ****  * Wrapper for the standard memcpy
 139:..\..\..\arduinoLCD\test\Pain Drain\libraries\lvgl\src\draw\../misc/lv_mem.h ****  * @param dst pointer to the destination buffer
 140:..\..\..\arduinoLCD\test\Pain Drain\libraries\lvgl\src\draw\../misc/lv_mem.h ****  * @param src pointer to the source buffer
 141:..\..\..\arduinoLCD\test\Pain Drain\libraries\lvgl\src\draw\../misc/lv_mem.h ****  * @param len number of byte to copy
 142:..\..\..\arduinoLCD\test\Pain Drain\libraries\lvgl\src\draw\../misc/lv_mem.h ****  */
 143:..\..\..\arduinoLCD\test\Pain Drain\libraries\lvgl\src\draw\../misc/lv_mem.h **** static inline void * lv_memcpy_small(void * dst, const void * src, size_t len)
 144:..\..\..\arduinoLCD\test\Pain Drain\libraries\lvgl\src\draw\../misc/lv_mem.h **** {
 145:..\..\..\arduinoLCD\test\Pain Drain\libraries\lvgl\src\draw\../misc/lv_mem.h ****     return memcpy(dst, src, len);
 146:..\..\..\arduinoLCD\test\Pain Drain\libraries\lvgl\src\draw\../misc/lv_mem.h **** }
 147:..\..\..\arduinoLCD\test\Pain Drain\libraries\lvgl\src\draw\../misc/lv_mem.h **** 
 148:..\..\..\arduinoLCD\test\Pain Drain\libraries\lvgl\src\draw\../misc/lv_mem.h **** /**
 149:..\..\..\arduinoLCD\test\Pain Drain\libraries\lvgl\src\draw\../misc/lv_mem.h ****  * Wrapper for the standard memset
 150:..\..\..\arduinoLCD\test\Pain Drain\libraries\lvgl\src\draw\../misc/lv_mem.h ****  * @param dst pointer to the destination buffer
 151:..\..\..\arduinoLCD\test\Pain Drain\libraries\lvgl\src\draw\../misc/lv_mem.h ****  * @param v value to set [0..255]
 152:..\..\..\arduinoLCD\test\Pain Drain\libraries\lvgl\src\draw\../misc/lv_mem.h ****  * @param len number of byte to set
 153:..\..\..\arduinoLCD\test\Pain Drain\libraries\lvgl\src\draw\../misc/lv_mem.h ****  */
 154:..\..\..\arduinoLCD\test\Pain Drain\libraries\lvgl\src\draw\../misc/lv_mem.h **** static inline void lv_memset(void * dst, uint8_t v, size_t len)
 155:..\..\..\arduinoLCD\test\Pain Drain\libraries\lvgl\src\draw\../misc/lv_mem.h **** {
 156:..\..\..\arduinoLCD\test\Pain Drain\libraries\lvgl\src\draw\../misc/lv_mem.h ****     memset(dst, v, len);
 157:..\..\..\arduinoLCD\test\Pain Drain\libraries\lvgl\src\draw\../misc/lv_mem.h **** }
 158:..\..\..\arduinoLCD\test\Pain Drain\libraries\lvgl\src\draw\../misc/lv_mem.h **** 
 159:..\..\..\arduinoLCD\test\Pain Drain\libraries\lvgl\src\draw\../misc/lv_mem.h **** /**
 160:..\..\..\arduinoLCD\test\Pain Drain\libraries\lvgl\src\draw\../misc/lv_mem.h ****  * Wrapper for the standard memset with fixed 0x00 value
 161:..\..\..\arduinoLCD\test\Pain Drain\libraries\lvgl\src\draw\../misc/lv_mem.h ****  * @param dst pointer to the destination buffer
 162:..\..\..\arduinoLCD\test\Pain Drain\libraries\lvgl\src\draw\../misc/lv_mem.h ****  * @param len number of byte to set
 163:..\..\..\arduinoLCD\test\Pain Drain\libraries\lvgl\src\draw\../misc/lv_mem.h ****  */
 164:..\..\..\arduinoLCD\test\Pain Drain\libraries\lvgl\src\draw\../misc/lv_mem.h **** static inline void lv_memset_00(void * dst, size_t len)
 165:..\..\..\arduinoLCD\test\Pain Drain\libraries\lvgl\src\draw\../misc/lv_mem.h **** {
 166:..\..\..\arduinoLCD\test\Pain Drain\libraries\lvgl\src\draw\../misc/lv_mem.h ****     memset(dst, 0x00, len);
 167:..\..\..\arduinoLCD\test\Pain Drain\libraries\lvgl\src\draw\../misc/lv_mem.h **** }
 168:..\..\..\arduinoLCD\test\Pain Drain\libraries\lvgl\src\draw\../misc/lv_mem.h **** 
 169:..\..\..\arduinoLCD\test\Pain Drain\libraries\lvgl\src\draw\../misc/lv_mem.h **** /**
 170:..\..\..\arduinoLCD\test\Pain Drain\libraries\lvgl\src\draw\../misc/lv_mem.h ****  * Wrapper for the standard memset with fixed 0xFF value
 171:..\..\..\arduinoLCD\test\Pain Drain\libraries\lvgl\src\draw\../misc/lv_mem.h ****  * @param dst pointer to the destination buffer
 172:..\..\..\arduinoLCD\test\Pain Drain\libraries\lvgl\src\draw\../misc/lv_mem.h ****  * @param len number of byte to set
 173:..\..\..\arduinoLCD\test\Pain Drain\libraries\lvgl\src\draw\../misc/lv_mem.h ****  */
 174:..\..\..\arduinoLCD\test\Pain Drain\libraries\lvgl\src\draw\../misc/lv_mem.h **** static inline void lv_memset_ff(void * dst, size_t len)
 175:..\..\..\arduinoLCD\test\Pain Drain\libraries\lvgl\src\draw\../misc/lv_mem.h **** {
 176:..\..\..\arduinoLCD\test\Pain Drain\libraries\lvgl\src\draw\../misc/lv_mem.h ****     memset(dst, 0xFF, len);
 177:..\..\..\arduinoLCD\test\Pain Drain\libraries\lvgl\src\draw\../misc/lv_mem.h **** }
 178:..\..\..\arduinoLCD\test\Pain Drain\libraries\lvgl\src\draw\../misc/lv_mem.h **** 
 179:..\..\..\arduinoLCD\test\Pain Drain\libraries\lvgl\src\draw\../misc/lv_mem.h **** #else
 180:..\..\..\arduinoLCD\test\Pain Drain\libraries\lvgl\src\draw\../misc/lv_mem.h **** /**
 181:..\..\..\arduinoLCD\test\Pain Drain\libraries\lvgl\src\draw\../misc/lv_mem.h ****  * Same as `memcpy` but optimized for 4 byte operation.
 182:..\..\..\arduinoLCD\test\Pain Drain\libraries\lvgl\src\draw\../misc/lv_mem.h ****  * @param dst pointer to the destination buffer
 183:..\..\..\arduinoLCD\test\Pain Drain\libraries\lvgl\src\draw\../misc/lv_mem.h ****  * @param src pointer to the source buffer
 184:..\..\..\arduinoLCD\test\Pain Drain\libraries\lvgl\src\draw\../misc/lv_mem.h ****  * @param len number of byte to copy
 185:..\..\..\arduinoLCD\test\Pain Drain\libraries\lvgl\src\draw\../misc/lv_mem.h ****  */
 186:..\..\..\arduinoLCD\test\Pain Drain\libraries\lvgl\src\draw\../misc/lv_mem.h **** LV_ATTRIBUTE_FAST_MEM void * lv_memcpy(void * dst, const void * src, size_t len);
 187:..\..\..\arduinoLCD\test\Pain Drain\libraries\lvgl\src\draw\../misc/lv_mem.h **** 
ARM GAS  C:\Users\haske\AppData\Local\Temp\ccwuLgOR.s 			page 7


 188:..\..\..\arduinoLCD\test\Pain Drain\libraries\lvgl\src\draw\../misc/lv_mem.h **** /**
 189:..\..\..\arduinoLCD\test\Pain Drain\libraries\lvgl\src\draw\../misc/lv_mem.h ****  * Same as `memcpy` but optimized to copy only a few bytes.
 190:..\..\..\arduinoLCD\test\Pain Drain\libraries\lvgl\src\draw\../misc/lv_mem.h ****  * @param dst pointer to the destination buffer
 191:..\..\..\arduinoLCD\test\Pain Drain\libraries\lvgl\src\draw\../misc/lv_mem.h ****  * @param src pointer to the source buffer
 192:..\..\..\arduinoLCD\test\Pain Drain\libraries\lvgl\src\draw\../misc/lv_mem.h ****  * @param len number of byte to copy
 193:..\..\..\arduinoLCD\test\Pain Drain\libraries\lvgl\src\draw\../misc/lv_mem.h ****  */
 194:..\..\..\arduinoLCD\test\Pain Drain\libraries\lvgl\src\draw\../misc/lv_mem.h **** LV_ATTRIBUTE_FAST_MEM static inline void * lv_memcpy_small(void * dst, const void * src, size_t len
 195:..\..\..\arduinoLCD\test\Pain Drain\libraries\lvgl\src\draw\../misc/lv_mem.h **** {
 196:..\..\..\arduinoLCD\test\Pain Drain\libraries\lvgl\src\draw\../misc/lv_mem.h ****     uint8_t * d8 = (uint8_t *)dst;
  96              		.loc 2 196 0
  97 0044 01AA     		add	r2, sp, #4
  98              	.LVL10:
  99              	.LBE31:
 100              	.LBE30:
 101              		.loc 1 60 0
 102 0046 0223     		movs	r3, #2
 103              	.LVL11:
 104 0048 04E0     		b	.L4
 105              	.LVL12:
 106              	.L5:
 107              	.LBB33:
 108              	.LBB32:
 197:..\..\..\arduinoLCD\test\Pain Drain\libraries\lvgl\src\draw\../misc/lv_mem.h ****     const uint8_t * s8 = (const uint8_t *)src;
 198:..\..\..\arduinoLCD\test\Pain Drain\libraries\lvgl\src\draw\../misc/lv_mem.h **** 
 199:..\..\..\arduinoLCD\test\Pain Drain\libraries\lvgl\src\draw\../misc/lv_mem.h ****     while(len) {
 200:..\..\..\arduinoLCD\test\Pain Drain\libraries\lvgl\src\draw\../misc/lv_mem.h ****         *d8 = *s8;
 109              		.loc 2 200 0
 110 004a 0178     		ldrb	r1, [r0]
 111 004c 1170     		strb	r1, [r2]
 201:..\..\..\arduinoLCD\test\Pain Drain\libraries\lvgl\src\draw\../misc/lv_mem.h ****         d8++;
 112              		.loc 2 201 0
 113 004e 0132     		adds	r2, r2, #1
 114              	.LVL13:
 202:..\..\..\arduinoLCD\test\Pain Drain\libraries\lvgl\src\draw\../misc/lv_mem.h ****         s8++;
 115              		.loc 2 202 0
 116 0050 0130     		adds	r0, r0, #1
 117              	.LVL14:
 203:..\..\..\arduinoLCD\test\Pain Drain\libraries\lvgl\src\draw\../misc/lv_mem.h ****         len--;
 118              		.loc 2 203 0
 119 0052 013B     		subs	r3, r3, #1
 120              	.LVL15:
 121              	.L4:
 199:..\..\..\arduinoLCD\test\Pain Drain\libraries\lvgl\src\draw\../misc/lv_mem.h ****         *d8 = *s8;
 122              		.loc 2 199 0
 123 0054 002B     		cmp	r3, #0
 124 0056 F8D1     		bne	.L5
 125 0058 5BE0     		b	.L6
 126              	.LVL16:
 127              	.L3:
 128              	.LBE32:
 129              	.LBE33:
 130              	.LBE29:
  61:..\..\..\arduinoLCD\test\Pain Drain\libraries\lvgl\src\draw/lv_img_buf.c **** #if LV_COLOR_SIZE == 32
  62:..\..\..\arduinoLCD\test\Pain Drain\libraries\lvgl\src\draw/lv_img_buf.c ****         p_color.ch.alpha = 0xFF; /*Only the color should be get so use a default alpha value*/
  63:..\..\..\arduinoLCD\test\Pain Drain\libraries\lvgl\src\draw/lv_img_buf.c **** #endif
  64:..\..\..\arduinoLCD\test\Pain Drain\libraries\lvgl\src\draw/lv_img_buf.c ****     }
  65:..\..\..\arduinoLCD\test\Pain Drain\libraries\lvgl\src\draw/lv_img_buf.c ****     else if(dsc->header.cf == LV_IMG_CF_INDEXED_1BIT) {
ARM GAS  C:\Users\haske\AppData\Local\Temp\ccwuLgOR.s 			page 8


 131              		.loc 1 65 0
 132 005a 072A     		cmp	r2, #7
 133 005c 13D1     		bne	.L7
 134              	.LVL17:
 135              	.LBB34:
  66:..\..\..\arduinoLCD\test\Pain Drain\libraries\lvgl\src\draw/lv_img_buf.c ****         buf_u8 += 4 * 2;
  67:..\..\..\arduinoLCD\test\Pain Drain\libraries\lvgl\src\draw/lv_img_buf.c ****         uint8_t bit = x & 0x7;
 136              		.loc 1 67 0
 137 005e 2A40     		ands	r2, r5
 138              	.LVL18:
  68:..\..\..\arduinoLCD\test\Pain Drain\libraries\lvgl\src\draw/lv_img_buf.c ****         x           = x >> 3;
 139              		.loc 1 68 0
 140 0060 E810     		asrs	r0, r5, #3
 141              	.LVL19:
  69:..\..\..\arduinoLCD\test\Pain Drain\libraries\lvgl\src\draw/lv_img_buf.c **** 
  70:..\..\..\arduinoLCD\test\Pain Drain\libraries\lvgl\src\draw/lv_img_buf.c ****         /*Get the current pixel.
  71:..\..\..\arduinoLCD\test\Pain Drain\libraries\lvgl\src\draw/lv_img_buf.c ****          *dsc->header.w + 7 means rounding up to 8 because the lines are byte aligned
  72:..\..\..\arduinoLCD\test\Pain Drain\libraries\lvgl\src\draw/lv_img_buf.c ****          *so the possible real width are 8, 16, 24 ...*/
  73:..\..\..\arduinoLCD\test\Pain Drain\libraries\lvgl\src\draw/lv_img_buf.c ****         uint32_t px  = ((dsc->header.w + 7) >> 3) * y + x;
 142              		.loc 1 73 0
 143 0062 2368     		ldr	r3, [r4]
 144              	.LVL20:
 145 0064 DB02     		lsls	r3, r3, #11
 146 0066 5B0D     		lsrs	r3, r3, #21
 147 0068 0733     		adds	r3, r3, #7
 148 006a DB10     		asrs	r3, r3, #3
 149 006c 5F43     		muls	r7, r3
 150 006e C019     		adds	r0, r0, r7
 151              	.LVL21:
  74:..\..\..\arduinoLCD\test\Pain Drain\libraries\lvgl\src\draw/lv_img_buf.c ****         p_color.full = (buf_u8[px] & (1 << (7 - bit))) >> (7 - bit);
 152              		.loc 1 74 0
 153 0070 3018     		adds	r0, r6, r0
 154              	.LVL22:
 155 0072 017A     		ldrb	r1, [r0, #8]
 156 0074 0723     		movs	r3, #7
 157 0076 9A1A     		subs	r2, r3, r2
 158              	.LVL23:
 159 0078 063B     		subs	r3, r3, #6
 160 007a 9340     		lsls	r3, r3, r2
 161 007c 0B40     		ands	r3, r1
 162 007e 1341     		asrs	r3, r3, r2
 163 0080 01AA     		add	r2, sp, #4
 164 0082 1380     		strh	r3, [r2]
 165              	.LVL24:
 166              	.LBE34:
 167 0084 45E0     		b	.L6
 168              	.LVL25:
 169              	.L7:
  75:..\..\..\arduinoLCD\test\Pain Drain\libraries\lvgl\src\draw/lv_img_buf.c ****     }
  76:..\..\..\arduinoLCD\test\Pain Drain\libraries\lvgl\src\draw/lv_img_buf.c ****     else if(dsc->header.cf == LV_IMG_CF_INDEXED_2BIT) {
 170              		.loc 1 76 0
 171 0086 082A     		cmp	r2, #8
 172 0088 15D1     		bne	.L8
 173              	.LVL26:
 174              	.LBB35:
  77:..\..\..\arduinoLCD\test\Pain Drain\libraries\lvgl\src\draw/lv_img_buf.c ****         buf_u8 += 4 * 4;
  78:..\..\..\arduinoLCD\test\Pain Drain\libraries\lvgl\src\draw/lv_img_buf.c ****         uint8_t bit = (x & 0x3) * 2;
ARM GAS  C:\Users\haske\AppData\Local\Temp\ccwuLgOR.s 			page 9


 175              		.loc 1 78 0
 176 008a 053A     		subs	r2, r2, #5
 177 008c 2A40     		ands	r2, r5
 178 008e 5200     		lsls	r2, r2, #1
 179              	.LVL27:
  79:..\..\..\arduinoLCD\test\Pain Drain\libraries\lvgl\src\draw/lv_img_buf.c ****         x           = x >> 2;
 180              		.loc 1 79 0
 181 0090 A810     		asrs	r0, r5, #2
 182              	.LVL28:
  80:..\..\..\arduinoLCD\test\Pain Drain\libraries\lvgl\src\draw/lv_img_buf.c **** 
  81:..\..\..\arduinoLCD\test\Pain Drain\libraries\lvgl\src\draw/lv_img_buf.c ****         /*Get the current pixel.
  82:..\..\..\arduinoLCD\test\Pain Drain\libraries\lvgl\src\draw/lv_img_buf.c ****          *dsc->header.w + 3 means rounding up to 4 because the lines are byte aligned
  83:..\..\..\arduinoLCD\test\Pain Drain\libraries\lvgl\src\draw/lv_img_buf.c ****          *so the possible real width are 4, 8, 12 ...*/
  84:..\..\..\arduinoLCD\test\Pain Drain\libraries\lvgl\src\draw/lv_img_buf.c ****         uint32_t px  = ((dsc->header.w + 3) >> 2) * y + x;
 183              		.loc 1 84 0
 184 0092 2368     		ldr	r3, [r4]
 185              	.LVL29:
 186 0094 DB02     		lsls	r3, r3, #11
 187 0096 5B0D     		lsrs	r3, r3, #21
 188 0098 0333     		adds	r3, r3, #3
 189 009a 9B10     		asrs	r3, r3, #2
 190 009c 5F43     		muls	r7, r3
 191 009e C019     		adds	r0, r0, r7
 192              	.LVL30:
  85:..\..\..\arduinoLCD\test\Pain Drain\libraries\lvgl\src\draw/lv_img_buf.c ****         p_color.full = (buf_u8[px] & (3 << (6 - bit))) >> (6 - bit);
 193              		.loc 1 85 0
 194 00a0 3018     		adds	r0, r6, r0
 195              	.LVL31:
 196 00a2 017C     		ldrb	r1, [r0, #16]
 197 00a4 0623     		movs	r3, #6
 198 00a6 9A1A     		subs	r2, r3, r2
 199              	.LVL32:
 200 00a8 033B     		subs	r3, r3, #3
 201 00aa 9340     		lsls	r3, r3, r2
 202 00ac 0B40     		ands	r3, r1
 203 00ae 1341     		asrs	r3, r3, r2
 204 00b0 01AA     		add	r2, sp, #4
 205 00b2 1380     		strh	r3, [r2]
 206              	.LVL33:
 207              	.LBE35:
 208 00b4 2DE0     		b	.L6
 209              	.LVL34:
 210              	.L8:
  86:..\..\..\arduinoLCD\test\Pain Drain\libraries\lvgl\src\draw/lv_img_buf.c ****     }
  87:..\..\..\arduinoLCD\test\Pain Drain\libraries\lvgl\src\draw/lv_img_buf.c ****     else if(dsc->header.cf == LV_IMG_CF_INDEXED_4BIT) {
 211              		.loc 1 87 0
 212 00b6 092A     		cmp	r2, #9
 213 00b8 16D1     		bne	.L9
 214              	.LVL35:
 215              	.LBB36:
  88:..\..\..\arduinoLCD\test\Pain Drain\libraries\lvgl\src\draw/lv_img_buf.c ****         buf_u8 += 4 * 16;
  89:..\..\..\arduinoLCD\test\Pain Drain\libraries\lvgl\src\draw/lv_img_buf.c ****         uint8_t bit = (x & 0x1) * 4;
 216              		.loc 1 89 0
 217 00ba 083A     		subs	r2, r2, #8
 218 00bc 2A40     		ands	r2, r5
 219 00be 9200     		lsls	r2, r2, #2
 220              	.LVL36:
ARM GAS  C:\Users\haske\AppData\Local\Temp\ccwuLgOR.s 			page 10


  90:..\..\..\arduinoLCD\test\Pain Drain\libraries\lvgl\src\draw/lv_img_buf.c ****         x           = x >> 1;
 221              		.loc 1 90 0
 222 00c0 6810     		asrs	r0, r5, #1
 223              	.LVL37:
  91:..\..\..\arduinoLCD\test\Pain Drain\libraries\lvgl\src\draw/lv_img_buf.c **** 
  92:..\..\..\arduinoLCD\test\Pain Drain\libraries\lvgl\src\draw/lv_img_buf.c ****         /*Get the current pixel.
  93:..\..\..\arduinoLCD\test\Pain Drain\libraries\lvgl\src\draw/lv_img_buf.c ****          *dsc->header.w + 1 means rounding up to 2 because the lines are byte aligned
  94:..\..\..\arduinoLCD\test\Pain Drain\libraries\lvgl\src\draw/lv_img_buf.c ****          *so the possible real width are 2, 4, 6 ...*/
  95:..\..\..\arduinoLCD\test\Pain Drain\libraries\lvgl\src\draw/lv_img_buf.c ****         uint32_t px  = ((dsc->header.w + 1) >> 1) * y + x;
 224              		.loc 1 95 0
 225 00c2 2368     		ldr	r3, [r4]
 226              	.LVL38:
 227 00c4 DB02     		lsls	r3, r3, #11
 228 00c6 5B0D     		lsrs	r3, r3, #21
 229 00c8 0133     		adds	r3, r3, #1
 230 00ca 5B10     		asrs	r3, r3, #1
 231 00cc 5F43     		muls	r7, r3
 232 00ce C019     		adds	r0, r0, r7
 233              	.LVL39:
  96:..\..\..\arduinoLCD\test\Pain Drain\libraries\lvgl\src\draw/lv_img_buf.c ****         p_color.full = (buf_u8[px] & (0xF << (4 - bit))) >> (4 - bit);
 234              		.loc 1 96 0
 235 00d0 3018     		adds	r0, r6, r0
 236              	.LVL40:
 237 00d2 4030     		adds	r0, r0, #64
 238 00d4 0178     		ldrb	r1, [r0]
 239 00d6 0423     		movs	r3, #4
 240 00d8 9A1A     		subs	r2, r3, r2
 241              	.LVL41:
 242 00da 0B33     		adds	r3, r3, #11
 243 00dc 9340     		lsls	r3, r3, r2
 244 00de 0B40     		ands	r3, r1
 245 00e0 1341     		asrs	r3, r3, r2
 246 00e2 01AA     		add	r2, sp, #4
 247 00e4 1380     		strh	r3, [r2]
 248              	.LVL42:
 249              	.LBE36:
 250 00e6 14E0     		b	.L6
 251              	.LVL43:
 252              	.L9:
  97:..\..\..\arduinoLCD\test\Pain Drain\libraries\lvgl\src\draw/lv_img_buf.c ****     }
  98:..\..\..\arduinoLCD\test\Pain Drain\libraries\lvgl\src\draw/lv_img_buf.c ****     else if(dsc->header.cf == LV_IMG_CF_INDEXED_8BIT) {
 253              		.loc 1 98 0
 254 00e8 0A2A     		cmp	r2, #10
 255 00ea 0CD1     		bne	.L10
 256              	.LVL44:
 257              	.LBB37:
  99:..\..\..\arduinoLCD\test\Pain Drain\libraries\lvgl\src\draw/lv_img_buf.c ****         buf_u8 += 4 * 256;
 100:..\..\..\arduinoLCD\test\Pain Drain\libraries\lvgl\src\draw/lv_img_buf.c ****         uint32_t px  = dsc->header.w * y + x;
 258              		.loc 1 100 0
 259 00ec 0068     		ldr	r0, [r0]
 260              	.LVL45:
 261 00ee C002     		lsls	r0, r0, #11
 262 00f0 400D     		lsrs	r0, r0, #21
 263 00f2 7843     		muls	r0, r7
 264 00f4 2818     		adds	r0, r5, r0
 265              	.LVL46:
 101:..\..\..\arduinoLCD\test\Pain Drain\libraries\lvgl\src\draw/lv_img_buf.c ****         p_color.full = buf_u8[px];
ARM GAS  C:\Users\haske\AppData\Local\Temp\ccwuLgOR.s 			page 11


 266              		.loc 1 101 0
 267 00f6 3018     		adds	r0, r6, r0
 268              	.LVL47:
 269 00f8 8023     		movs	r3, #128
 270              	.LVL48:
 271 00fa DB00     		lsls	r3, r3, #3
 272 00fc C618     		adds	r6, r0, r3
 273              	.LVL49:
 274 00fe 3278     		ldrb	r2, [r6]
 275 0100 01AB     		add	r3, sp, #4
 276 0102 1A80     		strh	r2, [r3]
 277              	.LVL50:
 278              	.LBE37:
 279 0104 05E0     		b	.L6
 280              	.LVL51:
 281              	.L10:
 102:..\..\..\arduinoLCD\test\Pain Drain\libraries\lvgl\src\draw/lv_img_buf.c ****     }
 103:..\..\..\arduinoLCD\test\Pain Drain\libraries\lvgl\src\draw/lv_img_buf.c ****     else if(dsc->header.cf == LV_IMG_CF_ALPHA_1BIT || dsc->header.cf == LV_IMG_CF_ALPHA_2BIT ||
 104:..\..\..\arduinoLCD\test\Pain Drain\libraries\lvgl\src\draw/lv_img_buf.c ****             dsc->header.cf == LV_IMG_CF_ALPHA_4BIT || dsc->header.cf == LV_IMG_CF_ALPHA_8BIT) {
 282              		.loc 1 104 0
 283 0106 0B3A     		subs	r2, r2, #11
 284 0108 D2B2     		uxtb	r2, r2
 103:..\..\..\arduinoLCD\test\Pain Drain\libraries\lvgl\src\draw/lv_img_buf.c ****             dsc->header.cf == LV_IMG_CF_ALPHA_4BIT || dsc->header.cf == LV_IMG_CF_ALPHA_8BIT) {
 285              		.loc 1 103 0
 286 010a 032A     		cmp	r2, #3
 287 010c 01D8     		bhi	.L6
 105:..\..\..\arduinoLCD\test\Pain Drain\libraries\lvgl\src\draw/lv_img_buf.c ****         p_color = color;
 288              		.loc 1 105 0
 289 010e 01AA     		add	r2, sp, #4
 290 0110 1380     		strh	r3, [r2]
 291              	.LVL52:
 292              	.L6:
 106:..\..\..\arduinoLCD\test\Pain Drain\libraries\lvgl\src\draw/lv_img_buf.c ****     }
 107:..\..\..\arduinoLCD\test\Pain Drain\libraries\lvgl\src\draw/lv_img_buf.c ****     return p_color;
 293              		.loc 1 107 0
 294 0112 01AB     		add	r3, sp, #4
 295              	.LVL53:
 296 0114 1888     		ldrh	r0, [r3]
 108:..\..\..\arduinoLCD\test\Pain Drain\libraries\lvgl\src\draw/lv_img_buf.c **** }
 297              		.loc 1 108 0
 298 0116 03B0     		add	sp, sp, #12
 299              		@ sp needed
 300              	.LVL54:
 301 0118 F0BD     		pop	{r4, r5, r6, r7, pc}
 302              		.cfi_endproc
 303              	.LFE54:
 304              		.size	lv_img_buf_get_px_color, .-lv_img_buf_get_px_color
 305 011a C046     		.section	.text.lv_img_buf_get_px_alpha,"ax",%progbits
 306              		.align	2
 307              		.global	lv_img_buf_get_px_alpha
 308              		.code	16
 309              		.thumb_func
 310              		.type	lv_img_buf_get_px_alpha, %function
 311              	lv_img_buf_get_px_alpha:
 312              	.LFB55:
 109:..\..\..\arduinoLCD\test\Pain Drain\libraries\lvgl\src\draw/lv_img_buf.c **** 
 110:..\..\..\arduinoLCD\test\Pain Drain\libraries\lvgl\src\draw/lv_img_buf.c **** /**
ARM GAS  C:\Users\haske\AppData\Local\Temp\ccwuLgOR.s 			page 12


 111:..\..\..\arduinoLCD\test\Pain Drain\libraries\lvgl\src\draw/lv_img_buf.c ****  * Get the alpha value of an image's pixel
 112:..\..\..\arduinoLCD\test\Pain Drain\libraries\lvgl\src\draw/lv_img_buf.c ****  * @param dsc pointer to an image descriptor
 113:..\..\..\arduinoLCD\test\Pain Drain\libraries\lvgl\src\draw/lv_img_buf.c ****  * @param x x coordinate of the point to set
 114:..\..\..\arduinoLCD\test\Pain Drain\libraries\lvgl\src\draw/lv_img_buf.c ****  * @param y x coordinate of the point to set
 115:..\..\..\arduinoLCD\test\Pain Drain\libraries\lvgl\src\draw/lv_img_buf.c ****  * @param safe true: check out of bounds
 116:..\..\..\arduinoLCD\test\Pain Drain\libraries\lvgl\src\draw/lv_img_buf.c ****  * @return alpha value of the point
 117:..\..\..\arduinoLCD\test\Pain Drain\libraries\lvgl\src\draw/lv_img_buf.c ****  */
 118:..\..\..\arduinoLCD\test\Pain Drain\libraries\lvgl\src\draw/lv_img_buf.c **** lv_opa_t lv_img_buf_get_px_alpha(lv_img_dsc_t * dsc, lv_coord_t x, lv_coord_t y)
 119:..\..\..\arduinoLCD\test\Pain Drain\libraries\lvgl\src\draw/lv_img_buf.c **** {
 313              		.loc 1 119 0
 314              		.cfi_startproc
 315              		@ args = 0, pretend = 0, frame = 16
 316              		@ frame_needed = 0, uses_anonymous_args = 0
 317              	.LVL55:
 318 0000 F0B5     		push	{r4, r5, r6, r7, lr}
 319              		.cfi_def_cfa_offset 20
 320              		.cfi_offset 4, -20
 321              		.cfi_offset 5, -16
 322              		.cfi_offset 6, -12
 323              		.cfi_offset 7, -8
 324              		.cfi_offset 14, -4
 325 0002 85B0     		sub	sp, sp, #20
 326              		.cfi_def_cfa_offset 40
 327 0004 0400     		movs	r4, r0
 328 0006 0F00     		movs	r7, r1
 329 0008 1500     		movs	r5, r2
 120:..\..\..\arduinoLCD\test\Pain Drain\libraries\lvgl\src\draw/lv_img_buf.c ****     uint8_t * buf_u8 = (uint8_t *)dsc->data;
 330              		.loc 1 120 0
 331 000a 8668     		ldr	r6, [r0, #8]
 332              	.LVL56:
 121:..\..\..\arduinoLCD\test\Pain Drain\libraries\lvgl\src\draw/lv_img_buf.c **** 
 122:..\..\..\arduinoLCD\test\Pain Drain\libraries\lvgl\src\draw/lv_img_buf.c ****     if(dsc->header.cf == LV_IMG_CF_TRUE_COLOR_ALPHA) {
 333              		.loc 1 122 0
 334 000c 0378     		ldrb	r3, [r0]
 335 000e 1F22     		movs	r2, #31
 336              	.LVL57:
 337 0010 1340     		ands	r3, r2
 338 0012 052B     		cmp	r3, #5
 339 0014 09D1     		bne	.L12
 340              	.LBB38:
 123:..\..\..\arduinoLCD\test\Pain Drain\libraries\lvgl\src\draw/lv_img_buf.c ****         uint32_t px = dsc->header.w * y * LV_IMG_PX_SIZE_ALPHA_BYTE + x * LV_IMG_PX_SIZE_ALPHA_BYTE
 341              		.loc 1 123 0
 342 0016 0168     		ldr	r1, [r0]
 343              	.LVL58:
 344 0018 C902     		lsls	r1, r1, #11
 345 001a 490D     		lsrs	r1, r1, #21
 346 001c 6943     		muls	r1, r5
 347 001e 7918     		adds	r1, r7, r1
 348 0020 4D00     		lsls	r5, r1, #1
 349 0022 6918     		adds	r1, r5, r1
 350              	.LVL59:
 124:..\..\..\arduinoLCD\test\Pain Drain\libraries\lvgl\src\draw/lv_img_buf.c ****         return buf_u8[px + LV_IMG_PX_SIZE_ALPHA_BYTE - 1];
 351              		.loc 1 124 0
 352 0024 0231     		adds	r1, r1, #2
 353              	.LVL60:
 354 0026 705C     		ldrb	r0, [r6, r1]
 355              	.LVL61:
ARM GAS  C:\Users\haske\AppData\Local\Temp\ccwuLgOR.s 			page 13


 356 0028 61E0     		b	.L13
 357              	.LVL62:
 358              	.L12:
 359              	.LBE38:
 125:..\..\..\arduinoLCD\test\Pain Drain\libraries\lvgl\src\draw/lv_img_buf.c ****     }
 126:..\..\..\arduinoLCD\test\Pain Drain\libraries\lvgl\src\draw/lv_img_buf.c ****     else if(dsc->header.cf == LV_IMG_CF_ALPHA_1BIT) {
 360              		.loc 1 126 0
 361 002a 0B2B     		cmp	r3, #11
 362 002c 16D1     		bne	.L14
 363              	.LBB39:
 127:..\..\..\arduinoLCD\test\Pain Drain\libraries\lvgl\src\draw/lv_img_buf.c ****         uint8_t bit = x & 0x7;
 364              		.loc 1 127 0
 365 002e 0721     		movs	r1, #7
 366              	.LVL63:
 367 0030 0B00     		movs	r3, r1
 368 0032 3B40     		ands	r3, r7
 369              	.LVL64:
 128:..\..\..\arduinoLCD\test\Pain Drain\libraries\lvgl\src\draw/lv_img_buf.c ****         x           = x >> 3;
 370              		.loc 1 128 0
 371 0034 F910     		asrs	r1, r7, #3
 372              	.LVL65:
 129:..\..\..\arduinoLCD\test\Pain Drain\libraries\lvgl\src\draw/lv_img_buf.c **** 
 130:..\..\..\arduinoLCD\test\Pain Drain\libraries\lvgl\src\draw/lv_img_buf.c ****         /*Get the current pixel.
 131:..\..\..\arduinoLCD\test\Pain Drain\libraries\lvgl\src\draw/lv_img_buf.c ****          *dsc->header.w + 7 means rounding up to 8 because the lines are byte aligned
 132:..\..\..\arduinoLCD\test\Pain Drain\libraries\lvgl\src\draw/lv_img_buf.c ****          *so the possible real width are 8 ,16, 24 ...*/
 133:..\..\..\arduinoLCD\test\Pain Drain\libraries\lvgl\src\draw/lv_img_buf.c ****         uint32_t px    = ((dsc->header.w + 7) >> 3) * y + x;
 373              		.loc 1 133 0
 374 0036 0268     		ldr	r2, [r0]
 375 0038 D202     		lsls	r2, r2, #11
 376 003a 520D     		lsrs	r2, r2, #21
 377 003c 0732     		adds	r2, r2, #7
 378 003e D210     		asrs	r2, r2, #3
 379 0040 6A43     		muls	r2, r5
 380 0042 8918     		adds	r1, r1, r2
 381              	.LVL66:
 134:..\..\..\arduinoLCD\test\Pain Drain\libraries\lvgl\src\draw/lv_img_buf.c ****         uint8_t px_opa = (buf_u8[px] & (1 << (7 - bit))) >> (7 - bit);
 382              		.loc 1 134 0
 383 0044 725C     		ldrb	r2, [r6, r1]
 384 0046 0721     		movs	r1, #7
 385              	.LVL67:
 386 0048 C91A     		subs	r1, r1, r3
 387 004a 0123     		movs	r3, #1
 388              	.LVL68:
 389 004c 8B40     		lsls	r3, r3, r1
 390 004e 1340     		ands	r3, r2
 391 0050 0B41     		asrs	r3, r3, r1
 392 0052 DBB2     		uxtb	r3, r3
 393              	.LVL69:
 135:..\..\..\arduinoLCD\test\Pain Drain\libraries\lvgl\src\draw/lv_img_buf.c ****         return px_opa ? LV_OPA_TRANSP : LV_OPA_COVER;
 394              		.loc 1 135 0
 395 0054 002B     		cmp	r3, #0
 396 0056 47D0     		beq	.L17
 397 0058 0020     		movs	r0, #0
 398              	.LVL70:
 399 005a 48E0     		b	.L13
 400              	.LVL71:
 401              	.L14:
ARM GAS  C:\Users\haske\AppData\Local\Temp\ccwuLgOR.s 			page 14


 402              	.LBE39:
 136:..\..\..\arduinoLCD\test\Pain Drain\libraries\lvgl\src\draw/lv_img_buf.c ****     }
 137:..\..\..\arduinoLCD\test\Pain Drain\libraries\lvgl\src\draw/lv_img_buf.c ****     else if(dsc->header.cf == LV_IMG_CF_ALPHA_2BIT) {
 403              		.loc 1 137 0
 404 005c 0C2B     		cmp	r3, #12
 405 005e 1BD1     		bne	.L15
 406              	.LBB40:
 138:..\..\..\arduinoLCD\test\Pain Drain\libraries\lvgl\src\draw/lv_img_buf.c ****         const uint8_t opa_table[4] = {0, 85, 170, 255}; /*Opacity mapping with bpp = 2*/
 407              		.loc 1 138 0
 408 0060 0422     		movs	r2, #4
 409 0062 2449     		ldr	r1, .L19
 410              	.LVL72:
 411 0064 6846     		mov	r0, sp
 412              	.LVL73:
 413 0066 FFF7FEFF 		bl	memcpy
 414              	.LVL74:
 139:..\..\..\arduinoLCD\test\Pain Drain\libraries\lvgl\src\draw/lv_img_buf.c **** 
 140:..\..\..\arduinoLCD\test\Pain Drain\libraries\lvgl\src\draw/lv_img_buf.c ****         uint8_t bit = (x & 0x3) * 2;
 415              		.loc 1 140 0
 416 006a 0323     		movs	r3, #3
 417 006c 3B40     		ands	r3, r7
 418 006e 5B00     		lsls	r3, r3, #1
 419              	.LVL75:
 141:..\..\..\arduinoLCD\test\Pain Drain\libraries\lvgl\src\draw/lv_img_buf.c ****         x           = x >> 2;
 420              		.loc 1 141 0
 421 0070 B910     		asrs	r1, r7, #2
 422              	.LVL76:
 142:..\..\..\arduinoLCD\test\Pain Drain\libraries\lvgl\src\draw/lv_img_buf.c **** 
 143:..\..\..\arduinoLCD\test\Pain Drain\libraries\lvgl\src\draw/lv_img_buf.c ****         /*Get the current pixel.
 144:..\..\..\arduinoLCD\test\Pain Drain\libraries\lvgl\src\draw/lv_img_buf.c ****          *dsc->header.w + 4 means rounding up to 8 because the lines are byte aligned
 145:..\..\..\arduinoLCD\test\Pain Drain\libraries\lvgl\src\draw/lv_img_buf.c ****          *so the possible real width are 4 ,8, 12 ...*/
 146:..\..\..\arduinoLCD\test\Pain Drain\libraries\lvgl\src\draw/lv_img_buf.c ****         uint32_t px    = ((dsc->header.w + 3) >> 2) * y + x;
 423              		.loc 1 146 0
 424 0072 2268     		ldr	r2, [r4]
 425 0074 D202     		lsls	r2, r2, #11
 426 0076 520D     		lsrs	r2, r2, #21
 427 0078 0332     		adds	r2, r2, #3
 428 007a 9210     		asrs	r2, r2, #2
 429 007c 6A43     		muls	r2, r5
 430 007e 8918     		adds	r1, r1, r2
 431              	.LVL77:
 147:..\..\..\arduinoLCD\test\Pain Drain\libraries\lvgl\src\draw/lv_img_buf.c ****         uint8_t px_opa = (buf_u8[px] & (3 << (6 - bit))) >> (6 - bit);
 432              		.loc 1 147 0
 433 0080 725C     		ldrb	r2, [r6, r1]
 434 0082 0621     		movs	r1, #6
 435              	.LVL78:
 436 0084 C91A     		subs	r1, r1, r3
 437 0086 0323     		movs	r3, #3
 438              	.LVL79:
 439 0088 8B40     		lsls	r3, r3, r1
 440              	.LVL80:
 441 008a 1340     		ands	r3, r2
 442 008c 0B41     		asrs	r3, r3, r1
 443              	.LVL81:
 148:..\..\..\arduinoLCD\test\Pain Drain\libraries\lvgl\src\draw/lv_img_buf.c ****         return opa_table[px_opa];
 444              		.loc 1 148 0
 445 008e FF22     		movs	r2, #255
ARM GAS  C:\Users\haske\AppData\Local\Temp\ccwuLgOR.s 			page 15


 446 0090 1340     		ands	r3, r2
 447              	.LVL82:
 448 0092 6A46     		mov	r2, sp
 449 0094 D05C     		ldrb	r0, [r2, r3]
 450 0096 2AE0     		b	.L13
 451              	.LVL83:
 452              	.L15:
 453              	.LBE40:
 149:..\..\..\arduinoLCD\test\Pain Drain\libraries\lvgl\src\draw/lv_img_buf.c ****     }
 150:..\..\..\arduinoLCD\test\Pain Drain\libraries\lvgl\src\draw/lv_img_buf.c ****     else if(dsc->header.cf == LV_IMG_CF_ALPHA_4BIT) {
 454              		.loc 1 150 0
 455 0098 0D2B     		cmp	r3, #13
 456 009a 1CD1     		bne	.L16
 457              	.LBB41:
 151:..\..\..\arduinoLCD\test\Pain Drain\libraries\lvgl\src\draw/lv_img_buf.c ****         const uint8_t opa_table[16] = {0,  17, 34,  51, /*Opacity mapping with bpp = 4*/
 458              		.loc 1 151 0
 459 009c 1022     		movs	r2, #16
 460 009e 1549     		ldr	r1, .L19
 461              	.LVL84:
 462 00a0 0431     		adds	r1, r1, #4
 463 00a2 6846     		mov	r0, sp
 464              	.LVL85:
 465 00a4 FFF7FEFF 		bl	memcpy
 466              	.LVL86:
 152:..\..\..\arduinoLCD\test\Pain Drain\libraries\lvgl\src\draw/lv_img_buf.c ****                                        68, 85, 102, 119, 136, 153, 170, 187, 204, 221, 238, 255
 153:..\..\..\arduinoLCD\test\Pain Drain\libraries\lvgl\src\draw/lv_img_buf.c ****                                       };
 154:..\..\..\arduinoLCD\test\Pain Drain\libraries\lvgl\src\draw/lv_img_buf.c **** 
 155:..\..\..\arduinoLCD\test\Pain Drain\libraries\lvgl\src\draw/lv_img_buf.c ****         uint8_t bit = (x & 0x1) * 4;
 467              		.loc 1 155 0
 468 00a8 0123     		movs	r3, #1
 469 00aa 3B40     		ands	r3, r7
 470 00ac 9B00     		lsls	r3, r3, #2
 471              	.LVL87:
 156:..\..\..\arduinoLCD\test\Pain Drain\libraries\lvgl\src\draw/lv_img_buf.c ****         x           = x >> 1;
 472              		.loc 1 156 0
 473 00ae 7910     		asrs	r1, r7, #1
 474              	.LVL88:
 157:..\..\..\arduinoLCD\test\Pain Drain\libraries\lvgl\src\draw/lv_img_buf.c **** 
 158:..\..\..\arduinoLCD\test\Pain Drain\libraries\lvgl\src\draw/lv_img_buf.c ****         /*Get the current pixel.
 159:..\..\..\arduinoLCD\test\Pain Drain\libraries\lvgl\src\draw/lv_img_buf.c ****          *dsc->header.w + 1 means rounding up to 8 because the lines are byte aligned
 160:..\..\..\arduinoLCD\test\Pain Drain\libraries\lvgl\src\draw/lv_img_buf.c ****          *so the possible real width are 2 ,4, 6 ...*/
 161:..\..\..\arduinoLCD\test\Pain Drain\libraries\lvgl\src\draw/lv_img_buf.c ****         uint32_t px    = ((dsc->header.w + 1) >> 1) * y + x;
 475              		.loc 1 161 0
 476 00b0 2268     		ldr	r2, [r4]
 477 00b2 D202     		lsls	r2, r2, #11
 478 00b4 520D     		lsrs	r2, r2, #21
 479 00b6 0132     		adds	r2, r2, #1
 480 00b8 5210     		asrs	r2, r2, #1
 481 00ba 6A43     		muls	r2, r5
 482 00bc 8918     		adds	r1, r1, r2
 483              	.LVL89:
 162:..\..\..\arduinoLCD\test\Pain Drain\libraries\lvgl\src\draw/lv_img_buf.c ****         uint8_t px_opa = (buf_u8[px] & (0xF << (4 - bit))) >> (4 - bit);
 484              		.loc 1 162 0
 485 00be 725C     		ldrb	r2, [r6, r1]
 486 00c0 0421     		movs	r1, #4
 487              	.LVL90:
 488 00c2 C91A     		subs	r1, r1, r3
ARM GAS  C:\Users\haske\AppData\Local\Temp\ccwuLgOR.s 			page 16


 489 00c4 0F23     		movs	r3, #15
 490              	.LVL91:
 491 00c6 8B40     		lsls	r3, r3, r1
 492 00c8 1340     		ands	r3, r2
 493 00ca 0B41     		asrs	r3, r3, r1
 494              	.LVL92:
 163:..\..\..\arduinoLCD\test\Pain Drain\libraries\lvgl\src\draw/lv_img_buf.c ****         return opa_table[px_opa];
 495              		.loc 1 163 0
 496 00cc FF22     		movs	r2, #255
 497 00ce 1340     		ands	r3, r2
 498              	.LVL93:
 499 00d0 6A46     		mov	r2, sp
 500 00d2 D05C     		ldrb	r0, [r2, r3]
 501 00d4 0BE0     		b	.L13
 502              	.LVL94:
 503              	.L16:
 504              	.LBE41:
 164:..\..\..\arduinoLCD\test\Pain Drain\libraries\lvgl\src\draw/lv_img_buf.c ****     }
 165:..\..\..\arduinoLCD\test\Pain Drain\libraries\lvgl\src\draw/lv_img_buf.c ****     else if(dsc->header.cf == LV_IMG_CF_ALPHA_8BIT) {
 505              		.loc 1 165 0
 506 00d6 0E2B     		cmp	r3, #14
 507 00d8 08D1     		bne	.L18
 508              	.LBB42:
 166:..\..\..\arduinoLCD\test\Pain Drain\libraries\lvgl\src\draw/lv_img_buf.c ****         uint32_t px = dsc->header.w * y + x;
 509              		.loc 1 166 0
 510 00da 0168     		ldr	r1, [r0]
 511              	.LVL95:
 512 00dc C902     		lsls	r1, r1, #11
 513 00de 490D     		lsrs	r1, r1, #21
 514 00e0 6943     		muls	r1, r5
 515 00e2 7918     		adds	r1, r7, r1
 516              	.LVL96:
 167:..\..\..\arduinoLCD\test\Pain Drain\libraries\lvgl\src\draw/lv_img_buf.c ****         return buf_u8[px];
 517              		.loc 1 167 0
 518 00e4 705C     		ldrb	r0, [r6, r1]
 519              	.LVL97:
 520 00e6 02E0     		b	.L13
 521              	.LVL98:
 522              	.L17:
 523              	.LBE42:
 524              	.LBB43:
 135:..\..\..\arduinoLCD\test\Pain Drain\libraries\lvgl\src\draw/lv_img_buf.c ****     }
 525              		.loc 1 135 0
 526 00e8 FF20     		movs	r0, #255
 527              	.LVL99:
 528 00ea 00E0     		b	.L13
 529              	.LVL100:
 530              	.L18:
 531              	.LBE43:
 168:..\..\..\arduinoLCD\test\Pain Drain\libraries\lvgl\src\draw/lv_img_buf.c ****     }
 169:..\..\..\arduinoLCD\test\Pain Drain\libraries\lvgl\src\draw/lv_img_buf.c **** 
 170:..\..\..\arduinoLCD\test\Pain Drain\libraries\lvgl\src\draw/lv_img_buf.c ****     return LV_OPA_COVER;
 532              		.loc 1 170 0
 533 00ec FF20     		movs	r0, #255
 534              	.LVL101:
 535              	.L13:
 171:..\..\..\arduinoLCD\test\Pain Drain\libraries\lvgl\src\draw/lv_img_buf.c **** }
ARM GAS  C:\Users\haske\AppData\Local\Temp\ccwuLgOR.s 			page 17


 536              		.loc 1 171 0 discriminator 1
 537 00ee 05B0     		add	sp, sp, #20
 538              		@ sp needed
 539              	.LVL102:
 540              	.LVL103:
 541 00f0 F0BD     		pop	{r4, r5, r6, r7, pc}
 542              	.L20:
 543 00f2 C046     		.align	2
 544              	.L19:
 545 00f4 44000000 		.word	.LANCHOR0
 546              		.cfi_endproc
 547              	.LFE55:
 548              		.size	lv_img_buf_get_px_alpha, .-lv_img_buf_get_px_alpha
 549              		.section	.text.lv_img_buf_set_px_alpha,"ax",%progbits
 550              		.align	2
 551              		.global	lv_img_buf_set_px_alpha
 552              		.code	16
 553              		.thumb_func
 554              		.type	lv_img_buf_set_px_alpha, %function
 555              	lv_img_buf_set_px_alpha:
 556              	.LFB56:
 172:..\..\..\arduinoLCD\test\Pain Drain\libraries\lvgl\src\draw/lv_img_buf.c **** 
 173:..\..\..\arduinoLCD\test\Pain Drain\libraries\lvgl\src\draw/lv_img_buf.c **** /**
 174:..\..\..\arduinoLCD\test\Pain Drain\libraries\lvgl\src\draw/lv_img_buf.c ****  * Set the alpha value of a pixel of an image. The color won't be affected
 175:..\..\..\arduinoLCD\test\Pain Drain\libraries\lvgl\src\draw/lv_img_buf.c ****  * @param dsc pointer to an image descriptor
 176:..\..\..\arduinoLCD\test\Pain Drain\libraries\lvgl\src\draw/lv_img_buf.c ****  * @param x x coordinate of the point to set
 177:..\..\..\arduinoLCD\test\Pain Drain\libraries\lvgl\src\draw/lv_img_buf.c ****  * @param y x coordinate of the point to set
 178:..\..\..\arduinoLCD\test\Pain Drain\libraries\lvgl\src\draw/lv_img_buf.c ****  * @param opa the desired opacity
 179:..\..\..\arduinoLCD\test\Pain Drain\libraries\lvgl\src\draw/lv_img_buf.c ****  * @param safe true: check out of bounds
 180:..\..\..\arduinoLCD\test\Pain Drain\libraries\lvgl\src\draw/lv_img_buf.c ****  */
 181:..\..\..\arduinoLCD\test\Pain Drain\libraries\lvgl\src\draw/lv_img_buf.c **** void lv_img_buf_set_px_alpha(lv_img_dsc_t * dsc, lv_coord_t x, lv_coord_t y, lv_opa_t opa)
 182:..\..\..\arduinoLCD\test\Pain Drain\libraries\lvgl\src\draw/lv_img_buf.c **** {
 557              		.loc 1 182 0
 558              		.cfi_startproc
 559              		@ args = 0, pretend = 0, frame = 0
 560              		@ frame_needed = 0, uses_anonymous_args = 0
 561              	.LVL104:
 562 0000 F0B5     		push	{r4, r5, r6, r7, lr}
 563              		.cfi_def_cfa_offset 20
 564              		.cfi_offset 4, -20
 565              		.cfi_offset 5, -16
 566              		.cfi_offset 6, -12
 567              		.cfi_offset 7, -8
 568              		.cfi_offset 14, -4
 569 0002 4746     		mov	r7, r8
 570 0004 80B4     		push	{r7}
 571              		.cfi_def_cfa_offset 24
 572              		.cfi_offset 8, -24
 573 0006 0600     		movs	r6, r0
 574 0008 8846     		mov	r8, r1
 575 000a 1500     		movs	r5, r2
 576 000c 1C00     		movs	r4, r3
 183:..\..\..\arduinoLCD\test\Pain Drain\libraries\lvgl\src\draw/lv_img_buf.c ****     uint8_t * buf_u8 = (uint8_t *)dsc->data;
 577              		.loc 1 183 0
 578 000e 8768     		ldr	r7, [r0, #8]
 579              	.LVL105:
 184:..\..\..\arduinoLCD\test\Pain Drain\libraries\lvgl\src\draw/lv_img_buf.c **** 
ARM GAS  C:\Users\haske\AppData\Local\Temp\ccwuLgOR.s 			page 18


 185:..\..\..\arduinoLCD\test\Pain Drain\libraries\lvgl\src\draw/lv_img_buf.c ****     if(dsc->header.cf == LV_IMG_CF_TRUE_COLOR_ALPHA) {
 580              		.loc 1 185 0
 581 0010 0378     		ldrb	r3, [r0]
 582              	.LVL106:
 583 0012 1F22     		movs	r2, #31
 584              	.LVL107:
 585 0014 1340     		ands	r3, r2
 586 0016 052B     		cmp	r3, #5
 587 0018 10D1     		bne	.L22
 588              	.LBB44:
 186:..\..\..\arduinoLCD\test\Pain Drain\libraries\lvgl\src\draw/lv_img_buf.c ****         uint8_t px_size          = lv_img_cf_get_px_size(dsc->header.cf) >> 3;
 589              		.loc 1 186 0
 590 001a 0078     		ldrb	r0, [r0]
 591              	.LVL108:
 592 001c C006     		lsls	r0, r0, #27
 593 001e C00E     		lsrs	r0, r0, #27
 594 0020 FFF7FEFF 		bl	lv_img_cf_get_px_size
 595              	.LVL109:
 596 0024 C008     		lsrs	r0, r0, #3
 597 0026 C0B2     		uxtb	r0, r0
 598              	.LVL110:
 187:..\..\..\arduinoLCD\test\Pain Drain\libraries\lvgl\src\draw/lv_img_buf.c ****         uint32_t px              = dsc->header.w * y * px_size + x * px_size;
 599              		.loc 1 187 0
 600 0028 3368     		ldr	r3, [r6]
 601 002a DB02     		lsls	r3, r3, #11
 602 002c 5B0D     		lsrs	r3, r3, #21
 603 002e 5D43     		muls	r5, r3
 604 0030 4544     		add	r5, r5, r8
 605 0032 4543     		muls	r5, r0
 606              	.LVL111:
 188:..\..\..\arduinoLCD\test\Pain Drain\libraries\lvgl\src\draw/lv_img_buf.c ****         buf_u8[px + px_size - 1] = opa;
 607              		.loc 1 188 0
 608 0034 2D18     		adds	r5, r5, r0
 609              	.LVL112:
 610 0036 013D     		subs	r5, r5, #1
 611 0038 7C55     		strb	r4, [r7, r5]
 612              	.LBE44:
 613 003a 54E0     		b	.L21
 614              	.LVL113:
 615              	.L22:
 189:..\..\..\arduinoLCD\test\Pain Drain\libraries\lvgl\src\draw/lv_img_buf.c ****     }
 190:..\..\..\arduinoLCD\test\Pain Drain\libraries\lvgl\src\draw/lv_img_buf.c ****     else if(dsc->header.cf == LV_IMG_CF_ALPHA_1BIT) {
 616              		.loc 1 190 0
 617 003c 0B2B     		cmp	r3, #11
 618 003e 16D1     		bne	.L24
 619              	.LBB45:
 191:..\..\..\arduinoLCD\test\Pain Drain\libraries\lvgl\src\draw/lv_img_buf.c ****         opa         = opa >> 7; /*opa -> [0,1]*/
 620              		.loc 1 191 0
 621 0040 E409     		lsrs	r4, r4, #7
 622              	.LVL114:
 192:..\..\..\arduinoLCD\test\Pain Drain\libraries\lvgl\src\draw/lv_img_buf.c ****         uint8_t bit = x & 0x7;
 623              		.loc 1 192 0
 624 0042 0722     		movs	r2, #7
 625 0044 0A40     		ands	r2, r1
 626              	.LVL115:
 193:..\..\..\arduinoLCD\test\Pain Drain\libraries\lvgl\src\draw/lv_img_buf.c ****         x           = x >> 3;
 627              		.loc 1 193 0
ARM GAS  C:\Users\haske\AppData\Local\Temp\ccwuLgOR.s 			page 19


 628 0046 C910     		asrs	r1, r1, #3
 629              	.LVL116:
 194:..\..\..\arduinoLCD\test\Pain Drain\libraries\lvgl\src\draw/lv_img_buf.c **** 
 195:..\..\..\arduinoLCD\test\Pain Drain\libraries\lvgl\src\draw/lv_img_buf.c ****         /*Get the current pixel.
 196:..\..\..\arduinoLCD\test\Pain Drain\libraries\lvgl\src\draw/lv_img_buf.c ****          *dsc->header.w + 7 means rounding up to 8 because the lines are byte aligned
 197:..\..\..\arduinoLCD\test\Pain Drain\libraries\lvgl\src\draw/lv_img_buf.c ****          *so the possible real width are 8 ,16, 24 ...*/
 198:..\..\..\arduinoLCD\test\Pain Drain\libraries\lvgl\src\draw/lv_img_buf.c ****         uint32_t px = ((dsc->header.w + 7) >> 3) * y + x;
 630              		.loc 1 198 0
 631 0048 0368     		ldr	r3, [r0]
 632 004a DB02     		lsls	r3, r3, #11
 633 004c 5B0D     		lsrs	r3, r3, #21
 634 004e 0733     		adds	r3, r3, #7
 635 0050 DB10     		asrs	r3, r3, #3
 636 0052 6B43     		muls	r3, r5
 637 0054 CD18     		adds	r5, r1, r3
 638              	.LVL117:
 199:..\..\..\arduinoLCD\test\Pain Drain\libraries\lvgl\src\draw/lv_img_buf.c ****         buf_u8[px]  = buf_u8[px] & ~(1 << (7 - bit));
 639              		.loc 1 199 0
 640 0056 7D19     		adds	r5, r7, r5
 641              	.LVL118:
 642 0058 2B78     		ldrb	r3, [r5]
 643              	.LVL119:
 644 005a 0721     		movs	r1, #7
 645              	.LVL120:
 646 005c 8A1A     		subs	r2, r1, r2
 647              	.LVL121:
 648 005e 0639     		subs	r1, r1, #6
 649              	.LVL122:
 650 0060 9140     		lsls	r1, r1, r2
 651 0062 8B43     		bics	r3, r1
 652 0064 5BB2     		sxtb	r3, r3
 200:..\..\..\arduinoLCD\test\Pain Drain\libraries\lvgl\src\draw/lv_img_buf.c ****         buf_u8[px]  = buf_u8[px] | ((opa & 0x1) << (7 - bit));
 653              		.loc 1 200 0
 654 0066 9440     		lsls	r4, r4, r2
 655              	.LVL123:
 656 0068 1C43     		orrs	r4, r3
 657 006a 2C70     		strb	r4, [r5]
 658              	.LBE45:
 659 006c 3BE0     		b	.L21
 660              	.LVL124:
 661              	.L24:
 201:..\..\..\arduinoLCD\test\Pain Drain\libraries\lvgl\src\draw/lv_img_buf.c ****     }
 202:..\..\..\arduinoLCD\test\Pain Drain\libraries\lvgl\src\draw/lv_img_buf.c ****     else if(dsc->header.cf == LV_IMG_CF_ALPHA_2BIT) {
 662              		.loc 1 202 0
 663 006e 0C2B     		cmp	r3, #12
 664 0070 17D1     		bne	.L25
 665              	.LBB46:
 203:..\..\..\arduinoLCD\test\Pain Drain\libraries\lvgl\src\draw/lv_img_buf.c ****         opa         = opa >> 6; /*opa -> [0,3]*/
 666              		.loc 1 203 0
 667 0072 A409     		lsrs	r4, r4, #6
 668              	.LVL125:
 204:..\..\..\arduinoLCD\test\Pain Drain\libraries\lvgl\src\draw/lv_img_buf.c ****         uint8_t bit = (x & 0x3) * 2;
 669              		.loc 1 204 0
 670 0074 0322     		movs	r2, #3
 671 0076 0A40     		ands	r2, r1
 672 0078 5200     		lsls	r2, r2, #1
 673              	.LVL126:
ARM GAS  C:\Users\haske\AppData\Local\Temp\ccwuLgOR.s 			page 20


 205:..\..\..\arduinoLCD\test\Pain Drain\libraries\lvgl\src\draw/lv_img_buf.c ****         x           = x >> 2;
 674              		.loc 1 205 0
 675 007a 8910     		asrs	r1, r1, #2
 676              	.LVL127:
 206:..\..\..\arduinoLCD\test\Pain Drain\libraries\lvgl\src\draw/lv_img_buf.c **** 
 207:..\..\..\arduinoLCD\test\Pain Drain\libraries\lvgl\src\draw/lv_img_buf.c ****         /*Get the current pixel.
 208:..\..\..\arduinoLCD\test\Pain Drain\libraries\lvgl\src\draw/lv_img_buf.c ****          *dsc->header.w + 4 means rounding up to 8 because the lines are byte aligned
 209:..\..\..\arduinoLCD\test\Pain Drain\libraries\lvgl\src\draw/lv_img_buf.c ****          *so the possible real width are 4 ,8, 12 ...*/
 210:..\..\..\arduinoLCD\test\Pain Drain\libraries\lvgl\src\draw/lv_img_buf.c ****         uint32_t px = ((dsc->header.w + 3) >> 2) * y + x;
 677              		.loc 1 210 0
 678 007c 0368     		ldr	r3, [r0]
 679 007e DB02     		lsls	r3, r3, #11
 680 0080 5B0D     		lsrs	r3, r3, #21
 681 0082 0333     		adds	r3, r3, #3
 682 0084 9B10     		asrs	r3, r3, #2
 683 0086 5D43     		muls	r5, r3
 684 0088 4D19     		adds	r5, r1, r5
 685              	.LVL128:
 211:..\..\..\arduinoLCD\test\Pain Drain\libraries\lvgl\src\draw/lv_img_buf.c ****         buf_u8[px]  = buf_u8[px] & ~(3 << (6 - bit));
 686              		.loc 1 211 0
 687 008a 7D19     		adds	r5, r7, r5
 688              	.LVL129:
 689 008c 2B78     		ldrb	r3, [r5]
 690 008e 0621     		movs	r1, #6
 691              	.LVL130:
 692 0090 8A1A     		subs	r2, r1, r2
 693              	.LVL131:
 694 0092 0339     		subs	r1, r1, #3
 695 0094 9140     		lsls	r1, r1, r2
 696 0096 8B43     		bics	r3, r1
 697 0098 5BB2     		sxtb	r3, r3
 212:..\..\..\arduinoLCD\test\Pain Drain\libraries\lvgl\src\draw/lv_img_buf.c ****         buf_u8[px]  = buf_u8[px] | ((opa & 0x3) << (6 - bit));
 698              		.loc 1 212 0
 699 009a 9440     		lsls	r4, r4, r2
 700              	.LVL132:
 701 009c 1C43     		orrs	r4, r3
 702 009e 2C70     		strb	r4, [r5]
 703              	.LBE46:
 704 00a0 21E0     		b	.L21
 705              	.LVL133:
 706              	.L25:
 213:..\..\..\arduinoLCD\test\Pain Drain\libraries\lvgl\src\draw/lv_img_buf.c ****     }
 214:..\..\..\arduinoLCD\test\Pain Drain\libraries\lvgl\src\draw/lv_img_buf.c ****     else if(dsc->header.cf == LV_IMG_CF_ALPHA_4BIT) {
 707              		.loc 1 214 0
 708 00a2 0D2B     		cmp	r3, #13
 709 00a4 17D1     		bne	.L26
 710              	.LBB47:
 215:..\..\..\arduinoLCD\test\Pain Drain\libraries\lvgl\src\draw/lv_img_buf.c ****         opa         = opa >> 4; /*opa -> [0,15]*/
 711              		.loc 1 215 0
 712 00a6 2409     		lsrs	r4, r4, #4
 713              	.LVL134:
 216:..\..\..\arduinoLCD\test\Pain Drain\libraries\lvgl\src\draw/lv_img_buf.c ****         uint8_t bit = (x & 0x1) * 4;
 714              		.loc 1 216 0
 715 00a8 0122     		movs	r2, #1
 716 00aa 0A40     		ands	r2, r1
 717 00ac 9200     		lsls	r2, r2, #2
 718              	.LVL135:
ARM GAS  C:\Users\haske\AppData\Local\Temp\ccwuLgOR.s 			page 21


 217:..\..\..\arduinoLCD\test\Pain Drain\libraries\lvgl\src\draw/lv_img_buf.c ****         x           = x >> 1;
 719              		.loc 1 217 0
 720 00ae 4910     		asrs	r1, r1, #1
 721              	.LVL136:
 218:..\..\..\arduinoLCD\test\Pain Drain\libraries\lvgl\src\draw/lv_img_buf.c **** 
 219:..\..\..\arduinoLCD\test\Pain Drain\libraries\lvgl\src\draw/lv_img_buf.c ****         /*Get the current pixel.
 220:..\..\..\arduinoLCD\test\Pain Drain\libraries\lvgl\src\draw/lv_img_buf.c ****          *dsc->header.w + 1 means rounding up to 8 because the lines are byte aligned
 221:..\..\..\arduinoLCD\test\Pain Drain\libraries\lvgl\src\draw/lv_img_buf.c ****          *so the possible real width are 2 ,4, 6 ...*/
 222:..\..\..\arduinoLCD\test\Pain Drain\libraries\lvgl\src\draw/lv_img_buf.c ****         uint32_t px = ((dsc->header.w + 1) >> 1) * y + x;
 722              		.loc 1 222 0
 723 00b0 0368     		ldr	r3, [r0]
 724 00b2 DB02     		lsls	r3, r3, #11
 725 00b4 5B0D     		lsrs	r3, r3, #21
 726 00b6 0133     		adds	r3, r3, #1
 727 00b8 5B10     		asrs	r3, r3, #1
 728 00ba 5D43     		muls	r5, r3
 729 00bc 4D19     		adds	r5, r1, r5
 730              	.LVL137:
 223:..\..\..\arduinoLCD\test\Pain Drain\libraries\lvgl\src\draw/lv_img_buf.c ****         buf_u8[px]  = buf_u8[px] & ~(0xF << (4 - bit));
 731              		.loc 1 223 0
 732 00be 7D19     		adds	r5, r7, r5
 733              	.LVL138:
 734 00c0 2B78     		ldrb	r3, [r5]
 735 00c2 0421     		movs	r1, #4
 736              	.LVL139:
 737 00c4 8A1A     		subs	r2, r1, r2
 738              	.LVL140:
 739 00c6 0B31     		adds	r1, r1, #11
 740 00c8 9140     		lsls	r1, r1, r2
 741 00ca 8B43     		bics	r3, r1
 742 00cc 5BB2     		sxtb	r3, r3
 224:..\..\..\arduinoLCD\test\Pain Drain\libraries\lvgl\src\draw/lv_img_buf.c ****         buf_u8[px]  = buf_u8[px] | ((opa & 0xF) << (4 - bit));
 743              		.loc 1 224 0
 744 00ce 9440     		lsls	r4, r4, r2
 745              	.LVL141:
 746 00d0 1C43     		orrs	r4, r3
 747 00d2 2C70     		strb	r4, [r5]
 748              	.LBE47:
 749 00d4 07E0     		b	.L21
 750              	.LVL142:
 751              	.L26:
 225:..\..\..\arduinoLCD\test\Pain Drain\libraries\lvgl\src\draw/lv_img_buf.c ****     }
 226:..\..\..\arduinoLCD\test\Pain Drain\libraries\lvgl\src\draw/lv_img_buf.c ****     else if(dsc->header.cf == LV_IMG_CF_ALPHA_8BIT) {
 752              		.loc 1 226 0
 753 00d6 0E2B     		cmp	r3, #14
 754 00d8 05D1     		bne	.L21
 755              	.LBB48:
 227:..\..\..\arduinoLCD\test\Pain Drain\libraries\lvgl\src\draw/lv_img_buf.c ****         uint32_t px = dsc->header.w * y + x;
 756              		.loc 1 227 0
 757 00da 0368     		ldr	r3, [r0]
 758 00dc DB02     		lsls	r3, r3, #11
 759 00de 5B0D     		lsrs	r3, r3, #21
 760 00e0 5D43     		muls	r5, r3
 761 00e2 4544     		add	r5, r5, r8
 762              	.LVL143:
 228:..\..\..\arduinoLCD\test\Pain Drain\libraries\lvgl\src\draw/lv_img_buf.c ****         buf_u8[px]  = opa;
 763              		.loc 1 228 0
ARM GAS  C:\Users\haske\AppData\Local\Temp\ccwuLgOR.s 			page 22


 764 00e4 7C55     		strb	r4, [r7, r5]
 765              	.LVL144:
 766              	.L21:
 767              	.LBE48:
 229:..\..\..\arduinoLCD\test\Pain Drain\libraries\lvgl\src\draw/lv_img_buf.c ****     }
 230:..\..\..\arduinoLCD\test\Pain Drain\libraries\lvgl\src\draw/lv_img_buf.c **** }
 768              		.loc 1 230 0
 769              		@ sp needed
 770              	.LVL145:
 771              	.LVL146:
 772 00e6 04BC     		pop	{r2}
 773 00e8 9046     		mov	r8, r2
 774 00ea F0BD     		pop	{r4, r5, r6, r7, pc}
 775              		.cfi_endproc
 776              	.LFE56:
 777              		.size	lv_img_buf_set_px_alpha, .-lv_img_buf_set_px_alpha
 778              		.section	.text.lv_img_buf_set_px_color,"ax",%progbits
 779              		.align	2
 780              		.global	lv_img_buf_set_px_color
 781              		.code	16
 782              		.thumb_func
 783              		.type	lv_img_buf_set_px_color, %function
 784              	lv_img_buf_set_px_color:
 785              	.LFB57:
 231:..\..\..\arduinoLCD\test\Pain Drain\libraries\lvgl\src\draw/lv_img_buf.c **** 
 232:..\..\..\arduinoLCD\test\Pain Drain\libraries\lvgl\src\draw/lv_img_buf.c **** /**
 233:..\..\..\arduinoLCD\test\Pain Drain\libraries\lvgl\src\draw/lv_img_buf.c ****  * Set the color of a pixel of an image. The alpha channel won't be affected.
 234:..\..\..\arduinoLCD\test\Pain Drain\libraries\lvgl\src\draw/lv_img_buf.c ****  * @param dsc pointer to an image descriptor
 235:..\..\..\arduinoLCD\test\Pain Drain\libraries\lvgl\src\draw/lv_img_buf.c ****  * @param x x coordinate of the point to set
 236:..\..\..\arduinoLCD\test\Pain Drain\libraries\lvgl\src\draw/lv_img_buf.c ****  * @param y x coordinate of the point to set
 237:..\..\..\arduinoLCD\test\Pain Drain\libraries\lvgl\src\draw/lv_img_buf.c ****  * @param c color of the point
 238:..\..\..\arduinoLCD\test\Pain Drain\libraries\lvgl\src\draw/lv_img_buf.c ****  * @param safe true: check out of bounds
 239:..\..\..\arduinoLCD\test\Pain Drain\libraries\lvgl\src\draw/lv_img_buf.c ****  */
 240:..\..\..\arduinoLCD\test\Pain Drain\libraries\lvgl\src\draw/lv_img_buf.c **** void lv_img_buf_set_px_color(lv_img_dsc_t * dsc, lv_coord_t x, lv_coord_t y, lv_color_t c)
 241:..\..\..\arduinoLCD\test\Pain Drain\libraries\lvgl\src\draw/lv_img_buf.c **** {
 786              		.loc 1 241 0
 787              		.cfi_startproc
 788              		@ args = 0, pretend = 0, frame = 8
 789              		@ frame_needed = 0, uses_anonymous_args = 0
 790              	.LVL147:
 791 0000 F0B5     		push	{r4, r5, r6, r7, lr}
 792              		.cfi_def_cfa_offset 20
 793              		.cfi_offset 4, -20
 794              		.cfi_offset 5, -16
 795              		.cfi_offset 6, -12
 796              		.cfi_offset 7, -8
 797              		.cfi_offset 14, -4
 798 0002 83B0     		sub	sp, sp, #12
 799              		.cfi_def_cfa_offset 32
 800 0004 0700     		movs	r7, r0
 801 0006 0D00     		movs	r5, r1
 802 0008 1600     		movs	r6, r2
 803 000a 01AA     		add	r2, sp, #4
 804              	.LVL148:
 805 000c 1380     		strh	r3, [r2]
 242:..\..\..\arduinoLCD\test\Pain Drain\libraries\lvgl\src\draw/lv_img_buf.c ****     uint8_t * buf_u8 = (uint8_t *)dsc->data;
 806              		.loc 1 242 0
ARM GAS  C:\Users\haske\AppData\Local\Temp\ccwuLgOR.s 			page 23


 807 000e 8468     		ldr	r4, [r0, #8]
 808              	.LVL149:
 243:..\..\..\arduinoLCD\test\Pain Drain\libraries\lvgl\src\draw/lv_img_buf.c **** 
 244:..\..\..\arduinoLCD\test\Pain Drain\libraries\lvgl\src\draw/lv_img_buf.c ****     if(dsc->header.cf == LV_IMG_CF_TRUE_COLOR || dsc->header.cf == LV_IMG_CF_TRUE_COLOR_CHROMA_KEYE
 809              		.loc 1 244 0
 810 0010 0378     		ldrb	r3, [r0]
 811 0012 1F22     		movs	r2, #31
 812 0014 1340     		ands	r3, r2
 813 0016 042B     		cmp	r3, #4
 814 0018 01D0     		beq	.L28
 815              		.loc 1 244 0 is_stmt 0 discriminator 1
 816 001a 062B     		cmp	r3, #6
 817 001c 17D1     		bne	.L29
 818              	.L28:
 819              	.LBB49:
 245:..\..\..\arduinoLCD\test\Pain Drain\libraries\lvgl\src\draw/lv_img_buf.c ****         uint8_t px_size = lv_img_cf_get_px_size(dsc->header.cf) >> 3;
 820              		.loc 1 245 0 is_stmt 1
 821 001e 3878     		ldrb	r0, [r7]
 822              	.LVL150:
 823 0020 C006     		lsls	r0, r0, #27
 824 0022 C00E     		lsrs	r0, r0, #27
 825 0024 FFF7FEFF 		bl	lv_img_cf_get_px_size
 826              	.LVL151:
 827 0028 C008     		lsrs	r0, r0, #3
 828 002a C0B2     		uxtb	r0, r0
 829              	.LVL152:
 246:..\..\..\arduinoLCD\test\Pain Drain\libraries\lvgl\src\draw/lv_img_buf.c ****         uint32_t px     = dsc->header.w * y * px_size + x * px_size;
 830              		.loc 1 246 0
 831 002c 3968     		ldr	r1, [r7]
 832 002e C902     		lsls	r1, r1, #11
 833 0030 490D     		lsrs	r1, r1, #21
 834 0032 7143     		muls	r1, r6
 835 0034 6918     		adds	r1, r5, r1
 836 0036 4143     		muls	r1, r0
 837              	.LVL153:
 247:..\..\..\arduinoLCD\test\Pain Drain\libraries\lvgl\src\draw/lv_img_buf.c ****         lv_memcpy_small(&buf_u8[px], &c, px_size);
 838              		.loc 1 247 0
 839 0038 6118     		adds	r1, r4, r1
 840              	.LVL154:
 841              	.LBB50:
 842              	.LBB51:
 197:..\..\..\arduinoLCD\test\Pain Drain\libraries\lvgl\src\draw\../misc/lv_mem.h **** 
 843              		.loc 2 197 0
 844 003a 01AB     		add	r3, sp, #4
 845              	.LVL155:
 846 003c 04E0     		b	.L30
 847              	.LVL156:
 848              	.L31:
 200:..\..\..\arduinoLCD\test\Pain Drain\libraries\lvgl\src\draw\../misc/lv_mem.h ****         d8++;
 849              		.loc 2 200 0
 850 003e 1A78     		ldrb	r2, [r3]
 851 0040 0A70     		strb	r2, [r1]
 201:..\..\..\arduinoLCD\test\Pain Drain\libraries\lvgl\src\draw\../misc/lv_mem.h ****         s8++;
 852              		.loc 2 201 0
 853 0042 0131     		adds	r1, r1, #1
 854              	.LVL157:
 202:..\..\..\arduinoLCD\test\Pain Drain\libraries\lvgl\src\draw\../misc/lv_mem.h ****         len--;
ARM GAS  C:\Users\haske\AppData\Local\Temp\ccwuLgOR.s 			page 24


 855              		.loc 2 202 0
 856 0044 0133     		adds	r3, r3, #1
 857              	.LVL158:
 858              		.loc 2 203 0
 859 0046 0138     		subs	r0, r0, #1
 860              	.LVL159:
 861              	.L30:
 199:..\..\..\arduinoLCD\test\Pain Drain\libraries\lvgl\src\draw\../misc/lv_mem.h ****         *d8 = *s8;
 862              		.loc 2 199 0
 863 0048 0028     		cmp	r0, #0
 864 004a F8D1     		bne	.L31
 865 004c 85E0     		b	.L27
 866              	.LVL160:
 867              	.L29:
 868              	.LBE51:
 869              	.LBE50:
 870              	.LBE49:
 248:..\..\..\arduinoLCD\test\Pain Drain\libraries\lvgl\src\draw/lv_img_buf.c ****     }
 249:..\..\..\arduinoLCD\test\Pain Drain\libraries\lvgl\src\draw/lv_img_buf.c ****     else if(dsc->header.cf == LV_IMG_CF_TRUE_COLOR_ALPHA) {
 871              		.loc 1 249 0
 872 004e 052B     		cmp	r3, #5
 873 0050 18D1     		bne	.L33
 874              	.LBB52:
 250:..\..\..\arduinoLCD\test\Pain Drain\libraries\lvgl\src\draw/lv_img_buf.c ****         uint8_t px_size = lv_img_cf_get_px_size(dsc->header.cf) >> 3;
 875              		.loc 1 250 0
 876 0052 0078     		ldrb	r0, [r0]
 877              	.LVL161:
 878 0054 C006     		lsls	r0, r0, #27
 879 0056 C00E     		lsrs	r0, r0, #27
 880 0058 FFF7FEFF 		bl	lv_img_cf_get_px_size
 881              	.LVL162:
 882 005c C008     		lsrs	r0, r0, #3
 883 005e C3B2     		uxtb	r3, r0
 884              	.LVL163:
 251:..\..\..\arduinoLCD\test\Pain Drain\libraries\lvgl\src\draw/lv_img_buf.c ****         uint32_t px     = dsc->header.w * y * px_size + x * px_size;
 885              		.loc 1 251 0
 886 0060 3968     		ldr	r1, [r7]
 887 0062 C902     		lsls	r1, r1, #11
 888 0064 490D     		lsrs	r1, r1, #21
 889 0066 7143     		muls	r1, r6
 890 0068 6918     		adds	r1, r5, r1
 891 006a 5943     		muls	r1, r3
 892              	.LVL164:
 252:..\..\..\arduinoLCD\test\Pain Drain\libraries\lvgl\src\draw/lv_img_buf.c ****         lv_memcpy_small(&buf_u8[px], &c, px_size - 1); /*-1 to not overwrite the alpha value*/
 893              		.loc 1 252 0
 894 006c 6118     		adds	r1, r4, r1
 895              	.LVL165:
 896 006e 013B     		subs	r3, r3, #1
 897              	.LVL166:
 898              	.LBB53:
 899              	.LBB54:
 197:..\..\..\arduinoLCD\test\Pain Drain\libraries\lvgl\src\draw\../misc/lv_mem.h **** 
 900              		.loc 2 197 0
 901 0070 01AA     		add	r2, sp, #4
 902              	.LVL167:
 903 0072 04E0     		b	.L34
 904              	.LVL168:
ARM GAS  C:\Users\haske\AppData\Local\Temp\ccwuLgOR.s 			page 25


 905              	.L35:
 200:..\..\..\arduinoLCD\test\Pain Drain\libraries\lvgl\src\draw\../misc/lv_mem.h ****         d8++;
 906              		.loc 2 200 0
 907 0074 1078     		ldrb	r0, [r2]
 908 0076 0870     		strb	r0, [r1]
 201:..\..\..\arduinoLCD\test\Pain Drain\libraries\lvgl\src\draw\../misc/lv_mem.h ****         s8++;
 909              		.loc 2 201 0
 910 0078 0131     		adds	r1, r1, #1
 911              	.LVL169:
 202:..\..\..\arduinoLCD\test\Pain Drain\libraries\lvgl\src\draw\../misc/lv_mem.h ****         len--;
 912              		.loc 2 202 0
 913 007a 0132     		adds	r2, r2, #1
 914              	.LVL170:
 915              		.loc 2 203 0
 916 007c 013B     		subs	r3, r3, #1
 917              	.LVL171:
 918              	.L34:
 199:..\..\..\arduinoLCD\test\Pain Drain\libraries\lvgl\src\draw\../misc/lv_mem.h ****         *d8 = *s8;
 919              		.loc 2 199 0
 920 007e 002B     		cmp	r3, #0
 921 0080 F8D1     		bne	.L35
 922 0082 6AE0     		b	.L27
 923              	.LVL172:
 924              	.L33:
 925              	.LBE54:
 926              	.LBE53:
 927              	.LBE52:
 253:..\..\..\arduinoLCD\test\Pain Drain\libraries\lvgl\src\draw/lv_img_buf.c ****     }
 254:..\..\..\arduinoLCD\test\Pain Drain\libraries\lvgl\src\draw/lv_img_buf.c ****     else if(dsc->header.cf == LV_IMG_CF_INDEXED_1BIT) {
 928              		.loc 1 254 0
 929 0084 072B     		cmp	r3, #7
 930 0086 1CD1     		bne	.L36
 931              	.LBB55:
 255:..\..\..\arduinoLCD\test\Pain Drain\libraries\lvgl\src\draw/lv_img_buf.c ****         buf_u8 += sizeof(lv_color32_t) * 2; /*Skip the palette*/
 932              		.loc 1 255 0
 933 0088 2000     		movs	r0, r4
 934              	.LVL173:
 935 008a 0830     		adds	r0, r0, #8
 936              	.LVL174:
 256:..\..\..\arduinoLCD\test\Pain Drain\libraries\lvgl\src\draw/lv_img_buf.c **** 
 257:..\..\..\arduinoLCD\test\Pain Drain\libraries\lvgl\src\draw/lv_img_buf.c ****         uint8_t bit = x & 0x7;
 937              		.loc 1 257 0
 938 008c 0724     		movs	r4, #7
 939 008e 2200     		movs	r2, r4
 940 0090 0A40     		ands	r2, r1
 941              	.LVL175:
 258:..\..\..\arduinoLCD\test\Pain Drain\libraries\lvgl\src\draw/lv_img_buf.c ****         x           = x >> 3;
 942              		.loc 1 258 0
 943 0092 C910     		asrs	r1, r1, #3
 944              	.LVL176:
 259:..\..\..\arduinoLCD\test\Pain Drain\libraries\lvgl\src\draw/lv_img_buf.c **** 
 260:..\..\..\arduinoLCD\test\Pain Drain\libraries\lvgl\src\draw/lv_img_buf.c ****         /*Get the current pixel.
 261:..\..\..\arduinoLCD\test\Pain Drain\libraries\lvgl\src\draw/lv_img_buf.c ****          *dsc->header.w + 7 means rounding up to 8 because the lines are byte aligned
 262:..\..\..\arduinoLCD\test\Pain Drain\libraries\lvgl\src\draw/lv_img_buf.c ****          *so the possible real width are 8 ,16, 24 ...*/
 263:..\..\..\arduinoLCD\test\Pain Drain\libraries\lvgl\src\draw/lv_img_buf.c ****         uint32_t px = ((dsc->header.w + 7) >> 3) * y + x;
 945              		.loc 1 263 0
 946 0094 3B68     		ldr	r3, [r7]
ARM GAS  C:\Users\haske\AppData\Local\Temp\ccwuLgOR.s 			page 26


 947 0096 DB02     		lsls	r3, r3, #11
 948 0098 5B0D     		lsrs	r3, r3, #21
 949 009a 0733     		adds	r3, r3, #7
 950 009c DB10     		asrs	r3, r3, #3
 951 009e 5E43     		muls	r6, r3
 952 00a0 8919     		adds	r1, r1, r6
 953              	.LVL177:
 264:..\..\..\arduinoLCD\test\Pain Drain\libraries\lvgl\src\draw/lv_img_buf.c ****         buf_u8[px]  = buf_u8[px] & ~(1 << (7 - bit));
 954              		.loc 1 264 0
 955 00a2 4118     		adds	r1, r0, r1
 956              	.LVL178:
 957 00a4 0B78     		ldrb	r3, [r1]
 958 00a6 A41A     		subs	r4, r4, r2
 959 00a8 0122     		movs	r2, #1
 960              	.LVL179:
 961 00aa A240     		lsls	r2, r2, r4
 962 00ac 9343     		bics	r3, r2
 963 00ae 58B2     		sxtb	r0, r3
 964              	.LVL180:
 965 00b0 0870     		strb	r0, [r1]
 966              	.LVL181:
 265:..\..\..\arduinoLCD\test\Pain Drain\libraries\lvgl\src\draw/lv_img_buf.c ****         buf_u8[px]  = buf_u8[px] | ((c.full & 0x1) << (7 - bit));
 967              		.loc 1 265 0
 968 00b2 01AB     		add	r3, sp, #4
 969 00b4 1A88     		ldrh	r2, [r3]
 970 00b6 0123     		movs	r3, #1
 971 00b8 1340     		ands	r3, r2
 972 00ba A340     		lsls	r3, r3, r4
 973 00bc 0343     		orrs	r3, r0
 974 00be 0B70     		strb	r3, [r1]
 975              	.LBE55:
 976 00c0 4BE0     		b	.L27
 977              	.LVL182:
 978              	.L36:
 266:..\..\..\arduinoLCD\test\Pain Drain\libraries\lvgl\src\draw/lv_img_buf.c ****     }
 267:..\..\..\arduinoLCD\test\Pain Drain\libraries\lvgl\src\draw/lv_img_buf.c ****     else if(dsc->header.cf == LV_IMG_CF_INDEXED_2BIT) {
 979              		.loc 1 267 0
 980 00c2 082B     		cmp	r3, #8
 981 00c4 1CD1     		bne	.L37
 982              	.LBB56:
 268:..\..\..\arduinoLCD\test\Pain Drain\libraries\lvgl\src\draw/lv_img_buf.c ****         buf_u8 += sizeof(lv_color32_t) * 4; /*Skip the palette*/
 983              		.loc 1 268 0
 984 00c6 1034     		adds	r4, r4, #16
 985              	.LVL183:
 269:..\..\..\arduinoLCD\test\Pain Drain\libraries\lvgl\src\draw/lv_img_buf.c ****         uint8_t bit = (x & 0x3) * 2;
 986              		.loc 1 269 0
 987 00c8 0322     		movs	r2, #3
 988 00ca 0A40     		ands	r2, r1
 989 00cc 5200     		lsls	r2, r2, #1
 990              	.LVL184:
 270:..\..\..\arduinoLCD\test\Pain Drain\libraries\lvgl\src\draw/lv_img_buf.c ****         x           = x >> 2;
 991              		.loc 1 270 0
 992 00ce 8910     		asrs	r1, r1, #2
 993              	.LVL185:
 271:..\..\..\arduinoLCD\test\Pain Drain\libraries\lvgl\src\draw/lv_img_buf.c **** 
 272:..\..\..\arduinoLCD\test\Pain Drain\libraries\lvgl\src\draw/lv_img_buf.c ****         /*Get the current pixel.
 273:..\..\..\arduinoLCD\test\Pain Drain\libraries\lvgl\src\draw/lv_img_buf.c ****          *dsc->header.w + 3 means rounding up to 4 because the lines are byte aligned
ARM GAS  C:\Users\haske\AppData\Local\Temp\ccwuLgOR.s 			page 27


 274:..\..\..\arduinoLCD\test\Pain Drain\libraries\lvgl\src\draw/lv_img_buf.c ****          *so the possible real width are 4, 8 ,12 ...*/
 275:..\..\..\arduinoLCD\test\Pain Drain\libraries\lvgl\src\draw/lv_img_buf.c ****         uint32_t px = ((dsc->header.w + 3) >> 2) * y + x;
 994              		.loc 1 275 0
 995 00d0 0368     		ldr	r3, [r0]
 996 00d2 DB02     		lsls	r3, r3, #11
 997 00d4 5B0D     		lsrs	r3, r3, #21
 998 00d6 0333     		adds	r3, r3, #3
 999 00d8 9B10     		asrs	r3, r3, #2
 1000 00da 5E43     		muls	r6, r3
 1001 00dc 8919     		adds	r1, r1, r6
 1002              	.LVL186:
 276:..\..\..\arduinoLCD\test\Pain Drain\libraries\lvgl\src\draw/lv_img_buf.c **** 
 277:..\..\..\arduinoLCD\test\Pain Drain\libraries\lvgl\src\draw/lv_img_buf.c ****         buf_u8[px] = buf_u8[px] & ~(3 << (6 - bit));
 1003              		.loc 1 277 0
 1004 00de 6118     		adds	r1, r4, r1
 1005              	.LVL187:
 1006 00e0 0B78     		ldrb	r3, [r1]
 1007 00e2 0624     		movs	r4, #6
 1008              	.LVL188:
 1009 00e4 A41A     		subs	r4, r4, r2
 1010 00e6 0322     		movs	r2, #3
 1011              	.LVL189:
 1012 00e8 A240     		lsls	r2, r2, r4
 1013              	.LVL190:
 1014 00ea 9343     		bics	r3, r2
 1015 00ec 58B2     		sxtb	r0, r3
 1016              	.LVL191:
 1017 00ee 0870     		strb	r0, [r1]
 1018              	.LVL192:
 278:..\..\..\arduinoLCD\test\Pain Drain\libraries\lvgl\src\draw/lv_img_buf.c ****         buf_u8[px] = buf_u8[px] | ((c.full & 0x3) << (6 - bit));
 1019              		.loc 1 278 0
 1020 00f0 01AB     		add	r3, sp, #4
 1021 00f2 1A88     		ldrh	r2, [r3]
 1022 00f4 0323     		movs	r3, #3
 1023              	.LVL193:
 1024 00f6 1340     		ands	r3, r2
 1025              	.LVL194:
 1026 00f8 A340     		lsls	r3, r3, r4
 1027 00fa 0343     		orrs	r3, r0
 1028 00fc 0B70     		strb	r3, [r1]
 1029              	.LBE56:
 1030 00fe 2CE0     		b	.L27
 1031              	.LVL195:
 1032              	.L37:
 279:..\..\..\arduinoLCD\test\Pain Drain\libraries\lvgl\src\draw/lv_img_buf.c ****     }
 280:..\..\..\arduinoLCD\test\Pain Drain\libraries\lvgl\src\draw/lv_img_buf.c ****     else if(dsc->header.cf == LV_IMG_CF_INDEXED_4BIT) {
 1033              		.loc 1 280 0
 1034 0100 092B     		cmp	r3, #9
 1035 0102 1CD1     		bne	.L38
 1036              	.LBB57:
 281:..\..\..\arduinoLCD\test\Pain Drain\libraries\lvgl\src\draw/lv_img_buf.c ****         buf_u8 += sizeof(lv_color32_t) * 16; /*Skip the palette*/
 1037              		.loc 1 281 0
 1038 0104 4034     		adds	r4, r4, #64
 1039              	.LVL196:
 282:..\..\..\arduinoLCD\test\Pain Drain\libraries\lvgl\src\draw/lv_img_buf.c ****         uint8_t bit = (x & 0x1) * 4;
 1040              		.loc 1 282 0
 1041 0106 0122     		movs	r2, #1
ARM GAS  C:\Users\haske\AppData\Local\Temp\ccwuLgOR.s 			page 28


 1042 0108 0A40     		ands	r2, r1
 1043 010a 9200     		lsls	r2, r2, #2
 1044              	.LVL197:
 283:..\..\..\arduinoLCD\test\Pain Drain\libraries\lvgl\src\draw/lv_img_buf.c ****         x           = x >> 1;
 1045              		.loc 1 283 0
 1046 010c 4910     		asrs	r1, r1, #1
 1047              	.LVL198:
 284:..\..\..\arduinoLCD\test\Pain Drain\libraries\lvgl\src\draw/lv_img_buf.c **** 
 285:..\..\..\arduinoLCD\test\Pain Drain\libraries\lvgl\src\draw/lv_img_buf.c ****         /*Get the current pixel.
 286:..\..\..\arduinoLCD\test\Pain Drain\libraries\lvgl\src\draw/lv_img_buf.c ****          *dsc->header.w + 1 means rounding up to 2 because the lines are byte aligned
 287:..\..\..\arduinoLCD\test\Pain Drain\libraries\lvgl\src\draw/lv_img_buf.c ****          *so the possible real width are 2 ,4, 6 ...*/
 288:..\..\..\arduinoLCD\test\Pain Drain\libraries\lvgl\src\draw/lv_img_buf.c ****         uint32_t px = ((dsc->header.w + 1) >> 1) * y + x;
 1048              		.loc 1 288 0
 1049 010e 0368     		ldr	r3, [r0]
 1050 0110 DB02     		lsls	r3, r3, #11
 1051 0112 5B0D     		lsrs	r3, r3, #21
 1052 0114 0133     		adds	r3, r3, #1
 1053 0116 5B10     		asrs	r3, r3, #1
 1054 0118 5E43     		muls	r6, r3
 1055 011a 8919     		adds	r1, r1, r6
 1056              	.LVL199:
 289:..\..\..\arduinoLCD\test\Pain Drain\libraries\lvgl\src\draw/lv_img_buf.c ****         buf_u8[px]  = buf_u8[px] & ~(0xF << (4 - bit));
 1057              		.loc 1 289 0
 1058 011c 6118     		adds	r1, r4, r1
 1059              	.LVL200:
 1060 011e 0B78     		ldrb	r3, [r1]
 1061 0120 0424     		movs	r4, #4
 1062              	.LVL201:
 1063 0122 A41A     		subs	r4, r4, r2
 1064 0124 0F22     		movs	r2, #15
 1065              	.LVL202:
 1066 0126 A240     		lsls	r2, r2, r4
 1067 0128 9343     		bics	r3, r2
 1068 012a 58B2     		sxtb	r0, r3
 1069              	.LVL203:
 1070 012c 0870     		strb	r0, [r1]
 1071              	.LVL204:
 290:..\..\..\arduinoLCD\test\Pain Drain\libraries\lvgl\src\draw/lv_img_buf.c ****         buf_u8[px]  = buf_u8[px] | ((c.full & 0xF) << (4 - bit));
 1072              		.loc 1 290 0
 1073 012e 01AB     		add	r3, sp, #4
 1074 0130 1A88     		ldrh	r2, [r3]
 1075 0132 0F23     		movs	r3, #15
 1076 0134 1340     		ands	r3, r2
 1077 0136 A340     		lsls	r3, r3, r4
 1078 0138 0343     		orrs	r3, r0
 1079 013a 0B70     		strb	r3, [r1]
 1080              	.LBE57:
 1081 013c 0DE0     		b	.L27
 1082              	.LVL205:
 1083              	.L38:
 291:..\..\..\arduinoLCD\test\Pain Drain\libraries\lvgl\src\draw/lv_img_buf.c ****     }
 292:..\..\..\arduinoLCD\test\Pain Drain\libraries\lvgl\src\draw/lv_img_buf.c ****     else if(dsc->header.cf == LV_IMG_CF_INDEXED_8BIT) {
 1084              		.loc 1 292 0
 1085 013e 0A2B     		cmp	r3, #10
 1086 0140 0BD1     		bne	.L27
 1087              	.LVL206:
 1088              	.LBB58:
ARM GAS  C:\Users\haske\AppData\Local\Temp\ccwuLgOR.s 			page 29


 293:..\..\..\arduinoLCD\test\Pain Drain\libraries\lvgl\src\draw/lv_img_buf.c ****         buf_u8 += sizeof(lv_color32_t) * 256; /*Skip the palette*/
 294:..\..\..\arduinoLCD\test\Pain Drain\libraries\lvgl\src\draw/lv_img_buf.c ****         uint32_t px = dsc->header.w * y + x;
 1089              		.loc 1 294 0
 1090 0142 0168     		ldr	r1, [r0]
 1091              	.LVL207:
 1092 0144 C902     		lsls	r1, r1, #11
 1093 0146 490D     		lsrs	r1, r1, #21
 1094 0148 7143     		muls	r1, r6
 1095 014a 6918     		adds	r1, r5, r1
 1096              	.LVL208:
 295:..\..\..\arduinoLCD\test\Pain Drain\libraries\lvgl\src\draw/lv_img_buf.c ****         buf_u8[px]  = c.full;
 1097              		.loc 1 295 0
 1098 014c 8023     		movs	r3, #128
 1099 014e DB00     		lsls	r3, r3, #3
 1100 0150 9C46     		mov	ip, r3
 1101 0152 6144     		add	r1, r1, ip
 1102              	.LVL209:
 1103 0154 01AB     		add	r3, sp, #4
 1104 0156 1B88     		ldrh	r3, [r3]
 1105 0158 6354     		strb	r3, [r4, r1]
 1106              	.LVL210:
 1107              	.L27:
 1108              	.LBE58:
 296:..\..\..\arduinoLCD\test\Pain Drain\libraries\lvgl\src\draw/lv_img_buf.c ****     }
 297:..\..\..\arduinoLCD\test\Pain Drain\libraries\lvgl\src\draw/lv_img_buf.c **** }
 1109              		.loc 1 297 0
 1110 015a 03B0     		add	sp, sp, #12
 1111              		@ sp needed
 1112              	.LVL211:
 1113 015c F0BD     		pop	{r4, r5, r6, r7, pc}
 1114              		.cfi_endproc
 1115              	.LFE57:
 1116              		.size	lv_img_buf_set_px_color, .-lv_img_buf_set_px_color
 1117 015e C046     		.section	.text.lv_img_buf_set_palette,"ax",%progbits
 1118              		.align	2
 1119              		.global	lv_img_buf_set_palette
 1120              		.code	16
 1121              		.thumb_func
 1122              		.type	lv_img_buf_set_palette, %function
 1123              	lv_img_buf_set_palette:
 1124              	.LFB58:
 298:..\..\..\arduinoLCD\test\Pain Drain\libraries\lvgl\src\draw/lv_img_buf.c **** 
 299:..\..\..\arduinoLCD\test\Pain Drain\libraries\lvgl\src\draw/lv_img_buf.c **** /**
 300:..\..\..\arduinoLCD\test\Pain Drain\libraries\lvgl\src\draw/lv_img_buf.c ****  * Set the palette color of an indexed image. Valid only for `LV_IMG_CF_INDEXED1/2/4/8`
 301:..\..\..\arduinoLCD\test\Pain Drain\libraries\lvgl\src\draw/lv_img_buf.c ****  * @param dsc pointer to an image descriptor
 302:..\..\..\arduinoLCD\test\Pain Drain\libraries\lvgl\src\draw/lv_img_buf.c ****  * @param id the palette color to set:
 303:..\..\..\arduinoLCD\test\Pain Drain\libraries\lvgl\src\draw/lv_img_buf.c ****  *   - for `LV_IMG_CF_INDEXED1`: 0..1
 304:..\..\..\arduinoLCD\test\Pain Drain\libraries\lvgl\src\draw/lv_img_buf.c ****  *   - for `LV_IMG_CF_INDEXED2`: 0..3
 305:..\..\..\arduinoLCD\test\Pain Drain\libraries\lvgl\src\draw/lv_img_buf.c ****  *   - for `LV_IMG_CF_INDEXED4`: 0..15
 306:..\..\..\arduinoLCD\test\Pain Drain\libraries\lvgl\src\draw/lv_img_buf.c ****  *   - for `LV_IMG_CF_INDEXED8`: 0..255
 307:..\..\..\arduinoLCD\test\Pain Drain\libraries\lvgl\src\draw/lv_img_buf.c ****  * @param c the color to set
 308:..\..\..\arduinoLCD\test\Pain Drain\libraries\lvgl\src\draw/lv_img_buf.c ****  */
 309:..\..\..\arduinoLCD\test\Pain Drain\libraries\lvgl\src\draw/lv_img_buf.c **** void lv_img_buf_set_palette(lv_img_dsc_t * dsc, uint8_t id, lv_color_t c)
 310:..\..\..\arduinoLCD\test\Pain Drain\libraries\lvgl\src\draw/lv_img_buf.c **** {
 1125              		.loc 1 310 0
 1126              		.cfi_startproc
 1127              		@ args = 0, pretend = 0, frame = 8
ARM GAS  C:\Users\haske\AppData\Local\Temp\ccwuLgOR.s 			page 30


 1128              		@ frame_needed = 0, uses_anonymous_args = 0
 1129              	.LVL212:
 1130 0000 70B5     		push	{r4, r5, r6, lr}
 1131              		.cfi_def_cfa_offset 16
 1132              		.cfi_offset 4, -16
 1133              		.cfi_offset 5, -12
 1134              		.cfi_offset 6, -8
 1135              		.cfi_offset 14, -4
 1136 0002 82B0     		sub	sp, sp, #8
 1137              		.cfi_def_cfa_offset 24
 311:..\..\..\arduinoLCD\test\Pain Drain\libraries\lvgl\src\draw/lv_img_buf.c ****     if((dsc->header.cf == LV_IMG_CF_ALPHA_1BIT && id > 1) || (dsc->header.cf == LV_IMG_CF_ALPHA_2BI
 1138              		.loc 1 311 0
 1139 0004 0378     		ldrb	r3, [r0]
 1140 0006 1F24     		movs	r4, #31
 1141 0008 2340     		ands	r3, r4
 1142 000a 0B2B     		cmp	r3, #11
 1143 000c 01D1     		bne	.L40
 1144              		.loc 1 311 0 is_stmt 0 discriminator 1
 1145 000e 0129     		cmp	r1, #1
 1146 0010 39D8     		bhi	.L39
 1147              	.L40:
 1148              		.loc 1 311 0 discriminator 3
 1149 0012 0C2B     		cmp	r3, #12
 1150 0014 01D1     		bne	.L42
 1151              		.loc 1 311 0 discriminator 4
 1152 0016 0329     		cmp	r1, #3
 1153 0018 35D8     		bhi	.L39
 1154              	.L42:
 1155              		.loc 1 311 0 discriminator 6
 1156 001a 0D2B     		cmp	r3, #13
 1157 001c 01D1     		bne	.L43
 312:..\..\..\arduinoLCD\test\Pain Drain\libraries\lvgl\src\draw/lv_img_buf.c ****        (dsc->header.cf == LV_IMG_CF_ALPHA_4BIT && id > 15) || (dsc->header.cf == LV_IMG_CF_ALPHA_8B
 1158              		.loc 1 312 0 is_stmt 1
 1159 001e 0F29     		cmp	r1, #15
 1160 0020 31D8     		bhi	.L39
 1161              	.L43:
 1162              		.loc 1 312 0 is_stmt 0 discriminator 1
 1163 0022 0E2B     		cmp	r3, #14
 1164 0024 2FD0     		beq	.L39
 1165              	.LBB59:
 1166              	.LBB60:
 1167              		.file 3 "..\\..\\..\\arduinoLCD\\test\\Pain Drain\\libraries\\lvgl\\src\\draw\\../misc/lv_color.h"
   1:..\..\..\arduinoLCD\test\Pain Drain\libraries\lvgl\src\draw\../misc/lv_color.h **** /**
   2:..\..\..\arduinoLCD\test\Pain Drain\libraries\lvgl\src\draw\../misc/lv_color.h ****  * @file lv_color.h
   3:..\..\..\arduinoLCD\test\Pain Drain\libraries\lvgl\src\draw\../misc/lv_color.h ****  *
   4:..\..\..\arduinoLCD\test\Pain Drain\libraries\lvgl\src\draw\../misc/lv_color.h ****  */
   5:..\..\..\arduinoLCD\test\Pain Drain\libraries\lvgl\src\draw\../misc/lv_color.h **** 
   6:..\..\..\arduinoLCD\test\Pain Drain\libraries\lvgl\src\draw\../misc/lv_color.h **** #ifndef LV_COLOR_H
   7:..\..\..\arduinoLCD\test\Pain Drain\libraries\lvgl\src\draw\../misc/lv_color.h **** #define LV_COLOR_H
   8:..\..\..\arduinoLCD\test\Pain Drain\libraries\lvgl\src\draw\../misc/lv_color.h **** 
   9:..\..\..\arduinoLCD\test\Pain Drain\libraries\lvgl\src\draw\../misc/lv_color.h **** #ifdef __cplusplus
  10:..\..\..\arduinoLCD\test\Pain Drain\libraries\lvgl\src\draw\../misc/lv_color.h **** extern "C" {
  11:..\..\..\arduinoLCD\test\Pain Drain\libraries\lvgl\src\draw\../misc/lv_color.h **** #endif
  12:..\..\..\arduinoLCD\test\Pain Drain\libraries\lvgl\src\draw\../misc/lv_color.h **** 
  13:..\..\..\arduinoLCD\test\Pain Drain\libraries\lvgl\src\draw\../misc/lv_color.h **** /*********************
  14:..\..\..\arduinoLCD\test\Pain Drain\libraries\lvgl\src\draw\../misc/lv_color.h ****  *      INCLUDES
  15:..\..\..\arduinoLCD\test\Pain Drain\libraries\lvgl\src\draw\../misc/lv_color.h ****  *********************/
ARM GAS  C:\Users\haske\AppData\Local\Temp\ccwuLgOR.s 			page 31


  16:..\..\..\arduinoLCD\test\Pain Drain\libraries\lvgl\src\draw\../misc/lv_color.h **** #include "../lv_conf_internal.h"
  17:..\..\..\arduinoLCD\test\Pain Drain\libraries\lvgl\src\draw\../misc/lv_color.h **** #include "lv_assert.h"
  18:..\..\..\arduinoLCD\test\Pain Drain\libraries\lvgl\src\draw\../misc/lv_color.h **** #include "lv_math.h"
  19:..\..\..\arduinoLCD\test\Pain Drain\libraries\lvgl\src\draw\../misc/lv_color.h **** #include "lv_types.h"
  20:..\..\..\arduinoLCD\test\Pain Drain\libraries\lvgl\src\draw\../misc/lv_color.h **** 
  21:..\..\..\arduinoLCD\test\Pain Drain\libraries\lvgl\src\draw\../misc/lv_color.h **** /*Error checking*/
  22:..\..\..\arduinoLCD\test\Pain Drain\libraries\lvgl\src\draw\../misc/lv_color.h **** #if LV_COLOR_DEPTH == 24
  23:..\..\..\arduinoLCD\test\Pain Drain\libraries\lvgl\src\draw\../misc/lv_color.h **** #error "LV_COLOR_DEPTH 24 is deprecated. Use LV_COLOR_DEPTH 32 instead (lv_conf.h)"
  24:..\..\..\arduinoLCD\test\Pain Drain\libraries\lvgl\src\draw\../misc/lv_color.h **** #endif
  25:..\..\..\arduinoLCD\test\Pain Drain\libraries\lvgl\src\draw\../misc/lv_color.h **** 
  26:..\..\..\arduinoLCD\test\Pain Drain\libraries\lvgl\src\draw\../misc/lv_color.h **** #if LV_COLOR_DEPTH != 16 && LV_COLOR_16_SWAP != 0
  27:..\..\..\arduinoLCD\test\Pain Drain\libraries\lvgl\src\draw\../misc/lv_color.h **** #error "LV_COLOR_16_SWAP requires LV_COLOR_DEPTH == 16. Set it in lv_conf.h"
  28:..\..\..\arduinoLCD\test\Pain Drain\libraries\lvgl\src\draw\../misc/lv_color.h **** #endif
  29:..\..\..\arduinoLCD\test\Pain Drain\libraries\lvgl\src\draw\../misc/lv_color.h **** 
  30:..\..\..\arduinoLCD\test\Pain Drain\libraries\lvgl\src\draw\../misc/lv_color.h **** #include <stdint.h>
  31:..\..\..\arduinoLCD\test\Pain Drain\libraries\lvgl\src\draw\../misc/lv_color.h **** 
  32:..\..\..\arduinoLCD\test\Pain Drain\libraries\lvgl\src\draw\../misc/lv_color.h **** /*********************
  33:..\..\..\arduinoLCD\test\Pain Drain\libraries\lvgl\src\draw\../misc/lv_color.h ****  *      DEFINES
  34:..\..\..\arduinoLCD\test\Pain Drain\libraries\lvgl\src\draw\../misc/lv_color.h ****  *********************/
  35:..\..\..\arduinoLCD\test\Pain Drain\libraries\lvgl\src\draw\../misc/lv_color.h **** LV_EXPORT_CONST_INT(LV_COLOR_DEPTH);
  36:..\..\..\arduinoLCD\test\Pain Drain\libraries\lvgl\src\draw\../misc/lv_color.h **** LV_EXPORT_CONST_INT(LV_COLOR_16_SWAP);
  37:..\..\..\arduinoLCD\test\Pain Drain\libraries\lvgl\src\draw\../misc/lv_color.h **** 
  38:..\..\..\arduinoLCD\test\Pain Drain\libraries\lvgl\src\draw\../misc/lv_color.h **** /**
  39:..\..\..\arduinoLCD\test\Pain Drain\libraries\lvgl\src\draw\../misc/lv_color.h ****  * Opacity percentages.
  40:..\..\..\arduinoLCD\test\Pain Drain\libraries\lvgl\src\draw\../misc/lv_color.h ****  */
  41:..\..\..\arduinoLCD\test\Pain Drain\libraries\lvgl\src\draw\../misc/lv_color.h **** enum {
  42:..\..\..\arduinoLCD\test\Pain Drain\libraries\lvgl\src\draw\../misc/lv_color.h ****     LV_OPA_TRANSP = 0,
  43:..\..\..\arduinoLCD\test\Pain Drain\libraries\lvgl\src\draw\../misc/lv_color.h ****     LV_OPA_0      = 0,
  44:..\..\..\arduinoLCD\test\Pain Drain\libraries\lvgl\src\draw\../misc/lv_color.h ****     LV_OPA_10     = 25,
  45:..\..\..\arduinoLCD\test\Pain Drain\libraries\lvgl\src\draw\../misc/lv_color.h ****     LV_OPA_20     = 51,
  46:..\..\..\arduinoLCD\test\Pain Drain\libraries\lvgl\src\draw\../misc/lv_color.h ****     LV_OPA_30     = 76,
  47:..\..\..\arduinoLCD\test\Pain Drain\libraries\lvgl\src\draw\../misc/lv_color.h ****     LV_OPA_40     = 102,
  48:..\..\..\arduinoLCD\test\Pain Drain\libraries\lvgl\src\draw\../misc/lv_color.h ****     LV_OPA_50     = 127,
  49:..\..\..\arduinoLCD\test\Pain Drain\libraries\lvgl\src\draw\../misc/lv_color.h ****     LV_OPA_60     = 153,
  50:..\..\..\arduinoLCD\test\Pain Drain\libraries\lvgl\src\draw\../misc/lv_color.h ****     LV_OPA_70     = 178,
  51:..\..\..\arduinoLCD\test\Pain Drain\libraries\lvgl\src\draw\../misc/lv_color.h ****     LV_OPA_80     = 204,
  52:..\..\..\arduinoLCD\test\Pain Drain\libraries\lvgl\src\draw\../misc/lv_color.h ****     LV_OPA_90     = 229,
  53:..\..\..\arduinoLCD\test\Pain Drain\libraries\lvgl\src\draw\../misc/lv_color.h ****     LV_OPA_100    = 255,
  54:..\..\..\arduinoLCD\test\Pain Drain\libraries\lvgl\src\draw\../misc/lv_color.h ****     LV_OPA_COVER  = 255,
  55:..\..\..\arduinoLCD\test\Pain Drain\libraries\lvgl\src\draw\../misc/lv_color.h **** };
  56:..\..\..\arduinoLCD\test\Pain Drain\libraries\lvgl\src\draw\../misc/lv_color.h **** 
  57:..\..\..\arduinoLCD\test\Pain Drain\libraries\lvgl\src\draw\../misc/lv_color.h **** #define LV_OPA_MIN 2    /*Opacities below this will be transparent*/
  58:..\..\..\arduinoLCD\test\Pain Drain\libraries\lvgl\src\draw\../misc/lv_color.h **** #define LV_OPA_MAX 253  /*Opacities above this will fully cover*/
  59:..\..\..\arduinoLCD\test\Pain Drain\libraries\lvgl\src\draw\../misc/lv_color.h **** 
  60:..\..\..\arduinoLCD\test\Pain Drain\libraries\lvgl\src\draw\../misc/lv_color.h **** #if LV_COLOR_DEPTH == 1
  61:..\..\..\arduinoLCD\test\Pain Drain\libraries\lvgl\src\draw\../misc/lv_color.h **** #define LV_COLOR_SIZE 8
  62:..\..\..\arduinoLCD\test\Pain Drain\libraries\lvgl\src\draw\../misc/lv_color.h **** #elif LV_COLOR_DEPTH == 8
  63:..\..\..\arduinoLCD\test\Pain Drain\libraries\lvgl\src\draw\../misc/lv_color.h **** #define LV_COLOR_SIZE 8
  64:..\..\..\arduinoLCD\test\Pain Drain\libraries\lvgl\src\draw\../misc/lv_color.h **** #elif LV_COLOR_DEPTH == 16
  65:..\..\..\arduinoLCD\test\Pain Drain\libraries\lvgl\src\draw\../misc/lv_color.h **** #define LV_COLOR_SIZE 16
  66:..\..\..\arduinoLCD\test\Pain Drain\libraries\lvgl\src\draw\../misc/lv_color.h **** #elif LV_COLOR_DEPTH == 32
  67:..\..\..\arduinoLCD\test\Pain Drain\libraries\lvgl\src\draw\../misc/lv_color.h **** #define LV_COLOR_SIZE 32
  68:..\..\..\arduinoLCD\test\Pain Drain\libraries\lvgl\src\draw\../misc/lv_color.h **** #else
  69:..\..\..\arduinoLCD\test\Pain Drain\libraries\lvgl\src\draw\../misc/lv_color.h **** #error "Invalid LV_COLOR_DEPTH in lv_conf.h! Set it to 1, 8, 16 or 32!"
  70:..\..\..\arduinoLCD\test\Pain Drain\libraries\lvgl\src\draw\../misc/lv_color.h **** #endif
  71:..\..\..\arduinoLCD\test\Pain Drain\libraries\lvgl\src\draw\../misc/lv_color.h **** 
  72:..\..\..\arduinoLCD\test\Pain Drain\libraries\lvgl\src\draw\../misc/lv_color.h **** #if defined(__cplusplus) && !defined(_LV_COLOR_HAS_MODERN_CPP)
ARM GAS  C:\Users\haske\AppData\Local\Temp\ccwuLgOR.s 			page 32


  73:..\..\..\arduinoLCD\test\Pain Drain\libraries\lvgl\src\draw\../misc/lv_color.h **** /**
  74:..\..\..\arduinoLCD\test\Pain Drain\libraries\lvgl\src\draw\../misc/lv_color.h **** * MSVC compiler's definition of the __cplusplus indicating 199711L regardless to C++ standard versi
  75:..\..\..\arduinoLCD\test\Pain Drain\libraries\lvgl\src\draw\../misc/lv_color.h **** * see https://devblogs.microsoft.com/cppblog/msvc-now-correctly-reports-cplusplus
  76:..\..\..\arduinoLCD\test\Pain Drain\libraries\lvgl\src\draw\../misc/lv_color.h **** * so we use _MSC_VER macro instead of __cplusplus
  77:..\..\..\arduinoLCD\test\Pain Drain\libraries\lvgl\src\draw\../misc/lv_color.h **** */
  78:..\..\..\arduinoLCD\test\Pain Drain\libraries\lvgl\src\draw\../misc/lv_color.h **** #ifdef _MSC_VER
  79:..\..\..\arduinoLCD\test\Pain Drain\libraries\lvgl\src\draw\../misc/lv_color.h **** #if _MSC_VER >= 1900 /*Visual Studio 2015*/
  80:..\..\..\arduinoLCD\test\Pain Drain\libraries\lvgl\src\draw\../misc/lv_color.h **** #define _LV_COLOR_HAS_MODERN_CPP 1
  81:..\..\..\arduinoLCD\test\Pain Drain\libraries\lvgl\src\draw\../misc/lv_color.h **** #endif
  82:..\..\..\arduinoLCD\test\Pain Drain\libraries\lvgl\src\draw\../misc/lv_color.h **** #else
  83:..\..\..\arduinoLCD\test\Pain Drain\libraries\lvgl\src\draw\../misc/lv_color.h **** #if __cplusplus >= 201103L
  84:..\..\..\arduinoLCD\test\Pain Drain\libraries\lvgl\src\draw\../misc/lv_color.h **** #define _LV_COLOR_HAS_MODERN_CPP 1
  85:..\..\..\arduinoLCD\test\Pain Drain\libraries\lvgl\src\draw\../misc/lv_color.h **** #endif
  86:..\..\..\arduinoLCD\test\Pain Drain\libraries\lvgl\src\draw\../misc/lv_color.h **** #endif
  87:..\..\..\arduinoLCD\test\Pain Drain\libraries\lvgl\src\draw\../misc/lv_color.h **** #endif /*__cplusplus*/
  88:..\..\..\arduinoLCD\test\Pain Drain\libraries\lvgl\src\draw\../misc/lv_color.h **** 
  89:..\..\..\arduinoLCD\test\Pain Drain\libraries\lvgl\src\draw\../misc/lv_color.h **** #ifndef _LV_COLOR_HAS_MODERN_CPP
  90:..\..\..\arduinoLCD\test\Pain Drain\libraries\lvgl\src\draw\../misc/lv_color.h **** #define _LV_COLOR_HAS_MODERN_CPP 0
  91:..\..\..\arduinoLCD\test\Pain Drain\libraries\lvgl\src\draw\../misc/lv_color.h **** #endif
  92:..\..\..\arduinoLCD\test\Pain Drain\libraries\lvgl\src\draw\../misc/lv_color.h **** 
  93:..\..\..\arduinoLCD\test\Pain Drain\libraries\lvgl\src\draw\../misc/lv_color.h **** #if _LV_COLOR_HAS_MODERN_CPP
  94:..\..\..\arduinoLCD\test\Pain Drain\libraries\lvgl\src\draw\../misc/lv_color.h **** /*Fix msvc compiler error C4576 inside C++ code*/
  95:..\..\..\arduinoLCD\test\Pain Drain\libraries\lvgl\src\draw\../misc/lv_color.h **** #define _LV_COLOR_MAKE_TYPE_HELPER lv_color_t
  96:..\..\..\arduinoLCD\test\Pain Drain\libraries\lvgl\src\draw\../misc/lv_color.h **** #else
  97:..\..\..\arduinoLCD\test\Pain Drain\libraries\lvgl\src\draw\../misc/lv_color.h **** #define _LV_COLOR_MAKE_TYPE_HELPER (lv_color_t)
  98:..\..\..\arduinoLCD\test\Pain Drain\libraries\lvgl\src\draw\../misc/lv_color.h **** #endif
  99:..\..\..\arduinoLCD\test\Pain Drain\libraries\lvgl\src\draw\../misc/lv_color.h **** 
 100:..\..\..\arduinoLCD\test\Pain Drain\libraries\lvgl\src\draw\../misc/lv_color.h **** /*---------------------------------------
 101:..\..\..\arduinoLCD\test\Pain Drain\libraries\lvgl\src\draw\../misc/lv_color.h ****  * Macros for all existing color depths
 102:..\..\..\arduinoLCD\test\Pain Drain\libraries\lvgl\src\draw\../misc/lv_color.h ****  * to set/get values of the color channels
 103:..\..\..\arduinoLCD\test\Pain Drain\libraries\lvgl\src\draw\../misc/lv_color.h ****  *------------------------------------------*/
 104:..\..\..\arduinoLCD\test\Pain Drain\libraries\lvgl\src\draw\../misc/lv_color.h **** # define LV_COLOR_SET_R1(c, v) (c).ch.red = (uint8_t)((v) & 0x1)
 105:..\..\..\arduinoLCD\test\Pain Drain\libraries\lvgl\src\draw\../misc/lv_color.h **** # define LV_COLOR_SET_G1(c, v) (c).ch.green = (uint8_t)((v) & 0x1)
 106:..\..\..\arduinoLCD\test\Pain Drain\libraries\lvgl\src\draw\../misc/lv_color.h **** # define LV_COLOR_SET_B1(c, v) (c).ch.blue = (uint8_t)((v) & 0x1)
 107:..\..\..\arduinoLCD\test\Pain Drain\libraries\lvgl\src\draw\../misc/lv_color.h **** # define LV_COLOR_SET_A1(c, v) do {} while(0)
 108:..\..\..\arduinoLCD\test\Pain Drain\libraries\lvgl\src\draw\../misc/lv_color.h **** 
 109:..\..\..\arduinoLCD\test\Pain Drain\libraries\lvgl\src\draw\../misc/lv_color.h **** # define LV_COLOR_GET_R1(c) (c).ch.red
 110:..\..\..\arduinoLCD\test\Pain Drain\libraries\lvgl\src\draw\../misc/lv_color.h **** # define LV_COLOR_GET_G1(c) (c).ch.green
 111:..\..\..\arduinoLCD\test\Pain Drain\libraries\lvgl\src\draw\../misc/lv_color.h **** # define LV_COLOR_GET_B1(c) (c).ch.blue
 112:..\..\..\arduinoLCD\test\Pain Drain\libraries\lvgl\src\draw\../misc/lv_color.h **** # define LV_COLOR_GET_A1(c) 0xFF
 113:..\..\..\arduinoLCD\test\Pain Drain\libraries\lvgl\src\draw\../misc/lv_color.h **** 
 114:..\..\..\arduinoLCD\test\Pain Drain\libraries\lvgl\src\draw\../misc/lv_color.h **** # define _LV_COLOR_ZERO_INITIALIZER1 {0x00}
 115:..\..\..\arduinoLCD\test\Pain Drain\libraries\lvgl\src\draw\../misc/lv_color.h **** # define LV_COLOR_MAKE1(r8, g8, b8)  {(uint8_t)((b8 >> 7) | (g8 >> 7) | (r8 >> 7))}
 116:..\..\..\arduinoLCD\test\Pain Drain\libraries\lvgl\src\draw\../misc/lv_color.h **** 
 117:..\..\..\arduinoLCD\test\Pain Drain\libraries\lvgl\src\draw\../misc/lv_color.h **** # define LV_COLOR_SET_R8(c, v) (c).ch.red = (uint8_t)((v) & 0x7U)
 118:..\..\..\arduinoLCD\test\Pain Drain\libraries\lvgl\src\draw\../misc/lv_color.h **** # define LV_COLOR_SET_G8(c, v) (c).ch.green = (uint8_t)((v) & 0x7U)
 119:..\..\..\arduinoLCD\test\Pain Drain\libraries\lvgl\src\draw\../misc/lv_color.h **** # define LV_COLOR_SET_B8(c, v) (c).ch.blue = (uint8_t)((v) & 0x3U)
 120:..\..\..\arduinoLCD\test\Pain Drain\libraries\lvgl\src\draw\../misc/lv_color.h **** # define LV_COLOR_SET_A8(c, v) do {} while(0)
 121:..\..\..\arduinoLCD\test\Pain Drain\libraries\lvgl\src\draw\../misc/lv_color.h **** 
 122:..\..\..\arduinoLCD\test\Pain Drain\libraries\lvgl\src\draw\../misc/lv_color.h **** # define LV_COLOR_GET_R8(c) (c).ch.red
 123:..\..\..\arduinoLCD\test\Pain Drain\libraries\lvgl\src\draw\../misc/lv_color.h **** # define LV_COLOR_GET_G8(c) (c).ch.green
 124:..\..\..\arduinoLCD\test\Pain Drain\libraries\lvgl\src\draw\../misc/lv_color.h **** # define LV_COLOR_GET_B8(c) (c).ch.blue
 125:..\..\..\arduinoLCD\test\Pain Drain\libraries\lvgl\src\draw\../misc/lv_color.h **** # define LV_COLOR_GET_A8(c) 0xFF
 126:..\..\..\arduinoLCD\test\Pain Drain\libraries\lvgl\src\draw\../misc/lv_color.h **** 
 127:..\..\..\arduinoLCD\test\Pain Drain\libraries\lvgl\src\draw\../misc/lv_color.h **** # define _LV_COLOR_ZERO_INITIALIZER8 {{0x00, 0x00, 0x00}}
 128:..\..\..\arduinoLCD\test\Pain Drain\libraries\lvgl\src\draw\../misc/lv_color.h **** # define LV_COLOR_MAKE8(r8, g8, b8) {{(uint8_t)((b8 >> 6) & 0x3U), (uint8_t)((g8 >> 5) & 0x7U), (ui
 129:..\..\..\arduinoLCD\test\Pain Drain\libraries\lvgl\src\draw\../misc/lv_color.h **** 
ARM GAS  C:\Users\haske\AppData\Local\Temp\ccwuLgOR.s 			page 33


 130:..\..\..\arduinoLCD\test\Pain Drain\libraries\lvgl\src\draw\../misc/lv_color.h **** # define LV_COLOR_SET_R16(c, v) (c).ch.red = (uint8_t)((v) & 0x1FU)
 131:..\..\..\arduinoLCD\test\Pain Drain\libraries\lvgl\src\draw\../misc/lv_color.h **** #if LV_COLOR_16_SWAP == 0
 132:..\..\..\arduinoLCD\test\Pain Drain\libraries\lvgl\src\draw\../misc/lv_color.h **** # define LV_COLOR_SET_G16(c, v) (c).ch.green = (uint8_t)((v) & 0x3FU)
 133:..\..\..\arduinoLCD\test\Pain Drain\libraries\lvgl\src\draw\../misc/lv_color.h **** #else
 134:..\..\..\arduinoLCD\test\Pain Drain\libraries\lvgl\src\draw\../misc/lv_color.h **** # define LV_COLOR_SET_G16(c, v) {(c).ch.green_h = (uint8_t)(((v) >> 3) & 0x7); (c).ch.green_l = (ui
 135:..\..\..\arduinoLCD\test\Pain Drain\libraries\lvgl\src\draw\../misc/lv_color.h **** #endif
 136:..\..\..\arduinoLCD\test\Pain Drain\libraries\lvgl\src\draw\../misc/lv_color.h **** # define LV_COLOR_SET_B16(c, v) (c).ch.blue = (uint8_t)((v) & 0x1FU)
 137:..\..\..\arduinoLCD\test\Pain Drain\libraries\lvgl\src\draw\../misc/lv_color.h **** # define LV_COLOR_SET_A16(c, v) do {} while(0)
 138:..\..\..\arduinoLCD\test\Pain Drain\libraries\lvgl\src\draw\../misc/lv_color.h **** 
 139:..\..\..\arduinoLCD\test\Pain Drain\libraries\lvgl\src\draw\../misc/lv_color.h **** # define LV_COLOR_GET_R16(c) (c).ch.red
 140:..\..\..\arduinoLCD\test\Pain Drain\libraries\lvgl\src\draw\../misc/lv_color.h **** #if LV_COLOR_16_SWAP == 0
 141:..\..\..\arduinoLCD\test\Pain Drain\libraries\lvgl\src\draw\../misc/lv_color.h **** # define LV_COLOR_GET_G16(c) (c).ch.green
 142:..\..\..\arduinoLCD\test\Pain Drain\libraries\lvgl\src\draw\../misc/lv_color.h **** #else
 143:..\..\..\arduinoLCD\test\Pain Drain\libraries\lvgl\src\draw\../misc/lv_color.h **** # define LV_COLOR_GET_G16(c) (((c).ch.green_h << 3) + (c).ch.green_l)
 144:..\..\..\arduinoLCD\test\Pain Drain\libraries\lvgl\src\draw\../misc/lv_color.h **** #endif
 145:..\..\..\arduinoLCD\test\Pain Drain\libraries\lvgl\src\draw\../misc/lv_color.h **** # define LV_COLOR_GET_B16(c) (c).ch.blue
 146:..\..\..\arduinoLCD\test\Pain Drain\libraries\lvgl\src\draw\../misc/lv_color.h **** # define LV_COLOR_GET_A16(c) 0xFF
 147:..\..\..\arduinoLCD\test\Pain Drain\libraries\lvgl\src\draw\../misc/lv_color.h **** 
 148:..\..\..\arduinoLCD\test\Pain Drain\libraries\lvgl\src\draw\../misc/lv_color.h **** #if LV_COLOR_16_SWAP == 0
 149:..\..\..\arduinoLCD\test\Pain Drain\libraries\lvgl\src\draw\../misc/lv_color.h **** # define _LV_COLOR_ZERO_INITIALIZER16  {{0x00, 0x00, 0x00}}
 150:..\..\..\arduinoLCD\test\Pain Drain\libraries\lvgl\src\draw\../misc/lv_color.h **** # define LV_COLOR_MAKE16(r8, g8, b8) {{(uint8_t)((b8 >> 3) & 0x1FU), (uint8_t)((g8 >> 2) & 0x3FU), 
 151:..\..\..\arduinoLCD\test\Pain Drain\libraries\lvgl\src\draw\../misc/lv_color.h **** #else
 152:..\..\..\arduinoLCD\test\Pain Drain\libraries\lvgl\src\draw\../misc/lv_color.h **** # define _LV_COLOR_ZERO_INITIALIZER16 {{0x00, 0x00, 0x00, 0x00}}
 153:..\..\..\arduinoLCD\test\Pain Drain\libraries\lvgl\src\draw\../misc/lv_color.h **** # define LV_COLOR_MAKE16(r8, g8, b8) {{(uint8_t)((g8 >> 5) & 0x7U), (uint8_t)((r8 >> 3) & 0x1FU), (
 154:..\..\..\arduinoLCD\test\Pain Drain\libraries\lvgl\src\draw\../misc/lv_color.h **** #endif
 155:..\..\..\arduinoLCD\test\Pain Drain\libraries\lvgl\src\draw\../misc/lv_color.h **** 
 156:..\..\..\arduinoLCD\test\Pain Drain\libraries\lvgl\src\draw\../misc/lv_color.h **** # define LV_COLOR_SET_R32(c, v) (c).ch.red = (uint8_t)((v) & 0xFF)
 157:..\..\..\arduinoLCD\test\Pain Drain\libraries\lvgl\src\draw\../misc/lv_color.h **** # define LV_COLOR_SET_G32(c, v) (c).ch.green = (uint8_t)((v) & 0xFF)
 158:..\..\..\arduinoLCD\test\Pain Drain\libraries\lvgl\src\draw\../misc/lv_color.h **** # define LV_COLOR_SET_B32(c, v) (c).ch.blue = (uint8_t)((v) & 0xFF)
 159:..\..\..\arduinoLCD\test\Pain Drain\libraries\lvgl\src\draw\../misc/lv_color.h **** # define LV_COLOR_SET_A32(c, v) (c).ch.alpha = (uint8_t)((v) & 0xFF)
 160:..\..\..\arduinoLCD\test\Pain Drain\libraries\lvgl\src\draw\../misc/lv_color.h **** 
 161:..\..\..\arduinoLCD\test\Pain Drain\libraries\lvgl\src\draw\../misc/lv_color.h **** # define LV_COLOR_GET_R32(c) (c).ch.red
 162:..\..\..\arduinoLCD\test\Pain Drain\libraries\lvgl\src\draw\../misc/lv_color.h **** # define LV_COLOR_GET_G32(c) (c).ch.green
 163:..\..\..\arduinoLCD\test\Pain Drain\libraries\lvgl\src\draw\../misc/lv_color.h **** # define LV_COLOR_GET_B32(c) (c).ch.blue
 164:..\..\..\arduinoLCD\test\Pain Drain\libraries\lvgl\src\draw\../misc/lv_color.h **** # define LV_COLOR_GET_A32(c) (c).ch.alpha
 165:..\..\..\arduinoLCD\test\Pain Drain\libraries\lvgl\src\draw\../misc/lv_color.h **** 
 166:..\..\..\arduinoLCD\test\Pain Drain\libraries\lvgl\src\draw\../misc/lv_color.h **** # define _LV_COLOR_ZERO_INITIALIZER32  {{0x00, 0x00, 0x00, 0x00}}
 167:..\..\..\arduinoLCD\test\Pain Drain\libraries\lvgl\src\draw\../misc/lv_color.h **** # define LV_COLOR_MAKE32(r8, g8, b8) {{b8, g8, r8, 0xff}} /*Fix 0xff alpha*/
 168:..\..\..\arduinoLCD\test\Pain Drain\libraries\lvgl\src\draw\../misc/lv_color.h **** 
 169:..\..\..\arduinoLCD\test\Pain Drain\libraries\lvgl\src\draw\../misc/lv_color.h **** /*---------------------------------------
 170:..\..\..\arduinoLCD\test\Pain Drain\libraries\lvgl\src\draw\../misc/lv_color.h ****  * Macros for the current color depth
 171:..\..\..\arduinoLCD\test\Pain Drain\libraries\lvgl\src\draw\../misc/lv_color.h ****  * to set/get values of the color channels
 172:..\..\..\arduinoLCD\test\Pain Drain\libraries\lvgl\src\draw\../misc/lv_color.h ****  *------------------------------------------*/
 173:..\..\..\arduinoLCD\test\Pain Drain\libraries\lvgl\src\draw\../misc/lv_color.h **** #define LV_COLOR_SET_R(c, v) LV_CONCAT(LV_COLOR_SET_R, LV_COLOR_DEPTH)(c, v)
 174:..\..\..\arduinoLCD\test\Pain Drain\libraries\lvgl\src\draw\../misc/lv_color.h **** #define LV_COLOR_SET_G(c, v) LV_CONCAT(LV_COLOR_SET_G, LV_COLOR_DEPTH)(c, v)
 175:..\..\..\arduinoLCD\test\Pain Drain\libraries\lvgl\src\draw\../misc/lv_color.h **** #define LV_COLOR_SET_B(c, v) LV_CONCAT(LV_COLOR_SET_B, LV_COLOR_DEPTH)(c, v)
 176:..\..\..\arduinoLCD\test\Pain Drain\libraries\lvgl\src\draw\../misc/lv_color.h **** #define LV_COLOR_SET_A(c, v) LV_CONCAT(LV_COLOR_SET_A, LV_COLOR_DEPTH)(c, v)
 177:..\..\..\arduinoLCD\test\Pain Drain\libraries\lvgl\src\draw\../misc/lv_color.h **** 
 178:..\..\..\arduinoLCD\test\Pain Drain\libraries\lvgl\src\draw\../misc/lv_color.h **** #define LV_COLOR_GET_R(c) LV_CONCAT(LV_COLOR_GET_R, LV_COLOR_DEPTH)(c)
 179:..\..\..\arduinoLCD\test\Pain Drain\libraries\lvgl\src\draw\../misc/lv_color.h **** #define LV_COLOR_GET_G(c) LV_CONCAT(LV_COLOR_GET_G, LV_COLOR_DEPTH)(c)
 180:..\..\..\arduinoLCD\test\Pain Drain\libraries\lvgl\src\draw\../misc/lv_color.h **** #define LV_COLOR_GET_B(c) LV_CONCAT(LV_COLOR_GET_B, LV_COLOR_DEPTH)(c)
 181:..\..\..\arduinoLCD\test\Pain Drain\libraries\lvgl\src\draw\../misc/lv_color.h **** #define LV_COLOR_GET_A(c) LV_CONCAT(LV_COLOR_GET_A, LV_COLOR_DEPTH)(c)
 182:..\..\..\arduinoLCD\test\Pain Drain\libraries\lvgl\src\draw\../misc/lv_color.h **** 
 183:..\..\..\arduinoLCD\test\Pain Drain\libraries\lvgl\src\draw\../misc/lv_color.h **** #define _LV_COLOR_ZERO_INITIALIZER LV_CONCAT(_LV_COLOR_ZERO_INITIALIZER, LV_COLOR_DEPTH)
 184:..\..\..\arduinoLCD\test\Pain Drain\libraries\lvgl\src\draw\../misc/lv_color.h **** #define LV_COLOR_MAKE(r8, g8, b8) LV_CONCAT(LV_COLOR_MAKE, LV_COLOR_DEPTH)(r8, g8, b8)
 185:..\..\..\arduinoLCD\test\Pain Drain\libraries\lvgl\src\draw\../misc/lv_color.h **** 
 186:..\..\..\arduinoLCD\test\Pain Drain\libraries\lvgl\src\draw\../misc/lv_color.h **** /**********************
ARM GAS  C:\Users\haske\AppData\Local\Temp\ccwuLgOR.s 			page 34


 187:..\..\..\arduinoLCD\test\Pain Drain\libraries\lvgl\src\draw\../misc/lv_color.h ****  *      TYPEDEFS
 188:..\..\..\arduinoLCD\test\Pain Drain\libraries\lvgl\src\draw\../misc/lv_color.h ****  **********************/
 189:..\..\..\arduinoLCD\test\Pain Drain\libraries\lvgl\src\draw\../misc/lv_color.h **** 
 190:..\..\..\arduinoLCD\test\Pain Drain\libraries\lvgl\src\draw\../misc/lv_color.h **** typedef union {
 191:..\..\..\arduinoLCD\test\Pain Drain\libraries\lvgl\src\draw\../misc/lv_color.h ****     uint8_t full; /*must be declared first to set all bits of byte via initializer list*/
 192:..\..\..\arduinoLCD\test\Pain Drain\libraries\lvgl\src\draw\../misc/lv_color.h ****     union {
 193:..\..\..\arduinoLCD\test\Pain Drain\libraries\lvgl\src\draw\../misc/lv_color.h ****         uint8_t blue : 1;
 194:..\..\..\arduinoLCD\test\Pain Drain\libraries\lvgl\src\draw\../misc/lv_color.h ****         uint8_t green : 1;
 195:..\..\..\arduinoLCD\test\Pain Drain\libraries\lvgl\src\draw\../misc/lv_color.h ****         uint8_t red : 1;
 196:..\..\..\arduinoLCD\test\Pain Drain\libraries\lvgl\src\draw\../misc/lv_color.h ****     } ch;
 197:..\..\..\arduinoLCD\test\Pain Drain\libraries\lvgl\src\draw\../misc/lv_color.h **** } lv_color1_t;
 198:..\..\..\arduinoLCD\test\Pain Drain\libraries\lvgl\src\draw\../misc/lv_color.h **** 
 199:..\..\..\arduinoLCD\test\Pain Drain\libraries\lvgl\src\draw\../misc/lv_color.h **** typedef union {
 200:..\..\..\arduinoLCD\test\Pain Drain\libraries\lvgl\src\draw\../misc/lv_color.h ****     struct {
 201:..\..\..\arduinoLCD\test\Pain Drain\libraries\lvgl\src\draw\../misc/lv_color.h ****         uint8_t blue : 2;
 202:..\..\..\arduinoLCD\test\Pain Drain\libraries\lvgl\src\draw\../misc/lv_color.h ****         uint8_t green : 3;
 203:..\..\..\arduinoLCD\test\Pain Drain\libraries\lvgl\src\draw\../misc/lv_color.h ****         uint8_t red : 3;
 204:..\..\..\arduinoLCD\test\Pain Drain\libraries\lvgl\src\draw\../misc/lv_color.h ****     } ch;
 205:..\..\..\arduinoLCD\test\Pain Drain\libraries\lvgl\src\draw\../misc/lv_color.h ****     uint8_t full;
 206:..\..\..\arduinoLCD\test\Pain Drain\libraries\lvgl\src\draw\../misc/lv_color.h **** } lv_color8_t;
 207:..\..\..\arduinoLCD\test\Pain Drain\libraries\lvgl\src\draw\../misc/lv_color.h **** 
 208:..\..\..\arduinoLCD\test\Pain Drain\libraries\lvgl\src\draw\../misc/lv_color.h **** typedef union {
 209:..\..\..\arduinoLCD\test\Pain Drain\libraries\lvgl\src\draw\../misc/lv_color.h ****     struct {
 210:..\..\..\arduinoLCD\test\Pain Drain\libraries\lvgl\src\draw\../misc/lv_color.h **** #if LV_COLOR_16_SWAP == 0
 211:..\..\..\arduinoLCD\test\Pain Drain\libraries\lvgl\src\draw\../misc/lv_color.h ****         uint16_t blue : 5;
 212:..\..\..\arduinoLCD\test\Pain Drain\libraries\lvgl\src\draw\../misc/lv_color.h ****         uint16_t green : 6;
 213:..\..\..\arduinoLCD\test\Pain Drain\libraries\lvgl\src\draw\../misc/lv_color.h ****         uint16_t red : 5;
 214:..\..\..\arduinoLCD\test\Pain Drain\libraries\lvgl\src\draw\../misc/lv_color.h **** #else
 215:..\..\..\arduinoLCD\test\Pain Drain\libraries\lvgl\src\draw\../misc/lv_color.h ****         uint16_t green_h : 3;
 216:..\..\..\arduinoLCD\test\Pain Drain\libraries\lvgl\src\draw\../misc/lv_color.h ****         uint16_t red : 5;
 217:..\..\..\arduinoLCD\test\Pain Drain\libraries\lvgl\src\draw\../misc/lv_color.h ****         uint16_t blue : 5;
 218:..\..\..\arduinoLCD\test\Pain Drain\libraries\lvgl\src\draw\../misc/lv_color.h ****         uint16_t green_l : 3;
 219:..\..\..\arduinoLCD\test\Pain Drain\libraries\lvgl\src\draw\../misc/lv_color.h **** #endif
 220:..\..\..\arduinoLCD\test\Pain Drain\libraries\lvgl\src\draw\../misc/lv_color.h ****     } ch;
 221:..\..\..\arduinoLCD\test\Pain Drain\libraries\lvgl\src\draw\../misc/lv_color.h ****     uint16_t full;
 222:..\..\..\arduinoLCD\test\Pain Drain\libraries\lvgl\src\draw\../misc/lv_color.h **** } lv_color16_t;
 223:..\..\..\arduinoLCD\test\Pain Drain\libraries\lvgl\src\draw\../misc/lv_color.h **** 
 224:..\..\..\arduinoLCD\test\Pain Drain\libraries\lvgl\src\draw\../misc/lv_color.h **** typedef union {
 225:..\..\..\arduinoLCD\test\Pain Drain\libraries\lvgl\src\draw\../misc/lv_color.h ****     struct {
 226:..\..\..\arduinoLCD\test\Pain Drain\libraries\lvgl\src\draw\../misc/lv_color.h ****         uint8_t blue;
 227:..\..\..\arduinoLCD\test\Pain Drain\libraries\lvgl\src\draw\../misc/lv_color.h ****         uint8_t green;
 228:..\..\..\arduinoLCD\test\Pain Drain\libraries\lvgl\src\draw\../misc/lv_color.h ****         uint8_t red;
 229:..\..\..\arduinoLCD\test\Pain Drain\libraries\lvgl\src\draw\../misc/lv_color.h ****         uint8_t alpha;
 230:..\..\..\arduinoLCD\test\Pain Drain\libraries\lvgl\src\draw\../misc/lv_color.h ****     } ch;
 231:..\..\..\arduinoLCD\test\Pain Drain\libraries\lvgl\src\draw\../misc/lv_color.h ****     uint32_t full;
 232:..\..\..\arduinoLCD\test\Pain Drain\libraries\lvgl\src\draw\../misc/lv_color.h **** } lv_color32_t;
 233:..\..\..\arduinoLCD\test\Pain Drain\libraries\lvgl\src\draw\../misc/lv_color.h **** 
 234:..\..\..\arduinoLCD\test\Pain Drain\libraries\lvgl\src\draw\../misc/lv_color.h **** typedef LV_CONCAT3(uint, LV_COLOR_SIZE, _t) lv_color_int_t;
 235:..\..\..\arduinoLCD\test\Pain Drain\libraries\lvgl\src\draw\../misc/lv_color.h **** typedef LV_CONCAT3(lv_color, LV_COLOR_DEPTH, _t) lv_color_t;
 236:..\..\..\arduinoLCD\test\Pain Drain\libraries\lvgl\src\draw\../misc/lv_color.h **** 
 237:..\..\..\arduinoLCD\test\Pain Drain\libraries\lvgl\src\draw\../misc/lv_color.h **** typedef struct {
 238:..\..\..\arduinoLCD\test\Pain Drain\libraries\lvgl\src\draw\../misc/lv_color.h ****     uint16_t h;
 239:..\..\..\arduinoLCD\test\Pain Drain\libraries\lvgl\src\draw\../misc/lv_color.h ****     uint8_t s;
 240:..\..\..\arduinoLCD\test\Pain Drain\libraries\lvgl\src\draw\../misc/lv_color.h ****     uint8_t v;
 241:..\..\..\arduinoLCD\test\Pain Drain\libraries\lvgl\src\draw\../misc/lv_color.h **** } lv_color_hsv_t;
 242:..\..\..\arduinoLCD\test\Pain Drain\libraries\lvgl\src\draw\../misc/lv_color.h **** 
 243:..\..\..\arduinoLCD\test\Pain Drain\libraries\lvgl\src\draw\../misc/lv_color.h **** //! @cond Doxygen_Suppress
ARM GAS  C:\Users\haske\AppData\Local\Temp\ccwuLgOR.s 			page 35


 244:..\..\..\arduinoLCD\test\Pain Drain\libraries\lvgl\src\draw\../misc/lv_color.h **** /*No idea where the guard is required but else throws warnings in the docs*/
 245:..\..\..\arduinoLCD\test\Pain Drain\libraries\lvgl\src\draw\../misc/lv_color.h **** typedef uint8_t lv_opa_t;
 246:..\..\..\arduinoLCD\test\Pain Drain\libraries\lvgl\src\draw\../misc/lv_color.h **** //! @endcond
 247:..\..\..\arduinoLCD\test\Pain Drain\libraries\lvgl\src\draw\../misc/lv_color.h **** 
 248:..\..\..\arduinoLCD\test\Pain Drain\libraries\lvgl\src\draw\../misc/lv_color.h **** struct _lv_color_filter_dsc_t;
 249:..\..\..\arduinoLCD\test\Pain Drain\libraries\lvgl\src\draw\../misc/lv_color.h **** 
 250:..\..\..\arduinoLCD\test\Pain Drain\libraries\lvgl\src\draw\../misc/lv_color.h **** typedef lv_color_t (*lv_color_filter_cb_t)(const struct _lv_color_filter_dsc_t *, lv_color_t, lv_op
 251:..\..\..\arduinoLCD\test\Pain Drain\libraries\lvgl\src\draw\../misc/lv_color.h **** 
 252:..\..\..\arduinoLCD\test\Pain Drain\libraries\lvgl\src\draw\../misc/lv_color.h **** typedef struct _lv_color_filter_dsc_t {
 253:..\..\..\arduinoLCD\test\Pain Drain\libraries\lvgl\src\draw\../misc/lv_color.h ****     lv_color_filter_cb_t filter_cb;
 254:..\..\..\arduinoLCD\test\Pain Drain\libraries\lvgl\src\draw\../misc/lv_color.h ****     void * user_data;
 255:..\..\..\arduinoLCD\test\Pain Drain\libraries\lvgl\src\draw\../misc/lv_color.h **** } lv_color_filter_dsc_t;
 256:..\..\..\arduinoLCD\test\Pain Drain\libraries\lvgl\src\draw\../misc/lv_color.h **** 
 257:..\..\..\arduinoLCD\test\Pain Drain\libraries\lvgl\src\draw\../misc/lv_color.h **** 
 258:..\..\..\arduinoLCD\test\Pain Drain\libraries\lvgl\src\draw\../misc/lv_color.h **** typedef enum {
 259:..\..\..\arduinoLCD\test\Pain Drain\libraries\lvgl\src\draw\../misc/lv_color.h ****     LV_PALETTE_RED,
 260:..\..\..\arduinoLCD\test\Pain Drain\libraries\lvgl\src\draw\../misc/lv_color.h ****     LV_PALETTE_PINK,
 261:..\..\..\arduinoLCD\test\Pain Drain\libraries\lvgl\src\draw\../misc/lv_color.h ****     LV_PALETTE_PURPLE,
 262:..\..\..\arduinoLCD\test\Pain Drain\libraries\lvgl\src\draw\../misc/lv_color.h ****     LV_PALETTE_DEEP_PURPLE,
 263:..\..\..\arduinoLCD\test\Pain Drain\libraries\lvgl\src\draw\../misc/lv_color.h ****     LV_PALETTE_INDIGO,
 264:..\..\..\arduinoLCD\test\Pain Drain\libraries\lvgl\src\draw\../misc/lv_color.h ****     LV_PALETTE_BLUE,
 265:..\..\..\arduinoLCD\test\Pain Drain\libraries\lvgl\src\draw\../misc/lv_color.h ****     LV_PALETTE_LIGHT_BLUE,
 266:..\..\..\arduinoLCD\test\Pain Drain\libraries\lvgl\src\draw\../misc/lv_color.h ****     LV_PALETTE_CYAN,
 267:..\..\..\arduinoLCD\test\Pain Drain\libraries\lvgl\src\draw\../misc/lv_color.h ****     LV_PALETTE_TEAL,
 268:..\..\..\arduinoLCD\test\Pain Drain\libraries\lvgl\src\draw\../misc/lv_color.h ****     LV_PALETTE_GREEN,
 269:..\..\..\arduinoLCD\test\Pain Drain\libraries\lvgl\src\draw\../misc/lv_color.h ****     LV_PALETTE_LIGHT_GREEN,
 270:..\..\..\arduinoLCD\test\Pain Drain\libraries\lvgl\src\draw\../misc/lv_color.h ****     LV_PALETTE_LIME,
 271:..\..\..\arduinoLCD\test\Pain Drain\libraries\lvgl\src\draw\../misc/lv_color.h ****     LV_PALETTE_YELLOW,
 272:..\..\..\arduinoLCD\test\Pain Drain\libraries\lvgl\src\draw\../misc/lv_color.h ****     LV_PALETTE_AMBER,
 273:..\..\..\arduinoLCD\test\Pain Drain\libraries\lvgl\src\draw\../misc/lv_color.h ****     LV_PALETTE_ORANGE,
 274:..\..\..\arduinoLCD\test\Pain Drain\libraries\lvgl\src\draw\../misc/lv_color.h ****     LV_PALETTE_DEEP_ORANGE,
 275:..\..\..\arduinoLCD\test\Pain Drain\libraries\lvgl\src\draw\../misc/lv_color.h ****     LV_PALETTE_BROWN,
 276:..\..\..\arduinoLCD\test\Pain Drain\libraries\lvgl\src\draw\../misc/lv_color.h ****     LV_PALETTE_BLUE_GREY,
 277:..\..\..\arduinoLCD\test\Pain Drain\libraries\lvgl\src\draw\../misc/lv_color.h ****     LV_PALETTE_GREY,
 278:..\..\..\arduinoLCD\test\Pain Drain\libraries\lvgl\src\draw\../misc/lv_color.h ****     _LV_PALETTE_LAST,
 279:..\..\..\arduinoLCD\test\Pain Drain\libraries\lvgl\src\draw\../misc/lv_color.h ****     LV_PALETTE_NONE = 0xff,
 280:..\..\..\arduinoLCD\test\Pain Drain\libraries\lvgl\src\draw\../misc/lv_color.h **** } lv_palette_t;
 281:..\..\..\arduinoLCD\test\Pain Drain\libraries\lvgl\src\draw\../misc/lv_color.h **** 
 282:..\..\..\arduinoLCD\test\Pain Drain\libraries\lvgl\src\draw\../misc/lv_color.h **** /**********************
 283:..\..\..\arduinoLCD\test\Pain Drain\libraries\lvgl\src\draw\../misc/lv_color.h ****  * GLOBAL PROTOTYPES
 284:..\..\..\arduinoLCD\test\Pain Drain\libraries\lvgl\src\draw\../misc/lv_color.h ****  **********************/
 285:..\..\..\arduinoLCD\test\Pain Drain\libraries\lvgl\src\draw\../misc/lv_color.h **** 
 286:..\..\..\arduinoLCD\test\Pain Drain\libraries\lvgl\src\draw\../misc/lv_color.h **** /*In color conversations:
 287:..\..\..\arduinoLCD\test\Pain Drain\libraries\lvgl\src\draw\../misc/lv_color.h ****  * - When converting to bigger color type the LSB weight of 1 LSB is calculated
 288:..\..\..\arduinoLCD\test\Pain Drain\libraries\lvgl\src\draw\../misc/lv_color.h ****  *   E.g. 16 bit Red has 5 bits
 289:..\..\..\arduinoLCD\test\Pain Drain\libraries\lvgl\src\draw\../misc/lv_color.h ****  *         8 bit Red has 3 bits
 290:..\..\..\arduinoLCD\test\Pain Drain\libraries\lvgl\src\draw\../misc/lv_color.h ****  *        ----------------------
 291:..\..\..\arduinoLCD\test\Pain Drain\libraries\lvgl\src\draw\../misc/lv_color.h ****  *        8 bit red LSB = (2^5 - 1) / (2^3 - 1) = 31 / 7 = 4
 292:..\..\..\arduinoLCD\test\Pain Drain\libraries\lvgl\src\draw\../misc/lv_color.h ****  *
 293:..\..\..\arduinoLCD\test\Pain Drain\libraries\lvgl\src\draw\../misc/lv_color.h ****  * - When calculating to smaller color type simply shift out the LSBs
 294:..\..\..\arduinoLCD\test\Pain Drain\libraries\lvgl\src\draw\../misc/lv_color.h ****  *   E.g.  8 bit Red has 3 bits
 295:..\..\..\arduinoLCD\test\Pain Drain\libraries\lvgl\src\draw\../misc/lv_color.h ****  *        16 bit Red has 5 bits
 296:..\..\..\arduinoLCD\test\Pain Drain\libraries\lvgl\src\draw\../misc/lv_color.h ****  *        ----------------------
 297:..\..\..\arduinoLCD\test\Pain Drain\libraries\lvgl\src\draw\../misc/lv_color.h ****  *         Shift right with 5 - 3 = 2
 298:..\..\..\arduinoLCD\test\Pain Drain\libraries\lvgl\src\draw\../misc/lv_color.h ****  */
 299:..\..\..\arduinoLCD\test\Pain Drain\libraries\lvgl\src\draw\../misc/lv_color.h **** static inline uint8_t lv_color_to1(lv_color_t color)
 300:..\..\..\arduinoLCD\test\Pain Drain\libraries\lvgl\src\draw\../misc/lv_color.h **** {
ARM GAS  C:\Users\haske\AppData\Local\Temp\ccwuLgOR.s 			page 36


 301:..\..\..\arduinoLCD\test\Pain Drain\libraries\lvgl\src\draw\../misc/lv_color.h **** #if LV_COLOR_DEPTH == 1
 302:..\..\..\arduinoLCD\test\Pain Drain\libraries\lvgl\src\draw\../misc/lv_color.h ****     return color.full;
 303:..\..\..\arduinoLCD\test\Pain Drain\libraries\lvgl\src\draw\../misc/lv_color.h **** #elif LV_COLOR_DEPTH == 8
 304:..\..\..\arduinoLCD\test\Pain Drain\libraries\lvgl\src\draw\../misc/lv_color.h ****     if((LV_COLOR_GET_R(color) & 0x4) || (LV_COLOR_GET_G(color) & 0x4) || (LV_COLOR_GET_B(color) & 0
 305:..\..\..\arduinoLCD\test\Pain Drain\libraries\lvgl\src\draw\../misc/lv_color.h ****         return 1;
 306:..\..\..\arduinoLCD\test\Pain Drain\libraries\lvgl\src\draw\../misc/lv_color.h ****     }
 307:..\..\..\arduinoLCD\test\Pain Drain\libraries\lvgl\src\draw\../misc/lv_color.h ****     else {
 308:..\..\..\arduinoLCD\test\Pain Drain\libraries\lvgl\src\draw\../misc/lv_color.h ****         return 0;
 309:..\..\..\arduinoLCD\test\Pain Drain\libraries\lvgl\src\draw\../misc/lv_color.h ****     }
 310:..\..\..\arduinoLCD\test\Pain Drain\libraries\lvgl\src\draw\../misc/lv_color.h **** #elif LV_COLOR_DEPTH == 16
 311:..\..\..\arduinoLCD\test\Pain Drain\libraries\lvgl\src\draw\../misc/lv_color.h ****     if((LV_COLOR_GET_R(color) & 0x10) || (LV_COLOR_GET_G(color) & 0x20) || (LV_COLOR_GET_B(color) &
 312:..\..\..\arduinoLCD\test\Pain Drain\libraries\lvgl\src\draw\../misc/lv_color.h ****         return 1;
 313:..\..\..\arduinoLCD\test\Pain Drain\libraries\lvgl\src\draw\../misc/lv_color.h ****     }
 314:..\..\..\arduinoLCD\test\Pain Drain\libraries\lvgl\src\draw\../misc/lv_color.h ****     else {
 315:..\..\..\arduinoLCD\test\Pain Drain\libraries\lvgl\src\draw\../misc/lv_color.h ****         return 0;
 316:..\..\..\arduinoLCD\test\Pain Drain\libraries\lvgl\src\draw\../misc/lv_color.h ****     }
 317:..\..\..\arduinoLCD\test\Pain Drain\libraries\lvgl\src\draw\../misc/lv_color.h **** #elif LV_COLOR_DEPTH == 32
 318:..\..\..\arduinoLCD\test\Pain Drain\libraries\lvgl\src\draw\../misc/lv_color.h ****     if((LV_COLOR_GET_R(color) & 0x80) || (LV_COLOR_GET_G(color) & 0x80) || (LV_COLOR_GET_B(color) &
 319:..\..\..\arduinoLCD\test\Pain Drain\libraries\lvgl\src\draw\../misc/lv_color.h ****         return 1;
 320:..\..\..\arduinoLCD\test\Pain Drain\libraries\lvgl\src\draw\../misc/lv_color.h ****     }
 321:..\..\..\arduinoLCD\test\Pain Drain\libraries\lvgl\src\draw\../misc/lv_color.h ****     else {
 322:..\..\..\arduinoLCD\test\Pain Drain\libraries\lvgl\src\draw\../misc/lv_color.h ****         return 0;
 323:..\..\..\arduinoLCD\test\Pain Drain\libraries\lvgl\src\draw\../misc/lv_color.h ****     }
 324:..\..\..\arduinoLCD\test\Pain Drain\libraries\lvgl\src\draw\../misc/lv_color.h **** #endif
 325:..\..\..\arduinoLCD\test\Pain Drain\libraries\lvgl\src\draw\../misc/lv_color.h **** }
 326:..\..\..\arduinoLCD\test\Pain Drain\libraries\lvgl\src\draw\../misc/lv_color.h **** 
 327:..\..\..\arduinoLCD\test\Pain Drain\libraries\lvgl\src\draw\../misc/lv_color.h **** static inline uint8_t lv_color_to8(lv_color_t color)
 328:..\..\..\arduinoLCD\test\Pain Drain\libraries\lvgl\src\draw\../misc/lv_color.h **** {
 329:..\..\..\arduinoLCD\test\Pain Drain\libraries\lvgl\src\draw\../misc/lv_color.h **** #if LV_COLOR_DEPTH == 1
 330:..\..\..\arduinoLCD\test\Pain Drain\libraries\lvgl\src\draw\../misc/lv_color.h ****     if(color.full == 0)
 331:..\..\..\arduinoLCD\test\Pain Drain\libraries\lvgl\src\draw\../misc/lv_color.h ****         return 0;
 332:..\..\..\arduinoLCD\test\Pain Drain\libraries\lvgl\src\draw\../misc/lv_color.h ****     else
 333:..\..\..\arduinoLCD\test\Pain Drain\libraries\lvgl\src\draw\../misc/lv_color.h ****         return 0xFF;
 334:..\..\..\arduinoLCD\test\Pain Drain\libraries\lvgl\src\draw\../misc/lv_color.h **** #elif LV_COLOR_DEPTH == 8
 335:..\..\..\arduinoLCD\test\Pain Drain\libraries\lvgl\src\draw\../misc/lv_color.h ****     return color.full;
 336:..\..\..\arduinoLCD\test\Pain Drain\libraries\lvgl\src\draw\../misc/lv_color.h **** #elif LV_COLOR_DEPTH == 16
 337:..\..\..\arduinoLCD\test\Pain Drain\libraries\lvgl\src\draw\../misc/lv_color.h ****     lv_color8_t ret;
 338:..\..\..\arduinoLCD\test\Pain Drain\libraries\lvgl\src\draw\../misc/lv_color.h ****     LV_COLOR_SET_R8(ret, LV_COLOR_GET_R(color) >> 2); /*5 - 3  = 2*/
 339:..\..\..\arduinoLCD\test\Pain Drain\libraries\lvgl\src\draw\../misc/lv_color.h ****     LV_COLOR_SET_G8(ret, LV_COLOR_GET_G(color) >> 3); /*6 - 3  = 3*/
 340:..\..\..\arduinoLCD\test\Pain Drain\libraries\lvgl\src\draw\../misc/lv_color.h ****     LV_COLOR_SET_B8(ret, LV_COLOR_GET_B(color) >> 3); /*5 - 2  = 3*/
 341:..\..\..\arduinoLCD\test\Pain Drain\libraries\lvgl\src\draw\../misc/lv_color.h ****     return ret.full;
 342:..\..\..\arduinoLCD\test\Pain Drain\libraries\lvgl\src\draw\../misc/lv_color.h **** #elif LV_COLOR_DEPTH == 32
 343:..\..\..\arduinoLCD\test\Pain Drain\libraries\lvgl\src\draw\../misc/lv_color.h ****     lv_color8_t ret;
 344:..\..\..\arduinoLCD\test\Pain Drain\libraries\lvgl\src\draw\../misc/lv_color.h ****     LV_COLOR_SET_R8(ret, LV_COLOR_GET_R(color) >> 5); /*8 - 3  = 5*/
 345:..\..\..\arduinoLCD\test\Pain Drain\libraries\lvgl\src\draw\../misc/lv_color.h ****     LV_COLOR_SET_G8(ret, LV_COLOR_GET_G(color) >> 5); /*8 - 3  = 5*/
 346:..\..\..\arduinoLCD\test\Pain Drain\libraries\lvgl\src\draw\../misc/lv_color.h ****     LV_COLOR_SET_B8(ret, LV_COLOR_GET_B(color) >> 6); /*8 - 2  = 6*/
 347:..\..\..\arduinoLCD\test\Pain Drain\libraries\lvgl\src\draw\../misc/lv_color.h ****     return ret.full;
 348:..\..\..\arduinoLCD\test\Pain Drain\libraries\lvgl\src\draw\../misc/lv_color.h **** #endif
 349:..\..\..\arduinoLCD\test\Pain Drain\libraries\lvgl\src\draw\../misc/lv_color.h **** }
 350:..\..\..\arduinoLCD\test\Pain Drain\libraries\lvgl\src\draw\../misc/lv_color.h **** 
 351:..\..\..\arduinoLCD\test\Pain Drain\libraries\lvgl\src\draw\../misc/lv_color.h **** static inline uint16_t lv_color_to16(lv_color_t color)
 352:..\..\..\arduinoLCD\test\Pain Drain\libraries\lvgl\src\draw\../misc/lv_color.h **** {
 353:..\..\..\arduinoLCD\test\Pain Drain\libraries\lvgl\src\draw\../misc/lv_color.h **** #if LV_COLOR_DEPTH == 1
 354:..\..\..\arduinoLCD\test\Pain Drain\libraries\lvgl\src\draw\../misc/lv_color.h ****     if(color.full == 0)
 355:..\..\..\arduinoLCD\test\Pain Drain\libraries\lvgl\src\draw\../misc/lv_color.h ****         return 0;
 356:..\..\..\arduinoLCD\test\Pain Drain\libraries\lvgl\src\draw\../misc/lv_color.h ****     else
 357:..\..\..\arduinoLCD\test\Pain Drain\libraries\lvgl\src\draw\../misc/lv_color.h ****         return 0xFFFF;
ARM GAS  C:\Users\haske\AppData\Local\Temp\ccwuLgOR.s 			page 37


 358:..\..\..\arduinoLCD\test\Pain Drain\libraries\lvgl\src\draw\../misc/lv_color.h **** #elif LV_COLOR_DEPTH == 8
 359:..\..\..\arduinoLCD\test\Pain Drain\libraries\lvgl\src\draw\../misc/lv_color.h ****     lv_color16_t ret;
 360:..\..\..\arduinoLCD\test\Pain Drain\libraries\lvgl\src\draw\../misc/lv_color.h ****     LV_COLOR_SET_R16(ret, LV_COLOR_GET_R(color) * 4);  /*(2^5 - 1)/(2^3 - 1) = 31/7 = 4*/
 361:..\..\..\arduinoLCD\test\Pain Drain\libraries\lvgl\src\draw\../misc/lv_color.h ****     LV_COLOR_SET_G16(ret, LV_COLOR_GET_G(color) * 9);  /*(2^6 - 1)/(2^3 - 1) = 63/7 = 9*/
 362:..\..\..\arduinoLCD\test\Pain Drain\libraries\lvgl\src\draw\../misc/lv_color.h ****     LV_COLOR_SET_B16(ret, LV_COLOR_GET_B(color) * 10); /*(2^5 - 1)/(2^2 - 1) = 31/3 = 10*/
 363:..\..\..\arduinoLCD\test\Pain Drain\libraries\lvgl\src\draw\../misc/lv_color.h ****     return ret.full;
 364:..\..\..\arduinoLCD\test\Pain Drain\libraries\lvgl\src\draw\../misc/lv_color.h **** #elif LV_COLOR_DEPTH == 16
 365:..\..\..\arduinoLCD\test\Pain Drain\libraries\lvgl\src\draw\../misc/lv_color.h ****     return color.full;
 366:..\..\..\arduinoLCD\test\Pain Drain\libraries\lvgl\src\draw\../misc/lv_color.h **** #elif LV_COLOR_DEPTH == 32
 367:..\..\..\arduinoLCD\test\Pain Drain\libraries\lvgl\src\draw\../misc/lv_color.h ****     lv_color16_t ret;
 368:..\..\..\arduinoLCD\test\Pain Drain\libraries\lvgl\src\draw\../misc/lv_color.h ****     LV_COLOR_SET_R16(ret, LV_COLOR_GET_R(color) >> 3); /*8 - 5  = 3*/
 369:..\..\..\arduinoLCD\test\Pain Drain\libraries\lvgl\src\draw\../misc/lv_color.h ****     LV_COLOR_SET_G16(ret, LV_COLOR_GET_G(color) >> 2); /*8 - 6  = 2*/
 370:..\..\..\arduinoLCD\test\Pain Drain\libraries\lvgl\src\draw\../misc/lv_color.h ****     LV_COLOR_SET_B16(ret, LV_COLOR_GET_B(color) >> 3); /*8 - 5  = 3*/
 371:..\..\..\arduinoLCD\test\Pain Drain\libraries\lvgl\src\draw\../misc/lv_color.h ****     return ret.full;
 372:..\..\..\arduinoLCD\test\Pain Drain\libraries\lvgl\src\draw\../misc/lv_color.h **** #endif
 373:..\..\..\arduinoLCD\test\Pain Drain\libraries\lvgl\src\draw\../misc/lv_color.h **** }
 374:..\..\..\arduinoLCD\test\Pain Drain\libraries\lvgl\src\draw\../misc/lv_color.h **** 
 375:..\..\..\arduinoLCD\test\Pain Drain\libraries\lvgl\src\draw\../misc/lv_color.h **** static inline uint32_t lv_color_to32(lv_color_t color)
 376:..\..\..\arduinoLCD\test\Pain Drain\libraries\lvgl\src\draw\../misc/lv_color.h **** {
 377:..\..\..\arduinoLCD\test\Pain Drain\libraries\lvgl\src\draw\../misc/lv_color.h **** #if LV_COLOR_DEPTH == 1
 378:..\..\..\arduinoLCD\test\Pain Drain\libraries\lvgl\src\draw\../misc/lv_color.h ****     if(color.full == 0)
 379:..\..\..\arduinoLCD\test\Pain Drain\libraries\lvgl\src\draw\../misc/lv_color.h ****         return 0xFF000000;
 380:..\..\..\arduinoLCD\test\Pain Drain\libraries\lvgl\src\draw\../misc/lv_color.h ****     else
 381:..\..\..\arduinoLCD\test\Pain Drain\libraries\lvgl\src\draw\../misc/lv_color.h ****         return 0xFFFFFFFF;
 382:..\..\..\arduinoLCD\test\Pain Drain\libraries\lvgl\src\draw\../misc/lv_color.h **** #elif LV_COLOR_DEPTH == 8
 383:..\..\..\arduinoLCD\test\Pain Drain\libraries\lvgl\src\draw\../misc/lv_color.h ****     lv_color32_t ret;
 384:..\..\..\arduinoLCD\test\Pain Drain\libraries\lvgl\src\draw\../misc/lv_color.h ****     LV_COLOR_SET_R32(ret, LV_COLOR_GET_R(color) * 36); /*(2^8 - 1)/(2^3 - 1) = 255/7 = 36*/
 385:..\..\..\arduinoLCD\test\Pain Drain\libraries\lvgl\src\draw\../misc/lv_color.h ****     LV_COLOR_SET_G32(ret, LV_COLOR_GET_G(color) * 36); /*(2^8 - 1)/(2^3 - 1) = 255/7 = 36*/
 386:..\..\..\arduinoLCD\test\Pain Drain\libraries\lvgl\src\draw\../misc/lv_color.h ****     LV_COLOR_SET_B32(ret, LV_COLOR_GET_B(color) * 85); /*(2^8 - 1)/(2^2 - 1) = 255/3 = 85*/
 387:..\..\..\arduinoLCD\test\Pain Drain\libraries\lvgl\src\draw\../misc/lv_color.h ****     LV_COLOR_SET_A32(ret, 0xFF);
 388:..\..\..\arduinoLCD\test\Pain Drain\libraries\lvgl\src\draw\../misc/lv_color.h ****     return ret.full;
 389:..\..\..\arduinoLCD\test\Pain Drain\libraries\lvgl\src\draw\../misc/lv_color.h **** #elif LV_COLOR_DEPTH == 16
 390:..\..\..\arduinoLCD\test\Pain Drain\libraries\lvgl\src\draw\../misc/lv_color.h ****     /**
 391:..\..\..\arduinoLCD\test\Pain Drain\libraries\lvgl\src\draw\../misc/lv_color.h ****      * The floating point math for conversion is:
 392:..\..\..\arduinoLCD\test\Pain Drain\libraries\lvgl\src\draw\../misc/lv_color.h ****      *  valueto = valuefrom * ( (2^bitsto - 1) / (float)(2^bitsfrom - 1) )
 393:..\..\..\arduinoLCD\test\Pain Drain\libraries\lvgl\src\draw\../misc/lv_color.h ****      * The faster integer math for conversion is:
 394:..\..\..\arduinoLCD\test\Pain Drain\libraries\lvgl\src\draw\../misc/lv_color.h ****      *  valueto = ( valuefrom * multiplier + adder ) >> divisor
 395:..\..\..\arduinoLCD\test\Pain Drain\libraries\lvgl\src\draw\../misc/lv_color.h ****      *   multiplier = FLOOR( ( (2^bitsto - 1) << divisor ) / (float)(2^bitsfrom - 1) )
 396:..\..\..\arduinoLCD\test\Pain Drain\libraries\lvgl\src\draw\../misc/lv_color.h ****      *
 397:..\..\..\arduinoLCD\test\Pain Drain\libraries\lvgl\src\draw\../misc/lv_color.h ****      * Find the first divisor where ( adder >> divisor ) <= 0
 398:..\..\..\arduinoLCD\test\Pain Drain\libraries\lvgl\src\draw\../misc/lv_color.h ****      *
 399:..\..\..\arduinoLCD\test\Pain Drain\libraries\lvgl\src\draw\../misc/lv_color.h ****      * 5-bit to 8-bit: ( 31 * multiplier + adder ) >> divisor = 255
 400:..\..\..\arduinoLCD\test\Pain Drain\libraries\lvgl\src\draw\../misc/lv_color.h ****      * divisor  multiplier  adder  min (0)  max (31)
 401:..\..\..\arduinoLCD\test\Pain Drain\libraries\lvgl\src\draw\../misc/lv_color.h ****      *       0           8      7        7       255
 402:..\..\..\arduinoLCD\test\Pain Drain\libraries\lvgl\src\draw\../misc/lv_color.h ****      *       1          16     14        7       255
 403:..\..\..\arduinoLCD\test\Pain Drain\libraries\lvgl\src\draw\../misc/lv_color.h ****      *       2          32     28        7       255
 404:..\..\..\arduinoLCD\test\Pain Drain\libraries\lvgl\src\draw\../misc/lv_color.h ****      *       3          65     25        3       255
 405:..\..\..\arduinoLCD\test\Pain Drain\libraries\lvgl\src\draw\../misc/lv_color.h ****      *       4         131     19        1       255
 406:..\..\..\arduinoLCD\test\Pain Drain\libraries\lvgl\src\draw\../misc/lv_color.h ****      *       5         263      7        0       255
 407:..\..\..\arduinoLCD\test\Pain Drain\libraries\lvgl\src\draw\../misc/lv_color.h ****      *
 408:..\..\..\arduinoLCD\test\Pain Drain\libraries\lvgl\src\draw\../misc/lv_color.h ****      * 6-bit to 8-bit: 255 = ( 63 * multiplier + adder ) >> divisor
 409:..\..\..\arduinoLCD\test\Pain Drain\libraries\lvgl\src\draw\../misc/lv_color.h ****      * divisor  multiplier  adder  min (0)  max (63)
 410:..\..\..\arduinoLCD\test\Pain Drain\libraries\lvgl\src\draw\../misc/lv_color.h ****      *       0           4      3        3       255
 411:..\..\..\arduinoLCD\test\Pain Drain\libraries\lvgl\src\draw\../misc/lv_color.h ****      *       1           8      6        3       255
 412:..\..\..\arduinoLCD\test\Pain Drain\libraries\lvgl\src\draw\../misc/lv_color.h ****      *       2          16     12        3       255
 413:..\..\..\arduinoLCD\test\Pain Drain\libraries\lvgl\src\draw\../misc/lv_color.h ****      *       3          32     24        3       255
 414:..\..\..\arduinoLCD\test\Pain Drain\libraries\lvgl\src\draw\../misc/lv_color.h ****      *       4          64     48        3       255
ARM GAS  C:\Users\haske\AppData\Local\Temp\ccwuLgOR.s 			page 38


 415:..\..\..\arduinoLCD\test\Pain Drain\libraries\lvgl\src\draw\../misc/lv_color.h ****      *       5         129     33        1       255
 416:..\..\..\arduinoLCD\test\Pain Drain\libraries\lvgl\src\draw\../misc/lv_color.h ****      *       6         259      3        0       255
 417:..\..\..\arduinoLCD\test\Pain Drain\libraries\lvgl\src\draw\../misc/lv_color.h ****      */
 418:..\..\..\arduinoLCD\test\Pain Drain\libraries\lvgl\src\draw\../misc/lv_color.h **** 
 419:..\..\..\arduinoLCD\test\Pain Drain\libraries\lvgl\src\draw\../misc/lv_color.h ****     lv_color32_t ret;
 420:..\..\..\arduinoLCD\test\Pain Drain\libraries\lvgl\src\draw\../misc/lv_color.h ****     LV_COLOR_SET_R32(ret, (LV_COLOR_GET_R(color) * 263 + 7) >> 5);
 1168              		.loc 3 420 0 is_stmt 1
 1169 0026 1504     		lsls	r5, r2, #16
 1170 0028 EB0E     		lsrs	r3, r5, #27
 1171 002a 5D01     		lsls	r5, r3, #5
 1172 002c ED18     		adds	r5, r5, r3
 1173 002e ED00     		lsls	r5, r5, #3
 1174 0030 ED1A     		subs	r5, r5, r3
 1175 0032 0735     		adds	r5, r5, #7
 1176 0034 6D11     		asrs	r5, r5, #5
 1177 0036 EDB2     		uxtb	r5, r5
 421:..\..\..\arduinoLCD\test\Pain Drain\libraries\lvgl\src\draw\../misc/lv_color.h ****     LV_COLOR_SET_G32(ret, (LV_COLOR_GET_G(color) * 259 + 3) >> 6);
 1178              		.loc 3 421 0
 1179 0038 5305     		lsls	r3, r2, #21
 1180 003a 9B0E     		lsrs	r3, r3, #26
 1181 003c DC01     		lsls	r4, r3, #7
 1182 003e E418     		adds	r4, r4, r3
 1183 0040 6400     		lsls	r4, r4, #1
 1184 0042 E318     		adds	r3, r4, r3
 1185 0044 0333     		adds	r3, r3, #3
 1186 0046 9B11     		asrs	r3, r3, #6
 1187 0048 DBB2     		uxtb	r3, r3
 1188 004a 1B02     		lsls	r3, r3, #8
 1189 004c 2D04     		lsls	r5, r5, #16
 422:..\..\..\arduinoLCD\test\Pain Drain\libraries\lvgl\src\draw\../misc/lv_color.h ****     LV_COLOR_SET_B32(ret, (LV_COLOR_GET_B(color) * 263 + 7) >> 5);
 1190              		.loc 3 422 0
 1191 004e D206     		lsls	r2, r2, #27
 1192              	.LVL213:
 1193 0050 D60E     		lsrs	r6, r2, #27
 1194 0052 7401     		lsls	r4, r6, #5
 1195 0054 A219     		adds	r2, r4, r6
 1196 0056 D400     		lsls	r4, r2, #3
 1197 0058 A21B     		subs	r2, r4, r6
 1198 005a 0732     		adds	r2, r2, #7
 1199 005c 5211     		asrs	r2, r2, #5
 1200 005e D2B2     		uxtb	r2, r2
 1201 0060 2B43     		orrs	r3, r5
 1202 0062 1343     		orrs	r3, r2
 1203              	.LVL214:
 423:..\..\..\arduinoLCD\test\Pain Drain\libraries\lvgl\src\draw\../misc/lv_color.h ****     LV_COLOR_SET_A32(ret, 0xFF);
 1204              		.loc 3 423 0
 1205 0064 FF22     		movs	r2, #255
 1206 0066 1206     		lsls	r2, r2, #24
 1207              	.LVL215:
 1208 0068 1343     		orrs	r3, r2
 1209              	.LVL216:
 1210              	.LBE60:
 1211              	.LBE59:
 313:..\..\..\arduinoLCD\test\Pain Drain\libraries\lvgl\src\draw/lv_img_buf.c ****         LV_LOG_WARN("lv_img_buf_set_px_alpha: invalid 'id'");
 314:..\..\..\arduinoLCD\test\Pain Drain\libraries\lvgl\src\draw/lv_img_buf.c ****         return;
 315:..\..\..\arduinoLCD\test\Pain Drain\libraries\lvgl\src\draw/lv_img_buf.c ****     }
 316:..\..\..\arduinoLCD\test\Pain Drain\libraries\lvgl\src\draw/lv_img_buf.c **** 
ARM GAS  C:\Users\haske\AppData\Local\Temp\ccwuLgOR.s 			page 39


 317:..\..\..\arduinoLCD\test\Pain Drain\libraries\lvgl\src\draw/lv_img_buf.c ****     lv_color32_t c32;
 318:..\..\..\arduinoLCD\test\Pain Drain\libraries\lvgl\src\draw/lv_img_buf.c ****     c32.full      = lv_color_to32(c);
 1212              		.loc 1 318 0
 1213 006a 0193     		str	r3, [sp, #4]
 319:..\..\..\arduinoLCD\test\Pain Drain\libraries\lvgl\src\draw/lv_img_buf.c ****     uint8_t * buf = (uint8_t *)dsc->data;
 1214              		.loc 1 319 0
 1215 006c 8368     		ldr	r3, [r0, #8]
 1216              	.LVL217:
 320:..\..\..\arduinoLCD\test\Pain Drain\libraries\lvgl\src\draw/lv_img_buf.c ****     lv_memcpy_small(&buf[id * sizeof(c32)], &c32, sizeof(c32));
 1217              		.loc 1 320 0
 1218 006e 8900     		lsls	r1, r1, #2
 1219              	.LVL218:
 1220 0070 5918     		adds	r1, r3, r1
 1221              	.LVL219:
 1222              	.LBB61:
 1223              	.LBB62:
 197:..\..\..\arduinoLCD\test\Pain Drain\libraries\lvgl\src\draw\../misc/lv_mem.h **** 
 1224              		.loc 2 197 0
 1225 0072 01AA     		add	r2, sp, #4
 1226              	.LVL220:
 1227              	.LBE62:
 1228              	.LBE61:
 1229              		.loc 1 320 0
 1230 0074 0423     		movs	r3, #4
 1231              	.LVL221:
 1232 0076 04E0     		b	.L44
 1233              	.LVL222:
 1234              	.L45:
 1235              	.LBB64:
 1236              	.LBB63:
 200:..\..\..\arduinoLCD\test\Pain Drain\libraries\lvgl\src\draw\../misc/lv_mem.h ****         d8++;
 1237              		.loc 2 200 0
 1238 0078 1078     		ldrb	r0, [r2]
 1239 007a 0870     		strb	r0, [r1]
 201:..\..\..\arduinoLCD\test\Pain Drain\libraries\lvgl\src\draw\../misc/lv_mem.h ****         s8++;
 1240              		.loc 2 201 0
 1241 007c 0131     		adds	r1, r1, #1
 1242              	.LVL223:
 202:..\..\..\arduinoLCD\test\Pain Drain\libraries\lvgl\src\draw\../misc/lv_mem.h ****         len--;
 1243              		.loc 2 202 0
 1244 007e 0132     		adds	r2, r2, #1
 1245              	.LVL224:
 1246              		.loc 2 203 0
 1247 0080 013B     		subs	r3, r3, #1
 1248              	.LVL225:
 1249              	.L44:
 199:..\..\..\arduinoLCD\test\Pain Drain\libraries\lvgl\src\draw\../misc/lv_mem.h ****         *d8 = *s8;
 1250              		.loc 2 199 0
 1251 0082 002B     		cmp	r3, #0
 1252 0084 F8D1     		bne	.L45
 1253              	.LVL226:
 1254              	.L39:
 1255              	.LBE63:
 1256              	.LBE64:
 321:..\..\..\arduinoLCD\test\Pain Drain\libraries\lvgl\src\draw/lv_img_buf.c **** }
 1257              		.loc 1 321 0
 1258 0086 02B0     		add	sp, sp, #8
ARM GAS  C:\Users\haske\AppData\Local\Temp\ccwuLgOR.s 			page 40


 1259              		@ sp needed
 1260 0088 70BD     		pop	{r4, r5, r6, pc}
 1261              		.cfi_endproc
 1262              	.LFE58:
 1263              		.size	lv_img_buf_set_palette, .-lv_img_buf_set_palette
 1264 008a C046     		.section	.text.lv_img_buf_free,"ax",%progbits
 1265              		.align	2
 1266              		.global	lv_img_buf_free
 1267              		.code	16
 1268              		.thumb_func
 1269              		.type	lv_img_buf_free, %function
 1270              	lv_img_buf_free:
 1271              	.LFB60:
 322:..\..\..\arduinoLCD\test\Pain Drain\libraries\lvgl\src\draw/lv_img_buf.c **** 
 323:..\..\..\arduinoLCD\test\Pain Drain\libraries\lvgl\src\draw/lv_img_buf.c **** /**
 324:..\..\..\arduinoLCD\test\Pain Drain\libraries\lvgl\src\draw/lv_img_buf.c ****  * Allocate an image buffer in RAM
 325:..\..\..\arduinoLCD\test\Pain Drain\libraries\lvgl\src\draw/lv_img_buf.c ****  * @param w width of image
 326:..\..\..\arduinoLCD\test\Pain Drain\libraries\lvgl\src\draw/lv_img_buf.c ****  * @param h height of image
 327:..\..\..\arduinoLCD\test\Pain Drain\libraries\lvgl\src\draw/lv_img_buf.c ****  * @param cf a color format (`LV_IMG_CF_...`)
 328:..\..\..\arduinoLCD\test\Pain Drain\libraries\lvgl\src\draw/lv_img_buf.c ****  * @return an allocated image, or NULL on failure
 329:..\..\..\arduinoLCD\test\Pain Drain\libraries\lvgl\src\draw/lv_img_buf.c ****  */
 330:..\..\..\arduinoLCD\test\Pain Drain\libraries\lvgl\src\draw/lv_img_buf.c **** lv_img_dsc_t * lv_img_buf_alloc(lv_coord_t w, lv_coord_t h, lv_img_cf_t cf)
 331:..\..\..\arduinoLCD\test\Pain Drain\libraries\lvgl\src\draw/lv_img_buf.c **** {
 332:..\..\..\arduinoLCD\test\Pain Drain\libraries\lvgl\src\draw/lv_img_buf.c ****     /*Allocate image descriptor*/
 333:..\..\..\arduinoLCD\test\Pain Drain\libraries\lvgl\src\draw/lv_img_buf.c ****     lv_img_dsc_t * dsc = lv_mem_alloc(sizeof(lv_img_dsc_t));
 334:..\..\..\arduinoLCD\test\Pain Drain\libraries\lvgl\src\draw/lv_img_buf.c ****     if(dsc == NULL)
 335:..\..\..\arduinoLCD\test\Pain Drain\libraries\lvgl\src\draw/lv_img_buf.c ****         return NULL;
 336:..\..\..\arduinoLCD\test\Pain Drain\libraries\lvgl\src\draw/lv_img_buf.c **** 
 337:..\..\..\arduinoLCD\test\Pain Drain\libraries\lvgl\src\draw/lv_img_buf.c ****     lv_memset_00(dsc, sizeof(lv_img_dsc_t));
 338:..\..\..\arduinoLCD\test\Pain Drain\libraries\lvgl\src\draw/lv_img_buf.c **** 
 339:..\..\..\arduinoLCD\test\Pain Drain\libraries\lvgl\src\draw/lv_img_buf.c ****     /*Get image data size*/
 340:..\..\..\arduinoLCD\test\Pain Drain\libraries\lvgl\src\draw/lv_img_buf.c ****     dsc->data_size = lv_img_buf_get_img_size(w, h, cf);
 341:..\..\..\arduinoLCD\test\Pain Drain\libraries\lvgl\src\draw/lv_img_buf.c ****     if(dsc->data_size == 0) {
 342:..\..\..\arduinoLCD\test\Pain Drain\libraries\lvgl\src\draw/lv_img_buf.c ****         lv_mem_free(dsc);
 343:..\..\..\arduinoLCD\test\Pain Drain\libraries\lvgl\src\draw/lv_img_buf.c ****         return NULL;
 344:..\..\..\arduinoLCD\test\Pain Drain\libraries\lvgl\src\draw/lv_img_buf.c ****     }
 345:..\..\..\arduinoLCD\test\Pain Drain\libraries\lvgl\src\draw/lv_img_buf.c **** 
 346:..\..\..\arduinoLCD\test\Pain Drain\libraries\lvgl\src\draw/lv_img_buf.c ****     /*Allocate raw buffer*/
 347:..\..\..\arduinoLCD\test\Pain Drain\libraries\lvgl\src\draw/lv_img_buf.c ****     dsc->data = lv_mem_alloc(dsc->data_size);
 348:..\..\..\arduinoLCD\test\Pain Drain\libraries\lvgl\src\draw/lv_img_buf.c ****     if(dsc->data == NULL) {
 349:..\..\..\arduinoLCD\test\Pain Drain\libraries\lvgl\src\draw/lv_img_buf.c ****         lv_mem_free(dsc);
 350:..\..\..\arduinoLCD\test\Pain Drain\libraries\lvgl\src\draw/lv_img_buf.c ****         return NULL;
 351:..\..\..\arduinoLCD\test\Pain Drain\libraries\lvgl\src\draw/lv_img_buf.c ****     }
 352:..\..\..\arduinoLCD\test\Pain Drain\libraries\lvgl\src\draw/lv_img_buf.c ****     lv_memset_00((uint8_t *)dsc->data, dsc->data_size);
 353:..\..\..\arduinoLCD\test\Pain Drain\libraries\lvgl\src\draw/lv_img_buf.c **** 
 354:..\..\..\arduinoLCD\test\Pain Drain\libraries\lvgl\src\draw/lv_img_buf.c ****     /*Fill in header*/
 355:..\..\..\arduinoLCD\test\Pain Drain\libraries\lvgl\src\draw/lv_img_buf.c ****     dsc->header.always_zero = 0;
 356:..\..\..\arduinoLCD\test\Pain Drain\libraries\lvgl\src\draw/lv_img_buf.c ****     dsc->header.w = w;
 357:..\..\..\arduinoLCD\test\Pain Drain\libraries\lvgl\src\draw/lv_img_buf.c ****     dsc->header.h = h;
 358:..\..\..\arduinoLCD\test\Pain Drain\libraries\lvgl\src\draw/lv_img_buf.c ****     dsc->header.cf = cf;
 359:..\..\..\arduinoLCD\test\Pain Drain\libraries\lvgl\src\draw/lv_img_buf.c ****     return dsc;
 360:..\..\..\arduinoLCD\test\Pain Drain\libraries\lvgl\src\draw/lv_img_buf.c **** }
 361:..\..\..\arduinoLCD\test\Pain Drain\libraries\lvgl\src\draw/lv_img_buf.c **** 
 362:..\..\..\arduinoLCD\test\Pain Drain\libraries\lvgl\src\draw/lv_img_buf.c **** /**
 363:..\..\..\arduinoLCD\test\Pain Drain\libraries\lvgl\src\draw/lv_img_buf.c ****  * Free an allocated image buffer
 364:..\..\..\arduinoLCD\test\Pain Drain\libraries\lvgl\src\draw/lv_img_buf.c ****  * @param dsc image buffer to free
 365:..\..\..\arduinoLCD\test\Pain Drain\libraries\lvgl\src\draw/lv_img_buf.c ****  */
ARM GAS  C:\Users\haske\AppData\Local\Temp\ccwuLgOR.s 			page 41


 366:..\..\..\arduinoLCD\test\Pain Drain\libraries\lvgl\src\draw/lv_img_buf.c **** void lv_img_buf_free(lv_img_dsc_t * dsc)
 367:..\..\..\arduinoLCD\test\Pain Drain\libraries\lvgl\src\draw/lv_img_buf.c **** {
 1272              		.loc 1 367 0
 1273              		.cfi_startproc
 1274              		@ args = 0, pretend = 0, frame = 0
 1275              		@ frame_needed = 0, uses_anonymous_args = 0
 1276              	.LVL227:
 1277 0000 10B5     		push	{r4, lr}
 1278              		.cfi_def_cfa_offset 8
 1279              		.cfi_offset 4, -8
 1280              		.cfi_offset 14, -4
 1281 0002 041E     		subs	r4, r0, #0
 368:..\..\..\arduinoLCD\test\Pain Drain\libraries\lvgl\src\draw/lv_img_buf.c ****     if(dsc != NULL) {
 1282              		.loc 1 368 0
 1283 0004 07D0     		beq	.L47
 369:..\..\..\arduinoLCD\test\Pain Drain\libraries\lvgl\src\draw/lv_img_buf.c ****         if(dsc->data != NULL)
 1284              		.loc 1 369 0
 1285 0006 8068     		ldr	r0, [r0, #8]
 1286              	.LVL228:
 1287 0008 0028     		cmp	r0, #0
 1288 000a 01D0     		beq	.L49
 370:..\..\..\arduinoLCD\test\Pain Drain\libraries\lvgl\src\draw/lv_img_buf.c ****             lv_mem_free((void *)dsc->data);
 1289              		.loc 1 370 0
 1290 000c FFF7FEFF 		bl	lv_mem_free
 1291              	.LVL229:
 1292              	.L49:
 371:..\..\..\arduinoLCD\test\Pain Drain\libraries\lvgl\src\draw/lv_img_buf.c **** 
 372:..\..\..\arduinoLCD\test\Pain Drain\libraries\lvgl\src\draw/lv_img_buf.c ****         lv_mem_free(dsc);
 1293              		.loc 1 372 0
 1294 0010 2000     		movs	r0, r4
 1295 0012 FFF7FEFF 		bl	lv_mem_free
 1296              	.LVL230:
 1297              	.L47:
 373:..\..\..\arduinoLCD\test\Pain Drain\libraries\lvgl\src\draw/lv_img_buf.c ****     }
 374:..\..\..\arduinoLCD\test\Pain Drain\libraries\lvgl\src\draw/lv_img_buf.c **** }
 1298              		.loc 1 374 0
 1299              		@ sp needed
 1300              	.LVL231:
 1301 0016 10BD     		pop	{r4, pc}
 1302              		.cfi_endproc
 1303              	.LFE60:
 1304              		.size	lv_img_buf_free, .-lv_img_buf_free
 1305              		.section	.text.lv_img_buf_get_img_size,"ax",%progbits
 1306              		.align	2
 1307              		.global	lv_img_buf_get_img_size
 1308              		.code	16
 1309              		.thumb_func
 1310              		.type	lv_img_buf_get_img_size, %function
 1311              	lv_img_buf_get_img_size:
 1312              	.LFB61:
 375:..\..\..\arduinoLCD\test\Pain Drain\libraries\lvgl\src\draw/lv_img_buf.c **** 
 376:..\..\..\arduinoLCD\test\Pain Drain\libraries\lvgl\src\draw/lv_img_buf.c **** /**
 377:..\..\..\arduinoLCD\test\Pain Drain\libraries\lvgl\src\draw/lv_img_buf.c ****  * Get the memory consumption of a raw bitmap, given color format and dimensions.
 378:..\..\..\arduinoLCD\test\Pain Drain\libraries\lvgl\src\draw/lv_img_buf.c ****  * @param w width
 379:..\..\..\arduinoLCD\test\Pain Drain\libraries\lvgl\src\draw/lv_img_buf.c ****  * @param h height
 380:..\..\..\arduinoLCD\test\Pain Drain\libraries\lvgl\src\draw/lv_img_buf.c ****  * @param cf color format
 381:..\..\..\arduinoLCD\test\Pain Drain\libraries\lvgl\src\draw/lv_img_buf.c ****  * @return size in bytes
ARM GAS  C:\Users\haske\AppData\Local\Temp\ccwuLgOR.s 			page 42


 382:..\..\..\arduinoLCD\test\Pain Drain\libraries\lvgl\src\draw/lv_img_buf.c ****  */
 383:..\..\..\arduinoLCD\test\Pain Drain\libraries\lvgl\src\draw/lv_img_buf.c **** uint32_t lv_img_buf_get_img_size(lv_coord_t w, lv_coord_t h, lv_img_cf_t cf)
 384:..\..\..\arduinoLCD\test\Pain Drain\libraries\lvgl\src\draw/lv_img_buf.c **** {
 1313              		.loc 1 384 0
 1314              		.cfi_startproc
 1315              		@ args = 0, pretend = 0, frame = 0
 1316              		@ frame_needed = 0, uses_anonymous_args = 0
 1317              		@ link register save eliminated.
 1318              	.LVL232:
 385:..\..\..\arduinoLCD\test\Pain Drain\libraries\lvgl\src\draw/lv_img_buf.c ****     switch(cf) {
 1319              		.loc 1 385 0
 1320 0000 043A     		subs	r2, r2, #4
 1321              	.LVL233:
 1322 0002 D3B2     		uxtb	r3, r2
 1323 0004 102B     		cmp	r3, #16
 1324 0006 44D8     		bhi	.L64
 1325 0008 9A00     		lsls	r2, r3, #2
 1326 000a 234B     		ldr	r3, .L65
 1327 000c 9B58     		ldr	r3, [r3, r2]
 1328 000e 9F46     		mov	pc, r3
 1329              		.section	.rodata
 1330              		.align	2
 1331              	.L53:
 1332 0000 10000000 		.word	.L52
 1333 0004 16000000 		.word	.L54
 1334 0008 1E000000 		.word	.L55
 1335 000c 54000000 		.word	.L56
 1336 0010 66000000 		.word	.L57
 1337 0014 78000000 		.word	.L58
 1338 0018 86000000 		.word	.L59
 1339 001c 24000000 		.word	.L60
 1340 0020 34000000 		.word	.L61
 1341 0024 44000000 		.word	.L62
 1342 0028 50000000 		.word	.L63
 1343 002c 92000000 		.word	.L64
 1344 0030 92000000 		.word	.L64
 1345 0034 92000000 		.word	.L64
 1346 0038 92000000 		.word	.L64
 1347 003c 92000000 		.word	.L64
 1348 0040 16000000 		.word	.L54
 1349              		.section	.text.lv_img_buf_get_img_size
 1350              	.L52:
 386:..\..\..\arduinoLCD\test\Pain Drain\libraries\lvgl\src\draw/lv_img_buf.c ****         case LV_IMG_CF_TRUE_COLOR:
 387:..\..\..\arduinoLCD\test\Pain Drain\libraries\lvgl\src\draw/lv_img_buf.c ****             return LV_IMG_BUF_SIZE_TRUE_COLOR(w, h);
 1351              		.loc 1 387 0
 1352 0010 4000     		lsls	r0, r0, #1
 1353              	.LVL234:
 1354 0012 4843     		muls	r0, r1
 1355 0014 3EE0     		b	.L51
 1356              	.LVL235:
 1357              	.L54:
 388:..\..\..\arduinoLCD\test\Pain Drain\libraries\lvgl\src\draw/lv_img_buf.c ****         case LV_IMG_CF_TRUE_COLOR_ALPHA:
 389:..\..\..\arduinoLCD\test\Pain Drain\libraries\lvgl\src\draw/lv_img_buf.c ****         case LV_IMG_CF_RGB565A8:
 390:..\..\..\arduinoLCD\test\Pain Drain\libraries\lvgl\src\draw/lv_img_buf.c ****             return LV_IMG_BUF_SIZE_TRUE_COLOR_ALPHA(w, h);
 1358              		.loc 1 390 0
 1359 0016 4300     		lsls	r3, r0, #1
 1360 0018 1818     		adds	r0, r3, r0
ARM GAS  C:\Users\haske\AppData\Local\Temp\ccwuLgOR.s 			page 43


 1361              	.LVL236:
 1362 001a 4843     		muls	r0, r1
 1363 001c 3AE0     		b	.L51
 1364              	.LVL237:
 1365              	.L55:
 391:..\..\..\arduinoLCD\test\Pain Drain\libraries\lvgl\src\draw/lv_img_buf.c ****         case LV_IMG_CF_TRUE_COLOR_CHROMA_KEYED:
 392:..\..\..\arduinoLCD\test\Pain Drain\libraries\lvgl\src\draw/lv_img_buf.c ****             return LV_IMG_BUF_SIZE_TRUE_COLOR_CHROMA_KEYED(w, h);
 1366              		.loc 1 392 0
 1367 001e 4000     		lsls	r0, r0, #1
 1368              	.LVL238:
 1369 0020 4843     		muls	r0, r1
 1370 0022 37E0     		b	.L51
 1371              	.LVL239:
 1372              	.L60:
 393:..\..\..\arduinoLCD\test\Pain Drain\libraries\lvgl\src\draw/lv_img_buf.c ****         case LV_IMG_CF_ALPHA_1BIT:
 394:..\..\..\arduinoLCD\test\Pain Drain\libraries\lvgl\src\draw/lv_img_buf.c ****             return LV_IMG_BUF_SIZE_ALPHA_1BIT(w, h);
 1373              		.loc 1 394 0
 1374 0024 C317     		asrs	r3, r0, #31
 1375 0026 0722     		movs	r2, #7
 1376 0028 1340     		ands	r3, r2
 1377 002a 1818     		adds	r0, r3, r0
 1378              	.LVL240:
 1379 002c C010     		asrs	r0, r0, #3
 1380 002e 0130     		adds	r0, r0, #1
 1381 0030 4843     		muls	r0, r1
 1382 0032 2FE0     		b	.L51
 1383              	.LVL241:
 1384              	.L61:
 395:..\..\..\arduinoLCD\test\Pain Drain\libraries\lvgl\src\draw/lv_img_buf.c ****         case LV_IMG_CF_ALPHA_2BIT:
 396:..\..\..\arduinoLCD\test\Pain Drain\libraries\lvgl\src\draw/lv_img_buf.c ****             return LV_IMG_BUF_SIZE_ALPHA_2BIT(w, h);
 1385              		.loc 1 396 0
 1386 0034 C317     		asrs	r3, r0, #31
 1387 0036 0322     		movs	r2, #3
 1388 0038 1340     		ands	r3, r2
 1389 003a 1818     		adds	r0, r3, r0
 1390              	.LVL242:
 1391 003c 8010     		asrs	r0, r0, #2
 1392 003e 0130     		adds	r0, r0, #1
 1393 0040 4843     		muls	r0, r1
 1394 0042 27E0     		b	.L51
 1395              	.LVL243:
 1396              	.L62:
 397:..\..\..\arduinoLCD\test\Pain Drain\libraries\lvgl\src\draw/lv_img_buf.c ****         case LV_IMG_CF_ALPHA_4BIT:
 398:..\..\..\arduinoLCD\test\Pain Drain\libraries\lvgl\src\draw/lv_img_buf.c ****             return LV_IMG_BUF_SIZE_ALPHA_4BIT(w, h);
 1397              		.loc 1 398 0
 1398 0044 C30F     		lsrs	r3, r0, #31
 1399 0046 1818     		adds	r0, r3, r0
 1400              	.LVL244:
 1401 0048 4010     		asrs	r0, r0, #1
 1402 004a 0130     		adds	r0, r0, #1
 1403 004c 4843     		muls	r0, r1
 1404 004e 21E0     		b	.L51
 1405              	.LVL245:
 1406              	.L63:
 399:..\..\..\arduinoLCD\test\Pain Drain\libraries\lvgl\src\draw/lv_img_buf.c ****         case LV_IMG_CF_ALPHA_8BIT:
 400:..\..\..\arduinoLCD\test\Pain Drain\libraries\lvgl\src\draw/lv_img_buf.c ****             return LV_IMG_BUF_SIZE_ALPHA_8BIT(w, h);
 1407              		.loc 1 400 0
ARM GAS  C:\Users\haske\AppData\Local\Temp\ccwuLgOR.s 			page 44


 1408 0050 4843     		muls	r0, r1
 1409              	.LVL246:
 1410 0052 1FE0     		b	.L51
 1411              	.LVL247:
 1412              	.L56:
 401:..\..\..\arduinoLCD\test\Pain Drain\libraries\lvgl\src\draw/lv_img_buf.c ****         case LV_IMG_CF_INDEXED_1BIT:
 402:..\..\..\arduinoLCD\test\Pain Drain\libraries\lvgl\src\draw/lv_img_buf.c ****             return LV_IMG_BUF_SIZE_INDEXED_1BIT(w, h);
 1413              		.loc 1 402 0
 1414 0054 C317     		asrs	r3, r0, #31
 1415 0056 0722     		movs	r2, #7
 1416 0058 1340     		ands	r3, r2
 1417 005a 1818     		adds	r0, r3, r0
 1418              	.LVL248:
 1419 005c C010     		asrs	r0, r0, #3
 1420 005e 0130     		adds	r0, r0, #1
 1421 0060 4843     		muls	r0, r1
 1422 0062 0830     		adds	r0, r0, #8
 1423 0064 16E0     		b	.L51
 1424              	.LVL249:
 1425              	.L57:
 403:..\..\..\arduinoLCD\test\Pain Drain\libraries\lvgl\src\draw/lv_img_buf.c ****         case LV_IMG_CF_INDEXED_2BIT:
 404:..\..\..\arduinoLCD\test\Pain Drain\libraries\lvgl\src\draw/lv_img_buf.c ****             return LV_IMG_BUF_SIZE_INDEXED_2BIT(w, h);
 1426              		.loc 1 404 0
 1427 0066 C317     		asrs	r3, r0, #31
 1428 0068 0322     		movs	r2, #3
 1429 006a 1340     		ands	r3, r2
 1430 006c 1818     		adds	r0, r3, r0
 1431              	.LVL250:
 1432 006e 8010     		asrs	r0, r0, #2
 1433 0070 0130     		adds	r0, r0, #1
 1434 0072 4843     		muls	r0, r1
 1435 0074 1030     		adds	r0, r0, #16
 1436 0076 0DE0     		b	.L51
 1437              	.LVL251:
 1438              	.L58:
 405:..\..\..\arduinoLCD\test\Pain Drain\libraries\lvgl\src\draw/lv_img_buf.c ****         case LV_IMG_CF_INDEXED_4BIT:
 406:..\..\..\arduinoLCD\test\Pain Drain\libraries\lvgl\src\draw/lv_img_buf.c ****             return LV_IMG_BUF_SIZE_INDEXED_4BIT(w, h);
 1439              		.loc 1 406 0
 1440 0078 C30F     		lsrs	r3, r0, #31
 1441 007a 1818     		adds	r0, r3, r0
 1442              	.LVL252:
 1443 007c 4010     		asrs	r0, r0, #1
 1444 007e 0130     		adds	r0, r0, #1
 1445 0080 4843     		muls	r0, r1
 1446 0082 4030     		adds	r0, r0, #64
 1447 0084 06E0     		b	.L51
 1448              	.LVL253:
 1449              	.L59:
 407:..\..\..\arduinoLCD\test\Pain Drain\libraries\lvgl\src\draw/lv_img_buf.c ****         case LV_IMG_CF_INDEXED_8BIT:
 408:..\..\..\arduinoLCD\test\Pain Drain\libraries\lvgl\src\draw/lv_img_buf.c ****             return LV_IMG_BUF_SIZE_INDEXED_8BIT(w, h);
 1450              		.loc 1 408 0
 1451 0086 4843     		muls	r0, r1
 1452              	.LVL254:
 1453 0088 8023     		movs	r3, #128
 1454 008a DB00     		lsls	r3, r3, #3
 1455 008c 9C46     		mov	ip, r3
 1456 008e 6044     		add	r0, r0, ip
ARM GAS  C:\Users\haske\AppData\Local\Temp\ccwuLgOR.s 			page 45


 1457 0090 00E0     		b	.L51
 1458              	.LVL255:
 1459              	.L64:
 409:..\..\..\arduinoLCD\test\Pain Drain\libraries\lvgl\src\draw/lv_img_buf.c ****         default:
 410:..\..\..\arduinoLCD\test\Pain Drain\libraries\lvgl\src\draw/lv_img_buf.c ****             return 0;
 1460              		.loc 1 410 0
 1461 0092 0020     		movs	r0, #0
 1462              	.LVL256:
 1463              	.L51:
 411:..\..\..\arduinoLCD\test\Pain Drain\libraries\lvgl\src\draw/lv_img_buf.c ****     }
 412:..\..\..\arduinoLCD\test\Pain Drain\libraries\lvgl\src\draw/lv_img_buf.c **** }
 1464              		.loc 1 412 0
 1465              		@ sp needed
 1466 0094 7047     		bx	lr
 1467              	.L66:
 1468 0096 C046     		.align	2
 1469              	.L65:
 1470 0098 00000000 		.word	.L53
 1471              		.cfi_endproc
 1472              	.LFE61:
 1473              		.size	lv_img_buf_get_img_size, .-lv_img_buf_get_img_size
 1474              		.section	.text.lv_img_buf_alloc,"ax",%progbits
 1475              		.align	2
 1476              		.global	lv_img_buf_alloc
 1477              		.code	16
 1478              		.thumb_func
 1479              		.type	lv_img_buf_alloc, %function
 1480              	lv_img_buf_alloc:
 1481              	.LFB59:
 331:..\..\..\arduinoLCD\test\Pain Drain\libraries\lvgl\src\draw/lv_img_buf.c ****     /*Allocate image descriptor*/
 1482              		.loc 1 331 0
 1483              		.cfi_startproc
 1484              		@ args = 0, pretend = 0, frame = 0
 1485              		@ frame_needed = 0, uses_anonymous_args = 0
 1486              	.LVL257:
 1487 0000 F8B5     		push	{r3, r4, r5, r6, r7, lr}
 1488              		.cfi_def_cfa_offset 24
 1489              		.cfi_offset 3, -24
 1490              		.cfi_offset 4, -20
 1491              		.cfi_offset 5, -16
 1492              		.cfi_offset 6, -12
 1493              		.cfi_offset 7, -8
 1494              		.cfi_offset 14, -4
 1495 0002 0700     		movs	r7, r0
 1496 0004 0E00     		movs	r6, r1
 1497 0006 1500     		movs	r5, r2
 333:..\..\..\arduinoLCD\test\Pain Drain\libraries\lvgl\src\draw/lv_img_buf.c ****     if(dsc == NULL)
 1498              		.loc 1 333 0
 1499 0008 0C20     		movs	r0, #12
 1500              	.LVL258:
 1501 000a FFF7FEFF 		bl	lv_mem_alloc
 1502              	.LVL259:
 1503 000e 041E     		subs	r4, r0, #0
 1504              	.LVL260:
 334:..\..\..\arduinoLCD\test\Pain Drain\libraries\lvgl\src\draw/lv_img_buf.c ****         return NULL;
 1505              		.loc 1 334 0
 1506 0010 36D0     		beq	.L71
ARM GAS  C:\Users\haske\AppData\Local\Temp\ccwuLgOR.s 			page 46


 337:..\..\..\arduinoLCD\test\Pain Drain\libraries\lvgl\src\draw/lv_img_buf.c **** 
 1507              		.loc 1 337 0
 1508 0012 0C21     		movs	r1, #12
 1509 0014 FFF7FEFF 		bl	lv_memset_00
 1510              	.LVL261:
 340:..\..\..\arduinoLCD\test\Pain Drain\libraries\lvgl\src\draw/lv_img_buf.c ****     if(dsc->data_size == 0) {
 1511              		.loc 1 340 0
 1512 0018 2A00     		movs	r2, r5
 1513 001a 3100     		movs	r1, r6
 1514 001c 3800     		movs	r0, r7
 1515 001e FFF7FEFF 		bl	lv_img_buf_get_img_size
 1516              	.LVL262:
 1517 0022 6060     		str	r0, [r4, #4]
 341:..\..\..\arduinoLCD\test\Pain Drain\libraries\lvgl\src\draw/lv_img_buf.c ****         lv_mem_free(dsc);
 1518              		.loc 1 341 0
 1519 0024 0028     		cmp	r0, #0
 1520 0026 04D1     		bne	.L69
 342:..\..\..\arduinoLCD\test\Pain Drain\libraries\lvgl\src\draw/lv_img_buf.c ****         return NULL;
 1521              		.loc 1 342 0
 1522 0028 2000     		movs	r0, r4
 1523 002a FFF7FEFF 		bl	lv_mem_free
 1524              	.LVL263:
 343:..\..\..\arduinoLCD\test\Pain Drain\libraries\lvgl\src\draw/lv_img_buf.c ****     }
 1525              		.loc 1 343 0
 1526 002e 0020     		movs	r0, #0
 1527 0030 27E0     		b	.L68
 1528              	.L69:
 347:..\..\..\arduinoLCD\test\Pain Drain\libraries\lvgl\src\draw/lv_img_buf.c ****     if(dsc->data == NULL) {
 1529              		.loc 1 347 0
 1530 0032 FFF7FEFF 		bl	lv_mem_alloc
 1531              	.LVL264:
 1532 0036 A060     		str	r0, [r4, #8]
 348:..\..\..\arduinoLCD\test\Pain Drain\libraries\lvgl\src\draw/lv_img_buf.c ****         lv_mem_free(dsc);
 1533              		.loc 1 348 0
 1534 0038 0028     		cmp	r0, #0
 1535 003a 04D1     		bne	.L70
 349:..\..\..\arduinoLCD\test\Pain Drain\libraries\lvgl\src\draw/lv_img_buf.c ****         return NULL;
 1536              		.loc 1 349 0
 1537 003c 2000     		movs	r0, r4
 1538 003e FFF7FEFF 		bl	lv_mem_free
 1539              	.LVL265:
 350:..\..\..\arduinoLCD\test\Pain Drain\libraries\lvgl\src\draw/lv_img_buf.c ****     }
 1540              		.loc 1 350 0
 1541 0042 0020     		movs	r0, #0
 1542 0044 1DE0     		b	.L68
 1543              	.L70:
 352:..\..\..\arduinoLCD\test\Pain Drain\libraries\lvgl\src\draw/lv_img_buf.c **** 
 1544              		.loc 1 352 0
 1545 0046 6168     		ldr	r1, [r4, #4]
 1546 0048 FFF7FEFF 		bl	lv_memset_00
 1547              	.LVL266:
 355:..\..\..\arduinoLCD\test\Pain Drain\libraries\lvgl\src\draw/lv_img_buf.c ****     dsc->header.w = w;
 1548              		.loc 1 355 0
 1549 004c 2378     		ldrb	r3, [r4]
 1550 004e 1F21     		movs	r1, #31
 1551 0050 0B40     		ands	r3, r1
 1552 0052 2370     		strb	r3, [r4]
ARM GAS  C:\Users\haske\AppData\Local\Temp\ccwuLgOR.s 			page 47


 356:..\..\..\arduinoLCD\test\Pain Drain\libraries\lvgl\src\draw/lv_img_buf.c ****     dsc->header.h = h;
 1553              		.loc 1 356 0
 1554 0054 7F05     		lsls	r7, r7, #21
 1555 0056 FF0A     		lsrs	r7, r7, #11
 1556 0058 0A48     		ldr	r0, .L72
 1557 005a 2368     		ldr	r3, [r4]
 1558 005c 0340     		ands	r3, r0
 1559 005e 3B43     		orrs	r3, r7
 1560 0060 1800     		movs	r0, r3
 1561 0062 2360     		str	r3, [r4]
 357:..\..\..\arduinoLCD\test\Pain Drain\libraries\lvgl\src\draw/lv_img_buf.c ****     dsc->header.cf = cf;
 1562              		.loc 1 357 0
 1563 0064 7301     		lsls	r3, r6, #5
 1564 0066 020C     		lsrs	r2, r0, #16
 1565 0068 1F26     		movs	r6, #31
 1566 006a 1640     		ands	r6, r2
 1567 006c 1E43     		orrs	r6, r3
 1568 006e 6680     		strh	r6, [r4, #2]
 358:..\..\..\arduinoLCD\test\Pain Drain\libraries\lvgl\src\draw/lv_img_buf.c ****     return dsc;
 1569              		.loc 1 358 0
 1570 0070 0D40     		ands	r5, r1
 1571 0072 C0B2     		uxtb	r0, r0
 1572 0074 1F23     		movs	r3, #31
 1573 0076 9843     		bics	r0, r3
 1574 0078 2843     		orrs	r0, r5
 1575 007a 2070     		strb	r0, [r4]
 359:..\..\..\arduinoLCD\test\Pain Drain\libraries\lvgl\src\draw/lv_img_buf.c **** }
 1576              		.loc 1 359 0
 1577 007c 2000     		movs	r0, r4
 1578 007e 00E0     		b	.L68
 1579              	.LVL267:
 1580              	.L71:
 335:..\..\..\arduinoLCD\test\Pain Drain\libraries\lvgl\src\draw/lv_img_buf.c **** 
 1581              		.loc 1 335 0
 1582 0080 0020     		movs	r0, #0
 1583              	.LVL268:
 1584              	.L68:
 360:..\..\..\arduinoLCD\test\Pain Drain\libraries\lvgl\src\draw/lv_img_buf.c **** 
 1585              		.loc 1 360 0
 1586              		@ sp needed
 1587              	.LVL269:
 1588 0082 F8BD     		pop	{r3, r4, r5, r6, r7, pc}
 1589              	.L73:
 1590              		.align	2
 1591              	.L72:
 1592 0084 FF03E0FF 		.word	-2096129
 1593              		.cfi_endproc
 1594              	.LFE59:
 1595              		.size	lv_img_buf_alloc, .-lv_img_buf_alloc
 1596              		.section	.text._lv_img_buf_get_transformed_area,"ax",%progbits
 1597              		.align	2
 1598              		.global	_lv_img_buf_get_transformed_area
 1599              		.code	16
 1600              		.thumb_func
 1601              		.type	_lv_img_buf_get_transformed_area, %function
 1602              	_lv_img_buf_get_transformed_area:
 1603              	.LFB62:
ARM GAS  C:\Users\haske\AppData\Local\Temp\ccwuLgOR.s 			page 48


 413:..\..\..\arduinoLCD\test\Pain Drain\libraries\lvgl\src\draw/lv_img_buf.c **** 
 414:..\..\..\arduinoLCD\test\Pain Drain\libraries\lvgl\src\draw/lv_img_buf.c **** /**
 415:..\..\..\arduinoLCD\test\Pain Drain\libraries\lvgl\src\draw/lv_img_buf.c ****  * Get the area of a rectangle if its rotated and scaled
 416:..\..\..\arduinoLCD\test\Pain Drain\libraries\lvgl\src\draw/lv_img_buf.c ****  * @param res store the coordinates here
 417:..\..\..\arduinoLCD\test\Pain Drain\libraries\lvgl\src\draw/lv_img_buf.c ****  * @param w width of the rectangle to transform
 418:..\..\..\arduinoLCD\test\Pain Drain\libraries\lvgl\src\draw/lv_img_buf.c ****  * @param h height of the rectangle to transform
 419:..\..\..\arduinoLCD\test\Pain Drain\libraries\lvgl\src\draw/lv_img_buf.c ****  * @param angle angle of rotation
 420:..\..\..\arduinoLCD\test\Pain Drain\libraries\lvgl\src\draw/lv_img_buf.c ****  * @param zoom zoom, (256 no zoom)
 421:..\..\..\arduinoLCD\test\Pain Drain\libraries\lvgl\src\draw/lv_img_buf.c ****  * @param pivot x,y pivot coordinates of rotation
 422:..\..\..\arduinoLCD\test\Pain Drain\libraries\lvgl\src\draw/lv_img_buf.c ****  */
 423:..\..\..\arduinoLCD\test\Pain Drain\libraries\lvgl\src\draw/lv_img_buf.c **** void _lv_img_buf_get_transformed_area(lv_area_t * res, lv_coord_t w, lv_coord_t h, int16_t angle, u
 424:..\..\..\arduinoLCD\test\Pain Drain\libraries\lvgl\src\draw/lv_img_buf.c ****                                       const lv_point_t * pivot)
 425:..\..\..\arduinoLCD\test\Pain Drain\libraries\lvgl\src\draw/lv_img_buf.c **** {
 1604              		.loc 1 425 0
 1605              		.cfi_startproc
 1606              		@ args = 8, pretend = 0, frame = 16
 1607              		@ frame_needed = 0, uses_anonymous_args = 0
 1608              	.LVL270:
 1609 0000 70B5     		push	{r4, r5, r6, lr}
 1610              		.cfi_def_cfa_offset 16
 1611              		.cfi_offset 4, -16
 1612              		.cfi_offset 5, -12
 1613              		.cfi_offset 6, -8
 1614              		.cfi_offset 14, -4
 1615 0002 84B0     		sub	sp, sp, #16
 1616              		.cfi_def_cfa_offset 32
 1617 0004 0600     		movs	r6, r0
 1618 0006 1C00     		movs	r4, r3
 1619 0008 08AB     		add	r3, sp, #32
 1620              	.LVL271:
 1621 000a 1D88     		ldrh	r5, [r3]
 426:..\..\..\arduinoLCD\test\Pain Drain\libraries\lvgl\src\draw/lv_img_buf.c **** #if LV_DRAW_COMPLEX
 427:..\..\..\arduinoLCD\test\Pain Drain\libraries\lvgl\src\draw/lv_img_buf.c ****     if(angle == 0 && zoom == LV_IMG_ZOOM_NONE) {
 1622              		.loc 1 427 0
 1623 000c 002C     		cmp	r4, #0
 1624 000e 0BD1     		bne	.L75
 1625              		.loc 1 427 0 is_stmt 0 discriminator 1
 1626 0010 8023     		movs	r3, #128
 1627              	.LVL272:
 1628 0012 5B00     		lsls	r3, r3, #1
 1629 0014 9D42     		cmp	r5, r3
 1630 0016 07D1     		bne	.L75
 428:..\..\..\arduinoLCD\test\Pain Drain\libraries\lvgl\src\draw/lv_img_buf.c ****         res->x1 = 0;
 1631              		.loc 1 428 0 is_stmt 1
 1632 0018 0023     		movs	r3, #0
 1633 001a 0380     		strh	r3, [r0]
 429:..\..\..\arduinoLCD\test\Pain Drain\libraries\lvgl\src\draw/lv_img_buf.c ****         res->y1 = 0;
 1634              		.loc 1 429 0
 1635 001c 4380     		strh	r3, [r0, #2]
 430:..\..\..\arduinoLCD\test\Pain Drain\libraries\lvgl\src\draw/lv_img_buf.c ****         res->x2 = w - 1;
 1636              		.loc 1 430 0
 1637 001e 0139     		subs	r1, r1, #1
 1638              	.LVL273:
 1639 0020 8180     		strh	r1, [r0, #4]
 431:..\..\..\arduinoLCD\test\Pain Drain\libraries\lvgl\src\draw/lv_img_buf.c ****         res->y2 = h - 1;
 1640              		.loc 1 431 0
 1641 0022 013A     		subs	r2, r2, #1
ARM GAS  C:\Users\haske\AppData\Local\Temp\ccwuLgOR.s 			page 49


 1642              	.LVL274:
 1643 0024 C280     		strh	r2, [r0, #6]
 1644 0026 90E0     		b	.L74
 1645              	.LVL275:
 1646              	.L75:
 432:..\..\..\arduinoLCD\test\Pain Drain\libraries\lvgl\src\draw/lv_img_buf.c ****         return;
 433:..\..\..\arduinoLCD\test\Pain Drain\libraries\lvgl\src\draw/lv_img_buf.c ****     }
 434:..\..\..\arduinoLCD\test\Pain Drain\libraries\lvgl\src\draw/lv_img_buf.c **** 
 435:..\..\..\arduinoLCD\test\Pain Drain\libraries\lvgl\src\draw/lv_img_buf.c ****     lv_point_t p[4] = {
 1647              		.loc 1 435 0
 1648 0028 0023     		movs	r3, #0
 1649 002a 6846     		mov	r0, sp
 1650              	.LVL276:
 1651 002c 0380     		strh	r3, [r0]
 1652 002e 4380     		strh	r3, [r0, #2]
 1653 0030 8180     		strh	r1, [r0, #4]
 1654 0032 C380     		strh	r3, [r0, #6]
 1655 0034 0381     		strh	r3, [r0, #8]
 1656 0036 4281     		strh	r2, [r0, #10]
 1657 0038 8181     		strh	r1, [r0, #12]
 1658 003a C281     		strh	r2, [r0, #14]
 436:..\..\..\arduinoLCD\test\Pain Drain\libraries\lvgl\src\draw/lv_img_buf.c ****         {0, 0},
 437:..\..\..\arduinoLCD\test\Pain Drain\libraries\lvgl\src\draw/lv_img_buf.c ****         {w, 0},
 438:..\..\..\arduinoLCD\test\Pain Drain\libraries\lvgl\src\draw/lv_img_buf.c ****         {0, h},
 439:..\..\..\arduinoLCD\test\Pain Drain\libraries\lvgl\src\draw/lv_img_buf.c ****         {w, h},
 440:..\..\..\arduinoLCD\test\Pain Drain\libraries\lvgl\src\draw/lv_img_buf.c ****     };
 441:..\..\..\arduinoLCD\test\Pain Drain\libraries\lvgl\src\draw/lv_img_buf.c ****     lv_point_transform(&p[0], angle, zoom, pivot);
 1659              		.loc 1 441 0
 1660 003c 099B     		ldr	r3, [sp, #36]
 1661 003e 2A00     		movs	r2, r5
 1662              	.LVL277:
 1663 0040 2100     		movs	r1, r4
 1664              	.LVL278:
 1665 0042 FFF7FEFF 		bl	lv_point_transform
 1666              	.LVL279:
 442:..\..\..\arduinoLCD\test\Pain Drain\libraries\lvgl\src\draw/lv_img_buf.c ****     lv_point_transform(&p[1], angle, zoom, pivot);
 1667              		.loc 1 442 0
 1668 0046 099B     		ldr	r3, [sp, #36]
 1669 0048 2A00     		movs	r2, r5
 1670 004a 2100     		movs	r1, r4
 1671 004c 01A8     		add	r0, sp, #4
 1672 004e FFF7FEFF 		bl	lv_point_transform
 1673              	.LVL280:
 443:..\..\..\arduinoLCD\test\Pain Drain\libraries\lvgl\src\draw/lv_img_buf.c ****     lv_point_transform(&p[2], angle, zoom, pivot);
 1674              		.loc 1 443 0
 1675 0052 099B     		ldr	r3, [sp, #36]
 1676 0054 2A00     		movs	r2, r5
 1677 0056 2100     		movs	r1, r4
 1678 0058 02A8     		add	r0, sp, #8
 1679 005a FFF7FEFF 		bl	lv_point_transform
 1680              	.LVL281:
 444:..\..\..\arduinoLCD\test\Pain Drain\libraries\lvgl\src\draw/lv_img_buf.c ****     lv_point_transform(&p[3], angle, zoom, pivot);
 1681              		.loc 1 444 0
 1682 005e 099B     		ldr	r3, [sp, #36]
 1683 0060 2A00     		movs	r2, r5
 1684 0062 2100     		movs	r1, r4
 1685 0064 03A8     		add	r0, sp, #12
ARM GAS  C:\Users\haske\AppData\Local\Temp\ccwuLgOR.s 			page 50


 1686 0066 FFF7FEFF 		bl	lv_point_transform
 1687              	.LVL282:
 445:..\..\..\arduinoLCD\test\Pain Drain\libraries\lvgl\src\draw/lv_img_buf.c ****     res->x1 = LV_MIN4(p[0].x, p[1].x, p[2].x, p[3].x) - 2;
 1688              		.loc 1 445 0
 1689 006a 6B46     		mov	r3, sp
 1690 006c 0C22     		movs	r2, #12
 1691 006e 9A5E     		ldrsh	r2, [r3, r2]
 1692 0070 6B46     		mov	r3, sp
 1693 0072 0821     		movs	r1, #8
 1694 0074 595E     		ldrsh	r1, [r3, r1]
 1695 0076 131C     		adds	r3, r2, #0
 1696 0078 8A42     		cmp	r2, r1
 1697 007a 00DD     		ble	.L77
 1698 007c 0B1C     		adds	r3, r1, #0
 1699              	.L77:
 1700 007e 1BB2     		sxth	r3, r3
 1701 0080 6A46     		mov	r2, sp
 1702 0082 0421     		movs	r1, #4
 1703 0084 525E     		ldrsh	r2, [r2, r1]
 1704 0086 6946     		mov	r1, sp
 1705 0088 0020     		movs	r0, #0
 1706 008a 085E     		ldrsh	r0, [r1, r0]
 1707 008c 111C     		adds	r1, r2, #0
 1708 008e 8242     		cmp	r2, r0
 1709 0090 00DD     		ble	.L78
 1710 0092 011C     		adds	r1, r0, #0
 1711              	.L78:
 1712 0094 1A1C     		adds	r2, r3, #0
 1713 0096 08B2     		sxth	r0, r1
 1714 0098 8342     		cmp	r3, r0
 1715 009a 00DD     		ble	.L79
 1716 009c 0A1C     		adds	r2, r1, #0
 1717              	.L79:
 1718 009e 023A     		subs	r2, r2, #2
 1719 00a0 3280     		strh	r2, [r6]
 446:..\..\..\arduinoLCD\test\Pain Drain\libraries\lvgl\src\draw/lv_img_buf.c ****     res->x2 = LV_MAX4(p[0].x, p[1].x, p[2].x, p[3].x) + 2;
 1720              		.loc 1 446 0
 1721 00a2 6B46     		mov	r3, sp
 1722 00a4 0C22     		movs	r2, #12
 1723 00a6 9A5E     		ldrsh	r2, [r3, r2]
 1724 00a8 6B46     		mov	r3, sp
 1725 00aa 0821     		movs	r1, #8
 1726 00ac 595E     		ldrsh	r1, [r3, r1]
 1727 00ae 131C     		adds	r3, r2, #0
 1728 00b0 8A42     		cmp	r2, r1
 1729 00b2 00DA     		bge	.L80
 1730 00b4 0B1C     		adds	r3, r1, #0
 1731              	.L80:
 1732 00b6 1BB2     		sxth	r3, r3
 1733 00b8 6A46     		mov	r2, sp
 1734 00ba 0421     		movs	r1, #4
 1735 00bc 525E     		ldrsh	r2, [r2, r1]
 1736 00be 6946     		mov	r1, sp
 1737 00c0 0020     		movs	r0, #0
 1738 00c2 085E     		ldrsh	r0, [r1, r0]
 1739 00c4 111C     		adds	r1, r2, #0
 1740 00c6 8242     		cmp	r2, r0
ARM GAS  C:\Users\haske\AppData\Local\Temp\ccwuLgOR.s 			page 51


 1741 00c8 00DA     		bge	.L81
 1742 00ca 011C     		adds	r1, r0, #0
 1743              	.L81:
 1744 00cc 1A1C     		adds	r2, r3, #0
 1745 00ce 08B2     		sxth	r0, r1
 1746 00d0 8342     		cmp	r3, r0
 1747 00d2 00DA     		bge	.L82
 1748 00d4 0A1C     		adds	r2, r1, #0
 1749              	.L82:
 1750 00d6 0232     		adds	r2, r2, #2
 1751 00d8 B280     		strh	r2, [r6, #4]
 447:..\..\..\arduinoLCD\test\Pain Drain\libraries\lvgl\src\draw/lv_img_buf.c ****     res->y1 = LV_MIN4(p[0].y, p[1].y, p[2].y, p[3].y) - 2;
 1752              		.loc 1 447 0
 1753 00da 6B46     		mov	r3, sp
 1754 00dc 0E22     		movs	r2, #14
 1755 00de 9A5E     		ldrsh	r2, [r3, r2]
 1756 00e0 6B46     		mov	r3, sp
 1757 00e2 0A21     		movs	r1, #10
 1758 00e4 595E     		ldrsh	r1, [r3, r1]
 1759 00e6 131C     		adds	r3, r2, #0
 1760 00e8 8A42     		cmp	r2, r1
 1761 00ea 00DD     		ble	.L83
 1762 00ec 0B1C     		adds	r3, r1, #0
 1763              	.L83:
 1764 00ee 1BB2     		sxth	r3, r3
 1765 00f0 6A46     		mov	r2, sp
 1766 00f2 0621     		movs	r1, #6
 1767 00f4 525E     		ldrsh	r2, [r2, r1]
 1768 00f6 6946     		mov	r1, sp
 1769 00f8 0220     		movs	r0, #2
 1770 00fa 085E     		ldrsh	r0, [r1, r0]
 1771 00fc 111C     		adds	r1, r2, #0
 1772 00fe 8242     		cmp	r2, r0
 1773 0100 00DD     		ble	.L84
 1774 0102 011C     		adds	r1, r0, #0
 1775              	.L84:
 1776 0104 1A1C     		adds	r2, r3, #0
 1777 0106 08B2     		sxth	r0, r1
 1778 0108 8342     		cmp	r3, r0
 1779 010a 00DD     		ble	.L85
 1780 010c 0A1C     		adds	r2, r1, #0
 1781              	.L85:
 1782 010e 023A     		subs	r2, r2, #2
 1783 0110 7280     		strh	r2, [r6, #2]
 448:..\..\..\arduinoLCD\test\Pain Drain\libraries\lvgl\src\draw/lv_img_buf.c ****     res->y2 = LV_MAX4(p[0].y, p[1].y, p[2].y, p[3].y) + 2;
 1784              		.loc 1 448 0
 1785 0112 6B46     		mov	r3, sp
 1786 0114 0E22     		movs	r2, #14
 1787 0116 9A5E     		ldrsh	r2, [r3, r2]
 1788 0118 6B46     		mov	r3, sp
 1789 011a 0A21     		movs	r1, #10
 1790 011c 595E     		ldrsh	r1, [r3, r1]
 1791 011e 131C     		adds	r3, r2, #0
 1792 0120 8A42     		cmp	r2, r1
 1793 0122 00DA     		bge	.L86
 1794 0124 0B1C     		adds	r3, r1, #0
 1795              	.L86:
ARM GAS  C:\Users\haske\AppData\Local\Temp\ccwuLgOR.s 			page 52


 1796 0126 1BB2     		sxth	r3, r3
 1797 0128 6A46     		mov	r2, sp
 1798 012a 0621     		movs	r1, #6
 1799 012c 525E     		ldrsh	r2, [r2, r1]
 1800 012e 6946     		mov	r1, sp
 1801 0130 0220     		movs	r0, #2
 1802 0132 085E     		ldrsh	r0, [r1, r0]
 1803 0134 111C     		adds	r1, r2, #0
 1804 0136 8242     		cmp	r2, r0
 1805 0138 00DA     		bge	.L87
 1806 013a 011C     		adds	r1, r0, #0
 1807              	.L87:
 1808 013c 1A1C     		adds	r2, r3, #0
 1809 013e 08B2     		sxth	r0, r1
 1810 0140 8342     		cmp	r3, r0
 1811 0142 00DA     		bge	.L88
 1812 0144 0A1C     		adds	r2, r1, #0
 1813              	.L88:
 1814 0146 0232     		adds	r2, r2, #2
 1815 0148 F280     		strh	r2, [r6, #6]
 1816              	.L74:
 449:..\..\..\arduinoLCD\test\Pain Drain\libraries\lvgl\src\draw/lv_img_buf.c **** 
 450:..\..\..\arduinoLCD\test\Pain Drain\libraries\lvgl\src\draw/lv_img_buf.c **** #else
 451:..\..\..\arduinoLCD\test\Pain Drain\libraries\lvgl\src\draw/lv_img_buf.c ****     LV_UNUSED(angle);
 452:..\..\..\arduinoLCD\test\Pain Drain\libraries\lvgl\src\draw/lv_img_buf.c ****     LV_UNUSED(zoom);
 453:..\..\..\arduinoLCD\test\Pain Drain\libraries\lvgl\src\draw/lv_img_buf.c ****     LV_UNUSED(pivot);
 454:..\..\..\arduinoLCD\test\Pain Drain\libraries\lvgl\src\draw/lv_img_buf.c ****     res->x1 = 0;
 455:..\..\..\arduinoLCD\test\Pain Drain\libraries\lvgl\src\draw/lv_img_buf.c ****     res->y1 = 0;
 456:..\..\..\arduinoLCD\test\Pain Drain\libraries\lvgl\src\draw/lv_img_buf.c ****     res->x2 = w - 1;
 457:..\..\..\arduinoLCD\test\Pain Drain\libraries\lvgl\src\draw/lv_img_buf.c ****     res->y2 = h - 1;
 458:..\..\..\arduinoLCD\test\Pain Drain\libraries\lvgl\src\draw/lv_img_buf.c **** #endif
 459:..\..\..\arduinoLCD\test\Pain Drain\libraries\lvgl\src\draw/lv_img_buf.c **** }
 1817              		.loc 1 459 0
 1818 014a 04B0     		add	sp, sp, #16
 1819              		@ sp needed
 1820              	.LVL283:
 1821 014c 70BD     		pop	{r4, r5, r6, pc}
 1822              		.cfi_endproc
 1823              	.LFE62:
 1824              		.size	_lv_img_buf_get_transformed_area, .-_lv_img_buf_get_transformed_area
 1825 014e C046     		.section	.rodata
 1826              		.align	2
 1827              		.set	.LANCHOR0,. + 0
 1828              	.LC0:
 1829 0044 00       		.byte	0
 1830 0045 55       		.byte	85
 1831 0046 AA       		.byte	-86
 1832 0047 FF       		.byte	-1
 1833              	.LC1:
 1834 0048 00       		.byte	0
 1835 0049 11       		.byte	17
 1836 004a 22       		.byte	34
 1837 004b 33       		.byte	51
 1838 004c 44       		.byte	68
 1839 004d 55       		.byte	85
 1840 004e 66       		.byte	102
 1841 004f 77       		.byte	119
ARM GAS  C:\Users\haske\AppData\Local\Temp\ccwuLgOR.s 			page 53


 1842 0050 88       		.byte	-120
 1843 0051 99       		.byte	-103
 1844 0052 AA       		.byte	-86
 1845 0053 BB       		.byte	-69
 1846 0054 CC       		.byte	-52
 1847 0055 DD       		.byte	-35
 1848 0056 EE       		.byte	-18
 1849 0057 FF       		.byte	-1
 1850              		.text
 1851              	.Letext0:
 1852              		.file 4 "c:\\program files (x86)\\cypress\\psoc creator\\4.4\\psoc creator\\import\\gnu\\arm\\5.4.
 1853              		.file 5 "c:\\program files (x86)\\cypress\\psoc creator\\4.4\\psoc creator\\import\\gnu\\arm\\5.4.
 1854              		.file 6 "c:\\program files (x86)\\cypress\\psoc creator\\4.4\\psoc creator\\import\\gnu\\arm\\5.4.
 1855              		.file 7 "..\\..\\..\\arduinoLCD\\test\\Pain Drain\\libraries\\lvgl\\src\\draw\\../misc/lv_area.h"
 1856              		.file 8 "..\\..\\..\\arduinoLCD\\test\\Pain Drain\\libraries\\lvgl\\src\\draw\\lv_img_buf.h"
 1857              		.file 9 "c:\\projects\\paindrain\\arduinolcd\\test\\pain drain\\libraries\\lvgl\\src\\font\\lv_fon
 1858              		.file 10 "..\\..\\..\\arduinoLCD\\test\\Pain Drain\\libraries\\lvgl\\src\\draw\\lv_draw_img.h"