ARM GAS  C:\Users\haske\AppData\Local\Temp\ccEGgQv3.s 			page 1


   1              		.syntax unified
   2              		.cpu cortex-m0plus
   3              		.fpu softvfp
   4              		.eabi_attribute 20, 1
   5              		.eabi_attribute 21, 1
   6              		.eabi_attribute 23, 3
   7              		.eabi_attribute 24, 1
   8              		.eabi_attribute 25, 1
   9              		.eabi_attribute 26, 1
  10              		.eabi_attribute 30, 1
  11              		.eabi_attribute 34, 0
  12              		.eabi_attribute 18, 4
  13              		.thumb
  14              		.syntax unified
  15              		.file	"lv_keyboard.c"
  16              		.text
  17              	.Ltext0:
  18              		.cfi_sections	.debug_frame
  19              		.section	.text.lv_keyboard_update_ctrl_map,"ax",%progbits
  20              		.align	2
  21              		.code	16
  22              		.thumb_func
  23              		.type	lv_keyboard_update_ctrl_map, %function
  24              	lv_keyboard_update_ctrl_map:
  25              	.LFB173:
  26              		.file 1 "..\\..\\..\\arduinoLCD\\test\\Pain Drain\\libraries\\lvgl\\src\\extra\\widgets\\keyboard\
   1:..\..\..\arduinoLCD\test\Pain Drain\libraries\lvgl\src\extra\widgets\keyboard/lv_keyboard.c **** 
   2:..\..\..\arduinoLCD\test\Pain Drain\libraries\lvgl\src\extra\widgets\keyboard/lv_keyboard.c **** /**
   3:..\..\..\arduinoLCD\test\Pain Drain\libraries\lvgl\src\extra\widgets\keyboard/lv_keyboard.c ****  * @file lv_keyboard.c
   4:..\..\..\arduinoLCD\test\Pain Drain\libraries\lvgl\src\extra\widgets\keyboard/lv_keyboard.c ****  *
   5:..\..\..\arduinoLCD\test\Pain Drain\libraries\lvgl\src\extra\widgets\keyboard/lv_keyboard.c ****  */
   6:..\..\..\arduinoLCD\test\Pain Drain\libraries\lvgl\src\extra\widgets\keyboard/lv_keyboard.c **** 
   7:..\..\..\arduinoLCD\test\Pain Drain\libraries\lvgl\src\extra\widgets\keyboard/lv_keyboard.c **** /*********************
   8:..\..\..\arduinoLCD\test\Pain Drain\libraries\lvgl\src\extra\widgets\keyboard/lv_keyboard.c ****  *      INCLUDES
   9:..\..\..\arduinoLCD\test\Pain Drain\libraries\lvgl\src\extra\widgets\keyboard/lv_keyboard.c ****  *********************/
  10:..\..\..\arduinoLCD\test\Pain Drain\libraries\lvgl\src\extra\widgets\keyboard/lv_keyboard.c **** #include "lv_keyboard.h"
  11:..\..\..\arduinoLCD\test\Pain Drain\libraries\lvgl\src\extra\widgets\keyboard/lv_keyboard.c **** #if LV_USE_KEYBOARD
  12:..\..\..\arduinoLCD\test\Pain Drain\libraries\lvgl\src\extra\widgets\keyboard/lv_keyboard.c **** 
  13:..\..\..\arduinoLCD\test\Pain Drain\libraries\lvgl\src\extra\widgets\keyboard/lv_keyboard.c **** #include "../../../widgets/lv_textarea.h"
  14:..\..\..\arduinoLCD\test\Pain Drain\libraries\lvgl\src\extra\widgets\keyboard/lv_keyboard.c **** #include "../../../misc/lv_assert.h"
  15:..\..\..\arduinoLCD\test\Pain Drain\libraries\lvgl\src\extra\widgets\keyboard/lv_keyboard.c **** 
  16:..\..\..\arduinoLCD\test\Pain Drain\libraries\lvgl\src\extra\widgets\keyboard/lv_keyboard.c **** #include <stdlib.h>
  17:..\..\..\arduinoLCD\test\Pain Drain\libraries\lvgl\src\extra\widgets\keyboard/lv_keyboard.c **** 
  18:..\..\..\arduinoLCD\test\Pain Drain\libraries\lvgl\src\extra\widgets\keyboard/lv_keyboard.c **** /*********************
  19:..\..\..\arduinoLCD\test\Pain Drain\libraries\lvgl\src\extra\widgets\keyboard/lv_keyboard.c ****  *      DEFINES
  20:..\..\..\arduinoLCD\test\Pain Drain\libraries\lvgl\src\extra\widgets\keyboard/lv_keyboard.c ****  *********************/
  21:..\..\..\arduinoLCD\test\Pain Drain\libraries\lvgl\src\extra\widgets\keyboard/lv_keyboard.c **** #define MY_CLASS    &lv_keyboard_class
  22:..\..\..\arduinoLCD\test\Pain Drain\libraries\lvgl\src\extra\widgets\keyboard/lv_keyboard.c **** #define LV_KB_BTN(width) LV_BTNMATRIX_CTRL_POPOVER | width
  23:..\..\..\arduinoLCD\test\Pain Drain\libraries\lvgl\src\extra\widgets\keyboard/lv_keyboard.c **** 
  24:..\..\..\arduinoLCD\test\Pain Drain\libraries\lvgl\src\extra\widgets\keyboard/lv_keyboard.c **** /**********************
  25:..\..\..\arduinoLCD\test\Pain Drain\libraries\lvgl\src\extra\widgets\keyboard/lv_keyboard.c ****  *      TYPEDEFS
  26:..\..\..\arduinoLCD\test\Pain Drain\libraries\lvgl\src\extra\widgets\keyboard/lv_keyboard.c ****  **********************/
  27:..\..\..\arduinoLCD\test\Pain Drain\libraries\lvgl\src\extra\widgets\keyboard/lv_keyboard.c **** 
  28:..\..\..\arduinoLCD\test\Pain Drain\libraries\lvgl\src\extra\widgets\keyboard/lv_keyboard.c **** /**********************
  29:..\..\..\arduinoLCD\test\Pain Drain\libraries\lvgl\src\extra\widgets\keyboard/lv_keyboard.c ****  *  STATIC PROTOTYPES
  30:..\..\..\arduinoLCD\test\Pain Drain\libraries\lvgl\src\extra\widgets\keyboard/lv_keyboard.c ****  **********************/
  31:..\..\..\arduinoLCD\test\Pain Drain\libraries\lvgl\src\extra\widgets\keyboard/lv_keyboard.c **** static void lv_keyboard_constructor(const lv_obj_class_t * class_p, lv_obj_t * obj);
ARM GAS  C:\Users\haske\AppData\Local\Temp\ccEGgQv3.s 			page 2


  32:..\..\..\arduinoLCD\test\Pain Drain\libraries\lvgl\src\extra\widgets\keyboard/lv_keyboard.c **** 
  33:..\..\..\arduinoLCD\test\Pain Drain\libraries\lvgl\src\extra\widgets\keyboard/lv_keyboard.c **** static void lv_keyboard_update_map(lv_obj_t * obj);
  34:..\..\..\arduinoLCD\test\Pain Drain\libraries\lvgl\src\extra\widgets\keyboard/lv_keyboard.c **** 
  35:..\..\..\arduinoLCD\test\Pain Drain\libraries\lvgl\src\extra\widgets\keyboard/lv_keyboard.c **** static void lv_keyboard_update_ctrl_map(lv_obj_t * obj);
  36:..\..\..\arduinoLCD\test\Pain Drain\libraries\lvgl\src\extra\widgets\keyboard/lv_keyboard.c **** 
  37:..\..\..\arduinoLCD\test\Pain Drain\libraries\lvgl\src\extra\widgets\keyboard/lv_keyboard.c **** /**********************
  38:..\..\..\arduinoLCD\test\Pain Drain\libraries\lvgl\src\extra\widgets\keyboard/lv_keyboard.c ****  *  STATIC VARIABLES
  39:..\..\..\arduinoLCD\test\Pain Drain\libraries\lvgl\src\extra\widgets\keyboard/lv_keyboard.c ****  **********************/
  40:..\..\..\arduinoLCD\test\Pain Drain\libraries\lvgl\src\extra\widgets\keyboard/lv_keyboard.c **** const lv_obj_class_t lv_keyboard_class = {
  41:..\..\..\arduinoLCD\test\Pain Drain\libraries\lvgl\src\extra\widgets\keyboard/lv_keyboard.c ****     .constructor_cb = lv_keyboard_constructor,
  42:..\..\..\arduinoLCD\test\Pain Drain\libraries\lvgl\src\extra\widgets\keyboard/lv_keyboard.c ****     .width_def = LV_PCT(100),
  43:..\..\..\arduinoLCD\test\Pain Drain\libraries\lvgl\src\extra\widgets\keyboard/lv_keyboard.c ****     .height_def = LV_PCT(50),
  44:..\..\..\arduinoLCD\test\Pain Drain\libraries\lvgl\src\extra\widgets\keyboard/lv_keyboard.c ****     .instance_size = sizeof(lv_keyboard_t),
  45:..\..\..\arduinoLCD\test\Pain Drain\libraries\lvgl\src\extra\widgets\keyboard/lv_keyboard.c ****     .editable = 1,
  46:..\..\..\arduinoLCD\test\Pain Drain\libraries\lvgl\src\extra\widgets\keyboard/lv_keyboard.c ****     .base_class = &lv_btnmatrix_class
  47:..\..\..\arduinoLCD\test\Pain Drain\libraries\lvgl\src\extra\widgets\keyboard/lv_keyboard.c **** };
  48:..\..\..\arduinoLCD\test\Pain Drain\libraries\lvgl\src\extra\widgets\keyboard/lv_keyboard.c **** 
  49:..\..\..\arduinoLCD\test\Pain Drain\libraries\lvgl\src\extra\widgets\keyboard/lv_keyboard.c **** static const char * const default_kb_map_lc[] = {"1#", "q", "w", "e", "r", "t", "y", "u", "i", "o",
  50:..\..\..\arduinoLCD\test\Pain Drain\libraries\lvgl\src\extra\widgets\keyboard/lv_keyboard.c ****                                                  "ABC", "a", "s", "d", "f", "g", "h", "j", "k", "l"
  51:..\..\..\arduinoLCD\test\Pain Drain\libraries\lvgl\src\extra\widgets\keyboard/lv_keyboard.c ****                                                  "_", "-", "z", "x", "c", "v", "b", "n", "m", ".", 
  52:..\..\..\arduinoLCD\test\Pain Drain\libraries\lvgl\src\extra\widgets\keyboard/lv_keyboard.c ****                                                  LV_SYMBOL_KEYBOARD, LV_SYMBOL_LEFT, " ", LV_SYMBOL
  53:..\..\..\arduinoLCD\test\Pain Drain\libraries\lvgl\src\extra\widgets\keyboard/lv_keyboard.c ****                                                 };
  54:..\..\..\arduinoLCD\test\Pain Drain\libraries\lvgl\src\extra\widgets\keyboard/lv_keyboard.c **** 
  55:..\..\..\arduinoLCD\test\Pain Drain\libraries\lvgl\src\extra\widgets\keyboard/lv_keyboard.c **** static const lv_btnmatrix_ctrl_t default_kb_ctrl_lc_map[] = {
  56:..\..\..\arduinoLCD\test\Pain Drain\libraries\lvgl\src\extra\widgets\keyboard/lv_keyboard.c ****     LV_KEYBOARD_CTRL_BTN_FLAGS | 5, LV_KB_BTN(4), LV_KB_BTN(4), LV_KB_BTN(4), LV_KB_BTN(4), LV_KB_B
  57:..\..\..\arduinoLCD\test\Pain Drain\libraries\lvgl\src\extra\widgets\keyboard/lv_keyboard.c ****     LV_KEYBOARD_CTRL_BTN_FLAGS | 6, LV_KB_BTN(3), LV_KB_BTN(3), LV_KB_BTN(3), LV_KB_BTN(3), LV_KB_B
  58:..\..\..\arduinoLCD\test\Pain Drain\libraries\lvgl\src\extra\widgets\keyboard/lv_keyboard.c ****     LV_BTNMATRIX_CTRL_CHECKED | LV_KB_BTN(1), LV_BTNMATRIX_CTRL_CHECKED | LV_KB_BTN(1), LV_KB_BTN(1
  59:..\..\..\arduinoLCD\test\Pain Drain\libraries\lvgl\src\extra\widgets\keyboard/lv_keyboard.c ****     LV_KEYBOARD_CTRL_BTN_FLAGS | 2, LV_BTNMATRIX_CTRL_CHECKED | 2, 6, LV_BTNMATRIX_CTRL_CHECKED | 2
  60:..\..\..\arduinoLCD\test\Pain Drain\libraries\lvgl\src\extra\widgets\keyboard/lv_keyboard.c **** };
  61:..\..\..\arduinoLCD\test\Pain Drain\libraries\lvgl\src\extra\widgets\keyboard/lv_keyboard.c **** 
  62:..\..\..\arduinoLCD\test\Pain Drain\libraries\lvgl\src\extra\widgets\keyboard/lv_keyboard.c **** static const char * const default_kb_map_uc[] = {"1#", "Q", "W", "E", "R", "T", "Y", "U", "I", "O",
  63:..\..\..\arduinoLCD\test\Pain Drain\libraries\lvgl\src\extra\widgets\keyboard/lv_keyboard.c ****                                                  "abc", "A", "S", "D", "F", "G", "H", "J", "K", "L"
  64:..\..\..\arduinoLCD\test\Pain Drain\libraries\lvgl\src\extra\widgets\keyboard/lv_keyboard.c ****                                                  "_", "-", "Z", "X", "C", "V", "B", "N", "M", ".", 
  65:..\..\..\arduinoLCD\test\Pain Drain\libraries\lvgl\src\extra\widgets\keyboard/lv_keyboard.c ****                                                  LV_SYMBOL_KEYBOARD, LV_SYMBOL_LEFT, " ", LV_SYMBOL
  66:..\..\..\arduinoLCD\test\Pain Drain\libraries\lvgl\src\extra\widgets\keyboard/lv_keyboard.c ****                                                 };
  67:..\..\..\arduinoLCD\test\Pain Drain\libraries\lvgl\src\extra\widgets\keyboard/lv_keyboard.c **** 
  68:..\..\..\arduinoLCD\test\Pain Drain\libraries\lvgl\src\extra\widgets\keyboard/lv_keyboard.c **** static const lv_btnmatrix_ctrl_t default_kb_ctrl_uc_map[] = {
  69:..\..\..\arduinoLCD\test\Pain Drain\libraries\lvgl\src\extra\widgets\keyboard/lv_keyboard.c ****     LV_KEYBOARD_CTRL_BTN_FLAGS | 5, LV_KB_BTN(4), LV_KB_BTN(4), LV_KB_BTN(4), LV_KB_BTN(4), LV_KB_B
  70:..\..\..\arduinoLCD\test\Pain Drain\libraries\lvgl\src\extra\widgets\keyboard/lv_keyboard.c ****     LV_KEYBOARD_CTRL_BTN_FLAGS | 6, LV_KB_BTN(3), LV_KB_BTN(3), LV_KB_BTN(3), LV_KB_BTN(3), LV_KB_B
  71:..\..\..\arduinoLCD\test\Pain Drain\libraries\lvgl\src\extra\widgets\keyboard/lv_keyboard.c ****     LV_BTNMATRIX_CTRL_CHECKED | LV_KB_BTN(1), LV_BTNMATRIX_CTRL_CHECKED | LV_KB_BTN(1), LV_KB_BTN(1
  72:..\..\..\arduinoLCD\test\Pain Drain\libraries\lvgl\src\extra\widgets\keyboard/lv_keyboard.c ****     LV_KEYBOARD_CTRL_BTN_FLAGS | 2, LV_BTNMATRIX_CTRL_CHECKED | 2, 6, LV_BTNMATRIX_CTRL_CHECKED | 2
  73:..\..\..\arduinoLCD\test\Pain Drain\libraries\lvgl\src\extra\widgets\keyboard/lv_keyboard.c **** };
  74:..\..\..\arduinoLCD\test\Pain Drain\libraries\lvgl\src\extra\widgets\keyboard/lv_keyboard.c **** 
  75:..\..\..\arduinoLCD\test\Pain Drain\libraries\lvgl\src\extra\widgets\keyboard/lv_keyboard.c **** static const char * const default_kb_map_spec[] = {"1", "2", "3", "4", "5", "6", "7", "8", "9", "0"
  76:..\..\..\arduinoLCD\test\Pain Drain\libraries\lvgl\src\extra\widgets\keyboard/lv_keyboard.c ****                                                    "abc", "+", "-", "/", "*", "=", "%", "!", "?", "
  77:..\..\..\arduinoLCD\test\Pain Drain\libraries\lvgl\src\extra\widgets\keyboard/lv_keyboard.c ****                                                    "\\",  "@", "$", "(", ")", "{", "}", "[", "]", "
  78:..\..\..\arduinoLCD\test\Pain Drain\libraries\lvgl\src\extra\widgets\keyboard/lv_keyboard.c ****                                                    LV_SYMBOL_KEYBOARD, LV_SYMBOL_LEFT, " ", LV_SYMB
  79:..\..\..\arduinoLCD\test\Pain Drain\libraries\lvgl\src\extra\widgets\keyboard/lv_keyboard.c ****                                                   };
  80:..\..\..\arduinoLCD\test\Pain Drain\libraries\lvgl\src\extra\widgets\keyboard/lv_keyboard.c **** 
  81:..\..\..\arduinoLCD\test\Pain Drain\libraries\lvgl\src\extra\widgets\keyboard/lv_keyboard.c **** static const lv_btnmatrix_ctrl_t default_kb_ctrl_spec_map[] = {
  82:..\..\..\arduinoLCD\test\Pain Drain\libraries\lvgl\src\extra\widgets\keyboard/lv_keyboard.c ****     LV_KB_BTN(1), LV_KB_BTN(1), LV_KB_BTN(1), LV_KB_BTN(1), LV_KB_BTN(1), LV_KB_BTN(1), LV_KB_BTN(1
  83:..\..\..\arduinoLCD\test\Pain Drain\libraries\lvgl\src\extra\widgets\keyboard/lv_keyboard.c ****     LV_KEYBOARD_CTRL_BTN_FLAGS | 2, LV_KB_BTN(1), LV_KB_BTN(1), LV_KB_BTN(1), LV_KB_BTN(1), LV_KB_B
  84:..\..\..\arduinoLCD\test\Pain Drain\libraries\lvgl\src\extra\widgets\keyboard/lv_keyboard.c ****     LV_KB_BTN(1), LV_KB_BTN(1), LV_KB_BTN(1), LV_KB_BTN(1), LV_KB_BTN(1), LV_KB_BTN(1), LV_KB_BTN(1
  85:..\..\..\arduinoLCD\test\Pain Drain\libraries\lvgl\src\extra\widgets\keyboard/lv_keyboard.c ****     LV_KEYBOARD_CTRL_BTN_FLAGS | 2, LV_BTNMATRIX_CTRL_CHECKED | 2, 6, LV_BTNMATRIX_CTRL_CHECKED | 2
  86:..\..\..\arduinoLCD\test\Pain Drain\libraries\lvgl\src\extra\widgets\keyboard/lv_keyboard.c **** };
  87:..\..\..\arduinoLCD\test\Pain Drain\libraries\lvgl\src\extra\widgets\keyboard/lv_keyboard.c **** 
  88:..\..\..\arduinoLCD\test\Pain Drain\libraries\lvgl\src\extra\widgets\keyboard/lv_keyboard.c **** static const char * const default_kb_map_num[] = {"1", "2", "3", LV_SYMBOL_KEYBOARD, "\n",
ARM GAS  C:\Users\haske\AppData\Local\Temp\ccEGgQv3.s 			page 3


  89:..\..\..\arduinoLCD\test\Pain Drain\libraries\lvgl\src\extra\widgets\keyboard/lv_keyboard.c ****                                                   "4", "5", "6", LV_SYMBOL_OK, "\n",
  90:..\..\..\arduinoLCD\test\Pain Drain\libraries\lvgl\src\extra\widgets\keyboard/lv_keyboard.c ****                                                   "7", "8", "9", LV_SYMBOL_BACKSPACE, "\n",
  91:..\..\..\arduinoLCD\test\Pain Drain\libraries\lvgl\src\extra\widgets\keyboard/lv_keyboard.c ****                                                   "+/-", "0", ".", LV_SYMBOL_LEFT, LV_SYMBOL_RIGHT,
  92:..\..\..\arduinoLCD\test\Pain Drain\libraries\lvgl\src\extra\widgets\keyboard/lv_keyboard.c ****                                                  };
  93:..\..\..\arduinoLCD\test\Pain Drain\libraries\lvgl\src\extra\widgets\keyboard/lv_keyboard.c **** 
  94:..\..\..\arduinoLCD\test\Pain Drain\libraries\lvgl\src\extra\widgets\keyboard/lv_keyboard.c **** static const lv_btnmatrix_ctrl_t default_kb_ctrl_num_map[] = {
  95:..\..\..\arduinoLCD\test\Pain Drain\libraries\lvgl\src\extra\widgets\keyboard/lv_keyboard.c ****     1, 1, 1, LV_KEYBOARD_CTRL_BTN_FLAGS | 2,
  96:..\..\..\arduinoLCD\test\Pain Drain\libraries\lvgl\src\extra\widgets\keyboard/lv_keyboard.c ****     1, 1, 1, LV_KEYBOARD_CTRL_BTN_FLAGS | 2,
  97:..\..\..\arduinoLCD\test\Pain Drain\libraries\lvgl\src\extra\widgets\keyboard/lv_keyboard.c ****     1, 1, 1, 2,
  98:..\..\..\arduinoLCD\test\Pain Drain\libraries\lvgl\src\extra\widgets\keyboard/lv_keyboard.c ****     1, 1, 1, 1, 1
  99:..\..\..\arduinoLCD\test\Pain Drain\libraries\lvgl\src\extra\widgets\keyboard/lv_keyboard.c **** };
 100:..\..\..\arduinoLCD\test\Pain Drain\libraries\lvgl\src\extra\widgets\keyboard/lv_keyboard.c **** 
 101:..\..\..\arduinoLCD\test\Pain Drain\libraries\lvgl\src\extra\widgets\keyboard/lv_keyboard.c **** static const char * * kb_map[9] = {
 102:..\..\..\arduinoLCD\test\Pain Drain\libraries\lvgl\src\extra\widgets\keyboard/lv_keyboard.c ****     (const char * *)default_kb_map_lc,
 103:..\..\..\arduinoLCD\test\Pain Drain\libraries\lvgl\src\extra\widgets\keyboard/lv_keyboard.c ****     (const char * *)default_kb_map_uc,
 104:..\..\..\arduinoLCD\test\Pain Drain\libraries\lvgl\src\extra\widgets\keyboard/lv_keyboard.c ****     (const char * *)default_kb_map_spec,
 105:..\..\..\arduinoLCD\test\Pain Drain\libraries\lvgl\src\extra\widgets\keyboard/lv_keyboard.c ****     (const char * *)default_kb_map_num,
 106:..\..\..\arduinoLCD\test\Pain Drain\libraries\lvgl\src\extra\widgets\keyboard/lv_keyboard.c ****     (const char * *)default_kb_map_lc,
 107:..\..\..\arduinoLCD\test\Pain Drain\libraries\lvgl\src\extra\widgets\keyboard/lv_keyboard.c ****     (const char * *)default_kb_map_lc,
 108:..\..\..\arduinoLCD\test\Pain Drain\libraries\lvgl\src\extra\widgets\keyboard/lv_keyboard.c ****     (const char * *)default_kb_map_lc,
 109:..\..\..\arduinoLCD\test\Pain Drain\libraries\lvgl\src\extra\widgets\keyboard/lv_keyboard.c ****     (const char * *)default_kb_map_lc,
 110:..\..\..\arduinoLCD\test\Pain Drain\libraries\lvgl\src\extra\widgets\keyboard/lv_keyboard.c ****     (const char * *)NULL,
 111:..\..\..\arduinoLCD\test\Pain Drain\libraries\lvgl\src\extra\widgets\keyboard/lv_keyboard.c **** };
 112:..\..\..\arduinoLCD\test\Pain Drain\libraries\lvgl\src\extra\widgets\keyboard/lv_keyboard.c **** static const lv_btnmatrix_ctrl_t * kb_ctrl[9] = {
 113:..\..\..\arduinoLCD\test\Pain Drain\libraries\lvgl\src\extra\widgets\keyboard/lv_keyboard.c ****     default_kb_ctrl_lc_map,
 114:..\..\..\arduinoLCD\test\Pain Drain\libraries\lvgl\src\extra\widgets\keyboard/lv_keyboard.c ****     default_kb_ctrl_uc_map,
 115:..\..\..\arduinoLCD\test\Pain Drain\libraries\lvgl\src\extra\widgets\keyboard/lv_keyboard.c ****     default_kb_ctrl_spec_map,
 116:..\..\..\arduinoLCD\test\Pain Drain\libraries\lvgl\src\extra\widgets\keyboard/lv_keyboard.c ****     default_kb_ctrl_num_map,
 117:..\..\..\arduinoLCD\test\Pain Drain\libraries\lvgl\src\extra\widgets\keyboard/lv_keyboard.c ****     default_kb_ctrl_lc_map,
 118:..\..\..\arduinoLCD\test\Pain Drain\libraries\lvgl\src\extra\widgets\keyboard/lv_keyboard.c ****     default_kb_ctrl_lc_map,
 119:..\..\..\arduinoLCD\test\Pain Drain\libraries\lvgl\src\extra\widgets\keyboard/lv_keyboard.c ****     default_kb_ctrl_lc_map,
 120:..\..\..\arduinoLCD\test\Pain Drain\libraries\lvgl\src\extra\widgets\keyboard/lv_keyboard.c ****     default_kb_ctrl_lc_map,
 121:..\..\..\arduinoLCD\test\Pain Drain\libraries\lvgl\src\extra\widgets\keyboard/lv_keyboard.c ****     NULL,
 122:..\..\..\arduinoLCD\test\Pain Drain\libraries\lvgl\src\extra\widgets\keyboard/lv_keyboard.c **** };
 123:..\..\..\arduinoLCD\test\Pain Drain\libraries\lvgl\src\extra\widgets\keyboard/lv_keyboard.c **** 
 124:..\..\..\arduinoLCD\test\Pain Drain\libraries\lvgl\src\extra\widgets\keyboard/lv_keyboard.c **** /**********************
 125:..\..\..\arduinoLCD\test\Pain Drain\libraries\lvgl\src\extra\widgets\keyboard/lv_keyboard.c ****  *      MACROS
 126:..\..\..\arduinoLCD\test\Pain Drain\libraries\lvgl\src\extra\widgets\keyboard/lv_keyboard.c ****  **********************/
 127:..\..\..\arduinoLCD\test\Pain Drain\libraries\lvgl\src\extra\widgets\keyboard/lv_keyboard.c **** 
 128:..\..\..\arduinoLCD\test\Pain Drain\libraries\lvgl\src\extra\widgets\keyboard/lv_keyboard.c **** /**********************
 129:..\..\..\arduinoLCD\test\Pain Drain\libraries\lvgl\src\extra\widgets\keyboard/lv_keyboard.c ****  *   GLOBAL FUNCTIONS
 130:..\..\..\arduinoLCD\test\Pain Drain\libraries\lvgl\src\extra\widgets\keyboard/lv_keyboard.c ****  **********************/
 131:..\..\..\arduinoLCD\test\Pain Drain\libraries\lvgl\src\extra\widgets\keyboard/lv_keyboard.c **** 
 132:..\..\..\arduinoLCD\test\Pain Drain\libraries\lvgl\src\extra\widgets\keyboard/lv_keyboard.c **** /**
 133:..\..\..\arduinoLCD\test\Pain Drain\libraries\lvgl\src\extra\widgets\keyboard/lv_keyboard.c ****  * Create a Keyboard object
 134:..\..\..\arduinoLCD\test\Pain Drain\libraries\lvgl\src\extra\widgets\keyboard/lv_keyboard.c ****  * @param parent pointer to an object, it will be the parent of the new keyboard
 135:..\..\..\arduinoLCD\test\Pain Drain\libraries\lvgl\src\extra\widgets\keyboard/lv_keyboard.c ****  * @return pointer to the created keyboard
 136:..\..\..\arduinoLCD\test\Pain Drain\libraries\lvgl\src\extra\widgets\keyboard/lv_keyboard.c ****  */
 137:..\..\..\arduinoLCD\test\Pain Drain\libraries\lvgl\src\extra\widgets\keyboard/lv_keyboard.c **** lv_obj_t * lv_keyboard_create(lv_obj_t * parent)
 138:..\..\..\arduinoLCD\test\Pain Drain\libraries\lvgl\src\extra\widgets\keyboard/lv_keyboard.c **** {
 139:..\..\..\arduinoLCD\test\Pain Drain\libraries\lvgl\src\extra\widgets\keyboard/lv_keyboard.c ****     LV_LOG_INFO("begin");
 140:..\..\..\arduinoLCD\test\Pain Drain\libraries\lvgl\src\extra\widgets\keyboard/lv_keyboard.c ****     lv_obj_t * obj = lv_obj_class_create_obj(&lv_keyboard_class, parent);
 141:..\..\..\arduinoLCD\test\Pain Drain\libraries\lvgl\src\extra\widgets\keyboard/lv_keyboard.c ****     lv_obj_class_init_obj(obj);
 142:..\..\..\arduinoLCD\test\Pain Drain\libraries\lvgl\src\extra\widgets\keyboard/lv_keyboard.c ****     return obj;
 143:..\..\..\arduinoLCD\test\Pain Drain\libraries\lvgl\src\extra\widgets\keyboard/lv_keyboard.c **** }
 144:..\..\..\arduinoLCD\test\Pain Drain\libraries\lvgl\src\extra\widgets\keyboard/lv_keyboard.c **** 
 145:..\..\..\arduinoLCD\test\Pain Drain\libraries\lvgl\src\extra\widgets\keyboard/lv_keyboard.c **** /*=====================
ARM GAS  C:\Users\haske\AppData\Local\Temp\ccEGgQv3.s 			page 4


 146:..\..\..\arduinoLCD\test\Pain Drain\libraries\lvgl\src\extra\widgets\keyboard/lv_keyboard.c ****  * Setter functions
 147:..\..\..\arduinoLCD\test\Pain Drain\libraries\lvgl\src\extra\widgets\keyboard/lv_keyboard.c ****  *====================*/
 148:..\..\..\arduinoLCD\test\Pain Drain\libraries\lvgl\src\extra\widgets\keyboard/lv_keyboard.c **** 
 149:..\..\..\arduinoLCD\test\Pain Drain\libraries\lvgl\src\extra\widgets\keyboard/lv_keyboard.c **** /**
 150:..\..\..\arduinoLCD\test\Pain Drain\libraries\lvgl\src\extra\widgets\keyboard/lv_keyboard.c ****  * Assign a Text Area to the Keyboard. The pressed characters will be put there.
 151:..\..\..\arduinoLCD\test\Pain Drain\libraries\lvgl\src\extra\widgets\keyboard/lv_keyboard.c ****  * @param kb pointer to a Keyboard object
 152:..\..\..\arduinoLCD\test\Pain Drain\libraries\lvgl\src\extra\widgets\keyboard/lv_keyboard.c ****  * @param ta pointer to a Text Area object to write there
 153:..\..\..\arduinoLCD\test\Pain Drain\libraries\lvgl\src\extra\widgets\keyboard/lv_keyboard.c ****  */
 154:..\..\..\arduinoLCD\test\Pain Drain\libraries\lvgl\src\extra\widgets\keyboard/lv_keyboard.c **** void lv_keyboard_set_textarea(lv_obj_t * obj, lv_obj_t * ta)
 155:..\..\..\arduinoLCD\test\Pain Drain\libraries\lvgl\src\extra\widgets\keyboard/lv_keyboard.c **** {
 156:..\..\..\arduinoLCD\test\Pain Drain\libraries\lvgl\src\extra\widgets\keyboard/lv_keyboard.c ****     if(ta) {
 157:..\..\..\arduinoLCD\test\Pain Drain\libraries\lvgl\src\extra\widgets\keyboard/lv_keyboard.c ****         LV_ASSERT_OBJ(ta, &lv_textarea_class);
 158:..\..\..\arduinoLCD\test\Pain Drain\libraries\lvgl\src\extra\widgets\keyboard/lv_keyboard.c ****     }
 159:..\..\..\arduinoLCD\test\Pain Drain\libraries\lvgl\src\extra\widgets\keyboard/lv_keyboard.c **** 
 160:..\..\..\arduinoLCD\test\Pain Drain\libraries\lvgl\src\extra\widgets\keyboard/lv_keyboard.c ****     LV_ASSERT_OBJ(obj, MY_CLASS);
 161:..\..\..\arduinoLCD\test\Pain Drain\libraries\lvgl\src\extra\widgets\keyboard/lv_keyboard.c ****     lv_keyboard_t * keyboard = (lv_keyboard_t *)obj;
 162:..\..\..\arduinoLCD\test\Pain Drain\libraries\lvgl\src\extra\widgets\keyboard/lv_keyboard.c **** 
 163:..\..\..\arduinoLCD\test\Pain Drain\libraries\lvgl\src\extra\widgets\keyboard/lv_keyboard.c ****     /*Hide the cursor of the old Text area if cursor management is enabled*/
 164:..\..\..\arduinoLCD\test\Pain Drain\libraries\lvgl\src\extra\widgets\keyboard/lv_keyboard.c ****     if(keyboard->ta) {
 165:..\..\..\arduinoLCD\test\Pain Drain\libraries\lvgl\src\extra\widgets\keyboard/lv_keyboard.c ****         lv_obj_clear_state(obj, LV_STATE_FOCUSED);
 166:..\..\..\arduinoLCD\test\Pain Drain\libraries\lvgl\src\extra\widgets\keyboard/lv_keyboard.c ****     }
 167:..\..\..\arduinoLCD\test\Pain Drain\libraries\lvgl\src\extra\widgets\keyboard/lv_keyboard.c **** 
 168:..\..\..\arduinoLCD\test\Pain Drain\libraries\lvgl\src\extra\widgets\keyboard/lv_keyboard.c ****     keyboard->ta = ta;
 169:..\..\..\arduinoLCD\test\Pain Drain\libraries\lvgl\src\extra\widgets\keyboard/lv_keyboard.c **** 
 170:..\..\..\arduinoLCD\test\Pain Drain\libraries\lvgl\src\extra\widgets\keyboard/lv_keyboard.c ****     /*Show the cursor of the new Text area if cursor management is enabled*/
 171:..\..\..\arduinoLCD\test\Pain Drain\libraries\lvgl\src\extra\widgets\keyboard/lv_keyboard.c ****     if(keyboard->ta) {
 172:..\..\..\arduinoLCD\test\Pain Drain\libraries\lvgl\src\extra\widgets\keyboard/lv_keyboard.c ****         lv_obj_add_flag(obj, LV_STATE_FOCUSED);
 173:..\..\..\arduinoLCD\test\Pain Drain\libraries\lvgl\src\extra\widgets\keyboard/lv_keyboard.c ****     }
 174:..\..\..\arduinoLCD\test\Pain Drain\libraries\lvgl\src\extra\widgets\keyboard/lv_keyboard.c **** }
 175:..\..\..\arduinoLCD\test\Pain Drain\libraries\lvgl\src\extra\widgets\keyboard/lv_keyboard.c **** 
 176:..\..\..\arduinoLCD\test\Pain Drain\libraries\lvgl\src\extra\widgets\keyboard/lv_keyboard.c **** /**
 177:..\..\..\arduinoLCD\test\Pain Drain\libraries\lvgl\src\extra\widgets\keyboard/lv_keyboard.c ****  * Set a new a mode (text or number map)
 178:..\..\..\arduinoLCD\test\Pain Drain\libraries\lvgl\src\extra\widgets\keyboard/lv_keyboard.c ****  * @param kb pointer to a Keyboard object
 179:..\..\..\arduinoLCD\test\Pain Drain\libraries\lvgl\src\extra\widgets\keyboard/lv_keyboard.c ****  * @param mode the mode from 'lv_keyboard_mode_t'
 180:..\..\..\arduinoLCD\test\Pain Drain\libraries\lvgl\src\extra\widgets\keyboard/lv_keyboard.c ****  */
 181:..\..\..\arduinoLCD\test\Pain Drain\libraries\lvgl\src\extra\widgets\keyboard/lv_keyboard.c **** void lv_keyboard_set_mode(lv_obj_t * obj, lv_keyboard_mode_t mode)
 182:..\..\..\arduinoLCD\test\Pain Drain\libraries\lvgl\src\extra\widgets\keyboard/lv_keyboard.c **** {
 183:..\..\..\arduinoLCD\test\Pain Drain\libraries\lvgl\src\extra\widgets\keyboard/lv_keyboard.c ****     LV_ASSERT_OBJ(obj, MY_CLASS);
 184:..\..\..\arduinoLCD\test\Pain Drain\libraries\lvgl\src\extra\widgets\keyboard/lv_keyboard.c ****     lv_keyboard_t * keyboard = (lv_keyboard_t *)obj;
 185:..\..\..\arduinoLCD\test\Pain Drain\libraries\lvgl\src\extra\widgets\keyboard/lv_keyboard.c ****     if(keyboard->mode == mode) return;
 186:..\..\..\arduinoLCD\test\Pain Drain\libraries\lvgl\src\extra\widgets\keyboard/lv_keyboard.c **** 
 187:..\..\..\arduinoLCD\test\Pain Drain\libraries\lvgl\src\extra\widgets\keyboard/lv_keyboard.c ****     keyboard->mode = mode;
 188:..\..\..\arduinoLCD\test\Pain Drain\libraries\lvgl\src\extra\widgets\keyboard/lv_keyboard.c ****     lv_keyboard_update_map(obj);
 189:..\..\..\arduinoLCD\test\Pain Drain\libraries\lvgl\src\extra\widgets\keyboard/lv_keyboard.c **** }
 190:..\..\..\arduinoLCD\test\Pain Drain\libraries\lvgl\src\extra\widgets\keyboard/lv_keyboard.c **** 
 191:..\..\..\arduinoLCD\test\Pain Drain\libraries\lvgl\src\extra\widgets\keyboard/lv_keyboard.c **** /**
 192:..\..\..\arduinoLCD\test\Pain Drain\libraries\lvgl\src\extra\widgets\keyboard/lv_keyboard.c ****  * Show the button title in a popover when pressed.
 193:..\..\..\arduinoLCD\test\Pain Drain\libraries\lvgl\src\extra\widgets\keyboard/lv_keyboard.c ****  * @param kb pointer to a Keyboard object
 194:..\..\..\arduinoLCD\test\Pain Drain\libraries\lvgl\src\extra\widgets\keyboard/lv_keyboard.c ****  * @param en whether "popovers" mode is enabled
 195:..\..\..\arduinoLCD\test\Pain Drain\libraries\lvgl\src\extra\widgets\keyboard/lv_keyboard.c ****  */
 196:..\..\..\arduinoLCD\test\Pain Drain\libraries\lvgl\src\extra\widgets\keyboard/lv_keyboard.c **** void lv_keyboard_set_popovers(lv_obj_t * obj, bool en)
 197:..\..\..\arduinoLCD\test\Pain Drain\libraries\lvgl\src\extra\widgets\keyboard/lv_keyboard.c **** {
 198:..\..\..\arduinoLCD\test\Pain Drain\libraries\lvgl\src\extra\widgets\keyboard/lv_keyboard.c ****     lv_keyboard_t * keyboard = (lv_keyboard_t *)obj;
 199:..\..\..\arduinoLCD\test\Pain Drain\libraries\lvgl\src\extra\widgets\keyboard/lv_keyboard.c **** 
 200:..\..\..\arduinoLCD\test\Pain Drain\libraries\lvgl\src\extra\widgets\keyboard/lv_keyboard.c ****     if(keyboard->popovers == en) {
 201:..\..\..\arduinoLCD\test\Pain Drain\libraries\lvgl\src\extra\widgets\keyboard/lv_keyboard.c ****         return;
 202:..\..\..\arduinoLCD\test\Pain Drain\libraries\lvgl\src\extra\widgets\keyboard/lv_keyboard.c ****     }
ARM GAS  C:\Users\haske\AppData\Local\Temp\ccEGgQv3.s 			page 5


 203:..\..\..\arduinoLCD\test\Pain Drain\libraries\lvgl\src\extra\widgets\keyboard/lv_keyboard.c **** 
 204:..\..\..\arduinoLCD\test\Pain Drain\libraries\lvgl\src\extra\widgets\keyboard/lv_keyboard.c ****     keyboard->popovers = en;
 205:..\..\..\arduinoLCD\test\Pain Drain\libraries\lvgl\src\extra\widgets\keyboard/lv_keyboard.c ****     lv_keyboard_update_ctrl_map(obj);
 206:..\..\..\arduinoLCD\test\Pain Drain\libraries\lvgl\src\extra\widgets\keyboard/lv_keyboard.c **** }
 207:..\..\..\arduinoLCD\test\Pain Drain\libraries\lvgl\src\extra\widgets\keyboard/lv_keyboard.c **** 
 208:..\..\..\arduinoLCD\test\Pain Drain\libraries\lvgl\src\extra\widgets\keyboard/lv_keyboard.c **** /**
 209:..\..\..\arduinoLCD\test\Pain Drain\libraries\lvgl\src\extra\widgets\keyboard/lv_keyboard.c ****  * Set a new map for the keyboard
 210:..\..\..\arduinoLCD\test\Pain Drain\libraries\lvgl\src\extra\widgets\keyboard/lv_keyboard.c ****  * @param kb pointer to a Keyboard object
 211:..\..\..\arduinoLCD\test\Pain Drain\libraries\lvgl\src\extra\widgets\keyboard/lv_keyboard.c ****  * @param mode keyboard map to alter 'lv_keyboard_mode_t'
 212:..\..\..\arduinoLCD\test\Pain Drain\libraries\lvgl\src\extra\widgets\keyboard/lv_keyboard.c ****  * @param map pointer to a string array to describe the map.
 213:..\..\..\arduinoLCD\test\Pain Drain\libraries\lvgl\src\extra\widgets\keyboard/lv_keyboard.c ****  *            See 'lv_btnmatrix_set_map()' for more info.
 214:..\..\..\arduinoLCD\test\Pain Drain\libraries\lvgl\src\extra\widgets\keyboard/lv_keyboard.c ****  */
 215:..\..\..\arduinoLCD\test\Pain Drain\libraries\lvgl\src\extra\widgets\keyboard/lv_keyboard.c **** void lv_keyboard_set_map(lv_obj_t * obj, lv_keyboard_mode_t mode, const char * map[],
 216:..\..\..\arduinoLCD\test\Pain Drain\libraries\lvgl\src\extra\widgets\keyboard/lv_keyboard.c ****                          const lv_btnmatrix_ctrl_t ctrl_map[])
 217:..\..\..\arduinoLCD\test\Pain Drain\libraries\lvgl\src\extra\widgets\keyboard/lv_keyboard.c **** {
 218:..\..\..\arduinoLCD\test\Pain Drain\libraries\lvgl\src\extra\widgets\keyboard/lv_keyboard.c ****     kb_map[mode] = map;
 219:..\..\..\arduinoLCD\test\Pain Drain\libraries\lvgl\src\extra\widgets\keyboard/lv_keyboard.c ****     kb_ctrl[mode] = ctrl_map;
 220:..\..\..\arduinoLCD\test\Pain Drain\libraries\lvgl\src\extra\widgets\keyboard/lv_keyboard.c ****     lv_keyboard_update_map(obj);
 221:..\..\..\arduinoLCD\test\Pain Drain\libraries\lvgl\src\extra\widgets\keyboard/lv_keyboard.c **** }
 222:..\..\..\arduinoLCD\test\Pain Drain\libraries\lvgl\src\extra\widgets\keyboard/lv_keyboard.c **** 
 223:..\..\..\arduinoLCD\test\Pain Drain\libraries\lvgl\src\extra\widgets\keyboard/lv_keyboard.c **** /*=====================
 224:..\..\..\arduinoLCD\test\Pain Drain\libraries\lvgl\src\extra\widgets\keyboard/lv_keyboard.c ****  * Getter functions
 225:..\..\..\arduinoLCD\test\Pain Drain\libraries\lvgl\src\extra\widgets\keyboard/lv_keyboard.c ****  *====================*/
 226:..\..\..\arduinoLCD\test\Pain Drain\libraries\lvgl\src\extra\widgets\keyboard/lv_keyboard.c **** 
 227:..\..\..\arduinoLCD\test\Pain Drain\libraries\lvgl\src\extra\widgets\keyboard/lv_keyboard.c **** /**
 228:..\..\..\arduinoLCD\test\Pain Drain\libraries\lvgl\src\extra\widgets\keyboard/lv_keyboard.c ****  * Assign a Text Area to the Keyboard. The pressed characters will be put there.
 229:..\..\..\arduinoLCD\test\Pain Drain\libraries\lvgl\src\extra\widgets\keyboard/lv_keyboard.c ****  * @param kb pointer to a Keyboard object
 230:..\..\..\arduinoLCD\test\Pain Drain\libraries\lvgl\src\extra\widgets\keyboard/lv_keyboard.c ****  * @return pointer to the assigned Text Area object
 231:..\..\..\arduinoLCD\test\Pain Drain\libraries\lvgl\src\extra\widgets\keyboard/lv_keyboard.c ****  */
 232:..\..\..\arduinoLCD\test\Pain Drain\libraries\lvgl\src\extra\widgets\keyboard/lv_keyboard.c **** lv_obj_t * lv_keyboard_get_textarea(const lv_obj_t * obj)
 233:..\..\..\arduinoLCD\test\Pain Drain\libraries\lvgl\src\extra\widgets\keyboard/lv_keyboard.c **** {
 234:..\..\..\arduinoLCD\test\Pain Drain\libraries\lvgl\src\extra\widgets\keyboard/lv_keyboard.c ****     LV_ASSERT_OBJ(obj, MY_CLASS);
 235:..\..\..\arduinoLCD\test\Pain Drain\libraries\lvgl\src\extra\widgets\keyboard/lv_keyboard.c ****     lv_keyboard_t * keyboard = (lv_keyboard_t *)obj;
 236:..\..\..\arduinoLCD\test\Pain Drain\libraries\lvgl\src\extra\widgets\keyboard/lv_keyboard.c ****     return keyboard->ta;
 237:..\..\..\arduinoLCD\test\Pain Drain\libraries\lvgl\src\extra\widgets\keyboard/lv_keyboard.c **** }
 238:..\..\..\arduinoLCD\test\Pain Drain\libraries\lvgl\src\extra\widgets\keyboard/lv_keyboard.c **** 
 239:..\..\..\arduinoLCD\test\Pain Drain\libraries\lvgl\src\extra\widgets\keyboard/lv_keyboard.c **** /**
 240:..\..\..\arduinoLCD\test\Pain Drain\libraries\lvgl\src\extra\widgets\keyboard/lv_keyboard.c ****  * Set a new a mode (text or number map)
 241:..\..\..\arduinoLCD\test\Pain Drain\libraries\lvgl\src\extra\widgets\keyboard/lv_keyboard.c ****  * @param kb pointer to a Keyboard object
 242:..\..\..\arduinoLCD\test\Pain Drain\libraries\lvgl\src\extra\widgets\keyboard/lv_keyboard.c ****  * @return the current mode from 'lv_keyboard_mode_t'
 243:..\..\..\arduinoLCD\test\Pain Drain\libraries\lvgl\src\extra\widgets\keyboard/lv_keyboard.c ****  */
 244:..\..\..\arduinoLCD\test\Pain Drain\libraries\lvgl\src\extra\widgets\keyboard/lv_keyboard.c **** lv_keyboard_mode_t lv_keyboard_get_mode(const lv_obj_t * obj)
 245:..\..\..\arduinoLCD\test\Pain Drain\libraries\lvgl\src\extra\widgets\keyboard/lv_keyboard.c **** {
 246:..\..\..\arduinoLCD\test\Pain Drain\libraries\lvgl\src\extra\widgets\keyboard/lv_keyboard.c ****     LV_ASSERT_OBJ(obj, MY_CLASS);
 247:..\..\..\arduinoLCD\test\Pain Drain\libraries\lvgl\src\extra\widgets\keyboard/lv_keyboard.c ****     lv_keyboard_t * keyboard = (lv_keyboard_t *)obj;
 248:..\..\..\arduinoLCD\test\Pain Drain\libraries\lvgl\src\extra\widgets\keyboard/lv_keyboard.c ****     return keyboard->mode;
 249:..\..\..\arduinoLCD\test\Pain Drain\libraries\lvgl\src\extra\widgets\keyboard/lv_keyboard.c **** }
 250:..\..\..\arduinoLCD\test\Pain Drain\libraries\lvgl\src\extra\widgets\keyboard/lv_keyboard.c **** 
 251:..\..\..\arduinoLCD\test\Pain Drain\libraries\lvgl\src\extra\widgets\keyboard/lv_keyboard.c **** /**
 252:..\..\..\arduinoLCD\test\Pain Drain\libraries\lvgl\src\extra\widgets\keyboard/lv_keyboard.c ****  * Tell whether "popovers" mode is enabled or not.
 253:..\..\..\arduinoLCD\test\Pain Drain\libraries\lvgl\src\extra\widgets\keyboard/lv_keyboard.c ****  * @param kb pointer to a Keyboard object
 254:..\..\..\arduinoLCD\test\Pain Drain\libraries\lvgl\src\extra\widgets\keyboard/lv_keyboard.c ****  * @return true: "popovers" mode is enabled; false: disabled
 255:..\..\..\arduinoLCD\test\Pain Drain\libraries\lvgl\src\extra\widgets\keyboard/lv_keyboard.c ****  */
 256:..\..\..\arduinoLCD\test\Pain Drain\libraries\lvgl\src\extra\widgets\keyboard/lv_keyboard.c **** bool lv_btnmatrix_get_popovers(const lv_obj_t * obj)
 257:..\..\..\arduinoLCD\test\Pain Drain\libraries\lvgl\src\extra\widgets\keyboard/lv_keyboard.c **** {
 258:..\..\..\arduinoLCD\test\Pain Drain\libraries\lvgl\src\extra\widgets\keyboard/lv_keyboard.c ****     lv_keyboard_t * keyboard = (lv_keyboard_t *)obj;
 259:..\..\..\arduinoLCD\test\Pain Drain\libraries\lvgl\src\extra\widgets\keyboard/lv_keyboard.c ****     return keyboard->popovers;
ARM GAS  C:\Users\haske\AppData\Local\Temp\ccEGgQv3.s 			page 6


 260:..\..\..\arduinoLCD\test\Pain Drain\libraries\lvgl\src\extra\widgets\keyboard/lv_keyboard.c **** }
 261:..\..\..\arduinoLCD\test\Pain Drain\libraries\lvgl\src\extra\widgets\keyboard/lv_keyboard.c **** 
 262:..\..\..\arduinoLCD\test\Pain Drain\libraries\lvgl\src\extra\widgets\keyboard/lv_keyboard.c **** /*=====================
 263:..\..\..\arduinoLCD\test\Pain Drain\libraries\lvgl\src\extra\widgets\keyboard/lv_keyboard.c ****  * Other functions
 264:..\..\..\arduinoLCD\test\Pain Drain\libraries\lvgl\src\extra\widgets\keyboard/lv_keyboard.c ****  *====================*/
 265:..\..\..\arduinoLCD\test\Pain Drain\libraries\lvgl\src\extra\widgets\keyboard/lv_keyboard.c **** 
 266:..\..\..\arduinoLCD\test\Pain Drain\libraries\lvgl\src\extra\widgets\keyboard/lv_keyboard.c **** /**
 267:..\..\..\arduinoLCD\test\Pain Drain\libraries\lvgl\src\extra\widgets\keyboard/lv_keyboard.c ****  * Default keyboard event to add characters to the Text area and change the map.
 268:..\..\..\arduinoLCD\test\Pain Drain\libraries\lvgl\src\extra\widgets\keyboard/lv_keyboard.c ****  * If a custom `event_cb` is added to the keyboard this function can be called from it to handle th
 269:..\..\..\arduinoLCD\test\Pain Drain\libraries\lvgl\src\extra\widgets\keyboard/lv_keyboard.c ****  * button clicks
 270:..\..\..\arduinoLCD\test\Pain Drain\libraries\lvgl\src\extra\widgets\keyboard/lv_keyboard.c ****  * @param kb pointer to a keyboard
 271:..\..\..\arduinoLCD\test\Pain Drain\libraries\lvgl\src\extra\widgets\keyboard/lv_keyboard.c ****  * @param event the triggering event
 272:..\..\..\arduinoLCD\test\Pain Drain\libraries\lvgl\src\extra\widgets\keyboard/lv_keyboard.c ****  */
 273:..\..\..\arduinoLCD\test\Pain Drain\libraries\lvgl\src\extra\widgets\keyboard/lv_keyboard.c **** void lv_keyboard_def_event_cb(lv_event_t * e)
 274:..\..\..\arduinoLCD\test\Pain Drain\libraries\lvgl\src\extra\widgets\keyboard/lv_keyboard.c **** {
 275:..\..\..\arduinoLCD\test\Pain Drain\libraries\lvgl\src\extra\widgets\keyboard/lv_keyboard.c ****     lv_obj_t * obj = lv_event_get_target(e);
 276:..\..\..\arduinoLCD\test\Pain Drain\libraries\lvgl\src\extra\widgets\keyboard/lv_keyboard.c **** 
 277:..\..\..\arduinoLCD\test\Pain Drain\libraries\lvgl\src\extra\widgets\keyboard/lv_keyboard.c ****     LV_ASSERT_OBJ(obj, MY_CLASS);
 278:..\..\..\arduinoLCD\test\Pain Drain\libraries\lvgl\src\extra\widgets\keyboard/lv_keyboard.c ****     lv_keyboard_t * keyboard = (lv_keyboard_t *)obj;
 279:..\..\..\arduinoLCD\test\Pain Drain\libraries\lvgl\src\extra\widgets\keyboard/lv_keyboard.c ****     uint16_t btn_id   = lv_btnmatrix_get_selected_btn(obj);
 280:..\..\..\arduinoLCD\test\Pain Drain\libraries\lvgl\src\extra\widgets\keyboard/lv_keyboard.c ****     if(btn_id == LV_BTNMATRIX_BTN_NONE) return;
 281:..\..\..\arduinoLCD\test\Pain Drain\libraries\lvgl\src\extra\widgets\keyboard/lv_keyboard.c **** 
 282:..\..\..\arduinoLCD\test\Pain Drain\libraries\lvgl\src\extra\widgets\keyboard/lv_keyboard.c ****     const char * txt = lv_btnmatrix_get_btn_text(obj, lv_btnmatrix_get_selected_btn(obj));
 283:..\..\..\arduinoLCD\test\Pain Drain\libraries\lvgl\src\extra\widgets\keyboard/lv_keyboard.c ****     if(txt == NULL) return;
 284:..\..\..\arduinoLCD\test\Pain Drain\libraries\lvgl\src\extra\widgets\keyboard/lv_keyboard.c **** 
 285:..\..\..\arduinoLCD\test\Pain Drain\libraries\lvgl\src\extra\widgets\keyboard/lv_keyboard.c ****     if(strcmp(txt, "abc") == 0) {
 286:..\..\..\arduinoLCD\test\Pain Drain\libraries\lvgl\src\extra\widgets\keyboard/lv_keyboard.c ****         keyboard->mode = LV_KEYBOARD_MODE_TEXT_LOWER;
 287:..\..\..\arduinoLCD\test\Pain Drain\libraries\lvgl\src\extra\widgets\keyboard/lv_keyboard.c ****         lv_btnmatrix_set_map(obj, kb_map[LV_KEYBOARD_MODE_TEXT_LOWER]);
 288:..\..\..\arduinoLCD\test\Pain Drain\libraries\lvgl\src\extra\widgets\keyboard/lv_keyboard.c ****         lv_keyboard_update_ctrl_map(obj);
 289:..\..\..\arduinoLCD\test\Pain Drain\libraries\lvgl\src\extra\widgets\keyboard/lv_keyboard.c ****         return;
 290:..\..\..\arduinoLCD\test\Pain Drain\libraries\lvgl\src\extra\widgets\keyboard/lv_keyboard.c ****     }
 291:..\..\..\arduinoLCD\test\Pain Drain\libraries\lvgl\src\extra\widgets\keyboard/lv_keyboard.c ****     else if(strcmp(txt, "ABC") == 0) {
 292:..\..\..\arduinoLCD\test\Pain Drain\libraries\lvgl\src\extra\widgets\keyboard/lv_keyboard.c ****         keyboard->mode = LV_KEYBOARD_MODE_TEXT_UPPER;
 293:..\..\..\arduinoLCD\test\Pain Drain\libraries\lvgl\src\extra\widgets\keyboard/lv_keyboard.c ****         lv_btnmatrix_set_map(obj, kb_map[LV_KEYBOARD_MODE_TEXT_UPPER]);
 294:..\..\..\arduinoLCD\test\Pain Drain\libraries\lvgl\src\extra\widgets\keyboard/lv_keyboard.c ****         lv_keyboard_update_ctrl_map(obj);
 295:..\..\..\arduinoLCD\test\Pain Drain\libraries\lvgl\src\extra\widgets\keyboard/lv_keyboard.c ****         return;
 296:..\..\..\arduinoLCD\test\Pain Drain\libraries\lvgl\src\extra\widgets\keyboard/lv_keyboard.c ****     }
 297:..\..\..\arduinoLCD\test\Pain Drain\libraries\lvgl\src\extra\widgets\keyboard/lv_keyboard.c ****     else if(strcmp(txt, "1#") == 0) {
 298:..\..\..\arduinoLCD\test\Pain Drain\libraries\lvgl\src\extra\widgets\keyboard/lv_keyboard.c ****         keyboard->mode = LV_KEYBOARD_MODE_SPECIAL;
 299:..\..\..\arduinoLCD\test\Pain Drain\libraries\lvgl\src\extra\widgets\keyboard/lv_keyboard.c ****         lv_btnmatrix_set_map(obj, kb_map[LV_KEYBOARD_MODE_SPECIAL]);
 300:..\..\..\arduinoLCD\test\Pain Drain\libraries\lvgl\src\extra\widgets\keyboard/lv_keyboard.c ****         lv_keyboard_update_ctrl_map(obj);
 301:..\..\..\arduinoLCD\test\Pain Drain\libraries\lvgl\src\extra\widgets\keyboard/lv_keyboard.c ****         return;
 302:..\..\..\arduinoLCD\test\Pain Drain\libraries\lvgl\src\extra\widgets\keyboard/lv_keyboard.c ****     }
 303:..\..\..\arduinoLCD\test\Pain Drain\libraries\lvgl\src\extra\widgets\keyboard/lv_keyboard.c ****     else if(strcmp(txt, LV_SYMBOL_CLOSE) == 0 || strcmp(txt, LV_SYMBOL_KEYBOARD) == 0) {
 304:..\..\..\arduinoLCD\test\Pain Drain\libraries\lvgl\src\extra\widgets\keyboard/lv_keyboard.c ****         lv_res_t res = lv_event_send(obj, LV_EVENT_CANCEL, NULL);
 305:..\..\..\arduinoLCD\test\Pain Drain\libraries\lvgl\src\extra\widgets\keyboard/lv_keyboard.c ****         if(res != LV_RES_OK) return;
 306:..\..\..\arduinoLCD\test\Pain Drain\libraries\lvgl\src\extra\widgets\keyboard/lv_keyboard.c **** 
 307:..\..\..\arduinoLCD\test\Pain Drain\libraries\lvgl\src\extra\widgets\keyboard/lv_keyboard.c ****         if(keyboard->ta) {
 308:..\..\..\arduinoLCD\test\Pain Drain\libraries\lvgl\src\extra\widgets\keyboard/lv_keyboard.c ****             res = lv_event_send(keyboard->ta, LV_EVENT_CANCEL, NULL);
 309:..\..\..\arduinoLCD\test\Pain Drain\libraries\lvgl\src\extra\widgets\keyboard/lv_keyboard.c ****             if(res != LV_RES_OK) return;
 310:..\..\..\arduinoLCD\test\Pain Drain\libraries\lvgl\src\extra\widgets\keyboard/lv_keyboard.c ****         }
 311:..\..\..\arduinoLCD\test\Pain Drain\libraries\lvgl\src\extra\widgets\keyboard/lv_keyboard.c ****         return;
 312:..\..\..\arduinoLCD\test\Pain Drain\libraries\lvgl\src\extra\widgets\keyboard/lv_keyboard.c ****     }
 313:..\..\..\arduinoLCD\test\Pain Drain\libraries\lvgl\src\extra\widgets\keyboard/lv_keyboard.c ****     else if(strcmp(txt, LV_SYMBOL_OK) == 0) {
 314:..\..\..\arduinoLCD\test\Pain Drain\libraries\lvgl\src\extra\widgets\keyboard/lv_keyboard.c ****         lv_res_t res = lv_event_send(obj, LV_EVENT_READY, NULL);
 315:..\..\..\arduinoLCD\test\Pain Drain\libraries\lvgl\src\extra\widgets\keyboard/lv_keyboard.c ****         if(res != LV_RES_OK) return;
 316:..\..\..\arduinoLCD\test\Pain Drain\libraries\lvgl\src\extra\widgets\keyboard/lv_keyboard.c **** 
ARM GAS  C:\Users\haske\AppData\Local\Temp\ccEGgQv3.s 			page 7


 317:..\..\..\arduinoLCD\test\Pain Drain\libraries\lvgl\src\extra\widgets\keyboard/lv_keyboard.c ****         if(keyboard->ta) {
 318:..\..\..\arduinoLCD\test\Pain Drain\libraries\lvgl\src\extra\widgets\keyboard/lv_keyboard.c ****             res = lv_event_send(keyboard->ta, LV_EVENT_READY, NULL);
 319:..\..\..\arduinoLCD\test\Pain Drain\libraries\lvgl\src\extra\widgets\keyboard/lv_keyboard.c ****             if(res != LV_RES_OK) return;
 320:..\..\..\arduinoLCD\test\Pain Drain\libraries\lvgl\src\extra\widgets\keyboard/lv_keyboard.c ****         }
 321:..\..\..\arduinoLCD\test\Pain Drain\libraries\lvgl\src\extra\widgets\keyboard/lv_keyboard.c ****         return;
 322:..\..\..\arduinoLCD\test\Pain Drain\libraries\lvgl\src\extra\widgets\keyboard/lv_keyboard.c ****     }
 323:..\..\..\arduinoLCD\test\Pain Drain\libraries\lvgl\src\extra\widgets\keyboard/lv_keyboard.c **** 
 324:..\..\..\arduinoLCD\test\Pain Drain\libraries\lvgl\src\extra\widgets\keyboard/lv_keyboard.c ****     /*Add the characters to the text area if set*/
 325:..\..\..\arduinoLCD\test\Pain Drain\libraries\lvgl\src\extra\widgets\keyboard/lv_keyboard.c ****     if(keyboard->ta == NULL) return;
 326:..\..\..\arduinoLCD\test\Pain Drain\libraries\lvgl\src\extra\widgets\keyboard/lv_keyboard.c **** 
 327:..\..\..\arduinoLCD\test\Pain Drain\libraries\lvgl\src\extra\widgets\keyboard/lv_keyboard.c ****     if(strcmp(txt, "Enter") == 0 || strcmp(txt, LV_SYMBOL_NEW_LINE) == 0) {
 328:..\..\..\arduinoLCD\test\Pain Drain\libraries\lvgl\src\extra\widgets\keyboard/lv_keyboard.c ****         lv_textarea_add_char(keyboard->ta, '\n');
 329:..\..\..\arduinoLCD\test\Pain Drain\libraries\lvgl\src\extra\widgets\keyboard/lv_keyboard.c ****         if(lv_textarea_get_one_line(keyboard->ta)) {
 330:..\..\..\arduinoLCD\test\Pain Drain\libraries\lvgl\src\extra\widgets\keyboard/lv_keyboard.c ****             lv_res_t res = lv_event_send(keyboard->ta, LV_EVENT_READY, NULL);
 331:..\..\..\arduinoLCD\test\Pain Drain\libraries\lvgl\src\extra\widgets\keyboard/lv_keyboard.c ****             if(res != LV_RES_OK) return;
 332:..\..\..\arduinoLCD\test\Pain Drain\libraries\lvgl\src\extra\widgets\keyboard/lv_keyboard.c ****         }
 333:..\..\..\arduinoLCD\test\Pain Drain\libraries\lvgl\src\extra\widgets\keyboard/lv_keyboard.c ****     }
 334:..\..\..\arduinoLCD\test\Pain Drain\libraries\lvgl\src\extra\widgets\keyboard/lv_keyboard.c ****     else if(strcmp(txt, LV_SYMBOL_LEFT) == 0) {
 335:..\..\..\arduinoLCD\test\Pain Drain\libraries\lvgl\src\extra\widgets\keyboard/lv_keyboard.c ****         lv_textarea_cursor_left(keyboard->ta);
 336:..\..\..\arduinoLCD\test\Pain Drain\libraries\lvgl\src\extra\widgets\keyboard/lv_keyboard.c ****     }
 337:..\..\..\arduinoLCD\test\Pain Drain\libraries\lvgl\src\extra\widgets\keyboard/lv_keyboard.c ****     else if(strcmp(txt, LV_SYMBOL_RIGHT) == 0) {
 338:..\..\..\arduinoLCD\test\Pain Drain\libraries\lvgl\src\extra\widgets\keyboard/lv_keyboard.c ****         lv_textarea_cursor_right(keyboard->ta);
 339:..\..\..\arduinoLCD\test\Pain Drain\libraries\lvgl\src\extra\widgets\keyboard/lv_keyboard.c ****     }
 340:..\..\..\arduinoLCD\test\Pain Drain\libraries\lvgl\src\extra\widgets\keyboard/lv_keyboard.c ****     else if(strcmp(txt, LV_SYMBOL_BACKSPACE) == 0) {
 341:..\..\..\arduinoLCD\test\Pain Drain\libraries\lvgl\src\extra\widgets\keyboard/lv_keyboard.c ****         lv_textarea_del_char(keyboard->ta);
 342:..\..\..\arduinoLCD\test\Pain Drain\libraries\lvgl\src\extra\widgets\keyboard/lv_keyboard.c ****     }
 343:..\..\..\arduinoLCD\test\Pain Drain\libraries\lvgl\src\extra\widgets\keyboard/lv_keyboard.c ****     else if(strcmp(txt, "+/-") == 0) {
 344:..\..\..\arduinoLCD\test\Pain Drain\libraries\lvgl\src\extra\widgets\keyboard/lv_keyboard.c ****         uint16_t cur        = lv_textarea_get_cursor_pos(keyboard->ta);
 345:..\..\..\arduinoLCD\test\Pain Drain\libraries\lvgl\src\extra\widgets\keyboard/lv_keyboard.c ****         const char * ta_txt = lv_textarea_get_text(keyboard->ta);
 346:..\..\..\arduinoLCD\test\Pain Drain\libraries\lvgl\src\extra\widgets\keyboard/lv_keyboard.c ****         if(ta_txt[0] == '-') {
 347:..\..\..\arduinoLCD\test\Pain Drain\libraries\lvgl\src\extra\widgets\keyboard/lv_keyboard.c ****             lv_textarea_set_cursor_pos(keyboard->ta, 1);
 348:..\..\..\arduinoLCD\test\Pain Drain\libraries\lvgl\src\extra\widgets\keyboard/lv_keyboard.c ****             lv_textarea_del_char(keyboard->ta);
 349:..\..\..\arduinoLCD\test\Pain Drain\libraries\lvgl\src\extra\widgets\keyboard/lv_keyboard.c ****             lv_textarea_add_char(keyboard->ta, '+');
 350:..\..\..\arduinoLCD\test\Pain Drain\libraries\lvgl\src\extra\widgets\keyboard/lv_keyboard.c ****             lv_textarea_set_cursor_pos(keyboard->ta, cur);
 351:..\..\..\arduinoLCD\test\Pain Drain\libraries\lvgl\src\extra\widgets\keyboard/lv_keyboard.c ****         }
 352:..\..\..\arduinoLCD\test\Pain Drain\libraries\lvgl\src\extra\widgets\keyboard/lv_keyboard.c ****         else if(ta_txt[0] == '+') {
 353:..\..\..\arduinoLCD\test\Pain Drain\libraries\lvgl\src\extra\widgets\keyboard/lv_keyboard.c ****             lv_textarea_set_cursor_pos(keyboard->ta, 1);
 354:..\..\..\arduinoLCD\test\Pain Drain\libraries\lvgl\src\extra\widgets\keyboard/lv_keyboard.c ****             lv_textarea_del_char(keyboard->ta);
 355:..\..\..\arduinoLCD\test\Pain Drain\libraries\lvgl\src\extra\widgets\keyboard/lv_keyboard.c ****             lv_textarea_add_char(keyboard->ta, '-');
 356:..\..\..\arduinoLCD\test\Pain Drain\libraries\lvgl\src\extra\widgets\keyboard/lv_keyboard.c ****             lv_textarea_set_cursor_pos(keyboard->ta, cur);
 357:..\..\..\arduinoLCD\test\Pain Drain\libraries\lvgl\src\extra\widgets\keyboard/lv_keyboard.c ****         }
 358:..\..\..\arduinoLCD\test\Pain Drain\libraries\lvgl\src\extra\widgets\keyboard/lv_keyboard.c ****         else {
 359:..\..\..\arduinoLCD\test\Pain Drain\libraries\lvgl\src\extra\widgets\keyboard/lv_keyboard.c ****             lv_textarea_set_cursor_pos(keyboard->ta, 0);
 360:..\..\..\arduinoLCD\test\Pain Drain\libraries\lvgl\src\extra\widgets\keyboard/lv_keyboard.c ****             lv_textarea_add_char(keyboard->ta, '-');
 361:..\..\..\arduinoLCD\test\Pain Drain\libraries\lvgl\src\extra\widgets\keyboard/lv_keyboard.c ****             lv_textarea_set_cursor_pos(keyboard->ta, cur + 1);
 362:..\..\..\arduinoLCD\test\Pain Drain\libraries\lvgl\src\extra\widgets\keyboard/lv_keyboard.c ****         }
 363:..\..\..\arduinoLCD\test\Pain Drain\libraries\lvgl\src\extra\widgets\keyboard/lv_keyboard.c ****     }
 364:..\..\..\arduinoLCD\test\Pain Drain\libraries\lvgl\src\extra\widgets\keyboard/lv_keyboard.c ****     else {
 365:..\..\..\arduinoLCD\test\Pain Drain\libraries\lvgl\src\extra\widgets\keyboard/lv_keyboard.c ****         lv_textarea_add_text(keyboard->ta, txt);
 366:..\..\..\arduinoLCD\test\Pain Drain\libraries\lvgl\src\extra\widgets\keyboard/lv_keyboard.c ****     }
 367:..\..\..\arduinoLCD\test\Pain Drain\libraries\lvgl\src\extra\widgets\keyboard/lv_keyboard.c **** }
 368:..\..\..\arduinoLCD\test\Pain Drain\libraries\lvgl\src\extra\widgets\keyboard/lv_keyboard.c **** 
 369:..\..\..\arduinoLCD\test\Pain Drain\libraries\lvgl\src\extra\widgets\keyboard/lv_keyboard.c **** /**********************
 370:..\..\..\arduinoLCD\test\Pain Drain\libraries\lvgl\src\extra\widgets\keyboard/lv_keyboard.c ****  *   STATIC FUNCTIONS
 371:..\..\..\arduinoLCD\test\Pain Drain\libraries\lvgl\src\extra\widgets\keyboard/lv_keyboard.c ****  **********************/
 372:..\..\..\arduinoLCD\test\Pain Drain\libraries\lvgl\src\extra\widgets\keyboard/lv_keyboard.c **** 
 373:..\..\..\arduinoLCD\test\Pain Drain\libraries\lvgl\src\extra\widgets\keyboard/lv_keyboard.c **** static void lv_keyboard_constructor(const lv_obj_class_t * class_p, lv_obj_t * obj)
ARM GAS  C:\Users\haske\AppData\Local\Temp\ccEGgQv3.s 			page 8


 374:..\..\..\arduinoLCD\test\Pain Drain\libraries\lvgl\src\extra\widgets\keyboard/lv_keyboard.c **** {
 375:..\..\..\arduinoLCD\test\Pain Drain\libraries\lvgl\src\extra\widgets\keyboard/lv_keyboard.c ****     LV_UNUSED(class_p);
 376:..\..\..\arduinoLCD\test\Pain Drain\libraries\lvgl\src\extra\widgets\keyboard/lv_keyboard.c ****     lv_obj_clear_flag(obj, LV_OBJ_FLAG_CLICK_FOCUSABLE);
 377:..\..\..\arduinoLCD\test\Pain Drain\libraries\lvgl\src\extra\widgets\keyboard/lv_keyboard.c **** 
 378:..\..\..\arduinoLCD\test\Pain Drain\libraries\lvgl\src\extra\widgets\keyboard/lv_keyboard.c ****     lv_keyboard_t * keyboard = (lv_keyboard_t *)obj;
 379:..\..\..\arduinoLCD\test\Pain Drain\libraries\lvgl\src\extra\widgets\keyboard/lv_keyboard.c ****     keyboard->ta         = NULL;
 380:..\..\..\arduinoLCD\test\Pain Drain\libraries\lvgl\src\extra\widgets\keyboard/lv_keyboard.c ****     keyboard->mode       = LV_KEYBOARD_MODE_TEXT_LOWER;
 381:..\..\..\arduinoLCD\test\Pain Drain\libraries\lvgl\src\extra\widgets\keyboard/lv_keyboard.c ****     keyboard->popovers   = 0;
 382:..\..\..\arduinoLCD\test\Pain Drain\libraries\lvgl\src\extra\widgets\keyboard/lv_keyboard.c **** 
 383:..\..\..\arduinoLCD\test\Pain Drain\libraries\lvgl\src\extra\widgets\keyboard/lv_keyboard.c ****     lv_obj_align(obj, LV_ALIGN_BOTTOM_MID, 0, 0);
 384:..\..\..\arduinoLCD\test\Pain Drain\libraries\lvgl\src\extra\widgets\keyboard/lv_keyboard.c ****     lv_obj_add_event_cb(obj, lv_keyboard_def_event_cb, LV_EVENT_VALUE_CHANGED, NULL);
 385:..\..\..\arduinoLCD\test\Pain Drain\libraries\lvgl\src\extra\widgets\keyboard/lv_keyboard.c ****     lv_obj_set_style_base_dir(obj, LV_BASE_DIR_LTR, 0);
 386:..\..\..\arduinoLCD\test\Pain Drain\libraries\lvgl\src\extra\widgets\keyboard/lv_keyboard.c **** 
 387:..\..\..\arduinoLCD\test\Pain Drain\libraries\lvgl\src\extra\widgets\keyboard/lv_keyboard.c ****     lv_keyboard_update_map(obj);
 388:..\..\..\arduinoLCD\test\Pain Drain\libraries\lvgl\src\extra\widgets\keyboard/lv_keyboard.c **** }
 389:..\..\..\arduinoLCD\test\Pain Drain\libraries\lvgl\src\extra\widgets\keyboard/lv_keyboard.c **** 
 390:..\..\..\arduinoLCD\test\Pain Drain\libraries\lvgl\src\extra\widgets\keyboard/lv_keyboard.c **** /**
 391:..\..\..\arduinoLCD\test\Pain Drain\libraries\lvgl\src\extra\widgets\keyboard/lv_keyboard.c ****  * Update the key and control map for the current mode
 392:..\..\..\arduinoLCD\test\Pain Drain\libraries\lvgl\src\extra\widgets\keyboard/lv_keyboard.c ****  * @param obj pointer to a keyboard object
 393:..\..\..\arduinoLCD\test\Pain Drain\libraries\lvgl\src\extra\widgets\keyboard/lv_keyboard.c ****  */
 394:..\..\..\arduinoLCD\test\Pain Drain\libraries\lvgl\src\extra\widgets\keyboard/lv_keyboard.c **** static void lv_keyboard_update_map(lv_obj_t * obj)
 395:..\..\..\arduinoLCD\test\Pain Drain\libraries\lvgl\src\extra\widgets\keyboard/lv_keyboard.c **** {
 396:..\..\..\arduinoLCD\test\Pain Drain\libraries\lvgl\src\extra\widgets\keyboard/lv_keyboard.c ****     lv_keyboard_t * keyboard = (lv_keyboard_t *)obj;
 397:..\..\..\arduinoLCD\test\Pain Drain\libraries\lvgl\src\extra\widgets\keyboard/lv_keyboard.c ****     lv_btnmatrix_set_map(obj, kb_map[keyboard->mode]);
 398:..\..\..\arduinoLCD\test\Pain Drain\libraries\lvgl\src\extra\widgets\keyboard/lv_keyboard.c ****     lv_keyboard_update_ctrl_map(obj);
 399:..\..\..\arduinoLCD\test\Pain Drain\libraries\lvgl\src\extra\widgets\keyboard/lv_keyboard.c **** }
 400:..\..\..\arduinoLCD\test\Pain Drain\libraries\lvgl\src\extra\widgets\keyboard/lv_keyboard.c **** 
 401:..\..\..\arduinoLCD\test\Pain Drain\libraries\lvgl\src\extra\widgets\keyboard/lv_keyboard.c **** /**
 402:..\..\..\arduinoLCD\test\Pain Drain\libraries\lvgl\src\extra\widgets\keyboard/lv_keyboard.c ****  * Update the control map for the current mode
 403:..\..\..\arduinoLCD\test\Pain Drain\libraries\lvgl\src\extra\widgets\keyboard/lv_keyboard.c ****  * @param obj pointer to a keyboard object
 404:..\..\..\arduinoLCD\test\Pain Drain\libraries\lvgl\src\extra\widgets\keyboard/lv_keyboard.c ****  */
 405:..\..\..\arduinoLCD\test\Pain Drain\libraries\lvgl\src\extra\widgets\keyboard/lv_keyboard.c **** static void lv_keyboard_update_ctrl_map(lv_obj_t * obj)
 406:..\..\..\arduinoLCD\test\Pain Drain\libraries\lvgl\src\extra\widgets\keyboard/lv_keyboard.c **** {
  27              		.loc 1 406 0
  28              		.cfi_startproc
  29              		@ args = 0, pretend = 0, frame = 0
  30              		@ frame_needed = 0, uses_anonymous_args = 0
  31              	.LVL0:
  32 0000 70B5     		push	{r4, r5, r6, lr}
  33              		.cfi_def_cfa_offset 16
  34              		.cfi_offset 4, -16
  35              		.cfi_offset 5, -12
  36              		.cfi_offset 6, -8
  37              		.cfi_offset 14, -4
  38 0002 0400     		movs	r4, r0
  39              	.LVL1:
 407:..\..\..\arduinoLCD\test\Pain Drain\libraries\lvgl\src\extra\widgets\keyboard/lv_keyboard.c ****     lv_keyboard_t * keyboard = (lv_keyboard_t *)obj;
 408:..\..\..\arduinoLCD\test\Pain Drain\libraries\lvgl\src\extra\widgets\keyboard/lv_keyboard.c **** 
 409:..\..\..\arduinoLCD\test\Pain Drain\libraries\lvgl\src\extra\widgets\keyboard/lv_keyboard.c ****     if(keyboard->popovers) {
  40              		.loc 1 409 0
  41 0004 3D23     		movs	r3, #61
  42 0006 C35C     		ldrb	r3, [r0, r3]
  43 0008 DB07     		lsls	r3, r3, #31
  44 000a 07D5     		bpl	.L2
 410:..\..\..\arduinoLCD\test\Pain Drain\libraries\lvgl\src\extra\widgets\keyboard/lv_keyboard.c ****         /*Apply the current control map (already includes LV_BTNMATRIX_CTRL_POPOVER flags)*/
 411:..\..\..\arduinoLCD\test\Pain Drain\libraries\lvgl\src\extra\widgets\keyboard/lv_keyboard.c ****         lv_btnmatrix_set_ctrl_map(obj, kb_ctrl[keyboard->mode]);
  45              		.loc 1 411 0
ARM GAS  C:\Users\haske\AppData\Local\Temp\ccEGgQv3.s 			page 9


  46 000c 3C23     		movs	r3, #60
  47 000e C35C     		ldrb	r3, [r0, r3]
  48 0010 9B00     		lsls	r3, r3, #2
  49 0012 144A     		ldr	r2, .L6
  50 0014 9958     		ldr	r1, [r3, r2]
  51 0016 FFF7FEFF 		bl	lv_btnmatrix_set_ctrl_map
  52              	.LVL2:
  53 001a 21E0     		b	.L1
  54              	.LVL3:
  55              	.L2:
  56              	.LBB2:
 412:..\..\..\arduinoLCD\test\Pain Drain\libraries\lvgl\src\extra\widgets\keyboard/lv_keyboard.c ****     }
 413:..\..\..\arduinoLCD\test\Pain Drain\libraries\lvgl\src\extra\widgets\keyboard/lv_keyboard.c ****     else {
 414:..\..\..\arduinoLCD\test\Pain Drain\libraries\lvgl\src\extra\widgets\keyboard/lv_keyboard.c ****         /*Make a copy of the current control map*/
 415:..\..\..\arduinoLCD\test\Pain Drain\libraries\lvgl\src\extra\widgets\keyboard/lv_keyboard.c ****         lv_btnmatrix_t * btnm = (lv_btnmatrix_t *)obj;
 416:..\..\..\arduinoLCD\test\Pain Drain\libraries\lvgl\src\extra\widgets\keyboard/lv_keyboard.c ****         lv_btnmatrix_ctrl_t * ctrl_map = lv_mem_alloc(btnm->btn_cnt * sizeof(lv_btnmatrix_ctrl_t));
  57              		.loc 1 416 0
  58 001c 008E     		ldrh	r0, [r0, #48]
  59              	.LVL4:
  60 001e 4000     		lsls	r0, r0, #1
  61 0020 FFF7FEFF 		bl	lv_mem_alloc
  62              	.LVL5:
  63 0024 0500     		movs	r5, r0
  64              	.LVL6:
 417:..\..\..\arduinoLCD\test\Pain Drain\libraries\lvgl\src\extra\widgets\keyboard/lv_keyboard.c ****         lv_memcpy(ctrl_map, kb_ctrl[keyboard->mode], sizeof(lv_btnmatrix_ctrl_t) * btnm->btn_cnt);
  65              		.loc 1 417 0
  66 0026 3C23     		movs	r3, #60
  67 0028 E35C     		ldrb	r3, [r4, r3]
  68 002a 9B00     		lsls	r3, r3, #2
  69 002c 0D4A     		ldr	r2, .L6
  70 002e 9958     		ldr	r1, [r3, r2]
  71 0030 228E     		ldrh	r2, [r4, #48]
  72 0032 5200     		lsls	r2, r2, #1
  73 0034 FFF7FEFF 		bl	lv_memcpy
  74              	.LVL7:
  75              	.LBB3:
 418:..\..\..\arduinoLCD\test\Pain Drain\libraries\lvgl\src\extra\widgets\keyboard/lv_keyboard.c **** 
 419:..\..\..\arduinoLCD\test\Pain Drain\libraries\lvgl\src\extra\widgets\keyboard/lv_keyboard.c ****         /*Remove all LV_BTNMATRIX_CTRL_POPOVER flags*/
 420:..\..\..\arduinoLCD\test\Pain Drain\libraries\lvgl\src\extra\widgets\keyboard/lv_keyboard.c ****         for(uint16_t i = 0; i < btnm->btn_cnt; i++) {
  76              		.loc 1 420 0
  77 0038 0023     		movs	r3, #0
  78 003a 07E0     		b	.L4
  79              	.LVL8:
  80              	.L5:
 421:..\..\..\arduinoLCD\test\Pain Drain\libraries\lvgl\src\extra\widgets\keyboard/lv_keyboard.c ****             ctrl_map[i] &= (~LV_BTNMATRIX_CTRL_POPOVER);
  81              		.loc 1 421 0 discriminator 3
  82 003c 5A00     		lsls	r2, r3, #1
  83 003e AA18     		adds	r2, r5, r2
  84 0040 1088     		ldrh	r0, [r2]
  85 0042 0949     		ldr	r1, .L6+4
  86 0044 0140     		ands	r1, r0
  87 0046 1180     		strh	r1, [r2]
 420:..\..\..\arduinoLCD\test\Pain Drain\libraries\lvgl\src\extra\widgets\keyboard/lv_keyboard.c ****             ctrl_map[i] &= (~LV_BTNMATRIX_CTRL_POPOVER);
  88              		.loc 1 420 0 discriminator 3
  89 0048 0133     		adds	r3, r3, #1
  90              	.LVL9:
  91 004a 9BB2     		uxth	r3, r3
ARM GAS  C:\Users\haske\AppData\Local\Temp\ccEGgQv3.s 			page 10


  92              	.LVL10:
  93              	.L4:
 420:..\..\..\arduinoLCD\test\Pain Drain\libraries\lvgl\src\extra\widgets\keyboard/lv_keyboard.c ****             ctrl_map[i] &= (~LV_BTNMATRIX_CTRL_POPOVER);
  94              		.loc 1 420 0 is_stmt 0 discriminator 1
  95 004c 228E     		ldrh	r2, [r4, #48]
  96 004e 9342     		cmp	r3, r2
  97 0050 F4D3     		bcc	.L5
  98              	.LBE3:
 422:..\..\..\arduinoLCD\test\Pain Drain\libraries\lvgl\src\extra\widgets\keyboard/lv_keyboard.c ****         }
 423:..\..\..\arduinoLCD\test\Pain Drain\libraries\lvgl\src\extra\widgets\keyboard/lv_keyboard.c **** 
 424:..\..\..\arduinoLCD\test\Pain Drain\libraries\lvgl\src\extra\widgets\keyboard/lv_keyboard.c ****         /*Apply new control map and clean up*/
 425:..\..\..\arduinoLCD\test\Pain Drain\libraries\lvgl\src\extra\widgets\keyboard/lv_keyboard.c ****         lv_btnmatrix_set_ctrl_map(obj, ctrl_map);
  99              		.loc 1 425 0 is_stmt 1
 100 0052 2900     		movs	r1, r5
 101 0054 2000     		movs	r0, r4
 102 0056 FFF7FEFF 		bl	lv_btnmatrix_set_ctrl_map
 103              	.LVL11:
 426:..\..\..\arduinoLCD\test\Pain Drain\libraries\lvgl\src\extra\widgets\keyboard/lv_keyboard.c ****         lv_mem_free(ctrl_map);
 104              		.loc 1 426 0
 105 005a 2800     		movs	r0, r5
 106 005c FFF7FEFF 		bl	lv_mem_free
 107              	.LVL12:
 108              	.L1:
 109              	.LBE2:
 427:..\..\..\arduinoLCD\test\Pain Drain\libraries\lvgl\src\extra\widgets\keyboard/lv_keyboard.c ****     }
 428:..\..\..\arduinoLCD\test\Pain Drain\libraries\lvgl\src\extra\widgets\keyboard/lv_keyboard.c **** }
 110              		.loc 1 428 0
 111              		@ sp needed
 112              	.LVL13:
 113 0060 70BD     		pop	{r4, r5, r6, pc}
 114              	.L7:
 115 0062 C046     		.align	2
 116              	.L6:
 117 0064 00000000 		.word	.LANCHOR0
 118 0068 FFFDFFFF 		.word	-513
 119              		.cfi_endproc
 120              	.LFE173:
 121              		.size	lv_keyboard_update_ctrl_map, .-lv_keyboard_update_ctrl_map
 122              		.section	.text.lv_keyboard_update_map,"ax",%progbits
 123              		.align	2
 124              		.code	16
 125              		.thumb_func
 126              		.type	lv_keyboard_update_map, %function
 127              	lv_keyboard_update_map:
 128              	.LFB172:
 395:..\..\..\arduinoLCD\test\Pain Drain\libraries\lvgl\src\extra\widgets\keyboard/lv_keyboard.c ****     lv_keyboard_t * keyboard = (lv_keyboard_t *)obj;
 129              		.loc 1 395 0
 130              		.cfi_startproc
 131              		@ args = 0, pretend = 0, frame = 0
 132              		@ frame_needed = 0, uses_anonymous_args = 0
 133              	.LVL14:
 134 0000 10B5     		push	{r4, lr}
 135              		.cfi_def_cfa_offset 8
 136              		.cfi_offset 4, -8
 137              		.cfi_offset 14, -4
 138 0002 0400     		movs	r4, r0
 139              	.LVL15:
ARM GAS  C:\Users\haske\AppData\Local\Temp\ccEGgQv3.s 			page 11


 397:..\..\..\arduinoLCD\test\Pain Drain\libraries\lvgl\src\extra\widgets\keyboard/lv_keyboard.c ****     lv_keyboard_update_ctrl_map(obj);
 140              		.loc 1 397 0
 141 0004 3C23     		movs	r3, #60
 142 0006 C35C     		ldrb	r3, [r0, r3]
 143 0008 9B00     		lsls	r3, r3, #2
 144 000a 044A     		ldr	r2, .L9
 145 000c D318     		adds	r3, r2, r3
 146 000e 596A     		ldr	r1, [r3, #36]
 147 0010 FFF7FEFF 		bl	lv_btnmatrix_set_map
 148              	.LVL16:
 398:..\..\..\arduinoLCD\test\Pain Drain\libraries\lvgl\src\extra\widgets\keyboard/lv_keyboard.c **** }
 149              		.loc 1 398 0
 150 0014 2000     		movs	r0, r4
 151 0016 FFF7FEFF 		bl	lv_keyboard_update_ctrl_map
 152              	.LVL17:
 399:..\..\..\arduinoLCD\test\Pain Drain\libraries\lvgl\src\extra\widgets\keyboard/lv_keyboard.c **** 
 153              		.loc 1 399 0
 154              		@ sp needed
 155              	.LVL18:
 156 001a 10BD     		pop	{r4, pc}
 157              	.L10:
 158              		.align	2
 159              	.L9:
 160 001c 00000000 		.word	.LANCHOR0
 161              		.cfi_endproc
 162              	.LFE172:
 163              		.size	lv_keyboard_update_map, .-lv_keyboard_update_map
 164              		.section	.text.lv_keyboard_constructor,"ax",%progbits
 165              		.align	2
 166              		.code	16
 167              		.thumb_func
 168              		.type	lv_keyboard_constructor, %function
 169              	lv_keyboard_constructor:
 170              	.LFB171:
 374:..\..\..\arduinoLCD\test\Pain Drain\libraries\lvgl\src\extra\widgets\keyboard/lv_keyboard.c ****     LV_UNUSED(class_p);
 171              		.loc 1 374 0
 172              		.cfi_startproc
 173              		@ args = 0, pretend = 0, frame = 0
 174              		@ frame_needed = 0, uses_anonymous_args = 0
 175              	.LVL19:
 176 0000 10B5     		push	{r4, lr}
 177              		.cfi_def_cfa_offset 8
 178              		.cfi_offset 4, -8
 179              		.cfi_offset 14, -4
 180 0002 0C00     		movs	r4, r1
 376:..\..\..\arduinoLCD\test\Pain Drain\libraries\lvgl\src\extra\widgets\keyboard/lv_keyboard.c **** 
 181              		.loc 1 376 0
 182 0004 0421     		movs	r1, #4
 183              	.LVL20:
 184 0006 2000     		movs	r0, r4
 185              	.LVL21:
 186 0008 FFF7FEFF 		bl	lv_obj_clear_flag
 187              	.LVL22:
 379:..\..\..\arduinoLCD\test\Pain Drain\libraries\lvgl\src\extra\widgets\keyboard/lv_keyboard.c ****     keyboard->mode       = LV_KEYBOARD_MODE_TEXT_LOWER;
 188              		.loc 1 379 0
 189 000c 0023     		movs	r3, #0
 190 000e A363     		str	r3, [r4, #56]
ARM GAS  C:\Users\haske\AppData\Local\Temp\ccEGgQv3.s 			page 12


 380:..\..\..\arduinoLCD\test\Pain Drain\libraries\lvgl\src\extra\widgets\keyboard/lv_keyboard.c ****     keyboard->popovers   = 0;
 191              		.loc 1 380 0
 192 0010 3C22     		movs	r2, #60
 193 0012 A354     		strb	r3, [r4, r2]
 381:..\..\..\arduinoLCD\test\Pain Drain\libraries\lvgl\src\extra\widgets\keyboard/lv_keyboard.c **** 
 194              		.loc 1 381 0
 195 0014 0132     		adds	r2, r2, #1
 196 0016 A35C     		ldrb	r3, [r4, r2]
 197 0018 0121     		movs	r1, #1
 198 001a 8B43     		bics	r3, r1
 199 001c A354     		strb	r3, [r4, r2]
 383:..\..\..\arduinoLCD\test\Pain Drain\libraries\lvgl\src\extra\widgets\keyboard/lv_keyboard.c ****     lv_obj_add_event_cb(obj, lv_keyboard_def_event_cb, LV_EVENT_VALUE_CHANGED, NULL);
 200              		.loc 1 383 0
 201 001e 0023     		movs	r3, #0
 202 0020 0022     		movs	r2, #0
 203 0022 0431     		adds	r1, r1, #4
 204 0024 2000     		movs	r0, r4
 205 0026 FFF7FEFF 		bl	lv_obj_align
 206              	.LVL23:
 384:..\..\..\arduinoLCD\test\Pain Drain\libraries\lvgl\src\extra\widgets\keyboard/lv_keyboard.c ****     lv_obj_set_style_base_dir(obj, LV_BASE_DIR_LTR, 0);
 207              		.loc 1 384 0
 208 002a 0023     		movs	r3, #0
 209 002c 1C22     		movs	r2, #28
 210 002e 0649     		ldr	r1, .L12
 211 0030 2000     		movs	r0, r4
 212 0032 FFF7FEFF 		bl	lv_obj_add_event_cb
 213              	.LVL24:
 385:..\..\..\arduinoLCD\test\Pain Drain\libraries\lvgl\src\extra\widgets\keyboard/lv_keyboard.c **** 
 214              		.loc 1 385 0
 215 0036 0022     		movs	r2, #0
 216 0038 0021     		movs	r1, #0
 217 003a 2000     		movs	r0, r4
 218 003c FFF7FEFF 		bl	lv_obj_set_style_base_dir
 219              	.LVL25:
 387:..\..\..\arduinoLCD\test\Pain Drain\libraries\lvgl\src\extra\widgets\keyboard/lv_keyboard.c **** }
 220              		.loc 1 387 0
 221 0040 2000     		movs	r0, r4
 222 0042 FFF7FEFF 		bl	lv_keyboard_update_map
 223              	.LVL26:
 388:..\..\..\arduinoLCD\test\Pain Drain\libraries\lvgl\src\extra\widgets\keyboard/lv_keyboard.c **** 
 224              		.loc 1 388 0
 225              		@ sp needed
 226              	.LVL27:
 227 0046 10BD     		pop	{r4, pc}
 228              	.L13:
 229              		.align	2
 230              	.L12:
 231 0048 00000000 		.word	lv_keyboard_def_event_cb
 232              		.cfi_endproc
 233              	.LFE171:
 234              		.size	lv_keyboard_constructor, .-lv_keyboard_constructor
 235              		.section	.text.lv_keyboard_def_event_cb,"ax",%progbits
 236              		.align	2
 237              		.global	lv_keyboard_def_event_cb
 238              		.code	16
 239              		.thumb_func
 240              		.type	lv_keyboard_def_event_cb, %function
ARM GAS  C:\Users\haske\AppData\Local\Temp\ccEGgQv3.s 			page 13


 241              	lv_keyboard_def_event_cb:
 242              	.LFB170:
 274:..\..\..\arduinoLCD\test\Pain Drain\libraries\lvgl\src\extra\widgets\keyboard/lv_keyboard.c ****     lv_obj_t * obj = lv_event_get_target(e);
 243              		.loc 1 274 0
 244              		.cfi_startproc
 245              		@ args = 0, pretend = 0, frame = 0
 246              		@ frame_needed = 0, uses_anonymous_args = 0
 247              	.LVL28:
 248 0000 70B5     		push	{r4, r5, r6, lr}
 249              		.cfi_def_cfa_offset 16
 250              		.cfi_offset 4, -16
 251              		.cfi_offset 5, -12
 252              		.cfi_offset 6, -8
 253              		.cfi_offset 14, -4
 275:..\..\..\arduinoLCD\test\Pain Drain\libraries\lvgl\src\extra\widgets\keyboard/lv_keyboard.c **** 
 254              		.loc 1 275 0
 255 0002 FFF7FEFF 		bl	lv_event_get_target
 256              	.LVL29:
 257 0006 0400     		movs	r4, r0
 258              	.LVL30:
 279:..\..\..\arduinoLCD\test\Pain Drain\libraries\lvgl\src\extra\widgets\keyboard/lv_keyboard.c ****     if(btn_id == LV_BTNMATRIX_BTN_NONE) return;
 259              		.loc 1 279 0
 260 0008 FFF7FEFF 		bl	lv_btnmatrix_get_selected_btn
 261              	.LVL31:
 280:..\..\..\arduinoLCD\test\Pain Drain\libraries\lvgl\src\extra\widgets\keyboard/lv_keyboard.c **** 
 262              		.loc 1 280 0
 263 000c 7C4B     		ldr	r3, .L30
 264 000e 9842     		cmp	r0, r3
 265 0010 00D1     		bne	.LCB244
 266 0012 F4E0     		b	.L14	@long jump
 267              	.LCB244:
 282:..\..\..\arduinoLCD\test\Pain Drain\libraries\lvgl\src\extra\widgets\keyboard/lv_keyboard.c ****     if(txt == NULL) return;
 268              		.loc 1 282 0
 269 0014 2000     		movs	r0, r4
 270              	.LVL32:
 271 0016 FFF7FEFF 		bl	lv_btnmatrix_get_selected_btn
 272              	.LVL33:
 273 001a 0100     		movs	r1, r0
 274 001c 2000     		movs	r0, r4
 275 001e FFF7FEFF 		bl	lv_btnmatrix_get_btn_text
 276              	.LVL34:
 277 0022 051E     		subs	r5, r0, #0
 278              	.LVL35:
 283:..\..\..\arduinoLCD\test\Pain Drain\libraries\lvgl\src\extra\widgets\keyboard/lv_keyboard.c **** 
 279              		.loc 1 283 0
 280 0024 00D1     		bne	.LCB256
 281 0026 EAE0     		b	.L14	@long jump
 282              	.LCB256:
 285:..\..\..\arduinoLCD\test\Pain Drain\libraries\lvgl\src\extra\widgets\keyboard/lv_keyboard.c ****         keyboard->mode = LV_KEYBOARD_MODE_TEXT_LOWER;
 283              		.loc 1 285 0
 284 0028 7649     		ldr	r1, .L30+4
 285 002a FFF7FEFF 		bl	strcmp
 286              	.LVL36:
 287 002e 0028     		cmp	r0, #0
 288 0030 0BD1     		bne	.L16
 286:..\..\..\arduinoLCD\test\Pain Drain\libraries\lvgl\src\extra\widgets\keyboard/lv_keyboard.c ****         lv_btnmatrix_set_map(obj, kb_map[LV_KEYBOARD_MODE_TEXT_LOWER]);
 289              		.loc 1 286 0
ARM GAS  C:\Users\haske\AppData\Local\Temp\ccEGgQv3.s 			page 14


 290 0032 0022     		movs	r2, #0
 291 0034 3C23     		movs	r3, #60
 292 0036 E254     		strb	r2, [r4, r3]
 287:..\..\..\arduinoLCD\test\Pain Drain\libraries\lvgl\src\extra\widgets\keyboard/lv_keyboard.c ****         lv_keyboard_update_ctrl_map(obj);
 293              		.loc 1 287 0
 294 0038 734B     		ldr	r3, .L30+8
 295 003a 596A     		ldr	r1, [r3, #36]
 296 003c 2000     		movs	r0, r4
 297 003e FFF7FEFF 		bl	lv_btnmatrix_set_map
 298              	.LVL37:
 288:..\..\..\arduinoLCD\test\Pain Drain\libraries\lvgl\src\extra\widgets\keyboard/lv_keyboard.c ****         return;
 299              		.loc 1 288 0
 300 0042 2000     		movs	r0, r4
 301 0044 FFF7FEFF 		bl	lv_keyboard_update_ctrl_map
 302              	.LVL38:
 289:..\..\..\arduinoLCD\test\Pain Drain\libraries\lvgl\src\extra\widgets\keyboard/lv_keyboard.c ****     }
 303              		.loc 1 289 0
 304 0048 D9E0     		b	.L14
 305              	.L16:
 291:..\..\..\arduinoLCD\test\Pain Drain\libraries\lvgl\src\extra\widgets\keyboard/lv_keyboard.c ****         keyboard->mode = LV_KEYBOARD_MODE_TEXT_UPPER;
 306              		.loc 1 291 0
 307 004a 7049     		ldr	r1, .L30+12
 308 004c 2800     		movs	r0, r5
 309 004e FFF7FEFF 		bl	strcmp
 310              	.LVL39:
 311 0052 0028     		cmp	r0, #0
 312 0054 0BD1     		bne	.L17
 292:..\..\..\arduinoLCD\test\Pain Drain\libraries\lvgl\src\extra\widgets\keyboard/lv_keyboard.c ****         lv_btnmatrix_set_map(obj, kb_map[LV_KEYBOARD_MODE_TEXT_UPPER]);
 313              		.loc 1 292 0
 314 0056 0122     		movs	r2, #1
 315 0058 3C23     		movs	r3, #60
 316 005a E254     		strb	r2, [r4, r3]
 293:..\..\..\arduinoLCD\test\Pain Drain\libraries\lvgl\src\extra\widgets\keyboard/lv_keyboard.c ****         lv_keyboard_update_ctrl_map(obj);
 317              		.loc 1 293 0
 318 005c 6A4B     		ldr	r3, .L30+8
 319 005e 996A     		ldr	r1, [r3, #40]
 320 0060 2000     		movs	r0, r4
 321 0062 FFF7FEFF 		bl	lv_btnmatrix_set_map
 322              	.LVL40:
 294:..\..\..\arduinoLCD\test\Pain Drain\libraries\lvgl\src\extra\widgets\keyboard/lv_keyboard.c ****         return;
 323              		.loc 1 294 0
 324 0066 2000     		movs	r0, r4
 325 0068 FFF7FEFF 		bl	lv_keyboard_update_ctrl_map
 326              	.LVL41:
 295:..\..\..\arduinoLCD\test\Pain Drain\libraries\lvgl\src\extra\widgets\keyboard/lv_keyboard.c ****     }
 327              		.loc 1 295 0
 328 006c C7E0     		b	.L14
 329              	.L17:
 297:..\..\..\arduinoLCD\test\Pain Drain\libraries\lvgl\src\extra\widgets\keyboard/lv_keyboard.c ****         keyboard->mode = LV_KEYBOARD_MODE_SPECIAL;
 330              		.loc 1 297 0
 331 006e 6849     		ldr	r1, .L30+16
 332 0070 2800     		movs	r0, r5
 333 0072 FFF7FEFF 		bl	strcmp
 334              	.LVL42:
 335 0076 0028     		cmp	r0, #0
 336 0078 0BD1     		bne	.L18
 298:..\..\..\arduinoLCD\test\Pain Drain\libraries\lvgl\src\extra\widgets\keyboard/lv_keyboard.c ****         lv_btnmatrix_set_map(obj, kb_map[LV_KEYBOARD_MODE_SPECIAL]);
ARM GAS  C:\Users\haske\AppData\Local\Temp\ccEGgQv3.s 			page 15


 337              		.loc 1 298 0
 338 007a 0222     		movs	r2, #2
 339 007c 3C23     		movs	r3, #60
 340 007e E254     		strb	r2, [r4, r3]
 299:..\..\..\arduinoLCD\test\Pain Drain\libraries\lvgl\src\extra\widgets\keyboard/lv_keyboard.c ****         lv_keyboard_update_ctrl_map(obj);
 341              		.loc 1 299 0
 342 0080 614B     		ldr	r3, .L30+8
 343 0082 D96A     		ldr	r1, [r3, #44]
 344 0084 2000     		movs	r0, r4
 345 0086 FFF7FEFF 		bl	lv_btnmatrix_set_map
 346              	.LVL43:
 300:..\..\..\arduinoLCD\test\Pain Drain\libraries\lvgl\src\extra\widgets\keyboard/lv_keyboard.c ****         return;
 347              		.loc 1 300 0
 348 008a 2000     		movs	r0, r4
 349 008c FFF7FEFF 		bl	lv_keyboard_update_ctrl_map
 350              	.LVL44:
 301:..\..\..\arduinoLCD\test\Pain Drain\libraries\lvgl\src\extra\widgets\keyboard/lv_keyboard.c ****     }
 351              		.loc 1 301 0
 352 0090 B5E0     		b	.L14
 353              	.L18:
 303:..\..\..\arduinoLCD\test\Pain Drain\libraries\lvgl\src\extra\widgets\keyboard/lv_keyboard.c ****         lv_res_t res = lv_event_send(obj, LV_EVENT_CANCEL, NULL);
 354              		.loc 1 303 0
 355 0092 6049     		ldr	r1, .L30+20
 356 0094 2800     		movs	r0, r5
 357 0096 FFF7FEFF 		bl	strcmp
 358              	.LVL45:
 359 009a 0028     		cmp	r0, #0
 360 009c 05D0     		beq	.L19
 303:..\..\..\arduinoLCD\test\Pain Drain\libraries\lvgl\src\extra\widgets\keyboard/lv_keyboard.c ****         lv_res_t res = lv_event_send(obj, LV_EVENT_CANCEL, NULL);
 361              		.loc 1 303 0 is_stmt 0 discriminator 1
 362 009e 5E49     		ldr	r1, .L30+24
 363 00a0 2800     		movs	r0, r5
 364 00a2 FFF7FEFF 		bl	strcmp
 365              	.LVL46:
 366 00a6 0028     		cmp	r0, #0
 367 00a8 10D1     		bne	.L20
 368              	.L19:
 369              	.LBB4:
 304:..\..\..\arduinoLCD\test\Pain Drain\libraries\lvgl\src\extra\widgets\keyboard/lv_keyboard.c ****         if(res != LV_RES_OK) return;
 370              		.loc 1 304 0 is_stmt 1
 371 00aa 0022     		movs	r2, #0
 372 00ac 2021     		movs	r1, #32
 373 00ae 2000     		movs	r0, r4
 374 00b0 FFF7FEFF 		bl	lv_event_send
 375              	.LVL47:
 305:..\..\..\arduinoLCD\test\Pain Drain\libraries\lvgl\src\extra\widgets\keyboard/lv_keyboard.c **** 
 376              		.loc 1 305 0
 377 00b4 0128     		cmp	r0, #1
 378 00b6 00D0     		beq	.LCB345
 379 00b8 A1E0     		b	.L14	@long jump
 380              	.LCB345:
 307:..\..\..\arduinoLCD\test\Pain Drain\libraries\lvgl\src\extra\widgets\keyboard/lv_keyboard.c ****             res = lv_event_send(keyboard->ta, LV_EVENT_CANCEL, NULL);
 381              		.loc 1 307 0
 382 00ba A06B     		ldr	r0, [r4, #56]
 383              	.LVL48:
 384 00bc 0028     		cmp	r0, #0
 385 00be 00D1     		bne	.LCB349
ARM GAS  C:\Users\haske\AppData\Local\Temp\ccEGgQv3.s 			page 16


 386 00c0 9DE0     		b	.L14	@long jump
 387              	.LCB349:
 308:..\..\..\arduinoLCD\test\Pain Drain\libraries\lvgl\src\extra\widgets\keyboard/lv_keyboard.c ****             if(res != LV_RES_OK) return;
 388              		.loc 1 308 0
 389 00c2 0022     		movs	r2, #0
 390 00c4 2021     		movs	r1, #32
 391 00c6 FFF7FEFF 		bl	lv_event_send
 392              	.LVL49:
 393 00ca 98E0     		b	.L14
 394              	.L20:
 395              	.LBE4:
 313:..\..\..\arduinoLCD\test\Pain Drain\libraries\lvgl\src\extra\widgets\keyboard/lv_keyboard.c ****         lv_res_t res = lv_event_send(obj, LV_EVENT_READY, NULL);
 396              		.loc 1 313 0
 397 00cc 5349     		ldr	r1, .L30+28
 398 00ce 2800     		movs	r0, r5
 399 00d0 FFF7FEFF 		bl	strcmp
 400              	.LVL50:
 401 00d4 0028     		cmp	r0, #0
 402 00d6 10D1     		bne	.L21
 403              	.LBB5:
 314:..\..\..\arduinoLCD\test\Pain Drain\libraries\lvgl\src\extra\widgets\keyboard/lv_keyboard.c ****         if(res != LV_RES_OK) return;
 404              		.loc 1 314 0
 405 00d8 0022     		movs	r2, #0
 406 00da 1F21     		movs	r1, #31
 407 00dc 2000     		movs	r0, r4
 408 00de FFF7FEFF 		bl	lv_event_send
 409              	.LVL51:
 315:..\..\..\arduinoLCD\test\Pain Drain\libraries\lvgl\src\extra\widgets\keyboard/lv_keyboard.c **** 
 410              		.loc 1 315 0
 411 00e2 0128     		cmp	r0, #1
 412 00e4 00D0     		beq	.LCB376
 413 00e6 8AE0     		b	.L14	@long jump
 414              	.LCB376:
 317:..\..\..\arduinoLCD\test\Pain Drain\libraries\lvgl\src\extra\widgets\keyboard/lv_keyboard.c ****             res = lv_event_send(keyboard->ta, LV_EVENT_READY, NULL);
 415              		.loc 1 317 0
 416 00e8 A06B     		ldr	r0, [r4, #56]
 417              	.LVL52:
 418 00ea 0028     		cmp	r0, #0
 419 00ec 00D1     		bne	.LCB380
 420 00ee 86E0     		b	.L14	@long jump
 421              	.LCB380:
 318:..\..\..\arduinoLCD\test\Pain Drain\libraries\lvgl\src\extra\widgets\keyboard/lv_keyboard.c ****             if(res != LV_RES_OK) return;
 422              		.loc 1 318 0
 423 00f0 0022     		movs	r2, #0
 424 00f2 1F21     		movs	r1, #31
 425 00f4 FFF7FEFF 		bl	lv_event_send
 426              	.LVL53:
 427 00f8 81E0     		b	.L14
 428              	.L21:
 429              	.LBE5:
 325:..\..\..\arduinoLCD\test\Pain Drain\libraries\lvgl\src\extra\widgets\keyboard/lv_keyboard.c **** 
 430              		.loc 1 325 0
 431 00fa A66B     		ldr	r6, [r4, #56]
 432 00fc 002E     		cmp	r6, #0
 433 00fe 7ED0     		beq	.L14
 327:..\..\..\arduinoLCD\test\Pain Drain\libraries\lvgl\src\extra\widgets\keyboard/lv_keyboard.c ****         lv_textarea_add_char(keyboard->ta, '\n');
 434              		.loc 1 327 0
ARM GAS  C:\Users\haske\AppData\Local\Temp\ccEGgQv3.s 			page 17


 435 0100 4749     		ldr	r1, .L30+32
 436 0102 2800     		movs	r0, r5
 437 0104 FFF7FEFF 		bl	strcmp
 438              	.LVL54:
 439 0108 0028     		cmp	r0, #0
 440 010a 05D0     		beq	.L22
 327:..\..\..\arduinoLCD\test\Pain Drain\libraries\lvgl\src\extra\widgets\keyboard/lv_keyboard.c ****         lv_textarea_add_char(keyboard->ta, '\n');
 441              		.loc 1 327 0 is_stmt 0 discriminator 1
 442 010c 4549     		ldr	r1, .L30+36
 443 010e 2800     		movs	r0, r5
 444 0110 FFF7FEFF 		bl	strcmp
 445              	.LVL55:
 446 0114 0028     		cmp	r0, #0
 447 0116 0ED1     		bne	.L23
 448              	.L22:
 328:..\..\..\arduinoLCD\test\Pain Drain\libraries\lvgl\src\extra\widgets\keyboard/lv_keyboard.c ****         if(lv_textarea_get_one_line(keyboard->ta)) {
 449              		.loc 1 328 0 is_stmt 1
 450 0118 0A21     		movs	r1, #10
 451 011a 3000     		movs	r0, r6
 452 011c FFF7FEFF 		bl	lv_textarea_add_char
 453              	.LVL56:
 329:..\..\..\arduinoLCD\test\Pain Drain\libraries\lvgl\src\extra\widgets\keyboard/lv_keyboard.c ****             lv_res_t res = lv_event_send(keyboard->ta, LV_EVENT_READY, NULL);
 454              		.loc 1 329 0
 455 0120 A06B     		ldr	r0, [r4, #56]
 456 0122 FFF7FEFF 		bl	lv_textarea_get_one_line
 457              	.LVL57:
 458 0126 0028     		cmp	r0, #0
 459 0128 69D0     		beq	.L14
 460              	.LBB6:
 330:..\..\..\arduinoLCD\test\Pain Drain\libraries\lvgl\src\extra\widgets\keyboard/lv_keyboard.c ****             if(res != LV_RES_OK) return;
 461              		.loc 1 330 0
 462 012a A06B     		ldr	r0, [r4, #56]
 463 012c 0022     		movs	r2, #0
 464 012e 1F21     		movs	r1, #31
 465 0130 FFF7FEFF 		bl	lv_event_send
 466              	.LVL58:
 467 0134 63E0     		b	.L14
 468              	.L23:
 469              	.LBE6:
 334:..\..\..\arduinoLCD\test\Pain Drain\libraries\lvgl\src\extra\widgets\keyboard/lv_keyboard.c ****         lv_textarea_cursor_left(keyboard->ta);
 470              		.loc 1 334 0
 471 0136 3C49     		ldr	r1, .L30+40
 472 0138 2800     		movs	r0, r5
 473 013a FFF7FEFF 		bl	strcmp
 474              	.LVL59:
 475 013e 0028     		cmp	r0, #0
 476 0140 03D1     		bne	.L24
 335:..\..\..\arduinoLCD\test\Pain Drain\libraries\lvgl\src\extra\widgets\keyboard/lv_keyboard.c ****     }
 477              		.loc 1 335 0
 478 0142 3000     		movs	r0, r6
 479 0144 FFF7FEFF 		bl	lv_textarea_cursor_left
 480              	.LVL60:
 481 0148 59E0     		b	.L14
 482              	.L24:
 337:..\..\..\arduinoLCD\test\Pain Drain\libraries\lvgl\src\extra\widgets\keyboard/lv_keyboard.c ****         lv_textarea_cursor_right(keyboard->ta);
 483              		.loc 1 337 0
 484 014a 3849     		ldr	r1, .L30+44
ARM GAS  C:\Users\haske\AppData\Local\Temp\ccEGgQv3.s 			page 18


 485 014c 2800     		movs	r0, r5
 486 014e FFF7FEFF 		bl	strcmp
 487              	.LVL61:
 488 0152 0028     		cmp	r0, #0
 489 0154 03D1     		bne	.L25
 338:..\..\..\arduinoLCD\test\Pain Drain\libraries\lvgl\src\extra\widgets\keyboard/lv_keyboard.c ****     }
 490              		.loc 1 338 0
 491 0156 3000     		movs	r0, r6
 492 0158 FFF7FEFF 		bl	lv_textarea_cursor_right
 493              	.LVL62:
 494 015c 4FE0     		b	.L14
 495              	.L25:
 340:..\..\..\arduinoLCD\test\Pain Drain\libraries\lvgl\src\extra\widgets\keyboard/lv_keyboard.c ****         lv_textarea_del_char(keyboard->ta);
 496              		.loc 1 340 0
 497 015e 3449     		ldr	r1, .L30+48
 498 0160 2800     		movs	r0, r5
 499 0162 FFF7FEFF 		bl	strcmp
 500              	.LVL63:
 501 0166 0028     		cmp	r0, #0
 502 0168 03D1     		bne	.L26
 341:..\..\..\arduinoLCD\test\Pain Drain\libraries\lvgl\src\extra\widgets\keyboard/lv_keyboard.c ****     }
 503              		.loc 1 341 0
 504 016a 3000     		movs	r0, r6
 505 016c FFF7FEFF 		bl	lv_textarea_del_char
 506              	.LVL64:
 507 0170 45E0     		b	.L14
 508              	.L26:
 343:..\..\..\arduinoLCD\test\Pain Drain\libraries\lvgl\src\extra\widgets\keyboard/lv_keyboard.c ****         uint16_t cur        = lv_textarea_get_cursor_pos(keyboard->ta);
 509              		.loc 1 343 0
 510 0172 3049     		ldr	r1, .L30+52
 511 0174 2800     		movs	r0, r5
 512 0176 FFF7FEFF 		bl	strcmp
 513              	.LVL65:
 514 017a 0028     		cmp	r0, #0
 515 017c 3BD1     		bne	.L27
 516              	.LBB7:
 344:..\..\..\arduinoLCD\test\Pain Drain\libraries\lvgl\src\extra\widgets\keyboard/lv_keyboard.c ****         const char * ta_txt = lv_textarea_get_text(keyboard->ta);
 517              		.loc 1 344 0
 518 017e 3000     		movs	r0, r6
 519 0180 FFF7FEFF 		bl	lv_textarea_get_cursor_pos
 520              	.LVL66:
 521 0184 0500     		movs	r5, r0
 522              	.LVL67:
 345:..\..\..\arduinoLCD\test\Pain Drain\libraries\lvgl\src\extra\widgets\keyboard/lv_keyboard.c ****         if(ta_txt[0] == '-') {
 523              		.loc 1 345 0
 524 0186 A06B     		ldr	r0, [r4, #56]
 525 0188 FFF7FEFF 		bl	lv_textarea_get_text
 526              	.LVL68:
 346:..\..\..\arduinoLCD\test\Pain Drain\libraries\lvgl\src\extra\widgets\keyboard/lv_keyboard.c ****             lv_textarea_set_cursor_pos(keyboard->ta, 1);
 527              		.loc 1 346 0
 528 018c 0378     		ldrb	r3, [r0]
 529 018e 2D2B     		cmp	r3, #45
 530 0190 0FD1     		bne	.L28
 347:..\..\..\arduinoLCD\test\Pain Drain\libraries\lvgl\src\extra\widgets\keyboard/lv_keyboard.c ****             lv_textarea_del_char(keyboard->ta);
 531              		.loc 1 347 0
 532 0192 0121     		movs	r1, #1
 533 0194 A06B     		ldr	r0, [r4, #56]
ARM GAS  C:\Users\haske\AppData\Local\Temp\ccEGgQv3.s 			page 19


 534              	.LVL69:
 535 0196 FFF7FEFF 		bl	lv_textarea_set_cursor_pos
 536              	.LVL70:
 348:..\..\..\arduinoLCD\test\Pain Drain\libraries\lvgl\src\extra\widgets\keyboard/lv_keyboard.c ****             lv_textarea_add_char(keyboard->ta, '+');
 537              		.loc 1 348 0
 538 019a A06B     		ldr	r0, [r4, #56]
 539 019c FFF7FEFF 		bl	lv_textarea_del_char
 540              	.LVL71:
 349:..\..\..\arduinoLCD\test\Pain Drain\libraries\lvgl\src\extra\widgets\keyboard/lv_keyboard.c ****             lv_textarea_set_cursor_pos(keyboard->ta, cur);
 541              		.loc 1 349 0
 542 01a0 2B21     		movs	r1, #43
 543 01a2 A06B     		ldr	r0, [r4, #56]
 544 01a4 FFF7FEFF 		bl	lv_textarea_add_char
 545              	.LVL72:
 350:..\..\..\arduinoLCD\test\Pain Drain\libraries\lvgl\src\extra\widgets\keyboard/lv_keyboard.c ****         }
 546              		.loc 1 350 0
 547 01a8 A9B2     		uxth	r1, r5
 548 01aa A06B     		ldr	r0, [r4, #56]
 549 01ac FFF7FEFF 		bl	lv_textarea_set_cursor_pos
 550              	.LVL73:
 551 01b0 25E0     		b	.L14
 552              	.LVL74:
 553              	.L28:
 352:..\..\..\arduinoLCD\test\Pain Drain\libraries\lvgl\src\extra\widgets\keyboard/lv_keyboard.c ****             lv_textarea_set_cursor_pos(keyboard->ta, 1);
 554              		.loc 1 352 0
 555 01b2 2B2B     		cmp	r3, #43
 556 01b4 10D1     		bne	.L29
 353:..\..\..\arduinoLCD\test\Pain Drain\libraries\lvgl\src\extra\widgets\keyboard/lv_keyboard.c ****             lv_textarea_del_char(keyboard->ta);
 557              		.loc 1 353 0
 558 01b6 0121     		movs	r1, #1
 559 01b8 A06B     		ldr	r0, [r4, #56]
 560              	.LVL75:
 561 01ba FFF7FEFF 		bl	lv_textarea_set_cursor_pos
 562              	.LVL76:
 354:..\..\..\arduinoLCD\test\Pain Drain\libraries\lvgl\src\extra\widgets\keyboard/lv_keyboard.c ****             lv_textarea_add_char(keyboard->ta, '-');
 563              		.loc 1 354 0
 564 01be A06B     		ldr	r0, [r4, #56]
 565 01c0 FFF7FEFF 		bl	lv_textarea_del_char
 566              	.LVL77:
 355:..\..\..\arduinoLCD\test\Pain Drain\libraries\lvgl\src\extra\widgets\keyboard/lv_keyboard.c ****             lv_textarea_set_cursor_pos(keyboard->ta, cur);
 567              		.loc 1 355 0
 568 01c4 2D21     		movs	r1, #45
 569 01c6 A06B     		ldr	r0, [r4, #56]
 570 01c8 FFF7FEFF 		bl	lv_textarea_add_char
 571              	.LVL78:
 356:..\..\..\arduinoLCD\test\Pain Drain\libraries\lvgl\src\extra\widgets\keyboard/lv_keyboard.c ****         }
 572              		.loc 1 356 0
 573 01cc 2904     		lsls	r1, r5, #16
 574 01ce 090C     		lsrs	r1, r1, #16
 575 01d0 A06B     		ldr	r0, [r4, #56]
 576 01d2 FFF7FEFF 		bl	lv_textarea_set_cursor_pos
 577              	.LVL79:
 578 01d6 12E0     		b	.L14
 579              	.LVL80:
 580              	.L29:
 359:..\..\..\arduinoLCD\test\Pain Drain\libraries\lvgl\src\extra\widgets\keyboard/lv_keyboard.c ****             lv_textarea_add_char(keyboard->ta, '-');
 581              		.loc 1 359 0
ARM GAS  C:\Users\haske\AppData\Local\Temp\ccEGgQv3.s 			page 20


 582 01d8 0021     		movs	r1, #0
 583 01da A06B     		ldr	r0, [r4, #56]
 584              	.LVL81:
 585 01dc FFF7FEFF 		bl	lv_textarea_set_cursor_pos
 586              	.LVL82:
 360:..\..\..\arduinoLCD\test\Pain Drain\libraries\lvgl\src\extra\widgets\keyboard/lv_keyboard.c ****             lv_textarea_set_cursor_pos(keyboard->ta, cur + 1);
 587              		.loc 1 360 0
 588 01e0 2D21     		movs	r1, #45
 589 01e2 A06B     		ldr	r0, [r4, #56]
 590 01e4 FFF7FEFF 		bl	lv_textarea_add_char
 591              	.LVL83:
 361:..\..\..\arduinoLCD\test\Pain Drain\libraries\lvgl\src\extra\widgets\keyboard/lv_keyboard.c ****         }
 592              		.loc 1 361 0
 593 01e8 2904     		lsls	r1, r5, #16
 594 01ea 090C     		lsrs	r1, r1, #16
 595 01ec 0131     		adds	r1, r1, #1
 596 01ee A06B     		ldr	r0, [r4, #56]
 597 01f0 FFF7FEFF 		bl	lv_textarea_set_cursor_pos
 598              	.LVL84:
 599 01f4 03E0     		b	.L14
 600              	.LVL85:
 601              	.L27:
 602              	.LBE7:
 365:..\..\..\arduinoLCD\test\Pain Drain\libraries\lvgl\src\extra\widgets\keyboard/lv_keyboard.c ****     }
 603              		.loc 1 365 0
 604 01f6 2900     		movs	r1, r5
 605 01f8 3000     		movs	r0, r6
 606 01fa FFF7FEFF 		bl	lv_textarea_add_text
 607              	.LVL86:
 608              	.L14:
 367:..\..\..\arduinoLCD\test\Pain Drain\libraries\lvgl\src\extra\widgets\keyboard/lv_keyboard.c **** 
 609              		.loc 1 367 0
 610              		@ sp needed
 611              	.LVL87:
 612 01fe 70BD     		pop	{r4, r5, r6, pc}
 613              	.L31:
 614              		.align	2
 615              	.L30:
 616 0200 FFFF0000 		.word	65535
 617 0204 00000000 		.word	.LC3
 618 0208 00000000 		.word	.LANCHOR0
 619 020c 04000000 		.word	.LC6
 620 0210 08000000 		.word	.LC8
 621 0214 0C000000 		.word	.LC10
 622 0218 10000000 		.word	.LC12
 623 021c 14000000 		.word	.LC14
 624 0220 18000000 		.word	.LC16
 625 0224 20000000 		.word	.LC18
 626 0228 24000000 		.word	.LC20
 627 022c 28000000 		.word	.LC22
 628 0230 2C000000 		.word	.LC24
 629 0234 30000000 		.word	.LC26
 630              		.cfi_endproc
 631              	.LFE170:
 632              		.size	lv_keyboard_def_event_cb, .-lv_keyboard_def_event_cb
 633              		.section	.text.lv_keyboard_create,"ax",%progbits
 634              		.align	2
ARM GAS  C:\Users\haske\AppData\Local\Temp\ccEGgQv3.s 			page 21


 635              		.global	lv_keyboard_create
 636              		.code	16
 637              		.thumb_func
 638              		.type	lv_keyboard_create, %function
 639              	lv_keyboard_create:
 640              	.LFB162:
 138:..\..\..\arduinoLCD\test\Pain Drain\libraries\lvgl\src\extra\widgets\keyboard/lv_keyboard.c ****     LV_LOG_INFO("begin");
 641              		.loc 1 138 0
 642              		.cfi_startproc
 643              		@ args = 0, pretend = 0, frame = 0
 644              		@ frame_needed = 0, uses_anonymous_args = 0
 645              	.LVL88:
 646 0000 10B5     		push	{r4, lr}
 647              		.cfi_def_cfa_offset 8
 648              		.cfi_offset 4, -8
 649              		.cfi_offset 14, -4
 650 0002 0100     		movs	r1, r0
 140:..\..\..\arduinoLCD\test\Pain Drain\libraries\lvgl\src\extra\widgets\keyboard/lv_keyboard.c ****     lv_obj_class_init_obj(obj);
 651              		.loc 1 140 0
 652 0004 0348     		ldr	r0, .L33
 653              	.LVL89:
 654 0006 FFF7FEFF 		bl	lv_obj_class_create_obj
 655              	.LVL90:
 656 000a 0400     		movs	r4, r0
 657              	.LVL91:
 141:..\..\..\arduinoLCD\test\Pain Drain\libraries\lvgl\src\extra\widgets\keyboard/lv_keyboard.c ****     return obj;
 658              		.loc 1 141 0
 659 000c FFF7FEFF 		bl	lv_obj_class_init_obj
 660              	.LVL92:
 143:..\..\..\arduinoLCD\test\Pain Drain\libraries\lvgl\src\extra\widgets\keyboard/lv_keyboard.c **** 
 661              		.loc 1 143 0
 662 0010 2000     		movs	r0, r4
 663              		@ sp needed
 664              	.LVL93:
 665 0012 10BD     		pop	{r4, pc}
 666              	.L34:
 667              		.align	2
 668              	.L33:
 669 0014 00000000 		.word	.LANCHOR1
 670              		.cfi_endproc
 671              	.LFE162:
 672              		.size	lv_keyboard_create, .-lv_keyboard_create
 673              		.section	.text.lv_keyboard_set_textarea,"ax",%progbits
 674              		.align	2
 675              		.global	lv_keyboard_set_textarea
 676              		.code	16
 677              		.thumb_func
 678              		.type	lv_keyboard_set_textarea, %function
 679              	lv_keyboard_set_textarea:
 680              	.LFB163:
 155:..\..\..\arduinoLCD\test\Pain Drain\libraries\lvgl\src\extra\widgets\keyboard/lv_keyboard.c ****     if(ta) {
 681              		.loc 1 155 0
 682              		.cfi_startproc
 683              		@ args = 0, pretend = 0, frame = 0
 684              		@ frame_needed = 0, uses_anonymous_args = 0
 685              	.LVL94:
 686 0000 70B5     		push	{r4, r5, r6, lr}
ARM GAS  C:\Users\haske\AppData\Local\Temp\ccEGgQv3.s 			page 22


 687              		.cfi_def_cfa_offset 16
 688              		.cfi_offset 4, -16
 689              		.cfi_offset 5, -12
 690              		.cfi_offset 6, -8
 691              		.cfi_offset 14, -4
 692 0002 0400     		movs	r4, r0
 693 0004 0D00     		movs	r5, r1
 694              	.LVL95:
 164:..\..\..\arduinoLCD\test\Pain Drain\libraries\lvgl\src\extra\widgets\keyboard/lv_keyboard.c ****         lv_obj_clear_state(obj, LV_STATE_FOCUSED);
 695              		.loc 1 164 0
 696 0006 836B     		ldr	r3, [r0, #56]
 697 0008 002B     		cmp	r3, #0
 698 000a 02D0     		beq	.L36
 165:..\..\..\arduinoLCD\test\Pain Drain\libraries\lvgl\src\extra\widgets\keyboard/lv_keyboard.c ****     }
 699              		.loc 1 165 0
 700 000c 0221     		movs	r1, #2
 701              	.LVL96:
 702 000e FFF7FEFF 		bl	lv_obj_clear_state
 703              	.LVL97:
 704              	.L36:
 168:..\..\..\arduinoLCD\test\Pain Drain\libraries\lvgl\src\extra\widgets\keyboard/lv_keyboard.c **** 
 705              		.loc 1 168 0
 706 0012 A563     		str	r5, [r4, #56]
 171:..\..\..\arduinoLCD\test\Pain Drain\libraries\lvgl\src\extra\widgets\keyboard/lv_keyboard.c ****         lv_obj_add_flag(obj, LV_STATE_FOCUSED);
 707              		.loc 1 171 0
 708 0014 002D     		cmp	r5, #0
 709 0016 03D0     		beq	.L35
 172:..\..\..\arduinoLCD\test\Pain Drain\libraries\lvgl\src\extra\widgets\keyboard/lv_keyboard.c ****     }
 710              		.loc 1 172 0
 711 0018 0221     		movs	r1, #2
 712 001a 2000     		movs	r0, r4
 713 001c FFF7FEFF 		bl	lv_obj_add_flag
 714              	.LVL98:
 715              	.L35:
 174:..\..\..\arduinoLCD\test\Pain Drain\libraries\lvgl\src\extra\widgets\keyboard/lv_keyboard.c **** 
 716              		.loc 1 174 0
 717              		@ sp needed
 718              	.LVL99:
 719              	.LVL100:
 720 0020 70BD     		pop	{r4, r5, r6, pc}
 721              		.cfi_endproc
 722              	.LFE163:
 723              		.size	lv_keyboard_set_textarea, .-lv_keyboard_set_textarea
 724 0022 C046     		.section	.text.lv_keyboard_set_mode,"ax",%progbits
 725              		.align	2
 726              		.global	lv_keyboard_set_mode
 727              		.code	16
 728              		.thumb_func
 729              		.type	lv_keyboard_set_mode, %function
 730              	lv_keyboard_set_mode:
 731              	.LFB164:
 182:..\..\..\arduinoLCD\test\Pain Drain\libraries\lvgl\src\extra\widgets\keyboard/lv_keyboard.c ****     LV_ASSERT_OBJ(obj, MY_CLASS);
 732              		.loc 1 182 0
 733              		.cfi_startproc
 734              		@ args = 0, pretend = 0, frame = 0
 735              		@ frame_needed = 0, uses_anonymous_args = 0
 736              	.LVL101:
ARM GAS  C:\Users\haske\AppData\Local\Temp\ccEGgQv3.s 			page 23


 737 0000 10B5     		push	{r4, lr}
 738              		.cfi_def_cfa_offset 8
 739              		.cfi_offset 4, -8
 740              		.cfi_offset 14, -4
 741              	.LVL102:
 185:..\..\..\arduinoLCD\test\Pain Drain\libraries\lvgl\src\extra\widgets\keyboard/lv_keyboard.c **** 
 742              		.loc 1 185 0
 743 0002 3C23     		movs	r3, #60
 744 0004 C35C     		ldrb	r3, [r0, r3]
 745 0006 8B42     		cmp	r3, r1
 746 0008 03D0     		beq	.L38
 187:..\..\..\arduinoLCD\test\Pain Drain\libraries\lvgl\src\extra\widgets\keyboard/lv_keyboard.c ****     lv_keyboard_update_map(obj);
 747              		.loc 1 187 0
 748 000a 3C23     		movs	r3, #60
 749 000c C154     		strb	r1, [r0, r3]
 188:..\..\..\arduinoLCD\test\Pain Drain\libraries\lvgl\src\extra\widgets\keyboard/lv_keyboard.c **** }
 750              		.loc 1 188 0
 751 000e FFF7FEFF 		bl	lv_keyboard_update_map
 752              	.LVL103:
 753              	.L38:
 189:..\..\..\arduinoLCD\test\Pain Drain\libraries\lvgl\src\extra\widgets\keyboard/lv_keyboard.c **** 
 754              		.loc 1 189 0
 755              		@ sp needed
 756 0012 10BD     		pop	{r4, pc}
 757              		.cfi_endproc
 758              	.LFE164:
 759              		.size	lv_keyboard_set_mode, .-lv_keyboard_set_mode
 760              		.section	.text.lv_keyboard_set_popovers,"ax",%progbits
 761              		.align	2
 762              		.global	lv_keyboard_set_popovers
 763              		.code	16
 764              		.thumb_func
 765              		.type	lv_keyboard_set_popovers, %function
 766              	lv_keyboard_set_popovers:
 767              	.LFB165:
 197:..\..\..\arduinoLCD\test\Pain Drain\libraries\lvgl\src\extra\widgets\keyboard/lv_keyboard.c ****     lv_keyboard_t * keyboard = (lv_keyboard_t *)obj;
 768              		.loc 1 197 0
 769              		.cfi_startproc
 770              		@ args = 0, pretend = 0, frame = 0
 771              		@ frame_needed = 0, uses_anonymous_args = 0
 772              	.LVL104:
 773 0000 10B5     		push	{r4, lr}
 774              		.cfi_def_cfa_offset 8
 775              		.cfi_offset 4, -8
 776              		.cfi_offset 14, -4
 777              	.LVL105:
 200:..\..\..\arduinoLCD\test\Pain Drain\libraries\lvgl\src\extra\widgets\keyboard/lv_keyboard.c ****         return;
 778              		.loc 1 200 0
 779 0002 3D23     		movs	r3, #61
 780 0004 C35C     		ldrb	r3, [r0, r3]
 781 0006 DB07     		lsls	r3, r3, #31
 782 0008 DB0F     		lsrs	r3, r3, #31
 783 000a DBB2     		uxtb	r3, r3
 784 000c 8B42     		cmp	r3, r1
 785 000e 09D0     		beq	.L40
 204:..\..\..\arduinoLCD\test\Pain Drain\libraries\lvgl\src\extra\widgets\keyboard/lv_keyboard.c ****     lv_keyboard_update_ctrl_map(obj);
 786              		.loc 1 204 0
ARM GAS  C:\Users\haske\AppData\Local\Temp\ccEGgQv3.s 			page 24


 787 0010 3D22     		movs	r2, #61
 788 0012 0123     		movs	r3, #1
 789 0014 1940     		ands	r1, r3
 790              	.LVL106:
 791 0016 835C     		ldrb	r3, [r0, r2]
 792 0018 0124     		movs	r4, #1
 793 001a A343     		bics	r3, r4
 794 001c 1943     		orrs	r1, r3
 795 001e 8154     		strb	r1, [r0, r2]
 205:..\..\..\arduinoLCD\test\Pain Drain\libraries\lvgl\src\extra\widgets\keyboard/lv_keyboard.c **** }
 796              		.loc 1 205 0
 797 0020 FFF7FEFF 		bl	lv_keyboard_update_ctrl_map
 798              	.LVL107:
 799              	.L40:
 206:..\..\..\arduinoLCD\test\Pain Drain\libraries\lvgl\src\extra\widgets\keyboard/lv_keyboard.c **** 
 800              		.loc 1 206 0
 801              		@ sp needed
 802 0024 10BD     		pop	{r4, pc}
 803              		.cfi_endproc
 804              	.LFE165:
 805              		.size	lv_keyboard_set_popovers, .-lv_keyboard_set_popovers
 806 0026 C046     		.section	.text.lv_keyboard_set_map,"ax",%progbits
 807              		.align	2
 808              		.global	lv_keyboard_set_map
 809              		.code	16
 810              		.thumb_func
 811              		.type	lv_keyboard_set_map, %function
 812              	lv_keyboard_set_map:
 813              	.LFB166:
 217:..\..\..\arduinoLCD\test\Pain Drain\libraries\lvgl\src\extra\widgets\keyboard/lv_keyboard.c ****     kb_map[mode] = map;
 814              		.loc 1 217 0
 815              		.cfi_startproc
 816              		@ args = 0, pretend = 0, frame = 0
 817              		@ frame_needed = 0, uses_anonymous_args = 0
 818              	.LVL108:
 819 0000 70B5     		push	{r4, r5, r6, lr}
 820              		.cfi_def_cfa_offset 16
 821              		.cfi_offset 4, -16
 822              		.cfi_offset 5, -12
 823              		.cfi_offset 6, -8
 824              		.cfi_offset 14, -4
 218:..\..\..\arduinoLCD\test\Pain Drain\libraries\lvgl\src\extra\widgets\keyboard/lv_keyboard.c ****     kb_ctrl[mode] = ctrl_map;
 825              		.loc 1 218 0
 826 0002 044C     		ldr	r4, .L43
 827 0004 8900     		lsls	r1, r1, #2
 828              	.LVL109:
 829 0006 6518     		adds	r5, r4, r1
 830 0008 6A62     		str	r2, [r5, #36]
 219:..\..\..\arduinoLCD\test\Pain Drain\libraries\lvgl\src\extra\widgets\keyboard/lv_keyboard.c ****     lv_keyboard_update_map(obj);
 831              		.loc 1 219 0
 832 000a 0B51     		str	r3, [r1, r4]
 220:..\..\..\arduinoLCD\test\Pain Drain\libraries\lvgl\src\extra\widgets\keyboard/lv_keyboard.c **** }
 833              		.loc 1 220 0
 834 000c FFF7FEFF 		bl	lv_keyboard_update_map
 835              	.LVL110:
 221:..\..\..\arduinoLCD\test\Pain Drain\libraries\lvgl\src\extra\widgets\keyboard/lv_keyboard.c **** 
 836              		.loc 1 221 0
ARM GAS  C:\Users\haske\AppData\Local\Temp\ccEGgQv3.s 			page 25


 837              		@ sp needed
 838 0010 70BD     		pop	{r4, r5, r6, pc}
 839              	.L44:
 840 0012 C046     		.align	2
 841              	.L43:
 842 0014 00000000 		.word	.LANCHOR0
 843              		.cfi_endproc
 844              	.LFE166:
 845              		.size	lv_keyboard_set_map, .-lv_keyboard_set_map
 846              		.section	.text.lv_keyboard_get_textarea,"ax",%progbits
 847              		.align	2
 848              		.global	lv_keyboard_get_textarea
 849              		.code	16
 850              		.thumb_func
 851              		.type	lv_keyboard_get_textarea, %function
 852              	lv_keyboard_get_textarea:
 853              	.LFB167:
 233:..\..\..\arduinoLCD\test\Pain Drain\libraries\lvgl\src\extra\widgets\keyboard/lv_keyboard.c ****     LV_ASSERT_OBJ(obj, MY_CLASS);
 854              		.loc 1 233 0
 855              		.cfi_startproc
 856              		@ args = 0, pretend = 0, frame = 0
 857              		@ frame_needed = 0, uses_anonymous_args = 0
 858              		@ link register save eliminated.
 859              	.LVL111:
 236:..\..\..\arduinoLCD\test\Pain Drain\libraries\lvgl\src\extra\widgets\keyboard/lv_keyboard.c **** }
 860              		.loc 1 236 0
 861 0000 806B     		ldr	r0, [r0, #56]
 862              	.LVL112:
 237:..\..\..\arduinoLCD\test\Pain Drain\libraries\lvgl\src\extra\widgets\keyboard/lv_keyboard.c **** 
 863              		.loc 1 237 0
 864              		@ sp needed
 865 0002 7047     		bx	lr
 866              		.cfi_endproc
 867              	.LFE167:
 868              		.size	lv_keyboard_get_textarea, .-lv_keyboard_get_textarea
 869              		.section	.text.lv_keyboard_get_mode,"ax",%progbits
 870              		.align	2
 871              		.global	lv_keyboard_get_mode
 872              		.code	16
 873              		.thumb_func
 874              		.type	lv_keyboard_get_mode, %function
 875              	lv_keyboard_get_mode:
 876              	.LFB168:
 245:..\..\..\arduinoLCD\test\Pain Drain\libraries\lvgl\src\extra\widgets\keyboard/lv_keyboard.c ****     LV_ASSERT_OBJ(obj, MY_CLASS);
 877              		.loc 1 245 0
 878              		.cfi_startproc
 879              		@ args = 0, pretend = 0, frame = 0
 880              		@ frame_needed = 0, uses_anonymous_args = 0
 881              		@ link register save eliminated.
 882              	.LVL113:
 248:..\..\..\arduinoLCD\test\Pain Drain\libraries\lvgl\src\extra\widgets\keyboard/lv_keyboard.c **** }
 883              		.loc 1 248 0
 884 0000 3C23     		movs	r3, #60
 885 0002 C05C     		ldrb	r0, [r0, r3]
 886              	.LVL114:
 249:..\..\..\arduinoLCD\test\Pain Drain\libraries\lvgl\src\extra\widgets\keyboard/lv_keyboard.c **** 
 887              		.loc 1 249 0
ARM GAS  C:\Users\haske\AppData\Local\Temp\ccEGgQv3.s 			page 26


 888              		@ sp needed
 889 0004 7047     		bx	lr
 890              		.cfi_endproc
 891              	.LFE168:
 892              		.size	lv_keyboard_get_mode, .-lv_keyboard_get_mode
 893 0006 C046     		.section	.text.lv_btnmatrix_get_popovers,"ax",%progbits
 894              		.align	2
 895              		.global	lv_btnmatrix_get_popovers
 896              		.code	16
 897              		.thumb_func
 898              		.type	lv_btnmatrix_get_popovers, %function
 899              	lv_btnmatrix_get_popovers:
 900              	.LFB169:
 257:..\..\..\arduinoLCD\test\Pain Drain\libraries\lvgl\src\extra\widgets\keyboard/lv_keyboard.c ****     lv_keyboard_t * keyboard = (lv_keyboard_t *)obj;
 901              		.loc 1 257 0
 902              		.cfi_startproc
 903              		@ args = 0, pretend = 0, frame = 0
 904              		@ frame_needed = 0, uses_anonymous_args = 0
 905              		@ link register save eliminated.
 906              	.LVL115:
 259:..\..\..\arduinoLCD\test\Pain Drain\libraries\lvgl\src\extra\widgets\keyboard/lv_keyboard.c **** }
 907              		.loc 1 259 0
 908 0000 3D23     		movs	r3, #61
 909 0002 C05C     		ldrb	r0, [r0, r3]
 910              	.LVL116:
 911 0004 C007     		lsls	r0, r0, #31
 912 0006 C00F     		lsrs	r0, r0, #31
 913 0008 C0B2     		uxtb	r0, r0
 260:..\..\..\arduinoLCD\test\Pain Drain\libraries\lvgl\src\extra\widgets\keyboard/lv_keyboard.c **** 
 914              		.loc 1 260 0
 915              		@ sp needed
 916 000a 7047     		bx	lr
 917              		.cfi_endproc
 918              	.LFE169:
 919              		.size	lv_btnmatrix_get_popovers, .-lv_btnmatrix_get_popovers
 920              		.global	lv_keyboard_class
 921              		.section	.rodata
 922              		.align	2
 923              		.set	.LANCHOR1,. + 0
 924              		.type	lv_keyboard_class, %object
 925              		.size	lv_keyboard_class, 28
 926              	lv_keyboard_class:
 927 0000 00000000 		.word	lv_btnmatrix_class
 928 0004 00000000 		.word	lv_keyboard_constructor
 929 0008 00000000 		.space	12
 929      00000000 
 929      00000000 
 930 0014 6420     		.short	8292
 931 0016 3220     		.short	8242
 932 0018 01       		.byte	1
 933 0019 04       		.byte	4
 934 001a 00       		.byte	0
 935 001b 00       		.space	1
 936              		.type	default_kb_ctrl_num_map, %object
 937              		.size	default_kb_ctrl_num_map, 34
 938              	default_kb_ctrl_num_map:
 939 001c 0100     		.short	1
ARM GAS  C:\Users\haske\AppData\Local\Temp\ccEGgQv3.s 			page 27


 940 001e 0100     		.short	1
 941 0020 0100     		.short	1
 942 0022 9201     		.short	402
 943 0024 0100     		.short	1
 944 0026 0100     		.short	1
 945 0028 0100     		.short	1
 946 002a 9201     		.short	402
 947 002c 0100     		.short	1
 948 002e 0100     		.short	1
 949 0030 0100     		.short	1
 950 0032 0200     		.short	2
 951 0034 0100     		.short	1
 952 0036 0100     		.short	1
 953 0038 0100     		.short	1
 954 003a 0100     		.short	1
 955 003c 0100     		.short	1
 956 003e 0000     		.space	2
 957              		.type	default_kb_map_num, %object
 958              		.size	default_kb_map_num, 84
 959              	default_kb_map_num:
 960 0040 34000000 		.word	.LC30
 961 0044 38000000 		.word	.LC31
 962 0048 3C000000 		.word	.LC32
 963 004c 10000000 		.word	.LC12
 964 0050 40000000 		.word	.LC33
 965 0054 44000000 		.word	.LC34
 966 0058 48000000 		.word	.LC35
 967 005c 4C000000 		.word	.LC36
 968 0060 14000000 		.word	.LC14
 969 0064 40000000 		.word	.LC33
 970 0068 50000000 		.word	.LC37
 971 006c 54000000 		.word	.LC38
 972 0070 58000000 		.word	.LC39
 973 0074 2C000000 		.word	.LC24
 974 0078 40000000 		.word	.LC33
 975 007c 30000000 		.word	.LC26
 976 0080 5C000000 		.word	.LC40
 977 0084 60000000 		.word	.LC41
 978 0088 24000000 		.word	.LC20
 979 008c 28000000 		.word	.LC22
 980 0090 64000000 		.word	.LC42
 981              		.type	default_kb_ctrl_spec_map, %object
 982              		.size	default_kb_ctrl_spec_map, 80
 983              	default_kb_ctrl_spec_map:
 984 0094 0102     		.short	513
 985 0096 0102     		.short	513
 986 0098 0102     		.short	513
 987 009a 0102     		.short	513
 988 009c 0102     		.short	513
 989 009e 0102     		.short	513
 990 00a0 0102     		.short	513
 991 00a2 0102     		.short	513
 992 00a4 0102     		.short	513
 993 00a6 0102     		.short	513
 994 00a8 8200     		.short	130
 995 00aa 9201     		.short	402
 996 00ac 0102     		.short	513
ARM GAS  C:\Users\haske\AppData\Local\Temp\ccEGgQv3.s 			page 28


 997 00ae 0102     		.short	513
 998 00b0 0102     		.short	513
 999 00b2 0102     		.short	513
 1000 00b4 0102     		.short	513
 1001 00b6 0102     		.short	513
 1002 00b8 0102     		.short	513
 1003 00ba 0102     		.short	513
 1004 00bc 0102     		.short	513
 1005 00be 0102     		.short	513
 1006 00c0 0102     		.short	513
 1007 00c2 0102     		.short	513
 1008 00c4 0102     		.short	513
 1009 00c6 0102     		.short	513
 1010 00c8 0102     		.short	513
 1011 00ca 0102     		.short	513
 1012 00cc 0102     		.short	513
 1013 00ce 0102     		.short	513
 1014 00d0 0102     		.short	513
 1015 00d2 0102     		.short	513
 1016 00d4 0102     		.short	513
 1017 00d6 0102     		.short	513
 1018 00d8 0102     		.short	513
 1019 00da 9201     		.short	402
 1020 00dc 8200     		.short	130
 1021 00de 0600     		.short	6
 1022 00e0 8200     		.short	130
 1023 00e2 9201     		.short	402
 1024              		.type	default_kb_map_spec, %object
 1025              		.size	default_kb_map_spec, 176
 1026              	default_kb_map_spec:
 1027 00e4 34000000 		.word	.LC30
 1028 00e8 38000000 		.word	.LC31
 1029 00ec 3C000000 		.word	.LC32
 1030 00f0 44000000 		.word	.LC34
 1031 00f4 48000000 		.word	.LC35
 1032 00f8 4C000000 		.word	.LC36
 1033 00fc 50000000 		.word	.LC37
 1034 0100 54000000 		.word	.LC38
 1035 0104 58000000 		.word	.LC39
 1036 0108 5C000000 		.word	.LC40
 1037 010c 2C000000 		.word	.LC24
 1038 0110 40000000 		.word	.LC33
 1039 0114 00000000 		.word	.LC3
 1040 0118 68000000 		.word	.LC43
 1041 011c 6C000000 		.word	.LC44
 1042 0120 70000000 		.word	.LC45
 1043 0124 74000000 		.word	.LC46
 1044 0128 78000000 		.word	.LC47
 1045 012c 7C000000 		.word	.LC48
 1046 0130 80000000 		.word	.LC49
 1047 0134 84000000 		.word	.LC50
 1048 0138 88000000 		.word	.LC51
 1049 013c 8C000000 		.word	.LC52
 1050 0140 90000000 		.word	.LC53
 1051 0144 40000000 		.word	.LC33
 1052 0148 94000000 		.word	.LC54
 1053 014c 98000000 		.word	.LC55
ARM GAS  C:\Users\haske\AppData\Local\Temp\ccEGgQv3.s 			page 29


 1054 0150 9C000000 		.word	.LC56
 1055 0154 A0000000 		.word	.LC57
 1056 0158 A4000000 		.word	.LC58
 1057 015c A8000000 		.word	.LC59
 1058 0160 AC000000 		.word	.LC60
 1059 0164 B0000000 		.word	.LC61
 1060 0168 B4000000 		.word	.LC62
 1061 016c B8000000 		.word	.LC63
 1062 0170 BC000000 		.word	.LC64
 1063 0174 C0000000 		.word	.LC65
 1064 0178 40000000 		.word	.LC33
 1065 017c 10000000 		.word	.LC12
 1066 0180 24000000 		.word	.LC20
 1067 0184 C4000000 		.word	.LC66
 1068 0188 28000000 		.word	.LC22
 1069 018c 14000000 		.word	.LC14
 1070 0190 64000000 		.word	.LC42
 1071              		.type	default_kb_ctrl_uc_map, %object
 1072              		.size	default_kb_ctrl_uc_map, 80
 1073              	default_kb_ctrl_uc_map:
 1074 0194 9501     		.short	405
 1075 0196 0402     		.short	516
 1076 0198 0402     		.short	516
 1077 019a 0402     		.short	516
 1078 019c 0402     		.short	516
 1079 019e 0402     		.short	516
 1080 01a0 0402     		.short	516
 1081 01a2 0402     		.short	516
 1082 01a4 0402     		.short	516
 1083 01a6 0402     		.short	516
 1084 01a8 0402     		.short	516
 1085 01aa 8700     		.short	135
 1086 01ac 9601     		.short	406
 1087 01ae 0302     		.short	515
 1088 01b0 0302     		.short	515
 1089 01b2 0302     		.short	515
 1090 01b4 0302     		.short	515
 1091 01b6 0302     		.short	515
 1092 01b8 0302     		.short	515
 1093 01ba 0302     		.short	515
 1094 01bc 0302     		.short	515
 1095 01be 0302     		.short	515
 1096 01c0 8700     		.short	135
 1097 01c2 8102     		.short	641
 1098 01c4 8102     		.short	641
 1099 01c6 0102     		.short	513
 1100 01c8 0102     		.short	513
 1101 01ca 0102     		.short	513
 1102 01cc 0102     		.short	513
 1103 01ce 0102     		.short	513
 1104 01d0 0102     		.short	513
 1105 01d2 0102     		.short	513
 1106 01d4 8102     		.short	641
 1107 01d6 8102     		.short	641
 1108 01d8 8102     		.short	641
 1109 01da 9201     		.short	402
 1110 01dc 8200     		.short	130
ARM GAS  C:\Users\haske\AppData\Local\Temp\ccEGgQv3.s 			page 30


 1111 01de 0600     		.short	6
 1112 01e0 8200     		.short	130
 1113 01e2 9201     		.short	402
 1114              		.type	default_kb_map_uc, %object
 1115              		.size	default_kb_map_uc, 176
 1116              	default_kb_map_uc:
 1117 01e4 08000000 		.word	.LC8
 1118 01e8 C8000000 		.word	.LC67
 1119 01ec CC000000 		.word	.LC68
 1120 01f0 D0000000 		.word	.LC69
 1121 01f4 D4000000 		.word	.LC70
 1122 01f8 D8000000 		.word	.LC71
 1123 01fc DC000000 		.word	.LC72
 1124 0200 E0000000 		.word	.LC73
 1125 0204 E4000000 		.word	.LC74
 1126 0208 E8000000 		.word	.LC75
 1127 020c EC000000 		.word	.LC76
 1128 0210 2C000000 		.word	.LC24
 1129 0214 40000000 		.word	.LC33
 1130 0218 00000000 		.word	.LC3
 1131 021c F0000000 		.word	.LC77
 1132 0220 F4000000 		.word	.LC78
 1133 0224 F8000000 		.word	.LC79
 1134 0228 FC000000 		.word	.LC80
 1135 022c 00010000 		.word	.LC81
 1136 0230 04010000 		.word	.LC82
 1137 0234 08010000 		.word	.LC83
 1138 0238 0C010000 		.word	.LC84
 1139 023c 10010000 		.word	.LC85
 1140 0240 20000000 		.word	.LC18
 1141 0244 40000000 		.word	.LC33
 1142 0248 14010000 		.word	.LC86
 1143 024c 6C000000 		.word	.LC44
 1144 0250 18010000 		.word	.LC87
 1145 0254 1C010000 		.word	.LC88
 1146 0258 20010000 		.word	.LC89
 1147 025c 24010000 		.word	.LC90
 1148 0260 28010000 		.word	.LC91
 1149 0264 2C010000 		.word	.LC92
 1150 0268 30010000 		.word	.LC93
 1151 026c 60000000 		.word	.LC41
 1152 0270 34010000 		.word	.LC94
 1153 0274 38010000 		.word	.LC95
 1154 0278 40000000 		.word	.LC33
 1155 027c 10000000 		.word	.LC12
 1156 0280 24000000 		.word	.LC20
 1157 0284 C4000000 		.word	.LC66
 1158 0288 28000000 		.word	.LC22
 1159 028c 14000000 		.word	.LC14
 1160 0290 64000000 		.word	.LC42
 1161              		.type	default_kb_ctrl_lc_map, %object
 1162              		.size	default_kb_ctrl_lc_map, 80
 1163              	default_kb_ctrl_lc_map:
 1164 0294 9501     		.short	405
 1165 0296 0402     		.short	516
 1166 0298 0402     		.short	516
 1167 029a 0402     		.short	516
ARM GAS  C:\Users\haske\AppData\Local\Temp\ccEGgQv3.s 			page 31


 1168 029c 0402     		.short	516
 1169 029e 0402     		.short	516
 1170 02a0 0402     		.short	516
 1171 02a2 0402     		.short	516
 1172 02a4 0402     		.short	516
 1173 02a6 0402     		.short	516
 1174 02a8 0402     		.short	516
 1175 02aa 8700     		.short	135
 1176 02ac 9601     		.short	406
 1177 02ae 0302     		.short	515
 1178 02b0 0302     		.short	515
 1179 02b2 0302     		.short	515
 1180 02b4 0302     		.short	515
 1181 02b6 0302     		.short	515
 1182 02b8 0302     		.short	515
 1183 02ba 0302     		.short	515
 1184 02bc 0302     		.short	515
 1185 02be 0302     		.short	515
 1186 02c0 8700     		.short	135
 1187 02c2 8102     		.short	641
 1188 02c4 8102     		.short	641
 1189 02c6 0102     		.short	513
 1190 02c8 0102     		.short	513
 1191 02ca 0102     		.short	513
 1192 02cc 0102     		.short	513
 1193 02ce 0102     		.short	513
 1194 02d0 0102     		.short	513
 1195 02d2 0102     		.short	513
 1196 02d4 8102     		.short	641
 1197 02d6 8102     		.short	641
 1198 02d8 8102     		.short	641
 1199 02da 9201     		.short	402
 1200 02dc 8200     		.short	130
 1201 02de 0600     		.short	6
 1202 02e0 8200     		.short	130
 1203 02e2 9201     		.short	402
 1204              		.type	default_kb_map_lc, %object
 1205              		.size	default_kb_map_lc, 176
 1206              	default_kb_map_lc:
 1207 02e4 08000000 		.word	.LC8
 1208 02e8 3C010000 		.word	.LC96
 1209 02ec 40010000 		.word	.LC97
 1210 02f0 44010000 		.word	.LC98
 1211 02f4 48010000 		.word	.LC99
 1212 02f8 4C010000 		.word	.LC100
 1213 02fc 50010000 		.word	.LC101
 1214 0300 54010000 		.word	.LC102
 1215 0304 58010000 		.word	.LC103
 1216 0308 5C010000 		.word	.LC104
 1217 030c 60010000 		.word	.LC105
 1218 0310 2C000000 		.word	.LC24
 1219 0314 40000000 		.word	.LC33
 1220 0318 04000000 		.word	.LC6
 1221 031c 64010000 		.word	.LC106
 1222 0320 68010000 		.word	.LC107
 1223 0324 6C010000 		.word	.LC108
 1224 0328 70010000 		.word	.LC109
ARM GAS  C:\Users\haske\AppData\Local\Temp\ccEGgQv3.s 			page 32


 1225 032c 74010000 		.word	.LC110
 1226 0330 78010000 		.word	.LC111
 1227 0334 7C010000 		.word	.LC112
 1228 0338 80010000 		.word	.LC113
 1229 033c 84010000 		.word	.LC114
 1230 0340 20000000 		.word	.LC18
 1231 0344 40000000 		.word	.LC33
 1232 0348 14010000 		.word	.LC86
 1233 034c 6C000000 		.word	.LC44
 1234 0350 88010000 		.word	.LC115
 1235 0354 8C010000 		.word	.LC116
 1236 0358 90010000 		.word	.LC117
 1237 035c 94010000 		.word	.LC118
 1238 0360 98010000 		.word	.LC119
 1239 0364 9C010000 		.word	.LC120
 1240 0368 A0010000 		.word	.LC121
 1241 036c 60000000 		.word	.LC41
 1242 0370 34010000 		.word	.LC94
 1243 0374 38010000 		.word	.LC95
 1244 0378 40000000 		.word	.LC33
 1245 037c 10000000 		.word	.LC12
 1246 0380 24000000 		.word	.LC20
 1247 0384 C4000000 		.word	.LC66
 1248 0388 28000000 		.word	.LC22
 1249 038c 14000000 		.word	.LC14
 1250 0390 64000000 		.word	.LC42
 1251              		.data
 1252              		.align	2
 1253              		.set	.LANCHOR0,. + 0
 1254              		.type	kb_ctrl, %object
 1255              		.size	kb_ctrl, 36
 1256              	kb_ctrl:
 1257 0000 94020000 		.word	default_kb_ctrl_lc_map
 1258 0004 94010000 		.word	default_kb_ctrl_uc_map
 1259 0008 94000000 		.word	default_kb_ctrl_spec_map
 1260 000c 1C000000 		.word	default_kb_ctrl_num_map
 1261 0010 94020000 		.word	default_kb_ctrl_lc_map
 1262 0014 94020000 		.word	default_kb_ctrl_lc_map
 1263 0018 94020000 		.word	default_kb_ctrl_lc_map
 1264 001c 94020000 		.word	default_kb_ctrl_lc_map
 1265 0020 00000000 		.word	0
 1266              		.type	kb_map, %object
 1267              		.size	kb_map, 36
 1268              	kb_map:
 1269 0024 E4020000 		.word	default_kb_map_lc
 1270 0028 E4010000 		.word	default_kb_map_uc
 1271 002c E4000000 		.word	default_kb_map_spec
 1272 0030 40000000 		.word	default_kb_map_num
 1273 0034 E4020000 		.word	default_kb_map_lc
 1274 0038 E4020000 		.word	default_kb_map_lc
 1275 003c E4020000 		.word	default_kb_map_lc
 1276 0040 E4020000 		.word	default_kb_map_lc
 1277 0044 00000000 		.word	0
 1278              		.section	.rodata.str1.4,"aMS",%progbits,1
 1279              		.align	2
 1280              	.LC3:
 1281 0000 61626300 		.ascii	"abc\000"
ARM GAS  C:\Users\haske\AppData\Local\Temp\ccEGgQv3.s 			page 33


 1282              	.LC6:
 1283 0004 41424300 		.ascii	"ABC\000"
 1284              	.LC8:
 1285 0008 312300   		.ascii	"1#\000"
 1286 000b 00       		.space	1
 1287              	.LC10:
 1288 000c EF808D00 		.ascii	"\357\200\215\000"
 1289              	.LC12:
 1290 0010 EF849C00 		.ascii	"\357\204\234\000"
 1291              	.LC14:
 1292 0014 EF808C00 		.ascii	"\357\200\214\000"
 1293              	.LC16:
 1294 0018 456E7465 		.ascii	"Enter\000"
 1294      7200
 1295 001e 0000     		.space	2
 1296              	.LC18:
 1297 0020 EFA2A200 		.ascii	"\357\242\242\000"
 1298              	.LC20:
 1299 0024 EF819300 		.ascii	"\357\201\223\000"
 1300              	.LC22:
 1301 0028 EF819400 		.ascii	"\357\201\224\000"
 1302              	.LC24:
 1303 002c EF959A00 		.ascii	"\357\225\232\000"
 1304              	.LC26:
 1305 0030 2B2F2D00 		.ascii	"+/-\000"
 1306              	.LC30:
 1307 0034 3100     		.ascii	"1\000"
 1308 0036 0000     		.space	2
 1309              	.LC31:
 1310 0038 3200     		.ascii	"2\000"
 1311 003a 0000     		.space	2
 1312              	.LC32:
 1313 003c 3300     		.ascii	"3\000"
 1314 003e 0000     		.space	2
 1315              	.LC33:
 1316 0040 0A00     		.ascii	"\012\000"
 1317 0042 0000     		.space	2
 1318              	.LC34:
 1319 0044 3400     		.ascii	"4\000"
 1320 0046 0000     		.space	2
 1321              	.LC35:
 1322 0048 3500     		.ascii	"5\000"
 1323 004a 0000     		.space	2
 1324              	.LC36:
 1325 004c 3600     		.ascii	"6\000"
 1326 004e 0000     		.space	2
 1327              	.LC37:
 1328 0050 3700     		.ascii	"7\000"
 1329 0052 0000     		.space	2
 1330              	.LC38:
 1331 0054 3800     		.ascii	"8\000"
 1332 0056 0000     		.space	2
 1333              	.LC39:
 1334 0058 3900     		.ascii	"9\000"
 1335 005a 0000     		.space	2
 1336              	.LC40:
 1337 005c 3000     		.ascii	"0\000"
ARM GAS  C:\Users\haske\AppData\Local\Temp\ccEGgQv3.s 			page 34


 1338 005e 0000     		.space	2
 1339              	.LC41:
 1340 0060 2E00     		.ascii	".\000"
 1341 0062 0000     		.space	2
 1342              	.LC42:
 1343 0064 00       		.ascii	"\000"
 1344 0065 000000   		.space	3
 1345              	.LC43:
 1346 0068 2B00     		.ascii	"+\000"
 1347 006a 0000     		.space	2
 1348              	.LC44:
 1349 006c 2D00     		.ascii	"-\000"
 1350 006e 0000     		.space	2
 1351              	.LC45:
 1352 0070 2F00     		.ascii	"/\000"
 1353 0072 0000     		.space	2
 1354              	.LC46:
 1355 0074 2A00     		.ascii	"*\000"
 1356 0076 0000     		.space	2
 1357              	.LC47:
 1358 0078 3D00     		.ascii	"=\000"
 1359 007a 0000     		.space	2
 1360              	.LC48:
 1361 007c 2500     		.ascii	"%\000"
 1362 007e 0000     		.space	2
 1363              	.LC49:
 1364 0080 2100     		.ascii	"!\000"
 1365 0082 0000     		.space	2
 1366              	.LC50:
 1367 0084 3F00     		.ascii	"?\000"
 1368 0086 0000     		.space	2
 1369              	.LC51:
 1370 0088 2300     		.ascii	"#\000"
 1371 008a 0000     		.space	2
 1372              	.LC52:
 1373 008c 3C00     		.ascii	"<\000"
 1374 008e 0000     		.space	2
 1375              	.LC53:
 1376 0090 3E00     		.ascii	">\000"
 1377 0092 0000     		.space	2
 1378              	.LC54:
 1379 0094 5C00     		.ascii	"\\\000"
 1380 0096 0000     		.space	2
 1381              	.LC55:
 1382 0098 4000     		.ascii	"@\000"
 1383 009a 0000     		.space	2
 1384              	.LC56:
 1385 009c 2400     		.ascii	"$\000"
 1386 009e 0000     		.space	2
 1387              	.LC57:
 1388 00a0 2800     		.ascii	"(\000"
 1389 00a2 0000     		.space	2
 1390              	.LC58:
 1391 00a4 2900     		.ascii	")\000"
 1392 00a6 0000     		.space	2
 1393              	.LC59:
 1394 00a8 7B00     		.ascii	"{\000"
ARM GAS  C:\Users\haske\AppData\Local\Temp\ccEGgQv3.s 			page 35


 1395 00aa 0000     		.space	2
 1396              	.LC60:
 1397 00ac 7D00     		.ascii	"}\000"
 1398 00ae 0000     		.space	2
 1399              	.LC61:
 1400 00b0 5B00     		.ascii	"[\000"
 1401 00b2 0000     		.space	2
 1402              	.LC62:
 1403 00b4 5D00     		.ascii	"]\000"
 1404 00b6 0000     		.space	2
 1405              	.LC63:
 1406 00b8 3B00     		.ascii	";\000"
 1407 00ba 0000     		.space	2
 1408              	.LC64:
 1409 00bc 2200     		.ascii	"\"\000"
 1410 00be 0000     		.space	2
 1411              	.LC65:
 1412 00c0 2700     		.ascii	"'\000"
 1413 00c2 0000     		.space	2
 1414              	.LC66:
 1415 00c4 2000     		.ascii	" \000"
 1416 00c6 0000     		.space	2
 1417              	.LC67:
 1418 00c8 5100     		.ascii	"Q\000"
 1419 00ca 0000     		.space	2
 1420              	.LC68:
 1421 00cc 5700     		.ascii	"W\000"
 1422 00ce 0000     		.space	2
 1423              	.LC69:
 1424 00d0 4500     		.ascii	"E\000"
 1425 00d2 0000     		.space	2
 1426              	.LC70:
 1427 00d4 5200     		.ascii	"R\000"
 1428 00d6 0000     		.space	2
 1429              	.LC71:
 1430 00d8 5400     		.ascii	"T\000"
 1431 00da 0000     		.space	2
 1432              	.LC72:
 1433 00dc 5900     		.ascii	"Y\000"
 1434 00de 0000     		.space	2
 1435              	.LC73:
 1436 00e0 5500     		.ascii	"U\000"
 1437 00e2 0000     		.space	2
 1438              	.LC74:
 1439 00e4 4900     		.ascii	"I\000"
 1440 00e6 0000     		.space	2
 1441              	.LC75:
 1442 00e8 4F00     		.ascii	"O\000"
 1443 00ea 0000     		.space	2
 1444              	.LC76:
 1445 00ec 5000     		.ascii	"P\000"
 1446 00ee 0000     		.space	2
 1447              	.LC77:
 1448 00f0 4100     		.ascii	"A\000"
 1449 00f2 0000     		.space	2
 1450              	.LC78:
 1451 00f4 5300     		.ascii	"S\000"
ARM GAS  C:\Users\haske\AppData\Local\Temp\ccEGgQv3.s 			page 36


 1452 00f6 0000     		.space	2
 1453              	.LC79:
 1454 00f8 4400     		.ascii	"D\000"
 1455 00fa 0000     		.space	2
 1456              	.LC80:
 1457 00fc 4600     		.ascii	"F\000"
 1458 00fe 0000     		.space	2
 1459              	.LC81:
 1460 0100 4700     		.ascii	"G\000"
 1461 0102 0000     		.space	2
 1462              	.LC82:
 1463 0104 4800     		.ascii	"H\000"
 1464 0106 0000     		.space	2
 1465              	.LC83:
 1466 0108 4A00     		.ascii	"J\000"
 1467 010a 0000     		.space	2
 1468              	.LC84:
 1469 010c 4B00     		.ascii	"K\000"
 1470 010e 0000     		.space	2
 1471              	.LC85:
 1472 0110 4C00     		.ascii	"L\000"
 1473 0112 0000     		.space	2
 1474              	.LC86:
 1475 0114 5F00     		.ascii	"_\000"
 1476 0116 0000     		.space	2
 1477              	.LC87:
 1478 0118 5A00     		.ascii	"Z\000"
 1479 011a 0000     		.space	2
 1480              	.LC88:
 1481 011c 5800     		.ascii	"X\000"
 1482 011e 0000     		.space	2
 1483              	.LC89:
 1484 0120 4300     		.ascii	"C\000"
 1485 0122 0000     		.space	2
 1486              	.LC90:
 1487 0124 5600     		.ascii	"V\000"
 1488 0126 0000     		.space	2
 1489              	.LC91:
 1490 0128 4200     		.ascii	"B\000"
 1491 012a 0000     		.space	2
 1492              	.LC92:
 1493 012c 4E00     		.ascii	"N\000"
 1494 012e 0000     		.space	2
 1495              	.LC93:
 1496 0130 4D00     		.ascii	"M\000"
 1497 0132 0000     		.space	2
 1498              	.LC94:
 1499 0134 2C00     		.ascii	",\000"
 1500 0136 0000     		.space	2
 1501              	.LC95:
 1502 0138 3A00     		.ascii	":\000"
 1503 013a 0000     		.space	2
 1504              	.LC96:
 1505 013c 7100     		.ascii	"q\000"
 1506 013e 0000     		.space	2
 1507              	.LC97:
 1508 0140 7700     		.ascii	"w\000"
ARM GAS  C:\Users\haske\AppData\Local\Temp\ccEGgQv3.s 			page 37


 1509 0142 0000     		.space	2
 1510              	.LC98:
 1511 0144 6500     		.ascii	"e\000"
 1512 0146 0000     		.space	2
 1513              	.LC99:
 1514 0148 7200     		.ascii	"r\000"
 1515 014a 0000     		.space	2
 1516              	.LC100:
 1517 014c 7400     		.ascii	"t\000"
 1518 014e 0000     		.space	2
 1519              	.LC101:
 1520 0150 7900     		.ascii	"y\000"
 1521 0152 0000     		.space	2
 1522              	.LC102:
 1523 0154 7500     		.ascii	"u\000"
 1524 0156 0000     		.space	2
 1525              	.LC103:
 1526 0158 6900     		.ascii	"i\000"
 1527 015a 0000     		.space	2
 1528              	.LC104:
 1529 015c 6F00     		.ascii	"o\000"
 1530 015e 0000     		.space	2
 1531              	.LC105:
 1532 0160 7000     		.ascii	"p\000"
 1533 0162 0000     		.space	2
 1534              	.LC106:
 1535 0164 6100     		.ascii	"a\000"
 1536 0166 0000     		.space	2
 1537              	.LC107:
 1538 0168 7300     		.ascii	"s\000"
 1539 016a 0000     		.space	2
 1540              	.LC108:
 1541 016c 6400     		.ascii	"d\000"
 1542 016e 0000     		.space	2
 1543              	.LC109:
 1544 0170 6600     		.ascii	"f\000"
 1545 0172 0000     		.space	2
 1546              	.LC110:
 1547 0174 6700     		.ascii	"g\000"
 1548 0176 0000     		.space	2
 1549              	.LC111:
 1550 0178 6800     		.ascii	"h\000"
 1551 017a 0000     		.space	2
 1552              	.LC112:
 1553 017c 6A00     		.ascii	"j\000"
 1554 017e 0000     		.space	2
 1555              	.LC113:
 1556 0180 6B00     		.ascii	"k\000"
 1557 0182 0000     		.space	2
 1558              	.LC114:
 1559 0184 6C00     		.ascii	"l\000"
 1560 0186 0000     		.space	2
 1561              	.LC115:
 1562 0188 7A00     		.ascii	"z\000"
 1563 018a 0000     		.space	2
 1564              	.LC116:
 1565 018c 7800     		.ascii	"x\000"
ARM GAS  C:\Users\haske\AppData\Local\Temp\ccEGgQv3.s 			page 38


 1566 018e 0000     		.space	2
 1567              	.LC117:
 1568 0190 6300     		.ascii	"c\000"
 1569 0192 0000     		.space	2
 1570              	.LC118:
 1571 0194 7600     		.ascii	"v\000"
 1572 0196 0000     		.space	2
 1573              	.LC119:
 1574 0198 6200     		.ascii	"b\000"
 1575 019a 0000     		.space	2
 1576              	.LC120:
 1577 019c 6E00     		.ascii	"n\000"
 1578 019e 0000     		.space	2
 1579              	.LC121:
 1580 01a0 6D00     		.ascii	"m\000"
 1581              		.text
 1582              	.Letext0:
 1583              		.file 2 "c:\\program files (x86)\\cypress\\psoc creator\\4.4\\psoc creator\\import\\gnu\\arm\\5.4.
 1584              		.file 3 "c:\\program files (x86)\\cypress\\psoc creator\\4.4\\psoc creator\\import\\gnu\\arm\\5.4.
 1585              		.file 4 "c:\\projects\\paindrain\\arduinolcd\\test\\pain drain\\libraries\\lvgl\\src\\misc\\lv_are
 1586              		.file 5 "c:\\projects\\paindrain\\arduinolcd\\test\\pain drain\\libraries\\lvgl\\src\\font\\lv_fon
 1587              		.file 6 "c:\\projects\\paindrain\\arduinolcd\\test\\pain drain\\libraries\\lvgl\\src\\misc\\lv_typ
 1588              		.file 7 "c:\\projects\\paindrain\\arduinolcd\\test\\pain drain\\libraries\\lvgl\\src\\misc\\lv_col
 1589              		.file 8 "c:\\projects\\paindrain\\arduinolcd\\test\\pain drain\\libraries\\lvgl\\src\\misc\\lv_bid
 1590              		.file 9 "c:\\projects\\paindrain\\arduinolcd\\test\\pain drain\\libraries\\lvgl\\src\\misc\\lv_sty
 1591              		.file 10 "c:\\projects\\paindrain\\arduinolcd\\test\\pain drain\\libraries\\lvgl\\src\\core\\lv_ob
 1592              		.file 11 "c:\\projects\\paindrain\\arduinolcd\\test\\pain drain\\libraries\\lvgl\\src\\misc\\lv_ll
 1593              		.file 12 "c:\\projects\\paindrain\\arduinolcd\\test\\pain drain\\libraries\\lvgl\\src\\core\\lv_gr
 1594              		.file 13 "c:\\projects\\paindrain\\arduinolcd\\test\\pain drain\\libraries\\lvgl\\src\\core\\lv_ob
 1595              		.file 14 "c:\\projects\\paindrain\\arduinolcd\\test\\pain drain\\libraries\\lvgl\\src\\core\\lv_ob
 1596              		.file 15 "c:\\projects\\paindrain\\arduinolcd\\test\\pain drain\\libraries\\lvgl\\src\\core\\lv_ob
 1597              		.file 16 "c:\\projects\\paindrain\\arduinolcd\\test\\pain drain\\libraries\\lvgl\\src\\core\\lv_ev
 1598              		.file 17 "c:\\projects\\paindrain\\arduinolcd\\test\\pain drain\\libraries\\lvgl\\src\\widgets\\lv
 1599              		.file 18 "..\\..\\..\\arduinoLCD\\test\\Pain Drain\\libraries\\lvgl\\src\\extra\\widgets\\keyboard
 1600              		.file 19 "c:\\projects\\paindrain\\arduinolcd\\test\\pain drain\\libraries\\lvgl\\src\\misc\\lv_me
 1601              		.file 20 "c:\\projects\\paindrain\\arduinolcd\\test\\pain drain\\libraries\\lvgl\\src\\core\\lv_ob
 1602              		.file 21 "c:\\projects\\paindrain\\arduinolcd\\test\\pain drain\\libraries\\lvgl\\src\\core\\lv_ob
 1603              		.file 22 "c:\\projects\\paindrain\\arduinolcd\\test\\pain drain\\libraries\\lvgl\\src\\widgets\\lv
 1604              		.file 23 "c:\\program files (x86)\\cypress\\psoc creator\\4.4\\psoc creator\\import\\gnu\\arm\\5.4